 OPOSCashChanger

 Timestamp is 5b863caf (Wed Aug 29 15:26:55 2018)

 Preferred load address is 0000000180000000

 Start         Length     Name                   Class
 0001:00000000 000000c0H .text$di                CODE
 0001:000000c0 0001fbe0H .text$mn                CODE
 0001:0001fca0 00000020H .text$mn$00             CODE
 0001:0001fcc0 00000400H .text$x                 CODE
 0001:000200c0 000000c0H .text$yd                CODE
 0002:00000000 00000618H .idata$5                DATA
 0002:00000618 00000010H .00cfg                  DATA
 0002:00000628 00000008H .CRT$XCA                DATA
 0002:00000630 00000008H .CRT$XCL                DATA
 0002:00000638 00000020H .CRT$XCU                DATA
 0002:00000658 00000008H .CRT$XCZ                DATA
 0002:00000660 00000008H .CRT$XIA                DATA
 0002:00000668 00000020H .CRT$XIC                DATA
 0002:00000688 00000008H .CRT$XIZ                DATA
 0002:00000690 00000008H .CRT$XLA                DATA
 0002:00000698 00000008H .CRT$XLZ                DATA
 0002:000006a0 00000008H .CRT$XPA                DATA
 0002:000006a8 00000010H .CRT$XPX                DATA
 0002:000006b8 00000008H .CRT$XPXA               DATA
 0002:000006c0 00000008H .CRT$XPZ                DATA
 0002:000006c8 00000008H .CRT$XTA                DATA
 0002:000006d0 00000010H .CRT$XTZ                DATA
 0002:000006d8 00000000H .gfids$y                DATA
 0002:000006e0 0000a2c0H .rdata                  DATA
 0002:0000a9a0 00000028H .rdata$T                DATA
 0002:0000a9c8 00000274H .rdata$r                DATA
 0002:0000ac3c 000003fcH .rdata$zzzdbg           DATA
 0002:0000b038 00000008H .rtc$IAA                DATA
 0002:0000b040 00000008H .rtc$IZZ                DATA
 0002:0000b048 00000008H .rtc$TAA                DATA
 0002:0000b050 00000008H .rtc$TZZ                DATA
 0002:0000b058 00000004H .tls                    DATA
 0002:0000b05c 00000004H .tls$                   DATA
 0002:0000b060 00000008H .tls$ZZZ                DATA
 0002:0000b068 00001690H .xdata                  DATA
 0002:0000c6f8 00000150H .xdata$x                DATA
 0002:0000c848 00000008H ATL$__a                 DATA
 0002:0000c850 00000010H ATL$__z                 DATA
 0002:0000c860 000000acH .edata                  DATA
 0002:0000c90c 00000078H .idata$2                DATA
 0002:0000c984 00000014H .idata$3                DATA
 0002:0000c998 00000618H .idata$4                DATA
 0002:0000cfb0 00000c1cH .idata$6                DATA
 0003:00000000 00000ca8H .data                   DATA
 0003:00000ca8 000000c8H .data$r                 DATA
 0003:00000d70 000013fcH .bss                    DATA
 0004:00000000 00001f68H .pdata                  DATA
 0005:00000000 00000220H .rsrc$01                DATA
 0005:00000220 00004e20H .rsrc$02                DATA

  Address         Publics by Value              Rva+Base               Lib:Object

 0000:00000000       __guard_fids_count         0000000000000000     <absolute>
 0000:00000000       __hybrid_code_map          0000000000000000     <absolute>
 0000:00000000       __guard_longjmp_count      0000000000000000     <absolute>
 0000:00000000       __guard_iat_count          0000000000000000     <absolute>
 0000:00000000       __guard_longjmp_table      0000000000000000     <absolute>
 0000:00000000       __volatile_metadata        0000000000000000     <absolute>
 0000:00000000       __guard_iat_table          0000000000000000     <absolute>
 0000:00000000       __hybrid_code_map_count    0000000000000000     <absolute>
 0000:00000000       __enclave_config           0000000000000000     <absolute>
 0000:00000000       ___safe_se_handler_count   0000000000000000     <absolute>
 0000:00000000       ___safe_se_handler_table   0000000000000000     <absolute>
 0000:00000000       __guard_fids_table         0000000000000000     <absolute>
 0000:00000000       __hybrid_auxiliary_iat     0000000000000000     <absolute>
 0000:00000000       __dynamic_value_reloc_table 0000000000000000     <absolute>
 0000:00000100       __guard_flags              0000000000000100     <absolute>
 0000:00000000       __ImageBase                0000000180000000     <linker-defined>
 0001:000000c0       ?DupWide@_CW@@AEAAXXZ      00000001800010c0 f   CWString.obj
 0001:000000e8       ?cw_dup@@YAXPEBDAEAHAEAPEA_W1@Z 00000001800010e8 f   CWString.obj
 0001:00000194       ?cw_memcpy@@YAHPEA_WPEBDH@Z 0000000180001194 f   CWString.obj
 0001:000001e0       ?cw_strcpy@@YAHPEA_WPEBD@Z 00000001800011e0 f   CWString.obj
 0001:000001f4       ??0CAtlComModule@ATL@@QEAA@XZ 00000001800011f4 f i OposVariant.obj
 0001:0000027c       ??0CAtlWinModule@ATL@@QEAA@XZ 000000018000127c f i OposVariant.obj
 0001:000002f0       ??0OposDispParms@@QEAA@PEAVOposVariant@@H@Z 00000001800012f0 f   OposVariant.obj
 0001:00000398       ??1OposDispParms@@QEAA@XZ  0000000180001398 f   OposVariant.obj
 0001:000003b0       ??_Estringdispid@CComTypeInfoHolder@ATL@@QEAAPEAXI@Z 00000001800013b0 f i OposVariant.obj
 0001:00000454       ?AtlWinModuleTerm@ATL@@YAJPEAU_ATL_WIN_MODULE70@1@PEAUHINSTANCE__@@@Z 0000000180001454 f i OposVariant.obj
 0001:00000504       ?ChangeBSTR@OposVariant@@QEAAXPEAPEA_WAEAJ@Z 0000000180001504 f   OposVariant.obj
 0001:00000564       ?ChangeLONG@OposVariant@@QEAAXPEAJAEAJ@Z 0000000180001564 f   OposVariant.obj
 0001:000005c0       ?GetLONG@OposVariant@@QEAAJXZ 00000001800015c0 f   OposVariant.obj
 0001:000005e4       ?SetBSTR@OposVariant@@QEAAXPEA_WAEAJ@Z 00000001800015e4 f   OposVariant.obj
 0001:00000624       ?SetBSTR_Copy@OposVariant@@QEAAXPEA_WAEAJ@Z 0000000180001624 f   OposVariant.obj
 0001:00000694       ?SetBSTR_InOutPtr@OposVariant@@QEAA_NPEAPEA_WAEAJ@Z 0000000180001694 f   OposVariant.obj
 0001:000006e4       ?SetBSTR_OutPtr@OposVariant@@QEAA_NPEAPEA_WAEAJ@Z 00000001800016e4 f   OposVariant.obj
 0001:00000700       ?SetDispatch_Ptr@OposVariant@@QEAAXPEAUIDispatch@@AEAJ@Z 0000000180001700 f   OposVariant.obj
 0001:00000758       ?SetLONG@OposVariant@@QEAAXJ@Z 0000000180001758 f   OposVariant.obj
 0001:00000788       ?SetLONG_Ptr@OposVariant@@QEAAXPEAJAEAJ@Z 0000000180001788 f   OposVariant.obj
 0001:000007d4       ?SetString@OposVariant@@QEAAXPEB_WAEAJ@Z 00000001800017d4 f   OposVariant.obj
 0001:00000838       ?SetVARIANT_BOOL@OposVariant@@QEAAXF@Z 0000000180001838 f   OposVariant.obj
 0001:00000870       ?SetVARIANT_BOOL_Ptr@OposVariant@@QEAAXPEAFAEAJ@Z 0000000180001870 f   OposVariant.obj
 0001:000008bc       ?Term@CAtlComModule@ATL@@QEAAXXZ 00000001800018bc f i OposVariant.obj
 0001:0000092c       ?_AtlInitializeCriticalSectionEx@ATL@@YAHPEAU_RTL_CRITICAL_SECTION@@KK@Z 000000018000192c f i OposVariant.obj
 0001:00000934       ?_AtlRaiseException@ATL@@YAXKK@Z 0000000180001934 f i OposVariant.obj
 0001:00000944       ?CreateInstance@?$CComCreator@V?$CComObjectCached@VCComClassFactory@ATL@@@ATL@@@ATL@@SAJPEAXAEBU_GUID@@PEAPEAX@Z 0000000180001944 f i CashChanger.obj
 0001:00000a44       ?CreateInstance@?$CComCreator2@V?$CComCreator@V?$CComObject@VCOPOSCashChanger@@@ATL@@@ATL@@V?$CComCreator@V?$CComAggObject@VCOPOSCashChanger@@@ATL@@@2@@ATL@@SAJPEAXAEBU_GUID@@PEAPEAX@Z 0000000180001a44 f i CashChanger.obj
 0001:00000a54       ?QueryGetData@?$IDataObjectImpl@VCOPOSCashChanger@@@ATL@@UEAAJPEAUtagFORMATETC@@@Z 0000000180001a54 f i CashChanger.obj
 0001:00000a54       ?InitFromData@?$IOleObjectImpl@VCOPOSCashChanger@@@ATL@@UEAAJPEAUIDataObject@@HK@Z 0000000180001a54 f i CashChanger.obj
 0001:00000a54       ?SetMoniker@?$IOleObjectImpl@VCOPOSCashChanger@@@ATL@@UEAAJKPEAUIMoniker@@@Z 0000000180001a54 f i CashChanger.obj
 0001:00000a54       ?SOErrorDummy@COPOSCashChanger@@MEAAJJJJPEAJ@Z 0000000180001a54 f i CashChanger.obj
 0001:00000a54       ?GetControlInfo@?$IOleControlImpl@VCOPOSCashChanger@@@ATL@@UEAAJPEAUtagCONTROLINFO@@@Z 0000000180001a54 f i CashChanger.obj
 0001:00000a54       ?GetColorSet@?$IViewObjectExImpl@VCOPOSCashChanger@@@ATL@@UEAAJKJPEAXPEAUtagDVTARGETDEVICE@@PEAUHDC__@@PEAPEAUtagLOGPALETTE@@@Z 0000000180001a54 f i CashChanger.obj
 0001:00000a54       ?SetData@?$IDataObjectImpl@VCOPOSCashChanger@@@ATL@@UEAAJPEAUtagFORMATETC@@PEAUtagSTGMEDIUM@@H@Z 0000000180001a54 f i CashChanger.obj
 0001:00000a54       ?GetCanonicalFormatEtc@?$IDataObjectImpl@VCOPOSCashChanger@@@ATL@@UEAAJPEAUtagFORMATETC@@0@Z 0000000180001a54 f i CashChanger.obj
 0001:00000a54       ?GetClipboardData@?$IOleObjectImpl@VCOPOSCashChanger@@@ATL@@UEAAJKPEAPEAUIDataObject@@@Z 0000000180001a54 f i CashChanger.obj
 0001:00000a54       ?Unfreeze@?$IViewObjectExImpl@VCOPOSCashChanger@@@ATL@@UEAAJK@Z 0000000180001a54 f i CashChanger.obj
 0001:00000a54       ?GetDataHere@?$IDataObjectImpl@VCOPOSCashChanger@@@ATL@@UEAAJPEAUtagFORMATETC@@PEAUtagSTGMEDIUM@@@Z 0000000180001a54 f i CashChanger.obj
 0001:00000a54       ?GetMoniker@?$IOleObjectImpl@VCOPOSCashChanger@@@ATL@@UEAAJKKPEAPEAUIMoniker@@@Z 0000000180001a54 f i CashChanger.obj
 0001:00000a54       ?GetDropTarget@?$IOleInPlaceObjectWindowlessImpl@VCOPOSCashChanger@@@ATL@@UEAAJPEAPEAUIDropTarget@@@Z 0000000180001a54 f i CashChanger.obj
 0001:00000a54       ?QueryInterface@CRegObject@ATL@@UEAAJAEBU_GUID@@PEAPEAX@Z 0000000180001a54 f i CashChanger.obj
 0001:00000a54       ?ContextSensitiveHelp@?$IOleInPlaceObjectWindowlessImpl@VCOPOSCashChanger@@@ATL@@UEAAJH@Z 0000000180001a54 f i CashChanger.obj
 0001:00000a54       ?GetRect@?$IViewObjectExImpl@VCOPOSCashChanger@@@ATL@@UEAAJKPEAU_RECTL@@@Z 0000000180001a54 f i CashChanger.obj
 0001:00000a54       ?SOOutputCompleteDummy@COPOSCashChanger@@MEAAJJ@Z 0000000180001a54 f i CashChanger.obj
 0001:00000a54       ?SetColorScheme@?$IOleObjectImpl@VCOPOSCashChanger@@@ATL@@UEAAJPEAUtagLOGPALETTE@@@Z 0000000180001a54 f i CashChanger.obj
 0001:00000a54       ?OnMnemonic@?$IOleControlImpl@VCOPOSCashChanger@@@ATL@@UEAAJPEAUtagMSG@@@Z 0000000180001a54 f i CashChanger.obj
 0001:00000a54       ?ContextSensitiveHelp@?$IOleInPlaceActiveObjectImpl@VCOPOSCashChanger@@@ATL@@UEAAJH@Z 0000000180001a54 f i CashChanger.obj
 0001:00000a54       ?ReactivateAndUndo@?$IOleInPlaceObjectWindowlessImpl@VCOPOSCashChanger@@@ATL@@UEAAJXZ 0000000180001a54 f i CashChanger.obj
 0001:00000a54       ?EnumFormatEtc@?$IDataObjectImpl@VCOPOSCashChanger@@@ATL@@UEAAJKPEAPEAUIEnumFORMATETC@@@Z 0000000180001a54 f i CashChanger.obj
 0001:00000a54       ?Freeze@?$IViewObjectExImpl@VCOPOSCashChanger@@@ATL@@UEAAJKJPEAXPEAK@Z 0000000180001a54 f i CashChanger.obj
 0001:00000a5c       ?FAccessAllowed@?$IObjectSafetyImpl@VCOPOSCashChanger@@$02@ATL@@MEAAHXZ 0000000180001a5c f i CashChanger.obj
 0001:00000a5c       ?AddRef@CRegObject@ATL@@UEAAKXZ 0000000180001a5c f i CashChanger.obj
 0001:00000a64       ?Release@CRegObject@ATL@@UEAAKXZ 0000000180001a64 f i CashChanger.obj
 0001:00000a64       ?OnAmbientPropertyChange@?$IOleControlImpl@VCOPOSCashChanger@@@ATL@@UEAAJJ@Z 0000000180001a64 f i CashChanger.obj
 0001:00000a64       ?Update@?$IOleObjectImpl@VCOPOSCashChanger@@@ATL@@UEAAJXZ 0000000180001a64 f i CashChanger.obj
 0001:00000a64       ?SetHostNames@?$IOleObjectImpl@VCOPOSCashChanger@@@ATL@@UEAAJPEB_W0@Z 0000000180001a64 f i CashChanger.obj
 0001:00000a64       ?IsUpToDate@?$IOleObjectImpl@VCOPOSCashChanger@@@ATL@@UEAAJXZ 0000000180001a64 f i CashChanger.obj
 0001:00000a64       ?OnFrameWindowActivate@?$IOleInPlaceActiveObjectImpl@VCOPOSCashChanger@@@ATL@@UEAAJH@Z 0000000180001a64 f i CashChanger.obj
 0001:00000a64       ?EnableModeless@?$IOleInPlaceActiveObjectImpl@VCOPOSCashChanger@@@ATL@@UEAAJH@Z 0000000180001a64 f i CashChanger.obj
 0001:00000a64       ?GetCategoryMap@CComObjectRootBase@ATL@@SAPEBU_ATL_CATMAP_ENTRY@2@XZ 0000000180001a64 f i CashChanger.obj
 0001:00000a64       ?SaveCompleted@?$IPersistStorageImpl@VCOPOSCashChanger@@@ATL@@UEAAJPEAUIStorage@@@Z 0000000180001a64 f i CashChanger.obj
 0001:00000a64       ?HandsOffStorage@?$IPersistStorageImpl@VCOPOSCashChanger@@@ATL@@UEAAJXZ 0000000180001a64 f i CashChanger.obj
 0001:00000a64       ?ResizeBorder@?$IOleInPlaceActiveObjectImpl@VCOPOSCashChanger@@@ATL@@UEAAJPEBUtagRECT@@PEAUIOleInPlaceUIWindow@@H@Z 0000000180001a64 f i CashChanger.obj
 0001:00000a64       ?GetObjectDescription@?$CComCoClass@VCOPOSCashChanger@@$1?CLSID_OPOSCashChanger@@3U_GUID@@B@ATL@@SAPEB_WXZ 0000000180001a64 f i CashChanger.obj
 0001:00000a68       ?AddReplacement@CRegObject@ATL@@UEAAJPEB_W0@Z 0000000180001a68 f i CashChanger.obj
 0001:00000a98       ?ClearReplacements@CRegObject@ATL@@UEAAJXZ 0000000180001a98 f i CashChanger.obj
 0001:00000aa4       ??_ECRegObject@ATL@@UEAAPEAXI@Z 0000000180001aa4 f i CashChanger.obj
 0001:00000aa4       ??_GCRegObject@ATL@@UEAAPEAXI@Z 0000000180001aa4 f i CashChanger.obj
 0001:00000b24       ?Next@?$CComEnumImpl@UIEnumConnectionPoints@@$1?_GUID_b196b285_bab4_101a_b69c_00aa00341d07@@3U__s_GUID@@BPEAUIConnectionPoint@@V?$_CopyInterface@UIConnectionPoint@@@ATL@@@ATL@@UEAAJKPEAPEAUIConnectionPoint@@PEAK@Z 0000000180001b24 f i CashChanger.obj
 0001:00000bf0       ?Skip@?$CComEnumImpl@UIEnumConnectionPoints@@$1?_GUID_b196b285_bab4_101a_b69c_00aa00341d07@@3U__s_GUID@@BPEAUIConnectionPoint@@V?$_CopyInterface@UIConnectionPoint@@@ATL@@@ATL@@UEAAJK@Z 0000000180001bf0 f i CashChanger.obj
 0001:00000c1c       ?Reset@?$CComEnumImpl@UIEnumConnectionPoints@@$1?_GUID_b196b285_bab4_101a_b69c_00aa00341d07@@3U__s_GUID@@BPEAUIConnectionPoint@@V?$_CopyInterface@UIConnectionPoint@@@ATL@@@ATL@@UEAAJXZ 0000000180001c1c f i CashChanger.obj
 0001:00000c1c       ?Reset@?$CComEnumImpl@UIEnumConnections@@$1?_GUID_b196b287_bab4_101a_b69c_00aa00341d07@@3U__s_GUID@@BUtagCONNECTDATA@@V?$_Copy@UtagCONNECTDATA@@@ATL@@@ATL@@UEAAJXZ 0000000180001c1c f i CashChanger.obj
 0001:00000c28       ?Clone@?$CComEnumImpl@UIEnumConnectionPoints@@$1?_GUID_b196b285_bab4_101a_b69c_00aa00341d07@@3U__s_GUID@@BPEAUIConnectionPoint@@V?$_CopyInterface@UIConnectionPoint@@@ATL@@@ATL@@UEAAJPEAPEAUIEnumConnectionPoints@@@Z 0000000180001c28 f i CashChanger.obj
 0001:00000d50       ?AddRef@?$CComObject@V?$CComEnum@UIEnumConnections@@$1?_GUID_b196b287_bab4_101a_b69c_00aa00341d07@@3U__s_GUID@@BUtagCONNECTDATA@@V?$_Copy@UtagCONNECTDATA@@@ATL@@VCComSingleThreadModel@6@@ATL@@@ATL@@UEAAKXZ 0000000180001d50 f i CashChanger.obj
 0001:00000d50       ?AddRef@?$CComObject@V?$CComEnum@UIEnumConnectionPoints@@$1?_GUID_b196b285_bab4_101a_b69c_00aa00341d07@@3U__s_GUID@@BPEAUIConnectionPoint@@V?$_CopyInterface@UIConnectionPoint@@@ATL@@VCComSingleThreadModel@6@@ATL@@@ATL@@UEAAKXZ 0000000180001d50 f i CashChanger.obj
 0001:00000d5c       ?Release@?$CComObject@V?$CComEnum@UIEnumConnectionPoints@@$1?_GUID_b196b285_bab4_101a_b69c_00aa00341d07@@3U__s_GUID@@BPEAUIConnectionPoint@@V?$_CopyInterface@UIConnectionPoint@@@ATL@@VCComSingleThreadModel@6@@ATL@@@ATL@@UEAAKXZ 0000000180001d5c f i CashChanger.obj
 0001:00000d5c       ?Release@?$CComObject@V?$CComEnum@UIEnumConnections@@$1?_GUID_b196b287_bab4_101a_b69c_00aa00341d07@@3U__s_GUID@@BUtagCONNECTDATA@@V?$_Copy@UtagCONNECTDATA@@@ATL@@VCComSingleThreadModel@6@@ATL@@@ATL@@UEAAKXZ 0000000180001d5c f i CashChanger.obj
 0001:00000db0       ?QueryInterface@?$CComObject@V?$CComEnum@UIEnumConnectionPoints@@$1?_GUID_b196b285_bab4_101a_b69c_00aa00341d07@@3U__s_GUID@@BPEAUIConnectionPoint@@V?$_CopyInterface@UIConnectionPoint@@@ATL@@VCComSingleThreadModel@6@@ATL@@@ATL@@UEAAJAEBU_GUID@@PEAPEAX@Z 0000000180001db0 f i CashChanger.obj
 0001:00000dc4       ??_E?$CComObject@V?$CComEnum@UIEnumConnectionPoints@@$1?_GUID_b196b285_bab4_101a_b69c_00aa00341d07@@3U__s_GUID@@BPEAUIConnectionPoint@@V?$_CopyInterface@UIConnectionPoint@@@ATL@@VCComSingleThreadModel@6@@ATL@@@ATL@@UEAAPEAXI@Z 0000000180001dc4 f i CashChanger.obj
 0001:00000dc4       ??_G?$CComObject@V?$CComEnum@UIEnumConnectionPoints@@$1?_GUID_b196b285_bab4_101a_b69c_00aa00341d07@@3U__s_GUID@@BPEAUIConnectionPoint@@V?$_CopyInterface@UIConnectionPoint@@@ATL@@VCComSingleThreadModel@6@@ATL@@@ATL@@UEAAPEAXI@Z 0000000180001dc4 f i CashChanger.obj
 0001:00000e1c       ?AddRef@?$CComObjectCached@VCComClassFactory@ATL@@@ATL@@UEAAKXZ 0000000180001e1c f i CashChanger.obj
 0001:00000e48       ?Release@?$CComObjectCached@VCComClassFactory@ATL@@@ATL@@UEAAKXZ 0000000180001e48 f i CashChanger.obj
 0001:00000e88       ?QueryInterface@?$CComObjectCached@VCComClassFactory@ATL@@@ATL@@UEAAJAEBU_GUID@@PEAPEAX@Z 0000000180001e88 f i CashChanger.obj
 0001:00000e9c       ??_E?$CComObjectCached@VCComClassFactory@ATL@@@ATL@@UEAAPEAXI@Z 0000000180001e9c f i CashChanger.obj
 0001:00000e9c       ??_G?$CComObjectCached@VCComClassFactory@ATL@@@ATL@@UEAAPEAXI@Z 0000000180001e9c f i CashChanger.obj
 0001:00000ef4       ?AddRef@?$CComAggObject@VCOPOSCashChanger@@@ATL@@UEAAKXZ 0000000180001ef4 f i CashChanger.obj
 0001:00000f00       ?Release@?$CComAggObject@VCOPOSCashChanger@@@ATL@@UEAAKXZ 0000000180001f00 f i CashChanger.obj
 0001:00000f54       ?QueryInterface@?$CComAggObject@VCOPOSCashChanger@@@ATL@@UEAAJAEBU_GUID@@PEAPEAX@Z 0000000180001f54 f i CashChanger.obj
 0001:00000fb4       ?AddRef@?$CComContainedObject@VCOPOSCashChanger@@@ATL@@UEAAKXZ 0000000180001fb4 f i CashChanger.obj
 0001:00000fc4       ?Release@?$CComContainedObject@VCOPOSCashChanger@@@ATL@@UEAAKXZ 0000000180001fc4 f i CashChanger.obj
 0001:00000fd4       ?QueryInterface@?$CComContainedObject@VCOPOSCashChanger@@@ATL@@UEAAJAEBU_GUID@@PEAPEAX@Z 0000000180001fd4 f i CashChanger.obj
 0001:00000fe4       ??_G?$CComAggObject@VCOPOSCashChanger@@@ATL@@UEAAPEAXI@Z 0000000180001fe4 f i CashChanger.obj
 0001:00000fe4       ??_E?$CComAggObject@VCOPOSCashChanger@@@ATL@@UEAAPEAXI@Z 0000000180001fe4 f i CashChanger.obj
 0001:0000103c       ?AddRef@?$CComObject@VCOPOSCashChanger@@@ATL@@UEAAKXZ 000000018000203c f i CashChanger.obj
 0001:0000104c       ?Release@?$CComObject@VCOPOSCashChanger@@@ATL@@UEAAKXZ 000000018000204c f i CashChanger.obj
 0001:000010a4       ?QueryInterface@?$CComObject@VCOPOSCashChanger@@@ATL@@UEAAJAEBU_GUID@@PEAPEAX@Z 00000001800020a4 f i CashChanger.obj
 0001:000010b8       ?OnDrawAdvanced@CComControlBase@ATL@@UEAAJAEAUATL_DRAWINFO@@@Z 00000001800020b8 f i CashChanger.obj
 0001:000011d8       ?ObjectMain@CComObjectRootBase@ATL@@SAX_N@Z 00000001800021d8 f i CashChanger.obj
 0001:000011d8       ?OnFinalMessage@?$CWindowImplBaseT@VCWindow@ATL@@V?$CWinTraits@$0FGAAAAAA@$0A@@2@@ATL@@UEAAXPEAUHWND__@@@Z 00000001800021d8 f i CashChanger.obj
 0001:000011dc       ?CreateInstance@CComClassFactory@ATL@@UEAAJPEAUIUnknown@@AEBU_GUID@@PEAPEAX@Z 00000001800021dc f i CashChanger.obj
 0001:0000123c       ?LockServer@CComClassFactory@ATL@@UEAAJH@Z 000000018000223c f i CashChanger.obj
 0001:00001260       ??_ECComClassFactory@ATL@@UEAAPEAXI@Z 0000000180002260 f i CashChanger.obj
 0001:00001260       ??_GCComClassFactory@ATL@@UEAAPEAXI@Z 0000000180002260 f i CashChanger.obj
 0001:000012b0       ?Next@?$CComEnumImpl@UIEnumConnections@@$1?_GUID_b196b287_bab4_101a_b69c_00aa00341d07@@3U__s_GUID@@BUtagCONNECTDATA@@V?$_Copy@UtagCONNECTDATA@@@ATL@@@ATL@@UEAAJKPEAUtagCONNECTDATA@@PEAK@Z 00000001800022b0 f i CashChanger.obj
 0001:00001384       ?Skip@?$CComEnumImpl@UIEnumConnections@@$1?_GUID_b196b287_bab4_101a_b69c_00aa00341d07@@3U__s_GUID@@BUtagCONNECTDATA@@V?$_Copy@UtagCONNECTDATA@@@ATL@@@ATL@@UEAAJK@Z 0000000180002384 f i CashChanger.obj
 0001:000013b0       ?Clone@?$CComEnumImpl@UIEnumConnections@@$1?_GUID_b196b287_bab4_101a_b69c_00aa00341d07@@3U__s_GUID@@BUtagCONNECTDATA@@V?$_Copy@UtagCONNECTDATA@@@ATL@@@ATL@@UEAAJPEAPEAUIEnumConnections@@@Z 00000001800023b0 f i CashChanger.obj
 0001:000014d8       ?QueryInterface@?$CComObject@V?$CComEnum@UIEnumConnections@@$1?_GUID_b196b287_bab4_101a_b69c_00aa00341d07@@3U__s_GUID@@BUtagCONNECTDATA@@V?$_Copy@UtagCONNECTDATA@@@ATL@@VCComSingleThreadModel@6@@ATL@@@ATL@@UEAAJAEBU_GUID@@PEAPEAX@Z 00000001800024d8 f i CashChanger.obj
 0001:000014ec       ??_E?$CComObject@V?$CComEnum@UIEnumConnections@@$1?_GUID_b196b287_bab4_101a_b69c_00aa00341d07@@3U__s_GUID@@BUtagCONNECTDATA@@V?$_Copy@UtagCONNECTDATA@@@ATL@@VCComSingleThreadModel@6@@ATL@@@ATL@@UEAAPEAXI@Z 00000001800024ec f i CashChanger.obj
 0001:000014ec       ??_G?$CComObject@V?$CComEnum@UIEnumConnections@@$1?_GUID_b196b287_bab4_101a_b69c_00aa00341d07@@3U__s_GUID@@BUtagCONNECTDATA@@V?$_Copy@UtagCONNECTDATA@@@ATL@@VCComSingleThreadModel@6@@ATL@@@ATL@@UEAAPEAXI@Z 00000001800024ec f i CashChanger.obj
 0001:00001544       ??_E?$CComObject@VCOPOSCashChanger@@@ATL@@W7EAAPEAXI@Z 0000000180002544 f i CashChanger.obj
 0001:00001550       ??_E?$CComObject@VCOPOSCashChanger@@@ATL@@WHA@EAAPEAXI@Z 0000000180002550 f i CashChanger.obj
 0001:0000155c       ?QueryInterface@?$CComObject@VCOPOSCashChanger@@@ATL@@WLI@EAAJAEBU_GUID@@PEAPEAX@Z 000000018000255c f i CashChanger.obj
 0001:00001568       ?AddRef@?$CComObject@VCOPOSCashChanger@@@ATL@@WLI@EAAKXZ 0000000180002568 f i CashChanger.obj
 0001:00001574       ?Release@?$CComObject@VCOPOSCashChanger@@@ATL@@WLI@EAAKXZ 0000000180002574 f i CashChanger.obj
 0001:00001580       ?QueryInterface@?$CComObject@VCOPOSCashChanger@@@ATL@@WMA@EAAJAEBU_GUID@@PEAPEAX@Z 0000000180002580 f i CashChanger.obj
 0001:0000158c       ?AddRef@?$CComObject@VCOPOSCashChanger@@@ATL@@WMA@EAAKXZ 000000018000258c f i CashChanger.obj
 0001:00001598       ?Release@?$CComObject@VCOPOSCashChanger@@@ATL@@WMA@EAAKXZ 0000000180002598 f i CashChanger.obj
 0001:000015a4       ?QueryInterface@?$CComObject@VCOPOSCashChanger@@@ATL@@WMI@EAAJAEBU_GUID@@PEAPEAX@Z 00000001800025a4 f i CashChanger.obj
 0001:000015b0       ?AddRef@?$CComObject@VCOPOSCashChanger@@@ATL@@WMI@EAAKXZ 00000001800025b0 f i CashChanger.obj
 0001:000015bc       ?Release@?$CComObject@VCOPOSCashChanger@@@ATL@@WMI@EAAKXZ 00000001800025bc f i CashChanger.obj
 0001:000015c8       ?QueryInterface@?$CComObject@VCOPOSCashChanger@@@ATL@@WNA@EAAJAEBU_GUID@@PEAPEAX@Z 00000001800025c8 f i CashChanger.obj
 0001:000015d4       ?AddRef@?$CComObject@VCOPOSCashChanger@@@ATL@@WNA@EAAKXZ 00000001800025d4 f i CashChanger.obj
 0001:000015e0       ?Release@?$CComObject@VCOPOSCashChanger@@@ATL@@WNA@EAAKXZ 00000001800025e0 f i CashChanger.obj
 0001:000015ec       ?QueryInterface@?$CComObject@VCOPOSCashChanger@@@ATL@@WNI@EAAJAEBU_GUID@@PEAPEAX@Z 00000001800025ec f i CashChanger.obj
 0001:000015f8       ?AddRef@?$CComObject@VCOPOSCashChanger@@@ATL@@WNI@EAAKXZ 00000001800025f8 f i CashChanger.obj
 0001:00001604       ?Release@?$CComObject@VCOPOSCashChanger@@@ATL@@WNI@EAAKXZ 0000000180002604 f i CashChanger.obj
 0001:00001610       ?QueryInterface@?$CComObject@VCOPOSCashChanger@@@ATL@@WOA@EAAJAEBU_GUID@@PEAPEAX@Z 0000000180002610 f i CashChanger.obj
 0001:0000161c       ?AddRef@?$CComObject@VCOPOSCashChanger@@@ATL@@WOA@EAAKXZ 000000018000261c f i CashChanger.obj
 0001:00001628       ?Release@?$CComObject@VCOPOSCashChanger@@@ATL@@WOA@EAAKXZ 0000000180002628 f i CashChanger.obj
 0001:00001634       ?QueryInterface@?$CComObject@VCOPOSCashChanger@@@ATL@@WOI@EAAJAEBU_GUID@@PEAPEAX@Z 0000000180002634 f i CashChanger.obj
 0001:00001640       ?AddRef@?$CComObject@VCOPOSCashChanger@@@ATL@@WOI@EAAKXZ 0000000180002640 f i CashChanger.obj
 0001:0000164c       ?Release@?$CComObject@VCOPOSCashChanger@@@ATL@@WOI@EAAKXZ 000000018000264c f i CashChanger.obj
 0001:00001658       ?QueryInterface@?$CComObject@VCOPOSCashChanger@@@ATL@@WPA@EAAJAEBU_GUID@@PEAPEAX@Z 0000000180002658 f i CashChanger.obj
 0001:00001664       ?AddRef@?$CComObject@VCOPOSCashChanger@@@ATL@@WPA@EAAKXZ 0000000180002664 f i CashChanger.obj
 0001:00001670       ?Release@?$CComObject@VCOPOSCashChanger@@@ATL@@WPA@EAAKXZ 0000000180002670 f i CashChanger.obj
 0001:0000167c       ?QueryInterface@?$CComObject@VCOPOSCashChanger@@@ATL@@WPI@EAAJAEBU_GUID@@PEAPEAX@Z 000000018000267c f i CashChanger.obj
 0001:00001688       ?AddRef@?$CComObject@VCOPOSCashChanger@@@ATL@@WPI@EAAKXZ 0000000180002688 f i CashChanger.obj
 0001:00001694       ?Release@?$CComObject@VCOPOSCashChanger@@@ATL@@WPI@EAAKXZ 0000000180002694 f i CashChanger.obj
 0001:000016a0       ?QueryInterface@?$CComObject@VCOPOSCashChanger@@@ATL@@WBAA@EAAJAEBU_GUID@@PEAPEAX@Z 00000001800026a0 f i CashChanger.obj
 0001:000016ac       ?AddRef@?$CComObject@VCOPOSCashChanger@@@ATL@@WBAA@EAAKXZ 00000001800026ac f i CashChanger.obj
 0001:000016b8       ?Release@?$CComObject@VCOPOSCashChanger@@@ATL@@WBAA@EAAKXZ 00000001800026b8 f i CashChanger.obj
 0001:000016c4       ?QueryInterface@?$CComObject@VCOPOSCashChanger@@@ATL@@WBAI@EAAJAEBU_GUID@@PEAPEAX@Z 00000001800026c4 f i CashChanger.obj
 0001:000016d0       ?AddRef@?$CComObject@VCOPOSCashChanger@@@ATL@@WBAI@EAAKXZ 00000001800026d0 f i CashChanger.obj
 0001:000016dc       ?Release@?$CComObject@VCOPOSCashChanger@@@ATL@@WBAI@EAAKXZ 00000001800026dc f i CashChanger.obj
 0001:000016e8       ?QueryInterface@?$CComObject@VCOPOSCashChanger@@@ATL@@WBBA@EAAJAEBU_GUID@@PEAPEAX@Z 00000001800026e8 f i CashChanger.obj
 0001:000016f4       ?AddRef@?$CComObject@VCOPOSCashChanger@@@ATL@@WBBA@EAAKXZ 00000001800026f4 f i CashChanger.obj
 0001:00001700       ?Release@?$CComObject@VCOPOSCashChanger@@@ATL@@WBBA@EAAKXZ 0000000180002700 f i CashChanger.obj
 0001:0000170c       ?QueryInterface@?$CComObject@VCOPOSCashChanger@@@ATL@@WBBI@EAAJAEBU_GUID@@PEAPEAX@Z 000000018000270c f i CashChanger.obj
 0001:00001718       ?AddRef@?$CComObject@VCOPOSCashChanger@@@ATL@@WBBI@EAAKXZ 0000000180002718 f i CashChanger.obj
 0001:00001724       ?Release@?$CComObject@VCOPOSCashChanger@@@ATL@@WBBI@EAAKXZ 0000000180002724 f i CashChanger.obj
 0001:00001730       ?AddRef@?$CComObject@VCOPOSCashChanger@@@ATL@@WBCI@EAAKXZ 0000000180002730 f i CashChanger.obj
 0001:0000173c       ?Release@?$CComObject@VCOPOSCashChanger@@@ATL@@WBCI@EAAKXZ 000000018000273c f i CashChanger.obj
 0001:00001748       ?AddRef@?$CComObject@VCOPOSCashChanger@@@ATL@@WBEA@EAAKXZ 0000000180002748 f i CashChanger.obj
 0001:00001754       ?Release@?$CComObject@VCOPOSCashChanger@@@ATL@@WBEA@EAAKXZ 0000000180002754 f i CashChanger.obj
 0001:00001760       ??_E?$CComContainedObject@VCOPOSCashChanger@@@ATL@@W7EAAPEAXI@Z 0000000180002760 f i CashChanger.obj
 0001:0000176c       ??_E?$CComContainedObject@VCOPOSCashChanger@@@ATL@@WHA@EAAPEAXI@Z 000000018000276c f i CashChanger.obj
 0001:00001778       ?QueryInterface@?$CComContainedObject@VCOPOSCashChanger@@@ATL@@WLI@EAAJAEBU_GUID@@PEAPEAX@Z 0000000180002778 f i CashChanger.obj
 0001:00001784       ?AddRef@?$CComContainedObject@VCOPOSCashChanger@@@ATL@@WLI@EAAKXZ 0000000180002784 f i CashChanger.obj
 0001:00001790       ?Release@?$CComContainedObject@VCOPOSCashChanger@@@ATL@@WLI@EAAKXZ 0000000180002790 f i CashChanger.obj
 0001:0000179c       ?QueryInterface@?$CComContainedObject@VCOPOSCashChanger@@@ATL@@WMA@EAAJAEBU_GUID@@PEAPEAX@Z 000000018000279c f i CashChanger.obj
 0001:000017a8       ?AddRef@?$CComContainedObject@VCOPOSCashChanger@@@ATL@@WMA@EAAKXZ 00000001800027a8 f i CashChanger.obj
 0001:000017b4       ?Release@?$CComContainedObject@VCOPOSCashChanger@@@ATL@@WMA@EAAKXZ 00000001800027b4 f i CashChanger.obj
 0001:000017c0       ?QueryInterface@?$CComContainedObject@VCOPOSCashChanger@@@ATL@@WMI@EAAJAEBU_GUID@@PEAPEAX@Z 00000001800027c0 f i CashChanger.obj
 0001:000017cc       ?AddRef@?$CComContainedObject@VCOPOSCashChanger@@@ATL@@WMI@EAAKXZ 00000001800027cc f i CashChanger.obj
 0001:000017d8       ?Release@?$CComContainedObject@VCOPOSCashChanger@@@ATL@@WMI@EAAKXZ 00000001800027d8 f i CashChanger.obj
 0001:000017e4       ?QueryInterface@?$CComContainedObject@VCOPOSCashChanger@@@ATL@@WNA@EAAJAEBU_GUID@@PEAPEAX@Z 00000001800027e4 f i CashChanger.obj
 0001:000017f0       ?AddRef@?$CComContainedObject@VCOPOSCashChanger@@@ATL@@WNA@EAAKXZ 00000001800027f0 f i CashChanger.obj
 0001:000017fc       ?Release@?$CComContainedObject@VCOPOSCashChanger@@@ATL@@WNA@EAAKXZ 00000001800027fc f i CashChanger.obj
 0001:00001808       ?QueryInterface@?$CComContainedObject@VCOPOSCashChanger@@@ATL@@WNI@EAAJAEBU_GUID@@PEAPEAX@Z 0000000180002808 f i CashChanger.obj
 0001:00001814       ?AddRef@?$CComContainedObject@VCOPOSCashChanger@@@ATL@@WNI@EAAKXZ 0000000180002814 f i CashChanger.obj
 0001:00001820       ?Release@?$CComContainedObject@VCOPOSCashChanger@@@ATL@@WNI@EAAKXZ 0000000180002820 f i CashChanger.obj
 0001:0000182c       ?QueryInterface@?$CComContainedObject@VCOPOSCashChanger@@@ATL@@WOA@EAAJAEBU_GUID@@PEAPEAX@Z 000000018000282c f i CashChanger.obj
 0001:00001838       ?AddRef@?$CComContainedObject@VCOPOSCashChanger@@@ATL@@WOA@EAAKXZ 0000000180002838 f i CashChanger.obj
 0001:00001844       ?Release@?$CComContainedObject@VCOPOSCashChanger@@@ATL@@WOA@EAAKXZ 0000000180002844 f i CashChanger.obj
 0001:00001850       ?QueryInterface@?$CComContainedObject@VCOPOSCashChanger@@@ATL@@WOI@EAAJAEBU_GUID@@PEAPEAX@Z 0000000180002850 f i CashChanger.obj
 0001:0000185c       ?AddRef@?$CComContainedObject@VCOPOSCashChanger@@@ATL@@WOI@EAAKXZ 000000018000285c f i CashChanger.obj
 0001:00001868       ?Release@?$CComContainedObject@VCOPOSCashChanger@@@ATL@@WOI@EAAKXZ 0000000180002868 f i CashChanger.obj
 0001:00001874       ?QueryInterface@?$CComContainedObject@VCOPOSCashChanger@@@ATL@@WPA@EAAJAEBU_GUID@@PEAPEAX@Z 0000000180002874 f i CashChanger.obj
 0001:00001880       ?AddRef@?$CComContainedObject@VCOPOSCashChanger@@@ATL@@WPA@EAAKXZ 0000000180002880 f i CashChanger.obj
 0001:0000188c       ?Release@?$CComContainedObject@VCOPOSCashChanger@@@ATL@@WPA@EAAKXZ 000000018000288c f i CashChanger.obj
 0001:00001898       ?QueryInterface@?$CComContainedObject@VCOPOSCashChanger@@@ATL@@WPI@EAAJAEBU_GUID@@PEAPEAX@Z 0000000180002898 f i CashChanger.obj
 0001:000018a4       ?AddRef@?$CComContainedObject@VCOPOSCashChanger@@@ATL@@WPI@EAAKXZ 00000001800028a4 f i CashChanger.obj
 0001:000018b0       ?Release@?$CComContainedObject@VCOPOSCashChanger@@@ATL@@WPI@EAAKXZ 00000001800028b0 f i CashChanger.obj
 0001:000018bc       ?QueryInterface@?$CComContainedObject@VCOPOSCashChanger@@@ATL@@WBAA@EAAJAEBU_GUID@@PEAPEAX@Z 00000001800028bc f i CashChanger.obj
 0001:000018c8       ?AddRef@?$CComContainedObject@VCOPOSCashChanger@@@ATL@@WBAA@EAAKXZ 00000001800028c8 f i CashChanger.obj
 0001:000018d4       ?Release@?$CComContainedObject@VCOPOSCashChanger@@@ATL@@WBAA@EAAKXZ 00000001800028d4 f i CashChanger.obj
 0001:000018e0       ?QueryInterface@?$CComContainedObject@VCOPOSCashChanger@@@ATL@@WBAI@EAAJAEBU_GUID@@PEAPEAX@Z 00000001800028e0 f i CashChanger.obj
 0001:000018ec       ?AddRef@?$CComContainedObject@VCOPOSCashChanger@@@ATL@@WBAI@EAAKXZ 00000001800028ec f i CashChanger.obj
 0001:000018f8       ?Release@?$CComContainedObject@VCOPOSCashChanger@@@ATL@@WBAI@EAAKXZ 00000001800028f8 f i CashChanger.obj
 0001:00001904       ?QueryInterface@?$CComContainedObject@VCOPOSCashChanger@@@ATL@@WBBA@EAAJAEBU_GUID@@PEAPEAX@Z 0000000180002904 f i CashChanger.obj
 0001:00001910       ?AddRef@?$CComContainedObject@VCOPOSCashChanger@@@ATL@@WBBA@EAAKXZ 0000000180002910 f i CashChanger.obj
 0001:0000191c       ?Release@?$CComContainedObject@VCOPOSCashChanger@@@ATL@@WBBA@EAAKXZ 000000018000291c f i CashChanger.obj
 0001:00001928       ?QueryInterface@?$CComContainedObject@VCOPOSCashChanger@@@ATL@@WBBI@EAAJAEBU_GUID@@PEAPEAX@Z 0000000180002928 f i CashChanger.obj
 0001:00001934       ?AddRef@?$CComContainedObject@VCOPOSCashChanger@@@ATL@@WBBI@EAAKXZ 0000000180002934 f i CashChanger.obj
 0001:00001940       ?Release@?$CComContainedObject@VCOPOSCashChanger@@@ATL@@WBBI@EAAKXZ 0000000180002940 f i CashChanger.obj
 0001:0000194c       ?AddRef@?$CComContainedObject@VCOPOSCashChanger@@@ATL@@WBCI@EAAKXZ 000000018000294c f i CashChanger.obj
 0001:00001958       ?Release@?$CComContainedObject@VCOPOSCashChanger@@@ATL@@WBCI@EAAKXZ 0000000180002958 f i CashChanger.obj
 0001:00001964       ?AddRef@?$CComContainedObject@VCOPOSCashChanger@@@ATL@@WBEA@EAAKXZ 0000000180002964 f i CashChanger.obj
 0001:00001970       ?Release@?$CComContainedObject@VCOPOSCashChanger@@@ATL@@WBEA@EAAKXZ 0000000180002970 f i CashChanger.obj
 0001:0000197c       ?GetWindowProc@?$CWindowImplBaseT@VCWindow@ATL@@V?$CWinTraits@$0FGAAAAAA@$0A@@2@@ATL@@UEAAP6A_JPEAUHWND__@@I_K_J@ZXZ 000000018000297c f i CashChanger.obj
 0001:00001984       ?StartWindowProc@?$CWindowImplBaseT@VCWindow@ATL@@V?$CWinTraits@$0FGAAAAAA@$0A@@2@@ATL@@SA_JPEAUHWND__@@I_K_J@Z 0000000180002984 f i CashChanger.obj
 0001:00001a48       ?Lock@CAtlModule@ATL@@UEAAJXZ 0000000180002a48 f i CashChanger.obj
 0001:00001a58       ?Unlock@CAtlModule@ATL@@UEAAJXZ 0000000180002a58 f i CashChanger.obj
 0001:00001a64       ?GetLockCount@CAtlModule@ATL@@UEAAJXZ 0000000180002a64 f i CashChanger.obj
 0001:00001a68       ?GetGITPtr@CAtlModule@ATL@@UEAAJPEAPEAUIGlobalInterfaceTable@@@Z 0000000180002a68 f i CashChanger.obj
 0001:00001ad8       ?GetTypeInfoCount@?$IDispatchImpl@UIOPOSCashChanger@@$1?IID_IOPOSCashChanger@@3U_GUID@@B$1?LIBID_OposCashChanger_CCO@@3U3@B$00$0A@VCComTypeInfoHolder@ATL@@@ATL@@UEAAJPEAI@Z 0000000180002ad8 f i CashChanger.obj
 0001:00001aec       ?GetTypeInfo@?$IDispatchImpl@UIOPOSCashChanger@@$1?IID_IOPOSCashChanger@@3U_GUID@@B$1?LIBID_OposCashChanger_CCO@@3U3@B$00$0A@VCComTypeInfoHolder@ATL@@@ATL@@UEAAJIKPEAPEAUITypeInfo@@@Z 0000000180002aec f i CashChanger.obj
 0001:00001b50       ?GetIDsOfNames@?$IDispatchImpl@UIOPOSCashChanger@@$1?IID_IOPOSCashChanger@@3U_GUID@@B$1?LIBID_OposCashChanger_CCO@@3U3@B$00$0A@VCComTypeInfoHolder@ATL@@@ATL@@UEAAJAEBU_GUID@@PEAPEA_WIKPEAJ@Z 0000000180002b50 f i CashChanger.obj
 0001:00001b5c       ?Invoke@?$IDispatchImpl@UIOPOSCashChanger@@$1?IID_IOPOSCashChanger@@3U_GUID@@B$1?LIBID_OposCashChanger_CCO@@3U3@B$00$0A@VCComTypeInfoHolder@ATL@@@ATL@@UEAAJJAEBU_GUID@@KGPEAUtagDISPPARAMS@@PEAUtagVARIANT@@PEAUtagEXCEPINFO@@PEAI@Z 0000000180002b5c f i CashChanger.obj
 0001:00001bec       ?CreateControlWindow@?$CComControl@VCOPOSCashChanger@@V?$CWindowImpl@VCOPOSCashChanger@@VCWindow@ATL@@V?$CWinTraits@$0FGAAAAAA@$0A@@3@@ATL@@@ATL@@UEAAPEAUHWND__@@PEAU3@AEAUtagRECT@@@Z 0000000180002bec f i CashChanger.obj
 0001:00001c24       ?ControlQueryInterface@?$CComControl@VCOPOSCashChanger@@V?$CWindowImpl@VCOPOSCashChanger@@VCWindow@ATL@@V?$CWinTraits@$0FGAAAAAA@$0A@@3@@ATL@@@ATL@@UEAAJAEBU_GUID@@PEAPEAX@Z 0000000180002c24 f i CashChanger.obj
 0001:00001c38       ?GetUserClassID@?$IOleObjectImpl@VCOPOSCashChanger@@@ATL@@UEAAJPEAU_GUID@@@Z 0000000180002c38 f i CashChanger.obj
 0001:00001c38       ?GetClassID@?$IPersistStreamInitImpl@VCOPOSCashChanger@@@ATL@@UEAAJPEAU_GUID@@@Z 0000000180002c38 f i CashChanger.obj
 0001:00001c38       ?GetClassID@?$IPersistStorageImpl@VCOPOSCashChanger@@@ATL@@UEAAJPEAU_GUID@@@Z 0000000180002c38 f i CashChanger.obj
 0001:00001c54       ?IsDirty@?$IPersistStreamInitImpl@VCOPOSCashChanger@@@ATL@@UEAAJXZ 0000000180002c54 f i CashChanger.obj
 0001:00001c70       ?Load@?$IPersistStreamInitImpl@VCOPOSCashChanger@@@ATL@@UEAAJPEAUIStream@@@Z 0000000180002c70 f i CashChanger.obj
 0001:00001cc0       ?Save@?$IPersistStreamInitImpl@VCOPOSCashChanger@@@ATL@@UEAAJPEAUIStream@@H@Z 0000000180002cc0 f i CashChanger.obj
 0001:00001d24       ?GetSizeMax@?$IPersistStreamInitImpl@VCOPOSCashChanger@@@ATL@@UEAAJPEAT_ULARGE_INTEGER@@@Z 0000000180002d24 f i CashChanger.obj
 0001:00001f50       ?InitNew@?$IPersistStreamInitImpl@VCOPOSCashChanger@@@ATL@@UEAAJXZ 0000000180002f50 f i CashChanger.obj
 0001:00001f68       ?SetClientSite@?$IOleObjectImpl@VCOPOSCashChanger@@@ATL@@UEAAJPEAUIOleClientSite@@@Z 0000000180002f68 f i CashChanger.obj
 0001:00001f84       ?GetClientSite@?$IOleObjectImpl@VCOPOSCashChanger@@@ATL@@UEAAJPEAPEAUIOleClientSite@@@Z 0000000180002f84 f i CashChanger.obj
 0001:00001fcc       ?Close@?$IOleObjectImpl@VCOPOSCashChanger@@@ATL@@UEAAJK@Z 0000000180002fcc f i CashChanger.obj
 0001:00001fe8       ?AddCommonRGSReplacements@?$CAtlModuleT@VCComModule@ATL@@@ATL@@UEAAJPEAUIRegistrarBase@@@Z 0000000180002fe8 f i CashChanger.obj
 0001:00002000       ?DoVerb@?$IOleObjectImpl@VCOPOSCashChanger@@@ATL@@UEAAJJPEAUtagMSG@@PEAUIOleClientSite@@JPEAUHWND__@@PEBUtagRECT@@@Z 0000000180003000 f i CashChanger.obj
 0001:000021a4       ?EnumVerbs@?$IOleObjectImpl@VCOPOSCashChanger@@@ATL@@UEAAJPEAPEAUIEnumOLEVERB@@@Z 00000001800031a4 f i CashChanger.obj
 0001:000021c0       ?GetUserType@?$IOleObjectImpl@VCOPOSCashChanger@@@ATL@@UEAAJKPEAPEA_W@Z 00000001800031c0 f i CashChanger.obj
 0001:000021d0       ?SetExtent@?$IOleObjectImpl@VCOPOSCashChanger@@@ATL@@UEAAJKPEAUtagSIZE@@@Z 00000001800031d0 f i CashChanger.obj
 0001:000021ec       ?GetExtent@?$IOleObjectImpl@VCOPOSCashChanger@@@ATL@@UEAAJKPEAUtagSIZE@@@Z 00000001800031ec f i CashChanger.obj
 0001:0000221c       ?Advise@?$IOleObjectImpl@VCOPOSCashChanger@@@ATL@@UEAAJPEAUIAdviseSink@@PEAK@Z 000000018000321c f i CashChanger.obj
 0001:00002278       ?Unadvise@?$IOleObjectImpl@VCOPOSCashChanger@@@ATL@@UEAAJK@Z 0000000180003278 f i CashChanger.obj
 0001:000022b0       ?EnumAdvise@?$IOleObjectImpl@VCOPOSCashChanger@@@ATL@@UEAAJPEAPEAUIEnumSTATDATA@@@Z 00000001800032b0 f i CashChanger.obj
 0001:000022f8       ?GetMiscStatus@?$IOleObjectImpl@VCOPOSCashChanger@@@ATL@@UEAAJKPEAK@Z 00000001800032f8 f i CashChanger.obj
 0001:00002308       ?GetWindow@?$IOleInPlaceActiveObjectImpl@VCOPOSCashChanger@@@ATL@@UEAAJPEAPEAUHWND__@@@Z 0000000180003308 f i CashChanger.obj
 0001:0000235c       ?TranslateAcceleratorW@?$IOleInPlaceActiveObjectImpl@VCOPOSCashChanger@@@ATL@@UEAAJPEAUtagMSG@@@Z 000000018000335c f i CashChanger.obj
 0001:00002450       ?OnDocWindowActivate@?$IOleInPlaceActiveObjectImpl@VCOPOSCashChanger@@@ATL@@UEAAJH@Z 0000000180003450 f i CashChanger.obj
 0001:0000247c       ?UpdateRegistryFromResourceD@CComModule@ATL@@UEAAJIHPEAU_ATL_REGMAP_ENTRY@2@@Z 000000018000347c f i CashChanger.obj
 0001:0000247c       ?UpdateRegistryFromResourceD@CComModule@ATL@@UEAAJPEB_WHPEAU_ATL_REGMAP_ENTRY@2@@Z 000000018000347c f i CashChanger.obj
 0001:00002484       ?UpdateRegistryFromResource@CComModule@ATL@@UEAAJPEB_WHPEAU_ATL_REGMAP_ENTRY@2@@Z 0000000180003484 f i CashChanger.obj
 0001:0000248c       ?UpdateRegistryFromResource@CComModule@ATL@@UEAAJIHPEAU_ATL_REGMAP_ENTRY@2@@Z 000000018000348c f i CashChanger.obj
 0001:00002494       ?Draw@?$IViewObjectExImpl@VCOPOSCashChanger@@@ATL@@UEAAJKJPEAXPEAUtagDVTARGETDEVICE@@PEAUHDC__@@2PEBU_RECTL@@3P6AH_K@Z4@Z 0000000180003494 f i CashChanger.obj
 0001:000024f8       ?SetAdvise@?$IViewObjectExImpl@VCOPOSCashChanger@@@ATL@@UEAAJKKPEAUIAdviseSink@@@Z 00000001800034f8 f i CashChanger.obj
 0001:0000254c       ?GetAdvise@?$IViewObjectExImpl@VCOPOSCashChanger@@@ATL@@UEAAJPEAK0PEAPEAUIAdviseSink@@@Z 000000018000354c f i CashChanger.obj
 0001:00002588       ?GetExtent@?$IViewObjectExImpl@VCOPOSCashChanger@@@ATL@@UEAAJKJPEAUtagDVTARGETDEVICE@@PEAUtagSIZE@@@Z 0000000180003588 f i CashChanger.obj
 0001:000025b8       ?GetViewStatus@?$IViewObjectExImpl@VCOPOSCashChanger@@@ATL@@UEAAJPEAK@Z 00000001800035b8 f i CashChanger.obj
 0001:000025cc       ?QueryHitPoint@?$IViewObjectExImpl@VCOPOSCashChanger@@@ATL@@UEAAJKPEBUtagRECT@@UtagPOINT@@JPEAK@Z 00000001800035cc f i CashChanger.obj
 0001:00002610       ?QueryHitRect@?$IViewObjectExImpl@VCOPOSCashChanger@@@ATL@@UEAAJKPEBUtagRECT@@0JPEAK@Z 0000000180003610 f i CashChanger.obj
 0001:00002678       ?GetNaturalExtent@?$IViewObjectExImpl@VCOPOSCashChanger@@@ATL@@UEAAJKJPEAUtagDVTARGETDEVICE@@PEAUHDC__@@PEAUtagExtentInfo@@PEAUtagSIZE@@@Z 0000000180003678 f i CashChanger.obj
 0001:000026c0       ??_ECComModule@ATL@@UEAAPEAXI@Z 00000001800036c0 f i CashChanger.obj
 0001:000026c0       ??_GCComModule@ATL@@UEAAPEAXI@Z 00000001800036c0 f i CashChanger.obj
 0001:00002740       ?GetWindow@?$IOleInPlaceObjectWindowlessImpl@VCOPOSCashChanger@@@ATL@@UEAAJPEAPEAUHWND__@@@Z 0000000180003740 f i CashChanger.obj
 0001:00002794       ?InPlaceDeactivate@?$IOleInPlaceObjectWindowlessImpl@VCOPOSCashChanger@@@ATL@@UEAAJXZ 0000000180003794 f i CashChanger.obj
 0001:000027b0       ?UIDeactivate@?$IOleInPlaceObjectWindowlessImpl@VCOPOSCashChanger@@@ATL@@UEAAJXZ 00000001800037b0 f i CashChanger.obj
 0001:000027cc       ?SetObjectRects@?$IOleInPlaceObjectWindowlessImpl@VCOPOSCashChanger@@@ATL@@UEAAJPEBUtagRECT@@0@Z 00000001800037cc f i CashChanger.obj
 0001:000027e8       ?OnWindowMessage@?$IOleInPlaceObjectWindowlessImpl@VCOPOSCashChanger@@@ATL@@UEAAJI_K_JPEA_J@Z 00000001800037e8 f i CashChanger.obj
 0001:000028b0       ?EnumConnectionPoints@?$IConnectionPointContainerImpl@VCOPOSCashChanger@@@ATL@@UEAAJPEAPEAUIEnumConnectionPoints@@@Z 00000001800038b0 f i CashChanger.obj
 0001:00002af8       ?FindConnectionPoint@?$IConnectionPointContainerImpl@VCOPOSCashChanger@@@ATL@@UEAAJAEBU_GUID@@PEAPEAUIConnectionPoint@@@Z 0000000180003af8 f i CashChanger.obj
 0001:00002bc8       ?IsDirty@?$IPersistStorageImpl@VCOPOSCashChanger@@@ATL@@UEAAJXZ 0000000180003bc8 f i CashChanger.obj
 0001:00002c0c       ?InitNew@?$IPersistStorageImpl@VCOPOSCashChanger@@@ATL@@UEAAJPEAUIStorage@@@Z 0000000180003c0c f i CashChanger.obj
 0001:00002c50       ?Load@?$IPersistStorageImpl@VCOPOSCashChanger@@@ATL@@UEAAJPEAUIStorage@@@Z 0000000180003c50 f i CashChanger.obj
 0001:00002cf0       ?Save@?$IPersistStorageImpl@VCOPOSCashChanger@@@ATL@@UEAAJPEAUIStorage@@H@Z 0000000180003cf0 f i CashChanger.obj
 0001:00002da0       ?GetPages@?$ISpecifyPropertyPagesImpl@VCOPOSCashChanger@@@ATL@@UEAAJPEAUtagCAUUID@@@Z 0000000180003da0 f i CashChanger.obj
 0001:00002dac       ?QuickActivate@?$IQuickActivateImpl@VCOPOSCashChanger@@@ATL@@UEAAJPEAUtagQACONTAINER@@PEAUtagQACONTROL@@@Z 0000000180003dac f i CashChanger.obj
 0001:00002dc8       ?SetContentExtent@?$IQuickActivateImpl@VCOPOSCashChanger@@@ATL@@UEAAJPEAUtagSIZE@@@Z 0000000180003dc8 f i CashChanger.obj
 0001:00002dfc       ?GetContentExtent@?$IQuickActivateImpl@VCOPOSCashChanger@@@ATL@@UEAAJPEAUtagSIZE@@@Z 0000000180003dfc f i CashChanger.obj
 0001:00002e34       ?GetData@?$IDataObjectImpl@VCOPOSCashChanger@@@ATL@@UEAAJPEAUtagFORMATETC@@PEAUtagSTGMEDIUM@@@Z 0000000180003e34 f i CashChanger.obj
 0001:00002e50       ?DAdvise@?$IDataObjectImpl@VCOPOSCashChanger@@@ATL@@UEAAJPEAUtagFORMATETC@@KPEAUIAdviseSink@@PEAK@Z 0000000180003e50 f i CashChanger.obj
 0001:00002ed8       ?DUnadvise@?$IDataObjectImpl@VCOPOSCashChanger@@@ATL@@UEAAJK@Z 0000000180003ed8 f i CashChanger.obj
 0001:00002f04       ?EnumDAdvise@?$IDataObjectImpl@VCOPOSCashChanger@@@ATL@@UEAAJPEAPEAUIEnumSTATDATA@@@Z 0000000180003f04 f i CashChanger.obj
 0001:00002f40       ?GetClassInfoW@?$IProvideClassInfo2Impl@$1?CLSID_OPOSCashChanger@@3U_GUID@@B$1?DIID__IOPOSCashChangerEvents@@3U2@B$1?LIBID_OposCashChanger_CCO@@3U2@B$00$0A@VCComTypeInfoHolder@ATL@@@ATL@@UEAAJPEAPEAUITypeInfo@@@Z 0000000180003f40 f i CashChanger.obj
 0001:00002f98       ?GetGUID@?$IProvideClassInfo2Impl@$1?CLSID_OPOSCashChanger@@3U_GUID@@B$1?DIID__IOPOSCashChangerEvents@@3U2@B$1?LIBID_OposCashChanger_CCO@@3U2@B$00$0A@VCComTypeInfoHolder@ATL@@@ATL@@UEAAJKPEAU_GUID@@@Z 0000000180003f98 f i CashChanger.obj
 0001:00002fcc       ?GetInterfaceSafetyOptions@?$IObjectSafetyImpl@VCOPOSCashChanger@@$02@ATL@@UEAAJAEBU_GUID@@PEAK1@Z 0000000180003fcc f i CashChanger.obj
 0001:00003060       ?SetInterfaceSafetyOptions@?$IObjectSafetyImpl@VCOPOSCashChanger@@$02@ATL@@UEAAJAEBU_GUID@@KK@Z 0000000180004060 f i CashChanger.obj
 0001:00003104       ?_LocCPQueryInterface@?$IConnectionPointImpl@VCOPOSCashChanger@@$1?IID_IPropertyNotifySink@@3U_GUID@@BVCComDynamicUnkArray@ATL@@@ATL@@UEAAJAEBU_GUID@@PEAPEAX@Z 0000000180004104 f i CashChanger.obj
 0001:00003104       ?_LocCPQueryInterface@?$IConnectionPointImpl@VCOPOSCashChanger@@$1?DIID__IOPOSCashChangerEvents@@3U_GUID@@BVCComDynamicUnkArray@ATL@@@ATL@@UEAAJAEBU_GUID@@PEAPEAX@Z 0000000180004104 f i CashChanger.obj
 0001:00003178       ?GetConnectionInterface@?$IConnectionPointImpl@VCOPOSCashChanger@@$1?IID_IPropertyNotifySink@@3U_GUID@@BVCComDynamicUnkArray@ATL@@@ATL@@UEAAJPEAU_GUID@@@Z 0000000180004178 f i CashChanger.obj
 0001:00003194       ?GetConnectionPointContainer@?$IConnectionPointImpl@VCOPOSCashChanger@@$1?IID_IPropertyNotifySink@@3U_GUID@@BVCComDynamicUnkArray@ATL@@@ATL@@UEAAJPEAPEAUIConnectionPointContainer@@@Z 0000000180004194 f i CashChanger.obj
 0001:000031b4       ?Advise@?$IConnectionPointImpl@VCOPOSCashChanger@@$1?IID_IPropertyNotifySink@@3U_GUID@@BVCComDynamicUnkArray@ATL@@@ATL@@UEAAJPEAUIUnknown@@PEAK@Z 00000001800041b4 f i CashChanger.obj
 0001:000031b4       ?Advise@?$IConnectionPointImpl@VCOPOSCashChanger@@$1?DIID__IOPOSCashChangerEvents@@3U_GUID@@BVCComDynamicUnkArray@ATL@@@ATL@@UEAAJPEAUIUnknown@@PEAK@Z 00000001800041b4 f i CashChanger.obj
 0001:00003274       ?Unadvise@?$IConnectionPointImpl@VCOPOSCashChanger@@$1?IID_IPropertyNotifySink@@3U_GUID@@BVCComDynamicUnkArray@ATL@@@ATL@@UEAAJK@Z 0000000180004274 f i CashChanger.obj
 0001:00003274       ?Unadvise@?$IConnectionPointImpl@VCOPOSCashChanger@@$1?DIID__IOPOSCashChangerEvents@@3U_GUID@@BVCComDynamicUnkArray@ATL@@@ATL@@UEAAJK@Z 0000000180004274 f i CashChanger.obj
 0001:000032f0       ?EnumConnections@?$IConnectionPointImpl@VCOPOSCashChanger@@$1?IID_IPropertyNotifySink@@3U_GUID@@BVCComDynamicUnkArray@ATL@@@ATL@@UEAAJPEAPEAUIEnumConnections@@@Z 00000001800042f0 f i CashChanger.obj
 0001:000032f0       ?EnumConnections@?$IConnectionPointImpl@VCOPOSCashChanger@@$1?DIID__IOPOSCashChangerEvents@@3U_GUID@@BVCComDynamicUnkArray@ATL@@@ATL@@UEAAJPEAPEAUIEnumConnections@@@Z 00000001800042f0 f i CashChanger.obj
 0001:00003498       ?GetConnectionInterface@?$IConnectionPointImpl@VCOPOSCashChanger@@$1?DIID__IOPOSCashChangerEvents@@3U_GUID@@BVCComDynamicUnkArray@ATL@@@ATL@@UEAAJPEAU_GUID@@@Z 0000000180004498 f i CashChanger.obj
 0001:000034b4       ?GetConnectionPointContainer@?$IConnectionPointImpl@VCOPOSCashChanger@@$1?DIID__IOPOSCashChangerEvents@@3U_GUID@@BVCComDynamicUnkArray@ATL@@@ATL@@UEAAJPEAPEAUIConnectionPointContainer@@@Z 00000001800044b4 f i CashChanger.obj
 0001:000034d4       ?UpdateRegistry@COPOSCashChanger@@SAJH@Z 00000001800044d4 f i CashChanger.obj
 0001:000034ec       ?ProcessWindowMessage@COPOSCashChanger@@UEAAHPEAUHWND__@@I_K_JAEA_JK@Z 00000001800044ec f i CashChanger.obj
 0001:00003574       ?SOData@COPOSCashChanger@@MEAAJJ@Z 0000000180004574 f i CashChanger.obj
 0001:000035c4       ?SODirectIO@COPOSCashChanger@@MEAAJJPEAJPEAPEA_W@Z 00000001800045c4 f i CashChanger.obj
 0001:0000363c       ?SOStatusUpdate@COPOSCashChanger@@MEAAJJ@Z 000000018000463c f i CashChanger.obj
 0001:0000368c       ??$AtlModuleRegisterWndClassInfoT@VAtlModuleRegisterWndClassInfoParamW@ATL@@@ATL@@YAGPEAU_ATL_BASE_MODULE70@0@PEAU_ATL_WIN_MODULE70@0@PEAU_ATL_WNDCLASSINFOW@0@PEAP6A_JPEAUHWND__@@I_K_J@ZVAtlModuleRegisterWndClassInfoParamW@0@@Z 000000018000468c f i CashChanger.obj
 0001:0000388c       ??0?$CComContainedObject@VCOPOSCashChanger@@@ATL@@QEAA@PEAX@Z 000000018000488c f i CashChanger.obj
 0001:000039a8       ??0?$CComObject@VCOPOSCashChanger@@@ATL@@QEAA@PEAX@Z 00000001800049a8 f i CashChanger.obj
 0001:00003ac0       ??0CAtlModule@ATL@@QEAA@XZ 0000000180004ac0 f i CashChanger.obj
 0001:00003b3c       ??1?$CComEnumImpl@UIEnumConnectionPoints@@$1?_GUID_b196b285_bab4_101a_b69c_00aa00341d07@@3U__s_GUID@@BPEAUIConnectionPoint@@V?$_CopyInterface@UIConnectionPoint@@@ATL@@@ATL@@UEAA@XZ 0000000180004b3c f i CashChanger.obj
 0001:00003b98       ??1?$CComEnumImpl@UIEnumConnections@@$1?_GUID_b196b287_bab4_101a_b69c_00aa00341d07@@3U__s_GUID@@BUtagCONNECTDATA@@V?$_Copy@UtagCONNECTDATA@@@ATL@@@ATL@@UEAA@XZ 0000000180004b98 f i CashChanger.obj
 0001:00003bf4       ??1?$CComObject@VCOPOSCashChanger@@@ATL@@UEAA@XZ 0000000180004bf4 f i CashChanger.obj
 0001:00003d14       ??_E?$CComContainedObject@VCOPOSCashChanger@@@ATL@@UEAAPEAXI@Z 0000000180004d14 f i CashChanger.obj
 0001:00003d14       ??_G?$CComContainedObject@VCOPOSCashChanger@@@ATL@@UEAAPEAXI@Z 0000000180004d14 f i CashChanger.obj
 0001:00003d48       ??_E?$CComObject@VCOPOSCashChanger@@@ATL@@UEAAPEAXI@Z 0000000180004d48 f i CashChanger.obj
 0001:00003d48       ??_G?$CComObject@VCOPOSCashChanger@@@ATL@@UEAAPEAXI@Z 0000000180004d48 f i CashChanger.obj
 0001:00003d7c       ?Add@?$CSimpleArray@GV?$CSimpleArrayEqualHelper@G@ATL@@@ATL@@QEAAHAEBG@Z 0000000180004d7c f i CashChanger.obj
 0001:00003e30       ?Add@?$CSimpleMap@PEA_WPEA_WVCExpansionVectorEqualHelper@ATL@@@ATL@@QEAAHAEBQEA_W0@Z 0000000180004e30 f i CashChanger.obj
 0001:00003ed0       ?Add@CComDynamicUnkArray@ATL@@QEAAKPEAUIUnknown@@@Z 0000000180004ed0 f i CashChanger.obj
 0001:00003fc8       ?Add@CExpansionVector@ATL@@QEAAHPEB_W0@Z 0000000180004fc8 f i CashChanger.obj
 0001:00004158       ?AddValue@CRegParser@ATL@@IEAAJAEAVCRegKey@2@PEB_WPEA_W@Z 0000000180005158 f i CashChanger.obj
 0001:000045a0       ?AllocateHeap@?$CTempBuffer@_W$0EAA@VCCRTAllocator@ATL@@@ATL@@AEAAX_K@Z 00000001800055a0 f i CashChanger.obj
 0001:000045a0       ?AllocateHeap@?$CTempBuffer@E$0BAA@VCCRTAllocator@ATL@@@ATL@@AEAAX_K@Z 00000001800055a0 f i CashChanger.obj
 0001:000045a0       ?AllocateHeap@?$CTempBuffer@_W$0BAA@VCCRTAllocator@ATL@@@ATL@@AEAAX_K@Z 00000001800055a0 f i CashChanger.obj
 0001:000045cc       ?Append@CParseBuffer@CRegParser@ATL@@QEAAHPEB_WH@Z 00000001800055cc f i CashChanger.obj
 0001:000046e4       ?AtlCallTermFunc@ATL@@YAXPEAU_ATL_MODULE70@1@@Z 00000001800056e4 f i CashChanger.obj
 0001:00004748       ?AtlComModuleGetClassObject@ATL@@YAJPEAU_ATL_COM_MODULE70@1@AEBU_GUID@@1PEAPEAX@Z 0000000180005748 f i CashChanger.obj
 0001:00004888       ?AtlComModuleRegisterServer@ATL@@YAJPEAU_ATL_COM_MODULE70@1@HPEBU_GUID@@@Z 0000000180005888 f i CashChanger.obj
 0001:00004948       ?AtlComModuleUnregisterServer@ATL@@YAJPEAU_ATL_COM_MODULE70@1@HPEBU_GUID@@@Z 0000000180005948 f i CashChanger.obj
 0001:00004a04       ?AtlCreateTargetDC@ATL@@YAPEAUHDC__@@PEAU2@PEAUtagDVTARGETDEVICE@@@Z 0000000180005a04 f i CashChanger.obj
 0001:00004a78       ?AtlHiMetricToPixel@ATL@@YAXPEBUtagSIZE@@PEAU2@@Z 0000000180005a78 f i CashChanger.obj
 0001:00004b28       ?AtlHresultFromLastError@ATL@@YAJXZ 0000000180005b28 f i CashChanger.obj
 0001:00004b48       ?AtlHresultFromWin32@ATL@@YAJK@Z 0000000180005b48 f i CashChanger.obj
 0001:00004b58       ?AtlIPersistStreamInit_Load@ATL@@YAJPEAUIStream@@PEBUATL_PROPMAP_ENTRY@1@PEAXPEAUIUnknown@@@Z 0000000180005b58 f i CashChanger.obj
 0001:00004d90       ?AtlIPersistStreamInit_Save@ATL@@YAJPEAUIStream@@HPEBUATL_PROPMAP_ENTRY@1@PEAXPEAUIUnknown@@@Z 0000000180005d90 f i CashChanger.obj
 0001:00004fcc       ?AtlInternalOleLoadFromStream@ATL@@YAJPEAUIStream@@AEBU_GUID@@PEAPEAXTClassesAllowedInStream@1@K@Z 0000000180005fcc f i CashChanger.obj
 0001:00005110       ?AtlInternalQueryInterface@ATL@@YAJPEAXPEBU_ATL_INTMAP_ENTRY@1@AEBU_GUID@@PEAPEAX@Z 0000000180006110 f i CashChanger.obj
 0001:00005218       ?AtlLoadTypeLib@ATL@@YAJPEAUHINSTANCE__@@PEB_WPEAPEA_WPEAPEAUITypeLib@@@Z 0000000180006218 f i CashChanger.obj
 0001:00005474       ?AtlModuleAddTermFunc@ATL@@YAJPEAU_ATL_MODULE70@1@P6AX_K@Z1@Z 0000000180006474 f i CashChanger.obj
 0001:00005508       ?AtlRegisterClassCategoriesHelper@ATL@@YAJAEBU_GUID@@PEBU_ATL_CATMAP_ENTRY@1@H@Z 0000000180006508 f i CashChanger.obj
 0001:0000596c       ?AtlRegisterTypeLib@ATL@@YAJPEAUHINSTANCE__@@PEB_W@Z 000000018000696c f i CashChanger.obj
 0001:00005b68       ?AtlThrowImpl@ATL@@YAXJ@Z  0000000180006b68 f i CashChanger.obj
 0001:00005b8c       ?AtlUnRegisterTypeLib@ATL@@YAJPEAUHINSTANCE__@@PEB_W@Z 0000000180006b8c f i CashChanger.obj
 0001:00005c54       ?AtlWinModuleExtractCreateWndData@ATL@@YAPEAXPEAU_ATL_WIN_MODULE70@1@@Z 0000000180006c54 f i CashChanger.obj
 0001:00005ce0       ?Cleanup@CComTypeInfoHolder@ATL@@SAX_K@Z 0000000180006ce0 f i CashChanger.obj
 0001:00005d20       ?ClearReplacements@CExpansionVector@ATL@@QEAAJXZ 0000000180006d20 f i CashChanger.obj
 0001:00005dbc       ?Create@?$CWindowImpl@VCOPOSCashChanger@@VCWindow@ATL@@V?$CWinTraits@$0FGAAAAAA@$0A@@3@@ATL@@QEAAPEAUHWND__@@PEAU3@V_U_RECT@2@PEB_WKKV_U_MENUorID@2@PEAX@Z 0000000180006dbc f i CashChanger.obj
 0001:00005e6c       ?Create@?$CWindowImplBaseT@VCWindow@ATL@@V?$CWinTraits@$0FGAAAAAA@$0A@@2@@ATL@@QEAAPEAUHWND__@@PEAU3@V_U_RECT@2@PEB_WKKV_U_MENUorID@2@GPEAX@Z 0000000180006e6c f i CashChanger.obj
 0001:00005fdc       ?Create@CRegKey@ATL@@QEAAJPEAUHKEY__@@PEB_WPEA_WKKPEAU_SECURITY_ATTRIBUTES@@PEAK@Z 0000000180006fdc f i CashChanger.obj
 0001:000060c0       ?CreateInstance@?$CComCreator@V?$CComAggObject@VCOPOSCashChanger@@@ATL@@@ATL@@SAJPEAXAEBU_GUID@@PEAPEAX@Z 00000001800070c0 f i CashChanger.obj
 0001:00006198       ?CreateInstance@?$CComCreator@V?$CComObject@VCOPOSCashChanger@@@ATL@@@ATL@@SAJPEAXAEBU_GUID@@PEAPEAX@Z 0000000180007198 f i CashChanger.obj
 0001:00006250       ?CreateInstance@?$CComObject@V?$CComEnum@UIEnumConnectionPoints@@$1?_GUID_b196b285_bab4_101a_b69c_00aa00341d07@@3U__s_GUID@@BPEAUIConnectionPoint@@V?$_CopyInterface@UIConnectionPoint@@@ATL@@VCComSingleThreadModel@6@@ATL@@@ATL@@SAJPEAPEAV12@@Z 0000000180007250 f i CashChanger.obj
 0001:000062dc       ?CreateInstance@?$CComObject@V?$CComEnum@UIEnumConnections@@$1?_GUID_b196b287_bab4_101a_b69c_00aa00341d07@@3U__s_GUID@@BUtagCONNECTDATA@@V?$_Copy@UtagCONNECTDATA@@@ATL@@VCComSingleThreadModel@6@@ATL@@@ATL@@SAJPEAPEAV12@@Z 00000001800072dc f i CashChanger.obj
 0001:00006368       ?DefaultReflectionHandler@?$CWindowImplRoot@VCWindow@ATL@@@ATL@@SAHPEAUHWND__@@I_K_JAEA_J@Z 0000000180007368 f i CashChanger.obj
 0001:000063cc       ?DoEvent@COPOSCashChanger@@IEAAXI_K_J@Z 00000001800073cc f i CashChanger.obj
 0001:00006480       ?DoVerbPrimary@?$IOleObjectImpl@VCOPOSCashChanger@@@ATL@@QEAAJPEBUtagRECT@@PEAUHWND__@@@Z 0000000180007480 f i CashChanger.obj
 0001:000065a8       ?DoVerbProperties@CComControlBase@ATL@@QEAAJPEBUtagRECT@@PEAUHWND__@@@Z 00000001800075a8 f i CashChanger.obj
 0001:000067d0       ?FireTheEvent@?$CProxy_IOPOSEvents@VCOPOSCashChanger@@@@IEAAXPEAVOposVariant@@IAEAJPEB_WJ@Z 00000001800077d0 f i CashChanger.obj
 0001:000068bc       ?FireViewChange@CComControlBase@ATL@@QEAAJXZ 00000001800078bc f i CashChanger.obj
 0001:00006920       ?Fire_DataEvent@?$CProxy_IOPOSEvents@VCOPOSCashChanger@@@@QEAAXJ@Z 0000000180007920 f i CashChanger.obj
 0001:00006a0c       ?Fire_DirectIOEvent@?$CProxy_IOPOSEvents@VCOPOSCashChanger@@@@QEAAXJPEAJPEAPEA_W@Z 0000000180007a0c f i CashChanger.obj
 0001:00006b64       ?Fire_StatusUpdateEvent@?$CProxy_IOPOSEvents@VCOPOSCashChanger@@@@QEAAXJ@Z 0000000180007b64 f i CashChanger.obj
 0001:00006c50       ?FreeHeap@?$CTempBuffer@E$0BAA@VCCRTAllocator@ATL@@@ATL@@AEAAXXZ 0000000180007c50 f i CashChanger.obj
 0001:00006c50       ?FreeHeap@?$CTempBuffer@_W$0BAA@VCCRTAllocator@ATL@@@ATL@@AEAAXXZ 0000000180007c50 f i CashChanger.obj
 0001:00006c50       ?FreeHeap@?$CTempBuffer@_W$0EAA@VCCRTAllocator@ATL@@@ATL@@AEAAXXZ 0000000180007c50 f i CashChanger.obj
 0001:00006c58       ?GetAmbientLocaleID@CComControlBase@ATL@@QEAAJAEAK@Z 0000000180007c58 f i CashChanger.obj
 0001:00006d18       ?GetAmbientUserMode@CComControlBase@ATL@@QEAAJAEAH@Z 0000000180007d18 f i CashChanger.obj
 0001:00006dec       ?GetClassObject@CComModule@ATL@@QEAAJAEBU_GUID@@0PEAPEAX@Z 0000000180007dec f i CashChanger.obj
 0001:00006ee0       ?GetConnMap@COPOSCashChanger@@SAPEBU_ATL_CONNMAP_ENTRY@ATL@@PEAH@Z 0000000180007ee0 f i CashChanger.obj
 0001:00006f68       ?GetIDsOfNames@CComTypeInfoHolder@ATL@@QEAAJAEBU_GUID@@PEAPEA_WIKPEAJ@Z 0000000180007f68 f i CashChanger.obj
 0001:000070e0       ?GetPagesHelper@?$ISpecifyPropertyPagesImpl@VCOPOSCashChanger@@@ATL@@IEAAJPEAUtagCAUUID@@PEBUATL_PROPMAP_ENTRY@2@@Z 00000001800080e0 f i CashChanger.obj
 0001:00007280       ?GetSizeMax@CComVariant@ATL@@QEBAJPEAT_ULARGE_INTEGER@@@Z 0000000180008280 f i CashChanger.obj
 0001:000074b4       ?GetTI@CComTypeInfoHolder@ATL@@QEAAJK@Z 00000001800084b4 f i CashChanger.obj
 0001:0000772c       ?GetZoomInfo@CComControlBase@ATL@@QEAAXAEAUATL_DRAWINFO@@@Z 000000018000872c f i CashChanger.obj
 0001:000077d0       ?HKeyFromString@CRegParser@ATL@@KAPEAUHKEY__@@PEA_W@Z 00000001800087d0 f i CashChanger.obj
 0001:00007834       ?IDataObject_GetData@CComControlBase@ATL@@QEAAJPEAUtagFORMATETC@@PEAUtagSTGMEDIUM@@@Z 0000000180008834 f i CashChanger.obj
 0001:00007a28       ?IOleInPlaceObject_InPlaceDeactivate@CComControlBase@ATL@@QEAAJXZ 0000000180008a28 f i CashChanger.obj
 0001:00007ac8       ?IOleInPlaceObject_SetObjectRects@CComControlBase@ATL@@QEAAJPEBUtagRECT@@0@Z 0000000180008ac8 f i CashChanger.obj
 0001:00007bb8       ?IOleInPlaceObject_UIDeactivate@CComControlBase@ATL@@QEAAJXZ 0000000180008bb8 f i CashChanger.obj
 0001:00007cc4       ?IOleObject_Close@CComControlBase@ATL@@QEAAJK@Z 0000000180008cc4 f i CashChanger.obj
 0001:00007ddc       ?IOleObject_SetClientSite@CComControlBase@ATL@@QEAAJPEAUIOleClientSite@@@Z 0000000180008ddc f i CashChanger.obj
 0001:00007e54       ?IOleObject_SetExtent@CComControlBase@ATL@@QEAAJKPEAUtagSIZE@@@Z 0000000180008e54 f i CashChanger.obj
 0001:00007eec       ?IPSI_GetIPersistStreamInit@?$IPersistStorageImpl@VCOPOSCashChanger@@@ATL@@AEAAPEAUIPersistStreamInit@@XZ 0000000180008eec f i CashChanger.obj
 0001:00007f48       ?IQuickActivate_QuickActivate@CComControlBase@ATL@@QEAAJPEAUtagQACONTAINER@@PEAUtagQACONTROL@@@Z 0000000180008f48 f i CashChanger.obj
 0001:0000820c       ?IViewObject_Draw@CComControlBase@ATL@@QEAAJKJPEAXPEAUtagDVTARGETDEVICE@@PEAUHDC__@@2PEBU_RECTL@@3@Z 000000018000920c f i CashChanger.obj
 0001:00008320       ?InPlaceActivate@CComControlBase@ATL@@QEAAJJPEBUtagRECT@@@Z 0000000180009320 f i CashChanger.obj
 0001:00008658       ?Init@?$CComEnumImpl@UIEnumConnectionPoints@@$1?_GUID_b196b285_bab4_101a_b69c_00aa00341d07@@3U__s_GUID@@BPEAUIConnectionPoint@@V?$_CopyInterface@UIConnectionPoint@@@ATL@@@ATL@@QEAAJPEAPEAUIConnectionPoint@@0PEAUIUnknown@@W4CComEnumFlags@2@@Z 0000000180009658 f i CashChanger.obj
 0001:00008778       ?Init@?$CComEnumImpl@UIEnumConnections@@$1?_GUID_b196b287_bab4_101a_b69c_00aa00341d07@@3U__s_GUID@@BUtagCONNECTDATA@@V?$_Copy@UtagCONNECTDATA@@@ATL@@@ATL@@QEAAJPEAUtagCONNECTDATA@@0PEAUIUnknown@@W4CComEnumFlags@2@@Z 0000000180009778 f i CashChanger.obj
 0001:0000889c       ?IsEqualObject@?$CComPtrBase@UITypeInfo@@@ATL@@QEAA_NPEAUIUnknown@@@Z 000000018000989c f i CashChanger.obj
 0001:0000889c       ?IsEqualObject@?$CComPtrBase@UIOleClientSite@@@ATL@@QEAA_NPEAUIUnknown@@@Z 000000018000989c f i CashChanger.obj
 0001:00008928       ?LoadNameCache@CComTypeInfoHolder@ATL@@QEAAJPEAUITypeInfo@@@Z 0000000180009928 f i CashChanger.obj
 0001:00008aac       ?Lookup@?$CSimpleMap@PEA_WPEA_WVCExpansionVectorEqualHelper@ATL@@@ATL@@QEBAPEA_WAEBQEA_W@Z 0000000180009aac f i CashChanger.obj
 0001:00008b38       ?NextToken@CRegParser@ATL@@IEAAJPEA_W@Z 0000000180009b38 f i CashChanger.obj
 0001:00008cf0       ?OnKillFocus@CComControlBase@ATL@@QEAA_JI_K_JAEAH@Z 0000000180009cf0 f i CashChanger.obj
 0001:00008d8c       ?OnMouseActivate@CComControlBase@ATL@@QEAA_JI_K_JAEAH@Z 0000000180009d8c f i CashChanger.obj
 0001:00008e2c       ?OnPaint@CComControlBase@ATL@@QEAA_JI_K_JAEAH@Z 0000000180009e2c f i CashChanger.obj
 0001:00008f18       ?OnSetFocus@CComControlBase@ATL@@QEAA_JI_K_JAEAH@Z 0000000180009f18 f i CashChanger.obj
 0001:00009014       ?Open@CRegKey@ATL@@QEAAJPEAUHKEY__@@PEB_WK@Z 000000018000a014 f i CashChanger.obj
 0001:00009090       ?PreProcessBuffer@CRegParser@ATL@@QEAAJPEA_WPEAPEA_W@Z 000000018000a090 f i CashChanger.obj
 0001:00009414       ?ProcessWindowMessage@?$CComControl@VCOPOSCashChanger@@V?$CWindowImpl@VCOPOSCashChanger@@VCWindow@ATL@@V?$CWinTraits@$0FGAAAAAA@$0A@@3@@ATL@@@ATL@@UEAAHPEAUHWND__@@I_K_JAEA_JK@Z 000000018000a414 f i CashChanger.obj
 0001:000094f8       ?PutProperty@?$CComPtr@UIDispatch@@@ATL@@SAJPEAUIDispatch@@JPEAUtagVARIANT@@@Z 000000018000a4f8 f i CashChanger.obj
 0001:000095fc       ?ReadFromStream@CComBSTR@ATL@@QEAAJPEAUIStream@@@Z 000000018000a5fc f i CashChanger.obj
 0001:00009758       ?ReadFromStream@CComVariant@ATL@@QEAAJPEAUIStream@@GTClassesAllowedInStream@2@K@Z 000000018000a758 f i CashChanger.obj
 0001:00009968       ?RecurseDeleteKey@CRegKey@ATL@@QEAAJPEB_W@Z 000000018000a968 f i CashChanger.obj
 0001:00009a8c       ?RegCreateKeyExW@CAtlTransactionManager@ATL@@QEAAJPEAUHKEY__@@PEB_WKPEA_WKKQEAU_SECURITY_ATTRIBUTES@@PEAPEAU3@PEAK@Z 000000018000aa8c f i CashChanger.obj
 0001:00009bc0       ?RegDeleteKeyW@CAtlTransactionManager@ATL@@QEAAJPEAUHKEY__@@PEB_W@Z 000000018000abc0 f i CashChanger.obj
 0001:00009c4c       ?RegOpenKeyExW@CAtlTransactionManager@ATL@@QEAAJPEAUHKEY__@@PEB_WKKPEAPEAU3@@Z 000000018000ac4c f i CashChanger.obj
 0001:00009d04       ?RegisterBuffer@CRegParser@ATL@@QEAAJPEA_WH@Z 000000018000ad04 f i CashChanger.obj
 0001:00009e6c       ?RegisterFromResource@CRegObject@ATL@@IEAAJPEB_W00H@Z 000000018000ae6c f i CashChanger.obj
 0001:0000a028       ?RegisterServer@CComModule@ATL@@QEAAJHPEBU_GUID@@@Z 000000018000b028 f i CashChanger.obj
 0001:0000a0e8       ?RegisterSubkeys@CRegParser@ATL@@IEAAJPEA_WPEAUHKEY__@@HH@Z 000000018000b0e8 f i CashChanger.obj
 0001:0000a7d8       ?SendOnDataChange@CComControlBase@ATL@@QEAAJK@Z 000000018000b7d8 f i CashChanger.obj
 0001:0000a848       ?SetControlFocus@CComControlBase@ATL@@QEAAHH@Z 000000018000b848 f i CashChanger.obj
 0001:0000a924       ?SkipAssignment@CRegParser@ATL@@IEAAJPEA_W@Z 000000018000b924 f i CashChanger.obj
 0001:0000a9c8       ?Term@CComModule@ATL@@QEAAXXZ 000000018000b9c8 f i CashChanger.obj
 0001:0000aa74       ?UnregisterServer@CComModule@ATL@@QEAAJHPEBU_GUID@@@Z 000000018000ba74 f i CashChanger.obj
 0001:0000ab24       ?UpdateRegistryFromResource@CAtlModule@ATL@@QEAAJIHPEAU_ATL_REGMAP_ENTRY@2@@Z 000000018000bb24 f i CashChanger.obj
 0001:0000ae5c       ?UpdateRegistryFromResource@CAtlModule@ATL@@QEAAJPEB_WHPEAU_ATL_REGMAP_ENTRY@2@@Z 000000018000be5c f i CashChanger.obj
 0001:0000b1b4       ?VTFromRegType@CRegParser@ATL@@KAHPEB_WAEAG@Z 000000018000c1b4 f i CashChanger.obj
 0001:0000b250       ?WindowProc@?$CWindowImplBaseT@VCWindow@ATL@@V?$CWinTraits@$0FGAAAAAA@$0A@@2@@ATL@@SA_JPEAUHWND__@@I_K_J@Z 000000018000c250 f i CashChanger.obj
 0001:0000b3bc       ?WriteToStream@CComBSTR@ATL@@QEAAJPEAUIStream@@@Z 000000018000c3bc f i CashChanger.obj
 0001:0000b43c       ?WriteToStream@CComVariant@ATL@@QEAAJPEAUIStream@@@Z 000000018000c43c f i CashChanger.obj
 0001:0000b650       ?WriteToStream@CComVariant@ATL@@QEAAJPEAUIStream@@G@Z 000000018000c650 f i CashChanger.obj
 0001:0000b6e8       ?_AtlVerifyStackAvailable@_ATL_SAFE_ALLOCA_IMPL@ATL@@YA_N_K@Z 000000018000c6e8 f i CashChanger.obj
 0001:0000b76c       DllCanUnloadNow            000000018000c76c f   CashChanger.obj
 0001:0000b778       DllGetClassObject          000000018000c778 f   CashChanger.obj
 0001:0000b790       DllMain                    000000018000c790 f   CashChanger.obj
 0001:0000b838       DllRegisterServer          000000018000c838 f   CashChanger.obj
 0001:0000b84c       DllUnregisterServer        000000018000c84c f   CashChanger.obj
 0001:0000b860       __local_stdio_printf_options 000000018000c860 f i CashChanger.obj
 0001:0000b8f0       swprintf_s                 000000018000c8f0 f i CashChanger.obj
 0001:0000b944       ??0COPOSCashChanger@@QEAA@XZ 000000018000c944 f   CashChangerImpl.obj
 0001:0000ba08       ??1?$IConnectionPointImpl@VCOPOSCashChanger@@$1?IID_IPropertyNotifySink@@3U_GUID@@BVCComDynamicUnkArray@ATL@@@ATL@@QEAA@XZ 000000018000ca08 f i CashChangerImpl.obj
 0001:0000ba08       ??1?$IConnectionPointImpl@VCOPOSCashChanger@@$1?DIID__IOPOSCashChangerEvents@@3U_GUID@@BVCComDynamicUnkArray@ATL@@@ATL@@QEAA@XZ 000000018000ca08 f i CashChangerImpl.obj
 0001:0000ba64       ??1CComControlBase@ATL@@UEAA@XZ 000000018000ca64 f i CashChangerImpl.obj
 0001:0000bae0       ??1COPOSCashChanger@@UEAA@XZ 000000018000cae0 f   CashChangerImpl.obj
 0001:0000bb44       ?AdjustCashCounts@COPOSCashChanger@@UEAAJPEA_WPEAJ@Z 000000018000cb44 f   CashChangerImpl.obj
 0001:0000bbcc       ?BeginDeposit@COPOSCashChanger@@UEAAJPEAJ@Z 000000018000cbcc f   CashChangerImpl.obj
 0001:0000bbf4       ?CheckHealth@COPOSCashChanger@@UEAAJJPEAJ@Z 000000018000cbf4 f   CashChangerImpl.obj
 0001:0000bc70       ?ClaimDevice@COPOSCashChanger@@UEAAJJPEAJ@Z 000000018000cc70 f   CashChangerImpl.obj
 0001:0000bd10       ?ClearInput@COPOSCashChanger@@UEAAJPEAJ@Z 000000018000cd10 f   CashChangerImpl.obj
 0001:0000bd38       ?Close@COPOSCashChanger@@UEAAJPEAJ@Z 000000018000cd38 f   CashChangerImpl.obj
 0001:0000bdf0       ?CompareFirmwareVersion@COPOSCashChanger@@UEAAJPEA_WPEAJ1@Z 000000018000cdf0 f   CashChangerImpl.obj
 0001:0000becc       ?DirectIO@COPOSCashChanger@@UEAAJJPEAJPEAPEA_W0@Z 000000018000cecc f   CashChangerImpl.obj
 0001:0000bfc8       ?DispenseCash@COPOSCashChanger@@UEAAJPEA_WPEAJ@Z 000000018000cfc8 f   CashChangerImpl.obj
 0001:0000c050       ?DispenseChange@COPOSCashChanger@@UEAAJJPEAJ@Z 000000018000d050 f   CashChangerImpl.obj
 0001:0000c0cc       ?DoInvoke@COPOSCashChanger@@IEAAJJPEAVOposVariant@@IHPEAJ_N@Z 000000018000d0cc f   CashChangerImpl.obj
 0001:0000c200       ?EndDeposit@COPOSCashChanger@@UEAAJJPEAJ@Z 000000018000d200 f   CashChangerImpl.obj
 0001:0000c27c       ?EventInit@COPOSCashChanger@@IEAAJXZ 000000018000d27c f i CashChangerImpl.obj
 0001:0000c3c4       ?EventUninit@COPOSCashChanger@@IEAAXXZ 000000018000d3c4 f i CashChangerImpl.obj
 0001:0000c428       ?EventWindowProc@COPOSCashChanger@@IEAA_JI_K_J@Z 000000018000d428 f i CashChangerImpl.obj
 0001:0000c55c       ?FinalConstruct@COPOSCashChanger@@QEAAJXZ 000000018000d55c f   CashChangerImpl.obj
 0001:0000c598       ?FixDeposit@COPOSCashChanger@@UEAAJPEAJ@Z 000000018000d598 f   CashChangerImpl.obj
 0001:0000c5c0       ?FreezeEvents@COPOSCashChanger@@MEAAJH@Z 000000018000d5c0 f   CashChangerImpl.obj
 0001:0000c634       ?GetOposProp@COPOSCashChanger@@IEAAJJPEAJJ@Z 000000018000d634 f   CashChangerImpl.obj
 0001:0000c750       ?GetOposProp@COPOSCashChanger@@IEAAJJPEAPEA_WJ@Z 000000018000d750 f   CashChangerImpl.obj
 0001:0000c87c       ?OnDraw@COPOSCashChanger@@MEAAJAEAUATL_DRAWINFO@@@Z 000000018000d87c f   CashChangerImpl.obj
 0001:0000c968       ?Open@COPOSCashChanger@@UEAAJPEA_WPEAJ@Z 000000018000d968 f   CashChangerImpl.obj
 0001:0000d1f4       ?PauseDeposit@COPOSCashChanger@@UEAAJJPEAJ@Z 000000018000e1f4 f   CashChangerImpl.obj
 0001:0000d270       ?ReadCashCounts@COPOSCashChanger@@UEAAJPEAPEA_WPEAFPEAJ@Z 000000018000e270 f   CashChangerImpl.obj
 0001:0000d34c       ?ReleaseDevice@COPOSCashChanger@@UEAAJPEAJ@Z 000000018000e34c f   CashChangerImpl.obj
 0001:0000d3b8       ?ResetStatistics@COPOSCashChanger@@UEAAJPEA_WPEAJ@Z 000000018000e3b8 f   CashChangerImpl.obj
 0001:0000d440       ?RetrieveStatistics@COPOSCashChanger@@UEAAJPEAPEA_WPEAJ@Z 000000018000e440 f   CashChangerImpl.obj
 0001:0000d4c8       ?SOProcessID@COPOSCashChanger@@UEAAJPEAJ@Z 000000018000e4c8 f   CashChangerImpl.obj
 0001:0000d4e4       ?SetCOFreezeEvents@COPOSCashChanger@@IEAAXF@Z 000000018000e4e4 f   CashChangerImpl.obj
 0001:0000d5c8       ?SetOposProp@COPOSCashChanger@@IEAAJJJJ@Z 000000018000e5c8 f   CashChangerImpl.obj
 0001:0000d728       ?SetOposProp@COPOSCashChanger@@IEAAJJPEA_WJ@Z 000000018000e728 f   CashChangerImpl.obj
 0001:0000d880       ?UpdateFirmware@COPOSCashChanger@@UEAAJPEA_WPEAJ@Z 000000018000e880 f   CashChangerImpl.obj
 0001:0000d908       ?UpdateStatistics@COPOSCashChanger@@UEAAJPEA_WPEAJ@Z 000000018000e908 f   CashChangerImpl.obj
 0001:0000d990       ?get_AsyncMode@COPOSCashChanger@@UEAAJPEAF@Z 000000018000e990 f   CashChangerImpl.obj
 0001:0000d9c4       ?get_AsyncResultCode@COPOSCashChanger@@UEAAJPEAJ@Z 000000018000e9c4 f   CashChangerImpl.obj
 0001:0000d9d8       ?get_AsyncResultCodeExtended@COPOSCashChanger@@UEAAJPEAJ@Z 000000018000e9d8 f   CashChangerImpl.obj
 0001:0000d9ec       ?get_BinaryConversion@COPOSCashChanger@@UEAAJPEAJ@Z 000000018000e9ec f   CashChangerImpl.obj
 0001:0000da00       ?get_CapCompareFirmwareVersion@COPOSCashChanger@@UEAAJPEAF@Z 000000018000ea00 f   CashChangerImpl.obj
 0001:0000da34       ?get_CapDeposit@COPOSCashChanger@@UEAAJPEAF@Z 000000018000ea34 f   CashChangerImpl.obj
 0001:0000da68       ?get_CapDepositDataEvent@COPOSCashChanger@@UEAAJPEAF@Z 000000018000ea68 f   CashChangerImpl.obj
 0001:0000da9c       ?get_CapDiscrepancy@COPOSCashChanger@@UEAAJPEAF@Z 000000018000ea9c f   CashChangerImpl.obj
 0001:0000dad0       ?get_CapEmptySensor@COPOSCashChanger@@UEAAJPEAF@Z 000000018000ead0 f   CashChangerImpl.obj
 0001:0000db04       ?get_CapFullSensor@COPOSCashChanger@@UEAAJPEAF@Z 000000018000eb04 f   CashChangerImpl.obj
 0001:0000db38       ?get_CapJamSensor@COPOSCashChanger@@UEAAJPEAF@Z 000000018000eb38 f   CashChangerImpl.obj
 0001:0000db6c       ?get_CapNearEmptySensor@COPOSCashChanger@@UEAAJPEAF@Z 000000018000eb6c f   CashChangerImpl.obj
 0001:0000dba0       ?get_CapNearFullSensor@COPOSCashChanger@@UEAAJPEAF@Z 000000018000eba0 f   CashChangerImpl.obj
 0001:0000dbd4       ?get_CapPauseDeposit@COPOSCashChanger@@UEAAJPEAF@Z 000000018000ebd4 f   CashChangerImpl.obj
 0001:0000dc08       ?get_CapPowerReporting@COPOSCashChanger@@UEAAJPEAJ@Z 000000018000ec08 f   CashChangerImpl.obj
 0001:0000dc1c       ?get_CapRealTimeData@COPOSCashChanger@@UEAAJPEAF@Z 000000018000ec1c f   CashChangerImpl.obj
 0001:0000dc50       ?get_CapRepayDeposit@COPOSCashChanger@@UEAAJPEAF@Z 000000018000ec50 f   CashChangerImpl.obj
 0001:0000dc84       ?get_CapStatisticsReporting@COPOSCashChanger@@UEAAJPEAF@Z 000000018000ec84 f   CashChangerImpl.obj
 0001:0000dcb8       ?get_CapUpdateFirmware@COPOSCashChanger@@UEAAJPEAF@Z 000000018000ecb8 f   CashChangerImpl.obj
 0001:0000dcec       ?get_CapUpdateStatistics@COPOSCashChanger@@UEAAJPEAF@Z 000000018000ecec f   CashChangerImpl.obj
 0001:0000dd20       ?get_CheckHealthText@COPOSCashChanger@@UEAAJPEAPEA_W@Z 000000018000ed20 f   CashChangerImpl.obj
 0001:0000dd34       ?get_Claimed@COPOSCashChanger@@UEAAJPEAF@Z 000000018000ed34 f   CashChangerImpl.obj
 0001:0000dd68       ?get_ControlObjectDescription@COPOSCashChanger@@UEAAJPEAPEA_W@Z 000000018000ed68 f   CashChangerImpl.obj
 0001:0000ddcc       ?get_ControlObjectVersion@COPOSCashChanger@@UEAAJPEAJ@Z 000000018000edcc f   CashChangerImpl.obj
 0001:0000ddd8       ?get_CurrencyCashList@COPOSCashChanger@@UEAAJPEAPEA_W@Z 000000018000edd8 f   CashChangerImpl.obj
 0001:0000ddec       ?get_CurrencyCode@COPOSCashChanger@@UEAAJPEAPEA_W@Z 000000018000edec f   CashChangerImpl.obj
 0001:0000de00       ?get_CurrencyCodeList@COPOSCashChanger@@UEAAJPEAPEA_W@Z 000000018000ee00 f   CashChangerImpl.obj
 0001:0000de14       ?get_CurrentExit@COPOSCashChanger@@UEAAJPEAJ@Z 000000018000ee14 f   CashChangerImpl.obj
 0001:0000de28       ?get_CurrentService@COPOSCashChanger@@UEAAJPEAJ@Z 000000018000ee28 f   CashChangerImpl.obj
 0001:0000de3c       ?get_DataCount@COPOSCashChanger@@UEAAJPEAJ@Z 000000018000ee3c f   CashChangerImpl.obj
 0001:0000de50       ?get_DataEventEnabled@COPOSCashChanger@@UEAAJPEAF@Z 000000018000ee50 f   CashChangerImpl.obj
 0001:0000de84       ?get_DepositAmount@COPOSCashChanger@@UEAAJPEAJ@Z 000000018000ee84 f   CashChangerImpl.obj
 0001:0000de98       ?get_DepositCashList@COPOSCashChanger@@UEAAJPEAPEA_W@Z 000000018000ee98 f   CashChangerImpl.obj
 0001:0000deac       ?get_DepositCodeList@COPOSCashChanger@@UEAAJPEAPEA_W@Z 000000018000eeac f   CashChangerImpl.obj
 0001:0000dec0       ?get_DepositCounts@COPOSCashChanger@@UEAAJPEAPEA_W@Z 000000018000eec0 f   CashChangerImpl.obj
 0001:0000ded4       ?get_DepositStatus@COPOSCashChanger@@UEAAJPEAJ@Z 000000018000eed4 f   CashChangerImpl.obj
 0001:0000dee8       ?get_DeviceDescription@COPOSCashChanger@@UEAAJPEAPEA_W@Z 000000018000eee8 f   CashChangerImpl.obj
 0001:0000defc       ?get_DeviceEnabled@COPOSCashChanger@@UEAAJPEAF@Z 000000018000eefc f   CashChangerImpl.obj
 0001:0000df30       ?get_DeviceExits@COPOSCashChanger@@UEAAJPEAJ@Z 000000018000ef30 f   CashChangerImpl.obj
 0001:0000df44       ?get_DeviceName@COPOSCashChanger@@UEAAJPEAPEA_W@Z 000000018000ef44 f   CashChangerImpl.obj
 0001:0000df58       ?get_DeviceStatus@COPOSCashChanger@@UEAAJPEAJ@Z 000000018000ef58 f   CashChangerImpl.obj
 0001:0000df6c       ?get_ExitCashList@COPOSCashChanger@@UEAAJPEAPEA_W@Z 000000018000ef6c f   CashChangerImpl.obj
 0001:0000df80       ?get_FreezeEvents@COPOSCashChanger@@UEAAJPEAF@Z 000000018000ef80 f   CashChangerImpl.obj
 0001:0000dfb0       ?get_FullStatus@COPOSCashChanger@@UEAAJPEAJ@Z 000000018000efb0 f   CashChangerImpl.obj
 0001:0000dfc4       ?get_OpenResult@COPOSCashChanger@@UEAAJPEAJ@Z 000000018000efc4 f   CashChangerImpl.obj
 0001:0000dfd0       ?get_PowerNotify@COPOSCashChanger@@UEAAJPEAJ@Z 000000018000efd0 f   CashChangerImpl.obj
 0001:0000dfe4       ?get_PowerState@COPOSCashChanger@@UEAAJPEAJ@Z 000000018000efe4 f   CashChangerImpl.obj
 0001:0000dff8       ?get_RealTimeDataEnabled@COPOSCashChanger@@UEAAJPEAF@Z 000000018000eff8 f   CashChangerImpl.obj
 0001:0000e02c       ?get_ResultCode@COPOSCashChanger@@UEAAJPEAJ@Z 000000018000f02c f   CashChangerImpl.obj
 0001:0000e068       ?get_ResultCodeExtended@COPOSCashChanger@@UEAAJPEAJ@Z 000000018000f068 f   CashChangerImpl.obj
 0001:0000e07c       ?get_ServiceCount@COPOSCashChanger@@UEAAJPEAJ@Z 000000018000f07c f   CashChangerImpl.obj
 0001:0000e090       ?get_ServiceIndex@COPOSCashChanger@@UEAAJPEAJ@Z 000000018000f090 f   CashChangerImpl.obj
 0001:0000e0a4       ?get_ServiceObjectDescription@COPOSCashChanger@@UEAAJPEAPEA_W@Z 000000018000f0a4 f   CashChangerImpl.obj
 0001:0000e0b8       ?get_ServiceObjectVersion@COPOSCashChanger@@UEAAJPEAJ@Z 000000018000f0b8 f   CashChangerImpl.obj
 0001:0000e0cc       ?get_State@COPOSCashChanger@@UEAAJPEAJ@Z 000000018000f0cc f   CashChangerImpl.obj
 0001:0000e0f8       ?put_AsyncMode@COPOSCashChanger@@UEAAJF@Z 000000018000f0f8 f   CashChangerImpl.obj
 0001:0000e114       ?put_BinaryConversion@COPOSCashChanger@@UEAAJJ@Z 000000018000f114 f   CashChangerImpl.obj
 0001:0000e128       ?put_CurrencyCode@COPOSCashChanger@@UEAAJPEA_W@Z 000000018000f128 f   CashChangerImpl.obj
 0001:0000e13c       ?put_CurrentExit@COPOSCashChanger@@UEAAJJ@Z 000000018000f13c f   CashChangerImpl.obj
 0001:0000e150       ?put_CurrentService@COPOSCashChanger@@UEAAJJ@Z 000000018000f150 f   CashChangerImpl.obj
 0001:0000e164       ?put_DataEventEnabled@COPOSCashChanger@@UEAAJF@Z 000000018000f164 f   CashChangerImpl.obj
 0001:0000e17c       ?put_DeviceEnabled@COPOSCashChanger@@UEAAJF@Z 000000018000f17c f   CashChangerImpl.obj
 0001:0000e194       ?put_FreezeEvents@COPOSCashChanger@@UEAAJF@Z 000000018000f194 f   CashChangerImpl.obj
 0001:0000e1e4       ?put_PowerNotify@COPOSCashChanger@@UEAAJJ@Z 000000018000f1e4 f   CashChangerImpl.obj
 0001:0000e1f8       ?put_RealTimeDataEnabled@COPOSCashChanger@@UEAAJF@Z 000000018000f1f8 f   CashChangerImpl.obj
 0001:0000e214       ?s_EventWindowProc@COPOSCashChanger@@KA_JPEAUHWND__@@I_K_J@Z 000000018000f214 f i CashChangerImpl.obj
 0001:0000e290       ??_U@YAPEAX_K@Z            000000018000f290 f   LIBCMT:new_array.obj
 0001:0000e298       ??_V@YAXPEAX@Z             000000018000f298 f   LIBCMT:delete_array.obj
 0001:0000e298       ??3@YAXPEAX_K@Z            000000018000f298 f   LIBCMT:delete_scalar_size.obj
 0001:0000e2a0       ??_V@YAXPEAX_K@Z           000000018000f2a0 f   LIBCMT:delete_array_size.obj
 0001:0000e2a8       __scrt_acquire_startup_lock 000000018000f2a8 f   LIBCMT:utility.obj
 0001:0000e2e4       __scrt_dllmain_after_initialize_c 000000018000f2e4 f   LIBCMT:utility.obj
 0001:0000e318       __scrt_dllmain_before_initialize_c 000000018000f318 f   LIBCMT:utility.obj
 0001:0000e330       __scrt_dllmain_crt_thread_attach 000000018000f330 f   LIBCMT:utility.obj
 0001:0000e358       __scrt_dllmain_crt_thread_detach 000000018000f358 f   LIBCMT:utility.obj
 0001:0000e370       __scrt_dllmain_exception_filter 000000018000f370 f   LIBCMT:utility.obj
 0001:0000e3d0       __scrt_dllmain_uninitialize_c 000000018000f3d0 f   LIBCMT:utility.obj
 0001:0000e400       __scrt_dllmain_uninitialize_critical 000000018000f400 f   LIBCMT:utility.obj
 0001:0000e414       __scrt_initialize_crt      000000018000f414 f   LIBCMT:utility.obj
 0001:0000e460       __scrt_initialize_onexit_tables 000000018000f460 f   LIBCMT:utility.obj
 0001:0000e538       __scrt_is_nonwritable_in_current_image 000000018000f538 f   LIBCMT:utility.obj
 0001:0000e5d4       __scrt_release_startup_lock 000000018000f5d4 f   LIBCMT:utility.obj
 0001:0000e5f8       __scrt_uninitialize_crt    000000018000f5f8 f   LIBCMT:utility.obj
 0001:0000e624       _onexit                    000000018000f624 f   LIBCMT:utility.obj
 0001:0000e674       atexit                     000000018000f674 f   LIBCMT:utility.obj
 0001:0000e68c       ??3@YAXPEAX@Z              000000018000f68c f   LIBCMT:delete_scalar.obj
 0001:0000e81c       _Init_thread_footer        000000018000f81c f   LIBCMT:thread_safe_statics.obj
 0001:0000e87c       _Init_thread_header        000000018000f87c f   LIBCMT:thread_safe_statics.obj
 0001:0000e8e4       _Init_thread_notify        000000018000f8e4 f   LIBCMT:thread_safe_statics.obj
 0001:0000e934       _Init_thread_wait          000000018000f934 f   LIBCMT:thread_safe_statics.obj
 0001:0000e9ac       __raise_securityfailure    000000018000f9ac f   LIBCMT:gs_report.obj
 0001:0000e9e0       __report_gsfailure         000000018000f9e0 f   LIBCMT:gs_report.obj
 0001:0000eab4       __report_rangecheckfailure 000000018000fab4 f   LIBCMT:gs_report.obj
 0001:0000eac8       __report_securityfailure   000000018000fac8 f   LIBCMT:gs_report.obj
 0001:0000ec48       ??2@YAPEAX_KAEBUnothrow_t@std@@@Z 000000018000fc48 f   LIBCMT:new_scalar_nothrow.obj
 0001:0000ec68       ??_U@YAPEAX_KAEBUnothrow_t@std@@@Z 000000018000fc68 f   LIBCMT:new_array_nothrow.obj
 0001:0000ec70       __GSHandlerCheck           000000018000fc70 f   LIBCMT:_gshandler_.obj
 0001:0000ec90       __GSHandlerCheckCommon     000000018000fc90 f   LIBCMT:_gshandler_.obj
 0001:0000ecec       __GSHandlerCheck_SEH       000000018000fcec f   LIBCMT:_gshandlerseh_.obj
 0001:0000ed90       __chkstk                   000000018000fd90 f   LIBCMT:_chkstk_.obj
 0001:0000ed90       _alloca_probe              000000018000fd90 f   LIBCMT:_chkstk_.obj
 0001:0000ee00       __security_check_cookie    000000018000fe00 f   LIBCMT:_amdsecgs_.obj
 0001:0000f154       _DllMainCRTStartup         0000000180010154 f   LIBCMT:dll_dllmain.obj
 0001:0000f194       ??2@YAPEAX_K@Z             0000000180010194 f   LIBCMT:new_scalar.obj
 0001:0000f1d0       __isa_available_init       00000001800101d0 f   LIBCMT:_cpu_disp_.obj
 0001:0000f38c       _get_startup_argv_mode     000000018001038c f   LIBCMT:argv_mode.obj
 0001:0000f394       __scrt_is_ucrt_dll_in_use  0000000180010394 f   LIBCMT:ucrt_detection.obj
 0001:0000f3a0       __crt_debugger_hook        00000001800103a0 f   LIBCMT:utility_desktop.obj
 0001:0000f3a8       __scrt_fastfail            00000001800103a8 f   LIBCMT:utility_desktop.obj
 0001:0000f4f4       _guard_check_icall_nop     00000001800104f4 f i LIBCMT:guard_support.obj
 0001:0000f4f8       __security_init_cookie     00000001800104f8 f   LIBCMT:gs_support.obj
 0001:0000f5a4       ?__scrt_initialize_type_info@@YAXXZ 00000001800105a4 f   LIBCMT:tncleanup.obj
 0001:0000f5b4       ?__scrt_uninitialize_type_info@@YAXXZ 00000001800105b4 f   LIBCMT:tncleanup.obj
 0001:0000f5c0       __local_stdio_scanf_options 00000001800105c0 f i LIBCMT:default_local_stdio_options.obj
 0001:0000f5c8       __scrt_initialize_default_local_stdio_options 00000001800105c8 f   LIBCMT:default_local_stdio_options.obj
 0001:0000f5e4       __scrt_get_dyn_tls_init_callback 00000001800105e4 f   LIBCMT:dyn_tls_init.obj
 0001:0000f5ec       _RTC_Initialize            00000001800105ec f   LIBCMT:_initsect_.obj
 0001:0000f628       _RTC_Terminate             0000000180010628 f   LIBCMT:_initsect_.obj
 0001:0000f664       ??0bad_alloc@std@@QEAA@AEBV01@@Z 0000000180010664 f i LIBCMT:throw_bad_alloc.obj
 0001:0000f6a4       ??0bad_alloc@std@@QEAA@XZ  00000001800106a4 f i LIBCMT:throw_bad_alloc.obj
 0001:0000f6c4       ??0bad_array_new_length@std@@QEAA@AEBV01@@Z 00000001800106c4 f i LIBCMT:throw_bad_alloc.obj
 0001:0000f704       ??0bad_array_new_length@std@@QEAA@XZ 0000000180010704 f i LIBCMT:throw_bad_alloc.obj
 0001:0000f724       ??0exception@std@@QEAA@AEBV01@@Z 0000000180010724 f i LIBCMT:throw_bad_alloc.obj
 0001:0000f75c       ??1bad_exception@std@@UEAA@XZ 000000018001075c f i libvcruntime:frame.obj
 0001:0000f75c       ??1bad_alloc@std@@UEAA@XZ  000000018001075c f i LIBCMT:throw_bad_alloc.obj
 0001:0000f75c       ??1bad_array_new_length@std@@UEAA@XZ 000000018001075c f i LIBCMT:throw_bad_alloc.obj
 0001:0000f770       ??_Gbad_array_new_length@std@@UEAAPEAXI@Z 0000000180010770 f i LIBCMT:throw_bad_alloc.obj
 0001:0000f770       ??_Eexception@std@@UEAAPEAXI@Z 0000000180010770 f i LIBCMT:throw_bad_alloc.obj
 0001:0000f770       ??_Gexception@std@@UEAAPEAXI@Z 0000000180010770 f i LIBCMT:throw_bad_alloc.obj
 0001:0000f770       ??_Gbad_alloc@std@@UEAAPEAXI@Z 0000000180010770 f i LIBCMT:throw_bad_alloc.obj
 0001:0000f770       ??_Ebad_array_new_length@std@@UEAAPEAXI@Z 0000000180010770 f i LIBCMT:throw_bad_alloc.obj
 0001:0000f770       ??_Ebad_alloc@std@@UEAAPEAXI@Z 0000000180010770 f i LIBCMT:throw_bad_alloc.obj
 0001:0000f770       ??_Gbad_exception@std@@UEAAPEAXI@Z 0000000180010770 f i libvcruntime:frame.obj
 0001:0000f770       ??_Ebad_exception@std@@UEAAPEAXI@Z 0000000180010770 f i libvcruntime:frame.obj
 0001:0000f7b4       ?__scrt_throw_std_bad_alloc@@YAXXZ 00000001800107b4 f   LIBCMT:throw_bad_alloc.obj
 0001:0000f7d4       ?__scrt_throw_std_bad_array_new_length@@YAXXZ 00000001800107d4 f   LIBCMT:throw_bad_alloc.obj
 0001:0000f7f4       ?what@exception@std@@UEBAPEBDXZ 00000001800107f4 f i LIBCMT:throw_bad_alloc.obj
 0001:0000f810       ??_Etype_info@@UEAAPEAXI@Z 0000000180010810 f i LIBCMT:std_type_info_static.obj
 0001:0000f810       ??_Gtype_info@@UEAAPEAXI@Z 0000000180010810 f i LIBCMT:std_type_info_static.obj
 0001:0000f83c       ??0CAtlBaseModule@ATL@@QEAA@XZ 000000018001083c f   atls:atlbase.obj
 0001:0000f8e4       ??1CAtlBaseModule@ATL@@QEAA@XZ 00000001800108e4 f   atls:atlbase.obj
 0001:0000fa18       ?__AllocStdCallThunk_cmn@@YAPEAXXZ 0000000180010a18 f   atls:atlthunk.obj
 0001:0000fb70       AtlThunk_AllocateData      0000000180010b70 f   atls:atlthunk.obj
 0001:0000fbec       AtlThunk_DataToCode        0000000180010bec f   atls:atlthunk.obj
 0001:0000fc40       AtlThunk_FreeData          0000000180010c40 f   atls:atlthunk.obj
 0001:0000fca0       AtlThunk_InitData          0000000180010ca0 f   atls:atlthunk.obj
 0001:0000fd60       memset_repmovs             0000000180010d60 f   libvcruntime:memset.obj
 0001:0000fd80       memset                     0000000180010d80 f   libvcruntime:memset.obj
 0001:0000ff10       _purecall                  0000000180010f10 f   libvcruntime:purevirt.obj
 0001:0000ff40       wcsstr                     0000000180010f40 f   libvcruntime:wcsstr.obj
 0001:00010170       memcmp                     0000000180011170 f   libvcruntime:memcmp.obj
 0001:00010250       memcpy_repmovs             0000000180011250 f   libvcruntime:memcpy.obj
 0001:00010270       memcpy                     0000000180011270 f   libvcruntime:memcpy.obj
 0001:00010270       memmove                    0000000180011270 f   libvcruntime:memcpy.obj
 0001:000106a8       __vcrt_initialize          00000001800116a8 f   libvcruntime:initialization.obj
 0001:000106dc       __vcrt_thread_attach       00000001800116dc f   libvcruntime:initialization.obj
 0001:000106f0       __vcrt_thread_detach       00000001800116f0 f   libvcruntime:initialization.obj
 0001:00010704       __vcrt_uninitialize        0000000180011704 f   libvcruntime:initialization.obj
 0001:00010724       __vcrt_uninitialize_critical 0000000180011724 f   libvcruntime:initialization.obj
 0001:00010734       __C_specific_handler       0000000180011734 f   libvcruntime:_riscchandler_.obj
 0001:00010940       __DestructExceptionObject  0000000180011940 f   libvcruntime:ehhelpers.obj
 0001:000109b4       ?_CallMemberFunction0@@YAXQEAX0@Z 00000001800119b4 f i libvcruntime:ehhelpers.obj
 0001:000109b8       _IsExceptionObjectToBeDestroyed 00000001800119b8 f   libvcruntime:ehhelpers.obj
 0001:000109e8       __AdjustPointer            00000001800119e8 f   libvcruntime:ehhelpers.obj
 0001:00010a0c       __FrameUnwindFilter        0000000180011a0c f   libvcruntime:ehhelpers.obj
 0001:00010a58       __std_terminate            0000000180011a58 f   libvcruntime:ehhelpers.obj
 0001:00010a64       ??$_CallSETranslator@V__FrameHandler3@@@@YAHPEAUEHExceptionRecord@@PEA_KPEAU_CONTEXT@@PEAU_xDISPATCHER_CONTEXT@@PEBU_s_FuncInfo@@K1@Z 0000000180011a64 f i libvcruntime:risctrnsctrl.obj
 0001:00010ab8       ?CatchTryBlock@__FrameHandler3@@SAPEBU_s_TryBlockMapEntry@@PEBU_s_FuncInfo@@H@Z 0000000180011ab8 f   libvcruntime:risctrnsctrl.obj
 0001:00010b10       ?ExecutionInCatch@__FrameHandler3@@SA_NPEAU_xDISPATCHER_CONTEXT@@PEBU_s_FuncInfo@@@Z 0000000180011b10 f   libvcruntime:risctrnsctrl.obj
 0001:00010b3c       ?FrameUnwindToEmptyState@__FrameHandler3@@SAXPEA_KPEAU_xDISPATCHER_CONTEXT@@PEBU_s_FuncInfo@@@Z 0000000180011b3c f   libvcruntime:risctrnsctrl.obj
 0001:00010ba0       ?GetEstablisherFrame@__FrameHandler3@@SAPEA_KPEA_KPEAU_xDISPATCHER_CONTEXT@@PEBU_s_FuncInfo@@0@Z 0000000180011ba0 f   libvcruntime:risctrnsctrl.obj
 0001:00010c6c       ?GetRangeOfTrysToCheck@__FrameHandler3@@SA?AU?$pair@Viterator@TryBlockMap@__FrameHandler3@@V123@@std@@AEAVTryBlockMap@1@HH@Z 0000000180011c6c f   libvcruntime:risctrnsctrl.obj
 0001:00010dc8       ?UnwindNestedFrames@__FrameHandler3@@SAXPEA_KPEAUEHExceptionRecord@@PEAU_CONTEXT@@0PEAXPEBU_s_FuncInfo@@HHPEBU_s_HandlerType@@PEAU_xDISPATCHER_CONTEXT@@E@Z 0000000180011dc8 f   libvcruntime:risctrnsctrl.obj
 0001:00010eec       _CreateFrameInfo           0000000180011eec f   libvcruntime:risctrnsctrl.obj
 0001:00010f28       _FindAndUnlinkFrame        0000000180011f28 f   libvcruntime:risctrnsctrl.obj
 0001:00010f7c       _GetImageBase              0000000180011f7c f   libvcruntime:risctrnsctrl.obj
 0001:00010f90       _GetThrowImageBase         0000000180011f90 f   libvcruntime:risctrnsctrl.obj
 0001:00010fa4       _SetImageBase              0000000180011fa4 f   libvcruntime:risctrnsctrl.obj
 0001:00010fbc       _SetThrowImageBase         0000000180011fbc f   libvcruntime:risctrnsctrl.obj
 0001:00010fd4       __CxxFrameHandler3         0000000180011fd4 f   libvcruntime:risctrnsctrl.obj
 0001:00011054       __std_type_info_compare    0000000180012054 f   libvcruntime:std_type_info.obj
 0001:0001107c       __std_type_info_destroy_list 000000018001207c f   libvcruntime:std_type_info.obj
 0001:000110a8       __std_exception_copy       00000001800120a8 f   libvcruntime:std_exception.obj
 0001:00011138       __std_exception_destroy    0000000180012138 f   libvcruntime:std_exception.obj
 0001:00011160       _CxxThrowException         0000000180012160 f   libvcruntime:throw.obj
 0001:00011220       __vcrt_initialize_pure_virtual_call_handler 0000000180012220 f   libvcruntime:purevirt_data.obj
 0001:00011230       __vcrt_freefls             0000000180012230 f   libvcruntime:per_thread_data.obj
 0001:00011250       __vcrt_freeptd             0000000180012250 f   libvcruntime:per_thread_data.obj
 0001:000112a0       __vcrt_getptd              00000001800122a0 f   libvcruntime:per_thread_data.obj
 0001:000112bc       __vcrt_getptd_noexit       00000001800122bc f   libvcruntime:per_thread_data.obj
 0001:00011388       __vcrt_initialize_ptd      0000000180012388 f   libvcruntime:per_thread_data.obj
 0001:000113dc       __vcrt_uninitialize_ptd    00000001800123dc f   libvcruntime:per_thread_data.obj
 0001:00011400       __vcrt_initialize_locks    0000000180012400 f   libvcruntime:locks.obj
 0001:00011448       __vcrt_uninitialize_locks  0000000180012448 f   libvcruntime:locks.obj
 0001:00011658       __vcrt_FlsAlloc            0000000180012658 f   libvcruntime:winapi_downlevel.obj
 0001:000116a0       __vcrt_FlsFree             00000001800126a0 f   libvcruntime:winapi_downlevel.obj
 0001:000116e8       __vcrt_FlsGetValue         00000001800126e8 f   libvcruntime:winapi_downlevel.obj
 0001:00011730       __vcrt_FlsSetValue         0000000180012730 f   libvcruntime:winapi_downlevel.obj
 0001:00011784       __vcrt_InitializeCriticalSectionEx 0000000180012784 f   libvcruntime:winapi_downlevel.obj
 0001:000117e8       __vcrt_initialize_winapi_thunks 00000001800127e8 f   libvcruntime:winapi_downlevel.obj
 0001:00011818       __vcrt_uninitialize_winapi_thunks 0000000180012818 f   libvcruntime:winapi_downlevel.obj
 0001:00011870       _NLG_Notify                0000000180012870 f   libvcruntime:_notify_.obj
 0001:00011890       __NLG_Dispatch2            0000000180012890 f   libvcruntime:_notify_.obj
 0001:000118a0       __NLG_Return2              00000001800128a0 f   libvcruntime:_notify_.obj
 0001:000118a4       __except_validate_context_record 00000001800128a4 f   libvcruntime:jbcxrval.obj
 0001:000118dc       ?GetCurrentState@__FrameHandler3@@SAHPEA_KPEAU_xDISPATCHER_CONTEXT@@PEBU_s_FuncInfo@@@Z 00000001800128dc f   libvcruntime:ehstate.obj
 0001:00011904       ?GetUnwindTryBlock@__FrameHandler3@@SAHPEA_KPEAU_xDISPATCHER_CONTEXT@@PEBU_s_FuncInfo@@@Z 0000000180012904 f   libvcruntime:ehstate.obj
 0001:00011930       ?SetState@__FrameHandler3@@SAXPEA_KPEBU_s_FuncInfo@@H@Z 0000000180012930 f   libvcruntime:ehstate.obj
 0001:0001193c       ?SetUnwindTryBlock@__FrameHandler3@@SAXPEA_KPEAU_xDISPATCHER_CONTEXT@@PEBU_s_FuncInfo@@H@Z 000000018001293c f   libvcruntime:ehstate.obj
 0001:00011978       ?StateFromControlPc@__FrameHandler3@@SAHPEBU_s_FuncInfo@@PEAU_xDISPATCHER_CONTEXT@@@Z 0000000180012978 f   libvcruntime:ehstate.obj
 0001:00011980       ?StateFromIp@__FrameHandler3@@SAHPEBU_s_FuncInfo@@PEAU_xDISPATCHER_CONTEXT@@_K@Z 0000000180012980 f   libvcruntime:ehstate.obj
 0001:0001240c       ??$TypeMatchHelper@$$CBU_s_HandlerType@@@@YAHPEBU_s_HandlerType@@PEBU_s_CatchableType@@PEBU_s_ThrowInfo@@@Z 000000018001340c f i libvcruntime:frame.obj
 0001:00012550       ??$__InternalCxxFrameHandler@V__FrameHandler3@@@@YA?AW4_EXCEPTION_DISPOSITION@@PEAUEHExceptionRecord@@PEA_KPEAU_CONTEXT@@PEAU_xDISPATCHER_CONTEXT@@PEBU_s_FuncInfo@@H1E@Z 0000000180013550 f i libvcruntime:frame.obj
 0001:00012798       ??0bad_exception@std@@QEAA@AEBV01@@Z 0000000180013798 f i libvcruntime:frame.obj
 0001:000127d8       ??0bad_exception@std@@QEAA@XZ 00000001800137d8 f i libvcruntime:frame.obj
 0001:000127f8       ?CxxCallCatchBlock@__FrameHandler3@@SAPEAXPEAU_EXCEPTION_RECORD@@@Z 00000001800137f8 f   libvcruntime:frame.obj
 0001:00012a6c       ?FrameUnwindToState@__FrameHandler3@@SAXPEA_KPEAU_xDISPATCHER_CONTEXT@@PEBU_s_FuncInfo@@H@Z 0000000180013a6c f   libvcruntime:frame.obj
 0001:00012c00       ?GetHandlerSearchState@__FrameHandler3@@SAHPEA_KPEAU_xDISPATCHER_CONTEXT@@PEBU_s_FuncInfo@@@Z 0000000180013c00 f i libvcruntime:frame.obj
 0001:00012e04       ?_CallMemberFunction1@@YAXQEAX00@Z 0000000180013e04 f i libvcruntime:frame.obj
 0001:00012e10       ?_CallMemberFunction2@@YAXQEAX00H@Z 0000000180013e10 f i libvcruntime:frame.obj
 0001:00012e30       _CallSettingFrame          0000000180013e30 f   libvcruntime:handlers.obj
 0001:00012e80       _CallSettingFrameEncoded   0000000180013e80 f   libvcruntime:handlers.obj
 0001:00012ec8       free                       0000000180013ec8 f   libucrt:free.obj
 0001:00012edc       __acrt_call_reportfault    0000000180013edc f   libucrt:invalid_parameter.obj
 0001:00013038       __acrt_initialize_invalid_parameter_handler 0000000180014038 f   libucrt:invalid_parameter.obj
 0001:00013040       _invalid_parameter         0000000180014040 f   libucrt:invalid_parameter.obj
 0001:000130f0       _invalid_parameter_noinfo  00000001800140f0 f   libucrt:invalid_parameter.obj
 0001:00013110       _invoke_watson             0000000180014110 f   libucrt:invalid_parameter.obj
 0001:00013158       __acrt_errno_from_os_error 0000000180014158 f   libucrt:errno.obj
 0001:000131a0       __acrt_errno_map_os_error  00000001800141a0 f   libucrt:errno.obj
 0001:000131f0       __doserrno                 00000001800141f0 f   libucrt:errno.obj
 0001:00013210       _errno                     0000000180014210 f   libucrt:errno.obj
 0001:00013230       calloc                     0000000180014230 f   libucrt:calloc.obj
 0001:00013238       malloc                     0000000180014238 f   libucrt:malloc.obj
 0001:00013240       _recalloc                  0000000180014240 f   libucrt:recalloc.obj
 0001:00013248       _recalloc_base             0000000180014248 f   libucrt:recalloc.obj
 0001:000132e0       _resetstkoflw              00000001800142e0 f   libucrt:resetstk.obj
 0001:00013404       wcscat_s                   0000000180014404 f   libucrt:wcscat_s.obj
 0001:00013484       wcscpy_s                   0000000180014484 f   libucrt:wcscpy_s.obj
 0001:000134ec       wcsncpy_s                  00000001800144ec f   libucrt:wcsncpy_s.obj
 0001:000137a4       ??$ensure_buffer_is_big_enough@D@formatting_buffer@__crt_stdio_output@@QEAA_N_K@Z 00000001800147a4 f i libucrt:output.obj
 0001:00013850       ??$is_wide_character_specifier@_W@__crt_stdio_output@@YA_N_K_WW4length_modifier@0@@Z 0000000180014850 f i libucrt:output.obj
 0001:00013894       ??$type_case_integer_parse_into_buffer@I@?$output_processor@_WV?$string_output_adapter@_W@__crt_stdio_output@@V?$format_validation_base@_WV?$string_output_adapter@_W@__crt_stdio_output@@@2@@__crt_stdio_output@@AEAAXII_N@Z 0000000180014894 f i libucrt:output.obj
 0001:00013940       ??$type_case_integer_parse_into_buffer@_K@?$output_processor@_WV?$string_output_adapter@_W@__crt_stdio_output@@V?$format_validation_base@_WV?$string_output_adapter@_W@__crt_stdio_output@@@2@@__crt_stdio_output@@AEAAX_KI_N@Z 0000000180014940 f i libucrt:output.obj
 0001:000139ec       ??$write_multiple_characters@V?$string_output_adapter@_W@__crt_stdio_output@@D@__crt_stdio_output@@YAXAEBV?$string_output_adapter@_W@0@DHQEAH@Z 00000001800149ec f i libucrt:output.obj
 0001:00013a5c       ??0_LocaleUpdate@@QEAA@QEAU__crt_locale_pointers@@@Z 0000000180014a5c f i libucrt:output.obj
 0001:00013aec       ?force_decimal_point@__crt_stdio_output@@YAXPEADQEAU__crt_locale_pointers@@@Z 0000000180014aec f i libucrt:output.obj
 0001:00013b5c       ?parse_int_from_format_string@?$output_processor@_WV?$string_output_adapter@_W@__crt_stdio_output@@V?$format_validation_base@_WV?$string_output_adapter@_W@__crt_stdio_output@@@2@@__crt_stdio_output@@AEAA_NQEAH@Z 0000000180014b5c f i libucrt:output.obj
 0001:00013c00       ?process@?$output_processor@_WV?$string_output_adapter@_W@__crt_stdio_output@@V?$format_validation_base@_WV?$string_output_adapter@_W@__crt_stdio_output@@@2@@__crt_stdio_output@@QEAAHXZ 0000000180014c00 f i libucrt:output.obj
 0001:00013e8c       ?state_case_size@?$output_processor@_WV?$string_output_adapter@_W@__crt_stdio_output@@V?$format_validation_base@_WV?$string_output_adapter@_W@__crt_stdio_output@@@2@@__crt_stdio_output@@AEAA_NXZ 0000000180014e8c f i libucrt:output.obj
 0001:00014030       ?state_case_type@?$output_processor@_WV?$string_output_adapter@_W@__crt_stdio_output@@V?$format_validation_base@_WV?$string_output_adapter@_W@__crt_stdio_output@@@2@@__crt_stdio_output@@AEAA_NXZ 0000000180015030 f i libucrt:output.obj
 0001:000142fc       ?type_case_Z@?$output_processor@_WV?$string_output_adapter@_W@__crt_stdio_output@@V?$format_validation_base@_WV?$string_output_adapter@_W@__crt_stdio_output@@@2@@__crt_stdio_output@@AEAA_NXZ 00000001800152fc f i libucrt:output.obj
 0001:0001437c       ?type_case_a@?$output_processor@_WV?$string_output_adapter@_W@__crt_stdio_output@@V?$format_validation_base@_WV?$string_output_adapter@_W@__crt_stdio_output@@@2@@__crt_stdio_output@@AEAA_NXZ 000000018001537c f i libucrt:output.obj
 0001:000145c0       ?type_case_c_tchar@?$output_processor@_WV?$string_output_adapter@_W@__crt_stdio_output@@V?$format_validation_base@_WV?$string_output_adapter@_W@__crt_stdio_output@@@2@@__crt_stdio_output@@AEAA_N_W@Z 00000001800155c0 f i libucrt:output.obj
 0001:00014668       ?type_case_integer@?$output_processor@_WV?$string_output_adapter@_W@__crt_stdio_output@@V?$format_validation_base@_WV?$string_output_adapter@_W@__crt_stdio_output@@@2@@__crt_stdio_output@@AEAA_NI_N@Z 0000000180015668 f i libucrt:output.obj
 0001:00014814       ?type_case_n@?$output_processor@_WV?$string_output_adapter@_W@__crt_stdio_output@@V?$format_validation_base@_WV?$string_output_adapter@_W@__crt_stdio_output@@@2@@__crt_stdio_output@@AEAA_NXZ 0000000180015814 f i libucrt:output.obj
 0001:000148f0       ?type_case_s@?$output_processor@_WV?$string_output_adapter@_W@__crt_stdio_output@@V?$format_validation_base@_WV?$string_output_adapter@_W@__crt_stdio_output@@@2@@__crt_stdio_output@@AEAA_NXZ 00000001800158f0 f i libucrt:output.obj
 0001:000149b8       ?write_stored_string_tchar@?$output_processor@_WV?$string_output_adapter@_W@__crt_stdio_output@@V?$format_validation_base@_WV?$string_output_adapter@_W@__crt_stdio_output@@@2@@__crt_stdio_output@@AEAA_N_W@Z 00000001800159b8 f i libucrt:output.obj
 0001:00014aa8       ?write_string@?$string_output_adapter@_W@__crt_stdio_output@@QEBAXQEB_WHQEAHAEAV__crt_deferred_errno_cache@@@Z 0000000180015aa8 f i libucrt:output.obj
 0001:00014b50       __stdio_common_vswprintf_s 0000000180015b50 f   libucrt:output.obj
 0001:00014bc0       _seh_filter_dll            0000000180015bc0 f   libucrt:exception_filter.obj
 0001:00014bd4       _seh_filter_exe            0000000180015bd4 f   libucrt:exception_filter.obj
 0001:00014d60       ??$?RV<lambda_d80eeec6fff315bfe5c115232f3240e3>@@AEAV<lambda_6e4b09c48022b2350581041d5f6b0c4c>@@V<lambda_2358e3775559c9db80273638284d5e45>@@@?$__crt_seh_guarded_call@X@@QEAAX$$QEAV<lambda_d80eeec6fff315bfe5c115232f3240e3>@@AEAV<lambda_6e4b09c48022b2350581041d5f6b0c4c>@@$$QEAV<lambda_2358e3775559c9db80273638284d5e45>@@@Z 0000000180015d60 f i libucrt:exit.obj
 0001:00014fe0       __acrt_initialize_thread_local_exit_callback 0000000180015fe0 f   libucrt:exit.obj
 0001:00014fe8       _cexit                     0000000180015fe8 f   libucrt:exit.obj
 0001:00014ff8       _exit                      0000000180015ff8 f   libucrt:exit.obj
 0001:00015004       _is_c_termination_complete 0000000180016004 f   libucrt:exit.obj
 0001:000151c8       __acrt_allocate_buffer_for_argv 00000001800161c8 f   libucrt:argv_parsing.obj
 0001:0001522c       _configure_narrow_argv     000000018001622c f   libucrt:argv_parsing.obj
 0001:00015598       __dcrt_uninitialize_environments_nolock 0000000180016598 f   libucrt:environment_initialization.obj
 0001:000155d0       _initialize_narrow_environment 00000001800165d0 f   libucrt:environment_initialization.obj
 0001:000155d8       ??$?RV<lambda_638799b9deba96c50f710eeac98168cd>@@AEAV<lambda_22ebabd17bc4fa466a2aca6d8deb888d>@@V<lambda_a6f7d7db0129f75315ebf26d50c089f1>@@@?$__crt_seh_guarded_call@H@@QEAAH$$QEAV<lambda_638799b9deba96c50f710eeac98168cd>@@AEAV<lambda_22ebabd17bc4fa466a2aca6d8deb888d>@@$$QEAV<lambda_a6f7d7db0129f75315ebf26d50c089f1>@@@Z 00000001800165d8 f i libucrt:onexit.obj
 0001:00015614       ??$?RV<lambda_7777bce6b2f8c936911f934f8298dc43>@@AEAV<lambda_f03950bc5685219e0bcd2087efbe011e>@@V<lambda_3883c3dff614d5e0c5f61bb1ac94921c>@@@?$__crt_seh_guarded_call@H@@QEAAH$$QEAV<lambda_7777bce6b2f8c936911f934f8298dc43>@@AEAV<lambda_f03950bc5685219e0bcd2087efbe011e>@@$$QEAV<lambda_3883c3dff614d5e0c5f61bb1ac94921c>@@@Z 0000000180016614 f i libucrt:onexit.obj
 0001:00015978       _crt_atexit                0000000180016978 f   libucrt:onexit.obj
 0001:00015988       _execute_onexit_table      0000000180016988 f   libucrt:onexit.obj
 0001:000159c4       _initialize_onexit_table   00000001800169c4 f   libucrt:onexit.obj
 0001:00015a04       _register_onexit_function  0000000180016a04 f   libucrt:onexit.obj
 0001:00015a84       __acrt_uninitialize_command_line 0000000180016a84 f   libucrt:argv_data.obj
 0001:00015b60       ??$uninitialize@V<lambda_af42a3ee9806e9a7305d451646e05244>@@@?$dual_state_global@PEAU__crt_multibyte_data@@@__crt_state_management@@QEAAX$$QEAV<lambda_af42a3ee9806e9a7305d451646e05244>@@@Z 0000000180016b60 f i libucrt:initialization.obj
 0001:00015be0       __acrt_initialize          0000000180016be0 f   libucrt:initialization.obj
 0001:00015bf4       __acrt_thread_attach       0000000180016bf4 f   libucrt:initialization.obj
 0001:00015c08       __acrt_thread_detach       0000000180016c08 f   libucrt:initialization.obj
 0001:00015c18       __acrt_uninitialize        0000000180016c18 f   libucrt:initialization.obj
 0001:00015c2c       __acrt_uninitialize_critical 0000000180016c2c f   libucrt:initialization.obj
 0001:00015c3c       _initterm                  0000000180016c3c f   libucrt:initterm.obj
 0001:00015ca0       _initterm_e                0000000180016ca0 f   libucrt:initterm.obj
 0001:00015ce0       __acrt_initialize_new_handler 0000000180016ce0 f   libucrt:new_handler.obj
 0001:00015ce8       _callnewh                  0000000180016ce8 f   libucrt:new_handler.obj
 0001:00015d18       _query_new_handler         0000000180016d18 f   libucrt:new_handler.obj
 0001:00015d4c       terminate                  0000000180016d4c f   libucrt:terminate.obj
 0001:00015d6c       abort                      0000000180016d6c f   libucrt:abort.obj
 0001:00015dc4       strcpy_s                   0000000180016dc4 f   libucrt:strcpy_s.obj
 0001:00015e24       wcsncmp                    0000000180016e24 f   libucrt:wcsncmp.obj
 0001:00015e50       ??$is_overflow_condition@K@__crt_strtox@@YA_NIK@Z 0000000180016e50 f i libucrt:atox.obj
 0001:00015e7c       ??$parse_integer@KV?$c_string_character_source@_W@__crt_strtox@@@__crt_strtox@@YAKQEAU__crt_locale_pointers@@V?$c_string_character_source@_W@0@H_N@Z 0000000180016e7c f i libucrt:atox.obj
 0001:00016560       strncmp                    0000000180017560 f   libucrt:strncmp.obj
 0001:000165e0       _free_base                 00000001800175e0 f   libucrt:free_base.obj
 0001:00016620       ??$?RV<lambda_0ae27a3a962d80f24befdcbee591983d>@@AEAV<lambda_8d0ee55de4b1038c4002e0adecdf1839>@@V<lambda_dc504788e8f1664fe9b84e20bfb512f2>@@@?$__crt_seh_guarded_call@X@@QEAAX$$QEAV<lambda_0ae27a3a962d80f24befdcbee591983d>@@AEAV<lambda_8d0ee55de4b1038c4002e0adecdf1839>@@$$QEAV<lambda_dc504788e8f1664fe9b84e20bfb512f2>@@@Z 0000000180017620 f i libucrt:per_thread_data.obj
 0001:00016660       ??$?RV<lambda_2d41944a1d46af3157314b8a01080d33>@@AEAV<lambda_8f455de75cd7d7f24b4096f044d8b9e6>@@V<lambda_aa500f224e6afead328df44964fe2772>@@@?$__crt_seh_guarded_call@X@@QEAAX$$QEAV<lambda_2d41944a1d46af3157314b8a01080d33>@@AEAV<lambda_8f455de75cd7d7f24b4096f044d8b9e6>@@$$QEAV<lambda_aa500f224e6afead328df44964fe2772>@@@Z 0000000180017660 f i libucrt:per_thread_data.obj
 0001:000166a0       ??$?RV<lambda_aa87e3671a710a21b5dc78c0bdf72e11>@@AEAV<lambda_92619d2358a28f41a33ba319515a20b9>@@V<lambda_6992ecaafeb10aed2b74cb1fae11a551>@@@?$__crt_seh_guarded_call@X@@QEAAX$$QEAV<lambda_aa87e3671a710a21b5dc78c0bdf72e11>@@AEAV<lambda_92619d2358a28f41a33ba319515a20b9>@@$$QEAV<lambda_6992ecaafeb10aed2b74cb1fae11a551>@@@Z 00000001800176a0 f i libucrt:per_thread_data.obj
 0001:000166e8       ??$?RV<lambda_f2e299630e499de9f9a165e60fcd3db5>@@AEAV<lambda_2ae9d31cdba2644fcbeaf08da7c24588>@@V<lambda_40d01ff24d0e7b3814fdbdcee8eab3c7>@@@?$__crt_seh_guarded_call@X@@QEAAX$$QEAV<lambda_f2e299630e499de9f9a165e60fcd3db5>@@AEAV<lambda_2ae9d31cdba2644fcbeaf08da7c24588>@@$$QEAV<lambda_40d01ff24d0e7b3814fdbdcee8eab3c7>@@@Z 00000001800176e8 f i libucrt:per_thread_data.obj
 0001:00016998       __acrt_freeptd             0000000180017998 f   libucrt:per_thread_data.obj
 0001:000169dc       __acrt_getptd              00000001800179dc f   libucrt:per_thread_data.obj
 0001:00016aa8       __acrt_getptd_head         0000000180017aa8 f   libucrt:per_thread_data.obj
 0001:00016b50       __acrt_getptd_noexit       0000000180017b50 f   libucrt:per_thread_data.obj
 0001:00016c20       __acrt_initialize_ptd      0000000180017c20 f   libucrt:per_thread_data.obj
 0001:00016c5c       __acrt_uninitialize_ptd    0000000180017c5c f   libucrt:per_thread_data.obj
 0001:00016c80       _calloc_base               0000000180017c80 f   libucrt:calloc_base.obj
 0001:00016cf8       _malloc_base               0000000180017cf8 f   libucrt:malloc_base.obj
 0001:00016d58       _msize                     0000000180017d58 f   libucrt:msize.obj
 0001:00016d60       _msize_base                0000000180017d60 f   libucrt:msize.obj
 0001:00016d9c       _realloc_base              0000000180017d9c f   libucrt:realloc_base.obj
 0001:00016ff8       __acrt_AppPolicyGetProcessTerminationMethodInternal 0000000180017ff8 f   libucrt:winapi_thunks.obj
 0001:00017048       __acrt_FlsAlloc            0000000180018048 f   libucrt:winapi_thunks.obj
 0001:00017090       __acrt_FlsFree             0000000180018090 f   libucrt:winapi_thunks.obj
 0001:000170d8       __acrt_FlsGetValue         00000001800180d8 f   libucrt:winapi_thunks.obj
 0001:00017120       __acrt_FlsSetValue         0000000180018120 f   libucrt:winapi_thunks.obj
 0001:00017174       __acrt_InitializeCriticalSectionEx 0000000180018174 f   libucrt:winapi_thunks.obj
 0001:000171d8       __acrt_LCMapStringEx       00000001800181d8 f   libucrt:winapi_thunks.obj
 0001:000172b4       __acrt_LocaleNameToLCID    00000001800182b4 f   libucrt:winapi_thunks.obj
 0001:00017304       __acrt_SetThreadStackGuarantee 0000000180018304 f   libucrt:winapi_thunks.obj
 0001:00017348       __acrt_initialize_winapi_thunks 0000000180018348 f   libucrt:winapi_thunks.obj
 0001:00017380       __acrt_uninitialize_winapi_thunks 0000000180018380 f   libucrt:winapi_thunks.obj
 0001:000173c4       isdigit                    00000001800183c4 f i libucrt:_ctype.obj
 0001:00017488       _tolower_l                 0000000180018488 f   libucrt:tolower_toupper.obj
 0001:000175c8       tolower                    00000001800185c8 f   libucrt:tolower_toupper.obj
 0001:000175f4       ??$make_c_string_character_source@_WPEAPEA_W@__crt_strtox@@YA?AV?$c_string_character_source@_W@0@QEB_WQEAPEA_W@Z 00000001800185f4 f i libucrt:strtox.obj
 0001:00017608       wcstol                     0000000180018608 f   libucrt:strtox.obj
 0001:00017638       _mbtowc_l                  0000000180018638 f   libucrt:mbtowc.obj
 0001:00017780       mbtowc                     0000000180018780 f   libucrt:mbtowc.obj
 0001:00017788       wcsnlen                    0000000180018788 f   libucrt:strnlen.obj
 0001:00017980       __acrt_update_locale_info  0000000180018980 f   libucrt:locale_update.obj
 0001:000179b4       __acrt_update_multibyte_info 00000001800189b4 f   libucrt:locale_update.obj
 0001:000179e8       ?__acrt_fp_classify@@YA?AW4__acrt_fp_class@@AEBN@Z 00000001800189e8 f i libucrt:cvt.obj
 0001:00018420       __acrt_fp_format           0000000180019420 f   libucrt:cvt.obj
 0001:00018664       _fileno                    0000000180019664 f   libucrt:fileno.obj
 0001:0001868c       __acrt_initialize_stdio    000000018001968c f   libucrt:_file.obj
 0001:000187ac       __acrt_uninitialize_stdio  00000001800197ac f   libucrt:_file.obj
 0001:00018808       _lock_file                 0000000180019808 f   libucrt:_file.obj
 0001:00018814       _unlock_file               0000000180019814 f   libucrt:_file.obj
 0001:00018820       _get_printf_count_output   0000000180019820 f   libucrt:printf_count_output.obj
 0001:00018838       ??$?RV<lambda_410d79af7f07d98d83a3f525b3859a53>@@AEAV<lambda_3e16ef9562a7dcce91392c22ab16ea36>@@V<lambda_38119f0e861e05405d8a144b9b982f0a>@@@?$__crt_seh_guarded_call@X@@QEAAX$$QEAV<lambda_410d79af7f07d98d83a3f525b3859a53>@@AEAV<lambda_3e16ef9562a7dcce91392c22ab16ea36>@@$$QEAV<lambda_38119f0e861e05405d8a144b9b982f0a>@@@Z 0000000180019838 f i libucrt:wsetlocale.obj
 0001:000188a8       __acrt_set_locale_changed  00000001800198a8 f   libucrt:wsetlocale.obj
 0001:000188b4       __acrt_uninitialize_locale 00000001800198b4 f   libucrt:wsetlocale.obj
 0001:00018acc       __acrt_initialize_lowio    0000000180019acc f   libucrt:ioinit.obj
 0001:00018b08       __acrt_uninitialize_lowio  0000000180019b08 f   libucrt:ioinit.obj
 0001:00018b48       __acrt_initialize_locks    0000000180019b48 f   libucrt:locks.obj
 0001:00018b90       __acrt_lock                0000000180019b90 f   libucrt:locks.obj
 0001:00018bac       __acrt_uninitialize_locks  0000000180019bac f   libucrt:locks.obj
 0001:00018be4       __acrt_unlock              0000000180019be4 f   libucrt:locks.obj
 0001:00018c00       __acrt_get_process_end_policy 0000000180019c00 f   libucrt:win_policies.obj
 0001:0001918c       __acrt_expand_narrow_argv_wildcards 000000018001a18c f   libucrt:argv_wildcards.obj
 0001:00019194       ??$?RV<lambda_efdfa57d1f175319df784efa44bb7b81>@@AEAV<lambda_5f0a4c1567f8adc6734073e5d1e1b35c>@@V<lambda_2e8a7d3640ea6ccb4c2413664c2db6fd>@@@?$__crt_seh_guarded_call@X@@QEAAX$$QEAV<lambda_efdfa57d1f175319df784efa44bb7b81>@@AEAV<lambda_5f0a4c1567f8adc6734073e5d1e1b35c>@@$$QEAV<lambda_2e8a7d3640ea6ccb4c2413664c2db6fd>@@@Z 000000018001a194 f i libucrt:mbctype.obj
 0001:000198cc       __acrt_initialize_multibyte 000000018001a8cc f   libucrt:mbctype.obj
 0001:0001992c       __acrt_update_thread_multibyte_data 000000018001a92c f   libucrt:mbctype.obj
 0001:00019948       _setmbcp_nolock            000000018001a948 f   libucrt:mbctype.obj
 0001:00019c68       _ismbblead                 000000018001ac68 f   libucrt:ismbbyte.obj
 0001:00019c7c       __acrt_initialize_command_line 000000018001ac7c f   libucrt:argv_data.obj
 0001:00019ca4       __dcrt_get_narrow_environment_from_os 000000018001aca4 f   libucrt:get_environment_from_os.obj
 0001:00019da8       __acrt_initialize_heap     000000018001ada8 f   libucrt:heap_handle.obj
 0001:00019dc4       __acrt_uninitialize_heap   000000018001adc4 f   libucrt:heap_handle.obj
 0001:00019dd0       __acrt_execute_initializers 000000018001add0 f   libucrt:shared_initialization.obj
 0001:00019e50       __acrt_execute_uninitializers 000000018001ae50 f   libucrt:shared_initialization.obj
 0001:00019e90       ??$?RV<lambda_450d765d439847d4c735a33c368b5fc0>@@AEAV<lambda_44731a7d0e6d81c3e6aa82d741081786>@@V<lambda_601a2a7da3b7a96e9554ac7215c4b07c>@@@?$__crt_seh_guarded_call@P6AXH@Z@@QEAAP6AXH@Z$$QEAV<lambda_450d765d439847d4c735a33c368b5fc0>@@AEAV<lambda_44731a7d0e6d81c3e6aa82d741081786>@@$$QEAV<lambda_601a2a7da3b7a96e9554ac7215c4b07c>@@@Z 000000018001ae90 f i libucrt:signal.obj
 0001:00019ed8       __acrt_get_sigabrt_handler 000000018001aed8 f   libucrt:signal.obj
 0001:00019f08       __acrt_initialize_signal_handlers 000000018001af08 f   libucrt:signal.obj
 0001:00019f28       raise                      000000018001af28 f   libucrt:signal.obj
 0001:0001a1bc       __acrt_has_user_matherr    000000018001b1bc f   libucrt:matherr.obj
 0001:0001a1dc       __acrt_initialize_user_matherr 000000018001b1dc f   libucrt:matherr.obj
 0001:0001a1e4       __acrt_invoke_user_matherr 000000018001b1e4 f   libucrt:matherr.obj
 0001:0001a214       __pctype_func              000000018001b214 f   libucrt:ctype.obj
 0001:0001a244       iswctype                   000000018001b244 f   libucrt:iswctype.obj
 0001:0001a2b4       _isctype_l                 000000018001b2b4 f   libucrt:isctype.obj
 0001:0001a3c4       __acrt_add_locale_ref      000000018001b3c4 f   libucrt:locale_refcounting.obj
 0001:0001a450       __acrt_free_locale         000000018001b450 f   libucrt:locale_refcounting.obj
 0001:0001a5c8       __acrt_locale_add_lc_time_reference 000000018001b5c8 f   libucrt:locale_refcounting.obj
 0001:0001a5f0       __acrt_locale_free_lc_time_if_unreferenced 000000018001b5f0 f   libucrt:locale_refcounting.obj
 0001:0001a628       __acrt_locale_release_lc_time_reference 000000018001b628 f   libucrt:locale_refcounting.obj
 0001:0001a650       __acrt_release_locale_ref  000000018001b650 f   libucrt:locale_refcounting.obj
 0001:0001a6f8       __acrt_update_thread_locale_data 000000018001b6f8 f   libucrt:locale_refcounting.obj
 0001:0001a768       _updatetlocinfoEx_nolock   000000018001b768 f   libucrt:locale_refcounting.obj
 0001:0001a7d0       _query_new_mode            000000018001b7d0 f   libucrt:new_mode.obj
 0001:0001a8a0       __acrt_DownlevelLocaleNameToLCID 000000018001b8a0 f   libucrt:lcidtoname_downlevel.obj
 0001:0001a8d4       _isleadbyte_l              000000018001b8d4 f i libucrt:_wctype.obj
 0001:0001ac70       __acrt_LCMapStringA        000000018001bc70 f   libucrt:lcmapstringa.obj
 0001:0001ad08       __acrt_fp_strflt_to_string 000000018001bd08 f   libucrt:_fptostr.obj
 0001:0001add0       ?divide@__crt_strtox@@YA_KAEAUbig_integer@1@AEBU21@@Z 000000018001bdd0 f i libucrt:cfout.obj
 0001:0001b2a0       __acrt_fltout              000000018001c2a0 f   libucrt:cfout.obj
 0001:0001c648       _fcloseall                 000000018001d648 f   libucrt:closeall.obj
 0001:0001c6fc       ??$?RV<lambda_842d9ff0dc9ef11c61343bbaebe7f885>@@AEAV<lambda_c5860995281e5c4ce005b3de8f5874ee>@@V<lambda_d90129c13df834fdcbf8d2b88dafcf2d>@@@?$__crt_seh_guarded_call@X@@QEAAX$$QEAV<lambda_842d9ff0dc9ef11c61343bbaebe7f885>@@AEAV<lambda_c5860995281e5c4ce005b3de8f5874ee>@@$$QEAV<lambda_d90129c13df834fdcbf8d2b88dafcf2d>@@@Z 000000018001d6fc f i libucrt:fflush.obj
 0001:0001c798       ??$?RV<lambda_886d6c58226a84441f68b9f2b8217b83>@@AEAV<lambda_ab61a845afdef5b7c387490eaf3616ee>@@V<lambda_f7f22ab5edc0698d5f6905b0d3f44752>@@@?$__crt_seh_guarded_call@X@@QEAAX$$QEAV<lambda_886d6c58226a84441f68b9f2b8217b83>@@AEAV<lambda_ab61a845afdef5b7c387490eaf3616ee>@@$$QEAV<lambda_f7f22ab5edc0698d5f6905b0d3f44752>@@@Z 000000018001d798 f i libucrt:fflush.obj
 0001:0001c8e0       __acrt_stdio_flush_nolock  000000018001d8e0 f   libucrt:fflush.obj
 0001:0001c95c       _fflush_nolock             000000018001d95c f   libucrt:fflush.obj
 0001:0001c9a8       _flushall                  000000018001d9a8 f   libucrt:fflush.obj
 0001:0001c9b0       __acrt_stdio_free_buffer_nolock 000000018001d9b0 f   libucrt:_freebuf.obj
 0001:0001c9f0       _isatty                    000000018001d9f0 f   libucrt:isatty.obj
 0001:0001ca50       __acrt_locale_free_monetary 000000018001da50 f   libucrt:initmon.obj
 0001:0001cb5c       __acrt_locale_free_numeric 000000018001db5c f   libucrt:initnum.obj
 0001:0001cc20       __acrt_locale_free_time    000000018001dc20 f   libucrt:inittime.obj
 0001:0001cd28       __acrt_GetStringTypeA      000000018001dd28 f   libucrt:getstringtypea.obj
 0001:0001cedc       __acrt_lowio_create_handle_array 000000018001dedc f   libucrt:osfinfo.obj
 0001:0001cf74       __acrt_lowio_destroy_handle_array 000000018001df74 f   libucrt:osfinfo.obj
 0001:0001cfc4       __acrt_lowio_ensure_fh_exists 000000018001dfc4 f   libucrt:osfinfo.obj
 0001:0001d07c       __acrt_lowio_lock_fh       000000018001e07c f   libucrt:osfinfo.obj
 0001:0001d0a0       __acrt_lowio_unlock_fh     000000018001e0a0 f   libucrt:osfinfo.obj
 0001:0001d0c4       _free_osfhnd               000000018001e0c4 f   libucrt:osfinfo.obj
 0001:0001d180       _get_osfhandle             000000018001e180 f   libucrt:osfinfo.obj
 0001:0001d2c0       qsort                      000000018001e2c0 f   libucrt:qsort.obj
 0001:0001d5e0       strncpy_s                  000000018001e5e0 f   libucrt:strncpy_s.obj
 0001:0001d6b4       strpbrk                    000000018001e6b4 f   libucrt:strpbrk.obj
 0001:0001d754       _mbsdec                    000000018001e754 f   libucrt:mbsdec.obj
 0001:0001d75c       _mbsdec_l                  000000018001e75c f   libucrt:mbsdec.obj
 0001:0001d80c       __strncnt                  000000018001e80c f   libucrt:strncnt.obj
 0001:0001d824       fegetenv                   000000018001e824 f   libucrt:fegetenv.obj
 0001:0001d844       fesetenv                   000000018001e844 f   libucrt:fesetenv.obj
 0001:0001d890       feholdexcept               000000018001e890 f   libucrt:feholdexcept.obj
 0001:0001d8e0       ceil                       000000018001e8e0 f   libucrt:ceil.obj
 0001:0001d9b0       log10                      000000018001e9b0 f   libucrt:log10.obj
 0001:0001e518       _write                     000000018001f518 f   libucrt:write.obj
 0001:0001e604       _write_nolock              000000018001f604 f   libucrt:write.obj
 0001:0001e99c       _lseeki64_nolock           000000018001f99c f   libucrt:lseek.obj
 0001:0001e9a4       _fclose_nolock             000000018001f9a4 f   libucrt:fclose.obj
 0001:0001ea28       fclose                     000000018001fa28 f   libucrt:fclose.obj
 0001:0001ea94       ??$?RV<lambda_a37b2b86f63e897a80ea819b0eb08c01>@@AEAV<lambda_38ce7e780aa69e748d6df282ebc68efe>@@V<lambda_99fb1378e971ab6e7edea83e3a7a83a2>@@@?$__crt_seh_guarded_call@H@@QEAAH$$QEAV<lambda_a37b2b86f63e897a80ea819b0eb08c01>@@AEAV<lambda_38ce7e780aa69e748d6df282ebc68efe>@@$$QEAV<lambda_99fb1378e971ab6e7edea83e3a7a83a2>@@@Z 000000018001fa94 f i libucrt:commit.obj
 0001:0001eb20       _commit                    000000018001fb20 f   libucrt:commit.obj
 0001:0001ebb4       _query_app_type            000000018001fbb4 f   libucrt:report_runtime_error.obj
 0001:0001ebbc       _getfpcontrolword          000000018001fbbc f   libucrt:_fenvutils.obj
 0001:0001ebd4       _getfpstatusword           000000018001fbd4 f   libucrt:_fenvutils.obj
 0001:0001ebe8       _setfpcontrolword          000000018001fbe8 f   libucrt:_fenvutils.obj
 0001:0001ebf4       _setfpstatusword           000000018001fbf4 f   libucrt:_fenvutils.obj
 0001:0001ec40       _clearfp                   000000018001fc40 f   libucrt:ieee.obj
 0001:0001ec90       _controlfp                 000000018001fc90 f   libucrt:ieee.obj
 0001:0001ec9c       _statusfp                  000000018001fc9c f   libucrt:ieee.obj
 0001:0001f094       _handle_error              0000000180020094 f   libucrt:libm_error.obj
 0001:0001f1bc       _handle_nan                00000001800201bc f   libucrt:libm_error.obj
 0001:0001f1e0       __acrt_initialize_fma3     00000001800201e0 f   libucrt:fma3_available.obj
 0001:0001f250       _log10_special             0000000180020250 f   libucrt:log_special.obj
 0001:0001f308       _putwch_nolock             0000000180020308 f   libucrt:putwch.obj
 0001:0001f364       ??$?RV<lambda_751a882b2c74d4b022dec766aa51a29a>@@AEAV<lambda_628dfdc04ba53c8bfc02c9951375f3f5>@@V<lambda_f6c7be5f7998530c34de24c7437d6b54>@@@?$__crt_seh_guarded_call@H@@QEAAH$$QEAV<lambda_751a882b2c74d4b022dec766aa51a29a>@@AEAV<lambda_628dfdc04ba53c8bfc02c9951375f3f5>@@$$QEAV<lambda_f6c7be5f7998530c34de24c7437d6b54>@@@Z 0000000180020364 f i libucrt:close.obj
 0001:0001f3d8       _close                     00000001800203d8 f   libucrt:close.obj
 0001:0001f47c       _close_nolock              000000018002047c f   libucrt:close.obj
 0001:0001f538       ?__acrt_stdio_free_stream@@YAXV__crt_stdio_stream@@@Z 0000000180020538 f   libucrt:stream.obj
 0001:0001f590       _get_fpsr                  0000000180020590 f   libucrt:fpsr.obj
 0001:0001f5a0       _set_fpsr                  00000001800205a0 f   libucrt:fpsr.obj
 0001:0001f5aa       _fclrf                     00000001800205aa f   libucrt:fpsr.obj
 0001:0001f5be       _frnd                      00000001800205be f   libucrt:fpsr.obj
 0001:0001f5e0       _raise_exc                 00000001800205e0 f   libucrt:fpexcept.obj
 0001:0001f608       _raise_exc_ex              0000000180020608 f   libucrt:fpexcept.obj
 0001:0001f910       _set_errno_from_matherr    0000000180020910 f   libucrt:fpexcept.obj
 0001:0001f940       _clrfp                     0000000180020940 f   libucrt:fpctrl.obj
 0001:0001f960       _ctrlfp                    0000000180020960 f   libucrt:fpctrl.obj
 0001:0001f9dc       _set_statfp                00000001800209dc f   libucrt:fpctrl.obj
 0001:0001f9fc       _statfp                    00000001800209fc f   libucrt:fpctrl.obj
 0001:0001fa10       __dcrt_lowio_initialize_console_output 0000000180020a10 f   libucrt:initcon.obj
 0001:0001fa4c       __dcrt_terminate_console_output 0000000180020a4c f   libucrt:initcon.obj
 0001:0001fa6c       IsProcessorFeaturePresent  0000000180020a6c f   kernel32:KERNEL32.dll
 0001:0001fa80       _FindPESection             0000000180020a80 f   LIBCMT:pesect.obj
 0001:0001fad0       _IsNonwritableInCurrentImage 0000000180020ad0 f   LIBCMT:pesect.obj
 0001:0001fb20       _ValidateImageBase         0000000180020b20 f   LIBCMT:pesect.obj
 0001:0001fb50       strrchr                    0000000180020b50 f   libvcruntime:strrchr.obj
 0001:0001fcb0       _guard_dispatch_icall_nop  0000000180020cb0 f   LIBCMT:_guard_dispatch_.obj
 0002:00000000       __imp_RegQueryValueExW     0000000180022000     advapi32:ADVAPI32.dll
 0002:00000008       __imp_RegSetValueExW       0000000180022008     advapi32:ADVAPI32.dll
 0002:00000010       __imp_RegQueryInfoKeyW     0000000180022010     advapi32:ADVAPI32.dll
 0002:00000018       __imp_RegOpenKeyExW        0000000180022018     advapi32:ADVAPI32.dll
 0002:00000020       __imp_RegEnumKeyExW        0000000180022020     advapi32:ADVAPI32.dll
 0002:00000028       __imp_RegDeleteValueW      0000000180022028     advapi32:ADVAPI32.dll
 0002:00000030       __imp_RegDeleteKeyW        0000000180022030     advapi32:ADVAPI32.dll
 0002:00000038       __imp_RegCreateKeyExW      0000000180022038     advapi32:ADVAPI32.dll
 0002:00000040       __imp_RegCloseKey          0000000180022040     advapi32:ADVAPI32.dll
 0002:00000048       \177ADVAPI32_NULL_THUNK_DATA 0000000180022048     advapi32:ADVAPI32.dll
 0002:00000050       __imp_GetObjectW           0000000180022050     gdi32:GDI32.dll
 0002:00000058       __imp_SelectObject         0000000180022058     gdi32:GDI32.dll
 0002:00000060       __imp_DeleteObject         0000000180022060     gdi32:GDI32.dll
 0002:00000068       __imp_CreateCompatibleDC   0000000180022068     gdi32:GDI32.dll
 0002:00000070       __imp_BitBlt               0000000180022070     gdi32:GDI32.dll
 0002:00000078       __imp_SetWindowOrgEx       0000000180022078     gdi32:GDI32.dll
 0002:00000080       __imp_SetWindowExtEx       0000000180022080     gdi32:GDI32.dll
 0002:00000088       __imp_SetViewportOrgEx     0000000180022088     gdi32:GDI32.dll
 0002:00000090       __imp_LPtoDP               0000000180022090     gdi32:GDI32.dll
 0002:00000098       __imp_SetMapMode           0000000180022098     gdi32:GDI32.dll
 0002:000000a0       __imp_SaveDC               00000001800220a0     gdi32:GDI32.dll
 0002:000000a8       __imp_RestoreDC            00000001800220a8     gdi32:GDI32.dll
 0002:000000b0       __imp_GetDeviceCaps        00000001800220b0     gdi32:GDI32.dll
 0002:000000b8       __imp_DeleteMetaFile       00000001800220b8     gdi32:GDI32.dll
 0002:000000c0       __imp_DeleteDC             00000001800220c0     gdi32:GDI32.dll
 0002:000000c8       __imp_CreateRectRgnIndirect 00000001800220c8     gdi32:GDI32.dll
 0002:000000d0       __imp_CreateMetaFileW      00000001800220d0     gdi32:GDI32.dll
 0002:000000d8       __imp_CreateDCW            00000001800220d8     gdi32:GDI32.dll
 0002:000000e0       __imp_CloseMetaFile        00000001800220e0     gdi32:GDI32.dll
 0002:000000e8       \177GDI32_NULL_THUNK_DATA  00000001800220e8     gdi32:GDI32.dll
 0002:000000f0       __imp_CloseHandle          00000001800220f0     kernel32:KERNEL32.dll
 0002:000000f8       __imp_SetEvent             00000001800220f8     kernel32:KERNEL32.dll
 0002:00000100       __imp_CreateMutexW         0000000180022100     kernel32:KERNEL32.dll
 0002:00000108       __imp_CreateEventW         0000000180022108     kernel32:KERNEL32.dll
 0002:00000110       __imp_GetCurrentProcessId  0000000180022110     kernel32:KERNEL32.dll
 0002:00000118       __imp_CreateFileW          0000000180022118     kernel32:KERNEL32.dll
 0002:00000120       __imp_WriteConsoleW        0000000180022120     kernel32:KERNEL32.dll
 0002:00000128       __imp_FlushFileBuffers     0000000180022128     kernel32:KERNEL32.dll
 0002:00000130       __imp_SetFilePointerEx     0000000180022130     kernel32:KERNEL32.dll
 0002:00000138       __imp_GetConsoleMode       0000000180022138     kernel32:KERNEL32.dll
 0002:00000140       __imp_GetConsoleCP         0000000180022140     kernel32:KERNEL32.dll
 0002:00000148       __imp_WriteFile            0000000180022148     kernel32:KERNEL32.dll
 0002:00000150       __imp_SetStdHandle         0000000180022150     kernel32:KERNEL32.dll
 0002:00000158       __imp_GetStringTypeW       0000000180022158     kernel32:KERNEL32.dll
 0002:00000160       __imp_FreeEnvironmentStringsW 0000000180022160     kernel32:KERNEL32.dll
 0002:00000168       __imp_GetEnvironmentStringsW 0000000180022168     kernel32:KERNEL32.dll
 0002:00000170       __imp_lstrcmpiW            0000000180022170     kernel32:KERNEL32.dll
 0002:00000178       __imp_GetCommandLineA      0000000180022178     kernel32:KERNEL32.dll
 0002:00000180       __imp_GetCPInfo            0000000180022180     kernel32:KERNEL32.dll
 0002:00000188       __imp_GetOEMCP             0000000180022188     kernel32:KERNEL32.dll
 0002:00000190       __imp_IsValidCodePage      0000000180022190     kernel32:KERNEL32.dll
 0002:00000198       __imp_FindNextFileA        0000000180022198     kernel32:KERNEL32.dll
 0002:000001a0       __imp_FindFirstFileExA     00000001800221a0     kernel32:KERNEL32.dll
 0002:000001a8       __imp_FindClose            00000001800221a8     kernel32:KERNEL32.dll
 0002:000001b0       __imp_GetFileType          00000001800221b0     kernel32:KERNEL32.dll
 0002:000001b8       __imp_GetStdHandle         00000001800221b8     kernel32:KERNEL32.dll
 0002:000001c0       __imp_GetACP               00000001800221c0     kernel32:KERNEL32.dll
 0002:000001c8       __imp_LCMapStringW         00000001800221c8     kernel32:KERNEL32.dll
 0002:000001d0       __imp_HeapReAlloc          00000001800221d0     kernel32:KERNEL32.dll
 0002:000001d8       __imp_MulDiv               00000001800221d8     kernel32:KERNEL32.dll
 0002:000001e0       __imp_GlobalUnlock         00000001800221e0     kernel32:KERNEL32.dll
 0002:000001e8       __imp_GlobalLock           00000001800221e8     kernel32:KERNEL32.dll
 0002:000001f0       __imp_GlobalAlloc          00000001800221f0     kernel32:KERNEL32.dll
 0002:000001f8       __imp_FindResourceW        00000001800221f8     kernel32:KERNEL32.dll
 0002:00000200       __imp_SizeofResource       0000000180022200     kernel32:KERNEL32.dll
 0002:00000208       __imp_LoadResource         0000000180022208     kernel32:KERNEL32.dll
 0002:00000210       __imp_LoadLibraryExW       0000000180022210     kernel32:KERNEL32.dll
 0002:00000218       __imp_GetProcAddress       0000000180022218     kernel32:KERNEL32.dll
 0002:00000220       __imp_GetModuleHandleW     0000000180022220     kernel32:KERNEL32.dll
 0002:00000228       __imp_GetModuleFileNameW   0000000180022228     kernel32:KERNEL32.dll
 0002:00000230       __imp_FreeLibrary          0000000180022230     kernel32:KERNEL32.dll
 0002:00000238       __imp_DisableThreadLibraryCalls 0000000180022238     kernel32:KERNEL32.dll
 0002:00000240       __imp_GetCurrentThreadId   0000000180022240     kernel32:KERNEL32.dll
 0002:00000248       __imp_Sleep                0000000180022248     kernel32:KERNEL32.dll
 0002:00000250       __imp_WaitForSingleObject  0000000180022250     kernel32:KERNEL32.dll
 0002:00000258       __imp_ReleaseMutex         0000000180022258     kernel32:KERNEL32.dll
 0002:00000260       __imp_ResetEvent           0000000180022260     kernel32:KERNEL32.dll
 0002:00000268       __imp_EnterCriticalSection 0000000180022268     kernel32:KERNEL32.dll
 0002:00000270       __imp_LeaveCriticalSection 0000000180022270     kernel32:KERNEL32.dll
 0002:00000278       __imp_SetLastError         0000000180022278     kernel32:KERNEL32.dll
 0002:00000280       __imp_EncodePointer        0000000180022280     kernel32:KERNEL32.dll
 0002:00000288       __imp_DeleteCriticalSection 0000000180022288     kernel32:KERNEL32.dll
 0002:00000290       __imp_InitializeCriticalSectionAndSpinCount 0000000180022290     kernel32:KERNEL32.dll
 0002:00000298       __imp_GetLastError         0000000180022298     kernel32:KERNEL32.dll
 0002:000002a0       __imp_RaiseException       00000001800222a0     kernel32:KERNEL32.dll
 0002:000002a8       __imp_DecodePointer        00000001800222a8     kernel32:KERNEL32.dll
 0002:000002b0       __imp_WideCharToMultiByte  00000001800222b0     kernel32:KERNEL32.dll
 0002:000002b8       __imp_GetCommandLineW      00000001800222b8     kernel32:KERNEL32.dll
 0002:000002c0       __imp_MultiByteToWideChar  00000001800222c0     kernel32:KERNEL32.dll
 0002:000002c8       __imp_HeapSize             00000001800222c8     kernel32:KERNEL32.dll
 0002:000002d0       __imp_GetModuleFileNameA   00000001800222d0     kernel32:KERNEL32.dll
 0002:000002d8       __imp_GetModuleHandleExW   00000001800222d8     kernel32:KERNEL32.dll
 0002:000002e0       __imp_ExitProcess          00000001800222e0     kernel32:KERNEL32.dll
 0002:000002e8       __imp_VirtualQuery         00000001800222e8     kernel32:KERNEL32.dll
 0002:000002f0       __imp_VirtualProtect       00000001800222f0     kernel32:KERNEL32.dll
 0002:000002f8       __imp_GetSystemInfo        00000001800222f8     kernel32:KERNEL32.dll
 0002:00000300       __imp_TlsFree              0000000180022300     kernel32:KERNEL32.dll
 0002:00000308       __imp_TlsSetValue          0000000180022308     kernel32:KERNEL32.dll
 0002:00000310       __imp_TlsGetValue          0000000180022310     kernel32:KERNEL32.dll
 0002:00000318       __imp_TlsAlloc             0000000180022318     kernel32:KERNEL32.dll
 0002:00000320       __imp_RtlPcToFileHeader    0000000180022320     kernel32:KERNEL32.dll
 0002:00000328       __imp_InterlockedFlushSList 0000000180022328     kernel32:KERNEL32.dll
 0002:00000330       __imp_RtlUnwindEx          0000000180022330     kernel32:KERNEL32.dll
 0002:00000338       __imp_LoadLibraryExA       0000000180022338     kernel32:KERNEL32.dll
 0002:00000340       __imp_VirtualFree          0000000180022340     kernel32:KERNEL32.dll
 0002:00000348       __imp_VirtualAlloc         0000000180022348     kernel32:KERNEL32.dll
 0002:00000350       __imp_FlushInstructionCache 0000000180022350     kernel32:KERNEL32.dll
 0002:00000358       __imp_InterlockedPushEntrySList 0000000180022358     kernel32:KERNEL32.dll
 0002:00000360       __imp_InterlockedPopEntrySList 0000000180022360     kernel32:KERNEL32.dll
 0002:00000368       __imp_GetProcessHeap       0000000180022368     kernel32:KERNEL32.dll
 0002:00000370       __imp_HeapFree             0000000180022370     kernel32:KERNEL32.dll
 0002:00000378       __imp_HeapAlloc            0000000180022378     kernel32:KERNEL32.dll
 0002:00000380       __imp_OutputDebugStringW   0000000180022380     kernel32:KERNEL32.dll
 0002:00000388       __imp_InitializeSListHead  0000000180022388     kernel32:KERNEL32.dll
 0002:00000390       __imp_GetSystemTimeAsFileTime 0000000180022390     kernel32:KERNEL32.dll
 0002:00000398       __imp_QueryPerformanceCounter 0000000180022398     kernel32:KERNEL32.dll
 0002:000003a0       __imp_GetStartupInfoW      00000001800223a0     kernel32:KERNEL32.dll
 0002:000003a8       __imp_IsDebuggerPresent    00000001800223a8     kernel32:KERNEL32.dll
 0002:000003b0       __imp_IsProcessorFeaturePresent 00000001800223b0     kernel32:KERNEL32.dll
 0002:000003b8       __imp_WaitForSingleObjectEx 00000001800223b8     kernel32:KERNEL32.dll
 0002:000003c0       __imp_RtlCaptureContext    00000001800223c0     kernel32:KERNEL32.dll
 0002:000003c8       __imp_RtlLookupFunctionEntry 00000001800223c8     kernel32:KERNEL32.dll
 0002:000003d0       __imp_RtlVirtualUnwind     00000001800223d0     kernel32:KERNEL32.dll
 0002:000003d8       __imp_UnhandledExceptionFilter 00000001800223d8     kernel32:KERNEL32.dll
 0002:000003e0       __imp_SetUnhandledExceptionFilter 00000001800223e0     kernel32:KERNEL32.dll
 0002:000003e8       __imp_GetCurrentProcess    00000001800223e8     kernel32:KERNEL32.dll
 0002:000003f0       __imp_TerminateProcess     00000001800223f0     kernel32:KERNEL32.dll
 0002:000003f8       \177KERNEL32_NULL_THUNK_DATA 00000001800223f8     kernel32:KERNEL32.dll
 0002:00000400       __imp_OleCreatePropertyFrame 0000000180022400     oleaut32:OLEAUT32.dll
 0002:00000408       __imp_UnRegisterTypeLib    0000000180022408     oleaut32:OLEAUT32.dll
 0002:00000410       __imp_RegisterTypeLib      0000000180022410     oleaut32:OLEAUT32.dll
 0002:00000418       __imp_LoadRegTypeLib       0000000180022418     oleaut32:OLEAUT32.dll
 0002:00000420       __imp_LoadTypeLib          0000000180022420     oleaut32:OLEAUT32.dll
 0002:00000428       __imp_VarUI4FromStr        0000000180022428     oleaut32:OLEAUT32.dll
 0002:00000430       __imp_VariantInit          0000000180022430     oleaut32:OLEAUT32.dll
 0002:00000438       __imp_SysAllocStringByteLen 0000000180022438     oleaut32:OLEAUT32.dll
 0002:00000440       __imp_SysStringByteLen     0000000180022440     oleaut32:OLEAUT32.dll
 0002:00000448       __imp_VariantChangeType    0000000180022448     oleaut32:OLEAUT32.dll
 0002:00000450       __imp_VariantClear         0000000180022450     oleaut32:OLEAUT32.dll
 0002:00000458       __imp_SysStringLen         0000000180022458     oleaut32:OLEAUT32.dll
 0002:00000460       __imp_SysFreeString        0000000180022460     oleaut32:OLEAUT32.dll
 0002:00000468       __imp_SysAllocStringLen    0000000180022468     oleaut32:OLEAUT32.dll
 0002:00000470       __imp_SysAllocString       0000000180022470     oleaut32:OLEAUT32.dll
 0002:00000478       \177OLEAUT32_NULL_THUNK_DATA 0000000180022478     oleaut32:OLEAUT32.dll
 0002:00000480       __imp_UnregisterClassW     0000000180022480     user32:USER32.dll
 0002:00000488       __imp_PostMessageW         0000000180022488     user32:USER32.dll
 0002:00000490       __imp_DefWindowProcW       0000000180022490     user32:USER32.dll
 0002:00000498       __imp_CallWindowProcW      0000000180022498     user32:USER32.dll
 0002:000004a0       __imp_RegisterClassExW     00000001800224a0     user32:USER32.dll
 0002:000004a8       __imp_GetClassInfoExW      00000001800224a8     user32:USER32.dll
 0002:000004b0       __imp_CreateWindowExW      00000001800224b0     user32:USER32.dll
 0002:000004b8       __imp_IsWindow             00000001800224b8     user32:USER32.dll
 0002:000004c0       __imp_IsChild              00000001800224c0     user32:USER32.dll
 0002:000004c8       __imp_DestroyWindow        00000001800224c8     user32:USER32.dll
 0002:000004d0       __imp_ShowWindow           00000001800224d0     user32:USER32.dll
 0002:000004d8       __imp_SetWindowPos         00000001800224d8     user32:USER32.dll
 0002:000004e0       __imp_CharNextW            00000001800224e0     user32:USER32.dll
 0002:000004e8       __imp_SetFocus             00000001800224e8     user32:USER32.dll
 0002:000004f0       __imp_LoadBitmapW          00000001800224f0     user32:USER32.dll
 0002:000004f8       __imp_RegisterClassW       00000001800224f8     user32:USER32.dll
 0002:00000500       __imp_PeekMessageW         0000000180022500     user32:USER32.dll
 0002:00000508       __imp_LoadCursorW          0000000180022508     user32:USER32.dll
 0002:00000510       __imp_GetParent            0000000180022510     user32:USER32.dll
 0002:00000518       __imp_SetWindowLongPtrW    0000000180022518     user32:USER32.dll
 0002:00000520       __imp_GetWindowLongPtrW    0000000180022520     user32:USER32.dll
 0002:00000528       __imp_PtInRect             0000000180022528     user32:USER32.dll
 0002:00000530       __imp_EqualRect            0000000180022530     user32:USER32.dll
 0002:00000538       __imp_OffsetRect           0000000180022538     user32:USER32.dll
 0002:00000540       __imp_UnionRect            0000000180022540     user32:USER32.dll
 0002:00000548       __imp_IntersectRect        0000000180022548     user32:USER32.dll
 0002:00000550       __imp_GetClientRect        0000000180022550     user32:USER32.dll
 0002:00000558       __imp_InvalidateRect       0000000180022558     user32:USER32.dll
 0002:00000560       __imp_SetWindowRgn         0000000180022560     user32:USER32.dll
 0002:00000568       __imp_EndPaint             0000000180022568     user32:USER32.dll
 0002:00000570       __imp_BeginPaint           0000000180022570     user32:USER32.dll
 0002:00000578       __imp_ReleaseDC            0000000180022578     user32:USER32.dll
 0002:00000580       __imp_GetDC                0000000180022580     user32:USER32.dll
 0002:00000588       __imp_GetKeyState          0000000180022588     user32:USER32.dll
 0002:00000590       __imp_GetFocus             0000000180022590     user32:USER32.dll
 0002:00000598       \177USER32_NULL_THUNK_DATA 0000000180022598     user32:USER32.dll
 0002:000005a0       __imp_CoCreateInstance     00000001800225a0     ole32:ole32.dll
 0002:000005a8       __imp_StringFromGUID2      00000001800225a8     ole32:ole32.dll
 0002:000005b0       __imp_CoTaskMemAlloc       00000001800225b0     ole32:ole32.dll
 0002:000005b8       __imp_CoTaskMemFree        00000001800225b8     ole32:ole32.dll
 0002:000005c0       __imp_ReadClassStm         00000001800225c0     ole32:ole32.dll
 0002:000005c8       __imp_WriteClassStm        00000001800225c8     ole32:ole32.dll
 0002:000005d0       __imp_CreateDataAdviseHolder 00000001800225d0     ole32:ole32.dll
 0002:000005d8       __imp_OleSaveToStream      00000001800225d8     ole32:ole32.dll
 0002:000005e0       __imp_CreateOleAdviseHolder 00000001800225e0     ole32:ole32.dll
 0002:000005e8       __imp_OleRegGetUserType    00000001800225e8     ole32:ole32.dll
 0002:000005f0       __imp_OleRegGetMiscStatus  00000001800225f0     ole32:ole32.dll
 0002:000005f8       __imp_OleRegEnumVerbs      00000001800225f8     ole32:ole32.dll
 0002:00000600       __imp_CLSIDFromProgID      0000000180022600     ole32:ole32.dll
 0002:00000608       __imp_CoTaskMemRealloc     0000000180022608     ole32:ole32.dll
 0002:00000610       \177ole32_NULL_THUNK_DATA  0000000180022610     ole32:ole32.dll
 0002:00000618       __guard_check_icall_fptr   0000000180022618     LIBCMT:guard_support.obj
 0002:00000620       __guard_dispatch_icall_fptr 0000000180022620     LIBCMT:guard_support.obj
 0002:00000628       __xc_a                     0000000180022628     LIBCMT:initializers.obj
 0002:00000658       __xc_z                     0000000180022658     LIBCMT:initializers.obj
 0002:00000660       __xi_a                     0000000180022660     LIBCMT:initializers.obj
 0002:00000670       __acrt_stdio_initializer   0000000180022670     libucrt:stdio_initializer.obj
 0002:00000678       __acrt_multibyte_initializer 0000000180022678     libucrt:multibyte_initializer.obj
 0002:00000680       __acrt_tran_fma3_initializer 0000000180022680     libucrt:fma3_initializer.obj
 0002:00000688       __xi_z                     0000000180022688     LIBCMT:initializers.obj
 0002:00000690       __xl_a                     0000000180022690     LIBCMT:tlssup.obj
 0002:00000698       __xl_z                     0000000180022698     LIBCMT:tlssup.obj
 0002:000006a0       __xp_a                     00000001800226a0     LIBCMT:initializers.obj
 0002:000006a8       __acrt_locale_terminator   00000001800226a8     libucrt:locale_initializer.obj
 0002:000006b0       __dcrt_console_output_terminator 00000001800226b0     libucrt:console_output_initializer.obj
 0002:000006b8       __acrt_stdio_terminator    00000001800226b8     libucrt:stdio_initializer.obj
 0002:000006c0       __xp_z                     00000001800226c0     LIBCMT:initializers.obj
 0002:000006c8       __xt_a                     00000001800226c8     LIBCMT:initializers.obj
 0002:000006d0       __xt_z                     00000001800226d0     LIBCMT:initializers.obj
 0002:000006e0       ??_C@_13HADIAKP@?$AAS@     00000001800226e0     OposVariant.obj
 0002:000006e4       ??_C@_13LHMFKAAD@?$AAM@    00000001800226e4     OposVariant.obj
 0002:000006e8       ??_C@_13MKMNOPIJ@?$AAD@    00000001800226e8     OposVariant.obj
 0002:000006ec       ??_C@_13OPKGLAFF@?$AAB@    00000001800226ec     OposVariant.obj
 0002:000006f0       ??_C@_17LLMMEOJD@?$AAV?$AAa?$AAl@ 00000001800226f0     OposVariant.obj
 0002:000006f8       ??_C@_1BI@JFAIJMHL@?$AAF?$AAo?$AAr?$AAc?$AAe?$AAR?$AAe?$AAm?$AAo?$AAv?$AAe@ 00000001800226f8     OposVariant.obj
 0002:00000710       ??_C@_1BC@GCKHIPE@?$AAN?$AAo?$AAR?$AAe?$AAm?$AAo?$AAv?$AAe@ 0000000180022710     OposVariant.obj
 0002:00000728       ??_C@_1O@JDLOHAN@?$AAD?$AAe?$AAl?$AAe?$AAt?$AAe@ 0000000180022728     OposVariant.obj
 0002:00000738       ??_C@_11LOCGONAA@@         0000000180022738     OposVariant.obj
 0002:00000740       ?_entries@?1??_GetEntries@COPOSCashChanger@@SAPEBU_ATL_INTMAP_ENTRY@ATL@@XZ@4QBU34@B 0000000180022740     CashChanger.obj
 0002:000009c8       ??_C@_1M@KANJNLFF@?$AAC?$AAL?$AAS?$AAI?$AAD@ 00000001800229c8     CashChanger.obj
 0002:000009d8       ??_C@_1M@EJNEECMJ@?$AAA?$AAp?$AAp?$AAI?$AAD@ 00000001800229d8     CashChanger.obj
 0002:000009e8       _GUID_cf51ed10_62fe_11cf_bf86_00a0c9034836 00000001800229e8     CashChanger.obj
 0002:000009f8       _GUID_0000010a_0000_0000_c000_000000000046 00000001800229f8     CashChanger.obj
 0002:00000a08       _GUID_b196b283_bab4_101a_b69c_00aa00341d07 0000000180022a08     CashChanger.obj
 0002:00000a18       _GUID_cb5bdc81_93c1_11cf_8f20_00805f2cd064 0000000180022a18     CashChanger.obj
 0002:00000a30       ?pPropMap@?1??GetPropertyMap@COPOSCashChanger@@SAPEBUATL_PROPMAP_ENTRY@ATL@@XZ@4QBU34@B 0000000180022a30     CashChanger.obj
 0002:00000ad8       ??_C@_17DGDADEHL@?$AA_?$AAc?$AAx@ 0000000180022ad8     CashChanger.obj
 0002:00000ae0       ??_C@_17IOIMFDBO@?$AA_?$AAc?$AAy@ 0000000180022ae0     CashChanger.obj
 0002:00000ae8       _GUID_922eada0_3424_11cf_b670_00aa004cd6d8 0000000180022ae8     CashChanger.obj
 0002:00000af8       _GUID_9c2cad80_3424_11cf_b670_00aa004cd6d8 0000000180022af8     CashChanger.obj
 0002:00000b08       _GUID_00000119_0000_0000_c000_000000000046 0000000180022b08     CashChanger.obj
 0002:00000b18       _GUID_b196b289_bab4_101a_b69c_00aa00341d07 0000000180022b18     CashChanger.obj
 0002:00000b28       _GUID_b196b286_bab4_101a_b69c_00aa00341d07 0000000180022b28     CashChanger.obj
 0002:00000b38       ??_C@_1CE@PGFMOFKI@?$AAS?$AAt?$AAa?$AAt?$AAu?$AAs?$AAU?$AAp?$AAd?$AAa?$AAt?$AAe?$AAE?$AAv?$AAe@ 0000000180022b38     CashChanger.obj
 0002:00000b60       ?rgszNeverDelete@CRegParser@ATL@@1QBQEB_WB 0000000180022b60     CashChanger.obj
 0002:00000bc0       ??_C@_1BM@CBGEBBBJ@?$AAD?$AAi?$AAr?$AAe?$AAc?$AAt?$AAI?$AAO?$AAE?$AAv?$AAe?$AAn?$AAt@ 0000000180022bc0     CashChanger.obj
 0002:00000be0       _GUID_00000117_0000_0000_c000_000000000046 0000000180022be0     CashChanger.obj
 0002:00000bf0       ??_C@_1BE@IEBMACEM@?$AAD?$AAa?$AAt?$AAa?$AAE?$AAv?$AAe?$AAn?$AAt@ 0000000180022bf0     CashChanger.obj
 0002:00000c08       ??_7CRegObject@ATL@@6B@    0000000180022c08     CashChanger.obj
 0002:00000c38       ??_C@_1BC@ENICKDH@?$AAC?$AAo?$AAn?$AAt?$AAe?$AAn?$AAt?$AAs@ 0000000180022c38     CashChanger.obj
 0002:00000c50       ??_7?$CComObject@V?$CComEnum@UIEnumConnectionPoints@@$1?_GUID_b196b285_bab4_101a_b69c_00aa00341d07@@3U__s_GUID@@BPEAUIConnectionPoint@@V?$_CopyInterface@UIConnectionPoint@@@ATL@@VCComSingleThreadModel@6@@ATL@@@ATL@@6B@ 0000000180022c50     CashChanger.obj
 0002:00000c90       ??_C@_1CK@OEKPKBNA@?$AAC?$AAo?$AAm?$AAp?$AAo?$AAn?$AAe?$AAn?$AAt?$AA?5?$AAC?$AAa?$AAt?$AAe?$AAg@ 0000000180022c90     CashChanger.obj
 0002:00000cc0       ??_C@_1BC@NKMMNMGL@?$AAF?$AAi?$AAl?$AAe?$AAT?$AAy?$AAp?$AAe@ 0000000180022cc0     CashChanger.obj
 0002:00000cd8       ??_C@_1BE@EKPAFMCP@?$AAI?$AAn?$AAt?$AAe?$AAr?$AAf?$AAa?$AAc?$AAe@ 0000000180022cd8     CashChanger.obj
 0002:00000cf0       ??_C@_1BC@MAICEHGI@?$AAH?$AAa?$AAr?$AAd?$AAw?$AAa?$AAr?$AAe@ 0000000180022cf0     CashChanger.obj
 0002:00000d08       ??_C@_19HLLLM@?$AAM?$AAi?$AAm?$AAe@ 0000000180022d08     CashChanger.obj
 0002:00000d18       ??_C@_17OMAOINJK@?$AAS?$AAA?$AAM@ 0000000180022d18     CashChanger.obj
 0002:00000d20       ??_C@_1BC@IBECJAAI@?$AAS?$AAE?$AAC?$AAU?$AAR?$AAI?$AAT?$AAY@ 0000000180022d20     CashChanger.obj
 0002:00000d38       ??_C@_1O@GBFINDKL@?$AAS?$AAY?$AAS?$AAT?$AAE?$AAM@ 0000000180022d38     CashChanger.obj
 0002:00000d48       ??_C@_1BC@EAHCMADO@?$AAS?$AAo?$AAf?$AAt?$AAw?$AAa?$AAr?$AAe@ 0000000180022d48     CashChanger.obj
 0002:00000d60       ??_C@_1BA@JIHHIEDE@?$AAT?$AAy?$AAp?$AAe?$AAL?$AAi?$AAb@ 0000000180022d60     CashChanger.obj
 0002:00000e50       ??_C@_19NCHLBIN@?$AAH?$AAK?$AAC?$AAR@ 0000000180022e50     CashChanger.obj
 0002:00000e60       ??_C@_19JAPAIJDE@?$AAH?$AAK?$AAC?$AAU@ 0000000180022e60     CashChanger.obj
 0002:00000e70       ??_C@_19PEALEEJB@?$AAH?$AAK?$AAL?$AAM@ 0000000180022e70     CashChanger.obj
 0002:00000e80       ??_C@_17PJOJPMPB@?$AAH?$AAK?$AAU@ 0000000180022e80     CashChanger.obj
 0002:00000e88       ??_C@_19PNBHMJPL@?$AAH?$AAK?$AAP?$AAD@ 0000000180022e88     CashChanger.obj
 0002:00000e98       ??_C@_19GFFAIJHG@?$AAH?$AAK?$AAD?$AAD@ 0000000180022e98     CashChanger.obj
 0002:00000ea8       ??_C@_19OFICIBHH@?$AAH?$AAK?$AAC?$AAC@ 0000000180022ea8     CashChanger.obj
 0002:00000eb8       ??_C@_1CE@PACHPJFI@?$AAH?$AAK?$AAE?$AAY?$AA_?$AAC?$AAL?$AAA?$AAS?$AAS?$AAE?$AAS?$AA_?$AAR?$AAO@ 0000000180022eb8     CashChanger.obj
 0002:00000ee0       ??_C@_1CE@HLHNCBPM@?$AAH?$AAK?$AAE?$AAY?$AA_?$AAC?$AAU?$AAR?$AAR?$AAE?$AAN?$AAT?$AA_?$AAU?$AAS@ 0000000180022ee0     CashChanger.obj
 0002:00000f08       ??_C@_1CG@GFBEANJL@?$AAH?$AAK?$AAE?$AAY?$AA_?$AAL?$AAO?$AAC?$AAA?$AAL?$AA_?$AAM?$AAA?$AAC?$AAH@ 0000000180022f08     CashChanger.obj
 0002:00000f30       ??_C@_1BG@BGODANIO@?$AAH?$AAK?$AAE?$AAY?$AA_?$AAU?$AAS?$AAE?$AAR?$AAS@ 0000000180022f30     CashChanger.obj
 0002:00000f48       ??_C@_1CM@KHNNAOIC@?$AAH?$AAK?$AAE?$AAY?$AA_?$AAP?$AAE?$AAR?$AAF?$AAO?$AAR?$AAM?$AAA?$AAN?$AAC@ 0000000180022f48     CashChanger.obj
 0002:00000f78       ??_C@_1BM@HAGMMHIA@?$AAH?$AAK?$AAE?$AAY?$AA_?$AAD?$AAY?$AAN?$AA_?$AAD?$AAA?$AAT?$AAA@ 0000000180022f78     CashChanger.obj
 0002:00000f98       ??_C@_1CI@BBJOACGG@?$AAH?$AAK?$AAE?$AAY?$AA_?$AAC?$AAU?$AAR?$AAR?$AAE?$AAN?$AAT?$AA_?$AAC?$AAO@ 0000000180022f98     CashChanger.obj
 0002:00000fc0       ??_C@_1EA@NHKLICFA@?$AAH?$AAK?$AAC?$AAU?$AA?$AN?$AA?6?$AA?$HL?$AA?7?$AAS?$AAo?$AAf?$AAt?$AAw?$AAa?$AAr@ 0000000180022fc0     CashChanger.obj
 0002:00001000       ??_C@_1BE@LJOLIMEM@?$AA?$AN?$AA?6?$AA?7?$AA?$HN?$AA?$AN?$AA?6?$AA?$HN?$AA?$AN?$AA?6@ 0000000180023000     CashChanger.obj
 0002:00001018       _GUID_00000109_0000_0000_c000_000000000046 0000000180023018     CashChanger.obj
 0002:00001028       _GUID_7fd52380_4e07_101b_ae2d_08002b2ec713 0000000180023028     CashChanger.obj
 0002:00001038       _GUID_0000010e_0000_0000_c000_000000000046 0000000180023038     CashChanger.obj
 0002:00001048       _GUID_b196b288_bab4_101a_b69c_00aa00341d07 0000000180023048     CashChanger.obj
 0002:00001058       ??_C@_1O@MNLDABAF@?$AAM?$AAo?$AAd?$AAu?$AAl?$AAe@ 0000000180023058     CashChanger.obj
 0002:00001068       ??_C@_1BG@JBACFMF@?$AAM?$AAo?$AAd?$AAu?$AAl?$AAe?$AA_?$AAR?$AAa?$AAw@ 0000000180023068     CashChanger.obj
 0002:00001080       ??_C@_1BC@KAILKFFG@?$AAR?$AAE?$AAG?$AAI?$AAS?$AAT?$AAR?$AAY@ 0000000180023080     CashChanger.obj
 0002:00001098       _GUID_00000113_0000_0000_c000_000000000046 0000000180023098     CashChanger.obj
 0002:000010a8       _GUID_1c2056cc_5ef4_101b_8bc8_00aa003e3b29 00000001800230a8     CashChanger.obj
 0002:000010b8       _GUID_00000112_0000_0000_c000_000000000046 00000001800230b8     CashChanger.obj
 0002:000010c8       ??_7?$CComObjectCached@VCComClassFactory@ATL@@@ATL@@6B@ 00000001800230c8     CashChanger.obj
 0002:000010f8       _GUID_3af24292_0c96_11ce_a0cf_00aa00600ab8 00000001800230f8     CashChanger.obj
 0002:00001108       _GUID_00000127_0000_0000_c000_000000000046 0000000180023108     CashChanger.obj
 0002:00001118       _GUID_0000010d_0000_0000_c000_000000000046 0000000180023118     CashChanger.obj
 0002:00001128       ??_C@_1M@PPPPCDEP@?$AAA?$AAP?$AAP?$AAI?$AAD@ 0000000180023128     CashChanger.obj
 0002:00001138       _GUID_b196b284_bab4_101a_b69c_00aa00341d07 0000000180023138     CashChanger.obj
 0002:00001148       ??_7?$CComContainedObject@VCOPOSCashChanger@@@ATL@@6B?$IDispatchImpl@UIOPOSCashChanger@@$1?IID_IOPOSCashChanger@@3U_GUID@@B$1?LIBID_OposCashChanger_CCO@@3U3@B$00$0A@VCComTypeInfoHolder@ATL@@@1@@ 0000000180023148     CashChanger.obj
 0002:00001458       ??_7?$CComContainedObject@VCOPOSCashChanger@@@ATL@@6BCComControlBase@1@@ 0000000180023458     CashChanger.obj
 0002:00001480       ??_7?$CComContainedObject@VCOPOSCashChanger@@@ATL@@6B?$CWindowImpl@VCOPOSCashChanger@@VCWindow@ATL@@V?$CWinTraits@$0FGAAAAAA@$0A@@3@@1@@ 0000000180023480     CashChanger.obj
 0002:000014a0       ??_7?$CComContainedObject@VCOPOSCashChanger@@@ATL@@6B?$IPersistStreamInitImpl@VCOPOSCashChanger@@@1@@ 00000001800234a0     CashChanger.obj
 0002:000014e8       ??_7?$CComContainedObject@VCOPOSCashChanger@@@ATL@@6B?$IOleControlImpl@VCOPOSCashChanger@@@1@@ 00000001800234e8     CashChanger.obj
 0002:00001520       ??_7?$CComContainedObject@VCOPOSCashChanger@@@ATL@@6B?$IOleObjectImpl@VCOPOSCashChanger@@@1@@ 0000000180023520     CashChanger.obj
 0002:000015e0       ??_7?$CComContainedObject@VCOPOSCashChanger@@@ATL@@6B?$IOleInPlaceActiveObjectImpl@VCOPOSCashChanger@@@1@@ 00000001800235e0     CashChanger.obj
 0002:00001630       ??_7?$CComContainedObject@VCOPOSCashChanger@@@ATL@@6B?$IViewObjectExImpl@VCOPOSCashChanger@@@1@@ 0000000180023630     CashChanger.obj
 0002:000016a8       ??_7?$CComContainedObject@VCOPOSCashChanger@@@ATL@@6B?$IOleInPlaceObjectWindowlessImpl@VCOPOSCashChanger@@@1@@ 00000001800236a8     CashChanger.obj
 0002:00001700       ??_7?$CComContainedObject@VCOPOSCashChanger@@@ATL@@6B?$IConnectionPointContainerImpl@VCOPOSCashChanger@@@1@@ 0000000180023700     CashChanger.obj
 0002:00001728       ??_7?$CComContainedObject@VCOPOSCashChanger@@@ATL@@6B?$IPersistStorageImpl@VCOPOSCashChanger@@@1@@ 0000000180023728     CashChanger.obj
 0002:00001778       ??_7?$CComContainedObject@VCOPOSCashChanger@@@ATL@@6B?$ISpecifyPropertyPagesImpl@VCOPOSCashChanger@@@1@@ 0000000180023778     CashChanger.obj
 0002:00001798       ??_7?$CComContainedObject@VCOPOSCashChanger@@@ATL@@6B?$IQuickActivateImpl@VCOPOSCashChanger@@@1@@ 0000000180023798     CashChanger.obj
 0002:000017c8       ??_7?$CComContainedObject@VCOPOSCashChanger@@@ATL@@6B?$IDataObjectImpl@VCOPOSCashChanger@@@1@@ 00000001800237c8     CashChanger.obj
 0002:00001828       ??_7?$CComContainedObject@VCOPOSCashChanger@@@ATL@@6B?$IProvideClassInfo2Impl@$1?CLSID_OPOSCashChanger@@3U_GUID@@B$1?DIID__IOPOSCashChangerEvents@@3U2@B$1?LIBID_OposCashChanger_CCO@@3U2@B$00$0A@VCComTypeInfoHolder@ATL@@@1@@ 0000000180023828     CashChanger.obj
 0002:00001850       ??_7?$CComContainedObject@VCOPOSCashChanger@@@ATL@@6B?$IObjectSafetyImpl@VCOPOSCashChanger@@$02@1@@ 0000000180023850     CashChanger.obj
 0002:00001880       ??_7?$CComContainedObject@VCOPOSCashChanger@@@ATL@@6B?$IPropertyNotifySinkCP@VCOPOSCashChanger@@VCComDynamicUnkArray@ATL@@@1@@ 0000000180023880     CashChanger.obj
 0002:000018c0       ??_7?$CComContainedObject@VCOPOSCashChanger@@@ATL@@6B?$CProxy_IOPOSEvents@VCOPOSCashChanger@@@@@ 00000001800238c0     CashChanger.obj
 0002:00001900       ??_7?$CComAggObject@VCOPOSCashChanger@@@ATL@@6B@ 0000000180023900     CashChanger.obj
 0002:00001920       ??_7?$CComObject@VCOPOSCashChanger@@@ATL@@6B?$IDispatchImpl@UIOPOSCashChanger@@$1?IID_IOPOSCashChanger@@3U_GUID@@B$1?LIBID_OposCashChanger_CCO@@3U3@B$00$0A@VCComTypeInfoHolder@ATL@@@1@@ 0000000180023920     CashChanger.obj
 0002:00001c30       ??_7?$CComObject@VCOPOSCashChanger@@@ATL@@6BCComControlBase@1@@ 0000000180023c30     CashChanger.obj
 0002:00001c58       ??_7?$CComObject@VCOPOSCashChanger@@@ATL@@6B?$CWindowImpl@VCOPOSCashChanger@@VCWindow@ATL@@V?$CWinTraits@$0FGAAAAAA@$0A@@3@@1@@ 0000000180023c58     CashChanger.obj
 0002:00001c78       ??_7?$CComObject@VCOPOSCashChanger@@@ATL@@6B?$IPersistStreamInitImpl@VCOPOSCashChanger@@@1@@ 0000000180023c78     CashChanger.obj
 0002:00001cc0       ??_7?$CComObject@VCOPOSCashChanger@@@ATL@@6B?$IOleControlImpl@VCOPOSCashChanger@@@1@@ 0000000180023cc0     CashChanger.obj
 0002:00001cf8       ??_7?$CComObject@VCOPOSCashChanger@@@ATL@@6B?$IOleObjectImpl@VCOPOSCashChanger@@@1@@ 0000000180023cf8     CashChanger.obj
 0002:00001db8       ??_7?$CComObject@VCOPOSCashChanger@@@ATL@@6B?$IOleInPlaceActiveObjectImpl@VCOPOSCashChanger@@@1@@ 0000000180023db8     CashChanger.obj
 0002:00001e08       ??_7?$CComObject@VCOPOSCashChanger@@@ATL@@6B?$IViewObjectExImpl@VCOPOSCashChanger@@@1@@ 0000000180023e08     CashChanger.obj
 0002:00001e80       ??_7?$CComObject@VCOPOSCashChanger@@@ATL@@6B?$IOleInPlaceObjectWindowlessImpl@VCOPOSCashChanger@@@1@@ 0000000180023e80     CashChanger.obj
 0002:00001ed8       ??_7?$CComObject@VCOPOSCashChanger@@@ATL@@6B?$IConnectionPointContainerImpl@VCOPOSCashChanger@@@1@@ 0000000180023ed8     CashChanger.obj
 0002:00001f00       ??_7?$CComObject@VCOPOSCashChanger@@@ATL@@6B?$IPersistStorageImpl@VCOPOSCashChanger@@@1@@ 0000000180023f00     CashChanger.obj
 0002:00001f50       ??_7?$CComObject@VCOPOSCashChanger@@@ATL@@6B?$ISpecifyPropertyPagesImpl@VCOPOSCashChanger@@@1@@ 0000000180023f50     CashChanger.obj
 0002:00001f70       ??_7?$CComObject@VCOPOSCashChanger@@@ATL@@6B?$IQuickActivateImpl@VCOPOSCashChanger@@@1@@ 0000000180023f70     CashChanger.obj
 0002:00001fa0       ??_7?$CComObject@VCOPOSCashChanger@@@ATL@@6B?$IDataObjectImpl@VCOPOSCashChanger@@@1@@ 0000000180023fa0     CashChanger.obj
 0002:00002000       ??_7?$CComObject@VCOPOSCashChanger@@@ATL@@6B?$IProvideClassInfo2Impl@$1?CLSID_OPOSCashChanger@@3U_GUID@@B$1?DIID__IOPOSCashChangerEvents@@3U2@B$1?LIBID_OposCashChanger_CCO@@3U2@B$00$0A@VCComTypeInfoHolder@ATL@@@1@@ 0000000180024000     CashChanger.obj
 0002:00002028       ??_7?$CComObject@VCOPOSCashChanger@@@ATL@@6B?$IObjectSafetyImpl@VCOPOSCashChanger@@$02@1@@ 0000000180024028     CashChanger.obj
 0002:00002058       ??_7?$CComObject@VCOPOSCashChanger@@@ATL@@6B?$IPropertyNotifySinkCP@VCOPOSCashChanger@@VCComDynamicUnkArray@ATL@@@1@@ 0000000180024058     CashChanger.obj
 0002:00002098       ??_7?$CComObject@VCOPOSCashChanger@@@ATL@@6B?$CProxy_IOPOSEvents@VCOPOSCashChanger@@@@@ 0000000180024098     CashChanger.obj
 0002:000020d8       ??_C@_1O@GBFKGNEO@?$AAA?$AAT?$AAL?$AA?3?$AA?$CF?$AAp@ 00000001800240d8     CashChanger.obj
 0002:000020e8       ??_C@_1BA@PICGEGJB@?$AAD?$AAI?$AAS?$AAP?$AAL?$AAA?$AAY@ 00000001800240e8     CashChanger.obj
 0002:000020f8       _GUID_9bfbbc02_eff1_101a_84ed_00aa00341d07 00000001800240f8     CashChanger.obj
 0002:00002108       ?_entries@?1??_GetEntries@?$CComEnum@UIEnumConnectionPoints@@$1?_GUID_b196b285_bab4_101a_b69c_00aa00341d07@@3U__s_GUID@@BPEAUIConnectionPoint@@V?$_CopyInterface@UIConnectionPoint@@@ATL@@VCComSingleThreadModel@6@@ATL@@SAPEBU_ATL_INTMAP_ENTRY@3@XZ@4QBU43@B 0000000180024108     CashChanger.obj
 0002:00002138       _GUID_00020412_0000_0000_c000_000000000046 0000000180024138     CashChanger.obj
 0002:00002148       _GUID_00020401_0000_0000_c000_000000000046 0000000180024148     CashChanger.obj
 0002:00002158       ??_7CComClassFactory@ATL@@6B@ 0000000180024158     CashChanger.obj
 0002:00002188       ?_entries@?1??_GetEntries@CComClassFactory@ATL@@SAPEBU_ATL_INTMAP_ENTRY@3@XZ@4QBU43@B 0000000180024188     CashChanger.obj
 0002:000021b8       _GUID_00000001_0000_0000_c000_000000000046 00000001800241b8     CashChanger.obj
 0002:000021c8       _GUID_55980ba0_35aa_11cf_b671_00aa004cd6d8 00000001800241c8     CashChanger.obj
 0002:000021d8       ??_7?$CComObject@V?$CComEnum@UIEnumConnections@@$1?_GUID_b196b287_bab4_101a_b69c_00aa00341d07@@3U__s_GUID@@BUtagCONNECTDATA@@V?$_Copy@UtagCONNECTDATA@@@ATL@@VCComSingleThreadModel@6@@ATL@@@ATL@@6B@ 00000001800241d8     CashChanger.obj
 0002:00002218       _GUID_b196b28b_bab4_101a_b69c_00aa00341d07 0000000180024218     CashChanger.obj
 0002:00002228       ?_entries@?1??_GetEntries@?$CComEnum@UIEnumConnections@@$1?_GUID_b196b287_bab4_101a_b69c_00aa00341d07@@3U__s_GUID@@BUtagCONNECTDATA@@V?$_Copy@UtagCONNECTDATA@@@ATL@@VCComSingleThreadModel@6@@ATL@@SAPEBU_ATL_INTMAP_ENTRY@3@XZ@4QBU43@B 0000000180024228     CashChanger.obj
 0002:00002258       ??_C@_1BK@BIGILECK@?$AAA?$AAd?$AAv?$AAa?$AAp?$AAi?$AA3?$AA2?$AA?4?$AAd?$AAl?$AAl@ 0000000180024258     CashChanger.obj
 0002:00002278       ??_C@_0BI@MNCFCPFK@RegCreateKeyTransactedW@ 0000000180024278     CashChanger.obj
 0002:00002290       _GUID_b196b287_bab4_101a_b69c_00aa00341d07 0000000180024290     CashChanger.obj
 0002:000022a0       _GUID_b196b285_bab4_101a_b69c_00aa00341d07 00000001800242a0     CashChanger.obj
 0002:000022b0       IID_IOPOSCashChanger_1_5   00000001800242b0     CashChanger.obj
 0002:000022c0       IID_IOPOSCashChanger_1_8   00000001800242c0     CashChanger.obj
 0002:000022d0       IID_IOPOSCashChanger_1_9   00000001800242d0     CashChanger.obj
 0002:000022e0       _GUID_a6bc3ac0_dbaa_11ce_9de3_00aa004bb851 00000001800242e0     CashChanger.obj
 0002:000022f0       IID_IOPOSCashChanger_1_11  00000001800242f0     CashChanger.obj
 0002:00002300       IID_IOPOSCashChanger       0000000180024300     CashChanger.obj
 0002:00002310       LIBID_OposCashChanger_CCO  0000000180024310     CashChanger.obj
 0002:00002320       DIID__IOPOSCashChangerEvents 0000000180024320     CashChanger.obj
 0002:00002330       CLSID_OPOSCashChanger      0000000180024330     CashChanger.obj
 0002:00002340       _GUID_0000010c_0000_0000_c000_000000000046 0000000180024340     CashChanger.obj
 0002:00002350       _GUID_00000114_0000_0000_c000_000000000046 0000000180024350     CashChanger.obj
 0002:00002360       _GUID_00000146_0000_0000_c000_000000000046 0000000180024360     CashChanger.obj
 0002:00002370       ??_7CComModule@ATL@@6B@    0000000180024370     CashChanger.obj
 0002:000023c0       _GUID_00000000_0000_0000_c000_000000000046 00000001800243c0     CashChanger.obj
 0002:000023d0       _GUID_00020400_0000_0000_c000_000000000046 00000001800243d0     CashChanger.obj
 0002:000023e0       ??_C@_0BG@EKFFMJIO@RegOpenKeyTransactedW@ 00000001800243e0     CashChanger.obj
 0002:000023f8       ??_C@_0BI@HAKLOOGP@RegDeleteKeyTransactedW@ 00000001800243f8     CashChanger.obj
 0002:00002410       ??_C@_19ILOCMLCJ@?$AA?4?$AAt?$AAl?$AAb@ 0000000180024410     CashChanger.obj
 0002:00002420       _GUID_0002e012_0000_0000_c000_000000000046 0000000180024420     CashChanger.obj
 0002:00002430       ??_C@_1O@FHBGLCIO@?$AAC?$AAL?$AAS?$AAI?$AAD?$AA?2@ 0000000180024430     CashChanger.obj
 0002:00002440       ??_C@_1CK@IFBKBFAA@?$AA?2?$AAR?$AAe?$AAq?$AAu?$AAi?$AAr?$AAe?$AAd?$AA?5?$AAC?$AAa?$AAt?$AAe?$AAg@ 0000000180024440     CashChanger.obj
 0002:00002470       ??_C@_1DA@BIHALFED@?$AA?2?$AAI?$AAm?$AAp?$AAl?$AAe?$AAm?$AAe?$AAn?$AAt?$AAe?$AAd?$AA?5?$AAC?$AAa@ 0000000180024470     CashChanger.obj
 0002:000024a0       ??_C@_1BK@EDKOLFBJ@?$AAO?$AAL?$AAE?$AAA?$AAU?$AAT?$AA3?$AA2?$AA?4?$AAD?$AAL?$AAL@ 00000001800244a0     CashChanger.obj
 0002:000024c0       ??_C@_0BJ@CNLFOMHB@UnRegisterTypeLibForUser@ 00000001800244c0     CashChanger.obj
 0002:000024e0       ??_C@_0BH@LBOMMKPJ@RegisterTypeLibForUser@ 00000001800244e0     CashChanger.obj
 0002:000024f8       ??_C@_0P@MMNMMLGK@COFreezeEvents@ 00000001800244f8     CashChangerImpl.obj
 0002:00002508       ??_C@_0BC@OGCGGIMP@GetPropertyNumber@ 0000000180024508     CashChangerImpl.obj
 0002:00002520       ??_C@_0BC@MDCNODNB@SetPropertyNumber@ 0000000180024520     CashChangerImpl.obj
 0002:00002538       ??_C@_0BC@CFCCMIMD@GetPropertyString@ 0000000180024538     CashChangerImpl.obj
 0002:00002550       ??_C@_0BC@CJEDNN@SetPropertyString@ 0000000180024550     CashChangerImpl.obj
 0002:00002568       ??_C@_0M@LNPKKKDA@OpenService@ 0000000180024568     CashChangerImpl.obj
 0002:00002578       ??_C@_0M@PCMCHHMH@CheckHealth@ 0000000180024578     CashChangerImpl.obj
 0002:00002588       ??_C@_0M@JGMIDNEK@ClaimDevice@ 0000000180024588     CashChangerImpl.obj
 0002:00002598       ??_C@_0N@DDFIIBMP@CloseService@ 0000000180024598     CashChangerImpl.obj
 0002:000025a8       ??_C@_08EEIHICPC@DirectIO@ 00000001800245a8     CashChangerImpl.obj
 0002:000025b8       ??_C@_0O@BCPMENMJ@ReleaseDevice@ 00000001800245b8     CashChangerImpl.obj
 0002:000025c8       ??_C@_0N@JILLACNH@DispenseCash@ 00000001800245c8     CashChangerImpl.obj
 0002:000025d8       ??_C@_0P@GNCBCCPO@DispenseChange@ 00000001800245d8     CashChangerImpl.obj
 0002:000025e8       ??_C@_0P@HELDJPLA@ReadCashCounts@ 00000001800245e8     CashChangerImpl.obj
 0002:000025f8       ??_C@_0L@BNEIFEJC@ClearInput@ 00000001800245f8     CashChangerImpl.obj
 0002:00002608       ??_C@_0N@EMNBHBJF@BeginDeposit@ 0000000180024608     CashChangerImpl.obj
 0002:00002618       ??_C@_0L@OMAABOPC@EndDeposit@ 0000000180024618     CashChangerImpl.obj
 0002:00002628       ??_C@_0L@NNMKNCOP@FixDeposit@ 0000000180024628     CashChangerImpl.obj
 0002:00002638       ??_C@_0N@NPMPKLIN@PauseDeposit@ 0000000180024638     CashChangerImpl.obj
 0002:00002648       ??_C@_0BA@GFABKEEE@ResetStatistics@ 0000000180024648     CashChangerImpl.obj
 0002:00002658       ??_C@_0BD@DPALHJGC@RetrieveStatistics@ 0000000180024658     CashChangerImpl.obj
 0002:00002670       ??_C@_0BB@KOHIKNFC@UpdateStatistics@ 0000000180024670     CashChangerImpl.obj
 0002:00002688       ??_C@_0BH@PBKBNMGB@CompareFirmwareVersion@ 0000000180024688     CashChangerImpl.obj
 0002:000026a0       ??_C@_0P@FBPDPIPA@UpdateFirmware@ 00000001800246a0     CashChangerImpl.obj
 0002:000026b0       ??_C@_0BB@OAMAKNAK@AdjustCashCounts@ 00000001800246b0     CashChangerImpl.obj
 0002:000026c8       ??_7?$CProxy_IOPOSEvents@VCOPOSCashChanger@@@@6B@ 00000001800246c8     CashChangerImpl.obj
 0002:00002708       ??_C@_1BA@IFHENID@?$AA?$FL?$AAE?$AAr?$AAr?$AAo?$AAr?$AA?$FN@ 0000000180024708     CashChangerImpl.obj
 0002:00002718       ??_C@_0CO@MKBAPLOJ@SOFTWARE?2OLEforRetail?2ServiceOP@ 0000000180024718     CashChangerImpl.obj
 0002:00002748       ??_C@_1M@IAIJHCCH@?$AAC?$AAl?$AAo?$AAs?$AAe@ 0000000180024748     CashChangerImpl.obj
 0002:00002758       ??_C@_1M@PCPKGJAH@?$AAC?$AAl?$AAa?$AAi?$AAm@ 0000000180024758     CashChangerImpl.obj
 0002:00002768       ??_C@_1BA@NDFKIOCP@?$AAR?$AAe?$AAl?$AAe?$AAa?$AAs?$AAe@ 0000000180024768     CashChangerImpl.obj
 0002:00002778       ??_C@_0M@KHENAHBF@CashChanger@ 0000000180024778     CashChangerImpl.obj
 0002:00002788       ??_C@_1BM@IJMNMBPK@?$AAG?$AAe?$AAt?$AAO?$AAp?$AAe?$AAn?$AAR?$AAe?$AAs?$AAu?$AAl?$AAt@ 0000000180024788     CashChangerImpl.obj
 0002:000027a8       GUID_NULL                  00000001800247a8     uuid:cguid_i.obj
 0002:000027b8       CLSID_StdGlobalInterfaceTable 00000001800247b8     uuid:cguid_i.obj
 0002:000027c8       IID_IPropertyNotifySink    00000001800247c8     uuid:ocidl_i.obj
 0002:000027d8       IID_IDispatch              00000001800247d8     uuid:oaidl_i.obj
 0002:000027e8       CLSID_StdComponentCategoriesMgr 00000001800247e8     uuid:ieguids.obj
 0002:000027f8       IID_IUnknown               00000001800247f8     uuid:unknwn_i.obj
 0002:00002830       ??_C@_1EC@JIJBPKFM@?$AAa?$AAp?$AAi?$AA?9?$AAm?$AAs?$AA?9?$AAw?$AAi?$AAn?$AA?9?$AAc?$AAo?$AAr?$AAe@ 0000000180024830     LIBCMT:thread_safe_statics.obj
 0002:00002878       ??_C@_1BK@MGMFAEKH@?$AAk?$AAe?$AAr?$AAn?$AAe?$AAl?$AA3?$AA2?$AA?4?$AAd?$AAl?$AAl@ 0000000180024878     LIBCMT:thread_safe_statics.obj
 0002:00002898       ??_C@_0BM@HLJJNPAH@InitializeConditionVariable@ 0000000180024898     LIBCMT:thread_safe_statics.obj
 0002:000028b8       ??_C@_0BJ@JEBJOJFJ@SleepConditionVariableCS@ 00000001800248b8     LIBCMT:thread_safe_statics.obj
 0002:000028d8       ??_C@_0BJ@PGPPEPCC@WakeAllConditionVariable@ 00000001800248d8     LIBCMT:thread_safe_statics.obj
 0002:000028f1       ?nothrow@std@@3Unothrow_t@1@B 00000001800248f1     LIBCMT:std_nothrow.obj
 0002:00002930       _pDefaultRawDllMain        0000000180024930     LIBCMT:dll_dllmain.obj
 0002:00002930       _pRawDllMain               0000000180024930     LIBCMT:dll_dllmain.obj
 0002:00002940       ??_7exception@std@@6B@     0000000180024940     LIBCMT:throw_bad_alloc.obj
 0002:00002950       ??_C@_0BC@EOODALEL@Unknown?5exception@ 0000000180024950     LIBCMT:throw_bad_alloc.obj
 0002:00002970       ??_7bad_alloc@std@@6B@     0000000180024970     LIBCMT:throw_bad_alloc.obj
 0002:00002980       ??_C@_0P@GHFPNOJB@bad?5allocation@ 0000000180024980     LIBCMT:throw_bad_alloc.obj
 0002:00002998       ??_7bad_array_new_length@std@@6B@ 0000000180024998     LIBCMT:throw_bad_alloc.obj
 0002:000029a8       ??_C@_0BF@KINCDENJ@bad?5array?5new?5length@ 00000001800249a8     LIBCMT:throw_bad_alloc.obj
 0002:000029c8       ??_7type_info@@6B@         00000001800249c8     LIBCMT:std_type_info_static.obj
 0002:000029d0       GUID_ATLVer110             00000001800249d0     atls:atlbase.obj
 0002:000029e0       ??_C@_1IC@ONKHOIDK@?$AAE?$AAR?$AAR?$AAO?$AAR?$AA?5?$AA?3?$AA?5?$AAU?$AAn?$AAa?$AAb?$AAl?$AAe?$AA?5@ 00000001800249e0     atls:atlbase.obj
 0002:00002a68       ??_C@_0N@FJEPLCIH@atlthunk?4dll@ 0000000180024a68     atls:atlthunk.obj
 0002:00002a78       ??_C@_0BG@GAKFHCBM@AtlThunk_AllocateData@ 0000000180024a78     atls:atlthunk.obj
 0002:00002a90       ??_C@_0BC@JKONFIAH@AtlThunk_InitData@ 0000000180024a90     atls:atlthunk.obj
 0002:00002aa8       ??_C@_0BE@IAOEELAK@AtlThunk_DataToCode@ 0000000180024aa8     atls:atlthunk.obj
 0002:00002ac0       ??_C@_0BC@GBGKAIPI@AtlThunk_FreeData@ 0000000180024ac0     atls:atlthunk.obj
 0002:00002ad8       _pDestructExceptionObject  0000000180024ad8     libvcruntime:ehhelpers.obj
 0002:00002bd8       ??_C@_1DM@KHCHBNEB@?$AAa?$AAp?$AAi?$AA?9?$AAm?$AAs?$AA?9?$AAw?$AAi?$AAn?$AA?9?$AAc?$AAo?$AAr?$AAe@ 0000000180024bd8     libvcruntime:winapi_downlevel.obj
 0002:00002c18       ??_C@_1DK@LPPGFMPP@?$AAa?$AAp?$AAi?$AA?9?$AAm?$AAs?$AA?9?$AAw?$AAi?$AAn?$AA?9?$AAc?$AAo?$AAr?$AAe@ 0000000180024c18     libvcruntime:winapi_downlevel.obj
 0002:00002c58       ??_C@_1BC@GDMECMAK@?$AAk?$AAe?$AAr?$AAn?$AAe?$AAl?$AA3?$AA2@ 0000000180024c58     libvcruntime:winapi_downlevel.obj
 0002:00002c70       ??_C@_1BA@PFFKHIOG@?$AAa?$AAp?$AAi?$AA?9?$AAm?$AAs?$AA?9@ 0000000180024c70     libvcruntime:winapi_downlevel.obj
 0002:00002c80       ??_C@_1BA@IAIFMGEF@?$AAe?$AAx?$AAt?$AA?9?$AAm?$AAs?$AA?9@ 0000000180024c80     libvcruntime:winapi_downlevel.obj
 0002:00002c98       ??_C@_08KNHFBNJ@FlsAlloc@  0000000180024c98     libvcruntime:winapi_downlevel.obj
 0002:00002cb0       ??_C@_07PEJMOBNF@FlsFree@  0000000180024cb0     libvcruntime:winapi_downlevel.obj
 0002:00002cc0       ??_C@_0M@GDNOONDI@FlsGetValue@ 0000000180024cc0     libvcruntime:winapi_downlevel.obj
 0002:00002cd8       ??_C@_0M@JCPCPOEF@FlsSetValue@ 0000000180024cd8     libvcruntime:winapi_downlevel.obj
 0002:00002cf0       ??_C@_0BM@HCFOFFN@InitializeCriticalSectionEx@ 0000000180024cf0     libvcruntime:winapi_downlevel.obj
 0002:00002d18       ??_7bad_exception@std@@6B@ 0000000180024d18     libvcruntime:frame.obj
 0002:00002d28       ??_C@_0O@DPKOEFFH@bad?5exception@ 0000000180024d28     libvcruntime:frame.obj
 0002:00003078       ??_C@_08EHJDFFNH@__based?$CI@ 0000000180025078     libvcruntime:undname.obj
 0002:00003088       ??_C@_07KOLFKCDI@__cdecl@  0000000180025088     libvcruntime:undname.obj
 0002:00003090       ??_C@_08GHMPAG@__pascal@   0000000180025090     libvcruntime:undname.obj
 0002:000030a0       ??_C@_09IFJBGAPI@__stdcall@ 00000001800250a0     libvcruntime:undname.obj
 0002:000030b0       ??_C@_0L@NPHFGOKO@__thiscall@ 00000001800250b0     libvcruntime:undname.obj
 0002:000030c0       ??_C@_0L@JMKHOMEK@__fastcall@ 00000001800250c0     libvcruntime:undname.obj
 0002:000030d0       ??_C@_0N@BCKKPABJ@__vectorcall@ 00000001800250d0     libvcruntime:undname.obj
 0002:000030e0       ??_C@_09HIJEGCPM@__clrcall@ 00000001800250e0     libvcruntime:undname.obj
 0002:000030ec       ??_C@_06GHPCKEAG@__eabi@   00000001800250ec     libvcruntime:undname.obj
 0002:000030f8       ??_C@_09IOPIDJLG@__swift_1@ 00000001800250f8     libvcruntime:undname.obj
 0002:00003108       ??_C@_09KFNFGKHF@__swift_2@ 0000000180025108     libvcruntime:undname.obj
 0002:00003118       ??_C@_07JOMMBBKO@__ptr64@  0000000180025118     libvcruntime:undname.obj
 0002:00003120       ??_C@_0L@PILCLIHE@__restrict@ 0000000180025120     libvcruntime:undname.obj
 0002:00003130       ??_C@_0M@GFIIJFMG@__unaligned@ 0000000180025130     libvcruntime:undname.obj
 0002:00003140       ??_C@_09DHDLOLLB@restrict?$CI@ 0000000180025140     libvcruntime:undname.obj
 0002:0000314a       ??_C@_00CNPNBAHC@@         000000018002514a     libvcruntime:undname.obj
 0002:0000314c       ??_C@_04NIHEBCM@?5new@     000000018002514c     libvcruntime:undname.obj
 0002:00003158       ??_C@_07FPCDHGMM@?5delete@ 0000000180025158     libvcruntime:undname.obj
 0002:00003160       ??_C@_01NEMOKFLO@?$DN@     0000000180025160     libvcruntime:undname.obj
 0002:00003164       ??_C@_02GPIOPFAK@?$DO?$DO@ 0000000180025164     libvcruntime:undname.obj
 0002:00003168       ??_C@_02FODMEDOG@?$DM?$DM@ 0000000180025168     libvcruntime:undname.obj
 0002:0000316c       ??_C@_01DCLJPIOD@?$CB@     000000018002516c     libvcruntime:undname.obj
 0002:00003170       ??_C@_02EGOFBIJA@?$DN?$DN@ 0000000180025170     libvcruntime:undname.obj
 0002:00003174       ??_C@_02FDNJECIE@?$CB?$DN@ 0000000180025174     libvcruntime:undname.obj
 0002:00003178       ??_C@_02GPECMEKF@?$FL?$FN@ 0000000180025178     libvcruntime:undname.obj
 0002:00003180       ??_C@_08LHJFAFGD@operator@ 0000000180025180     libvcruntime:undname.obj
 0002:0000318c       ??_C@_02HBOOOICD@?9?$DO@   000000018002518c     libvcruntime:undname.obj
 0002:00003190       ??_C@_01NBENCBCI@?$CK@     0000000180025190     libvcruntime:undname.obj
 0002:00003194       ??_C@_02ECNGHCIF@?$CL?$CL@ 0000000180025194     libvcruntime:undname.obj
 0002:00003198       ??_C@_02BAABKJLB@?9?9@     0000000180025198     libvcruntime:undname.obj
 0002:0000319c       ??_C@_01JOAMLHOP@?9@       000000018002519c     libvcruntime:undname.obj
 0002:000031a0       ??_C@_01MIFGBAGJ@?$CL@     00000001800251a0     libvcruntime:undname.obj
 0002:000031a4       ??_C@_01HNPIGOCE@?$CG@     00000001800251a4     libvcruntime:undname.obj
 0002:000031a8       ??_C@_03MNHNFDLC@?9?$DO?$CK@ 00000001800251a8     libvcruntime:undname.obj
 0002:000031ac       ??_C@_01KMDKNFGN@?1@       00000001800251ac     libvcruntime:undname.obj
 0002:000031b0       ??_C@_01FGNFDNOH@?$CF@     00000001800251b0     libvcruntime:undname.obj
 0002:000031b4       ??_C@_01MNNFJEPP@?$DM@     00000001800251b4     libvcruntime:undname.obj
 0002:000031b8       ??_C@_02EHCHHCKH@?$DM?$DN@ 00000001800251b8     libvcruntime:undname.obj
 0002:000031bc       ??_C@_01PPODPGHN@?$DO@     00000001800251bc     libvcruntime:undname.obj
 0002:000031c0       ??_C@_02EEKDKGMJ@?$DO?$DN@ 00000001800251c0     libvcruntime:undname.obj
 0002:000031c4       ??_C@_01IHBHIGKO@?0@       00000001800251c4     libvcruntime:undname.obj
 0002:000031c8       ??_C@_02HCKGKOFO@?$CI?$CJ@ 00000001800251c8     libvcruntime:undname.obj
 0002:000031cc       ??_C@_01PJKLJHI@?$HO@      00000001800251cc     libvcruntime:undname.obj
 0002:000031d0       ??_C@_01JKBOJNNK@?$FO@     00000001800251d0     libvcruntime:undname.obj
 0002:000031d4       ??_C@_01DNKMNLPK@?$HM@     00000001800251d4     libvcruntime:undname.obj
 0002:000031d8       ??_C@_02PPKAJPJL@?$CG?$CG@ 00000001800251d8     libvcruntime:undname.obj
 0002:000031dc       ??_C@_02NONPIBCD@?$HM?$HM@ 00000001800251dc     libvcruntime:undname.obj
 0002:000031e0       ??_C@_02FPIMKNGF@?$CK?$DN@ 00000001800251e0     libvcruntime:undname.obj
 0002:000031e4       ??_C@_02FOEOMHFC@?$CL?$DN@ 00000001800251e4     libvcruntime:undname.obj
 0002:000031e8       ??_C@_02FKMDLLOA@?9?$DN@   00000001800251e8     libvcruntime:undname.obj
 0002:000031ec       ??_C@_02FJEHGPIO@?1?$DN@   00000001800251ec     libvcruntime:undname.obj
 0002:000031f0       ??_C@_02FENAOKFI@?$CF?$DN@ 00000001800251f0     libvcruntime:undname.obj
 0002:000031f4       ??_C@_03IKFCCPFF@?$DO?$DO?$DN@ 00000001800251f4     libvcruntime:undname.obj
 0002:000031f8       ??_C@_03CDNPDDLA@?$DM?$DM?$DN@ 00000001800251f8     libvcruntime:undname.obj
 0002:000031fc       ??_C@_02FGJGFEAB@?$CG?$DN@ 00000001800251fc     libvcruntime:undname.obj
 0002:00003200       ??_C@_02DHLNPPGH@?$HM?$DN@ 0000000180025200     libvcruntime:undname.obj
 0002:00003204       ??_C@_02MHEGNOJ@?$FO?$DN@  0000000180025204     libvcruntime:undname.obj
 0002:00003208       ??_C@_09IFPLHPGF@?$GAvftable?8@ 0000000180025208     libvcruntime:undname.obj
 0002:00003218       ??_C@_09BLBHBJP@?$GAvbtable?8@ 0000000180025218     libvcruntime:undname.obj
 0002:00003228       ??_C@_07FEEIOKP@?$GAvcall?8@ 0000000180025228     libvcruntime:undname.obj
 0002:00003230       ??_C@_08LLFFHHDJ@?$GAtypeof?8@ 0000000180025230     libvcruntime:undname.obj
 0002:00003240       ??_C@_0BF@KDPPACIK@?$GAlocal?5static?5guard?8@ 0000000180025240     libvcruntime:undname.obj
 0002:00003258       ??_C@_08OBABFOLI@?$GAstring?8@ 0000000180025258     libvcruntime:undname.obj
 0002:00003268       ??_C@_0BD@JDLKDPAB@?$GAvbase?5destructor?8@ 0000000180025268     libvcruntime:undname.obj
 0002:00003280       ??_C@_0BN@DEGPLNFK@?$GAvector?5deleting?5destructor?8@ 0000000180025280     libvcruntime:undname.obj
 0002:000032a0       ??_C@_0BO@OBMKPJIG@?$GAdefault?5constructor?5closure?8@ 00000001800252a0     libvcruntime:undname.obj
 0002:000032c0       ??_C@_0BN@IMDCHIKM@?$GAscalar?5deleting?5destructor?8@ 00000001800252c0     libvcruntime:undname.obj
 0002:000032e0       ??_C@_0BO@PFGOCPJJ@?$GAvector?5constructor?5iterator?8@ 00000001800252e0     libvcruntime:undname.obj
 0002:00003300       ??_C@_0BN@LFPFMEDL@?$GAvector?5destructor?5iterator?8@ 0000000180025300     libvcruntime:undname.obj
 0002:00003320       ??_C@_0CE@IKBNEHA@?$GAvector?5vbase?5constructor?5itera@ 0000000180025320     libvcruntime:undname.obj
 0002:00003348       ??_C@_0BL@NILFHHPC@?$GAvirtual?5displacement?5map?8@ 0000000180025348     libvcruntime:undname.obj
 0002:00003368       ??_C@_0CB@JONCMFFK@?$GAeh?5vector?5constructor?5iterator@ 0000000180025368     libvcruntime:undname.obj
 0002:00003390       ??_C@_0CA@GCEOPDGL@?$GAeh?5vector?5destructor?5iterator?8@ 0000000180025390     libvcruntime:undname.obj
 0002:000033b0       ??_C@_0CH@OOJPLCPH@?$GAeh?5vector?5vbase?5constructor?5it@ 00000001800253b0     libvcruntime:undname.obj
 0002:000033d8       ??_C@_0BL@LLKPOHJI@?$GAcopy?5constructor?5closure?8@ 00000001800253d8     libvcruntime:undname.obj
 0002:000033f8       ??_C@_0BA@KBCDOMBN@?$GAudt?5returning?8@ 00000001800253f8     libvcruntime:undname.obj
 0002:00003408       ??_C@_03KLGMFNMG@?$GAEH@   0000000180025408     libvcruntime:undname.obj
 0002:0000340c       ??_C@_05KHLCHHI@?$GARTTI@  000000018002540c     libvcruntime:undname.obj
 0002:00003418       ??_C@_0BA@KKLDJDLB@?$GAlocal?5vftable?8@ 0000000180025418     libvcruntime:undname.obj
 0002:00003428       ??_C@_0CE@IIHCMGGL@?$GAlocal?5vftable?5constructor?5clos@ 0000000180025428     libvcruntime:undname.obj
 0002:0000344c       ??_C@_06FHBGPFGH@?5new?$FL?$FN@ 000000018002544c     libvcruntime:undname.obj
 0002:00003458       ??_C@_09LBNFPBCA@?5delete?$FL?$FN@ 0000000180025458     libvcruntime:undname.obj
 0002:00003468       ??_C@_0P@HJKNJFNN@?$GAomni?5callsig?8@ 0000000180025468     libvcruntime:undname.obj
 0002:00003478       ??_C@_0BL@CNOONJFP@?$GAplacement?5delete?5closure?8@ 0000000180025478     libvcruntime:undname.obj
 0002:00003498       ??_C@_0BN@CKNJLHMB@?$GAplacement?5delete?$FL?$FN?5closure?8@ 0000000180025498     libvcruntime:undname.obj
 0002:000034b8       ??_C@_0CG@CFDHKGGD@?$GAmanaged?5vector?5constructor?5ite@ 00000001800254b8     libvcruntime:undname.obj
 0002:000034e0       ??_C@_0CF@IMGKMJNO@?$GAmanaged?5vector?5destructor?5iter@ 00000001800254e0     libvcruntime:undname.obj
 0002:00003508       ??_C@_0CG@HLDDJMAG@?$GAeh?5vector?5copy?5constructor?5ite@ 0000000180025508     libvcruntime:undname.obj
 0002:00003530       ??_C@_0CM@FCBBDIGB@?$GAeh?5vector?5vbase?5copy?5construct@ 0000000180025530     libvcruntime:undname.obj
 0002:00003560       ??_C@_0BL@CLIPGLGB@?$GAdynamic?5initializer?5for?5?8@ 0000000180025560     libvcruntime:undname.obj
 0002:00003580       ??_C@_0CB@PDBIFEP@?$GAdynamic?5atexit?5destructor?5for?5@ 0000000180025580     libvcruntime:undname.obj
 0002:000035a8       ??_C@_0CD@CGAJBKEJ@?$GAvector?5copy?5constructor?5iterat@ 00000001800255a8     libvcruntime:undname.obj
 0002:000035d0       ??_C@_0CJ@GJELGAMM@?$GAvector?5vbase?5copy?5constructor?5@ 00000001800255d0     libvcruntime:undname.obj
 0002:00003600       ??_C@_0CL@FGIJHLCE@?$GAmanaged?5vector?5copy?5constructo@ 0000000180025600     libvcruntime:undname.obj
 0002:00003630       ??_C@_0BM@PMGGMLDN@?$GAlocal?5static?5thread?5guard?8@ 0000000180025630     libvcruntime:undname.obj
 0002:00003650       ??_C@_0N@BDNMDMOL@operator?5?$CC?$CC?5@ 0000000180025650     libvcruntime:undname.obj
 0002:00003660       ??_C@_0BC@GGEBGALA@operator?5co_await@ 0000000180025660     libvcruntime:undname.obj
 0002:00003678       ??_C@_0BC@DAFEJGAK@?5Type?5Descriptor?8@ 0000000180025678     libvcruntime:undname.obj
 0002:00003690       ??_C@_0BM@LDKODKLH@?5Base?5Class?5Descriptor?5at?5?$CI@ 0000000180025690     libvcruntime:undname.obj
 0002:000036b0       ??_C@_0BD@LGICGFMM@?5Base?5Class?5Array?8@ 00000001800256b0     libvcruntime:undname.obj
 0002:000036c8       ??_C@_0BN@MECKDCOJ@?5Class?5Hierarchy?5Descriptor?8@ 00000001800256c8     libvcruntime:undname.obj
 0002:000036e8       ??_C@_0BK@CFCOFLF@?5Complete?5Object?5Locator?8@ 00000001800256e8     libvcruntime:undname.obj
 0002:00003870       format_validation_lookup_table 0000000180025870     libucrt:output.obj
 0002:000038d0       ??_C@_1O@CEDCILHN@?$AA?$CI?$AAn?$AAu?$AAl?$AAl?$AA?$CJ?$AA?$AA@ 00000001800258d0     libucrt:output.obj
 0002:000038e0       ??_C@_06OJHGLDPL@?$CInull?$CJ?$AA@ 00000001800258e0     libucrt:output.obj
 0002:000038f0       __acrt_exception_action_table 00000001800258f0     libucrt:exception_filter.obj
 0002:000039b0       __acrt_signal_action_table_count 00000001800259b0     libucrt:exception_filter.obj
 0002:000039b8       __acrt_signal_action_first_fpe_index 00000001800259b8     libucrt:exception_filter.obj
 0002:000039c0       __acrt_signal_action_fpe_count 00000001800259c0     libucrt:exception_filter.obj
 0002:000039c8       ??_C@_1BI@BGOHAHKC@?$AAm?$AAs?$AAc?$AAo?$AAr?$AAe?$AAe?$AA?4?$AAd?$AAl?$AAl?$AA?$AA@ 00000001800259c8     libucrt:exit.obj
 0002:000039e0       ??_C@_0P@MIGLKIOC@CorExitProcess?$AA@ 00000001800259e0     libucrt:exit.obj
 0002:00003b80       ??_C@_1EA@JGEFHKEI@?$AAa?$AAp?$AAi?$AA?9?$AAm?$AAs?$AA?9?$AAw?$AAi?$AAn?$AA?9?$AAc?$AAo?$AAr?$AAe?$AA?9?$AAd?$AAa?$AAt?$AAe?$AAt?$AAi?$AAm?$AAe?$AA?9?$AAl?$AA1?$AA?9?$AA1?$AA?9?$AA1?$AA?$AA@ 0000000180025b80     libucrt:winapi_thunks.obj
 0002:00003bc0       ??_C@_1DM@KHCHBNEB@?$AAa?$AAp?$AAi?$AA?9?$AAm?$AAs?$AA?9?$AAw?$AAi?$AAn?$AA?9?$AAc?$AAo?$AAr?$AAe?$AA?9?$AAf?$AAi?$AAb?$AAe?$AAr?$AAs?$AA?9?$AAl?$AA1?$AA?9?$AA1?$AA?9?$AA1?$AA?$AA@ 0000000180025bc0     libucrt:winapi_thunks.obj
 0002:00003c00       ??_C@_1EI@MPIAOHOC@?$AAa?$AAp?$AAi?$AA?9?$AAm?$AAs?$AA?9?$AAw?$AAi?$AAn?$AA?9?$AAc?$AAo?$AAr?$AAe?$AA?9?$AAl?$AAo?$AAc?$AAa?$AAl?$AAi?$AAz?$AAa?$AAt?$AAi?$AAo?$AAn?$AA?9?$AAl?$AA1?$AA?9@ 0000000180025c00     libucrt:winapi_thunks.obj
 0002:00003c50       ??_C@_1FK@FPHCKFIE@?$AAa?$AAp?$AAi?$AA?9?$AAm?$AAs?$AA?9?$AAw?$AAi?$AAn?$AA?9?$AAc?$AAo?$AAr?$AAe?$AA?9?$AAl?$AAo?$AAc?$AAa?$AAl?$AAi?$AAz?$AAa?$AAt?$AAi?$AAo?$AAn?$AA?9?$AAo?$AAb?$AAs@ 0000000180025c50     libucrt:winapi_thunks.obj
 0002:00003cb0       ??_C@_1EM@DILCGIIO@?$AAa?$AAp?$AAi?$AA?9?$AAm?$AAs?$AA?9?$AAw?$AAi?$AAn?$AA?9?$AAc?$AAo?$AAr?$AAe?$AA?9?$AAp?$AAr?$AAo?$AAc?$AAe?$AAs?$AAs?$AAt?$AAh?$AAr?$AAe?$AAa?$AAd?$AAs?$AA?9?$AAl@ 0000000180025cb0     libucrt:winapi_thunks.obj
 0002:00003d00       ??_C@_1DM@LNCGDDPN@?$AAa?$AAp?$AAi?$AA?9?$AAm?$AAs?$AA?9?$AAw?$AAi?$AAn?$AA?9?$AAc?$AAo?$AAr?$AAe?$AA?9?$AAs?$AAt?$AAr?$AAi?$AAn?$AAg?$AA?9?$AAl?$AA1?$AA?9?$AA1?$AA?9?$AA0?$AA?$AA@ 0000000180025d00     libucrt:winapi_thunks.obj
 0002:00003d40       ??_C@_1DK@LPPGFMPP@?$AAa?$AAp?$AAi?$AA?9?$AAm?$AAs?$AA?9?$AAw?$AAi?$AAn?$AA?9?$AAc?$AAo?$AAr?$AAe?$AA?9?$AAs?$AAy?$AAn?$AAc?$AAh?$AA?9?$AAl?$AA1?$AA?9?$AA2?$AA?9?$AA0?$AA?$AA@ 0000000180025d40     libucrt:winapi_thunks.obj
 0002:00003d80       ??_C@_1DO@FPAPJEMD@?$AAa?$AAp?$AAi?$AA?9?$AAm?$AAs?$AA?9?$AAw?$AAi?$AAn?$AA?9?$AAc?$AAo?$AAr?$AAe?$AA?9?$AAs?$AAy?$AAs?$AAi?$AAn?$AAf?$AAo?$AA?9?$AAl?$AA1?$AA?9?$AA2?$AA?9?$AA1?$AA?$AA@ 0000000180025d80     libucrt:winapi_thunks.obj
 0002:00003dc0       ??_C@_1DK@NDHNAHIO@?$AAa?$AAp?$AAi?$AA?9?$AAm?$AAs?$AA?9?$AAw?$AAi?$AAn?$AA?9?$AAc?$AAo?$AAr?$AAe?$AA?9?$AAw?$AAi?$AAn?$AAr?$AAt?$AA?9?$AAl?$AA1?$AA?9?$AA1?$AA?9?$AA0?$AA?$AA@ 0000000180025dc0     libucrt:winapi_thunks.obj
 0002:00003e00       ??_C@_1DM@KGHDGBCM@?$AAa?$AAp?$AAi?$AA?9?$AAm?$AAs?$AA?9?$AAw?$AAi?$AAn?$AA?9?$AAc?$AAo?$AAr?$AAe?$AA?9?$AAx?$AAs?$AAt?$AAa?$AAt?$AAe?$AA?9?$AAl?$AA2?$AA?9?$AA1?$AA?9?$AA0?$AA?$AA@ 0000000180025e00     libucrt:winapi_thunks.obj
 0002:00003e40       ??_C@_1EO@IJIOEFOH@?$AAa?$AAp?$AAi?$AA?9?$AAm?$AAs?$AA?9?$AAw?$AAi?$AAn?$AA?9?$AAr?$AAt?$AAc?$AAo?$AAr?$AAe?$AA?9?$AAn?$AAt?$AAu?$AAs?$AAe?$AAr?$AA?9?$AAw?$AAi?$AAn?$AAd?$AAo?$AAw?$AA?9@ 0000000180025e40     libucrt:winapi_thunks.obj
 0002:00003e90       ??_C@_1FG@HHGEKANL@?$AAa?$AAp?$AAi?$AA?9?$AAm?$AAs?$AA?9?$AAw?$AAi?$AAn?$AA?9?$AAs?$AAe?$AAc?$AAu?$AAr?$AAi?$AAt?$AAy?$AA?9?$AAs?$AAy?$AAs?$AAt?$AAe?$AAm?$AAf?$AAu?$AAn?$AAc?$AAt?$AAi@ 0000000180025e90     libucrt:winapi_thunks.obj
 0002:00003ef0       ??_C@_1EG@DBIOJECG@?$AAe?$AAx?$AAt?$AA?9?$AAm?$AAs?$AA?9?$AAw?$AAi?$AAn?$AA?9?$AAn?$AAt?$AAu?$AAs?$AAe?$AAr?$AA?9?$AAd?$AAi?$AAa?$AAl?$AAo?$AAg?$AAb?$AAo?$AAx?$AA?9?$AAl?$AA1?$AA?9?$AA1@ 0000000180025ef0     libucrt:winapi_thunks.obj
 0002:00003f40       ??_C@_1EO@FIHMJCLF@?$AAe?$AAx?$AAt?$AA?9?$AAm?$AAs?$AA?9?$AAw?$AAi?$AAn?$AA?9?$AAn?$AAt?$AAu?$AAs?$AAe?$AAr?$AA?9?$AAw?$AAi?$AAn?$AAd?$AAo?$AAw?$AAs?$AAt?$AAa?$AAt?$AAi?$AAo?$AAn?$AA?9@ 0000000180025f40     libucrt:winapi_thunks.obj
 0002:00003f90       ??_C@_1BC@DNHGCMLG@?$AAa?$AAd?$AAv?$AAa?$AAp?$AAi?$AA3?$AA2?$AA?$AA@ 0000000180025f90     libucrt:winapi_thunks.obj
 0002:00003fa8       ??_C@_1BC@GDMECMAK@?$AAk?$AAe?$AAr?$AAn?$AAe?$AAl?$AA3?$AA2?$AA?$AA@ 0000000180025fa8     libucrt:winapi_thunks.obj
 0002:00003fc0       ??_C@_1M@OAIMIKLP@?$AAn?$AAt?$AAd?$AAl?$AAl?$AA?$AA@ 0000000180025fc0     libucrt:winapi_thunks.obj
 0002:00003fd0       ??_C@_1EG@DPGNFKGC@?$AAa?$AAp?$AAi?$AA?9?$AAm?$AAs?$AA?9?$AAw?$AAi?$AAn?$AA?9?$AAa?$AAp?$AAp?$AAm?$AAo?$AAd?$AAe?$AAl?$AA?9?$AAr?$AAu?$AAn?$AAt?$AAi?$AAm?$AAe?$AA?9?$AAl?$AA1?$AA?9?$AA1@ 0000000180025fd0     libucrt:winapi_thunks.obj
 0002:00004018       ??_C@_1O@BCCLBEOE@?$AAu?$AAs?$AAe?$AAr?$AA3?$AA2?$AA?$AA@ 0000000180026018     libucrt:winapi_thunks.obj
 0002:00004028       ??_C@_1BA@PFFKHIOG@?$AAa?$AAp?$AAi?$AA?9?$AAm?$AAs?$AA?9?$AA?$AA@ 0000000180026028     libucrt:winapi_thunks.obj
 0002:00004038       ??_C@_1BA@IAIFMGEF@?$AAe?$AAx?$AAt?$AA?9?$AAm?$AAs?$AA?9?$AA?$AA@ 0000000180026038     libucrt:winapi_thunks.obj
 0002:00004050       ??_C@_08KNHFBNJ@FlsAlloc?$AA@ 0000000180026050     libucrt:winapi_thunks.obj
 0002:00004068       ??_C@_07PEJMOBNF@FlsFree?$AA@ 0000000180026068     libucrt:winapi_thunks.obj
 0002:00004078       ??_C@_0M@GDNOONDI@FlsGetValue?$AA@ 0000000180026078     libucrt:winapi_thunks.obj
 0002:00004090       ??_C@_0M@JCPCPOEF@FlsSetValue?$AA@ 0000000180026090     libucrt:winapi_thunks.obj
 0002:000040a8       ??_C@_0BM@HCFOFFN@InitializeCriticalSectionEx?$AA@ 00000001800260a8     libucrt:winapi_thunks.obj
 0002:000040d0       ??_C@_0O@KKBNKAPF@LCMapStringEx?$AA@ 00000001800260d0     libucrt:winapi_thunks.obj
 0002:000040e8       ??_C@_0BB@HBDEELFH@LocaleNameToLCID?$AA@ 00000001800260e8     libucrt:winapi_thunks.obj
 0002:00004100       ??_C@_0CF@OJOFEIGO@AppPolicyGetProcessTerminationMe@ 0000000180026100     libucrt:winapi_thunks.obj
 0002:00004130       ??_C@_0BI@BKLFFAPO@SetThreadStackGuarantee?$AA@ 0000000180026130     libucrt:winapi_thunks.obj
 0002:00004148       ??_C@_03OEIAHPBN@INF?$AA@  0000000180026148     libucrt:cvt.obj
 0002:0000414c       ??_C@_03OJHLLCGB@inf?$AA@  000000018002614c     libucrt:cvt.obj
 0002:00004150       ??_C@_03LKNCIKJB@NAN?$AA@  0000000180026150     libucrt:cvt.obj
 0002:00004154       ??_C@_03LHCJEHON@nan?$AA@  0000000180026154     libucrt:cvt.obj
 0002:00004158       ??_C@_09OFJJIMPC@NAN?$CISNAN?$CJ?$AA@ 0000000180026158     libucrt:cvt.obj
 0002:00004168       ??_C@_09IPFBKMDL@nan?$CIsnan?$CJ?$AA@ 0000000180026168     libucrt:cvt.obj
 0002:00004178       ??_C@_08IKHNHAJ@NAN?$CIIND?$CJ?$AA@ 0000000180026178     libucrt:cvt.obj
 0002:00004188       ??_C@_08OFCDMILK@nan?$CIind?$CJ?$AA@ 0000000180026188     libucrt:cvt.obj
 0002:00004194       ??_C@_05KLBDPFGC@e?$CL000?$AA@ 0000000180026194     libucrt:cvt.obj
 0002:000041a0       __lc_time_c                00000001800261a0     libucrt:nlsdata.obj
 0002:00004460       ??_C@_03KOEHGMDN@Sun?$AA@  0000000180026460     libucrt:nlsdata.obj
 0002:00004464       ??_C@_03PDAGKDH@Mon?$AA@   0000000180026464     libucrt:nlsdata.obj
 0002:00004468       ??_C@_03NAGEINEP@Tue?$AA@  0000000180026468     libucrt:nlsdata.obj
 0002:0000446c       ??_C@_03MHOMLAJA@Wed?$AA@  000000018002646c     libucrt:nlsdata.obj
 0002:00004470       ??_C@_03IOFIKPDN@Thu?$AA@  0000000180026470     libucrt:nlsdata.obj
 0002:00004474       ??_C@_03IDIOELNC@Fri?$AA@  0000000180026474     libucrt:nlsdata.obj
 0002:00004478       ??_C@_03FEFJNEK@Sat?$AA@   0000000180026478     libucrt:nlsdata.obj
 0002:0000447c       ??_C@_06OOPIFAJ@Sunday?$AA@ 000000018002647c     libucrt:nlsdata.obj
 0002:00004484       ??_C@_06JLEDEDGH@Monday?$AA@ 0000000180026484     libucrt:nlsdata.obj
 0002:00004490       ??_C@_07BAAGCFCM@Tuesday?$AA@ 0000000180026490     libucrt:nlsdata.obj
 0002:00004498       ??_C@_09DLIGFAKA@Wednesday?$AA@ 0000000180026498     libucrt:nlsdata.obj
 0002:000044a8       ??_C@_08HACCIKIA@Thursday?$AA@ 00000001800264a8     libucrt:nlsdata.obj
 0002:000044b4       ??_C@_06JECMNKMI@Friday?$AA@ 00000001800264b4     libucrt:nlsdata.obj
 0002:000044c0       ??_C@_08INBOOONO@Saturday?$AA@ 00000001800264c0     libucrt:nlsdata.obj
 0002:000044cc       ??_C@_03JIHJHPIE@Jan?$AA@  00000001800264cc     libucrt:nlsdata.obj
 0002:000044d0       ??_C@_03HJBDCHOM@Feb?$AA@  00000001800264d0     libucrt:nlsdata.obj
 0002:000044d4       ??_C@_03ODNJBKGA@Mar?$AA@  00000001800264d4     libucrt:nlsdata.obj
 0002:000044d8       ??_C@_03LEOLGMJP@Apr?$AA@  00000001800264d8     libucrt:nlsdata.obj
 0002:000044dc       ??_C@_03CNMDKL@May?$AA@    00000001800264dc     libucrt:nlsdata.obj
 0002:000044e0       ??_C@_03IDFGHECI@Jun?$AA@  00000001800264e0     libucrt:nlsdata.obj
 0002:000044e4       ??_C@_03LBGABGKK@Jul?$AA@  00000001800264e4     libucrt:nlsdata.obj
 0002:000044e8       ??_C@_03IFJFEIGA@Aug?$AA@  00000001800264e8     libucrt:nlsdata.obj
 0002:000044ec       ??_C@_03GGCAPAJC@Sep?$AA@  00000001800264ec     libucrt:nlsdata.obj
 0002:000044f0       ??_C@_03BMAOKBAD@Oct?$AA@  00000001800264f0     libucrt:nlsdata.obj
 0002:000044f4       ??_C@_03JPJOFNIA@Nov?$AA@  00000001800264f4     libucrt:nlsdata.obj
 0002:000044f8       ??_C@_03MKABNOCG@Dec?$AA@  00000001800264f8     libucrt:nlsdata.obj
 0002:00004500       ??_C@_07CGJPFGJA@January?$AA@ 0000000180026500     libucrt:nlsdata.obj
 0002:00004508       ??_C@_08GNJGEPFN@February?$AA@ 0000000180026508     libucrt:nlsdata.obj
 0002:00004514       ??_C@_05HPCKOFNC@March?$AA@ 0000000180026514     libucrt:nlsdata.obj
 0002:0000451c       ??_C@_05DMJDNLEJ@April?$AA@ 000000018002651c     libucrt:nlsdata.obj
 0002:00004524       ??_C@_04CNLMGBGM@June?$AA@ 0000000180026524     libucrt:nlsdata.obj
 0002:0000452c       ??_C@_04MIEPOIFP@July?$AA@ 000000018002652c     libucrt:nlsdata.obj
 0002:00004534       ??_C@_06LBBHFDDG@August?$AA@ 0000000180026534     libucrt:nlsdata.obj
 0002:00004540       ??_C@_09BHHEALKD@September?$AA@ 0000000180026540     libucrt:nlsdata.obj
 0002:00004550       ??_C@_07JJNFCEND@October?$AA@ 0000000180026550     libucrt:nlsdata.obj
 0002:00004558       ??_C@_08HCHEGEOA@November?$AA@ 0000000180026558     libucrt:nlsdata.obj
 0002:00004568       ??_C@_08EDHMEBNP@December?$AA@ 0000000180026568     libucrt:nlsdata.obj
 0002:00004574       ??_C@_02DEDBPAFC@AM?$AA@   0000000180026574     libucrt:nlsdata.obj
 0002:00004578       ??_C@_02CJNFDJBF@PM?$AA@   0000000180026578     libucrt:nlsdata.obj
 0002:00004580       ??_C@_08BPBNCDIB@MM?1dd?1yy?$AA@ 0000000180026580     libucrt:nlsdata.obj
 0002:00004590       ??_C@_0BE@CKGJFCPC@dddd?0?5MMMM?5dd?0?5yyyy?$AA@ 0000000180026590     libucrt:nlsdata.obj
 0002:000045a8       ??_C@_08JCCMCCIL@HH?3mm?3ss?$AA@ 00000001800265a8     libucrt:nlsdata.obj
 0002:000045b8       ??_C@_17MBGCMIPB@?$AAS?$AAu?$AAn?$AA?$AA@ 00000001800265b8     libucrt:nlsdata.obj
 0002:000045c0       ??_C@_17KBOMKBF@?$AAM?$AAo?$AAn?$AA?$AA@ 00000001800265c0     libucrt:nlsdata.obj
 0002:000045c8       ??_C@_17BMKGEGOJ@?$AAT?$AAu?$AAe?$AA?$AA@ 00000001800265c8     libucrt:nlsdata.obj
 0002:000045d0       ??_C@_17CJEDCEPE@?$AAW?$AAe?$AAd?$AA?$AA@ 00000001800265d0     libucrt:nlsdata.obj
 0002:000045d8       ??_C@_17PDPHAADD@?$AAT?$AAh?$AAu?$AA?$AA@ 00000001800265d8     libucrt:nlsdata.obj
 0002:000045e0       ??_C@_17HFOLPPLP@?$AAF?$AAr?$AAi?$AA?$AA@ 00000001800265e0     libucrt:nlsdata.obj
 0002:000045e8       ??_C@_17GGIBDPIH@?$AAS?$AAa?$AAt?$AA?$AA@ 00000001800265e8     libucrt:nlsdata.obj
 0002:000045f0       ??_C@_1O@IHNHDHPB@?$AAS?$AAu?$AAn?$AAd?$AAa?$AAy?$AA?$AA@ 00000001800265f0     libucrt:nlsdata.obj
 0002:00004600       ??_C@_1O@MMNBFLIA@?$AAM?$AAo?$AAn?$AAd?$AAa?$AAy?$AA?$AA@ 0000000180026600     libucrt:nlsdata.obj
 0002:00004610       ??_C@_1BA@ENFBFFEK@?$AAT?$AAu?$AAe?$AAs?$AAd?$AAa?$AAy?$AA?$AA@ 0000000180026610     libucrt:nlsdata.obj
 0002:00004620       ??_C@_1BE@EBOGMDOH@?$AAW?$AAe?$AAd?$AAn?$AAe?$AAs?$AAd?$AAa?$AAy?$AA?$AA@ 0000000180026620     libucrt:nlsdata.obj
 0002:00004638       ??_C@_1BC@HHMNLIHE@?$AAT?$AAh?$AAu?$AAr?$AAs?$AAd?$AAa?$AAy?$AA?$AA@ 0000000180026638     libucrt:nlsdata.obj
 0002:00004650       ??_C@_1O@PDICJHAG@?$AAF?$AAr?$AAi?$AAd?$AAa?$AAy?$AA?$AA@ 0000000180026650     libucrt:nlsdata.obj
 0002:00004660       ??_C@_1BC@ENMNNPAJ@?$AAS?$AAa?$AAt?$AAu?$AAr?$AAd?$AAa?$AAy?$AA?$AA@ 0000000180026660     libucrt:nlsdata.obj
 0002:00004678       ??_C@_17DKNBKCHM@?$AAJ?$AAa?$AAn?$AA?$AA@ 0000000180026678     libucrt:nlsdata.obj
 0002:00004680       ??_C@_17LMDJEKJN@?$AAF?$AAe?$AAb?$AA?$AA@ 0000000180026680     libucrt:nlsdata.obj
 0002:00004688       ??_C@_17CKNLEDEC@?$AAM?$AAa?$AAr?$AA?$AA@ 0000000180026688     libucrt:nlsdata.obj
 0002:00004690       ??_C@_17LFPOIHDD@?$AAA?$AAp?$AAr?$AA?$AA@ 0000000180026690     libucrt:nlsdata.obj
 0002:00004698       ??_C@_17PNNKMEED@?$AAM?$AAa?$AAy?$AA?$AA@ 0000000180026698     libucrt:nlsdata.obj
 0002:000046a0       ??_C@_17KCJGOCPB@?$AAJ?$AAu?$AAn?$AA?$AA@ 00000001800266a0     libucrt:nlsdata.obj
 0002:000046a8       ??_C@_17IJPCKHK@?$AAJ?$AAu?$AAl?$AA?$AA@ 00000001800266a8     libucrt:nlsdata.obj
 0002:000046b0       ??_C@_17ICPELBCN@?$AAA?$AAu?$AAg?$AA?$AA@ 00000001800266b0     libucrt:nlsdata.obj
 0002:000046b8       ??_C@_17HCHCOKMG@?$AAS?$AAe?$AAp?$AA?$AA@ 00000001800266b8     libucrt:nlsdata.obj
 0002:000046c0       ??_C@_17FNLKOI@?$AAO?$AAc?$AAt?$AA?$AA@ 00000001800266c0     libucrt:nlsdata.obj
 0002:000046c8       ??_C@_17BBDMLCIG@?$AAN?$AAo?$AAv?$AA?$AA@ 00000001800266c8     libucrt:nlsdata.obj
 0002:000046d0       ??_C@_17EGKACKIF@?$AAD?$AAe?$AAc?$AA?$AA@ 00000001800266d0     libucrt:nlsdata.obj
 0002:000046d8       ??_C@_1BA@EFMEIEBA@?$AAJ?$AAa?$AAn?$AAu?$AAa?$AAr?$AAy?$AA?$AA@ 00000001800266d8     libucrt:nlsdata.obj
 0002:000046e8       ??_C@_1BC@JGDDFFAM@?$AAF?$AAe?$AAb?$AAr?$AAu?$AAa?$AAr?$AAy?$AA?$AA@ 00000001800266e8     libucrt:nlsdata.obj
 0002:00004700       ??_C@_1M@IKEENEDF@?$AAM?$AAa?$AAr?$AAc?$AAh?$AA?$AA@ 0000000180026700     libucrt:nlsdata.obj
 0002:00004710       ??_C@_1M@GJNLMHFD@?$AAA?$AAp?$AAr?$AAi?$AAl?$AA?$AA@ 0000000180026710     libucrt:nlsdata.obj
 0002:00004720       ??_C@_19EPFLPGAP@?$AAJ?$AAu?$AAn?$AAe?$AA?$AA@ 0000000180026720     libucrt:nlsdata.obj
 0002:00004730       ??_C@_19BIFMLPCD@?$AAJ?$AAu?$AAl?$AAy?$AA?$AA@ 0000000180026730     libucrt:nlsdata.obj
 0002:00004740       ??_C@_1O@PAHLKOAC@?$AAA?$AAu?$AAg?$AAu?$AAs?$AAt?$AA?$AA@ 0000000180026740     libucrt:nlsdata.obj
 0002:00004750       ??_C@_1BE@DKAAMBJL@?$AAS?$AAe?$AAp?$AAt?$AAe?$AAm?$AAb?$AAe?$AAr?$AA?$AA@ 0000000180026750     libucrt:nlsdata.obj
 0002:00004768       ??_C@_1BA@EPANDLNG@?$AAO?$AAc?$AAt?$AAo?$AAb?$AAe?$AAr?$AA?$AA@ 0000000180026768     libucrt:nlsdata.obj
 0002:00004778       ??_C@_1BC@BGLIFPF@?$AAN?$AAo?$AAv?$AAe?$AAm?$AAb?$AAe?$AAr?$AA?$AA@ 0000000180026778     libucrt:nlsdata.obj
 0002:00004790       ??_C@_1BC@FEMKIFH@?$AAD?$AAe?$AAc?$AAe?$AAm?$AAb?$AAe?$AAr?$AA?$AA@ 0000000180026790     libucrt:nlsdata.obj
 0002:000047a4       ??_C@_15ODEHAHHF@?$AAA?$AAM?$AA?$AA@ 00000001800267a4     libucrt:nlsdata.obj
 0002:000047ac       ??_C@_15CLMNNGEL@?$AAP?$AAM?$AA?$AA@ 00000001800267ac     libucrt:nlsdata.obj
 0002:000047b8       ??_C@_1BC@IEBCMHCM@?$AAM?$AAM?$AA?1?$AAd?$AAd?$AA?1?$AAy?$AAy?$AA?$AA@ 00000001800267b8     libucrt:nlsdata.obj
 0002:000047d0       ??_C@_1CI@KNAKOEBC@?$AAd?$AAd?$AAd?$AAd?$AA?0?$AA?5?$AAM?$AAM?$AAM?$AAM?$AA?5?$AAd?$AAd?$AA?0?$AA?5?$AAy?$AAy?$AAy?$AAy?$AA?$AA@ 00000001800267d0     libucrt:nlsdata.obj
 0002:000047f8       ??_C@_1BC@GDGBMEMK@?$AAH?$AAH?$AA?3?$AAm?$AAm?$AA?3?$AAs?$AAs?$AA?$AA@ 00000001800267f8     libucrt:nlsdata.obj
 0002:00004810       ??_C@_1M@BMHNFIME@?$AAe?$AAn?$AA?9?$AAU?$AAS?$AA?$AA@ 0000000180026810     libucrt:nlsdata.obj
 0002:00004840       ??_C@_1M@HPNHIDJI@?$AAj?$AAa?$AA?9?$AAJ?$AAP?$AA?$AA@ 0000000180026840     libucrt:mbctype.obj
 0002:00004850       ??_C@_1M@BIBDDEMK@?$AAz?$AAh?$AA?9?$AAC?$AAN?$AA?$AA@ 0000000180026850     libucrt:mbctype.obj
 0002:00004860       ??_C@_1M@JLOOOEGK@?$AAk?$AAo?$AA?9?$AAK?$AAR?$AA?$AA@ 0000000180026860     libucrt:mbctype.obj
 0002:00004870       ??_C@_1M@CLNBBOPM@?$AAz?$AAh?$AA?9?$AAT?$AAW?$AA?$AA@ 0000000180026870     libucrt:mbctype.obj
 0002:00004880       __newctype                 0000000180026880     libucrt:ctype.obj
 0002:00004b80       __newclmap                 0000000180026b80     libucrt:ctype.obj
 0002:00004d00       __newcumap                 0000000180026d00     libucrt:ctype.obj
 0002:00004e80       _wctype                    0000000180026e80     libucrt:ctype.obj
 0002:00005088       ??_C@_1M@GPCBKDJK@?$AAh?$AAy?$AA?9?$AAA?$AAM?$AA?$AA@ 0000000180027088     libucrt:lcidtoname_downlevel.obj
 0002:00005098       ??_C@_1BG@BECMDDJB@?$AAa?$AAz?$AA?9?$AAA?$AAZ?$AA?9?$AAL?$AAa?$AAt?$AAn?$AA?$AA@ 0000000180027098     libucrt:lcidtoname_downlevel.obj
 0002:000050b0       ??_C@_1M@MAOFCAEA@?$AAe?$AAu?$AA?9?$AAE?$AAS?$AA?$AA@ 00000001800270b0     libucrt:lcidtoname_downlevel.obj
 0002:000050c0       ??_C@_1M@IGHABKPI@?$AAm?$AAk?$AA?9?$AAM?$AAK?$AA?$AA@ 00000001800270c0     libucrt:lcidtoname_downlevel.obj
 0002:000050d0       ??_C@_1M@IAIGNEJG@?$AAt?$AAn?$AA?9?$AAZ?$AAA?$AA?$AA@ 00000001800270d0     libucrt:lcidtoname_downlevel.obj
 0002:000050e0       ??_C@_1M@IIJCOJFA@?$AAx?$AAh?$AA?9?$AAZ?$AAA?$AA?$AA@ 00000001800270e0     libucrt:lcidtoname_downlevel.obj
 0002:000050f0       ??_C@_1M@LGPJHNJH@?$AAz?$AAu?$AA?9?$AAZ?$AAA?$AA?$AA@ 00000001800270f0     libucrt:lcidtoname_downlevel.obj
 0002:00005100       ??_C@_1M@HOKAOIO@?$AAa?$AAf?$AA?9?$AAZ?$AAA?$AA?$AA@ 0000000180027100     libucrt:lcidtoname_downlevel.obj
 0002:00005110       ??_C@_1M@DPCLHLIE@?$AAk?$AAa?$AA?9?$AAG?$AAE?$AA?$AA@ 0000000180027110     libucrt:lcidtoname_downlevel.obj
 0002:00005120       ??_C@_1M@BLKMHJBI@?$AAf?$AAo?$AA?9?$AAF?$AAO?$AA?$AA@ 0000000180027120     libucrt:lcidtoname_downlevel.obj
 0002:00005130       ??_C@_1M@LGGJAPPB@?$AAh?$AAi?$AA?9?$AAI?$AAN?$AA?$AA@ 0000000180027130     libucrt:lcidtoname_downlevel.obj
 0002:00005140       ??_C@_1M@FIKPIHFE@?$AAm?$AAt?$AA?9?$AAM?$AAT?$AA?$AA@ 0000000180027140     libucrt:lcidtoname_downlevel.obj
 0002:00005150       ??_C@_1M@HEGGPBFA@?$AAs?$AAe?$AA?9?$AAN?$AAO?$AA?$AA@ 0000000180027150     libucrt:lcidtoname_downlevel.obj
 0002:00005160       ??_C@_1M@EIBJEEPA@?$AAm?$AAs?$AA?9?$AAM?$AAY?$AA?$AA@ 0000000180027160     libucrt:lcidtoname_downlevel.obj
 0002:00005170       ??_C@_1M@FHLBGMPP@?$AAk?$AAk?$AA?9?$AAK?$AAZ?$AA?$AA@ 0000000180027170     libucrt:lcidtoname_downlevel.obj
 0002:00005180       ??_C@_1M@NGJJLCGI@?$AAk?$AAy?$AA?9?$AAK?$AAG?$AA?$AA@ 0000000180027180     libucrt:lcidtoname_downlevel.obj
 0002:00005190       ??_C@_1M@GIENNBFC@?$AAs?$AAw?$AA?9?$AAK?$AAE?$AA?$AA@ 0000000180027190     libucrt:lcidtoname_downlevel.obj
 0002:000051a0       ??_C@_1BG@NDGMJIMJ@?$AAu?$AAz?$AA?9?$AAU?$AAZ?$AA?9?$AAL?$AAa?$AAt?$AAn?$AA?$AA@ 00000001800271a0     libucrt:lcidtoname_downlevel.obj
 0002:000051b8       ??_C@_1M@IDCCIHBC@?$AAt?$AAt?$AA?9?$AAR?$AAU?$AA?$AA@ 00000001800271b8     libucrt:lcidtoname_downlevel.obj
 0002:000051c8       ??_C@_1M@LOICPMOJ@?$AAb?$AAn?$AA?9?$AAI?$AAN?$AA?$AA@ 00000001800271c8     libucrt:lcidtoname_downlevel.obj
 0002:000051d8       ??_C@_1M@KPKKNEAH@?$AAp?$AAa?$AA?9?$AAI?$AAN?$AA?$AA@ 00000001800271d8     libucrt:lcidtoname_downlevel.obj
 0002:000051e8       ??_C@_1M@PJGPPBOG@?$AAg?$AAu?$AA?9?$AAI?$AAN?$AA?$AA@ 00000001800271e8     libucrt:lcidtoname_downlevel.obj
 0002:000051f8       ??_C@_1M@KMKMOPHI@?$AAt?$AAa?$AA?9?$AAI?$AAN?$AA?$AA@ 00000001800271f8     libucrt:lcidtoname_downlevel.obj
 0002:00005208       ??_C@_1M@KFEHEPAC@?$AAt?$AAe?$AA?9?$AAI?$AAN?$AA?$AA@ 0000000180027208     libucrt:lcidtoname_downlevel.obj
 0002:00005218       ??_C@_1M@CDCLMGHI@?$AAk?$AAn?$AA?9?$AAI?$AAN?$AA?$AA@ 0000000180027218     libucrt:lcidtoname_downlevel.obj
 0002:00005228       ??_C@_1M@MIODLDKF@?$AAm?$AAl?$AA?9?$AAI?$AAN?$AA?$AA@ 0000000180027228     libucrt:lcidtoname_downlevel.obj
 0002:00005238       ??_C@_1M@PBIEACPO@?$AAm?$AAr?$AA?9?$AAI?$AAN?$AA?$AA@ 0000000180027238     libucrt:lcidtoname_downlevel.obj
 0002:00005248       ??_C@_1M@NIDEAGPH@?$AAs?$AAa?$AA?9?$AAI?$AAN?$AA?$AA@ 0000000180027248     libucrt:lcidtoname_downlevel.obj
 0002:00005258       ??_C@_1M@FHIHCBIO@?$AAm?$AAn?$AA?9?$AAM?$AAN?$AA?$AA@ 0000000180027258     libucrt:lcidtoname_downlevel.obj
 0002:00005268       ??_C@_1M@JAIJPENP@?$AAc?$AAy?$AA?9?$AAG?$AAB?$AA?$AA@ 0000000180027268     libucrt:lcidtoname_downlevel.obj
 0002:00005278       ??_C@_1M@PHGFBEPN@?$AAg?$AAl?$AA?9?$AAE?$AAS?$AA?$AA@ 0000000180027278     libucrt:lcidtoname_downlevel.obj
 0002:00005288       ??_C@_1O@KPIPDNCP@?$AAk?$AAo?$AAk?$AA?9?$AAI?$AAN?$AA?$AA@ 0000000180027288     libucrt:lcidtoname_downlevel.obj
 0002:00005298       ??_C@_1O@KNHJLDJA@?$AAs?$AAy?$AAr?$AA?9?$AAS?$AAY?$AA?$AA@ 0000000180027298     libucrt:lcidtoname_downlevel.obj
 0002:000052a8       ??_C@_1O@MKEKBLAH@?$AAd?$AAi?$AAv?$AA?9?$AAM?$AAV?$AA?$AA@ 00000001800272a8     libucrt:lcidtoname_downlevel.obj
 0002:000052b8       ??_C@_1O@OHDCKDDF@?$AAq?$AAu?$AAz?$AA?9?$AAB?$AAO?$AA?$AA@ 00000001800272b8     libucrt:lcidtoname_downlevel.obj
 0002:000052c8       ??_C@_1M@LEPJNLFD@?$AAn?$AAs?$AA?9?$AAZ?$AAA?$AA?$AA@ 00000001800272c8     libucrt:lcidtoname_downlevel.obj
 0002:000052d8       ??_C@_1M@OMLEIIJB@?$AAm?$AAi?$AA?9?$AAN?$AAZ?$AA?$AA@ 00000001800272d8     libucrt:lcidtoname_downlevel.obj
 0002:000052e8       ??_C@_1M@PMPEAILG@?$AAa?$AAr?$AA?9?$AAI?$AAQ?$AA?$AA@ 00000001800272e8     libucrt:lcidtoname_downlevel.obj
 0002:000052f8       ??_C@_1M@CNKPNOEE@?$AAd?$AAe?$AA?9?$AAC?$AAH?$AA?$AA@ 00000001800272f8     libucrt:lcidtoname_downlevel.obj
 0002:00005308       ??_C@_1M@LKMGMLKO@?$AAe?$AAn?$AA?9?$AAG?$AAB?$AA?$AA@ 0000000180027308     libucrt:lcidtoname_downlevel.obj
 0002:00005318       ??_C@_1M@PGKJFFGL@?$AAe?$AAs?$AA?9?$AAM?$AAX?$AA?$AA@ 0000000180027318     libucrt:lcidtoname_downlevel.obj
 0002:00005328       ??_C@_1M@DNNANBDC@?$AAf?$AAr?$AA?9?$AAB?$AAE?$AA?$AA@ 0000000180027328     libucrt:lcidtoname_downlevel.obj
 0002:00005338       ??_C@_1M@HLGMDFHM@?$AAi?$AAt?$AA?9?$AAC?$AAH?$AA?$AA@ 0000000180027338     libucrt:lcidtoname_downlevel.obj
 0002:00005348       ??_C@_1M@CLLBGJH@?$AAn?$AAl?$AA?9?$AAB?$AAE?$AA?$AA@ 0000000180027348     libucrt:lcidtoname_downlevel.obj
 0002:00005358       ??_C@_1M@BODBOGLF@?$AAn?$AAn?$AA?9?$AAN?$AAO?$AA?$AA@ 0000000180027358     libucrt:lcidtoname_downlevel.obj
 0002:00005368       ??_C@_1M@HFFAHKAD@?$AAp?$AAt?$AA?9?$AAP?$AAT?$AA?$AA@ 0000000180027368     libucrt:lcidtoname_downlevel.obj
 0002:00005378       ??_C@_1BG@LNOAKHIE@?$AAs?$AAr?$AA?9?$AAS?$AAP?$AA?9?$AAL?$AAa?$AAt?$AAn?$AA?$AA@ 0000000180027378     libucrt:lcidtoname_downlevel.obj
 0002:00005390       ??_C@_1M@HBMHBGAK@?$AAs?$AAv?$AA?9?$AAF?$AAI?$AA?$AA@ 0000000180027390     libucrt:lcidtoname_downlevel.obj
 0002:000053a0       ??_C@_1BG@DGCJGJBE@?$AAa?$AAz?$AA?9?$AAA?$AAZ?$AA?9?$AAC?$AAy?$AAr?$AAl?$AA?$AA@ 00000001800273a0     libucrt:lcidtoname_downlevel.obj
 0002:000053b8       ??_C@_1M@KEJDAAHB@?$AAs?$AAe?$AA?9?$AAS?$AAE?$AA?$AA@ 00000001800273b8     libucrt:lcidtoname_downlevel.obj
 0002:000053c8       ??_C@_1M@HEIBJJAD@?$AAm?$AAs?$AA?9?$AAB?$AAN?$AA?$AA@ 00000001800273c8     libucrt:lcidtoname_downlevel.obj
 0002:000053d8       ??_C@_1BG@PBGJMCEM@?$AAu?$AAz?$AA?9?$AAU?$AAZ?$AA?9?$AAC?$AAy?$AAr?$AAl?$AA?$AA@ 00000001800273d8     libucrt:lcidtoname_downlevel.obj
 0002:000053f0       ??_C@_1O@LAOBCMDF@?$AAq?$AAu?$AAz?$AA?9?$AAE?$AAC?$AA?$AA@ 00000001800273f0     libucrt:lcidtoname_downlevel.obj
 0002:00005400       ??_C@_1M@POEEMAIO@?$AAa?$AAr?$AA?9?$AAE?$AAG?$AA?$AA@ 0000000180027400     libucrt:lcidtoname_downlevel.obj
 0002:00005410       ??_C@_1M@EFAKDEDL@?$AAz?$AAh?$AA?9?$AAH?$AAK?$AA?$AA@ 0000000180027410     libucrt:lcidtoname_downlevel.obj
 0002:00005420       ??_C@_1M@HKKIJHGI@?$AAd?$AAe?$AA?9?$AAA?$AAT?$AA?$AA@ 0000000180027420     libucrt:lcidtoname_downlevel.obj
 0002:00005430       ??_C@_1M@KBFBEHJF@?$AAe?$AAn?$AA?9?$AAA?$AAU?$AA?$AA@ 0000000180027430     libucrt:lcidtoname_downlevel.obj
 0002:00005440       ??_C@_1M@MNPLFAAH@?$AAe?$AAs?$AA?9?$AAE?$AAS?$AA?$AA@ 0000000180027440     libucrt:lcidtoname_downlevel.obj
 0002:00005450       ??_C@_1M@HJOOJFMA@?$AAf?$AAr?$AA?9?$AAC?$AAA?$AA?$AA@ 0000000180027450     libucrt:lcidtoname_downlevel.obj
 0002:00005460       ??_C@_1BG@JPOFPNAB@?$AAs?$AAr?$AA?9?$AAS?$AAP?$AA?9?$AAC?$AAy?$AAr?$AAl?$AA?$AA@ 0000000180027460     libucrt:lcidtoname_downlevel.obj
 0002:00005478       ??_C@_1M@LNFOCMOB@?$AAs?$AAe?$AA?9?$AAF?$AAI?$AA?$AA@ 0000000180027478     libucrt:lcidtoname_downlevel.obj
 0002:00005488       ??_C@_1O@MGJBOAMB@?$AAq?$AAu?$AAz?$AA?9?$AAP?$AAE?$AA?$AA@ 0000000180027488     libucrt:lcidtoname_downlevel.obj
 0002:00005498       ??_C@_1M@GJINLBOK@?$AAa?$AAr?$AA?9?$AAL?$AAY?$AA?$AA@ 0000000180027498     libucrt:lcidtoname_downlevel.obj
 0002:000054a8       ??_C@_1M@GGMNHJNL@?$AAz?$AAh?$AA?9?$AAS?$AAG?$AA?$AA@ 00000001800274a8     libucrt:lcidtoname_downlevel.obj
 0002:000054b8       ??_C@_1M@HOIKODND@?$AAd?$AAe?$AA?9?$AAL?$AAU?$AA?$AA@ 00000001800274b8     libucrt:lcidtoname_downlevel.obj
 0002:000054c8       ??_C@_1M@DDOCCGFG@?$AAe?$AAn?$AA?9?$AAC?$AAA?$AA?$AA@ 00000001800274c8     libucrt:lcidtoname_downlevel.obj
 0002:000054d8       ??_C@_1M@BNOEMJLF@?$AAe?$AAs?$AA?9?$AAG?$AAT?$AA?$AA@ 00000001800274d8     libucrt:lcidtoname_downlevel.obj
 0002:000054e8       ??_C@_1M@EOGNKEK@?$AAf?$AAr?$AA?9?$AAC?$AAH?$AA?$AA@ 00000001800274e8     libucrt:lcidtoname_downlevel.obj
 0002:000054f8       ??_C@_1M@FLIDJFHL@?$AAh?$AAr?$AA?9?$AAB?$AAA?$AA?$AA@ 00000001800274f8     libucrt:lcidtoname_downlevel.obj
 0002:00005508       ??_C@_1O@FMCELNAJ@?$AAs?$AAm?$AAj?$AA?9?$AAN?$AAO?$AA?$AA@ 0000000180027508     libucrt:lcidtoname_downlevel.obj
 0002:00005518       ??_C@_1M@JHGLJMGJ@?$AAa?$AAr?$AA?9?$AAD?$AAZ?$AA?$AA@ 0000000180027518     libucrt:lcidtoname_downlevel.obj
 0002:00005528       ??_C@_1M@JKKFDCNP@?$AAz?$AAh?$AA?9?$AAM?$AAO?$AA?$AA@ 0000000180027528     libucrt:lcidtoname_downlevel.obj
 0002:00005538       ??_C@_1M@GEEFALPE@?$AAd?$AAe?$AA?9?$AAL?$AAI?$AA?$AA@ 0000000180027538     libucrt:lcidtoname_downlevel.obj
 0002:00005548       ??_C@_1M@IGEOFBG@?$AAe?$AAn?$AA?9?$AAN?$AAZ?$AA?$AA@ 0000000180027548     libucrt:lcidtoname_downlevel.obj
 0002:00005558       ??_C@_1M@KDBONEHP@?$AAe?$AAs?$AA?9?$AAC?$AAR?$AA?$AA@ 0000000180027558     libucrt:lcidtoname_downlevel.obj
 0002:00005568       ??_C@_1M@FHMDOHNN@?$AAf?$AAr?$AA?9?$AAL?$AAU?$AA?$AA@ 0000000180027568     libucrt:lcidtoname_downlevel.obj
 0002:00005578       ??_C@_1BG@NFKKMAFG@?$AAb?$AAs?$AA?9?$AAB?$AAA?$AA?9?$AAL?$AAa?$AAt?$AAn?$AA?$AA@ 0000000180027578     libucrt:lcidtoname_downlevel.obj
 0002:00005590       ??_C@_1O@IMNBEMCI@?$AAs?$AAm?$AAj?$AA?9?$AAS?$AAE?$AA?$AA@ 0000000180027590     libucrt:lcidtoname_downlevel.obj
 0002:000055a0       ??_C@_1M@DHHMBNDP@?$AAa?$AAr?$AA?9?$AAM?$AAA?$AA?$AA@ 00000001800275a0     libucrt:lcidtoname_downlevel.obj
 0002:000055b0       ??_C@_1M@BNBLJCGH@?$AAe?$AAn?$AA?9?$AAI?$AAE?$AA?$AA@ 00000001800275b0     libucrt:lcidtoname_downlevel.obj
 0002:000055c0       ??_C@_1M@GEPAFMDL@?$AAe?$AAs?$AA?9?$AAP?$AAA?$AA?$AA@ 00000001800275c0     libucrt:lcidtoname_downlevel.obj
 0002:000055d0       ??_C@_1M@OJONDMDL@?$AAf?$AAr?$AA?9?$AAM?$AAC?$AA?$AA@ 00000001800275d0     libucrt:lcidtoname_downlevel.obj
 0002:000055e0       ??_C@_1BG@OBCNFJB@?$AAs?$AAr?$AA?9?$AAB?$AAA?$AA?9?$AAL?$AAa?$AAt?$AAn?$AA?$AA@ 00000001800275e0     libucrt:lcidtoname_downlevel.obj
 0002:000055f8       ??_C@_1O@KEMEEGPO@?$AAs?$AAm?$AAa?$AA?9?$AAN?$AAO?$AA?$AA@ 00000001800275f8     libucrt:lcidtoname_downlevel.obj
 0002:00005608       ??_C@_1M@ELMGFODK@?$AAa?$AAr?$AA?9?$AAT?$AAN?$AA?$AA@ 0000000180027608     libucrt:lcidtoname_downlevel.obj
 0002:00005618       ??_C@_1M@BHDLHFAF@?$AAe?$AAn?$AA?9?$AAZ?$AAA?$AA?$AA@ 0000000180027618     libucrt:lcidtoname_downlevel.obj
 0002:00005628       ??_C@_1M@BMGIGLIF@?$AAe?$AAs?$AA?9?$AAD?$AAO?$AA?$AA@ 0000000180027628     libucrt:lcidtoname_downlevel.obj
 0002:00005638       ??_C@_1BG@CMBHIPBE@?$AAs?$AAr?$AA?9?$AAB?$AAA?$AA?9?$AAC?$AAy?$AAr?$AAl?$AA?$AA@ 0000000180027638     libucrt:lcidtoname_downlevel.obj
 0002:00005650       ??_C@_1O@HEDBLHNP@?$AAs?$AAm?$AAa?$AA?9?$AAS?$AAE?$AA?$AA@ 0000000180027650     libucrt:lcidtoname_downlevel.obj
 0002:00005660       ??_C@_1M@DAGCADIM@?$AAa?$AAr?$AA?9?$AAO?$AAM?$AA?$AA@ 0000000180027660     libucrt:lcidtoname_downlevel.obj
 0002:00005670       ??_C@_1M@FODLMICG@?$AAe?$AAn?$AA?9?$AAJ?$AAM?$AA?$AA@ 0000000180027670     libucrt:lcidtoname_downlevel.obj
 0002:00005680       ??_C@_1M@DNMLCIHB@?$AAe?$AAs?$AA?9?$AAV?$AAE?$AA?$AA@ 0000000180027680     libucrt:lcidtoname_downlevel.obj
 0002:00005690       ??_C@_1O@EOKHMKJK@?$AAs?$AAm?$AAs?$AA?9?$AAF?$AAI?$AA?$AA@ 0000000180027690     libucrt:lcidtoname_downlevel.obj
 0002:000056a0       ??_C@_1M@CAFJMKOF@?$AAa?$AAr?$AA?9?$AAY?$AAE?$AA?$AA@ 00000001800276a0     libucrt:lcidtoname_downlevel.obj
 0002:000056b0       ??_C@_1M@CBFHIJLI@?$AAe?$AAn?$AA?9?$AAC?$AAB?$AA?$AA@ 00000001800276b0     libucrt:lcidtoname_downlevel.obj
 0002:000056c0       ??_C@_1M@BGNFLDN@?$AAe?$AAs?$AA?9?$AAC?$AAO?$AA?$AA@ 00000001800276c0     libucrt:lcidtoname_downlevel.obj
 0002:000056d0       ??_C@_1O@JMPHMAMC@?$AAs?$AAm?$AAn?$AA?9?$AAF?$AAI?$AA?$AA@ 00000001800276d0     libucrt:lcidtoname_downlevel.obj
 0002:000056e0       ??_C@_1M@JLANABKE@?$AAa?$AAr?$AA?9?$AAS?$AAY?$AA?$AA@ 00000001800276e0     libucrt:lcidtoname_downlevel.obj
 0002:000056f0       ??_C@_1M@HPKGCFGN@?$AAe?$AAn?$AA?9?$AAB?$AAZ?$AA?$AA@ 00000001800276f0     libucrt:lcidtoname_downlevel.obj
 0002:00005700       ??_C@_1M@OLJCMLGM@?$AAe?$AAs?$AA?9?$AAP?$AAE?$AA?$AA@ 0000000180027700     libucrt:lcidtoname_downlevel.obj
 0002:00005710       ??_C@_1M@MKKGFKLE@?$AAa?$AAr?$AA?9?$AAJ?$AAO?$AA?$AA@ 0000000180027710     libucrt:lcidtoname_downlevel.obj
 0002:00005720       ??_C@_1M@EKPGLDNI@?$AAe?$AAn?$AA?9?$AAT?$AAT?$AA?$AA@ 0000000180027720     libucrt:lcidtoname_downlevel.obj
 0002:00005730       ??_C@_1M@OONGHFHE@?$AAe?$AAs?$AA?9?$AAA?$AAR?$AA?$AA@ 0000000180027730     libucrt:lcidtoname_downlevel.obj
 0002:00005740       ??_C@_1M@OOJFGBHE@?$AAa?$AAr?$AA?9?$AAL?$AAB?$AA?$AA@ 0000000180027740     libucrt:lcidtoname_downlevel.obj
 0002:00005750       ??_C@_1M@GCEJHNEG@?$AAe?$AAn?$AA?9?$AAZ?$AAW?$AA?$AA@ 0000000180027750     libucrt:lcidtoname_downlevel.obj
 0002:00005760       ??_C@_1M@JNOCAHJI@?$AAe?$AAs?$AA?9?$AAE?$AAC?$AA?$AA@ 0000000180027760     libucrt:lcidtoname_downlevel.obj
 0002:00005770       ??_C@_1M@JEFHPGGB@?$AAa?$AAr?$AA?9?$AAK?$AAW?$AA?$AA@ 0000000180027770     libucrt:lcidtoname_downlevel.obj
 0002:00005780       ??_C@_1M@MLKIBJOJ@?$AAe?$AAn?$AA?9?$AAP?$AAH?$AA?$AA@ 0000000180027780     libucrt:lcidtoname_downlevel.obj
 0002:00005790       ??_C@_1M@BDNIPEND@?$AAe?$AAs?$AA?9?$AAC?$AAL?$AA?$AA@ 0000000180027790     libucrt:lcidtoname_downlevel.obj
 0002:000057a0       ??_C@_1M@MPNMEKBD@?$AAa?$AAr?$AA?9?$AAA?$AAE?$AA?$AA@ 00000001800277a0     libucrt:lcidtoname_downlevel.obj
 0002:000057b0       ??_C@_1M@KBJALCPI@?$AAe?$AAs?$AA?9?$AAU?$AAY?$AA?$AA@ 00000001800277b0     libucrt:lcidtoname_downlevel.obj
 0002:000057c0       ??_C@_1M@LLCCOAGA@?$AAa?$AAr?$AA?9?$AAB?$AAH?$AA?$AA@ 00000001800277c0     libucrt:lcidtoname_downlevel.obj
 0002:000057d0       ??_C@_1M@PBFNCDEL@?$AAe?$AAs?$AA?9?$AAP?$AAY?$AA?$AA@ 00000001800277d0     libucrt:lcidtoname_downlevel.obj
 0002:000057e0       ??_C@_1M@EDGINPNP@?$AAa?$AAr?$AA?9?$AAQ?$AAA?$AA?$AA@ 00000001800277e0     libucrt:lcidtoname_downlevel.obj
 0002:000057f0       ??_C@_1M@MKDBIIJI@?$AAe?$AAs?$AA?9?$AAB?$AAO?$AA?$AA@ 00000001800277f0     libucrt:lcidtoname_downlevel.obj
 0002:00005800       ??_C@_1M@CPKKEBLD@?$AAe?$AAs?$AA?9?$AAS?$AAV?$AA?$AA@ 0000000180027800     libucrt:lcidtoname_downlevel.obj
 0002:00005810       ??_C@_1M@NDBGMMJL@?$AAe?$AAs?$AA?9?$AAH?$AAN?$AA?$AA@ 0000000180027810     libucrt:lcidtoname_downlevel.obj
 0002:00005820       ??_C@_1M@JIJIBHDP@?$AAe?$AAs?$AA?9?$AAN?$AAI?$AA?$AA@ 0000000180027820     libucrt:lcidtoname_downlevel.obj
 0002:00005830       ??_C@_1M@CGFMKEEK@?$AAe?$AAs?$AA?9?$AAP?$AAR?$AA?$AA@ 0000000180027830     libucrt:lcidtoname_downlevel.obj
 0002:00005840       ??_C@_1O@ICJHKIIK@?$AAz?$AAh?$AA?9?$AAC?$AAH?$AAT?$AA?$AA@ 0000000180027840     libucrt:lcidtoname_downlevel.obj
 0002:00005850       ??_C@_15CLNEJCE@?$AAs?$AAr?$AA?$AA@ 0000000180027850     libucrt:lcidtoname_downlevel.obj
 0002:000066a0       ??_C@_1M@KAHEKEIG@?$AAa?$AAf?$AA?9?$AAz?$AAa?$AA?$AA@ 00000001800286a0     libucrt:lcidtoname_downlevel.obj
 0002:000066b0       ??_C@_1M@GIECOABL@?$AAa?$AAr?$AA?9?$AAa?$AAe?$AA?$AA@ 00000001800286b0     libucrt:lcidtoname_downlevel.obj
 0002:000066c0       ??_C@_1M@BMLMEKGI@?$AAa?$AAr?$AA?9?$AAb?$AAh?$AA?$AA@ 00000001800286c0     libucrt:lcidtoname_downlevel.obj
 0002:000066d0       ??_C@_1M@DAPFDGGB@?$AAa?$AAr?$AA?9?$AAd?$AAz?$AA?$AA@ 00000001800286d0     libucrt:lcidtoname_downlevel.obj
 0002:000066e0       ??_C@_1M@FJNKGKIG@?$AAa?$AAr?$AA?9?$AAe?$AAg?$AA?$AA@ 00000001800286e0     libucrt:lcidtoname_downlevel.obj
 0002:000066f0       ??_C@_1M@FLGKKCLO@?$AAa?$AAr?$AA?9?$AAi?$AAq?$AA?$AA@ 00000001800286f0     libucrt:lcidtoname_downlevel.obj
 0002:00006700       ??_C@_1M@GNDIPALM@?$AAa?$AAr?$AA?9?$AAj?$AAo?$AA?$AA@ 0000000180028700     libucrt:lcidtoname_downlevel.obj
 0002:00006710       ??_C@_1M@DDMJFMGJ@?$AAa?$AAr?$AA?9?$AAk?$AAw?$AA?$AA@ 0000000180028710     libucrt:lcidtoname_downlevel.obj
 0002:00006720       ??_C@_1M@EJALMLHM@?$AAa?$AAr?$AA?9?$AAl?$AAb?$AA?$AA@ 0000000180028720     libucrt:lcidtoname_downlevel.obj
 0002:00006730       ??_C@_1M@MOBDBLOC@?$AAa?$AAr?$AA?9?$AAl?$AAy?$AA?$AA@ 0000000180028730     libucrt:lcidtoname_downlevel.obj
 0002:00006740       ??_C@_1M@JAOCLHDH@?$AAa?$AAr?$AA?9?$AAm?$AAa?$AA?$AA@ 0000000180028740     libucrt:lcidtoname_downlevel.obj
 0002:00006750       ??_C@_1M@JHPMKJIE@?$AAa?$AAr?$AA?9?$AAo?$AAm?$AA?$AA@ 0000000180028750     libucrt:lcidtoname_downlevel.obj
 0002:00006760       ??_C@_1M@OEPGHFNH@?$AAa?$AAr?$AA?9?$AAq?$AAa?$AA?$AA@ 0000000180028760     libucrt:lcidtoname_downlevel.obj
 0002:00006770       ??_C@_1M@KJDONENM@?$AAa?$AAr?$AA?9?$AAs?$AAa?$AA?$AA@ 0000000180028770     libucrt:lcidtoname_downlevel.obj
 0002:00006780       ??_C@_1M@DMJDKLKM@?$AAa?$AAr?$AA?9?$AAs?$AAy?$AA?$AA@ 0000000180028780     libucrt:lcidtoname_downlevel.obj
 0002:00006790       ??_C@_1M@OMFIPEDC@?$AAa?$AAr?$AA?9?$AAt?$AAn?$AA?$AA@ 0000000180028790     libucrt:lcidtoname_downlevel.obj
 0002:000067a0       ??_C@_1M@IHMHGAON@?$AAa?$AAr?$AA?9?$AAy?$AAe?$AA?$AA@ 00000001800287a0     libucrt:lcidtoname_downlevel.obj
 0002:000067b0       ??_C@_1BG@KDCPGJGB@?$AAa?$AAz?$AA?9?$AAa?$AAz?$AA?9?$AAc?$AAy?$AAr?$AAl?$AA?$AA@ 00000001800287b0     libucrt:lcidtoname_downlevel.obj
 0002:000067c8       ??_C@_1BG@IBCKDDOE@?$AAa?$AAz?$AA?9?$AAa?$AAz?$AA?9?$AAl?$AAa?$AAt?$AAn?$AA?$AA@ 00000001800287c8     libucrt:lcidtoname_downlevel.obj
 0002:000067e0       ??_C@_1M@EGPFDCPD@?$AAb?$AAe?$AA?9?$AAb?$AAy?$AA?$AA@ 00000001800287e0     libucrt:lcidtoname_downlevel.obj
 0002:000067f0       ??_C@_1M@PCMGMCGC@?$AAb?$AAg?$AA?9?$AAb?$AAg?$AA?$AA@ 00000001800287f0     libucrt:lcidtoname_downlevel.obj
 0002:00006800       ??_C@_1M@BJBMFGOB@?$AAb?$AAn?$AA?9?$AAi?$AAn?$AA?$AA@ 0000000180028800     libucrt:lcidtoname_downlevel.obj
 0002:00006810       ??_C@_1BG@EAKMMACD@?$AAb?$AAs?$AA?9?$AAb?$AAa?$AA?9?$AAl?$AAa?$AAt?$AAn?$AA?$AA@ 0000000180028810     libucrt:lcidtoname_downlevel.obj
 0002:00006828       ??_C@_1M@KGADAODK@?$AAc?$AAa?$AA?9?$AAe?$AAs?$AA?$AA@ 0000000180028828     libucrt:lcidtoname_downlevel.obj
 0002:00006838       ??_C@_1M@COAJPDHI@?$AAc?$AAs?$AA?9?$AAc?$AAz?$AA?$AA@ 0000000180028838     libucrt:lcidtoname_downlevel.obj
 0002:00006848       ??_C@_1M@DHBHFONH@?$AAc?$AAy?$AA?9?$AAg?$AAb?$AA?$AA@ 0000000180028848     libucrt:lcidtoname_downlevel.obj
 0002:00006858       ??_C@_1M@IMGKELGA@?$AAd?$AAa?$AA?9?$AAd?$AAk?$AA?$AA@ 0000000180028858     libucrt:lcidtoname_downlevel.obj
 0002:00006868       ??_C@_1M@NNDGDNGA@?$AAd?$AAe?$AA?9?$AAa?$AAt?$AA?$AA@ 0000000180028868     libucrt:lcidtoname_downlevel.obj
 0002:00006878       ??_C@_1M@IKDBHEEM@?$AAd?$AAe?$AA?9?$AAc?$AAh?$AA?$AA@ 0000000180028878     libucrt:lcidtoname_downlevel.obj
 0002:00006888       ??_C@_1M@GFFOJMCJ@?$AAd?$AAe?$AA?9?$AAd?$AAe?$AA?$AA@ 0000000180028888     libucrt:lcidtoname_downlevel.obj
 0002:00006898       ??_C@_1M@MDNLKBPM@?$AAd?$AAe?$AA?9?$AAl?$AAi?$AA?$AA@ 0000000180028898     libucrt:lcidtoname_downlevel.obj
 0002:000068a8       ??_C@_1M@NJBEEJNL@?$AAd?$AAe?$AA?9?$AAl?$AAu?$AA?$AA@ 00000001800288a8     libucrt:lcidtoname_downlevel.obj
 0002:000068b8       ??_C@_1O@GNNELBAP@?$AAd?$AAi?$AAv?$AA?9?$AAm?$AAv?$AA?$AA@ 00000001800288b8     libucrt:lcidtoname_downlevel.obj
 0002:000068c8       ??_C@_1M@EJLEOGAE@?$AAe?$AAl?$AA?9?$AAg?$AAr?$AA?$AA@ 00000001800288c8     libucrt:lcidtoname_downlevel.obj
 0002:000068d8       ??_C@_1M@GMPONJN@?$AAe?$AAn?$AA?9?$AAa?$AAu?$AA?$AA@ 00000001800288d8     libucrt:lcidtoname_downlevel.obj
 0002:000068e8       ??_C@_1M@NIDIIPGF@?$AAe?$AAn?$AA?9?$AAb?$AAz?$AA?$AA@ 00000001800288e8     libucrt:lcidtoname_downlevel.obj
 0002:000068f8       ??_C@_1M@JEHMIMFO@?$AAe?$AAn?$AA?9?$AAc?$AAa?$AA?$AA@ 00000001800288f8     libucrt:lcidtoname_downlevel.obj
 0002:00006908       ??_C@_1M@IGMJCDLA@?$AAe?$AAn?$AA?9?$AAc?$AAb?$AA?$AA@ 0000000180028908     libucrt:lcidtoname_downlevel.obj
 0002:00006918       ??_C@_1M@BNFIGBKG@?$AAe?$AAn?$AA?9?$AAg?$AAb?$AA?$AA@ 0000000180028918     libucrt:lcidtoname_downlevel.obj
 0002:00006928       ??_C@_1M@LKIFDIGP@?$AAe?$AAn?$AA?9?$AAi?$AAe?$AA?$AA@ 0000000180028928     libucrt:lcidtoname_downlevel.obj
 0002:00006938       ??_C@_1M@PJKFGCCO@?$AAe?$AAn?$AA?9?$AAj?$AAm?$AA?$AA@ 0000000180028938     libucrt:lcidtoname_downlevel.obj
 0002:00006948       ??_C@_1M@KPPKEPBO@?$AAe?$AAn?$AA?9?$AAn?$AAz?$AA?$AA@ 0000000180028948     libucrt:lcidtoname_downlevel.obj
 0002:00006958       ??_C@_1M@GMDGLDOB@?$AAe?$AAn?$AA?9?$AAp?$AAh?$AA?$AA@ 0000000180028958     libucrt:lcidtoname_downlevel.obj
 0002:00006968       ??_C@_1M@ONGIBJNA@?$AAe?$AAn?$AA?9?$AAt?$AAt?$AA?$AA@ 0000000180028968     libucrt:lcidtoname_downlevel.obj
 0002:00006978       ??_C@_1M@LLODPCMM@?$AAe?$AAn?$AA?9?$AAu?$AAs?$AA?$AA@ 0000000180028978     libucrt:lcidtoname_downlevel.obj
 0002:00006988       ??_C@_1M@LAKFNPAN@?$AAe?$AAn?$AA?9?$AAz?$AAa?$AA?$AA@ 0000000180028988     libucrt:lcidtoname_downlevel.obj
 0002:00006998       ??_C@_1M@MFNHNHEO@?$AAe?$AAn?$AA?9?$AAz?$AAw?$AA?$AA@ 0000000180028998     libucrt:lcidtoname_downlevel.obj
 0002:000069a8       ??_C@_1M@EJEINPHM@?$AAe?$AAs?$AA?9?$AAa?$AAr?$AA?$AA@ 00000001800289a8     libucrt:lcidtoname_downlevel.obj
 0002:000069b8       ??_C@_1M@GNKPCCJA@?$AAe?$AAs?$AA?9?$AAb?$AAo?$AA?$AA@ 00000001800289b8     libucrt:lcidtoname_downlevel.obj
 0002:000069c8       ??_C@_1M@LEEGFONL@?$AAe?$AAs?$AA?9?$AAc?$AAl?$AA?$AA@ 00000001800289c8     libucrt:lcidtoname_downlevel.obj
 0002:000069d8       ??_C@_1M@KGPDPBDF@?$AAe?$AAs?$AA?9?$AAc?$AAo?$AA?$AA@ 00000001800289d8     libucrt:lcidtoname_downlevel.obj
 0002:000069e8       ??_C@_1M@EIAHOHH@?$AAe?$AAs?$AA?9?$AAc?$AAr?$AA?$AA@ 00000001800289e8     libucrt:lcidtoname_downlevel.obj
 0002:000069f8       ??_C@_1M@LLPGMBIN@?$AAe?$AAs?$AA?9?$AAd?$AAo?$AA?$AA@ 00000001800289f8     libucrt:lcidtoname_downlevel.obj
 0002:00006a08       ??_C@_1M@DKHMKNJA@?$AAe?$AAs?$AA?9?$AAe?$AAc?$AA?$AA@ 0000000180028a08     libucrt:lcidtoname_downlevel.obj
 0002:00006a18       ??_C@_1M@GKGFPKAP@?$AAe?$AAs?$AA?9?$AAe?$AAs?$AA?$AA@ 0000000180028a18     libucrt:lcidtoname_downlevel.obj
 0002:00006a28       ??_C@_1M@LKHKGDLN@?$AAe?$AAs?$AA?9?$AAg?$AAt?$AA?$AA@ 0000000180028a28     libucrt:lcidtoname_downlevel.obj
 0002:00006a38       ??_C@_1M@HEIIGGJD@?$AAe?$AAs?$AA?9?$AAh?$AAn?$AA?$AA@ 0000000180028a38     libucrt:lcidtoname_downlevel.obj
 0002:00006a48       ??_C@_1M@FBDHPPGD@?$AAe?$AAs?$AA?9?$AAm?$AAx?$AA?$AA@ 0000000180028a48     libucrt:lcidtoname_downlevel.obj
 0002:00006a58       ??_C@_1M@DPAGLNDH@?$AAe?$AAs?$AA?9?$AAn?$AAi?$AA?$AA@ 0000000180028a58     libucrt:lcidtoname_downlevel.obj
 0002:00006a68       ??_C@_1M@MDGOPGDD@?$AAe?$AAs?$AA?9?$AAp?$AAa?$AA?$AA@ 0000000180028a68     libucrt:lcidtoname_downlevel.obj
 0002:00006a78       ??_C@_1M@EMAMGBGE@?$AAe?$AAs?$AA?9?$AAp?$AAe?$AA?$AA@ 0000000180028a78     libucrt:lcidtoname_downlevel.obj
 0002:00006a88       ??_C@_1M@IBMCAOEC@?$AAe?$AAs?$AA?9?$AAp?$AAr?$AA?$AA@ 0000000180028a88     libucrt:lcidtoname_downlevel.obj
 0002:00006a98       ??_C@_1M@FGMDIJED@?$AAe?$AAs?$AA?9?$AAp?$AAy?$AA?$AA@ 0000000180028a98     libucrt:lcidtoname_downlevel.obj
 0002:00006aa8       ??_C@_1M@IIDEOLLL@?$AAe?$AAs?$AA?9?$AAs?$AAv?$AA?$AA@ 0000000180028aa8     libucrt:lcidtoname_downlevel.obj
 0002:00006ab8       ??_C@_1M@GAOBIPA@?$AAe?$AAs?$AA?9?$AAu?$AAy?$AA?$AA@ 0000000180028ab8     libucrt:lcidtoname_downlevel.obj
 0002:00006ac8       ??_C@_1M@JKFFICHJ@?$AAe?$AAs?$AA?9?$AAv?$AAe?$AA?$AA@ 0000000180028ac8     libucrt:lcidtoname_downlevel.obj
 0002:00006ad8       ??_C@_1M@PNMLOJDF@?$AAe?$AAt?$AA?9?$AAe?$AAe?$AA?$AA@ 0000000180028ad8     libucrt:lcidtoname_downlevel.obj
 0002:00006ae8       ??_C@_1M@GHHLIKEI@?$AAe?$AAu?$AA?9?$AAe?$AAs?$AA?$AA@ 0000000180028ae8     libucrt:lcidtoname_downlevel.obj
 0002:00006af8       ??_C@_1M@PBNONODE@?$AAf?$AAa?$AA?9?$AAi?$AAr?$AA?$AA@ 0000000180028af8     libucrt:lcidtoname_downlevel.obj
 0002:00006b08       ??_C@_1M@JEEHPMIL@?$AAf?$AAi?$AA?9?$AAf?$AAi?$AA?$AA@ 0000000180028b08     libucrt:lcidtoname_downlevel.obj
 0002:00006b18       ??_C@_1M@LMDCNDBA@?$AAf?$AAo?$AA?9?$AAf?$AAo?$AA?$AA@ 0000000180028b18     libucrt:lcidtoname_downlevel.obj
 0002:00006b28       ??_C@_1M@JKEOHLDK@?$AAf?$AAr?$AA?9?$AAb?$AAe?$AA?$AA@ 0000000180028b28     libucrt:lcidtoname_downlevel.obj
 0002:00006b38       ??_C@_1M@NOHADPMI@?$AAf?$AAr?$AA?9?$AAc?$AAa?$AA?$AA@ 0000000180028b38     libucrt:lcidtoname_downlevel.obj
 0002:00006b48       ??_C@_1M@KDHIHAEC@?$AAf?$AAr?$AA?9?$AAc?$AAh?$AA?$AA@ 0000000180028b48     libucrt:lcidtoname_downlevel.obj
 0002:00006b58       ??_C@_1M@MMBBFGAK@?$AAf?$AAr?$AA?9?$AAf?$AAr?$AA?$AA@ 0000000180028b58     libucrt:lcidtoname_downlevel.obj
 0002:00006b68       ??_C@_1M@PAFNENNF@?$AAf?$AAr?$AA?9?$AAl?$AAu?$AA?$AA@ 0000000180028b68     libucrt:lcidtoname_downlevel.obj
 0002:00006b78       ??_C@_1M@EOHDJGDD@?$AAf?$AAr?$AA?9?$AAm?$AAc?$AA?$AA@ 0000000180028b78     libucrt:lcidtoname_downlevel.obj
 0002:00006b88       ??_C@_1M@FAPLLOPF@?$AAg?$AAl?$AA?9?$AAe?$AAs?$AA?$AA@ 0000000180028b88     libucrt:lcidtoname_downlevel.obj
 0002:00006b98       ??_C@_1M@FOPBFLOO@?$AAg?$AAu?$AA?9?$AAi?$AAn?$AA?$AA@ 0000000180028b98     libucrt:lcidtoname_downlevel.obj
 0002:00006ba8       ??_C@_1M@KBMCINPM@?$AAh?$AAe?$AA?9?$AAi?$AAl?$AA?$AA@ 0000000180028ba8     libucrt:lcidtoname_downlevel.obj
 0002:00006bb8       ??_C@_1M@BBPHKFPJ@?$AAh?$AAi?$AA?9?$AAi?$AAn?$AA?$AA@ 0000000180028bb8     libucrt:lcidtoname_downlevel.obj
 0002:00006bc8       ??_C@_1M@PMBNDPHD@?$AAh?$AAr?$AA?9?$AAb?$AAa?$AA?$AA@ 0000000180028bc8     libucrt:lcidtoname_downlevel.obj
 0002:00006bd8       ??_C@_1M@BPCKOEGE@?$AAh?$AAr?$AA?9?$AAh?$AAr?$AA?$AA@ 0000000180028bd8     libucrt:lcidtoname_downlevel.obj
 0002:00006be8       ??_C@_1M@GACBMHKE@?$AAh?$AAu?$AA?9?$AAh?$AAu?$AA?$AA@ 0000000180028be8     libucrt:lcidtoname_downlevel.obj
 0002:00006bf8       ??_C@_1M@MILPAJJC@?$AAh?$AAy?$AA?9?$AAa?$AAm?$AA?$AA@ 0000000180028bf8     libucrt:lcidtoname_downlevel.obj
 0002:00006c08       ??_C@_1M@BABBICEC@?$AAi?$AAd?$AA?9?$AAi?$AAd?$AA?$AA@ 0000000180028c08     libucrt:lcidtoname_downlevel.obj
 0002:00006c18       ??_C@_1M@BIKNHHPF@?$AAi?$AAs?$AA?9?$AAi?$AAs?$AA?$AA@ 0000000180028c18     libucrt:lcidtoname_downlevel.obj
 0002:00006c28       ??_C@_1M@NMPCJPHE@?$AAi?$AAt?$AA?9?$AAc?$AAh?$AA?$AA@ 0000000180028c28     libucrt:lcidtoname_downlevel.obj
 0002:00006c38       ??_C@_1M@GHKGFEDF@?$AAi?$AAt?$AA?9?$AAi?$AAt?$AA?$AA@ 0000000180028c38     libucrt:lcidtoname_downlevel.obj
 0002:00006c48       ??_C@_1M@NIEJCJJA@?$AAj?$AAa?$AA?9?$AAj?$AAp?$AA?$AA@ 0000000180028c48     libucrt:lcidtoname_downlevel.obj
 0002:00006c58       ??_C@_1M@JILFNBIM@?$AAk?$AAa?$AA?9?$AAg?$AAe?$AA?$AA@ 0000000180028c58     libucrt:lcidtoname_downlevel.obj
 0002:00006c68       ??_C@_1M@PACPMGPH@?$AAk?$AAk?$AA?9?$AAk?$AAz?$AA?$AA@ 0000000180028c68     libucrt:lcidtoname_downlevel.obj
 0002:00006c78       ??_C@_1M@IELFGMHA@?$AAk?$AAn?$AA?9?$AAi?$AAn?$AA?$AA@ 0000000180028c78     libucrt:lcidtoname_downlevel.obj
 0002:00006c88       ??_C@_1O@IBBJHCH@?$AAk?$AAo?$AAk?$AA?9?$AAi?$AAn?$AA?$AA@ 0000000180028c88     libucrt:lcidtoname_downlevel.obj
 0002:00006c98       ??_C@_1M@DMHAEOGC@?$AAk?$AAo?$AA?9?$AAk?$AAr?$AA?$AA@ 0000000180028c98     libucrt:lcidtoname_downlevel.obj
 0002:00006ca8       ??_C@_1M@HBAHBIGA@?$AAk?$AAy?$AA?9?$AAk?$AAg?$AA?$AA@ 0000000180028ca8     libucrt:lcidtoname_downlevel.obj
 0002:00006cb8       ??_C@_1M@KPMILCJG@?$AAl?$AAt?$AA?9?$AAl?$AAt?$AA?$AA@ 0000000180028cb8     libucrt:lcidtoname_downlevel.obj
 0002:00006cc8       ??_C@_1M@BDEKKCA@?$AAl?$AAv?$AA?9?$AAl?$AAv?$AA?$AA@ 0000000180028cc8     libucrt:lcidtoname_downlevel.obj
 0002:00006cd8       ??_C@_1M@ELCKCCJJ@?$AAm?$AAi?$AA?9?$AAn?$AAz?$AA?$AA@ 0000000180028cd8     libucrt:lcidtoname_downlevel.obj
 0002:00006ce8       ??_C@_1M@CBOOLAPA@?$AAm?$AAk?$AA?9?$AAm?$AAk?$AA?$AA@ 0000000180028ce8     libucrt:lcidtoname_downlevel.obj
 0002:00006cf8       ??_C@_1M@GPHNBJKN@?$AAm?$AAl?$AA?9?$AAi?$AAn?$AA?$AA@ 0000000180028cf8     libucrt:lcidtoname_downlevel.obj
 0002:00006d08       ??_C@_1M@PABJILIG@?$AAm?$AAn?$AA?9?$AAm?$AAn?$AA?$AA@ 0000000180028d08     libucrt:lcidtoname_downlevel.obj
 0002:00006d18       ??_C@_1M@FGBKKIPG@?$AAm?$AAr?$AA?9?$AAi?$AAn?$AA?$AA@ 0000000180028d18     libucrt:lcidtoname_downlevel.obj
 0002:00006d28       ??_C@_1M@NDBPDDAL@?$AAm?$AAs?$AA?9?$AAb?$AAn?$AA?$AA@ 0000000180028d28     libucrt:lcidtoname_downlevel.obj
 0002:00006d38       ??_C@_1M@OPIHOOPI@?$AAm?$AAs?$AA?9?$AAm?$AAy?$AA?$AA@ 0000000180028d38     libucrt:lcidtoname_downlevel.obj
 0002:00006d48       ??_C@_1M@PPDBCNFM@?$AAm?$AAt?$AA?9?$AAm?$AAt?$AA?$AA@ 0000000180028d48     libucrt:lcidtoname_downlevel.obj
 0002:00006d58       ??_C@_1M@KDJDKMDD@?$AAn?$AAb?$AA?9?$AAn?$AAo?$AA?$AA@ 0000000180028d58     libucrt:lcidtoname_downlevel.obj
 0002:00006d68       ??_C@_1M@KFCFLMJP@?$AAn?$AAl?$AA?9?$AAb?$AAe?$AA?$AA@ 0000000180028d68     libucrt:lcidtoname_downlevel.obj
 0002:00006d78       ??_C@_1M@KPOPDDGO@?$AAn?$AAl?$AA?9?$AAn?$AAl?$AA?$AA@ 0000000180028d78     libucrt:lcidtoname_downlevel.obj
 0002:00006d88       ??_C@_1M@LJKPEMLN@?$AAn?$AAn?$AA?9?$AAn?$AAo?$AA?$AA@ 0000000180028d88     libucrt:lcidtoname_downlevel.obj
 0002:00006d98       ??_C@_1M@BDGHHBFL@?$AAn?$AAs?$AA?9?$AAz?$AAa?$AA?$AA@ 0000000180028d98     libucrt:lcidtoname_downlevel.obj
 0002:00006da8       ??_C@_1M@IDEHOAP@?$AAp?$AAa?$AA?9?$AAi?$AAn?$AA?$AA@ 0000000180028da8     libucrt:lcidtoname_downlevel.obj
 0002:00006db8       ??_C@_1M@HDBKGOGH@?$AAp?$AAl?$AA?9?$AAp?$AAl?$AA?$AA@ 0000000180028db8     libucrt:lcidtoname_downlevel.obj
 0002:00006dc8       ??_C@_1M@LJLLCMEH@?$AAp?$AAt?$AA?9?$AAb?$AAr?$AA?$AA@ 0000000180028dc8     libucrt:lcidtoname_downlevel.obj
 0002:00006dd8       ??_C@_1M@NCMONAAL@?$AAp?$AAt?$AA?9?$AAp?$AAt?$AA?$AA@ 0000000180028dd8     libucrt:lcidtoname_downlevel.obj
 0002:00006de8       ??_C@_1O@EAKMAJDN@?$AAq?$AAu?$AAz?$AA?9?$AAb?$AAo?$AA?$AA@ 0000000180028de8     libucrt:lcidtoname_downlevel.obj
 0002:00006df8       ??_C@_1O@BHHPIGDN@?$AAq?$AAu?$AAz?$AA?9?$AAe?$AAc?$AA?$AA@ 0000000180028df8     libucrt:lcidtoname_downlevel.obj
 0002:00006e08       ??_C@_1O@GBAPEKMJ@?$AAq?$AAu?$AAz?$AA?9?$AAp?$AAe?$AA?$AA@ 0000000180028e08     libucrt:lcidtoname_downlevel.obj
 0002:00006e18       ??_C@_1M@CLGLEFBO@?$AAr?$AAo?$AA?9?$AAr?$AAo?$AA?$AA@ 0000000180028e18     libucrt:lcidtoname_downlevel.obj
 0002:00006e28       ??_C@_1M@CEEDODME@?$AAr?$AAu?$AA?9?$AAr?$AAu?$AA?$AA@ 0000000180028e28     libucrt:lcidtoname_downlevel.obj
 0002:00006e38       ??_C@_1M@HPKKKMPP@?$AAs?$AAa?$AA?9?$AAi?$AAn?$AA?$AA@ 0000000180028e38     libucrt:lcidtoname_downlevel.obj
 0002:00006e48       ??_C@_1M@BKMAIGOJ@?$AAs?$AAe?$AA?9?$AAf?$AAi?$AA?$AA@ 0000000180028e48     libucrt:lcidtoname_downlevel.obj
 0002:00006e58       ??_C@_1M@NDPIFLFI@?$AAs?$AAe?$AA?9?$AAn?$AAo?$AA?$AA@ 0000000180028e58     libucrt:lcidtoname_downlevel.obj
 0002:00006e68       ??_C@_1M@DANKKHJ@?$AAs?$AAe?$AA?9?$AAs?$AAe?$AA?$AA@ 0000000180028e68     libucrt:lcidtoname_downlevel.obj
 0002:00006e78       ??_C@_1M@PNBLONPJ@?$AAs?$AAk?$AA?9?$AAs?$AAk?$AA?$AA@ 0000000180028e78     libucrt:lcidtoname_downlevel.obj
 0002:00006e88       ??_C@_1M@LFMODOAL@?$AAs?$AAl?$AA?9?$AAs?$AAi?$AA?$AA@ 0000000180028e88     libucrt:lcidtoname_downlevel.obj
 0002:00006e98       ??_C@_1O@DFKOMPG@?$AAs?$AAm?$AAa?$AA?9?$AAn?$AAo?$AA?$AA@ 0000000180028e98     libucrt:lcidtoname_downlevel.obj
 0002:00006ea8       ??_C@_1O@NDKPBNNH@?$AAs?$AAm?$AAa?$AA?9?$AAs?$AAe?$AA?$AA@ 0000000180028ea8     libucrt:lcidtoname_downlevel.obj
 0002:00006eb8       ??_C@_1O@PLLKBHAB@?$AAs?$AAm?$AAj?$AA?9?$AAn?$AAo?$AA?$AA@ 0000000180028eb8     libucrt:lcidtoname_downlevel.obj
 0002:00006ec8       ??_C@_1O@CLEPOGCA@?$AAs?$AAm?$AAj?$AA?9?$AAs?$AAe?$AA?$AA@ 0000000180028ec8     libucrt:lcidtoname_downlevel.obj
 0002:00006ed8       ??_C@_1O@DLGJGKMK@?$AAs?$AAm?$AAn?$AA?9?$AAf?$AAi?$AA?$AA@ 0000000180028ed8     libucrt:lcidtoname_downlevel.obj
 0002:00006ee8       ??_C@_1O@OJDJGAJC@?$AAs?$AAm?$AAs?$AA?9?$AAf?$AAi?$AA?$AA@ 0000000180028ee8     libucrt:lcidtoname_downlevel.obj
 0002:00006ef8       ??_C@_1M@BOFOGHPB@?$AAs?$AAq?$AA?9?$AAa?$AAl?$AA?$AA@ 0000000180028ef8     libucrt:lcidtoname_downlevel.obj
 0002:00006f08       ??_C@_1BG@LJBBIPGB@?$AAs?$AAr?$AA?9?$AAb?$AAa?$AA?9?$AAc?$AAy?$AAr?$AAl?$AA?$AA@ 0000000180028f08     libucrt:lcidtoname_downlevel.obj
 0002:00006f20       ??_C@_1BG@JLBENFOE@?$AAs?$AAr?$AA?9?$AAb?$AAa?$AA?9?$AAl?$AAa?$AAt?$AAn?$AA?$AA@ 0000000180028f20     libucrt:lcidtoname_downlevel.obj
 0002:00006f38       ??_C@_1BG@KODPNHE@?$AAs?$AAr?$AA?9?$AAs?$AAp?$AA?9?$AAc?$AAy?$AAr?$AAl?$AA?$AA@ 0000000180028f38     libucrt:lcidtoname_downlevel.obj
 0002:00006f50       ??_C@_1BG@CIOGKHPB@?$AAs?$AAr?$AA?9?$AAs?$AAp?$AA?9?$AAl?$AAa?$AAt?$AAn?$AA?$AA@ 0000000180028f50     libucrt:lcidtoname_downlevel.obj
 0002:00006f68       ??_C@_1M@NGFJLMAC@?$AAs?$AAv?$AA?9?$AAf?$AAi?$AA?$AA@ 0000000180028f68     libucrt:lcidtoname_downlevel.obj
 0002:00006f78       ??_C@_1M@MPJEJAJC@?$AAs?$AAv?$AA?9?$AAs?$AAe?$AA?$AA@ 0000000180028f78     libucrt:lcidtoname_downlevel.obj
 0002:00006f88       ??_C@_1M@MPNDHLFK@?$AAs?$AAw?$AA?9?$AAk?$AAe?$AA?$AA@ 0000000180028f88     libucrt:lcidtoname_downlevel.obj
 0002:00006f98       ??_C@_1O@KOHBJJI@?$AAs?$AAy?$AAr?$AA?9?$AAs?$AAy?$AA?$AA@ 0000000180028f98     libucrt:lcidtoname_downlevel.obj
 0002:00006fa8       ??_C@_1M@LDCEFHA@?$AAt?$AAa?$AA?9?$AAi?$AAn?$AA?$AA@ 0000000180028fa8     libucrt:lcidtoname_downlevel.obj
 0002:00006fb8       ??_C@_1M@CNJOFAK@?$AAt?$AAe?$AA?9?$AAi?$AAn?$AA?$AA@ 0000000180028fb8     libucrt:lcidtoname_downlevel.obj
 0002:00006fc8       ??_C@_1M@GNAECACD@?$AAt?$AAh?$AA?9?$AAt?$AAh?$AA?$AA@ 0000000180028fc8     libucrt:lcidtoname_downlevel.obj
 0002:00006fd8       ??_C@_1M@CHBIHOJO@?$AAt?$AAn?$AA?9?$AAz?$AAa?$AA?$AA@ 0000000180028fd8     libucrt:lcidtoname_downlevel.obj
 0002:00006fe8       ??_C@_1M@GCCMIGPJ@?$AAt?$AAr?$AA?9?$AAt?$AAr?$AA?$AA@ 0000000180028fe8     libucrt:lcidtoname_downlevel.obj
 0002:00006ff8       ??_C@_1M@CELMCNBK@?$AAt?$AAt?$AA?9?$AAr?$AAu?$AA?$AA@ 0000000180028ff8     libucrt:lcidtoname_downlevel.obj
 0002:00007008       ??_C@_1M@KLMCELGA@?$AAu?$AAk?$AA?9?$AAu?$AAa?$AA?$AA@ 0000000180029008     libucrt:lcidtoname_downlevel.obj
 0002:00007018       ??_C@_1M@EPAJJAJF@?$AAu?$AAr?$AA?9?$AAp?$AAk?$AA?$AA@ 0000000180029018     libucrt:lcidtoname_downlevel.obj
 0002:00007028       ??_C@_1BG@GEGPMCDJ@?$AAu?$AAz?$AA?9?$AAu?$AAz?$AA?9?$AAc?$AAy?$AAr?$AAl?$AA?$AA@ 0000000180029028     libucrt:lcidtoname_downlevel.obj
 0002:00007040       ??_C@_1BG@EGGKJILM@?$AAu?$AAz?$AA?9?$AAu?$AAz?$AA?9?$AAl?$AAa?$AAt?$AAn?$AA?$AA@ 0000000180029040     libucrt:lcidtoname_downlevel.obj
 0002:00007058       ??_C@_1M@GFOCLFF@?$AAv?$AAi?$AA?9?$AAv?$AAn?$AA?$AA@ 0000000180029058     libucrt:lcidtoname_downlevel.obj
 0002:00007068       ??_C@_1M@CPAMEDFI@?$AAx?$AAh?$AA?9?$AAz?$AAa?$AA?$AA@ 0000000180029068     libucrt:lcidtoname_downlevel.obj
 0002:00007078       ??_C@_1O@EBKIFIGN@?$AAz?$AAh?$AA?9?$AAc?$AAh?$AAs?$AA?$AA@ 0000000180029078     libucrt:lcidtoname_downlevel.obj
 0002:00007088       ??_C@_1O@NMHPGANE@?$AAz?$AAh?$AA?9?$AAc?$AAh?$AAt?$AA?$AA@ 0000000180029088     libucrt:lcidtoname_downlevel.obj
 0002:00007098       ??_C@_1M@LPINJOMC@?$AAz?$AAh?$AA?9?$AAc?$AAn?$AA?$AA@ 0000000180029098     libucrt:lcidtoname_downlevel.obj
 0002:000070a8       ??_C@_1M@OCJEJODD@?$AAz?$AAh?$AA?9?$AAh?$AAk?$AA?$AA@ 00000001800290a8     libucrt:lcidtoname_downlevel.obj
 0002:000070b8       ??_C@_1M@DNDLJINH@?$AAz?$AAh?$AA?9?$AAm?$AAo?$AA?$AA@ 00000001800290b8     libucrt:lcidtoname_downlevel.obj
 0002:000070c8       ??_C@_1M@MBFDNDND@?$AAz?$AAh?$AA?9?$AAs?$AAg?$AA?$AA@ 00000001800290c8     libucrt:lcidtoname_downlevel.obj
 0002:000070d8       ??_C@_1M@IMEPLEPE@?$AAz?$AAh?$AA?9?$AAt?$AAw?$AA?$AA@ 00000001800290d8     libucrt:lcidtoname_downlevel.obj
 0002:000070e8       ??_C@_1M@BBGHNHJP@?$AAz?$AAu?$AA?9?$AAz?$AAa?$AA?$AA@ 00000001800290e8     libucrt:lcidtoname_downlevel.obj
 0002:00007f40       ??_C@_15EMKDOKLE@?$AAa?$AAr?$AA?$AA@ 0000000180029f40     libucrt:lcidtoname_downlevel.obj
 0002:00007f48       ??_C@_15KNPADPLH@?$AAb?$AAg?$AA?$AA@ 0000000180029f48     libucrt:lcidtoname_downlevel.obj
 0002:00007f50       ??_C@_15EDMHLDMO@?$AAc?$AAa?$AA?$AA@ 0000000180029f50     libucrt:lcidtoname_downlevel.obj
 0002:00007f58       ??_C@_1O@BPEAJADD@?$AAz?$AAh?$AA?9?$AAC?$AAH?$AAS?$AA?$AA@ 0000000180029f58     libucrt:lcidtoname_downlevel.obj
 0002:00007f68       ??_C@_15LJNHCMNK@?$AAc?$AAs?$AA?$AA@ 0000000180029f68     libucrt:lcidtoname_downlevel.obj
 0002:00007f70       ??_C@_15FOMCIDHG@?$AAd?$AAa?$AA?$AA@ 0000000180029f70     libucrt:lcidtoname_downlevel.obj
 0002:00007f78       ??_C@_15NBKABECB@?$AAd?$AAe?$AA?$AA@ 0000000180029f78     libucrt:lcidtoname_downlevel.obj
 0002:00007f80       ??_C@_15GHPEIIAO@?$AAe?$AAl?$AA?$AA@ 0000000180029f80     libucrt:lcidtoname_downlevel.obj
 0002:00007f88       ??_C@_15MNPNEAIF@?$AAe?$AAn?$AA?$AA@ 0000000180029f88     libucrt:lcidtoname_downlevel.obj
 0002:00007f90       ??_C@_15GPIOMPMH@?$AAe?$AAs?$AA?$AA@ 0000000180029f90     libucrt:lcidtoname_downlevel.obj
 0002:00007f98       ??_C@_15NGLOAKJC@?$AAf?$AAi?$AA?$AA@ 0000000180029f98     libucrt:lcidtoname_downlevel.obj
 0002:00007fa0       ??_C@_15FBKGNKAM@?$AAf?$AAr?$AA?$AA@ 0000000180029fa0     libucrt:lcidtoname_downlevel.obj
 0002:00007fa8       ??_C@_15KGGCNEFK@?$AAh?$AAe?$AA?$AA@ 0000000180029fa8     libucrt:lcidtoname_downlevel.obj
 0002:00007fb0       ??_C@_15PGHLIDMF@?$AAh?$AAu?$AA?$AA@ 0000000180029fb0     libucrt:lcidtoname_downlevel.obj
 0002:00007fb8       ??_C@_15BIEMAPLM@?$AAi?$AAs?$AA?$AA@ 0000000180029fb8     libucrt:lcidtoname_downlevel.obj
 0002:00007fc0       ??_C@_15IFJLDHAF@?$AAi?$AAt?$AA?$AA@ 0000000180029fc0     libucrt:lcidtoname_downlevel.obj
 0002:00007fc8       ??_C@_15GEMIOCAG@?$AAj?$AAa?$AA?$AA@ 0000000180029fc8     libucrt:lcidtoname_downlevel.obj
 0002:00007fd0       ??_C@_15EPELEGJA@?$AAk?$AAo?$AA?$AA@ 0000000180029fd0     libucrt:lcidtoname_downlevel.obj
 0002:00007fd8       ??_C@_15NDDHIMN@?$AAn?$AAl?$AA?$AA@ 0000000180029fd8     libucrt:lcidtoname_downlevel.obj
 0002:00007fe0       ??_C@_15BPIGNHCD@?$AAn?$AAo?$AA?$AA@ 0000000180029fe0     libucrt:lcidtoname_downlevel.obj
 0002:00007fe8       ??_C@_15DEOPBLCG@?$AAp?$AAl?$AA?$AA@ 0000000180029fe8     libucrt:lcidtoname_downlevel.obj
 0002:00007ff0       ??_C@_15KBECGEFG@?$AAp?$AAt?$AA?$AA@ 0000000180029ff0     libucrt:lcidtoname_downlevel.obj
 0002:00007ff8       ??_C@_15GLJCBFMD@?$AAr?$AAo?$AA?$AA@ 0000000180029ff8     libucrt:lcidtoname_downlevel.obj
 0002:00008000       ??_C@_15FEDGKCDI@?$AAr?$AAu?$AA?$AA@ 000000018002a000     libucrt:lcidtoname_downlevel.obj
 0002:00008008       ??_C@_15GLKMLLHM@?$AAh?$AAr?$AA?$AA@ 000000018002a008     libucrt:lcidtoname_downlevel.obj
 0002:00008010       ??_C@_15CPKMFBDB@?$AAs?$AAk?$AA?$AA@ 000000018002a010     libucrt:lcidtoname_downlevel.obj
 0002:00008018       ??_C@_15BAAIOGMK@?$AAs?$AAq?$AA?$AA@ 000000018002a018     libucrt:lcidtoname_downlevel.obj
 0002:00008020       ??_C@_15INNPNOHD@?$AAs?$AAv?$AA?$AA@ 000000018002a020     libucrt:lcidtoname_downlevel.obj
 0002:00008028       ??_C@_15CABMMOGH@?$AAt?$AAh?$AA?$AA@ 000000018002a028     libucrt:lcidtoname_downlevel.obj
 0002:00008030       ??_C@_15BPLIHJJM@?$AAt?$AAr?$AA?$AA@ 000000018002a030     libucrt:lcidtoname_downlevel.obj
 0002:00008038       ??_C@_15NEOEKKDJ@?$AAu?$AAr?$AA?$AA@ 000000018002a038     libucrt:lcidtoname_downlevel.obj
 0002:00008040       ??_C@_15NFICGAJK@?$AAi?$AAd?$AA?$AA@ 000000018002a040     libucrt:lcidtoname_downlevel.obj
 0002:00008048       ??_C@_15PJPFLCCM@?$AAu?$AAk?$AA?$AA@ 000000018002a048     libucrt:lcidtoname_downlevel.obj
 0002:00008050       ??_C@_15HPJPHDM@?$AAb?$AAe?$AA?$AA@ 000000018002a050     libucrt:lcidtoname_downlevel.obj
 0002:00008058       ??_C@_15LCHLGJII@?$AAs?$AAl?$AA?$AA@ 000000018002a058     libucrt:lcidtoname_downlevel.obj
 0002:00008060       ??_C@_15PCFJPHHO@?$AAe?$AAt?$AA?$AA@ 000000018002a060     libucrt:lcidtoname_downlevel.obj
 0002:00008068       ??_C@_15HPFPGODN@?$AAl?$AAv?$AA?$AA@ 000000018002a068     libucrt:lcidtoname_downlevel.obj
 0002:00008070       ??_C@_15NFFGKGLG@?$AAl?$AAt?$AA?$AA@ 000000018002a070     libucrt:lcidtoname_downlevel.obj
 0002:00008078       ??_C@_15BDAKCCHN@?$AAf?$AAa?$AA?$AA@ 000000018002a078     libucrt:lcidtoname_downlevel.obj
 0002:00008080       ??_C@_15NFGIAIAJ@?$AAv?$AAi?$AA?$AA@ 000000018002a080     libucrt:lcidtoname_downlevel.obj
 0002:00008088       ??_C@_15LMKNDMHN@?$AAh?$AAy?$AA?$AA@ 000000018002a088     libucrt:lcidtoname_downlevel.obj
 0002:00008090       ??_C@_15IJBHMCFL@?$AAa?$AAz?$AA?$AA@ 000000018002a090     libucrt:lcidtoname_downlevel.obj
 0002:00008098       ??_C@_15EKOFJABL@?$AAe?$AAu?$AA?$AA@ 000000018002a098     libucrt:lcidtoname_downlevel.obj
 0002:000080a0       ??_C@_15BGHADCNK@?$AAm?$AAk?$AA?$AA@ 000000018002a0a0     libucrt:lcidtoname_downlevel.obj
 0002:000080a8       ??_C@_15JDNICKHM@?$AAa?$AAf?$AA?$AA@ 000000018002a0a8     libucrt:lcidtoname_downlevel.obj
 0002:000080b0       ??_C@_15KPJEDBKD@?$AAk?$AAa?$AA?$AA@ 000000018002a0b0     libucrt:lcidtoname_downlevel.obj
 0002:000080b8       ??_C@_15PDNFFFEO@?$AAf?$AAo?$AA?$AA@ 000000018002a0b8     libucrt:lcidtoname_downlevel.obj
 0002:000080c0       ??_C@_15OMLEGLOC@?$AAh?$AAi?$AA?$AA@ 000000018002a0c0     libucrt:lcidtoname_downlevel.obj
 0002:000080c8       ??_C@_15IDNNENKK@?$AAm?$AAs?$AA?$AA@ 000000018002a0c8     libucrt:lcidtoname_downlevel.obj
 0002:000080d0       ??_C@_15MACJNBMH@?$AAk?$AAk?$AA?$AA@ 000000018002a0d0     libucrt:lcidtoname_downlevel.obj
 0002:000080d8       ??_C@_15DKDJEOND@?$AAk?$AAy?$AA?$AA@ 000000018002a0d8     libucrt:lcidtoname_downlevel.obj
 0002:000080e0       ??_C@_15DFGDLJBG@?$AAs?$AAw?$AA?$AA@ 000000018002a0e0     libucrt:lcidtoname_downlevel.obj
 0002:000080e8       ??_C@_15BBFAICNG@?$AAu?$AAz?$AA?$AA@ 000000018002a0e8     libucrt:lcidtoname_downlevel.obj
 0002:000080f0       ??_C@_15DKNDCGEA@?$AAt?$AAt?$AA?$AA@ 000000018002a0f0     libucrt:lcidtoname_downlevel.obj
 0002:000080f8       ??_C@_15MGIFMDPL@?$AAp?$AAa?$AA?$AA@ 000000018002a0f8     libucrt:lcidtoname_downlevel.obj
 0002:00008100       ??_C@_15HCNDBBA@?$AAg?$AAu?$AA?$AA@ 000000018002a100     libucrt:lcidtoname_downlevel.obj
 0002:00008108       ??_C@_15FNBEIBON@?$AAt?$AAa?$AA?$AA@ 000000018002a108     libucrt:lcidtoname_downlevel.obj
 0002:00008110       ??_C@_15NCHGBGLK@?$AAt?$AAe?$AA?$AA@ 000000018002a110     libucrt:lcidtoname_downlevel.obj
 0002:00008118       ??_C@_15PHPHCBPF@?$AAk?$AAn?$AA?$AA@ 000000018002a118     libucrt:lcidtoname_downlevel.obj
 0002:00008120       ??_C@_15DLGBCKMP@?$AAm?$AAr?$AA?$AA@ 000000018002a120     libucrt:lcidtoname_downlevel.obj
 0002:00008128       ??_C@_15EABBLBFF@?$AAs?$AAa?$AA?$AA@ 000000018002a128     libucrt:lcidtoname_downlevel.obj
 0002:00008130       ??_C@_15CBKOMCOI@?$AAm?$AAn?$AA?$AA@ 000000018002a130     libucrt:lcidtoname_downlevel.obj
 0002:00008138       ??_C@_15CKDMCJAF@?$AAg?$AAl?$AA?$AA@ 000000018002a138     libucrt:lcidtoname_downlevel.obj
 0002:00008140       ??_C@_17CNJFBPG@?$AAk?$AAo?$AAk?$AA?$AA@ 000000018002a140     libucrt:lcidtoname_downlevel.obj
 0002:00008148       ??_C@_17FFBJICPL@?$AAs?$AAy?$AAr?$AA?$AA@ 000000018002a148     libucrt:lcidtoname_downlevel.obj
 0002:00008150       ??_C@_17KPNDCPAF@?$AAd?$AAi?$AAv?$AA?$AA@ 000000018002a150     libucrt:lcidtoname_downlevel.obj
 0002:00008158       ??_C@_11LOCGONAA@?$AA?$AA@ 000000018002a158     libucrt:lcidtoname_downlevel.obj
 0002:00008160       ??_C@_1M@OKAHONE@?$AAa?$AAr?$AA?9?$AAS?$AAA?$AA?$AA@ 000000018002a160     libucrt:lcidtoname_downlevel.obj
 0002:00008170       ??_C@_1M@FFFIGIGK@?$AAb?$AAg?$AA?9?$AAB?$AAG?$AA?$AA@ 000000018002a170     libucrt:lcidtoname_downlevel.obj
 0002:00008180       ??_C@_1M@BJNKEDC@?$AAc?$AAa?$AA?9?$AAE?$AAS?$AA?$AA@ 000000018002a180     libucrt:lcidtoname_downlevel.obj
 0002:00008190       ??_C@_1M@IJJHFJHA@?$AAc?$AAs?$AA?9?$AAC?$AAZ?$AA?$AA@ 000000018002a190     libucrt:lcidtoname_downlevel.obj
 0002:000081a0       ??_C@_1M@CLPEOBGI@?$AAd?$AAa?$AA?9?$AAD?$AAK?$AA?$AA@ 000000018002a1a0     libucrt:lcidtoname_downlevel.obj
 0002:000081b0       ??_C@_1M@MCMADGCB@?$AAd?$AAe?$AA?9?$AAD?$AAE?$AA?$AA@ 000000018002a1b0     libucrt:lcidtoname_downlevel.obj
 0002:000081c0       ??_C@_1M@OOCKEMAM@?$AAe?$AAl?$AA?9?$AAG?$AAR?$AA?$AA@ 000000018002a1c0     libucrt:lcidtoname_downlevel.obj
 0002:000081d0       ??_C@_1M@DDNJFGID@?$AAf?$AAi?$AA?9?$AAF?$AAI?$AA?$AA@ 000000018002a1d0     libucrt:lcidtoname_downlevel.obj
 0002:000081e0       ??_C@_1M@GLIPPMAC@?$AAf?$AAr?$AA?9?$AAF?$AAR?$AA?$AA@ 000000018002a1e0     libucrt:lcidtoname_downlevel.obj
 0002:000081f0       ??_C@_1M@GFMCHPE@?$AAh?$AAe?$AA?9?$AAI?$AAL?$AA?$AA@ 000000018002a1f0     libucrt:lcidtoname_downlevel.obj
 0002:00008200       ??_C@_1M@MHLPGNKM@?$AAh?$AAu?$AA?9?$AAH?$AAU?$AA?$AA@ 000000018002a200     libucrt:lcidtoname_downlevel.obj
 0002:00008210       ??_C@_1M@LPDDNNPN@?$AAi?$AAs?$AA?9?$AAI?$AAS?$AA?$AA@ 000000018002a210     libucrt:lcidtoname_downlevel.obj
 0002:00008220       ??_C@_1M@MADIPODN@?$AAi?$AAt?$AA?9?$AAI?$AAT?$AA?$AA@ 000000018002a220     libucrt:lcidtoname_downlevel.obj
 0002:00008230       ??_C@_1M@IHBJJGG@?$AAn?$AAl?$AA?9?$AAN?$AAL?$AA?$AA@ 000000018002a230     libucrt:lcidtoname_downlevel.obj
 0002:00008240       ??_C@_1M@EANAGDL@?$AAn?$AAb?$AA?9?$AAN?$AAO?$AA?$AA@ 000000018002a240     libucrt:lcidtoname_downlevel.obj
 0002:00008250       ??_C@_1M@NEIEMEGP@?$AAp?$AAl?$AA?9?$AAP?$AAL?$AA?$AA@ 000000018002a250     libucrt:lcidtoname_downlevel.obj
 0002:00008260       ??_C@_1M@BOCFIGEP@?$AAp?$AAt?$AA?9?$AAB?$AAR?$AA?$AA@ 000000018002a260     libucrt:lcidtoname_downlevel.obj
 0002:00008270       ??_C@_1M@IMPFOPBG@?$AAr?$AAo?$AA?9?$AAR?$AAO?$AA?$AA@ 000000018002a270     libucrt:lcidtoname_downlevel.obj
 0002:00008280       ??_C@_1M@IDNNEJMM@?$AAr?$AAu?$AA?9?$AAR?$AAU?$AA?$AA@ 000000018002a280     libucrt:lcidtoname_downlevel.obj
 0002:00008290       ??_C@_1M@LILEEOGM@?$AAh?$AAr?$AA?9?$AAH?$AAR?$AA?$AA@ 000000018002a290     libucrt:lcidtoname_downlevel.obj
 0002:000082a0       ??_C@_1M@FKIFEHPB@?$AAs?$AAk?$AA?9?$AAS?$AAK?$AA?$AA@ 000000018002a2a0     libucrt:lcidtoname_downlevel.obj
 0002:000082b0       ??_C@_1M@LJMAMNPJ@?$AAs?$AAq?$AA?9?$AAA?$AAL?$AA?$AA@ 000000018002a2b0     libucrt:lcidtoname_downlevel.obj
 0002:000082c0       ??_C@_1M@GIAKDKJK@?$AAs?$AAv?$AA?9?$AAS?$AAE?$AA?$AA@ 000000018002a2c0     libucrt:lcidtoname_downlevel.obj
 0002:000082d0       ??_C@_1M@MKJKIKCL@?$AAt?$AAh?$AA?9?$AAT?$AAH?$AA?$AA@ 000000018002a2d0     libucrt:lcidtoname_downlevel.obj
 0002:000082e0       ??_C@_1M@MFLCCMPB@?$AAt?$AAr?$AA?9?$AAT?$AAR?$AA?$AA@ 000000018002a2e0     libucrt:lcidtoname_downlevel.obj
 0002:000082f0       ??_C@_1M@OIJHDKJN@?$AAu?$AAr?$AA?9?$AAP?$AAK?$AA?$AA@ 000000018002a2f0     libucrt:lcidtoname_downlevel.obj
 0002:00008300       ??_C@_1M@LHIPCIEK@?$AAi?$AAd?$AA?9?$AAI?$AAD?$AA?$AA@ 000000018002a300     libucrt:lcidtoname_downlevel.obj
 0002:00008310       ??_C@_1M@MFMOBGI@?$AAu?$AAk?$AA?9?$AAU?$AAA?$AA?$AA@ 000000018002a310     libucrt:lcidtoname_downlevel.obj
 0002:00008320       ??_C@_1M@OBGLJIPL@?$AAb?$AAe?$AA?9?$AAB?$AAY?$AA?$AA@ 000000018002a320     libucrt:lcidtoname_downlevel.obj
 0002:00008330       ??_C@_1M@BCFAJEAD@?$AAs?$AAl?$AA?9?$AAS?$AAI?$AA?$AA@ 000000018002a330     libucrt:lcidtoname_downlevel.obj
 0002:00008340       ??_C@_1M@FKFFEDDN@?$AAe?$AAt?$AA?9?$AAE?$AAE?$AA?$AA@ 000000018002a340     libucrt:lcidtoname_downlevel.obj
 0002:00008350       ??_C@_1M@KGKKAACI@?$AAl?$AAv?$AA?9?$AAL?$AAV?$AA?$AA@ 000000018002a350     libucrt:lcidtoname_downlevel.obj
 0002:00008360       ??_C@_1M@IFGBIJO@?$AAl?$AAt?$AA?9?$AAL?$AAT?$AA?$AA@ 000000018002a360     libucrt:lcidtoname_downlevel.obj
 0002:00008370       ??_C@_1M@FGEAHEDM@?$AAf?$AAa?$AA?9?$AAI?$AAR?$AA?$AA@ 000000018002a370     libucrt:lcidtoname_downlevel.obj
 0002:00008380       ??_C@_1M@KBMAIBFN@?$AAv?$AAi?$AA?9?$AAV?$AAN?$AA?$AA@ 000000018002a380     libucrt:lcidtoname_downlevel.obj
 0002:00008390       ?large_power_data@?1??multiply_by_power_of_ten@__crt_strtox@@YA_NAEAUbig_integer@2@I@Z@4QBIB 000000018002a390     libucrt:cfout.obj
 0002:00008ca0       ?large_power_indices@?1??multiply_by_power_of_ten@__crt_strtox@@YA_NAEAUbig_integer@2@I@Z@4QBUunpack_index@?1??12@YA_N0I@Z@B 000000018002aca0     libucrt:cfout.obj
 0002:00008d38       ?small_powers_of_ten@?1??multiply_by_power_of_ten@__crt_strtox@@YA_NAEAUbig_integer@2@I@Z@4QBIB 000000018002ad38     libucrt:cfout.obj
 0002:00008d5c       ??_C@_01GBGANLPD@0?$AA@    000000018002ad5c     libucrt:cfout.obj
 0002:00008d60       ??_C@_05DNEBIAHO@1?$CDINF?$AA@ 000000018002ad60     libucrt:cfout.obj
 0002:00008d68       ??_C@_06IMKFLFPG@1?$CDQNAN?$AA@ 000000018002ad68     libucrt:cfout.obj
 0002:00008d70       ??_C@_06PGGFOGJG@1?$CDSNAN?$AA@ 000000018002ad70     libucrt:cfout.obj
 0002:00008d78       ??_C@_05PHHOCPM@1?$CDIND?$AA@ 000000018002ad78     libucrt:cfout.obj
 0002:00008d80       __real@3ff0000000000000    000000018002ad80     libucrt:ceil.obj
 0002:00008fe0       __log10_256_lead           000000018002afe0     libucrt:log10_256_lead_tail_table.obj
 0002:000097f0       __log10_256_tail           000000018002b7f0     libucrt:log10_256_lead_tail_table.obj
 0002:0000a000       __log_F_inv_qword          000000018002c000     libucrt:log_f_inv_qword_table.obj
 0002:0000a810       ??_C@_05HGHHAHAP@log10?$AA@ 000000018002c810     libucrt:log_special.obj
 0002:0000a830       ??_C@_1BA@BALFACEM@?$AAC?$AAO?$AAN?$AAO?$AAU?$AAT?$AA$?$AA?$AA@ 000000018002c830     libucrt:initcon.obj
 0002:0000a8a0       _load_config_used          000000018002c8a0     LIBCMT:loadcfg.obj
 0002:0000a9a0       _tls_used                  000000018002c9a0     LIBCMT:tlssup.obj
 0002:0000a9c8       ??_R4exception@std@@6B@    000000018002c9c8     LIBCMT:throw_bad_alloc.obj
 0002:0000a9f0       ??_R3exception@std@@8      000000018002c9f0     LIBCMT:throw_bad_alloc.obj
 0002:0000aa08       ??_R2exception@std@@8      000000018002ca08     LIBCMT:throw_bad_alloc.obj
 0002:0000aa18       ??_R1A@?0A@EA@exception@std@@8 000000018002ca18     LIBCMT:throw_bad_alloc.obj
 0002:0000aa40       ??_R4bad_alloc@std@@6B@    000000018002ca40     LIBCMT:throw_bad_alloc.obj
 0002:0000aa68       ??_R3bad_alloc@std@@8      000000018002ca68     LIBCMT:throw_bad_alloc.obj
 0002:0000aa80       ??_R2bad_alloc@std@@8      000000018002ca80     LIBCMT:throw_bad_alloc.obj
 0002:0000aa98       ??_R1A@?0A@EA@bad_alloc@std@@8 000000018002ca98     LIBCMT:throw_bad_alloc.obj
 0002:0000aac0       ??_R4bad_array_new_length@std@@6B@ 000000018002cac0     LIBCMT:throw_bad_alloc.obj
 0002:0000aae8       ??_R3bad_array_new_length@std@@8 000000018002cae8     LIBCMT:throw_bad_alloc.obj
 0002:0000ab00       ??_R2bad_array_new_length@std@@8 000000018002cb00     LIBCMT:throw_bad_alloc.obj
 0002:0000ab20       ??_R1A@?0A@EA@bad_array_new_length@std@@8 000000018002cb20     LIBCMT:throw_bad_alloc.obj
 0002:0000ab48       ??_R4type_info@@6B@        000000018002cb48     LIBCMT:std_type_info_static.obj
 0002:0000ab70       ??_R3type_info@@8          000000018002cb70     LIBCMT:std_type_info_static.obj
 0002:0000ab88       ??_R2type_info@@8          000000018002cb88     LIBCMT:std_type_info_static.obj
 0002:0000ab98       ??_R1A@?0A@EA@type_info@@8 000000018002cb98     LIBCMT:std_type_info_static.obj
 0002:0000abc0       ??_R4bad_exception@std@@6B@ 000000018002cbc0     libvcruntime:frame.obj
 0002:0000abe8       ??_R3bad_exception@std@@8  000000018002cbe8     libvcruntime:frame.obj
 0002:0000ac00       ??_R2bad_exception@std@@8  000000018002cc00     libvcruntime:frame.obj
 0002:0000ac18       ??_R1A@?0A@EA@bad_exception@std@@8 000000018002cc18     libvcruntime:frame.obj
 0002:0000b038       __rtc_iaa                  000000018002d038     LIBCMT:_initsect_.obj
 0002:0000b040       __rtc_izz                  000000018002d040     LIBCMT:_initsect_.obj
 0002:0000b048       __rtc_taa                  000000018002d048     LIBCMT:_initsect_.obj
 0002:0000b050       __rtc_tzz                  000000018002d050     LIBCMT:_initsect_.obj
 0002:0000b058       _tls_start                 000000018002d058     LIBCMT:tlssup.obj
 0002:0000b05c       _Init_thread_epoch         000000018002d05c     LIBCMT:thread_safe_statics.obj
 0002:0000b060       _tls_end                   000000018002d060     LIBCMT:tlssup.obj
 0002:0000c6f8       _TI2?AVbad_alloc@std@@     000000018002e6f8     LIBCMT:throw_bad_alloc.obj
 0002:0000c718       _CTA2?AVbad_alloc@std@@    000000018002e718     LIBCMT:throw_bad_alloc.obj
 0002:0000c730       _CT??_R0?AVbad_alloc@std@@@8??0bad_alloc@std@@QEAA@AEBV01@@Z24 000000018002e730     LIBCMT:throw_bad_alloc.obj
 0002:0000c758       _CT??_R0?AVexception@std@@@8??0exception@std@@QEAA@AEBV01@@Z24 000000018002e758     LIBCMT:throw_bad_alloc.obj
 0002:0000c780       _TI3?AVbad_array_new_length@std@@ 000000018002e780     LIBCMT:throw_bad_alloc.obj
 0002:0000c7a0       _CTA3?AVbad_array_new_length@std@@ 000000018002e7a0     LIBCMT:throw_bad_alloc.obj
 0002:0000c7c0       _CT??_R0?AVbad_array_new_length@std@@@8??0bad_array_new_length@std@@QEAA@AEBV01@@Z24 000000018002e7c0     LIBCMT:throw_bad_alloc.obj
 0002:0000c7e8       _TI2?AVbad_exception@std@@ 000000018002e7e8     libvcruntime:frame.obj
 0002:0000c808       _CTA2?AVbad_exception@std@@ 000000018002e808     libvcruntime:frame.obj
 0002:0000c820       _CT??_R0?AVbad_exception@std@@@8??0bad_exception@std@@QEAA@AEBV01@@Z24 000000018002e820     libvcruntime:frame.obj
 0002:0000c848       __pobjMapEntryFirst        000000018002e848     OposVariant.obj
 0002:0000c850       __pobjMapEntryLast         000000018002e850     OposVariant.obj
 0002:0000c90c       __IMPORT_DESCRIPTOR_KERNEL32 000000018002e90c     kernel32:KERNEL32.dll
 0002:0000c920       __IMPORT_DESCRIPTOR_USER32 000000018002e920     user32:USER32.dll
 0002:0000c934       __IMPORT_DESCRIPTOR_GDI32  000000018002e934     gdi32:GDI32.dll
 0002:0000c948       __IMPORT_DESCRIPTOR_ADVAPI32 000000018002e948     advapi32:ADVAPI32.dll
 0002:0000c95c       __IMPORT_DESCRIPTOR_ole32  000000018002e95c     ole32:ole32.dll
 0002:0000c970       __IMPORT_DESCRIPTOR_OLEAUT32 000000018002e970     oleaut32:OLEAUT32.dll
 0002:0000c984       __NULL_IMPORT_DESCRIPTOR   000000018002e984     kernel32:KERNEL32.dll
 0003:00000000       ?vszContents@?6??Save@?$IPersistStorageImpl@VCOPOSCashChanger@@@ATL@@UEAAJPEAUIStorage@@H@Z@4PEB_WEB 0000000180030000     CashChanger.obj
 0003:00000010       ?wc@?1??GetWndClassInfo@?$CWindowImpl@VCOPOSCashChanger@@VCWindow@ATL@@V?$CWinTraits@$0FGAAAAAA@$0A@@3@@ATL@@SAAEAU_ATL_WNDCLASSINFOW@3@XZ@4U43@A 0000000180030010     CashChanger.obj
 0003:00000108       ?rcDefault@CWindow@ATL@@2UtagRECT@@A 0000000180030108     CashChanger.obj
 0003:00000118       ?s_Claim@?7??GetIDsOfNames@CComTypeInfoHolder@ATL@@QEAAJAEBU_GUID@@PEAPEA_WIKPEAJ@Z@4PA_WA 0000000180030118     CashChanger.obj
 0003:00000130       ?s_Release@?7??GetIDsOfNames@CComTypeInfoHolder@ATL@@QEAAJAEBU_GUID@@PEAPEA_WIKPEAJ@Z@4PA_WA 0000000180030130     CashChanger.obj
 0003:00000150       ?_tih@?$IDispatchImpl@UIOPOSCashChanger@@$1?IID_IOPOSCashChanger@@3U_GUID@@B$1?LIBID_OposCashChanger_CCO@@3U3@B$00$0A@VCComTypeInfoHolder@ATL@@@ATL@@1VCComTypeInfoHolder@2@A 0000000180030150     CashChanger.obj
 0003:00000188       ?_tih@?$IProvideClassInfo2Impl@$1?CLSID_OPOSCashChanger@@3U_GUID@@B$1?DIID__IOPOSCashChangerEvents@@3U2@B$1?LIBID_OposCashChanger_CCO@@3U2@B$00$0A@VCComTypeInfoHolder@ATL@@@ATL@@1VCComTypeInfoHolder@2@A 0000000180030188     CashChanger.obj
 0003:00000250       ?g_ControlVersion@@3JA     0000000180030250     CashChangerImpl.obj
 0003:00000258       ?g_WindowName@@3PA_WA      0000000180030258     CashChangerImpl.obj
 0003:00000280       ?g_ControlDescription@@3PADA 0000000180030280     CashChangerImpl.obj
 0003:000003b8       __scrt_native_dllmain_reason 00000001800303b8     LIBCMT:utility.obj
 0003:000003bc       _Init_global_epoch         00000001800303bc     LIBCMT:thread_safe_statics.obj
 0003:000003c0       __security_cookie_complement 00000001800303c0     LIBCMT:gs_cookie.obj
 0003:000003c8       __security_cookie          00000001800303c8     LIBCMT:gs_cookie.obj
 0003:000003d0       __isa_available            00000001800303d0     LIBCMT:_cpu_disp_.obj
 0003:000003d4       __isa_enabled              00000001800303d4     LIBCMT:_cpu_disp_.obj
 0003:000003d8       __memcpy_nt_iters          00000001800303d8     LIBCMT:_cpu_disp_.obj
 0003:000003f8       __abort_behavior           00000001800303f8     libucrt:abort.obj
 0003:00000410       _iob                       0000000180030410     libucrt:_file.obj
 0003:00000520       __acrt_initial_locale_data 0000000180030520     libucrt:nlsdata.obj
 0003:00000678       __acrt_initial_locale_pointers 0000000180030678     libucrt:nlsdata.obj
 0003:00000688       __acrt_wide_c_locale_string 0000000180030688     libucrt:nlsdata.obj
 0003:00000690       __acrt_initial_multibyte_data 0000000180030690     libucrt:mbctype.obj
 0003:00000bd0       _pwctype                   0000000180030bd0     libucrt:ctype.obj
 0003:00000bd8       __globallocalestatus       0000000180030bd8     libucrt:glstatus.obj
 0003:00000be0       __acrt_lconv_c             0000000180030be0     libucrt:localeconv.obj
 0003:00000c78       __acrt_lconv_static_decimal 0000000180030c78     libucrt:localeconv.obj
 0003:00000c7c       __acrt_lconv_static_W_decimal 0000000180030c7c     libucrt:localeconv.obj
 0003:00000c98       __dcrt_lowio_console_output_handle 0000000180030c98     libucrt:initcon.obj
 0003:00000ca0       _fltused                   0000000180030ca0     LIBCMT:fltused.obj
 0003:00000ca8       ??_R0?AVbad_alloc@std@@@8  0000000180030ca8     LIBCMT:throw_bad_alloc.obj
 0003:00000cd0       ??_R0?AVexception@std@@@8  0000000180030cd0     LIBCMT:throw_bad_alloc.obj
 0003:00000cf8       ??_R0?AVbad_array_new_length@std@@@8 0000000180030cf8     LIBCMT:throw_bad_alloc.obj
 0003:00000d28       ??_R0?AVtype_info@@@8      0000000180030d28     LIBCMT:std_type_info_static.obj
 0003:00000d48       ??_R0?AVbad_exception@std@@@8 0000000180030d48     libvcruntime:frame.obj
 0003:00000d70       ?m_bInitFailed@CAtlBaseModule@ATL@@2_NA 0000000180030d70     OposVariant.obj
 0003:00000d78       ?_pPerfRegFunc@ATL@@3P6AJPEAUHINSTANCE__@@@ZEA 0000000180030d78     OposVariant.obj
 0003:00000d80       ?_pPerfUnRegFunc@ATL@@3P6AJXZEA 0000000180030d80     OposVariant.obj
 0003:00000d88       ?_AtlRegisterPerUser@ATL@@3_NA 0000000180030d88     OposVariant.obj
 0003:00000d90       ?_pAtlModule@ATL@@3PEAVCAtlModule@1@EA 0000000180030d90     OposVariant.obj
 0003:00000d98       ?_pModule@ATL@@3PEAVCComModule@1@EA 0000000180030d98     OposVariant.obj
 0003:00000da0       ?_AtlComModule@ATL@@3VCAtlComModule@1@A 0000000180030da0     OposVariant.obj
 0003:00000df0       ?_AtlWinModule@ATL@@3VCAtlWinModule@1@A 0000000180030df0     OposVariant.obj
 0003:00000e38       ?_entries@?1??GetConnMap@COPOSCashChanger@@SAPEBU_ATL_CONNMAP_ENTRY@ATL@@PEAH@Z@4QBU34@B 0000000180030e38     CashChanger.obj
 0003:00000e50       ?$TSS0@?1??GetConnMap@COPOSCashChanger@@SAPEBU_ATL_CONNMAP_ENTRY@ATL@@PEAH@Z@4HA 0000000180030e50     CashChanger.obj
 0003:00000e58       ?_OptionsStorage@?1??__local_stdio_printf_options@@9@4_KA 0000000180030e58     CashChanger.obj
 0003:00000e60       ?m_libid@CAtlModule@ATL@@2U_GUID@@A 0000000180030e60     CashChanger.obj
 0003:00000e70       ?_Module@@3VCComModule@ATL@@A 0000000180030e70     CashChanger.obj
 0003:00000ec0       ?pConnMap@?$IConnectionPointContainerImpl@VCOPOSCashChanger@@@ATL@@0PEBU_ATL_CONNMAP_ENTRY@2@EB 0000000180030ec0     CashChanger.obj
 0003:00000ec8       ?s_nInstances@COPOSCashChanger@@1HA 0000000180030ec8     CashChangerImpl.obj
 0003:00000ed0       __scrt_current_native_startup_state 0000000180030ed0     LIBCMT:utility.obj
 0003:00000ed8       __scrt_native_startup_lock 0000000180030ed8     LIBCMT:utility.obj
 0003:000014d0       _tls_index                 00000001800314d0     LIBCMT:tlssup.obj
 0003:000014d8       __favor                    00000001800314d8     LIBCMT:_cpu_disp_.obj
 0003:000014dc       __scrt_debugger_hook_flag  00000001800314dc     LIBCMT:utility_desktop.obj
 0003:000014e0       ?__type_info_root_node@@3U__type_info_node@@A 00000001800314e0     LIBCMT:tncleanup.obj
 0003:000014f0       ?_OptionsStorage@?1??__local_stdio_scanf_options@@9@4_KA 00000001800314f0     LIBCMT:default_local_stdio_options.obj
 0003:00001500       ?_AtlBaseModule@ATL@@3VCAtlBaseModule@1@A 0000000180031500     atls:atlbase.obj
 0003:00001560       ?__AtlThunkPool@@3PEAT_SLIST_HEADER@@EA 0000000180031560     atls:atlthunk.obj
 0003:0000158c       __@@_PchSym_@00@UyrmzirvhUrmgvinvwrzgvUexgllohUzgohOmzgrevkilqPBACIAJCBDBUlyqiUznwGEUhgwzucOlyq@4B2008FD98C1DD4 000000018003158c     atls:stdafx.obj
 0003:00001590       ?__WinRTOutOfMemoryExceptionCallback@@3P6APEAXXZEA 0000000180031590     libvcruntime:ehhelpers.obj
 0003:00001598       __pPurecall                0000000180031598     libvcruntime:purevirt_data.obj
 0003:000016a0       ?pArgList@UnDecorator@@0PEAVReplicator@@EA 00000001800316a0     libvcruntime:undname.obj
 0003:000016a8       ?pZNameList@UnDecorator@@0PEAVReplicator@@EA 00000001800316a8     libvcruntime:undname.obj
 0003:000016b0       ?pTemplateArgList@UnDecorator@@0PEAVReplicator@@EA 00000001800316b0     libvcruntime:undname.obj
 0003:000016b8       ?gName@UnDecorator@@0PEBDEB 00000001800316b8     libvcruntime:undname.obj
 0003:000016c0       ?name@UnDecorator@@0PEBDEB 00000001800316c0     libvcruntime:undname.obj
 0003:000016c8       ?disableFlags@UnDecorator@@0KA 00000001800316c8     libvcruntime:undname.obj
 0003:000016cc       ?fExplicitTemplateParams@UnDecorator@@0_NA 00000001800316cc     libvcruntime:undname.obj
 0003:000016cd       ?fGetTemplateArgumentList@UnDecorator@@0_NA 00000001800316cd     libvcruntime:undname.obj
 0003:000016d0       ?m_pGetParameter@UnDecorator@@0P6APEADJ@ZEA 00000001800316d0     libvcruntime:undname.obj
 0003:000016d8       ?m_CHPENameOffset@UnDecorator@@0KA 00000001800316d8     libvcruntime:undname.obj
 0003:000016dc       ?m_recursionLevel@UnDecorator@@0KA 00000001800316dc     libvcruntime:undname.obj
 0003:00001720       ?c_exit_complete@?1???R<lambda_6e4b09c48022b2350581041d5f6b0c4c>@@QEBA@XZ@4_NA 0000000180031720     libucrt:exit.obj
 0003:00001838       __dcrt_initial_wide_environment 0000000180031838     libucrt:environment_initialization.obj
 0003:00001840       __dcrt_initial_narrow_environment 0000000180031840     libucrt:environment_initialization.obj
 0003:00001848       _environ_table             0000000180031848     libucrt:environment_initialization.obj
 0003:00001850       _wenviron_table            0000000180031850     libucrt:environment_initialization.obj
 0003:00001858       __acrt_atexit_table        0000000180031858     libucrt:onexit.obj
 0003:00001870       __acrt_at_quick_exit_table 0000000180031870     libucrt:onexit.obj
 0003:00001a40       _nstream                   0000000180031a40     libucrt:_file.obj
 0003:00001a48       __piob                     0000000180031a48     libucrt:_file.obj
 0003:00001a58       __acrt_stdout_buffer       0000000180031a58     libucrt:_sftbuf.obj
 0003:00001a60       __acrt_stderr_buffer       0000000180031a60     libucrt:_sftbuf.obj
 0003:00001a68       __acrt_locale_changed_data 0000000180031a68     libucrt:wsetlocale.obj
 0003:00001a70       __acrt_current_locale_data 0000000180031a70     libucrt:nlsdata.obj
 0003:00001a80       __pioinfo                  0000000180031a80     libucrt:ioinit.obj
 0003:00001e80       _nhandle                   0000000180031e80     libucrt:ioinit.obj
 0003:000020c8       __acrt_current_multibyte_data 00000001800320c8     libucrt:mbctype.obj
 0003:000020d0       _mbctype                   00000001800320d0     libucrt:mbctype.obj
 0003:000020d8       _mbcasemap                 00000001800320d8     libucrt:mbctype.obj
 0003:000020e8       __argc                     00000001800320e8     libucrt:argv_data.obj
 0003:000020f0       __argv                     00000001800320f0     libucrt:argv_data.obj
 0003:000020f8       __wargv                    00000001800320f8     libucrt:argv_data.obj
 0003:00002100       _acmdln                    0000000180032100     libucrt:argv_data.obj
 0003:00002108       _wcmdln                    0000000180032108     libucrt:argv_data.obj
 0003:00002110       _pgmptr                    0000000180032110     libucrt:argv_data.obj
 0003:00002118       __acrt_heap                0000000180032118     libucrt:heap_handle.obj
 0003:0000214c       __acrt_lconv_static_null   000000018003214c     libucrt:localeconv.obj
 0003:00002150       __acrt_lconv_static_W_null 0000000180032150     libucrt:localeconv.obj
 0003:00002158       __fma3_is_available        0000000180032158     libucrt:fma3_available.obj
 0003:0000215c       __use_fma3_lib             000000018003215c     libucrt:fma3_available.obj
 0003:00002160       __dyn_tls_init_callback    0000000180032160     <common>
 0003:00002168       __scrt_ucrt_dll_is_in_use  0000000180032168     <common>

 entry point at        0001:0000f154

 Static symbols

 0000:fffc4000       .debug$S                   0000000180000000     gdi32:GDI32.dll
 0000:fffc4000       .debug$S                   0000000180000000     gdi32:GDI32.dll
 0000:fffc4000       .debug$S                   0000000180000000     gdi32:GDI32.dll
 0000:fffc4000       .debug$S                   0000000180000000     user32:USER32.dll
 0000:fffc4000       .debug$S                   0000000180000000     user32:USER32.dll
 0000:fffc4000       .debug$S                   0000000180000000     gdi32:GDI32.dll
 0000:fffc4000       .debug$S                   0000000180000000     user32:USER32.dll
 0000:fffc4000       .debug$S                   0000000180000000     gdi32:GDI32.dll
 0000:fffc4000       .debug$S                   0000000180000000     gdi32:GDI32.dll
 0000:fffc4000       .debug$S                   0000000180000000     user32:USER32.dll
 0000:fffc4000       .debug$S                   0000000180000000     user32:USER32.dll
 0000:fffc4000       .debug$S                   0000000180000000     kernel32:KERNEL32.dll
 0000:fffc4000       .debug$S                   0000000180000000     user32:USER32.dll
 0000:fffc4000       .debug$S                   0000000180000000     kernel32:KERNEL32.dll
 0000:fffc4000       .debug$S                   0000000180000000     kernel32:KERNEL32.dll
 0000:fffc4000       .debug$S                   0000000180000000     OPOSCashChanger.exp
 0000:fffc4000       .debug$S                   0000000180000000     kernel32:KERNEL32.dll
 0000:fffc4000       .debug$S                   0000000180000000     kernel32:KERNEL32.dll
 0000:fffc4000       .debug$S                   0000000180000000     user32:USER32.dll
 0000:fffc4000       .debug$S                   0000000180000000     user32:USER32.dll
 0000:fffc4000       .debug$S                   0000000180000000     kernel32:KERNEL32.dll
 0000:fffc4000       .debug$S                   0000000180000000     gdi32:GDI32.dll
 0000:fffc4000       .debug$S                   0000000180000000     kernel32:KERNEL32.dll
 0000:fffc4000       .debug$S                   0000000180000000     kernel32:KERNEL32.dll
 0000:fffc4000       .debug$S                   0000000180000000     gdi32:GDI32.dll
 0000:fffc4000       .debug$S                   0000000180000000     kernel32:KERNEL32.dll
 0000:fffc4000       .debug$S                   0000000180000000     kernel32:KERNEL32.dll
 0000:fffc4000       .debug$S                   0000000180000000     kernel32:KERNEL32.dll
 0000:fffc4000       .debug$S                   0000000180000000     kernel32:KERNEL32.dll
 0000:fffc4000       .debug$S                   0000000180000000     kernel32:KERNEL32.dll
 0000:fffc4000       .debug$S                   0000000180000000     kernel32:KERNEL32.dll
 0000:fffc4000       .debug$S                   0000000180000000     kernel32:KERNEL32.dll
 0000:fffc4000       .debug$S                   0000000180000000     kernel32:KERNEL32.dll
 0000:fffc4000       .debug$S                   0000000180000000     kernel32:KERNEL32.dll
 0000:fffc4000       .debug$S                   0000000180000000     kernel32:KERNEL32.dll
 0000:fffc4000       .debug$S                   0000000180000000     kernel32:KERNEL32.dll
 0000:fffc4000       .debug$S                   0000000180000000     kernel32:KERNEL32.dll
 0000:fffc4000       .debug$S                   0000000180000000     kernel32:KERNEL32.dll
 0000:fffc4000       .debug$S                   0000000180000000     kernel32:KERNEL32.dll
 0000:fffc4000       .debug$S                   0000000180000000     kernel32:KERNEL32.dll
 0000:fffc4000       .debug$S                   0000000180000000     kernel32:KERNEL32.dll
 0000:fffc4000       .debug$S                   0000000180000000     kernel32:KERNEL32.dll
 0000:fffc4000       .debug$S                   0000000180000000     kernel32:KERNEL32.dll
 0000:fffc4000       .debug$S                   0000000180000000     kernel32:KERNEL32.dll
 0000:fffc4000       .debug$S                   0000000180000000     kernel32:KERNEL32.dll
 0000:fffc4000       .debug$S                   0000000180000000     kernel32:KERNEL32.dll
 0000:fffc4000       .debug$S                   0000000180000000     kernel32:KERNEL32.dll
 0000:fffc4000       .debug$S                   0000000180000000     kernel32:KERNEL32.dll
 0000:fffc4000       .debug$S                   0000000180000000     kernel32:KERNEL32.dll
 0000:fffc4000       .debug$S                   0000000180000000     kernel32:KERNEL32.dll
 0000:fffc4000       .debug$S                   0000000180000000     kernel32:KERNEL32.dll
 0000:fffc4000       .debug$S                   0000000180000000     kernel32:KERNEL32.dll
 0000:fffc4000       .debug$S                   0000000180000000     kernel32:KERNEL32.dll
 0000:fffc4000       .debug$S                   0000000180000000     kernel32:KERNEL32.dll
 0000:fffc4000       .debug$S                   0000000180000000     kernel32:KERNEL32.dll
 0000:fffc4000       .debug$S                   0000000180000000     kernel32:KERNEL32.dll
 0000:fffc4000       .debug$S                   0000000180000000     kernel32:KERNEL32.dll
 0000:fffc4000       .debug$S                   0000000180000000     kernel32:KERNEL32.dll
 0000:fffc4000       .debug$S                   0000000180000000     kernel32:KERNEL32.dll
 0000:fffc4000       .debug$S                   0000000180000000     kernel32:KERNEL32.dll
 0000:fffc4000       .debug$S                   0000000180000000     kernel32:KERNEL32.dll
 0000:fffc4000       .debug$S                   0000000180000000     kernel32:KERNEL32.dll
 0000:fffc4000       .debug$S                   0000000180000000     kernel32:KERNEL32.dll
 0000:fffc4000       .debug$S                   0000000180000000     kernel32:KERNEL32.dll
 0000:fffc4000       .debug$S                   0000000180000000     kernel32:KERNEL32.dll
 0000:fffc4000       .debug$S                   0000000180000000     kernel32:KERNEL32.dll
 0000:fffc4000       .debug$S                   0000000180000000     kernel32:KERNEL32.dll
 0000:fffc4000       .debug$S                   0000000180000000     kernel32:KERNEL32.dll
 0000:fffc4000       .debug$S                   0000000180000000     kernel32:KERNEL32.dll
 0000:fffc4000       .debug$S                   0000000180000000     kernel32:KERNEL32.dll
 0000:fffc4000       .debug$S                   0000000180000000     kernel32:KERNEL32.dll
 0000:fffc4000       .debug$S                   0000000180000000     kernel32:KERNEL32.dll
 0000:fffc4000       .debug$S                   0000000180000000     kernel32:KERNEL32.dll
 0000:fffc4000       .debug$S                   0000000180000000     kernel32:KERNEL32.dll
 0000:fffc4000       .debug$S                   0000000180000000     kernel32:KERNEL32.dll
 0000:fffc4000       .debug$S                   0000000180000000     kernel32:KERNEL32.dll
 0000:fffc4000       .debug$S                   0000000180000000     kernel32:KERNEL32.dll
 0000:fffc4000       .debug$S                   0000000180000000     kernel32:KERNEL32.dll
 0000:fffc4000       .debug$S                   0000000180000000     kernel32:KERNEL32.dll
 0000:fffc4000       .debug$S                   0000000180000000     kernel32:KERNEL32.dll
 0000:fffc4000       .debug$S                   0000000180000000     kernel32:KERNEL32.dll
 0000:fffc4000       .debug$S                   0000000180000000     kernel32:KERNEL32.dll
 0000:fffc4000       .debug$S                   0000000180000000     kernel32:KERNEL32.dll
 0000:fffc4000       .debug$S                   0000000180000000     kernel32:KERNEL32.dll
 0000:fffc4000       .debug$S                   0000000180000000     kernel32:KERNEL32.dll
 0000:fffc4000       .debug$S                   0000000180000000     kernel32:KERNEL32.dll
 0000:fffc4000       .debug$S                   0000000180000000     kernel32:KERNEL32.dll
 0000:fffc4000       .debug$S                   0000000180000000     kernel32:KERNEL32.dll
 0000:fffc4000       .debug$S                   0000000180000000     kernel32:KERNEL32.dll
 0000:fffc4000       .debug$S                   0000000180000000     kernel32:KERNEL32.dll
 0000:fffc4000       .debug$S                   0000000180000000     kernel32:KERNEL32.dll
 0000:fffc4000       .debug$S                   0000000180000000     kernel32:KERNEL32.dll
 0000:fffc4000       .debug$S                   0000000180000000     kernel32:KERNEL32.dll
 0000:fffc4000       .debug$S                   0000000180000000     kernel32:KERNEL32.dll
 0000:fffc4000       .debug$S                   0000000180000000     kernel32:KERNEL32.dll
 0000:fffc4000       .debug$S                   0000000180000000     kernel32:KERNEL32.dll
 0000:fffc4000       .debug$S                   0000000180000000     kernel32:KERNEL32.dll
 0000:fffc4000       .debug$S                   0000000180000000     kernel32:KERNEL32.dll
 0000:fffc4000       .debug$S                   0000000180000000     kernel32:KERNEL32.dll
 0000:fffc4000       .debug$S                   0000000180000000     kernel32:KERNEL32.dll
 0000:fffc4000       .debug$S                   0000000180000000     kernel32:KERNEL32.dll
 0000:fffc4000       .debug$S                   0000000180000000     user32:USER32.dll
 0000:fffc4000       .debug$S                   0000000180000000     user32:USER32.dll
 0000:fffc4000       .debug$S                   0000000180000000     user32:USER32.dll
 0000:fffc4000       .debug$S                   0000000180000000     kernel32:KERNEL32.dll
 0000:fffc4000       .debug$S                   0000000180000000     gdi32:GDI32.dll
 0000:fffc4000       .debug$S                   0000000180000000     user32:USER32.dll
 0000:fffc4000       .debug$S                   0000000180000000     user32:USER32.dll
 0000:fffc4000       .debug$S                   0000000180000000     kernel32:KERNEL32.dll
 0000:fffc4000       .debug$S                   0000000180000000     user32:USER32.dll
 0000:fffc4000       .debug$S                   0000000180000000     user32:USER32.dll
 0000:fffc4000       .debug$S                   0000000180000000     user32:USER32.dll
 0000:fffc4000       .debug$S                   0000000180000000     user32:USER32.dll
 0000:fffc4000       .debug$S                   0000000180000000     kernel32:KERNEL32.dll
 0000:fffc4000       .debug$S                   0000000180000000     gdi32:GDI32.dll
 0000:fffc4000       .debug$S                   0000000180000000     gdi32:GDI32.dll
 0000:fffc4000       .debug$S                   0000000180000000     kernel32:KERNEL32.dll
 0000:fffc4000       .debug$S                   0000000180000000     kernel32:KERNEL32.dll
 0000:fffc4000       .debug$S                   0000000180000000     gdi32:GDI32.dll
 0000:fffc4000       .debug$S                   0000000180000000     gdi32:GDI32.dll
 0000:fffc4000       .debug$S                   0000000180000000     kernel32:KERNEL32.dll
 0000:fffc4000       .debug$S                   0000000180000000     gdi32:GDI32.dll
 0000:fffc4000       .debug$S                   0000000180000000     oleaut32:OLEAUT32.dll
 0000:fffc4000       .debug$S                   0000000180000000     gdi32:GDI32.dll
 0000:fffc4000       .debug$S                   0000000180000000     oleaut32:OLEAUT32.dll
 0000:fffc4000       .debug$S                   0000000180000000     advapi32:ADVAPI32.dll
 0000:fffc4000       .debug$S                   0000000180000000     gdi32:GDI32.dll
 0000:fffc4000       .debug$S                   0000000180000000     oleaut32:OLEAUT32.dll
 0000:fffc4000       .debug$S                   0000000180000000     advapi32:ADVAPI32.dll
 0000:fffc4000       .debug$S                   0000000180000000     advapi32:ADVAPI32.dll
 0000:fffc4000       .debug$S                   0000000180000000     oleaut32:OLEAUT32.dll
 0000:fffc4000       .debug$S                   0000000180000000     advapi32:ADVAPI32.dll
 0000:fffc4000       .debug$S                   0000000180000000     kernel32:KERNEL32.dll
 0000:fffc4000       .debug$S                   0000000180000000     kernel32:KERNEL32.dll
 0000:fffc4000       .debug$S                   0000000180000000     kernel32:KERNEL32.dll
 0000:fffc4000       .debug$S                   0000000180000000     gdi32:GDI32.dll
 0000:fffc4000       .debug$S                   0000000180000000     kernel32:KERNEL32.dll
 0000:fffc4000       .debug$S                   0000000180000000     advapi32:ADVAPI32.dll
 0000:fffc4000       .debug$S                   0000000180000000     kernel32:KERNEL32.dll
 0000:fffc4000       .debug$S                   0000000180000000     advapi32:ADVAPI32.dll
 0000:fffc4000       .debug$S                   0000000180000000     kernel32:KERNEL32.dll
 0000:fffc4000       .debug$S                   0000000180000000     kernel32:KERNEL32.dll
 0000:fffc4000       .debug$S                   0000000180000000     oleaut32:OLEAUT32.dll
 0000:fffc4000       .debug$S                   0000000180000000     kernel32:KERNEL32.dll
 0000:fffc4000       .debug$S                   0000000180000000     kernel32:KERNEL32.dll
 0000:fffc4000       .debug$S                   0000000180000000     advapi32:ADVAPI32.dll
 0000:fffc4000       .debug$S                   0000000180000000     user32:USER32.dll
 0000:fffc4000       .debug$S                   0000000180000000     advapi32:ADVAPI32.dll
 0000:fffc4000       .debug$S                   0000000180000000     kernel32:KERNEL32.dll
 0000:fffc4000       .debug$S                   0000000180000000     kernel32:KERNEL32.dll
 0000:fffc4000       .debug$S                   0000000180000000     advapi32:ADVAPI32.dll
 0000:fffc4000       .debug$S                   0000000180000000     user32:USER32.dll
 0000:fffc4000       .debug$S                   0000000180000000     ole32:ole32.dll
 0000:fffc4000       .debug$S                   0000000180000000     ole32:ole32.dll
 0000:fffc4000       .debug$S                   0000000180000000     ole32:ole32.dll
 0000:fffc4000       .debug$S                   0000000180000000     oleaut32:OLEAUT32.dll
 0000:fffc4000       .debug$S                   0000000180000000     ole32:ole32.dll
 0000:fffc4000       .debug$S                   0000000180000000     ole32:ole32.dll
 0000:fffc4000       .debug$S                   0000000180000000     oleaut32:OLEAUT32.dll
 0000:fffc4000       .debug$S                   0000000180000000     user32:USER32.dll
 0000:fffc4000       .debug$S                   0000000180000000     ole32:ole32.dll
 0000:fffc4000       .debug$S                   0000000180000000     user32:USER32.dll
 0000:fffc4000       .debug$S                   0000000180000000     ole32:ole32.dll
 0000:fffc4000       .debug$S                   0000000180000000     kernel32:KERNEL32.dll
 0000:fffc4000       .debug$S                   0000000180000000     ole32:ole32.dll
 0000:fffc4000       .debug$S                   0000000180000000     kernel32:KERNEL32.dll
 0000:fffc4000       .debug$S                   0000000180000000     gdi32:GDI32.dll
 0000:fffc4000       .debug$S                   0000000180000000     user32:USER32.dll
 0000:fffc4000       .debug$S                   0000000180000000     ole32:ole32.dll
 0000:fffc4000       .debug$S                   0000000180000000     kernel32:KERNEL32.dll
 0000:fffc4000       .debug$S                   0000000180000000     oleaut32:OLEAUT32.dll
 0000:fffc4000       .debug$S                   0000000180000000     user32:USER32.dll
 0000:fffc4000       .debug$S                   0000000180000000     kernel32:KERNEL32.dll
 0000:fffc4000       .debug$S                   0000000180000000     user32:USER32.dll
 0000:fffc4000       .debug$S                   0000000180000000     kernel32:KERNEL32.dll
 0000:fffc4000       .debug$S                   0000000180000000     ole32:ole32.dll
 0000:fffc4000       .debug$S                   0000000180000000     kernel32:KERNEL32.dll
 0000:fffc4000       .debug$S                   0000000180000000     oleaut32:OLEAUT32.dll
 0000:fffc4000       .debug$S                   0000000180000000     oleaut32:OLEAUT32.dll
 0000:fffc4000       .debug$S                   0000000180000000     oleaut32:OLEAUT32.dll
 0000:fffc4000       .debug$S                   0000000180000000     ole32:ole32.dll
 0000:fffc4000       .debug$S                   0000000180000000     user32:USER32.dll
 0000:fffc4000       .debug$S                   0000000180000000     gdi32:GDI32.dll
 0000:fffc4000       .debug$S                   0000000180000000     kernel32:KERNEL32.dll
 0000:fffc4000       .debug$S                   0000000180000000     user32:USER32.dll
 0000:fffc4000       .debug$S                   0000000180000000     ole32:ole32.dll
 0000:fffc4000       .debug$S                   0000000180000000     user32:USER32.dll
 0000:fffc4000       .debug$S                   0000000180000000     kernel32:KERNEL32.dll
 0000:fffc4000       .debug$S                   0000000180000000     kernel32:KERNEL32.dll
 0000:fffc4000       .debug$S                   0000000180000000     kernel32:KERNEL32.dll
 0000:fffc4000       .debug$S                   0000000180000000     kernel32:KERNEL32.dll
 0000:fffc4000       .debug$S                   0000000180000000     user32:USER32.dll
 0000:fffc4000       .debug$S                   0000000180000000     user32:USER32.dll
 0000:fffc4000       .debug$S                   0000000180000000     ole32:ole32.dll
 0000:fffc4000       .debug$S                   0000000180000000     user32:USER32.dll
 0000:fffc4000       .debug$S                   0000000180000000     oleaut32:OLEAUT32.dll
 0000:fffc4000       .debug$S                   0000000180000000     user32:USER32.dll
 0000:fffc4000       .debug$S                   0000000180000000     user32:USER32.dll
 0000:fffc4000       .debug$S                   0000000180000000     ole32:ole32.dll
 0000:fffc4000       .debug$S                   0000000180000000     user32:USER32.dll
 0000:fffc4000       .debug$S                   0000000180000000     oleaut32:OLEAUT32.dll
 0000:fffc4000       .debug$S                   0000000180000000     oleaut32:OLEAUT32.dll
 0000:fffc4000       .debug$S                   0000000180000000     user32:USER32.dll
 0000:fffc4000       .debug$S                   0000000180000000     oleaut32:OLEAUT32.dll
 0000:fffc4000       .debug$S                   0000000180000000     oleaut32:OLEAUT32.dll
 0000:fffc4000       .debug$S                   0000000180000000     user32:USER32.dll
 0001:00000000       ??__E_AtlComModule@ATL@@YAXXZ 0000000180001000 f   OposVariant.obj
 0001:00000020       ??__E_AtlWinModule@ATL@@YAXXZ 0000000180001020 f   OposVariant.obj
 0001:00000040       ??__E?pConnMap@?$IConnectionPointContainerImpl@VCOPOSCashChanger@@@ATL@@0PEBU_ATL_CONNMAP_ENTRY@2@EB@@YAXXZ 0000000180001040 f   CashChanger.obj
 0001:00000058       ??__E_Module@@YAXXZ        0000000180001058 f   CashChanger.obj
 0001:00000094       ??__E_AtlBaseModule@ATL@@YAXXZ 0000000180001094 f   atls:atlbase.obj
 0001:0000b868       memcpy_s                   000000018000c868 f   CashChanger.obj
 0001:0000e694       ?__scrt_initialize_thread_safe_statics@@YAHXZ 000000018000f694 f   LIBCMT:thread_safe_statics.obj
 0001:0000e7f4       ?__scrt_uninitialize_thread_safe_statics@@YAXXZ 000000018000f7f4 f   LIBCMT:thread_safe_statics.obj
 0001:0000eb64       capture_current_context    000000018000fb64 f   LIBCMT:gs_report.obj
 0001:0000ebd4       capture_previous_context   000000018000fbd4 f   LIBCMT:gs_report.obj
 0001:0000ed80       $$000000                   000000018000fd80     LIBCMT:_chkstk_.obj
 0001:0000edf0       $$000000                   000000018000fdf0     LIBCMT:_amdsecgs_.obj
 0001:0000ee24       ?dllmain_crt_dispatch@@YAHQEAUHINSTANCE__@@KQEAX@Z 000000018000fe24 f   LIBCMT:dll_dllmain.obj
 0001:0000ee74       ?dllmain_crt_process_attach@@YAHQEAUHINSTANCE__@@QEAX@Z 000000018000fe74 f   LIBCMT:dll_dllmain.obj
 0001:0000ef90       ?dllmain_crt_process_detach@@YAH_N@Z 000000018000ff90 f   LIBCMT:dll_dllmain.obj
 0001:0000f020       ?dllmain_dispatch@@YAHQEAUHINSTANCE__@@KQEAX@Z 0000000180010020 f   LIBCMT:dll_dllmain.obj
 0001:0000f918       ??$GetProcAddressAll@P6AXPEAUAtlThunkData_t@@@Z@@YAP6AXPEAUAtlThunkData_t@@@ZPEAP6AX0@Z@Z 0000000180010918 f   atls:atlthunk.obj
 0001:0000f918       ??$GetProcAddressAll@P6AP6A_JPEAUHWND__@@I_K_J@ZPEAUAtlThunkData_t@@@Z@@YAP6AP6A_JPEAUHWND__@@I_K_J@ZPEAUAtlThunkData_t@@@ZPEAP6AP6A_J0I12@Z3@Z@Z 0000000180010918 f   atls:atlthunk.obj
 0001:0000f918       ??$GetProcAddressAll@P6AXPEAUAtlThunkData_t@@PEAX_K@Z@@YAP6AXPEAUAtlThunkData_t@@PEAX_K@ZPEAP6AX012@Z@Z 0000000180010918 f   atls:atlthunk.obj
 0001:0000f918       ??$GetProcAddressAll@P6APEAUAtlThunkData_t@@XZ@@YAP6APEAUAtlThunkData_t@@XZPEAP6APEAU0@XZ@Z 0000000180010918 f   atls:atlthunk.obj
 0001:0000faf0       ?__InitializeThunkPool@@YAHXZ 0000000180010af0 f   atls:atlthunk.obj
 0001:0000fd50       $$000000                   0000000180010d50     libvcruntime:memset.obj
 0001:0000fe4c       MsetTab                    0000000180010e4c     libvcruntime:memset.obj
 0001:00010160       $$000000                   0000000180011160     libvcruntime:memcmp.obj
 0001:00010240       $$000000                   0000000180011240     libvcruntime:memcpy.obj
 0001:000102f7       MoveSmall                  00000001800112f7     libvcruntime:memcpy.obj
 0001:00011480       ?try_get_function@@YAPEAXW4function_id@?A0xcc2f1bd3@@QEBDQEBW4module_id@2@2@Z 0000000180012480 f   libvcruntime:winapi_downlevel.obj
 0001:00011860       $$000000                   0000000180012860     libvcruntime:_notify_.obj
 0001:000119e8       ??$BuildCatchObjectHelperInternal@$$CBU_s_HandlerType@@@@YAHPEAUEHExceptionRecord@@PEAXPEBU_s_HandlerType@@PEBU_s_CatchableType@@@Z 00000001800129e8 f   libvcruntime:frame.obj
 0001:00011be8       ??$BuildCatchObjectInternal@$$CBU_s_HandlerType@@@@YAXPEAUEHExceptionRecord@@PEAXPEBU_s_HandlerType@@PEBU_s_CatchableType@@@Z 0000000180012be8 f   libvcruntime:frame.obj
 0001:00011ca8       ??$CatchIt@V__FrameHandler3@@@@YAXPEAUEHExceptionRecord@@PEA_KPEAU_CONTEXT@@PEAU_xDISPATCHER_CONTEXT@@PEBU_s_FuncInfo@@PEBU_s_HandlerType@@PEBU_s_CatchableType@@PEBU_s_TryBlockMapEntry@@H1EE@Z 0000000180012ca8 f   libvcruntime:frame.obj
 0001:00011d78       ??$FindHandler@V__FrameHandler3@@@@YAXPEAUEHExceptionRecord@@PEA_KPEAU_CONTEXT@@PEAU_xDISPATCHER_CONTEXT@@PEBU_s_FuncInfo@@EH1@Z 0000000180012d78 f   libvcruntime:frame.obj
 0001:000121dc       ??$FindHandlerForForeignException@V__FrameHandler3@@@@YAXPEAUEHExceptionRecord@@PEA_KPEAU_CONTEXT@@PEAU_xDISPATCHER_CONTEXT@@PEBU_s_FuncInfo@@HH1@Z 00000001800131dc f   libvcruntime:frame.obj
 0001:000129e4       ?ExFilterRethrow@@YAHPEAU_EXCEPTION_POINTERS@@PEAUEHExceptionRecord@@PEAH@Z 00000001800139e4 f   libvcruntime:frame.obj
 0001:00012c98       ?IsInExceptionSpec@@YAEPEAUEHExceptionRecord@@PEBU_s_ESTypeList@@@Z 0000000180013c98 f   libvcruntime:frame.obj
 0001:00012d70       ?Is_bad_exception_allowed@@YAEPEBU_s_ESTypeList@@@Z 0000000180013d70 f   libvcruntime:frame.obj
 0001:00012e20       $$000000                   0000000180013e20     libvcruntime:handlers.obj
 0001:000135d0       ??$common_vsprintf@Vformat_validation_base@__crt_stdio_output@@_W@@YAH_KQEA_W0QEB_WQEAU__crt_locale_pointers@@QEAD@Z 00000001800145d0 f   libucrt:output.obj
 0001:00014d98       ??R<lambda_6e4b09c48022b2350581041d5f6b0c4c>@@QEBA@XZ 0000000180015d98 f   libucrt:exit.obj
 0001:00014e70       ?atexit_exception_filter@@YAHK@Z 0000000180015e70 f   libucrt:exit.obj
 0001:00014e7c       ?common_exit@@YAXHW4_crt_exit_cleanup_mode@@W4_crt_exit_return_mode@@@Z 0000000180015e7c f   libucrt:exit.obj
 0001:00014f38       ?exit_or_terminate_process@@YAXI@Z 0000000180015f38 f   libucrt:exit.obj
 0001:00014f84       ?try_cor_exit_process@@YAXI@Z 0000000180015f84 f   libucrt:exit.obj
 0001:0001500c       ??$parse_command_line@D@@YAXPEADPEAPEAD0PEA_K2@Z 000000018001600c f   libucrt:argv_parsing.obj
 0001:000153b4       ??$common_initialize_environment_nolock@D@@YAHXZ 00000001800163b4 f   libucrt:environment_initialization.obj
 0001:00015420       ??$create_environment@D@@YAQEAPEADQEAD@Z 0000000180016420 f   libucrt:environment_initialization.obj
 0001:0001551c       ??$free_environment@D@@YAXQEAPEAD@Z 000000018001651c f   libucrt:environment_initialization.obj
 0001:0001551c       ??$free_environment@_W@@YAXQEAPEA_W@Z 000000018001651c f   libucrt:environment_initialization.obj
 0001:00015560       ??$uninitialize_environment_internal@D@@YAXAEAPEAPEAD@Z 0000000180016560 f   libucrt:environment_initialization.obj
 0001:0001557c       ??$uninitialize_environment_internal@_W@@YAXAEAPEAPEA_W@Z 000000018001657c f   libucrt:environment_initialization.obj
 0001:00015650       ??R<lambda_22ebabd17bc4fa466a2aca6d8deb888d>@@QEBAHXZ 0000000180016650 f   libucrt:onexit.obj
 0001:0001582c       ??R<lambda_f03950bc5685219e0bcd2087efbe011e>@@QEBAHXZ 000000018001682c f   libucrt:onexit.obj
 0001:00015a4c       initialize_global_variables 0000000180016a4c f   libucrt:initialization.obj
 0001:00015a60       initialize_c               0000000180016a60 f   libucrt:initialization.obj
 0001:00015a84       uninitialize_global_state_isolation 0000000180016a84 f   libucrt:initialization.obj
 0001:00015a84       uninitialize_c             0000000180016a84 f   libucrt:initialization.obj
 0001:00015a84       report_memory_leaks        0000000180016a84 f   libucrt:initialization.obj
 0001:00015a84       initialize_global_state_isolation 0000000180016a84 f   libucrt:initialization.obj
 0001:00015a84       initialize_environment     0000000180016a84 f   libucrt:initialization.obj
 0001:00015a88       uninitialize_environment   0000000180016a88 f   libucrt:initialization.obj
 0001:00015a98       initialize_pointers        0000000180016a98 f   libucrt:initialization.obj
 0001:00015aec       uninitialize_vcruntime     0000000180016aec f   libucrt:initialization.obj
 0001:00015af4       uninitialize_allocated_memory 0000000180016af4 f   libucrt:initialization.obj
 0001:00016550       $$000000                   0000000180017550     libucrt:strncmp.obj
 0001:00016748       ?construct_ptd_array@@YAXQEAU__acrt_ptd@@@Z 0000000180017748 f   libucrt:per_thread_data.obj
 0001:00016818       ?destroy_fls@@YAXPEAX@Z    0000000180017818 f   libucrt:per_thread_data.obj
 0001:00016838       ?destroy_ptd_array@@YAXQEAU__acrt_ptd@@@Z 0000000180017838 f   libucrt:per_thread_data.obj
 0001:00016930       ?replace_current_thread_locale_nolock@@YAXQEAU__acrt_ptd@@QEAU__crt_locale_data@@@Z 0000000180017930 f   libucrt:per_thread_data.obj
 0001:00016e20       ?try_get_function@@YAPEAXW4function_id@?A0x391cf84c@@QEBDQEBW4module_id@2@2@Z 0000000180017e20 f   libucrt:winapi_thunks.obj
 0001:00017438       ?internal_isupper_l@@YA_NHQEAU__crt_locale_pointers@@@Z 0000000180018438 f   libucrt:tolower_toupper.obj
 0001:00017a50       ?fp_format_a@@YAHQEBNPEAD_KQEAD2H_NIQEAU__crt_locale_pointers@@@Z 0000000180018a50 f   libucrt:cvt.obj
 0001:00017db0       ?fp_format_e@@YAHQEBNQEAD_K12H_NIQEAU__crt_locale_pointers@@@Z 0000000180018db0 f   libucrt:cvt.obj
 0001:00017e80       ?fp_format_e_internal@@YAHQEAD_KH_NIQEAU_strflt@@2QEAU__crt_locale_pointers@@@Z 0000000180018e80 f   libucrt:cvt.obj
 0001:0001805c       ?fp_format_f_internal@@YAHQEAD_KHQEAU_strflt@@_NQEAU__crt_locale_pointers@@@Z 000000018001905c f   libucrt:cvt.obj
 0001:000181a4       ?fp_format_g@@YAHQEBNQEAD_K12H_NIQEAU__crt_locale_pointers@@@Z 00000001800191a4 f   libucrt:cvt.obj
 0001:000182dc       ?fp_format_nan_or_infinity@@YAHW4__acrt_fp_class@@_NPEAD_K1@Z 00000001800192dc f   libucrt:cvt.obj
 0001:000188e4       ?initialize_inherited_file_handles_nolock@@YAXXZ 00000001800198e4 f   libucrt:ioinit.obj
 0001:000189d0       ?initialize_stdio_handles_nolock@@YAXXZ 00000001800199d0 f   libucrt:ioinit.obj
 0001:00018c28       ?<lambda_invoker_cdecl>@<lambda_c2303d2482d7c3675ea2e24c4cfb6115>@@CAHPEBX0@Z 0000000180019c28 f   libucrt:argv_wildcards.obj
 0001:00018c3c       ??$common_expand_argv_wildcards@D@@YAHQEAPEADQEAPEAPEAD@Z 0000000180019c3c f   libucrt:argv_wildcards.obj
 0001:00018e48       ??$copy_and_add_argument_to_buffer@D@@YAHQEBD0_KAEAV?$argument_list@D@?A0x5f5c8891@@@Z 0000000180019e48 f   libucrt:argv_wildcards.obj
 0001:00018fe0       ??$expand_argument_wildcards@D@@YAHQEAD0AEAV?$argument_list@D@?A0x5f5c8891@@@Z 0000000180019fe0 f   libucrt:argv_wildcards.obj
 0001:0001935c       ?getSystemCP@@YAHH@Z       000000018001a35c f   libucrt:mbctype.obj
 0001:000193dc       ?setSBCS@@YAXPEAU__crt_multibyte_data@@@Z 000000018001a3dc f   libucrt:mbctype.obj
 0001:0001946c       ?setSBUpLow@@YAXPEAU__crt_multibyte_data@@@Z 000000018001a46c f   libucrt:mbctype.obj
 0001:00019650       ?setmbcp_internal@@YAHH_NQEAU__acrt_ptd@@QEAPEAU__crt_multibyte_data@@@Z 000000018001a650 f   libucrt:mbctype.obj
 0001:00019814       ?update_thread_multibyte_data_internal@@YAPEAU__crt_multibyte_data@@QEAU__acrt_ptd@@QEAU1@@Z 000000018001a814 f   libucrt:mbctype.obj
 0001:00019bf0       ?x_ismbbtype_l@@YAHPEAU__crt_locale_pointers@@IHH@Z 000000018001abf0 f   libucrt:ismbbyte.obj
 0001:0001a7d8       ?GetTableIndexFromLocaleName@@YAHPEB_W@Z 000000018001b7d8 f   libucrt:lcidtoname_downlevel.obj
 0001:0001a914       ?__acrt_LCMapStringA_stat@@YAHPEAU__crt_locale_pointers@@PEB_WKPEBDHPEADHHH@Z 000000018001b914 f   libucrt:lcmapstringa.obj
 0001:0001c5c0       memcpy_s                   000000018001d5c0 f   libucrt:cfout.obj
 0001:0001c880       ?common_flush_all@@YAH_N@Z 000000018001d880 f   libucrt:fflush.obj
 0001:0001cbc8       ?free_crt_array_internal@@YAXQEAPEBX_K@Z 000000018001dbc8 f   libucrt:inittime.obj
 0001:0001d200       ?shortsort@@YAXPEAD0_KP6AHPEBX2@Z@Z 000000018001e200 f   libucrt:qsort.obj
 0001:0001d7f4       ?initialize_multibyte@@YAHXZ 000000018001e7f4 f   libucrt:multibyte_initializer.obj
 0001:0001d9b0       $$000000                   000000018001e9b0     libucrt:log10.obj
 0001:0001df5c       ?write_double_translated_ansi_nolock@@YA?AUwrite_result@?A0x17268360@@HQEBDI@Z 000000018001ef5c f   libucrt:write.obj
 0001:0001e184       ?write_text_ansi_nolock@@YA?AUwrite_result@?A0x17268360@@HQEBDI@Z 000000018001f184 f   libucrt:write.obj
 0001:0001e288       ?write_text_utf16le_nolock@@YA?AUwrite_result@?A0x17268360@@HQEBDI@Z 000000018001f288 f   libucrt:write.obj
 0001:0001e3a4       ?write_text_utf8_nolock@@YA?AUwrite_result@?A0x17268360@@HQEBDI@Z 000000018001f3a4 f   libucrt:write.obj
 0001:0001e900       ??$common_lseek_nolock@_J@@YA_JH_JH@Z 000000018001f900 f   libucrt:lseek.obj
 0001:0001ece0       common_control87           000000018001fce0 f   libucrt:ieee.obj
 0001:0001ef70       _call_matherr              000000018001ff70 f   libucrt:libm_error.obj
 0001:0001efd8       _exception_enabled         000000018001ffd8 f   libucrt:libm_error.obj
 0001:0001f270       _log_special_common        0000000180020270 f   libucrt:log_special.obj
 0001:0001f580       $$000000                   0000000180020580     libucrt:fpsr.obj
 0001:0001fca0       $$000000                   0000000180020ca0     LIBCMT:_guard_dispatch_.obj
 0001:0001fcc0       ?filt$0@?0??_AtlVerifyStackAvailable@_ATL_SAFE_ALLOCA_IMPL@ATL@@YA_N_K@Z@4HA 0000000180020cc0 f   CashChanger.obj
 0001:0001fce1       __scrt_is_nonwritable_in_current_image$filt$0 0000000180020ce1 f   LIBCMT:utility.obj
 0001:0001fcf9       ?catch$0@?0???2@YAPEAX_KAEBUnothrow_t@std@@@Z@4HA 0000000180020cf9 f   LIBCMT:new_scalar_nothrow.obj
 0001:0001fd06       __catch$??2@YAPEAX_KAEBUnothrow_t@std@@@Z$0 0000000180020d06 f   LIBCMT:new_scalar_nothrow.obj
 0001:0001fd14       ?fin$0@?0??dllmain_crt_process_attach@@YAHQEAUHINSTANCE__@@QEAX@Z@4HA 0000000180020d14 f   LIBCMT:dll_dllmain.obj
 0001:0001fd2b       ?fin$0@?0??dllmain_crt_process_detach@@YAH_N@Z@4HA 0000000180020d2b f   LIBCMT:dll_dllmain.obj
 0001:0001fd47       ?filt$0@?0??dllmain_dispatch@@YAHQEAUHINSTANCE__@@KQEAX@Z@4HA 0000000180020d47 f   LIBCMT:dll_dllmain.obj
 0001:0001fd7d       __DestructExceptionObject$filt$0 0000000180020d7d f   libvcruntime:ehhelpers.obj
 0001:0001fd95       ?filt$0@?0???$_CallSETranslator@V__FrameHandler3@@@@YAHPEAUEHExceptionRecord@@PEA_KPEAU_CONTEXT@@PEAU_xDISPATCHER_CONTEXT@@PEBU_s_FuncInfo@@K1@Z@4HA 0000000180020d95 f   libvcruntime:risctrnsctrl.obj
 0001:0001fe26       ?filt$0@?0??CxxCallCatchBlock@__FrameHandler3@@SAPEAXPEAU_EXCEPTION_RECORD@@@Z@4HA 0000000180020e26 f   libvcruntime:frame.obj
 0001:0001fe4b       ?fin$1@?0??CxxCallCatchBlock@__FrameHandler3@@SAPEAXPEAU_EXCEPTION_RECORD@@@Z@4HA 0000000180020e4b f   libvcruntime:frame.obj
 0001:0001fec3       ?filt$0@?0??FrameUnwindToState@__FrameHandler3@@SAXPEA_KPEAU_xDISPATCHER_CONTEXT@@PEBU_s_FuncInfo@@H@Z@4HA 0000000180020ec3 f   libvcruntime:frame.obj
 0001:0001fed9       ?fin$1@?0??FrameUnwindToState@__FrameHandler3@@SAXPEA_KPEAU_xDISPATCHER_CONTEXT@@PEBU_s_FuncInfo@@H@Z@4HA 0000000180020ed9 f   libvcruntime:frame.obj
 0001:0001fefc       ?fin$0@?0???$?RV<lambda_aa87e3671a710a21b5dc78c0bdf72e11>@@AEAV<lambda_92619d2358a28f41a33ba319515a20b9>@@V<lambda_6992ecaafeb10aed2b74cb1fae11a551>@@@?$__crt_seh_guarded_call@X@@QEAAX$$QEAV<lambda_aa87e3671a710a21b5dc78c0bdf72e11>@@AEAV<lambda_92619d2358a28f41a33ba319515a20b9>@@$$QEAV<lambda_6992ecaafeb10aed2b74cb1fae11a551>@@@Z@4HA 0000000180020efc f   libucrt:per_thread_data.obj
 0001:0001fefc       ?fin$0@?0???$?RV<lambda_f2e299630e499de9f9a165e60fcd3db5>@@AEAV<lambda_2ae9d31cdba2644fcbeaf08da7c24588>@@V<lambda_40d01ff24d0e7b3814fdbdcee8eab3c7>@@@?$__crt_seh_guarded_call@X@@QEAAX$$QEAV<lambda_f2e299630e499de9f9a165e60fcd3db5>@@AEAV<lambda_2ae9d31cdba2644fcbeaf08da7c24588>@@$$QEAV<lambda_40d01ff24d0e7b3814fdbdcee8eab3c7>@@@Z@4HA 0000000180020efc f   libucrt:per_thread_data.obj
 0001:0001fefc       ?fin$0@?0???$?RV<lambda_450d765d439847d4c735a33c368b5fc0>@@AEAV<lambda_44731a7d0e6d81c3e6aa82d741081786>@@V<lambda_601a2a7da3b7a96e9554ac7215c4b07c>@@@?$__crt_seh_guarded_call@P6AXH@Z@@QEAAP6AXH@Z$$QEAV<lambda_450d765d439847d4c735a33c368b5fc0>@@AEAV<lambda_44731a7d0e6d81c3e6aa82d741081786>@@$$QEAV<lambda_601a2a7da3b7a96e9554ac7215c4b07c>@@@Z@4HA 0000000180020efc f   libucrt:signal.obj
 0001:0001fefc       ?fin$0@?0???$?RV<lambda_0ae27a3a962d80f24befdcbee591983d>@@AEAV<lambda_8d0ee55de4b1038c4002e0adecdf1839>@@V<lambda_dc504788e8f1664fe9b84e20bfb512f2>@@@?$__crt_seh_guarded_call@X@@QEAAX$$QEAV<lambda_0ae27a3a962d80f24befdcbee591983d>@@AEAV<lambda_8d0ee55de4b1038c4002e0adecdf1839>@@$$QEAV<lambda_dc504788e8f1664fe9b84e20bfb512f2>@@@Z@4HA 0000000180020efc f   libucrt:per_thread_data.obj
 0001:0001fefc       ?fin$0@?0???$?RV<lambda_638799b9deba96c50f710eeac98168cd>@@AEAV<lambda_22ebabd17bc4fa466a2aca6d8deb888d>@@V<lambda_a6f7d7db0129f75315ebf26d50c089f1>@@@?$__crt_seh_guarded_call@H@@QEAAH$$QEAV<lambda_638799b9deba96c50f710eeac98168cd>@@AEAV<lambda_22ebabd17bc4fa466a2aca6d8deb888d>@@$$QEAV<lambda_a6f7d7db0129f75315ebf26d50c089f1>@@@Z@4HA 0000000180020efc f   libucrt:onexit.obj
 0001:0001fefc       ?fin$0@?0???$?RV<lambda_7777bce6b2f8c936911f934f8298dc43>@@AEAV<lambda_f03950bc5685219e0bcd2087efbe011e>@@V<lambda_3883c3dff614d5e0c5f61bb1ac94921c>@@@?$__crt_seh_guarded_call@H@@QEAAH$$QEAV<lambda_7777bce6b2f8c936911f934f8298dc43>@@AEAV<lambda_f03950bc5685219e0bcd2087efbe011e>@@$$QEAV<lambda_3883c3dff614d5e0c5f61bb1ac94921c>@@@Z@4HA 0000000180020efc f   libucrt:onexit.obj
 0001:0001fefc       ?fin$0@?0???$?RV<lambda_efdfa57d1f175319df784efa44bb7b81>@@AEAV<lambda_5f0a4c1567f8adc6734073e5d1e1b35c>@@V<lambda_2e8a7d3640ea6ccb4c2413664c2db6fd>@@@?$__crt_seh_guarded_call@X@@QEAAX$$QEAV<lambda_efdfa57d1f175319df784efa44bb7b81>@@AEAV<lambda_5f0a4c1567f8adc6734073e5d1e1b35c>@@$$QEAV<lambda_2e8a7d3640ea6ccb4c2413664c2db6fd>@@@Z@4HA 0000000180020efc f   libucrt:mbctype.obj
 0001:0001fefc       ?fin$0@?0???$?RV<lambda_d80eeec6fff315bfe5c115232f3240e3>@@AEAV<lambda_6e4b09c48022b2350581041d5f6b0c4c>@@V<lambda_2358e3775559c9db80273638284d5e45>@@@?$__crt_seh_guarded_call@X@@QEAAX$$QEAV<lambda_d80eeec6fff315bfe5c115232f3240e3>@@AEAV<lambda_6e4b09c48022b2350581041d5f6b0c4c>@@$$QEAV<lambda_2358e3775559c9db80273638284d5e45>@@@Z@4HA 0000000180020efc f   libucrt:exit.obj
 0001:0001fefc       ?fin$0@?0???$?RV<lambda_2d41944a1d46af3157314b8a01080d33>@@AEAV<lambda_8f455de75cd7d7f24b4096f044d8b9e6>@@V<lambda_aa500f224e6afead328df44964fe2772>@@@?$__crt_seh_guarded_call@X@@QEAAX$$QEAV<lambda_2d41944a1d46af3157314b8a01080d33>@@AEAV<lambda_8f455de75cd7d7f24b4096f044d8b9e6>@@$$QEAV<lambda_aa500f224e6afead328df44964fe2772>@@@Z@4HA 0000000180020efc f   libucrt:per_thread_data.obj
 0001:0001ff16       ?filt$0@?0???R<lambda_6e4b09c48022b2350581041d5f6b0c4c>@@QEBA@XZ@4HA 0000000180020f16 f   libucrt:exit.obj
 0001:0001ff31       _query_new_handler$fin$0   0000000180020f31 f   libucrt:new_handler.obj
 0001:0001ff47       ?fin$0@?0???$?RV<lambda_410d79af7f07d98d83a3f525b3859a53>@@AEAV<lambda_3e16ef9562a7dcce91392c22ab16ea36>@@V<lambda_38119f0e861e05405d8a144b9b982f0a>@@@?$__crt_seh_guarded_call@X@@QEAAX$$QEAV<lambda_410d79af7f07d98d83a3f525b3859a53>@@AEAV<lambda_3e16ef9562a7dcce91392c22ab16ea36>@@$$QEAV<lambda_38119f0e861e05405d8a144b9b982f0a>@@@Z@4HA 0000000180020f47 f   libucrt:wsetlocale.obj
 0001:0001ff61       __acrt_lowio_ensure_fh_exists$fin$0 0000000180020f61 f   libucrt:osfinfo.obj
 0001:0001ff61       __acrt_initialize_lowio$fin$0 0000000180020f61 f   libucrt:ioinit.obj
 0001:0001ff7a       ?fin$0@?0??update_thread_multibyte_data_internal@@YAPEAU__crt_multibyte_data@@QEAU__acrt_ptd@@QEAU1@@Z@4HA 0000000180020f7a f   libucrt:mbctype.obj
 0001:0001ff93       raise$fin$0                0000000180020f93 f   libucrt:signal.obj
 0001:0001ffb7       __acrt_update_thread_locale_data$fin$0 0000000180020fb7 f   libucrt:locale_refcounting.obj
 0001:0001ffd0       _fcloseall$fin$0           0000000180020fd0 f   libucrt:closeall.obj
 0001:0001ffe9       ?fin$0@?0???$?RV<lambda_842d9ff0dc9ef11c61343bbaebe7f885>@@AEAV<lambda_c5860995281e5c4ce005b3de8f5874ee>@@V<lambda_d90129c13df834fdcbf8d2b88dafcf2d>@@@?$__crt_seh_guarded_call@X@@QEAAX$$QEAV<lambda_842d9ff0dc9ef11c61343bbaebe7f885>@@AEAV<lambda_c5860995281e5c4ce005b3de8f5874ee>@@$$QEAV<lambda_d90129c13df834fdcbf8d2b88dafcf2d>@@@Z@4HA 0000000180020fe9 f   libucrt:fflush.obj
 0001:00020004       ?fin$0@?0???$?RV<lambda_886d6c58226a84441f68b9f2b8217b83>@@AEAV<lambda_ab61a845afdef5b7c387490eaf3616ee>@@V<lambda_f7f22ab5edc0698d5f6905b0d3f44752>@@@?$__crt_seh_guarded_call@X@@QEAAX$$QEAV<lambda_886d6c58226a84441f68b9f2b8217b83>@@AEAV<lambda_ab61a845afdef5b7c387490eaf3616ee>@@$$QEAV<lambda_f7f22ab5edc0698d5f6905b0d3f44752>@@@Z@4HA 0000000180021004 f   libucrt:fflush.obj
 0001:00020021       _write$fin$0               0000000180021021 f   libucrt:write.obj
 0001:00020038       fclose$fin$0               0000000180021038 f   libucrt:fclose.obj
 0001:00020050       ?fin$0@?0???$?RV<lambda_a37b2b86f63e897a80ea819b0eb08c01>@@AEAV<lambda_38ce7e780aa69e748d6df282ebc68efe>@@V<lambda_99fb1378e971ab6e7edea83e3a7a83a2>@@@?$__crt_seh_guarded_call@H@@QEAAH$$QEAV<lambda_a37b2b86f63e897a80ea819b0eb08c01>@@AEAV<lambda_38ce7e780aa69e748d6df282ebc68efe>@@$$QEAV<lambda_99fb1378e971ab6e7edea83e3a7a83a2>@@@Z@4HA 0000000180021050 f   libucrt:commit.obj
 0001:00020050       ?fin$0@?0???$?RV<lambda_751a882b2c74d4b022dec766aa51a29a>@@AEAV<lambda_628dfdc04ba53c8bfc02c9951375f3f5>@@V<lambda_f6c7be5f7998530c34de24c7437d6b54>@@@?$__crt_seh_guarded_call@H@@QEAAH$$QEAV<lambda_751a882b2c74d4b022dec766aa51a29a>@@AEAV<lambda_628dfdc04ba53c8bfc02c9951375f3f5>@@$$QEAV<lambda_f6c7be5f7998530c34de24c7437d6b54>@@@Z@4HA 0000000180021050 f   libucrt:close.obj
 0001:0002006a       common_control87$filt$0    000000018002106a f   libucrt:ieee.obj
 0001:0002006a       _ctrlfp$filt$0             000000018002106a f   libucrt:fpctrl.obj
 0001:000200a0       _IsNonwritableInCurrentImage$filt$0 00000001800210a0 f   LIBCMT:pesect.obj
 0001:000200c0       ??__F_AtlComModule@ATL@@YAXXZ 00000001800210c0 f   OposVariant.obj
 0001:000200cc       ??__F_AtlWinModule@ATL@@YAXXZ 00000001800210cc f   OposVariant.obj
 0001:00020110       ??__F_Module@@YAXXZ        0000000180021110 f   CashChanger.obj
 0001:00020174       ??__F_AtlBaseModule@ATL@@YAXXZ 0000000180021174 f   atls:atlbase.obj
 0002:00000630       ?_AtlBaseModule$initializer$@ATL@@3P6AXXZEA 0000000180022630     atls:atlbase.obj
 0002:00000638       ?_AtlComModule$initializer$@ATL@@3P6AXXZEA 0000000180022638     OposVariant.obj
 0002:00000640       ?_AtlWinModule$initializer$@ATL@@3P6AXXZEA 0000000180022640     OposVariant.obj
 0002:00000648       ?_Module$initializer$@@3P6AXXZEA 0000000180022648     CashChanger.obj
 0002:00000650       ??pConnMap$initializer$@?$IConnectionPointContainerImpl@VCOPOSCashChanger@@@ATL@@0P6AXXZEA@@3P6AXXZEA 0000000180022650     CashChanger.obj
 0002:00000668       ?__scrt_initialize_tss_var@@3P6AHXZEA 0000000180022668     LIBCMT:thread_safe_statics.obj
 0002:00000d70       ?map@?1??HKeyFromString@CRegParser@ATL@@KAPEAUHKEY__@@PEA_W@Z@4QBUkeymap@?1??123@KAPEAU4@0@Z@B 0000000180022d70     CashChanger.obj
 0002:00002808       $cppxdata$?__scrt_initialize_thread_safe_statics@@YAHXZ 0000000180024808     LIBCMT:thread_safe_statics.obj
 0002:000028f8       GS_ExceptionPointers       00000001800248f8     LIBCMT:gs_report.obj
 0002:00002908       $cppxdata$??2@YAPEAX_KAEBUnothrow_t@std@@@Z 0000000180024908     LIBCMT:new_scalar_nothrow.obj
 0002:00002ae0       ?ExceptionTemplate@?1??UnwindNestedFrames@__FrameHandler3@@SAXPEA_KPEAUEHExceptionRecord@@PEAU_CONTEXT@@0PEAXPEBU_s_FuncInfo@@HHPEBU_s_HandlerType@@PEAU_xDISPATCHER_CONTEXT@@E@Z@4U_EXCEPTION_RECORD@@B 0000000180024ae0     libvcruntime:risctrnsctrl.obj
 0002:00002b80       ?ExceptionTemplate@?1??_CxxThrowException@@9@4UEHExceptionRecord@@B 0000000180024b80     libvcruntime:throw.obj
 0002:00002bc0       ?module_names@?A0xcc2f1bd3@@3QBQEB_WB 0000000180024bc0     libvcruntime:winapi_downlevel.obj
 0002:00002c90       ?candidate_modules@?1??try_get_FlsAlloc@@YAP6AKP6AXPEAX@Z@ZXZ@4QBW4module_id@?A0xcc2f1bd3@@B 0000000180024c90     libvcruntime:winapi_downlevel.obj
 0002:00002ca8       ?candidate_modules@?1??try_get_FlsFree@@YAP6AHK@ZXZ@4QBW4module_id@?A0xcc2f1bd3@@B 0000000180024ca8     libvcruntime:winapi_downlevel.obj
 0002:00002cb8       ?candidate_modules@?1??try_get_FlsGetValue@@YAP6APEAXK@ZXZ@4QBW4module_id@?A0xcc2f1bd3@@B 0000000180024cb8     libvcruntime:winapi_downlevel.obj
 0002:00002cd0       ?candidate_modules@?1??try_get_FlsSetValue@@YAP6AHKPEAX@ZXZ@4QBW4module_id@?A0xcc2f1bd3@@B 0000000180024cd0     libvcruntime:winapi_downlevel.obj
 0002:00002ce8       ?candidate_modules@?1??try_get_InitializeCriticalSectionEx@@YAP6AHPEAU_RTL_CRITICAL_SECTION@@KK@ZXZ@4QBW4module_id@?A0xcc2f1bd3@@B 0000000180024ce8     libvcruntime:winapi_downlevel.obj
 0002:00002d40       ?tokenTable@@3QBQEBDB      0000000180024d40     libvcruntime:undname.obj
 0002:00002dc0       ?nameTable@@3QBQEBDB       0000000180024dc0     libvcruntime:undname.obj
 0002:00003050       ?rttiTable@@3QBQEBDB       0000000180025050     libvcruntime:undname.obj
 0002:00003710       ?errtable@@3QBUerrentry@?A0x31fdb9ec@@B 0000000180025710     libucrt:errno.obj
 0002:000039f0       __acrt_initializers        00000001800259f0     libucrt:initialization.obj
 0002:00003ae0       ?module_names@?A0x391cf84c@@3QBQEB_WB 0000000180025ae0     libucrt:winapi_thunks.obj
 0002:00004048       ?candidate_modules@?1??try_get_FlsAlloc@@YAP6AKP6AXPEAX@Z@ZXZ@4QBW4module_id@?A0x391cf84c@@B 0000000180026048     libucrt:winapi_thunks.obj
 0002:00004060       ?candidate_modules@?1??try_get_FlsFree@@YAP6AHK@ZXZ@4QBW4module_id@?A0x391cf84c@@B 0000000180026060     libucrt:winapi_thunks.obj
 0002:00004070       ?candidate_modules@?1??try_get_FlsGetValue@@YAP6APEAXK@ZXZ@4QBW4module_id@?A0x391cf84c@@B 0000000180026070     libucrt:winapi_thunks.obj
 0002:00004088       ?candidate_modules@?1??try_get_FlsSetValue@@YAP6AHKPEAX@ZXZ@4QBW4module_id@?A0x391cf84c@@B 0000000180026088     libucrt:winapi_thunks.obj
 0002:000040a0       ?candidate_modules@?1??try_get_InitializeCriticalSectionEx@@YAP6AHPEAU_RTL_CRITICAL_SECTION@@KK@ZXZ@4QBW4module_id@?A0x391cf84c@@B 00000001800260a0     libucrt:winapi_thunks.obj
 0002:000040c8       ?candidate_modules@?1??try_get_LCMapStringEx@@YAP6AHPEB_WK0HPEA_WHPEAU_nlsversioninfo@@PEAX_J@ZXZ@4QBW4module_id@?A0x391cf84c@@B 00000001800260c8     libucrt:winapi_thunks.obj
 0002:000040e0       ?candidate_modules@?1??try_get_LocaleNameToLCID@@YAP6AKPEB_WK@ZXZ@4QBW4module_id@?A0x391cf84c@@B 00000001800260e0     libucrt:winapi_thunks.obj
 0002:000040fc       ?candidate_modules@?1??try_get_AppPolicyGetProcessTerminationMethod@@YAP6AJPEAXPEAW4AppPolicyProcessTerminationMethod@@@ZXZ@4QBW4module_id@?A0x391cf84c@@B 00000001800260fc     libucrt:winapi_thunks.obj
 0002:00004128       ?candidate_modules@?1??try_get_SetThreadStackGuarantee@@YAP6AHPEAK@ZXZ@4QBW4module_id@?A0x391cf84c@@B 0000000180026128     libucrt:winapi_thunks.obj
 0002:00004820       ?_mb_locale_names@@3QBQEB_WB 0000000180026820     libucrt:mbctype.obj
 0002:00005860       ?LocaleNameToIndexTable@?A0x881e4c05@@3QBULocaleNameIndex@1@B 0000000180027860     libucrt:lcidtoname_downlevel.obj
 0002:00007100       ?LcidToLocaleNameTable@?A0x881e4c05@@3QBULcidToLocaleName@1@B 0000000180029100     libucrt:lcidtoname_downlevel.obj
 0002:00008d90       __real_ninf                000000018002ad90     libucrt:log10.obj
 0002:00008da0       __real_inf                 000000018002ada0     libucrt:log10.obj
 0002:00008db0       __real_neg_qnan            000000018002adb0     libucrt:log10.obj
 0002:00008dc0       __real_qnanbit             000000018002adc0     libucrt:log10.obj
 0002:00008dd0       __int_1023                 000000018002add0     libucrt:log10.obj
 0002:00008de0       __mask_001                 000000018002ade0     libucrt:log10.obj
 0002:00008df0       __mask_mant                000000018002adf0     libucrt:log10.obj
 0002:00008e00       __mask_mant_top8           000000018002ae00     libucrt:log10.obj
 0002:00008e10       __mask_mant9               000000018002ae10     libucrt:log10.obj
 0002:00008e20       __real_log10_e             000000018002ae20     libucrt:log10.obj
 0002:00008e30       __real_log10_e_lead        000000018002ae30     libucrt:log10.obj
 0002:00008e40       __real_log10_e_tail        000000018002ae40     libucrt:log10.obj
 0002:00008e50       __real_log10_2_lead        000000018002ae50     libucrt:log10.obj
 0002:00008e60       __real_log10_2_tail        000000018002ae60     libucrt:log10.obj
 0002:00008e70       __real_two                 000000018002ae70     libucrt:log10.obj
 0002:00008e80       __real_one                 000000018002ae80     libucrt:log10.obj
 0002:00008e90       __real_half                000000018002ae90     libucrt:log10.obj
 0002:00008ea0       __mask_100                 000000018002aea0     libucrt:log10.obj
 0002:00008eb0       __real_1_over_512          000000018002aeb0     libucrt:log10.obj
 0002:00008ec0       __real_1_over_2            000000018002aec0     libucrt:log10.obj
 0002:00008ed0       __real_1_over_3            000000018002aed0     libucrt:log10.obj
 0002:00008ee0       __real_1_over_4            000000018002aee0     libucrt:log10.obj
 0002:00008ef0       __real_1_over_5            000000018002aef0     libucrt:log10.obj
 0002:00008f00       __real_1_over_6            000000018002af00     libucrt:log10.obj
 0002:00008f10       __real_neg_1023            000000018002af10     libucrt:log10.obj
 0002:00008f20       __mask_2045                000000018002af20     libucrt:log10.obj
 0002:00008f30       __real_threshold           000000018002af30     libucrt:log10.obj
 0002:00008f40       __real_near_one_lt         000000018002af40     libucrt:log10.obj
 0002:00008f50       __real_near_one_gt         000000018002af50     libucrt:log10.obj
 0002:00008f60       __real_min_norm            000000018002af60     libucrt:log10.obj
 0002:00008f70       __real_notsign             000000018002af70     libucrt:log10.obj
 0002:00008f80       __real_ca1                 000000018002af80     libucrt:log10.obj
 0002:00008f90       __real_ca2                 000000018002af90     libucrt:log10.obj
 0002:00008fa0       __real_ca3                 000000018002afa0     libucrt:log10.obj
 0002:00008fb0       __real_ca4                 000000018002afb0     libucrt:log10.obj
 0002:00008fc0       __mask_lower               000000018002afc0     libucrt:log10.obj
 0002:00008fd0       __flag_x_zero              000000018002afd0     libucrt:log10.obj
 0002:00008fd4       __flag_x_neg               000000018002afd4     libucrt:log10.obj
 0002:00008fd8       __flag_x_nan               000000018002afd8     libucrt:log10.obj
 0002:0000a820       __real@433fffffffffffff    000000018002c820     libucrt:fpsr.obj
 0002:0000a828       __real@c33fffffffffffff    000000018002c828     libucrt:fpsr.obj
 0002:0000b068       $unwind$_invalid_parameter_noinfo 000000018002d068     libucrt:invalid_parameter.obj
 0002:0000b068       $unwind$_log10_special     000000018002d068     libucrt:log_special.obj
 0002:0000b068       $unwind$?cw_memcpy@@YAHPEA_WPEBDH@Z 000000018002d068     CWString.obj
 0002:0000b068       $unwind$?ProcessWindowMessage@?$CComControl@VCOPOSCashChanger@@V?$CWindowImpl@VCOPOSCashChanger@@VCWindow@ATL@@V?$CWinTraits@$0FGAAAAAA@$0A@@3@@ATL@@@ATL@@UEAAHPEAUHWND__@@I_K_JAEA_JK@Z 000000018002d068     CashChanger.obj
 0002:0000b070       $unwind$?cw_strcpy@@YAHPEA_WPEBD@Z 000000018002d070     CWString.obj
 0002:0000b070       $unwind$__acrt_uninitialize_critical 000000018002d070     libucrt:initialization.obj
 0002:0000b070       $unwind$??__E_AtlComModule@ATL@@YAXXZ 000000018002d070     OposVariant.obj
 0002:0000b070       $unwind$__acrt_update_thread_multibyte_data 000000018002d070     libucrt:mbctype.obj
 0002:0000b070       $unwind$__acrt_initialize_multibyte 000000018002d070     libucrt:mbctype.obj
 0002:0000b070       $unwind$__acrt_thread_attach 000000018002d070     libucrt:initialization.obj
 0002:0000b070       $unwind$_Init_thread_notify 000000018002d070     LIBCMT:thread_safe_statics.obj
 0002:0000b070       $unwind$??__F_Module@@YAXXZ 000000018002d070     CashChanger.obj
 0002:0000b070       $unwind$?state_case_size@?$output_processor@_WV?$string_output_adapter@_W@__crt_stdio_output@@V?$format_validation_base@_WV?$string_output_adapter@_W@__crt_stdio_output@@@2@@__crt_stdio_output@@AEAA_NXZ 000000018002d070     libucrt:output.obj
 0002:0000b070       $unwind$??__E_AtlWinModule@ATL@@YAXXZ 000000018002d070     OposVariant.obj
 0002:0000b070       $unwind$__acrt_thread_detach 000000018002d070     libucrt:initialization.obj
 0002:0000b070       $unwind$??__F_AtlWinModule@ATL@@YAXXZ 000000018002d070     OposVariant.obj
 0002:0000b070       $unwind$initialize_c       000000018002d070     libucrt:initialization.obj
 0002:0000b070       $unwind$?__scrt_uninitialize_thread_safe_statics@@YAXXZ 000000018002d070     LIBCMT:thread_safe_statics.obj
 0002:0000b070       $unwind$?LockServer@CComClassFactory@ATL@@UEAAJH@Z 000000018002d070     CashChanger.obj
 0002:0000b070       $unwind$??__E?pConnMap@?$IConnectionPointContainerImpl@VCOPOSCashChanger@@@ATL@@0PEBU_ATL_CONNMAP_ENTRY@2@EB@@YAXXZ 000000018002d070     CashChanger.obj
 0002:0000b070       $unwind$uninitialize_environment 000000018002d070     libucrt:initialization.obj
 0002:0000b070       $unwind$?GetLONG@OposVariant@@QEAAJXZ 000000018002d070     OposVariant.obj
 0002:0000b070       $unwind$__acrt_initialize_command_line 000000018002d070     libucrt:argv_data.obj
 0002:0000b070       $unwind$__acrt_initialize_heap 000000018002d070     libucrt:heap_handle.obj
 0002:0000b070       $unwind$??__E_AtlBaseModule@ATL@@YAXXZ 000000018002d070     atls:atlbase.obj
 0002:0000b070       $unwind$?_LocCPQueryInterface@?$IConnectionPointImpl@VCOPOSCashChanger@@$1?DIID__IOPOSCashChangerEvents@@3U_GUID@@BVCComDynamicUnkArray@ATL@@@ATL@@UEAAJAEBU_GUID@@PEAPEAX@Z 000000018002d070     CashChanger.obj
 0002:0000b070       $unwind$uninitialize_allocated_memory 000000018002d070     libucrt:initialization.obj
 0002:0000b070       $unwind$__dcrt_terminate_console_output 000000018002d070     libucrt:initcon.obj
 0002:0000b070       $unwind$_purecall          000000018002d070     libvcruntime:purevirt.obj
 0002:0000b070       $unwind$?_LocCPQueryInterface@?$IConnectionPointImpl@VCOPOSCashChanger@@$1?IID_IPropertyNotifySink@@3U_GUID@@BVCComDynamicUnkArray@ATL@@@ATL@@UEAAJAEBU_GUID@@PEAPEAX@Z 000000018002d070     CashChanger.obj
 0002:0000b070       $unwind$_statfp            000000018002d070     libucrt:fpctrl.obj
 0002:0000b070       $unwind$__vcrt_initialize  000000018002d070     libvcruntime:initialization.obj
 0002:0000b070       $unwind$??1OposDispParms@@QEAA@XZ 000000018002d070     OposVariant.obj
 0002:0000b070       $unwind$?CreateInstance@CComClassFactory@ATL@@UEAAJPEAUIUnknown@@AEBU_GUID@@PEAPEAX@Z 000000018002d070     CashChanger.obj
 0002:0000b070       $unwind$__vcrt_uninitialize 000000018002d070     libvcruntime:initialization.obj
 0002:0000b070       $unwind$__pctype_func      000000018002d070     libucrt:ctype.obj
 0002:0000b070       $unwind$__doserrno         000000018002d070     libucrt:errno.obj
 0002:0000b070       $unwind$_errno             000000018002d070     libucrt:errno.obj
 0002:0000b070       $unwind$_set_errno_from_matherr 000000018002d070     libucrt:fpexcept.obj
 0002:0000b070       $unwind$__acrt_release_locale_ref 000000018002d070     libucrt:locale_refcounting.obj
 0002:0000b070       $unwind$__vcrt_uninitialize_critical 000000018002d070     libvcruntime:initialization.obj
 0002:0000b070       $unwind$?GetAdvise@?$IViewObjectExImpl@VCOPOSCashChanger@@@ATL@@UEAAJPEAK0PEAPEAUIAdviseSink@@@Z 000000018002d070     CashChanger.obj
 0002:0000b070       $unwind$?FinalConstruct@COPOSCashChanger@@QEAAJXZ 000000018002d070     CashChangerImpl.obj
 0002:0000b070       $unwind$__vcrt_thread_attach 000000018002d070     libvcruntime:initialization.obj
 0002:0000b070       $unwind$?AtlThrowImpl@ATL@@YAXJ@Z 000000018002d070     CashChanger.obj
 0002:0000b070       $unwind$??$uninitialize_environment_internal@D@@YAXAEAPEAPEAD@Z 000000018002d070     libucrt:environment_initialization.obj
 0002:0000b070       $unwind$_invoke_watson     000000018002d070     libucrt:invalid_parameter.obj
 0002:0000b070       $unwind$_fileno            000000018002d070     libucrt:fileno.obj
 0002:0000b070       $unwind$?OnDocWindowActivate@?$IOleInPlaceActiveObjectImpl@VCOPOSCashChanger@@@ATL@@UEAAJH@Z 000000018002d070     CashChanger.obj
 0002:0000b070       $unwind$__acrt_DownlevelLocaleNameToLCID 000000018002d070     libucrt:lcidtoname_downlevel.obj
 0002:0000b070       $unwind$?EnumAdvise@?$IOleObjectImpl@VCOPOSCashChanger@@@ATL@@UEAAJPEAPEAUIEnumSTATDATA@@@Z 000000018002d070     CashChanger.obj
 0002:0000b070       $unwind$?Unadvise@?$IOleObjectImpl@VCOPOSCashChanger@@@ATL@@UEAAJK@Z 000000018002d070     CashChanger.obj
 0002:0000b070       $unwind$__vcrt_thread_detach 000000018002d070     libvcruntime:initialization.obj
 0002:0000b070       $unwind$abort              000000018002d070     libucrt:abort.obj
 0002:0000b070       $unwind$__std_terminate    000000018002d070     libvcruntime:ehhelpers.obj
 0002:0000b070       $unwind$?AtlHresultFromLastError@ATL@@YAJXZ 000000018002d070     CashChanger.obj
 0002:0000b070       $unwind$__FrameUnwindFilter 000000018002d070     libvcruntime:ehhelpers.obj
 0002:0000b070       $unwind$?FireViewChange@CComControlBase@ATL@@QEAAJXZ 000000018002d070     CashChanger.obj
 0002:0000b070       $unwind$__scrt_initialize_default_local_stdio_options 000000018002d070     LIBCMT:default_local_stdio_options.obj
 0002:0000b070       $unwind$atexit             000000018002d070     LIBCMT:utility.obj
 0002:0000b070       $unwind$_GetImageBase      000000018002d070     libvcruntime:risctrnsctrl.obj
 0002:0000b070       $unwind$_GetThrowImageBase 000000018002d070     libvcruntime:risctrnsctrl.obj
 0002:0000b070       $unwind$__scrt_acquire_startup_lock 000000018002d070     LIBCMT:utility.obj
 0002:0000b070       $unwind$?DefaultReflectionHandler@?$CWindowImplRoot@VCWindow@ATL@@@ATL@@SAHPEAUHWND__@@I_K_JAEA_J@Z 000000018002d070     CashChanger.obj
 0002:0000b070       $unwind$?dllmain_crt_dispatch@@YAHQEAUHINSTANCE__@@KQEAX@Z 000000018002d070     LIBCMT:dll_dllmain.obj
 0002:0000b070       $unwind$__acrt_initialize_ptd 000000018002d070     libucrt:per_thread_data.obj
 0002:0000b070       $unwind$_getfpstatusword   000000018002d070     libucrt:_fenvutils.obj
 0002:0000b070       $unwind$__acrt_uninitialize_ptd 000000018002d070     libucrt:per_thread_data.obj
 0002:0000b070       $unwind$_getfpcontrolword  000000018002d070     libucrt:_fenvutils.obj
 0002:0000b070       $unwind$_get_osfhandle     000000018002d070     libucrt:osfinfo.obj
 0002:0000b070       $unwind$?GetCurrentState@__FrameHandler3@@SAHPEA_KPEAU_xDISPATCHER_CONTEXT@@PEBU_s_FuncInfo@@@Z 000000018002d070     libvcruntime:ehstate.obj
 0002:0000b070       $unwind$_msize_base        000000018002d070     libucrt:msize.obj
 0002:0000b070       $unwind$__vcrt_initialize_ptd 000000018002d070     libvcruntime:per_thread_data.obj
 0002:0000b070       $unwind$__vcrt_uninitialize_ptd 000000018002d070     libvcruntime:per_thread_data.obj
 0002:0000b070       $unwind$?get_ResultCode@COPOSCashChanger@@UEAAJPEAJ@Z 000000018002d070     CashChangerImpl.obj
 0002:0000b070       $unwind$__vcrt_getptd      000000018002d070     libvcruntime:per_thread_data.obj
 0002:0000b070       $unwind$?get_State@COPOSCashChanger@@UEAAJPEAJ@Z 000000018002d070     CashChangerImpl.obj
 0002:0000b070       $unwind$?AddReplacement@CRegObject@ATL@@UEAAJPEB_W0@Z 000000018002d070     CashChanger.obj
 0002:0000b070       $unwind$__GSHandlerCheck   000000018002d070     LIBCMT:_gshandler_.obj
 0002:0000b070       $unwind$__scrt_dllmain_before_initialize_c 000000018002d070     LIBCMT:utility.obj
 0002:0000b070       $unwind$__scrt_dllmain_after_initialize_c 000000018002d070     LIBCMT:utility.obj
 0002:0000b070       $unwind$__vcrt_freefls     000000018002d070     libvcruntime:per_thread_data.obj
 0002:0000b070       $unwind$__dcrt_uninitialize_environments_nolock 000000018002d070     libucrt:environment_initialization.obj
 0002:0000b070       $unwind$tolower            000000018002d070     libucrt:tolower_toupper.obj
 0002:0000b070       $unwind$__scrt_dllmain_uninitialize_c 000000018002d070     LIBCMT:utility.obj
 0002:0000b070       $unwind$__scrt_dllmain_uninitialize_critical 000000018002d070     LIBCMT:utility.obj
 0002:0000b070       $unwind$__scrt_dllmain_crt_thread_attach 000000018002d070     LIBCMT:utility.obj
 0002:0000b070       $unwind$__scrt_dllmain_crt_thread_detach 000000018002d070     LIBCMT:utility.obj
 0002:0000b070       $unwind$__report_rangecheckfailure 000000018002d070     LIBCMT:gs_report.obj
 0002:0000b070       $unwind$_isatty            000000018002d070     libucrt:isatty.obj
 0002:0000b070       $unwind$?initialize_multibyte@@YAHXZ 000000018002d070     libucrt:multibyte_initializer.obj
 0002:0000b070       $unwind$??$uninitialize_environment_internal@_W@@YAXAEAPEAPEA_W@Z 000000018002d070     libucrt:environment_initialization.obj
 0002:0000b078       $unwind$?AtlModuleAddTermFunc@ATL@@YAJPEAU_ATL_MODULE70@1@P6AX_K@Z1@Z 000000018002d078     CashChanger.obj
 0002:0000b078       $unwind$?AtlComModuleUnregisterServer@ATL@@YAJPEAU_ATL_COM_MODULE70@1@HPEBU_GUID@@@Z 000000018002d078     CashChanger.obj
 0002:0000b078       $unwind$?AtlComModuleRegisterServer@ATL@@YAJPEAU_ATL_COM_MODULE70@1@HPEBU_GUID@@@Z 000000018002d078     CashChanger.obj
 0002:0000b078       $unwind$??$TypeMatchHelper@$$CBU_s_HandlerType@@@@YAHPEBU_s_HandlerType@@PEBU_s_CatchableType@@PEBU_s_ThrowInfo@@@Z 000000018002d078     libvcruntime:frame.obj
 0002:0000b078       $unwind$__acrt_initialize_stdio 000000018002d078     libucrt:_file.obj
 0002:0000b078       $unwind$?cw_dup@@YAXPEBDAEAHAEAPEA_W1@Z 000000018002d078     CWString.obj
 0002:0000b078       $unwind$?GetPagesHelper@?$ISpecifyPropertyPagesImpl@VCOPOSCashChanger@@@ATL@@IEAAJPEAUtagCAUUID@@PEBUATL_PROPMAP_ENTRY@2@@Z 000000018002d078     CashChanger.obj
 0002:0000b078       $unwind$??_Estringdispid@CComTypeInfoHolder@ATL@@QEAAPEAXI@Z 000000018002d078     OposVariant.obj
 0002:0000b078       $unwind$?process@?$output_processor@_WV?$string_output_adapter@_W@__crt_stdio_output@@V?$format_validation_base@_WV?$string_output_adapter@_W@__crt_stdio_output@@@2@@__crt_stdio_output@@QEAAHXZ 000000018002d078     libucrt:output.obj
 0002:0000b078       $unwind$?CreateInstance@?$CComCreator@V?$CComAggObject@VCOPOSCashChanger@@@ATL@@@ATL@@SAJPEAXAEBU_GUID@@PEAPEAX@Z 000000018002d078     CashChanger.obj
 0002:0000b078       $unwind$__GSHandlerCheck_SEH 000000018002d078     LIBCMT:_gshandlerseh_.obj
 0002:0000b090       $unwind$__acrt_AppPolicyGetProcessTerminationMethodInternal 000000018002d090     libucrt:winapi_thunks.obj
 0002:0000b090       $unwind$?get_CapNearFullSensor@COPOSCashChanger@@UEAAJPEAF@Z 000000018002d090     CashChangerImpl.obj
 0002:0000b090       $unwind$?AtlCreateTargetDC@ATL@@YAPEAUHDC__@@PEAU2@PEAUtagDVTARGETDEVICE@@@Z 000000018002d090     CashChanger.obj
 0002:0000b090       $unwind$?get_CapNearEmptySensor@COPOSCashChanger@@UEAAJPEAF@Z 000000018002d090     CashChangerImpl.obj
 0002:0000b090       $unwind$__acrt_SetThreadStackGuarantee 000000018002d090     libucrt:winapi_thunks.obj
 0002:0000b090       $unwind$?GetUnwindTryBlock@__FrameHandler3@@SAHPEA_KPEAU_xDISPATCHER_CONTEXT@@PEBU_s_FuncInfo@@@Z 000000018002d090     libvcruntime:ehstate.obj
 0002:0000b090       $unwind$?get_CapFullSensor@COPOSCashChanger@@UEAAJPEAF@Z 000000018002d090     CashChangerImpl.obj
 0002:0000b090       $unwind$?get_CapEmptySensor@COPOSCashChanger@@UEAAJPEAF@Z 000000018002d090     CashChangerImpl.obj
 0002:0000b090       $unwind$?get_CapDiscrepancy@COPOSCashChanger@@UEAAJPEAF@Z 000000018002d090     CashChangerImpl.obj
 0002:0000b090       $unwind$?get_AsyncMode@COPOSCashChanger@@UEAAJPEAF@Z 000000018002d090     CashChangerImpl.obj
 0002:0000b090       $unwind$__acrt_FlsGetValue 000000018002d090     libucrt:winapi_thunks.obj
 0002:0000b090       $unwind$?IsEqualObject@?$CComPtrBase@UIOleClientSite@@@ATL@@QEAA_NPEAUIUnknown@@@Z 000000018002d090     CashChanger.obj
 0002:0000b090       $unwind$__acrt_FlsFree     000000018002d090     libucrt:winapi_thunks.obj
 0002:0000b090       $unwind$?get_CapDeposit@COPOSCashChanger@@UEAAJPEAF@Z 000000018002d090     CashChangerImpl.obj
 0002:0000b090       $unwind$__acrt_FlsAlloc    000000018002d090     libucrt:winapi_thunks.obj
 0002:0000b090       $unwind$?get_CapDepositDataEvent@COPOSCashChanger@@UEAAJPEAF@Z 000000018002d090     CashChangerImpl.obj
 0002:0000b090       $unwind$__acrt_uninitialize_winapi_thunks 000000018002d090     libucrt:winapi_thunks.obj
 0002:0000b090       $unwind$?get_CapPauseDeposit@COPOSCashChanger@@UEAAJPEAF@Z 000000018002d090     CashChangerImpl.obj
 0002:0000b090       $unwind$?get_CapRepayDeposit@COPOSCashChanger@@UEAAJPEAF@Z 000000018002d090     CashChangerImpl.obj
 0002:0000b090       $unwind$?IsEqualObject@?$CComPtrBase@UITypeInfo@@@ATL@@QEAA_NPEAUIUnknown@@@Z 000000018002d090     CashChanger.obj
 0002:0000b090       $unwind$?AllocateHeap@?$CTempBuffer@E$0BAA@VCCRTAllocator@ATL@@@ATL@@AEAAX_K@Z 000000018002d090     CashChanger.obj
 0002:0000b090       $unwind$?AllocateHeap@?$CTempBuffer@_W$0BAA@VCCRTAllocator@ATL@@@ATL@@AEAAX_K@Z 000000018002d090     CashChanger.obj
 0002:0000b090       $unwind$?AllocateHeap@?$CTempBuffer@_W$0EAA@VCCRTAllocator@ATL@@@ATL@@AEAAX_K@Z 000000018002d090     CashChanger.obj
 0002:0000b090       $unwind$?StateFromIp@__FrameHandler3@@SAHPEBU_s_FuncInfo@@PEAU_xDISPATCHER_CONTEXT@@_K@Z 000000018002d090     libvcruntime:ehstate.obj
 0002:0000b090       $unwind$_Init_thread_wait  000000018002d090     LIBCMT:thread_safe_statics.obj
 0002:0000b090       $unwind$_Init_thread_footer 000000018002d090     LIBCMT:thread_safe_statics.obj
 0002:0000b090       $unwind$_malloc_base       000000018002d090     libucrt:malloc_base.obj
 0002:0000b090       $unwind$_Init_thread_header 000000018002d090     LIBCMT:thread_safe_statics.obj
 0002:0000b090       $unwind$_calloc_base       000000018002d090     libucrt:calloc_base.obj
 0002:0000b090       $unwind$?get_CapStatisticsReporting@COPOSCashChanger@@UEAAJPEAF@Z 000000018002d090     CashChangerImpl.obj
 0002:0000b090       $unwind$fegetenv           000000018002d090     libucrt:fegetenv.obj
 0002:0000b090       $unwind$?get_CapUpdateStatistics@COPOSCashChanger@@UEAAJPEAF@Z 000000018002d090     CashChangerImpl.obj
 0002:0000b090       $unwind$fesetenv           000000018002d090     libucrt:fesetenv.obj
 0002:0000b090       $unwind$__acrt_stdio_free_buffer_nolock 000000018002d090     libucrt:_freebuf.obj
 0002:0000b090       $unwind$feholdexcept       000000018002d090     libucrt:feholdexcept.obj
 0002:0000b090       $unwind$__raise_securityfailure 000000018002d090     LIBCMT:gs_report.obj
 0002:0000b090       $unwind$?get_CapCompareFirmwareVersion@COPOSCashChanger@@UEAAJPEAF@Z 000000018002d090     CashChangerImpl.obj
 0002:0000b090       $unwind$?get_CapUpdateFirmware@COPOSCashChanger@@UEAAJPEAF@Z 000000018002d090     CashChangerImpl.obj
 0002:0000b090       $unwind$__vcrt_FlsGetValue 000000018002d090     libvcruntime:winapi_downlevel.obj
 0002:0000b090       $unwind$__vcrt_FlsFree     000000018002d090     libvcruntime:winapi_downlevel.obj
 0002:0000b090       $unwind$__vcrt_FlsAlloc    000000018002d090     libvcruntime:winapi_downlevel.obj
 0002:0000b090       $unwind$?get_CapJamSensor@COPOSCashChanger@@UEAAJPEAF@Z 000000018002d090     CashChangerImpl.obj
 0002:0000b090       $unwind$__vcrt_uninitialize_locks 000000018002d090     libvcruntime:locks.obj
 0002:0000b090       $unwind$?get_CapRealTimeData@COPOSCashChanger@@UEAAJPEAF@Z 000000018002d090     CashChangerImpl.obj
 0002:0000b090       $unwind$?get_RealTimeDataEnabled@COPOSCashChanger@@UEAAJPEAF@Z 000000018002d090     CashChangerImpl.obj
 0002:0000b090       $unwind$__vcrt_initialize_locks 000000018002d090     libvcruntime:locks.obj
 0002:0000b090       $unwind$??0bad_exception@std@@QEAA@AEBV01@@Z 000000018002d090     libvcruntime:frame.obj
 0002:0000b090       $unwind$?ExFilterRethrow@@YAHPEAU_EXCEPTION_POINTERS@@PEAUEHExceptionRecord@@PEAH@Z 000000018002d090     libvcruntime:frame.obj
 0002:0000b090       $unwind$__vcrt_freeptd     000000018002d090     libvcruntime:per_thread_data.obj
 0002:0000b090       $unwind$__scrt_uninitialize_crt 000000018002d090     LIBCMT:utility.obj
 0002:0000b090       $unwind$__scrt_initialize_crt 000000018002d090     LIBCMT:utility.obj
 0002:0000b090       $unwind$?put_FreezeEvents@COPOSCashChanger@@UEAAJF@Z 000000018002d090     CashChangerImpl.obj
 0002:0000b090       $unwind$?get_FreezeEvents@COPOSCashChanger@@UEAAJPEAF@Z 000000018002d090     CashChangerImpl.obj
 0002:0000b090       $unwind$__std_exception_destroy 000000018002d090     libvcruntime:std_exception.obj
 0002:0000b090       $unwind$__acrt_freeptd     000000018002d090     libucrt:per_thread_data.obj
 0002:0000b090       $unwind$__acrt_update_locale_info 000000018002d090     libucrt:locale_update.obj
 0002:0000b090       $unwind$?get_DeviceEnabled@COPOSCashChanger@@UEAAJPEAF@Z 000000018002d090     CashChangerImpl.obj
 0002:0000b090       $unwind$__acrt_update_multibyte_info 000000018002d090     libucrt:locale_update.obj
 0002:0000b090       $unwind$__acrt_getptd_head 000000018002d090     libucrt:per_thread_data.obj
 0002:0000b090       $unwind$__std_type_info_destroy_list 000000018002d090     libvcruntime:std_type_info.obj
 0002:0000b090       $unwind$_setfpstatusword   000000018002d090     libucrt:_fenvutils.obj
 0002:0000b090       $unwind$?get_Claimed@COPOSCashChanger@@UEAAJPEAF@Z 000000018002d090     CashChangerImpl.obj
 0002:0000b090       $unwind$?IOleObject_SetExtent@CComControlBase@ATL@@QEAAJKPEAUtagSIZE@@@Z 000000018002d090     CashChanger.obj
 0002:0000b090       $unwind$__scrt_release_startup_lock 000000018002d090     LIBCMT:utility.obj
 0002:0000b090       $unwind$?IOleInPlaceObject_InPlaceDeactivate@CComControlBase@ATL@@QEAAJXZ 000000018002d090     CashChanger.obj
 0002:0000b090       $unwind$_fflush_nolock     000000018002d090     libucrt:fflush.obj
 0002:0000b090       $unwind$_clearfp           000000018002d090     libucrt:ieee.obj
 0002:0000b090       $unwind$_CreateFrameInfo   000000018002d090     libvcruntime:risctrnsctrl.obj
 0002:0000b090       $unwind$_SetThrowImageBase 000000018002d090     libvcruntime:risctrnsctrl.obj
 0002:0000b090       $unwind$?SOProcessID@COPOSCashChanger@@UEAAJPEAJ@Z 000000018002d090     CashChangerImpl.obj
 0002:0000b090       $unwind$_SetImageBase      000000018002d090     libvcruntime:risctrnsctrl.obj
 0002:0000b090       $unwind$??2@YAPEAX_K@Z     000000018002d090     LIBCMT:new_scalar.obj
 0002:0000b090       $unwind$_onexit            000000018002d090     LIBCMT:utility.obj
 0002:0000b090       $unwind$?EventUninit@COPOSCashChanger@@IEAAXXZ 000000018002d090     CashChangerImpl.obj
 0002:0000b090       $unwind$?ExecutionInCatch@__FrameHandler3@@SA_NPEAU_xDISPATCHER_CONTEXT@@PEBU_s_FuncInfo@@@Z 000000018002d090     libvcruntime:risctrnsctrl.obj
 0002:0000b090       $unwind$??0exception@std@@QEAA@AEBV01@@Z 000000018002d090     LIBCMT:throw_bad_alloc.obj
 0002:0000b090       $unwind$??0bad_alloc@std@@QEAA@AEBV01@@Z 000000018002d090     LIBCMT:throw_bad_alloc.obj
 0002:0000b090       $unwind$__acrt_allocate_buffer_for_argv 000000018002d090     libucrt:argv_parsing.obj
 0002:0000b090       $unwind$_IsExceptionObjectToBeDestroyed 000000018002d090     libvcruntime:ehhelpers.obj
 0002:0000b090       $unwind$?Load@?$IPersistStreamInitImpl@VCOPOSCashChanger@@@ATL@@UEAAJPEAUIStream@@@Z 000000018002d090     CashChanger.obj
 0002:0000b090       $unwind$??0bad_array_new_length@std@@QEAA@AEBV01@@Z 000000018002d090     LIBCMT:throw_bad_alloc.obj
 0002:0000b090       $unwind$strcpy_s           000000018002d090     libucrt:strcpy_s.obj
 0002:0000b090       $unwind$?FreezeEvents@COPOSCashChanger@@MEAAJH@Z 000000018002d090     CashChangerImpl.obj
 0002:0000b090       $unwind$__acrt_fp_strflt_to_string 000000018002d090     libucrt:_fptostr.obj
 0002:0000b090       $unwind$?GetClientSite@?$IOleObjectImpl@VCOPOSCashChanger@@@ATL@@UEAAJPEAPEAUIOleClientSite@@@Z 000000018002d090     CashChanger.obj
 0002:0000b090       $unwind$??1COPOSCashChanger@@UEAA@XZ 000000018002d090     CashChangerImpl.obj
 0002:0000b090       $unwind$__acrt_uninitialize_stdio 000000018002d090     libucrt:_file.obj
 0002:0000b090       $unwind$?QueryHitPoint@?$IViewObjectExImpl@VCOPOSCashChanger@@@ATL@@UEAAJKPEBUtagRECT@@UtagPOINT@@JPEAK@Z 000000018002d090     CashChanger.obj
 0002:0000b090       $unwind$??1CComControlBase@ATL@@UEAA@XZ 000000018002d090     CashChangerImpl.obj
 0002:0000b090       $unwind$?IPSI_GetIPersistStreamInit@?$IPersistStorageImpl@VCOPOSCashChanger@@@ATL@@AEAAPEAUIPersistStreamInit@@XZ 000000018002d090     CashChanger.obj
 0002:0000b090       $unwind$?GetClassInfoW@?$IProvideClassInfo2Impl@$1?CLSID_OPOSCashChanger@@3U_GUID@@B$1?DIID__IOPOSCashChangerEvents@@3U2@B$1?LIBID_OposCashChanger_CCO@@3U2@B$00$0A@VCComTypeInfoHolder@ATL@@@ATL@@UEAAJPEAPEAUITypeInfo@@@Z 000000018002d090     CashChanger.obj
 0002:0000b090       $unwind$??_Gtype_info@@UEAAPEAXI@Z 000000018002d090     LIBCMT:std_type_info_static.obj
 0002:0000b090       $unwind$_callnewh          000000018002d090     libucrt:new_handler.obj
 0002:0000b090       $unwind$_clrfp             000000018002d090     libucrt:fpctrl.obj
 0002:0000b090       $unwind$wcscat_s           000000018002d090     libucrt:wcscat_s.obj
 0002:0000b090       $unwind$?SetBSTR_OutPtr@OposVariant@@QEAA_NPEAPEA_WAEAJ@Z 000000018002d090     OposVariant.obj
 0002:0000b090       $unwind$?exit_or_terminate_process@@YAXI@Z 000000018002d090     libucrt:exit.obj
 0002:0000b090       $unwind$_set_statfp        000000018002d090     libucrt:fpctrl.obj
 0002:0000b090       $unwind$?try_cor_exit_process@@YAXI@Z 000000018002d090     libucrt:exit.obj
 0002:0000b090       $unwind$wcscpy_s           000000018002d090     libucrt:wcscpy_s.obj
 0002:0000b090       $unwind$??1CAtlBaseModule@ATL@@QEAA@XZ 000000018002d090     atls:atlbase.obj
 0002:0000b090       $unwind$?Unadvise@?$IConnectionPointImpl@VCOPOSCashChanger@@$1?IID_IPropertyNotifySink@@3U_GUID@@BVCComDynamicUnkArray@ATL@@@ATL@@UEAAJK@Z 000000018002d090     CashChanger.obj
 0002:0000b090       $unwind$?Unadvise@?$IConnectionPointImpl@VCOPOSCashChanger@@$1?DIID__IOPOSCashChangerEvents@@3U_GUID@@BVCComDynamicUnkArray@ATL@@@ATL@@UEAAJK@Z 000000018002d090     CashChanger.obj
 0002:0000b090       $unwind$initialize_pointers 000000018002d090     libucrt:initialization.obj
 0002:0000b090       $unwind$?GetConnMap@COPOSCashChanger@@SAPEBU_ATL_CONNMAP_ENTRY@ATL@@PEAH@Z 000000018002d090     CashChanger.obj
 0002:0000b090       $unwind$__acrt_initialize_locks 000000018002d090     libucrt:locks.obj
 0002:0000b090       $unwind$__acrt_uninitialize_locks 000000018002d090     libucrt:locks.obj
 0002:0000b090       $unwind$??__E_Module@@YAXXZ 000000018002d090     CashChanger.obj
 0002:0000b090       $unwind$??1?$CComObject@VCOPOSCashChanger@@@ATL@@UEAA@XZ 000000018002d090     CashChanger.obj
 0002:0000b090       $unwind$__acrt_get_process_end_policy 000000018002d090     libucrt:win_policies.obj
 0002:0000b090       $unwind$??0?$CComObject@VCOPOSCashChanger@@@ATL@@QEAA@PEAX@Z 000000018002d090     CashChanger.obj
 0002:0000b090       $unwind$?type_case_integer@?$output_processor@_WV?$string_output_adapter@_W@__crt_stdio_output@@V?$format_validation_base@_WV?$string_output_adapter@_W@__crt_stdio_output@@@2@@__crt_stdio_output@@AEAA_NI_N@Z 000000018002d090     libucrt:output.obj
 0002:0000b090       $unwind$?AddRef@?$CComObjectCached@VCComClassFactory@ATL@@@ATL@@UEAAKXZ 000000018002d090     CashChanger.obj
 0002:0000b090       $unwind$?QueryInterface@?$CComAggObject@VCOPOSCashChanger@@@ATL@@UEAAJAEBU_GUID@@PEAPEAX@Z 000000018002d090     CashChanger.obj
 0002:0000b090       $unwind$AtlThunk_AllocateData 000000018002d090     atls:atlthunk.obj
 0002:0000b090       $unwind$?DupWide@_CW@@AEAAXXZ 000000018002d090     CWString.obj
 0002:0000b090       $unwind$?get_DataEventEnabled@COPOSCashChanger@@UEAAJPEAF@Z 000000018002d090     CashChangerImpl.obj
 0002:0000b090       $unwind$?Release@?$CComObjectCached@VCComClassFactory@ATL@@@ATL@@UEAAKXZ 000000018002d090     CashChanger.obj
 0002:0000b090       $unwind$?GetTypeInfo@?$IDispatchImpl@UIOPOSCashChanger@@$1?IID_IOPOSCashChanger@@3U_GUID@@B$1?LIBID_OposCashChanger_CCO@@3U3@B$00$0A@VCComTypeInfoHolder@ATL@@@ATL@@UEAAJIKPEAPEAUITypeInfo@@@Z 000000018002d090     CashChanger.obj
 0002:0000b098       $unwind$??$uninitialize@V<lambda_af42a3ee9806e9a7305d451646e05244>@@@?$dual_state_global@PEAU__crt_multibyte_data@@@__crt_state_management@@QEAAX$$QEAV<lambda_af42a3ee9806e9a7305d451646e05244>@@@Z 000000018002d098     libucrt:initialization.obj
 0002:0000b098       $unwind$_initterm          000000018002d098     libucrt:initterm.obj
 0002:0000b098       $unwind$?setSBCS@@YAXPEAU__crt_multibyte_data@@@Z 000000018002d098     libucrt:mbctype.obj
 0002:0000b098       $unwind$?Is_bad_exception_allowed@@YAEPEBU_s_ESTypeList@@@Z 000000018002d098     libvcruntime:frame.obj
 0002:0000b098       $unwind$?CreateInstance@?$CComCreator@V?$CComObject@VCOPOSCashChanger@@@ATL@@@ATL@@SAJPEAXAEBU_GUID@@PEAPEAX@Z 000000018002d098     CashChanger.obj
 0002:0000b098       $unwind$_seh_filter_exe    000000018002d098     libucrt:exception_filter.obj
 0002:0000b098       $unwind$?Next@?$CComEnumImpl@UIEnumConnections@@$1?_GUID_b196b287_bab4_101a_b69c_00aa00341d07@@3U__s_GUID@@BUtagCONNECTDATA@@V?$_Copy@UtagCONNECTDATA@@@ATL@@@ATL@@UEAAJKPEAUtagCONNECTDATA@@PEAK@Z 000000018002d098     CashChanger.obj
 0002:0000b098       $unwind$?DoEvent@COPOSCashChanger@@IEAAXI_K_J@Z 000000018002d098     CashChanger.obj
 0002:0000b098       $unwind$?SODirectIO@COPOSCashChanger@@MEAAJJPEAJPEAPEA_W@Z 000000018002d098     CashChanger.obj
 0002:0000b098       $unwind$??$ensure_buffer_is_big_enough@D@formatting_buffer@__crt_stdio_output@@QEAA_N_K@Z 000000018002d098     libucrt:output.obj
 0002:0000b098       $unwind$?AtlWinModuleExtractCreateWndData@ATL@@YAPEAXPEAU_ATL_WIN_MODULE70@1@@Z 000000018002d098     CashChanger.obj
 0002:0000b098       $unwind$__scrt_dllmain_exception_filter 000000018002d098     LIBCMT:utility.obj
 0002:0000b098       $unwind$?s_EventWindowProc@COPOSCashChanger@@KA_JPEAUHWND__@@I_K_J@Z 000000018002d098     CashChangerImpl.obj
 0002:0000b098       $unwind$?AtlWinModuleTerm@ATL@@YAJPEAU_ATL_WIN_MODULE70@1@PEAUHINSTANCE__@@@Z 000000018002d098     OposVariant.obj
 0002:0000b098       $unwind$?Next@?$CComEnumImpl@UIEnumConnectionPoints@@$1?_GUID_b196b285_bab4_101a_b69c_00aa00341d07@@3U__s_GUID@@BPEAUIConnectionPoint@@V?$_CopyInterface@UIConnectionPoint@@@ATL@@@ATL@@UEAAJKPEAPEAUIConnectionPoint@@PEAK@Z 000000018002d098     CashChanger.obj
 0002:0000b098       $unwind$?SetControlFocus@CComControlBase@ATL@@QEAAHH@Z 000000018002d098     CashChanger.obj
 0002:0000b098       $unwind$_recalloc_base     000000018002d098     libucrt:recalloc.obj
 0002:0000b098       $unwind$?GetHandlerSearchState@__FrameHandler3@@SAHPEA_KPEAU_xDISPATCHER_CONTEXT@@PEBU_s_FuncInfo@@@Z 000000018002d098     libvcruntime:frame.obj
 0002:0000b098       $unwind$?HKeyFromString@CRegParser@ATL@@KAPEAUHKEY__@@PEA_W@Z 000000018002d098     CashChanger.obj
 0002:0000b098       $unwind$?DoVerb@?$IOleObjectImpl@VCOPOSCashChanger@@@ATL@@UEAAJJPEAUtagMSG@@PEAUIOleClientSite@@JPEAUHWND__@@PEBUtagRECT@@@Z 000000018002d098     CashChanger.obj
 0002:0000b098       $unwind$?Append@CParseBuffer@CRegParser@ATL@@QEAAHPEB_WH@Z 000000018002d098     CashChanger.obj
 0002:0000b098       $unwind$__acrt_lowio_create_handle_array 000000018002d098     libucrt:osfinfo.obj
 0002:0000b098       $unwind$__acrt_free_locale 000000018002d098     libucrt:locale_refcounting.obj
 0002:0000b098       $unwind$?Add@CComDynamicUnkArray@ATL@@QEAAKPEAUIUnknown@@@Z 000000018002d098     CashChanger.obj
 0002:0000b0ac       $unwind$?SetVARIANT_BOOL@OposVariant@@QEAAXF@Z 000000018002d0ac     OposVariant.obj
 0002:0000b0ac       $unwind$_realloc_base      000000018002d0ac     libucrt:realloc_base.obj
 0002:0000b0ac       $unwind$??$GetProcAddressAll@P6AXPEAUAtlThunkData_t@@@Z@@YAP6AXPEAUAtlThunkData_t@@@ZPEAP6AX0@Z@Z 000000018002d0ac     atls:atlthunk.obj
 0002:0000b0ac       $unwind$_updatetlocinfoEx_nolock 000000018002d0ac     libucrt:locale_refcounting.obj
 0002:0000b0ac       $unwind$?SetAdvise@?$IViewObjectExImpl@VCOPOSCashChanger@@@ATL@@UEAAJKKPEAUIAdviseSink@@@Z 000000018002d0ac     CashChanger.obj
 0002:0000b0ac       $unwind$__acrt_FlsSetValue 000000018002d0ac     libucrt:winapi_thunks.obj
 0002:0000b0ac       $unwind$?SetLONG@OposVariant@@QEAAXJ@Z 000000018002d0ac     OposVariant.obj
 0002:0000b0ac       $unwind$??_GCComClassFactory@ATL@@UEAAPEAXI@Z 000000018002d0ac     CashChanger.obj
 0002:0000b0ac       $unwind$??0CAtlBaseModule@ATL@@QEAA@XZ 000000018002d0ac     atls:atlbase.obj
 0002:0000b0ac       $unwind$?SetUnwindTryBlock@__FrameHandler3@@SAXPEA_KPEAU_xDISPATCHER_CONTEXT@@PEBU_s_FuncInfo@@H@Z 000000018002d0ac     libvcruntime:ehstate.obj
 0002:0000b0ac       $unwind$??0CAtlWinModule@ATL@@QEAA@XZ 000000018002d0ac     OposVariant.obj
 0002:0000b0ac       $unwind$__acrt_LocaleNameToLCID 000000018002d0ac     libucrt:winapi_thunks.obj
 0002:0000b0ac       $unwind$?SetBSTR@OposVariant@@QEAAXPEA_WAEAJ@Z 000000018002d0ac     OposVariant.obj
 0002:0000b0ac       $unwind$strncpy_s          000000018002d0ac     libucrt:strncpy_s.obj
 0002:0000b0ac       $unwind$??$common_initialize_environment_nolock@D@@YAHXZ 000000018002d0ac     libucrt:environment_initialization.obj
 0002:0000b0ac       $unwind$??$GetProcAddressAll@P6AXPEAUAtlThunkData_t@@PEAX_K@Z@@YAP6AXPEAUAtlThunkData_t@@PEAX_K@ZPEAP6AX012@Z@Z 000000018002d0ac     atls:atlthunk.obj
 0002:0000b0ac       $unwind$?IsDirty@?$IPersistStorageImpl@VCOPOSCashChanger@@@ATL@@UEAAJXZ 000000018002d0ac     CashChanger.obj
 0002:0000b0ac       $unwind$?InitNew@?$IPersistStorageImpl@VCOPOSCashChanger@@@ATL@@UEAAJPEAUIStorage@@@Z 000000018002d0ac     CashChanger.obj
 0002:0000b0ac       $unwind$??$GetProcAddressAll@P6APEAUAtlThunkData_t@@XZ@@YAP6APEAUAtlThunkData_t@@XZPEAP6APEAU0@XZ@Z 000000018002d0ac     atls:atlthunk.obj
 0002:0000b0ac       $unwind$?internal_isupper_l@@YA_NHQEAU__crt_locale_pointers@@@Z 000000018002d0ac     libucrt:tolower_toupper.obj
 0002:0000b0ac       $unwind$__acrt_errno_map_os_error 000000018002d0ac     libucrt:errno.obj
 0002:0000b0ac       $unwind$??0CAtlComModule@ATL@@QEAA@XZ 000000018002d0ac     OposVariant.obj
 0002:0000b0ac       $unwind$??$GetProcAddressAll@P6AP6A_JPEAUHWND__@@I_K_J@ZPEAUAtlThunkData_t@@@Z@@YAP6AP6A_JPEAUHWND__@@I_K_J@ZPEAUAtlThunkData_t@@@ZPEAP6AP6A_J0I12@Z3@Z@Z 000000018002d0ac     atls:atlthunk.obj
 0002:0000b0ac       $unwind$__vcrt_FlsSetValue 000000018002d0ac     libvcruntime:winapi_downlevel.obj
 0002:0000b0ac       $unwind$??_Gbad_exception@std@@UEAAPEAXI@Z 000000018002d0ac     libvcruntime:frame.obj
 0002:0000b0ac       $unwind$wcsncpy_s          000000018002d0ac     libucrt:wcsncpy_s.obj
 0002:0000b0ac       $unwind$??_Gbad_array_new_length@std@@UEAAPEAXI@Z 000000018002d0ac     LIBCMT:throw_bad_alloc.obj
 0002:0000b0ac       $unwind$__acrt_execute_uninitializers 000000018002d0ac     libucrt:shared_initialization.obj
 0002:0000b0ac       $unwind$??0_LocaleUpdate@@QEAA@QEAU__crt_locale_pointers@@@Z 000000018002d0ac     libucrt:output.obj
 0002:0000b0ac       $unwind$??_Gbad_alloc@std@@UEAAPEAXI@Z 000000018002d0ac     LIBCMT:throw_bad_alloc.obj
 0002:0000b0ac       $unwind$?WriteToStream@CComBSTR@ATL@@QEAAJPEAUIStream@@@Z 000000018002d0ac     CashChanger.obj
 0002:0000b0ac       $unwind$??_Gexception@std@@UEAAPEAXI@Z 000000018002d0ac     LIBCMT:throw_bad_alloc.obj
 0002:0000b0ac       $unwind$?Term@CComModule@ATL@@QEAAXXZ 000000018002d0ac     CashChanger.obj
 0002:0000b0ac       $unwind$?force_decimal_point@__crt_stdio_output@@YAXPEADQEAU__crt_locale_pointers@@@Z 000000018002d0ac     libucrt:output.obj
 0002:0000b0ac       $unwind$??0CAtlModule@ATL@@QEAA@XZ 000000018002d0ac     CashChanger.obj
 0002:0000b0ac       $unwind$_RTC_Terminate     000000018002d0ac     LIBCMT:_initsect_.obj
 0002:0000b0ac       $unwind$?__AllocStdCallThunk_cmn@@YAPEAXXZ 000000018002d0ac     atls:atlthunk.obj
 0002:0000b0ac       $unwind$_fclose_nolock     000000018002d0ac     libucrt:fclose.obj
 0002:0000b0ac       $unwind$_RTC_Initialize    000000018002d0ac     LIBCMT:_initsect_.obj
 0002:0000b0ac       $unwind$??1?$IConnectionPointImpl@VCOPOSCashChanger@@$1?DIID__IOPOSCashChangerEvents@@3U_GUID@@BVCComDynamicUnkArray@ATL@@@ATL@@QEAA@XZ 000000018002d0ac     CashChangerImpl.obj
 0002:0000b0ac       $unwind$??1?$IConnectionPointImpl@VCOPOSCashChanger@@$1?IID_IPropertyNotifySink@@3U_GUID@@BVCComDynamicUnkArray@ATL@@@ATL@@QEAA@XZ 000000018002d0ac     CashChangerImpl.obj
 0002:0000b0ac       $unwind$?replace_current_thread_locale_nolock@@YAXQEAU__acrt_ptd@@QEAU__crt_locale_data@@@Z 000000018002d0ac     libucrt:per_thread_data.obj
 0002:0000b0ac       $unwind$??_G?$CComObject@V?$CComEnum@UIEnumConnections@@$1?_GUID_b196b287_bab4_101a_b69c_00aa00341d07@@3U__s_GUID@@BUtagCONNECTDATA@@V?$_Copy@UtagCONNECTDATA@@@ATL@@VCComSingleThreadModel@6@@ATL@@@ATL@@UEAAPEAXI@Z 000000018002d0ac     CashChanger.obj
 0002:0000b0ac       $unwind$?CreateInstance@?$CComObject@V?$CComEnum@UIEnumConnections@@$1?_GUID_b196b287_bab4_101a_b69c_00aa00341d07@@3U__s_GUID@@BUtagCONNECTDATA@@V?$_Copy@UtagCONNECTDATA@@@ATL@@VCComSingleThreadModel@6@@ATL@@@ATL@@SAJPEAPEAV12@@Z 000000018002d0ac     CashChanger.obj
 0002:0000b0ac       $unwind$?Release@?$CComObject@V?$CComEnum@UIEnumConnections@@$1?_GUID_b196b287_bab4_101a_b69c_00aa00341d07@@3U__s_GUID@@BUtagCONNECTDATA@@V?$_Copy@UtagCONNECTDATA@@@ATL@@VCComSingleThreadModel@6@@ATL@@@ATL@@UEAAKXZ 000000018002d0ac     CashChanger.obj
 0002:0000b0ac       $unwind$?SOData@COPOSCashChanger@@MEAAJJ@Z 000000018002d0ac     CashChanger.obj
 0002:0000b0ac       $unwind$?IOleObject_SetClientSite@CComControlBase@ATL@@QEAAJPEAUIOleClientSite@@@Z 000000018002d0ac     CashChanger.obj
 0002:0000b0ac       $unwind$__acrt_uninitialize_lowio 000000018002d0ac     libucrt:ioinit.obj
 0002:0000b0ac       $unwind$?SOStatusUpdate@COPOSCashChanger@@MEAAJJ@Z 000000018002d0ac     CashChanger.obj
 0002:0000b0ac       $unwind$?__InitializeThunkPool@@YAHXZ 000000018002d0ac     atls:atlthunk.obj
 0002:0000b0ac       $unwind$__acrt_getptd_noexit 000000018002d0ac     libucrt:per_thread_data.obj
 0002:0000b0ac       $unwind$DllMain            000000018002d0ac     CashChanger.obj
 0002:0000b0ac       $unwind$??1?$CComEnumImpl@UIEnumConnections@@$1?_GUID_b196b287_bab4_101a_b69c_00aa00341d07@@3U__s_GUID@@BUtagCONNECTDATA@@V?$_Copy@UtagCONNECTDATA@@@ATL@@@ATL@@UEAA@XZ 000000018002d0ac     CashChanger.obj
 0002:0000b0ac       $unwind$??_G?$CComObject@VCOPOSCashChanger@@@ATL@@UEAAPEAXI@Z 000000018002d0ac     CashChanger.obj
 0002:0000b0ac       $unwind$?Release@?$CComObject@VCOPOSCashChanger@@@ATL@@UEAAKXZ 000000018002d0ac     CashChanger.obj
 0002:0000b0ac       $unwind$__acrt_getptd      000000018002d0ac     libucrt:per_thread_data.obj
 0002:0000b0ac       $unwind$??_G?$CComAggObject@VCOPOSCashChanger@@@ATL@@UEAAPEAXI@Z 000000018002d0ac     CashChanger.obj
 0002:0000b0ac       $unwind$??_G?$CComContainedObject@VCOPOSCashChanger@@@ATL@@UEAAPEAXI@Z 000000018002d0ac     CashChanger.obj
 0002:0000b0ac       $unwind$??0?$CComContainedObject@VCOPOSCashChanger@@@ATL@@QEAA@PEAX@Z 000000018002d0ac     CashChanger.obj
 0002:0000b0ac       $unwind$?Release@?$CComAggObject@VCOPOSCashChanger@@@ATL@@UEAAKXZ 000000018002d0ac     CashChanger.obj
 0002:0000b0ac       $unwind$??_G?$CComObjectCached@VCComClassFactory@ATL@@@ATL@@UEAAPEAXI@Z 000000018002d0ac     CashChanger.obj
 0002:0000b0ac       $unwind$??_G?$CComObject@V?$CComEnum@UIEnumConnectionPoints@@$1?_GUID_b196b285_bab4_101a_b69c_00aa00341d07@@3U__s_GUID@@BPEAUIConnectionPoint@@V?$_CopyInterface@UIConnectionPoint@@@ATL@@VCComSingleThreadModel@6@@ATL@@@ATL@@UEAAPEAXI@Z 000000018002d0ac     CashChanger.obj
 0002:0000b0ac       $unwind$?CreateInstance@?$CComObject@V?$CComEnum@UIEnumConnectionPoints@@$1?_GUID_b196b285_bab4_101a_b69c_00aa00341d07@@3U__s_GUID@@BPEAUIConnectionPoint@@V?$_CopyInterface@UIConnectionPoint@@@ATL@@VCComSingleThreadModel@6@@ATL@@@ATL@@SAJPEAPEAV12@@Z 000000018002d0ac     CashChanger.obj
 0002:0000b0ac       $unwind$AtlThunk_DataToCode 000000018002d0ac     atls:atlthunk.obj
 0002:0000b0ac       $unwind$?Release@?$CComObject@V?$CComEnum@UIEnumConnectionPoints@@$1?_GUID_b196b285_bab4_101a_b69c_00aa00341d07@@3U__s_GUID@@BPEAUIConnectionPoint@@V?$_CopyInterface@UIConnectionPoint@@@ATL@@VCComSingleThreadModel@6@@ATL@@@ATL@@UEAAKXZ 000000018002d0ac     CashChanger.obj
 0002:0000b0ac       $unwind$_FindAndUnlinkFrame 000000018002d0ac     libvcruntime:risctrnsctrl.obj
 0002:0000b0ac       $unwind$_initterm_e        000000018002d0ac     libucrt:initterm.obj
 0002:0000b0ac       $unwind$_close_nolock      000000018002d0ac     libucrt:close.obj
 0002:0000b0ac       $unwind$??1?$CComEnumImpl@UIEnumConnectionPoints@@$1?_GUID_b196b285_bab4_101a_b69c_00aa00341d07@@3U__s_GUID@@BPEAUIConnectionPoint@@V?$_CopyInterface@UIConnectionPoint@@@ATL@@@ATL@@UEAA@XZ 000000018002d0ac     CashChanger.obj
 0002:0000b0b8       $unwind$?type_case_s@?$output_processor@_WV?$string_output_adapter@_W@__crt_stdio_output@@V?$format_validation_base@_WV?$string_output_adapter@_W@__crt_stdio_output@@@2@@__crt_stdio_output@@AEAA_NXZ 000000018002d0b8     libucrt:output.obj
 0002:0000b0b8       $unwind$memcpy_s           000000018002d0b8     libucrt:cfout.obj
 0002:0000b0b8       $unwind$?type_case_Z@?$output_processor@_WV?$string_output_adapter@_W@__crt_stdio_output@@V?$format_validation_base@_WV?$string_output_adapter@_W@__crt_stdio_output@@@2@@__crt_stdio_output@@AEAA_NXZ 000000018002d0b8     libucrt:output.obj
 0002:0000b0b8       $unwind$?free_crt_array_internal@@YAXQEAPEBX_K@Z 000000018002d0b8     libucrt:inittime.obj
 0002:0000b0b8       $unwind$?Term@CAtlComModule@ATL@@QEAAXXZ 000000018002d0b8     OposVariant.obj
 0002:0000b0b8       $unwind$?type_case_n@?$output_processor@_WV?$string_output_adapter@_W@__crt_stdio_output@@V?$format_validation_base@_WV?$string_output_adapter@_W@__crt_stdio_output@@@2@@__crt_stdio_output@@AEAA_NXZ 000000018002d0b8     libucrt:output.obj
 0002:0000b0b8       $unwind$?Add@?$CSimpleArray@GV?$CSimpleArrayEqualHelper@G@ATL@@@ATL@@QEAAHAEBG@Z 000000018002d0b8     CashChanger.obj
 0002:0000b0b8       $unwind$?AtlCallTermFunc@ATL@@YAXPEAU_ATL_MODULE70@1@@Z 000000018002d0b8     CashChanger.obj
 0002:0000b0b8       $unwind$?Advise@?$IOleObjectImpl@VCOPOSCashChanger@@@ATL@@UEAAJPEAUIAdviseSink@@PEAK@Z 000000018002d0b8     CashChanger.obj
 0002:0000b0b8       $unwind$_DllMainCRTStartup 000000018002d0b8     LIBCMT:dll_dllmain.obj
 0002:0000b0b8       $unwind$?SetVARIANT_BOOL_Ptr@OposVariant@@QEAAXPEAFAEAJ@Z 000000018002d0b8     OposVariant.obj
 0002:0000b0b8       $unwind$?FrameUnwindToEmptyState@__FrameHandler3@@SAXPEA_KPEAU_xDISPATCHER_CONTEXT@@PEBU_s_FuncInfo@@@Z 000000018002d0b8     libvcruntime:risctrnsctrl.obj
 0002:0000b0b8       $unwind$__acrt_InitializeCriticalSectionEx 000000018002d0b8     libucrt:winapi_thunks.obj
 0002:0000b0b8       $unwind$?SetLONG_Ptr@OposVariant@@QEAAXPEAJAEAJ@Z 000000018002d0b8     OposVariant.obj
 0002:0000b0b8       $unwind$??_GCRegObject@ATL@@UEAAPEAXI@Z 000000018002d0b8     CashChanger.obj
 0002:0000b0b8       $unwind$?SetBSTR_Copy@OposVariant@@QEAAXPEA_WAEAJ@Z 000000018002d0b8     OposVariant.obj
 0002:0000b0b8       $unwind$_exception_enabled 000000018002d0b8     libucrt:libm_error.obj
 0002:0000b0b8       $unwind$?SetBSTR_InOutPtr@OposVariant@@QEAA_NPEAPEA_WAEAJ@Z 000000018002d0b8     OposVariant.obj
 0002:0000b0b8       $unwind$?VTFromRegType@CRegParser@ATL@@KAHPEB_WAEAG@Z 000000018002d0b8     CashChanger.obj
 0002:0000b0b8       $unwind$??$common_lseek_nolock@_J@@YA_JH_JH@Z 000000018002d0b8     libucrt:lseek.obj
 0002:0000b0b8       $unwind$?CatchTryBlock@__FrameHandler3@@SAPEBU_s_TryBlockMapEntry@@PEBU_s_FuncInfo@@H@Z 000000018002d0b8     libvcruntime:risctrnsctrl.obj
 0002:0000b0b8       $unwind$__vcrt_getptd_noexit 000000018002d0b8     libvcruntime:per_thread_data.obj
 0002:0000b0b8       $unwind$?SetString@OposVariant@@QEAAXPEB_WAEAJ@Z 000000018002d0b8     OposVariant.obj
 0002:0000b0b8       $unwind$?SetDispatch_Ptr@OposVariant@@QEAAXPEAUIDispatch@@AEAJ@Z 000000018002d0b8     OposVariant.obj
 0002:0000b0b8       $unwind$?RegisterServer@CComModule@ATL@@QEAAJHPEBU_GUID@@@Z 000000018002d0b8     CashChanger.obj
 0002:0000b0b8       $unwind$__acrt_execute_initializers 000000018002d0b8     libucrt:shared_initialization.obj
 0002:0000b0b8       $unwind$??0OposDispParms@@QEAA@PEAVOposVariant@@H@Z 000000018002d0b8     OposVariant.obj
 0002:0000b0b8       $unwind$__vcrt_InitializeCriticalSectionEx 000000018002d0b8     libvcruntime:winapi_downlevel.obj
 0002:0000b0b8       $unwind$?UnregisterServer@CComModule@ATL@@QEAAJHPEBU_GUID@@@Z 000000018002d0b8     CashChanger.obj
 0002:0000b0b8       $unwind$memcpy_s           000000018002d0b8     CashChanger.obj
 0002:0000b0b8       $unwind$??_GCComModule@ATL@@UEAAPEAXI@Z 000000018002d0b8     CashChanger.obj
 0002:0000b0b8       $unwind$?Add@?$CSimpleMap@PEA_WPEA_WVCExpansionVectorEqualHelper@ATL@@@ATL@@QEAAHAEBQEA_W0@Z 000000018002d0b8     CashChanger.obj
 0002:0000b0b8       $unwind$?ClearReplacements@CExpansionVector@ATL@@QEAAJXZ 000000018002d0b8     CashChanger.obj
 0002:0000b0b8       $unwind$__acrt_stdio_flush_nolock 000000018002d0b8     libucrt:fflush.obj
 0002:0000b0c8       $unwind$?ChangeBSTR@OposVariant@@QEAAXPEAPEA_WAEAJ@Z 000000018002d0c8     OposVariant.obj
 0002:0000b0c8       $unwind$?x_ismbbtype_l@@YAHPEAU__crt_locale_pointers@@IHH@Z 000000018002d0c8     libucrt:ismbbyte.obj
 0002:0000b0c8       $unwind$?ChangeLONG@OposVariant@@QEAAXPEAJAEAJ@Z 000000018002d0c8     OposVariant.obj
 0002:0000b0d8       $unwind$swprintf_s         000000018002d0d8     CashChanger.obj
 0002:0000b0e8       $unwind$?_AtlVerifyStackAvailable@_ATL_SAFE_ALLOCA_IMPL@ATL@@YA_N_K@Z 000000018002d0e8     CashChanger.obj
 0002:0000b114       $unwind$__DestructExceptionObject$filt$0 000000018002d114     libvcruntime:ehhelpers.obj
 0002:0000b114       $unwind$?fin$0@?0???$?RV<lambda_d80eeec6fff315bfe5c115232f3240e3>@@AEAV<lambda_6e4b09c48022b2350581041d5f6b0c4c>@@V<lambda_2358e3775559c9db80273638284d5e45>@@@?$__crt_seh_guarded_call@X@@QEAAX$$QEAV<lambda_d80eeec6fff315bfe5c115232f3240e3>@@AEAV<lambda_6e4b09c48022b2350581041d5f6b0c4c>@@$$QEAV<lambda_2358e3775559c9db80273638284d5e45>@@@Z@4HA 000000018002d114     libucrt:exit.obj
 0002:0000b114       $unwind$?filt$0@?0??_AtlVerifyStackAvailable@_ATL_SAFE_ALLOCA_IMPL@ATL@@YA_N_K@Z@4HA 000000018002d114     CashChanger.obj
 0002:0000b114       $unwind$?fin$0@?0???$?RV<lambda_751a882b2c74d4b022dec766aa51a29a>@@AEAV<lambda_628dfdc04ba53c8bfc02c9951375f3f5>@@V<lambda_f6c7be5f7998530c34de24c7437d6b54>@@@?$__crt_seh_guarded_call@H@@QEAAH$$QEAV<lambda_751a882b2c74d4b022dec766aa51a29a>@@AEAV<lambda_628dfdc04ba53c8bfc02c9951375f3f5>@@$$QEAV<lambda_f6c7be5f7998530c34de24c7437d6b54>@@@Z@4HA 000000018002d114     libucrt:close.obj
 0002:0000b114       $unwind$?fin$0@?0???$?RV<lambda_450d765d439847d4c735a33c368b5fc0>@@AEAV<lambda_44731a7d0e6d81c3e6aa82d741081786>@@V<lambda_601a2a7da3b7a96e9554ac7215c4b07c>@@@?$__crt_seh_guarded_call@P6AXH@Z@@QEAAP6AXH@Z$$QEAV<lambda_450d765d439847d4c735a33c368b5fc0>@@AEAV<lambda_44731a7d0e6d81c3e6aa82d741081786>@@$$QEAV<lambda_601a2a7da3b7a96e9554ac7215c4b07c>@@@Z@4HA 000000018002d114     libucrt:signal.obj
 0002:0000b114       $unwind$_ctrlfp$filt$0     000000018002d114     libucrt:fpctrl.obj
 0002:0000b114       $unwind$?filt$0@?0???R<lambda_6e4b09c48022b2350581041d5f6b0c4c>@@QEBA@XZ@4HA 000000018002d114     libucrt:exit.obj
 0002:0000b114       $unwind$?fin$0@?0???$?RV<lambda_410d79af7f07d98d83a3f525b3859a53>@@AEAV<lambda_3e16ef9562a7dcce91392c22ab16ea36>@@V<lambda_38119f0e861e05405d8a144b9b982f0a>@@@?$__crt_seh_guarded_call@X@@QEAAX$$QEAV<lambda_410d79af7f07d98d83a3f525b3859a53>@@AEAV<lambda_3e16ef9562a7dcce91392c22ab16ea36>@@$$QEAV<lambda_38119f0e861e05405d8a144b9b982f0a>@@@Z@4HA 000000018002d114     libucrt:wsetlocale.obj
 0002:0000b114       $unwind$raise$fin$0        000000018002d114     libucrt:signal.obj
 0002:0000b114       $unwind$?fin$0@?0???$?RV<lambda_efdfa57d1f175319df784efa44bb7b81>@@AEAV<lambda_5f0a4c1567f8adc6734073e5d1e1b35c>@@V<lambda_2e8a7d3640ea6ccb4c2413664c2db6fd>@@@?$__crt_seh_guarded_call@X@@QEAAX$$QEAV<lambda_efdfa57d1f175319df784efa44bb7b81>@@AEAV<lambda_5f0a4c1567f8adc6734073e5d1e1b35c>@@$$QEAV<lambda_2e8a7d3640ea6ccb4c2413664c2db6fd>@@@Z@4HA 000000018002d114     libucrt:mbctype.obj
 0002:0000b114       $unwind$__acrt_initialize_lowio$fin$0 000000018002d114     libucrt:ioinit.obj
 0002:0000b114       $unwind$fclose$fin$0       000000018002d114     libucrt:fclose.obj
 0002:0000b114       $unwind$__acrt_update_thread_locale_data$fin$0 000000018002d114     libucrt:locale_refcounting.obj
 0002:0000b114       $unwind$__acrt_lowio_ensure_fh_exists$fin$0 000000018002d114     libucrt:osfinfo.obj
 0002:0000b114       $unwind$_IsNonwritableInCurrentImage$filt$0 000000018002d114     LIBCMT:pesect.obj
 0002:0000b114       $unwind$common_control87$filt$0 000000018002d114     libucrt:ieee.obj
 0002:0000b114       $unwind$?fin$0@?0??update_thread_multibyte_data_internal@@YAPEAU__crt_multibyte_data@@QEAU__acrt_ptd@@QEAU1@@Z@4HA 000000018002d114     libucrt:mbctype.obj
 0002:0000b114       $unwind$?fin$0@?0???$?RV<lambda_2d41944a1d46af3157314b8a01080d33>@@AEAV<lambda_8f455de75cd7d7f24b4096f044d8b9e6>@@V<lambda_aa500f224e6afead328df44964fe2772>@@@?$__crt_seh_guarded_call@X@@QEAAX$$QEAV<lambda_2d41944a1d46af3157314b8a01080d33>@@AEAV<lambda_8f455de75cd7d7f24b4096f044d8b9e6>@@$$QEAV<lambda_aa500f224e6afead328df44964fe2772>@@@Z@4HA 000000018002d114     libucrt:per_thread_data.obj
 0002:0000b114       $unwind$?fin$0@?0???$?RV<lambda_a37b2b86f63e897a80ea819b0eb08c01>@@AEAV<lambda_38ce7e780aa69e748d6df282ebc68efe>@@V<lambda_99fb1378e971ab6e7edea83e3a7a83a2>@@@?$__crt_seh_guarded_call@H@@QEAAH$$QEAV<lambda_a37b2b86f63e897a80ea819b0eb08c01>@@AEAV<lambda_38ce7e780aa69e748d6df282ebc68efe>@@$$QEAV<lambda_99fb1378e971ab6e7edea83e3a7a83a2>@@@Z@4HA 000000018002d114     libucrt:commit.obj
 0002:0000b114       $unwind$?fin$0@?0??dllmain_crt_process_detach@@YAH_N@Z@4HA 000000018002d114     LIBCMT:dll_dllmain.obj
 0002:0000b114       $unwind$?filt$0@?0??FrameUnwindToState@__FrameHandler3@@SAXPEA_KPEAU_xDISPATCHER_CONTEXT@@PEBU_s_FuncInfo@@H@Z@4HA 000000018002d114     libvcruntime:frame.obj
 0002:0000b114       $unwind$?fin$1@?0??FrameUnwindToState@__FrameHandler3@@SAXPEA_KPEAU_xDISPATCHER_CONTEXT@@PEBU_s_FuncInfo@@H@Z@4HA 000000018002d114     libvcruntime:frame.obj
 0002:0000b114       $unwind$?fin$0@?0??dllmain_crt_process_attach@@YAHQEAUHINSTANCE__@@QEAX@Z@4HA 000000018002d114     LIBCMT:dll_dllmain.obj
 0002:0000b114       $unwind$?fin$0@?0???$?RV<lambda_f2e299630e499de9f9a165e60fcd3db5>@@AEAV<lambda_2ae9d31cdba2644fcbeaf08da7c24588>@@V<lambda_40d01ff24d0e7b3814fdbdcee8eab3c7>@@@?$__crt_seh_guarded_call@X@@QEAAX$$QEAV<lambda_f2e299630e499de9f9a165e60fcd3db5>@@AEAV<lambda_2ae9d31cdba2644fcbeaf08da7c24588>@@$$QEAV<lambda_40d01ff24d0e7b3814fdbdcee8eab3c7>@@@Z@4HA 000000018002d114     libucrt:per_thread_data.obj
 0002:0000b114       $unwind$?filt$0@?0??CxxCallCatchBlock@__FrameHandler3@@SAPEAXPEAU_EXCEPTION_RECORD@@@Z@4HA 000000018002d114     libvcruntime:frame.obj
 0002:0000b114       $unwind$?fin$0@?0???$?RV<lambda_886d6c58226a84441f68b9f2b8217b83>@@AEAV<lambda_ab61a845afdef5b7c387490eaf3616ee>@@V<lambda_f7f22ab5edc0698d5f6905b0d3f44752>@@@?$__crt_seh_guarded_call@X@@QEAAX$$QEAV<lambda_886d6c58226a84441f68b9f2b8217b83>@@AEAV<lambda_ab61a845afdef5b7c387490eaf3616ee>@@$$QEAV<lambda_f7f22ab5edc0698d5f6905b0d3f44752>@@@Z@4HA 000000018002d114     libucrt:fflush.obj
 0002:0000b114       $unwind$?fin$0@?0???$?RV<lambda_aa87e3671a710a21b5dc78c0bdf72e11>@@AEAV<lambda_92619d2358a28f41a33ba319515a20b9>@@V<lambda_6992ecaafeb10aed2b74cb1fae11a551>@@@?$__crt_seh_guarded_call@X@@QEAAX$$QEAV<lambda_aa87e3671a710a21b5dc78c0bdf72e11>@@AEAV<lambda_92619d2358a28f41a33ba319515a20b9>@@$$QEAV<lambda_6992ecaafeb10aed2b74cb1fae11a551>@@@Z@4HA 000000018002d114     libucrt:per_thread_data.obj
 0002:0000b114       $unwind$?fin$0@?0???$?RV<lambda_842d9ff0dc9ef11c61343bbaebe7f885>@@AEAV<lambda_c5860995281e5c4ce005b3de8f5874ee>@@V<lambda_d90129c13df834fdcbf8d2b88dafcf2d>@@@?$__crt_seh_guarded_call@X@@QEAAX$$QEAV<lambda_842d9ff0dc9ef11c61343bbaebe7f885>@@AEAV<lambda_c5860995281e5c4ce005b3de8f5874ee>@@$$QEAV<lambda_d90129c13df834fdcbf8d2b88dafcf2d>@@@Z@4HA 000000018002d114     libucrt:fflush.obj
 0002:0000b114       $unwind$?fin$0@?0???$?RV<lambda_638799b9deba96c50f710eeac98168cd>@@AEAV<lambda_22ebabd17bc4fa466a2aca6d8deb888d>@@V<lambda_a6f7d7db0129f75315ebf26d50c089f1>@@@?$__crt_seh_guarded_call@H@@QEAAH$$QEAV<lambda_638799b9deba96c50f710eeac98168cd>@@AEAV<lambda_22ebabd17bc4fa466a2aca6d8deb888d>@@$$QEAV<lambda_a6f7d7db0129f75315ebf26d50c089f1>@@@Z@4HA 000000018002d114     libucrt:onexit.obj
 0002:0000b114       $unwind$?fin$0@?0???$?RV<lambda_0ae27a3a962d80f24befdcbee591983d>@@AEAV<lambda_8d0ee55de4b1038c4002e0adecdf1839>@@V<lambda_dc504788e8f1664fe9b84e20bfb512f2>@@@?$__crt_seh_guarded_call@X@@QEAAX$$QEAV<lambda_0ae27a3a962d80f24befdcbee591983d>@@AEAV<lambda_8d0ee55de4b1038c4002e0adecdf1839>@@$$QEAV<lambda_dc504788e8f1664fe9b84e20bfb512f2>@@@Z@4HA 000000018002d114     libucrt:per_thread_data.obj
 0002:0000b114       $unwind$?fin$0@?0???$?RV<lambda_7777bce6b2f8c936911f934f8298dc43>@@AEAV<lambda_f03950bc5685219e0bcd2087efbe011e>@@V<lambda_3883c3dff614d5e0c5f61bb1ac94921c>@@@?$__crt_seh_guarded_call@H@@QEAAH$$QEAV<lambda_7777bce6b2f8c936911f934f8298dc43>@@AEAV<lambda_f03950bc5685219e0bcd2087efbe011e>@@$$QEAV<lambda_3883c3dff614d5e0c5f61bb1ac94921c>@@@Z@4HA 000000018002d114     libucrt:onexit.obj
 0002:0000b114       $unwind$_query_new_handler$fin$0 000000018002d114     libucrt:new_handler.obj
 0002:0000b114       $unwind$_write$fin$0       000000018002d114     libucrt:write.obj
 0002:0000b114       $unwind$_fcloseall$fin$0   000000018002d114     libucrt:closeall.obj
 0002:0000b11c       $unwind$?AtlInternalOleLoadFromStream@ATL@@YAJPEAUIStream@@AEBU_GUID@@PEAPEAXTClassesAllowedInStream@1@K@Z 000000018002d11c     CashChanger.obj
 0002:0000b138       $unwind$?Close@COPOSCashChanger@@UEAAJPEAJ@Z 000000018002d138     CashChangerImpl.obj
 0002:0000b138       $unwind$?PutProperty@?$CComPtr@UIDispatch@@@ATL@@SAJPEAUIDispatch@@JPEAUtagVARIANT@@@Z 000000018002d138     CashChanger.obj
 0002:0000b144       $unwind$_configure_narrow_argv 000000018002d144     libucrt:argv_parsing.obj
 0002:0000b144       $unwind$?ReadFromStream@CComBSTR@ATL@@QEAAJPEAUIStream@@@Z 000000018002d144     CashChanger.obj
 0002:0000b158       $unwind$?WriteToStream@CComVariant@ATL@@QEAAJPEAUIStream@@@Z 000000018002d158     CashChanger.obj
 0002:0000b16c       $unwind$?WriteToStream@CComVariant@ATL@@QEAAJPEAUIStream@@G@Z 000000018002d16c     CashChanger.obj
 0002:0000b16c       $unwind$?RegOpenKeyExW@CAtlTransactionManager@ATL@@QEAAJPEAUHKEY__@@PEB_WKKPEAPEAU3@@Z 000000018002d16c     CashChanger.obj
 0002:0000b180       $unwind$?ReadFromStream@CComVariant@ATL@@QEAAJPEAUIStream@@GTClassesAllowedInStream@2@K@Z 000000018002d180     CashChanger.obj
 0002:0000b198       $unwind$?GetSizeMax@CComVariant@ATL@@QEBAJPEAT_ULARGE_INTEGER@@@Z 000000018002d198     CashChanger.obj
 0002:0000b1b0       $unwind$?RegCreateKeyExW@CAtlTransactionManager@ATL@@QEAAJPEAUHKEY__@@PEB_WKPEA_WKKQEAU_SECURITY_ATTRIBUTES@@PEAPEAU3@PEAK@Z 000000018002d1b0     CashChanger.obj
 0002:0000b1c4       $unwind$?GetGITPtr@CAtlModule@ATL@@UEAAJPEAPEAUIGlobalInterfaceTable@@@Z 000000018002d1c4     CashChanger.obj
 0002:0000b1c4       $unwind$?RegDeleteKeyW@CAtlTransactionManager@ATL@@QEAAJPEAUHKEY__@@PEB_W@Z 000000018002d1c4     CashChanger.obj
 0002:0000b1d4       $unwind$?AtlInternalQueryInterface@ATL@@YAJPEAXPEBU_ATL_INTMAP_ENTRY@1@AEBU_GUID@@PEAPEAX@Z 000000018002d1d4     CashChanger.obj
 0002:0000b1d4       $unwind$?AtlHiMetricToPixel@ATL@@YAXPEBUtagSIZE@@PEAU2@@Z 000000018002d1d4     CashChanger.obj
 0002:0000b1ec       $unwind$?GetClassObject@CComModule@ATL@@QEAAJAEBU_GUID@@0PEAPEAX@Z 000000018002d1ec     CashChanger.obj
 0002:0000b1ec       $unwind$?Init@?$CComEnumImpl@UIEnumConnectionPoints@@$1?_GUID_b196b285_bab4_101a_b69c_00aa00341d07@@3U__s_GUID@@BPEAUIConnectionPoint@@V?$_CopyInterface@UIConnectionPoint@@@ATL@@@ATL@@QEAAJPEAPEAUIConnectionPoint@@0PEAUIUnknown@@W4CComEnumFlags@2@@Z 000000018002d1ec     CashChanger.obj
 0002:0000b1ec       $unwind$?Init@?$CComEnumImpl@UIEnumConnections@@$1?_GUID_b196b287_bab4_101a_b69c_00aa00341d07@@3U__s_GUID@@BUtagCONNECTDATA@@V?$_Copy@UtagCONNECTDATA@@@ATL@@@ATL@@QEAAJPEAUtagCONNECTDATA@@0PEAUIUnknown@@W4CComEnumFlags@2@@Z 000000018002d1ec     CashChanger.obj
 0002:0000b1ec       $unwind$?CreateInstance@?$CComCreator@V?$CComObjectCached@VCComClassFactory@ATL@@@ATL@@@ATL@@SAJPEAXAEBU_GUID@@PEAPEAX@Z 000000018002d1ec     CashChanger.obj
 0002:0000b1ec       $unwind$?AtlComModuleGetClassObject@ATL@@YAJPEAU_ATL_COM_MODULE70@1@AEBU_GUID@@1PEAPEAX@Z 000000018002d1ec     CashChanger.obj
 0002:0000b1ec       $unwind$?NextToken@CRegParser@ATL@@IEAAJPEA_W@Z 000000018002d1ec     CashChanger.obj
 0002:0000b204       $unwind$?AtlRegisterClassCategoriesHelper@ATL@@YAJAEBU_GUID@@PEBU_ATL_CATMAP_ENTRY@1@H@Z 000000018002d204     CashChanger.obj
 0002:0000b228       $unwind$?AtlLoadTypeLib@ATL@@YAJPEAUHINSTANCE__@@PEB_WPEAPEA_WPEAPEAUITypeLib@@@Z 000000018002d228     CashChanger.obj
 0002:0000b248       $unwind$?AtlRegisterTypeLib@ATL@@YAJPEAUHINSTANCE__@@PEB_W@Z 000000018002d248     CashChanger.obj
 0002:0000b264       $unwind$?AtlUnRegisterTypeLib@ATL@@YAJPEAUHINSTANCE__@@PEB_W@Z 000000018002d264     CashChanger.obj
 0002:0000b26c       $unwind$?Create@CRegKey@ATL@@QEAAJPEAUHKEY__@@PEB_WPEA_WKKPEAU_SECURITY_ATTRIBUTES@@PEAK@Z 000000018002d26c     CashChanger.obj
 0002:0000b274       $unwind$?Open@CRegKey@ATL@@QEAAJPEAUHKEY__@@PEB_WK@Z 000000018002d274     CashChanger.obj
 0002:0000b27c       $unwind$?RecurseDeleteKey@CRegKey@ATL@@QEAAJPEB_W@Z 000000018002d27c     CashChanger.obj
 0002:0000b298       $unwind$?UpdateRegistryFromResource@CAtlModule@ATL@@QEAAJPEB_WHPEAU_ATL_REGMAP_ENTRY@2@@Z 000000018002d298     CashChanger.obj
 0002:0000b298       $unwind$?UpdateRegistryFromResource@CAtlModule@ATL@@QEAAJIHPEAU_ATL_REGMAP_ENTRY@2@@Z 000000018002d298     CashChanger.obj
 0002:0000b2b8       $unwind$?initialize_stdio_handles_nolock@@YAXXZ 000000018002d2b8     libucrt:ioinit.obj
 0002:0000b2b8       $unwind$__std_exception_copy 000000018002d2b8     libvcruntime:std_exception.obj
 0002:0000b2b8       $unwind$?Lookup@?$CSimpleMap@PEA_WPEA_WVCExpansionVectorEqualHelper@ATL@@@ATL@@QEBAPEA_WAEBQEA_W@Z 000000018002d2b8     CashChanger.obj
 0002:0000b2b8       $unwind$_free_osfhnd       000000018002d2b8     libucrt:osfinfo.obj
 0002:0000b2cc       $unwind$?Add@CExpansionVector@ATL@@QEAAHPEB_W0@Z 000000018002d2cc     CashChanger.obj
 0002:0000b2e4       $unwind$?PreProcessBuffer@CRegParser@ATL@@QEAAJPEA_WPEAPEA_W@Z 000000018002d2e4     CashChanger.obj
 0002:0000b308       $unwind$?RegisterBuffer@CRegParser@ATL@@QEAAJPEA_WH@Z 000000018002d308     CashChanger.obj
 0002:0000b328       $unwind$?AddValue@CRegParser@ATL@@IEAAJAEAVCRegKey@2@PEB_WPEA_W@Z 000000018002d328     CashChanger.obj
 0002:0000b348       $unwind$?RegisterSubkeys@CRegParser@ATL@@IEAAJPEA_WPEAUHKEY__@@HH@Z 000000018002d348     CashChanger.obj
 0002:0000b368       $unwind$?SkipAssignment@CRegParser@ATL@@IEAAJPEA_W@Z 000000018002d368     CashChanger.obj
 0002:0000b380       $unwind$?RegisterFromResource@CRegObject@ATL@@IEAAJPEB_W00H@Z 000000018002d380     CashChanger.obj
 0002:0000b3a0       $unwind$?AtlIPersistStreamInit_Load@ATL@@YAJPEAUIStream@@PEBUATL_PROPMAP_ENTRY@1@PEAXPEAUIUnknown@@@Z 000000018002d3a0     CashChanger.obj
 0002:0000b3b8       $unwind$?AtlIPersistStreamInit_Save@ATL@@YAJPEAUIStream@@HPEBUATL_PROPMAP_ENTRY@1@PEAXPEAUIUnknown@@@Z 000000018002d3b8     CashChanger.obj
 0002:0000b3d4       $unwind$?GetTI@CComTypeInfoHolder@ATL@@QEAAJK@Z 000000018002d3d4     CashChanger.obj
 0002:0000b3f4       $unwind$?Cleanup@CComTypeInfoHolder@ATL@@SAX_K@Z 000000018002d3f4     CashChanger.obj
 0002:0000b3f4       $unwind$?destroy_fls@@YAXPEAX@Z 000000018002d3f4     libucrt:per_thread_data.obj
 0002:0000b3f4       $unwind$__acrt_locale_free_lc_time_if_unreferenced 000000018002d3f4     libucrt:locale_refcounting.obj
 0002:0000b3f4       $unwind$_free_base         000000018002d3f4     libucrt:free_base.obj
 0002:0000b3f4       $unwind$__acrt_locale_free_numeric 000000018002d3f4     libucrt:initnum.obj
 0002:0000b3f4       $unwind$AtlThunk_FreeData  000000018002d3f4     atls:atlthunk.obj
 0002:0000b3fc       $unwind$?GetIDsOfNames@CComTypeInfoHolder@ATL@@QEAAJAEBU_GUID@@PEAPEA_WIKPEAJ@Z 000000018002d3fc     CashChanger.obj
 0002:0000b418       $unwind$?LoadNameCache@CComTypeInfoHolder@ATL@@QEAAJPEAUITypeInfo@@@Z 000000018002d418     CashChanger.obj
 0002:0000b42c       $unwind$?StartWindowProc@?$CWindowImplBaseT@VCWindow@ATL@@V?$CWinTraits@$0FGAAAAAA@$0A@@2@@ATL@@SA_JPEAUHWND__@@I_K_J@Z 000000018002d42c     CashChanger.obj
 0002:0000b42c       $unwind$??R<lambda_22ebabd17bc4fa466a2aca6d8deb888d>@@QEBAHXZ 000000018002d42c     libucrt:onexit.obj
 0002:0000b42c       $unwind$??$parse_command_line@D@@YAXPEADPEAPEAD0PEA_K2@Z 000000018002d42c     libucrt:argv_parsing.obj
 0002:0000b448       $unwind$?WindowProc@?$CWindowImplBaseT@VCWindow@ATL@@V?$CWinTraits@$0FGAAAAAA@$0A@@2@@ATL@@SA_JPEAUHWND__@@I_K_J@Z 000000018002d448     CashChanger.obj
 0002:0000b460       $unwind$?Create@?$CWindowImplBaseT@VCWindow@ATL@@V?$CWinTraits@$0FGAAAAAA@$0A@@2@@ATL@@QEAAPEAUHWND__@@PEAU3@V_U_RECT@2@PEB_WKKV_U_MENUorID@2@GPEAX@Z 000000018002d460     CashChanger.obj
 0002:0000b478       $unwind$??$AtlModuleRegisterWndClassInfoT@VAtlModuleRegisterWndClassInfoParamW@ATL@@@ATL@@YAGPEAU_ATL_BASE_MODULE70@0@PEAU_ATL_WIN_MODULE70@0@PEAU_ATL_WNDCLASSINFOW@0@PEAP6A_JPEAUHWND__@@I_K_J@ZVAtlModuleRegisterWndClassInfoParamW@0@@Z 000000018002d478     CashChanger.obj
 0002:0000b498       $unwind$iswctype           000000018002d498     libucrt:iswctype.obj
 0002:0000b498       $unwind$?OnKillFocus@CComControlBase@ATL@@QEAA_JI_K_JAEAH@Z 000000018002d498     CashChanger.obj
 0002:0000b498       $unwind$?GetZoomInfo@CComControlBase@ATL@@QEAAXAEAUATL_DRAWINFO@@@Z 000000018002d498     CashChanger.obj
 0002:0000b4a4       $unwind$?SendOnDataChange@CComControlBase@ATL@@QEAAJK@Z 000000018002d4a4     CashChanger.obj
 0002:0000b4b4       $unwind$?OnSetFocus@CComControlBase@ATL@@QEAA_JI_K_JAEAH@Z 000000018002d4b4     CashChanger.obj
 0002:0000b4c4       $unwind$?OnMouseActivate@CComControlBase@ATL@@QEAA_JI_K_JAEAH@Z 000000018002d4c4     CashChanger.obj
 0002:0000b4cc       $unwind$?GetAmbientLocaleID@CComControlBase@ATL@@QEAAJAEAK@Z 000000018002d4cc     CashChanger.obj
 0002:0000b4dc       $unwind$?GetAmbientUserMode@CComControlBase@ATL@@QEAAJAEAH@Z 000000018002d4dc     CashChanger.obj
 0002:0000b4f0       $unwind$?IQuickActivate_QuickActivate@CComControlBase@ATL@@QEAAJPEAUtagQACONTAINER@@PEAUtagQACONTROL@@@Z 000000018002d4f0     CashChanger.obj
 0002:0000b508       $unwind$?DoVerbProperties@CComControlBase@ATL@@QEAAJPEBUtagRECT@@PEAUHWND__@@@Z 000000018002d508     CashChanger.obj
 0002:0000b520       $unwind$?InPlaceActivate@CComControlBase@ATL@@QEAAJJPEBUtagRECT@@@Z 000000018002d520     CashChanger.obj
 0002:0000b540       $unwind$?type_case_c_tchar@?$output_processor@_WV?$string_output_adapter@_W@__crt_stdio_output@@V?$format_validation_base@_WV?$string_output_adapter@_W@__crt_stdio_output@@@2@@__crt_stdio_output@@AEAA_N_W@Z 000000018002d540     libucrt:output.obj
 0002:0000b540       $unwind$?IOleObject_Close@CComControlBase@ATL@@QEAAJK@Z 000000018002d540     CashChanger.obj
 0002:0000b550       $unwind$?IOleInPlaceObject_UIDeactivate@CComControlBase@ATL@@QEAAJXZ 000000018002d550     CashChanger.obj
 0002:0000b568       $unwind$?IOleInPlaceObject_SetObjectRects@CComControlBase@ATL@@QEAAJPEBUtagRECT@@0@Z 000000018002d568     CashChanger.obj
 0002:0000b57c       $unwind$?IViewObject_Draw@CComControlBase@ATL@@QEAAJKJPEAXPEAUtagDVTARGETDEVICE@@PEAUHDC__@@2PEBU_RECTL@@3@Z 000000018002d57c     CashChanger.obj
 0002:0000b598       $unwind$?IDataObject_GetData@CComControlBase@ATL@@QEAAJPEAUtagFORMATETC@@PEAUtagSTGMEDIUM@@@Z 000000018002d598     CashChanger.obj
 0002:0000b5b8       $unwind$?OnPaint@CComControlBase@ATL@@QEAA_JI_K_JAEAH@Z 000000018002d5b8     CashChanger.obj
 0002:0000b5d4       $unwind$?OnDrawAdvanced@CComControlBase@ATL@@UEAAJAEAUATL_DRAWINFO@@@Z 000000018002d5d4     CashChanger.obj
 0002:0000b5ec       $unwind$_mbsdec_l          000000018002d5ec     libucrt:mbsdec.obj
 0002:0000b5ec       $unwind$?Invoke@?$IDispatchImpl@UIOPOSCashChanger@@$1?IID_IOPOSCashChanger@@3U_GUID@@B$1?LIBID_OposCashChanger_CCO@@3U3@B$00$0A@VCComTypeInfoHolder@ATL@@@ATL@@UEAAJJAEBU_GUID@@KGPEAUtagDISPPARAMS@@PEAUtagVARIANT@@PEAUtagEXCEPINFO@@PEAI@Z 000000018002d5ec     CashChanger.obj
 0002:0000b5ec       $unwind$?ReleaseDevice@COPOSCashChanger@@UEAAJPEAJ@Z 000000018002d5ec     CashChangerImpl.obj
 0002:0000b5f8       $unwind$?Create@?$CWindowImpl@VCOPOSCashChanger@@VCWindow@ATL@@V?$CWinTraits@$0FGAAAAAA@$0A@@3@@ATL@@QEAAPEAUHWND__@@PEAU3@V_U_RECT@2@PEB_WKKV_U_MENUorID@2@PEAX@Z 000000018002d5f8     CashChanger.obj
 0002:0000b5f8       $unwind$?fp_format_e@@YAHQEBNQEAD_K12H_NIQEAU__crt_locale_pointers@@@Z 000000018002d5f8     libucrt:cvt.obj
 0002:0000b5f8       $unwind$__acrt_LCMapStringEx 000000018002d5f8     libucrt:winapi_thunks.obj
 0002:0000b60c       $unwind$?__scrt_throw_std_bad_alloc@@YAXXZ 000000018002d60c     LIBCMT:throw_bad_alloc.obj
 0002:0000b60c       $unwind$?__scrt_throw_std_bad_array_new_length@@YAXXZ 000000018002d60c     LIBCMT:throw_bad_alloc.obj
 0002:0000b60c       $unwind$__dcrt_lowio_initialize_console_output 000000018002d60c     libucrt:initcon.obj
 0002:0000b60c       $unwind$?CreateControlWindow@?$CComControl@VCOPOSCashChanger@@V?$CWindowImpl@VCOPOSCashChanger@@VCWindow@ATL@@V?$CWinTraits@$0FGAAAAAA@$0A@@3@@ATL@@@ATL@@UEAAPEAUHWND__@@PEAU3@AEAUtagRECT@@@Z 000000018002d60c     CashChanger.obj
 0002:0000b60c       $unwind$?FixDeposit@COPOSCashChanger@@UEAAJPEAJ@Z 000000018002d60c     CashChangerImpl.obj
 0002:0000b60c       $unwind$_raise_exc         000000018002d60c     libucrt:fpexcept.obj
 0002:0000b60c       $unwind$?ClearInput@COPOSCashChanger@@UEAAJPEAJ@Z 000000018002d60c     CashChangerImpl.obj
 0002:0000b60c       $unwind$?BeginDeposit@COPOSCashChanger@@UEAAJPEAJ@Z 000000018002d60c     CashChangerImpl.obj
 0002:0000b614       $unwind$__stdio_common_vswprintf_s 000000018002d614     libucrt:output.obj
 0002:0000b614       $unwind$?Save@?$IPersistStreamInitImpl@VCOPOSCashChanger@@@ATL@@UEAAJPEAUIStream@@H@Z 000000018002d614     CashChanger.obj
 0002:0000b620       $unwind$?GetSizeMax@?$IPersistStreamInitImpl@VCOPOSCashChanger@@@ATL@@UEAAJPEAT_ULARGE_INTEGER@@@Z 000000018002d620     CashChanger.obj
 0002:0000b638       $unwind$?DoVerbPrimary@?$IOleObjectImpl@VCOPOSCashChanger@@@ATL@@QEAAJPEBUtagRECT@@PEAUHWND__@@@Z 000000018002d638     CashChanger.obj
 0002:0000b650       $unwind$?TranslateAcceleratorW@?$IOleInPlaceActiveObjectImpl@VCOPOSCashChanger@@@ATL@@UEAAJPEAUtagMSG@@@Z 000000018002d650     CashChanger.obj
 0002:0000b65c       $unwind$?Draw@?$IViewObjectExImpl@VCOPOSCashChanger@@@ATL@@UEAAJKJPEAXPEAUtagDVTARGETDEVICE@@PEAUHDC__@@2PEBU_RECTL@@3P6AH_K@Z4@Z 000000018002d65c     CashChanger.obj
 0002:0000b664       $unwind$?QueryHitRect@?$IViewObjectExImpl@VCOPOSCashChanger@@@ATL@@UEAAJKPEBUtagRECT@@0JPEAK@Z 000000018002d664     CashChanger.obj
 0002:0000b674       $unwind$?OnWindowMessage@?$IOleInPlaceObjectWindowlessImpl@VCOPOSCashChanger@@@ATL@@UEAAJI_K_JPEA_J@Z 000000018002d674     CashChanger.obj
 0002:0000b688       $unwind$?EnumConnectionPoints@?$IConnectionPointContainerImpl@VCOPOSCashChanger@@@ATL@@UEAAJPEAPEAUIEnumConnectionPoints@@@Z 000000018002d688     CashChanger.obj
 0002:0000b6b0       $unwind$?FindConnectionPoint@?$IConnectionPointContainerImpl@VCOPOSCashChanger@@@ATL@@UEAAJAEBU_GUID@@PEAPEAUIConnectionPoint@@@Z 000000018002d6b0     CashChanger.obj
 0002:0000b6cc       $unwind$?Load@?$IPersistStorageImpl@VCOPOSCashChanger@@@ATL@@UEAAJPEAUIStorage@@@Z 000000018002d6cc     CashChanger.obj
 0002:0000b6dc       $unwind$?Save@?$IPersistStorageImpl@VCOPOSCashChanger@@@ATL@@UEAAJPEAUIStorage@@H@Z 000000018002d6dc     CashChanger.obj
 0002:0000b6f0       $unwind$?DAdvise@?$IDataObjectImpl@VCOPOSCashChanger@@@ATL@@UEAAJPEAUtagFORMATETC@@KPEAUIAdviseSink@@PEAK@Z 000000018002d6f0     CashChanger.obj
 0002:0000b708       $unwind$?GetInterfaceSafetyOptions@?$IObjectSafetyImpl@VCOPOSCashChanger@@$02@ATL@@UEAAJAEBU_GUID@@PEAK1@Z 000000018002d708     CashChanger.obj
 0002:0000b71c       $unwind$?SetInterfaceSafetyOptions@?$IObjectSafetyImpl@VCOPOSCashChanger@@$02@ATL@@UEAAJAEBU_GUID@@KK@Z 000000018002d71c     CashChanger.obj
 0002:0000b730       $unwind$?Advise@?$IConnectionPointImpl@VCOPOSCashChanger@@$1?IID_IPropertyNotifySink@@3U_GUID@@BVCComDynamicUnkArray@ATL@@@ATL@@UEAAJPEAUIUnknown@@PEAK@Z 000000018002d730     CashChanger.obj
 0002:0000b730       $unwind$?Advise@?$IConnectionPointImpl@VCOPOSCashChanger@@$1?DIID__IOPOSCashChangerEvents@@3U_GUID@@BVCComDynamicUnkArray@ATL@@@ATL@@UEAAJPEAUIUnknown@@PEAK@Z 000000018002d730     CashChanger.obj
 0002:0000b744       $unwind$?EnumConnections@?$IConnectionPointImpl@VCOPOSCashChanger@@$1?IID_IPropertyNotifySink@@3U_GUID@@BVCComDynamicUnkArray@ATL@@@ATL@@UEAAJPEAPEAUIEnumConnections@@@Z 000000018002d744     CashChanger.obj
 0002:0000b744       $unwind$?EnumConnections@?$IConnectionPointImpl@VCOPOSCashChanger@@$1?DIID__IOPOSCashChangerEvents@@3U_GUID@@BVCComDynamicUnkArray@ATL@@@ATL@@UEAAJPEAPEAUIEnumConnections@@@Z 000000018002d744     CashChanger.obj
 0002:0000b744       $unwind$??$create_environment@D@@YAQEAPEADQEAD@Z 000000018002d744     libucrt:environment_initialization.obj
 0002:0000b75c       $unwind$?Fire_DataEvent@?$CProxy_IOPOSEvents@VCOPOSCashChanger@@@@QEAAXJ@Z 000000018002d75c     CashChanger.obj
 0002:0000b75c       $unwind$_mbtowc_l          000000018002d75c     libucrt:mbtowc.obj
 0002:0000b75c       $unwind$?Fire_StatusUpdateEvent@?$CProxy_IOPOSEvents@VCOPOSCashChanger@@@@QEAAXJ@Z 000000018002d75c     CashChanger.obj
 0002:0000b75c       $unwind$??$__InternalCxxFrameHandler@V__FrameHandler3@@@@YA?AW4_EXCEPTION_DISPOSITION@@PEAUEHExceptionRecord@@PEA_KPEAU_CONTEXT@@PEAU_xDISPATCHER_CONTEXT@@PEBU_s_FuncInfo@@H1E@Z 000000018002d75c     libvcruntime:frame.obj
 0002:0000b774       $unwind$?Fire_DirectIOEvent@?$CProxy_IOPOSEvents@VCOPOSCashChanger@@@@QEAAXJPEAJPEAPEA_W@Z 000000018002d774     CashChanger.obj
 0002:0000b794       $unwind$?FireTheEvent@?$CProxy_IOPOSEvents@VCOPOSCashChanger@@@@IEAAXPEAVOposVariant@@IAEAJPEB_WJ@Z 000000018002d794     CashChanger.obj
 0002:0000b7a4       $unwind$__dcrt_get_narrow_environment_from_os 000000018002d7a4     libucrt:get_environment_from_os.obj
 0002:0000b7a4       $unwind$?fp_format_f_internal@@YAHQEAD_KHQEAU_strflt@@_NQEAU__crt_locale_pointers@@@Z 000000018002d7a4     libucrt:cvt.obj
 0002:0000b7a4       $unwind$?ProcessWindowMessage@COPOSCashChanger@@UEAAHPEAUHWND__@@I_K_JAEA_JK@Z 000000018002d7a4     CashChanger.obj
 0002:0000b7bc       $unwind$?Clone@?$CComEnumImpl@UIEnumConnections@@$1?_GUID_b196b287_bab4_101a_b69c_00aa00341d07@@3U__s_GUID@@BUtagCONNECTDATA@@V?$_Copy@UtagCONNECTDATA@@@ATL@@@ATL@@UEAAJPEAPEAUIEnumConnections@@@Z 000000018002d7bc     CashChanger.obj
 0002:0000b7bc       $unwind$?Clone@?$CComEnumImpl@UIEnumConnectionPoints@@$1?_GUID_b196b285_bab4_101a_b69c_00aa00341d07@@3U__s_GUID@@BPEAUIConnectionPoint@@V?$_CopyInterface@UIConnectionPoint@@@ATL@@@ATL@@UEAAJPEAPEAUIEnumConnectionPoints@@@Z 000000018002d7bc     CashChanger.obj
 0002:0000b7d4       $unwind$?GetOposProp@COPOSCashChanger@@IEAAJJPEAPEA_WJ@Z 000000018002d7d4     CashChangerImpl.obj
 0002:0000b7d4       $unwind$?GetOposProp@COPOSCashChanger@@IEAAJJPEAJJ@Z 000000018002d7d4     CashChangerImpl.obj
 0002:0000b7ec       $unwind$?SetOposProp@COPOSCashChanger@@IEAAJJJJ@Z 000000018002d7ec     CashChangerImpl.obj
 0002:0000b80c       $unwind$?SetOposProp@COPOSCashChanger@@IEAAJJPEA_WJ@Z 000000018002d80c     CashChangerImpl.obj
 0002:0000b828       $unwind$?DoInvoke@COPOSCashChanger@@IEAAJJPEAVOposVariant@@IHPEAJ_N@Z 000000018002d828     CashChangerImpl.obj
 0002:0000b840       $unwind$?SetCOFreezeEvents@COPOSCashChanger@@IEAAXF@Z 000000018002d840     CashChangerImpl.obj
 0002:0000b854       $unwind$?OnDraw@COPOSCashChanger@@MEAAJAEAUATL_DRAWINFO@@@Z 000000018002d854     CashChangerImpl.obj
 0002:0000b86c       $unwind$?EventInit@COPOSCashChanger@@IEAAJXZ 000000018002d86c     CashChangerImpl.obj
 0002:0000b880       $unwind$?EventWindowProc@COPOSCashChanger@@IEAA_JI_K_J@Z 000000018002d880     CashChangerImpl.obj
 0002:0000b890       $unwind$?getSystemCP@@YAHH@Z 000000018002d890     libucrt:mbctype.obj
 0002:0000b890       $unwind$isdigit            000000018002d890     libucrt:_ctype.obj
 0002:0000b890       $unwind$_isleadbyte_l      000000018002d890     libucrt:_wctype.obj
 0002:0000b890       $unwind$__scrt_initialize_onexit_tables 000000018002d890     LIBCMT:utility.obj
 0002:0000b890       $unwind$?get_ControlObjectDescription@COPOSCashChanger@@UEAAJPEAPEA_W@Z 000000018002d890     CashChangerImpl.obj
 0002:0000b898       $unwind$?DispenseCash@COPOSCashChanger@@UEAAJPEA_WPEAJ@Z 000000018002d898     CashChangerImpl.obj
 0002:0000b898       $unwind$?UpdateStatistics@COPOSCashChanger@@UEAAJPEA_WPEAJ@Z 000000018002d898     CashChangerImpl.obj
 0002:0000b898       $unwind$?AdjustCashCounts@COPOSCashChanger@@UEAAJPEA_WPEAJ@Z 000000018002d898     CashChangerImpl.obj
 0002:0000b898       $unwind$?CheckHealth@COPOSCashChanger@@UEAAJJPEAJ@Z 000000018002d898     CashChangerImpl.obj
 0002:0000b898       $unwind$?DispenseChange@COPOSCashChanger@@UEAAJJPEAJ@Z 000000018002d898     CashChangerImpl.obj
 0002:0000b898       $unwind$?UpdateFirmware@COPOSCashChanger@@UEAAJPEA_WPEAJ@Z 000000018002d898     CashChangerImpl.obj
 0002:0000b898       $unwind$?ResetStatistics@COPOSCashChanger@@UEAAJPEA_WPEAJ@Z 000000018002d898     CashChangerImpl.obj
 0002:0000b898       $unwind$?EndDeposit@COPOSCashChanger@@UEAAJJPEAJ@Z 000000018002d898     CashChangerImpl.obj
 0002:0000b898       $unwind$?RetrieveStatistics@COPOSCashChanger@@UEAAJPEAPEA_WPEAJ@Z 000000018002d898     CashChangerImpl.obj
 0002:0000b898       $unwind$?PauseDeposit@COPOSCashChanger@@UEAAJJPEAJ@Z 000000018002d898     CashChangerImpl.obj
 0002:0000b8a8       $unwind$?ClaimDevice@COPOSCashChanger@@UEAAJJPEAJ@Z 000000018002d8a8     CashChangerImpl.obj
 0002:0000b8b8       $unwind$?DirectIO@COPOSCashChanger@@UEAAJJPEAJPEAPEA_W0@Z 000000018002d8b8     CashChangerImpl.obj
 0002:0000b8d4       $unwind$?Open@COPOSCashChanger@@UEAAJPEA_WPEAJ@Z 000000018002d8d4     CashChangerImpl.obj
 0002:0000b8f8       $unwind$?CompareFirmwareVersion@COPOSCashChanger@@UEAAJPEA_WPEAJ1@Z 000000018002d8f8     CashChangerImpl.obj
 0002:0000b8f8       $unwind$?initialize_inherited_file_handles_nolock@@YAXXZ 000000018002d8f8     libucrt:ioinit.obj
 0002:0000b8f8       $unwind$?ReadCashCounts@COPOSCashChanger@@UEAAJPEAPEA_WPEAFPEAJ@Z 000000018002d8f8     CashChangerImpl.obj
 0002:0000b914       $unwind$__scrt_is_nonwritable_in_current_image 000000018002d914     LIBCMT:utility.obj
 0002:0000b934       $unwind$__scrt_is_nonwritable_in_current_image$filt$0 000000018002d934     LIBCMT:utility.obj
 0002:0000b93c       $unwind$?__scrt_initialize_thread_safe_statics@@YAHXZ 000000018002d93c     LIBCMT:thread_safe_statics.obj
 0002:0000b954       $stateUnwindMap$?__scrt_initialize_thread_safe_statics@@YAHXZ 000000018002d954     LIBCMT:thread_safe_statics.obj
 0002:0000b960       $ip2state$?__scrt_initialize_thread_safe_statics@@YAHXZ 000000018002d960     LIBCMT:thread_safe_statics.obj
 0002:0000b968       $unwind$__report_securityfailure 000000018002d968     LIBCMT:gs_report.obj
 0002:0000b970       $unwind$__report_gsfailure 000000018002d970     LIBCMT:gs_report.obj
 0002:0000b970       $unwind$_putwch_nolock     000000018002d970     libucrt:putwch.obj
 0002:0000b978       $unwind$capture_current_context 000000018002d978     LIBCMT:gs_report.obj
 0002:0000b984       $unwind$capture_previous_context 000000018002d984     LIBCMT:gs_report.obj
 0002:0000b990       $unwind$??2@YAPEAX_KAEBUnothrow_t@std@@@Z 000000018002d990     LIBCMT:new_scalar_nothrow.obj
 0002:0000b9a0       $stateUnwindMap$??2@YAPEAX_KAEBUnothrow_t@std@@@Z 000000018002d9a0     LIBCMT:new_scalar_nothrow.obj
 0002:0000b9b0       $tryMap$??2@YAPEAX_KAEBUnothrow_t@std@@@Z 000000018002d9b0     LIBCMT:new_scalar_nothrow.obj
 0002:0000b9c4       $handlerMap$0$??2@YAPEAX_KAEBUnothrow_t@std@@@Z 000000018002d9c4     LIBCMT:new_scalar_nothrow.obj
 0002:0000b9d8       $ip2state$??2@YAPEAX_KAEBUnothrow_t@std@@@Z 000000018002d9d8     LIBCMT:new_scalar_nothrow.obj
 0002:0000b9e0       $unwind$?catch$0@?0???2@YAPEAX_KAEBUnothrow_t@std@@@Z@4HA 000000018002d9e0     LIBCMT:new_scalar_nothrow.obj
 0002:0000b9f0       $unwind$__GSHandlerCheckCommon 000000018002d9f0     LIBCMT:_gshandler_.obj
 0002:0000b9f8       $xdatasym                  000000018002d9f8     LIBCMT:_chkstk_.obj
 0002:0000ba00       $xdatasym                  000000018002da00     LIBCMT:_amdsecgs_.obj
 0002:0000ba04       $unwind$?dllmain_crt_process_attach@@YAHQEAUHINSTANCE__@@QEAX@Z 000000018002da04     LIBCMT:dll_dllmain.obj
 0002:0000ba40       $unwind$?dllmain_crt_process_detach@@YAH_N@Z 000000018002da40     LIBCMT:dll_dllmain.obj
 0002:0000ba78       $unwind$?dllmain_dispatch@@YAHQEAUHINSTANCE__@@KQEAX@Z 000000018002da78     LIBCMT:dll_dllmain.obj
 0002:0000baa0       $unwind$?filt$0@?0??dllmain_dispatch@@YAHQEAUHINSTANCE__@@KQEAX@Z@4HA 000000018002daa0     LIBCMT:dll_dllmain.obj
 0002:0000baa8       $unwind$__isa_available_init 000000018002daa8     LIBCMT:_cpu_disp_.obj
 0002:0000babc       $unwind$__scrt_fastfail    000000018002dabc     LIBCMT:utility_desktop.obj
 0002:0000bacc       $unwind$__security_init_cookie 000000018002dacc     LIBCMT:gs_support.obj
 0002:0000bad8       $xdatasym                  000000018002dad8     LIBCMT:_guard_dispatch_.obj
 0002:0000badc       $unwind$AtlThunk_InitData  000000018002dadc     atls:atlthunk.obj
 0002:0000baf0       $xdatasym                  000000018002daf0     libvcruntime:memset.obj
 0002:0000bb00       $unwind$wcsstr             000000018002db00     libvcruntime:wcsstr.obj
 0002:0000bb18       $xdatasym                  000000018002db18     libvcruntime:memcmp.obj
 0002:0000bb20       $xdatasym                  000000018002db20     libvcruntime:memcpy.obj
 0002:0000bb30       $unwind$__C_specific_handler 000000018002db30     libvcruntime:_riscchandler_.obj
 0002:0000bb4c       $unwind$__DestructExceptionObject 000000018002db4c     libvcruntime:ehhelpers.obj
 0002:0000bb6c       $unwind$?GetEstablisherFrame@__FrameHandler3@@SAPEA_KPEA_KPEAU_xDISPATCHER_CONTEXT@@PEBU_s_FuncInfo@@0@Z 000000018002db6c     libvcruntime:risctrnsctrl.obj
 0002:0000bb84       $unwind$?UnwindNestedFrames@__FrameHandler3@@SAXPEA_KPEAUEHExceptionRecord@@PEAU_CONTEXT@@0PEAXPEBU_s_FuncInfo@@HHPEBU_s_HandlerType@@PEAU_xDISPATCHER_CONTEXT@@E@Z 000000018002db84     libvcruntime:risctrnsctrl.obj
 0002:0000bb98       $unwind$?GetRangeOfTrysToCheck@__FrameHandler3@@SA?AU?$pair@Viterator@TryBlockMap@__FrameHandler3@@V123@@std@@AEAVTryBlockMap@1@HH@Z 000000018002db98     libvcruntime:risctrnsctrl.obj
 0002:0000bbb0       $unwind$__CxxFrameHandler3 000000018002dbb0     libvcruntime:risctrnsctrl.obj
 0002:0000bbc0       $unwind$??$_CallSETranslator@V__FrameHandler3@@@@YAHPEAUEHExceptionRecord@@PEA_KPEAU_CONTEXT@@PEAU_xDISPATCHER_CONTEXT@@PEBU_s_FuncInfo@@K1@Z 000000018002dbc0     libvcruntime:risctrnsctrl.obj
 0002:0000bbe0       $unwind$?filt$0@?0???$_CallSETranslator@V__FrameHandler3@@@@YAHPEAUEHExceptionRecord@@PEA_KPEAU_CONTEXT@@PEAU_xDISPATCHER_CONTEXT@@PEBU_s_FuncInfo@@K1@Z@4HA 000000018002dbe0     libvcruntime:risctrnsctrl.obj
 0002:0000bbec       $unwind$_CxxThrowException 000000018002dbec     libvcruntime:throw.obj
 0002:0000bbfc       $unwind$__vcrt_initialize_winapi_thunks 000000018002dbfc     libvcruntime:winapi_downlevel.obj
 0002:0000bbfc       $unwind$__acrt_initialize_winapi_thunks 000000018002dbfc     libucrt:winapi_thunks.obj
 0002:0000bc04       $unwind$__vcrt_uninitialize_winapi_thunks 000000018002dc04     libvcruntime:winapi_downlevel.obj
 0002:0000bc0c       $unwind$??R<lambda_f03950bc5685219e0bcd2087efbe011e>@@QEBAHXZ 000000018002dc0c     libucrt:onexit.obj
 0002:0000bc0c       $unwind$?IsInExceptionSpec@@YAEPEAUEHExceptionRecord@@PEBU_s_ESTypeList@@@Z 000000018002dc0c     libvcruntime:frame.obj
 0002:0000bc0c       $unwind$?try_get_function@@YAPEAXW4function_id@?A0xcc2f1bd3@@QEBDQEBW4module_id@2@2@Z 000000018002dc0c     libvcruntime:winapi_downlevel.obj
 0002:0000bc0c       $unwind$?try_get_function@@YAPEAXW4function_id@?A0x391cf84c@@QEBDQEBW4module_id@2@2@Z 000000018002dc0c     libucrt:winapi_thunks.obj
 0002:0000bc28       $xdatasym                  000000018002dc28     libvcruntime:_notify_.obj
 0002:0000bc34       $unwind$?FrameUnwindToState@__FrameHandler3@@SAXPEA_KPEAU_xDISPATCHER_CONTEXT@@PEBU_s_FuncInfo@@H@Z 000000018002dc34     libvcruntime:frame.obj
 0002:0000bc80       $unwind$?CxxCallCatchBlock@__FrameHandler3@@SAPEAXPEAU_EXCEPTION_RECORD@@@Z 000000018002dc80     libvcruntime:frame.obj
 0002:0000bcbc       $unwind$?fin$1@?0??CxxCallCatchBlock@__FrameHandler3@@SAPEAXPEAU_EXCEPTION_RECORD@@@Z@4HA 000000018002dcbc     libvcruntime:frame.obj
 0002:0000bcc8       $unwind$??$BuildCatchObjectHelperInternal@$$CBU_s_HandlerType@@@@YAHPEAUEHExceptionRecord@@PEAXPEBU_s_HandlerType@@PEBU_s_CatchableType@@@Z 000000018002dcc8     libvcruntime:frame.obj
 0002:0000bd08       $unwind$??$BuildCatchObjectInternal@$$CBU_s_HandlerType@@@@YAXPEAUEHExceptionRecord@@PEAXPEBU_s_HandlerType@@PEBU_s_CatchableType@@@Z 000000018002dd08     libvcruntime:frame.obj
 0002:0000bd34       $unwind$??$FindHandler@V__FrameHandler3@@@@YAXPEAUEHExceptionRecord@@PEA_KPEAU_CONTEXT@@PEAU_xDISPATCHER_CONTEXT@@PEBU_s_FuncInfo@@EH1@Z 000000018002dd34     libvcruntime:frame.obj
 0002:0000bd50       $unwind$??$CatchIt@V__FrameHandler3@@@@YAXPEAUEHExceptionRecord@@PEA_KPEAU_CONTEXT@@PEAU_xDISPATCHER_CONTEXT@@PEBU_s_FuncInfo@@PEBU_s_HandlerType@@PEBU_s_CatchableType@@PEBU_s_TryBlockMapEntry@@H1EE@Z 000000018002dd50     libvcruntime:frame.obj
 0002:0000bd68       $unwind$??$FindHandlerForForeignException@V__FrameHandler3@@@@YAXPEAUEHExceptionRecord@@PEA_KPEAU_CONTEXT@@PEAU_xDISPATCHER_CONTEXT@@PEBU_s_FuncInfo@@HH1@Z 000000018002dd68     libvcruntime:frame.obj
 0002:0000bd88       $xdatasym                  000000018002dd88     libvcruntime:handlers.obj
 0002:0000bd98       $unwind$__acrt_call_reportfault 000000018002dd98     libucrt:invalid_parameter.obj
 0002:0000bdb8       $unwind$_invalid_parameter 000000018002ddb8     libucrt:invalid_parameter.obj
 0002:0000bdcc       $unwind$_resetstkoflw      000000018002ddcc     libucrt:resetstk.obj
 0002:0000bdf0       $unwind$?write_string@?$string_output_adapter@_W@__crt_stdio_output@@QEBAXQEB_WHQEAHAEAV__crt_deferred_errno_cache@@@Z 000000018002ddf0     libucrt:output.obj
 0002:0000be08       $unwind$??$common_vsprintf@Vformat_validation_base@__crt_stdio_output@@_W@@YAH_KQEA_W0QEB_WQEAU__crt_locale_pointers@@QEAD@Z 000000018002de08     libucrt:output.obj
 0002:0000be28       $unwind$??$write_multiple_characters@V?$string_output_adapter@_W@__crt_stdio_output@@D@__crt_stdio_output@@YAXAEBV?$string_output_adapter@_W@0@DHQEAH@Z 000000018002de28     libucrt:output.obj
 0002:0000be34       $unwind$?parse_int_from_format_string@?$output_processor@_WV?$string_output_adapter@_W@__crt_stdio_output@@V?$format_validation_base@_WV?$string_output_adapter@_W@__crt_stdio_output@@@2@@__crt_stdio_output@@AEAA_NQEAH@Z 000000018002de34     libucrt:output.obj
 0002:0000be48       $unwind$?state_case_type@?$output_processor@_WV?$string_output_adapter@_W@__crt_stdio_output@@V?$format_validation_base@_WV?$string_output_adapter@_W@__crt_stdio_output@@@2@@__crt_stdio_output@@AEAA_NXZ 000000018002de48     libucrt:output.obj
 0002:0000be6c       $unwind$?type_case_a@?$output_processor@_WV?$string_output_adapter@_W@__crt_stdio_output@@V?$format_validation_base@_WV?$string_output_adapter@_W@__crt_stdio_output@@@2@@__crt_stdio_output@@AEAA_NXZ 000000018002de6c     libucrt:output.obj
 0002:0000be7c       $unwind$?write_stored_string_tchar@?$output_processor@_WV?$string_output_adapter@_W@__crt_stdio_output@@V?$format_validation_base@_WV?$string_output_adapter@_W@__crt_stdio_output@@@2@@__crt_stdio_output@@AEAA_N_W@Z 000000018002de7c     libucrt:output.obj
 0002:0000be90       $unwind$??$type_case_integer_parse_into_buffer@I@?$output_processor@_WV?$string_output_adapter@_W@__crt_stdio_output@@V?$format_validation_base@_WV?$string_output_adapter@_W@__crt_stdio_output@@@2@@__crt_stdio_output@@AEAAXII_N@Z 000000018002de90     libucrt:output.obj
 0002:0000be90       $unwind$??$type_case_integer_parse_into_buffer@_K@?$output_processor@_WV?$string_output_adapter@_W@__crt_stdio_output@@V?$format_validation_base@_WV?$string_output_adapter@_W@__crt_stdio_output@@@2@@__crt_stdio_output@@AEAAX_KI_N@Z 000000018002de90     libucrt:output.obj
 0002:0000be98       $unwind$?common_exit@@YAXHW4_crt_exit_cleanup_mode@@W4_crt_exit_return_mode@@@Z 000000018002de98     libucrt:exit.obj
 0002:0000bea4       $unwind$??R<lambda_6e4b09c48022b2350581041d5f6b0c4c>@@QEBA@XZ 000000018002dea4     libucrt:exit.obj
 0002:0000bec4       $unwind$??$?RV<lambda_d80eeec6fff315bfe5c115232f3240e3>@@AEAV<lambda_6e4b09c48022b2350581041d5f6b0c4c>@@V<lambda_2358e3775559c9db80273638284d5e45>@@@?$__crt_seh_guarded_call@X@@QEAAX$$QEAV<lambda_d80eeec6fff315bfe5c115232f3240e3>@@AEAV<lambda_6e4b09c48022b2350581041d5f6b0c4c>@@$$QEAV<lambda_2358e3775559c9db80273638284d5e45>@@@Z 000000018002dec4     libucrt:exit.obj
 0002:0000bee8       $unwind$??$free_environment@_W@@YAXQEAPEA_W@Z 000000018002dee8     libucrt:environment_initialization.obj
 0002:0000bee8       $unwind$??$free_environment@D@@YAXQEAPEAD@Z 000000018002dee8     libucrt:environment_initialization.obj
 0002:0000bef4       $unwind$_register_onexit_function 000000018002def4     libucrt:onexit.obj
 0002:0000befc       $unwind$_execute_onexit_table 000000018002defc     libucrt:onexit.obj
 0002:0000bf04       $unwind$??$?RV<lambda_638799b9deba96c50f710eeac98168cd>@@AEAV<lambda_22ebabd17bc4fa466a2aca6d8deb888d>@@V<lambda_a6f7d7db0129f75315ebf26d50c089f1>@@@?$__crt_seh_guarded_call@H@@QEAAH$$QEAV<lambda_638799b9deba96c50f710eeac98168cd>@@AEAV<lambda_22ebabd17bc4fa466a2aca6d8deb888d>@@$$QEAV<lambda_a6f7d7db0129f75315ebf26d50c089f1>@@@Z 000000018002df04     libucrt:onexit.obj
 0002:0000bf28       $unwind$??$?RV<lambda_7777bce6b2f8c936911f934f8298dc43>@@AEAV<lambda_f03950bc5685219e0bcd2087efbe011e>@@V<lambda_3883c3dff614d5e0c5f61bb1ac94921c>@@@?$__crt_seh_guarded_call@H@@QEAAH$$QEAV<lambda_7777bce6b2f8c936911f934f8298dc43>@@AEAV<lambda_f03950bc5685219e0bcd2087efbe011e>@@$$QEAV<lambda_3883c3dff614d5e0c5f61bb1ac94921c>@@@Z 000000018002df28     libucrt:onexit.obj
 0002:0000bf4c       $unwind$_query_new_handler 000000018002df4c     libucrt:new_handler.obj
 0002:0000bf6c       $unwind$terminate          000000018002df6c     libucrt:terminate.obj
 0002:0000bf8c       $unwind$??$parse_integer@KV?$c_string_character_source@_W@__crt_strtox@@@__crt_strtox@@YAKQEAU__crt_locale_pointers@@V?$c_string_character_source@_W@0@H_N@Z 000000018002df8c     libucrt:atox.obj
 0002:0000bfa8       $xdatasym                  000000018002dfa8     libucrt:strncmp.obj
 0002:0000bfac       $unwind$?construct_ptd_array@@YAXQEAU__acrt_ptd@@@Z 000000018002dfac     libucrt:per_thread_data.obj
 0002:0000bfb4       $unwind$?destroy_ptd_array@@YAXQEAU__acrt_ptd@@@Z 000000018002dfb4     libucrt:per_thread_data.obj
 0002:0000bfbc       $unwind$??$?RV<lambda_0ae27a3a962d80f24befdcbee591983d>@@AEAV<lambda_8d0ee55de4b1038c4002e0adecdf1839>@@V<lambda_dc504788e8f1664fe9b84e20bfb512f2>@@@?$__crt_seh_guarded_call@X@@QEAAX$$QEAV<lambda_0ae27a3a962d80f24befdcbee591983d>@@AEAV<lambda_8d0ee55de4b1038c4002e0adecdf1839>@@$$QEAV<lambda_dc504788e8f1664fe9b84e20bfb512f2>@@@Z 000000018002dfbc     libucrt:per_thread_data.obj
 0002:0000bfe0       $unwind$??$?RV<lambda_aa87e3671a710a21b5dc78c0bdf72e11>@@AEAV<lambda_92619d2358a28f41a33ba319515a20b9>@@V<lambda_6992ecaafeb10aed2b74cb1fae11a551>@@@?$__crt_seh_guarded_call@X@@QEAAX$$QEAV<lambda_aa87e3671a710a21b5dc78c0bdf72e11>@@AEAV<lambda_92619d2358a28f41a33ba319515a20b9>@@$$QEAV<lambda_6992ecaafeb10aed2b74cb1fae11a551>@@@Z 000000018002dfe0     libucrt:per_thread_data.obj
 0002:0000c004       $unwind$??$?RV<lambda_f2e299630e499de9f9a165e60fcd3db5>@@AEAV<lambda_2ae9d31cdba2644fcbeaf08da7c24588>@@V<lambda_40d01ff24d0e7b3814fdbdcee8eab3c7>@@@?$__crt_seh_guarded_call@X@@QEAAX$$QEAV<lambda_f2e299630e499de9f9a165e60fcd3db5>@@AEAV<lambda_2ae9d31cdba2644fcbeaf08da7c24588>@@$$QEAV<lambda_40d01ff24d0e7b3814fdbdcee8eab3c7>@@@Z 000000018002e004     libucrt:per_thread_data.obj
 0002:0000c028       $unwind$??$?RV<lambda_2d41944a1d46af3157314b8a01080d33>@@AEAV<lambda_8f455de75cd7d7f24b4096f044d8b9e6>@@V<lambda_aa500f224e6afead328df44964fe2772>@@@?$__crt_seh_guarded_call@X@@QEAAX$$QEAV<lambda_2d41944a1d46af3157314b8a01080d33>@@AEAV<lambda_8f455de75cd7d7f24b4096f044d8b9e6>@@$$QEAV<lambda_aa500f224e6afead328df44964fe2772>@@@Z 000000018002e028     libucrt:per_thread_data.obj
 0002:0000c04c       $unwind$_tolower_l         000000018002e04c     libucrt:tolower_toupper.obj
 0002:0000c05c       $unwind$wcstol             000000018002e05c     libucrt:strtox.obj
 0002:0000c064       $unwind$wcsnlen            000000018002e064     libucrt:strnlen.obj
 0002:0000c06c       $unwind$__acrt_fp_format   000000018002e06c     libucrt:cvt.obj
 0002:0000c088       $unwind$?fp_format_nan_or_infinity@@YAHW4__acrt_fp_class@@_NPEAD_K1@Z 000000018002e088     libucrt:cvt.obj
 0002:0000c09c       $unwind$?fp_format_e_internal@@YAHQEAD_KH_NIQEAU_strflt@@2QEAU__crt_locale_pointers@@@Z 000000018002e09c     libucrt:cvt.obj
 0002:0000c0b4       $unwind$?fp_format_a@@YAHQEBNPEAD_KQEAD2H_NIQEAU__crt_locale_pointers@@@Z 000000018002e0b4     libucrt:cvt.obj
 0002:0000c0d0       $unwind$?fp_format_g@@YAHQEBNQEAD_K12H_NIQEAU__crt_locale_pointers@@@Z 000000018002e0d0     libucrt:cvt.obj
 0002:0000c0e4       $unwind$__acrt_get_sigabrt_handler 000000018002e0e4     libucrt:signal.obj
 0002:0000c0e4       $unwind$__acrt_uninitialize_locale 000000018002e0e4     libucrt:wsetlocale.obj
 0002:0000c0ec       $unwind$??$?RV<lambda_410d79af7f07d98d83a3f525b3859a53>@@AEAV<lambda_3e16ef9562a7dcce91392c22ab16ea36>@@V<lambda_38119f0e861e05405d8a144b9b982f0a>@@@?$__crt_seh_guarded_call@X@@QEAAX$$QEAV<lambda_410d79af7f07d98d83a3f525b3859a53>@@AEAV<lambda_3e16ef9562a7dcce91392c22ab16ea36>@@$$QEAV<lambda_38119f0e861e05405d8a144b9b982f0a>@@@Z 000000018002e0ec     libucrt:wsetlocale.obj
 0002:0000c114       $unwind$__acrt_initialize_lowio 000000018002e114     libucrt:ioinit.obj
 0002:0000c134       $unwind$??$common_expand_argv_wildcards@D@@YAHQEAPEADQEAPEAPEAD@Z 000000018002e134     libucrt:argv_wildcards.obj
 0002:0000c14c       $unwind$??$copy_and_add_argument_to_buffer@D@@YAHQEBD0_KAEAV?$argument_list@D@?A0x5f5c8891@@@Z 000000018002e14c     libucrt:argv_wildcards.obj
 0002:0000c168       $unwind$??$expand_argument_wildcards@D@@YAHQEAD0AEAV?$argument_list@D@?A0x5f5c8891@@@Z 000000018002e168     libucrt:argv_wildcards.obj
 0002:0000c188       $unwind$_setmbcp_nolock    000000018002e188     libucrt:mbctype.obj
 0002:0000c1a8       $unwind$?setSBUpLow@@YAXPEAU__crt_multibyte_data@@@Z 000000018002e1a8     libucrt:mbctype.obj
 0002:0000c1c4       $unwind$?update_thread_multibyte_data_internal@@YAPEAU__crt_multibyte_data@@QEAU__acrt_ptd@@QEAU1@@Z 000000018002e1c4     libucrt:mbctype.obj
 0002:0000c1ec       $unwind$?setmbcp_internal@@YAHH_NQEAU__acrt_ptd@@QEAPEAU__crt_multibyte_data@@@Z 000000018002e1ec     libucrt:mbctype.obj
 0002:0000c1fc       $unwind$??$?RV<lambda_efdfa57d1f175319df784efa44bb7b81>@@AEAV<lambda_5f0a4c1567f8adc6734073e5d1e1b35c>@@V<lambda_2e8a7d3640ea6ccb4c2413664c2db6fd>@@@?$__crt_seh_guarded_call@X@@QEAAX$$QEAV<lambda_efdfa57d1f175319df784efa44bb7b81>@@AEAV<lambda_5f0a4c1567f8adc6734073e5d1e1b35c>@@$$QEAV<lambda_2e8a7d3640ea6ccb4c2413664c2db6fd>@@@Z 000000018002e1fc     libucrt:mbctype.obj
 0002:0000c220       $unwind$raise              000000018002e220     libucrt:signal.obj
 0002:0000c24c       $unwind$??$?RV<lambda_450d765d439847d4c735a33c368b5fc0>@@AEAV<lambda_44731a7d0e6d81c3e6aa82d741081786>@@V<lambda_601a2a7da3b7a96e9554ac7215c4b07c>@@@?$__crt_seh_guarded_call@P6AXH@Z@@QEAAP6AXH@Z$$QEAV<lambda_450d765d439847d4c735a33c368b5fc0>@@AEAV<lambda_44731a7d0e6d81c3e6aa82d741081786>@@$$QEAV<lambda_601a2a7da3b7a96e9554ac7215c4b07c>@@@Z 000000018002e24c     libucrt:signal.obj
 0002:0000c270       $unwind$_isctype_l         000000018002e270     libucrt:isctype.obj
 0002:0000c28c       $unwind$__acrt_update_thread_locale_data 000000018002e28c     libucrt:locale_refcounting.obj
 0002:0000c2b0       $unwind$?GetTableIndexFromLocaleName@@YAHPEB_W@Z 000000018002e2b0     libucrt:lcidtoname_downlevel.obj
 0002:0000c2c8       $unwind$__acrt_LCMapStringA 000000018002e2c8     libucrt:lcmapstringa.obj
 0002:0000c2d8       $unwind$?__acrt_LCMapStringA_stat@@YAHPEAU__crt_locale_pointers@@PEB_WKPEBDHPEADHHH@Z 000000018002e2d8     libucrt:lcmapstringa.obj
 0002:0000c300       $unwind$__acrt_fltout      000000018002e300     libucrt:cfout.obj
 0002:0000c320       $unwind$?divide@__crt_strtox@@YA_KAEAUbig_integer@1@AEBU21@@Z 000000018002e320     libucrt:cfout.obj
 0002:0000c340       $chain$5$?divide@__crt_strtox@@YA_KAEAUbig_integer@1@AEBU21@@Z 000000018002e340     libucrt:cfout.obj
 0002:0000c354       $chain$6$?divide@__crt_strtox@@YA_KAEAUbig_integer@1@AEBU21@@Z 000000018002e354     libucrt:cfout.obj
 0002:0000c364       $unwind$_fcloseall         000000018002e364     libucrt:closeall.obj
 0002:0000c388       $unwind$?common_flush_all@@YAH_N@Z 000000018002e388     libucrt:fflush.obj
 0002:0000c390       $unwind$??$?RV<lambda_842d9ff0dc9ef11c61343bbaebe7f885>@@AEAV<lambda_c5860995281e5c4ce005b3de8f5874ee>@@V<lambda_d90129c13df834fdcbf8d2b88dafcf2d>@@@?$__crt_seh_guarded_call@X@@QEAAX$$QEAV<lambda_842d9ff0dc9ef11c61343bbaebe7f885>@@AEAV<lambda_c5860995281e5c4ce005b3de8f5874ee>@@$$QEAV<lambda_d90129c13df834fdcbf8d2b88dafcf2d>@@@Z 000000018002e390     libucrt:fflush.obj
 0002:0000c3b4       $unwind$??$?RV<lambda_886d6c58226a84441f68b9f2b8217b83>@@AEAV<lambda_ab61a845afdef5b7c387490eaf3616ee>@@V<lambda_f7f22ab5edc0698d5f6905b0d3f44752>@@@?$__crt_seh_guarded_call@X@@QEAAX$$QEAV<lambda_886d6c58226a84441f68b9f2b8217b83>@@AEAV<lambda_ab61a845afdef5b7c387490eaf3616ee>@@$$QEAV<lambda_f7f22ab5edc0698d5f6905b0d3f44752>@@@Z 000000018002e3b4     libucrt:fflush.obj
 0002:0000c3dc       $unwind$__acrt_locale_free_monetary 000000018002e3dc     libucrt:initmon.obj
 0002:0000c3e4       $unwind$__acrt_locale_free_time 000000018002e3e4     libucrt:inittime.obj
 0002:0000c3f4       $unwind$__acrt_GetStringTypeA 000000018002e3f4     libucrt:getstringtypea.obj
 0002:0000c41c       $unwind$__acrt_lowio_destroy_handle_array 000000018002e41c     libucrt:osfinfo.obj
 0002:0000c42c       $unwind$__acrt_lowio_ensure_fh_exists 000000018002e42c     libucrt:osfinfo.obj
 0002:0000c458       $unwind$qsort              000000018002e458     libucrt:qsort.obj
 0002:0000c470       $chain$4$qsort             000000018002e470     libucrt:qsort.obj
 0002:0000c494       $chain$5$qsort             000000018002e494     libucrt:qsort.obj
 0002:0000c4a4       $unwind$?shortsort@@YAXPEAD0_KP6AHPEBX2@Z@Z 000000018002e4a4     libucrt:qsort.obj
 0002:0000c4b4       $chain$2$?shortsort@@YAXPEAD0_KP6AHPEBX2@Z@Z 000000018002e4b4     libucrt:qsort.obj
 0002:0000c4d0       $chain$3$?shortsort@@YAXPEAD0_KP6AHPEBX2@Z@Z 000000018002e4d0     libucrt:qsort.obj
 0002:0000c4e0       $unwind$strpbrk            000000018002e4e0     libucrt:strpbrk.obj
 0002:0000c4f0       $xdatasym                  000000018002e4f0     libucrt:log10.obj
 0002:0000c4fc       $unwind$_write             000000018002e4fc     libucrt:write.obj
 0002:0000c52c       $unwind$_write_nolock      000000018002e52c     libucrt:write.obj
 0002:0000c544       $unwind$?write_double_translated_ansi_nolock@@YA?AUwrite_result@?A0x17268360@@HQEBDI@Z 000000018002e544     libucrt:write.obj
 0002:0000c564       $unwind$?write_text_ansi_nolock@@YA?AUwrite_result@?A0x17268360@@HQEBDI@Z 000000018002e564     libucrt:write.obj
 0002:0000c564       $unwind$?write_text_utf16le_nolock@@YA?AUwrite_result@?A0x17268360@@HQEBDI@Z 000000018002e564     libucrt:write.obj
 0002:0000c584       $unwind$?write_text_utf8_nolock@@YA?AUwrite_result@?A0x17268360@@HQEBDI@Z 000000018002e584     libucrt:write.obj
 0002:0000c5a8       $unwind$fclose             000000018002e5a8     libucrt:fclose.obj
 0002:0000c5cc       $unwind$_commit            000000018002e5cc     libucrt:commit.obj
 0002:0000c5cc       $unwind$_close             000000018002e5cc     libucrt:close.obj
 0002:0000c5d4       $unwind$??$?RV<lambda_a37b2b86f63e897a80ea819b0eb08c01>@@AEAV<lambda_38ce7e780aa69e748d6df282ebc68efe>@@V<lambda_99fb1378e971ab6e7edea83e3a7a83a2>@@@?$__crt_seh_guarded_call@H@@QEAAH$$QEAV<lambda_a37b2b86f63e897a80ea819b0eb08c01>@@AEAV<lambda_38ce7e780aa69e748d6df282ebc68efe>@@$$QEAV<lambda_99fb1378e971ab6e7edea83e3a7a83a2>@@@Z 000000018002e5d4     libucrt:commit.obj
 0002:0000c5f8       $unwind$common_control87   000000018002e5f8     libucrt:ieee.obj
 0002:0000c628       $unwind$_call_matherr      000000018002e628     libucrt:libm_error.obj
 0002:0000c630       $unwind$_handle_error      000000018002e630     libucrt:libm_error.obj
 0002:0000c650       $unwind$__acrt_initialize_fma3 000000018002e650     libucrt:fma3_available.obj
 0002:0000c658       $unwind$_log_special_common 000000018002e658     libucrt:log_special.obj
 0002:0000c664       $unwind$??$?RV<lambda_751a882b2c74d4b022dec766aa51a29a>@@AEAV<lambda_628dfdc04ba53c8bfc02c9951375f3f5>@@V<lambda_f6c7be5f7998530c34de24c7437d6b54>@@@?$__crt_seh_guarded_call@H@@QEAAH$$QEAV<lambda_751a882b2c74d4b022dec766aa51a29a>@@AEAV<lambda_628dfdc04ba53c8bfc02c9951375f3f5>@@$$QEAV<lambda_f6c7be5f7998530c34de24c7437d6b54>@@@Z 000000018002e664     libucrt:close.obj
 0002:0000c688       $xdatasym                  000000018002e688     libucrt:fpsr.obj
 0002:0000c690       $unwind$_raise_exc_ex      000000018002e690     libucrt:fpexcept.obj
 0002:0000c6a4       $unwind$_ctrlfp            000000018002e6a4     libucrt:fpctrl.obj
 0002:0000c6cc       $unwind$_IsNonwritableInCurrentImage 000000018002e6cc     LIBCMT:pesect.obj
 0002:0000c6f0       $unwind$strrchr            000000018002e6f0     libvcruntime:strrchr.obj
 0002:0000c860       .edata                     000000018002e860     OPOSCashChanger.exp
 0002:0000c888       rgpv                       000000018002e888     OPOSCashChanger.exp
 0002:0000c898       rgszName                   000000018002e898     OPOSCashChanger.exp
 0002:0000c8a8       rgwOrd                     000000018002e8a8     OPOSCashChanger.exp
 0002:0000c8b0       szName                     000000018002e8b0     OPOSCashChanger.exp
 0002:0000c8c4       $N00001                    000000018002e8c4     OPOSCashChanger.exp
 0002:0000c8d4       $N00002                    000000018002e8d4     OPOSCashChanger.exp
 0002:0000c8e6       $N00003                    000000018002e8e6     OPOSCashChanger.exp
 0002:0000c8f8       $N00004                    000000018002e8f8     OPOSCashChanger.exp
 0002:0000d22c       .idata$6                   000000018002f22c     kernel32:KERNEL32.dll
 0002:0000d444       .idata$6                   000000018002f444     user32:USER32.dll
 0002:0000d578       .idata$6                   000000018002f578     gdi32:GDI32.dll
 0002:0000d61e       .idata$6                   000000018002f61e     advapi32:ADVAPI32.dll
 0002:0000d73a       .idata$6                   000000018002f73a     ole32:ole32.dll
 0002:0000d744       .idata$6                   000000018002f744     oleaut32:OLEAUT32.dll
 0003:000001c0       ?ObjectMap@@3PAU_ATL_OBJMAP_ENTRY30@ATL@@A 00000001800301c0     CashChanger.obj
 0003:000002c0       ?s_SOMethodNames@@3PAPEADA 00000001800302c0     CashChangerImpl.obj
 0003:00000390       ?s_RequiredMethodsPerRelease@@3PAHA 0000000180030390     CashChangerImpl.obj
 0003:000003e0       ?__vcrt_flsindex@@3KA      00000001800303e0     libvcruntime:per_thread_data.obj
 0003:000003f0       ?errno_no_memory@@3HA      00000001800303f0     libucrt:errno.obj
 0003:000003f4       ?doserrno_no_memory@@3KA   00000001800303f4     libucrt:errno.obj
 0003:00000400       ?__acrt_flsindex@@3KA      0000000180030400     libucrt:per_thread_data.obj
 0003:000008c0       _mbctypes                  00000001800308c0     libucrt:mbctype.obj
 0003:000009d0       _mbcasemaps                00000001800309d0     libucrt:mbctype.obj
 0003:00000ad0       ?__rgctypeflag@@3PADA      0000000180030ad0     libucrt:mbctype.obj
 0003:00000ae0       ?__rgcode_page_info@@3PAUcode_page_info@@A 0000000180030ae0     libucrt:mbctype.obj
 0003:00000c80       ?dazSupported@?1??common_control87@@9@9 0000000180030c80     libucrt:ieee.obj
 0003:00000c90       ?dazSupported@?1??_ctrlfp@@9@9 0000000180030c90     libucrt:fpctrl.obj
 0003:00000ee0       ?is_initialized_as_dll@@3_NA 0000000180030ee0     LIBCMT:utility.obj
 0003:00000ee1       ?module_local_atexit_table_initialized@@3_NA 0000000180030ee1     LIBCMT:utility.obj
 0003:00000ee8       ?module_local_atexit_table@@3U_onexit_table_t@@A 0000000180030ee8     LIBCMT:utility.obj
 0003:00000f00       ?module_local_at_quick_exit_table@@3U_onexit_table_t@@A 0000000180030f00     LIBCMT:utility.obj
 0003:00000f18       ?_Tss_mutex@@3U_RTL_CRITICAL_SECTION@@A 0000000180030f18     LIBCMT:thread_safe_statics.obj
 0003:00000f40       ?_Tss_cv@@3U_RTL_CONDITION_VARIABLE@@A 0000000180030f40     LIBCMT:thread_safe_statics.obj
 0003:00000f48       ?_Tss_event@@3PEAXEA       0000000180030f48     LIBCMT:thread_safe_statics.obj
 0003:00000f50       ?encoded_sleep_condition_variable_cs@@3P6AHPEAU_RTL_CONDITION_VARIABLE@@PEAU_RTL_CRITICAL_SECTION@@K@ZEA 0000000180030f50     LIBCMT:thread_safe_statics.obj
 0003:00000f58       ?encoded_wake_all_condition_variable@@3P6AXPEAU_RTL_CONDITION_VARIABLE@@@ZEA 0000000180030f58     LIBCMT:thread_safe_statics.obj
 0003:00000f60       GS_ExceptionRecord         0000000180030f60     LIBCMT:gs_report.obj
 0003:00001000       GS_ContextRecord           0000000180031000     LIBCMT:gs_report.obj
 0003:000014d4       ?__proc_attached@@3HA      00000001800314d4     LIBCMT:dll_dllmain.obj
 0003:00001568       ?AllocateData@@3P6APEAUAtlThunkData_t@@XZEA 0000000180031568     atls:atlthunk.obj
 0003:00001570       ?InitData@@3P6AXPEAUAtlThunkData_t@@PEAX_K@ZEA 0000000180031570     atls:atlthunk.obj
 0003:00001578       ?DataToCode@@3P6AP6A_JPEAUHWND__@@I_K_J@ZPEAUAtlThunkData_t@@@ZEA 0000000180031578     atls:atlthunk.obj
 0003:00001580       ?FreeData@@3P6AXPEAUAtlThunkData_t@@@ZEA 0000000180031580     atls:atlthunk.obj
 0003:00001588       ?Initialized@@3_NA         0000000180031588     atls:atlthunk.obj
 0003:000015a0       ?__vcrt_startup_thread_ptd@@3U__vcrt_ptd@@A 00000001800315a0     libvcruntime:per_thread_data.obj
 0003:00001630       __vcrt_lock_table          0000000180031630     libvcruntime:locks.obj
 0003:00001658       __vcrt_locks_initialized   0000000180031658     libvcruntime:locks.obj
 0003:00001660       ?module_handles@@3PAPEAUHINSTANCE__@@A 0000000180031660     libvcruntime:winapi_downlevel.obj
 0003:00001678       ?encoded_function_pointers@@3PAPEAXA 0000000180031678     libvcruntime:winapi_downlevel.obj
 0003:000016e0       ?heap@@3V_HeapManager@@A   00000001800316e0     libvcruntime:undname.obj
 0003:00001708       ?__acrt_invalid_parameter_handler@@3V?$dual_state_global@P6AXPEB_W00I_K@Z@__crt_state_management@@A 0000000180031708     libucrt:invalid_parameter.obj
 0003:00001710       ?c_termination_complete@@3JA 0000000180031710     libucrt:exit.obj
 0003:00001718       ?thread_local_exit_callback_func@@3P6AXPEAXK0@ZEA 0000000180031718     libucrt:exit.obj
 0003:00001730       ?program_name@?1???$common_configure_argv@D@@YAHW4_crt_argv_mode@@@Z@4PADA 0000000180031730     libucrt:argv_parsing.obj
 0003:00001888       ?__acrt_new_handler@@3V?$dual_state_global@P6AH_K@Z@__crt_state_management@@A 0000000180031888     libucrt:new_handler.obj
 0003:00001890       ?module_handles@@3PAPEAUHINSTANCE__@@A 0000000180031890     libucrt:winapi_thunks.obj
 0003:00001930       ?encoded_function_pointers@@3PAPEAXA 0000000180031930     libucrt:winapi_thunks.obj
 0003:00001a50       ?enable_percent_n@@3_KA    0000000180031a50     libucrt:printf_count_output.obj
 0003:00001e90       ?__acrt_lock_table@@3PAU_RTL_CRITICAL_SECTION@@A 0000000180031e90     libucrt:locks.obj
 0003:000020c0       ?__acrt_locks_initialized@@3IA 00000001800320c0     libucrt:locks.obj
 0003:000020e0       ?fSystemSet@@3HA           00000001800320e0     libucrt:mbctype.obj
 0003:000020e4       ?initialized@?1??__acrt_initialize_multibyte@@9@4_NA 00000001800320e4     libucrt:mbctype.obj
 0003:00002120       ?ctrlc_action@@3V?$dual_state_global@P6AXH@Z@__crt_state_management@@A 0000000180032120     libucrt:signal.obj
 0003:00002128       ?ctrlbreak_action@@3V?$dual_state_global@P6AXH@Z@__crt_state_management@@A 0000000180032128     libucrt:signal.obj
 0003:00002130       ?abort_action@@3V?$dual_state_global@P6AXH@Z@__crt_state_management@@A 0000000180032130     libucrt:signal.obj
 0003:00002138       ?term_action@@3V?$dual_state_global@P6AXH@Z@__crt_state_management@@A 0000000180032138     libucrt:signal.obj
 0003:00002140       ?user_matherr@@3V?$dual_state_global@P6AHPEAU_exception@@@Z@__crt_state_management@@A 0000000180032140     libucrt:matherr.obj
 0003:00002148       ?__acrt_global_new_mode@@3V?$dual_state_global@J@__crt_state_management@@A 0000000180032148     libucrt:new_mode.obj
 0003:00002154       ?__acrt_app_type@@3W4_crt_app_type@@A 0000000180032154     libucrt:report_runtime_error.obj
 0004:00000000       $pdata$?cw_memcpy@@YAHPEA_WPEBDH@Z 0000000180033000     CWString.obj
 0004:0000000c       $pdata$?cw_strcpy@@YAHPEA_WPEBD@Z 000000018003300c     CWString.obj
 0004:00000018       $pdata$?cw_dup@@YAXPEBDAEAHAEAPEA_W1@Z 0000000180033018     CWString.obj
 0004:00000024       $pdata$?DupWide@_CW@@AEAAXXZ 0000000180033024     CWString.obj
 0004:00000030       $pdata$?AtlWinModuleTerm@ATL@@YAJPEAU_ATL_WIN_MODULE70@1@PEAUHINSTANCE__@@@Z 0000000180033030     OposVariant.obj
 0004:0000003c       $pdata$??0CAtlComModule@ATL@@QEAA@XZ 000000018003303c     OposVariant.obj
 0004:00000048       $pdata$?Term@CAtlComModule@ATL@@QEAAXXZ 0000000180033048     OposVariant.obj
 0004:00000054       $pdata$??__E_AtlComModule@ATL@@YAXXZ 0000000180033054     OposVariant.obj
 0004:00000060       $pdata$??0CAtlWinModule@ATL@@QEAA@XZ 0000000180033060     OposVariant.obj
 0004:0000006c       $pdata$??__E_AtlWinModule@ATL@@YAXXZ 000000018003306c     OposVariant.obj
 0004:00000078       $pdata$??__F_AtlWinModule@ATL@@YAXXZ 0000000180033078     OposVariant.obj
 0004:00000084       $pdata$??_Estringdispid@CComTypeInfoHolder@ATL@@QEAAPEAXI@Z 0000000180033084     OposVariant.obj
 0004:00000090       $pdata$?SetVARIANT_BOOL@OposVariant@@QEAAXF@Z 0000000180033090     OposVariant.obj
 0004:0000009c       $pdata$?SetVARIANT_BOOL_Ptr@OposVariant@@QEAAXPEAFAEAJ@Z 000000018003309c     OposVariant.obj
 0004:000000a8       $pdata$?GetLONG@OposVariant@@QEAAJXZ 00000001800330a8     OposVariant.obj
 0004:000000b4       $pdata$?ChangeLONG@OposVariant@@QEAAXPEAJAEAJ@Z 00000001800330b4     OposVariant.obj
 0004:000000c0       $pdata$?SetLONG@OposVariant@@QEAAXJ@Z 00000001800330c0     OposVariant.obj
 0004:000000cc       $pdata$?SetLONG_Ptr@OposVariant@@QEAAXPEAJAEAJ@Z 00000001800330cc     OposVariant.obj
 0004:000000d8       $pdata$?ChangeBSTR@OposVariant@@QEAAXPEAPEA_WAEAJ@Z 00000001800330d8     OposVariant.obj
 0004:000000e4       $pdata$?SetBSTR@OposVariant@@QEAAXPEA_WAEAJ@Z 00000001800330e4     OposVariant.obj
 0004:000000f0       $pdata$?SetBSTR_Copy@OposVariant@@QEAAXPEA_WAEAJ@Z 00000001800330f0     OposVariant.obj
 0004:000000fc       $pdata$?SetBSTR_OutPtr@OposVariant@@QEAA_NPEAPEA_WAEAJ@Z 00000001800330fc     OposVariant.obj
 0004:00000108       $pdata$?SetBSTR_InOutPtr@OposVariant@@QEAA_NPEAPEA_WAEAJ@Z 0000000180033108     OposVariant.obj
 0004:00000114       $pdata$?SetString@OposVariant@@QEAAXPEB_WAEAJ@Z 0000000180033114     OposVariant.obj
 0004:00000120       $pdata$?SetDispatch_Ptr@OposVariant@@QEAAXPEAUIDispatch@@AEAJ@Z 0000000180033120     OposVariant.obj
 0004:0000012c       $pdata$??0OposDispParms@@QEAA@PEAVOposVariant@@H@Z 000000018003312c     OposVariant.obj
 0004:00000138       $pdata$??1OposDispParms@@QEAA@XZ 0000000180033138     OposVariant.obj
 0004:00000144       $pdata$memcpy_s            0000000180033144     CashChanger.obj
 0004:00000150       $pdata$?AtlThrowImpl@ATL@@YAXJ@Z 0000000180033150     CashChanger.obj
 0004:0000015c       $pdata$swprintf_s          000000018003315c     CashChanger.obj
 0004:00000168       $pdata$?_AtlVerifyStackAvailable@_ATL_SAFE_ALLOCA_IMPL@ATL@@YA_N_K@Z 0000000180033168     CashChanger.obj
 0004:00000174       $pdata$?filt$0@?0??_AtlVerifyStackAvailable@_ATL_SAFE_ALLOCA_IMPL@ATL@@YA_N_K@Z@4HA 0000000180033174     CashChanger.obj
 0004:00000180       $pdata$?AtlHresultFromLastError@ATL@@YAJXZ 0000000180033180     CashChanger.obj
 0004:0000018c       $pdata$?AtlInternalOleLoadFromStream@ATL@@YAJPEAUIStream@@AEBU_GUID@@PEAPEAXTClassesAllowedInStream@1@K@Z 000000018003318c     CashChanger.obj
 0004:00000198       $pdata$?PutProperty@?$CComPtr@UIDispatch@@@ATL@@SAJPEAUIDispatch@@JPEAUtagVARIANT@@@Z 0000000180033198     CashChanger.obj
 0004:000001a4       $pdata$?WriteToStream@CComBSTR@ATL@@QEAAJPEAUIStream@@@Z 00000001800331a4     CashChanger.obj
 0004:000001b0       $pdata$?ReadFromStream@CComBSTR@ATL@@QEAAJPEAUIStream@@@Z 00000001800331b0     CashChanger.obj
 0004:000001bc       $pdata$?WriteToStream@CComVariant@ATL@@QEAAJPEAUIStream@@@Z 00000001800331bc     CashChanger.obj
 0004:000001c8       $pdata$?WriteToStream@CComVariant@ATL@@QEAAJPEAUIStream@@G@Z 00000001800331c8     CashChanger.obj
 0004:000001d4       $pdata$?ReadFromStream@CComVariant@ATL@@QEAAJPEAUIStream@@GTClassesAllowedInStream@2@K@Z 00000001800331d4     CashChanger.obj
 0004:000001e0       $pdata$?GetSizeMax@CComVariant@ATL@@QEBAJPEAT_ULARGE_INTEGER@@@Z 00000001800331e0     CashChanger.obj
 0004:000001ec       $pdata$?RegCreateKeyExW@CAtlTransactionManager@ATL@@QEAAJPEAUHKEY__@@PEB_WKPEA_WKKQEAU_SECURITY_ATTRIBUTES@@PEAPEAU3@PEAK@Z 00000001800331ec     CashChanger.obj
 0004:000001f8       $pdata$?RegOpenKeyExW@CAtlTransactionManager@ATL@@QEAAJPEAUHKEY__@@PEB_WKKPEAPEAU3@@Z 00000001800331f8     CashChanger.obj
 0004:00000204       $pdata$?RegDeleteKeyW@CAtlTransactionManager@ATL@@QEAAJPEAUHKEY__@@PEB_W@Z 0000000180033204     CashChanger.obj
 0004:00000210       $pdata$?Add@?$CSimpleArray@GV?$CSimpleArrayEqualHelper@G@ATL@@@ATL@@QEAAHAEBG@Z 0000000180033210     CashChanger.obj
 0004:0000021c       $pdata$?AtlInternalQueryInterface@ATL@@YAJPEAXPEBU_ATL_INTMAP_ENTRY@1@AEBU_GUID@@PEAPEAX@Z 000000018003321c     CashChanger.obj
 0004:00000228       $pdata$?AtlComModuleGetClassObject@ATL@@YAJPEAU_ATL_COM_MODULE70@1@AEBU_GUID@@1PEAPEAX@Z 0000000180033228     CashChanger.obj
 0004:00000234       $pdata$?AtlRegisterClassCategoriesHelper@ATL@@YAJAEBU_GUID@@PEBU_ATL_CATMAP_ENTRY@1@H@Z 0000000180033234     CashChanger.obj
 0004:00000240       $pdata$?AtlLoadTypeLib@ATL@@YAJPEAUHINSTANCE__@@PEB_WPEAPEA_WPEAPEAUITypeLib@@@Z 0000000180033240     CashChanger.obj
 0004:0000024c       $pdata$?AtlRegisterTypeLib@ATL@@YAJPEAUHINSTANCE__@@PEB_W@Z 000000018003324c     CashChanger.obj
 0004:00000258       $pdata$?AtlUnRegisterTypeLib@ATL@@YAJPEAUHINSTANCE__@@PEB_W@Z 0000000180033258     CashChanger.obj
 0004:00000264       $pdata$?AtlComModuleRegisterServer@ATL@@YAJPEAU_ATL_COM_MODULE70@1@HPEBU_GUID@@@Z 0000000180033264     CashChanger.obj
 0004:00000270       $pdata$?AtlComModuleUnregisterServer@ATL@@YAJPEAU_ATL_COM_MODULE70@1@HPEBU_GUID@@@Z 0000000180033270     CashChanger.obj
 0004:0000027c       $pdata$?AtlModuleAddTermFunc@ATL@@YAJPEAU_ATL_MODULE70@1@P6AX_K@Z1@Z 000000018003327c     CashChanger.obj
 0004:00000288       $pdata$?AtlCallTermFunc@ATL@@YAXPEAU_ATL_MODULE70@1@@Z 0000000180033288     CashChanger.obj
 0004:00000294       $pdata$?AtlWinModuleExtractCreateWndData@ATL@@YAPEAXPEAU_ATL_WIN_MODULE70@1@@Z 0000000180033294     CashChanger.obj
 0004:000002a0       $pdata$?Create@CRegKey@ATL@@QEAAJPEAUHKEY__@@PEB_WPEA_WKKPEAU_SECURITY_ATTRIBUTES@@PEAK@Z 00000001800332a0     CashChanger.obj
 0004:000002ac       $pdata$?Open@CRegKey@ATL@@QEAAJPEAUHKEY__@@PEB_WK@Z 00000001800332ac     CashChanger.obj
 0004:000002b8       $pdata$?RecurseDeleteKey@CRegKey@ATL@@QEAAJPEB_W@Z 00000001800332b8     CashChanger.obj
 0004:000002c4       $pdata$??0CAtlModule@ATL@@QEAA@XZ 00000001800332c4     CashChanger.obj
 0004:000002d0       $pdata$?GetGITPtr@CAtlModule@ATL@@UEAAJPEAPEAUIGlobalInterfaceTable@@@Z 00000001800332d0     CashChanger.obj
 0004:000002dc       $pdata$?UpdateRegistryFromResource@CAtlModule@ATL@@QEAAJPEB_WHPEAU_ATL_REGMAP_ENTRY@2@@Z 00000001800332dc     CashChanger.obj
 0004:000002e8       $pdata$?UpdateRegistryFromResource@CAtlModule@ATL@@QEAAJIHPEAU_ATL_REGMAP_ENTRY@2@@Z 00000001800332e8     CashChanger.obj
 0004:000002f4       $pdata$?Term@CComModule@ATL@@QEAAXXZ 00000001800332f4     CashChanger.obj
 0004:00000300       $pdata$?GetClassObject@CComModule@ATL@@QEAAJAEBU_GUID@@0PEAPEAX@Z 0000000180033300     CashChanger.obj
 0004:0000030c       $pdata$?RegisterServer@CComModule@ATL@@QEAAJHPEBU_GUID@@@Z 000000018003330c     CashChanger.obj
 0004:00000318       $pdata$?UnregisterServer@CComModule@ATL@@QEAAJHPEBU_GUID@@@Z 0000000180033318     CashChanger.obj
 0004:00000324       $pdata$??_GCComModule@ATL@@UEAAPEAXI@Z 0000000180033324     CashChanger.obj
 0004:00000330       $pdata$?Add@?$CSimpleMap@PEA_WPEA_WVCExpansionVectorEqualHelper@ATL@@@ATL@@QEAAHAEBQEA_W0@Z 0000000180033330     CashChanger.obj
 0004:0000033c       $pdata$?Lookup@?$CSimpleMap@PEA_WPEA_WVCExpansionVectorEqualHelper@ATL@@@ATL@@QEBAPEA_WAEBQEA_W@Z 000000018003333c     CashChanger.obj
 0004:00000348       $pdata$?Add@CExpansionVector@ATL@@QEAAHPEB_W0@Z 0000000180033348     CashChanger.obj
 0004:00000354       $pdata$?ClearReplacements@CExpansionVector@ATL@@QEAAJXZ 0000000180033354     CashChanger.obj
 0004:00000360       $pdata$?PreProcessBuffer@CRegParser@ATL@@QEAAJPEA_WPEAPEA_W@Z 0000000180033360     CashChanger.obj
 0004:0000036c       $pdata$?RegisterBuffer@CRegParser@ATL@@QEAAJPEA_WH@Z 000000018003336c     CashChanger.obj
 0004:00000378       $pdata$?NextToken@CRegParser@ATL@@IEAAJPEA_W@Z 0000000180033378     CashChanger.obj
 0004:00000384       $pdata$?AddValue@CRegParser@ATL@@IEAAJAEAVCRegKey@2@PEB_WPEA_W@Z 0000000180033384     CashChanger.obj
 0004:00000390       $pdata$?RegisterSubkeys@CRegParser@ATL@@IEAAJPEA_WPEAUHKEY__@@HH@Z 0000000180033390     CashChanger.obj
 0004:0000039c       $pdata$?SkipAssignment@CRegParser@ATL@@IEAAJPEA_W@Z 000000018003339c     CashChanger.obj
 0004:000003a8       $pdata$?HKeyFromString@CRegParser@ATL@@KAPEAUHKEY__@@PEA_W@Z 00000001800333a8     CashChanger.obj
 0004:000003b4       $pdata$?VTFromRegType@CRegParser@ATL@@KAHPEB_WAEAG@Z 00000001800333b4     CashChanger.obj
 0004:000003c0       $pdata$?Append@CParseBuffer@CRegParser@ATL@@QEAAHPEB_WH@Z 00000001800333c0     CashChanger.obj
 0004:000003cc       $pdata$?AddReplacement@CRegObject@ATL@@UEAAJPEB_W0@Z 00000001800333cc     CashChanger.obj
 0004:000003d8       $pdata$?RegisterFromResource@CRegObject@ATL@@IEAAJPEB_W00H@Z 00000001800333d8     CashChanger.obj
 0004:000003e4       $pdata$??_GCRegObject@ATL@@UEAAPEAXI@Z 00000001800333e4     CashChanger.obj
 0004:000003f0       $pdata$?AllocateHeap@?$CTempBuffer@_W$0BAA@VCCRTAllocator@ATL@@@ATL@@AEAAX_K@Z 00000001800333f0     CashChanger.obj
 0004:000003f0       $pdata$?AllocateHeap@?$CTempBuffer@E$0BAA@VCCRTAllocator@ATL@@@ATL@@AEAAX_K@Z 00000001800333f0     CashChanger.obj
 0004:000003f0       $pdata$?AllocateHeap@?$CTempBuffer@_W$0EAA@VCCRTAllocator@ATL@@@ATL@@AEAAX_K@Z 00000001800333f0     CashChanger.obj
 0004:000003fc       $pdata$?IsEqualObject@?$CComPtrBase@UITypeInfo@@@ATL@@QEAA_NPEAUIUnknown@@@Z 00000001800333fc     CashChanger.obj
 0004:000003fc       $pdata$?IsEqualObject@?$CComPtrBase@UIOleClientSite@@@ATL@@QEAA_NPEAUIUnknown@@@Z 00000001800333fc     CashChanger.obj
 0004:00000408       $pdata$?AtlIPersistStreamInit_Load@ATL@@YAJPEAUIStream@@PEBUATL_PROPMAP_ENTRY@1@PEAXPEAUIUnknown@@@Z 0000000180033408     CashChanger.obj
 0004:00000414       $pdata$?AtlIPersistStreamInit_Save@ATL@@YAJPEAUIStream@@HPEBUATL_PROPMAP_ENTRY@1@PEAXPEAUIUnknown@@@Z 0000000180033414     CashChanger.obj
 0004:00000420       $pdata$?CreateInstance@CComClassFactory@ATL@@UEAAJPEAUIUnknown@@AEBU_GUID@@PEAPEAX@Z 0000000180033420     CashChanger.obj
 0004:0000042c       $pdata$?LockServer@CComClassFactory@ATL@@UEAAJH@Z 000000018003342c     CashChanger.obj
 0004:00000438       $pdata$??_GCComClassFactory@ATL@@UEAAPEAXI@Z 0000000180033438     CashChanger.obj
 0004:00000444       $pdata$?GetTI@CComTypeInfoHolder@ATL@@QEAAJK@Z 0000000180033444     CashChanger.obj
 0004:00000450       $pdata$?Cleanup@CComTypeInfoHolder@ATL@@SAX_K@Z 0000000180033450     CashChanger.obj
 0004:0000045c       $pdata$?GetIDsOfNames@CComTypeInfoHolder@ATL@@QEAAJAEBU_GUID@@PEAPEA_WIKPEAJ@Z 000000018003345c     CashChanger.obj
 0004:00000468       $pdata$?LoadNameCache@CComTypeInfoHolder@ATL@@QEAAJPEAUITypeInfo@@@Z 0000000180033468     CashChanger.obj
 0004:00000474       $pdata$?Add@CComDynamicUnkArray@ATL@@QEAAKPEAUIUnknown@@@Z 0000000180033474     CashChanger.obj
 0004:00000480       $pdata$?AtlCreateTargetDC@ATL@@YAPEAUHDC__@@PEAU2@PEAUtagDVTARGETDEVICE@@@Z 0000000180033480     CashChanger.obj
 0004:0000048c       $pdata$?AtlHiMetricToPixel@ATL@@YAXPEBUtagSIZE@@PEAU2@@Z 000000018003348c     CashChanger.obj
 0004:00000498       $pdata$?DefaultReflectionHandler@?$CWindowImplRoot@VCWindow@ATL@@@ATL@@SAHPEAUHWND__@@I_K_JAEA_J@Z 0000000180033498     CashChanger.obj
 0004:000004a4       $pdata$?StartWindowProc@?$CWindowImplBaseT@VCWindow@ATL@@V?$CWinTraits@$0FGAAAAAA@$0A@@2@@ATL@@SA_JPEAUHWND__@@I_K_J@Z 00000001800334a4     CashChanger.obj
 0004:000004b0       $pdata$?WindowProc@?$CWindowImplBaseT@VCWindow@ATL@@V?$CWinTraits@$0FGAAAAAA@$0A@@2@@ATL@@SA_JPEAUHWND__@@I_K_J@Z 00000001800334b0     CashChanger.obj
 0004:000004bc       $pdata$?Create@?$CWindowImplBaseT@VCWindow@ATL@@V?$CWinTraits@$0FGAAAAAA@$0A@@2@@ATL@@QEAAPEAUHWND__@@PEAU3@V_U_RECT@2@PEB_WKKV_U_MENUorID@2@GPEAX@Z 00000001800334bc     CashChanger.obj
 0004:000004c8       $pdata$??$AtlModuleRegisterWndClassInfoT@VAtlModuleRegisterWndClassInfoParamW@ATL@@@ATL@@YAGPEAU_ATL_BASE_MODULE70@0@PEAU_ATL_WIN_MODULE70@0@PEAU_ATL_WNDCLASSINFOW@0@PEAP6A_JPEAUHWND__@@I_K_J@ZVAtlModuleRegisterWndClassInfoParamW@0@@Z 00000001800334c8     CashChanger.obj
 0004:000004d4       $pdata$?GetZoomInfo@CComControlBase@ATL@@QEAAXAEAUATL_DRAWINFO@@@Z 00000001800334d4     CashChanger.obj
 0004:000004e0       $pdata$?SendOnDataChange@CComControlBase@ATL@@QEAAJK@Z 00000001800334e0     CashChanger.obj
 0004:000004ec       $pdata$?OnSetFocus@CComControlBase@ATL@@QEAA_JI_K_JAEAH@Z 00000001800334ec     CashChanger.obj
 0004:000004f8       $pdata$?OnKillFocus@CComControlBase@ATL@@QEAA_JI_K_JAEAH@Z 00000001800334f8     CashChanger.obj
 0004:00000504       $pdata$?OnMouseActivate@CComControlBase@ATL@@QEAA_JI_K_JAEAH@Z 0000000180033504     CashChanger.obj
 0004:00000510       $pdata$?GetAmbientLocaleID@CComControlBase@ATL@@QEAAJAEAK@Z 0000000180033510     CashChanger.obj
 0004:0000051c       $pdata$?GetAmbientUserMode@CComControlBase@ATL@@QEAAJAEAH@Z 000000018003351c     CashChanger.obj
 0004:00000528       $pdata$?SetControlFocus@CComControlBase@ATL@@QEAAHH@Z 0000000180033528     CashChanger.obj
 0004:00000534       $pdata$?IQuickActivate_QuickActivate@CComControlBase@ATL@@QEAAJPEAUtagQACONTAINER@@PEAUtagQACONTROL@@@Z 0000000180033534     CashChanger.obj
 0004:00000540       $pdata$?DoVerbProperties@CComControlBase@ATL@@QEAAJPEBUtagRECT@@PEAUHWND__@@@Z 0000000180033540     CashChanger.obj
 0004:0000054c       $pdata$?InPlaceActivate@CComControlBase@ATL@@QEAAJJPEBUtagRECT@@@Z 000000018003354c     CashChanger.obj
 0004:00000558       $pdata$?IOleObject_SetClientSite@CComControlBase@ATL@@QEAAJPEAUIOleClientSite@@@Z 0000000180033558     CashChanger.obj
 0004:00000564       $pdata$?IOleObject_Close@CComControlBase@ATL@@QEAAJK@Z 0000000180033564     CashChanger.obj
 0004:00000570       $pdata$?IOleObject_SetExtent@CComControlBase@ATL@@QEAAJKPEAUtagSIZE@@@Z 0000000180033570     CashChanger.obj
 0004:0000057c       $pdata$?IOleInPlaceObject_InPlaceDeactivate@CComControlBase@ATL@@QEAAJXZ 000000018003357c     CashChanger.obj
 0004:00000588       $pdata$?IOleInPlaceObject_UIDeactivate@CComControlBase@ATL@@QEAAJXZ 0000000180033588     CashChanger.obj
 0004:00000594       $pdata$?IOleInPlaceObject_SetObjectRects@CComControlBase@ATL@@QEAAJPEBUtagRECT@@0@Z 0000000180033594     CashChanger.obj
 0004:000005a0       $pdata$?IViewObject_Draw@CComControlBase@ATL@@QEAAJKJPEAXPEAUtagDVTARGETDEVICE@@PEAUHDC__@@2PEBU_RECTL@@3@Z 00000001800335a0     CashChanger.obj
 0004:000005ac       $pdata$?IDataObject_GetData@CComControlBase@ATL@@QEAAJPEAUtagFORMATETC@@PEAUtagSTGMEDIUM@@@Z 00000001800335ac     CashChanger.obj
 0004:000005b8       $pdata$?FireViewChange@CComControlBase@ATL@@QEAAJXZ 00000001800335b8     CashChanger.obj
 0004:000005c4       $pdata$?OnPaint@CComControlBase@ATL@@QEAA_JI_K_JAEAH@Z 00000001800335c4     CashChanger.obj
 0004:000005d0       $pdata$?OnDrawAdvanced@CComControlBase@ATL@@UEAAJAEAUATL_DRAWINFO@@@Z 00000001800335d0     CashChanger.obj
 0004:000005dc       $pdata$?GetTypeInfo@?$IDispatchImpl@UIOPOSCashChanger@@$1?IID_IOPOSCashChanger@@3U_GUID@@B$1?LIBID_OposCashChanger_CCO@@3U3@B$00$0A@VCComTypeInfoHolder@ATL@@@ATL@@UEAAJIKPEAPEAUITypeInfo@@@Z 00000001800335dc     CashChanger.obj
 0004:000005e8       $pdata$?Invoke@?$IDispatchImpl@UIOPOSCashChanger@@$1?IID_IOPOSCashChanger@@3U_GUID@@B$1?LIBID_OposCashChanger_CCO@@3U3@B$00$0A@VCComTypeInfoHolder@ATL@@@ATL@@UEAAJJAEBU_GUID@@KGPEAUtagDISPPARAMS@@PEAUtagVARIANT@@PEAUtagEXCEPINFO@@PEAI@Z 00000001800335e8     CashChanger.obj
 0004:000005f4       $pdata$?Create@?$CWindowImpl@VCOPOSCashChanger@@VCWindow@ATL@@V?$CWinTraits@$0FGAAAAAA@$0A@@3@@ATL@@QEAAPEAUHWND__@@PEAU3@V_U_RECT@2@PEB_WKKV_U_MENUorID@2@PEAX@Z 00000001800335f4     CashChanger.obj
 0004:00000600       $pdata$?CreateControlWindow@?$CComControl@VCOPOSCashChanger@@V?$CWindowImpl@VCOPOSCashChanger@@VCWindow@ATL@@V?$CWinTraits@$0FGAAAAAA@$0A@@3@@ATL@@@ATL@@UEAAPEAUHWND__@@PEAU3@AEAUtagRECT@@@Z 0000000180033600     CashChanger.obj
 0004:0000060c       $pdata$?ProcessWindowMessage@?$CComControl@VCOPOSCashChanger@@V?$CWindowImpl@VCOPOSCashChanger@@VCWindow@ATL@@V?$CWinTraits@$0FGAAAAAA@$0A@@3@@ATL@@@ATL@@UEAAHPEAUHWND__@@I_K_JAEA_JK@Z 000000018003360c     CashChanger.obj
 0004:00000618       $pdata$?Load@?$IPersistStreamInitImpl@VCOPOSCashChanger@@@ATL@@UEAAJPEAUIStream@@@Z 0000000180033618     CashChanger.obj
 0004:00000624       $pdata$?Save@?$IPersistStreamInitImpl@VCOPOSCashChanger@@@ATL@@UEAAJPEAUIStream@@H@Z 0000000180033624     CashChanger.obj
 0004:00000630       $pdata$?GetSizeMax@?$IPersistStreamInitImpl@VCOPOSCashChanger@@@ATL@@UEAAJPEAT_ULARGE_INTEGER@@@Z 0000000180033630     CashChanger.obj
 0004:0000063c       $pdata$?GetClientSite@?$IOleObjectImpl@VCOPOSCashChanger@@@ATL@@UEAAJPEAPEAUIOleClientSite@@@Z 000000018003363c     CashChanger.obj
 0004:00000648       $pdata$?DoVerbPrimary@?$IOleObjectImpl@VCOPOSCashChanger@@@ATL@@QEAAJPEBUtagRECT@@PEAUHWND__@@@Z 0000000180033648     CashChanger.obj
 0004:00000654       $pdata$?DoVerb@?$IOleObjectImpl@VCOPOSCashChanger@@@ATL@@UEAAJJPEAUtagMSG@@PEAUIOleClientSite@@JPEAUHWND__@@PEBUtagRECT@@@Z 0000000180033654     CashChanger.obj
 0004:00000660       $pdata$?Advise@?$IOleObjectImpl@VCOPOSCashChanger@@@ATL@@UEAAJPEAUIAdviseSink@@PEAK@Z 0000000180033660     CashChanger.obj
 0004:0000066c       $pdata$?Unadvise@?$IOleObjectImpl@VCOPOSCashChanger@@@ATL@@UEAAJK@Z 000000018003366c     CashChanger.obj
 0004:00000678       $pdata$?EnumAdvise@?$IOleObjectImpl@VCOPOSCashChanger@@@ATL@@UEAAJPEAPEAUIEnumSTATDATA@@@Z 0000000180033678     CashChanger.obj
 0004:00000684       $pdata$?TranslateAcceleratorW@?$IOleInPlaceActiveObjectImpl@VCOPOSCashChanger@@@ATL@@UEAAJPEAUtagMSG@@@Z 0000000180033684     CashChanger.obj
 0004:00000690       $pdata$?OnDocWindowActivate@?$IOleInPlaceActiveObjectImpl@VCOPOSCashChanger@@@ATL@@UEAAJH@Z 0000000180033690     CashChanger.obj
 0004:0000069c       $pdata$?Draw@?$IViewObjectExImpl@VCOPOSCashChanger@@@ATL@@UEAAJKJPEAXPEAUtagDVTARGETDEVICE@@PEAUHDC__@@2PEBU_RECTL@@3P6AH_K@Z4@Z 000000018003369c     CashChanger.obj
 0004:000006a8       $pdata$?SetAdvise@?$IViewObjectExImpl@VCOPOSCashChanger@@@ATL@@UEAAJKKPEAUIAdviseSink@@@Z 00000001800336a8     CashChanger.obj
 0004:000006b4       $pdata$?GetAdvise@?$IViewObjectExImpl@VCOPOSCashChanger@@@ATL@@UEAAJPEAK0PEAPEAUIAdviseSink@@@Z 00000001800336b4     CashChanger.obj
 0004:000006c0       $pdata$?QueryHitPoint@?$IViewObjectExImpl@VCOPOSCashChanger@@@ATL@@UEAAJKPEBUtagRECT@@UtagPOINT@@JPEAK@Z 00000001800336c0     CashChanger.obj
 0004:000006cc       $pdata$?QueryHitRect@?$IViewObjectExImpl@VCOPOSCashChanger@@@ATL@@UEAAJKPEBUtagRECT@@0JPEAK@Z 00000001800336cc     CashChanger.obj
 0004:000006d8       $pdata$?OnWindowMessage@?$IOleInPlaceObjectWindowlessImpl@VCOPOSCashChanger@@@ATL@@UEAAJI_K_JPEA_J@Z 00000001800336d8     CashChanger.obj
 0004:000006e4       $pdata$?EnumConnectionPoints@?$IConnectionPointContainerImpl@VCOPOSCashChanger@@@ATL@@UEAAJPEAPEAUIEnumConnectionPoints@@@Z 00000001800336e4     CashChanger.obj
 0004:000006f0       $pdata$?FindConnectionPoint@?$IConnectionPointContainerImpl@VCOPOSCashChanger@@@ATL@@UEAAJAEBU_GUID@@PEAPEAUIConnectionPoint@@@Z 00000001800336f0     CashChanger.obj
 0004:000006fc       $pdata$?IsDirty@?$IPersistStorageImpl@VCOPOSCashChanger@@@ATL@@UEAAJXZ 00000001800336fc     CashChanger.obj
 0004:00000708       $pdata$?InitNew@?$IPersistStorageImpl@VCOPOSCashChanger@@@ATL@@UEAAJPEAUIStorage@@@Z 0000000180033708     CashChanger.obj
 0004:00000714       $pdata$?Load@?$IPersistStorageImpl@VCOPOSCashChanger@@@ATL@@UEAAJPEAUIStorage@@@Z 0000000180033714     CashChanger.obj
 0004:00000720       $pdata$?Save@?$IPersistStorageImpl@VCOPOSCashChanger@@@ATL@@UEAAJPEAUIStorage@@H@Z 0000000180033720     CashChanger.obj
 0004:0000072c       $pdata$?IPSI_GetIPersistStreamInit@?$IPersistStorageImpl@VCOPOSCashChanger@@@ATL@@AEAAPEAUIPersistStreamInit@@XZ 000000018003372c     CashChanger.obj
 0004:00000738       $pdata$?GetPagesHelper@?$ISpecifyPropertyPagesImpl@VCOPOSCashChanger@@@ATL@@IEAAJPEAUtagCAUUID@@PEBUATL_PROPMAP_ENTRY@2@@Z 0000000180033738     CashChanger.obj
 0004:00000744       $pdata$?DAdvise@?$IDataObjectImpl@VCOPOSCashChanger@@@ATL@@UEAAJPEAUtagFORMATETC@@KPEAUIAdviseSink@@PEAK@Z 0000000180033744     CashChanger.obj
 0004:00000750       $pdata$?GetClassInfoW@?$IProvideClassInfo2Impl@$1?CLSID_OPOSCashChanger@@3U_GUID@@B$1?DIID__IOPOSCashChangerEvents@@3U2@B$1?LIBID_OposCashChanger_CCO@@3U2@B$00$0A@VCComTypeInfoHolder@ATL@@@ATL@@UEAAJPEAPEAUITypeInfo@@@Z 0000000180033750     CashChanger.obj
 0004:0000075c       $pdata$?GetInterfaceSafetyOptions@?$IObjectSafetyImpl@VCOPOSCashChanger@@$02@ATL@@UEAAJAEBU_GUID@@PEAK1@Z 000000018003375c     CashChanger.obj
 0004:00000768       $pdata$?SetInterfaceSafetyOptions@?$IObjectSafetyImpl@VCOPOSCashChanger@@$02@ATL@@UEAAJAEBU_GUID@@KK@Z 0000000180033768     CashChanger.obj
 0004:00000774       $pdata$?_LocCPQueryInterface@?$IConnectionPointImpl@VCOPOSCashChanger@@$1?IID_IPropertyNotifySink@@3U_GUID@@BVCComDynamicUnkArray@ATL@@@ATL@@UEAAJAEBU_GUID@@PEAPEAX@Z 0000000180033774     CashChanger.obj
 0004:00000774       $pdata$?_LocCPQueryInterface@?$IConnectionPointImpl@VCOPOSCashChanger@@$1?DIID__IOPOSCashChangerEvents@@3U_GUID@@BVCComDynamicUnkArray@ATL@@@ATL@@UEAAJAEBU_GUID@@PEAPEAX@Z 0000000180033774     CashChanger.obj
 0004:00000780       $pdata$?Advise@?$IConnectionPointImpl@VCOPOSCashChanger@@$1?IID_IPropertyNotifySink@@3U_GUID@@BVCComDynamicUnkArray@ATL@@@ATL@@UEAAJPEAUIUnknown@@PEAK@Z 0000000180033780     CashChanger.obj
 0004:00000780       $pdata$?Advise@?$IConnectionPointImpl@VCOPOSCashChanger@@$1?DIID__IOPOSCashChangerEvents@@3U_GUID@@BVCComDynamicUnkArray@ATL@@@ATL@@UEAAJPEAUIUnknown@@PEAK@Z 0000000180033780     CashChanger.obj
 0004:0000078c       $pdata$?Unadvise@?$IConnectionPointImpl@VCOPOSCashChanger@@$1?DIID__IOPOSCashChangerEvents@@3U_GUID@@BVCComDynamicUnkArray@ATL@@@ATL@@UEAAJK@Z 000000018003378c     CashChanger.obj
 0004:0000078c       $pdata$?Unadvise@?$IConnectionPointImpl@VCOPOSCashChanger@@$1?IID_IPropertyNotifySink@@3U_GUID@@BVCComDynamicUnkArray@ATL@@@ATL@@UEAAJK@Z 000000018003378c     CashChanger.obj
 0004:00000798       $pdata$?EnumConnections@?$IConnectionPointImpl@VCOPOSCashChanger@@$1?IID_IPropertyNotifySink@@3U_GUID@@BVCComDynamicUnkArray@ATL@@@ATL@@UEAAJPEAPEAUIEnumConnections@@@Z 0000000180033798     CashChanger.obj
 0004:00000798       $pdata$?EnumConnections@?$IConnectionPointImpl@VCOPOSCashChanger@@$1?DIID__IOPOSCashChangerEvents@@3U_GUID@@BVCComDynamicUnkArray@ATL@@@ATL@@UEAAJPEAPEAUIEnumConnections@@@Z 0000000180033798     CashChanger.obj
 0004:000007a4       $pdata$?Fire_DataEvent@?$CProxy_IOPOSEvents@VCOPOSCashChanger@@@@QEAAXJ@Z 00000001800337a4     CashChanger.obj
 0004:000007b0       $pdata$?Fire_DirectIOEvent@?$CProxy_IOPOSEvents@VCOPOSCashChanger@@@@QEAAXJPEAJPEAPEA_W@Z 00000001800337b0     CashChanger.obj
 0004:000007bc       $pdata$?Fire_StatusUpdateEvent@?$CProxy_IOPOSEvents@VCOPOSCashChanger@@@@QEAAXJ@Z 00000001800337bc     CashChanger.obj
 0004:000007c8       $pdata$?FireTheEvent@?$CProxy_IOPOSEvents@VCOPOSCashChanger@@@@IEAAXPEAVOposVariant@@IAEAJPEB_WJ@Z 00000001800337c8     CashChanger.obj
 0004:000007d4       $pdata$?GetConnMap@COPOSCashChanger@@SAPEBU_ATL_CONNMAP_ENTRY@ATL@@PEAH@Z 00000001800337d4     CashChanger.obj
 0004:000007e0       $pdata$?ProcessWindowMessage@COPOSCashChanger@@UEAAHPEAUHWND__@@I_K_JAEA_JK@Z 00000001800337e0     CashChanger.obj
 0004:000007ec       $pdata$?SOData@COPOSCashChanger@@MEAAJJ@Z 00000001800337ec     CashChanger.obj
 0004:000007f8       $pdata$?SODirectIO@COPOSCashChanger@@MEAAJJPEAJPEAPEA_W@Z 00000001800337f8     CashChanger.obj
 0004:00000804       $pdata$?SOStatusUpdate@COPOSCashChanger@@MEAAJJ@Z 0000000180033804     CashChanger.obj
 0004:00000810       $pdata$?DoEvent@COPOSCashChanger@@IEAAXI_K_J@Z 0000000180033810     CashChanger.obj
 0004:0000081c       $pdata$??__E_Module@@YAXXZ 000000018003381c     CashChanger.obj
 0004:00000828       $pdata$??__F_Module@@YAXXZ 0000000180033828     CashChanger.obj
 0004:00000834       $pdata$?CreateInstance@?$CComCreator@V?$CComObjectCached@VCComClassFactory@ATL@@@ATL@@@ATL@@SAJPEAXAEBU_GUID@@PEAPEAX@Z 0000000180033834     CashChanger.obj
 0004:00000840       $pdata$DllMain             0000000180033840     CashChanger.obj
 0004:0000084c       $pdata$?CreateInstance@?$CComCreator@V?$CComObject@VCOPOSCashChanger@@@ATL@@@ATL@@SAJPEAXAEBU_GUID@@PEAPEAX@Z 000000018003384c     CashChanger.obj
 0004:00000858       $pdata$?CreateInstance@?$CComCreator@V?$CComAggObject@VCOPOSCashChanger@@@ATL@@@ATL@@SAJPEAXAEBU_GUID@@PEAPEAX@Z 0000000180033858     CashChanger.obj
 0004:00000864       $pdata$??1?$CComEnumImpl@UIEnumConnectionPoints@@$1?_GUID_b196b285_bab4_101a_b69c_00aa00341d07@@3U__s_GUID@@BPEAUIConnectionPoint@@V?$_CopyInterface@UIConnectionPoint@@@ATL@@@ATL@@UEAA@XZ 0000000180033864     CashChanger.obj
 0004:00000870       $pdata$?Next@?$CComEnumImpl@UIEnumConnectionPoints@@$1?_GUID_b196b285_bab4_101a_b69c_00aa00341d07@@3U__s_GUID@@BPEAUIConnectionPoint@@V?$_CopyInterface@UIConnectionPoint@@@ATL@@@ATL@@UEAAJKPEAPEAUIConnectionPoint@@PEAK@Z 0000000180033870     CashChanger.obj
 0004:0000087c       $pdata$?Clone@?$CComEnumImpl@UIEnumConnectionPoints@@$1?_GUID_b196b285_bab4_101a_b69c_00aa00341d07@@3U__s_GUID@@BPEAUIConnectionPoint@@V?$_CopyInterface@UIConnectionPoint@@@ATL@@@ATL@@UEAAJPEAPEAUIEnumConnectionPoints@@@Z 000000018003387c     CashChanger.obj
 0004:00000888       $pdata$?Init@?$CComEnumImpl@UIEnumConnectionPoints@@$1?_GUID_b196b285_bab4_101a_b69c_00aa00341d07@@3U__s_GUID@@BPEAUIConnectionPoint@@V?$_CopyInterface@UIConnectionPoint@@@ATL@@@ATL@@QEAAJPEAPEAUIConnectionPoint@@0PEAUIUnknown@@W4CComEnumFlags@2@@Z 0000000180033888     CashChanger.obj
 0004:00000894       $pdata$?Release@?$CComObject@V?$CComEnum@UIEnumConnectionPoints@@$1?_GUID_b196b285_bab4_101a_b69c_00aa00341d07@@3U__s_GUID@@BPEAUIConnectionPoint@@V?$_CopyInterface@UIConnectionPoint@@@ATL@@VCComSingleThreadModel@6@@ATL@@@ATL@@UEAAKXZ 0000000180033894     CashChanger.obj
 0004:00000894       $pdata$?Release@?$CComObject@V?$CComEnum@UIEnumConnections@@$1?_GUID_b196b287_bab4_101a_b69c_00aa00341d07@@3U__s_GUID@@BUtagCONNECTDATA@@V?$_Copy@UtagCONNECTDATA@@@ATL@@VCComSingleThreadModel@6@@ATL@@@ATL@@UEAAKXZ 0000000180033894     CashChanger.obj
 0004:000008a0       $pdata$?CreateInstance@?$CComObject@V?$CComEnum@UIEnumConnectionPoints@@$1?_GUID_b196b285_bab4_101a_b69c_00aa00341d07@@3U__s_GUID@@BPEAUIConnectionPoint@@V?$_CopyInterface@UIConnectionPoint@@@ATL@@VCComSingleThreadModel@6@@ATL@@@ATL@@SAJPEAPEAV12@@Z 00000001800338a0     CashChanger.obj
 0004:000008ac       $pdata$??_G?$CComObject@V?$CComEnum@UIEnumConnectionPoints@@$1?_GUID_b196b285_bab4_101a_b69c_00aa00341d07@@3U__s_GUID@@BPEAUIConnectionPoint@@V?$_CopyInterface@UIConnectionPoint@@@ATL@@VCComSingleThreadModel@6@@ATL@@@ATL@@UEAAPEAXI@Z 00000001800338ac     CashChanger.obj
 0004:000008b8       $pdata$?AddRef@?$CComObjectCached@VCComClassFactory@ATL@@@ATL@@UEAAKXZ 00000001800338b8     CashChanger.obj
 0004:000008c4       $pdata$?Release@?$CComObjectCached@VCComClassFactory@ATL@@@ATL@@UEAAKXZ 00000001800338c4     CashChanger.obj
 0004:000008d0       $pdata$??_G?$CComObjectCached@VCComClassFactory@ATL@@@ATL@@UEAAPEAXI@Z 00000001800338d0     CashChanger.obj
 0004:000008dc       $pdata$?Release@?$CComAggObject@VCOPOSCashChanger@@@ATL@@UEAAKXZ 00000001800338dc     CashChanger.obj
 0004:000008e8       $pdata$?QueryInterface@?$CComAggObject@VCOPOSCashChanger@@@ATL@@UEAAJAEBU_GUID@@PEAPEAX@Z 00000001800338e8     CashChanger.obj
 0004:000008f4       $pdata$??0?$CComContainedObject@VCOPOSCashChanger@@@ATL@@QEAA@PEAX@Z 00000001800338f4     CashChanger.obj
 0004:00000900       $pdata$??_G?$CComContainedObject@VCOPOSCashChanger@@@ATL@@UEAAPEAXI@Z 0000000180033900     CashChanger.obj
 0004:0000090c       $pdata$??_G?$CComAggObject@VCOPOSCashChanger@@@ATL@@UEAAPEAXI@Z 000000018003390c     CashChanger.obj
 0004:00000918       $pdata$??0?$CComObject@VCOPOSCashChanger@@@ATL@@QEAA@PEAX@Z 0000000180033918     CashChanger.obj
 0004:00000924       $pdata$??1?$CComObject@VCOPOSCashChanger@@@ATL@@UEAA@XZ 0000000180033924     CashChanger.obj
 0004:00000930       $pdata$?Release@?$CComObject@VCOPOSCashChanger@@@ATL@@UEAAKXZ 0000000180033930     CashChanger.obj
 0004:0000093c       $pdata$??_G?$CComObject@VCOPOSCashChanger@@@ATL@@UEAAPEAXI@Z 000000018003393c     CashChanger.obj
 0004:00000948       $pdata$??__E?pConnMap@?$IConnectionPointContainerImpl@VCOPOSCashChanger@@@ATL@@0PEBU_ATL_CONNMAP_ENTRY@2@EB@@YAXXZ 0000000180033948     CashChanger.obj
 0004:00000954       $pdata$??1?$CComEnumImpl@UIEnumConnections@@$1?_GUID_b196b287_bab4_101a_b69c_00aa00341d07@@3U__s_GUID@@BUtagCONNECTDATA@@V?$_Copy@UtagCONNECTDATA@@@ATL@@@ATL@@UEAA@XZ 0000000180033954     CashChanger.obj
 0004:00000960       $pdata$?Next@?$CComEnumImpl@UIEnumConnections@@$1?_GUID_b196b287_bab4_101a_b69c_00aa00341d07@@3U__s_GUID@@BUtagCONNECTDATA@@V?$_Copy@UtagCONNECTDATA@@@ATL@@@ATL@@UEAAJKPEAUtagCONNECTDATA@@PEAK@Z 0000000180033960     CashChanger.obj
 0004:0000096c       $pdata$?Clone@?$CComEnumImpl@UIEnumConnections@@$1?_GUID_b196b287_bab4_101a_b69c_00aa00341d07@@3U__s_GUID@@BUtagCONNECTDATA@@V?$_Copy@UtagCONNECTDATA@@@ATL@@@ATL@@UEAAJPEAPEAUIEnumConnections@@@Z 000000018003396c     CashChanger.obj
 0004:00000978       $pdata$?Init@?$CComEnumImpl@UIEnumConnections@@$1?_GUID_b196b287_bab4_101a_b69c_00aa00341d07@@3U__s_GUID@@BUtagCONNECTDATA@@V?$_Copy@UtagCONNECTDATA@@@ATL@@@ATL@@QEAAJPEAUtagCONNECTDATA@@0PEAUIUnknown@@W4CComEnumFlags@2@@Z 0000000180033978     CashChanger.obj
 0004:00000984       $pdata$?CreateInstance@?$CComObject@V?$CComEnum@UIEnumConnections@@$1?_GUID_b196b287_bab4_101a_b69c_00aa00341d07@@3U__s_GUID@@BUtagCONNECTDATA@@V?$_Copy@UtagCONNECTDATA@@@ATL@@VCComSingleThreadModel@6@@ATL@@@ATL@@SAJPEAPEAV12@@Z 0000000180033984     CashChanger.obj
 0004:00000990       $pdata$??_G?$CComObject@V?$CComEnum@UIEnumConnections@@$1?_GUID_b196b287_bab4_101a_b69c_00aa00341d07@@3U__s_GUID@@BUtagCONNECTDATA@@V?$_Copy@UtagCONNECTDATA@@@ATL@@VCComSingleThreadModel@6@@ATL@@@ATL@@UEAAPEAXI@Z 0000000180033990     CashChanger.obj
 0004:0000099c       $pdata$??1CComControlBase@ATL@@UEAA@XZ 000000018003399c     CashChangerImpl.obj
 0004:000009a8       $pdata$??1?$IConnectionPointImpl@VCOPOSCashChanger@@$1?DIID__IOPOSCashChangerEvents@@3U_GUID@@BVCComDynamicUnkArray@ATL@@@ATL@@QEAA@XZ 00000001800339a8     CashChangerImpl.obj
 0004:000009a8       $pdata$??1?$IConnectionPointImpl@VCOPOSCashChanger@@$1?IID_IPropertyNotifySink@@3U_GUID@@BVCComDynamicUnkArray@ATL@@@ATL@@QEAA@XZ 00000001800339a8     CashChangerImpl.obj
 0004:000009b4       $pdata$?FinalConstruct@COPOSCashChanger@@QEAAJXZ 00000001800339b4     CashChangerImpl.obj
 0004:000009c0       $pdata$??1COPOSCashChanger@@UEAA@XZ 00000001800339c0     CashChangerImpl.obj
 0004:000009cc       $pdata$?GetOposProp@COPOSCashChanger@@IEAAJJPEAJJ@Z 00000001800339cc     CashChangerImpl.obj
 0004:000009d8       $pdata$?SetOposProp@COPOSCashChanger@@IEAAJJJJ@Z 00000001800339d8     CashChangerImpl.obj
 0004:000009e4       $pdata$?GetOposProp@COPOSCashChanger@@IEAAJJPEAPEA_WJ@Z 00000001800339e4     CashChangerImpl.obj
 0004:000009f0       $pdata$?SetOposProp@COPOSCashChanger@@IEAAJJPEA_WJ@Z 00000001800339f0     CashChangerImpl.obj
 0004:000009fc       $pdata$?DoInvoke@COPOSCashChanger@@IEAAJJPEAVOposVariant@@IHPEAJ_N@Z 00000001800339fc     CashChangerImpl.obj
 0004:00000a08       $pdata$?SetCOFreezeEvents@COPOSCashChanger@@IEAAXF@Z 0000000180033a08     CashChangerImpl.obj
 0004:00000a14       $pdata$?FreezeEvents@COPOSCashChanger@@MEAAJH@Z 0000000180033a14     CashChangerImpl.obj
 0004:00000a20       $pdata$?OnDraw@COPOSCashChanger@@MEAAJAEAUATL_DRAWINFO@@@Z 0000000180033a20     CashChangerImpl.obj
 0004:00000a2c       $pdata$?EventInit@COPOSCashChanger@@IEAAJXZ 0000000180033a2c     CashChangerImpl.obj
 0004:00000a38       $pdata$?EventUninit@COPOSCashChanger@@IEAAXXZ 0000000180033a38     CashChangerImpl.obj
 0004:00000a44       $pdata$?s_EventWindowProc@COPOSCashChanger@@KA_JPEAUHWND__@@I_K_J@Z 0000000180033a44     CashChangerImpl.obj
 0004:00000a50       $pdata$?EventWindowProc@COPOSCashChanger@@IEAA_JI_K_J@Z 0000000180033a50     CashChangerImpl.obj
 0004:00000a5c       $pdata$?SOProcessID@COPOSCashChanger@@UEAAJPEAJ@Z 0000000180033a5c     CashChangerImpl.obj
 0004:00000a68       $pdata$?get_Claimed@COPOSCashChanger@@UEAAJPEAF@Z 0000000180033a68     CashChangerImpl.obj
 0004:00000a74       $pdata$?get_DeviceEnabled@COPOSCashChanger@@UEAAJPEAF@Z 0000000180033a74     CashChangerImpl.obj
 0004:00000a80       $pdata$?get_FreezeEvents@COPOSCashChanger@@UEAAJPEAF@Z 0000000180033a80     CashChangerImpl.obj
 0004:00000a8c       $pdata$?put_FreezeEvents@COPOSCashChanger@@UEAAJF@Z 0000000180033a8c     CashChangerImpl.obj
 0004:00000a98       $pdata$?get_ResultCode@COPOSCashChanger@@UEAAJPEAJ@Z 0000000180033a98     CashChangerImpl.obj
 0004:00000aa4       $pdata$?get_State@COPOSCashChanger@@UEAAJPEAJ@Z 0000000180033aa4     CashChangerImpl.obj
 0004:00000ab0       $pdata$?get_ControlObjectDescription@COPOSCashChanger@@UEAAJPEAPEA_W@Z 0000000180033ab0     CashChangerImpl.obj
 0004:00000abc       $pdata$?CheckHealth@COPOSCashChanger@@UEAAJJPEAJ@Z 0000000180033abc     CashChangerImpl.obj
 0004:00000ac8       $pdata$?ClaimDevice@COPOSCashChanger@@UEAAJJPEAJ@Z 0000000180033ac8     CashChangerImpl.obj
 0004:00000ad4       $pdata$?Close@COPOSCashChanger@@UEAAJPEAJ@Z 0000000180033ad4     CashChangerImpl.obj
 0004:00000ae0       $pdata$?DirectIO@COPOSCashChanger@@UEAAJJPEAJPEAPEA_W0@Z 0000000180033ae0     CashChangerImpl.obj
 0004:00000aec       $pdata$?Open@COPOSCashChanger@@UEAAJPEA_WPEAJ@Z 0000000180033aec     CashChangerImpl.obj
 0004:00000af8       $pdata$?ReleaseDevice@COPOSCashChanger@@UEAAJPEAJ@Z 0000000180033af8     CashChangerImpl.obj
 0004:00000b04       $pdata$?get_AsyncMode@COPOSCashChanger@@UEAAJPEAF@Z 0000000180033b04     CashChangerImpl.obj
 0004:00000b10       $pdata$?get_CapDiscrepancy@COPOSCashChanger@@UEAAJPEAF@Z 0000000180033b10     CashChangerImpl.obj
 0004:00000b1c       $pdata$?get_CapEmptySensor@COPOSCashChanger@@UEAAJPEAF@Z 0000000180033b1c     CashChangerImpl.obj
 0004:00000b28       $pdata$?get_CapFullSensor@COPOSCashChanger@@UEAAJPEAF@Z 0000000180033b28     CashChangerImpl.obj
 0004:00000b34       $pdata$?get_CapNearEmptySensor@COPOSCashChanger@@UEAAJPEAF@Z 0000000180033b34     CashChangerImpl.obj
 0004:00000b40       $pdata$?get_CapNearFullSensor@COPOSCashChanger@@UEAAJPEAF@Z 0000000180033b40     CashChangerImpl.obj
 0004:00000b4c       $pdata$?DispenseCash@COPOSCashChanger@@UEAAJPEA_WPEAJ@Z 0000000180033b4c     CashChangerImpl.obj
 0004:00000b58       $pdata$?DispenseChange@COPOSCashChanger@@UEAAJJPEAJ@Z 0000000180033b58     CashChangerImpl.obj
 0004:00000b64       $pdata$?ReadCashCounts@COPOSCashChanger@@UEAAJPEAPEA_WPEAFPEAJ@Z 0000000180033b64     CashChangerImpl.obj
 0004:00000b70       $pdata$?get_DataEventEnabled@COPOSCashChanger@@UEAAJPEAF@Z 0000000180033b70     CashChangerImpl.obj
 0004:00000b7c       $pdata$?ClearInput@COPOSCashChanger@@UEAAJPEAJ@Z 0000000180033b7c     CashChangerImpl.obj
 0004:00000b88       $pdata$?get_CapDeposit@COPOSCashChanger@@UEAAJPEAF@Z 0000000180033b88     CashChangerImpl.obj
 0004:00000b94       $pdata$?get_CapDepositDataEvent@COPOSCashChanger@@UEAAJPEAF@Z 0000000180033b94     CashChangerImpl.obj
 0004:00000ba0       $pdata$?get_CapPauseDeposit@COPOSCashChanger@@UEAAJPEAF@Z 0000000180033ba0     CashChangerImpl.obj
 0004:00000bac       $pdata$?get_CapRepayDeposit@COPOSCashChanger@@UEAAJPEAF@Z 0000000180033bac     CashChangerImpl.obj
 0004:00000bb8       $pdata$?BeginDeposit@COPOSCashChanger@@UEAAJPEAJ@Z 0000000180033bb8     CashChangerImpl.obj
 0004:00000bc4       $pdata$?EndDeposit@COPOSCashChanger@@UEAAJJPEAJ@Z 0000000180033bc4     CashChangerImpl.obj
 0004:00000bd0       $pdata$?FixDeposit@COPOSCashChanger@@UEAAJPEAJ@Z 0000000180033bd0     CashChangerImpl.obj
 0004:00000bdc       $pdata$?PauseDeposit@COPOSCashChanger@@UEAAJJPEAJ@Z 0000000180033bdc     CashChangerImpl.obj
 0004:00000be8       $pdata$?get_CapStatisticsReporting@COPOSCashChanger@@UEAAJPEAF@Z 0000000180033be8     CashChangerImpl.obj
 0004:00000bf4       $pdata$?get_CapUpdateStatistics@COPOSCashChanger@@UEAAJPEAF@Z 0000000180033bf4     CashChangerImpl.obj
 0004:00000c00       $pdata$?ResetStatistics@COPOSCashChanger@@UEAAJPEA_WPEAJ@Z 0000000180033c00     CashChangerImpl.obj
 0004:00000c0c       $pdata$?RetrieveStatistics@COPOSCashChanger@@UEAAJPEAPEA_WPEAJ@Z 0000000180033c0c     CashChangerImpl.obj
 0004:00000c18       $pdata$?UpdateStatistics@COPOSCashChanger@@UEAAJPEA_WPEAJ@Z 0000000180033c18     CashChangerImpl.obj
 0004:00000c24       $pdata$?get_CapCompareFirmwareVersion@COPOSCashChanger@@UEAAJPEAF@Z 0000000180033c24     CashChangerImpl.obj
 0004:00000c30       $pdata$?get_CapUpdateFirmware@COPOSCashChanger@@UEAAJPEAF@Z 0000000180033c30     CashChangerImpl.obj
 0004:00000c3c       $pdata$?CompareFirmwareVersion@COPOSCashChanger@@UEAAJPEA_WPEAJ1@Z 0000000180033c3c     CashChangerImpl.obj
 0004:00000c48       $pdata$?UpdateFirmware@COPOSCashChanger@@UEAAJPEA_WPEAJ@Z 0000000180033c48     CashChangerImpl.obj
 0004:00000c54       $pdata$?get_CapJamSensor@COPOSCashChanger@@UEAAJPEAF@Z 0000000180033c54     CashChangerImpl.obj
 0004:00000c60       $pdata$?get_CapRealTimeData@COPOSCashChanger@@UEAAJPEAF@Z 0000000180033c60     CashChangerImpl.obj
 0004:00000c6c       $pdata$?get_RealTimeDataEnabled@COPOSCashChanger@@UEAAJPEAF@Z 0000000180033c6c     CashChangerImpl.obj
 0004:00000c78       $pdata$?AdjustCashCounts@COPOSCashChanger@@UEAAJPEA_WPEAJ@Z 0000000180033c78     CashChangerImpl.obj
 0004:00000c84       $pdata$atexit              0000000180033c84     LIBCMT:utility.obj
 0004:00000c90       $pdata$_onexit             0000000180033c90     LIBCMT:utility.obj
 0004:00000c9c       $pdata$__scrt_is_nonwritable_in_current_image 0000000180033c9c     LIBCMT:utility.obj
 0004:00000ca8       $pdata$__scrt_is_nonwritable_in_current_image$filt$0 0000000180033ca8     LIBCMT:utility.obj
 0004:00000cb4       $pdata$__scrt_acquire_startup_lock 0000000180033cb4     LIBCMT:utility.obj
 0004:00000cc0       $pdata$__scrt_release_startup_lock 0000000180033cc0     LIBCMT:utility.obj
 0004:00000ccc       $pdata$__scrt_initialize_crt 0000000180033ccc     LIBCMT:utility.obj
 0004:00000cd8       $pdata$__scrt_uninitialize_crt 0000000180033cd8     LIBCMT:utility.obj
 0004:00000ce4       $pdata$__scrt_initialize_onexit_tables 0000000180033ce4     LIBCMT:utility.obj
 0004:00000cf0       $pdata$__scrt_dllmain_exception_filter 0000000180033cf0     LIBCMT:utility.obj
 0004:00000cfc       $pdata$__scrt_dllmain_before_initialize_c 0000000180033cfc     LIBCMT:utility.obj
 0004:00000d08       $pdata$__scrt_dllmain_after_initialize_c 0000000180033d08     LIBCMT:utility.obj
 0004:00000d14       $pdata$__scrt_dllmain_uninitialize_c 0000000180033d14     LIBCMT:utility.obj
 0004:00000d20       $pdata$__scrt_dllmain_uninitialize_critical 0000000180033d20     LIBCMT:utility.obj
 0004:00000d2c       $pdata$__scrt_dllmain_crt_thread_attach 0000000180033d2c     LIBCMT:utility.obj
 0004:00000d38       $pdata$__scrt_dllmain_crt_thread_detach 0000000180033d38     LIBCMT:utility.obj
 0004:00000d44       $pdata$_Init_thread_header 0000000180033d44     LIBCMT:thread_safe_statics.obj
 0004:00000d50       $pdata$_Init_thread_footer 0000000180033d50     LIBCMT:thread_safe_statics.obj
 0004:00000d5c       $pdata$_Init_thread_wait   0000000180033d5c     LIBCMT:thread_safe_statics.obj
 0004:00000d68       $pdata$_Init_thread_notify 0000000180033d68     LIBCMT:thread_safe_statics.obj
 0004:00000d74       $pdata$?__scrt_uninitialize_thread_safe_statics@@YAXXZ 0000000180033d74     LIBCMT:thread_safe_statics.obj
 0004:00000d80       $pdata$?__scrt_initialize_thread_safe_statics@@YAHXZ 0000000180033d80     LIBCMT:thread_safe_statics.obj
 0004:00000d8c       $pdata$__report_securityfailure 0000000180033d8c     LIBCMT:gs_report.obj
 0004:00000d98       $pdata$__report_rangecheckfailure 0000000180033d98     LIBCMT:gs_report.obj
 0004:00000da4       $pdata$__report_gsfailure  0000000180033da4     LIBCMT:gs_report.obj
 0004:00000db0       $pdata$capture_current_context 0000000180033db0     LIBCMT:gs_report.obj
 0004:00000dbc       $pdata$capture_previous_context 0000000180033dbc     LIBCMT:gs_report.obj
 0004:00000dc8       $pdata$__raise_securityfailure 0000000180033dc8     LIBCMT:gs_report.obj
 0004:00000dd4       $pdata$??2@YAPEAX_KAEBUnothrow_t@std@@@Z 0000000180033dd4     LIBCMT:new_scalar_nothrow.obj
 0004:00000de0       $pdata$?catch$0@?0???2@YAPEAX_KAEBUnothrow_t@std@@@Z@4HA 0000000180033de0     LIBCMT:new_scalar_nothrow.obj
 0004:00000dec       $pdata$__GSHandlerCheckCommon 0000000180033dec     LIBCMT:_gshandler_.obj
 0004:00000df8       $pdata$__GSHandlerCheck    0000000180033df8     LIBCMT:_gshandler_.obj
 0004:00000e04       $pdata$__GSHandlerCheck_SEH 0000000180033e04     LIBCMT:_gshandlerseh_.obj
 0004:00000e28       $pdata$?dllmain_crt_process_attach@@YAHQEAUHINSTANCE__@@QEAX@Z 0000000180033e28     LIBCMT:dll_dllmain.obj
 0004:00000e34       $pdata$?fin$0@?0??dllmain_crt_process_attach@@YAHQEAUHINSTANCE__@@QEAX@Z@4HA 0000000180033e34     LIBCMT:dll_dllmain.obj
 0004:00000e40       $pdata$?dllmain_crt_process_detach@@YAH_N@Z 0000000180033e40     LIBCMT:dll_dllmain.obj
 0004:00000e4c       $pdata$?fin$0@?0??dllmain_crt_process_detach@@YAH_N@Z@4HA 0000000180033e4c     LIBCMT:dll_dllmain.obj
 0004:00000e58       $pdata$?dllmain_crt_dispatch@@YAHQEAUHINSTANCE__@@KQEAX@Z 0000000180033e58     LIBCMT:dll_dllmain.obj
 0004:00000e64       $pdata$?dllmain_dispatch@@YAHQEAUHINSTANCE__@@KQEAX@Z 0000000180033e64     LIBCMT:dll_dllmain.obj
 0004:00000e70       $pdata$?filt$0@?0??dllmain_dispatch@@YAHQEAUHINSTANCE__@@KQEAX@Z@4HA 0000000180033e70     LIBCMT:dll_dllmain.obj
 0004:00000e7c       $pdata$_DllMainCRTStartup  0000000180033e7c     LIBCMT:dll_dllmain.obj
 0004:00000e88       $pdata$??2@YAPEAX_K@Z      0000000180033e88     LIBCMT:new_scalar.obj
 0004:00000e94       $pdata$__isa_available_init 0000000180033e94     LIBCMT:_cpu_disp_.obj
 0004:00000ea0       $pdata$__scrt_fastfail     0000000180033ea0     LIBCMT:utility_desktop.obj
 0004:00000eac       $pdata$__security_init_cookie 0000000180033eac     LIBCMT:gs_support.obj
 0004:00000eb8       $pdata$__scrt_initialize_default_local_stdio_options 0000000180033eb8     LIBCMT:default_local_stdio_options.obj
 0004:00000ec4       $pdata$_RTC_Initialize     0000000180033ec4     LIBCMT:_initsect_.obj
 0004:00000ed0       $pdata$_RTC_Terminate      0000000180033ed0     LIBCMT:_initsect_.obj
 0004:00000edc       $pdata$??0exception@std@@QEAA@AEBV01@@Z 0000000180033edc     LIBCMT:throw_bad_alloc.obj
 0004:00000ee8       $pdata$??_Gbad_array_new_length@std@@UEAAPEAXI@Z 0000000180033ee8     LIBCMT:throw_bad_alloc.obj
 0004:00000ee8       $pdata$??_Gbad_alloc@std@@UEAAPEAXI@Z 0000000180033ee8     LIBCMT:throw_bad_alloc.obj
 0004:00000ee8       $pdata$??_Gbad_exception@std@@UEAAPEAXI@Z 0000000180033ee8     libvcruntime:frame.obj
 0004:00000ee8       $pdata$??_Gexception@std@@UEAAPEAXI@Z 0000000180033ee8     LIBCMT:throw_bad_alloc.obj
 0004:00000ef4       $pdata$??0bad_alloc@std@@QEAA@AEBV01@@Z 0000000180033ef4     LIBCMT:throw_bad_alloc.obj
 0004:00000f00       $pdata$??0bad_array_new_length@std@@QEAA@AEBV01@@Z 0000000180033f00     LIBCMT:throw_bad_alloc.obj
 0004:00000f0c       $pdata$?__scrt_throw_std_bad_alloc@@YAXXZ 0000000180033f0c     LIBCMT:throw_bad_alloc.obj
 0004:00000f18       $pdata$?__scrt_throw_std_bad_array_new_length@@YAXXZ 0000000180033f18     LIBCMT:throw_bad_alloc.obj
 0004:00000f30       $pdata$??_Gtype_info@@UEAAPEAXI@Z 0000000180033f30     LIBCMT:std_type_info_static.obj
 0004:00000f3c       $pdata$??0CAtlBaseModule@ATL@@QEAA@XZ 0000000180033f3c     atls:atlbase.obj
 0004:00000f48       $pdata$??1CAtlBaseModule@ATL@@QEAA@XZ 0000000180033f48     atls:atlbase.obj
 0004:00000f54       $pdata$??__E_AtlBaseModule@ATL@@YAXXZ 0000000180033f54     atls:atlbase.obj
 0004:00000f60       $pdata$AtlThunk_AllocateData 0000000180033f60     atls:atlthunk.obj
 0004:00000f6c       $pdata$AtlThunk_InitData   0000000180033f6c     atls:atlthunk.obj
 0004:00000f78       $pdata$AtlThunk_DataToCode 0000000180033f78     atls:atlthunk.obj
 0004:00000f84       $pdata$AtlThunk_FreeData   0000000180033f84     atls:atlthunk.obj
 0004:00000f90       $pdata$?__InitializeThunkPool@@YAHXZ 0000000180033f90     atls:atlthunk.obj
 0004:00000f9c       $pdata$?__AllocStdCallThunk_cmn@@YAPEAXXZ 0000000180033f9c     atls:atlthunk.obj
 0004:00000fa8       $pdata$??$GetProcAddressAll@P6AXPEAUAtlThunkData_t@@@Z@@YAP6AXPEAUAtlThunkData_t@@@ZPEAP6AX0@Z@Z 0000000180033fa8     atls:atlthunk.obj
 0004:00000fa8       $pdata$??$GetProcAddressAll@P6AXPEAUAtlThunkData_t@@PEAX_K@Z@@YAP6AXPEAUAtlThunkData_t@@PEAX_K@ZPEAP6AX012@Z@Z 0000000180033fa8     atls:atlthunk.obj
 0004:00000fa8       $pdata$??$GetProcAddressAll@P6AP6A_JPEAUHWND__@@I_K_J@ZPEAUAtlThunkData_t@@@Z@@YAP6AP6A_JPEAUHWND__@@I_K_J@ZPEAUAtlThunkData_t@@@ZPEAP6AP6A_J0I12@Z3@Z@Z 0000000180033fa8     atls:atlthunk.obj
 0004:00000fa8       $pdata$??$GetProcAddressAll@P6APEAUAtlThunkData_t@@XZ@@YAP6APEAUAtlThunkData_t@@XZPEAP6APEAU0@XZ@Z 0000000180033fa8     atls:atlthunk.obj
 0004:00000fcc       $pdata$_purecall           0000000180033fcc     libvcruntime:purevirt.obj
 0004:00000fd8       $pdata$wcsstr              0000000180033fd8     libvcruntime:wcsstr.obj
 0004:00001008       $pdata$__vcrt_initialize   0000000180034008     libvcruntime:initialization.obj
 0004:00001014       $pdata$__vcrt_uninitialize 0000000180034014     libvcruntime:initialization.obj
 0004:00001020       $pdata$__vcrt_uninitialize_critical 0000000180034020     libvcruntime:initialization.obj
 0004:0000102c       $pdata$__vcrt_thread_attach 000000018003402c     libvcruntime:initialization.obj
 0004:00001038       $pdata$__vcrt_thread_detach 0000000180034038     libvcruntime:initialization.obj
 0004:00001044       $pdata$__C_specific_handler 0000000180034044     libvcruntime:_riscchandler_.obj
 0004:00001050       $pdata$__std_terminate     0000000180034050     libvcruntime:ehhelpers.obj
 0004:0000105c       $pdata$_IsExceptionObjectToBeDestroyed 000000018003405c     libvcruntime:ehhelpers.obj
 0004:00001068       $pdata$__FrameUnwindFilter 0000000180034068     libvcruntime:ehhelpers.obj
 0004:00001074       $pdata$__DestructExceptionObject 0000000180034074     libvcruntime:ehhelpers.obj
 0004:00001080       $pdata$__DestructExceptionObject$filt$0 0000000180034080     libvcruntime:ehhelpers.obj
 0004:0000108c       $pdata$?CatchTryBlock@__FrameHandler3@@SAPEBU_s_TryBlockMapEntry@@PEBU_s_FuncInfo@@H@Z 000000018003408c     libvcruntime:risctrnsctrl.obj
 0004:00001098       $pdata$?ExecutionInCatch@__FrameHandler3@@SA_NPEAU_xDISPATCHER_CONTEXT@@PEBU_s_FuncInfo@@@Z 0000000180034098     libvcruntime:risctrnsctrl.obj
 0004:000010a4       $pdata$?FrameUnwindToEmptyState@__FrameHandler3@@SAXPEA_KPEAU_xDISPATCHER_CONTEXT@@PEBU_s_FuncInfo@@@Z 00000001800340a4     libvcruntime:risctrnsctrl.obj
 0004:000010b0       $pdata$?GetEstablisherFrame@__FrameHandler3@@SAPEA_KPEA_KPEAU_xDISPATCHER_CONTEXT@@PEBU_s_FuncInfo@@0@Z 00000001800340b0     libvcruntime:risctrnsctrl.obj
 0004:000010bc       $pdata$?UnwindNestedFrames@__FrameHandler3@@SAXPEA_KPEAUEHExceptionRecord@@PEAU_CONTEXT@@0PEAXPEBU_s_FuncInfo@@HHPEBU_s_HandlerType@@PEAU_xDISPATCHER_CONTEXT@@E@Z 00000001800340bc     libvcruntime:risctrnsctrl.obj
 0004:000010c8       $pdata$?GetRangeOfTrysToCheck@__FrameHandler3@@SA?AU?$pair@Viterator@TryBlockMap@__FrameHandler3@@V123@@std@@AEAVTryBlockMap@1@HH@Z 00000001800340c8     libvcruntime:risctrnsctrl.obj
 0004:000010d4       $pdata$_GetImageBase       00000001800340d4     libvcruntime:risctrnsctrl.obj
 0004:000010e0       $pdata$_SetImageBase       00000001800340e0     libvcruntime:risctrnsctrl.obj
 0004:000010ec       $pdata$_GetThrowImageBase  00000001800340ec     libvcruntime:risctrnsctrl.obj
 0004:000010f8       $pdata$_SetThrowImageBase  00000001800340f8     libvcruntime:risctrnsctrl.obj
 0004:00001104       $pdata$_CreateFrameInfo    0000000180034104     libvcruntime:risctrnsctrl.obj
 0004:00001110       $pdata$_FindAndUnlinkFrame 0000000180034110     libvcruntime:risctrnsctrl.obj
 0004:0000111c       $pdata$__CxxFrameHandler3  000000018003411c     libvcruntime:risctrnsctrl.obj
 0004:00001128       $pdata$??$_CallSETranslator@V__FrameHandler3@@@@YAHPEAUEHExceptionRecord@@PEA_KPEAU_CONTEXT@@PEAU_xDISPATCHER_CONTEXT@@PEBU_s_FuncInfo@@K1@Z 0000000180034128     libvcruntime:risctrnsctrl.obj
 0004:00001134       $pdata$?filt$0@?0???$_CallSETranslator@V__FrameHandler3@@@@YAHPEAUEHExceptionRecord@@PEA_KPEAU_CONTEXT@@PEAU_xDISPATCHER_CONTEXT@@PEBU_s_FuncInfo@@K1@Z@4HA 0000000180034134     libvcruntime:risctrnsctrl.obj
 0004:00001140       $pdata$__std_type_info_destroy_list 0000000180034140     libvcruntime:std_type_info.obj
 0004:0000114c       $pdata$__std_exception_copy 000000018003414c     libvcruntime:std_exception.obj
 0004:00001158       $pdata$__std_exception_destroy 0000000180034158     libvcruntime:std_exception.obj
 0004:00001164       $pdata$_CxxThrowException  0000000180034164     libvcruntime:throw.obj
 0004:00001170       $pdata$__vcrt_initialize_ptd 0000000180034170     libvcruntime:per_thread_data.obj
 0004:0000117c       $pdata$__vcrt_uninitialize_ptd 000000018003417c     libvcruntime:per_thread_data.obj
 0004:00001188       $pdata$__vcrt_getptd       0000000180034188     libvcruntime:per_thread_data.obj
 0004:00001194       $pdata$__vcrt_getptd_noexit 0000000180034194     libvcruntime:per_thread_data.obj
 0004:000011a0       $pdata$__vcrt_freeptd      00000001800341a0     libvcruntime:per_thread_data.obj
 0004:000011ac       $pdata$__vcrt_freefls      00000001800341ac     libvcruntime:per_thread_data.obj
 0004:000011b8       $pdata$__vcrt_initialize_locks 00000001800341b8     libvcruntime:locks.obj
 0004:000011c4       $pdata$__vcrt_uninitialize_locks 00000001800341c4     libvcruntime:locks.obj
 0004:000011d0       $pdata$__vcrt_FlsAlloc     00000001800341d0     libvcruntime:winapi_downlevel.obj
 0004:000011dc       $pdata$__vcrt_FlsFree      00000001800341dc     libvcruntime:winapi_downlevel.obj
 0004:000011e8       $pdata$__vcrt_FlsGetValue  00000001800341e8     libvcruntime:winapi_downlevel.obj
 0004:000011f4       $pdata$__vcrt_FlsSetValue  00000001800341f4     libvcruntime:winapi_downlevel.obj
 0004:00001200       $pdata$__vcrt_InitializeCriticalSectionEx 0000000180034200     libvcruntime:winapi_downlevel.obj
 0004:0000120c       $pdata$__vcrt_initialize_winapi_thunks 000000018003420c     libvcruntime:winapi_downlevel.obj
 0004:00001218       $pdata$__vcrt_uninitialize_winapi_thunks 0000000180034218     libvcruntime:winapi_downlevel.obj
 0004:00001224       $pdata$?try_get_function@@YAPEAXW4function_id@?A0xcc2f1bd3@@QEBDQEBW4module_id@2@2@Z 0000000180034224     libvcruntime:winapi_downlevel.obj
 0004:00001254       $pdata$?StateFromIp@__FrameHandler3@@SAHPEBU_s_FuncInfo@@PEAU_xDISPATCHER_CONTEXT@@_K@Z 0000000180034254     libvcruntime:ehstate.obj
 0004:00001260       $pdata$?GetCurrentState@__FrameHandler3@@SAHPEA_KPEAU_xDISPATCHER_CONTEXT@@PEBU_s_FuncInfo@@@Z 0000000180034260     libvcruntime:ehstate.obj
 0004:0000126c       $pdata$?SetUnwindTryBlock@__FrameHandler3@@SAXPEA_KPEAU_xDISPATCHER_CONTEXT@@PEBU_s_FuncInfo@@H@Z 000000018003426c     libvcruntime:ehstate.obj
 0004:00001278       $pdata$?GetUnwindTryBlock@__FrameHandler3@@SAHPEA_KPEAU_xDISPATCHER_CONTEXT@@PEBU_s_FuncInfo@@@Z 0000000180034278     libvcruntime:ehstate.obj
 0004:00001284       $pdata$?FrameUnwindToState@__FrameHandler3@@SAXPEA_KPEAU_xDISPATCHER_CONTEXT@@PEBU_s_FuncInfo@@H@Z 0000000180034284     libvcruntime:frame.obj
 0004:00001290       $pdata$?filt$0@?0??FrameUnwindToState@__FrameHandler3@@SAXPEA_KPEAU_xDISPATCHER_CONTEXT@@PEBU_s_FuncInfo@@H@Z@4HA 0000000180034290     libvcruntime:frame.obj
 0004:0000129c       $pdata$?fin$1@?0??FrameUnwindToState@__FrameHandler3@@SAXPEA_KPEAU_xDISPATCHER_CONTEXT@@PEBU_s_FuncInfo@@H@Z@4HA 000000018003429c     libvcruntime:frame.obj
 0004:000012a8       $pdata$?GetHandlerSearchState@__FrameHandler3@@SAHPEA_KPEAU_xDISPATCHER_CONTEXT@@PEBU_s_FuncInfo@@@Z 00000001800342a8     libvcruntime:frame.obj
 0004:000012b4       $pdata$?CxxCallCatchBlock@__FrameHandler3@@SAPEAXPEAU_EXCEPTION_RECORD@@@Z 00000001800342b4     libvcruntime:frame.obj
 0004:000012c0       $pdata$?filt$0@?0??CxxCallCatchBlock@__FrameHandler3@@SAPEAXPEAU_EXCEPTION_RECORD@@@Z@4HA 00000001800342c0     libvcruntime:frame.obj
 0004:000012cc       $pdata$?fin$1@?0??CxxCallCatchBlock@__FrameHandler3@@SAPEAXPEAU_EXCEPTION_RECORD@@@Z@4HA 00000001800342cc     libvcruntime:frame.obj
 0004:000012d8       $pdata$??0bad_exception@std@@QEAA@AEBV01@@Z 00000001800342d8     libvcruntime:frame.obj
 0004:000012e4       $pdata$?ExFilterRethrow@@YAHPEAU_EXCEPTION_POINTERS@@PEAUEHExceptionRecord@@PEAH@Z 00000001800342e4     libvcruntime:frame.obj
 0004:000012f0       $pdata$?IsInExceptionSpec@@YAEPEAUEHExceptionRecord@@PEBU_s_ESTypeList@@@Z 00000001800342f0     libvcruntime:frame.obj
 0004:000012fc       $pdata$?Is_bad_exception_allowed@@YAEPEBU_s_ESTypeList@@@Z 00000001800342fc     libvcruntime:frame.obj
 0004:00001308       $pdata$??$__InternalCxxFrameHandler@V__FrameHandler3@@@@YA?AW4_EXCEPTION_DISPOSITION@@PEAUEHExceptionRecord@@PEA_KPEAU_CONTEXT@@PEAU_xDISPATCHER_CONTEXT@@PEBU_s_FuncInfo@@H1E@Z 0000000180034308     libvcruntime:frame.obj
 0004:00001314       $pdata$??$TypeMatchHelper@$$CBU_s_HandlerType@@@@YAHPEBU_s_HandlerType@@PEBU_s_CatchableType@@PEBU_s_ThrowInfo@@@Z 0000000180034314     libvcruntime:frame.obj
 0004:00001320       $pdata$??$BuildCatchObjectHelperInternal@$$CBU_s_HandlerType@@@@YAHPEAUEHExceptionRecord@@PEAXPEBU_s_HandlerType@@PEBU_s_CatchableType@@@Z 0000000180034320     libvcruntime:frame.obj
 0004:0000132c       $pdata$??$BuildCatchObjectInternal@$$CBU_s_HandlerType@@@@YAXPEAUEHExceptionRecord@@PEAXPEBU_s_HandlerType@@PEBU_s_CatchableType@@@Z 000000018003432c     libvcruntime:frame.obj
 0004:00001338       $pdata$??$FindHandler@V__FrameHandler3@@@@YAXPEAUEHExceptionRecord@@PEA_KPEAU_CONTEXT@@PEAU_xDISPATCHER_CONTEXT@@PEBU_s_FuncInfo@@EH1@Z 0000000180034338     libvcruntime:frame.obj
 0004:00001344       $pdata$??$CatchIt@V__FrameHandler3@@@@YAXPEAUEHExceptionRecord@@PEA_KPEAU_CONTEXT@@PEAU_xDISPATCHER_CONTEXT@@PEBU_s_FuncInfo@@PEBU_s_HandlerType@@PEBU_s_CatchableType@@PEBU_s_TryBlockMapEntry@@H1EE@Z 0000000180034344     libvcruntime:frame.obj
 0004:00001350       $pdata$??$FindHandlerForForeignException@V__FrameHandler3@@@@YAXPEAUEHExceptionRecord@@PEA_KPEAU_CONTEXT@@PEAU_xDISPATCHER_CONTEXT@@PEBU_s_FuncInfo@@HH1@Z 0000000180034350     libvcruntime:frame.obj
 0004:00001374       $pdata$_invalid_parameter_noinfo 0000000180034374     libucrt:invalid_parameter.obj
 0004:00001380       $pdata$_invoke_watson      0000000180034380     libucrt:invalid_parameter.obj
 0004:0000138c       $pdata$__acrt_call_reportfault 000000018003438c     libucrt:invalid_parameter.obj
 0004:00001398       $pdata$_invalid_parameter  0000000180034398     libucrt:invalid_parameter.obj
 0004:000013a4       $pdata$_errno              00000001800343a4     libucrt:errno.obj
 0004:000013b0       $pdata$__doserrno          00000001800343b0     libucrt:errno.obj
 0004:000013bc       $pdata$__acrt_errno_map_os_error 00000001800343bc     libucrt:errno.obj
 0004:000013c8       $pdata$_recalloc_base      00000001800343c8     libucrt:recalloc.obj
 0004:000013d4       $pdata$_resetstkoflw       00000001800343d4     libucrt:resetstk.obj
 0004:000013e0       $pdata$wcscat_s            00000001800343e0     libucrt:wcscat_s.obj
 0004:000013ec       $pdata$wcscpy_s            00000001800343ec     libucrt:wcscpy_s.obj
 0004:000013f8       $pdata$wcsncpy_s           00000001800343f8     libucrt:wcsncpy_s.obj
 0004:00001404       $pdata$??0_LocaleUpdate@@QEAA@QEAU__crt_locale_pointers@@@Z 0000000180034404     libucrt:output.obj
 0004:00001410       $pdata$__stdio_common_vswprintf_s 0000000180034410     libucrt:output.obj
 0004:0000141c       $pdata$?force_decimal_point@__crt_stdio_output@@YAXPEADQEAU__crt_locale_pointers@@@Z 000000018003441c     libucrt:output.obj
 0004:00001428       $pdata$?write_string@?$string_output_adapter@_W@__crt_stdio_output@@QEBAXQEB_WHQEAHAEAV__crt_deferred_errno_cache@@@Z 0000000180034428     libucrt:output.obj
 0004:00001434       $pdata$??$common_vsprintf@Vformat_validation_base@__crt_stdio_output@@_W@@YAH_KQEA_W0QEB_WQEAU__crt_locale_pointers@@QEAD@Z 0000000180034434     libucrt:output.obj
 0004:00001440       $pdata$??$write_multiple_characters@V?$string_output_adapter@_W@__crt_stdio_output@@D@__crt_stdio_output@@YAXAEBV?$string_output_adapter@_W@0@DHQEAH@Z 0000000180034440     libucrt:output.obj
 0004:0000144c       $pdata$??$ensure_buffer_is_big_enough@D@formatting_buffer@__crt_stdio_output@@QEAA_N_K@Z 000000018003444c     libucrt:output.obj
 0004:00001458       $pdata$?process@?$output_processor@_WV?$string_output_adapter@_W@__crt_stdio_output@@V?$format_validation_base@_WV?$string_output_adapter@_W@__crt_stdio_output@@@2@@__crt_stdio_output@@QEAAHXZ 0000000180034458     libucrt:output.obj
 0004:00001464       $pdata$?parse_int_from_format_string@?$output_processor@_WV?$string_output_adapter@_W@__crt_stdio_output@@V?$format_validation_base@_WV?$string_output_adapter@_W@__crt_stdio_output@@@2@@__crt_stdio_output@@AEAA_NQEAH@Z 0000000180034464     libucrt:output.obj
 0004:00001470       $pdata$?state_case_size@?$output_processor@_WV?$string_output_adapter@_W@__crt_stdio_output@@V?$format_validation_base@_WV?$string_output_adapter@_W@__crt_stdio_output@@@2@@__crt_stdio_output@@AEAA_NXZ 0000000180034470     libucrt:output.obj
 0004:0000147c       $pdata$?state_case_type@?$output_processor@_WV?$string_output_adapter@_W@__crt_stdio_output@@V?$format_validation_base@_WV?$string_output_adapter@_W@__crt_stdio_output@@@2@@__crt_stdio_output@@AEAA_NXZ 000000018003447c     libucrt:output.obj
 0004:00001488       $pdata$?type_case_c_tchar@?$output_processor@_WV?$string_output_adapter@_W@__crt_stdio_output@@V?$format_validation_base@_WV?$string_output_adapter@_W@__crt_stdio_output@@@2@@__crt_stdio_output@@AEAA_N_W@Z 0000000180034488     libucrt:output.obj
 0004:00001494       $pdata$?type_case_Z@?$output_processor@_WV?$string_output_adapter@_W@__crt_stdio_output@@V?$format_validation_base@_WV?$string_output_adapter@_W@__crt_stdio_output@@@2@@__crt_stdio_output@@AEAA_NXZ 0000000180034494     libucrt:output.obj
 0004:000014a0       $pdata$?type_case_s@?$output_processor@_WV?$string_output_adapter@_W@__crt_stdio_output@@V?$format_validation_base@_WV?$string_output_adapter@_W@__crt_stdio_output@@@2@@__crt_stdio_output@@AEAA_NXZ 00000001800344a0     libucrt:output.obj
 0004:000014ac       $pdata$?type_case_a@?$output_processor@_WV?$string_output_adapter@_W@__crt_stdio_output@@V?$format_validation_base@_WV?$string_output_adapter@_W@__crt_stdio_output@@@2@@__crt_stdio_output@@AEAA_NXZ 00000001800344ac     libucrt:output.obj
 0004:000014b8       $pdata$?type_case_integer@?$output_processor@_WV?$string_output_adapter@_W@__crt_stdio_output@@V?$format_validation_base@_WV?$string_output_adapter@_W@__crt_stdio_output@@@2@@__crt_stdio_output@@AEAA_NI_N@Z 00000001800344b8     libucrt:output.obj
 0004:000014c4       $pdata$?type_case_n@?$output_processor@_WV?$string_output_adapter@_W@__crt_stdio_output@@V?$format_validation_base@_WV?$string_output_adapter@_W@__crt_stdio_output@@@2@@__crt_stdio_output@@AEAA_NXZ 00000001800344c4     libucrt:output.obj
 0004:000014d0       $pdata$?write_stored_string_tchar@?$output_processor@_WV?$string_output_adapter@_W@__crt_stdio_output@@V?$format_validation_base@_WV?$string_output_adapter@_W@__crt_stdio_output@@@2@@__crt_stdio_output@@AEAA_N_W@Z 00000001800344d0     libucrt:output.obj
 0004:000014dc       $pdata$??$type_case_integer_parse_into_buffer@_K@?$output_processor@_WV?$string_output_adapter@_W@__crt_stdio_output@@V?$format_validation_base@_WV?$string_output_adapter@_W@__crt_stdio_output@@@2@@__crt_stdio_output@@AEAAX_KI_N@Z 00000001800344dc     libucrt:output.obj
 0004:000014e8       $pdata$??$type_case_integer_parse_into_buffer@I@?$output_processor@_WV?$string_output_adapter@_W@__crt_stdio_output@@V?$format_validation_base@_WV?$string_output_adapter@_W@__crt_stdio_output@@@2@@__crt_stdio_output@@AEAAXII_N@Z 00000001800344e8     libucrt:output.obj
 0004:000014f4       $pdata$_seh_filter_exe     00000001800344f4     libucrt:exception_filter.obj
 0004:00001500       $pdata$?try_cor_exit_process@@YAXI@Z 0000000180034500     libucrt:exit.obj
 0004:0000150c       $pdata$?exit_or_terminate_process@@YAXI@Z 000000018003450c     libucrt:exit.obj
 0004:00001518       $pdata$?common_exit@@YAXHW4_crt_exit_cleanup_mode@@W4_crt_exit_return_mode@@@Z 0000000180034518     libucrt:exit.obj
 0004:00001524       $pdata$??R<lambda_6e4b09c48022b2350581041d5f6b0c4c>@@QEBA@XZ 0000000180034524     libucrt:exit.obj
 0004:00001530       $pdata$?filt$0@?0???R<lambda_6e4b09c48022b2350581041d5f6b0c4c>@@QEBA@XZ@4HA 0000000180034530     libucrt:exit.obj
 0004:0000153c       $pdata$??$?RV<lambda_d80eeec6fff315bfe5c115232f3240e3>@@AEAV<lambda_6e4b09c48022b2350581041d5f6b0c4c>@@V<lambda_2358e3775559c9db80273638284d5e45>@@@?$__crt_seh_guarded_call@X@@QEAAX$$QEAV<lambda_d80eeec6fff315bfe5c115232f3240e3>@@AEAV<lambda_6e4b09c48022b2350581041d5f6b0c4c>@@$$QEAV<lambda_2358e3775559c9db80273638284d5e45>@@@Z 000000018003453c     libucrt:exit.obj
 0004:00001548       $pdata$?fin$0@?0???$?RV<lambda_d80eeec6fff315bfe5c115232f3240e3>@@AEAV<lambda_6e4b09c48022b2350581041d5f6b0c4c>@@V<lambda_2358e3775559c9db80273638284d5e45>@@@?$__crt_seh_guarded_call@X@@QEAAX$$QEAV<lambda_d80eeec6fff315bfe5c115232f3240e3>@@AEAV<lambda_6e4b09c48022b2350581041d5f6b0c4c>@@$$QEAV<lambda_2358e3775559c9db80273638284d5e45>@@@Z@4HA 0000000180034548     libucrt:exit.obj
 0004:00001548       $pdata$?fin$0@?0???$?RV<lambda_0ae27a3a962d80f24befdcbee591983d>@@AEAV<lambda_8d0ee55de4b1038c4002e0adecdf1839>@@V<lambda_dc504788e8f1664fe9b84e20bfb512f2>@@@?$__crt_seh_guarded_call@X@@QEAAX$$QEAV<lambda_0ae27a3a962d80f24befdcbee591983d>@@AEAV<lambda_8d0ee55de4b1038c4002e0adecdf1839>@@$$QEAV<lambda_dc504788e8f1664fe9b84e20bfb512f2>@@@Z@4HA 0000000180034548     libucrt:per_thread_data.obj
 0004:00001548       $pdata$?fin$0@?0???$?RV<lambda_aa87e3671a710a21b5dc78c0bdf72e11>@@AEAV<lambda_92619d2358a28f41a33ba319515a20b9>@@V<lambda_6992ecaafeb10aed2b74cb1fae11a551>@@@?$__crt_seh_guarded_call@X@@QEAAX$$QEAV<lambda_aa87e3671a710a21b5dc78c0bdf72e11>@@AEAV<lambda_92619d2358a28f41a33ba319515a20b9>@@$$QEAV<lambda_6992ecaafeb10aed2b74cb1fae11a551>@@@Z@4HA 0000000180034548     libucrt:per_thread_data.obj
 0004:00001548       $pdata$?fin$0@?0???$?RV<lambda_f2e299630e499de9f9a165e60fcd3db5>@@AEAV<lambda_2ae9d31cdba2644fcbeaf08da7c24588>@@V<lambda_40d01ff24d0e7b3814fdbdcee8eab3c7>@@@?$__crt_seh_guarded_call@X@@QEAAX$$QEAV<lambda_f2e299630e499de9f9a165e60fcd3db5>@@AEAV<lambda_2ae9d31cdba2644fcbeaf08da7c24588>@@$$QEAV<lambda_40d01ff24d0e7b3814fdbdcee8eab3c7>@@@Z@4HA 0000000180034548     libucrt:per_thread_data.obj
 0004:00001548       $pdata$?fin$0@?0???$?RV<lambda_2d41944a1d46af3157314b8a01080d33>@@AEAV<lambda_8f455de75cd7d7f24b4096f044d8b9e6>@@V<lambda_aa500f224e6afead328df44964fe2772>@@@?$__crt_seh_guarded_call@X@@QEAAX$$QEAV<lambda_2d41944a1d46af3157314b8a01080d33>@@AEAV<lambda_8f455de75cd7d7f24b4096f044d8b9e6>@@$$QEAV<lambda_aa500f224e6afead328df44964fe2772>@@@Z@4HA 0000000180034548     libucrt:per_thread_data.obj
 0004:00001548       $pdata$?fin$0@?0???$?RV<lambda_efdfa57d1f175319df784efa44bb7b81>@@AEAV<lambda_5f0a4c1567f8adc6734073e5d1e1b35c>@@V<lambda_2e8a7d3640ea6ccb4c2413664c2db6fd>@@@?$__crt_seh_guarded_call@X@@QEAAX$$QEAV<lambda_efdfa57d1f175319df784efa44bb7b81>@@AEAV<lambda_5f0a4c1567f8adc6734073e5d1e1b35c>@@$$QEAV<lambda_2e8a7d3640ea6ccb4c2413664c2db6fd>@@@Z@4HA 0000000180034548     libucrt:mbctype.obj
 0004:00001548       $pdata$?fin$0@?0???$?RV<lambda_7777bce6b2f8c936911f934f8298dc43>@@AEAV<lambda_f03950bc5685219e0bcd2087efbe011e>@@V<lambda_3883c3dff614d5e0c5f61bb1ac94921c>@@@?$__crt_seh_guarded_call@H@@QEAAH$$QEAV<lambda_7777bce6b2f8c936911f934f8298dc43>@@AEAV<lambda_f03950bc5685219e0bcd2087efbe011e>@@$$QEAV<lambda_3883c3dff614d5e0c5f61bb1ac94921c>@@@Z@4HA 0000000180034548     libucrt:onexit.obj
 0004:00001548       $pdata$?fin$0@?0???$?RV<lambda_638799b9deba96c50f710eeac98168cd>@@AEAV<lambda_22ebabd17bc4fa466a2aca6d8deb888d>@@V<lambda_a6f7d7db0129f75315ebf26d50c089f1>@@@?$__crt_seh_guarded_call@H@@QEAAH$$QEAV<lambda_638799b9deba96c50f710eeac98168cd>@@AEAV<lambda_22ebabd17bc4fa466a2aca6d8deb888d>@@$$QEAV<lambda_a6f7d7db0129f75315ebf26d50c089f1>@@@Z@4HA 0000000180034548     libucrt:onexit.obj
 0004:00001548       $pdata$?fin$0@?0???$?RV<lambda_450d765d439847d4c735a33c368b5fc0>@@AEAV<lambda_44731a7d0e6d81c3e6aa82d741081786>@@V<lambda_601a2a7da3b7a96e9554ac7215c4b07c>@@@?$__crt_seh_guarded_call@P6AXH@Z@@QEAAP6AXH@Z$$QEAV<lambda_450d765d439847d4c735a33c368b5fc0>@@AEAV<lambda_44731a7d0e6d81c3e6aa82d741081786>@@$$QEAV<lambda_601a2a7da3b7a96e9554ac7215c4b07c>@@@Z@4HA 0000000180034548     libucrt:signal.obj
 0004:00001554       $pdata$_configure_narrow_argv 0000000180034554     libucrt:argv_parsing.obj
 0004:00001560       $pdata$__acrt_allocate_buffer_for_argv 0000000180034560     libucrt:argv_parsing.obj
 0004:0000156c       $pdata$??$parse_command_line@D@@YAXPEADPEAPEAD0PEA_K2@Z 000000018003456c     libucrt:argv_parsing.obj
 0004:00001578       $pdata$__dcrt_uninitialize_environments_nolock 0000000180034578     libucrt:environment_initialization.obj
 0004:00001584       $pdata$??$common_initialize_environment_nolock@D@@YAHXZ 0000000180034584     libucrt:environment_initialization.obj
 0004:00001590       $pdata$??$uninitialize_environment_internal@D@@YAXAEAPEAPEAD@Z 0000000180034590     libucrt:environment_initialization.obj
 0004:0000159c       $pdata$??$uninitialize_environment_internal@_W@@YAXAEAPEAPEA_W@Z 000000018003459c     libucrt:environment_initialization.obj
 0004:000015a8       $pdata$??$free_environment@_W@@YAXQEAPEA_W@Z 00000001800345a8     libucrt:environment_initialization.obj
 0004:000015a8       $pdata$??$free_environment@D@@YAXQEAPEAD@Z 00000001800345a8     libucrt:environment_initialization.obj
 0004:000015b4       $pdata$??$create_environment@D@@YAQEAPEADQEAD@Z 00000001800345b4     libucrt:environment_initialization.obj
 0004:000015c0       $pdata$_register_onexit_function 00000001800345c0     libucrt:onexit.obj
 0004:000015cc       $pdata$_execute_onexit_table 00000001800345cc     libucrt:onexit.obj
 0004:000015d8       $pdata$??R<lambda_22ebabd17bc4fa466a2aca6d8deb888d>@@QEBAHXZ 00000001800345d8     libucrt:onexit.obj
 0004:000015e4       $pdata$??R<lambda_f03950bc5685219e0bcd2087efbe011e>@@QEBAHXZ 00000001800345e4     libucrt:onexit.obj
 0004:000015f0       $pdata$??$?RV<lambda_638799b9deba96c50f710eeac98168cd>@@AEAV<lambda_22ebabd17bc4fa466a2aca6d8deb888d>@@V<lambda_a6f7d7db0129f75315ebf26d50c089f1>@@@?$__crt_seh_guarded_call@H@@QEAAH$$QEAV<lambda_638799b9deba96c50f710eeac98168cd>@@AEAV<lambda_22ebabd17bc4fa466a2aca6d8deb888d>@@$$QEAV<lambda_a6f7d7db0129f75315ebf26d50c089f1>@@@Z 00000001800345f0     libucrt:onexit.obj
 0004:000015fc       $pdata$??$?RV<lambda_7777bce6b2f8c936911f934f8298dc43>@@AEAV<lambda_f03950bc5685219e0bcd2087efbe011e>@@V<lambda_3883c3dff614d5e0c5f61bb1ac94921c>@@@?$__crt_seh_guarded_call@H@@QEAAH$$QEAV<lambda_7777bce6b2f8c936911f934f8298dc43>@@AEAV<lambda_f03950bc5685219e0bcd2087efbe011e>@@$$QEAV<lambda_3883c3dff614d5e0c5f61bb1ac94921c>@@@Z 00000001800345fc     libucrt:onexit.obj
 0004:00001608       $pdata$__acrt_uninitialize_critical 0000000180034608     libucrt:initialization.obj
 0004:00001614       $pdata$__acrt_thread_attach 0000000180034614     libucrt:initialization.obj
 0004:00001620       $pdata$__acrt_thread_detach 0000000180034620     libucrt:initialization.obj
 0004:0000162c       $pdata$initialize_c        000000018003462c     libucrt:initialization.obj
 0004:00001638       $pdata$uninitialize_environment 0000000180034638     libucrt:initialization.obj
 0004:00001644       $pdata$initialize_pointers 0000000180034644     libucrt:initialization.obj
 0004:00001650       $pdata$uninitialize_allocated_memory 0000000180034650     libucrt:initialization.obj
 0004:0000165c       $pdata$??$uninitialize@V<lambda_af42a3ee9806e9a7305d451646e05244>@@@?$dual_state_global@PEAU__crt_multibyte_data@@@__crt_state_management@@QEAAX$$QEAV<lambda_af42a3ee9806e9a7305d451646e05244>@@@Z 000000018003465c     libucrt:initialization.obj
 0004:00001668       $pdata$_initterm           0000000180034668     libucrt:initterm.obj
 0004:00001674       $pdata$_initterm_e         0000000180034674     libucrt:initterm.obj
 0004:00001680       $pdata$_callnewh           0000000180034680     libucrt:new_handler.obj
 0004:0000168c       $pdata$_query_new_handler  000000018003468c     libucrt:new_handler.obj
 0004:00001698       $pdata$_query_new_handler$fin$0 0000000180034698     libucrt:new_handler.obj
 0004:000016a4       $pdata$terminate           00000001800346a4     libucrt:terminate.obj
 0004:000016b0       $pdata$abort               00000001800346b0     libucrt:abort.obj
 0004:000016bc       $pdata$strcpy_s            00000001800346bc     libucrt:strcpy_s.obj
 0004:000016c8       $pdata$??$parse_integer@KV?$c_string_character_source@_W@__crt_strtox@@@__crt_strtox@@YAKQEAU__crt_locale_pointers@@V?$c_string_character_source@_W@0@H_N@Z 00000001800346c8     libucrt:atox.obj
 0004:000016e0       $pdata$_free_base          00000001800346e0     libucrt:free_base.obj
 0004:000016ec       $pdata$__acrt_initialize_ptd 00000001800346ec     libucrt:per_thread_data.obj
 0004:000016f8       $pdata$__acrt_uninitialize_ptd 00000001800346f8     libucrt:per_thread_data.obj
 0004:00001704       $pdata$__acrt_getptd       0000000180034704     libucrt:per_thread_data.obj
 0004:00001710       $pdata$__acrt_getptd_head  0000000180034710     libucrt:per_thread_data.obj
 0004:0000171c       $pdata$__acrt_getptd_noexit 000000018003471c     libucrt:per_thread_data.obj
 0004:00001728       $pdata$__acrt_freeptd      0000000180034728     libucrt:per_thread_data.obj
 0004:00001734       $pdata$?destroy_fls@@YAXPEAX@Z 0000000180034734     libucrt:per_thread_data.obj
 0004:00001740       $pdata$?replace_current_thread_locale_nolock@@YAXQEAU__acrt_ptd@@QEAU__crt_locale_data@@@Z 0000000180034740     libucrt:per_thread_data.obj
 0004:0000174c       $pdata$?construct_ptd_array@@YAXQEAU__acrt_ptd@@@Z 000000018003474c     libucrt:per_thread_data.obj
 0004:00001758       $pdata$?destroy_ptd_array@@YAXQEAU__acrt_ptd@@@Z 0000000180034758     libucrt:per_thread_data.obj
 0004:00001764       $pdata$??$?RV<lambda_0ae27a3a962d80f24befdcbee591983d>@@AEAV<lambda_8d0ee55de4b1038c4002e0adecdf1839>@@V<lambda_dc504788e8f1664fe9b84e20bfb512f2>@@@?$__crt_seh_guarded_call@X@@QEAAX$$QEAV<lambda_0ae27a3a962d80f24befdcbee591983d>@@AEAV<lambda_8d0ee55de4b1038c4002e0adecdf1839>@@$$QEAV<lambda_dc504788e8f1664fe9b84e20bfb512f2>@@@Z 0000000180034764     libucrt:per_thread_data.obj
 0004:00001770       $pdata$??$?RV<lambda_aa87e3671a710a21b5dc78c0bdf72e11>@@AEAV<lambda_92619d2358a28f41a33ba319515a20b9>@@V<lambda_6992ecaafeb10aed2b74cb1fae11a551>@@@?$__crt_seh_guarded_call@X@@QEAAX$$QEAV<lambda_aa87e3671a710a21b5dc78c0bdf72e11>@@AEAV<lambda_92619d2358a28f41a33ba319515a20b9>@@$$QEAV<lambda_6992ecaafeb10aed2b74cb1fae11a551>@@@Z 0000000180034770     libucrt:per_thread_data.obj
 0004:0000177c       $pdata$??$?RV<lambda_f2e299630e499de9f9a165e60fcd3db5>@@AEAV<lambda_2ae9d31cdba2644fcbeaf08da7c24588>@@V<lambda_40d01ff24d0e7b3814fdbdcee8eab3c7>@@@?$__crt_seh_guarded_call@X@@QEAAX$$QEAV<lambda_f2e299630e499de9f9a165e60fcd3db5>@@AEAV<lambda_2ae9d31cdba2644fcbeaf08da7c24588>@@$$QEAV<lambda_40d01ff24d0e7b3814fdbdcee8eab3c7>@@@Z 000000018003477c     libucrt:per_thread_data.obj
 0004:00001788       $pdata$??$?RV<lambda_2d41944a1d46af3157314b8a01080d33>@@AEAV<lambda_8f455de75cd7d7f24b4096f044d8b9e6>@@V<lambda_aa500f224e6afead328df44964fe2772>@@@?$__crt_seh_guarded_call@X@@QEAAX$$QEAV<lambda_2d41944a1d46af3157314b8a01080d33>@@AEAV<lambda_8f455de75cd7d7f24b4096f044d8b9e6>@@$$QEAV<lambda_aa500f224e6afead328df44964fe2772>@@@Z 0000000180034788     libucrt:per_thread_data.obj
 0004:00001794       $pdata$_calloc_base        0000000180034794     libucrt:calloc_base.obj
 0004:000017a0       $pdata$_malloc_base        00000001800347a0     libucrt:malloc_base.obj
 0004:000017ac       $pdata$_msize_base         00000001800347ac     libucrt:msize.obj
 0004:000017b8       $pdata$_realloc_base       00000001800347b8     libucrt:realloc_base.obj
 0004:000017c4       $pdata$__acrt_initialize_winapi_thunks 00000001800347c4     libucrt:winapi_thunks.obj
 0004:000017d0       $pdata$__acrt_uninitialize_winapi_thunks 00000001800347d0     libucrt:winapi_thunks.obj
 0004:000017dc       $pdata$__acrt_FlsAlloc     00000001800347dc     libucrt:winapi_thunks.obj
 0004:000017e8       $pdata$__acrt_FlsFree      00000001800347e8     libucrt:winapi_thunks.obj
 0004:000017f4       $pdata$__acrt_FlsGetValue  00000001800347f4     libucrt:winapi_thunks.obj
 0004:00001800       $pdata$__acrt_FlsSetValue  0000000180034800     libucrt:winapi_thunks.obj
 0004:0000180c       $pdata$__acrt_InitializeCriticalSectionEx 000000018003480c     libucrt:winapi_thunks.obj
 0004:00001818       $pdata$__acrt_LCMapStringEx 0000000180034818     libucrt:winapi_thunks.obj
 0004:00001824       $pdata$__acrt_LocaleNameToLCID 0000000180034824     libucrt:winapi_thunks.obj
 0004:00001830       $pdata$__acrt_AppPolicyGetProcessTerminationMethodInternal 0000000180034830     libucrt:winapi_thunks.obj
 0004:0000183c       $pdata$__acrt_SetThreadStackGuarantee 000000018003483c     libucrt:winapi_thunks.obj
 0004:00001848       $pdata$?try_get_function@@YAPEAXW4function_id@?A0x391cf84c@@QEBDQEBW4module_id@2@2@Z 0000000180034848     libucrt:winapi_thunks.obj
 0004:00001854       $pdata$isdigit             0000000180034854     libucrt:_ctype.obj
 0004:00001860       $pdata$tolower             0000000180034860     libucrt:tolower_toupper.obj
 0004:0000186c       $pdata$_tolower_l          000000018003486c     libucrt:tolower_toupper.obj
 0004:00001878       $pdata$?internal_isupper_l@@YA_NHQEAU__crt_locale_pointers@@@Z 0000000180034878     libucrt:tolower_toupper.obj
 0004:00001884       $pdata$wcstol              0000000180034884     libucrt:strtox.obj
 0004:00001890       $pdata$_mbtowc_l           0000000180034890     libucrt:mbtowc.obj
 0004:0000189c       $pdata$wcsnlen             000000018003489c     libucrt:strnlen.obj
 0004:000018a8       $pdata$__acrt_update_locale_info 00000001800348a8     libucrt:locale_update.obj
 0004:000018b4       $pdata$__acrt_update_multibyte_info 00000001800348b4     libucrt:locale_update.obj
 0004:000018c0       $pdata$__acrt_fp_format    00000001800348c0     libucrt:cvt.obj
 0004:000018cc       $pdata$?fp_format_nan_or_infinity@@YAHW4__acrt_fp_class@@_NPEAD_K1@Z 00000001800348cc     libucrt:cvt.obj
 0004:000018d8       $pdata$?fp_format_e_internal@@YAHQEAD_KH_NIQEAU_strflt@@2QEAU__crt_locale_pointers@@@Z 00000001800348d8     libucrt:cvt.obj
 0004:000018e4       $pdata$?fp_format_e@@YAHQEBNQEAD_K12H_NIQEAU__crt_locale_pointers@@@Z 00000001800348e4     libucrt:cvt.obj
 0004:000018f0       $pdata$?fp_format_a@@YAHQEBNPEAD_KQEAD2H_NIQEAU__crt_locale_pointers@@@Z 00000001800348f0     libucrt:cvt.obj
 0004:000018fc       $pdata$?fp_format_f_internal@@YAHQEAD_KHQEAU_strflt@@_NQEAU__crt_locale_pointers@@@Z 00000001800348fc     libucrt:cvt.obj
 0004:00001908       $pdata$?fp_format_g@@YAHQEBNQEAD_K12H_NIQEAU__crt_locale_pointers@@@Z 0000000180034908     libucrt:cvt.obj
 0004:00001914       $pdata$_fileno             0000000180034914     libucrt:fileno.obj
 0004:00001920       $pdata$__acrt_initialize_stdio 0000000180034920     libucrt:_file.obj
 0004:0000192c       $pdata$__acrt_uninitialize_stdio 000000018003492c     libucrt:_file.obj
 0004:00001938       $pdata$__acrt_uninitialize_locale 0000000180034938     libucrt:wsetlocale.obj
 0004:00001944       $pdata$??$?RV<lambda_410d79af7f07d98d83a3f525b3859a53>@@AEAV<lambda_3e16ef9562a7dcce91392c22ab16ea36>@@V<lambda_38119f0e861e05405d8a144b9b982f0a>@@@?$__crt_seh_guarded_call@X@@QEAAX$$QEAV<lambda_410d79af7f07d98d83a3f525b3859a53>@@AEAV<lambda_3e16ef9562a7dcce91392c22ab16ea36>@@$$QEAV<lambda_38119f0e861e05405d8a144b9b982f0a>@@@Z 0000000180034944     libucrt:wsetlocale.obj
 0004:00001950       $pdata$?fin$0@?0???$?RV<lambda_410d79af7f07d98d83a3f525b3859a53>@@AEAV<lambda_3e16ef9562a7dcce91392c22ab16ea36>@@V<lambda_38119f0e861e05405d8a144b9b982f0a>@@@?$__crt_seh_guarded_call@X@@QEAAX$$QEAV<lambda_410d79af7f07d98d83a3f525b3859a53>@@AEAV<lambda_3e16ef9562a7dcce91392c22ab16ea36>@@$$QEAV<lambda_38119f0e861e05405d8a144b9b982f0a>@@@Z@4HA 0000000180034950     libucrt:wsetlocale.obj
 0004:0000195c       $pdata$__acrt_initialize_lowio 000000018003495c     libucrt:ioinit.obj
 0004:00001968       $pdata$__acrt_initialize_lowio$fin$0 0000000180034968     libucrt:ioinit.obj
 0004:00001968       $pdata$__acrt_lowio_ensure_fh_exists$fin$0 0000000180034968     libucrt:osfinfo.obj
 0004:00001974       $pdata$__acrt_uninitialize_lowio 0000000180034974     libucrt:ioinit.obj
 0004:00001980       $pdata$?initialize_inherited_file_handles_nolock@@YAXXZ 0000000180034980     libucrt:ioinit.obj
 0004:0000198c       $pdata$?initialize_stdio_handles_nolock@@YAXXZ 000000018003498c     libucrt:ioinit.obj
 0004:00001998       $pdata$__acrt_initialize_locks 0000000180034998     libucrt:locks.obj
 0004:000019a4       $pdata$__acrt_uninitialize_locks 00000001800349a4     libucrt:locks.obj
 0004:000019b0       $pdata$__acrt_get_process_end_policy 00000001800349b0     libucrt:win_policies.obj
 0004:000019bc       $pdata$??$common_expand_argv_wildcards@D@@YAHQEAPEADQEAPEAPEAD@Z 00000001800349bc     libucrt:argv_wildcards.obj
 0004:000019c8       $pdata$??$copy_and_add_argument_to_buffer@D@@YAHQEBD0_KAEAV?$argument_list@D@?A0x5f5c8891@@@Z 00000001800349c8     libucrt:argv_wildcards.obj
 0004:000019d4       $pdata$??$expand_argument_wildcards@D@@YAHQEAD0AEAV?$argument_list@D@?A0x5f5c8891@@@Z 00000001800349d4     libucrt:argv_wildcards.obj
 0004:000019e0       $pdata$__acrt_update_thread_multibyte_data 00000001800349e0     libucrt:mbctype.obj
 0004:000019ec       $pdata$__acrt_initialize_multibyte 00000001800349ec     libucrt:mbctype.obj
 0004:000019f8       $pdata$_setmbcp_nolock     00000001800349f8     libucrt:mbctype.obj
 0004:00001a04       $pdata$?getSystemCP@@YAHH@Z 0000000180034a04     libucrt:mbctype.obj
 0004:00001a10       $pdata$?setSBCS@@YAXPEAU__crt_multibyte_data@@@Z 0000000180034a10     libucrt:mbctype.obj
 0004:00001a1c       $pdata$?setSBUpLow@@YAXPEAU__crt_multibyte_data@@@Z 0000000180034a1c     libucrt:mbctype.obj
 0004:00001a28       $pdata$?update_thread_multibyte_data_internal@@YAPEAU__crt_multibyte_data@@QEAU__acrt_ptd@@QEAU1@@Z 0000000180034a28     libucrt:mbctype.obj
 0004:00001a34       $pdata$?fin$0@?0??update_thread_multibyte_data_internal@@YAPEAU__crt_multibyte_data@@QEAU__acrt_ptd@@QEAU1@@Z@4HA 0000000180034a34     libucrt:mbctype.obj
 0004:00001a40       $pdata$?setmbcp_internal@@YAHH_NQEAU__acrt_ptd@@QEAPEAU__crt_multibyte_data@@@Z 0000000180034a40     libucrt:mbctype.obj
 0004:00001a4c       $pdata$??$?RV<lambda_efdfa57d1f175319df784efa44bb7b81>@@AEAV<lambda_5f0a4c1567f8adc6734073e5d1e1b35c>@@V<lambda_2e8a7d3640ea6ccb4c2413664c2db6fd>@@@?$__crt_seh_guarded_call@X@@QEAAX$$QEAV<lambda_efdfa57d1f175319df784efa44bb7b81>@@AEAV<lambda_5f0a4c1567f8adc6734073e5d1e1b35c>@@$$QEAV<lambda_2e8a7d3640ea6ccb4c2413664c2db6fd>@@@Z 0000000180034a4c     libucrt:mbctype.obj
 0004:00001a58       $pdata$?x_ismbbtype_l@@YAHPEAU__crt_locale_pointers@@IHH@Z 0000000180034a58     libucrt:ismbbyte.obj
 0004:00001a64       $pdata$__acrt_initialize_command_line 0000000180034a64     libucrt:argv_data.obj
 0004:00001a70       $pdata$__dcrt_get_narrow_environment_from_os 0000000180034a70     libucrt:get_environment_from_os.obj
 0004:00001a7c       $pdata$__acrt_initialize_heap 0000000180034a7c     libucrt:heap_handle.obj
 0004:00001a88       $pdata$__acrt_execute_initializers 0000000180034a88     libucrt:shared_initialization.obj
 0004:00001a94       $pdata$__acrt_execute_uninitializers 0000000180034a94     libucrt:shared_initialization.obj
 0004:00001aa0       $pdata$__acrt_get_sigabrt_handler 0000000180034aa0     libucrt:signal.obj
 0004:00001aac       $pdata$raise               0000000180034aac     libucrt:signal.obj
 0004:00001ab8       $pdata$raise$fin$0         0000000180034ab8     libucrt:signal.obj
 0004:00001ac4       $pdata$??$?RV<lambda_450d765d439847d4c735a33c368b5fc0>@@AEAV<lambda_44731a7d0e6d81c3e6aa82d741081786>@@V<lambda_601a2a7da3b7a96e9554ac7215c4b07c>@@@?$__crt_seh_guarded_call@P6AXH@Z@@QEAAP6AXH@Z$$QEAV<lambda_450d765d439847d4c735a33c368b5fc0>@@AEAV<lambda_44731a7d0e6d81c3e6aa82d741081786>@@$$QEAV<lambda_601a2a7da3b7a96e9554ac7215c4b07c>@@@Z 0000000180034ac4     libucrt:signal.obj
 0004:00001ad0       $pdata$__pctype_func       0000000180034ad0     libucrt:ctype.obj
 0004:00001adc       $pdata$iswctype            0000000180034adc     libucrt:iswctype.obj
 0004:00001ae8       $pdata$_isctype_l          0000000180034ae8     libucrt:isctype.obj
 0004:00001af4       $pdata$__acrt_release_locale_ref 0000000180034af4     libucrt:locale_refcounting.obj
 0004:00001b00       $pdata$__acrt_free_locale  0000000180034b00     libucrt:locale_refcounting.obj
 0004:00001b0c       $pdata$__acrt_locale_free_lc_time_if_unreferenced 0000000180034b0c     libucrt:locale_refcounting.obj
 0004:00001b18       $pdata$__acrt_update_thread_locale_data 0000000180034b18     libucrt:locale_refcounting.obj
 0004:00001b24       $pdata$__acrt_update_thread_locale_data$fin$0 0000000180034b24     libucrt:locale_refcounting.obj
 0004:00001b30       $pdata$_updatetlocinfoEx_nolock 0000000180034b30     libucrt:locale_refcounting.obj
 0004:00001b3c       $pdata$__acrt_DownlevelLocaleNameToLCID 0000000180034b3c     libucrt:lcidtoname_downlevel.obj
 0004:00001b48       $pdata$?GetTableIndexFromLocaleName@@YAHPEB_W@Z 0000000180034b48     libucrt:lcidtoname_downlevel.obj
 0004:00001b54       $pdata$_isleadbyte_l       0000000180034b54     libucrt:_wctype.obj
 0004:00001b60       $pdata$__acrt_LCMapStringA 0000000180034b60     libucrt:lcmapstringa.obj
 0004:00001b6c       $pdata$?__acrt_LCMapStringA_stat@@YAHPEAU__crt_locale_pointers@@PEB_WKPEBDHPEADHHH@Z 0000000180034b6c     libucrt:lcmapstringa.obj
 0004:00001b78       $pdata$__acrt_fp_strflt_to_string 0000000180034b78     libucrt:_fptostr.obj
 0004:00001b84       $pdata$memcpy_s            0000000180034b84     libucrt:cfout.obj
 0004:00001b90       $pdata$__acrt_fltout       0000000180034b90     libucrt:cfout.obj
 0004:00001b9c       $pdata$?divide@__crt_strtox@@YA_KAEAUbig_integer@1@AEBU21@@Z 0000000180034b9c     libucrt:cfout.obj
 0004:00001ba8       $pdata$5$?divide@__crt_strtox@@YA_KAEAUbig_integer@1@AEBU21@@Z 0000000180034ba8     libucrt:cfout.obj
 0004:00001bb4       $pdata$6$?divide@__crt_strtox@@YA_KAEAUbig_integer@1@AEBU21@@Z 0000000180034bb4     libucrt:cfout.obj
 0004:00001bc0       $pdata$_fcloseall          0000000180034bc0     libucrt:closeall.obj
 0004:00001bcc       $pdata$_fcloseall$fin$0    0000000180034bcc     libucrt:closeall.obj
 0004:00001bd8       $pdata$_fflush_nolock      0000000180034bd8     libucrt:fflush.obj
 0004:00001be4       $pdata$__acrt_stdio_flush_nolock 0000000180034be4     libucrt:fflush.obj
 0004:00001bf0       $pdata$?common_flush_all@@YAH_N@Z 0000000180034bf0     libucrt:fflush.obj
 0004:00001bfc       $pdata$??$?RV<lambda_842d9ff0dc9ef11c61343bbaebe7f885>@@AEAV<lambda_c5860995281e5c4ce005b3de8f5874ee>@@V<lambda_d90129c13df834fdcbf8d2b88dafcf2d>@@@?$__crt_seh_guarded_call@X@@QEAAX$$QEAV<lambda_842d9ff0dc9ef11c61343bbaebe7f885>@@AEAV<lambda_c5860995281e5c4ce005b3de8f5874ee>@@$$QEAV<lambda_d90129c13df834fdcbf8d2b88dafcf2d>@@@Z 0000000180034bfc     libucrt:fflush.obj
 0004:00001c08       $pdata$?fin$0@?0???$?RV<lambda_842d9ff0dc9ef11c61343bbaebe7f885>@@AEAV<lambda_c5860995281e5c4ce005b3de8f5874ee>@@V<lambda_d90129c13df834fdcbf8d2b88dafcf2d>@@@?$__crt_seh_guarded_call@X@@QEAAX$$QEAV<lambda_842d9ff0dc9ef11c61343bbaebe7f885>@@AEAV<lambda_c5860995281e5c4ce005b3de8f5874ee>@@$$QEAV<lambda_d90129c13df834fdcbf8d2b88dafcf2d>@@@Z@4HA 0000000180034c08     libucrt:fflush.obj
 0004:00001c14       $pdata$??$?RV<lambda_886d6c58226a84441f68b9f2b8217b83>@@AEAV<lambda_ab61a845afdef5b7c387490eaf3616ee>@@V<lambda_f7f22ab5edc0698d5f6905b0d3f44752>@@@?$__crt_seh_guarded_call@X@@QEAAX$$QEAV<lambda_886d6c58226a84441f68b9f2b8217b83>@@AEAV<lambda_ab61a845afdef5b7c387490eaf3616ee>@@$$QEAV<lambda_f7f22ab5edc0698d5f6905b0d3f44752>@@@Z 0000000180034c14     libucrt:fflush.obj
 0004:00001c20       $pdata$?fin$0@?0???$?RV<lambda_886d6c58226a84441f68b9f2b8217b83>@@AEAV<lambda_ab61a845afdef5b7c387490eaf3616ee>@@V<lambda_f7f22ab5edc0698d5f6905b0d3f44752>@@@?$__crt_seh_guarded_call@X@@QEAAX$$QEAV<lambda_886d6c58226a84441f68b9f2b8217b83>@@AEAV<lambda_ab61a845afdef5b7c387490eaf3616ee>@@$$QEAV<lambda_f7f22ab5edc0698d5f6905b0d3f44752>@@@Z@4HA 0000000180034c20     libucrt:fflush.obj
 0004:00001c2c       $pdata$__acrt_stdio_free_buffer_nolock 0000000180034c2c     libucrt:_freebuf.obj
 0004:00001c38       $pdata$_isatty             0000000180034c38     libucrt:isatty.obj
 0004:00001c44       $pdata$__acrt_locale_free_monetary 0000000180034c44     libucrt:initmon.obj
 0004:00001c50       $pdata$__acrt_locale_free_numeric 0000000180034c50     libucrt:initnum.obj
 0004:00001c5c       $pdata$__acrt_locale_free_time 0000000180034c5c     libucrt:inittime.obj
 0004:00001c68       $pdata$?free_crt_array_internal@@YAXQEAPEBX_K@Z 0000000180034c68     libucrt:inittime.obj
