 OPOSPointCardRW

 Timestamp is 61a75844 (Wed Dec  1 20:11:00 2021)

 Preferred load address is 0000000180000000

 Start         Length     Name                   Class
 0001:00000000 000000c0H .text$di                CODE
 0001:000000c0 00024840H .text$mn                CODE
 0001:00024900 00000040H .text$mn$00             CODE
 0001:00024940 00000660H .text$x                 CODE
 0001:00024fa0 00000078H .text$yd                CODE
 0002:00000000 00000638H .idata$5                DATA
 0002:00000638 00000030H .00cfg                  DATA
 0002:00000668 00000008H .CRT$XCA                DATA
 0002:00000670 00000008H .CRT$XCL                DATA
 0002:00000678 00000020H .CRT$XCU                DATA
 0002:00000698 00000008H .CRT$XCZ                DATA
 0002:000006a0 00000008H .CRT$XIA                DATA
 0002:000006a8 00000020H .CRT$XIC                DATA
 0002:000006c8 00000008H .CRT$XIZ                DATA
 0002:000006d0 00000008H .CRT$XLA                DATA
 0002:000006d8 00000008H .CRT$XLZ                DATA
 0002:000006e0 00000008H .CRT$XPA                DATA
 0002:000006e8 00000010H .CRT$XPX                DATA
 0002:000006f8 00000008H .CRT$XPXA               DATA
 0002:00000700 00000008H .CRT$XPZ                DATA
 0002:00000708 00000008H .CRT$XTA                DATA
 0002:00000710 00000010H .CRT$XTZ                DATA
 0002:00000718 00000000H .gehcont$y              DATA
 0002:00000718 00000000H .gfids$y                DATA
 0002:00000720 0000a960H .rdata                  DATA
 0002:0000b080 00000000H .rdata$CastGuardVftablesA DATA
 0002:0000b080 00000000H .rdata$CastGuardVftablesC DATA
 0002:0000b080 00000028H .rdata$T                DATA
 0002:0000b0a8 00000274H .rdata$r                DATA
 0002:0000b31c 00000048H .rdata$voltmd           DATA
 0002:0000b364 00000434H .rdata$zzzdbg           DATA
 0002:0000b798 00000008H .rtc$IAA                DATA
 0002:0000b7a0 00000008H .rtc$IZZ                DATA
 0002:0000b7a8 00000008H .rtc$TAA                DATA
 0002:0000b7b0 00000008H .rtc$TZZ                DATA
 0002:0000b7b8 00000004H .tls                    DATA
 0002:0000b7bc 00000004H .tls$                   DATA
 0002:0000b7c0 00000008H .tls$ZZZ                DATA
 0002:0000b7c8 00001978H .xdata                  DATA
 0002:0000d140 00000150H .xdata$x                DATA
 0002:0000d290 00000008H ATL$__a                 DATA
 0002:0000d298 00000008H ATL$__z                 DATA
 0002:0000d2a0 000000acH .edata                  DATA
 0002:0000d34c 00000078H .idata$2                DATA
 0002:0000d3c4 00000014H .idata$3                DATA
 0002:0000d3d8 00000638H .idata$4                DATA
 0002:0000da10 00000c5cH .idata$6                DATA
 0003:00000000 00000dd8H .data                   DATA
 0003:00000dd8 000000a8H .data$r                 DATA
 0003:00000e80 00000020H .data$rs                DATA
 0003:00000ea0 000013ecH .bss                    DATA
 0004:00000000 00002118H .pdata                  DATA
 0005:00000000 000000f4H _RDATA                  DATA
 0006:00000000 00000220H .rsrc$01                DATA
 0006:00000220 00005df0H .rsrc$02                DATA

  Address         Publics by Value              Rva+Base               Lib:Object

 0000:00000000       __guard_longjmp_table      0000000000000000     <absolute>
 0000:00000000       __x64_code_ranges_to_entry_points 0000000000000000     <absolute>
 0000:00000000       __x64_code_ranges_to_entry_points_count 0000000000000000     <absolute>
 0000:00000000       __guard_fids_count         0000000000000000     <absolute>
 0000:00000000       __arm64x_redirection_metadata 0000000000000000     <absolute>
 0000:00000000       __arm64x_extra_rfe_table   0000000000000000     <absolute>
 0000:00000000       __guard_iat_table          0000000000000000     <absolute>
 0000:00000000       __hybrid_code_map          0000000000000000     <absolute>
 0000:00000000       __guard_iat_count          0000000000000000     <absolute>
 0000:00000000       __arm64x_extra_rfe_table_size 0000000000000000     <absolute>
 0000:00000000       __guard_longjmp_count      0000000000000000     <absolute>
 0000:00000000       ___safe_se_handler_count   0000000000000000     <absolute>
 0000:00000000       ___safe_se_handler_table   0000000000000000     <absolute>
 0000:00000000       __dynamic_value_reloc_table 0000000000000000     <absolute>
 0000:00000000       __hybrid_auxiliary_iat     0000000000000000     <absolute>
 0000:00000000       __hybrid_auxiliary_iat_copy 0000000000000000     <absolute>
 0000:00000000       __AbsoluteZero             0000000000000000     <absolute>
 0000:00000000       __guard_eh_cont_count      0000000000000000     <absolute>
 0000:00000000       __guard_check_icall_a64n_fptr 0000000000000000     <absolute>
 0000:00000000       __guard_fids_table         0000000000000000     <absolute>
 0000:00000000       __arm64x_redirection_metadata_count 0000000000000000     <absolute>
 0000:00000000       __enclave_config           0000000000000000     <absolute>
 0000:00000000       __guard_eh_cont_table      0000000000000000     <absolute>
 0000:00000000       __arm64x_native_entrypoint 0000000000000000     <absolute>
 0000:00000000       __hybrid_code_map_count    0000000000000000     <absolute>
 0000:00000100       __guard_flags              0000000000000100     <absolute>
 0000:00000000       __ImageBase                0000000180000000     <linker-defined>
 0001:000000c0       ?DupWide@_CW@@AEAAXXZ      00000001800010c0 f   CWString.obj
 0001:000000e8       ?cw_dup@@YAXPEBDAEAHAEAPEA_W1@Z 00000001800010e8 f   CWString.obj
 0001:000001c8       ?cw_memcpy@@YAHPEA_WPEBDH@Z 00000001800011c8 f   CWString.obj
 0001:00000214       ?cw_strcpy@@YAHPEA_WPEBD@Z 0000000180001214 f   CWString.obj
 0001:00000228       ??0CAtlComModule@ATL@@QEAA@XZ 0000000180001228 f i OposVariant.obj
 0001:000002a8       ??0CAtlWinModule@ATL@@QEAA@XZ 00000001800012a8 f i OposVariant.obj
 0001:00000314       ??0OposDispParms@@QEAA@PEAVOposVariant@@H@Z 0000000180001314 f   OposVariant.obj
 0001:000003bc       ??1OposDispParms@@QEAA@XZ  00000001800013bc f   OposVariant.obj
 0001:000003d4       ??_Estringdispid@CComTypeInfoHolder@ATL@@QEAAPEAXI@Z 00000001800013d4 f i OposVariant.obj
 0001:00000478       ?AtlWinModuleTerm@ATL@@YAJPEAU_ATL_WIN_MODULE70@1@PEAUHINSTANCE__@@@Z 0000000180001478 f i OposVariant.obj
 0001:00000528       ?ChangeBSTR@OposVariant@@QEAAXPEAPEA_WAEAJ@Z 0000000180001528 f   OposVariant.obj
 0001:00000588       ?ChangeLONG@OposVariant@@QEAAXPEAJAEAJ@Z 0000000180001588 f   OposVariant.obj
 0001:000005e4       ?GetLONG@OposVariant@@QEAAJXZ 00000001800015e4 f   OposVariant.obj
 0001:00000608       ?SetBSTR@OposVariant@@QEAAXPEA_WAEAJ@Z 0000000180001608 f   OposVariant.obj
 0001:00000648       ?SetBSTR_Copy@OposVariant@@QEAAXPEA_WAEAJ@Z 0000000180001648 f   OposVariant.obj
 0001:000006b8       ?SetBSTR_InOutPtr@OposVariant@@QEAA_NPEAPEA_WAEAJ@Z 00000001800016b8 f   OposVariant.obj
 0001:00000708       ?SetDispatch_Ptr@OposVariant@@QEAAXPEAUIDispatch@@AEAJ@Z 0000000180001708 f   OposVariant.obj
 0001:00000760       ?SetLONG@OposVariant@@QEAAXJ@Z 0000000180001760 f   OposVariant.obj
 0001:00000790       ?SetLONG_Ptr@OposVariant@@QEAAXPEAJAEAJ@Z 0000000180001790 f   OposVariant.obj
 0001:000007dc       ?SetString@OposVariant@@QEAAXPEB_WAEAJ@Z 00000001800017dc f   OposVariant.obj
 0001:00000840       ?SetVARIANT_BOOL@OposVariant@@QEAAXF@Z 0000000180001840 f   OposVariant.obj
 0001:00000878       ?Term@CAtlComModule@ATL@@QEAAXXZ 0000000180001878 f i OposVariant.obj
 0001:000008e8       ?_AtlInitializeCriticalSectionEx@ATL@@YAHPEAU_RTL_CRITICAL_SECTION@@KK@Z 00000001800018e8 f i OposVariant.obj
 0001:000008f0       ?_AtlRaiseException@ATL@@YAXKK@Z 00000001800018f0 f i OposVariant.obj
 0001:00000900       ?Next@?$CComEnumImpl@UIEnumConnections@@$1?_GUID_b196b287_bab4_101a_b69c_00aa00341d07@@3U__s_GUID@@BUtagCONNECTDATA@@V?$_Copy@UtagCONNECTDATA@@@ATL@@@ATL@@UEAAJKPEAUtagCONNECTDATA@@PEAK@Z 0000000180001900 f i PointCardRW.obj
 0001:000009c8       ?Skip@?$CComEnumImpl@UIEnumConnections@@$1?_GUID_b196b287_bab4_101a_b69c_00aa00341d07@@3U__s_GUID@@BUtagCONNECTDATA@@V?$_Copy@UtagCONNECTDATA@@@ATL@@@ATL@@UEAAJK@Z 00000001800019c8 f i PointCardRW.obj
 0001:000009f4       ?Reset@?$CComEnumImpl@UIEnumConnectionPoints@@$1?_GUID_b196b285_bab4_101a_b69c_00aa00341d07@@3U__s_GUID@@BPEAUIConnectionPoint@@V?$_CopyInterface@UIConnectionPoint@@@ATL@@@ATL@@UEAAJXZ 00000001800019f4 f i PointCardRW.obj
 0001:000009f4       ?Reset@?$CComEnumImpl@UIEnumConnections@@$1?_GUID_b196b287_bab4_101a_b69c_00aa00341d07@@3U__s_GUID@@BUtagCONNECTDATA@@V?$_Copy@UtagCONNECTDATA@@@ATL@@@ATL@@UEAAJXZ 00000001800019f4 f i PointCardRW.obj
 0001:00000a00       ?Clone@?$CComEnumImpl@UIEnumConnections@@$1?_GUID_b196b287_bab4_101a_b69c_00aa00341d07@@3U__s_GUID@@BUtagCONNECTDATA@@V?$_Copy@UtagCONNECTDATA@@@ATL@@@ATL@@UEAAJPEAPEAUIEnumConnections@@@Z 0000000180001a00 f i PointCardRW.obj
 0001:00000b2c       ?OnFinalMessage@?$CWindowImplBaseT@VCWindow@ATL@@V?$CWinTraits@$0FGAAAAAA@$0A@@2@@ATL@@UEAAXPEAUHWND__@@@Z 0000000180001b2c f i PointCardRW.obj
 0001:00000b2c       _guard_check_icall_nop     0000000180001b2c f i LIBCMT:guard_support.obj
 0001:00000b2c       ?ObjectMain@CComObjectRootBase@ATL@@SAX_N@Z 0000000180001b2c f i PointCardRW.obj
 0001:00000b30       ?IsUpToDate@?$IOleObjectImpl@VCOPOSPointCardRW@@@ATL@@UEAAJXZ 0000000180001b30 f i PointCardRW.obj
 0001:00000b30       ?ResizeBorder@?$IOleInPlaceActiveObjectImpl@VCOPOSPointCardRW@@@ATL@@UEAAJPEBUtagRECT@@PEAUIOleInPlaceUIWindow@@H@Z 0000000180001b30 f i PointCardRW.obj
 0001:00000b30       ?SetHostNames@?$IOleObjectImpl@VCOPOSPointCardRW@@@ATL@@UEAAJPEB_W0@Z 0000000180001b30 f i PointCardRW.obj
 0001:00000b30       ?EnableModeless@?$IOleInPlaceActiveObjectImpl@VCOPOSPointCardRW@@@ATL@@UEAAJH@Z 0000000180001b30 f i PointCardRW.obj
 0001:00000b30       ?OnFrameWindowActivate@?$IOleInPlaceActiveObjectImpl@VCOPOSPointCardRW@@@ATL@@UEAAJH@Z 0000000180001b30 f i PointCardRW.obj
 0001:00000b30       ?HandsOffStorage@?$IPersistStorageImpl@VCOPOSPointCardRW@@@ATL@@UEAAJXZ 0000000180001b30 f i PointCardRW.obj
 0001:00000b30       ?SaveCompleted@?$IPersistStorageImpl@VCOPOSPointCardRW@@@ATL@@UEAAJPEAUIStorage@@@Z 0000000180001b30 f i PointCardRW.obj
 0001:00000b30       ?Release@CRegObject@ATL@@UEAAKXZ 0000000180001b30 f i PointCardRW.obj
 0001:00000b30       ?GetCategoryMap@CComObjectRootBase@ATL@@SAPEBU_ATL_CATMAP_ENTRY@2@XZ 0000000180001b30 f i PointCardRW.obj
 0001:00000b30       ?GetObjectDescription@?$CComCoClass@VCOPOSPointCardRW@@$1?CLSID_OPOSPointCardRW@@3U_GUID@@B@ATL@@SAPEB_WXZ 0000000180001b30 f i PointCardRW.obj
 0001:00000b30       ?OnAmbientPropertyChange@?$IOleControlImpl@VCOPOSPointCardRW@@@ATL@@UEAAJJ@Z 0000000180001b30 f i PointCardRW.obj
 0001:00000b30       ?Update@?$IOleObjectImpl@VCOPOSPointCardRW@@@ATL@@UEAAJXZ 0000000180001b30 f i PointCardRW.obj
 0001:00000b34       ?AddRef@?$CComObject@V?$CComEnum@UIEnumConnectionPoints@@$1?_GUID_b196b285_bab4_101a_b69c_00aa00341d07@@3U__s_GUID@@BPEAUIConnectionPoint@@V?$_CopyInterface@UIConnectionPoint@@@ATL@@VCComSingleThreadModel@6@@ATL@@@ATL@@UEAAKXZ 0000000180001b34 f i PointCardRW.obj
 0001:00000b34       ?AddRef@?$CComObject@V?$CComEnum@UIEnumConnections@@$1?_GUID_b196b287_bab4_101a_b69c_00aa00341d07@@3U__s_GUID@@BUtagCONNECTDATA@@V?$_Copy@UtagCONNECTDATA@@@ATL@@VCComSingleThreadModel@6@@ATL@@@ATL@@UEAAKXZ 0000000180001b34 f i PointCardRW.obj
 0001:00000b40       ?Release@?$CComObject@V?$CComEnum@UIEnumConnectionPoints@@$1?_GUID_b196b285_bab4_101a_b69c_00aa00341d07@@3U__s_GUID@@BPEAUIConnectionPoint@@V?$_CopyInterface@UIConnectionPoint@@@ATL@@VCComSingleThreadModel@6@@ATL@@@ATL@@UEAAKXZ 0000000180001b40 f i PointCardRW.obj
 0001:00000b40       ?Release@?$CComObject@V?$CComEnum@UIEnumConnections@@$1?_GUID_b196b287_bab4_101a_b69c_00aa00341d07@@3U__s_GUID@@BUtagCONNECTDATA@@V?$_Copy@UtagCONNECTDATA@@@ATL@@VCComSingleThreadModel@6@@ATL@@@ATL@@UEAAKXZ 0000000180001b40 f i PointCardRW.obj
 0001:00000b94       ?QueryInterface@?$CComObject@V?$CComEnum@UIEnumConnections@@$1?_GUID_b196b287_bab4_101a_b69c_00aa00341d07@@3U__s_GUID@@BUtagCONNECTDATA@@V?$_Copy@UtagCONNECTDATA@@@ATL@@VCComSingleThreadModel@6@@ATL@@@ATL@@UEAAJAEBU_GUID@@PEAPEAX@Z 0000000180001b94 f i PointCardRW.obj
 0001:00000ba8       ??_G?$CComObject@V?$CComEnum@UIEnumConnections@@$1?_GUID_b196b287_bab4_101a_b69c_00aa00341d07@@3U__s_GUID@@BUtagCONNECTDATA@@V?$_Copy@UtagCONNECTDATA@@@ATL@@VCComSingleThreadModel@6@@ATL@@@ATL@@UEAAPEAXI@Z 0000000180001ba8 f i PointCardRW.obj
 0001:00000ba8       ??_E?$CComObject@V?$CComEnum@UIEnumConnections@@$1?_GUID_b196b287_bab4_101a_b69c_00aa00341d07@@3U__s_GUID@@BUtagCONNECTDATA@@V?$_Copy@UtagCONNECTDATA@@@ATL@@VCComSingleThreadModel@6@@ATL@@@ATL@@UEAAPEAXI@Z 0000000180001ba8 f i PointCardRW.obj
 0001:00000c00       ?CreateInstance@CComClassFactory@ATL@@UEAAJPEAUIUnknown@@AEBU_GUID@@PEAPEAX@Z 0000000180001c00 f i PointCardRW.obj
 0001:00000c60       ?LockServer@CComClassFactory@ATL@@UEAAJH@Z 0000000180001c60 f i PointCardRW.obj
 0001:00000c84       ??_ECComClassFactory@ATL@@UEAAPEAXI@Z 0000000180001c84 f i PointCardRW.obj
 0001:00000c84       ??_GCComClassFactory@ATL@@UEAAPEAXI@Z 0000000180001c84 f i PointCardRW.obj
 0001:00000cd4       ??_E?$CComObject@VCOPOSPointCardRW@@@ATL@@W7EAAPEAXI@Z 0000000180001cd4 f i PointCardRW.obj
 0001:00000ce0       ??_E?$CComObject@VCOPOSPointCardRW@@@ATL@@WHA@EAAPEAXI@Z 0000000180001ce0 f i PointCardRW.obj
 0001:00000cec       ?QueryInterface@?$CComObject@VCOPOSPointCardRW@@@ATL@@WLI@EAAJAEBU_GUID@@PEAPEAX@Z 0000000180001cec f i PointCardRW.obj
 0001:00000cf8       ?AddRef@?$CComObject@VCOPOSPointCardRW@@@ATL@@WLI@EAAKXZ 0000000180001cf8 f i PointCardRW.obj
 0001:00000d04       ?Release@?$CComObject@VCOPOSPointCardRW@@@ATL@@WLI@EAAKXZ 0000000180001d04 f i PointCardRW.obj
 0001:00000d10       ?QueryInterface@?$CComObject@VCOPOSPointCardRW@@@ATL@@WMA@EAAJAEBU_GUID@@PEAPEAX@Z 0000000180001d10 f i PointCardRW.obj
 0001:00000d1c       ?AddRef@?$CComObject@VCOPOSPointCardRW@@@ATL@@WMA@EAAKXZ 0000000180001d1c f i PointCardRW.obj
 0001:00000d28       ?Release@?$CComObject@VCOPOSPointCardRW@@@ATL@@WMA@EAAKXZ 0000000180001d28 f i PointCardRW.obj
 0001:00000d34       ?QueryInterface@?$CComObject@VCOPOSPointCardRW@@@ATL@@WMI@EAAJAEBU_GUID@@PEAPEAX@Z 0000000180001d34 f i PointCardRW.obj
 0001:00000d40       ?AddRef@?$CComObject@VCOPOSPointCardRW@@@ATL@@WMI@EAAKXZ 0000000180001d40 f i PointCardRW.obj
 0001:00000d4c       ?Release@?$CComObject@VCOPOSPointCardRW@@@ATL@@WMI@EAAKXZ 0000000180001d4c f i PointCardRW.obj
 0001:00000d58       ?QueryInterface@?$CComObject@VCOPOSPointCardRW@@@ATL@@WNA@EAAJAEBU_GUID@@PEAPEAX@Z 0000000180001d58 f i PointCardRW.obj
 0001:00000d64       ?AddRef@?$CComObject@VCOPOSPointCardRW@@@ATL@@WNA@EAAKXZ 0000000180001d64 f i PointCardRW.obj
 0001:00000d70       ?Release@?$CComObject@VCOPOSPointCardRW@@@ATL@@WNA@EAAKXZ 0000000180001d70 f i PointCardRW.obj
 0001:00000d7c       ?QueryInterface@?$CComObject@VCOPOSPointCardRW@@@ATL@@WNI@EAAJAEBU_GUID@@PEAPEAX@Z 0000000180001d7c f i PointCardRW.obj
 0001:00000d88       ?AddRef@?$CComObject@VCOPOSPointCardRW@@@ATL@@WNI@EAAKXZ 0000000180001d88 f i PointCardRW.obj
 0001:00000d94       ?Release@?$CComObject@VCOPOSPointCardRW@@@ATL@@WNI@EAAKXZ 0000000180001d94 f i PointCardRW.obj
 0001:00000da0       ?QueryInterface@?$CComObject@VCOPOSPointCardRW@@@ATL@@WOA@EAAJAEBU_GUID@@PEAPEAX@Z 0000000180001da0 f i PointCardRW.obj
 0001:00000dac       ?AddRef@?$CComObject@VCOPOSPointCardRW@@@ATL@@WOA@EAAKXZ 0000000180001dac f i PointCardRW.obj
 0001:00000db8       ?Release@?$CComObject@VCOPOSPointCardRW@@@ATL@@WOA@EAAKXZ 0000000180001db8 f i PointCardRW.obj
 0001:00000dc4       ?QueryInterface@?$CComObject@VCOPOSPointCardRW@@@ATL@@WOI@EAAJAEBU_GUID@@PEAPEAX@Z 0000000180001dc4 f i PointCardRW.obj
 0001:00000dd0       ?AddRef@?$CComObject@VCOPOSPointCardRW@@@ATL@@WOI@EAAKXZ 0000000180001dd0 f i PointCardRW.obj
 0001:00000ddc       ?Release@?$CComObject@VCOPOSPointCardRW@@@ATL@@WOI@EAAKXZ 0000000180001ddc f i PointCardRW.obj
 0001:00000de8       ?QueryInterface@?$CComObject@VCOPOSPointCardRW@@@ATL@@WPA@EAAJAEBU_GUID@@PEAPEAX@Z 0000000180001de8 f i PointCardRW.obj
 0001:00000df4       ?AddRef@?$CComObject@VCOPOSPointCardRW@@@ATL@@WPA@EAAKXZ 0000000180001df4 f i PointCardRW.obj
 0001:00000e00       ?Release@?$CComObject@VCOPOSPointCardRW@@@ATL@@WPA@EAAKXZ 0000000180001e00 f i PointCardRW.obj
 0001:00000e0c       ?QueryInterface@?$CComObject@VCOPOSPointCardRW@@@ATL@@WPI@EAAJAEBU_GUID@@PEAPEAX@Z 0000000180001e0c f i PointCardRW.obj
 0001:00000e18       ?AddRef@?$CComObject@VCOPOSPointCardRW@@@ATL@@WPI@EAAKXZ 0000000180001e18 f i PointCardRW.obj
 0001:00000e24       ?Release@?$CComObject@VCOPOSPointCardRW@@@ATL@@WPI@EAAKXZ 0000000180001e24 f i PointCardRW.obj
 0001:00000e30       ?QueryInterface@?$CComObject@VCOPOSPointCardRW@@@ATL@@WBAA@EAAJAEBU_GUID@@PEAPEAX@Z 0000000180001e30 f i PointCardRW.obj
 0001:00000e3c       ?AddRef@?$CComObject@VCOPOSPointCardRW@@@ATL@@WBAA@EAAKXZ 0000000180001e3c f i PointCardRW.obj
 0001:00000e48       ?Release@?$CComObject@VCOPOSPointCardRW@@@ATL@@WBAA@EAAKXZ 0000000180001e48 f i PointCardRW.obj
 0001:00000e54       ?QueryInterface@?$CComObject@VCOPOSPointCardRW@@@ATL@@WBAI@EAAJAEBU_GUID@@PEAPEAX@Z 0000000180001e54 f i PointCardRW.obj
 0001:00000e60       ?AddRef@?$CComObject@VCOPOSPointCardRW@@@ATL@@WBAI@EAAKXZ 0000000180001e60 f i PointCardRW.obj
 0001:00000e6c       ?Release@?$CComObject@VCOPOSPointCardRW@@@ATL@@WBAI@EAAKXZ 0000000180001e6c f i PointCardRW.obj
 0001:00000e78       ?QueryInterface@?$CComObject@VCOPOSPointCardRW@@@ATL@@WBBA@EAAJAEBU_GUID@@PEAPEAX@Z 0000000180001e78 f i PointCardRW.obj
 0001:00000e84       ?AddRef@?$CComObject@VCOPOSPointCardRW@@@ATL@@WBBA@EAAKXZ 0000000180001e84 f i PointCardRW.obj
 0001:00000e90       ?Release@?$CComObject@VCOPOSPointCardRW@@@ATL@@WBBA@EAAKXZ 0000000180001e90 f i PointCardRW.obj
 0001:00000e9c       ?QueryInterface@?$CComObject@VCOPOSPointCardRW@@@ATL@@WBBI@EAAJAEBU_GUID@@PEAPEAX@Z 0000000180001e9c f i PointCardRW.obj
 0001:00000ea8       ?AddRef@?$CComObject@VCOPOSPointCardRW@@@ATL@@WBBI@EAAKXZ 0000000180001ea8 f i PointCardRW.obj
 0001:00000eb4       ?Release@?$CComObject@VCOPOSPointCardRW@@@ATL@@WBBI@EAAKXZ 0000000180001eb4 f i PointCardRW.obj
 0001:00000ec0       ?AddRef@?$CComObject@VCOPOSPointCardRW@@@ATL@@WBCI@EAAKXZ 0000000180001ec0 f i PointCardRW.obj
 0001:00000ecc       ?Release@?$CComObject@VCOPOSPointCardRW@@@ATL@@WBCI@EAAKXZ 0000000180001ecc f i PointCardRW.obj
 0001:00000ed8       ?AddRef@?$CComObject@VCOPOSPointCardRW@@@ATL@@WBEA@EAAKXZ 0000000180001ed8 f i PointCardRW.obj
 0001:00000ee4       ?Release@?$CComObject@VCOPOSPointCardRW@@@ATL@@WBEA@EAAKXZ 0000000180001ee4 f i PointCardRW.obj
 0001:00000ef0       ??_E?$CComContainedObject@VCOPOSPointCardRW@@@ATL@@W7EAAPEAXI@Z 0000000180001ef0 f i PointCardRW.obj
 0001:00000efc       ??_E?$CComContainedObject@VCOPOSPointCardRW@@@ATL@@WHA@EAAPEAXI@Z 0000000180001efc f i PointCardRW.obj
 0001:00000f08       ?QueryInterface@?$CComContainedObject@VCOPOSPointCardRW@@@ATL@@WLI@EAAJAEBU_GUID@@PEAPEAX@Z 0000000180001f08 f i PointCardRW.obj
 0001:00000f14       ?AddRef@?$CComContainedObject@VCOPOSPointCardRW@@@ATL@@WLI@EAAKXZ 0000000180001f14 f i PointCardRW.obj
 0001:00000f20       ?Release@?$CComContainedObject@VCOPOSPointCardRW@@@ATL@@WLI@EAAKXZ 0000000180001f20 f i PointCardRW.obj
 0001:00000f2c       ?QueryInterface@?$CComContainedObject@VCOPOSPointCardRW@@@ATL@@WMA@EAAJAEBU_GUID@@PEAPEAX@Z 0000000180001f2c f i PointCardRW.obj
 0001:00000f38       ?AddRef@?$CComContainedObject@VCOPOSPointCardRW@@@ATL@@WMA@EAAKXZ 0000000180001f38 f i PointCardRW.obj
 0001:00000f44       ?Release@?$CComContainedObject@VCOPOSPointCardRW@@@ATL@@WMA@EAAKXZ 0000000180001f44 f i PointCardRW.obj
 0001:00000f50       ?QueryInterface@?$CComContainedObject@VCOPOSPointCardRW@@@ATL@@WMI@EAAJAEBU_GUID@@PEAPEAX@Z 0000000180001f50 f i PointCardRW.obj
 0001:00000f5c       ?AddRef@?$CComContainedObject@VCOPOSPointCardRW@@@ATL@@WMI@EAAKXZ 0000000180001f5c f i PointCardRW.obj
 0001:00000f68       ?Release@?$CComContainedObject@VCOPOSPointCardRW@@@ATL@@WMI@EAAKXZ 0000000180001f68 f i PointCardRW.obj
 0001:00000f74       ?QueryInterface@?$CComContainedObject@VCOPOSPointCardRW@@@ATL@@WNA@EAAJAEBU_GUID@@PEAPEAX@Z 0000000180001f74 f i PointCardRW.obj
 0001:00000f80       ?AddRef@?$CComContainedObject@VCOPOSPointCardRW@@@ATL@@WNA@EAAKXZ 0000000180001f80 f i PointCardRW.obj
 0001:00000f8c       ?Release@?$CComContainedObject@VCOPOSPointCardRW@@@ATL@@WNA@EAAKXZ 0000000180001f8c f i PointCardRW.obj
 0001:00000f98       ?QueryInterface@?$CComContainedObject@VCOPOSPointCardRW@@@ATL@@WNI@EAAJAEBU_GUID@@PEAPEAX@Z 0000000180001f98 f i PointCardRW.obj
 0001:00000fa4       ?AddRef@?$CComContainedObject@VCOPOSPointCardRW@@@ATL@@WNI@EAAKXZ 0000000180001fa4 f i PointCardRW.obj
 0001:00000fb0       ?Release@?$CComContainedObject@VCOPOSPointCardRW@@@ATL@@WNI@EAAKXZ 0000000180001fb0 f i PointCardRW.obj
 0001:00000fbc       ?QueryInterface@?$CComContainedObject@VCOPOSPointCardRW@@@ATL@@WOA@EAAJAEBU_GUID@@PEAPEAX@Z 0000000180001fbc f i PointCardRW.obj
 0001:00000fc8       ?AddRef@?$CComContainedObject@VCOPOSPointCardRW@@@ATL@@WOA@EAAKXZ 0000000180001fc8 f i PointCardRW.obj
 0001:00000fd4       ?Release@?$CComContainedObject@VCOPOSPointCardRW@@@ATL@@WOA@EAAKXZ 0000000180001fd4 f i PointCardRW.obj
 0001:00000fe0       ?QueryInterface@?$CComContainedObject@VCOPOSPointCardRW@@@ATL@@WOI@EAAJAEBU_GUID@@PEAPEAX@Z 0000000180001fe0 f i PointCardRW.obj
 0001:00000fec       ?AddRef@?$CComContainedObject@VCOPOSPointCardRW@@@ATL@@WOI@EAAKXZ 0000000180001fec f i PointCardRW.obj
 0001:00000ff8       ?Release@?$CComContainedObject@VCOPOSPointCardRW@@@ATL@@WOI@EAAKXZ 0000000180001ff8 f i PointCardRW.obj
 0001:00001004       ?QueryInterface@?$CComContainedObject@VCOPOSPointCardRW@@@ATL@@WPA@EAAJAEBU_GUID@@PEAPEAX@Z 0000000180002004 f i PointCardRW.obj
 0001:00001010       ?AddRef@?$CComContainedObject@VCOPOSPointCardRW@@@ATL@@WPA@EAAKXZ 0000000180002010 f i PointCardRW.obj
 0001:0000101c       ?Release@?$CComContainedObject@VCOPOSPointCardRW@@@ATL@@WPA@EAAKXZ 000000018000201c f i PointCardRW.obj
 0001:00001028       ?QueryInterface@?$CComContainedObject@VCOPOSPointCardRW@@@ATL@@WPI@EAAJAEBU_GUID@@PEAPEAX@Z 0000000180002028 f i PointCardRW.obj
 0001:00001034       ?AddRef@?$CComContainedObject@VCOPOSPointCardRW@@@ATL@@WPI@EAAKXZ 0000000180002034 f i PointCardRW.obj
 0001:00001040       ?Release@?$CComContainedObject@VCOPOSPointCardRW@@@ATL@@WPI@EAAKXZ 0000000180002040 f i PointCardRW.obj
 0001:0000104c       ?QueryInterface@?$CComContainedObject@VCOPOSPointCardRW@@@ATL@@WBAA@EAAJAEBU_GUID@@PEAPEAX@Z 000000018000204c f i PointCardRW.obj
 0001:00001058       ?AddRef@?$CComContainedObject@VCOPOSPointCardRW@@@ATL@@WBAA@EAAKXZ 0000000180002058 f i PointCardRW.obj
 0001:00001064       ?Release@?$CComContainedObject@VCOPOSPointCardRW@@@ATL@@WBAA@EAAKXZ 0000000180002064 f i PointCardRW.obj
 0001:00001070       ?QueryInterface@?$CComContainedObject@VCOPOSPointCardRW@@@ATL@@WBAI@EAAJAEBU_GUID@@PEAPEAX@Z 0000000180002070 f i PointCardRW.obj
 0001:0000107c       ?AddRef@?$CComContainedObject@VCOPOSPointCardRW@@@ATL@@WBAI@EAAKXZ 000000018000207c f i PointCardRW.obj
 0001:00001088       ?Release@?$CComContainedObject@VCOPOSPointCardRW@@@ATL@@WBAI@EAAKXZ 0000000180002088 f i PointCardRW.obj
 0001:00001094       ?QueryInterface@?$CComContainedObject@VCOPOSPointCardRW@@@ATL@@WBBA@EAAJAEBU_GUID@@PEAPEAX@Z 0000000180002094 f i PointCardRW.obj
 0001:000010a0       ?AddRef@?$CComContainedObject@VCOPOSPointCardRW@@@ATL@@WBBA@EAAKXZ 00000001800020a0 f i PointCardRW.obj
 0001:000010ac       ?Release@?$CComContainedObject@VCOPOSPointCardRW@@@ATL@@WBBA@EAAKXZ 00000001800020ac f i PointCardRW.obj
 0001:000010b8       ?QueryInterface@?$CComContainedObject@VCOPOSPointCardRW@@@ATL@@WBBI@EAAJAEBU_GUID@@PEAPEAX@Z 00000001800020b8 f i PointCardRW.obj
 0001:000010c4       ?AddRef@?$CComContainedObject@VCOPOSPointCardRW@@@ATL@@WBBI@EAAKXZ 00000001800020c4 f i PointCardRW.obj
 0001:000010d0       ?Release@?$CComContainedObject@VCOPOSPointCardRW@@@ATL@@WBBI@EAAKXZ 00000001800020d0 f i PointCardRW.obj
 0001:000010dc       ?AddRef@?$CComContainedObject@VCOPOSPointCardRW@@@ATL@@WBCI@EAAKXZ 00000001800020dc f i PointCardRW.obj
 0001:000010e8       ?Release@?$CComContainedObject@VCOPOSPointCardRW@@@ATL@@WBCI@EAAKXZ 00000001800020e8 f i PointCardRW.obj
 0001:000010f4       ?AddRef@?$CComContainedObject@VCOPOSPointCardRW@@@ATL@@WBEA@EAAKXZ 00000001800020f4 f i PointCardRW.obj
 0001:00001100       ?Release@?$CComContainedObject@VCOPOSPointCardRW@@@ATL@@WBEA@EAAKXZ 0000000180002100 f i PointCardRW.obj
 0001:0000110c       ?GetWindowProc@?$CWindowImplBaseT@VCWindow@ATL@@V?$CWinTraits@$0FGAAAAAA@$0A@@2@@ATL@@UEAAP6A_JPEAUHWND__@@I_K_J@ZXZ 000000018000210c f i PointCardRW.obj
 0001:00001114       ?StartWindowProc@?$CWindowImplBaseT@VCWindow@ATL@@V?$CWinTraits@$0FGAAAAAA@$0A@@2@@ATL@@SA_JPEAUHWND__@@I_K_J@Z 0000000180002114 f i PointCardRW.obj
 0001:000011c8       ?GetTypeInfoCount@?$IDispatchImpl@UIOPOSPointCardRW@@$1?IID_IOPOSPointCardRW@@3U_GUID@@B$1?LIBID_OposPointCardRW_CCO@@3U3@B$00$0A@VCComTypeInfoHolder@ATL@@@ATL@@UEAAJPEAI@Z 00000001800021c8 f i PointCardRW.obj
 0001:000011dc       ?GetTypeInfo@?$IDispatchImpl@UIOPOSPointCardRW@@$1?IID_IOPOSPointCardRW@@3U_GUID@@B$1?LIBID_OposPointCardRW_CCO@@3U3@B$00$0A@VCComTypeInfoHolder@ATL@@@ATL@@UEAAJIKPEAPEAUITypeInfo@@@Z 00000001800021dc f i PointCardRW.obj
 0001:00001240       ?GetIDsOfNames@?$IDispatchImpl@UIOPOSPointCardRW@@$1?IID_IOPOSPointCardRW@@3U_GUID@@B$1?LIBID_OposPointCardRW_CCO@@3U3@B$00$0A@VCComTypeInfoHolder@ATL@@@ATL@@UEAAJAEBU_GUID@@PEAPEA_WIKPEAJ@Z 0000000180002240 f i PointCardRW.obj
 0001:0000124c       ?Invoke@?$IDispatchImpl@UIOPOSPointCardRW@@$1?IID_IOPOSPointCardRW@@3U_GUID@@B$1?LIBID_OposPointCardRW_CCO@@3U3@B$00$0A@VCComTypeInfoHolder@ATL@@@ATL@@UEAAJJAEBU_GUID@@KGPEAUtagDISPPARAMS@@PEAUtagVARIANT@@PEAUtagEXCEPINFO@@PEAI@Z 000000018000224c f i PointCardRW.obj
 0001:000012dc       ?CreateControlWindow@?$CComControl@VCOPOSPointCardRW@@V?$CWindowImpl@VCOPOSPointCardRW@@VCWindow@ATL@@V?$CWinTraits@$0FGAAAAAA@$0A@@3@@ATL@@@ATL@@UEAAPEAUHWND__@@PEAU3@AEAUtagRECT@@@Z 00000001800022dc f i PointCardRW.obj
 0001:00001314       ?ControlQueryInterface@?$CComControl@VCOPOSPointCardRW@@V?$CWindowImpl@VCOPOSPointCardRW@@VCWindow@ATL@@V?$CWinTraits@$0FGAAAAAA@$0A@@3@@ATL@@@ATL@@UEAAJAEBU_GUID@@PEAPEAX@Z 0000000180002314 f i PointCardRW.obj
 0001:00001328       ?GetClassID@?$IPersistStorageImpl@VCOPOSPointCardRW@@@ATL@@UEAAJPEAU_GUID@@@Z 0000000180002328 f i PointCardRW.obj
 0001:00001328       ?GetUserClassID@?$IOleObjectImpl@VCOPOSPointCardRW@@@ATL@@UEAAJPEAU_GUID@@@Z 0000000180002328 f i PointCardRW.obj
 0001:00001328       ?GetClassID@?$IPersistStreamInitImpl@VCOPOSPointCardRW@@@ATL@@UEAAJPEAU_GUID@@@Z 0000000180002328 f i PointCardRW.obj
 0001:00001344       ?IsDirty@?$IPersistStreamInitImpl@VCOPOSPointCardRW@@@ATL@@UEAAJXZ 0000000180002344 f i PointCardRW.obj
 0001:00001360       ?Load@?$IPersistStreamInitImpl@VCOPOSPointCardRW@@@ATL@@UEAAJPEAUIStream@@@Z 0000000180002360 f i PointCardRW.obj
 0001:00001378       ?Save@?$IPersistStreamInitImpl@VCOPOSPointCardRW@@@ATL@@UEAAJPEAUIStream@@H@Z 0000000180002378 f i PointCardRW.obj
 0001:00001390       ?GetSizeMax@?$IPersistStreamInitImpl@VCOPOSPointCardRW@@@ATL@@UEAAJPEAT_ULARGE_INTEGER@@@Z 0000000180002390 f i PointCardRW.obj
 0001:000015b4       ?InitNew@?$IPersistStreamInitImpl@VCOPOSPointCardRW@@@ATL@@UEAAJXZ 00000001800025b4 f i PointCardRW.obj
 0001:000015cc       ?GetDataHere@?$IDataObjectImpl@VCOPOSPointCardRW@@@ATL@@UEAAJPEAUtagFORMATETC@@PEAUtagSTGMEDIUM@@@Z 00000001800025cc f i PointCardRW.obj
 0001:000015cc       ?GetCanonicalFormatEtc@?$IDataObjectImpl@VCOPOSPointCardRW@@@ATL@@UEAAJPEAUtagFORMATETC@@0@Z 00000001800025cc f i PointCardRW.obj
 0001:000015cc       ?QueryGetData@?$IDataObjectImpl@VCOPOSPointCardRW@@@ATL@@UEAAJPEAUtagFORMATETC@@@Z 00000001800025cc f i PointCardRW.obj
 0001:000015cc       ?SetMoniker@?$IOleObjectImpl@VCOPOSPointCardRW@@@ATL@@UEAAJKPEAUIMoniker@@@Z 00000001800025cc f i PointCardRW.obj
 0001:000015cc       ?InitFromData@?$IOleObjectImpl@VCOPOSPointCardRW@@@ATL@@UEAAJPEAUIDataObject@@HK@Z 00000001800025cc f i PointCardRW.obj
 0001:000015cc       ?Unfreeze@?$IViewObjectExImpl@VCOPOSPointCardRW@@@ATL@@UEAAJK@Z 00000001800025cc f i PointCardRW.obj
 0001:000015cc       ?GetColorSet@?$IViewObjectExImpl@VCOPOSPointCardRW@@@ATL@@UEAAJKJPEAXPEAUtagDVTARGETDEVICE@@PEAUHDC__@@PEAPEAUtagLOGPALETTE@@@Z 00000001800025cc f i PointCardRW.obj
 0001:000015cc       ?ContextSensitiveHelp@?$IOleInPlaceActiveObjectImpl@VCOPOSPointCardRW@@@ATL@@UEAAJH@Z 00000001800025cc f i PointCardRW.obj
 0001:000015cc       ?GetMoniker@?$IOleObjectImpl@VCOPOSPointCardRW@@@ATL@@UEAAJKKPEAPEAUIMoniker@@@Z 00000001800025cc f i PointCardRW.obj
 0001:000015cc       ?GetRect@?$IViewObjectExImpl@VCOPOSPointCardRW@@@ATL@@UEAAJKPEAU_RECTL@@@Z 00000001800025cc f i PointCardRW.obj
 0001:000015cc       ?GetClipboardData@?$IOleObjectImpl@VCOPOSPointCardRW@@@ATL@@UEAAJKPEAPEAUIDataObject@@@Z 00000001800025cc f i PointCardRW.obj
 0001:000015cc       ?SetData@?$IDataObjectImpl@VCOPOSPointCardRW@@@ATL@@UEAAJPEAUtagFORMATETC@@PEAUtagSTGMEDIUM@@H@Z 00000001800025cc f i PointCardRW.obj
 0001:000015cc       ?EnumFormatEtc@?$IDataObjectImpl@VCOPOSPointCardRW@@@ATL@@UEAAJKPEAPEAUIEnumFORMATETC@@@Z 00000001800025cc f i PointCardRW.obj
 0001:000015cc       ?ReactivateAndUndo@?$IOleInPlaceObjectWindowlessImpl@VCOPOSPointCardRW@@@ATL@@UEAAJXZ 00000001800025cc f i PointCardRW.obj
 0001:000015cc       ?Freeze@?$IViewObjectExImpl@VCOPOSPointCardRW@@@ATL@@UEAAJKJPEAXPEAK@Z 00000001800025cc f i PointCardRW.obj
 0001:000015cc       ?GetDropTarget@?$IOleInPlaceObjectWindowlessImpl@VCOPOSPointCardRW@@@ATL@@UEAAJPEAPEAUIDropTarget@@@Z 00000001800025cc f i PointCardRW.obj
 0001:000015cc       ?GetControlInfo@?$IOleControlImpl@VCOPOSPointCardRW@@@ATL@@UEAAJPEAUtagCONTROLINFO@@@Z 00000001800025cc f i PointCardRW.obj
 0001:000015cc       ?SetColorScheme@?$IOleObjectImpl@VCOPOSPointCardRW@@@ATL@@UEAAJPEAUtagLOGPALETTE@@@Z 00000001800025cc f i PointCardRW.obj
 0001:000015cc       ?ContextSensitiveHelp@?$IOleInPlaceObjectWindowlessImpl@VCOPOSPointCardRW@@@ATL@@UEAAJH@Z 00000001800025cc f i PointCardRW.obj
 0001:000015cc       ?OnMnemonic@?$IOleControlImpl@VCOPOSPointCardRW@@@ATL@@UEAAJPEAUtagMSG@@@Z 00000001800025cc f i PointCardRW.obj
 0001:000015cc       ?QueryInterface@CRegObject@ATL@@UEAAJAEBU_GUID@@PEAPEAX@Z 00000001800025cc f i PointCardRW.obj
 0001:000015d4       ?SetClientSite@?$IOleObjectImpl@VCOPOSPointCardRW@@@ATL@@UEAAJPEAUIOleClientSite@@@Z 00000001800025d4 f i PointCardRW.obj
 0001:000015f0       ?GetClientSite@?$IOleObjectImpl@VCOPOSPointCardRW@@@ATL@@UEAAJPEAPEAUIOleClientSite@@@Z 00000001800025f0 f i PointCardRW.obj
 0001:00001638       ?Close@?$IOleObjectImpl@VCOPOSPointCardRW@@@ATL@@UEAAJK@Z 0000000180002638 f i PointCardRW.obj
 0001:00001654       ?DoVerb@?$IOleObjectImpl@VCOPOSPointCardRW@@@ATL@@UEAAJJPEAUtagMSG@@PEAUIOleClientSite@@JPEAUHWND__@@PEBUtagRECT@@@Z 0000000180002654 f i PointCardRW.obj
 0001:000017f8       ?EnumVerbs@?$IOleObjectImpl@VCOPOSPointCardRW@@@ATL@@UEAAJPEAPEAUIEnumOLEVERB@@@Z 00000001800027f8 f i PointCardRW.obj
 0001:00001814       ?GetUserType@?$IOleObjectImpl@VCOPOSPointCardRW@@@ATL@@UEAAJKPEAPEA_W@Z 0000000180002814 f i PointCardRW.obj
 0001:00001824       ?SetExtent@?$IOleObjectImpl@VCOPOSPointCardRW@@@ATL@@UEAAJKPEAUtagSIZE@@@Z 0000000180002824 f i PointCardRW.obj
 0001:00001840       ?GetExtent@?$IOleObjectImpl@VCOPOSPointCardRW@@@ATL@@UEAAJKPEAUtagSIZE@@@Z 0000000180002840 f i PointCardRW.obj
 0001:00001870       ?Advise@?$IOleObjectImpl@VCOPOSPointCardRW@@@ATL@@UEAAJPEAUIAdviseSink@@PEAK@Z 0000000180002870 f i PointCardRW.obj
 0001:000018cc       ?Unadvise@?$IOleObjectImpl@VCOPOSPointCardRW@@@ATL@@UEAAJK@Z 00000001800028cc f i PointCardRW.obj
 0001:00001904       ?EnumAdvise@?$IOleObjectImpl@VCOPOSPointCardRW@@@ATL@@UEAAJPEAPEAUIEnumSTATDATA@@@Z 0000000180002904 f i PointCardRW.obj
 0001:0000194c       ?GetMiscStatus@?$IOleObjectImpl@VCOPOSPointCardRW@@@ATL@@UEAAJKPEAK@Z 000000018000294c f i PointCardRW.obj
 0001:0000195c       ?GetWindow@?$IOleInPlaceActiveObjectImpl@VCOPOSPointCardRW@@@ATL@@UEAAJPEAPEAUHWND__@@@Z 000000018000295c f i PointCardRW.obj
 0001:000019b0       ?TranslateAcceleratorW@?$IOleInPlaceActiveObjectImpl@VCOPOSPointCardRW@@@ATL@@UEAAJPEAUtagMSG@@@Z 00000001800029b0 f i PointCardRW.obj
 0001:00001aa4       ?OnDocWindowActivate@?$IOleInPlaceActiveObjectImpl@VCOPOSPointCardRW@@@ATL@@UEAAJH@Z 0000000180002aa4 f i PointCardRW.obj
 0001:00001ad0       ?Draw@?$IViewObjectExImpl@VCOPOSPointCardRW@@@ATL@@UEAAJKJPEAXPEAUtagDVTARGETDEVICE@@PEAUHDC__@@2PEBU_RECTL@@3P6AH_K@Z4@Z 0000000180002ad0 f i PointCardRW.obj
 0001:00001b34       ?SetAdvise@?$IViewObjectExImpl@VCOPOSPointCardRW@@@ATL@@UEAAJKKPEAUIAdviseSink@@@Z 0000000180002b34 f i PointCardRW.obj
 0001:00001b88       ?GetAdvise@?$IViewObjectExImpl@VCOPOSPointCardRW@@@ATL@@UEAAJPEAK0PEAPEAUIAdviseSink@@@Z 0000000180002b88 f i PointCardRW.obj
 0001:00001bc4       ?GetExtent@?$IViewObjectExImpl@VCOPOSPointCardRW@@@ATL@@UEAAJKJPEAUtagDVTARGETDEVICE@@PEAUtagSIZE@@@Z 0000000180002bc4 f i PointCardRW.obj
 0001:00001bf4       ?GetViewStatus@?$IViewObjectExImpl@VCOPOSPointCardRW@@@ATL@@UEAAJPEAK@Z 0000000180002bf4 f i PointCardRW.obj
 0001:00001c08       ?QueryHitPoint@?$IViewObjectExImpl@VCOPOSPointCardRW@@@ATL@@UEAAJKPEBUtagRECT@@UtagPOINT@@JPEAK@Z 0000000180002c08 f i PointCardRW.obj
 0001:00001c4c       ?QueryHitRect@?$IViewObjectExImpl@VCOPOSPointCardRW@@@ATL@@UEAAJKPEBUtagRECT@@0JPEAK@Z 0000000180002c4c f i PointCardRW.obj
 0001:00001cb4       ?GetNaturalExtent@?$IViewObjectExImpl@VCOPOSPointCardRW@@@ATL@@UEAAJKJPEAUtagDVTARGETDEVICE@@PEAUHDC__@@PEAUtagExtentInfo@@PEAUtagSIZE@@@Z 0000000180002cb4 f i PointCardRW.obj
 0001:00001cfc       ?GetWindow@?$IOleInPlaceObjectWindowlessImpl@VCOPOSPointCardRW@@@ATL@@UEAAJPEAPEAUHWND__@@@Z 0000000180002cfc f i PointCardRW.obj
 0001:00001d50       ?InPlaceDeactivate@?$IOleInPlaceObjectWindowlessImpl@VCOPOSPointCardRW@@@ATL@@UEAAJXZ 0000000180002d50 f i PointCardRW.obj
 0001:00001d6c       ?UIDeactivate@?$IOleInPlaceObjectWindowlessImpl@VCOPOSPointCardRW@@@ATL@@UEAAJXZ 0000000180002d6c f i PointCardRW.obj
 0001:00001d88       ?SetObjectRects@?$IOleInPlaceObjectWindowlessImpl@VCOPOSPointCardRW@@@ATL@@UEAAJPEBUtagRECT@@0@Z 0000000180002d88 f i PointCardRW.obj
 0001:00001da4       ?OnWindowMessage@?$IOleInPlaceObjectWindowlessImpl@VCOPOSPointCardRW@@@ATL@@UEAAJI_K_JPEA_J@Z 0000000180002da4 f i PointCardRW.obj
 0001:00001e6c       ?EnumConnectionPoints@?$IConnectionPointContainerImpl@VCOPOSPointCardRW@@@ATL@@UEAAJPEAPEAUIEnumConnectionPoints@@@Z 0000000180002e6c f i PointCardRW.obj
 0001:000020b4       ?FindConnectionPoint@?$IConnectionPointContainerImpl@VCOPOSPointCardRW@@@ATL@@UEAAJAEBU_GUID@@PEAPEAUIConnectionPoint@@@Z 00000001800030b4 f i PointCardRW.obj
 0001:00002184       ?IsDirty@?$IPersistStorageImpl@VCOPOSPointCardRW@@@ATL@@UEAAJXZ 0000000180003184 f i PointCardRW.obj
 0001:000021c4       ?InitNew@?$IPersistStorageImpl@VCOPOSPointCardRW@@@ATL@@UEAAJPEAUIStorage@@@Z 00000001800031c4 f i PointCardRW.obj
 0001:00002204       ?Load@?$IPersistStorageImpl@VCOPOSPointCardRW@@@ATL@@UEAAJPEAUIStorage@@@Z 0000000180003204 f i PointCardRW.obj
 0001:000022a4       ?Save@?$IPersistStorageImpl@VCOPOSPointCardRW@@@ATL@@UEAAJPEAUIStorage@@H@Z 00000001800032a4 f i PointCardRW.obj
 0001:00002354       ?GetPages@?$ISpecifyPropertyPagesImpl@VCOPOSPointCardRW@@@ATL@@UEAAJPEAUtagCAUUID@@@Z 0000000180003354 f i PointCardRW.obj
 0001:00002360       ?QuickActivate@?$IQuickActivateImpl@VCOPOSPointCardRW@@@ATL@@UEAAJPEAUtagQACONTAINER@@PEAUtagQACONTROL@@@Z 0000000180003360 f i PointCardRW.obj
 0001:0000237c       ?SetContentExtent@?$IQuickActivateImpl@VCOPOSPointCardRW@@@ATL@@UEAAJPEAUtagSIZE@@@Z 000000018000337c f i PointCardRW.obj
 0001:000023b0       ?GetContentExtent@?$IQuickActivateImpl@VCOPOSPointCardRW@@@ATL@@UEAAJPEAUtagSIZE@@@Z 00000001800033b0 f i PointCardRW.obj
 0001:000023e8       ?GetData@?$IDataObjectImpl@VCOPOSPointCardRW@@@ATL@@UEAAJPEAUtagFORMATETC@@PEAUtagSTGMEDIUM@@@Z 00000001800033e8 f i PointCardRW.obj
 0001:00002404       ?DAdvise@?$IDataObjectImpl@VCOPOSPointCardRW@@@ATL@@UEAAJPEAUtagFORMATETC@@KPEAUIAdviseSink@@PEAK@Z 0000000180003404 f i PointCardRW.obj
 0001:0000248c       ?DUnadvise@?$IDataObjectImpl@VCOPOSPointCardRW@@@ATL@@UEAAJK@Z 000000018000348c f i PointCardRW.obj
 0001:000024b8       ?EnumDAdvise@?$IDataObjectImpl@VCOPOSPointCardRW@@@ATL@@UEAAJPEAPEAUIEnumSTATDATA@@@Z 00000001800034b8 f i PointCardRW.obj
 0001:000024f4       ?GetClassInfoW@?$IProvideClassInfo2Impl@$1?CLSID_OPOSPointCardRW@@3U_GUID@@B$1?DIID__IOPOSPointCardRWEvents@@3U2@B$1?LIBID_OposPointCardRW_CCO@@3U2@B$00$0A@VCComTypeInfoHolder@ATL@@@ATL@@UEAAJPEAPEAUITypeInfo@@@Z 00000001800034f4 f i PointCardRW.obj
 0001:0000254c       ?GetGUID@?$IProvideClassInfo2Impl@$1?CLSID_OPOSPointCardRW@@3U_GUID@@B$1?DIID__IOPOSPointCardRWEvents@@3U2@B$1?LIBID_OposPointCardRW_CCO@@3U2@B$00$0A@VCComTypeInfoHolder@ATL@@@ATL@@UEAAJKPEAU_GUID@@@Z 000000018000354c f i PointCardRW.obj
 0001:00002580       ?FAccessAllowed@?$IObjectSafetyImpl@VCOPOSPointCardRW@@$02@ATL@@MEAAHXZ 0000000180003580 f i PointCardRW.obj
 0001:00002580       ?AddRef@CRegObject@ATL@@UEAAKXZ 0000000180003580 f i PointCardRW.obj
 0001:00002580       _get_startup_argv_mode     0000000180003580 f i LIBCMT:argv_mode.obj
 0001:00002588       ?GetInterfaceSafetyOptions@?$IObjectSafetyImpl@VCOPOSPointCardRW@@$02@ATL@@UEAAJAEBU_GUID@@PEAK1@Z 0000000180003588 f i PointCardRW.obj
 0001:0000261c       ?SetInterfaceSafetyOptions@?$IObjectSafetyImpl@VCOPOSPointCardRW@@$02@ATL@@UEAAJAEBU_GUID@@KK@Z 000000018000361c f i PointCardRW.obj
 0001:000026c0       ?_LocCPQueryInterface@?$IConnectionPointImpl@VCOPOSPointCardRW@@$1?DIID__IOPOSPointCardRWEvents@@3U_GUID@@BVCComDynamicUnkArray@ATL@@@ATL@@UEAAJAEBU_GUID@@PEAPEAX@Z 00000001800036c0 f i PointCardRW.obj
 0001:000026c0       ?_LocCPQueryInterface@?$IConnectionPointImpl@VCOPOSPointCardRW@@$1?IID_IPropertyNotifySink@@3U_GUID@@BVCComDynamicUnkArray@ATL@@@ATL@@UEAAJAEBU_GUID@@PEAPEAX@Z 00000001800036c0 f i PointCardRW.obj
 0001:00002734       ?GetConnectionInterface@?$IConnectionPointImpl@VCOPOSPointCardRW@@$1?IID_IPropertyNotifySink@@3U_GUID@@BVCComDynamicUnkArray@ATL@@@ATL@@UEAAJPEAU_GUID@@@Z 0000000180003734 f i PointCardRW.obj
 0001:00002750       ?Lock@CAtlModule@ATL@@UEAAJXZ 0000000180003750 f i PointCardRW.obj
 0001:00002760       ?GetConnectionPointContainer@?$IConnectionPointImpl@VCOPOSPointCardRW@@$1?IID_IPropertyNotifySink@@3U_GUID@@BVCComDynamicUnkArray@ATL@@@ATL@@UEAAJPEAPEAUIConnectionPointContainer@@@Z 0000000180003760 f i PointCardRW.obj
 0001:00002780       ?Unlock@CAtlModule@ATL@@UEAAJXZ 0000000180003780 f i PointCardRW.obj
 0001:0000278c       ?GetLockCount@CAtlModule@ATL@@UEAAJXZ 000000018000378c f i PointCardRW.obj
 0001:00002790       ?Advise@?$IConnectionPointImpl@VCOPOSPointCardRW@@$1?IID_IPropertyNotifySink@@3U_GUID@@BVCComDynamicUnkArray@ATL@@@ATL@@UEAAJPEAUIUnknown@@PEAK@Z 0000000180003790 f i PointCardRW.obj
 0001:00002790       ?Advise@?$IConnectionPointImpl@VCOPOSPointCardRW@@$1?DIID__IOPOSPointCardRWEvents@@3U_GUID@@BVCComDynamicUnkArray@ATL@@@ATL@@UEAAJPEAUIUnknown@@PEAK@Z 0000000180003790 f i PointCardRW.obj
 0001:0000284c       ?Unadvise@?$IConnectionPointImpl@VCOPOSPointCardRW@@$1?IID_IPropertyNotifySink@@3U_GUID@@BVCComDynamicUnkArray@ATL@@@ATL@@UEAAJK@Z 000000018000384c f i PointCardRW.obj
 0001:0000284c       ?Unadvise@?$IConnectionPointImpl@VCOPOSPointCardRW@@$1?DIID__IOPOSPointCardRWEvents@@3U_GUID@@BVCComDynamicUnkArray@ATL@@@ATL@@UEAAJK@Z 000000018000384c f i PointCardRW.obj
 0001:000028b4       ?GetGITPtr@CAtlModule@ATL@@UEAAJPEAPEAUIGlobalInterfaceTable@@@Z 00000001800038b4 f i PointCardRW.obj
 0001:00002924       ?EnumConnections@?$IConnectionPointImpl@VCOPOSPointCardRW@@$1?DIID__IOPOSPointCardRWEvents@@3U_GUID@@BVCComDynamicUnkArray@ATL@@@ATL@@UEAAJPEAPEAUIEnumConnections@@@Z 0000000180003924 f i PointCardRW.obj
 0001:00002924       ?EnumConnections@?$IConnectionPointImpl@VCOPOSPointCardRW@@$1?IID_IPropertyNotifySink@@3U_GUID@@BVCComDynamicUnkArray@ATL@@@ATL@@UEAAJPEAPEAUIEnumConnections@@@Z 0000000180003924 f i PointCardRW.obj
 0001:00002ab8       ?GetConnectionInterface@?$IConnectionPointImpl@VCOPOSPointCardRW@@$1?DIID__IOPOSPointCardRWEvents@@3U_GUID@@BVCComDynamicUnkArray@ATL@@@ATL@@UEAAJPEAU_GUID@@@Z 0000000180003ab8 f i PointCardRW.obj
 0001:00002ad4       ?GetConnectionPointContainer@?$IConnectionPointImpl@VCOPOSPointCardRW@@$1?DIID__IOPOSPointCardRWEvents@@3U_GUID@@BVCComDynamicUnkArray@ATL@@@ATL@@UEAAJPEAPEAUIConnectionPointContainer@@@Z 0000000180003ad4 f i PointCardRW.obj
 0001:00002af4       ?UpdateRegistry@COPOSPointCardRW@@SAJH@Z 0000000180003af4 f i PointCardRW.obj
 0001:00002b0c       ?AddCommonRGSReplacements@?$CAtlModuleT@VCComModule@ATL@@@ATL@@UEAAJPEAUIRegistrarBase@@@Z 0000000180003b0c f i PointCardRW.obj
 0001:00002b24       ?ProcessWindowMessage@COPOSPointCardRW@@UEAAHPEAUHWND__@@I_K_JAEA_JK@Z 0000000180003b24 f i PointCardRW.obj
 0001:00002bb4       ?SOData@COPOSPointCardRW@@MEAAJJ@Z 0000000180003bb4 f i PointCardRW.obj
 0001:00002c04       ?SODirectIO@COPOSPointCardRW@@MEAAJJPEAJPEAPEA_W@Z 0000000180003c04 f i PointCardRW.obj
 0001:00002c7c       ?SOError@COPOSPointCardRW@@MEAAJJJJPEAJ@Z 0000000180003c7c f i PointCardRW.obj
 0001:00002d04       ?SOOutputComplete@COPOSPointCardRW@@MEAAJJ@Z 0000000180003d04 f i PointCardRW.obj
 0001:00002d54       ?SOStatusUpdate@COPOSPointCardRW@@MEAAJJ@Z 0000000180003d54 f i PointCardRW.obj
 0001:00002da4       ?UpdateRegistryFromResourceD@CComModule@ATL@@UEAAJIHPEAU_ATL_REGMAP_ENTRY@2@@Z 0000000180003da4 f i PointCardRW.obj
 0001:00002da4       ?UpdateRegistryFromResourceD@CComModule@ATL@@UEAAJPEB_WHPEAU_ATL_REGMAP_ENTRY@2@@Z 0000000180003da4 f i PointCardRW.obj
 0001:00002dac       ?UpdateRegistryFromResource@CComModule@ATL@@UEAAJPEB_WHPEAU_ATL_REGMAP_ENTRY@2@@Z 0000000180003dac f i PointCardRW.obj
 0001:00002db4       ?UpdateRegistryFromResource@CComModule@ATL@@UEAAJIHPEAU_ATL_REGMAP_ENTRY@2@@Z 0000000180003db4 f i PointCardRW.obj
 0001:00002dbc       ??_GCComModule@ATL@@UEAAPEAXI@Z 0000000180003dbc f i PointCardRW.obj
 0001:00002dbc       ??_ECComModule@ATL@@UEAAPEAXI@Z 0000000180003dbc f i PointCardRW.obj
 0001:00002dfc       ?CreateInstance@?$CComCreator@V?$CComObjectCached@VCComClassFactory@ATL@@@ATL@@@ATL@@SAJPEAXAEBU_GUID@@PEAPEAX@Z 0000000180003dfc f i PointCardRW.obj
 0001:00002f20       ?CreateInstance@?$CComCreator2@V?$CComCreator@V?$CComObject@VCOPOSPointCardRW@@@ATL@@@ATL@@V?$CComCreator@V?$CComAggObject@VCOPOSPointCardRW@@@ATL@@@2@@ATL@@SAJPEAXAEBU_GUID@@PEAPEAX@Z 0000000180003f20 f i PointCardRW.obj
 0001:00002f30       ?AddRef@?$CComObjectCached@VCComClassFactory@ATL@@@ATL@@UEAAKXZ 0000000180003f30 f i PointCardRW.obj
 0001:00002f5c       ?Release@?$CComObjectCached@VCComClassFactory@ATL@@@ATL@@UEAAKXZ 0000000180003f5c f i PointCardRW.obj
 0001:00002f9c       ?QueryInterface@?$CComObjectCached@VCComClassFactory@ATL@@@ATL@@UEAAJAEBU_GUID@@PEAPEAX@Z 0000000180003f9c f i PointCardRW.obj
 0001:00002fb0       ??_G?$CComObjectCached@VCComClassFactory@ATL@@@ATL@@UEAAPEAXI@Z 0000000180003fb0 f i PointCardRW.obj
 0001:00002fb0       ??_E?$CComObjectCached@VCComClassFactory@ATL@@@ATL@@UEAAPEAXI@Z 0000000180003fb0 f i PointCardRW.obj
 0001:00003008       ?Next@?$CComEnumImpl@UIEnumConnectionPoints@@$1?_GUID_b196b285_bab4_101a_b69c_00aa00341d07@@3U__s_GUID@@BPEAUIConnectionPoint@@V?$_CopyInterface@UIConnectionPoint@@@ATL@@@ATL@@UEAAJKPEAPEAUIConnectionPoint@@PEAK@Z 0000000180004008 f i PointCardRW.obj
 0001:000030cc       ?Skip@?$CComEnumImpl@UIEnumConnectionPoints@@$1?_GUID_b196b285_bab4_101a_b69c_00aa00341d07@@3U__s_GUID@@BPEAUIConnectionPoint@@V?$_CopyInterface@UIConnectionPoint@@@ATL@@@ATL@@UEAAJK@Z 00000001800040cc f i PointCardRW.obj
 0001:000030f8       ?Clone@?$CComEnumImpl@UIEnumConnectionPoints@@$1?_GUID_b196b285_bab4_101a_b69c_00aa00341d07@@3U__s_GUID@@BPEAUIConnectionPoint@@V?$_CopyInterface@UIConnectionPoint@@@ATL@@@ATL@@UEAAJPEAPEAUIEnumConnectionPoints@@@Z 00000001800040f8 f i PointCardRW.obj
 0001:00003224       ?QueryInterface@?$CComObject@V?$CComEnum@UIEnumConnectionPoints@@$1?_GUID_b196b285_bab4_101a_b69c_00aa00341d07@@3U__s_GUID@@BPEAUIConnectionPoint@@V?$_CopyInterface@UIConnectionPoint@@@ATL@@VCComSingleThreadModel@6@@ATL@@@ATL@@UEAAJAEBU_GUID@@PEAPEAX@Z 0000000180004224 f i PointCardRW.obj
 0001:00003238       ??_G?$CComObject@V?$CComEnum@UIEnumConnectionPoints@@$1?_GUID_b196b285_bab4_101a_b69c_00aa00341d07@@3U__s_GUID@@BPEAUIConnectionPoint@@V?$_CopyInterface@UIConnectionPoint@@@ATL@@VCComSingleThreadModel@6@@ATL@@@ATL@@UEAAPEAXI@Z 0000000180004238 f i PointCardRW.obj
 0001:00003238       ??_E?$CComObject@V?$CComEnum@UIEnumConnectionPoints@@$1?_GUID_b196b285_bab4_101a_b69c_00aa00341d07@@3U__s_GUID@@BPEAUIConnectionPoint@@V?$_CopyInterface@UIConnectionPoint@@@ATL@@VCComSingleThreadModel@6@@ATL@@@ATL@@UEAAPEAXI@Z 0000000180004238 f i PointCardRW.obj
 0001:00003290       ?AddReplacement@CRegObject@ATL@@UEAAJPEB_W0@Z 0000000180004290 f i PointCardRW.obj
 0001:000032c0       ?ClearReplacements@CRegObject@ATL@@UEAAJXZ 00000001800042c0 f i PointCardRW.obj
 0001:000032cc       ??_ECRegObject@ATL@@UEAAPEAXI@Z 00000001800042cc f i PointCardRW.obj
 0001:000032cc       ??_GCRegObject@ATL@@UEAAPEAXI@Z 00000001800042cc f i PointCardRW.obj
 0001:0000334c       ?AddRef@?$CComAggObject@VCOPOSPointCardRW@@@ATL@@UEAAKXZ 000000018000434c f i PointCardRW.obj
 0001:00003358       ?Release@?$CComAggObject@VCOPOSPointCardRW@@@ATL@@UEAAKXZ 0000000180004358 f i PointCardRW.obj
 0001:000033ac       ?QueryInterface@?$CComAggObject@VCOPOSPointCardRW@@@ATL@@UEAAJAEBU_GUID@@PEAPEAX@Z 00000001800043ac f i PointCardRW.obj
 0001:0000340c       ?AddRef@?$CComContainedObject@VCOPOSPointCardRW@@@ATL@@UEAAKXZ 000000018000440c f i PointCardRW.obj
 0001:0000341c       ?Release@?$CComContainedObject@VCOPOSPointCardRW@@@ATL@@UEAAKXZ 000000018000441c f i PointCardRW.obj
 0001:0000342c       ?QueryInterface@?$CComContainedObject@VCOPOSPointCardRW@@@ATL@@UEAAJAEBU_GUID@@PEAPEAX@Z 000000018000442c f i PointCardRW.obj
 0001:0000343c       ??_G?$CComAggObject@VCOPOSPointCardRW@@@ATL@@UEAAPEAXI@Z 000000018000443c f i PointCardRW.obj
 0001:0000343c       ??_E?$CComAggObject@VCOPOSPointCardRW@@@ATL@@UEAAPEAXI@Z 000000018000443c f i PointCardRW.obj
 0001:00003494       ?AddRef@?$CComObject@VCOPOSPointCardRW@@@ATL@@UEAAKXZ 0000000180004494 f i PointCardRW.obj
 0001:000034a4       ?Release@?$CComObject@VCOPOSPointCardRW@@@ATL@@UEAAKXZ 00000001800044a4 f i PointCardRW.obj
 0001:000034fc       ?QueryInterface@?$CComObject@VCOPOSPointCardRW@@@ATL@@UEAAJAEBU_GUID@@PEAPEAX@Z 00000001800044fc f i PointCardRW.obj
 0001:00003510       ?OnDrawAdvanced@CComControlBase@ATL@@UEAAJAEAUATL_DRAWINFO@@@Z 0000000180004510 f i PointCardRW.obj
 0001:0000369c       ??$AtlModuleRegisterWndClassInfoT@VAtlModuleRegisterWndClassInfoParamW@ATL@@@ATL@@YAGPEAU_ATL_BASE_MODULE70@0@PEAU_ATL_WIN_MODULE70@0@PEAU_ATL_WNDCLASSINFOW@0@PEAP6A_JPEAUHWND__@@I_K_J@ZVAtlModuleRegisterWndClassInfoParamW@0@@Z 000000018000469c f i PointCardRW.obj
 0001:0000389c       ??0?$CComContainedObject@VCOPOSPointCardRW@@@ATL@@QEAA@PEAX@Z 000000018000489c f i PointCardRW.obj
 0001:000039b8       ??0?$CComObject@VCOPOSPointCardRW@@@ATL@@QEAA@PEAX@Z 00000001800049b8 f i PointCardRW.obj
 0001:00003ad0       ??0CAtlModule@ATL@@QEAA@XZ 0000000180004ad0 f i PointCardRW.obj
 0001:00003b44       ??1?$CComEnumImpl@UIEnumConnectionPoints@@$1?_GUID_b196b285_bab4_101a_b69c_00aa00341d07@@3U__s_GUID@@BPEAUIConnectionPoint@@V?$_CopyInterface@UIConnectionPoint@@@ATL@@@ATL@@UEAA@XZ 0000000180004b44 f i PointCardRW.obj
 0001:00003b9c       ??1?$CComEnumImpl@UIEnumConnections@@$1?_GUID_b196b287_bab4_101a_b69c_00aa00341d07@@3U__s_GUID@@BUtagCONNECTDATA@@V?$_Copy@UtagCONNECTDATA@@@ATL@@@ATL@@UEAA@XZ 0000000180004b9c f i PointCardRW.obj
 0001:00003bf4       ??1?$CComObject@VCOPOSPointCardRW@@@ATL@@UEAA@XZ 0000000180004bf4 f i PointCardRW.obj
 0001:00003d14       ??_G?$CComContainedObject@VCOPOSPointCardRW@@@ATL@@UEAAPEAXI@Z 0000000180004d14 f i PointCardRW.obj
 0001:00003d14       ??_E?$CComContainedObject@VCOPOSPointCardRW@@@ATL@@UEAAPEAXI@Z 0000000180004d14 f i PointCardRW.obj
 0001:00003d48       ??_G?$CComObject@VCOPOSPointCardRW@@@ATL@@UEAAPEAXI@Z 0000000180004d48 f i PointCardRW.obj
 0001:00003d48       ??_E?$CComObject@VCOPOSPointCardRW@@@ATL@@UEAAPEAXI@Z 0000000180004d48 f i PointCardRW.obj
 0001:00003d7c       ?Add@?$CSimpleArray@GV?$CSimpleArrayEqualHelper@G@ATL@@@ATL@@QEAAHAEBG@Z 0000000180004d7c f i PointCardRW.obj
 0001:00003e1c       ?Add@?$CSimpleMap@PEA_WPEA_WVCExpansionVectorEqualHelper@ATL@@@ATL@@QEAAHAEBQEA_W0@Z 0000000180004e1c f i PointCardRW.obj
 0001:00003eb8       ?Add@CComDynamicUnkArray@ATL@@QEAAKPEAUIUnknown@@@Z 0000000180004eb8 f i PointCardRW.obj
 0001:00003f9c       ?Add@CExpansionVector@ATL@@QEAAHPEB_W0@Z 0000000180004f9c f i PointCardRW.obj
 0001:000040d0       ?AddTermFunc@CAtlModule@ATL@@QEAAJP6AX_K@Z0@Z 00000001800050d0 f i PointCardRW.obj
 0001:0000416c       ?AddValue@CRegParser@ATL@@IEAAJAEAVCRegKey@2@PEB_WPEA_W@Z 000000018000516c f i PointCardRW.obj
 0001:0000457c       ?AllocateHeap@?$CTempBuffer@_W$0EAA@VCCRTAllocator@ATL@@@ATL@@AEAAX_K@Z 000000018000557c f i PointCardRW.obj
 0001:0000457c       ?AllocateHeap@?$CTempBuffer@E$0BAA@VCCRTAllocator@ATL@@@ATL@@AEAAX_K@Z 000000018000557c f i PointCardRW.obj
 0001:0000457c       ?AllocateHeap@?$CTempBuffer@_W$0BAA@VCCRTAllocator@ATL@@@ATL@@AEAAX_K@Z 000000018000557c f i PointCardRW.obj
 0001:000045a8       ?Append@CParseBuffer@CRegParser@ATL@@QEAAHPEB_WH@Z 00000001800055a8 f i PointCardRW.obj
 0001:000046dc       ?AtlComModuleGetClassObject@ATL@@YAJPEAU_ATL_COM_MODULE70@1@AEBU_GUID@@1PEAPEAX@Z 00000001800056dc f i PointCardRW.obj
 0001:00004818       ?AtlComModuleRegisterServer@ATL@@YAJPEAU_ATL_COM_MODULE70@1@HPEBU_GUID@@@Z 0000000180005818 f i PointCardRW.obj
 0001:000048d8       ?AtlComModuleUnregisterServer@ATL@@YAJPEAU_ATL_COM_MODULE70@1@HPEBU_GUID@@@Z 00000001800058d8 f i PointCardRW.obj
 0001:00004994       ?AtlHiMetricToPixel@ATL@@YAXPEBUtagSIZE@@PEAU2@@Z 0000000180005994 f i PointCardRW.obj
 0001:00004a44       ?AtlHresultFromLastError@ATL@@YAJXZ 0000000180005a44 f i PointCardRW.obj
 0001:00004a64       ?AtlHresultFromWin32@ATL@@YAJK@Z 0000000180005a64 f i PointCardRW.obj
 0001:00004a74       ?AtlInternalOleLoadFromStream@ATL@@YAJPEAUIStream@@AEBU_GUID@@PEAPEAXTClassesAllowedInStream@1@K@Z 0000000180005a74 f i PointCardRW.obj
 0001:00004bc4       ?AtlInternalQueryInterface@ATL@@YAJPEAXPEBU_ATL_INTMAP_ENTRY@1@AEBU_GUID@@PEAPEAX@Z 0000000180005bc4 f i PointCardRW.obj
 0001:00004ccc       ?AtlLoadTypeLib@ATL@@YAJPEAUHINSTANCE__@@PEB_WPEAPEA_WPEAPEAUITypeLib@@@Z 0000000180005ccc f i PointCardRW.obj
 0001:00004f28       ?AtlRegisterClassCategoriesHelper@ATL@@YAJAEBU_GUID@@PEBU_ATL_CATMAP_ENTRY@1@H@Z 0000000180005f28 f i PointCardRW.obj
 0001:000053ac       ?AtlRegisterTypeLib@ATL@@YAJPEAUHINSTANCE__@@PEB_W@Z 00000001800063ac f i PointCardRW.obj
 0001:000055a8       ?AtlThrowImpl@ATL@@YAXJ@Z  00000001800065a8 f i PointCardRW.obj
 0001:000055cc       ?AtlUnRegisterTypeLib@ATL@@YAJPEAUHINSTANCE__@@PEB_W@Z 00000001800065cc f i PointCardRW.obj
 0001:00005694       ?AtlWinModuleExtractCreateWndData@ATL@@YAPEAXPEAU_ATL_WIN_MODULE70@1@@Z 0000000180006694 f i PointCardRW.obj
 0001:00005720       ?ChToByte@CRegParser@ATL@@KAE_W@Z 0000000180006720 f i PointCardRW.obj
 0001:000057ac       ?Cleanup@CComTypeInfoHolder@ATL@@SAX_K@Z 00000001800067ac f i PointCardRW.obj
 0001:000057ec       ?ClearReplacements@CExpansionVector@ATL@@QEAAJXZ 00000001800067ec f i PointCardRW.obj
 0001:00005888       ?CreateInstance@?$CComCreator@V?$CComAggObject@VCOPOSPointCardRW@@@ATL@@@ATL@@SAJPEAXAEBU_GUID@@PEAPEAX@Z 0000000180006888 f i PointCardRW.obj
 0001:0000596c       ?CreateInstance@?$CComCreator@V?$CComObject@VCOPOSPointCardRW@@@ATL@@@ATL@@SAJPEAXAEBU_GUID@@PEAPEAX@Z 000000018000696c f i PointCardRW.obj
 0001:00005a2c       ?CreateInstance@?$CComObject@V?$CComEnum@UIEnumConnectionPoints@@$1?_GUID_b196b285_bab4_101a_b69c_00aa00341d07@@3U__s_GUID@@BPEAUIConnectionPoint@@V?$_CopyInterface@UIConnectionPoint@@@ATL@@VCComSingleThreadModel@6@@ATL@@@ATL@@SAJPEAPEAV12@@Z 0000000180006a2c f i PointCardRW.obj
 0001:00005abc       ?CreateInstance@?$CComObject@V?$CComEnum@UIEnumConnections@@$1?_GUID_b196b287_bab4_101a_b69c_00aa00341d07@@3U__s_GUID@@BUtagCONNECTDATA@@V?$_Copy@UtagCONNECTDATA@@@ATL@@VCComSingleThreadModel@6@@ATL@@@ATL@@SAJPEAPEAV12@@Z 0000000180006abc f i PointCardRW.obj
 0001:00005b4c       ?DefaultReflectionHandler@?$CWindowImplRoot@VCWindow@ATL@@@ATL@@SAHPEAUHWND__@@I_K_JAEA_J@Z 0000000180006b4c f i PointCardRW.obj
 0001:00005be0       ?DeleteSubKey@CRegKey@ATL@@QEAAJPEB_W@Z 0000000180006be0 f i PointCardRW.obj
 0001:00005c78       ?DoEvent@COPOSPointCardRW@@IEAAXI_K_J@Z 0000000180006c78 f i PointCardRW.obj
 0001:00005d2c       ?DoVerbPrimary@?$IOleObjectImpl@VCOPOSPointCardRW@@@ATL@@QEAAJPEBUtagRECT@@PEAUHWND__@@@Z 0000000180006d2c f i PointCardRW.obj
 0001:00005e58       ?DoVerbProperties@CComControlBase@ATL@@QEAAJPEBUtagRECT@@PEAUHWND__@@@Z 0000000180006e58 f i PointCardRW.obj
 0001:00006080       ?FireTheEvent@?$CProxy_IOPOSEvents@VCOPOSPointCardRW@@@@IEAAXPEAVOposVariant@@IAEAJPEB_WJ@Z 0000000180007080 f i PointCardRW.obj
 0001:0000616c       ?FireViewChange@CComControlBase@ATL@@QEAAJXZ 000000018000716c f i PointCardRW.obj
 0001:000061d0       ?Fire_DataEvent@?$CProxy_IOPOSEvents@VCOPOSPointCardRW@@@@QEAAXJ@Z 00000001800071d0 f i PointCardRW.obj
 0001:000062bc       ?Fire_DirectIOEvent@?$CProxy_IOPOSEvents@VCOPOSPointCardRW@@@@QEAAXJPEAJPEAPEA_W@Z 00000001800072bc f i PointCardRW.obj
 0001:0000641c       ?Fire_ErrorEvent@?$CProxy_IOPOSEvents@VCOPOSPointCardRW@@@@QEAAXJJJPEAJ@Z 000000018000741c f i PointCardRW.obj
 0001:00006590       ?Fire_OutputCompleteEvent@?$CProxy_IOPOSEvents@VCOPOSPointCardRW@@@@QEAAXJ@Z 0000000180007590 f i PointCardRW.obj
 0001:0000667c       ?Fire_StatusUpdateEvent@?$CProxy_IOPOSEvents@VCOPOSPointCardRW@@@@QEAAXJ@Z 000000018000767c f i PointCardRW.obj
 0001:00006768       ?FreeHeap@?$CTempBuffer@_W$0BAA@VCCRTAllocator@ATL@@@ATL@@AEAAXXZ 0000000180007768 f i PointCardRW.obj
 0001:00006768       ?FreeHeap@?$CTempBuffer@_W$0EAA@VCCRTAllocator@ATL@@@ATL@@AEAAXXZ 0000000180007768 f i PointCardRW.obj
 0001:00006768       ?FreeHeap@?$CTempBuffer@E$0BAA@VCCRTAllocator@ATL@@@ATL@@AEAAXXZ 0000000180007768 f i PointCardRW.obj
 0001:00006770       ?GetAmbientLocaleID@CComControlBase@ATL@@QEAAJAEAK@Z 0000000180007770 f i PointCardRW.obj
 0001:00006830       ?GetAmbientUserMode@CComControlBase@ATL@@QEAAJAEAH@Z 0000000180007830 f i PointCardRW.obj
 0001:00006900       ?GetClassObject@CComModule@ATL@@QEAAJAEBU_GUID@@0PEAPEAX@Z 0000000180007900 f i PointCardRW.obj
 0001:000069f4       ?GetConnMap@COPOSPointCardRW@@SAPEBU_ATL_CONNMAP_ENTRY@ATL@@PEAH@Z 00000001800079f4 f i PointCardRW.obj
 0001:00006a7c       ?GetIDsOfNames@CComTypeInfoHolder@ATL@@QEAAJAEBU_GUID@@PEAPEA_WIKPEAJ@Z 0000000180007a7c f i PointCardRW.obj
 0001:00006bec       ?GetPagesHelper@?$ISpecifyPropertyPagesImpl@VCOPOSPointCardRW@@@ATL@@IEAAJPEAUtagCAUUID@@PEBUATL_PROPMAP_ENTRY@2@@Z 0000000180007bec f i PointCardRW.obj
 0001:00006d8c       ?GetSizeMax@CComVariant@ATL@@QEBAJPEAT_ULARGE_INTEGER@@@Z 0000000180007d8c f i PointCardRW.obj
 0001:00006fbc       ?GetTI@CComTypeInfoHolder@ATL@@QEAAJK@Z 0000000180007fbc f i PointCardRW.obj
 0001:000072a0       ?GetZoomInfo@CComControlBase@ATL@@QEAAXAEAUATL_DRAWINFO@@@Z 00000001800082a0 f i PointCardRW.obj
 0001:00007344       ?HKeyFromString@CRegParser@ATL@@KAPEAUHKEY__@@PEA_W@Z 0000000180008344 f i PointCardRW.obj
 0001:000073a8       ?IDataObject_GetData@CComControlBase@ATL@@QEAAJPEAUtagFORMATETC@@PEAUtagSTGMEDIUM@@@Z 00000001800083a8 f i PointCardRW.obj
 0001:0000759c       ?IOleInPlaceObject_InPlaceDeactivate@CComControlBase@ATL@@QEAAJXZ 000000018000859c f i PointCardRW.obj
 0001:0000763c       ?IOleInPlaceObject_SetObjectRects@CComControlBase@ATL@@QEAAJPEBUtagRECT@@0@Z 000000018000863c f i PointCardRW.obj
 0001:0000772c       ?IOleInPlaceObject_UIDeactivate@CComControlBase@ATL@@QEAAJXZ 000000018000872c f i PointCardRW.obj
 0001:00007838       ?IOleObject_Close@CComControlBase@ATL@@QEAAJK@Z 0000000180008838 f i PointCardRW.obj
 0001:00007950       ?IOleObject_SetClientSite@CComControlBase@ATL@@QEAAJPEAUIOleClientSite@@@Z 0000000180008950 f i PointCardRW.obj
 0001:000079c4       ?IOleObject_SetExtent@CComControlBase@ATL@@QEAAJKPEAUtagSIZE@@@Z 00000001800089c4 f i PointCardRW.obj
 0001:00007a5c       ?IPSI_GetIPersistStreamInit@?$IPersistStorageImpl@VCOPOSPointCardRW@@@ATL@@AEAAPEAUIPersistStreamInit@@XZ 0000000180008a5c f i PointCardRW.obj
 0001:00007b44       ?IPersistStreamInit_Load@?$IPersistStreamInitImpl@VCOPOSPointCardRW@@@ATL@@QEAAJPEAUIStream@@PEBUATL_PROPMAP_ENTRY@2@@Z 0000000180008b44 f i PointCardRW.obj
 0001:00007e6c       ?IPersistStreamInit_Save@?$IPersistStreamInitImpl@VCOPOSPointCardRW@@@ATL@@QEAAJPEAUIStream@@HPEBUATL_PROPMAP_ENTRY@2@@Z 0000000180008e6c f i PointCardRW.obj
 0001:00008108       ?IQuickActivate_QuickActivate@CComControlBase@ATL@@QEAAJPEAUtagQACONTAINER@@PEAUtagQACONTROL@@@Z 0000000180009108 f i PointCardRW.obj
 0001:000083cc       ?IViewObject_Draw@CComControlBase@ATL@@QEAAJKJPEAXPEAUtagDVTARGETDEVICE@@PEAUHDC__@@2PEBU_RECTL@@3@Z 00000001800093cc f i PointCardRW.obj
 0001:000084e0       ?InPlaceActivate@CComControlBase@ATL@@QEAAJJPEBUtagRECT@@@Z 00000001800094e0 f i PointCardRW.obj
 0001:00008810       ?Init@?$CComEnumImpl@UIEnumConnectionPoints@@$1?_GUID_b196b285_bab4_101a_b69c_00aa00341d07@@3U__s_GUID@@BPEAUIConnectionPoint@@V?$_CopyInterface@UIConnectionPoint@@@ATL@@@ATL@@QEAAJPEAPEAUIConnectionPoint@@0PEAUIUnknown@@W4CComEnumFlags@2@@Z 0000000180009810 f i PointCardRW.obj
 0001:0000892c       ?Init@?$CComEnumImpl@UIEnumConnections@@$1?_GUID_b196b287_bab4_101a_b69c_00aa00341d07@@3U__s_GUID@@BUtagCONNECTDATA@@V?$_Copy@UtagCONNECTDATA@@@ATL@@@ATL@@QEAAJPEAUtagCONNECTDATA@@0PEAUIUnknown@@W4CComEnumFlags@2@@Z 000000018000992c f i PointCardRW.obj
 0001:00008a4c       ?IsEqualObject@?$CComPtrBase@UIOleClientSite@@@ATL@@QEAA_NPEAUIUnknown@@@Z 0000000180009a4c f i PointCardRW.obj
 0001:00008ad8       ?LoadNameCache@CComTypeInfoHolder@ATL@@QEAAJPEAUITypeInfo@@@Z 0000000180009ad8 f i PointCardRW.obj
 0001:00008c68       ?Lookup@?$CSimpleMap@PEA_WPEA_WVCExpansionVectorEqualHelper@ATL@@@ATL@@QEBAPEA_WAEBQEA_W@Z 0000000180009c68 f i PointCardRW.obj
 0001:00008cf0       ?NextToken@CRegParser@ATL@@IEAAJPEA_W@Z 0000000180009cf0 f i PointCardRW.obj
 0001:00008e8c       ?OnKillFocus@CComControlBase@ATL@@QEAA_JI_K_JAEAH@Z 0000000180009e8c f i PointCardRW.obj
 0001:00008f28       ?OnMouseActivate@CComControlBase@ATL@@QEAA_JI_K_JAEAH@Z 0000000180009f28 f i PointCardRW.obj
 0001:00008fc8       ?OnPaint@CComControlBase@ATL@@QEAA_JI_K_JAEAH@Z 0000000180009fc8 f i PointCardRW.obj
 0001:000090b4       ?OnSetFocus@CComControlBase@ATL@@QEAA_JI_K_JAEAH@Z 000000018000a0b4 f i PointCardRW.obj
 0001:000091bc       ?PreProcessBuffer@CRegParser@ATL@@QEAAJPEA_WPEAPEA_W@Z 000000018000a1bc f i PointCardRW.obj
 0001:00009544       ?ProcessWindowMessage@?$CComControl@VCOPOSPointCardRW@@V?$CWindowImpl@VCOPOSPointCardRW@@VCWindow@ATL@@V?$CWinTraits@$0FGAAAAAA@$0A@@3@@ATL@@@ATL@@UEAAHPEAUHWND__@@I_K_JAEA_JK@Z 000000018000a544 f i PointCardRW.obj
 0001:00009630       ?ReadFromStream@CComBSTR@ATL@@QEAAJPEAUIStream@@@Z 000000018000a630 f i PointCardRW.obj
 0001:00009780       ?ReadFromStream@CComVariant@ATL@@QEAAJPEAUIStream@@GTClassesAllowedInStream@2@K@Z 000000018000a780 f i PointCardRW.obj
 0001:000099c4       ?RecurseDeleteKey@CRegKey@ATL@@QEAAJPEB_W@Z 000000018000a9c4 f i PointCardRW.obj
 0001:00009b1c       ?RegCreateKeyExW@CAtlTransactionManager@ATL@@QEAAJPEAUHKEY__@@PEB_WKPEA_WKKQEAU_SECURITY_ATTRIBUTES@@PEAPEAU3@PEAK@Z 000000018000ab1c f i PointCardRW.obj
 0001:00009c50       ?RegDeleteKeyW@CAtlTransactionManager@ATL@@QEAAJPEAUHKEY__@@PEB_W@Z 000000018000ac50 f i PointCardRW.obj
 0001:00009cdc       ?RegOpenKeyExW@CAtlTransactionManager@ATL@@QEAAJPEAUHKEY__@@PEB_WKKPEAPEAU3@@Z 000000018000acdc f i PointCardRW.obj
 0001:00009d94       ?RegisterBuffer@CRegParser@ATL@@QEAAJPEA_WH@Z 000000018000ad94 f i PointCardRW.obj
 0001:00009f00       ?RegisterFromResource@CRegObject@ATL@@IEAAJPEB_W00H@Z 000000018000af00 f i PointCardRW.obj
 0001:0000a0bc       ?RegisterServer@CComModule@ATL@@QEAAJHPEBU_GUID@@@Z 000000018000b0bc f i PointCardRW.obj
 0001:0000a178       ?RegisterSubkeys@CRegParser@ATL@@IEAAJPEA_WPEAUHKEY__@@HH@Z 000000018000b178 f i PointCardRW.obj
 0001:0000a9f8       ?SendOnDataChange@CComControlBase@ATL@@QEAAJK@Z 000000018000b9f8 f i PointCardRW.obj
 0001:0000aa68       ?SetControlFocus@CComControlBase@ATL@@QEAAHH@Z 000000018000ba68 f i PointCardRW.obj
 0001:0000ab38       ?SkipAssignment@CRegParser@ATL@@IEAAJPEA_W@Z 000000018000bb38 f i PointCardRW.obj
 0001:0000abf0       ?Term@CAtlModule@ATL@@QEAAXXZ 000000018000bbf0 f i PointCardRW.obj
 0001:0000aca8       ?Term@CComModule@ATL@@QEAAXXZ 000000018000bca8 f i PointCardRW.obj
 0001:0000ad24       ?UnregisterServer@CComModule@ATL@@QEAAJHPEBU_GUID@@@Z 000000018000bd24 f i PointCardRW.obj
 0001:0000add4       ?UpdateRegistryFromResource@CAtlModule@ATL@@QEAAJIHPEAU_ATL_REGMAP_ENTRY@2@@Z 000000018000bdd4 f i PointCardRW.obj
 0001:0000b0e0       ?UpdateRegistryFromResource@CAtlModule@ATL@@QEAAJPEB_WHPEAU_ATL_REGMAP_ENTRY@2@@Z 000000018000c0e0 f i PointCardRW.obj
 0001:0000b404       ?VTFromRegType@CRegParser@ATL@@KAHPEB_WAEAG@Z 000000018000c404 f i PointCardRW.obj
 0001:0000b4a0       ?WindowProc@?$CWindowImplBaseT@VCWindow@ATL@@V?$CWinTraits@$0FGAAAAAA@$0A@@2@@ATL@@SA_JPEAUHWND__@@I_K_J@Z 000000018000c4a0 f i PointCardRW.obj
 0001:0000b60c       ?WriteToStream@CComVariant@ATL@@QEAAJPEAUIStream@@@Z 000000018000c60c f i PointCardRW.obj
 0001:0000b878       ?WriteToStream@CComVariant@ATL@@QEAAJPEAUIStream@@G@Z 000000018000c878 f i PointCardRW.obj
 0001:0000b910       ?_AtlVerifyStackAvailable@_ATL_SAFE_ALLOCA_IMPL@ATL@@YA_N_K@Z 000000018000c910 f i PointCardRW.obj
 0001:0000b994       ?atlCreate@?$CWindowImpl@VCOPOSPointCardRW@@VCWindow@ATL@@V?$CWinTraits@$0FGAAAAAA@$0A@@3@@ATL@@QEAAPEAUHWND__@@PEAU3@V_U_RECT@2@PEB_WKKV_U_MENUorID@2@PEAX@Z 000000018000c994 f i PointCardRW.obj
 0001:0000ba50       ?atlCreate@?$CWindowImplBaseT@VCWindow@ATL@@V?$CWinTraits@$0FGAAAAAA@$0A@@2@@ATL@@QEAAPEAUHWND__@@PEAU3@V_U_RECT@2@PEB_WKKV_U_MENUorID@2@GPEAX@Z 000000018000ca50 f i PointCardRW.obj
 0001:0000bbc0       ?ocscpy_s@@YA_NPEA_W_KPEB_W@Z 000000018000cbc0 f i PointCardRW.obj
 0001:0000bc70       DllCanUnloadNow            000000018000cc70 f   PointCardRW.obj
 0001:0000bc7c       DllGetClassObject          000000018000cc7c f   PointCardRW.obj
 0001:0000bc94       DllMain                    000000018000cc94 f   PointCardRW.obj
 0001:0000bd3c       DllRegisterServer          000000018000cd3c f   PointCardRW.obj
 0001:0000bd50       DllUnregisterServer        000000018000cd50 f   PointCardRW.obj
 0001:0000bd64       __local_stdio_printf_options 000000018000cd64 f i PointCardRW.obj
 0001:0000bd6c       swprintf_s                 000000018000cd6c f i PointCardRW.obj
 0001:0000bdc0       ??0COPOSPointCardRW@@QEAA@XZ 000000018000cdc0 f   PointCardRWImpl.obj
 0001:0000be90       ??1?$IConnectionPointImpl@VCOPOSPointCardRW@@$1?DIID__IOPOSPointCardRWEvents@@3U_GUID@@BVCComDynamicUnkArray@ATL@@@ATL@@QEAA@XZ 000000018000ce90 f i PointCardRWImpl.obj
 0001:0000be90       ??1?$IConnectionPointImpl@VCOPOSPointCardRW@@$1?IID_IPropertyNotifySink@@3U_GUID@@BVCComDynamicUnkArray@ATL@@@ATL@@QEAA@XZ 000000018000ce90 f i PointCardRWImpl.obj
 0001:0000beec       ??1CComControlBase@ATL@@UEAA@XZ 000000018000ceec f i PointCardRWImpl.obj
 0001:0000bf68       ??1COPOSPointCardRW@@UEAA@XZ 000000018000cf68 f   PointCardRWImpl.obj
 0001:0000bfcc       ?BeginInsertion@COPOSPointCardRW@@UEAAJJPEAJ@Z 000000018000cfcc f   PointCardRWImpl.obj
 0001:0000c048       ?BeginRemoval@COPOSPointCardRW@@UEAAJJPEAJ@Z 000000018000d048 f   PointCardRWImpl.obj
 0001:0000c0c4       ?CheckHealth@COPOSPointCardRW@@UEAAJJPEAJ@Z 000000018000d0c4 f   PointCardRWImpl.obj
 0001:0000c140       ?ClaimDevice@COPOSPointCardRW@@UEAAJJPEAJ@Z 000000018000d140 f   PointCardRWImpl.obj
 0001:0000c1e0       ?CleanCard@COPOSPointCardRW@@UEAAJPEAJ@Z 000000018000d1e0 f   PointCardRWImpl.obj
 0001:0000c208       ?ClearInput@COPOSPointCardRW@@UEAAJPEAJ@Z 000000018000d208 f   PointCardRWImpl.obj
 0001:0000c230       ?ClearInputProperties@COPOSPointCardRW@@UEAAJPEAJ@Z 000000018000d230 f   PointCardRWImpl.obj
 0001:0000c258       ?ClearOutput@COPOSPointCardRW@@UEAAJPEAJ@Z 000000018000d258 f   PointCardRWImpl.obj
 0001:0000c280       ?ClearPrintWrite@COPOSPointCardRW@@UEAAJJJJJJPEAJ@Z 000000018000d280 f   PointCardRWImpl.obj
 0001:0000c390       ?Close@COPOSPointCardRW@@UEAAJPEAJ@Z 000000018000d390 f   PointCardRWImpl.obj
 0001:0000c448       ?CompareFirmwareVersion@COPOSPointCardRW@@UEAAJPEA_WPEAJ1@Z 000000018000d448 f   PointCardRWImpl.obj
 0001:0000c524       ?DirectIO@COPOSPointCardRW@@UEAAJJPEAJPEAPEA_W0@Z 000000018000d524 f   PointCardRWImpl.obj
 0001:0000c620       ?DoInvoke@COPOSPointCardRW@@IEAAJJPEAVOposVariant@@IHPEAJ_N@Z 000000018000d620 f   PointCardRWImpl.obj
 0001:0000c754       ?EndInsertion@COPOSPointCardRW@@UEAAJPEAJ@Z 000000018000d754 f   PointCardRWImpl.obj
 0001:0000c77c       ?EndRemoval@COPOSPointCardRW@@UEAAJPEAJ@Z 000000018000d77c f   PointCardRWImpl.obj
 0001:0000c7a4       ?EventInit@COPOSPointCardRW@@IEAAJXZ 000000018000d7a4 f i PointCardRWImpl.obj
 0001:0000c8f4       ?EventUninit@COPOSPointCardRW@@IEAAXXZ 000000018000d8f4 f i PointCardRWImpl.obj
 0001:0000c958       ?EventWindowProc@COPOSPointCardRW@@IEAA_JI_K_J@Z 000000018000d958 f i PointCardRWImpl.obj
 0001:0000cb1c       ?FinalConstruct@COPOSPointCardRW@@QEAAJXZ 000000018000db1c f   PointCardRWImpl.obj
 0001:0000cb58       ?FreezeEvents@COPOSPointCardRW@@MEAAJH@Z 000000018000db58 f   PointCardRWImpl.obj
 0001:0000cbc4       ?GetOposProp@COPOSPointCardRW@@IEAAJJPEAJJ@Z 000000018000dbc4 f   PointCardRWImpl.obj
 0001:0000cce0       ?GetOposProp@COPOSPointCardRW@@IEAAJJPEAPEA_WJ@Z 000000018000dce0 f   PointCardRWImpl.obj
 0001:0000ce0c       ?OnDraw@COPOSPointCardRW@@MEAAJAEAUATL_DRAWINFO@@@Z 000000018000de0c f   PointCardRWImpl.obj
 0001:0000cef8       ?Open@COPOSPointCardRW@@UEAAJPEA_WPEAJ@Z 000000018000def8 f   PointCardRWImpl.obj
 0001:0000d77c       ?PrintWrite@COPOSPointCardRW@@UEAAJJJJPEA_WPEAJ@Z 000000018000e77c f   PointCardRWImpl.obj
 0001:0000d88c       ?ReleaseDevice@COPOSPointCardRW@@UEAAJPEAJ@Z 000000018000e88c f   PointCardRWImpl.obj
 0001:0000d8f8       ?ResetStatistics@COPOSPointCardRW@@UEAAJPEA_WPEAJ@Z 000000018000e8f8 f   PointCardRWImpl.obj
 0001:0000d980       ?RetrieveStatistics@COPOSPointCardRW@@UEAAJPEAPEA_WPEAJ@Z 000000018000e980 f   PointCardRWImpl.obj
 0001:0000da08       ?RotatePrint@COPOSPointCardRW@@UEAAJJPEAJ@Z 000000018000ea08 f   PointCardRWImpl.obj
 0001:0000da84       ?SOProcessID@COPOSPointCardRW@@UEAAJPEAJ@Z 000000018000ea84 f   PointCardRWImpl.obj
 0001:0000daa0       ?SetCOFreezeEvents@COPOSPointCardRW@@IEAAXF@Z 000000018000eaa0 f   PointCardRWImpl.obj
 0001:0000db84       ?SetOposProp@COPOSPointCardRW@@IEAAJJJJ@Z 000000018000eb84 f   PointCardRWImpl.obj
 0001:0000dce4       ?SetOposProp@COPOSPointCardRW@@IEAAJJPEA_WJ@Z 000000018000ece4 f   PointCardRWImpl.obj
 0001:0000de3c       ?UpdateFirmware@COPOSPointCardRW@@UEAAJPEA_WPEAJ@Z 000000018000ee3c f   PointCardRWImpl.obj
 0001:0000dec4       ?UpdateStatistics@COPOSPointCardRW@@UEAAJPEA_WPEAJ@Z 000000018000eec4 f   PointCardRWImpl.obj
 0001:0000df4c       ?ValidateData@COPOSPointCardRW@@UEAAJPEA_WPEAJ@Z 000000018000ef4c f   PointCardRWImpl.obj
 0001:0000dfd4       ?get_BinaryConversion@COPOSPointCardRW@@UEAAJPEAJ@Z 000000018000efd4 f   PointCardRWImpl.obj
 0001:0000dfe8       ?get_CapBold@COPOSPointCardRW@@UEAAJPEAF@Z 000000018000efe8 f   PointCardRWImpl.obj
 0001:0000e01c       ?get_CapCardEntranceSensor@COPOSPointCardRW@@UEAAJPEAF@Z 000000018000f01c f   PointCardRWImpl.obj
 0001:0000e050       ?get_CapCharacterSet@COPOSPointCardRW@@UEAAJPEAJ@Z 000000018000f050 f   PointCardRWImpl.obj
 0001:0000e064       ?get_CapCleanCard@COPOSPointCardRW@@UEAAJPEAF@Z 000000018000f064 f   PointCardRWImpl.obj
 0001:0000e098       ?get_CapClearPrint@COPOSPointCardRW@@UEAAJPEAF@Z 000000018000f098 f   PointCardRWImpl.obj
 0001:0000e0cc       ?get_CapCompareFirmwareVersion@COPOSPointCardRW@@UEAAJPEAF@Z 000000018000f0cc f   PointCardRWImpl.obj
 0001:0000e100       ?get_CapDhigh@COPOSPointCardRW@@UEAAJPEAF@Z 000000018000f100 f   PointCardRWImpl.obj
 0001:0000e134       ?get_CapDwide@COPOSPointCardRW@@UEAAJPEAF@Z 000000018000f134 f   PointCardRWImpl.obj
 0001:0000e168       ?get_CapDwideDhigh@COPOSPointCardRW@@UEAAJPEAF@Z 000000018000f168 f   PointCardRWImpl.obj
 0001:0000e19c       ?get_CapItalic@COPOSPointCardRW@@UEAAJPEAF@Z 000000018000f19c f   PointCardRWImpl.obj
 0001:0000e1d0       ?get_CapLeft90@COPOSPointCardRW@@UEAAJPEAF@Z 000000018000f1d0 f   PointCardRWImpl.obj
 0001:0000e204       ?get_CapMapCharacterSet@COPOSPointCardRW@@UEAAJPEAF@Z 000000018000f204 f   PointCardRWImpl.obj
 0001:0000e238       ?get_CapPowerReporting@COPOSPointCardRW@@UEAAJPEAJ@Z 000000018000f238 f   PointCardRWImpl.obj
 0001:0000e24c       ?get_CapPrint@COPOSPointCardRW@@UEAAJPEAF@Z 000000018000f24c f   PointCardRWImpl.obj
 0001:0000e280       ?get_CapPrintMode@COPOSPointCardRW@@UEAAJPEAF@Z 000000018000f280 f   PointCardRWImpl.obj
 0001:0000e2b4       ?get_CapRight90@COPOSPointCardRW@@UEAAJPEAF@Z 000000018000f2b4 f   PointCardRWImpl.obj
 0001:0000e2e8       ?get_CapRotate180@COPOSPointCardRW@@UEAAJPEAF@Z 000000018000f2e8 f   PointCardRWImpl.obj
 0001:0000e31c       ?get_CapStatisticsReporting@COPOSPointCardRW@@UEAAJPEAF@Z 000000018000f31c f   PointCardRWImpl.obj
 0001:0000e350       ?get_CapTracksToRead@COPOSPointCardRW@@UEAAJPEAJ@Z 000000018000f350 f   PointCardRWImpl.obj
 0001:0000e364       ?get_CapTracksToWrite@COPOSPointCardRW@@UEAAJPEAJ@Z 000000018000f364 f   PointCardRWImpl.obj
 0001:0000e378       ?get_CapUpdateFirmware@COPOSPointCardRW@@UEAAJPEAF@Z 000000018000f378 f   PointCardRWImpl.obj
 0001:0000e3ac       ?get_CapUpdateStatistics@COPOSPointCardRW@@UEAAJPEAF@Z 000000018000f3ac f   PointCardRWImpl.obj
 0001:0000e3e0       ?get_CardState@COPOSPointCardRW@@UEAAJPEAJ@Z 000000018000f3e0 f   PointCardRWImpl.obj
 0001:0000e3f4       ?get_CharacterSet@COPOSPointCardRW@@UEAAJPEAJ@Z 000000018000f3f4 f   PointCardRWImpl.obj
 0001:0000e408       ?get_CharacterSetList@COPOSPointCardRW@@UEAAJPEAPEA_W@Z 000000018000f408 f   PointCardRWImpl.obj
 0001:0000e41c       ?get_CheckHealthText@COPOSPointCardRW@@UEAAJPEAPEA_W@Z 000000018000f41c f   PointCardRWImpl.obj
 0001:0000e430       ?get_Claimed@COPOSPointCardRW@@UEAAJPEAF@Z 000000018000f430 f   PointCardRWImpl.obj
 0001:0000e464       ?get_ControlObjectDescription@COPOSPointCardRW@@UEAAJPEAPEA_W@Z 000000018000f464 f   PointCardRWImpl.obj
 0001:0000e4c8       ?get_ControlObjectVersion@COPOSPointCardRW@@UEAAJPEAJ@Z 000000018000f4c8 f   PointCardRWImpl.obj
 0001:0000e4d4       ?get_DataCount@COPOSPointCardRW@@UEAAJPEAJ@Z 000000018000f4d4 f   PointCardRWImpl.obj
 0001:0000e4e8       ?get_DataEventEnabled@COPOSPointCardRW@@UEAAJPEAF@Z 000000018000f4e8 f   PointCardRWImpl.obj
 0001:0000e51c       ?get_DeviceDescription@COPOSPointCardRW@@UEAAJPEAPEA_W@Z 000000018000f51c f   PointCardRWImpl.obj
 0001:0000e530       ?get_DeviceEnabled@COPOSPointCardRW@@UEAAJPEAF@Z 000000018000f530 f   PointCardRWImpl.obj
 0001:0000e564       ?get_DeviceName@COPOSPointCardRW@@UEAAJPEAPEA_W@Z 000000018000f564 f   PointCardRWImpl.obj
 0001:0000e578       ?get_FontTypeFaceList@COPOSPointCardRW@@UEAAJPEAPEA_W@Z 000000018000f578 f   PointCardRWImpl.obj
 0001:0000e58c       ?get_FreezeEvents@COPOSPointCardRW@@UEAAJPEAF@Z 000000018000f58c f   PointCardRWImpl.obj
 0001:0000e5bc       ?get_LineChars@COPOSPointCardRW@@UEAAJPEAJ@Z 000000018000f5bc f   PointCardRWImpl.obj
 0001:0000e5d0       ?get_LineCharsList@COPOSPointCardRW@@UEAAJPEAPEA_W@Z 000000018000f5d0 f   PointCardRWImpl.obj
 0001:0000e5e4       ?get_LineHeight@COPOSPointCardRW@@UEAAJPEAJ@Z 000000018000f5e4 f   PointCardRWImpl.obj
 0001:0000e5f8       ?get_LineSpacing@COPOSPointCardRW@@UEAAJPEAJ@Z 000000018000f5f8 f   PointCardRWImpl.obj
 0001:0000e60c       ?get_LineWidth@COPOSPointCardRW@@UEAAJPEAJ@Z 000000018000f60c f   PointCardRWImpl.obj
 0001:0000e620       ?get_MapCharacterSet@COPOSPointCardRW@@UEAAJPEAF@Z 000000018000f620 f   PointCardRWImpl.obj
 0001:0000e654       ?get_MapMode@COPOSPointCardRW@@UEAAJPEAJ@Z 000000018000f654 f   PointCardRWImpl.obj
 0001:0000e668       ?get_MaxLine@COPOSPointCardRW@@UEAAJPEAJ@Z 000000018000f668 f   PointCardRWImpl.obj
 0001:0000e67c       ?get_OpenResult@COPOSPointCardRW@@UEAAJPEAJ@Z 000000018000f67c f   PointCardRWImpl.obj
 0001:0000e688       ?get_OutputID@COPOSPointCardRW@@UEAAJPEAJ@Z 000000018000f688 f   PointCardRWImpl.obj
 0001:0000e69c       ?get_PowerNotify@COPOSPointCardRW@@UEAAJPEAJ@Z 000000018000f69c f   PointCardRWImpl.obj
 0001:0000e6b0       ?get_PowerState@COPOSPointCardRW@@UEAAJPEAJ@Z 000000018000f6b0 f   PointCardRWImpl.obj
 0001:0000e6c4       ?get_PrintHeight@COPOSPointCardRW@@UEAAJPEAJ@Z 000000018000f6c4 f   PointCardRWImpl.obj
 0001:0000e6d8       ?get_ReadState1@COPOSPointCardRW@@UEAAJPEAJ@Z 000000018000f6d8 f   PointCardRWImpl.obj
 0001:0000e6ec       ?get_ReadState2@COPOSPointCardRW@@UEAAJPEAJ@Z 000000018000f6ec f   PointCardRWImpl.obj
 0001:0000e700       ?get_RecvLength1@COPOSPointCardRW@@UEAAJPEAJ@Z 000000018000f700 f   PointCardRWImpl.obj
 0001:0000e714       ?get_RecvLength2@COPOSPointCardRW@@UEAAJPEAJ@Z 000000018000f714 f   PointCardRWImpl.obj
 0001:0000e728       ?get_ResultCode@COPOSPointCardRW@@UEAAJPEAJ@Z 000000018000f728 f   PointCardRWImpl.obj
 0001:0000e764       ?get_ResultCodeExtended@COPOSPointCardRW@@UEAAJPEAJ@Z 000000018000f764 f   PointCardRWImpl.obj
 0001:0000e778       ?get_ServiceObjectDescription@COPOSPointCardRW@@UEAAJPEAPEA_W@Z 000000018000f778 f   PointCardRWImpl.obj
 0001:0000e78c       ?get_ServiceObjectVersion@COPOSPointCardRW@@UEAAJPEAJ@Z 000000018000f78c f   PointCardRWImpl.obj
 0001:0000e7a0       ?get_SidewaysMaxChars@COPOSPointCardRW@@UEAAJPEAJ@Z 000000018000f7a0 f   PointCardRWImpl.obj
 0001:0000e7b4       ?get_SidewaysMaxLines@COPOSPointCardRW@@UEAAJPEAJ@Z 000000018000f7b4 f   PointCardRWImpl.obj
 0001:0000e7c8       ?get_State@COPOSPointCardRW@@UEAAJPEAJ@Z 000000018000f7c8 f   PointCardRWImpl.obj
 0001:0000e7f4       ?get_Track1Data@COPOSPointCardRW@@UEAAJPEAPEA_W@Z 000000018000f7f4 f   PointCardRWImpl.obj
 0001:0000e808       ?get_Track2Data@COPOSPointCardRW@@UEAAJPEAPEA_W@Z 000000018000f808 f   PointCardRWImpl.obj
 0001:0000e81c       ?get_Track3Data@COPOSPointCardRW@@UEAAJPEAPEA_W@Z 000000018000f81c f   PointCardRWImpl.obj
 0001:0000e830       ?get_Track4Data@COPOSPointCardRW@@UEAAJPEAPEA_W@Z 000000018000f830 f   PointCardRWImpl.obj
 0001:0000e844       ?get_Track5Data@COPOSPointCardRW@@UEAAJPEAPEA_W@Z 000000018000f844 f   PointCardRWImpl.obj
 0001:0000e858       ?get_Track6Data@COPOSPointCardRW@@UEAAJPEAPEA_W@Z 000000018000f858 f   PointCardRWImpl.obj
 0001:0000e86c       ?get_TracksToRead@COPOSPointCardRW@@UEAAJPEAJ@Z 000000018000f86c f   PointCardRWImpl.obj
 0001:0000e880       ?get_TracksToWrite@COPOSPointCardRW@@UEAAJPEAJ@Z 000000018000f880 f   PointCardRWImpl.obj
 0001:0000e894       ?get_Write1Data@COPOSPointCardRW@@UEAAJPEAPEA_W@Z 000000018000f894 f   PointCardRWImpl.obj
 0001:0000e8a8       ?get_Write2Data@COPOSPointCardRW@@UEAAJPEAPEA_W@Z 000000018000f8a8 f   PointCardRWImpl.obj
 0001:0000e8bc       ?get_Write3Data@COPOSPointCardRW@@UEAAJPEAPEA_W@Z 000000018000f8bc f   PointCardRWImpl.obj
 0001:0000e8d0       ?get_Write4Data@COPOSPointCardRW@@UEAAJPEAPEA_W@Z 000000018000f8d0 f   PointCardRWImpl.obj
 0001:0000e8e4       ?get_Write5Data@COPOSPointCardRW@@UEAAJPEAPEA_W@Z 000000018000f8e4 f   PointCardRWImpl.obj
 0001:0000e8f8       ?get_Write6Data@COPOSPointCardRW@@UEAAJPEAPEA_W@Z 000000018000f8f8 f   PointCardRWImpl.obj
 0001:0000e90c       ?get_WriteState1@COPOSPointCardRW@@UEAAJPEAJ@Z 000000018000f90c f   PointCardRWImpl.obj
 0001:0000e920       ?get_WriteState2@COPOSPointCardRW@@UEAAJPEAJ@Z 000000018000f920 f   PointCardRWImpl.obj
 0001:0000e934       ?put_BinaryConversion@COPOSPointCardRW@@UEAAJJ@Z 000000018000f934 f   PointCardRWImpl.obj
 0001:0000e948       ?put_CharacterSet@COPOSPointCardRW@@UEAAJJ@Z 000000018000f948 f   PointCardRWImpl.obj
 0001:0000e95c       ?put_DataEventEnabled@COPOSPointCardRW@@UEAAJF@Z 000000018000f95c f   PointCardRWImpl.obj
 0001:0000e974       ?put_DeviceEnabled@COPOSPointCardRW@@UEAAJF@Z 000000018000f974 f   PointCardRWImpl.obj
 0001:0000e98c       ?put_FreezeEvents@COPOSPointCardRW@@UEAAJF@Z 000000018000f98c f   PointCardRWImpl.obj
 0001:0000e9dc       ?put_LineChars@COPOSPointCardRW@@UEAAJJ@Z 000000018000f9dc f   PointCardRWImpl.obj
 0001:0000e9f0       ?put_LineHeight@COPOSPointCardRW@@UEAAJJ@Z 000000018000f9f0 f   PointCardRWImpl.obj
 0001:0000ea04       ?put_LineSpacing@COPOSPointCardRW@@UEAAJJ@Z 000000018000fa04 f   PointCardRWImpl.obj
 0001:0000ea18       ?put_MapCharacterSet@COPOSPointCardRW@@UEAAJF@Z 000000018000fa18 f   PointCardRWImpl.obj
 0001:0000ea34       ?put_MapMode@COPOSPointCardRW@@UEAAJJ@Z 000000018000fa34 f   PointCardRWImpl.obj
 0001:0000ea48       ?put_PowerNotify@COPOSPointCardRW@@UEAAJJ@Z 000000018000fa48 f   PointCardRWImpl.obj
 0001:0000ea5c       ?put_TracksToRead@COPOSPointCardRW@@UEAAJJ@Z 000000018000fa5c f   PointCardRWImpl.obj
 0001:0000ea70       ?put_TracksToWrite@COPOSPointCardRW@@UEAAJJ@Z 000000018000fa70 f   PointCardRWImpl.obj
 0001:0000ea84       ?put_Write1Data@COPOSPointCardRW@@UEAAJPEA_W@Z 000000018000fa84 f   PointCardRWImpl.obj
 0001:0000ea98       ?put_Write2Data@COPOSPointCardRW@@UEAAJPEA_W@Z 000000018000fa98 f   PointCardRWImpl.obj
 0001:0000eaac       ?put_Write3Data@COPOSPointCardRW@@UEAAJPEA_W@Z 000000018000faac f   PointCardRWImpl.obj
 0001:0000eac0       ?put_Write4Data@COPOSPointCardRW@@UEAAJPEA_W@Z 000000018000fac0 f   PointCardRWImpl.obj
 0001:0000ead4       ?put_Write5Data@COPOSPointCardRW@@UEAAJPEA_W@Z 000000018000fad4 f   PointCardRWImpl.obj
 0001:0000eae8       ?put_Write6Data@COPOSPointCardRW@@UEAAJPEA_W@Z 000000018000fae8 f   PointCardRWImpl.obj
 0001:0000eafc       ?s_EventWindowProc@COPOSPointCardRW@@KA_JPEAUHWND__@@I_K_J@Z 000000018000fafc f i PointCardRWImpl.obj
 0001:0000eb78       ??_U@YAPEAX_K@Z            000000018000fb78 f   LIBCMT:new_array.obj
 0001:0000eb80       ??_V@YAXPEAX@Z             000000018000fb80 f   LIBCMT:delete_array.obj
 0001:0000eb80       ??3@YAXPEAX_K@Z            000000018000fb80 f   LIBCMT:delete_scalar_size.obj
 0001:0000eb88       ??_V@YAXPEAX_K@Z           000000018000fb88 f   LIBCMT:delete_array_size.obj
 0001:0000eb90       __scrt_acquire_startup_lock 000000018000fb90 f   LIBCMT:utility.obj
 0001:0000ebcc       __scrt_dllmain_after_initialize_c 000000018000fbcc f   LIBCMT:utility.obj
 0001:0000ec00       __scrt_dllmain_before_initialize_c 000000018000fc00 f   LIBCMT:utility.obj
 0001:0000ec18       __scrt_dllmain_crt_thread_attach 000000018000fc18 f   LIBCMT:utility.obj
 0001:0000ec40       __scrt_dllmain_crt_thread_detach 000000018000fc40 f   LIBCMT:utility.obj
 0001:0000ec58       __scrt_dllmain_exception_filter 000000018000fc58 f   LIBCMT:utility.obj
 0001:0000ecb8       __scrt_dllmain_uninitialize_c 000000018000fcb8 f   LIBCMT:utility.obj
 0001:0000ece8       __scrt_dllmain_uninitialize_critical 000000018000fce8 f   LIBCMT:utility.obj
 0001:0000ecfc       __scrt_initialize_crt      000000018000fcfc f   LIBCMT:utility.obj
 0001:0000ed48       __scrt_initialize_onexit_tables 000000018000fd48 f   LIBCMT:utility.obj
 0001:0000edd4       __scrt_is_nonwritable_in_current_image 000000018000fdd4 f   LIBCMT:utility.obj
 0001:0000ee6c       __scrt_release_startup_lock 000000018000fe6c f   LIBCMT:utility.obj
 0001:0000ee90       __scrt_uninitialize_crt    000000018000fe90 f   LIBCMT:utility.obj
 0001:0000eebc       _onexit                    000000018000febc f   LIBCMT:utility.obj
 0001:0000eef8       atexit                     000000018000fef8 f   LIBCMT:utility.obj
 0001:0000ef10       ??3@YAXPEAX@Z              000000018000ff10 f   LIBCMT:delete_scalar.obj
 0001:0000f010       _Init_thread_footer        0000000180010010 f   LIBCMT:thread_safe_statics.obj
 0001:0000f070       _Init_thread_header        0000000180010070 f   LIBCMT:thread_safe_statics.obj
 0001:0000f0d8       _Init_thread_notify        00000001800100d8 f   LIBCMT:thread_safe_statics.obj
 0001:0000f11c       _Init_thread_wait          000000018001011c f   LIBCMT:thread_safe_statics.obj
 0001:0000f180       __raise_securityfailure    0000000180010180 f   LIBCMT:gs_report.obj
 0001:0000f1b4       __report_gsfailure         00000001800101b4 f   LIBCMT:gs_report.obj
 0001:0000f288       __report_rangecheckfailure 0000000180010288 f   LIBCMT:gs_report.obj
 0001:0000f29c       __report_securityfailure   000000018001029c f   LIBCMT:gs_report.obj
 0001:0000f41c       ??2@YAPEAX_KAEBUnothrow_t@std@@@Z 000000018001041c f   LIBCMT:new_scalar_nothrow.obj
 0001:0000f430       ??_U@YAPEAX_KAEBUnothrow_t@std@@@Z 0000000180010430 f   LIBCMT:new_array_nothrow.obj
 0001:0000f438       __GSHandlerCheck           0000000180010438 f   LIBCMT:gshandler.obj
 0001:0000f458       __GSHandlerCheckCommon     0000000180010458 f   LIBCMT:gshandler.obj
 0001:0000f4b4       __GSHandlerCheck_SEH       00000001800104b4 f   LIBCMT:gshandlerseh.obj
 0001:0000f550       __chkstk                   0000000180010550 f   LIBCMT:chkstk.obj
 0001:0000f550       _alloca_probe              0000000180010550 f   LIBCMT:chkstk.obj
 0001:0000f5b0       __security_check_cookie    00000001800105b0 f   LIBCMT:amdsecgs.obj
 0001:0000f8f0       _DllMainCRTStartup         00000001800108f0 f   LIBCMT:dll_dllmain.obj
 0001:0000f930       ??2@YAPEAX_K@Z             0000000180010930 f   LIBCMT:new_scalar.obj
 0001:0000f96c       __isa_available_init       000000018001096c f   LIBCMT:cpu_disp.obj
 0001:0000fb10       __scrt_is_ucrt_dll_in_use  0000000180010b10 f   LIBCMT:ucrt_detection.obj
 0001:0000fb1c       __crt_debugger_hook        0000000180010b1c f   LIBCMT:utility_desktop.obj
 0001:0000fb24       __scrt_fastfail            0000000180010b24 f   LIBCMT:utility_desktop.obj
 0001:0000fc70       __security_init_cookie     0000000180010c70 f   LIBCMT:gs_support.obj
 0001:0000fd1c       ?__scrt_initialize_type_info@@YAXXZ 0000000180010d1c f   LIBCMT:tncleanup.obj
 0001:0000fd2c       ?__scrt_uninitialize_type_info@@YAXXZ 0000000180010d2c f   LIBCMT:tncleanup.obj
 0001:0000fd38       __local_stdio_scanf_options 0000000180010d38 f i LIBCMT:default_local_stdio_options.obj
 0001:0000fd40       __scrt_initialize_default_local_stdio_options 0000000180010d40 f   LIBCMT:default_local_stdio_options.obj
 0001:0000fd5c       __scrt_get_dyn_tls_init_callback 0000000180010d5c f   LIBCMT:dyn_tls_init.obj
 0001:0000fd64       _RTC_Initialize            0000000180010d64 f   LIBCMT:initsect.obj
 0001:0000fda0       _RTC_Terminate             0000000180010da0 f   LIBCMT:initsect.obj
 0001:0000fddc       ??0bad_alloc@std@@QEAA@AEBV01@@Z 0000000180010ddc f i LIBCMT:throw_bad_alloc.obj
 0001:0000fe18       ??0bad_alloc@std@@QEAA@XZ  0000000180010e18 f i LIBCMT:throw_bad_alloc.obj
 0001:0000fe38       ??0bad_array_new_length@std@@QEAA@AEBV01@@Z 0000000180010e38 f i LIBCMT:throw_bad_alloc.obj
 0001:0000fe74       ??0bad_array_new_length@std@@QEAA@XZ 0000000180010e74 f i LIBCMT:throw_bad_alloc.obj
 0001:0000fe94       ??0exception@std@@QEAA@AEBV01@@Z 0000000180010e94 f i LIBCMT:throw_bad_alloc.obj
 0001:0000fec8       ??1bad_alloc@std@@UEAA@XZ  0000000180010ec8 f i LIBCMT:throw_bad_alloc.obj
 0001:0000fec8       ??1bad_exception@std@@UEAA@XZ 0000000180010ec8 f i libvcruntime:frame.obj
 0001:0000fec8       ??1bad_array_new_length@std@@UEAA@XZ 0000000180010ec8 f i LIBCMT:throw_bad_alloc.obj
 0001:0000fedc       ??_Gbad_exception@std@@UEAAPEAXI@Z 0000000180010edc f i libvcruntime:frame.obj
 0001:0000fedc       ??_Ebad_alloc@std@@UEAAPEAXI@Z 0000000180010edc f i LIBCMT:throw_bad_alloc.obj
 0001:0000fedc       ??_Gbad_alloc@std@@UEAAPEAXI@Z 0000000180010edc f i LIBCMT:throw_bad_alloc.obj
 0001:0000fedc       ??_Ebad_array_new_length@std@@UEAAPEAXI@Z 0000000180010edc f i LIBCMT:throw_bad_alloc.obj
 0001:0000fedc       ??_Gbad_array_new_length@std@@UEAAPEAXI@Z 0000000180010edc f i LIBCMT:throw_bad_alloc.obj
 0001:0000fedc       ??_Gexception@std@@UEAAPEAXI@Z 0000000180010edc f i LIBCMT:throw_bad_alloc.obj
 0001:0000fedc       ??_Ebad_exception@std@@UEAAPEAXI@Z 0000000180010edc f i libvcruntime:frame.obj
 0001:0000fedc       ??_Eexception@std@@UEAAPEAXI@Z 0000000180010edc f i LIBCMT:throw_bad_alloc.obj
 0001:0000ff20       ?__scrt_throw_std_bad_alloc@@YAXXZ 0000000180010f20 f   LIBCMT:throw_bad_alloc.obj
 0001:0000ff40       ?__scrt_throw_std_bad_array_new_length@@YAXXZ 0000000180010f40 f   LIBCMT:throw_bad_alloc.obj
 0001:0000ff60       ?what@exception@std@@UEBAPEBDXZ 0000000180010f60 f i LIBCMT:throw_bad_alloc.obj
 0001:0000ff80       ??_Gtype_info@@UEAAPEAXI@Z 0000000180010f80 f i LIBCMT:std_type_info_static.obj
 0001:0000ff80       ??_Etype_info@@UEAAPEAXI@Z 0000000180010f80 f i LIBCMT:std_type_info_static.obj
 0001:0000ffac       ??0CAtlBaseModule@ATL@@QEAA@XZ 0000000180010fac f   atls:atlbase.obj
 0001:00010054       ??1CAtlBaseModule@ATL@@QEAA@XZ 0000000180011054 f   atls:atlbase.obj
 0001:00010188       ?__AllocStdCallThunk_cmn@@YAPEAXXZ 0000000180011188 f   atls:atlthunk.obj
 0001:000102e0       AtlThunk_AllocateData      00000001800112e0 f   atls:atlthunk.obj
 0001:0001035c       AtlThunk_DataToCode        000000018001135c f   atls:atlthunk.obj
 0001:000103b0       AtlThunk_FreeData          00000001800113b0 f   atls:atlthunk.obj
 0001:00010410       AtlThunk_InitData          0000000180011410 f   atls:atlthunk.obj
 0001:000104b8       _get_purecall_handler      00000001800114b8 f   libvcruntime:purevirt.obj
 0001:000104c4       _purecall                  00000001800114c4 f   libvcruntime:purevirt.obj
 0001:000104e0       wcsstr                     00000001800114e0 f   libvcruntime:wcsstr.obj
 0001:00010710       memcmp                     0000000180011710 f   libvcruntime:memcmp.obj
 0001:000107f0       memcpy_repmovs             00000001800117f0 f   libvcruntime:memcpy.obj
 0001:00010810       memmove                    0000000180011810 f   libvcruntime:memcpy.obj
 0001:00010810       memcpy                     0000000180011810 f   libvcruntime:memcpy.obj
 0001:00010ea0       memset_repmovs             0000000180011ea0 f   libvcruntime:memset.obj
 0001:00010ec0       memset                     0000000180011ec0 f   libvcruntime:memset.obj
 0001:00011050       __vcrt_initialize          0000000180012050 f   libvcruntime:initialization.obj
 0001:00011078       __vcrt_thread_attach       0000000180012078 f   libvcruntime:initialization.obj
 0001:0001108c       __vcrt_thread_detach       000000018001208c f   libvcruntime:initialization.obj
 0001:000110a0       __vcrt_uninitialize        00000001800120a0 f   libvcruntime:initialization.obj
 0001:000110bc       __vcrt_uninitialize_critical 00000001800120bc f   libvcruntime:initialization.obj
 0001:000110cc       __C_specific_handler       00000001800120cc f   libvcruntime:riscchandler.obj
 0001:000112c4       ??$_CallSETranslator@V__FrameHandler3@@@@YAHPEAUEHExceptionRecord@@PEA_KPEAU_CONTEXT@@PEAU_xDISPATCHER_CONTEXT@@PEBU_s_FuncInfo@@K1H@Z 00000001800122c4 f i libvcruntime:risctrnsctrl.obj
 0001:00011318       ??$_CallSETranslator@V__FrameHandler4@@@@YAHPEAUEHExceptionRecord@@PEA_KPEAU_CONTEXT@@PEAU_xDISPATCHER_CONTEXT@@PEAUFuncInfo4@FH4@@K1H@Z 0000000180012318 f i libvcruntime:risctrnsctrl.obj
 0001:0001136c       ?CatchTryBlock@__FrameHandler3@@SAPEBU_s_TryBlockMapEntry@@PEBU_s_FuncInfo@@H@Z 000000018001236c f   libvcruntime:risctrnsctrl.obj
 0001:000113d0       ?DecompFuncInfo@FH4@@YA_JPEAEAEAUFuncInfo4@1@_KH_N@Z 00000001800123d0 f i libvcruntime:risctrnsctrl.obj
 0001:000114f4       ?ExecutionInCatch@__FrameHandler3@@SA_NPEAU_xDISPATCHER_CONTEXT@@PEBU_s_FuncInfo@@@Z 00000001800124f4 f   libvcruntime:risctrnsctrl.obj
 0001:00011520       ?ExecutionInCatch@__FrameHandler4@@SA_NPEAU_xDISPATCHER_CONTEXT@@PEAUFuncInfo4@FH4@@@Z 0000000180012520 f   libvcruntime:risctrnsctrl.obj
 0001:00011528       ?FrameUnwindToEmptyState@__FrameHandler3@@SAXPEA_KPEAU_xDISPATCHER_CONTEXT@@PEBU_s_FuncInfo@@@Z 0000000180012528 f   libvcruntime:risctrnsctrl.obj
 0001:0001158c       ?FrameUnwindToEmptyState@__FrameHandler4@@SAXPEA_KPEAU_xDISPATCHER_CONTEXT@@PEAUFuncInfo4@FH4@@@Z 000000018001258c f   libvcruntime:risctrnsctrl.obj
 0001:000115c0       ?GetEstablisherFrame@__FrameHandler3@@SAPEA_KPEA_KPEAU_xDISPATCHER_CONTEXT@@PEBU_s_FuncInfo@@0@Z 00000001800125c0 f   libvcruntime:risctrnsctrl.obj
 0001:0001168c       ?GetEstablisherFrame@__FrameHandler4@@SAPEA_KPEA_KPEAU_xDISPATCHER_CONTEXT@@PEAUFuncInfo4@FH4@@0@Z 000000018001268c f   libvcruntime:risctrnsctrl.obj
 0001:000116b0       ?GetRangeOfTrysToCheck@__FrameHandler3@@SA?AU?$pair@Viterator@TryBlockMap@__FrameHandler3@@V123@@std@@AEAVTryBlockMap@1@HPEAU_xDISPATCHER_CONTEXT@@PEBU_s_FuncInfo@@H@Z 00000001800126b0 f   libvcruntime:risctrnsctrl.obj
 0001:000117f0       ?GetRangeOfTrysToCheck@__FrameHandler4@@SA?AU?$pair@Viterator@TryBlockMap4@FH4@@V123@@std@@AEAVTryBlockMap4@FH4@@HPEAU_xDISPATCHER_CONTEXT@@PEAUFuncInfo4@5@H@Z 00000001800127f0 f   libvcruntime:risctrnsctrl.obj
 0001:0001195c       ?UnwindNestedFrames@__FrameHandler3@@SAXPEA_KPEAUEHExceptionRecord@@PEAU_CONTEXT@@0PEAXPEBU_s_FuncInfo@@HHPEBU_s_HandlerType@@PEAU_xDISPATCHER_CONTEXT@@E@Z 000000018001295c f   libvcruntime:risctrnsctrl.obj
 0001:00011a60       ?UnwindNestedFrames@__FrameHandler4@@SAXPEA_KPEAUEHExceptionRecord@@PEAU_CONTEXT@@0PEAXPEAUFuncInfo4@FH4@@HHPEAUHandlerType4@5@PEAU_xDISPATCHER_CONTEXT@@E@Z 0000000180012a60 f   libvcruntime:risctrnsctrl.obj
 0001:00011b80       ?setBuffer@TryBlockMap4@FH4@@QEAAXViterator@12@@Z 0000000180012b80 f i libvcruntime:risctrnsctrl.obj
 0001:00011d44       _CreateFrameInfo           0000000180012d44 f   libvcruntime:risctrnsctrl.obj
 0001:00011d80       _FindAndUnlinkFrame        0000000180012d80 f   libvcruntime:risctrnsctrl.obj
 0001:00011dd4       _GetImageBase              0000000180012dd4 f   libvcruntime:risctrnsctrl.obj
 0001:00011de8       _GetThrowImageBase         0000000180012de8 f   libvcruntime:risctrnsctrl.obj
 0001:00011dfc       _SetImageBase              0000000180012dfc f   libvcruntime:risctrnsctrl.obj
 0001:00011e14       _SetThrowImageBase         0000000180012e14 f   libvcruntime:risctrnsctrl.obj
 0001:00011e2c       __CxxFrameHandler3         0000000180012e2c f   libvcruntime:risctrnsctrl.obj
 0001:00011eb4       __CxxFrameHandler4         0000000180012eb4 f   libvcruntime:risctrnsctrl.obj
 0001:00011f74       __DestructExceptionObject  0000000180012f74 f   libvcruntime:ehhelpers.obj
 0001:00011fe4       ?_CallMemberFunction0@@YAXQEAX0@Z 0000000180012fe4 f i libvcruntime:ehhelpers.obj
 0001:00011fe8       _IsExceptionObjectToBeDestroyed 0000000180012fe8 f   libvcruntime:ehhelpers.obj
 0001:00012018       __AdjustPointer            0000000180013018 f   libvcruntime:ehhelpers.obj
 0001:0001203c       __FrameUnwindFilter        000000018001303c f   libvcruntime:ehhelpers.obj
 0001:000120a4       __std_terminate            00000001800130a4 f   libvcruntime:ehhelpers.obj
 0001:000120b0       __std_type_info_compare    00000001800130b0 f   libvcruntime:std_type_info.obj
 0001:000120d8       __std_type_info_destroy_list 00000001800130d8 f   libvcruntime:std_type_info.obj
 0001:00012104       __std_exception_copy       0000000180013104 f   libvcruntime:std_exception.obj
 0001:00012194       __std_exception_destroy    0000000180013194 f   libvcruntime:std_exception.obj
 0001:000121bc       _CxxThrowException         00000001800131bc f   libvcruntime:throw.obj
 0001:0001225c       __vcrt_freefls             000000018001325c f   libvcruntime:per_thread_data.obj
 0001:0001227c       __vcrt_freeptd             000000018001327c f   libvcruntime:per_thread_data.obj
 0001:000122cc       __vcrt_getptd              00000001800132cc f   libvcruntime:per_thread_data.obj
 0001:000122e8       __vcrt_getptd_noexit       00000001800132e8 f   libvcruntime:per_thread_data.obj
 0001:000123a8       __vcrt_initialize_ptd      00000001800133a8 f   libvcruntime:per_thread_data.obj
 0001:000123f0       __vcrt_uninitialize_ptd    00000001800133f0 f   libvcruntime:per_thread_data.obj
 0001:00012414       __vcrt_initialize_locks    0000000180013414 f   libvcruntime:locks.obj
 0001:0001245c       __vcrt_uninitialize_locks  000000018001345c f   libvcruntime:locks.obj
 0001:000124b0       _NLG_Notify                00000001800134b0 f   libvcruntime:notify.obj
 0001:000124d0       __NLG_Dispatch2            00000001800134d0 f   libvcruntime:notify.obj
 0001:000124e0       __NLG_Return2              00000001800134e0 f   libvcruntime:notify.obj
 0001:000124e4       __except_validate_context_record 00000001800134e4 f   libvcruntime:jbcxrval.obj
 0001:0001251c       ?GetCurrentState@__FrameHandler3@@SAHPEA_KPEAU_xDISPATCHER_CONTEXT@@PEBU_s_FuncInfo@@@Z 000000018001351c f   libvcruntime:ehstate.obj
 0001:00012544       ?GetUnwindTryBlock@__FrameHandler3@@SAHPEA_KPEAU_xDISPATCHER_CONTEXT@@PEBU_s_FuncInfo@@@Z 0000000180013544 f   libvcruntime:ehstate.obj
 0001:00012570       ?SetState@__FrameHandler3@@SAXPEA_KPEBU_s_FuncInfo@@H@Z 0000000180013570 f   libvcruntime:ehstate.obj
 0001:0001257c       ?SetUnwindTryBlock@__FrameHandler3@@SAXPEA_KPEAU_xDISPATCHER_CONTEXT@@PEBU_s_FuncInfo@@H@Z 000000018001357c f   libvcruntime:ehstate.obj
 0001:000125b8       ?StateFromControlPc@__FrameHandler3@@SAHPEBU_s_FuncInfo@@PEAU_xDISPATCHER_CONTEXT@@@Z 00000001800135b8 f   libvcruntime:ehstate.obj
 0001:000125c0       ?StateFromControlPc@__FrameHandler4@@SAHPEAUFuncInfo4@FH4@@PEAU_xDISPATCHER_CONTEXT@@@Z 00000001800135c0 f   libvcruntime:ehstate.obj
 0001:000125c8       ?StateFromIp@__FrameHandler3@@SAHPEBU_s_FuncInfo@@PEAU_xDISPATCHER_CONTEXT@@_K@Z 00000001800135c8 f   libvcruntime:ehstate.obj
 0001:00012630       ?StateFromIp@__FrameHandler4@@SAHPEAUFuncInfo4@FH4@@PEAU_xDISPATCHER_CONTEXT@@_K@Z 0000000180013630 f   libvcruntime:ehstate.obj
 0001:00013d30       ??$TypeMatchHelper@V__FrameHandler3@@@@YAHPEBU_s_HandlerType@@PEBU_s_CatchableType@@PEBU_s_ThrowInfo@@@Z 0000000180014d30 f i libvcruntime:frame.obj
 0001:00013e70       ??$TypeMatchHelper@V__FrameHandler4@@@@YAHPEAUHandlerType4@FH4@@PEBU_s_CatchableType@@PEBU_s_ThrowInfo@@@Z 0000000180014e70 f i libvcruntime:frame.obj
 0001:00013fb4       ??$__InternalCxxFrameHandler@V__FrameHandler3@@@@YA?AW4_EXCEPTION_DISPOSITION@@PEAUEHExceptionRecord@@PEA_KPEAU_CONTEXT@@PEAU_xDISPATCHER_CONTEXT@@PEBU_s_FuncInfo@@H1E@Z 0000000180014fb4 f i libvcruntime:frame.obj
 0001:000141ec       ??$__InternalCxxFrameHandler@V__FrameHandler4@@@@YA?AW4_EXCEPTION_DISPOSITION@@PEAUEHExceptionRecord@@PEA_KPEAU_CONTEXT@@PEAU_xDISPATCHER_CONTEXT@@PEAUFuncInfo4@FH4@@H1E@Z 00000001800151ec f i libvcruntime:frame.obj
 0001:00014480       ??0HandlerMap4@FH4@@QEAA@PEBUTryBlockMapEntry4@1@_KH@Z 0000000180015480 f i libvcruntime:frame.obj
 0001:000144fc       ??0TryBlockMap4@FH4@@QEAA@PEBUFuncInfo4@1@_K@Z 00000001800154fc f i libvcruntime:frame.obj
 0001:000145d4       ??0bad_exception@std@@QEAA@AEBV01@@Z 00000001800155d4 f i libvcruntime:frame.obj
 0001:00014610       ??0bad_exception@std@@QEAA@XZ 0000000180015610 f i libvcruntime:frame.obj
 0001:00014630       ?CxxCallCatchBlock@__FrameHandler3@@SAPEAXPEAU_EXCEPTION_RECORD@@@Z 0000000180015630 f   libvcruntime:frame.obj
 0001:0001481c       ?CxxCallCatchBlock@__FrameHandler4@@SAPEAXPEAU_EXCEPTION_RECORD@@@Z 000000018001581c f   libvcruntime:frame.obj
 0001:00014a6c       ?DecompHandler@HandlerMap4@FH4@@AEAAXXZ 0000000180015a6c f i libvcruntime:frame.obj
 0001:00014cb8       ?FrameUnwindToState@__FrameHandler3@@SAXPEA_KPEAU_xDISPATCHER_CONTEXT@@PEBU_s_FuncInfo@@H@Z 0000000180015cb8 f   libvcruntime:frame.obj
 0001:00014e44       ?FrameUnwindToState@__FrameHandler4@@SAXPEA_KPEAU_xDISPATCHER_CONTEXT@@PEAUFuncInfo4@FH4@@H@Z 0000000180015e44 f   libvcruntime:frame.obj
 0001:00015140       ?GetHandlerSearchState@__FrameHandler3@@SAHPEA_KPEAU_xDISPATCHER_CONTEXT@@PEBU_s_FuncInfo@@@Z 0000000180016140 f i libvcruntime:frame.obj
 0001:00015350       ?ReadEntry@UWMap4@FH4@@AEAAXPEAPEAE@Z 0000000180016350 f i libvcruntime:frame.obj
 0001:000153ec       ?_CallMemberFunction1@@YAXQEAX00@Z 00000001800163ec f i libvcruntime:frame.obj
 0001:000153f8       ?_CallMemberFunction2@@YAXQEAX00H@Z 00000001800163f8 f i libvcruntime:frame.obj
 0001:00015408       ?getStartStop@UWMap4@FH4@@QEAAXHHAEAViterator@12@0@Z 0000000180016408 f i libvcruntime:frame.obj
 0001:000154d8       ?getStateFromIterators@UWMap4@FH4@@SAHAEBViterator@12@H0H0@Z 00000001800164d8 f i libvcruntime:frame.obj
 0001:000156f4       __vcrt_FlsAlloc            00000001800166f4 f   libvcruntime:winapi_downlevel.obj
 0001:0001573c       __vcrt_FlsFree             000000018001673c f   libvcruntime:winapi_downlevel.obj
 0001:00015784       __vcrt_FlsGetValue         0000000180016784 f   libvcruntime:winapi_downlevel.obj
 0001:000157cc       __vcrt_FlsSetValue         00000001800167cc f   libvcruntime:winapi_downlevel.obj
 0001:00015820       __vcrt_InitializeCriticalSectionEx 0000000180016820 f   libvcruntime:winapi_downlevel.obj
 0001:000158a0       _CallSettingFrame          00000001800168a0 f   libvcruntime:handlers.obj
 0001:000158f0       _CallSettingFrame_LookupContinuationIndex 00000001800168f0 f   libvcruntime:handlers.obj
 0001:00015920       _CallSettingFrame_NotifyContinuationAddr 0000000180016920 f   libvcruntime:handlers.obj
 0001:00015950       _CallSettingFrameEncoded   0000000180016950 f   libvcruntime:handlers.obj
 0001:00015998       free                       0000000180016998 f   libucrt:free.obj
 0001:000159ac       ?get_raw_ptd@__crt_cached_ptd_host@@QEAAPEAU__acrt_ptd@@XZ 00000001800169ac f i libucrt:invalid_parameter.obj
 0001:00015a14       ?get_raw_ptd_noexit@__crt_cached_ptd_host@@QEAAPEAU__acrt_ptd@@XZ 0000000180016a14 f i libucrt:invalid_parameter.obj
 0001:00015a80       ?value@?$dual_state_global@P6AXPEB_W00I_K@Z@__crt_state_management@@QEAAAEAP6AXPEB_W00I_K@ZAEAV__crt_cached_ptd_host@@@Z 0000000180016a80 f i libucrt:invalid_parameter.obj
 0001:00015acc       __acrt_call_reportfault    0000000180016acc f   libucrt:invalid_parameter.obj
 0001:00015c28       __acrt_initialize_invalid_parameter_handler 0000000180016c28 f   libucrt:invalid_parameter.obj
 0001:00015c30       _invalid_parameter         0000000180016c30 f   libucrt:invalid_parameter.obj
 0001:00015ccc       _invalid_parameter_internal 0000000180016ccc f   libucrt:invalid_parameter.obj
 0001:00015d9c       _invalid_parameter_noinfo  0000000180016d9c f   libucrt:invalid_parameter.obj
 0001:00015dbc       _invoke_watson             0000000180016dbc f   libucrt:invalid_parameter.obj
 0001:00015e04       __acrt_errno_from_os_error 0000000180016e04 f   libucrt:errno.obj
 0001:00015e4c       __acrt_errno_map_os_error  0000000180016e4c f   libucrt:errno.obj
 0001:00015e94       __acrt_errno_map_os_error_ptd 0000000180016e94 f   libucrt:errno.obj
 0001:00015eb8       __doserrno                 0000000180016eb8 f   libucrt:errno.obj
 0001:00015ed8       _errno                     0000000180016ed8 f   libucrt:errno.obj
 0001:00015ef8       calloc                     0000000180016ef8 f   libucrt:calloc.obj
 0001:00015f00       malloc                     0000000180016f00 f   libucrt:malloc.obj
 0001:00015f08       _recalloc                  0000000180016f08 f   libucrt:recalloc.obj
 0001:00015f10       _recalloc_base             0000000180016f10 f   libucrt:recalloc.obj
 0001:00015fa8       _resetstkoflw              0000000180016fa8 f   libucrt:resetstk.obj
 0001:000160d4       wcscat_s                   00000001800170d4 f   libucrt:wcscat_s.obj
 0001:00016158       wcscpy_s                   0000000180017158 f   libucrt:wcscpy_s.obj
 0001:000161c0       wcsncpy_s                  00000001800171c0 f   libucrt:wcsncpy_s.obj
 0001:00016474       ??$ensure_buffer_is_big_enough@D@formatting_buffer@__crt_stdio_output@@QEAA_N_KAEAV__crt_cached_ptd_host@@@Z 0000000180017474 f i libucrt:output.obj
 0001:0001651c       ??$ensure_buffer_is_big_enough@_W@formatting_buffer@__crt_stdio_output@@QEAA_N_KAEAV__crt_cached_ptd_host@@@Z 000000018001751c f i libucrt:output.obj
 0001:000165c8       ??$is_wide_character_specifier@_W@__crt_stdio_output@@YA_N_K_WW4length_modifier@0@@Z 00000001800175c8 f i libucrt:output.obj
 0001:00016608       ??$parse_integer@KV?$c_string_character_source@_W@__crt_strtox@@$0A@@__crt_strtox@@YAKAEAV__crt_cached_ptd_host@@V?$c_string_character_source@_W@0@H_N@Z 0000000180017608 f i libucrt:output.obj
 0001:00016d60       ??$type_case_integer@$07@?$output_processor@_WV?$string_output_adapter@_W@__crt_stdio_output@@V?$format_validation_base@_WV?$string_output_adapter@_W@__crt_stdio_output@@@2@@__crt_stdio_output@@AEAA_N_N@Z 0000000180017d60 f i libucrt:output.obj
 0001:00016f4c       ??$type_case_integer@$09@?$output_processor@_WV?$string_output_adapter@_W@__crt_stdio_output@@V?$format_validation_base@_WV?$string_output_adapter@_W@__crt_stdio_output@@@2@@__crt_stdio_output@@AEAA_N_N@Z 0000000180017f4c f i libucrt:output.obj
 0001:00017138       ??$type_case_integer@$0BA@@?$output_processor@_WV?$string_output_adapter@_W@__crt_stdio_output@@V?$format_validation_base@_WV?$string_output_adapter@_W@__crt_stdio_output@@@2@@__crt_stdio_output@@AEAA_N_N@Z 0000000180018138 f i libucrt:output.obj
 0001:00017324       ??$type_case_integer_parse_into_buffer@I$07@?$output_processor@_WV?$string_output_adapter@_W@__crt_stdio_output@@V?$format_validation_base@_WV?$string_output_adapter@_W@__crt_stdio_output@@@2@@__crt_stdio_output@@AEAAXI_N@Z 0000000180018324 f i libucrt:output.obj
 0001:000173ac       ??$type_case_integer_parse_into_buffer@I$09@?$output_processor@_WV?$string_output_adapter@_W@__crt_stdio_output@@V?$format_validation_base@_WV?$string_output_adapter@_W@__crt_stdio_output@@@2@@__crt_stdio_output@@AEAAXI_N@Z 00000001800183ac f i libucrt:output.obj
 0001:00017464       ??$type_case_integer_parse_into_buffer@I$0BA@@?$output_processor@_WV?$string_output_adapter@_W@__crt_stdio_output@@V?$format_validation_base@_WV?$string_output_adapter@_W@__crt_stdio_output@@@2@@__crt_stdio_output@@AEAAXI_N@Z 0000000180018464 f i libucrt:output.obj
 0001:00017508       ??$type_case_integer_parse_into_buffer@_K$07@?$output_processor@_WV?$string_output_adapter@_W@__crt_stdio_output@@V?$format_validation_base@_WV?$string_output_adapter@_W@__crt_stdio_output@@@2@@__crt_stdio_output@@AEAAX_K_N@Z 0000000180018508 f i libucrt:output.obj
 0001:00017590       ??$type_case_integer_parse_into_buffer@_K$09@?$output_processor@_WV?$string_output_adapter@_W@__crt_stdio_output@@V?$format_validation_base@_WV?$string_output_adapter@_W@__crt_stdio_output@@@2@@__crt_stdio_output@@AEAAX_K_N@Z 0000000180018590 f i libucrt:output.obj
 0001:00017650       ??$type_case_integer_parse_into_buffer@_K$0BA@@?$output_processor@_WV?$string_output_adapter@_W@__crt_stdio_output@@V?$format_validation_base@_WV?$string_output_adapter@_W@__crt_stdio_output@@@2@@__crt_stdio_output@@AEAAX_K_N@Z 0000000180018650 f i libucrt:output.obj
 0001:000176f4       ?crop_zeroes@__crt_stdio_output@@YAXPEADQEAU__crt_locale_pointers@@@Z 00000001800186f4 f i libucrt:output.obj
 0001:00017760       ?parse_int_from_format_string@?$output_processor@_WV?$string_output_adapter@_W@__crt_stdio_output@@V?$format_validation_base@_WV?$string_output_adapter@_W@__crt_stdio_output@@@2@@__crt_stdio_output@@AEAA_NQEAH@Z 0000000180018760 f i libucrt:output.obj
 0001:000177f0       ?process@?$output_processor@_WV?$string_output_adapter@_W@__crt_stdio_output@@V?$format_validation_base@_WV?$string_output_adapter@_W@__crt_stdio_output@@@2@@__crt_stdio_output@@QEAAHXZ 00000001800187f0 f i libucrt:output.obj
 0001:00017acc       ?state_case_size@?$output_processor@_WV?$string_output_adapter@_W@__crt_stdio_output@@V?$format_validation_base@_WV?$string_output_adapter@_W@__crt_stdio_output@@@2@@__crt_stdio_output@@AEAA_NXZ 0000000180018acc f i libucrt:output.obj
 0001:00017c78       ?state_case_type@?$output_processor@_WV?$string_output_adapter@_W@__crt_stdio_output@@V?$format_validation_base@_WV?$string_output_adapter@_W@__crt_stdio_output@@@2@@__crt_stdio_output@@AEAA_NXZ 0000000180018c78 f i libucrt:output.obj
 0001:000180d4       ?type_case_Z@?$output_processor@_WV?$string_output_adapter@_W@__crt_stdio_output@@V?$format_validation_base@_WV?$string_output_adapter@_W@__crt_stdio_output@@@2@@__crt_stdio_output@@AEAA_NXZ 00000001800190d4 f i libucrt:output.obj
 0001:00018150       ?type_case_a@?$output_processor@_WV?$string_output_adapter@_W@__crt_stdio_output@@V?$format_validation_base@_WV?$string_output_adapter@_W@__crt_stdio_output@@@2@@__crt_stdio_output@@AEAA_NXZ 0000000180019150 f i libucrt:output.obj
 0001:000183b0       ?type_case_c_tchar@?$output_processor@_WV?$string_output_adapter@_W@__crt_stdio_output@@V?$format_validation_base@_WV?$string_output_adapter@_W@__crt_stdio_output@@@2@@__crt_stdio_output@@AEAA_N_W@Z 00000001800193b0 f i libucrt:output.obj
 0001:00018474       ?type_case_n@?$output_processor@_WV?$string_output_adapter@_W@__crt_stdio_output@@V?$format_validation_base@_WV?$string_output_adapter@_W@__crt_stdio_output@@@2@@__crt_stdio_output@@AEAA_NXZ 0000000180019474 f i libucrt:output.obj
 0001:00018528       ?type_case_s@?$output_processor@_WV?$string_output_adapter@_W@__crt_stdio_output@@V?$format_validation_base@_WV?$string_output_adapter@_W@__crt_stdio_output@@@2@@__crt_stdio_output@@AEAA_NXZ 0000000180019528 f i libucrt:output.obj
 0001:000185c0       ?type_case_s_compute_narrow_string_length@?$output_processor@_WV?$string_output_adapter@_W@__crt_stdio_output@@V?$format_validation_base@_WV?$string_output_adapter@_W@__crt_stdio_output@@@2@@__crt_stdio_output@@AEAAHH_W@Z 00000001800195c0 f i libucrt:output.obj
 0001:00018640       ?update_locale_slow@__crt_cached_ptd_host@@AEAAXXZ 0000000180019640 f i libucrt:output.obj
 0001:000186b8       ?write_string@?$string_output_adapter@_W@__crt_stdio_output@@QEBAXQEB_WHQEAHAEAV__crt_cached_ptd_host@@@Z 00000001800196b8 f i libucrt:output.obj
 0001:00018760       __stdio_common_vswprintf_s 0000000180019760 f   libucrt:output.obj
 0001:00018874       _seh_filter_dll            0000000180019874 f   libucrt:exception_filter.obj
 0001:00018888       _seh_filter_exe            0000000180019888 f   libucrt:exception_filter.obj
 0001:00018cac       __acrt_initialize_thread_local_exit_callback 0000000180019cac f   libucrt:exit.obj
 0001:00018cb4       _cexit                     0000000180019cb4 f   libucrt:exit.obj
 0001:00018cc4       _exit                      0000000180019cc4 f   libucrt:exit.obj
 0001:00018cd0       _is_c_termination_complete 0000000180019cd0 f   libucrt:exit.obj
 0001:00018e98       __acrt_allocate_buffer_for_argv 0000000180019e98 f   libucrt:argv_parsing.obj
 0001:00018ef8       _configure_narrow_argv     0000000180019ef8 f   libucrt:argv_parsing.obj
 0001:00019280       __dcrt_uninitialize_environments_nolock 000000018001a280 f   libucrt:environment_initialization.obj
 0001:000192c4       _initialize_narrow_environment 000000018001a2c4 f   libucrt:environment_initialization.obj
 0001:00019614       _crt_atexit                000000018001a614 f   libucrt:onexit.obj
 0001:00019624       _execute_onexit_table      000000018001a624 f   libucrt:onexit.obj
 0001:00019668       _initialize_onexit_table   000000018001a668 f   libucrt:onexit.obj
 0001:00019690       _register_onexit_function  000000018001a690 f   libucrt:onexit.obj
 0001:00019710       __acrt_uninitialize_command_line 000000018001a710 f   libucrt:argv_data.obj
 0001:00019808       __acrt_initialize          000000018001a808 f   libucrt:initialization.obj
 0001:0001981c       __acrt_thread_attach       000000018001a81c f   libucrt:initialization.obj
 0001:00019830       __acrt_thread_detach       000000018001a830 f   libucrt:initialization.obj
 0001:00019840       __acrt_uninitialize        000000018001a840 f   libucrt:initialization.obj
 0001:00019878       __acrt_uninitialize_critical 000000018001a878 f   libucrt:initialization.obj
 0001:00019888       _initterm                  000000018001a888 f   libucrt:initterm.obj
 0001:000198cc       _initterm_e                000000018001a8cc f   libucrt:initterm.obj
 0001:00019914       __acrt_initialize_new_handler 000000018001a914 f   libucrt:new_handler.obj
 0001:0001991c       _callnewh                  000000018001a91c f   libucrt:new_handler.obj
 0001:00019958       _query_new_handler         000000018001a958 f   libucrt:new_handler.obj
 0001:0001998c       terminate                  000000018001a98c f   libucrt:terminate.obj
 0001:000199b8       abort                      000000018001a9b8 f   libucrt:abort.obj
 0001:00019a10       strcpy_s                   000000018001aa10 f   libucrt:strcpy_s.obj
 0001:00019a80       strncmp                    000000018001aa80 f   libucrt:strncmp.obj
 0001:00019b00       wcsncmp                    000000018001ab00 f   libucrt:wcsncmp.obj
 0001:00019b2c       _free_base                 000000018001ab2c f   libucrt:free_base.obj
 0001:00019ee0       __acrt_freeptd             000000018001aee0 f   libucrt:per_thread_data.obj
 0001:00019f24       __acrt_getptd              000000018001af24 f   libucrt:per_thread_data.obj
 0001:00019ff8       __acrt_getptd_head         000000018001aff8 f   libucrt:per_thread_data.obj
 0001:0001a09c       __acrt_getptd_noexit       000000018001b09c f   libucrt:per_thread_data.obj
 0001:0001a164       __acrt_getptd_noexit_explicit 000000018001b164 f   libucrt:per_thread_data.obj
 0001:0001a224       __acrt_initialize_ptd      000000018001b224 f   libucrt:per_thread_data.obj
 0001:0001a260       __acrt_uninitialize_ptd    000000018001b260 f   libucrt:per_thread_data.obj
 0001:0001a2f4       __acrt_set_locale_changed  000000018001b2f4 f   libucrt:wsetlocale.obj
 0001:0001a300       __acrt_uninitialize_locale 000000018001b300 f   libucrt:wsetlocale.obj
 0001:0001a330       _calloc_base               000000018001b330 f   libucrt:calloc_base.obj
 0001:0001a3a8       _malloc_base               000000018001b3a8 f   libucrt:malloc_base.obj
 0001:0001a408       _msize_base                000000018001b408 f   libucrt:msize.obj
 0001:0001a444       _realloc_base              000000018001b444 f   libucrt:realloc_base.obj
 0001:0001a680       __acrt_AppPolicyGetProcessTerminationMethodInternal 000000018001b680 f   libucrt:winapi_thunks.obj
 0001:0001a6d8       __acrt_AreFileApisANSI     000000018001b6d8 f   libucrt:winapi_thunks.obj
 0001:0001a71c       __acrt_FlsAlloc            000000018001b71c f   libucrt:winapi_thunks.obj
 0001:0001a724       __acrt_FlsFree             000000018001b724 f   libucrt:winapi_thunks.obj
 0001:0001a72c       __acrt_FlsGetValue         000000018001b72c f   libucrt:winapi_thunks.obj
 0001:0001a734       __acrt_FlsSetValue         000000018001b734 f   libucrt:winapi_thunks.obj
 0001:0001a73c       __acrt_InitializeCriticalSectionEx 000000018001b73c f   libucrt:winapi_thunks.obj
 0001:0001a7ac       __acrt_LCMapStringEx       000000018001b7ac f   libucrt:winapi_thunks.obj
 0001:0001a898       __acrt_LocaleNameToLCID    000000018001b898 f   libucrt:winapi_thunks.obj
 0001:0001a8f8       __acrt_SetThreadStackGuarantee 000000018001b8f8 f   libucrt:winapi_thunks.obj
 0001:0001a944       __acrt_initialize_winapi_thunks 000000018001b944 f   libucrt:winapi_thunks.obj
 0001:0001a968       __acrt_uninitialize_winapi_thunks 000000018001b968 f   libucrt:winapi_thunks.obj
 0001:0001a9ac       wcsnlen                    000000018001b9ac f   libucrt:strnlen.obj
 0001:0001ab84       __acrt_update_locale_info  000000018001bb84 f   libucrt:locale_update.obj
 0001:0001abb8       __acrt_update_locale_info_explicit 000000018001bbb8 f   libucrt:locale_update.obj
 0001:0001abf0       __acrt_update_multibyte_info 000000018001bbf0 f   libucrt:locale_update.obj
 0001:0001ac24       __acrt_update_multibyte_info_explicit 000000018001bc24 f   libucrt:locale_update.obj
 0001:0001b78c       __acrt_fp_format           000000018001c78c f   libucrt:cvt.obj
 0001:0001ba74       _mbtowc_internal           000000018001ca74 f   libucrt:mbtowc.obj
 0001:0001bbec       _fileno                    000000018001cbec f   libucrt:fileno.obj
 0001:0001bc14       __acrt_initialize_stdio    000000018001cc14 f   libucrt:_file.obj
 0001:0001bd34       __acrt_uninitialize_stdio  000000018001cd34 f   libucrt:_file.obj
 0001:0001bd90       _lock_file                 000000018001cd90 f   libucrt:_file.obj
 0001:0001bd9c       _unlock_file               000000018001cd9c f   libucrt:_file.obj
 0001:0001bda8       _get_printf_count_output   000000018001cda8 f   libucrt:printf_count_output.obj
 0001:0001bfb8       __acrt_initialize_lowio    000000018001cfb8 f   libucrt:ioinit.obj
 0001:0001bff4       __acrt_uninitialize_lowio  000000018001cff4 f   libucrt:ioinit.obj
 0001:0001c034       __acrt_initialize_locks    000000018001d034 f   libucrt:locks.obj
 0001:0001c07c       __acrt_lock                000000018001d07c f   libucrt:locks.obj
 0001:0001c098       __acrt_uninitialize_locks  000000018001d098 f   libucrt:locks.obj
 0001:0001c0d0       __acrt_unlock              000000018001d0d0 f   libucrt:locks.obj
 0001:0001c0ec       __acrt_get_process_end_policy 000000018001d0ec f   libucrt:win_policies.obj
 0001:0001c13c       ??$__acrt_convert_wcs_mbs_cp@D_WV<lambda_7c9dea7b4ca7285d2cdb541a38da6275>@@U__crt_win32_buffer_internal_dynamic_resizing@@@@YAHQEBDAEAV?$__crt_win32_buffer@_WU__crt_win32_buffer_internal_dynamic_resizing@@@@AEBV<lambda_7c9dea7b4ca7285d2cdb541a38da6275>@@I@Z 000000018001d13c f i libucrt:argv_wildcards.obj
 0001:0001c2b8       ??$__acrt_convert_wcs_mbs_cp@_WDV<lambda_d8593a27d1aa8c02be35c86a17d324c4>@@U__crt_win32_buffer_internal_dynamic_resizing@@@@YAHQEB_WAEAV?$__crt_win32_buffer@DU__crt_win32_buffer_internal_dynamic_resizing@@@@AEBV<lambda_d8593a27d1aa8c02be35c86a17d324c4>@@I@Z 000000018001d2b8 f i libucrt:argv_wildcards.obj
 0001:0001cb60       ??0_LocaleUpdate@@QEAA@QEAU__crt_locale_pointers@@@Z 000000018001db60 f i libucrt:argv_wildcards.obj
 0001:0001cbfc       __acrt_expand_narrow_argv_wildcards 000000018001dbfc f   libucrt:argv_wildcards.obj
 0001:0001cc04       ??$__acrt_convert_wcs_mbs_cp@_WDV<lambda_f788ae46380686e8b737efdd8c720d07>@@U__crt_win32_buffer_no_resizing@@@@YAHQEB_WAEAV?$__crt_win32_buffer@DU__crt_win32_buffer_no_resizing@@@@AEBV<lambda_f788ae46380686e8b737efdd8c720d07>@@I@Z 000000018001dc04 f i libucrt:getmodulefilenamea.obj
 0001:0001cd20       __acrt_GetModuleFileNameA  000000018001dd20 f   libucrt:getmodulefilenamea.obj
 0001:0001d63c       __acrt_initialize_multibyte 000000018001e63c f   libucrt:mbctype.obj
 0001:0001d69c       __acrt_update_thread_multibyte_data 000000018001e69c f   libucrt:mbctype.obj
 0001:0001d6b8       _setmbcp_nolock            000000018001e6b8 f   libucrt:mbctype.obj
 0001:0001d9ec       _ismbblead                 000000018001e9ec f   libucrt:ismbbyte.obj
 0001:0001da00       __acrt_initialize_command_line 000000018001ea00 f   libucrt:argv_data.obj
 0001:0001da28       __acrt_MultiByteToWideChar 000000018001ea28 f   libucrt:multibytetowidechar.obj
 0001:0001da84       __acrt_WideCharToMultiByte 000000018001ea84 f   libucrt:widechartomultibyte.obj
 0001:0001db34       __dcrt_get_narrow_environment_from_os 000000018001eb34 f   libucrt:get_environment_from_os.obj
 0001:0001dc44       __acrt_initialize_heap     000000018001ec44 f   libucrt:heap_handle.obj
 0001:0001dc60       __acrt_uninitialize_heap   000000018001ec60 f   libucrt:heap_handle.obj
 0001:0001dc6c       __acrt_execute_initializers 000000018001ec6c f   libucrt:shared_initialization.obj
 0001:0001dd00       __acrt_execute_uninitializers 000000018001ed00 f   libucrt:shared_initialization.obj
 0001:0001dd90       __acrt_get_sigabrt_handler 000000018001ed90 f   libucrt:signal.obj
 0001:0001ddc0       __acrt_initialize_signal_handlers 000000018001edc0 f   libucrt:signal.obj
 0001:0001dde0       raise                      000000018001ede0 f   libucrt:signal.obj
 0001:0001e060       __acrt_has_user_matherr    000000018001f060 f   libucrt:matherr.obj
 0001:0001e080       __acrt_initialize_user_matherr 000000018001f080 f   libucrt:matherr.obj
 0001:0001e088       __acrt_invoke_user_matherr 000000018001f088 f   libucrt:matherr.obj
 0001:0001e29c       __acrt_stdio_flush_nolock  000000018001f29c f   libucrt:fflush.obj
 0001:0001e328       _fflush_nolock             000000018001f328 f   libucrt:fflush.obj
 0001:0001e3fc       _flushall                  000000018001f3fc f   libucrt:fflush.obj
 0001:0001e404       __acrt_add_locale_ref      000000018001f404 f   libucrt:locale_refcounting.obj
 0001:0001e490       __acrt_free_locale         000000018001f490 f   libucrt:locale_refcounting.obj
 0001:0001e608       __acrt_locale_add_lc_time_reference 000000018001f608 f   libucrt:locale_refcounting.obj
 0001:0001e630       __acrt_locale_free_lc_time_if_unreferenced 000000018001f630 f   libucrt:locale_refcounting.obj
 0001:0001e668       __acrt_locale_release_lc_time_reference 000000018001f668 f   libucrt:locale_refcounting.obj
 0001:0001e690       __acrt_release_locale_ref  000000018001f690 f   libucrt:locale_refcounting.obj
 0001:0001e738       __acrt_update_thread_locale_data 000000018001f738 f   libucrt:locale_refcounting.obj
 0001:0001e7a8       _updatetlocinfoEx_nolock   000000018001f7a8 f   libucrt:locale_refcounting.obj
 0001:0001e810       __acrt_locale_free_monetary 000000018001f810 f   libucrt:initmon.obj
 0001:0001e91c       __acrt_locale_free_numeric 000000018001f91c f   libucrt:initnum.obj
 0001:0001e9bc       __acrt_locale_free_time    000000018001f9bc f   libucrt:inittime.obj
 0001:0001eac4       __acrt_GetStringTypeA      000000018001fac4 f   libucrt:getstringtypea.obj
 0001:0001ec60       _query_new_mode            000000018001fc60 f   libucrt:new_mode.obj
 0001:0001ec68       __acrt_DownlevelLocaleNameToLCID 000000018001fc68 f   libucrt:lcidtoname_downlevel.obj
 0001:0001ed10       __acrt_fp_strflt_to_string 000000018001fd10 f   libucrt:_fptostr.obj
 0001:0001eea0       ?divide@__crt_strtox@@YA_KAEAUbig_integer@1@AEBU21@@Z 000000018001fea0 f i libucrt:cfout.obj
 0001:0001f32c       __acrt_fltout              000000018002032c f   libucrt:cfout.obj
 0001:000205f4       fegetround                 00000001800215f4 f   libucrt:fegetround.obj
 0001:00020608       ?__mbrtowc_utf8@__crt_mbstring@@YA_KPEA_WPEBD_KPEAU_Mbstatet@@AEAV__crt_cached_ptd_host@@@Z 0000000180021608 f   libucrt:mbrtowc.obj
 0001:0002064c       ?__mbsrtowcs_utf8@__crt_mbstring@@YA_KPEA_WPEAPEBD_KPEAU_Mbstatet@@AEAV__crt_cached_ptd_host@@@Z 000000018002164c f   libucrt:mbrtowc.obj
 0001:000207f0       _fcloseall                 00000001800217f0 f   libucrt:closeall.obj
 0001:000208a4       __acrt_stdio_free_buffer_nolock 00000001800218a4 f   libucrt:_freebuf.obj
 0001:000208e4       _isatty                    00000001800218e4 f   libucrt:isatty.obj
 0001:00020944       __acrt_lowio_create_handle_array 0000000180021944 f   libucrt:osfinfo.obj
 0001:000209ec       __acrt_lowio_destroy_handle_array 00000001800219ec f   libucrt:osfinfo.obj
 0001:00020a3c       __acrt_lowio_ensure_fh_exists 0000000180021a3c f   libucrt:osfinfo.obj
 0001:00020ae4       __acrt_lowio_lock_fh       0000000180021ae4 f   libucrt:osfinfo.obj
 0001:00020b0c       __acrt_lowio_unlock_fh     0000000180021b0c f   libucrt:osfinfo.obj
 0001:00020b34       _free_osfhnd               0000000180021b34 f   libucrt:osfinfo.obj
 0001:00020bf0       _get_osfhandle             0000000180021bf0 f   libucrt:osfinfo.obj
 0001:00020c70       qsort                      0000000180021c70 f   libucrt:qsort.obj
 0001:00021080       strncpy_s                  0000000180022080 f   libucrt:strncpy_s.obj
 0001:00021210       strpbrk                    0000000180022210 f   libucrt:strpbrk.obj
 0001:000215d8       _mbsdec                    00000001800225d8 f   libucrt:mbsdec.obj
 0001:000215e0       _mbsdec_l                  00000001800225e0 f   libucrt:mbsdec.obj
 0001:00021994       __acrt_LCMapStringA        0000000180022994 f   libucrt:lcmapstringa.obj
 0001:00021ad0       _commit                    0000000180022ad0 f   libucrt:commit.obj
 0001:00022380       _write_internal            0000000180023380 f   libucrt:write.obj
 0001:000224a8       _write_nolock              00000001800234a8 f   libucrt:write.obj
 0001:000227b8       __ascii_wcsnicmp           00000001800237b8 f   libucrt:wcsnicmp.obj
 0001:00022804       _controlfp_s               0000000180023804 f   libucrt:contrlfp.obj
 0001:00022868       fegetenv                   0000000180023868 f   libucrt:fegetenv.obj
 0001:00022888       fesetenv                   0000000180023888 f   libucrt:fesetenv.obj
 0001:000228d4       feholdexcept               00000001800238d4 f   libucrt:feholdexcept.obj
 0001:00022924       ceil                       0000000180023924 f   libucrt:ceil.obj
 0001:000229f0       log10                      00000001800239f0 f   libucrt:log10.obj
 0001:00022f9c       __acrt_fenv_get_common_round_control 0000000180023f9c f   libucrt:_fenvutils.obj
 0001:00022fa8       __acrt_fenv_get_control    0000000180023fa8 f   libucrt:_fenvutils.obj
 0001:0002308c       __acrt_fenv_get_status     000000018002408c f   libucrt:_fenvutils.obj
 0001:000230e4       __acrt_fenv_set_control    00000001800240e4 f   libucrt:_fenvutils.obj
 0001:00023220       __acrt_fenv_set_status     0000000180024220 f   libucrt:_fenvutils.obj
 0001:00023294       ?reset_and_return@__crt_mbstring@@YA_K_KPEAU_Mbstatet@@@Z 0000000180024294 f   libucrt:common_utf8.obj
 0001:0002329c       ?return_illegal_sequence@__crt_mbstring@@YA_KPEAU_Mbstatet@@AEAV__crt_cached_ptd_host@@@Z 000000018002429c f   libucrt:common_utf8.obj
 0001:000232b0       ?__mbrtoc32_utf8@__crt_mbstring@@YA_KPEA_UPEBD_KPEAU_Mbstatet@@AEAV__crt_cached_ptd_host@@@Z 00000001800242b0 f   libucrt:mbrtoc32.obj
 0001:000235ac       fclose                     00000001800245ac f   libucrt:fclose.obj
 0001:000236f0       _lseeki64_nolock_internal  00000001800246f0 f   libucrt:lseek.obj
 0001:000236f8       _query_app_type            00000001800246f8 f   libucrt:report_runtime_error.obj
 0001:00023700       __strncnt                  0000000180024700 f   libucrt:strncnt.obj
 0001:00023718       _putwch_nolock             0000000180024718 f   libucrt:putwch.obj
 0001:00023754       _clearfp                   0000000180024754 f   libucrt:ieee.obj
 0001:000237c4       _control87                 00000001800247c4 f   libucrt:ieee.obj
 0001:00023bb0       _handle_error              0000000180024bb0 f   libucrt:libm_error.obj
 0001:00023cd8       _handle_nan                0000000180024cd8 f   libucrt:libm_error.obj
 0001:00023d00       __acrt_initialize_fma3     0000000180024d00 f   libucrt:fma3_available.obj
 0001:00023d70       _log10_special             0000000180024d70 f   libucrt:log_special.obj
 0001:00023ea0       _close_internal            0000000180024ea0 f   libucrt:close.obj
 0001:00023f64       _close_nolock_internal     0000000180024f64 f   libucrt:close.obj
 0001:00024034       ?__acrt_stdio_free_stream@@YAXV__crt_stdio_stream@@@Z 0000000180025034 f   libucrt:stream.obj
 0001:00024050       __dcrt_lowio_ensure_console_output_initialized 0000000180025050 f   libucrt:initcon.obj
 0001:000240a4       __dcrt_terminate_console_output 00000001800250a4 f   libucrt:initcon.obj
 0001:000240c0       __dcrt_write_console       00000001800250c0 f   libucrt:initcon.obj
 0001:00024190       _get_fpsr                  0000000180025190 f   libucrt:fpsr.obj
 0001:000241a0       _set_fpsr                  00000001800251a0 f   libucrt:fpsr.obj
 0001:000241aa       _fclrf                     00000001800251aa f   libucrt:fpsr.obj
 0001:000241be       _frnd                      00000001800251be f   libucrt:fpsr.obj
 0001:000241e0       _raise_exc                 00000001800251e0 f   libucrt:fpexcept.obj
 0001:00024208       _raise_exc_ex              0000000180025208 f   libucrt:fpexcept.obj
 0001:00024518       _set_errno_from_matherr    0000000180025518 f   libucrt:fpexcept.obj
 0001:00024548       _clrfp                     0000000180025548 f   libucrt:fpctrl.obj
 0001:00024568       _ctrlfp                    0000000180025568 f   libucrt:fpctrl.obj
 0001:000245e4       _set_statfp                00000001800255e4 f   libucrt:fpctrl.obj
 0001:00024604       _statfp                    0000000180025604 f   libucrt:fpctrl.obj
 0001:00024620       _FindPESection             0000000180025620 f   LIBCMT:pesect.obj
 0001:00024670       _IsNonwritableInCurrentImage 0000000180025670 f   LIBCMT:pesect.obj
 0001:000246c0       _ValidateImageBase         00000001800256c0 f   LIBCMT:pesect.obj
 0001:000246ec       __GSHandlerCheck_EH        00000001800256ec f   LIBCMT:gshandlereh.obj
 0001:0002476c       __C_specific_handler_noexcept 000000018002576c f   libvcruntime:chandler_noexcept.obj
 0001:000247b8       strrchr                    00000001800257b8 f   libvcruntime:strrchr.obj
 0001:00024910       _guard_dispatch_icall_nop  0000000180025910 f   LIBCMT:guard_dispatch.obj
 0001:00024930       _guard_xfg_dispatch_icall_nop 0000000180025930 f   LIBCMT:guard_xfg_dispatch.obj
 0002:00000000       __imp_RegQueryValueExW     0000000180027000     advapi32:ADVAPI32.dll
 0002:00000008       __imp_RegSetValueExW       0000000180027008     advapi32:ADVAPI32.dll
 0002:00000010       __imp_RegQueryInfoKeyW     0000000180027010     advapi32:ADVAPI32.dll
 0002:00000018       __imp_RegOpenKeyExW        0000000180027018     advapi32:ADVAPI32.dll
 0002:00000020       __imp_RegEnumKeyExW        0000000180027020     advapi32:ADVAPI32.dll
 0002:00000028       __imp_RegDeleteValueW      0000000180027028     advapi32:ADVAPI32.dll
 0002:00000030       __imp_RegDeleteKeyW        0000000180027030     advapi32:ADVAPI32.dll
 0002:00000038       __imp_RegCreateKeyExW      0000000180027038     advapi32:ADVAPI32.dll
 0002:00000040       __imp_RegCloseKey          0000000180027040     advapi32:ADVAPI32.dll
 0002:00000048       \177ADVAPI32_NULL_THUNK_DATA 0000000180027048     advapi32:ADVAPI32.dll
 0002:00000050       __imp_GetObjectW           0000000180027050     gdi32:GDI32.dll
 0002:00000058       __imp_SelectObject         0000000180027058     gdi32:GDI32.dll
 0002:00000060       __imp_DeleteObject         0000000180027060     gdi32:GDI32.dll
 0002:00000068       __imp_CreateCompatibleDC   0000000180027068     gdi32:GDI32.dll
 0002:00000070       __imp_BitBlt               0000000180027070     gdi32:GDI32.dll
 0002:00000078       __imp_SetWindowOrgEx       0000000180027078     gdi32:GDI32.dll
 0002:00000080       __imp_SetWindowExtEx       0000000180027080     gdi32:GDI32.dll
 0002:00000088       __imp_SetViewportOrgEx     0000000180027088     gdi32:GDI32.dll
 0002:00000090       __imp_LPtoDP               0000000180027090     gdi32:GDI32.dll
 0002:00000098       __imp_SetMapMode           0000000180027098     gdi32:GDI32.dll
 0002:000000a0       __imp_SaveDC               00000001800270a0     gdi32:GDI32.dll
 0002:000000a8       __imp_RestoreDC            00000001800270a8     gdi32:GDI32.dll
 0002:000000b0       __imp_GetDeviceCaps        00000001800270b0     gdi32:GDI32.dll
 0002:000000b8       __imp_DeleteMetaFile       00000001800270b8     gdi32:GDI32.dll
 0002:000000c0       __imp_DeleteDC             00000001800270c0     gdi32:GDI32.dll
 0002:000000c8       __imp_CreateRectRgnIndirect 00000001800270c8     gdi32:GDI32.dll
 0002:000000d0       __imp_CreateMetaFileW      00000001800270d0     gdi32:GDI32.dll
 0002:000000d8       __imp_CreateDCW            00000001800270d8     gdi32:GDI32.dll
 0002:000000e0       __imp_CloseMetaFile        00000001800270e0     gdi32:GDI32.dll
 0002:000000e8       \177GDI32_NULL_THUNK_DATA  00000001800270e8     gdi32:GDI32.dll
 0002:000000f0       __imp_CloseHandle          00000001800270f0     kernel32:KERNEL32.dll
 0002:000000f8       __imp_SetEvent             00000001800270f8     kernel32:KERNEL32.dll
 0002:00000100       __imp_CreateMutexW         0000000180027100     kernel32:KERNEL32.dll
 0002:00000108       __imp_CreateEventW         0000000180027108     kernel32:KERNEL32.dll
 0002:00000110       __imp_GetCurrentProcessId  0000000180027110     kernel32:KERNEL32.dll
 0002:00000118       __imp_WriteConsoleW        0000000180027118     kernel32:KERNEL32.dll
 0002:00000120       __imp_CreateFileW          0000000180027120     kernel32:KERNEL32.dll
 0002:00000128       __imp_GetConsoleMode       0000000180027128     kernel32:KERNEL32.dll
 0002:00000130       __imp_GetConsoleOutputCP   0000000180027130     kernel32:KERNEL32.dll
 0002:00000138       __imp_WriteFile            0000000180027138     kernel32:KERNEL32.dll
 0002:00000140       __imp_FlushFileBuffers     0000000180027140     kernel32:KERNEL32.dll
 0002:00000148       __imp_SetStdHandle         0000000180027148     kernel32:KERNEL32.dll
 0002:00000150       __imp_SetFilePointerEx     0000000180027150     kernel32:KERNEL32.dll
 0002:00000158       __imp_GetStringTypeW       0000000180027158     kernel32:KERNEL32.dll
 0002:00000160       __imp_FreeEnvironmentStringsW 0000000180027160     kernel32:KERNEL32.dll
 0002:00000168       __imp_lstrcmpiW            0000000180027168     kernel32:KERNEL32.dll
 0002:00000170       __imp_GetCommandLineW      0000000180027170     kernel32:KERNEL32.dll
 0002:00000178       __imp_GetCommandLineA      0000000180027178     kernel32:KERNEL32.dll
 0002:00000180       __imp_GetCPInfo            0000000180027180     kernel32:KERNEL32.dll
 0002:00000188       __imp_GetOEMCP             0000000180027188     kernel32:KERNEL32.dll
 0002:00000190       __imp_GetACP               0000000180027190     kernel32:KERNEL32.dll
 0002:00000198       __imp_IsValidCodePage      0000000180027198     kernel32:KERNEL32.dll
 0002:000001a0       __imp_FindNextFileW        00000001800271a0     kernel32:KERNEL32.dll
 0002:000001a8       __imp_FindFirstFileExW     00000001800271a8     kernel32:KERNEL32.dll
 0002:000001b0       __imp_FindClose            00000001800271b0     kernel32:KERNEL32.dll
 0002:000001b8       __imp_GetFileType          00000001800271b8     kernel32:KERNEL32.dll
 0002:000001c0       __imp_GetStdHandle         00000001800271c0     kernel32:KERNEL32.dll
 0002:000001c8       __imp_LCMapStringW         00000001800271c8     kernel32:KERNEL32.dll
 0002:000001d0       __imp_FlsFree              00000001800271d0     kernel32:KERNEL32.dll
 0002:000001d8       __imp_FlsSetValue          00000001800271d8     kernel32:KERNEL32.dll
 0002:000001e0       __imp_MulDiv               00000001800271e0     kernel32:KERNEL32.dll
 0002:000001e8       __imp_GlobalLock           00000001800271e8     kernel32:KERNEL32.dll
 0002:000001f0       __imp_GlobalUnlock         00000001800271f0     kernel32:KERNEL32.dll
 0002:000001f8       __imp_GlobalAlloc          00000001800271f8     kernel32:KERNEL32.dll
 0002:00000200       __imp_FindResourceW        0000000180027200     kernel32:KERNEL32.dll
 0002:00000208       __imp_SizeofResource       0000000180027208     kernel32:KERNEL32.dll
 0002:00000210       __imp_LoadResource         0000000180027210     kernel32:KERNEL32.dll
 0002:00000218       __imp_LoadLibraryExW       0000000180027218     kernel32:KERNEL32.dll
 0002:00000220       __imp_GetProcAddress       0000000180027220     kernel32:KERNEL32.dll
 0002:00000228       __imp_GetModuleHandleW     0000000180027228     kernel32:KERNEL32.dll
 0002:00000230       __imp_GetModuleFileNameW   0000000180027230     kernel32:KERNEL32.dll
 0002:00000238       __imp_FreeLibrary          0000000180027238     kernel32:KERNEL32.dll
 0002:00000240       __imp_DisableThreadLibraryCalls 0000000180027240     kernel32:KERNEL32.dll
 0002:00000248       __imp_GetCurrentThreadId   0000000180027248     kernel32:KERNEL32.dll
 0002:00000250       __imp_Sleep                0000000180027250     kernel32:KERNEL32.dll
 0002:00000258       __imp_WaitForSingleObject  0000000180027258     kernel32:KERNEL32.dll
 0002:00000260       __imp_ReleaseMutex         0000000180027260     kernel32:KERNEL32.dll
 0002:00000268       __imp_ResetEvent           0000000180027268     kernel32:KERNEL32.dll
 0002:00000270       __imp_EnterCriticalSection 0000000180027270     kernel32:KERNEL32.dll
 0002:00000278       __imp_LeaveCriticalSection 0000000180027278     kernel32:KERNEL32.dll
 0002:00000280       __imp_SetLastError         0000000180027280     kernel32:KERNEL32.dll
 0002:00000288       __imp_EncodePointer        0000000180027288     kernel32:KERNEL32.dll
 0002:00000290       __imp_DeleteCriticalSection 0000000180027290     kernel32:KERNEL32.dll
 0002:00000298       __imp_InitializeCriticalSectionEx 0000000180027298     kernel32:KERNEL32.dll
 0002:000002a0       __imp_GetLastError         00000001800272a0     kernel32:KERNEL32.dll
 0002:000002a8       __imp_RaiseException       00000001800272a8     kernel32:KERNEL32.dll
 0002:000002b0       __imp_DecodePointer        00000001800272b0     kernel32:KERNEL32.dll
 0002:000002b8       __imp_WideCharToMultiByte  00000001800272b8     kernel32:KERNEL32.dll
 0002:000002c0       __imp_GetEnvironmentStringsW 00000001800272c0     kernel32:KERNEL32.dll
 0002:000002c8       __imp_MultiByteToWideChar  00000001800272c8     kernel32:KERNEL32.dll
 0002:000002d0       __imp_FlsGetValue          00000001800272d0     kernel32:KERNEL32.dll
 0002:000002d8       __imp_FlsAlloc             00000001800272d8     kernel32:KERNEL32.dll
 0002:000002e0       __imp_HeapReAlloc          00000001800272e0     kernel32:KERNEL32.dll
 0002:000002e8       __imp_HeapSize             00000001800272e8     kernel32:KERNEL32.dll
 0002:000002f0       __imp_GetModuleHandleExW   00000001800272f0     kernel32:KERNEL32.dll
 0002:000002f8       __imp_ExitProcess          00000001800272f8     kernel32:KERNEL32.dll
 0002:00000300       __imp_VirtualQuery         0000000180027300     kernel32:KERNEL32.dll
 0002:00000308       __imp_VirtualProtect       0000000180027308     kernel32:KERNEL32.dll
 0002:00000310       __imp_GetSystemInfo        0000000180027310     kernel32:KERNEL32.dll
 0002:00000318       __imp_TlsFree              0000000180027318     kernel32:KERNEL32.dll
 0002:00000320       __imp_TlsSetValue          0000000180027320     kernel32:KERNEL32.dll
 0002:00000328       __imp_TlsGetValue          0000000180027328     kernel32:KERNEL32.dll
 0002:00000330       __imp_TlsAlloc             0000000180027330     kernel32:KERNEL32.dll
 0002:00000338       __imp_RtlPcToFileHeader    0000000180027338     kernel32:KERNEL32.dll
 0002:00000340       __imp_InterlockedFlushSList 0000000180027340     kernel32:KERNEL32.dll
 0002:00000348       __imp_RtlUnwindEx          0000000180027348     kernel32:KERNEL32.dll
 0002:00000350       __imp_LoadLibraryExA       0000000180027350     kernel32:KERNEL32.dll
 0002:00000358       __imp_VirtualFree          0000000180027358     kernel32:KERNEL32.dll
 0002:00000360       __imp_VirtualAlloc         0000000180027360     kernel32:KERNEL32.dll
 0002:00000368       __imp_FlushInstructionCache 0000000180027368     kernel32:KERNEL32.dll
 0002:00000370       __imp_InterlockedPushEntrySList 0000000180027370     kernel32:KERNEL32.dll
 0002:00000378       __imp_InterlockedPopEntrySList 0000000180027378     kernel32:KERNEL32.dll
 0002:00000380       __imp_GetProcessHeap       0000000180027380     kernel32:KERNEL32.dll
 0002:00000388       __imp_HeapFree             0000000180027388     kernel32:KERNEL32.dll
 0002:00000390       __imp_HeapAlloc            0000000180027390     kernel32:KERNEL32.dll
 0002:00000398       __imp_OutputDebugStringW   0000000180027398     kernel32:KERNEL32.dll
 0002:000003a0       __imp_InitializeSListHead  00000001800273a0     kernel32:KERNEL32.dll
 0002:000003a8       __imp_GetSystemTimeAsFileTime 00000001800273a8     kernel32:KERNEL32.dll
 0002:000003b0       __imp_QueryPerformanceCounter 00000001800273b0     kernel32:KERNEL32.dll
 0002:000003b8       __imp_GetStartupInfoW      00000001800273b8     kernel32:KERNEL32.dll
 0002:000003c0       __imp_InitializeCriticalSectionAndSpinCount 00000001800273c0     kernel32:KERNEL32.dll
 0002:000003c8       __imp_WaitForSingleObjectEx 00000001800273c8     kernel32:KERNEL32.dll
 0002:000003d0       __imp_RtlCaptureContext    00000001800273d0     kernel32:KERNEL32.dll
 0002:000003d8       __imp_RtlLookupFunctionEntry 00000001800273d8     kernel32:KERNEL32.dll
 0002:000003e0       __imp_RtlVirtualUnwind     00000001800273e0     kernel32:KERNEL32.dll
 0002:000003e8       __imp_UnhandledExceptionFilter 00000001800273e8     kernel32:KERNEL32.dll
 0002:000003f0       __imp_SetUnhandledExceptionFilter 00000001800273f0     kernel32:KERNEL32.dll
 0002:000003f8       __imp_GetCurrentProcess    00000001800273f8     kernel32:KERNEL32.dll
 0002:00000400       __imp_TerminateProcess     0000000180027400     kernel32:KERNEL32.dll
 0002:00000408       __imp_IsProcessorFeaturePresent 0000000180027408     kernel32:KERNEL32.dll
 0002:00000410       __imp_IsDebuggerPresent    0000000180027410     kernel32:KERNEL32.dll
 0002:00000418       \177KERNEL32_NULL_THUNK_DATA 0000000180027418     kernel32:KERNEL32.dll
 0002:00000420       __imp_OleCreatePropertyFrame 0000000180027420     oleaut32:OLEAUT32.dll
 0002:00000428       __imp_UnRegisterTypeLib    0000000180027428     oleaut32:OLEAUT32.dll
 0002:00000430       __imp_RegisterTypeLib      0000000180027430     oleaut32:OLEAUT32.dll
 0002:00000438       __imp_LoadRegTypeLib       0000000180027438     oleaut32:OLEAUT32.dll
 0002:00000440       __imp_LoadTypeLib          0000000180027440     oleaut32:OLEAUT32.dll
 0002:00000448       __imp_VarUI4FromStr        0000000180027448     oleaut32:OLEAUT32.dll
 0002:00000450       __imp_VariantInit          0000000180027450     oleaut32:OLEAUT32.dll
 0002:00000458       __imp_SysAllocStringByteLen 0000000180027458     oleaut32:OLEAUT32.dll
 0002:00000460       __imp_SysStringByteLen     0000000180027460     oleaut32:OLEAUT32.dll
 0002:00000468       __imp_VariantChangeType    0000000180027468     oleaut32:OLEAUT32.dll
 0002:00000470       __imp_VariantClear         0000000180027470     oleaut32:OLEAUT32.dll
 0002:00000478       __imp_SysStringLen         0000000180027478     oleaut32:OLEAUT32.dll
 0002:00000480       __imp_SysFreeString        0000000180027480     oleaut32:OLEAUT32.dll
 0002:00000488       __imp_SysAllocStringLen    0000000180027488     oleaut32:OLEAUT32.dll
 0002:00000490       __imp_SysAllocString       0000000180027490     oleaut32:OLEAUT32.dll
 0002:00000498       \177OLEAUT32_NULL_THUNK_DATA 0000000180027498     oleaut32:OLEAUT32.dll
 0002:000004a0       __imp_UnregisterClassW     00000001800274a0     user32:USER32.dll
 0002:000004a8       __imp_PostMessageW         00000001800274a8     user32:USER32.dll
 0002:000004b0       __imp_DefWindowProcW       00000001800274b0     user32:USER32.dll
 0002:000004b8       __imp_CallWindowProcW      00000001800274b8     user32:USER32.dll
 0002:000004c0       __imp_RegisterClassExW     00000001800274c0     user32:USER32.dll
 0002:000004c8       __imp_GetClassInfoExW      00000001800274c8     user32:USER32.dll
 0002:000004d0       __imp_CreateWindowExW      00000001800274d0     user32:USER32.dll
 0002:000004d8       __imp_IsWindow             00000001800274d8     user32:USER32.dll
 0002:000004e0       __imp_IsChild              00000001800274e0     user32:USER32.dll
 0002:000004e8       __imp_DestroyWindow        00000001800274e8     user32:USER32.dll
 0002:000004f0       __imp_ShowWindow           00000001800274f0     user32:USER32.dll
 0002:000004f8       __imp_SetWindowPos         00000001800274f8     user32:USER32.dll
 0002:00000500       __imp_CharNextW            0000000180027500     user32:USER32.dll
 0002:00000508       __imp_SetFocus             0000000180027508     user32:USER32.dll
 0002:00000510       __imp_LoadBitmapW          0000000180027510     user32:USER32.dll
 0002:00000518       __imp_RegisterClassW       0000000180027518     user32:USER32.dll
 0002:00000520       __imp_PeekMessageW         0000000180027520     user32:USER32.dll
 0002:00000528       __imp_LoadCursorW          0000000180027528     user32:USER32.dll
 0002:00000530       __imp_GetParent            0000000180027530     user32:USER32.dll
 0002:00000538       __imp_SetWindowLongPtrW    0000000180027538     user32:USER32.dll
 0002:00000540       __imp_GetWindowLongPtrW    0000000180027540     user32:USER32.dll
 0002:00000548       __imp_PtInRect             0000000180027548     user32:USER32.dll
 0002:00000550       __imp_EqualRect            0000000180027550     user32:USER32.dll
 0002:00000558       __imp_OffsetRect           0000000180027558     user32:USER32.dll
 0002:00000560       __imp_UnionRect            0000000180027560     user32:USER32.dll
 0002:00000568       __imp_IntersectRect        0000000180027568     user32:USER32.dll
 0002:00000570       __imp_GetClientRect        0000000180027570     user32:USER32.dll
 0002:00000578       __imp_InvalidateRect       0000000180027578     user32:USER32.dll
 0002:00000580       __imp_SetWindowRgn         0000000180027580     user32:USER32.dll
 0002:00000588       __imp_EndPaint             0000000180027588     user32:USER32.dll
 0002:00000590       __imp_BeginPaint           0000000180027590     user32:USER32.dll
 0002:00000598       __imp_ReleaseDC            0000000180027598     user32:USER32.dll
 0002:000005a0       __imp_GetDC                00000001800275a0     user32:USER32.dll
 0002:000005a8       __imp_GetKeyState          00000001800275a8     user32:USER32.dll
 0002:000005b0       __imp_GetFocus             00000001800275b0     user32:USER32.dll
 0002:000005b8       \177USER32_NULL_THUNK_DATA 00000001800275b8     user32:USER32.dll
 0002:000005c0       __imp_CoCreateInstance     00000001800275c0     ole32:ole32.dll
 0002:000005c8       __imp_StringFromGUID2      00000001800275c8     ole32:ole32.dll
 0002:000005d0       __imp_CoTaskMemAlloc       00000001800275d0     ole32:ole32.dll
 0002:000005d8       __imp_CoTaskMemRealloc     00000001800275d8     ole32:ole32.dll
 0002:000005e0       __imp_CoTaskMemFree        00000001800275e0     ole32:ole32.dll
 0002:000005e8       __imp_WriteClassStm        00000001800275e8     ole32:ole32.dll
 0002:000005f0       __imp_CreateDataAdviseHolder 00000001800275f0     ole32:ole32.dll
 0002:000005f8       __imp_OleSaveToStream      00000001800275f8     ole32:ole32.dll
 0002:00000600       __imp_CreateOleAdviseHolder 0000000180027600     ole32:ole32.dll
 0002:00000608       __imp_OleRegGetUserType    0000000180027608     ole32:ole32.dll
 0002:00000610       __imp_OleRegGetMiscStatus  0000000180027610     ole32:ole32.dll
 0002:00000618       __imp_OleRegEnumVerbs      0000000180027618     ole32:ole32.dll
 0002:00000620       __imp_CLSIDFromProgID      0000000180027620     ole32:ole32.dll
 0002:00000628       __imp_ReadClassStm         0000000180027628     ole32:ole32.dll
 0002:00000630       \177ole32_NULL_THUNK_DATA  0000000180027630     ole32:ole32.dll
 0002:00000638       __guard_check_icall_fptr   0000000180027638     LIBCMT:guard_support.obj
 0002:00000640       __guard_xfg_check_icall_fptr 0000000180027640     LIBCMT:guard_support.obj
 0002:00000648       __guard_dispatch_icall_fptr 0000000180027648     LIBCMT:guard_support.obj
 0002:00000650       __guard_xfg_dispatch_icall_fptr 0000000180027650     LIBCMT:guard_support.obj
 0002:00000658       __guard_xfg_table_dispatch_icall_fptr 0000000180027658     LIBCMT:guard_support.obj
 0002:00000660       __castguard_check_failure_os_handled_fptr 0000000180027660     LIBCMT:guard_support.obj
 0002:00000668       __xc_a                     0000000180027668     LIBCMT:initializers.obj
 0002:00000698       __xc_z                     0000000180027698     LIBCMT:initializers.obj
 0002:000006a0       __xi_a                     00000001800276a0     LIBCMT:initializers.obj
 0002:000006b0       __acrt_stdio_initializer   00000001800276b0     libucrt:stdio_initializer.obj
 0002:000006b8       __acrt_multibyte_initializer 00000001800276b8     libucrt:multibyte_initializer.obj
 0002:000006c0       __acrt_tran_fma3_initializer 00000001800276c0     libucrt:fma3_initializer.obj
 0002:000006c8       __xi_z                     00000001800276c8     LIBCMT:initializers.obj
 0002:000006d0       __xl_a                     00000001800276d0     LIBCMT:tlssup.obj
 0002:000006d8       __xl_z                     00000001800276d8     LIBCMT:tlssup.obj
 0002:000006e0       __xp_a                     00000001800276e0     LIBCMT:initializers.obj
 0002:000006e8       __acrt_locale_terminator   00000001800276e8     libucrt:locale_initializer.obj
 0002:000006f0       __dcrt_console_output_terminator 00000001800276f0     libucrt:console_output_initializer.obj
 0002:000006f8       __acrt_stdio_terminator    00000001800276f8     libucrt:stdio_initializer.obj
 0002:00000700       __xp_z                     0000000180027700     LIBCMT:initializers.obj
 0002:00000708       __xt_a                     0000000180027708     LIBCMT:initializers.obj
 0002:00000710       __xt_z                     0000000180027710     LIBCMT:initializers.obj
 0002:00000720       ??_C@_13HADIAKP@?$AAS@     0000000180027720     OposVariant.obj
 0002:00000724       ??_C@_13LHMFKAAD@?$AAM@    0000000180027724     OposVariant.obj
 0002:00000728       ??_C@_13MKMNOPIJ@?$AAD@    0000000180027728     OposVariant.obj
 0002:0000072c       ??_C@_13OPKGLAFF@?$AAB@    000000018002772c     OposVariant.obj
 0002:00000730       ??_C@_17LLMMEOJD@?$AAV?$AAa?$AAl@ 0000000180027730     OposVariant.obj
 0002:00000738       ??_C@_1BI@JFAIJMHL@?$AAF?$AAo?$AAr?$AAc?$AAe?$AAR?$AAe?$AAm?$AAo?$AAv?$AAe@ 0000000180027738     OposVariant.obj
 0002:00000750       ??_C@_1BC@GCKHIPE@?$AAN?$AAo?$AAR?$AAe?$AAm?$AAo?$AAv?$AAe@ 0000000180027750     OposVariant.obj
 0002:00000768       ??_C@_1O@JDLOHAN@?$AAD?$AAe?$AAl?$AAe?$AAt?$AAe@ 0000000180027768     OposVariant.obj
 0002:00000778       ??_C@_11LOCGONAA@@         0000000180027778     OposVariant.obj
 0002:00000780       _GUID_55980ba0_35aa_11cf_b671_00aa004cd6d8 0000000180027780     PointCardRW.obj
 0002:00000790       _GUID_b196b28b_bab4_101a_b69c_00aa00341d07 0000000180027790     PointCardRW.obj
 0002:000007a0       ??_7?$CComObject@V?$CComEnum@UIEnumConnections@@$1?_GUID_b196b287_bab4_101a_b69c_00aa00341d07@@3U__s_GUID@@BUtagCONNECTDATA@@V?$_Copy@UtagCONNECTDATA@@@ATL@@VCComSingleThreadModel@6@@ATL@@@ATL@@6B@ 00000001800277a0     PointCardRW.obj
 0002:000007e0       ?_entries@?1??_GetEntries@?$CComEnum@UIEnumConnections@@$1?_GUID_b196b287_bab4_101a_b69c_00aa00341d07@@3U__s_GUID@@BUtagCONNECTDATA@@V?$_Copy@UtagCONNECTDATA@@@ATL@@VCComSingleThreadModel@6@@ATL@@SAPEBU_ATL_INTMAP_ENTRY@3@XZ@4QBU43@B 00000001800277e0     PointCardRW.obj
 0002:00000810       ??_7CComClassFactory@ATL@@6B@ 0000000180027810     PointCardRW.obj
 0002:00000840       ?_entries@?1??_GetEntries@CComClassFactory@ATL@@SAPEBU_ATL_INTMAP_ENTRY@3@XZ@4QBU43@B 0000000180027840     PointCardRW.obj
 0002:00000870       _GUID_00000001_0000_0000_c000_000000000046 0000000180027870     PointCardRW.obj
 0002:00000880       IID_IOPOSPointCardRW_1_5   0000000180027880     PointCardRW.obj
 0002:00000890       ??_C@_1BK@BIGILECK@?$AAA?$AAd?$AAv?$AAa?$AAp?$AAi?$AA3?$AA2?$AA?4?$AAd?$AAl?$AAl@ 0000000180027890     PointCardRW.obj
 0002:000008b0       IID_IOPOSPointCardRW_1_7   00000001800278b0     PointCardRW.obj
 0002:000008c0       ??_C@_0BI@MNCFCPFK@RegCreateKeyTransactedW@ 00000001800278c0     PointCardRW.obj
 0002:000008d8       IID_IOPOSPointCardRW_1_8   00000001800278d8     PointCardRW.obj
 0002:000008e8       IID_IOPOSPointCardRW_1_9   00000001800278e8     PointCardRW.obj
 0002:000008f8       _GUID_00000114_0000_0000_c000_000000000046 00000001800278f8     PointCardRW.obj
 0002:00000908       IID_IOPOSPointCardRW_1_10  0000000180027908     PointCardRW.obj
 0002:00000918       IID_IOPOSPointCardRW       0000000180027918     PointCardRW.obj
 0002:00000928       LIBID_OposPointCardRW_CCO  0000000180027928     PointCardRW.obj
 0002:00000938       DIID__IOPOSPointCardRWEvents 0000000180027938     PointCardRW.obj
 0002:00000948       CLSID_OPOSPointCardRW      0000000180027948     PointCardRW.obj
 0002:00000958       _GUID_b196b287_bab4_101a_b69c_00aa00341d07 0000000180027958     PointCardRW.obj
 0002:00000968       _GUID_b196b285_bab4_101a_b69c_00aa00341d07 0000000180027968     PointCardRW.obj
 0002:00000978       _GUID_a6bc3ac0_dbaa_11ce_9de3_00aa004bb851 0000000180027978     PointCardRW.obj
 0002:00000988       _GUID_0000010c_0000_0000_c000_000000000046 0000000180027988     PointCardRW.obj
 0002:00000998       _GUID_00000146_0000_0000_c000_000000000046 0000000180027998     PointCardRW.obj
 0002:000009a8       ??_7CComModule@ATL@@6B@    00000001800279a8     PointCardRW.obj
 0002:000009f8       _GUID_00000000_0000_0000_c000_000000000046 00000001800279f8     PointCardRW.obj
 0002:00000a08       _GUID_00020400_0000_0000_c000_000000000046 0000000180027a08     PointCardRW.obj
 0002:00000a18       _GUID_922eada0_3424_11cf_b670_00aa004cd6d8 0000000180027a18     PointCardRW.obj
 0002:00000a28       _GUID_9c2cad80_3424_11cf_b670_00aa004cd6d8 0000000180027a28     PointCardRW.obj
 0002:00000a38       _GUID_00000119_0000_0000_c000_000000000046 0000000180027a38     PointCardRW.obj
 0002:00000a50       ?_entries@?1??_GetEntries@COPOSPointCardRW@@SAPEBU_ATL_INTMAP_ENTRY@ATL@@XZ@4QBU34@B 0000000180027a50     PointCardRW.obj
 0002:00000cf0       _GUID_b196b289_bab4_101a_b69c_00aa00341d07 0000000180027cf0     PointCardRW.obj
 0002:00000d00       _GUID_cf51ed10_62fe_11cf_bf86_00a0c9034836 0000000180027d00     PointCardRW.obj
 0002:00000d10       _GUID_0000010a_0000_0000_c000_000000000046 0000000180027d10     PointCardRW.obj
 0002:00000d20       _GUID_b196b283_bab4_101a_b69c_00aa00341d07 0000000180027d20     PointCardRW.obj
 0002:00000d30       _GUID_cb5bdc81_93c1_11cf_8f20_00805f2cd064 0000000180027d30     PointCardRW.obj
 0002:00000d40       ?pPropMap@?1??GetPropertyMap@COPOSPointCardRW@@SAPEBUATL_PROPMAP_ENTRY@ATL@@XZ@4QBU34@B 0000000180027d40     PointCardRW.obj
 0002:00000de8       ??_C@_17DGDADEHL@?$AA_?$AAc?$AAx@ 0000000180027de8     PointCardRW.obj
 0002:00000df0       ??_C@_17IOIMFDBO@?$AA_?$AAc?$AAy@ 0000000180027df0     PointCardRW.obj
 0002:00000df8       _GUID_00000117_0000_0000_c000_000000000046 0000000180027df8     PointCardRW.obj
 0002:00000e08       ??_7?$CComObjectCached@VCComClassFactory@ATL@@@ATL@@6B@ 0000000180027e08     PointCardRW.obj
 0002:00000e38       ??_C@_1CE@PGFMOFKI@?$AAS?$AAt?$AAa?$AAt?$AAu?$AAs?$AAU?$AAp?$AAd?$AAa?$AAt?$AAe?$AAE?$AAv?$AAe@ 0000000180027e38     PointCardRW.obj
 0002:00000e60       ??_C@_1CI@HLBJDONE@?$AAO?$AAu?$AAt?$AAp?$AAu?$AAt?$AAC?$AAo?$AAm?$AAp?$AAl?$AAe?$AAt?$AAe?$AAE@ 0000000180027e60     PointCardRW.obj
 0002:00000e88       ??_C@_1BG@LODEBHDD@?$AAE?$AAr?$AAr?$AAo?$AAr?$AAE?$AAv?$AAe?$AAn?$AAt@ 0000000180027e88     PointCardRW.obj
 0002:00000ea0       ??_C@_1BM@CBGEBBBJ@?$AAD?$AAi?$AAr?$AAe?$AAc?$AAt?$AAI?$AAO?$AAE?$AAv?$AAe?$AAn?$AAt@ 0000000180027ea0     PointCardRW.obj
 0002:00000ec0       ??_C@_1BE@IEBMACEM@?$AAD?$AAa?$AAt?$AAa?$AAE?$AAv?$AAe?$AAn?$AAt@ 0000000180027ec0     PointCardRW.obj
 0002:00000ed8       _GUID_b196b286_bab4_101a_b69c_00aa00341d07 0000000180027ed8     PointCardRW.obj
 0002:00000ee8       ??_C@_1BC@ENICKDH@?$AAC?$AAo?$AAn?$AAt?$AAe?$AAn?$AAt?$AAs@ 0000000180027ee8     PointCardRW.obj
 0002:00000f00       ??_C@_1M@KANJNLFF@?$AAC?$AAL?$AAS?$AAI?$AAD@ 0000000180027f00     PointCardRW.obj
 0002:00000f10       ??_C@_1M@EJNEECMJ@?$AAA?$AAp?$AAp?$AAI?$AAD@ 0000000180027f10     PointCardRW.obj
 0002:00000f20       ??_7?$CComObject@V?$CComEnum@UIEnumConnectionPoints@@$1?_GUID_b196b285_bab4_101a_b69c_00aa00341d07@@3U__s_GUID@@BPEAUIConnectionPoint@@V?$_CopyInterface@UIConnectionPoint@@@ATL@@VCComSingleThreadModel@6@@ATL@@@ATL@@6B@ 0000000180027f20     PointCardRW.obj
 0002:00000f60       _GUID_0000010e_0000_0000_c000_000000000046 0000000180027f60     PointCardRW.obj
 0002:00000f70       ?rgszNeverDelete@CRegParser@ATL@@1QBQEB_WB 0000000180027f70     PointCardRW.obj
 0002:00000fd0       _GUID_b196b288_bab4_101a_b69c_00aa00341d07 0000000180027fd0     PointCardRW.obj
 0002:00000fe0       ??_7CRegObject@ATL@@6B@    0000000180027fe0     PointCardRW.obj
 0002:00001010       _GUID_00000113_0000_0000_c000_000000000046 0000000180028010     PointCardRW.obj
 0002:00001020       ??_C@_1CK@OEKPKBNA@?$AAC?$AAo?$AAm?$AAp?$AAo?$AAn?$AAe?$AAn?$AAt?$AA?5?$AAC?$AAa?$AAt?$AAe?$AAg@ 0000000180028020     PointCardRW.obj
 0002:00001050       ??_C@_1BC@NKMMNMGL@?$AAF?$AAi?$AAl?$AAe?$AAT?$AAy?$AAp?$AAe@ 0000000180028050     PointCardRW.obj
 0002:00001068       ??_C@_1BE@EKPAFMCP@?$AAI?$AAn?$AAt?$AAe?$AAr?$AAf?$AAa?$AAc?$AAe@ 0000000180028068     PointCardRW.obj
 0002:00001080       ??_C@_1BC@MAICEHGI@?$AAH?$AAa?$AAr?$AAd?$AAw?$AAa?$AAr?$AAe@ 0000000180028080     PointCardRW.obj
 0002:00001098       ??_C@_19HLLLM@?$AAM?$AAi?$AAm?$AAe@ 0000000180028098     PointCardRW.obj
 0002:000010a8       ??_C@_17OMAOINJK@?$AAS?$AAA?$AAM@ 00000001800280a8     PointCardRW.obj
 0002:000010b0       ??_C@_1BC@IBECJAAI@?$AAS?$AAE?$AAC?$AAU?$AAR?$AAI?$AAT?$AAY@ 00000001800280b0     PointCardRW.obj
 0002:000010c8       ??_C@_1O@GBFINDKL@?$AAS?$AAY?$AAS?$AAT?$AAE?$AAM@ 00000001800280c8     PointCardRW.obj
 0002:000010d8       ??_C@_1BC@EAHCMADO@?$AAS?$AAo?$AAf?$AAt?$AAw?$AAa?$AAr?$AAe@ 00000001800280d8     PointCardRW.obj
 0002:000010f0       ??_C@_1BA@JIHHIEDE@?$AAT?$AAy?$AAp?$AAe?$AAL?$AAi?$AAb@ 00000001800280f0     PointCardRW.obj
 0002:00001100       _GUID_1c2056cc_5ef4_101b_8bc8_00aa003e3b29 0000000180028100     PointCardRW.obj
 0002:00001110       ?map@?1??HKeyFromString@CRegParser@ATL@@KAPEAUHKEY__@@PEA_W@Z@4QBUkeymap@?1??123@KAPEAU4@0@Z@B 0000000180028110     PointCardRW.obj
 0002:000011f0       ??_C@_19NCHLBIN@?$AAH?$AAK?$AAC?$AAR@ 00000001800281f0     PointCardRW.obj
 0002:00001200       ??_C@_19JAPAIJDE@?$AAH?$AAK?$AAC?$AAU@ 0000000180028200     PointCardRW.obj
 0002:00001210       ??_C@_19PEALEEJB@?$AAH?$AAK?$AAL?$AAM@ 0000000180028210     PointCardRW.obj
 0002:00001220       ??_C@_17PJOJPMPB@?$AAH?$AAK?$AAU@ 0000000180028220     PointCardRW.obj
 0002:00001228       ??_C@_19PNBHMJPL@?$AAH?$AAK?$AAP?$AAD@ 0000000180028228     PointCardRW.obj
 0002:00001238       ??_C@_19GFFAIJHG@?$AAH?$AAK?$AAD?$AAD@ 0000000180028238     PointCardRW.obj
 0002:00001248       ??_C@_19OFICIBHH@?$AAH?$AAK?$AAC?$AAC@ 0000000180028248     PointCardRW.obj
 0002:00001258       ??_C@_1CE@PACHPJFI@?$AAH?$AAK?$AAE?$AAY?$AA_?$AAC?$AAL?$AAA?$AAS?$AAS?$AAE?$AAS?$AA_?$AAR?$AAO@ 0000000180028258     PointCardRW.obj
 0002:00001280       ??_C@_1CE@HLHNCBPM@?$AAH?$AAK?$AAE?$AAY?$AA_?$AAC?$AAU?$AAR?$AAR?$AAE?$AAN?$AAT?$AA_?$AAU?$AAS@ 0000000180028280     PointCardRW.obj
 0002:000012a8       ??_C@_1CG@GFBEANJL@?$AAH?$AAK?$AAE?$AAY?$AA_?$AAL?$AAO?$AAC?$AAA?$AAL?$AA_?$AAM?$AAA?$AAC?$AAH@ 00000001800282a8     PointCardRW.obj
 0002:000012d0       ??_C@_1BG@BGODANIO@?$AAH?$AAK?$AAE?$AAY?$AA_?$AAU?$AAS?$AAE?$AAR?$AAS@ 00000001800282d0     PointCardRW.obj
 0002:000012e8       ??_C@_1CM@KHNNAOIC@?$AAH?$AAK?$AAE?$AAY?$AA_?$AAP?$AAE?$AAR?$AAF?$AAO?$AAR?$AAM?$AAA?$AAN?$AAC@ 00000001800282e8     PointCardRW.obj
 0002:00001318       ??_C@_1BM@HAGMMHIA@?$AAH?$AAK?$AAE?$AAY?$AA_?$AAD?$AAY?$AAN?$AA_?$AAD?$AAA?$AAT?$AAA@ 0000000180028318     PointCardRW.obj
 0002:00001338       ??_C@_1CI@BBJOACGG@?$AAH?$AAK?$AAE?$AAY?$AA_?$AAC?$AAU?$AAR?$AAR?$AAE?$AAN?$AAT?$AA_?$AAC?$AAO@ 0000000180028338     PointCardRW.obj
 0002:00001360       _GUID_00000109_0000_0000_c000_000000000046 0000000180028360     PointCardRW.obj
 0002:00001370       _GUID_7fd52380_4e07_101b_ae2d_08002b2ec713 0000000180028370     PointCardRW.obj
 0002:00001380       _GUID_00000112_0000_0000_c000_000000000046 0000000180028380     PointCardRW.obj
 0002:00001390       ??_C@_1EA@NHKLICFA@?$AAH?$AAK?$AAC?$AAU?$AA?$AN?$AA?6?$AA?$HL?$AA?7?$AAS?$AAo?$AAf?$AAt?$AAw?$AAa?$AAr@ 0000000180028390     PointCardRW.obj
 0002:000013d0       ??_C@_1BE@LJOLIMEM@?$AA?$AN?$AA?6?$AA?7?$AA?$HN?$AA?$AN?$AA?6?$AA?$HN?$AA?$AN?$AA?6@ 00000001800283d0     PointCardRW.obj
 0002:000013e8       _GUID_3af24292_0c96_11ce_a0cf_00aa00600ab8 00000001800283e8     PointCardRW.obj
 0002:000013f8       _GUID_00000127_0000_0000_c000_000000000046 00000001800283f8     PointCardRW.obj
 0002:00001408       _GUID_0000010d_0000_0000_c000_000000000046 0000000180028408     PointCardRW.obj
 0002:00001418       ??_C@_1O@MNLDABAF@?$AAM?$AAo?$AAd?$AAu?$AAl?$AAe@ 0000000180028418     PointCardRW.obj
 0002:00001428       ??_C@_1BG@JBACFMF@?$AAM?$AAo?$AAd?$AAu?$AAl?$AAe?$AA_?$AAR?$AAa?$AAw@ 0000000180028428     PointCardRW.obj
 0002:00001440       ??_C@_1BC@KAILKFFG@?$AAR?$AAE?$AAG?$AAI?$AAS?$AAT?$AAR?$AAY@ 0000000180028440     PointCardRW.obj
 0002:00001458       ??_C@_1M@PPPPCDEP@?$AAA?$AAP?$AAP?$AAI?$AAD@ 0000000180028458     PointCardRW.obj
 0002:00001468       ??_7?$CComContainedObject@VCOPOSPointCardRW@@@ATL@@6B?$IDispatchImpl@UIOPOSPointCardRW@@$1?IID_IOPOSPointCardRW@@3U_GUID@@B$1?LIBID_OposPointCardRW_CCO@@3U3@B$00$0A@VCComTypeInfoHolder@ATL@@@1@@ 0000000180028468     PointCardRW.obj
 0002:00001888       ??_7?$CComContainedObject@VCOPOSPointCardRW@@@ATL@@6BCComControlBase@1@@ 0000000180028888     PointCardRW.obj
 0002:000018b0       ??_7?$CComContainedObject@VCOPOSPointCardRW@@@ATL@@6B?$CWindowImpl@VCOPOSPointCardRW@@VCWindow@ATL@@V?$CWinTraits@$0FGAAAAAA@$0A@@3@@1@@ 00000001800288b0     PointCardRW.obj
 0002:000018d0       ??_7?$CComContainedObject@VCOPOSPointCardRW@@@ATL@@6B?$IPersistStreamInitImpl@VCOPOSPointCardRW@@@1@@ 00000001800288d0     PointCardRW.obj
 0002:00001918       ??_7?$CComContainedObject@VCOPOSPointCardRW@@@ATL@@6B?$IOleControlImpl@VCOPOSPointCardRW@@@1@@ 0000000180028918     PointCardRW.obj
 0002:00001950       ??_7?$CComContainedObject@VCOPOSPointCardRW@@@ATL@@6B?$IOleObjectImpl@VCOPOSPointCardRW@@@1@@ 0000000180028950     PointCardRW.obj
 0002:00001a10       ??_7?$CComContainedObject@VCOPOSPointCardRW@@@ATL@@6B?$IOleInPlaceActiveObjectImpl@VCOPOSPointCardRW@@@1@@ 0000000180028a10     PointCardRW.obj
 0002:00001a60       ??_7?$CComContainedObject@VCOPOSPointCardRW@@@ATL@@6B?$IViewObjectExImpl@VCOPOSPointCardRW@@@1@@ 0000000180028a60     PointCardRW.obj
 0002:00001ad8       ??_7?$CComContainedObject@VCOPOSPointCardRW@@@ATL@@6B?$IOleInPlaceObjectWindowlessImpl@VCOPOSPointCardRW@@@1@@ 0000000180028ad8     PointCardRW.obj
 0002:00001b30       ??_7?$CComContainedObject@VCOPOSPointCardRW@@@ATL@@6B?$IConnectionPointContainerImpl@VCOPOSPointCardRW@@@1@@ 0000000180028b30     PointCardRW.obj
 0002:00001b58       ??_7?$CComContainedObject@VCOPOSPointCardRW@@@ATL@@6B?$IPersistStorageImpl@VCOPOSPointCardRW@@@1@@ 0000000180028b58     PointCardRW.obj
 0002:00001ba8       ??_7?$CComContainedObject@VCOPOSPointCardRW@@@ATL@@6B?$ISpecifyPropertyPagesImpl@VCOPOSPointCardRW@@@1@@ 0000000180028ba8     PointCardRW.obj
 0002:00001bc8       ??_7?$CComContainedObject@VCOPOSPointCardRW@@@ATL@@6B?$IQuickActivateImpl@VCOPOSPointCardRW@@@1@@ 0000000180028bc8     PointCardRW.obj
 0002:00001bf8       ??_7?$CComContainedObject@VCOPOSPointCardRW@@@ATL@@6B?$IDataObjectImpl@VCOPOSPointCardRW@@@1@@ 0000000180028bf8     PointCardRW.obj
 0002:00001c58       ??_7?$CComContainedObject@VCOPOSPointCardRW@@@ATL@@6B?$IProvideClassInfo2Impl@$1?CLSID_OPOSPointCardRW@@3U_GUID@@B$1?DIID__IOPOSPointCardRWEvents@@3U2@B$1?LIBID_OposPointCardRW_CCO@@3U2@B$00$0A@VCComTypeInfoHolder@ATL@@@1@@ 0000000180028c58     PointCardRW.obj
 0002:00001c80       ??_7?$CComContainedObject@VCOPOSPointCardRW@@@ATL@@6B?$IObjectSafetyImpl@VCOPOSPointCardRW@@$02@1@@ 0000000180028c80     PointCardRW.obj
 0002:00001cb0       ??_7?$CComContainedObject@VCOPOSPointCardRW@@@ATL@@6B?$IPropertyNotifySinkCP@VCOPOSPointCardRW@@VCComDynamicUnkArray@ATL@@@1@@ 0000000180028cb0     PointCardRW.obj
 0002:00001cf0       ??_7?$CComContainedObject@VCOPOSPointCardRW@@@ATL@@6B?$CProxy_IOPOSEvents@VCOPOSPointCardRW@@@@@ 0000000180028cf0     PointCardRW.obj
 0002:00001d30       ??_7?$CComAggObject@VCOPOSPointCardRW@@@ATL@@6B@ 0000000180028d30     PointCardRW.obj
 0002:00001d50       ??_7?$CComObject@VCOPOSPointCardRW@@@ATL@@6B?$IDispatchImpl@UIOPOSPointCardRW@@$1?IID_IOPOSPointCardRW@@3U_GUID@@B$1?LIBID_OposPointCardRW_CCO@@3U3@B$00$0A@VCComTypeInfoHolder@ATL@@@1@@ 0000000180028d50     PointCardRW.obj
 0002:00002170       ??_7?$CComObject@VCOPOSPointCardRW@@@ATL@@6BCComControlBase@1@@ 0000000180029170     PointCardRW.obj
 0002:00002198       ??_7?$CComObject@VCOPOSPointCardRW@@@ATL@@6B?$CWindowImpl@VCOPOSPointCardRW@@VCWindow@ATL@@V?$CWinTraits@$0FGAAAAAA@$0A@@3@@1@@ 0000000180029198     PointCardRW.obj
 0002:000021b8       ??_7?$CComObject@VCOPOSPointCardRW@@@ATL@@6B?$IPersistStreamInitImpl@VCOPOSPointCardRW@@@1@@ 00000001800291b8     PointCardRW.obj
 0002:00002200       ??_7?$CComObject@VCOPOSPointCardRW@@@ATL@@6B?$IOleControlImpl@VCOPOSPointCardRW@@@1@@ 0000000180029200     PointCardRW.obj
 0002:00002238       ??_7?$CComObject@VCOPOSPointCardRW@@@ATL@@6B?$IOleObjectImpl@VCOPOSPointCardRW@@@1@@ 0000000180029238     PointCardRW.obj
 0002:000022f8       ??_7?$CComObject@VCOPOSPointCardRW@@@ATL@@6B?$IOleInPlaceActiveObjectImpl@VCOPOSPointCardRW@@@1@@ 00000001800292f8     PointCardRW.obj
 0002:00002348       ??_7?$CComObject@VCOPOSPointCardRW@@@ATL@@6B?$IViewObjectExImpl@VCOPOSPointCardRW@@@1@@ 0000000180029348     PointCardRW.obj
 0002:000023c0       ??_7?$CComObject@VCOPOSPointCardRW@@@ATL@@6B?$IOleInPlaceObjectWindowlessImpl@VCOPOSPointCardRW@@@1@@ 00000001800293c0     PointCardRW.obj
 0002:00002418       ??_7?$CComObject@VCOPOSPointCardRW@@@ATL@@6B?$IConnectionPointContainerImpl@VCOPOSPointCardRW@@@1@@ 0000000180029418     PointCardRW.obj
 0002:00002440       ??_7?$CComObject@VCOPOSPointCardRW@@@ATL@@6B?$IPersistStorageImpl@VCOPOSPointCardRW@@@1@@ 0000000180029440     PointCardRW.obj
 0002:00002490       ??_7?$CComObject@VCOPOSPointCardRW@@@ATL@@6B?$ISpecifyPropertyPagesImpl@VCOPOSPointCardRW@@@1@@ 0000000180029490     PointCardRW.obj
 0002:000024b0       ??_7?$CComObject@VCOPOSPointCardRW@@@ATL@@6B?$IQuickActivateImpl@VCOPOSPointCardRW@@@1@@ 00000001800294b0     PointCardRW.obj
 0002:000024e0       ??_7?$CComObject@VCOPOSPointCardRW@@@ATL@@6B?$IDataObjectImpl@VCOPOSPointCardRW@@@1@@ 00000001800294e0     PointCardRW.obj
 0002:00002540       ??_7?$CComObject@VCOPOSPointCardRW@@@ATL@@6B?$IProvideClassInfo2Impl@$1?CLSID_OPOSPointCardRW@@3U_GUID@@B$1?DIID__IOPOSPointCardRWEvents@@3U2@B$1?LIBID_OposPointCardRW_CCO@@3U2@B$00$0A@VCComTypeInfoHolder@ATL@@@1@@ 0000000180029540     PointCardRW.obj
 0002:00002568       ??_7?$CComObject@VCOPOSPointCardRW@@@ATL@@6B?$IObjectSafetyImpl@VCOPOSPointCardRW@@$02@1@@ 0000000180029568     PointCardRW.obj
 0002:00002598       ??_7?$CComObject@VCOPOSPointCardRW@@@ATL@@6B?$IPropertyNotifySinkCP@VCOPOSPointCardRW@@VCComDynamicUnkArray@ATL@@@1@@ 0000000180029598     PointCardRW.obj
 0002:000025d8       ??_7?$CComObject@VCOPOSPointCardRW@@@ATL@@6B?$CProxy_IOPOSEvents@VCOPOSPointCardRW@@@@@ 00000001800295d8     PointCardRW.obj
 0002:00002618       ??_C@_1O@GBFKGNEO@?$AAA?$AAT?$AAL?$AA?3?$AA?$CF?$AAp@ 0000000180029618     PointCardRW.obj
 0002:00002628       ??_C@_1BA@PICGEGJB@?$AAD?$AAI?$AAS?$AAP?$AAL?$AAA?$AAY@ 0000000180029628     PointCardRW.obj
 0002:00002638       _GUID_b196b284_bab4_101a_b69c_00aa00341d07 0000000180029638     PointCardRW.obj
 0002:00002648       _GUID_9bfbbc02_eff1_101a_84ed_00aa00341d07 0000000180029648     PointCardRW.obj
 0002:00002658       ?_entries@?1??_GetEntries@?$CComEnum@UIEnumConnectionPoints@@$1?_GUID_b196b285_bab4_101a_b69c_00aa00341d07@@3U__s_GUID@@BPEAUIConnectionPoint@@V?$_CopyInterface@UIConnectionPoint@@@ATL@@VCComSingleThreadModel@6@@ATL@@SAPEBU_ATL_INTMAP_ENTRY@3@XZ@4QBU43@B 0000000180029658     PointCardRW.obj
 0002:00002688       _GUID_00020412_0000_0000_c000_000000000046 0000000180029688     PointCardRW.obj
 0002:00002698       _GUID_00020401_0000_0000_c000_000000000046 0000000180029698     PointCardRW.obj
 0002:000026a8       ??_C@_0BG@EKFFMJIO@RegOpenKeyTransactedW@ 00000001800296a8     PointCardRW.obj
 0002:000026c0       ??_C@_0BI@HAKLOOGP@RegDeleteKeyTransactedW@ 00000001800296c0     PointCardRW.obj
 0002:000026d8       ??_C@_0BA@LILAPHGE@RegDeleteKeyExW@ 00000001800296d8     PointCardRW.obj
 0002:000026e8       ??_C@_19ILOCMLCJ@?$AA?4?$AAt?$AAl?$AAb@ 00000001800296e8     PointCardRW.obj
 0002:000026f8       _GUID_0002e012_0000_0000_c000_000000000046 00000001800296f8     PointCardRW.obj
 0002:00002708       ??_C@_1O@FHBGLCIO@?$AAC?$AAL?$AAS?$AAI?$AAD?$AA?2@ 0000000180029708     PointCardRW.obj
 0002:00002718       ??_C@_1CK@IFBKBFAA@?$AA?2?$AAR?$AAe?$AAq?$AAu?$AAi?$AAr?$AAe?$AAd?$AA?5?$AAC?$AAa?$AAt?$AAe?$AAg@ 0000000180029718     PointCardRW.obj
 0002:00002748       ??_C@_1DA@BIHALFED@?$AA?2?$AAI?$AAm?$AAp?$AAl?$AAe?$AAm?$AAe?$AAn?$AAt?$AAe?$AAd?$AA?5?$AAC?$AAa@ 0000000180029748     PointCardRW.obj
 0002:00002778       ??_C@_1BK@EDKOLFBJ@?$AAO?$AAL?$AAE?$AAA?$AAU?$AAT?$AA3?$AA2?$AA?4?$AAD?$AAL?$AAL@ 0000000180029778     PointCardRW.obj
 0002:00002798       ??_C@_0BJ@CNLFOMHB@UnRegisterTypeLibForUser@ 0000000180029798     PointCardRW.obj
 0002:000027b8       ??_C@_0BH@LBOMMKPJ@RegisterTypeLibForUser@ 00000001800297b8     PointCardRW.obj
 0002:000027d0       ??_C@_0P@MMNMMLGK@COFreezeEvents@ 00000001800297d0     PointCardRWImpl.obj
 0002:000027e0       ??_C@_0BC@OGCGGIMP@GetPropertyNumber@ 00000001800297e0     PointCardRWImpl.obj
 0002:000027f8       ??_C@_0BC@MDCNODNB@SetPropertyNumber@ 00000001800297f8     PointCardRWImpl.obj
 0002:00002810       ??_C@_0BC@CFCCMIMD@GetPropertyString@ 0000000180029810     PointCardRWImpl.obj
 0002:00002828       ??_C@_0BC@CJEDNN@SetPropertyString@ 0000000180029828     PointCardRWImpl.obj
 0002:00002840       ??_C@_0M@LNPKKKDA@OpenService@ 0000000180029840     PointCardRWImpl.obj
 0002:00002850       ??_C@_0M@PCMCHHMH@CheckHealth@ 0000000180029850     PointCardRWImpl.obj
 0002:00002860       ??_C@_0M@JGMIDNEK@ClaimDevice@ 0000000180029860     PointCardRWImpl.obj
 0002:00002870       ??_C@_0L@BNEIFEJC@ClearInput@ 0000000180029870     PointCardRWImpl.obj
 0002:00002880       ??_C@_0M@JMBCPNGJ@ClearOutput@ 0000000180029880     PointCardRWImpl.obj
 0002:00002890       ??_C@_0N@DDFIIBMP@CloseService@ 0000000180029890     PointCardRWImpl.obj
 0002:000028a0       ??_C@_08EEIHICPC@DirectIO@ 00000001800298a0     PointCardRWImpl.obj
 0002:000028b0       ??_C@_0O@BCPMENMJ@ReleaseDevice@ 00000001800298b0     PointCardRWImpl.obj
 0002:000028c0       ??_C@_0P@DPMKPLAE@BeginInsertion@ 00000001800298c0     PointCardRWImpl.obj
 0002:000028d0       ??_C@_0N@PCJLGBKP@BeginRemoval@ 00000001800298d0     PointCardRWImpl.obj
 0002:000028e0       ??_C@_09JOLGHOFM@CleanCard@ 00000001800298e0     PointCardRWImpl.obj
 0002:000028f0       ??_C@_0BA@DIBCHCJJ@ClearPrintWrite@ 00000001800298f0     PointCardRWImpl.obj
 0002:00002900       ??_C@_0N@MIHLNKHM@EndInsertion@ 0000000180029900     PointCardRWImpl.obj
 0002:00002910       ??_C@_0L@FCEKAOMI@EndRemoval@ 0000000180029910     PointCardRWImpl.obj
 0002:00002920       ??_C@_0L@KMDJNLNL@PrintWrite@ 0000000180029920     PointCardRWImpl.obj
 0002:00002930       ??_C@_0M@BCMAIKNJ@RotatePrint@ 0000000180029930     PointCardRWImpl.obj
 0002:00002940       ??_C@_0N@MBAILECK@ValidateData@ 0000000180029940     PointCardRWImpl.obj
 0002:00002950       ??_C@_0BA@GFABKEEE@ResetStatistics@ 0000000180029950     PointCardRWImpl.obj
 0002:00002960       ??_C@_0BD@DPALHJGC@RetrieveStatistics@ 0000000180029960     PointCardRWImpl.obj
 0002:00002978       ??_C@_0BB@KOHIKNFC@UpdateStatistics@ 0000000180029978     PointCardRWImpl.obj
 0002:00002990       ??_C@_0BH@PBKBNMGB@CompareFirmwareVersion@ 0000000180029990     PointCardRWImpl.obj
 0002:000029a8       ??_C@_0P@FBPDPIPA@UpdateFirmware@ 00000001800299a8     PointCardRWImpl.obj
 0002:000029b8       ??_C@_0BF@CMAPCJGM@ClearInputProperties@ 00000001800299b8     PointCardRWImpl.obj
 0002:000029d0       ??_7?$CProxy_IOPOSEvents@VCOPOSPointCardRW@@@@6B@ 00000001800299d0     PointCardRWImpl.obj
 0002:00002a10       ??_C@_1BA@IFHENID@?$AA?$FL?$AAE?$AAr?$AAr?$AAo?$AAr?$AA?$FN@ 0000000180029a10     PointCardRWImpl.obj
 0002:00002a20       ??_C@_0CO@JMLGEGNF@SOFTWARE?2OLEforRetail?2ServiceOP@ 0000000180029a20     PointCardRWImpl.obj
 0002:00002a50       ??_C@_1M@IAIJHCCH@?$AAC?$AAl?$AAo?$AAs?$AAe@ 0000000180029a50     PointCardRWImpl.obj
 0002:00002a60       ??_C@_1M@PCPKGJAH@?$AAC?$AAl?$AAa?$AAi?$AAm@ 0000000180029a60     PointCardRWImpl.obj
 0002:00002a70       ??_C@_1BA@NDFKIOCP@?$AAR?$AAe?$AAl?$AAe?$AAa?$AAs?$AAe@ 0000000180029a70     PointCardRWImpl.obj
 0002:00002a80       ??_C@_0M@PBOLLKCJ@PointCardRW@ 0000000180029a80     PointCardRWImpl.obj
 0002:00002a90       ??_C@_1BM@IJMNMBPK@?$AAG?$AAe?$AAt?$AAO?$AAp?$AAe?$AAn?$AAR?$AAe?$AAs?$AAu?$AAl?$AAt@ 0000000180029a90     PointCardRWImpl.obj
 0002:00002ab0       IID_IDispatch              0000000180029ab0     uuid:oaidl_i.obj
 0002:00002ac0       IID_IPropertyNotifySink    0000000180029ac0     uuid:ocidl_i.obj
 0002:00002ad0       GUID_NULL                  0000000180029ad0     uuid:cguid_i.obj
 0002:00002ae0       CLSID_StdGlobalInterfaceTable 0000000180029ae0     uuid:cguid_i.obj
 0002:00002af0       CLSID_StdComponentCategoriesMgr 0000000180029af0     uuid:ieguids.obj
 0002:00002b00       IID_IUnknown               0000000180029b00     uuid:unknwn_i.obj
 0002:00002b10       __xmm@ffffffffffffffffffffffffffffffff 0000000180029b10     LIBCMT:utility.obj
 0002:00002b20       ??_C@_1EC@JIJBPKFM@?$AAa?$AAp?$AAi?$AA?9?$AAm?$AAs?$AA?9?$AAw?$AAi?$AAn?$AA?9?$AAc?$AAo?$AAr?$AAe@ 0000000180029b20     LIBCMT:thread_safe_statics.obj
 0002:00002b68       ??_C@_1BK@MGMFAEKH@?$AAk?$AAe?$AAr?$AAn?$AAe?$AAl?$AA3?$AA2?$AA?4?$AAd?$AAl?$AAl@ 0000000180029b68     LIBCMT:thread_safe_statics.obj
 0002:00002b88       ??_C@_0BJ@JEBJOJFJ@SleepConditionVariableCS@ 0000000180029b88     LIBCMT:thread_safe_statics.obj
 0002:00002ba8       ??_C@_0BJ@PGPPEPCC@WakeAllConditionVariable@ 0000000180029ba8     LIBCMT:thread_safe_statics.obj
 0002:00002bc1       ?nothrow@std@@3Unothrow_t@1@B 0000000180029bc1     LIBCMT:std_nothrow.obj
 0002:00002bd8       _pRawDllMain               0000000180029bd8     LIBCMT:dll_dllmain.obj
 0002:00002bd8       _pDefaultRawDllMain        0000000180029bd8     LIBCMT:dll_dllmain.obj
 0002:00002be8       ??_7exception@std@@6B@     0000000180029be8     LIBCMT:throw_bad_alloc.obj
 0002:00002bf8       ??_C@_0BC@EOODALEL@Unknown?5exception@ 0000000180029bf8     LIBCMT:throw_bad_alloc.obj
 0002:00002c18       ??_7bad_alloc@std@@6B@     0000000180029c18     LIBCMT:throw_bad_alloc.obj
 0002:00002c28       ??_C@_0P@GHFPNOJB@bad?5allocation@ 0000000180029c28     LIBCMT:throw_bad_alloc.obj
 0002:00002c40       ??_7bad_array_new_length@std@@6B@ 0000000180029c40     LIBCMT:throw_bad_alloc.obj
 0002:00002c50       ??_C@_0BF@KINCDENJ@bad?5array?5new?5length@ 0000000180029c50     LIBCMT:throw_bad_alloc.obj
 0002:00002c70       ??_7type_info@@6B@         0000000180029c70     LIBCMT:std_type_info_static.obj
 0002:00002c78       GUID_ATLVer110             0000000180029c78     atls:atlbase.obj
 0002:00002c90       ??_C@_1IC@ONKHOIDK@?$AAE?$AAR?$AAR?$AAO?$AAR?$AA?5?$AA?3?$AA?5?$AAU?$AAn?$AAa?$AAb?$AAl?$AAe?$AA?5@ 0000000180029c90     atls:atlbase.obj
 0002:00002d18       ??_C@_0N@FJEPLCIH@atlthunk?4dll@ 0000000180029d18     atls:atlthunk.obj
 0002:00002d28       ??_C@_0BG@GAKFHCBM@AtlThunk_AllocateData@ 0000000180029d28     atls:atlthunk.obj
 0002:00002d40       ??_C@_0BC@JKONFIAH@AtlThunk_InitData@ 0000000180029d40     atls:atlthunk.obj
 0002:00002d58       ??_C@_0BE@IAOEELAK@AtlThunk_DataToCode@ 0000000180029d58     atls:atlthunk.obj
 0002:00002d70       ??_C@_0BC@GBGKAIPI@AtlThunk_FreeData@ 0000000180029d70     atls:atlthunk.obj
 0002:00002d88       ?s_negLengthTab@FH4@@3QBCB 0000000180029d88     libvcruntime:risctrnsctrl.obj
 0002:00002d98       ?s_shiftTab@FH4@@3QBEB     0000000180029d98     libvcruntime:risctrnsctrl.obj
 0002:00002ee8       _pDestructExceptionObject  0000000180029ee8     libvcruntime:ehhelpers.obj
 0002:00002ef8       ??_7bad_exception@std@@6B@ 0000000180029ef8     libvcruntime:frame.obj
 0002:00002f08       ??_C@_0O@DPKOEFFH@bad?5exception@ 0000000180029f08     libvcruntime:frame.obj
 0002:00003630       ??_C@_08EHJDFFNH@__based?$CI@ 000000018002a630     libvcruntime:undname.obj
 0002:00003640       ??_C@_07KOLFKCDI@__cdecl@  000000018002a640     libvcruntime:undname.obj
 0002:00003648       ??_C@_08GHMPAG@__pascal@   000000018002a648     libvcruntime:undname.obj
 0002:00003658       ??_C@_09IFJBGAPI@__stdcall@ 000000018002a658     libvcruntime:undname.obj
 0002:00003668       ??_C@_0L@NPHFGOKO@__thiscall@ 000000018002a668     libvcruntime:undname.obj
 0002:00003678       ??_C@_0L@JMKHOMEK@__fastcall@ 000000018002a678     libvcruntime:undname.obj
 0002:00003688       ??_C@_0N@BCKKPABJ@__vectorcall@ 000000018002a688     libvcruntime:undname.obj
 0002:00003698       ??_C@_09HIJEGCPM@__clrcall@ 000000018002a698     libvcruntime:undname.obj
 0002:000036a4       ??_C@_06GHPCKEAG@__eabi@   000000018002a6a4     libvcruntime:undname.obj
 0002:000036b0       ??_C@_09IOPIDJLG@__swift_1@ 000000018002a6b0     libvcruntime:undname.obj
 0002:000036c0       ??_C@_09KFNFGKHF@__swift_2@ 000000018002a6c0     libvcruntime:undname.obj
 0002:000036d0       ??_C@_09LMMOFLDE@__swift_3@ 000000018002a6d0     libvcruntime:undname.obj
 0002:000036e0       ??_C@_07JOMMBBKO@__ptr64@  000000018002a6e0     libvcruntime:undname.obj
 0002:000036e8       ??_C@_0L@PILCLIHE@__restrict@ 000000018002a6e8     libvcruntime:undname.obj
 0002:000036f8       ??_C@_0M@GFIIJFMG@__unaligned@ 000000018002a6f8     libvcruntime:undname.obj
 0002:00003708       ??_C@_09DHDLOLLB@restrict?$CI@ 000000018002a708     libvcruntime:undname.obj
 0002:00003712       ??_C@_00CNPNBAHC@@         000000018002a712     libvcruntime:undname.obj
 0002:00003714       ??_C@_04NIHEBCM@?5new@     000000018002a714     libvcruntime:undname.obj
 0002:00003720       ??_C@_07FPCDHGMM@?5delete@ 000000018002a720     libvcruntime:undname.obj
 0002:00003728       ??_C@_01NEMOKFLO@?$DN@     000000018002a728     libvcruntime:undname.obj
 0002:0000372c       ??_C@_02GPIOPFAK@?$DO?$DO@ 000000018002a72c     libvcruntime:undname.obj
 0002:00003730       ??_C@_02FODMEDOG@?$DM?$DM@ 000000018002a730     libvcruntime:undname.obj
 0002:00003734       ??_C@_01DCLJPIOD@?$CB@     000000018002a734     libvcruntime:undname.obj
 0002:00003738       ??_C@_02EGOFBIJA@?$DN?$DN@ 000000018002a738     libvcruntime:undname.obj
 0002:0000373c       ??_C@_02FDNJECIE@?$CB?$DN@ 000000018002a73c     libvcruntime:undname.obj
 0002:00003740       ??_C@_02GPECMEKF@?$FL?$FN@ 000000018002a740     libvcruntime:undname.obj
 0002:00003748       ??_C@_08LHJFAFGD@operator@ 000000018002a748     libvcruntime:undname.obj
 0002:00003754       ??_C@_02HBOOOICD@?9?$DO@   000000018002a754     libvcruntime:undname.obj
 0002:00003758       ??_C@_01NBENCBCI@?$CK@     000000018002a758     libvcruntime:undname.obj
 0002:0000375c       ??_C@_02ECNGHCIF@?$CL?$CL@ 000000018002a75c     libvcruntime:undname.obj
 0002:00003760       ??_C@_02BAABKJLB@?9?9@     000000018002a760     libvcruntime:undname.obj
 0002:00003764       ??_C@_01JOAMLHOP@?9@       000000018002a764     libvcruntime:undname.obj
 0002:00003768       ??_C@_01MIFGBAGJ@?$CL@     000000018002a768     libvcruntime:undname.obj
 0002:0000376c       ??_C@_01HNPIGOCE@?$CG@     000000018002a76c     libvcruntime:undname.obj
 0002:00003770       ??_C@_03MNHNFDLC@?9?$DO?$CK@ 000000018002a770     libvcruntime:undname.obj
 0002:00003774       ??_C@_01KMDKNFGN@?1@       000000018002a774     libvcruntime:undname.obj
 0002:00003778       ??_C@_01FGNFDNOH@?$CF@     000000018002a778     libvcruntime:undname.obj
 0002:0000377c       ??_C@_01MNNFJEPP@?$DM@     000000018002a77c     libvcruntime:undname.obj
 0002:00003780       ??_C@_02EHCHHCKH@?$DM?$DN@ 000000018002a780     libvcruntime:undname.obj
 0002:00003784       ??_C@_01PPODPGHN@?$DO@     000000018002a784     libvcruntime:undname.obj
 0002:00003788       ??_C@_02EEKDKGMJ@?$DO?$DN@ 000000018002a788     libvcruntime:undname.obj
 0002:0000378c       ??_C@_01IHBHIGKO@?0@       000000018002a78c     libvcruntime:undname.obj
 0002:00003790       ??_C@_02HCKGKOFO@?$CI?$CJ@ 000000018002a790     libvcruntime:undname.obj
 0002:00003794       ??_C@_01PJKLJHI@?$HO@      000000018002a794     libvcruntime:undname.obj
 0002:00003798       ??_C@_01JKBOJNNK@?$FO@     000000018002a798     libvcruntime:undname.obj
 0002:0000379c       ??_C@_01DNKMNLPK@?$HM@     000000018002a79c     libvcruntime:undname.obj
 0002:000037a0       ??_C@_02PPKAJPJL@?$CG?$CG@ 000000018002a7a0     libvcruntime:undname.obj
 0002:000037a4       ??_C@_02NONPIBCD@?$HM?$HM@ 000000018002a7a4     libvcruntime:undname.obj
 0002:000037a8       ??_C@_02FPIMKNGF@?$CK?$DN@ 000000018002a7a8     libvcruntime:undname.obj
 0002:000037ac       ??_C@_02FOEOMHFC@?$CL?$DN@ 000000018002a7ac     libvcruntime:undname.obj
 0002:000037b0       ??_C@_02FKMDLLOA@?9?$DN@   000000018002a7b0     libvcruntime:undname.obj
 0002:000037b4       ??_C@_02FJEHGPIO@?1?$DN@   000000018002a7b4     libvcruntime:undname.obj
 0002:000037b8       ??_C@_02FENAOKFI@?$CF?$DN@ 000000018002a7b8     libvcruntime:undname.obj
 0002:000037bc       ??_C@_03IKFCCPFF@?$DO?$DO?$DN@ 000000018002a7bc     libvcruntime:undname.obj
 0002:000037c0       ??_C@_03CDNPDDLA@?$DM?$DM?$DN@ 000000018002a7c0     libvcruntime:undname.obj
 0002:000037c4       ??_C@_02FGJGFEAB@?$CG?$DN@ 000000018002a7c4     libvcruntime:undname.obj
 0002:000037c8       ??_C@_02DHLNPPGH@?$HM?$DN@ 000000018002a7c8     libvcruntime:undname.obj
 0002:000037cc       ??_C@_02MHEGNOJ@?$FO?$DN@  000000018002a7cc     libvcruntime:undname.obj
 0002:000037d0       ??_C@_09IFPLHPGF@?$GAvftable?8@ 000000018002a7d0     libvcruntime:undname.obj
 0002:000037e0       ??_C@_09BLBHBJP@?$GAvbtable?8@ 000000018002a7e0     libvcruntime:undname.obj
 0002:000037f0       ??_C@_07FEEIOKP@?$GAvcall?8@ 000000018002a7f0     libvcruntime:undname.obj
 0002:000037f8       ??_C@_08LLFFHHDJ@?$GAtypeof?8@ 000000018002a7f8     libvcruntime:undname.obj
 0002:00003808       ??_C@_0BF@KDPPACIK@?$GAlocal?5static?5guard?8@ 000000018002a808     libvcruntime:undname.obj
 0002:00003820       ??_C@_08OBABFOLI@?$GAstring?8@ 000000018002a820     libvcruntime:undname.obj
 0002:00003830       ??_C@_0BD@JDLKDPAB@?$GAvbase?5destructor?8@ 000000018002a830     libvcruntime:undname.obj
 0002:00003848       ??_C@_0BN@DEGPLNFK@?$GAvector?5deleting?5destructor?8@ 000000018002a848     libvcruntime:undname.obj
 0002:00003868       ??_C@_0BO@OBMKPJIG@?$GAdefault?5constructor?5closure?8@ 000000018002a868     libvcruntime:undname.obj
 0002:00003888       ??_C@_0BN@IMDCHIKM@?$GAscalar?5deleting?5destructor?8@ 000000018002a888     libvcruntime:undname.obj
 0002:000038a8       ??_C@_0BO@PFGOCPJJ@?$GAvector?5constructor?5iterator?8@ 000000018002a8a8     libvcruntime:undname.obj
 0002:000038c8       ??_C@_0BN@LFPFMEDL@?$GAvector?5destructor?5iterator?8@ 000000018002a8c8     libvcruntime:undname.obj
 0002:000038e8       ??_C@_0CE@IKBNEHA@?$GAvector?5vbase?5constructor?5itera@ 000000018002a8e8     libvcruntime:undname.obj
 0002:00003910       ??_C@_0BL@NILFHHPC@?$GAvirtual?5displacement?5map?8@ 000000018002a910     libvcruntime:undname.obj
 0002:00003930       ??_C@_0CB@JONCMFFK@?$GAeh?5vector?5constructor?5iterator@ 000000018002a930     libvcruntime:undname.obj
 0002:00003958       ??_C@_0CA@GCEOPDGL@?$GAeh?5vector?5destructor?5iterator?8@ 000000018002a958     libvcruntime:undname.obj
 0002:00003978       ??_C@_0CH@OOJPLCPH@?$GAeh?5vector?5vbase?5constructor?5it@ 000000018002a978     libvcruntime:undname.obj
 0002:000039a0       ??_C@_0BL@LLKPOHJI@?$GAcopy?5constructor?5closure?8@ 000000018002a9a0     libvcruntime:undname.obj
 0002:000039c0       ??_C@_0BA@KBCDOMBN@?$GAudt?5returning?8@ 000000018002a9c0     libvcruntime:undname.obj
 0002:000039d0       ??_C@_03KLGMFNMG@?$GAEH@   000000018002a9d0     libvcruntime:undname.obj
 0002:000039d4       ??_C@_05KHLCHHI@?$GARTTI@  000000018002a9d4     libvcruntime:undname.obj
 0002:000039e0       ??_C@_0BA@KKLDJDLB@?$GAlocal?5vftable?8@ 000000018002a9e0     libvcruntime:undname.obj
 0002:000039f0       ??_C@_0CE@IIHCMGGL@?$GAlocal?5vftable?5constructor?5clos@ 000000018002a9f0     libvcruntime:undname.obj
 0002:00003a14       ??_C@_06FHBGPFGH@?5new?$FL?$FN@ 000000018002aa14     libvcruntime:undname.obj
 0002:00003a20       ??_C@_09LBNFPBCA@?5delete?$FL?$FN@ 000000018002aa20     libvcruntime:undname.obj
 0002:00003a30       ??_C@_0P@HJKNJFNN@?$GAomni?5callsig?8@ 000000018002aa30     libvcruntime:undname.obj
 0002:00003a40       ??_C@_0BL@CNOONJFP@?$GAplacement?5delete?5closure?8@ 000000018002aa40     libvcruntime:undname.obj
 0002:00003a60       ??_C@_0BN@CKNJLHMB@?$GAplacement?5delete?$FL?$FN?5closure?8@ 000000018002aa60     libvcruntime:undname.obj
 0002:00003a80       ??_C@_0CG@CFDHKGGD@?$GAmanaged?5vector?5constructor?5ite@ 000000018002aa80     libvcruntime:undname.obj
 0002:00003aa8       ??_C@_0CF@IMGKMJNO@?$GAmanaged?5vector?5destructor?5iter@ 000000018002aaa8     libvcruntime:undname.obj
 0002:00003ad0       ??_C@_0CG@HLDDJMAG@?$GAeh?5vector?5copy?5constructor?5ite@ 000000018002aad0     libvcruntime:undname.obj
 0002:00003af8       ??_C@_0CM@FCBBDIGB@?$GAeh?5vector?5vbase?5copy?5construct@ 000000018002aaf8     libvcruntime:undname.obj
 0002:00003b28       ??_C@_0BL@CLIPGLGB@?$GAdynamic?5initializer?5for?5?8@ 000000018002ab28     libvcruntime:undname.obj
 0002:00003b48       ??_C@_0CB@PDBIFEP@?$GAdynamic?5atexit?5destructor?5for?5@ 000000018002ab48     libvcruntime:undname.obj
 0002:00003b70       ??_C@_0CD@CGAJBKEJ@?$GAvector?5copy?5constructor?5iterat@ 000000018002ab70     libvcruntime:undname.obj
 0002:00003b98       ??_C@_0CJ@GJELGAMM@?$GAvector?5vbase?5copy?5constructor?5@ 000000018002ab98     libvcruntime:undname.obj
 0002:00003bc8       ??_C@_0CL@FGIJHLCE@?$GAmanaged?5vector?5copy?5constructo@ 000000018002abc8     libvcruntime:undname.obj
 0002:00003bf8       ??_C@_0BM@PMGGMLDN@?$GAlocal?5static?5thread?5guard?8@ 000000018002abf8     libvcruntime:undname.obj
 0002:00003c18       ??_C@_0N@BDNMDMOL@operator?5?$CC?$CC?5@ 000000018002ac18     libvcruntime:undname.obj
 0002:00003c28       ??_C@_0BC@GGEBGALA@operator?5co_await@ 000000018002ac28     libvcruntime:undname.obj
 0002:00003c40       ??_C@_0M@GAAIMMOH@operator?$DM?$DN?$DO@ 000000018002ac40     libvcruntime:undname.obj
 0002:00003c50       ??_C@_0BC@DAFEJGAK@?5Type?5Descriptor?8@ 000000018002ac50     libvcruntime:undname.obj
 0002:00003c68       ??_C@_0BM@LDKODKLH@?5Base?5Class?5Descriptor?5at?5?$CI@ 000000018002ac68     libvcruntime:undname.obj
 0002:00003c88       ??_C@_0BD@LGICGFMM@?5Base?5Class?5Array?8@ 000000018002ac88     libvcruntime:undname.obj
 0002:00003ca0       ??_C@_0BN@MECKDCOJ@?5Class?5Hierarchy?5Descriptor?8@ 000000018002aca0     libvcruntime:undname.obj
 0002:00003cc0       ??_C@_0BK@CFCOFLF@?5Complete?5Object?5Locator?8@ 000000018002acc0     libvcruntime:undname.obj
 0002:00003ce0       ??_C@_0BG@JNJLAMPM@?$GAanonymous?5namespace?8@ 000000018002ace0     libvcruntime:undname.obj
 0002:00003d10       ??_C@_1DM@KHCHBNEB@?$AAa?$AAp?$AAi?$AA?9?$AAm?$AAs?$AA?9?$AAw?$AAi?$AAn?$AA?9?$AAc?$AAo?$AAr?$AAe@ 000000018002ad10     libvcruntime:winapi_downlevel.obj
 0002:00003d50       ??_C@_1DK@LPPGFMPP@?$AAa?$AAp?$AAi?$AA?9?$AAm?$AAs?$AA?9?$AAw?$AAi?$AAn?$AA?9?$AAc?$AAo?$AAr?$AAe@ 000000018002ad50     libvcruntime:winapi_downlevel.obj
 0002:00003d90       ??_C@_1BC@GDMECMAK@?$AAk?$AAe?$AAr?$AAn?$AAe?$AAl?$AA3?$AA2@ 000000018002ad90     libvcruntime:winapi_downlevel.obj
 0002:00003da8       ??_C@_1BA@PFFKHIOG@?$AAa?$AAp?$AAi?$AA?9?$AAm?$AAs?$AA?9@ 000000018002ada8     libvcruntime:winapi_downlevel.obj
 0002:00003dc0       ??_C@_08KNHFBNJ@FlsAlloc@  000000018002adc0     libvcruntime:winapi_downlevel.obj
 0002:00003dd8       ??_C@_07PEJMOBNF@FlsFree@  000000018002add8     libvcruntime:winapi_downlevel.obj
 0002:00003de8       ??_C@_0M@GDNOONDI@FlsGetValue@ 000000018002ade8     libvcruntime:winapi_downlevel.obj
 0002:00003e00       ??_C@_0M@JCPCPOEF@FlsSetValue@ 000000018002ae00     libvcruntime:winapi_downlevel.obj
 0002:00003e18       ??_C@_0BM@HCFOFFN@InitializeCriticalSectionEx@ 000000018002ae18     libvcruntime:winapi_downlevel.obj
 0002:00003fb0       ?format_validation_lookup_table_spectre@__crt_stdio_output@@3V?$spectre_mitigated_lookup_table@Ustate_transition_pair@__crt_stdio_output@@$0IA@@1@B 000000018002afb0     libucrt:output.obj
 0002:000040b0       ??_C@_1O@CEDCILHN@?$AA?$CI?$AAn?$AAu?$AAl?$AAl?$AA?$CJ@ 000000018002b0b0     libucrt:output.obj
 0002:000040c0       ??_C@_06OJHGLDPL@?$CInull?$CJ@ 000000018002b0c0     libucrt:output.obj
 0002:000040d0       __acrt_exception_action_table 000000018002b0d0     libucrt:exception_filter.obj
 0002:00004190       __acrt_signal_action_table_count 000000018002b190     libucrt:exception_filter.obj
 0002:00004198       __acrt_signal_action_first_fpe_index 000000018002b198     libucrt:exception_filter.obj
 0002:000041a0       __acrt_signal_action_fpe_count 000000018002b1a0     libucrt:exception_filter.obj
 0002:000041f8       ??_C@_1BI@BGOHAHKC@?$AAm?$AAs?$AAc?$AAo?$AAr?$AAe?$AAe?$AA?4?$AAd?$AAl?$AAl@ 000000018002b1f8     libucrt:exit.obj
 0002:00004210       ??_C@_0P@MIGLKIOC@CorExitProcess@ 000000018002b210     libucrt:exit.obj
 0002:00004370       __lc_time_c                000000018002b370     libucrt:nlsdata.obj
 0002:00004630       ??_C@_03KOEHGMDN@Sun@      000000018002b630     libucrt:nlsdata.obj
 0002:00004634       ??_C@_03PDAGKDH@Mon@       000000018002b634     libucrt:nlsdata.obj
 0002:00004638       ??_C@_03NAGEINEP@Tue@      000000018002b638     libucrt:nlsdata.obj
 0002:0000463c       ??_C@_03MHOMLAJA@Wed@      000000018002b63c     libucrt:nlsdata.obj
 0002:00004640       ??_C@_03IOFIKPDN@Thu@      000000018002b640     libucrt:nlsdata.obj
 0002:00004644       ??_C@_03IDIOELNC@Fri@      000000018002b644     libucrt:nlsdata.obj
 0002:00004648       ??_C@_03FEFJNEK@Sat@       000000018002b648     libucrt:nlsdata.obj
 0002:0000464c       ??_C@_06OOPIFAJ@Sunday@    000000018002b64c     libucrt:nlsdata.obj
 0002:00004654       ??_C@_06JLEDEDGH@Monday@   000000018002b654     libucrt:nlsdata.obj
 0002:00004660       ??_C@_07BAAGCFCM@Tuesday@  000000018002b660     libucrt:nlsdata.obj
 0002:00004668       ??_C@_09DLIGFAKA@Wednesday@ 000000018002b668     libucrt:nlsdata.obj
 0002:00004678       ??_C@_08HACCIKIA@Thursday@ 000000018002b678     libucrt:nlsdata.obj
 0002:00004684       ??_C@_06JECMNKMI@Friday@   000000018002b684     libucrt:nlsdata.obj
 0002:00004690       ??_C@_08INBOOONO@Saturday@ 000000018002b690     libucrt:nlsdata.obj
 0002:0000469c       ??_C@_03JIHJHPIE@Jan@      000000018002b69c     libucrt:nlsdata.obj
 0002:000046a0       ??_C@_03HJBDCHOM@Feb@      000000018002b6a0     libucrt:nlsdata.obj
 0002:000046a4       ??_C@_03ODNJBKGA@Mar@      000000018002b6a4     libucrt:nlsdata.obj
 0002:000046a8       ??_C@_03LEOLGMJP@Apr@      000000018002b6a8     libucrt:nlsdata.obj
 0002:000046ac       ??_C@_03CNMDKL@May@        000000018002b6ac     libucrt:nlsdata.obj
 0002:000046b0       ??_C@_03IDFGHECI@Jun@      000000018002b6b0     libucrt:nlsdata.obj
 0002:000046b4       ??_C@_03LBGABGKK@Jul@      000000018002b6b4     libucrt:nlsdata.obj
 0002:000046b8       ??_C@_03IFJFEIGA@Aug@      000000018002b6b8     libucrt:nlsdata.obj
 0002:000046bc       ??_C@_03GGCAPAJC@Sep@      000000018002b6bc     libucrt:nlsdata.obj
 0002:000046c0       ??_C@_03BMAOKBAD@Oct@      000000018002b6c0     libucrt:nlsdata.obj
 0002:000046c4       ??_C@_03JPJOFNIA@Nov@      000000018002b6c4     libucrt:nlsdata.obj
 0002:000046c8       ??_C@_03MKABNOCG@Dec@      000000018002b6c8     libucrt:nlsdata.obj
 0002:000046d0       ??_C@_07CGJPFGJA@January@  000000018002b6d0     libucrt:nlsdata.obj
 0002:000046d8       ??_C@_08GNJGEPFN@February@ 000000018002b6d8     libucrt:nlsdata.obj
 0002:000046e4       ??_C@_05HPCKOFNC@March@    000000018002b6e4     libucrt:nlsdata.obj
 0002:000046ec       ??_C@_05DMJDNLEJ@April@    000000018002b6ec     libucrt:nlsdata.obj
 0002:000046f4       ??_C@_04CNLMGBGM@June@     000000018002b6f4     libucrt:nlsdata.obj
 0002:000046fc       ??_C@_04MIEPOIFP@July@     000000018002b6fc     libucrt:nlsdata.obj
 0002:00004704       ??_C@_06LBBHFDDG@August@   000000018002b704     libucrt:nlsdata.obj
 0002:00004710       ??_C@_09BHHEALKD@September@ 000000018002b710     libucrt:nlsdata.obj
 0002:00004720       ??_C@_07JJNFCEND@October@  000000018002b720     libucrt:nlsdata.obj
 0002:00004728       ??_C@_08HCHEGEOA@November@ 000000018002b728     libucrt:nlsdata.obj
 0002:00004738       ??_C@_08EDHMEBNP@December@ 000000018002b738     libucrt:nlsdata.obj
 0002:00004744       ??_C@_02DEDBPAFC@AM@       000000018002b744     libucrt:nlsdata.obj
 0002:00004748       ??_C@_02CJNFDJBF@PM@       000000018002b748     libucrt:nlsdata.obj
 0002:00004750       ??_C@_08BPBNCDIB@MM?1dd?1yy@ 000000018002b750     libucrt:nlsdata.obj
 0002:00004760       ??_C@_0BE@CKGJFCPC@dddd?0?5MMMM?5dd?0?5yyyy@ 000000018002b760     libucrt:nlsdata.obj
 0002:00004778       ??_C@_08JCCMCCIL@HH?3mm?3ss@ 000000018002b778     libucrt:nlsdata.obj
 0002:00004788       ??_C@_17MBGCMIPB@?$AAS?$AAu?$AAn@ 000000018002b788     libucrt:nlsdata.obj
 0002:00004790       ??_C@_17KBOMKBF@?$AAM?$AAo?$AAn@ 000000018002b790     libucrt:nlsdata.obj
 0002:00004798       ??_C@_17BMKGEGOJ@?$AAT?$AAu?$AAe@ 000000018002b798     libucrt:nlsdata.obj
 0002:000047a0       ??_C@_17CJEDCEPE@?$AAW?$AAe?$AAd@ 000000018002b7a0     libucrt:nlsdata.obj
 0002:000047a8       ??_C@_17PDPHAADD@?$AAT?$AAh?$AAu@ 000000018002b7a8     libucrt:nlsdata.obj
 0002:000047b0       ??_C@_17HFOLPPLP@?$AAF?$AAr?$AAi@ 000000018002b7b0     libucrt:nlsdata.obj
 0002:000047b8       ??_C@_17GGIBDPIH@?$AAS?$AAa?$AAt@ 000000018002b7b8     libucrt:nlsdata.obj
 0002:000047c0       ??_C@_1O@IHNHDHPB@?$AAS?$AAu?$AAn?$AAd?$AAa?$AAy@ 000000018002b7c0     libucrt:nlsdata.obj
 0002:000047d0       ??_C@_1O@MMNBFLIA@?$AAM?$AAo?$AAn?$AAd?$AAa?$AAy@ 000000018002b7d0     libucrt:nlsdata.obj
 0002:000047e0       ??_C@_1BA@ENFBFFEK@?$AAT?$AAu?$AAe?$AAs?$AAd?$AAa?$AAy@ 000000018002b7e0     libucrt:nlsdata.obj
 0002:000047f0       ??_C@_1BE@EBOGMDOH@?$AAW?$AAe?$AAd?$AAn?$AAe?$AAs?$AAd?$AAa?$AAy@ 000000018002b7f0     libucrt:nlsdata.obj
 0002:00004808       ??_C@_1BC@HHMNLIHE@?$AAT?$AAh?$AAu?$AAr?$AAs?$AAd?$AAa?$AAy@ 000000018002b808     libucrt:nlsdata.obj
 0002:00004820       ??_C@_1O@PDICJHAG@?$AAF?$AAr?$AAi?$AAd?$AAa?$AAy@ 000000018002b820     libucrt:nlsdata.obj
 0002:00004830       ??_C@_1BC@ENMNNPAJ@?$AAS?$AAa?$AAt?$AAu?$AAr?$AAd?$AAa?$AAy@ 000000018002b830     libucrt:nlsdata.obj
 0002:00004848       ??_C@_17DKNBKCHM@?$AAJ?$AAa?$AAn@ 000000018002b848     libucrt:nlsdata.obj
 0002:00004850       ??_C@_17LMDJEKJN@?$AAF?$AAe?$AAb@ 000000018002b850     libucrt:nlsdata.obj
 0002:00004858       ??_C@_17CKNLEDEC@?$AAM?$AAa?$AAr@ 000000018002b858     libucrt:nlsdata.obj
 0002:00004860       ??_C@_17LFPOIHDD@?$AAA?$AAp?$AAr@ 000000018002b860     libucrt:nlsdata.obj
 0002:00004868       ??_C@_17PNNKMEED@?$AAM?$AAa?$AAy@ 000000018002b868     libucrt:nlsdata.obj
 0002:00004870       ??_C@_17KCJGOCPB@?$AAJ?$AAu?$AAn@ 000000018002b870     libucrt:nlsdata.obj
 0002:00004878       ??_C@_17IJPCKHK@?$AAJ?$AAu?$AAl@ 000000018002b878     libucrt:nlsdata.obj
 0002:00004880       ??_C@_17ICPELBCN@?$AAA?$AAu?$AAg@ 000000018002b880     libucrt:nlsdata.obj
 0002:00004888       ??_C@_17HCHCOKMG@?$AAS?$AAe?$AAp@ 000000018002b888     libucrt:nlsdata.obj
 0002:00004890       ??_C@_17FNLKOI@?$AAO?$AAc?$AAt@ 000000018002b890     libucrt:nlsdata.obj
 0002:00004898       ??_C@_17BBDMLCIG@?$AAN?$AAo?$AAv@ 000000018002b898     libucrt:nlsdata.obj
 0002:000048a0       ??_C@_17EGKACKIF@?$AAD?$AAe?$AAc@ 000000018002b8a0     libucrt:nlsdata.obj
 0002:000048a8       ??_C@_1BA@EFMEIEBA@?$AAJ?$AAa?$AAn?$AAu?$AAa?$AAr?$AAy@ 000000018002b8a8     libucrt:nlsdata.obj
 0002:000048b8       ??_C@_1BC@JGDDFFAM@?$AAF?$AAe?$AAb?$AAr?$AAu?$AAa?$AAr?$AAy@ 000000018002b8b8     libucrt:nlsdata.obj
 0002:000048d0       ??_C@_1M@IKEENEDF@?$AAM?$AAa?$AAr?$AAc?$AAh@ 000000018002b8d0     libucrt:nlsdata.obj
 0002:000048e0       ??_C@_1M@GJNLMHFD@?$AAA?$AAp?$AAr?$AAi?$AAl@ 000000018002b8e0     libucrt:nlsdata.obj
 0002:000048f0       ??_C@_19EPFLPGAP@?$AAJ?$AAu?$AAn?$AAe@ 000000018002b8f0     libucrt:nlsdata.obj
 0002:00004900       ??_C@_19BIFMLPCD@?$AAJ?$AAu?$AAl?$AAy@ 000000018002b900     libucrt:nlsdata.obj
 0002:00004910       ??_C@_1O@PAHLKOAC@?$AAA?$AAu?$AAg?$AAu?$AAs?$AAt@ 000000018002b910     libucrt:nlsdata.obj
 0002:00004920       ??_C@_1BE@DKAAMBJL@?$AAS?$AAe?$AAp?$AAt?$AAe?$AAm?$AAb?$AAe?$AAr@ 000000018002b920     libucrt:nlsdata.obj
 0002:00004938       ??_C@_1BA@EPANDLNG@?$AAO?$AAc?$AAt?$AAo?$AAb?$AAe?$AAr@ 000000018002b938     libucrt:nlsdata.obj
 0002:00004948       ??_C@_1BC@BGLIFPF@?$AAN?$AAo?$AAv?$AAe?$AAm?$AAb?$AAe?$AAr@ 000000018002b948     libucrt:nlsdata.obj
 0002:00004960       ??_C@_1BC@FEMKIFH@?$AAD?$AAe?$AAc?$AAe?$AAm?$AAb?$AAe?$AAr@ 000000018002b960     libucrt:nlsdata.obj
 0002:00004974       ??_C@_15ODEHAHHF@?$AAA?$AAM@ 000000018002b974     libucrt:nlsdata.obj
 0002:0000497c       ??_C@_15CLMNNGEL@?$AAP?$AAM@ 000000018002b97c     libucrt:nlsdata.obj
 0002:00004988       ??_C@_1BC@IEBCMHCM@?$AAM?$AAM?$AA?1?$AAd?$AAd?$AA?1?$AAy?$AAy@ 000000018002b988     libucrt:nlsdata.obj
 0002:000049a0       ??_C@_1CI@KNAKOEBC@?$AAd?$AAd?$AAd?$AAd?$AA?0?$AA?5?$AAM?$AAM?$AAM?$AAM?$AA?5?$AAd?$AAd?$AA?0?$AA?5@ 000000018002b9a0     libucrt:nlsdata.obj
 0002:000049c8       ??_C@_1BC@GDGBMEMK@?$AAH?$AAH?$AA?3?$AAm?$AAm?$AA?3?$AAs?$AAs@ 000000018002b9c8     libucrt:nlsdata.obj
 0002:000049e0       ??_C@_1M@BMHNFIME@?$AAe?$AAn?$AA?9?$AAU?$AAS@ 000000018002b9e0     libucrt:nlsdata.obj
 0002:00004a90       ??_C@_1EA@JGEFHKEI@?$AAa?$AAp?$AAi?$AA?9?$AAm?$AAs?$AA?9?$AAw?$AAi?$AAn?$AA?9?$AAc?$AAo?$AAr?$AAe@ 000000018002ba90     libucrt:winapi_thunks.obj
 0002:00004ad0       ??_C@_1DI@IJCEHOCB@?$AAa?$AAp?$AAi?$AA?9?$AAm?$AAs?$AA?9?$AAw?$AAi?$AAn?$AA?9?$AAc?$AAo?$AAr?$AAe@ 000000018002bad0     libucrt:winapi_thunks.obj
 0002:00004b10       ??_C@_1EI@MPIAOHOC@?$AAa?$AAp?$AAi?$AA?9?$AAm?$AAs?$AA?9?$AAw?$AAi?$AAn?$AA?9?$AAc?$AAo?$AAr?$AAe@ 000000018002bb10     libucrt:winapi_thunks.obj
 0002:00004b60       ??_C@_1FK@FPHCKFIE@?$AAa?$AAp?$AAi?$AA?9?$AAm?$AAs?$AA?9?$AAw?$AAi?$AAn?$AA?9?$AAc?$AAo?$AAr?$AAe@ 000000018002bb60     libucrt:winapi_thunks.obj
 0002:00004bc0       ??_C@_1EM@DILCGIIO@?$AAa?$AAp?$AAi?$AA?9?$AAm?$AAs?$AA?9?$AAw?$AAi?$AAn?$AA?9?$AAc?$AAo?$AAr?$AAe@ 000000018002bbc0     libucrt:winapi_thunks.obj
 0002:00004c10       ??_C@_1DM@LNCGDDPN@?$AAa?$AAp?$AAi?$AA?9?$AAm?$AAs?$AA?9?$AAw?$AAi?$AAn?$AA?9?$AAc?$AAo?$AAr?$AAe@ 000000018002bc10     libucrt:winapi_thunks.obj
 0002:00004c50       ??_C@_1DO@FPAPJEMD@?$AAa?$AAp?$AAi?$AA?9?$AAm?$AAs?$AA?9?$AAw?$AAi?$AAn?$AA?9?$AAc?$AAo?$AAr?$AAe@ 000000018002bc50     libucrt:winapi_thunks.obj
 0002:00004c90       ??_C@_1DK@NDHNAHIO@?$AAa?$AAp?$AAi?$AA?9?$AAm?$AAs?$AA?9?$AAw?$AAi?$AAn?$AA?9?$AAc?$AAo?$AAr?$AAe@ 000000018002bc90     libucrt:winapi_thunks.obj
 0002:00004cd0       ??_C@_1DM@KGHDGBCM@?$AAa?$AAp?$AAi?$AA?9?$AAm?$AAs?$AA?9?$AAw?$AAi?$AAn?$AA?9?$AAc?$AAo?$AAr?$AAe@ 000000018002bcd0     libucrt:winapi_thunks.obj
 0002:00004d10       ??_C@_1EO@IJIOEFOH@?$AAa?$AAp?$AAi?$AA?9?$AAm?$AAs?$AA?9?$AAw?$AAi?$AAn?$AA?9?$AAr?$AAt?$AAc?$AAo@ 000000018002bd10     libucrt:winapi_thunks.obj
 0002:00004d60       ??_C@_1FG@HHGEKANL@?$AAa?$AAp?$AAi?$AA?9?$AAm?$AAs?$AA?9?$AAw?$AAi?$AAn?$AA?9?$AAs?$AAe?$AAc?$AAu@ 000000018002bd60     libucrt:winapi_thunks.obj
 0002:00004dc0       ??_C@_1EG@DBIOJECG@?$AAe?$AAx?$AAt?$AA?9?$AAm?$AAs?$AA?9?$AAw?$AAi?$AAn?$AA?9?$AAn?$AAt?$AAu?$AAs@ 000000018002bdc0     libucrt:winapi_thunks.obj
 0002:00004e10       ??_C@_1EO@FIHMJCLF@?$AAe?$AAx?$AAt?$AA?9?$AAm?$AAs?$AA?9?$AAw?$AAi?$AAn?$AA?9?$AAn?$AAt?$AAu?$AAs@ 000000018002be10     libucrt:winapi_thunks.obj
 0002:00004e60       ??_C@_1BC@DNHGCMLG@?$AAa?$AAd?$AAv?$AAa?$AAp?$AAi?$AA3?$AA2@ 000000018002be60     libucrt:winapi_thunks.obj
 0002:00004e78       ??_C@_1M@OAIMIKLP@?$AAn?$AAt?$AAd?$AAl?$AAl@ 000000018002be78     libucrt:winapi_thunks.obj
 0002:00004e90       ??_C@_1EG@DPGNFKGC@?$AAa?$AAp?$AAi?$AA?9?$AAm?$AAs?$AA?9?$AAw?$AAi?$AAn?$AA?9?$AAa?$AAp?$AAp?$AAm@ 000000018002be90     libucrt:winapi_thunks.obj
 0002:00004ed8       ??_C@_1O@BCCLBEOE@?$AAu?$AAs?$AAe?$AAr?$AA3?$AA2@ 000000018002bed8     libucrt:winapi_thunks.obj
 0002:00004ee8       ??_C@_1BA@IAIFMGEF@?$AAe?$AAx?$AAt?$AA?9?$AAm?$AAs?$AA?9@ 000000018002bee8     libucrt:winapi_thunks.obj
 0002:00004f00       ??_C@_0BA@FHFNEAED@AreFileApisANSI@ 000000018002bf00     libucrt:winapi_thunks.obj
 0002:00004f20       ??_C@_0O@KKBNKAPF@LCMapStringEx@ 000000018002bf20     libucrt:winapi_thunks.obj
 0002:00004f38       ??_C@_0BB@HBDEELFH@LocaleNameToLCID@ 000000018002bf38     libucrt:winapi_thunks.obj
 0002:00004f50       ??_C@_0CF@OJOFEIGO@AppPolicyGetProcessTerminationM@ 000000018002bf50     libucrt:winapi_thunks.obj
 0002:00004f80       ??_C@_0BI@BKLFFAPO@SetThreadStackGuarantee@ 000000018002bf80     libucrt:winapi_thunks.obj
 0002:00005020       ??_C@_03OEIAHPBN@INF@      000000018002c020     libucrt:cvt.obj
 0002:00005024       ??_C@_03OJHLLCGB@inf@      000000018002c024     libucrt:cvt.obj
 0002:00005028       ??_C@_03LKNCIKJB@NAN@      000000018002c028     libucrt:cvt.obj
 0002:0000502c       ??_C@_03LHCJEHON@nan@      000000018002c02c     libucrt:cvt.obj
 0002:00005030       ??_C@_09OFJJIMPC@NAN?$CISNAN?$CJ@ 000000018002c030     libucrt:cvt.obj
 0002:00005040       ??_C@_09IPFBKMDL@nan?$CIsnan?$CJ@ 000000018002c040     libucrt:cvt.obj
 0002:00005050       ??_C@_08IKHNHAJ@NAN?$CIIND?$CJ@ 000000018002c050     libucrt:cvt.obj
 0002:00005060       ??_C@_08OFCDMILK@nan?$CIind?$CJ@ 000000018002c060     libucrt:cvt.obj
 0002:0000506c       ??_C@_05KLBDPFGC@e?$CL000@ 000000018002c06c     libucrt:cvt.obj
 0002:00005098       ??_C@_1M@HPNHIDJI@?$AAj?$AAa?$AA?9?$AAJ?$AAP@ 000000018002c098     libucrt:mbctype.obj
 0002:000050a8       ??_C@_1M@BIBDDEMK@?$AAz?$AAh?$AA?9?$AAC?$AAN@ 000000018002c0a8     libucrt:mbctype.obj
 0002:000050b8       ??_C@_1M@JLOOOEGK@?$AAk?$AAo?$AA?9?$AAK?$AAR@ 000000018002c0b8     libucrt:mbctype.obj
 0002:000050c8       ??_C@_1M@CLNBBOPM@?$AAz?$AAh?$AA?9?$AAT?$AAW@ 000000018002c0c8     libucrt:mbctype.obj
 0002:000050e0       __newctype                 000000018002c0e0     libucrt:ctype.obj
 0002:000053e0       __newclmap                 000000018002c3e0     libucrt:ctype.obj
 0002:00005560       __newcumap                 000000018002c560     libucrt:ctype.obj
 0002:000056e0       ??_C@_15PJPFLCCM@?$AAu?$AAk@ 000000018002c6e0     libucrt:get_qualified_locale.obj
 0002:00006530       ??_C@_15EMKDOKLE@?$AAa?$AAr@ 000000018002d530     libucrt:lcidtoname_downlevel.obj
 0002:00006538       ??_C@_15KNPADPLH@?$AAb?$AAg@ 000000018002d538     libucrt:lcidtoname_downlevel.obj
 0002:00006540       ??_C@_15EDMHLDMO@?$AAc?$AAa@ 000000018002d540     libucrt:lcidtoname_downlevel.obj
 0002:00006548       ??_C@_1O@BPEAJADD@?$AAz?$AAh?$AA?9?$AAC?$AAH?$AAS@ 000000018002d548     libucrt:lcidtoname_downlevel.obj
 0002:00006558       ??_C@_15LJNHCMNK@?$AAc?$AAs@ 000000018002d558     libucrt:lcidtoname_downlevel.obj
 0002:00006560       ??_C@_15FOMCIDHG@?$AAd?$AAa@ 000000018002d560     libucrt:lcidtoname_downlevel.obj
 0002:00006568       ??_C@_15NBKABECB@?$AAd?$AAe@ 000000018002d568     libucrt:lcidtoname_downlevel.obj
 0002:00006570       ??_C@_15GHPEIIAO@?$AAe?$AAl@ 000000018002d570     libucrt:lcidtoname_downlevel.obj
 0002:00006578       ??_C@_15MNPNEAIF@?$AAe?$AAn@ 000000018002d578     libucrt:lcidtoname_downlevel.obj
 0002:00006580       ??_C@_15GPIOMPMH@?$AAe?$AAs@ 000000018002d580     libucrt:lcidtoname_downlevel.obj
 0002:00006588       ??_C@_15NGLOAKJC@?$AAf?$AAi@ 000000018002d588     libucrt:lcidtoname_downlevel.obj
 0002:00006590       ??_C@_15FBKGNKAM@?$AAf?$AAr@ 000000018002d590     libucrt:lcidtoname_downlevel.obj
 0002:00006598       ??_C@_15KGGCNEFK@?$AAh?$AAe@ 000000018002d598     libucrt:lcidtoname_downlevel.obj
 0002:000065a0       ??_C@_15PGHLIDMF@?$AAh?$AAu@ 000000018002d5a0     libucrt:lcidtoname_downlevel.obj
 0002:000065a8       ??_C@_15BIEMAPLM@?$AAi?$AAs@ 000000018002d5a8     libucrt:lcidtoname_downlevel.obj
 0002:000065b0       ??_C@_15IFJLDHAF@?$AAi?$AAt@ 000000018002d5b0     libucrt:lcidtoname_downlevel.obj
 0002:000065b8       ??_C@_15GEMIOCAG@?$AAj?$AAa@ 000000018002d5b8     libucrt:lcidtoname_downlevel.obj
 0002:000065c0       ??_C@_15EPELEGJA@?$AAk?$AAo@ 000000018002d5c0     libucrt:lcidtoname_downlevel.obj
 0002:000065c8       ??_C@_15NDDHIMN@?$AAn?$AAl@ 000000018002d5c8     libucrt:lcidtoname_downlevel.obj
 0002:000065d0       ??_C@_15BPIGNHCD@?$AAn?$AAo@ 000000018002d5d0     libucrt:lcidtoname_downlevel.obj
 0002:000065d8       ??_C@_15DEOPBLCG@?$AAp?$AAl@ 000000018002d5d8     libucrt:lcidtoname_downlevel.obj
 0002:000065e0       ??_C@_15KBECGEFG@?$AAp?$AAt@ 000000018002d5e0     libucrt:lcidtoname_downlevel.obj
 0002:000065e8       ??_C@_15GLJCBFMD@?$AAr?$AAo@ 000000018002d5e8     libucrt:lcidtoname_downlevel.obj
 0002:000065f0       ??_C@_15FEDGKCDI@?$AAr?$AAu@ 000000018002d5f0     libucrt:lcidtoname_downlevel.obj
 0002:000065f8       ??_C@_15GLKMLLHM@?$AAh?$AAr@ 000000018002d5f8     libucrt:lcidtoname_downlevel.obj
 0002:00006600       ??_C@_15CPKMFBDB@?$AAs?$AAk@ 000000018002d600     libucrt:lcidtoname_downlevel.obj
 0002:00006608       ??_C@_15BAAIOGMK@?$AAs?$AAq@ 000000018002d608     libucrt:lcidtoname_downlevel.obj
 0002:00006610       ??_C@_15INNPNOHD@?$AAs?$AAv@ 000000018002d610     libucrt:lcidtoname_downlevel.obj
 0002:00006618       ??_C@_15CABMMOGH@?$AAt?$AAh@ 000000018002d618     libucrt:lcidtoname_downlevel.obj
 0002:00006620       ??_C@_15BPLIHJJM@?$AAt?$AAr@ 000000018002d620     libucrt:lcidtoname_downlevel.obj
 0002:00006628       ??_C@_15NEOEKKDJ@?$AAu?$AAr@ 000000018002d628     libucrt:lcidtoname_downlevel.obj
 0002:00006630       ??_C@_15NFICGAJK@?$AAi?$AAd@ 000000018002d630     libucrt:lcidtoname_downlevel.obj
 0002:00006638       ??_C@_15HPJPHDM@?$AAb?$AAe@ 000000018002d638     libucrt:lcidtoname_downlevel.obj
 0002:00006640       ??_C@_15LCHLGJII@?$AAs?$AAl@ 000000018002d640     libucrt:lcidtoname_downlevel.obj
 0002:00006648       ??_C@_15PCFJPHHO@?$AAe?$AAt@ 000000018002d648     libucrt:lcidtoname_downlevel.obj
 0002:00006650       ??_C@_15HPFPGODN@?$AAl?$AAv@ 000000018002d650     libucrt:lcidtoname_downlevel.obj
 0002:00006658       ??_C@_15NFFGKGLG@?$AAl?$AAt@ 000000018002d658     libucrt:lcidtoname_downlevel.obj
 0002:00006660       ??_C@_15BDAKCCHN@?$AAf?$AAa@ 000000018002d660     libucrt:lcidtoname_downlevel.obj
 0002:00006668       ??_C@_15NFGIAIAJ@?$AAv?$AAi@ 000000018002d668     libucrt:lcidtoname_downlevel.obj
 0002:00006670       ??_C@_15LMKNDMHN@?$AAh?$AAy@ 000000018002d670     libucrt:lcidtoname_downlevel.obj
 0002:00006678       ??_C@_15IJBHMCFL@?$AAa?$AAz@ 000000018002d678     libucrt:lcidtoname_downlevel.obj
 0002:00006680       ??_C@_15EKOFJABL@?$AAe?$AAu@ 000000018002d680     libucrt:lcidtoname_downlevel.obj
 0002:00006688       ??_C@_15BGHADCNK@?$AAm?$AAk@ 000000018002d688     libucrt:lcidtoname_downlevel.obj
 0002:00006690       ??_C@_15JDNICKHM@?$AAa?$AAf@ 000000018002d690     libucrt:lcidtoname_downlevel.obj
 0002:00006698       ??_C@_15KPJEDBKD@?$AAk?$AAa@ 000000018002d698     libucrt:lcidtoname_downlevel.obj
 0002:000066a0       ??_C@_15PDNFFFEO@?$AAf?$AAo@ 000000018002d6a0     libucrt:lcidtoname_downlevel.obj
 0002:000066a8       ??_C@_15OMLEGLOC@?$AAh?$AAi@ 000000018002d6a8     libucrt:lcidtoname_downlevel.obj
 0002:000066b0       ??_C@_15IDNNENKK@?$AAm?$AAs@ 000000018002d6b0     libucrt:lcidtoname_downlevel.obj
 0002:000066b8       ??_C@_15MACJNBMH@?$AAk?$AAk@ 000000018002d6b8     libucrt:lcidtoname_downlevel.obj
 0002:000066c0       ??_C@_15DKDJEOND@?$AAk?$AAy@ 000000018002d6c0     libucrt:lcidtoname_downlevel.obj
 0002:000066c8       ??_C@_15DFGDLJBG@?$AAs?$AAw@ 000000018002d6c8     libucrt:lcidtoname_downlevel.obj
 0002:000066d0       ??_C@_15BBFAICNG@?$AAu?$AAz@ 000000018002d6d0     libucrt:lcidtoname_downlevel.obj
 0002:000066d8       ??_C@_15DKNDCGEA@?$AAt?$AAt@ 000000018002d6d8     libucrt:lcidtoname_downlevel.obj
 0002:000066e0       ??_C@_15MGIFMDPL@?$AAp?$AAa@ 000000018002d6e0     libucrt:lcidtoname_downlevel.obj
 0002:000066e8       ??_C@_15HCNDBBA@?$AAg?$AAu@ 000000018002d6e8     libucrt:lcidtoname_downlevel.obj
 0002:000066f0       ??_C@_15FNBEIBON@?$AAt?$AAa@ 000000018002d6f0     libucrt:lcidtoname_downlevel.obj
 0002:000066f8       ??_C@_15NCHGBGLK@?$AAt?$AAe@ 000000018002d6f8     libucrt:lcidtoname_downlevel.obj
 0002:00006700       ??_C@_15PHPHCBPF@?$AAk?$AAn@ 000000018002d700     libucrt:lcidtoname_downlevel.obj
 0002:00006708       ??_C@_15DLGBCKMP@?$AAm?$AAr@ 000000018002d708     libucrt:lcidtoname_downlevel.obj
 0002:00006710       ??_C@_15EABBLBFF@?$AAs?$AAa@ 000000018002d710     libucrt:lcidtoname_downlevel.obj
 0002:00006718       ??_C@_15CBKOMCOI@?$AAm?$AAn@ 000000018002d718     libucrt:lcidtoname_downlevel.obj
 0002:00006720       ??_C@_15CKDMCJAF@?$AAg?$AAl@ 000000018002d720     libucrt:lcidtoname_downlevel.obj
 0002:00006728       ??_C@_17CNJFBPG@?$AAk?$AAo?$AAk@ 000000018002d728     libucrt:lcidtoname_downlevel.obj
 0002:00006730       ??_C@_17FFBJICPL@?$AAs?$AAy?$AAr@ 000000018002d730     libucrt:lcidtoname_downlevel.obj
 0002:00006738       ??_C@_17KPNDCPAF@?$AAd?$AAi?$AAv@ 000000018002d738     libucrt:lcidtoname_downlevel.obj
 0002:00006740       ??_C@_1M@OKAHONE@?$AAa?$AAr?$AA?9?$AAS?$AAA@ 000000018002d740     libucrt:lcidtoname_downlevel.obj
 0002:00006750       ??_C@_1M@FFFIGIGK@?$AAb?$AAg?$AA?9?$AAB?$AAG@ 000000018002d750     libucrt:lcidtoname_downlevel.obj
 0002:00006760       ??_C@_1M@BJNKEDC@?$AAc?$AAa?$AA?9?$AAE?$AAS@ 000000018002d760     libucrt:lcidtoname_downlevel.obj
 0002:00006770       ??_C@_1M@IJJHFJHA@?$AAc?$AAs?$AA?9?$AAC?$AAZ@ 000000018002d770     libucrt:lcidtoname_downlevel.obj
 0002:00006780       ??_C@_1M@CLPEOBGI@?$AAd?$AAa?$AA?9?$AAD?$AAK@ 000000018002d780     libucrt:lcidtoname_downlevel.obj
 0002:00006790       ??_C@_1M@MCMADGCB@?$AAd?$AAe?$AA?9?$AAD?$AAE@ 000000018002d790     libucrt:lcidtoname_downlevel.obj
 0002:000067a0       ??_C@_1M@OOCKEMAM@?$AAe?$AAl?$AA?9?$AAG?$AAR@ 000000018002d7a0     libucrt:lcidtoname_downlevel.obj
 0002:000067b0       ??_C@_1M@DDNJFGID@?$AAf?$AAi?$AA?9?$AAF?$AAI@ 000000018002d7b0     libucrt:lcidtoname_downlevel.obj
 0002:000067c0       ??_C@_1M@GLIPPMAC@?$AAf?$AAr?$AA?9?$AAF?$AAR@ 000000018002d7c0     libucrt:lcidtoname_downlevel.obj
 0002:000067d0       ??_C@_1M@GFMCHPE@?$AAh?$AAe?$AA?9?$AAI?$AAL@ 000000018002d7d0     libucrt:lcidtoname_downlevel.obj
 0002:000067e0       ??_C@_1M@MHLPGNKM@?$AAh?$AAu?$AA?9?$AAH?$AAU@ 000000018002d7e0     libucrt:lcidtoname_downlevel.obj
 0002:000067f0       ??_C@_1M@LPDDNNPN@?$AAi?$AAs?$AA?9?$AAI?$AAS@ 000000018002d7f0     libucrt:lcidtoname_downlevel.obj
 0002:00006800       ??_C@_1M@MADIPODN@?$AAi?$AAt?$AA?9?$AAI?$AAT@ 000000018002d800     libucrt:lcidtoname_downlevel.obj
 0002:00006810       ??_C@_1M@IHBJJGG@?$AAn?$AAl?$AA?9?$AAN?$AAL@ 000000018002d810     libucrt:lcidtoname_downlevel.obj
 0002:00006820       ??_C@_1M@EANAGDL@?$AAn?$AAb?$AA?9?$AAN?$AAO@ 000000018002d820     libucrt:lcidtoname_downlevel.obj
 0002:00006830       ??_C@_1M@NEIEMEGP@?$AAp?$AAl?$AA?9?$AAP?$AAL@ 000000018002d830     libucrt:lcidtoname_downlevel.obj
 0002:00006840       ??_C@_1M@BOCFIGEP@?$AAp?$AAt?$AA?9?$AAB?$AAR@ 000000018002d840     libucrt:lcidtoname_downlevel.obj
 0002:00006850       ??_C@_1M@IMPFOPBG@?$AAr?$AAo?$AA?9?$AAR?$AAO@ 000000018002d850     libucrt:lcidtoname_downlevel.obj
 0002:00006860       ??_C@_1M@IDNNEJMM@?$AAr?$AAu?$AA?9?$AAR?$AAU@ 000000018002d860     libucrt:lcidtoname_downlevel.obj
 0002:00006870       ??_C@_1M@LILEEOGM@?$AAh?$AAr?$AA?9?$AAH?$AAR@ 000000018002d870     libucrt:lcidtoname_downlevel.obj
 0002:00006880       ??_C@_1M@FKIFEHPB@?$AAs?$AAk?$AA?9?$AAS?$AAK@ 000000018002d880     libucrt:lcidtoname_downlevel.obj
 0002:00006890       ??_C@_1M@LJMAMNPJ@?$AAs?$AAq?$AA?9?$AAA?$AAL@ 000000018002d890     libucrt:lcidtoname_downlevel.obj
 0002:000068a0       ??_C@_1M@GIAKDKJK@?$AAs?$AAv?$AA?9?$AAS?$AAE@ 000000018002d8a0     libucrt:lcidtoname_downlevel.obj
 0002:000068b0       ??_C@_1M@MKJKIKCL@?$AAt?$AAh?$AA?9?$AAT?$AAH@ 000000018002d8b0     libucrt:lcidtoname_downlevel.obj
 0002:000068c0       ??_C@_1M@MFLCCMPB@?$AAt?$AAr?$AA?9?$AAT?$AAR@ 000000018002d8c0     libucrt:lcidtoname_downlevel.obj
 0002:000068d0       ??_C@_1M@OIJHDKJN@?$AAu?$AAr?$AA?9?$AAP?$AAK@ 000000018002d8d0     libucrt:lcidtoname_downlevel.obj
 0002:000068e0       ??_C@_1M@LHIPCIEK@?$AAi?$AAd?$AA?9?$AAI?$AAD@ 000000018002d8e0     libucrt:lcidtoname_downlevel.obj
 0002:000068f0       ??_C@_1M@MFMOBGI@?$AAu?$AAk?$AA?9?$AAU?$AAA@ 000000018002d8f0     libucrt:lcidtoname_downlevel.obj
 0002:00006900       ??_C@_1M@OBGLJIPL@?$AAb?$AAe?$AA?9?$AAB?$AAY@ 000000018002d900     libucrt:lcidtoname_downlevel.obj
 0002:00006910       ??_C@_1M@BCFAJEAD@?$AAs?$AAl?$AA?9?$AAS?$AAI@ 000000018002d910     libucrt:lcidtoname_downlevel.obj
 0002:00006920       ??_C@_1M@FKFFEDDN@?$AAe?$AAt?$AA?9?$AAE?$AAE@ 000000018002d920     libucrt:lcidtoname_downlevel.obj
 0002:00006930       ??_C@_1M@KGKKAACI@?$AAl?$AAv?$AA?9?$AAL?$AAV@ 000000018002d930     libucrt:lcidtoname_downlevel.obj
 0002:00006940       ??_C@_1M@IFGBIJO@?$AAl?$AAt?$AA?9?$AAL?$AAT@ 000000018002d940     libucrt:lcidtoname_downlevel.obj
 0002:00006950       ??_C@_1M@FGEAHEDM@?$AAf?$AAa?$AA?9?$AAI?$AAR@ 000000018002d950     libucrt:lcidtoname_downlevel.obj
 0002:00006960       ??_C@_1M@KBMAIBFN@?$AAv?$AAi?$AA?9?$AAV?$AAN@ 000000018002d960     libucrt:lcidtoname_downlevel.obj
 0002:00006970       ??_C@_1M@GPCBKDJK@?$AAh?$AAy?$AA?9?$AAA?$AAM@ 000000018002d970     libucrt:lcidtoname_downlevel.obj
 0002:00006980       ??_C@_1BG@BECMDDJB@?$AAa?$AAz?$AA?9?$AAA?$AAZ?$AA?9?$AAL?$AAa?$AAt?$AAn@ 000000018002d980     libucrt:lcidtoname_downlevel.obj
 0002:00006998       ??_C@_1M@MAOFCAEA@?$AAe?$AAu?$AA?9?$AAE?$AAS@ 000000018002d998     libucrt:lcidtoname_downlevel.obj
 0002:000069a8       ??_C@_1M@IGHABKPI@?$AAm?$AAk?$AA?9?$AAM?$AAK@ 000000018002d9a8     libucrt:lcidtoname_downlevel.obj
 0002:000069b8       ??_C@_1M@IAIGNEJG@?$AAt?$AAn?$AA?9?$AAZ?$AAA@ 000000018002d9b8     libucrt:lcidtoname_downlevel.obj
 0002:000069c8       ??_C@_1M@IIJCOJFA@?$AAx?$AAh?$AA?9?$AAZ?$AAA@ 000000018002d9c8     libucrt:lcidtoname_downlevel.obj
 0002:000069d8       ??_C@_1M@LGPJHNJH@?$AAz?$AAu?$AA?9?$AAZ?$AAA@ 000000018002d9d8     libucrt:lcidtoname_downlevel.obj
 0002:000069e8       ??_C@_1M@HOKAOIO@?$AAa?$AAf?$AA?9?$AAZ?$AAA@ 000000018002d9e8     libucrt:lcidtoname_downlevel.obj
 0002:000069f8       ??_C@_1M@DPCLHLIE@?$AAk?$AAa?$AA?9?$AAG?$AAE@ 000000018002d9f8     libucrt:lcidtoname_downlevel.obj
 0002:00006a08       ??_C@_1M@BLKMHJBI@?$AAf?$AAo?$AA?9?$AAF?$AAO@ 000000018002da08     libucrt:lcidtoname_downlevel.obj
 0002:00006a18       ??_C@_1M@LGGJAPPB@?$AAh?$AAi?$AA?9?$AAI?$AAN@ 000000018002da18     libucrt:lcidtoname_downlevel.obj
 0002:00006a28       ??_C@_1M@FIKPIHFE@?$AAm?$AAt?$AA?9?$AAM?$AAT@ 000000018002da28     libucrt:lcidtoname_downlevel.obj
 0002:00006a38       ??_C@_1M@HEGGPBFA@?$AAs?$AAe?$AA?9?$AAN?$AAO@ 000000018002da38     libucrt:lcidtoname_downlevel.obj
 0002:00006a48       ??_C@_1M@EIBJEEPA@?$AAm?$AAs?$AA?9?$AAM?$AAY@ 000000018002da48     libucrt:lcidtoname_downlevel.obj
 0002:00006a58       ??_C@_1M@FHLBGMPP@?$AAk?$AAk?$AA?9?$AAK?$AAZ@ 000000018002da58     libucrt:lcidtoname_downlevel.obj
 0002:00006a68       ??_C@_1M@NGJJLCGI@?$AAk?$AAy?$AA?9?$AAK?$AAG@ 000000018002da68     libucrt:lcidtoname_downlevel.obj
 0002:00006a78       ??_C@_1M@GIENNBFC@?$AAs?$AAw?$AA?9?$AAK?$AAE@ 000000018002da78     libucrt:lcidtoname_downlevel.obj
 0002:00006a88       ??_C@_1BG@NDGMJIMJ@?$AAu?$AAz?$AA?9?$AAU?$AAZ?$AA?9?$AAL?$AAa?$AAt?$AAn@ 000000018002da88     libucrt:lcidtoname_downlevel.obj
 0002:00006aa0       ??_C@_1M@IDCCIHBC@?$AAt?$AAt?$AA?9?$AAR?$AAU@ 000000018002daa0     libucrt:lcidtoname_downlevel.obj
 0002:00006ab0       ??_C@_1M@LOICPMOJ@?$AAb?$AAn?$AA?9?$AAI?$AAN@ 000000018002dab0     libucrt:lcidtoname_downlevel.obj
 0002:00006ac0       ??_C@_1M@KPKKNEAH@?$AAp?$AAa?$AA?9?$AAI?$AAN@ 000000018002dac0     libucrt:lcidtoname_downlevel.obj
 0002:00006ad0       ??_C@_1M@PJGPPBOG@?$AAg?$AAu?$AA?9?$AAI?$AAN@ 000000018002dad0     libucrt:lcidtoname_downlevel.obj
 0002:00006ae0       ??_C@_1M@KMKMOPHI@?$AAt?$AAa?$AA?9?$AAI?$AAN@ 000000018002dae0     libucrt:lcidtoname_downlevel.obj
 0002:00006af0       ??_C@_1M@KFEHEPAC@?$AAt?$AAe?$AA?9?$AAI?$AAN@ 000000018002daf0     libucrt:lcidtoname_downlevel.obj
 0002:00006b00       ??_C@_1M@CDCLMGHI@?$AAk?$AAn?$AA?9?$AAI?$AAN@ 000000018002db00     libucrt:lcidtoname_downlevel.obj
 0002:00006b10       ??_C@_1M@MIODLDKF@?$AAm?$AAl?$AA?9?$AAI?$AAN@ 000000018002db10     libucrt:lcidtoname_downlevel.obj
 0002:00006b20       ??_C@_1M@PBIEACPO@?$AAm?$AAr?$AA?9?$AAI?$AAN@ 000000018002db20     libucrt:lcidtoname_downlevel.obj
 0002:00006b30       ??_C@_1M@NIDEAGPH@?$AAs?$AAa?$AA?9?$AAI?$AAN@ 000000018002db30     libucrt:lcidtoname_downlevel.obj
 0002:00006b40       ??_C@_1M@FHIHCBIO@?$AAm?$AAn?$AA?9?$AAM?$AAN@ 000000018002db40     libucrt:lcidtoname_downlevel.obj
 0002:00006b50       ??_C@_1M@JAIJPENP@?$AAc?$AAy?$AA?9?$AAG?$AAB@ 000000018002db50     libucrt:lcidtoname_downlevel.obj
 0002:00006b60       ??_C@_1M@PHGFBEPN@?$AAg?$AAl?$AA?9?$AAE?$AAS@ 000000018002db60     libucrt:lcidtoname_downlevel.obj
 0002:00006b70       ??_C@_1O@KPIPDNCP@?$AAk?$AAo?$AAk?$AA?9?$AAI?$AAN@ 000000018002db70     libucrt:lcidtoname_downlevel.obj
 0002:00006b80       ??_C@_1O@KNHJLDJA@?$AAs?$AAy?$AAr?$AA?9?$AAS?$AAY@ 000000018002db80     libucrt:lcidtoname_downlevel.obj
 0002:00006b90       ??_C@_1O@MKEKBLAH@?$AAd?$AAi?$AAv?$AA?9?$AAM?$AAV@ 000000018002db90     libucrt:lcidtoname_downlevel.obj
 0002:00006ba0       ??_C@_1O@OHDCKDDF@?$AAq?$AAu?$AAz?$AA?9?$AAB?$AAO@ 000000018002dba0     libucrt:lcidtoname_downlevel.obj
 0002:00006bb0       ??_C@_1M@LEPJNLFD@?$AAn?$AAs?$AA?9?$AAZ?$AAA@ 000000018002dbb0     libucrt:lcidtoname_downlevel.obj
 0002:00006bc0       ??_C@_1M@OMLEIIJB@?$AAm?$AAi?$AA?9?$AAN?$AAZ@ 000000018002dbc0     libucrt:lcidtoname_downlevel.obj
 0002:00006bd0       ??_C@_1M@PMPEAILG@?$AAa?$AAr?$AA?9?$AAI?$AAQ@ 000000018002dbd0     libucrt:lcidtoname_downlevel.obj
 0002:00006be0       ??_C@_1M@CNKPNOEE@?$AAd?$AAe?$AA?9?$AAC?$AAH@ 000000018002dbe0     libucrt:lcidtoname_downlevel.obj
 0002:00006bf0       ??_C@_1M@LKMGMLKO@?$AAe?$AAn?$AA?9?$AAG?$AAB@ 000000018002dbf0     libucrt:lcidtoname_downlevel.obj
 0002:00006c00       ??_C@_1M@PGKJFFGL@?$AAe?$AAs?$AA?9?$AAM?$AAX@ 000000018002dc00     libucrt:lcidtoname_downlevel.obj
 0002:00006c10       ??_C@_1M@DNNANBDC@?$AAf?$AAr?$AA?9?$AAB?$AAE@ 000000018002dc10     libucrt:lcidtoname_downlevel.obj
 0002:00006c20       ??_C@_1M@HLGMDFHM@?$AAi?$AAt?$AA?9?$AAC?$AAH@ 000000018002dc20     libucrt:lcidtoname_downlevel.obj
 0002:00006c30       ??_C@_1M@CLLBGJH@?$AAn?$AAl?$AA?9?$AAB?$AAE@ 000000018002dc30     libucrt:lcidtoname_downlevel.obj
 0002:00006c40       ??_C@_1M@BODBOGLF@?$AAn?$AAn?$AA?9?$AAN?$AAO@ 000000018002dc40     libucrt:lcidtoname_downlevel.obj
 0002:00006c50       ??_C@_1M@HFFAHKAD@?$AAp?$AAt?$AA?9?$AAP?$AAT@ 000000018002dc50     libucrt:lcidtoname_downlevel.obj
 0002:00006c60       ??_C@_1BG@LNOAKHIE@?$AAs?$AAr?$AA?9?$AAS?$AAP?$AA?9?$AAL?$AAa?$AAt?$AAn@ 000000018002dc60     libucrt:lcidtoname_downlevel.obj
 0002:00006c78       ??_C@_1M@HBMHBGAK@?$AAs?$AAv?$AA?9?$AAF?$AAI@ 000000018002dc78     libucrt:lcidtoname_downlevel.obj
 0002:00006c88       ??_C@_1BG@DGCJGJBE@?$AAa?$AAz?$AA?9?$AAA?$AAZ?$AA?9?$AAC?$AAy?$AAr?$AAl@ 000000018002dc88     libucrt:lcidtoname_downlevel.obj
 0002:00006ca0       ??_C@_1M@KEJDAAHB@?$AAs?$AAe?$AA?9?$AAS?$AAE@ 000000018002dca0     libucrt:lcidtoname_downlevel.obj
 0002:00006cb0       ??_C@_1M@HEIBJJAD@?$AAm?$AAs?$AA?9?$AAB?$AAN@ 000000018002dcb0     libucrt:lcidtoname_downlevel.obj
 0002:00006cc0       ??_C@_1BG@PBGJMCEM@?$AAu?$AAz?$AA?9?$AAU?$AAZ?$AA?9?$AAC?$AAy?$AAr?$AAl@ 000000018002dcc0     libucrt:lcidtoname_downlevel.obj
 0002:00006cd8       ??_C@_1O@LAOBCMDF@?$AAq?$AAu?$AAz?$AA?9?$AAE?$AAC@ 000000018002dcd8     libucrt:lcidtoname_downlevel.obj
 0002:00006ce8       ??_C@_1M@POEEMAIO@?$AAa?$AAr?$AA?9?$AAE?$AAG@ 000000018002dce8     libucrt:lcidtoname_downlevel.obj
 0002:00006cf8       ??_C@_1M@EFAKDEDL@?$AAz?$AAh?$AA?9?$AAH?$AAK@ 000000018002dcf8     libucrt:lcidtoname_downlevel.obj
 0002:00006d08       ??_C@_1M@HKKIJHGI@?$AAd?$AAe?$AA?9?$AAA?$AAT@ 000000018002dd08     libucrt:lcidtoname_downlevel.obj
 0002:00006d18       ??_C@_1M@KBFBEHJF@?$AAe?$AAn?$AA?9?$AAA?$AAU@ 000000018002dd18     libucrt:lcidtoname_downlevel.obj
 0002:00006d28       ??_C@_1M@MNPLFAAH@?$AAe?$AAs?$AA?9?$AAE?$AAS@ 000000018002dd28     libucrt:lcidtoname_downlevel.obj
 0002:00006d38       ??_C@_1M@HJOOJFMA@?$AAf?$AAr?$AA?9?$AAC?$AAA@ 000000018002dd38     libucrt:lcidtoname_downlevel.obj
 0002:00006d48       ??_C@_1BG@JPOFPNAB@?$AAs?$AAr?$AA?9?$AAS?$AAP?$AA?9?$AAC?$AAy?$AAr?$AAl@ 000000018002dd48     libucrt:lcidtoname_downlevel.obj
 0002:00006d60       ??_C@_1M@LNFOCMOB@?$AAs?$AAe?$AA?9?$AAF?$AAI@ 000000018002dd60     libucrt:lcidtoname_downlevel.obj
 0002:00006d70       ??_C@_1O@MGJBOAMB@?$AAq?$AAu?$AAz?$AA?9?$AAP?$AAE@ 000000018002dd70     libucrt:lcidtoname_downlevel.obj
 0002:00006d80       ??_C@_1M@GJINLBOK@?$AAa?$AAr?$AA?9?$AAL?$AAY@ 000000018002dd80     libucrt:lcidtoname_downlevel.obj
 0002:00006d90       ??_C@_1M@GGMNHJNL@?$AAz?$AAh?$AA?9?$AAS?$AAG@ 000000018002dd90     libucrt:lcidtoname_downlevel.obj
 0002:00006da0       ??_C@_1M@HOIKODND@?$AAd?$AAe?$AA?9?$AAL?$AAU@ 000000018002dda0     libucrt:lcidtoname_downlevel.obj
 0002:00006db0       ??_C@_1M@DDOCCGFG@?$AAe?$AAn?$AA?9?$AAC?$AAA@ 000000018002ddb0     libucrt:lcidtoname_downlevel.obj
 0002:00006dc0       ??_C@_1M@BNOEMJLF@?$AAe?$AAs?$AA?9?$AAG?$AAT@ 000000018002ddc0     libucrt:lcidtoname_downlevel.obj
 0002:00006dd0       ??_C@_1M@EOGNKEK@?$AAf?$AAr?$AA?9?$AAC?$AAH@ 000000018002ddd0     libucrt:lcidtoname_downlevel.obj
 0002:00006de0       ??_C@_1M@FLIDJFHL@?$AAh?$AAr?$AA?9?$AAB?$AAA@ 000000018002dde0     libucrt:lcidtoname_downlevel.obj
 0002:00006df0       ??_C@_1O@FMCELNAJ@?$AAs?$AAm?$AAj?$AA?9?$AAN?$AAO@ 000000018002ddf0     libucrt:lcidtoname_downlevel.obj
 0002:00006e00       ??_C@_1M@JHGLJMGJ@?$AAa?$AAr?$AA?9?$AAD?$AAZ@ 000000018002de00     libucrt:lcidtoname_downlevel.obj
 0002:00006e10       ??_C@_1M@JKKFDCNP@?$AAz?$AAh?$AA?9?$AAM?$AAO@ 000000018002de10     libucrt:lcidtoname_downlevel.obj
 0002:00006e20       ??_C@_1M@GEEFALPE@?$AAd?$AAe?$AA?9?$AAL?$AAI@ 000000018002de20     libucrt:lcidtoname_downlevel.obj
 0002:00006e30       ??_C@_1M@IGEOFBG@?$AAe?$AAn?$AA?9?$AAN?$AAZ@ 000000018002de30     libucrt:lcidtoname_downlevel.obj
 0002:00006e40       ??_C@_1M@KDBONEHP@?$AAe?$AAs?$AA?9?$AAC?$AAR@ 000000018002de40     libucrt:lcidtoname_downlevel.obj
 0002:00006e50       ??_C@_1M@FHMDOHNN@?$AAf?$AAr?$AA?9?$AAL?$AAU@ 000000018002de50     libucrt:lcidtoname_downlevel.obj
 0002:00006e60       ??_C@_1BG@NFKKMAFG@?$AAb?$AAs?$AA?9?$AAB?$AAA?$AA?9?$AAL?$AAa?$AAt?$AAn@ 000000018002de60     libucrt:lcidtoname_downlevel.obj
 0002:00006e78       ??_C@_1O@IMNBEMCI@?$AAs?$AAm?$AAj?$AA?9?$AAS?$AAE@ 000000018002de78     libucrt:lcidtoname_downlevel.obj
 0002:00006e88       ??_C@_1M@DHHMBNDP@?$AAa?$AAr?$AA?9?$AAM?$AAA@ 000000018002de88     libucrt:lcidtoname_downlevel.obj
 0002:00006e98       ??_C@_1M@BNBLJCGH@?$AAe?$AAn?$AA?9?$AAI?$AAE@ 000000018002de98     libucrt:lcidtoname_downlevel.obj
 0002:00006ea8       ??_C@_1M@GEPAFMDL@?$AAe?$AAs?$AA?9?$AAP?$AAA@ 000000018002dea8     libucrt:lcidtoname_downlevel.obj
 0002:00006eb8       ??_C@_1M@OJONDMDL@?$AAf?$AAr?$AA?9?$AAM?$AAC@ 000000018002deb8     libucrt:lcidtoname_downlevel.obj
 0002:00006ec8       ??_C@_1BG@OBCNFJB@?$AAs?$AAr?$AA?9?$AAB?$AAA?$AA?9?$AAL?$AAa?$AAt?$AAn@ 000000018002dec8     libucrt:lcidtoname_downlevel.obj
 0002:00006ee0       ??_C@_1O@KEMEEGPO@?$AAs?$AAm?$AAa?$AA?9?$AAN?$AAO@ 000000018002dee0     libucrt:lcidtoname_downlevel.obj
 0002:00006ef0       ??_C@_1M@ELMGFODK@?$AAa?$AAr?$AA?9?$AAT?$AAN@ 000000018002def0     libucrt:lcidtoname_downlevel.obj
 0002:00006f00       ??_C@_1M@BHDLHFAF@?$AAe?$AAn?$AA?9?$AAZ?$AAA@ 000000018002df00     libucrt:lcidtoname_downlevel.obj
 0002:00006f10       ??_C@_1M@BMGIGLIF@?$AAe?$AAs?$AA?9?$AAD?$AAO@ 000000018002df10     libucrt:lcidtoname_downlevel.obj
 0002:00006f20       ??_C@_1BG@CMBHIPBE@?$AAs?$AAr?$AA?9?$AAB?$AAA?$AA?9?$AAC?$AAy?$AAr?$AAl@ 000000018002df20     libucrt:lcidtoname_downlevel.obj
 0002:00006f38       ??_C@_1O@HEDBLHNP@?$AAs?$AAm?$AAa?$AA?9?$AAS?$AAE@ 000000018002df38     libucrt:lcidtoname_downlevel.obj
 0002:00006f48       ??_C@_1M@DAGCADIM@?$AAa?$AAr?$AA?9?$AAO?$AAM@ 000000018002df48     libucrt:lcidtoname_downlevel.obj
 0002:00006f58       ??_C@_1M@FODLMICG@?$AAe?$AAn?$AA?9?$AAJ?$AAM@ 000000018002df58     libucrt:lcidtoname_downlevel.obj
 0002:00006f68       ??_C@_1M@DNMLCIHB@?$AAe?$AAs?$AA?9?$AAV?$AAE@ 000000018002df68     libucrt:lcidtoname_downlevel.obj
 0002:00006f78       ??_C@_1O@EOKHMKJK@?$AAs?$AAm?$AAs?$AA?9?$AAF?$AAI@ 000000018002df78     libucrt:lcidtoname_downlevel.obj
 0002:00006f88       ??_C@_1M@CAFJMKOF@?$AAa?$AAr?$AA?9?$AAY?$AAE@ 000000018002df88     libucrt:lcidtoname_downlevel.obj
 0002:00006f98       ??_C@_1M@CBFHIJLI@?$AAe?$AAn?$AA?9?$AAC?$AAB@ 000000018002df98     libucrt:lcidtoname_downlevel.obj
 0002:00006fa8       ??_C@_1M@BGNFLDN@?$AAe?$AAs?$AA?9?$AAC?$AAO@ 000000018002dfa8     libucrt:lcidtoname_downlevel.obj
 0002:00006fb8       ??_C@_1O@JMPHMAMC@?$AAs?$AAm?$AAn?$AA?9?$AAF?$AAI@ 000000018002dfb8     libucrt:lcidtoname_downlevel.obj
 0002:00006fc8       ??_C@_1M@JLANABKE@?$AAa?$AAr?$AA?9?$AAS?$AAY@ 000000018002dfc8     libucrt:lcidtoname_downlevel.obj
 0002:00006fd8       ??_C@_1M@HPKGCFGN@?$AAe?$AAn?$AA?9?$AAB?$AAZ@ 000000018002dfd8     libucrt:lcidtoname_downlevel.obj
 0002:00006fe8       ??_C@_1M@OLJCMLGM@?$AAe?$AAs?$AA?9?$AAP?$AAE@ 000000018002dfe8     libucrt:lcidtoname_downlevel.obj
 0002:00006ff8       ??_C@_1M@MKKGFKLE@?$AAa?$AAr?$AA?9?$AAJ?$AAO@ 000000018002dff8     libucrt:lcidtoname_downlevel.obj
 0002:00007008       ??_C@_1M@EKPGLDNI@?$AAe?$AAn?$AA?9?$AAT?$AAT@ 000000018002e008     libucrt:lcidtoname_downlevel.obj
 0002:00007018       ??_C@_1M@OONGHFHE@?$AAe?$AAs?$AA?9?$AAA?$AAR@ 000000018002e018     libucrt:lcidtoname_downlevel.obj
 0002:00007028       ??_C@_1M@OOJFGBHE@?$AAa?$AAr?$AA?9?$AAL?$AAB@ 000000018002e028     libucrt:lcidtoname_downlevel.obj
 0002:00007038       ??_C@_1M@GCEJHNEG@?$AAe?$AAn?$AA?9?$AAZ?$AAW@ 000000018002e038     libucrt:lcidtoname_downlevel.obj
 0002:00007048       ??_C@_1M@JNOCAHJI@?$AAe?$AAs?$AA?9?$AAE?$AAC@ 000000018002e048     libucrt:lcidtoname_downlevel.obj
 0002:00007058       ??_C@_1M@JEFHPGGB@?$AAa?$AAr?$AA?9?$AAK?$AAW@ 000000018002e058     libucrt:lcidtoname_downlevel.obj
 0002:00007068       ??_C@_1M@MLKIBJOJ@?$AAe?$AAn?$AA?9?$AAP?$AAH@ 000000018002e068     libucrt:lcidtoname_downlevel.obj
 0002:00007078       ??_C@_1M@BDNIPEND@?$AAe?$AAs?$AA?9?$AAC?$AAL@ 000000018002e078     libucrt:lcidtoname_downlevel.obj
 0002:00007088       ??_C@_1M@MPNMEKBD@?$AAa?$AAr?$AA?9?$AAA?$AAE@ 000000018002e088     libucrt:lcidtoname_downlevel.obj
 0002:00007098       ??_C@_1M@KBJALCPI@?$AAe?$AAs?$AA?9?$AAU?$AAY@ 000000018002e098     libucrt:lcidtoname_downlevel.obj
 0002:000070a8       ??_C@_1M@LLCCOAGA@?$AAa?$AAr?$AA?9?$AAB?$AAH@ 000000018002e0a8     libucrt:lcidtoname_downlevel.obj
 0002:000070b8       ??_C@_1M@PBFNCDEL@?$AAe?$AAs?$AA?9?$AAP?$AAY@ 000000018002e0b8     libucrt:lcidtoname_downlevel.obj
 0002:000070c8       ??_C@_1M@EDGINPNP@?$AAa?$AAr?$AA?9?$AAQ?$AAA@ 000000018002e0c8     libucrt:lcidtoname_downlevel.obj
 0002:000070d8       ??_C@_1M@MKDBIIJI@?$AAe?$AAs?$AA?9?$AAB?$AAO@ 000000018002e0d8     libucrt:lcidtoname_downlevel.obj
 0002:000070e8       ??_C@_1M@CPKKEBLD@?$AAe?$AAs?$AA?9?$AAS?$AAV@ 000000018002e0e8     libucrt:lcidtoname_downlevel.obj
 0002:000070f8       ??_C@_1M@NDBGMMJL@?$AAe?$AAs?$AA?9?$AAH?$AAN@ 000000018002e0f8     libucrt:lcidtoname_downlevel.obj
 0002:00007108       ??_C@_1M@JIJIBHDP@?$AAe?$AAs?$AA?9?$AAN?$AAI@ 000000018002e108     libucrt:lcidtoname_downlevel.obj
 0002:00007118       ??_C@_1M@CGFMKEEK@?$AAe?$AAs?$AA?9?$AAP?$AAR@ 000000018002e118     libucrt:lcidtoname_downlevel.obj
 0002:00007128       ??_C@_1O@ICJHKIIK@?$AAz?$AAh?$AA?9?$AAC?$AAH?$AAT@ 000000018002e128     libucrt:lcidtoname_downlevel.obj
 0002:00007138       ??_C@_15CLNEJCE@?$AAs?$AAr@ 000000018002e138     libucrt:lcidtoname_downlevel.obj
 0002:00007f80       ??_C@_1M@KAHEKEIG@?$AAa?$AAf?$AA?9?$AAz?$AAa@ 000000018002ef80     libucrt:lcidtoname_downlevel.obj
 0002:00007f90       ??_C@_1M@GIECOABL@?$AAa?$AAr?$AA?9?$AAa?$AAe@ 000000018002ef90     libucrt:lcidtoname_downlevel.obj
 0002:00007fa0       ??_C@_1M@BMLMEKGI@?$AAa?$AAr?$AA?9?$AAb?$AAh@ 000000018002efa0     libucrt:lcidtoname_downlevel.obj
 0002:00007fb0       ??_C@_1M@DAPFDGGB@?$AAa?$AAr?$AA?9?$AAd?$AAz@ 000000018002efb0     libucrt:lcidtoname_downlevel.obj
 0002:00007fc0       ??_C@_1M@FJNKGKIG@?$AAa?$AAr?$AA?9?$AAe?$AAg@ 000000018002efc0     libucrt:lcidtoname_downlevel.obj
 0002:00007fd0       ??_C@_1M@FLGKKCLO@?$AAa?$AAr?$AA?9?$AAi?$AAq@ 000000018002efd0     libucrt:lcidtoname_downlevel.obj
 0002:00007fe0       ??_C@_1M@GNDIPALM@?$AAa?$AAr?$AA?9?$AAj?$AAo@ 000000018002efe0     libucrt:lcidtoname_downlevel.obj
 0002:00007ff0       ??_C@_1M@DDMJFMGJ@?$AAa?$AAr?$AA?9?$AAk?$AAw@ 000000018002eff0     libucrt:lcidtoname_downlevel.obj
 0002:00008000       ??_C@_1M@EJALMLHM@?$AAa?$AAr?$AA?9?$AAl?$AAb@ 000000018002f000     libucrt:lcidtoname_downlevel.obj
 0002:00008010       ??_C@_1M@MOBDBLOC@?$AAa?$AAr?$AA?9?$AAl?$AAy@ 000000018002f010     libucrt:lcidtoname_downlevel.obj
 0002:00008020       ??_C@_1M@JAOCLHDH@?$AAa?$AAr?$AA?9?$AAm?$AAa@ 000000018002f020     libucrt:lcidtoname_downlevel.obj
 0002:00008030       ??_C@_1M@JHPMKJIE@?$AAa?$AAr?$AA?9?$AAo?$AAm@ 000000018002f030     libucrt:lcidtoname_downlevel.obj
 0002:00008040       ??_C@_1M@OEPGHFNH@?$AAa?$AAr?$AA?9?$AAq?$AAa@ 000000018002f040     libucrt:lcidtoname_downlevel.obj
 0002:00008050       ??_C@_1M@KJDONENM@?$AAa?$AAr?$AA?9?$AAs?$AAa@ 000000018002f050     libucrt:lcidtoname_downlevel.obj
 0002:00008060       ??_C@_1M@DMJDKLKM@?$AAa?$AAr?$AA?9?$AAs?$AAy@ 000000018002f060     libucrt:lcidtoname_downlevel.obj
 0002:00008070       ??_C@_1M@OMFIPEDC@?$AAa?$AAr?$AA?9?$AAt?$AAn@ 000000018002f070     libucrt:lcidtoname_downlevel.obj
 0002:00008080       ??_C@_1M@IHMHGAON@?$AAa?$AAr?$AA?9?$AAy?$AAe@ 000000018002f080     libucrt:lcidtoname_downlevel.obj
 0002:00008090       ??_C@_1BG@KDCPGJGB@?$AAa?$AAz?$AA?9?$AAa?$AAz?$AA?9?$AAc?$AAy?$AAr?$AAl@ 000000018002f090     libucrt:lcidtoname_downlevel.obj
 0002:000080a8       ??_C@_1BG@IBCKDDOE@?$AAa?$AAz?$AA?9?$AAa?$AAz?$AA?9?$AAl?$AAa?$AAt?$AAn@ 000000018002f0a8     libucrt:lcidtoname_downlevel.obj
 0002:000080c0       ??_C@_1M@EGPFDCPD@?$AAb?$AAe?$AA?9?$AAb?$AAy@ 000000018002f0c0     libucrt:lcidtoname_downlevel.obj
 0002:000080d0       ??_C@_1M@PCMGMCGC@?$AAb?$AAg?$AA?9?$AAb?$AAg@ 000000018002f0d0     libucrt:lcidtoname_downlevel.obj
 0002:000080e0       ??_C@_1M@BJBMFGOB@?$AAb?$AAn?$AA?9?$AAi?$AAn@ 000000018002f0e0     libucrt:lcidtoname_downlevel.obj
 0002:000080f0       ??_C@_1BG@EAKMMACD@?$AAb?$AAs?$AA?9?$AAb?$AAa?$AA?9?$AAl?$AAa?$AAt?$AAn@ 000000018002f0f0     libucrt:lcidtoname_downlevel.obj
 0002:00008108       ??_C@_1M@KGADAODK@?$AAc?$AAa?$AA?9?$AAe?$AAs@ 000000018002f108     libucrt:lcidtoname_downlevel.obj
 0002:00008118       ??_C@_1M@COAJPDHI@?$AAc?$AAs?$AA?9?$AAc?$AAz@ 000000018002f118     libucrt:lcidtoname_downlevel.obj
 0002:00008128       ??_C@_1M@DHBHFONH@?$AAc?$AAy?$AA?9?$AAg?$AAb@ 000000018002f128     libucrt:lcidtoname_downlevel.obj
 0002:00008138       ??_C@_1M@IMGKELGA@?$AAd?$AAa?$AA?9?$AAd?$AAk@ 000000018002f138     libucrt:lcidtoname_downlevel.obj
 0002:00008148       ??_C@_1M@NNDGDNGA@?$AAd?$AAe?$AA?9?$AAa?$AAt@ 000000018002f148     libucrt:lcidtoname_downlevel.obj
 0002:00008158       ??_C@_1M@IKDBHEEM@?$AAd?$AAe?$AA?9?$AAc?$AAh@ 000000018002f158     libucrt:lcidtoname_downlevel.obj
 0002:00008168       ??_C@_1M@GFFOJMCJ@?$AAd?$AAe?$AA?9?$AAd?$AAe@ 000000018002f168     libucrt:lcidtoname_downlevel.obj
 0002:00008178       ??_C@_1M@MDNLKBPM@?$AAd?$AAe?$AA?9?$AAl?$AAi@ 000000018002f178     libucrt:lcidtoname_downlevel.obj
 0002:00008188       ??_C@_1M@NJBEEJNL@?$AAd?$AAe?$AA?9?$AAl?$AAu@ 000000018002f188     libucrt:lcidtoname_downlevel.obj
 0002:00008198       ??_C@_1O@GNNELBAP@?$AAd?$AAi?$AAv?$AA?9?$AAm?$AAv@ 000000018002f198     libucrt:lcidtoname_downlevel.obj
 0002:000081a8       ??_C@_1M@EJLEOGAE@?$AAe?$AAl?$AA?9?$AAg?$AAr@ 000000018002f1a8     libucrt:lcidtoname_downlevel.obj
 0002:000081b8       ??_C@_1M@GMPONJN@?$AAe?$AAn?$AA?9?$AAa?$AAu@ 000000018002f1b8     libucrt:lcidtoname_downlevel.obj
 0002:000081c8       ??_C@_1M@NIDIIPGF@?$AAe?$AAn?$AA?9?$AAb?$AAz@ 000000018002f1c8     libucrt:lcidtoname_downlevel.obj
 0002:000081d8       ??_C@_1M@JEHMIMFO@?$AAe?$AAn?$AA?9?$AAc?$AAa@ 000000018002f1d8     libucrt:lcidtoname_downlevel.obj
 0002:000081e8       ??_C@_1M@IGMJCDLA@?$AAe?$AAn?$AA?9?$AAc?$AAb@ 000000018002f1e8     libucrt:lcidtoname_downlevel.obj
 0002:000081f8       ??_C@_1M@BNFIGBKG@?$AAe?$AAn?$AA?9?$AAg?$AAb@ 000000018002f1f8     libucrt:lcidtoname_downlevel.obj
 0002:00008208       ??_C@_1M@LKIFDIGP@?$AAe?$AAn?$AA?9?$AAi?$AAe@ 000000018002f208     libucrt:lcidtoname_downlevel.obj
 0002:00008218       ??_C@_1M@PJKFGCCO@?$AAe?$AAn?$AA?9?$AAj?$AAm@ 000000018002f218     libucrt:lcidtoname_downlevel.obj
 0002:00008228       ??_C@_1M@KPPKEPBO@?$AAe?$AAn?$AA?9?$AAn?$AAz@ 000000018002f228     libucrt:lcidtoname_downlevel.obj
 0002:00008238       ??_C@_1M@GMDGLDOB@?$AAe?$AAn?$AA?9?$AAp?$AAh@ 000000018002f238     libucrt:lcidtoname_downlevel.obj
 0002:00008248       ??_C@_1M@ONGIBJNA@?$AAe?$AAn?$AA?9?$AAt?$AAt@ 000000018002f248     libucrt:lcidtoname_downlevel.obj
 0002:00008258       ??_C@_1M@LLODPCMM@?$AAe?$AAn?$AA?9?$AAu?$AAs@ 000000018002f258     libucrt:lcidtoname_downlevel.obj
 0002:00008268       ??_C@_1M@LAKFNPAN@?$AAe?$AAn?$AA?9?$AAz?$AAa@ 000000018002f268     libucrt:lcidtoname_downlevel.obj
 0002:00008278       ??_C@_1M@MFNHNHEO@?$AAe?$AAn?$AA?9?$AAz?$AAw@ 000000018002f278     libucrt:lcidtoname_downlevel.obj
 0002:00008288       ??_C@_1M@EJEINPHM@?$AAe?$AAs?$AA?9?$AAa?$AAr@ 000000018002f288     libucrt:lcidtoname_downlevel.obj
 0002:00008298       ??_C@_1M@GNKPCCJA@?$AAe?$AAs?$AA?9?$AAb?$AAo@ 000000018002f298     libucrt:lcidtoname_downlevel.obj
 0002:000082a8       ??_C@_1M@LEEGFONL@?$AAe?$AAs?$AA?9?$AAc?$AAl@ 000000018002f2a8     libucrt:lcidtoname_downlevel.obj
 0002:000082b8       ??_C@_1M@KGPDPBDF@?$AAe?$AAs?$AA?9?$AAc?$AAo@ 000000018002f2b8     libucrt:lcidtoname_downlevel.obj
 0002:000082c8       ??_C@_1M@EIAHOHH@?$AAe?$AAs?$AA?9?$AAc?$AAr@ 000000018002f2c8     libucrt:lcidtoname_downlevel.obj
 0002:000082d8       ??_C@_1M@LLPGMBIN@?$AAe?$AAs?$AA?9?$AAd?$AAo@ 000000018002f2d8     libucrt:lcidtoname_downlevel.obj
 0002:000082e8       ??_C@_1M@DKHMKNJA@?$AAe?$AAs?$AA?9?$AAe?$AAc@ 000000018002f2e8     libucrt:lcidtoname_downlevel.obj
 0002:000082f8       ??_C@_1M@GKGFPKAP@?$AAe?$AAs?$AA?9?$AAe?$AAs@ 000000018002f2f8     libucrt:lcidtoname_downlevel.obj
 0002:00008308       ??_C@_1M@LKHKGDLN@?$AAe?$AAs?$AA?9?$AAg?$AAt@ 000000018002f308     libucrt:lcidtoname_downlevel.obj
 0002:00008318       ??_C@_1M@HEIIGGJD@?$AAe?$AAs?$AA?9?$AAh?$AAn@ 000000018002f318     libucrt:lcidtoname_downlevel.obj
 0002:00008328       ??_C@_1M@FBDHPPGD@?$AAe?$AAs?$AA?9?$AAm?$AAx@ 000000018002f328     libucrt:lcidtoname_downlevel.obj
 0002:00008338       ??_C@_1M@DPAGLNDH@?$AAe?$AAs?$AA?9?$AAn?$AAi@ 000000018002f338     libucrt:lcidtoname_downlevel.obj
 0002:00008348       ??_C@_1M@MDGOPGDD@?$AAe?$AAs?$AA?9?$AAp?$AAa@ 000000018002f348     libucrt:lcidtoname_downlevel.obj
 0002:00008358       ??_C@_1M@EMAMGBGE@?$AAe?$AAs?$AA?9?$AAp?$AAe@ 000000018002f358     libucrt:lcidtoname_downlevel.obj
 0002:00008368       ??_C@_1M@IBMCAOEC@?$AAe?$AAs?$AA?9?$AAp?$AAr@ 000000018002f368     libucrt:lcidtoname_downlevel.obj
 0002:00008378       ??_C@_1M@FGMDIJED@?$AAe?$AAs?$AA?9?$AAp?$AAy@ 000000018002f378     libucrt:lcidtoname_downlevel.obj
 0002:00008388       ??_C@_1M@IIDEOLLL@?$AAe?$AAs?$AA?9?$AAs?$AAv@ 000000018002f388     libucrt:lcidtoname_downlevel.obj
 0002:00008398       ??_C@_1M@GAOBIPA@?$AAe?$AAs?$AA?9?$AAu?$AAy@ 000000018002f398     libucrt:lcidtoname_downlevel.obj
 0002:000083a8       ??_C@_1M@JKFFICHJ@?$AAe?$AAs?$AA?9?$AAv?$AAe@ 000000018002f3a8     libucrt:lcidtoname_downlevel.obj
 0002:000083b8       ??_C@_1M@PNMLOJDF@?$AAe?$AAt?$AA?9?$AAe?$AAe@ 000000018002f3b8     libucrt:lcidtoname_downlevel.obj
 0002:000083c8       ??_C@_1M@GHHLIKEI@?$AAe?$AAu?$AA?9?$AAe?$AAs@ 000000018002f3c8     libucrt:lcidtoname_downlevel.obj
 0002:000083d8       ??_C@_1M@PBNONODE@?$AAf?$AAa?$AA?9?$AAi?$AAr@ 000000018002f3d8     libucrt:lcidtoname_downlevel.obj
 0002:000083e8       ??_C@_1M@JEEHPMIL@?$AAf?$AAi?$AA?9?$AAf?$AAi@ 000000018002f3e8     libucrt:lcidtoname_downlevel.obj
 0002:000083f8       ??_C@_1M@LMDCNDBA@?$AAf?$AAo?$AA?9?$AAf?$AAo@ 000000018002f3f8     libucrt:lcidtoname_downlevel.obj
 0002:00008408       ??_C@_1M@JKEOHLDK@?$AAf?$AAr?$AA?9?$AAb?$AAe@ 000000018002f408     libucrt:lcidtoname_downlevel.obj
 0002:00008418       ??_C@_1M@NOHADPMI@?$AAf?$AAr?$AA?9?$AAc?$AAa@ 000000018002f418     libucrt:lcidtoname_downlevel.obj
 0002:00008428       ??_C@_1M@KDHIHAEC@?$AAf?$AAr?$AA?9?$AAc?$AAh@ 000000018002f428     libucrt:lcidtoname_downlevel.obj
 0002:00008438       ??_C@_1M@MMBBFGAK@?$AAf?$AAr?$AA?9?$AAf?$AAr@ 000000018002f438     libucrt:lcidtoname_downlevel.obj
 0002:00008448       ??_C@_1M@PAFNENNF@?$AAf?$AAr?$AA?9?$AAl?$AAu@ 000000018002f448     libucrt:lcidtoname_downlevel.obj
 0002:00008458       ??_C@_1M@EOHDJGDD@?$AAf?$AAr?$AA?9?$AAm?$AAc@ 000000018002f458     libucrt:lcidtoname_downlevel.obj
 0002:00008468       ??_C@_1M@FAPLLOPF@?$AAg?$AAl?$AA?9?$AAe?$AAs@ 000000018002f468     libucrt:lcidtoname_downlevel.obj
 0002:00008478       ??_C@_1M@FOPBFLOO@?$AAg?$AAu?$AA?9?$AAi?$AAn@ 000000018002f478     libucrt:lcidtoname_downlevel.obj
 0002:00008488       ??_C@_1M@KBMCINPM@?$AAh?$AAe?$AA?9?$AAi?$AAl@ 000000018002f488     libucrt:lcidtoname_downlevel.obj
 0002:00008498       ??_C@_1M@BBPHKFPJ@?$AAh?$AAi?$AA?9?$AAi?$AAn@ 000000018002f498     libucrt:lcidtoname_downlevel.obj
 0002:000084a8       ??_C@_1M@PMBNDPHD@?$AAh?$AAr?$AA?9?$AAb?$AAa@ 000000018002f4a8     libucrt:lcidtoname_downlevel.obj
 0002:000084b8       ??_C@_1M@BPCKOEGE@?$AAh?$AAr?$AA?9?$AAh?$AAr@ 000000018002f4b8     libucrt:lcidtoname_downlevel.obj
 0002:000084c8       ??_C@_1M@GACBMHKE@?$AAh?$AAu?$AA?9?$AAh?$AAu@ 000000018002f4c8     libucrt:lcidtoname_downlevel.obj
 0002:000084d8       ??_C@_1M@MILPAJJC@?$AAh?$AAy?$AA?9?$AAa?$AAm@ 000000018002f4d8     libucrt:lcidtoname_downlevel.obj
 0002:000084e8       ??_C@_1M@BABBICEC@?$AAi?$AAd?$AA?9?$AAi?$AAd@ 000000018002f4e8     libucrt:lcidtoname_downlevel.obj
 0002:000084f8       ??_C@_1M@BIKNHHPF@?$AAi?$AAs?$AA?9?$AAi?$AAs@ 000000018002f4f8     libucrt:lcidtoname_downlevel.obj
 0002:00008508       ??_C@_1M@NMPCJPHE@?$AAi?$AAt?$AA?9?$AAc?$AAh@ 000000018002f508     libucrt:lcidtoname_downlevel.obj
 0002:00008518       ??_C@_1M@GHKGFEDF@?$AAi?$AAt?$AA?9?$AAi?$AAt@ 000000018002f518     libucrt:lcidtoname_downlevel.obj
 0002:00008528       ??_C@_1M@NIEJCJJA@?$AAj?$AAa?$AA?9?$AAj?$AAp@ 000000018002f528     libucrt:lcidtoname_downlevel.obj
 0002:00008538       ??_C@_1M@JILFNBIM@?$AAk?$AAa?$AA?9?$AAg?$AAe@ 000000018002f538     libucrt:lcidtoname_downlevel.obj
 0002:00008548       ??_C@_1M@PACPMGPH@?$AAk?$AAk?$AA?9?$AAk?$AAz@ 000000018002f548     libucrt:lcidtoname_downlevel.obj
 0002:00008558       ??_C@_1M@IELFGMHA@?$AAk?$AAn?$AA?9?$AAi?$AAn@ 000000018002f558     libucrt:lcidtoname_downlevel.obj
 0002:00008568       ??_C@_1O@IBBJHCH@?$AAk?$AAo?$AAk?$AA?9?$AAi?$AAn@ 000000018002f568     libucrt:lcidtoname_downlevel.obj
 0002:00008578       ??_C@_1M@DMHAEOGC@?$AAk?$AAo?$AA?9?$AAk?$AAr@ 000000018002f578     libucrt:lcidtoname_downlevel.obj
 0002:00008588       ??_C@_1M@HBAHBIGA@?$AAk?$AAy?$AA?9?$AAk?$AAg@ 000000018002f588     libucrt:lcidtoname_downlevel.obj
 0002:00008598       ??_C@_1M@KPMILCJG@?$AAl?$AAt?$AA?9?$AAl?$AAt@ 000000018002f598     libucrt:lcidtoname_downlevel.obj
 0002:000085a8       ??_C@_1M@BDEKKCA@?$AAl?$AAv?$AA?9?$AAl?$AAv@ 000000018002f5a8     libucrt:lcidtoname_downlevel.obj
 0002:000085b8       ??_C@_1M@ELCKCCJJ@?$AAm?$AAi?$AA?9?$AAn?$AAz@ 000000018002f5b8     libucrt:lcidtoname_downlevel.obj
 0002:000085c8       ??_C@_1M@CBOOLAPA@?$AAm?$AAk?$AA?9?$AAm?$AAk@ 000000018002f5c8     libucrt:lcidtoname_downlevel.obj
 0002:000085d8       ??_C@_1M@GPHNBJKN@?$AAm?$AAl?$AA?9?$AAi?$AAn@ 000000018002f5d8     libucrt:lcidtoname_downlevel.obj
 0002:000085e8       ??_C@_1M@PABJILIG@?$AAm?$AAn?$AA?9?$AAm?$AAn@ 000000018002f5e8     libucrt:lcidtoname_downlevel.obj
 0002:000085f8       ??_C@_1M@FGBKKIPG@?$AAm?$AAr?$AA?9?$AAi?$AAn@ 000000018002f5f8     libucrt:lcidtoname_downlevel.obj
 0002:00008608       ??_C@_1M@NDBPDDAL@?$AAm?$AAs?$AA?9?$AAb?$AAn@ 000000018002f608     libucrt:lcidtoname_downlevel.obj
 0002:00008618       ??_C@_1M@OPIHOOPI@?$AAm?$AAs?$AA?9?$AAm?$AAy@ 000000018002f618     libucrt:lcidtoname_downlevel.obj
 0002:00008628       ??_C@_1M@PPDBCNFM@?$AAm?$AAt?$AA?9?$AAm?$AAt@ 000000018002f628     libucrt:lcidtoname_downlevel.obj
 0002:00008638       ??_C@_1M@KDJDKMDD@?$AAn?$AAb?$AA?9?$AAn?$AAo@ 000000018002f638     libucrt:lcidtoname_downlevel.obj
 0002:00008648       ??_C@_1M@KFCFLMJP@?$AAn?$AAl?$AA?9?$AAb?$AAe@ 000000018002f648     libucrt:lcidtoname_downlevel.obj
 0002:00008658       ??_C@_1M@KPOPDDGO@?$AAn?$AAl?$AA?9?$AAn?$AAl@ 000000018002f658     libucrt:lcidtoname_downlevel.obj
 0002:00008668       ??_C@_1M@LJKPEMLN@?$AAn?$AAn?$AA?9?$AAn?$AAo@ 000000018002f668     libucrt:lcidtoname_downlevel.obj
 0002:00008678       ??_C@_1M@BDGHHBFL@?$AAn?$AAs?$AA?9?$AAz?$AAa@ 000000018002f678     libucrt:lcidtoname_downlevel.obj
 0002:00008688       ??_C@_1M@IDEHOAP@?$AAp?$AAa?$AA?9?$AAi?$AAn@ 000000018002f688     libucrt:lcidtoname_downlevel.obj
 0002:00008698       ??_C@_1M@HDBKGOGH@?$AAp?$AAl?$AA?9?$AAp?$AAl@ 000000018002f698     libucrt:lcidtoname_downlevel.obj
 0002:000086a8       ??_C@_1M@LJLLCMEH@?$AAp?$AAt?$AA?9?$AAb?$AAr@ 000000018002f6a8     libucrt:lcidtoname_downlevel.obj
 0002:000086b8       ??_C@_1M@NCMONAAL@?$AAp?$AAt?$AA?9?$AAp?$AAt@ 000000018002f6b8     libucrt:lcidtoname_downlevel.obj
 0002:000086c8       ??_C@_1O@EAKMAJDN@?$AAq?$AAu?$AAz?$AA?9?$AAb?$AAo@ 000000018002f6c8     libucrt:lcidtoname_downlevel.obj
 0002:000086d8       ??_C@_1O@BHHPIGDN@?$AAq?$AAu?$AAz?$AA?9?$AAe?$AAc@ 000000018002f6d8     libucrt:lcidtoname_downlevel.obj
 0002:000086e8       ??_C@_1O@GBAPEKMJ@?$AAq?$AAu?$AAz?$AA?9?$AAp?$AAe@ 000000018002f6e8     libucrt:lcidtoname_downlevel.obj
 0002:000086f8       ??_C@_1M@CLGLEFBO@?$AAr?$AAo?$AA?9?$AAr?$AAo@ 000000018002f6f8     libucrt:lcidtoname_downlevel.obj
 0002:00008708       ??_C@_1M@CEEDODME@?$AAr?$AAu?$AA?9?$AAr?$AAu@ 000000018002f708     libucrt:lcidtoname_downlevel.obj
 0002:00008718       ??_C@_1M@HPKKKMPP@?$AAs?$AAa?$AA?9?$AAi?$AAn@ 000000018002f718     libucrt:lcidtoname_downlevel.obj
 0002:00008728       ??_C@_1M@BKMAIGOJ@?$AAs?$AAe?$AA?9?$AAf?$AAi@ 000000018002f728     libucrt:lcidtoname_downlevel.obj
 0002:00008738       ??_C@_1M@NDPIFLFI@?$AAs?$AAe?$AA?9?$AAn?$AAo@ 000000018002f738     libucrt:lcidtoname_downlevel.obj
 0002:00008748       ??_C@_1M@DANKKHJ@?$AAs?$AAe?$AA?9?$AAs?$AAe@ 000000018002f748     libucrt:lcidtoname_downlevel.obj
 0002:00008758       ??_C@_1M@PNBLONPJ@?$AAs?$AAk?$AA?9?$AAs?$AAk@ 000000018002f758     libucrt:lcidtoname_downlevel.obj
 0002:00008768       ??_C@_1M@LFMODOAL@?$AAs?$AAl?$AA?9?$AAs?$AAi@ 000000018002f768     libucrt:lcidtoname_downlevel.obj
 0002:00008778       ??_C@_1O@DFKOMPG@?$AAs?$AAm?$AAa?$AA?9?$AAn?$AAo@ 000000018002f778     libucrt:lcidtoname_downlevel.obj
 0002:00008788       ??_C@_1O@NDKPBNNH@?$AAs?$AAm?$AAa?$AA?9?$AAs?$AAe@ 000000018002f788     libucrt:lcidtoname_downlevel.obj
 0002:00008798       ??_C@_1O@PLLKBHAB@?$AAs?$AAm?$AAj?$AA?9?$AAn?$AAo@ 000000018002f798     libucrt:lcidtoname_downlevel.obj
 0002:000087a8       ??_C@_1O@CLEPOGCA@?$AAs?$AAm?$AAj?$AA?9?$AAs?$AAe@ 000000018002f7a8     libucrt:lcidtoname_downlevel.obj
 0002:000087b8       ??_C@_1O@DLGJGKMK@?$AAs?$AAm?$AAn?$AA?9?$AAf?$AAi@ 000000018002f7b8     libucrt:lcidtoname_downlevel.obj
 0002:000087c8       ??_C@_1O@OJDJGAJC@?$AAs?$AAm?$AAs?$AA?9?$AAf?$AAi@ 000000018002f7c8     libucrt:lcidtoname_downlevel.obj
 0002:000087d8       ??_C@_1M@BOFOGHPB@?$AAs?$AAq?$AA?9?$AAa?$AAl@ 000000018002f7d8     libucrt:lcidtoname_downlevel.obj
 0002:000087e8       ??_C@_1BG@LJBBIPGB@?$AAs?$AAr?$AA?9?$AAb?$AAa?$AA?9?$AAc?$AAy?$AAr?$AAl@ 000000018002f7e8     libucrt:lcidtoname_downlevel.obj
 0002:00008800       ??_C@_1BG@JLBENFOE@?$AAs?$AAr?$AA?9?$AAb?$AAa?$AA?9?$AAl?$AAa?$AAt?$AAn@ 000000018002f800     libucrt:lcidtoname_downlevel.obj
 0002:00008818       ??_C@_1BG@KODPNHE@?$AAs?$AAr?$AA?9?$AAs?$AAp?$AA?9?$AAc?$AAy?$AAr?$AAl@ 000000018002f818     libucrt:lcidtoname_downlevel.obj
 0002:00008830       ??_C@_1BG@CIOGKHPB@?$AAs?$AAr?$AA?9?$AAs?$AAp?$AA?9?$AAl?$AAa?$AAt?$AAn@ 000000018002f830     libucrt:lcidtoname_downlevel.obj
 0002:00008848       ??_C@_1M@NGFJLMAC@?$AAs?$AAv?$AA?9?$AAf?$AAi@ 000000018002f848     libucrt:lcidtoname_downlevel.obj
 0002:00008858       ??_C@_1M@MPJEJAJC@?$AAs?$AAv?$AA?9?$AAs?$AAe@ 000000018002f858     libucrt:lcidtoname_downlevel.obj
 0002:00008868       ??_C@_1M@MPNDHLFK@?$AAs?$AAw?$AA?9?$AAk?$AAe@ 000000018002f868     libucrt:lcidtoname_downlevel.obj
 0002:00008878       ??_C@_1O@KOHBJJI@?$AAs?$AAy?$AAr?$AA?9?$AAs?$AAy@ 000000018002f878     libucrt:lcidtoname_downlevel.obj
 0002:00008888       ??_C@_1M@LDCEFHA@?$AAt?$AAa?$AA?9?$AAi?$AAn@ 000000018002f888     libucrt:lcidtoname_downlevel.obj
 0002:00008898       ??_C@_1M@CNJOFAK@?$AAt?$AAe?$AA?9?$AAi?$AAn@ 000000018002f898     libucrt:lcidtoname_downlevel.obj
 0002:000088a8       ??_C@_1M@GNAECACD@?$AAt?$AAh?$AA?9?$AAt?$AAh@ 000000018002f8a8     libucrt:lcidtoname_downlevel.obj
 0002:000088b8       ??_C@_1M@CHBIHOJO@?$AAt?$AAn?$AA?9?$AAz?$AAa@ 000000018002f8b8     libucrt:lcidtoname_downlevel.obj
 0002:000088c8       ??_C@_1M@GCCMIGPJ@?$AAt?$AAr?$AA?9?$AAt?$AAr@ 000000018002f8c8     libucrt:lcidtoname_downlevel.obj
 0002:000088d8       ??_C@_1M@CELMCNBK@?$AAt?$AAt?$AA?9?$AAr?$AAu@ 000000018002f8d8     libucrt:lcidtoname_downlevel.obj
 0002:000088e8       ??_C@_1M@KLMCELGA@?$AAu?$AAk?$AA?9?$AAu?$AAa@ 000000018002f8e8     libucrt:lcidtoname_downlevel.obj
 0002:000088f8       ??_C@_1M@EPAJJAJF@?$AAu?$AAr?$AA?9?$AAp?$AAk@ 000000018002f8f8     libucrt:lcidtoname_downlevel.obj
 0002:00008908       ??_C@_1BG@GEGPMCDJ@?$AAu?$AAz?$AA?9?$AAu?$AAz?$AA?9?$AAc?$AAy?$AAr?$AAl@ 000000018002f908     libucrt:lcidtoname_downlevel.obj
 0002:00008920       ??_C@_1BG@EGGKJILM@?$AAu?$AAz?$AA?9?$AAu?$AAz?$AA?9?$AAl?$AAa?$AAt?$AAn@ 000000018002f920     libucrt:lcidtoname_downlevel.obj
 0002:00008938       ??_C@_1M@GFOCLFF@?$AAv?$AAi?$AA?9?$AAv?$AAn@ 000000018002f938     libucrt:lcidtoname_downlevel.obj
 0002:00008948       ??_C@_1M@CPAMEDFI@?$AAx?$AAh?$AA?9?$AAz?$AAa@ 000000018002f948     libucrt:lcidtoname_downlevel.obj
 0002:00008958       ??_C@_1O@EBKIFIGN@?$AAz?$AAh?$AA?9?$AAc?$AAh?$AAs@ 000000018002f958     libucrt:lcidtoname_downlevel.obj
 0002:00008968       ??_C@_1O@NMHPGANE@?$AAz?$AAh?$AA?9?$AAc?$AAh?$AAt@ 000000018002f968     libucrt:lcidtoname_downlevel.obj
 0002:00008978       ??_C@_1M@LPINJOMC@?$AAz?$AAh?$AA?9?$AAc?$AAn@ 000000018002f978     libucrt:lcidtoname_downlevel.obj
 0002:00008988       ??_C@_1M@OCJEJODD@?$AAz?$AAh?$AA?9?$AAh?$AAk@ 000000018002f988     libucrt:lcidtoname_downlevel.obj
 0002:00008998       ??_C@_1M@DNDLJINH@?$AAz?$AAh?$AA?9?$AAm?$AAo@ 000000018002f998     libucrt:lcidtoname_downlevel.obj
 0002:000089a8       ??_C@_1M@MBFDNDND@?$AAz?$AAh?$AA?9?$AAs?$AAg@ 000000018002f9a8     libucrt:lcidtoname_downlevel.obj
 0002:000089b8       ??_C@_1M@IMEPLEPE@?$AAz?$AAh?$AA?9?$AAt?$AAw@ 000000018002f9b8     libucrt:lcidtoname_downlevel.obj
 0002:000089c8       ??_C@_1M@BBGHNHJP@?$AAz?$AAu?$AA?9?$AAz?$AAa@ 000000018002f9c8     libucrt:lcidtoname_downlevel.obj
 0002:000089e0       ?large_power_data@?1??multiply_by_power_of_ten@__crt_strtox@@YA_NAEAUbig_integer@2@I@Z@4QBIB 000000018002f9e0     libucrt:cfout.obj
 0002:000092f0       ?large_power_indices@?1??multiply_by_power_of_ten@__crt_strtox@@YA_NAEAUbig_integer@2@I@Z@4QBUunpack_index@?1??12@YA_N0I@Z@B 00000001800302f0     libucrt:cfout.obj
 0002:00009388       ?small_powers_of_ten@?1??multiply_by_power_of_ten@__crt_strtox@@YA_NAEAUbig_integer@2@I@Z@4QBIB 0000000180030388     libucrt:cfout.obj
 0002:000093ac       ??_C@_01GBGANLPD@0@        00000001800303ac     libucrt:cfout.obj
 0002:000093b0       ??_C@_05DNEBIAHO@1?$CDINF@ 00000001800303b0     libucrt:cfout.obj
 0002:000093b8       ??_C@_06IMKFLFPG@1?$CDQNAN@ 00000001800303b8     libucrt:cfout.obj
 0002:000093c0       ??_C@_06PGGFOGJG@1?$CDSNAN@ 00000001800303c0     libucrt:cfout.obj
 0002:000093c8       ??_C@_05PHHOCPM@1?$CDIND@  00000001800303c8     libucrt:cfout.obj
 0002:000093f8       __real@3ff0000000000000    00000001800303f8     libucrt:ceil.obj
 0002:00009650       __log10_256_lead           0000000180030650     libucrt:log10_256_lead_tail_table.obj
 0002:00009e60       __log10_256_tail           0000000180030e60     libucrt:log10_256_lead_tail_table.obj
 0002:0000a670       __log_F_inv_qword          0000000180031670     libucrt:log_f_inv_qword_table.obj
 0002:0000ae80       ??_C@_05HGHHAHAP@log10@    0000000180031e80     libucrt:log_special.obj
 0002:0000ae88       ??_C@_1BA@BALFACEM@?$AAC?$AAO?$AAN?$AAO?$AAU?$AAT?$AA$@ 0000000180031e88     libucrt:initcon.obj
 0002:0000af10       _load_config_used          0000000180031f10     LIBCMT:loadcfg.obj
 0002:0000b080       _tls_used                  0000000180032080     LIBCMT:tlssup.obj
 0002:0000b0a8       ??_R4exception@std@@6B@    00000001800320a8     LIBCMT:throw_bad_alloc.obj
 0002:0000b0d0       ??_R3exception@std@@8      00000001800320d0     LIBCMT:throw_bad_alloc.obj
 0002:0000b0e8       ??_R2exception@std@@8      00000001800320e8     LIBCMT:throw_bad_alloc.obj
 0002:0000b0f8       ??_R1A@?0A@EA@exception@std@@8 00000001800320f8     LIBCMT:throw_bad_alloc.obj
 0002:0000b120       ??_R4bad_alloc@std@@6B@    0000000180032120     LIBCMT:throw_bad_alloc.obj
 0002:0000b148       ??_R3bad_alloc@std@@8      0000000180032148     LIBCMT:throw_bad_alloc.obj
 0002:0000b160       ??_R2bad_alloc@std@@8      0000000180032160     LIBCMT:throw_bad_alloc.obj
 0002:0000b178       ??_R1A@?0A@EA@bad_alloc@std@@8 0000000180032178     LIBCMT:throw_bad_alloc.obj
 0002:0000b1a0       ??_R4bad_array_new_length@std@@6B@ 00000001800321a0     LIBCMT:throw_bad_alloc.obj
 0002:0000b1c8       ??_R3bad_array_new_length@std@@8 00000001800321c8     LIBCMT:throw_bad_alloc.obj
 0002:0000b1e0       ??_R2bad_array_new_length@std@@8 00000001800321e0     LIBCMT:throw_bad_alloc.obj
 0002:0000b200       ??_R1A@?0A@EA@bad_array_new_length@std@@8 0000000180032200     LIBCMT:throw_bad_alloc.obj
 0002:0000b228       ??_R4type_info@@6B@        0000000180032228     LIBCMT:std_type_info_static.obj
 0002:0000b250       ??_R3type_info@@8          0000000180032250     LIBCMT:std_type_info_static.obj
 0002:0000b268       ??_R2type_info@@8          0000000180032268     LIBCMT:std_type_info_static.obj
 0002:0000b278       ??_R1A@?0A@EA@type_info@@8 0000000180032278     LIBCMT:std_type_info_static.obj
 0002:0000b2a0       ??_R4bad_exception@std@@6B@ 00000001800322a0     libvcruntime:frame.obj
 0002:0000b2c8       ??_R3bad_exception@std@@8  00000001800322c8     libvcruntime:frame.obj
 0002:0000b2e0       ??_R2bad_exception@std@@8  00000001800322e0     libvcruntime:frame.obj
 0002:0000b2f8       ??_R1A@?0A@EA@bad_exception@std@@8 00000001800322f8     libvcruntime:frame.obj
 0002:0000b31c       __volatile_metadata        000000018003231c     <linker-defined>
 0002:0000b798       __rtc_iaa                  0000000180032798     LIBCMT:initsect.obj
 0002:0000b7a0       __rtc_izz                  00000001800327a0     LIBCMT:initsect.obj
 0002:0000b7a8       __rtc_taa                  00000001800327a8     LIBCMT:initsect.obj
 0002:0000b7b0       __rtc_tzz                  00000001800327b0     LIBCMT:initsect.obj
 0002:0000b7b8       _tls_start                 00000001800327b8     LIBCMT:tlssup.obj
 0002:0000b7bc       _Init_thread_epoch         00000001800327bc     LIBCMT:thread_safe_statics.obj
 0002:0000b7c0       _tls_end                   00000001800327c0     LIBCMT:tlssup.obj
 0002:0000d140       _TI2?AVbad_alloc@std@@     0000000180034140     LIBCMT:throw_bad_alloc.obj
 0002:0000d160       _CTA2?AVbad_alloc@std@@    0000000180034160     LIBCMT:throw_bad_alloc.obj
 0002:0000d178       _CT??_R0?AVbad_alloc@std@@@8??0bad_alloc@std@@QEAA@AEBV01@@Z24 0000000180034178     LIBCMT:throw_bad_alloc.obj
 0002:0000d1a0       _CT??_R0?AVexception@std@@@8??0exception@std@@QEAA@AEBV01@@Z24 00000001800341a0     LIBCMT:throw_bad_alloc.obj
 0002:0000d1c8       _TI3?AVbad_array_new_length@std@@ 00000001800341c8     LIBCMT:throw_bad_alloc.obj
 0002:0000d1e8       _CTA3?AVbad_array_new_length@std@@ 00000001800341e8     LIBCMT:throw_bad_alloc.obj
 0002:0000d208       _CT??_R0?AVbad_array_new_length@std@@@8??0bad_array_new_length@std@@QEAA@AEBV01@@Z24 0000000180034208     LIBCMT:throw_bad_alloc.obj
 0002:0000d230       _TI2?AVbad_exception@std@@ 0000000180034230     libvcruntime:frame.obj
 0002:0000d250       _CTA2?AVbad_exception@std@@ 0000000180034250     libvcruntime:frame.obj
 0002:0000d268       _CT??_R0?AVbad_exception@std@@@8??0bad_exception@std@@QEAA@AEBV01@@Z24 0000000180034268     libvcruntime:frame.obj
 0002:0000d290       __pobjMapEntryFirst        0000000180034290     OposVariant.obj
 0002:0000d298       __pobjMapEntryLast         0000000180034298     OposVariant.obj
 0002:0000d34c       __IMPORT_DESCRIPTOR_KERNEL32 000000018003434c     kernel32:KERNEL32.dll
 0002:0000d360       __IMPORT_DESCRIPTOR_USER32 0000000180034360     user32:USER32.dll
 0002:0000d374       __IMPORT_DESCRIPTOR_GDI32  0000000180034374     gdi32:GDI32.dll
 0002:0000d388       __IMPORT_DESCRIPTOR_ADVAPI32 0000000180034388     advapi32:ADVAPI32.dll
 0002:0000d39c       __IMPORT_DESCRIPTOR_ole32  000000018003439c     ole32:ole32.dll
 0002:0000d3b0       __IMPORT_DESCRIPTOR_OLEAUT32 00000001800343b0     oleaut32:OLEAUT32.dll
 0002:0000d3c4       __NULL_IMPORT_DESCRIPTOR   00000001800343c4     kernel32:KERNEL32.dll
 0003:00000000       ?rcDefault@CWindow@ATL@@2UtagRECT@@A 0000000180036000     PointCardRW.obj
 0003:00000010       ?s_Claim@?7??GetIDsOfNames@CComTypeInfoHolder@ATL@@QEAAJAEBU_GUID@@PEAPEA_WIKPEAJ@Z@4PA_WA 0000000180036010     PointCardRW.obj
 0003:00000028       ?s_Release@?7??GetIDsOfNames@CComTypeInfoHolder@ATL@@QEAAJAEBU_GUID@@PEAPEA_WIKPEAJ@Z@4PA_WA 0000000180036028     PointCardRW.obj
 0003:00000048       ?_tih@?$IDispatchImpl@UIOPOSPointCardRW@@$1?IID_IOPOSPointCardRW@@3U_GUID@@B$1?LIBID_OposPointCardRW_CCO@@3U3@B$00$0A@VCComTypeInfoHolder@ATL@@@ATL@@1VCComTypeInfoHolder@2@A 0000000180036048     PointCardRW.obj
 0003:00000080       ?_tih@?$IProvideClassInfo2Impl@$1?CLSID_OPOSPointCardRW@@3U_GUID@@B$1?DIID__IOPOSPointCardRWEvents@@3U2@B$1?LIBID_OposPointCardRW_CCO@@3U2@B$00$0A@VCComTypeInfoHolder@ATL@@@ATL@@1VCComTypeInfoHolder@2@A 0000000180036080     PointCardRW.obj
 0003:000000b8       ?vszContents@?6??Save@?$IPersistStorageImpl@VCOPOSPointCardRW@@@ATL@@UEAAJPEAUIStorage@@H@Z@4PEB_WEB 00000001800360b8     PointCardRW.obj
 0003:000000c0       ?wc@?1??GetWndClassInfo@?$CWindowImpl@VCOPOSPointCardRW@@VCWindow@ATL@@V?$CWinTraits@$0FGAAAAAA@$0A@@3@@ATL@@SAAEAU_ATL_WNDCLASSINFOW@3@XZ@4U43@A 00000001800360c0     PointCardRW.obj
 0003:00000250       ?g_WindowName@@3PA_WA      0000000180036250     PointCardRWImpl.obj
 0003:00000280       ?g_ControlDescription@@3PADA 0000000180036280     PointCardRWImpl.obj
 0003:000002cc       ?g_ControlVersion@@3JA     00000001800362cc     PointCardRWImpl.obj
 0003:000003d0       __scrt_native_dllmain_reason 00000001800363d0     LIBCMT:utility.obj
 0003:000003d4       _Init_global_epoch         00000001800363d4     LIBCMT:thread_safe_statics.obj
 0003:000003e0       __security_cookie          00000001800363e0     LIBCMT:gs_cookie.obj
 0003:000003e8       __security_cookie_complement 00000001800363e8     LIBCMT:gs_cookie.obj
 0003:000003f0       __isa_available            00000001800363f0     LIBCMT:cpu_disp.obj
 0003:000003f4       __isa_enabled              00000001800363f4     LIBCMT:cpu_disp.obj
 0003:000003f8       __memcpy_nt_iters          00000001800363f8     LIBCMT:cpu_disp.obj
 0003:00000400       __memset_nt_iters          0000000180036400     LIBCMT:cpu_disp.obj
 0003:00000428       __abort_behavior           0000000180036428     libucrt:abort.obj
 0003:00000440       __acrt_initial_locale_data 0000000180036440     libucrt:nlsdata.obj
 0003:00000598       __acrt_initial_locale_pointers 0000000180036598     libucrt:nlsdata.obj
 0003:000005a8       __acrt_wide_c_locale_string 00000001800365a8     libucrt:nlsdata.obj
 0003:000005b0       _iob                       00000001800365b0     libucrt:_file.obj
 0003:000006c0       __acrt_initial_multibyte_data 00000001800366c0     libucrt:mbctype.obj
 0003:00000c00       __acrt_lconv_c             0000000180036c00     libucrt:localeconv.obj
 0003:00000c98       __acrt_lconv_static_decimal 0000000180036c98     libucrt:localeconv.obj
 0003:00000c9c       __acrt_lconv_static_W_decimal 0000000180036c9c     libucrt:localeconv.obj
 0003:00000ca0       __globallocalestatus       0000000180036ca0     libucrt:glstatus.obj
 0003:00000cb0       _lookuptrailbytes          0000000180036cb0     libucrt:read.obj
 0003:00000dd4       _fltused                   0000000180036dd4     LIBCMT:fltused.obj
 0003:00000dd8       ??_R0?AVbad_alloc@std@@@8  0000000180036dd8     LIBCMT:throw_bad_alloc.obj
 0003:00000e00       ??_R0?AVexception@std@@@8  0000000180036e00     LIBCMT:throw_bad_alloc.obj
 0003:00000e28       ??_R0?AVbad_array_new_length@std@@@8 0000000180036e28     LIBCMT:throw_bad_alloc.obj
 0003:00000e58       ??_R0?AVbad_exception@std@@@8 0000000180036e58     libvcruntime:frame.obj
 0003:00000e80       ??_R0?AVtype_info@@@8      0000000180036e80     LIBCMT:std_type_info_static.obj
 0003:00000ea0       ?m_bInitFailed@CAtlBaseModule@ATL@@2_NA 0000000180036ea0     OposVariant.obj
 0003:00000ea8       ?_pPerfRegFunc@ATL@@3P6AJPEAUHINSTANCE__@@@ZEA 0000000180036ea8     OposVariant.obj
 0003:00000eb0       ?_pPerfUnRegFunc@ATL@@3P6AJXZEA 0000000180036eb0     OposVariant.obj
 0003:00000eb8       ?_AtlRegisterPerUser@ATL@@3_NA 0000000180036eb8     OposVariant.obj
 0003:00000ec0       ?_pAtlModule@ATL@@3PEAVCAtlModule@1@EA 0000000180036ec0     OposVariant.obj
 0003:00000ec8       ?_pModule@ATL@@3PEAVCComModule@1@EA 0000000180036ec8     OposVariant.obj
 0003:00000ed0       ?_AtlComModule@ATL@@3VCAtlComModule@1@A 0000000180036ed0     OposVariant.obj
 0003:00000f20       ?_AtlWinModule@ATL@@3VCAtlWinModule@1@A 0000000180036f20     OposVariant.obj
 0003:00000f68       ?m_libid@CAtlModule@ATL@@2U_GUID@@A 0000000180036f68     PointCardRW.obj
 0003:00000f78       ?_entries@?1??GetConnMap@COPOSPointCardRW@@SAPEBU_ATL_CONNMAP_ENTRY@ATL@@PEAH@Z@4QBU34@B 0000000180036f78     PointCardRW.obj
 0003:00000f90       ?$TSS0@?1??GetConnMap@COPOSPointCardRW@@SAPEBU_ATL_CONNMAP_ENTRY@ATL@@PEAH@Z@4HA 0000000180036f90     PointCardRW.obj
 0003:00000f98       ?_OptionsStorage@?1??__local_stdio_printf_options@@9@4_KA 0000000180036f98     PointCardRW.obj
 0003:00000fa0       ?pfnRegDeleteKeyEx@?1??DeleteSubKey@CRegKey@ATL@@QEAAJPEB_W@Z@4P6AJPEAUHKEY__@@0KK@ZEA 0000000180036fa0     PointCardRW.obj
 0003:00000fa8       ?bInitialized@?1??DeleteSubKey@CRegKey@ATL@@QEAAJPEB_W@Z@4_NA 0000000180036fa8     PointCardRW.obj
 0003:00000fb0       ?_Module@@3VCComModule@ATL@@A 0000000180036fb0     PointCardRW.obj
 0003:00001000       ?pConnMap@?$IConnectionPointContainerImpl@VCOPOSPointCardRW@@@ATL@@0PEBU_ATL_CONNMAP_ENTRY@2@EB 0000000180037000     PointCardRW.obj
 0003:00001008       ?s_nInstances@COPOSPointCardRW@@1HA 0000000180037008     PointCardRWImpl.obj
 0003:00001010       __scrt_current_native_startup_state 0000000180037010     LIBCMT:utility.obj
 0003:00001018       __scrt_native_startup_lock 0000000180037018     LIBCMT:utility.obj
 0003:00001610       _tls_index                 0000000180037610     LIBCMT:tlssup.obj
 0003:00001618       __favor                    0000000180037618     LIBCMT:cpu_disp.obj
 0003:0000161c       __scrt_debugger_hook_flag  000000018003761c     LIBCMT:utility_desktop.obj
 0003:00001620       ?__type_info_root_node@@3U__type_info_node@@A 0000000180037620     LIBCMT:tncleanup.obj
 0003:00001630       ?_OptionsStorage@?1??__local_stdio_scanf_options@@9@4_KA 0000000180037630     LIBCMT:default_local_stdio_options.obj
 0003:00001640       ?_AtlBaseModule@ATL@@3VCAtlBaseModule@1@A 0000000180037640     atls:atlbase.obj
 0003:000016a0       ?__AtlThunkPool@@3PEAT_SLIST_HEADER@@EA 00000001800376a0     atls:atlthunk.obj
 0003:000016cc       __@@_PchSym_@00@UzABUPdlipUCAUhUrmgvinvwrzgvUexgllohUzgohOmzgrevkilqPBACIAJCBDBUlyqiUznwGEUhgwzucOlyq@4B2008FD98C1DD4 00000001800376cc     atls:stdafx.obj
 0003:000016d0       ?__WinRTOutOfMemoryExceptionCallback@@3P6APEAXXZEA 00000001800376d0     libvcruntime:ehhelpers.obj
 0003:000016d8       __pPurecall                00000001800376d8     libvcruntime:purevirt_data.obj
 0003:00001790       ?pArgList@UnDecorator@@0PEAVReplicator@@EA 0000000180037790     libvcruntime:undname.obj
 0003:00001798       ?pZNameList@UnDecorator@@0PEAVReplicator@@EA 0000000180037798     libvcruntime:undname.obj
 0003:000017a0       ?pTemplateArgList@UnDecorator@@0PEAVReplicator@@EA 00000001800377a0     libvcruntime:undname.obj
 0003:000017a8       ?gName@UnDecorator@@0PEBDEB 00000001800377a8     libvcruntime:undname.obj
 0003:000017b0       ?name@UnDecorator@@0PEBDEB 00000001800377b0     libvcruntime:undname.obj
 0003:000017b8       ?disableFlags@UnDecorator@@0KA 00000001800377b8     libvcruntime:undname.obj
 0003:000017bc       ?fExplicitTemplateParams@UnDecorator@@0_NA 00000001800377bc     libvcruntime:undname.obj
 0003:000017bd       ?fGetTemplateArgumentList@UnDecorator@@0_NA 00000001800377bd     libvcruntime:undname.obj
 0003:000017c0       ?m_pGetParameter@UnDecorator@@0P6APEADJ@ZEA 00000001800377c0     libvcruntime:undname.obj
 0003:000017c8       ?m_CHPENameOffset@UnDecorator@@0KA 00000001800377c8     libvcruntime:undname.obj
 0003:000017cc       ?m_recursionLevel@UnDecorator@@0KA 00000001800377cc     libvcruntime:undname.obj
 0003:00001850       ?c_exit_complete@?1???R<lambda_6e4b09c48022b2350581041d5f6b0c4c>@@QEBA@XZ@4_NA 0000000180037850     libucrt:exit.obj
 0003:00001968       _environ_table             0000000180037968     libucrt:environment_initialization.obj
 0003:00001970       _wenviron_table            0000000180037970     libucrt:environment_initialization.obj
 0003:00001978       __dcrt_initial_wide_environment 0000000180037978     libucrt:environment_initialization.obj
 0003:00001980       __dcrt_initial_narrow_environment 0000000180037980     libucrt:environment_initialization.obj
 0003:00001988       __acrt_atexit_table        0000000180037988     libucrt:onexit.obj
 0003:000019a0       __acrt_at_quick_exit_table 00000001800379a0     libucrt:onexit.obj
 0003:000019c0       __acrt_locale_changed_data 00000001800379c0     libucrt:wsetlocale.obj
 0003:000019c8       __acrt_current_locale_data 00000001800379c8     libucrt:nlsdata.obj
 0003:00001b68       _nstream                   0000000180037b68     libucrt:_file.obj
 0003:00001b70       __piob                     0000000180037b70     libucrt:_file.obj
 0003:00001b80       __acrt_stdout_buffer       0000000180037b80     libucrt:_sftbuf.obj
 0003:00001b88       __acrt_stderr_buffer       0000000180037b88     libucrt:_sftbuf.obj
 0003:00001b90       __pioinfo                  0000000180037b90     libucrt:ioinit.obj
 0003:00001f90       _nhandle                   0000000180037f90     libucrt:ioinit.obj
 0003:000021d8       _mbctype                   00000001800381d8     libucrt:mbctype.obj
 0003:000021e0       _mbcasemap                 00000001800381e0     libucrt:mbctype.obj
 0003:000021e8       __acrt_current_multibyte_data 00000001800381e8     libucrt:mbctype.obj
 0003:000021f8       _pgmptr                    00000001800381f8     libucrt:argv_data.obj
 0003:00002200       __argc                     0000000180038200     libucrt:argv_data.obj
 0003:00002208       __argv                     0000000180038208     libucrt:argv_data.obj
 0003:00002210       __wargv                    0000000180038210     libucrt:argv_data.obj
 0003:00002218       _acmdln                    0000000180038218     libucrt:argv_data.obj
 0003:00002220       _wcmdln                    0000000180038220     libucrt:argv_data.obj
 0003:00002228       __acrt_heap                0000000180038228     libucrt:heap_handle.obj
 0003:00002258       __acrt_lconv_static_null   0000000180038258     libucrt:localeconv.obj
 0003:0000225c       __acrt_lconv_static_W_null 000000018003825c     libucrt:localeconv.obj
 0003:00002274       __fma3_is_available        0000000180038274     libucrt:fma3_available.obj
 0003:00002278       __use_fma3_lib             0000000180038278     libucrt:fma3_available.obj
 0003:00002280       __dyn_tls_init_callback    0000000180038280     <common>
 0003:00002288       __scrt_ucrt_dll_is_in_use  0000000180038288     <common>

 entry point at        0001:0000f8f0

 Static symbols

 0000:fffbb000       .debug$S                   0000000180000000     OPOSPointCardRW.exp
 0000:fffbb000       .debug$S                   0000000180000000     advapi32:ADVAPI32.dll
 0000:fffbb000       .debug$S                   0000000180000000     advapi32:ADVAPI32.dll
 0000:fffbb000       .debug$S                   0000000180000000     advapi32:ADVAPI32.dll
 0000:fffbb000       .debug$S                   0000000180000000     advapi32:ADVAPI32.dll
 0000:fffbb000       .debug$S                   0000000180000000     advapi32:ADVAPI32.dll
 0000:fffbb000       .debug$S                   0000000180000000     advapi32:ADVAPI32.dll
 0000:fffbb000       .debug$S                   0000000180000000     advapi32:ADVAPI32.dll
 0000:fffbb000       .debug$S                   0000000180000000     advapi32:ADVAPI32.dll
 0000:fffbb000       .debug$S                   0000000180000000     advapi32:ADVAPI32.dll
 0000:fffbb000       .debug$S                   0000000180000000     gdi32:GDI32.dll
 0000:fffbb000       .debug$S                   0000000180000000     gdi32:GDI32.dll
 0000:fffbb000       .debug$S                   0000000180000000     gdi32:GDI32.dll
 0000:fffbb000       .debug$S                   0000000180000000     gdi32:GDI32.dll
 0000:fffbb000       .debug$S                   0000000180000000     gdi32:GDI32.dll
 0000:fffbb000       .debug$S                   0000000180000000     gdi32:GDI32.dll
 0000:fffbb000       .debug$S                   0000000180000000     gdi32:GDI32.dll
 0000:fffbb000       .debug$S                   0000000180000000     gdi32:GDI32.dll
 0000:fffbb000       .debug$S                   0000000180000000     gdi32:GDI32.dll
 0000:fffbb000       .debug$S                   0000000180000000     gdi32:GDI32.dll
 0000:fffbb000       .debug$S                   0000000180000000     gdi32:GDI32.dll
 0000:fffbb000       .debug$S                   0000000180000000     gdi32:GDI32.dll
 0000:fffbb000       .debug$S                   0000000180000000     gdi32:GDI32.dll
 0000:fffbb000       .debug$S                   0000000180000000     gdi32:GDI32.dll
 0000:fffbb000       .debug$S                   0000000180000000     gdi32:GDI32.dll
 0000:fffbb000       .debug$S                   0000000180000000     gdi32:GDI32.dll
 0000:fffbb000       .debug$S                   0000000180000000     gdi32:GDI32.dll
 0000:fffbb000       .debug$S                   0000000180000000     gdi32:GDI32.dll
 0000:fffbb000       .debug$S                   0000000180000000     gdi32:GDI32.dll
 0000:fffbb000       .debug$S                   0000000180000000     kernel32:KERNEL32.dll
 0000:fffbb000       .debug$S                   0000000180000000     kernel32:KERNEL32.dll
 0000:fffbb000       .debug$S                   0000000180000000     kernel32:KERNEL32.dll
 0000:fffbb000       .debug$S                   0000000180000000     kernel32:KERNEL32.dll
 0000:fffbb000       .debug$S                   0000000180000000     kernel32:KERNEL32.dll
 0000:fffbb000       .debug$S                   0000000180000000     kernel32:KERNEL32.dll
 0000:fffbb000       .debug$S                   0000000180000000     kernel32:KERNEL32.dll
 0000:fffbb000       .debug$S                   0000000180000000     kernel32:KERNEL32.dll
 0000:fffbb000       .debug$S                   0000000180000000     kernel32:KERNEL32.dll
 0000:fffbb000       .debug$S                   0000000180000000     kernel32:KERNEL32.dll
 0000:fffbb000       .debug$S                   0000000180000000     kernel32:KERNEL32.dll
 0000:fffbb000       .debug$S                   0000000180000000     kernel32:KERNEL32.dll
 0000:fffbb000       .debug$S                   0000000180000000     kernel32:KERNEL32.dll
 0000:fffbb000       .debug$S                   0000000180000000     kernel32:KERNEL32.dll
 0000:fffbb000       .debug$S                   0000000180000000     kernel32:KERNEL32.dll
 0000:fffbb000       .debug$S                   0000000180000000     kernel32:KERNEL32.dll
 0000:fffbb000       .debug$S                   0000000180000000     kernel32:KERNEL32.dll
 0000:fffbb000       .debug$S                   0000000180000000     kernel32:KERNEL32.dll
 0000:fffbb000       .debug$S                   0000000180000000     kernel32:KERNEL32.dll
 0000:fffbb000       .debug$S                   0000000180000000     kernel32:KERNEL32.dll
 0000:fffbb000       .debug$S                   0000000180000000     kernel32:KERNEL32.dll
 0000:fffbb000       .debug$S                   0000000180000000     kernel32:KERNEL32.dll
 0000:fffbb000       .debug$S                   0000000180000000     kernel32:KERNEL32.dll
 0000:fffbb000       .debug$S                   0000000180000000     kernel32:KERNEL32.dll
 0000:fffbb000       .debug$S                   0000000180000000     kernel32:KERNEL32.dll
 0000:fffbb000       .debug$S                   0000000180000000     kernel32:KERNEL32.dll
 0000:fffbb000       .debug$S                   0000000180000000     kernel32:KERNEL32.dll
 0000:fffbb000       .debug$S                   0000000180000000     kernel32:KERNEL32.dll
 0000:fffbb000       .debug$S                   0000000180000000     kernel32:KERNEL32.dll
 0000:fffbb000       .debug$S                   0000000180000000     kernel32:KERNEL32.dll
 0000:fffbb000       .debug$S                   0000000180000000     kernel32:KERNEL32.dll
 0000:fffbb000       .debug$S                   0000000180000000     kernel32:KERNEL32.dll
 0000:fffbb000       .debug$S                   0000000180000000     kernel32:KERNEL32.dll
 0000:fffbb000       .debug$S                   0000000180000000     kernel32:KERNEL32.dll
 0000:fffbb000       .debug$S                   0000000180000000     kernel32:KERNEL32.dll
 0000:fffbb000       .debug$S                   0000000180000000     kernel32:KERNEL32.dll
 0000:fffbb000       .debug$S                   0000000180000000     kernel32:KERNEL32.dll
 0000:fffbb000       .debug$S                   0000000180000000     kernel32:KERNEL32.dll
 0000:fffbb000       .debug$S                   0000000180000000     kernel32:KERNEL32.dll
 0000:fffbb000       .debug$S                   0000000180000000     kernel32:KERNEL32.dll
 0000:fffbb000       .debug$S                   0000000180000000     kernel32:KERNEL32.dll
 0000:fffbb000       .debug$S                   0000000180000000     kernel32:KERNEL32.dll
 0000:fffbb000       .debug$S                   0000000180000000     kernel32:KERNEL32.dll
 0000:fffbb000       .debug$S                   0000000180000000     kernel32:KERNEL32.dll
 0000:fffbb000       .debug$S                   0000000180000000     kernel32:KERNEL32.dll
 0000:fffbb000       .debug$S                   0000000180000000     kernel32:KERNEL32.dll
 0000:fffbb000       .debug$S                   0000000180000000     kernel32:KERNEL32.dll
 0000:fffbb000       .debug$S                   0000000180000000     kernel32:KERNEL32.dll
 0000:fffbb000       .debug$S                   0000000180000000     kernel32:KERNEL32.dll
 0000:fffbb000       .debug$S                   0000000180000000     kernel32:KERNEL32.dll
 0000:fffbb000       .debug$S                   0000000180000000     kernel32:KERNEL32.dll
 0000:fffbb000       .debug$S                   0000000180000000     kernel32:KERNEL32.dll
 0000:fffbb000       .debug$S                   0000000180000000     kernel32:KERNEL32.dll
 0000:fffbb000       .debug$S                   0000000180000000     kernel32:KERNEL32.dll
 0000:fffbb000       .debug$S                   0000000180000000     kernel32:KERNEL32.dll
 0000:fffbb000       .debug$S                   0000000180000000     kernel32:KERNEL32.dll
 0000:fffbb000       .debug$S                   0000000180000000     kernel32:KERNEL32.dll
 0000:fffbb000       .debug$S                   0000000180000000     kernel32:KERNEL32.dll
 0000:fffbb000       .debug$S                   0000000180000000     kernel32:KERNEL32.dll
 0000:fffbb000       .debug$S                   0000000180000000     kernel32:KERNEL32.dll
 0000:fffbb000       .debug$S                   0000000180000000     kernel32:KERNEL32.dll
 0000:fffbb000       .debug$S                   0000000180000000     kernel32:KERNEL32.dll
 0000:fffbb000       .debug$S                   0000000180000000     kernel32:KERNEL32.dll
 0000:fffbb000       .debug$S                   0000000180000000     kernel32:KERNEL32.dll
 0000:fffbb000       .debug$S                   0000000180000000     kernel32:KERNEL32.dll
 0000:fffbb000       .debug$S                   0000000180000000     kernel32:KERNEL32.dll
 0000:fffbb000       .debug$S                   0000000180000000     kernel32:KERNEL32.dll
 0000:fffbb000       .debug$S                   0000000180000000     kernel32:KERNEL32.dll
 0000:fffbb000       .debug$S                   0000000180000000     kernel32:KERNEL32.dll
 0000:fffbb000       .debug$S                   0000000180000000     kernel32:KERNEL32.dll
 0000:fffbb000       .debug$S                   0000000180000000     kernel32:KERNEL32.dll
 0000:fffbb000       .debug$S                   0000000180000000     kernel32:KERNEL32.dll
 0000:fffbb000       .debug$S                   0000000180000000     kernel32:KERNEL32.dll
 0000:fffbb000       .debug$S                   0000000180000000     kernel32:KERNEL32.dll
 0000:fffbb000       .debug$S                   0000000180000000     kernel32:KERNEL32.dll
 0000:fffbb000       .debug$S                   0000000180000000     kernel32:KERNEL32.dll
 0000:fffbb000       .debug$S                   0000000180000000     kernel32:KERNEL32.dll
 0000:fffbb000       .debug$S                   0000000180000000     kernel32:KERNEL32.dll
 0000:fffbb000       .debug$S                   0000000180000000     kernel32:KERNEL32.dll
 0000:fffbb000       .debug$S                   0000000180000000     kernel32:KERNEL32.dll
 0000:fffbb000       .debug$S                   0000000180000000     kernel32:KERNEL32.dll
 0000:fffbb000       .debug$S                   0000000180000000     kernel32:KERNEL32.dll
 0000:fffbb000       .debug$S                   0000000180000000     kernel32:KERNEL32.dll
 0000:fffbb000       .debug$S                   0000000180000000     kernel32:KERNEL32.dll
 0000:fffbb000       .debug$S                   0000000180000000     kernel32:KERNEL32.dll
 0000:fffbb000       .debug$S                   0000000180000000     kernel32:KERNEL32.dll
 0000:fffbb000       .debug$S                   0000000180000000     kernel32:KERNEL32.dll
 0000:fffbb000       .debug$S                   0000000180000000     kernel32:KERNEL32.dll
 0000:fffbb000       .debug$S                   0000000180000000     kernel32:KERNEL32.dll
 0000:fffbb000       .debug$S                   0000000180000000     kernel32:KERNEL32.dll
 0000:fffbb000       .debug$S                   0000000180000000     kernel32:KERNEL32.dll
 0000:fffbb000       .debug$S                   0000000180000000     kernel32:KERNEL32.dll
 0000:fffbb000       .debug$S                   0000000180000000     kernel32:KERNEL32.dll
 0000:fffbb000       .debug$S                   0000000180000000     kernel32:KERNEL32.dll
 0000:fffbb000       .debug$S                   0000000180000000     kernel32:KERNEL32.dll
 0000:fffbb000       .debug$S                   0000000180000000     kernel32:KERNEL32.dll
 0000:fffbb000       .debug$S                   0000000180000000     kernel32:KERNEL32.dll
 0000:fffbb000       .debug$S                   0000000180000000     kernel32:KERNEL32.dll
 0000:fffbb000       .debug$S                   0000000180000000     kernel32:KERNEL32.dll
 0000:fffbb000       .debug$S                   0000000180000000     kernel32:KERNEL32.dll
 0000:fffbb000       .debug$S                   0000000180000000     kernel32:KERNEL32.dll
 0000:fffbb000       .debug$S                   0000000180000000     kernel32:KERNEL32.dll
 0000:fffbb000       .debug$S                   0000000180000000     kernel32:KERNEL32.dll
 0000:fffbb000       .debug$S                   0000000180000000     kernel32:KERNEL32.dll
 0000:fffbb000       .debug$S                   0000000180000000     kernel32:KERNEL32.dll
 0000:fffbb000       .debug$S                   0000000180000000     kernel32:KERNEL32.dll
 0000:fffbb000       .debug$S                   0000000180000000     kernel32:KERNEL32.dll
 0000:fffbb000       .debug$S                   0000000180000000     kernel32:KERNEL32.dll
 0000:fffbb000       .debug$S                   0000000180000000     kernel32:KERNEL32.dll
 0000:fffbb000       .debug$S                   0000000180000000     kernel32:KERNEL32.dll
 0000:fffbb000       .debug$S                   0000000180000000     kernel32:KERNEL32.dll
 0000:fffbb000       .debug$S                   0000000180000000     kernel32:KERNEL32.dll
 0000:fffbb000       .debug$S                   0000000180000000     kernel32:KERNEL32.dll
 0000:fffbb000       .debug$S                   0000000180000000     kernel32:KERNEL32.dll
 0000:fffbb000       .debug$S                   0000000180000000     kernel32:KERNEL32.dll
 0000:fffbb000       .debug$S                   0000000180000000     ole32:ole32.dll
 0000:fffbb000       .debug$S                   0000000180000000     ole32:ole32.dll
 0000:fffbb000       .debug$S                   0000000180000000     ole32:ole32.dll
 0000:fffbb000       .debug$S                   0000000180000000     ole32:ole32.dll
 0000:fffbb000       .debug$S                   0000000180000000     ole32:ole32.dll
 0000:fffbb000       .debug$S                   0000000180000000     ole32:ole32.dll
 0000:fffbb000       .debug$S                   0000000180000000     ole32:ole32.dll
 0000:fffbb000       .debug$S                   0000000180000000     ole32:ole32.dll
 0000:fffbb000       .debug$S                   0000000180000000     ole32:ole32.dll
 0000:fffbb000       .debug$S                   0000000180000000     ole32:ole32.dll
 0000:fffbb000       .debug$S                   0000000180000000     ole32:ole32.dll
 0000:fffbb000       .debug$S                   0000000180000000     ole32:ole32.dll
 0000:fffbb000       .debug$S                   0000000180000000     ole32:ole32.dll
 0000:fffbb000       .debug$S                   0000000180000000     ole32:ole32.dll
 0000:fffbb000       .debug$S                   0000000180000000     oleaut32:OLEAUT32.dll
 0000:fffbb000       .debug$S                   0000000180000000     oleaut32:OLEAUT32.dll
 0000:fffbb000       .debug$S                   0000000180000000     oleaut32:OLEAUT32.dll
 0000:fffbb000       .debug$S                   0000000180000000     oleaut32:OLEAUT32.dll
 0000:fffbb000       .debug$S                   0000000180000000     oleaut32:OLEAUT32.dll
 0000:fffbb000       .debug$S                   0000000180000000     oleaut32:OLEAUT32.dll
 0000:fffbb000       .debug$S                   0000000180000000     oleaut32:OLEAUT32.dll
 0000:fffbb000       .debug$S                   0000000180000000     oleaut32:OLEAUT32.dll
 0000:fffbb000       .debug$S                   0000000180000000     oleaut32:OLEAUT32.dll
 0000:fffbb000       .debug$S                   0000000180000000     oleaut32:OLEAUT32.dll
 0000:fffbb000       .debug$S                   0000000180000000     oleaut32:OLEAUT32.dll
 0000:fffbb000       .debug$S                   0000000180000000     oleaut32:OLEAUT32.dll
 0000:fffbb000       .debug$S                   0000000180000000     oleaut32:OLEAUT32.dll
 0000:fffbb000       .debug$S                   0000000180000000     oleaut32:OLEAUT32.dll
 0000:fffbb000       .debug$S                   0000000180000000     oleaut32:OLEAUT32.dll
 0000:fffbb000       .debug$S                   0000000180000000     oleaut32:OLEAUT32.dll
 0000:fffbb000       .debug$S                   0000000180000000     user32:USER32.dll
 0000:fffbb000       .debug$S                   0000000180000000     user32:USER32.dll
 0000:fffbb000       .debug$S                   0000000180000000     user32:USER32.dll
 0000:fffbb000       .debug$S                   0000000180000000     user32:USER32.dll
 0000:fffbb000       .debug$S                   0000000180000000     user32:USER32.dll
 0000:fffbb000       .debug$S                   0000000180000000     user32:USER32.dll
 0000:fffbb000       .debug$S                   0000000180000000     user32:USER32.dll
 0000:fffbb000       .debug$S                   0000000180000000     user32:USER32.dll
 0000:fffbb000       .debug$S                   0000000180000000     user32:USER32.dll
 0000:fffbb000       .debug$S                   0000000180000000     user32:USER32.dll
 0000:fffbb000       .debug$S                   0000000180000000     user32:USER32.dll
 0000:fffbb000       .debug$S                   0000000180000000     user32:USER32.dll
 0000:fffbb000       .debug$S                   0000000180000000     user32:USER32.dll
 0000:fffbb000       .debug$S                   0000000180000000     user32:USER32.dll
 0000:fffbb000       .debug$S                   0000000180000000     user32:USER32.dll
 0000:fffbb000       .debug$S                   0000000180000000     user32:USER32.dll
 0000:fffbb000       .debug$S                   0000000180000000     user32:USER32.dll
 0000:fffbb000       .debug$S                   0000000180000000     user32:USER32.dll
 0000:fffbb000       .debug$S                   0000000180000000     user32:USER32.dll
 0000:fffbb000       .debug$S                   0000000180000000     user32:USER32.dll
 0000:fffbb000       .debug$S                   0000000180000000     user32:USER32.dll
 0000:fffbb000       .debug$S                   0000000180000000     user32:USER32.dll
 0000:fffbb000       .debug$S                   0000000180000000     user32:USER32.dll
 0000:fffbb000       .debug$S                   0000000180000000     user32:USER32.dll
 0000:fffbb000       .debug$S                   0000000180000000     user32:USER32.dll
 0000:fffbb000       .debug$S                   0000000180000000     user32:USER32.dll
 0000:fffbb000       .debug$S                   0000000180000000     user32:USER32.dll
 0000:fffbb000       .debug$S                   0000000180000000     user32:USER32.dll
 0000:fffbb000       .debug$S                   0000000180000000     user32:USER32.dll
 0000:fffbb000       .debug$S                   0000000180000000     user32:USER32.dll
 0000:fffbb000       .debug$S                   0000000180000000     user32:USER32.dll
 0000:fffbb000       .debug$S                   0000000180000000     user32:USER32.dll
 0000:fffbb000       .debug$S                   0000000180000000     user32:USER32.dll
 0000:fffbb000       .debug$S                   0000000180000000     user32:USER32.dll
 0000:fffbb000       .debug$S                   0000000180000000     user32:USER32.dll
 0001:00000000       ??__E_AtlComModule@ATL@@YAXXZ 0000000180001000 f   OposVariant.obj
 0001:00000020       ??__E_AtlWinModule@ATL@@YAXXZ 0000000180001020 f   OposVariant.obj
 0001:00000040       ??__E?pConnMap@?$IConnectionPointContainerImpl@VCOPOSPointCardRW@@@ATL@@0PEBU_ATL_CONNMAP_ENTRY@2@EB@@YAXXZ 0000000180001040 f   PointCardRW.obj
 0001:00000058       ??__E_Module@@YAXXZ        0000000180001058 f   PointCardRW.obj
 0001:00000094       ??__E_AtlBaseModule@ATL@@YAXXZ 0000000180001094 f   atls:atlbase.obj
 0001:0000ef18       ?__scrt_initialize_thread_safe_statics@@YAHXZ 000000018000ff18 f   LIBCMT:thread_safe_statics.obj
 0001:0000efe8       ?__scrt_uninitialize_thread_safe_statics@@YAXXZ 000000018000ffe8 f   LIBCMT:thread_safe_statics.obj
 0001:0000f338       capture_current_context    0000000180010338 f   LIBCMT:gs_report.obj
 0001:0000f3a8       capture_previous_context   00000001800103a8 f   LIBCMT:gs_report.obj
 0001:0000f540       $$000000                   0000000180010540     LIBCMT:chkstk.obj
 0001:0000f5a0       $$000000                   00000001800105a0     LIBCMT:amdsecgs.obj
 0001:0000f5d0       ?dllmain_crt_dispatch@@YAHQEAUHINSTANCE__@@KQEAX@Z 00000001800105d0 f   LIBCMT:dll_dllmain.obj
 0001:0000f620       ?dllmain_crt_process_attach@@YAHQEAUHINSTANCE__@@QEAX@Z 0000000180010620 f   LIBCMT:dll_dllmain.obj
 0001:0000f738       ?dllmain_crt_process_detach@@YAH_N@Z 0000000180010738 f   LIBCMT:dll_dllmain.obj
 0001:0000f7bc       ?dllmain_dispatch@@YAHQEAUHINSTANCE__@@KQEAX@Z 00000001800107bc f   LIBCMT:dll_dllmain.obj
 0001:00010088       ??$GetProcAddressAll@P6AP6A_JPEAUHWND__@@I_K_J@ZPEAUAtlThunkData_t@@@Z@@YAP6AP6A_JPEAUHWND__@@I_K_J@ZPEAUAtlThunkData_t@@@ZPEAP6AP6A_J0I12@Z3@Z@Z 0000000180011088 f   atls:atlthunk.obj
 0001:00010088       ??$GetProcAddressAll@P6APEAUAtlThunkData_t@@XZ@@YAP6APEAUAtlThunkData_t@@XZPEAP6APEAU0@XZ@Z 0000000180011088 f   atls:atlthunk.obj
 0001:00010088       ??$GetProcAddressAll@P6AXPEAUAtlThunkData_t@@@Z@@YAP6AXPEAUAtlThunkData_t@@@ZPEAP6AX0@Z@Z 0000000180011088 f   atls:atlthunk.obj
 0001:00010088       ??$GetProcAddressAll@P6AXPEAUAtlThunkData_t@@PEAX_K@Z@@YAP6AXPEAUAtlThunkData_t@@PEAX_K@ZPEAP6AX012@Z@Z 0000000180011088 f   atls:atlthunk.obj
 0001:00010260       ?__InitializeThunkPool@@YAHXZ 0000000180011260 f   atls:atlthunk.obj
 0001:00010700       $$000000                   0000000180011700     libvcruntime:memcmp.obj
 0001:000107e0       $$000000                   00000001800117e0     libvcruntime:memcpy.obj
 0001:00010e90       $$000000                   0000000180011e90     libvcruntime:memset.obj
 0001:000124a0       $$000000                   00000001800134a0     libvcruntime:notify.obj
 0001:00012720       ??$BuildCatchObjectHelperInternal@V__FrameHandler3@@@@YAHPEAUEHExceptionRecord@@PEAXPEBU_s_HandlerType@@PEBU_s_CatchableType@@@Z 0000000180013720 f   libvcruntime:frame.obj
 0001:00012920       ??$BuildCatchObjectHelperInternal@V__FrameHandler4@@@@YAHPEAUEHExceptionRecord@@PEAXPEAUHandlerType4@FH4@@PEBU_s_CatchableType@@@Z 0000000180013920 f   libvcruntime:frame.obj
 0001:00012b24       ??$BuildCatchObjectInternal@V__FrameHandler3@@@@YAXPEAUEHExceptionRecord@@PEAXPEBU_s_HandlerType@@PEBU_s_CatchableType@@@Z 0000000180013b24 f   libvcruntime:frame.obj
 0001:00012be4       ??$BuildCatchObjectInternal@V__FrameHandler4@@@@YAXPEAUEHExceptionRecord@@PEAXPEAUHandlerType4@FH4@@PEBU_s_CatchableType@@@Z 0000000180013be4 f   libvcruntime:frame.obj
 0001:00012ca8       ??$CatchIt@V__FrameHandler3@@@@YAXPEAUEHExceptionRecord@@PEA_KPEAU_CONTEXT@@PEAU_xDISPATCHER_CONTEXT@@PEBU_s_FuncInfo@@PEBU_s_HandlerType@@PEBU_s_CatchableType@@PEBU_s_TryBlockMapEntry@@H1EE@Z 0000000180013ca8 f   libvcruntime:frame.obj
 0001:00012d7c       ??$CatchIt@V__FrameHandler4@@@@YAXPEAUEHExceptionRecord@@PEA_KPEAU_CONTEXT@@PEAU_xDISPATCHER_CONTEXT@@PEAUFuncInfo4@FH4@@PEAUHandlerType4@4@PEBU_s_CatchableType@@PEAUTryBlockMapEntry4@4@H1EE@Z 0000000180013d7c f   libvcruntime:frame.obj
 0001:00012e50       ??$FindHandler@V__FrameHandler3@@@@YAXPEAUEHExceptionRecord@@PEA_KPEAU_CONTEXT@@PEAU_xDISPATCHER_CONTEXT@@PEBU_s_FuncInfo@@EH1@Z 0000000180013e50 f   libvcruntime:frame.obj
 0001:00013328       ??$FindHandler@V__FrameHandler4@@@@YAXPEAUEHExceptionRecord@@PEA_KPEAU_CONTEXT@@PEAU_xDISPATCHER_CONTEXT@@PEAUFuncInfo4@FH4@@EH1@Z 0000000180014328 f   libvcruntime:frame.obj
 0001:00013824       ??$FindHandlerForForeignException@V__FrameHandler3@@@@YAXPEAUEHExceptionRecord@@PEA_KPEAU_CONTEXT@@PEAU_xDISPATCHER_CONTEXT@@PEBU_s_FuncInfo@@HH1@Z 0000000180014824 f   libvcruntime:frame.obj
 0001:00013a40       ??$FindHandlerForForeignException@V__FrameHandler4@@@@YAXPEAUEHExceptionRecord@@PEA_KPEAU_CONTEXT@@PEAU_xDISPATCHER_CONTEXT@@PEAUFuncInfo4@FH4@@HH1@Z 0000000180014a40 f   libvcruntime:frame.obj
 0001:00014c00       ?ExFilterRethrow@@YAHPEAU_EXCEPTION_POINTERS@@PEAUEHExceptionRecord@@PEAH@Z 0000000180015c00 f   libvcruntime:frame.obj
 0001:00014c88       ?ExFilterRethrowFH4@@YAHPEAU_EXCEPTION_POINTERS@@PEAUEHExceptionRecord@@HPEAH@Z 0000000180015c88 f   libvcruntime:frame.obj
 0001:000151d8       ?IsInExceptionSpec@@YAEPEAUEHExceptionRecord@@PEBU_s_ESTypeList@@@Z 00000001800161d8 f   libvcruntime:frame.obj
 0001:000152c8       ?Is_bad_exception_allowed@@YAEPEBU_s_ESTypeList@@@Z 00000001800162c8 f   libvcruntime:frame.obj
 0001:000155a4       ?try_get_function@@YAPEAXW4function_id@?A0xbc0cc709@@QEBDQEBW4module_id@2@2@Z 00000001800165a4 f   libvcruntime:winapi_downlevel.obj
 0001:00015890       $$000000                   0000000180016890     libvcruntime:handlers.obj
 0001:000162bc       ??$common_vsprintf@Vformat_validation_base@__crt_stdio_output@@_W@@YAH_KQEA_W0QEB_WAEAV__crt_cached_ptd_host@@QEAD@Z 00000001800172bc f   libucrt:output.obj
 0001:00018a0c       ??$?RV<lambda_d80eeec6fff315bfe5c115232f3240e3>@@AEAV<lambda_6e4b09c48022b2350581041d5f6b0c4c>@@V<lambda_2358e3775559c9db80273638284d5e45>@@@?$__crt_seh_guarded_call@X@@QEAAX$$QEAV<lambda_d80eeec6fff315bfe5c115232f3240e3>@@AEAV<lambda_6e4b09c48022b2350581041d5f6b0c4c>@@$$QEAV<lambda_2358e3775559c9db80273638284d5e45>@@@Z 0000000180019a0c f   libucrt:exit.obj
 0001:00018a44       ??R<lambda_6e4b09c48022b2350581041d5f6b0c4c>@@QEBA@XZ 0000000180019a44 f   libucrt:exit.obj
 0001:00018b10       ?common_exit@@YAXHW4_crt_exit_cleanup_mode@@W4_crt_exit_return_mode@@@Z 0000000180019b10 f   libucrt:exit.obj
 0001:00018bd8       ?exit_or_terminate_process@@YAXI@Z 0000000180019bd8 f   libucrt:exit.obj
 0001:00018c0c       ?should_call_terminate_process@@YA_NXZ 0000000180019c0c f   libucrt:exit.obj
 0001:00018c3c       ?try_cor_exit_process@@YAXI@Z 0000000180019c3c f   libucrt:exit.obj
 0001:00018cd8       ??$parse_command_line@D@@YAXPEADPEAPEAD0PEA_K2@Z 0000000180019cd8 f   libucrt:argv_parsing.obj
 0001:00019080       ??$common_initialize_environment_nolock@D@@YAHXZ 000000018001a080 f   libucrt:environment_initialization.obj
 0001:000190f4       ??$create_environment@D@@YAQEAPEADQEAD@Z 000000018001a0f4 f   libucrt:environment_initialization.obj
 0001:00019204       ??$free_environment@D@@YAXQEAPEAD@Z 000000018001a204 f   libucrt:environment_initialization.obj
 0001:00019204       ??$free_environment@_W@@YAXQEAPEA_W@Z 000000018001a204 f   libucrt:environment_initialization.obj
 0001:00019248       ??$uninitialize_environment_internal@D@@YAXAEAPEAPEAD@Z 000000018001a248 f   libucrt:environment_initialization.obj
 0001:00019264       ??$uninitialize_environment_internal@_W@@YAXAEAPEAPEA_W@Z 000000018001a264 f   libucrt:environment_initialization.obj
 0001:000192cc       ??$?RV<lambda_638799b9deba96c50f710eeac98168cd>@@AEAV<lambda_22ebabd17bc4fa466a2aca6d8deb888d>@@V<lambda_a6f7d7db0129f75315ebf26d50c089f1>@@@?$__crt_seh_guarded_call@H@@QEAAH$$QEAV<lambda_638799b9deba96c50f710eeac98168cd>@@AEAV<lambda_22ebabd17bc4fa466a2aca6d8deb888d>@@$$QEAV<lambda_a6f7d7db0129f75315ebf26d50c089f1>@@@Z 000000018001a2cc f   libucrt:onexit.obj
 0001:00019308       ??$?RV<lambda_7777bce6b2f8c936911f934f8298dc43>@@AEAV<lambda_f03950bc5685219e0bcd2087efbe011e>@@V<lambda_3883c3dff614d5e0c5f61bb1ac94921c>@@@?$__crt_seh_guarded_call@H@@QEAAH$$QEAV<lambda_7777bce6b2f8c936911f934f8298dc43>@@AEAV<lambda_f03950bc5685219e0bcd2087efbe011e>@@$$QEAV<lambda_3883c3dff614d5e0c5f61bb1ac94921c>@@@Z 000000018001a308 f   libucrt:onexit.obj
 0001:00019344       ??R<lambda_22ebabd17bc4fa466a2aca6d8deb888d>@@QEBAHXZ 000000018001a344 f   libucrt:onexit.obj
 0001:000194f4       ??R<lambda_f03950bc5685219e0bcd2087efbe011e>@@QEBAHXZ 000000018001a4f4 f   libucrt:onexit.obj
 0001:000196d8       initialize_global_variables 000000018001a6d8 f   libucrt:initialization.obj
 0001:000196ec       initialize_c               000000018001a6ec f   libucrt:initialization.obj
 0001:00019710       initialize_environment     000000018001a710 f   libucrt:initialization.obj
 0001:00019710       initialize_global_state_isolation 000000018001a710 f   libucrt:initialization.obj
 0001:00019710       report_memory_leaks        000000018001a710 f   libucrt:initialization.obj
 0001:00019710       uninitialize_c             000000018001a710 f   libucrt:initialization.obj
 0001:00019710       uninitialize_global_state_isolation 000000018001a710 f   libucrt:initialization.obj
 0001:00019714       uninitialize_environment   000000018001a714 f   libucrt:initialization.obj
 0001:00019724       initialize_pointers        000000018001a724 f   libucrt:initialization.obj
 0001:00019764       uninitialize_vcruntime     000000018001a764 f   libucrt:initialization.obj
 0001:0001976c       uninitialize_allocated_memory 000000018001a76c f   libucrt:initialization.obj
 0001:000197ac       uninitialize_allocated_io_buffers 000000018001a7ac f   libucrt:initialization.obj
 0001:00019a70       $$000000                   000000018001aa70     libucrt:strncmp.obj
 0001:00019b68       ??$?RV<lambda_0ae27a3a962d80f24befdcbee591983d>@@AEAV<lambda_8d0ee55de4b1038c4002e0adecdf1839>@@V<lambda_dc504788e8f1664fe9b84e20bfb512f2>@@@?$__crt_seh_guarded_call@X@@QEAAX$$QEAV<lambda_0ae27a3a962d80f24befdcbee591983d>@@AEAV<lambda_8d0ee55de4b1038c4002e0adecdf1839>@@$$QEAV<lambda_dc504788e8f1664fe9b84e20bfb512f2>@@@Z 000000018001ab68 f   libucrt:per_thread_data.obj
 0001:00019ba8       ??$?RV<lambda_2d41944a1d46af3157314b8a01080d33>@@AEAV<lambda_8f455de75cd7d7f24b4096f044d8b9e6>@@V<lambda_aa500f224e6afead328df44964fe2772>@@@?$__crt_seh_guarded_call@X@@QEAAX$$QEAV<lambda_2d41944a1d46af3157314b8a01080d33>@@AEAV<lambda_8f455de75cd7d7f24b4096f044d8b9e6>@@$$QEAV<lambda_aa500f224e6afead328df44964fe2772>@@@Z 000000018001aba8 f   libucrt:per_thread_data.obj
 0001:00019be8       ??$?RV<lambda_aa87e3671a710a21b5dc78c0bdf72e11>@@AEAV<lambda_92619d2358a28f41a33ba319515a20b9>@@V<lambda_6992ecaafeb10aed2b74cb1fae11a551>@@@?$__crt_seh_guarded_call@X@@QEAAX$$QEAV<lambda_aa87e3671a710a21b5dc78c0bdf72e11>@@AEAV<lambda_92619d2358a28f41a33ba319515a20b9>@@$$QEAV<lambda_6992ecaafeb10aed2b74cb1fae11a551>@@@Z 000000018001abe8 f   libucrt:per_thread_data.obj
 0001:00019c30       ??$?RV<lambda_f2e299630e499de9f9a165e60fcd3db5>@@AEAV<lambda_2ae9d31cdba2644fcbeaf08da7c24588>@@V<lambda_40d01ff24d0e7b3814fdbdcee8eab3c7>@@@?$__crt_seh_guarded_call@X@@QEAAX$$QEAV<lambda_f2e299630e499de9f9a165e60fcd3db5>@@AEAV<lambda_2ae9d31cdba2644fcbeaf08da7c24588>@@$$QEAV<lambda_40d01ff24d0e7b3814fdbdcee8eab3c7>@@@Z 000000018001ac30 f   libucrt:per_thread_data.obj
 0001:00019c90       ?construct_ptd_array@@YAXQEAU__acrt_ptd@@@Z 000000018001ac90 f   libucrt:per_thread_data.obj
 0001:00019d60       ?destroy_fls@@YAXPEAX@Z    000000018001ad60 f   libucrt:per_thread_data.obj
 0001:00019d80       ?destroy_ptd_array@@YAXQEAU__acrt_ptd@@@Z 000000018001ad80 f   libucrt:per_thread_data.obj
 0001:00019e78       ?replace_current_thread_locale_nolock@@YAXQEAU__acrt_ptd@@QEAU__crt_locale_data@@@Z 000000018001ae78 f   libucrt:per_thread_data.obj
 0001:0001a284       ??$?RV<lambda_410d79af7f07d98d83a3f525b3859a53>@@AEAV<lambda_3e16ef9562a7dcce91392c22ab16ea36>@@V<lambda_38119f0e861e05405d8a144b9b982f0a>@@@?$__crt_seh_guarded_call@X@@QEAAX$$QEAV<lambda_410d79af7f07d98d83a3f525b3859a53>@@AEAV<lambda_3e16ef9562a7dcce91392c22ab16ea36>@@$$QEAV<lambda_38119f0e861e05405d8a144b9b982f0a>@@@Z 000000018001b284 f   libucrt:wsetlocale.obj
 0001:0001a4c0       ?try_get_function@@YAPEAXW4function_id@?A0x391cf84c@@QEBDQEBW4module_id@2@2@Z 000000018001b4c0 f   libucrt:winapi_thunks.obj
 0001:0001ac5c       ?fp_format_a@@YAHQEBNPEAD_KQEAD2H_NIW4__acrt_rounding_mode@@AEAV__crt_cached_ptd_host@@@Z 000000018001bc5c f   libucrt:cvt.obj
 0001:0001b010       ?fp_format_e@@YAHQEBNQEAD_K12H_NIW4__acrt_rounding_mode@@AEAV__crt_cached_ptd_host@@@Z 000000018001c010 f   libucrt:cvt.obj
 0001:0001b10c       ?fp_format_e_internal@@YAHQEAD_KH_NIQEAU_strflt@@2AEAV__crt_cached_ptd_host@@@Z 000000018001c10c f   libucrt:cvt.obj
 0001:0001b2f0       ?fp_format_f@@YAHQEBNQEAD_K12HW4__acrt_rounding_mode@@AEAV__crt_cached_ptd_host@@@Z 000000018001c2f0 f   libucrt:cvt.obj
 0001:0001b3c8       ?fp_format_f_internal@@YAHQEAD_KHQEAU_strflt@@_NAEAV__crt_cached_ptd_host@@@Z 000000018001c3c8 f   libucrt:cvt.obj
 0001:0001b520       ?fp_format_g@@YAHQEBNQEAD_K12H_NIW4__acrt_rounding_mode@@AEAV__crt_cached_ptd_host@@@Z 000000018001c520 f   libucrt:cvt.obj
 0001:0001b674       ?should_round_up@@YA_NQEBN_KFW4__acrt_rounding_mode@@@Z 000000018001c674 f   libucrt:cvt.obj
 0001:0001bdc0       ?initialize_inherited_file_handles_nolock@@YAXXZ 000000018001cdc0 f   libucrt:ioinit.obj
 0001:0001beb0       ?initialize_stdio_handles_nolock@@YAXXZ 000000018001ceb0 f   libucrt:ioinit.obj
 0001:0001c128       ?<lambda_invoker_cdecl>@<lambda_a1ce4c8ae42411fd470c77163914f50e>@@CAHPEBX0@Z 000000018001d128 f   libucrt:argv_wildcards.obj
 0001:0001c444       ??$common_expand_argv_wildcards@D@@YAHQEAPEADQEAPEAPEAD@Z 000000018001d444 f   libucrt:argv_wildcards.obj
 0001:0001c688       ??$copy_and_add_argument_to_buffer@D@@YAHQEBD0_KAEAV?$argument_list@D@?A0x5f5c8891@@@Z 000000018001d688 f   libucrt:argv_wildcards.obj
 0001:0001c810       ??$expand_argument_wildcards@D@@YAHQEAD0AEAV?$argument_list@D@?A0x5f5c8891@@@Z 000000018001d810 f   libucrt:argv_wildcards.obj
 0001:0001ce44       ??$?RV<lambda_efdfa57d1f175319df784efa44bb7b81>@@AEAV<lambda_5f0a4c1567f8adc6734073e5d1e1b35c>@@V<lambda_2e8a7d3640ea6ccb4c2413664c2db6fd>@@@?$__crt_seh_guarded_call@X@@QEAAX$$QEAV<lambda_efdfa57d1f175319df784efa44bb7b81>@@AEAV<lambda_5f0a4c1567f8adc6734073e5d1e1b35c>@@$$QEAV<lambda_2e8a7d3640ea6ccb4c2413664c2db6fd>@@@Z 000000018001de44 f   libucrt:mbctype.obj
 0001:0001d014       ?getSystemCP@@YAHH@Z       000000018001e014 f   libucrt:mbctype.obj
 0001:0001d094       ?setSBCS@@YAXPEAU__crt_multibyte_data@@@Z 000000018001e094 f   libucrt:mbctype.obj
 0001:0001d12c       ?setSBUpLow@@YAXPEAU__crt_multibyte_data@@@Z 000000018001e12c f   libucrt:mbctype.obj
 0001:0001d314       ?setmbcp_internal@@YAHH_NQEAU__acrt_ptd@@QEAPEAU__crt_multibyte_data@@@Z 000000018001e314 f   libucrt:mbctype.obj
 0001:0001d584       ?update_thread_multibyte_data_internal@@YAPEAU__crt_multibyte_data@@QEAU__acrt_ptd@@QEAPEAU1@@Z 000000018001e584 f   libucrt:mbctype.obj
 0001:0001d978       ?x_ismbbtype_l@@YAHPEAU__crt_locale_pointers@@IHH@Z 000000018001e978 f   libucrt:ismbbyte.obj
 0001:0001dd48       ??$?RV<lambda_450d765d439847d4c735a33c368b5fc0>@@AEAV<lambda_44731a7d0e6d81c3e6aa82d741081786>@@V<lambda_601a2a7da3b7a96e9554ac7215c4b07c>@@@?$__crt_seh_guarded_call@P6AXH@Z@@QEAAP6AXH@Z$$QEAV<lambda_450d765d439847d4c735a33c368b5fc0>@@AEAV<lambda_44731a7d0e6d81c3e6aa82d741081786>@@$$QEAV<lambda_601a2a7da3b7a96e9554ac7215c4b07c>@@@Z 000000018001ed48 f   libucrt:signal.obj
 0001:0001e0c0       ??$?RV<lambda_842d9ff0dc9ef11c61343bbaebe7f885>@@AEAV<lambda_c5860995281e5c4ce005b3de8f5874ee>@@V<lambda_d90129c13df834fdcbf8d2b88dafcf2d>@@@?$__crt_seh_guarded_call@X@@QEAAX$$QEAV<lambda_842d9ff0dc9ef11c61343bbaebe7f885>@@AEAV<lambda_c5860995281e5c4ce005b3de8f5874ee>@@$$QEAV<lambda_d90129c13df834fdcbf8d2b88dafcf2d>@@@Z 000000018001f0c0 f   libucrt:fflush.obj
 0001:0001e15c       ??$?RV<lambda_886d6c58226a84441f68b9f2b8217b83>@@AEAV<lambda_ab61a845afdef5b7c387490eaf3616ee>@@V<lambda_f7f22ab5edc0698d5f6905b0d3f44752>@@@?$__crt_seh_guarded_call@X@@QEAAX$$QEAV<lambda_886d6c58226a84441f68b9f2b8217b83>@@AEAV<lambda_ab61a845afdef5b7c387490eaf3616ee>@@$$QEAV<lambda_f7f22ab5edc0698d5f6905b0d3f44752>@@@Z 000000018001f15c f   libucrt:fflush.obj
 0001:0001e23c       ?common_flush_all@@YAH_N@Z 000000018001f23c f   libucrt:fflush.obj
 0001:0001e988       ?free_crt_array_internal@@YAXQEAPEBX_K@Z 000000018001f988 f   libucrt:inittime.obj
 0001:0002056c       memcpy_s                   000000018002156c f   libucrt:cfout.obj
 0001:00021170       fallbackMethod             0000000180022170 f   libucrt:strpbrk.obj
 0001:0002151c       $LN78                      000000018002251c     libucrt:strpbrk.obj
 0001:00021558       $LN77                      0000000180022558     libucrt:strpbrk.obj
 0001:00021598       $LN76                      0000000180022598     libucrt:strpbrk.obj
 0001:00021674       ?__acrt_LCMapStringA_stat@@YAHPEAU__crt_locale_pointers@@PEB_WKPEBDHPEADHHH@Z 0000000180022674 f   libucrt:lcmapstringa.obj
 0001:00021a2c       ?initialize_multibyte@@YAHXZ 0000000180022a2c f   libucrt:multibyte_initializer.obj
 0001:00021a44       ??$?RV<lambda_a37b2b86f63e897a80ea819b0eb08c01>@@AEAV<lambda_38ce7e780aa69e748d6df282ebc68efe>@@V<lambda_99fb1378e971ab6e7edea83e3a7a83a2>@@@?$__crt_seh_guarded_call@H@@QEAAH$$QEAV<lambda_a37b2b86f63e897a80ea819b0eb08c01>@@AEAV<lambda_38ce7e780aa69e748d6df282ebc68efe>@@$$QEAV<lambda_99fb1378e971ab6e7edea83e3a7a83a2>@@@Z 0000000180022a44 f   libucrt:commit.obj
 0001:00021b64       ?write_double_translated_ansi_nolock@@YA?AUwrite_result@?A0x17268360@@HQEBDIAEAV__crt_cached_ptd_host@@@Z 0000000180022b64 f   libucrt:write.obj
 0001:00021ff0       ?write_text_ansi_nolock@@YA?AUwrite_result@?A0x17268360@@HQEBDI@Z 0000000180022ff0 f   libucrt:write.obj
 0001:000220f4       ?write_text_utf16le_nolock@@YA?AUwrite_result@?A0x17268360@@HQEBDI@Z 00000001800230f4 f   libucrt:write.obj
 0001:00022210       ?write_text_utf8_nolock@@YA?AUwrite_result@?A0x17268360@@HQEBDI@Z 0000000180023210 f   libucrt:write.obj
 0001:000229f0       $$000000                   00000001800239f0     libucrt:log10.obj
 0001:0002348c       ?_fclose_internal@@YAHQEAU_iobuf@@AEAV__crt_cached_ptd_host@@@Z 000000018002448c f   libucrt:fclose.obj
 0001:00023508       ?_fclose_nolock_internal@@YAHQEAU_iobuf@@AEAV__crt_cached_ptd_host@@@Z 0000000180024508 f   libucrt:fclose.obj
 0001:00023644       ??$common_lseek_nolock@_J@@YA_JH_JHAEAV__crt_cached_ptd_host@@@Z 0000000180024644 f   libucrt:lseek.obj
 0001:000237cc       common_control87           00000001800247cc f   libucrt:ieee.obj
 0001:00023a8c       _call_matherr              0000000180024a8c f   libucrt:libm_error.obj
 0001:00023af4       _exception_enabled         0000000180024af4 f   libucrt:libm_error.obj
 0001:00023d90       _log_special_common        0000000180024d90 f   libucrt:log_special.obj
 0001:00023e28       ??$?RV<lambda_ad8af0d99a0adf03d037d7dffe354bb5>@@AEAV<lambda_c9ba49e555ba839a7b07aa3fbecb7617>@@V<lambda_2f1ebd5d68526518146ae959c9e734c8>@@@?$__crt_seh_guarded_call@H@@QEAAH$$QEAV<lambda_ad8af0d99a0adf03d037d7dffe354bb5>@@AEAV<lambda_c9ba49e555ba839a7b07aa3fbecb7617>@@$$QEAV<lambda_2f1ebd5d68526518146ae959c9e734c8>@@@Z 0000000180024e28 f   libucrt:close.obj
 0001:00024180       $$000000                   0000000180025180     libucrt:fpsr.obj
 0001:00024900       $$000000                   0000000180025900     LIBCMT:guard_dispatch.obj
 0001:00024920       $$000000                   0000000180025920     LIBCMT:guard_xfg_dispatch.obj
 0001:00024940       ?filt$0@?0??_AtlVerifyStackAvailable@_ATL_SAFE_ALLOCA_IMPL@ATL@@YA_N_K@Z@4HA 0000000180025940 f   PointCardRW.obj
 0001:00024961       __scrt_is_nonwritable_in_current_image$filt$0 0000000180025961 f   LIBCMT:utility.obj
 0001:00024979       ?catch$0@?0???2@YAPEAX_KAEBUnothrow_t@std@@@Z@4HA 0000000180025979 f   LIBCMT:new_scalar_nothrow.obj
 0001:00024986       __catch$??2@YAPEAX_KAEBUnothrow_t@std@@@Z$0 0000000180025986 f   LIBCMT:new_scalar_nothrow.obj
 0001:00024997       ?fin$0@?0??dllmain_crt_process_attach@@YAHQEAUHINSTANCE__@@QEAX@Z@4HA 0000000180025997 f   LIBCMT:dll_dllmain.obj
 0001:000249ae       ?fin$0@?0??dllmain_crt_process_detach@@YAH_N@Z@4HA 00000001800259ae f   LIBCMT:dll_dllmain.obj
 0001:000249c7       ?fin$1@?0??dllmain_crt_process_detach@@YAH_N@Z@4HA 00000001800259c7 f   LIBCMT:dll_dllmain.obj
 0001:000249db       ?filt$0@?0??dllmain_dispatch@@YAHQEAUHINSTANCE__@@KQEAX@Z@4HA 00000001800259db f   LIBCMT:dll_dllmain.obj
 0001:00024a11       ?filt$0@?0???$_CallSETranslator@V__FrameHandler3@@@@YAHPEAUEHExceptionRecord@@PEA_KPEAU_CONTEXT@@PEAU_xDISPATCHER_CONTEXT@@PEBU_s_FuncInfo@@K1H@Z@4HA 0000000180025a11 f   libvcruntime:risctrnsctrl.obj
 0001:00024aa2       ?filt$0@?0???$_CallSETranslator@V__FrameHandler4@@@@YAHPEAUEHExceptionRecord@@PEA_KPEAU_CONTEXT@@PEAU_xDISPATCHER_CONTEXT@@PEAUFuncInfo4@FH4@@K1H@Z@4HA 0000000180025aa2 f   libvcruntime:risctrnsctrl.obj
 0001:00024b41       __DestructExceptionObject$filt$0 0000000180025b41 f   libvcruntime:ehhelpers.obj
 0001:00024bd7       ?filt$0@?0??CxxCallCatchBlock@__FrameHandler3@@SAPEAXPEAU_EXCEPTION_RECORD@@@Z@4HA 0000000180025bd7 f   libvcruntime:frame.obj
 0001:00024bfc       ?fin$1@?0??CxxCallCatchBlock@__FrameHandler3@@SAPEAXPEAU_EXCEPTION_RECORD@@@Z@4HA 0000000180025bfc f   libvcruntime:frame.obj
 0001:00024c82       ?filt$0@?0??CxxCallCatchBlock@__FrameHandler4@@SAPEAXPEAU_EXCEPTION_RECORD@@@Z@4HA 0000000180025c82 f   libvcruntime:frame.obj
 0001:00024cb1       ?fin$1@?0??CxxCallCatchBlock@__FrameHandler4@@SAPEAXPEAU_EXCEPTION_RECORD@@@Z@4HA 0000000180025cb1 f   libvcruntime:frame.obj
 0001:00024d42       ?filt$0@?0??FrameUnwindToState@__FrameHandler3@@SAXPEA_KPEAU_xDISPATCHER_CONTEXT@@PEBU_s_FuncInfo@@H@Z@4HA 0000000180025d42 f   libvcruntime:frame.obj
 0001:00024d58       ?fin$1@?0??FrameUnwindToState@__FrameHandler3@@SAXPEA_KPEAU_xDISPATCHER_CONTEXT@@PEBU_s_FuncInfo@@H@Z@4HA 0000000180025d58 f   libvcruntime:frame.obj
 0001:00024d7b       ?filt$0@?0??FrameUnwindToState@__FrameHandler4@@SAXPEA_KPEAU_xDISPATCHER_CONTEXT@@PEAUFuncInfo4@FH4@@H@Z@4HA 0000000180025d7b f   libvcruntime:frame.obj
 0001:00024d91       ?fin$1@?0??FrameUnwindToState@__FrameHandler4@@SAXPEA_KPEAU_xDISPATCHER_CONTEXT@@PEAUFuncInfo4@FH4@@H@Z@4HA 0000000180025d91 f   libvcruntime:frame.obj
 0001:00024db4       ?fin$0@?0???$?RV<lambda_0ae27a3a962d80f24befdcbee591983d>@@AEAV<lambda_8d0ee55de4b1038c4002e0adecdf1839>@@V<lambda_dc504788e8f1664fe9b84e20bfb512f2>@@@?$__crt_seh_guarded_call@X@@QEAAX$$QEAV<lambda_0ae27a3a962d80f24befdcbee591983d>@@AEAV<lambda_8d0ee55de4b1038c4002e0adecdf1839>@@$$QEAV<lambda_dc504788e8f1664fe9b84e20bfb512f2>@@@Z@4HA 0000000180025db4 f   libucrt:per_thread_data.obj
 0001:00024db4       ?fin$0@?0???$?RV<lambda_2d41944a1d46af3157314b8a01080d33>@@AEAV<lambda_8f455de75cd7d7f24b4096f044d8b9e6>@@V<lambda_aa500f224e6afead328df44964fe2772>@@@?$__crt_seh_guarded_call@X@@QEAAX$$QEAV<lambda_2d41944a1d46af3157314b8a01080d33>@@AEAV<lambda_8f455de75cd7d7f24b4096f044d8b9e6>@@$$QEAV<lambda_aa500f224e6afead328df44964fe2772>@@@Z@4HA 0000000180025db4 f   libucrt:per_thread_data.obj
 0001:00024db4       ?fin$0@?0???$?RV<lambda_aa87e3671a710a21b5dc78c0bdf72e11>@@AEAV<lambda_92619d2358a28f41a33ba319515a20b9>@@V<lambda_6992ecaafeb10aed2b74cb1fae11a551>@@@?$__crt_seh_guarded_call@X@@QEAAX$$QEAV<lambda_aa87e3671a710a21b5dc78c0bdf72e11>@@AEAV<lambda_92619d2358a28f41a33ba319515a20b9>@@$$QEAV<lambda_6992ecaafeb10aed2b74cb1fae11a551>@@@Z@4HA 0000000180025db4 f   libucrt:per_thread_data.obj
 0001:00024db4       ?fin$0@?0???$?RV<lambda_f2e299630e499de9f9a165e60fcd3db5>@@AEAV<lambda_2ae9d31cdba2644fcbeaf08da7c24588>@@V<lambda_40d01ff24d0e7b3814fdbdcee8eab3c7>@@@?$__crt_seh_guarded_call@X@@QEAAX$$QEAV<lambda_f2e299630e499de9f9a165e60fcd3db5>@@AEAV<lambda_2ae9d31cdba2644fcbeaf08da7c24588>@@$$QEAV<lambda_40d01ff24d0e7b3814fdbdcee8eab3c7>@@@Z@4HA 0000000180025db4 f   libucrt:per_thread_data.obj
 0001:00024db4       ?fin$0@?0???$?RV<lambda_450d765d439847d4c735a33c368b5fc0>@@AEAV<lambda_44731a7d0e6d81c3e6aa82d741081786>@@V<lambda_601a2a7da3b7a96e9554ac7215c4b07c>@@@?$__crt_seh_guarded_call@P6AXH@Z@@QEAAP6AXH@Z$$QEAV<lambda_450d765d439847d4c735a33c368b5fc0>@@AEAV<lambda_44731a7d0e6d81c3e6aa82d741081786>@@$$QEAV<lambda_601a2a7da3b7a96e9554ac7215c4b07c>@@@Z@4HA 0000000180025db4 f   libucrt:signal.obj
 0001:00024db4       ?fin$0@?0???$?RV<lambda_d80eeec6fff315bfe5c115232f3240e3>@@AEAV<lambda_6e4b09c48022b2350581041d5f6b0c4c>@@V<lambda_2358e3775559c9db80273638284d5e45>@@@?$__crt_seh_guarded_call@X@@QEAAX$$QEAV<lambda_d80eeec6fff315bfe5c115232f3240e3>@@AEAV<lambda_6e4b09c48022b2350581041d5f6b0c4c>@@$$QEAV<lambda_2358e3775559c9db80273638284d5e45>@@@Z@4HA 0000000180025db4 f   libucrt:exit.obj
 0001:00024db4       ?fin$0@?0???$?RV<lambda_638799b9deba96c50f710eeac98168cd>@@AEAV<lambda_22ebabd17bc4fa466a2aca6d8deb888d>@@V<lambda_a6f7d7db0129f75315ebf26d50c089f1>@@@?$__crt_seh_guarded_call@H@@QEAAH$$QEAV<lambda_638799b9deba96c50f710eeac98168cd>@@AEAV<lambda_22ebabd17bc4fa466a2aca6d8deb888d>@@$$QEAV<lambda_a6f7d7db0129f75315ebf26d50c089f1>@@@Z@4HA 0000000180025db4 f   libucrt:onexit.obj
 0001:00024db4       ?fin$0@?0???$?RV<lambda_7777bce6b2f8c936911f934f8298dc43>@@AEAV<lambda_f03950bc5685219e0bcd2087efbe011e>@@V<lambda_3883c3dff614d5e0c5f61bb1ac94921c>@@@?$__crt_seh_guarded_call@H@@QEAAH$$QEAV<lambda_7777bce6b2f8c936911f934f8298dc43>@@AEAV<lambda_f03950bc5685219e0bcd2087efbe011e>@@$$QEAV<lambda_3883c3dff614d5e0c5f61bb1ac94921c>@@@Z@4HA 0000000180025db4 f   libucrt:onexit.obj
 0001:00024dce       ?filt$0@?0???R<lambda_6e4b09c48022b2350581041d5f6b0c4c>@@QEBA@XZ@4HA 0000000180025dce f   libucrt:exit.obj
 0001:00024dfb       _query_new_handler$fin$0   0000000180025dfb f   libucrt:new_handler.obj
 0001:00024e11       ?fin$0@?0???$?RV<lambda_410d79af7f07d98d83a3f525b3859a53>@@AEAV<lambda_3e16ef9562a7dcce91392c22ab16ea36>@@V<lambda_38119f0e861e05405d8a144b9b982f0a>@@@?$__crt_seh_guarded_call@X@@QEAAX$$QEAV<lambda_410d79af7f07d98d83a3f525b3859a53>@@AEAV<lambda_3e16ef9562a7dcce91392c22ab16ea36>@@$$QEAV<lambda_38119f0e861e05405d8a144b9b982f0a>@@@Z@4HA 0000000180025e11 f   libucrt:wsetlocale.obj
 0001:00024e2b       __acrt_initialize_lowio$fin$0 0000000180025e2b f   libucrt:ioinit.obj
 0001:00024e2b       __acrt_lowio_ensure_fh_exists$fin$0 0000000180025e2b f   libucrt:osfinfo.obj
 0001:00024e44       ?fin$0@?0???$?RV<lambda_efdfa57d1f175319df784efa44bb7b81>@@AEAV<lambda_5f0a4c1567f8adc6734073e5d1e1b35c>@@V<lambda_2e8a7d3640ea6ccb4c2413664c2db6fd>@@@?$__crt_seh_guarded_call@X@@QEAAX$$QEAV<lambda_efdfa57d1f175319df784efa44bb7b81>@@AEAV<lambda_5f0a4c1567f8adc6734073e5d1e1b35c>@@$$QEAV<lambda_2e8a7d3640ea6ccb4c2413664c2db6fd>@@@Z@4HA 0000000180025e44 f   libucrt:mbctype.obj
 0001:00024e5e       ?fin$0@?0??update_thread_multibyte_data_internal@@YAPEAU__crt_multibyte_data@@QEAU__acrt_ptd@@QEAPEAU1@@Z@4HA 0000000180025e5e f   libucrt:mbctype.obj
 0001:00024e77       raise$fin$0                0000000180025e77 f   libucrt:signal.obj
 0001:00024e98       ?fin$0@?0???$?RV<lambda_842d9ff0dc9ef11c61343bbaebe7f885>@@AEAV<lambda_c5860995281e5c4ce005b3de8f5874ee>@@V<lambda_d90129c13df834fdcbf8d2b88dafcf2d>@@@?$__crt_seh_guarded_call@X@@QEAAX$$QEAV<lambda_842d9ff0dc9ef11c61343bbaebe7f885>@@AEAV<lambda_c5860995281e5c4ce005b3de8f5874ee>@@$$QEAV<lambda_d90129c13df834fdcbf8d2b88dafcf2d>@@@Z@4HA 0000000180025e98 f   libucrt:fflush.obj
 0001:00024eb3       ?fin$0@?0???$?RV<lambda_886d6c58226a84441f68b9f2b8217b83>@@AEAV<lambda_ab61a845afdef5b7c387490eaf3616ee>@@V<lambda_f7f22ab5edc0698d5f6905b0d3f44752>@@@?$__crt_seh_guarded_call@X@@QEAAX$$QEAV<lambda_886d6c58226a84441f68b9f2b8217b83>@@AEAV<lambda_ab61a845afdef5b7c387490eaf3616ee>@@$$QEAV<lambda_f7f22ab5edc0698d5f6905b0d3f44752>@@@Z@4HA 0000000180025eb3 f   libucrt:fflush.obj
 0001:00024ed0       __acrt_update_thread_locale_data$fin$0 0000000180025ed0 f   libucrt:locale_refcounting.obj
 0001:00024ee9       _fcloseall$fin$0           0000000180025ee9 f   libucrt:closeall.obj
 0001:00024f02       ?fin$0@?0???$?RV<lambda_ad8af0d99a0adf03d037d7dffe354bb5>@@AEAV<lambda_c9ba49e555ba839a7b07aa3fbecb7617>@@V<lambda_2f1ebd5d68526518146ae959c9e734c8>@@@?$__crt_seh_guarded_call@H@@QEAAH$$QEAV<lambda_ad8af0d99a0adf03d037d7dffe354bb5>@@AEAV<lambda_c9ba49e555ba839a7b07aa3fbecb7617>@@$$QEAV<lambda_2f1ebd5d68526518146ae959c9e734c8>@@@Z@4HA 0000000180025f02 f   libucrt:close.obj
 0001:00024f02       ?fin$0@?0???$?RV<lambda_a37b2b86f63e897a80ea819b0eb08c01>@@AEAV<lambda_38ce7e780aa69e748d6df282ebc68efe>@@V<lambda_99fb1378e971ab6e7edea83e3a7a83a2>@@@?$__crt_seh_guarded_call@H@@QEAAH$$QEAV<lambda_a37b2b86f63e897a80ea819b0eb08c01>@@AEAV<lambda_38ce7e780aa69e748d6df282ebc68efe>@@$$QEAV<lambda_99fb1378e971ab6e7edea83e3a7a83a2>@@@Z@4HA 0000000180025f02 f   libucrt:commit.obj
 0001:00024f1c       _write_internal$fin$0      0000000180025f1c f   libucrt:write.obj
 0001:00024f33       ?fin$0@?0??_fclose_internal@@YAHQEAU_iobuf@@AEAV__crt_cached_ptd_host@@@Z@4HA 0000000180025f33 f   libucrt:fclose.obj
 0001:00024f4b       _ctrlfp$filt$0             0000000180025f4b f   libucrt:fpctrl.obj
 0001:00024f4b       common_control87$filt$0    0000000180025f4b f   libucrt:ieee.obj
 0001:00024f80       _IsNonwritableInCurrentImage$filt$0 0000000180025f80 f   LIBCMT:pesect.obj
 0001:00024fa0       ??__F_AtlComModule@ATL@@YAXXZ 0000000180025fa0 f   OposVariant.obj
 0001:00024fac       ??__F_AtlWinModule@ATL@@YAXXZ 0000000180025fac f   OposVariant.obj
 0001:00024ff0       ??__F_Module@@YAXXZ        0000000180025ff0 f   PointCardRW.obj
 0001:0002500c       ??__F_AtlBaseModule@ATL@@YAXXZ 000000018002600c f   atls:atlbase.obj
 0002:00000670       ?_AtlBaseModule$initializer$@ATL@@3P6AXXZEA 0000000180027670     atls:atlbase.obj
 0002:00000678       ?_AtlComModule$initializer$@ATL@@3P6AXXZEA 0000000180027678     OposVariant.obj
 0002:00000680       ?_AtlWinModule$initializer$@ATL@@3P6AXXZEA 0000000180027680     OposVariant.obj
 0002:00000688       ?_Module$initializer$@@3P6AXXZEA 0000000180027688     PointCardRW.obj
 0002:00000690       ??pConnMap$initializer$@?$IConnectionPointContainerImpl@VCOPOSPointCardRW@@@ATL@@0P6AXXZEA@@3P6AXXZEA 0000000180027690     PointCardRW.obj
 0002:000006a8       ?__scrt_initialize_tss_var@@3P6AHXZEA 00000001800276a8     LIBCMT:thread_safe_statics.obj
 0002:00002bc8       GS_ExceptionPointers       0000000180029bc8     LIBCMT:gs_report.obj
 0002:00002db0       ?ExceptionTemplate@?1??UnwindNestedFrames@__FrameHandler4@@SAXPEA_KPEAUEHExceptionRecord@@PEAU_CONTEXT@@0PEAXPEAUFuncInfo4@FH4@@HHPEAUHandlerType4@6@PEAU_xDISPATCHER_CONTEXT@@E@Z@4U_EXCEPTION_RECORD@@B 0000000180029db0     libvcruntime:risctrnsctrl.obj
 0002:00002e50       ?ExceptionTemplate@?1??UnwindNestedFrames@__FrameHandler3@@SAXPEA_KPEAUEHExceptionRecord@@PEAU_CONTEXT@@0PEAXPEBU_s_FuncInfo@@HHPEBU_s_HandlerType@@PEAU_xDISPATCHER_CONTEXT@@E@Z@4U_EXCEPTION_RECORD@@B 0000000180029e50     libvcruntime:risctrnsctrl.obj
 0002:00002f20       ?tokenTable@@3QBUStringLiteral@@B 0000000180029f20     libvcruntime:undname.obj
 0002:00003030       ?nameTable@@3QBUStringLiteral@@B 000000018002a030     libvcruntime:undname.obj
 0002:00003560       ?rttiTable@@3QBUStringLiteral@@B 000000018002a560     libvcruntime:undname.obj
 0002:000035b0       ?IndirectionName@@3QBUStringLiteral@@B 000000018002a5b0     libvcruntime:undname.obj
 0002:00003610       ?PrefixName@@3QBUStringLiteral@@B 000000018002a610     libvcruntime:undname.obj
 0002:00003cf8       ?module_names@?A0xbc0cc709@@3QBQEB_WB 000000018002acf8     libvcruntime:winapi_downlevel.obj
 0002:00003db8       ?candidate_modules@?1??try_get_FlsAlloc@@YAP6AKP6AXPEAX@Z@ZXZ@4QBW4module_id@?A0xbc0cc709@@B 000000018002adb8     libvcruntime:winapi_downlevel.obj
 0002:00003dd0       ?candidate_modules@?1??try_get_FlsFree@@YAP6AHK@ZXZ@4QBW4module_id@?A0xbc0cc709@@B 000000018002add0     libvcruntime:winapi_downlevel.obj
 0002:00003de0       ?candidate_modules@?1??try_get_FlsGetValue@@YAP6APEAXK@ZXZ@4QBW4module_id@?A0xbc0cc709@@B 000000018002ade0     libvcruntime:winapi_downlevel.obj
 0002:00003df8       ?candidate_modules@?1??try_get_FlsSetValue@@YAP6AHKPEAX@ZXZ@4QBW4module_id@?A0xbc0cc709@@B 000000018002adf8     libvcruntime:winapi_downlevel.obj
 0002:00003e10       ?candidate_modules@?1??try_get_InitializeCriticalSectionEx@@YAP6AHPEAU_RTL_CRITICAL_SECTION@@KK@ZXZ@4QBW4module_id@?A0xbc0cc709@@B 000000018002ae10     libvcruntime:winapi_downlevel.obj
 0002:00003e40       ?errtable@@3QBUerrentry@?A0x31fdb9ec@@B 000000018002ae40     libucrt:errno.obj
 0002:000041a8       $cppxdata$?try_cor_exit_process@@YAXI@Z 000000018002b1a8     libucrt:exit.obj
 0002:000041d0       $cppxdata$?common_exit@@YAXHW4_crt_exit_cleanup_mode@@W4_crt_exit_return_mode@@@Z 000000018002b1d0     libucrt:exit.obj
 0002:00004220       $cppxdata$__dcrt_uninitialize_environments_nolock 000000018002b220     libucrt:environment_initialization.obj
 0002:00004248       $cppxdata$_execute_onexit_table 000000018002b248     libucrt:onexit.obj
 0002:00004270       __acrt_initializers        000000018002b270     libucrt:initialization.obj
 0002:000049f0       ?module_names@?A0x391cf84c@@3QBQEB_WB 000000018002b9f0     libucrt:winapi_thunks.obj
 0002:00004ef8       ?candidate_modules@?1??try_get_AreFileApisANSI@@YAP6AHXZXZ@4QBW4module_id@?A0x391cf84c@@B 000000018002bef8     libucrt:winapi_thunks.obj
 0002:00004f10       ?candidate_modules@?1??try_get_InitializeCriticalSectionEx@@YAP6AHPEAU_RTL_CRITICAL_SECTION@@KK@ZXZ@4QBW4module_id@?A0x391cf84c@@B 000000018002bf10     libucrt:winapi_thunks.obj
 0002:00004f18       ?candidate_modules@?1??try_get_LCMapStringEx@@YAP6AHPEB_WK0HPEA_WHPEAU_nlsversioninfo@@PEAX_J@ZXZ@4QBW4module_id@?A0x391cf84c@@B 000000018002bf18     libucrt:winapi_thunks.obj
 0002:00004f30       ?candidate_modules@?1??try_get_LocaleNameToLCID@@YAP6AKPEB_WK@ZXZ@4QBW4module_id@?A0x391cf84c@@B 000000018002bf30     libucrt:winapi_thunks.obj
 0002:00004f4c       ?candidate_modules@?1??try_get_AppPolicyGetProcessTerminationMethod@@YAP6AJPEAXPEAW4AppPolicyProcessTerminationMethod@@@ZXZ@4QBW4module_id@?A0x391cf84c@@B 000000018002bf4c     libucrt:winapi_thunks.obj
 0002:00004f78       ?candidate_modules@?1??try_get_SetThreadStackGuarantee@@YAP6AHPEAK@ZXZ@4QBW4module_id@?A0x391cf84c@@B 000000018002bf78     libucrt:winapi_thunks.obj
 0002:00004fa0       ?strings@?1??fp_format_nan_or_infinity@@YAHW4__acrt_fp_class@@_NPEAD_K1@Z@4QAY03QEBDA 000000018002bfa0     libucrt:cvt.obj
 0002:00005078       ?_mb_locale_names@@3QBQEB_WB 000000018002c078     libucrt:mbctype.obj
 0002:000056f0       ?LcidToLocaleNameTable@?A0x881e4c05@@3QBULcidToLocaleName@1@B 000000018002c6f0     libucrt:lcidtoname_downlevel.obj
 0002:00007140       ?LocaleNameToIndexTable@?A0x881e4c05@@3QBULocaleNameIndex@1@B 000000018002e140     libucrt:lcidtoname_downlevel.obj
 0002:000093d0       $cppxdata$?write_double_translated_ansi_nolock@@YA?AUwrite_result@?A0x17268360@@HQEBDIAEAV__crt_cached_ptd_host@@@Z 00000001800303d0     libucrt:write.obj
 0002:00009400       __real_ninf                0000000180030400     libucrt:log10.obj
 0002:00009410       __real_inf                 0000000180030410     libucrt:log10.obj
 0002:00009420       __real_neg_qnan            0000000180030420     libucrt:log10.obj
 0002:00009430       __real_qnanbit             0000000180030430     libucrt:log10.obj
 0002:00009440       __int_1023                 0000000180030440     libucrt:log10.obj
 0002:00009450       __mask_001                 0000000180030450     libucrt:log10.obj
 0002:00009460       __mask_mant                0000000180030460     libucrt:log10.obj
 0002:00009470       __mask_mant_top8           0000000180030470     libucrt:log10.obj
 0002:00009480       __mask_mant9               0000000180030480     libucrt:log10.obj
 0002:00009490       __real_log10_e             0000000180030490     libucrt:log10.obj
 0002:000094a0       __real_log10_e_lead        00000001800304a0     libucrt:log10.obj
 0002:000094b0       __real_log10_e_tail        00000001800304b0     libucrt:log10.obj
 0002:000094c0       __real_log10_2_lead        00000001800304c0     libucrt:log10.obj
 0002:000094d0       __real_log10_2_tail        00000001800304d0     libucrt:log10.obj
 0002:000094e0       __real_two                 00000001800304e0     libucrt:log10.obj
 0002:000094f0       __real_one                 00000001800304f0     libucrt:log10.obj
 0002:00009500       __real_half                0000000180030500     libucrt:log10.obj
 0002:00009510       __mask_100                 0000000180030510     libucrt:log10.obj
 0002:00009520       __real_1_over_512          0000000180030520     libucrt:log10.obj
 0002:00009530       __real_1_over_2            0000000180030530     libucrt:log10.obj
 0002:00009540       __real_1_over_3            0000000180030540     libucrt:log10.obj
 0002:00009550       __real_1_over_4            0000000180030550     libucrt:log10.obj
 0002:00009560       __real_1_over_5            0000000180030560     libucrt:log10.obj
 0002:00009570       __real_1_over_6            0000000180030570     libucrt:log10.obj
 0002:00009580       __real_neg_1023            0000000180030580     libucrt:log10.obj
 0002:00009590       __mask_2045                0000000180030590     libucrt:log10.obj
 0002:000095a0       __real_threshold           00000001800305a0     libucrt:log10.obj
 0002:000095b0       __real_near_one_lt         00000001800305b0     libucrt:log10.obj
 0002:000095c0       __real_near_one_gt         00000001800305c0     libucrt:log10.obj
 0002:000095d0       __real_min_norm            00000001800305d0     libucrt:log10.obj
 0002:000095e0       __real_notsign             00000001800305e0     libucrt:log10.obj
 0002:000095f0       __real_ca1                 00000001800305f0     libucrt:log10.obj
 0002:00009600       __real_ca2                 0000000180030600     libucrt:log10.obj
 0002:00009610       __real_ca3                 0000000180030610     libucrt:log10.obj
 0002:00009620       __real_ca4                 0000000180030620     libucrt:log10.obj
 0002:00009630       __mask_lower               0000000180030630     libucrt:log10.obj
 0002:00009640       __flag_x_zero              0000000180030640     libucrt:log10.obj
 0002:00009644       __flag_x_neg               0000000180030644     libucrt:log10.obj
 0002:00009648       __flag_x_nan               0000000180030648     libucrt:log10.obj
 0002:0000aea0       __real@433fffffffffffff    0000000180031ea0     libucrt:fpsr.obj
 0002:0000aea8       __real@c33fffffffffffff    0000000180031ea8     libucrt:fpsr.obj
 0002:0000b7c8       $unwind$?cw_memcpy@@YAHPEA_WPEBDH@Z 00000001800327c8     CWString.obj
 0002:0000b7c8       $unwind$_invalid_parameter_noinfo 00000001800327c8     libucrt:invalid_parameter.obj
 0002:0000b7c8       $unwind$?state_case_size@?$output_processor@_WV?$string_output_adapter@_W@__crt_stdio_output@@V?$format_validation_base@_WV?$string_output_adapter@_W@__crt_stdio_output@@@2@@__crt_stdio_output@@AEAA_NXZ 00000001800327c8     libucrt:output.obj
 0002:0000b7c8       $unwind$_log10_special     00000001800327c8     libucrt:log_special.obj
 0002:0000b7d0       $unwind$?cw_strcpy@@YAHPEA_WPEBD@Z 00000001800327d0     CWString.obj
 0002:0000b7d0       $unwind$??1OposDispParms@@QEAA@XZ 00000001800327d0     OposVariant.obj
 0002:0000b7d0       $unwind$??__E_AtlComModule@ATL@@YAXXZ 00000001800327d0     OposVariant.obj
 0002:0000b7d0       $unwind$??__E_AtlWinModule@ATL@@YAXXZ 00000001800327d0     OposVariant.obj
 0002:0000b7d0       $unwind$??__F_AtlWinModule@ATL@@YAXXZ 00000001800327d0     OposVariant.obj
 0002:0000b7d0       $unwind$?GetLONG@OposVariant@@QEAAJXZ 00000001800327d0     OposVariant.obj
 0002:0000b7d0       $unwind$??__E?pConnMap@?$IConnectionPointContainerImpl@VCOPOSPointCardRW@@@ATL@@0PEBU_ATL_CONNMAP_ENTRY@2@EB@@YAXXZ 00000001800327d0     PointCardRW.obj
 0002:0000b7d0       $unwind$?AddReplacement@CRegObject@ATL@@UEAAJPEB_W0@Z 00000001800327d0     PointCardRW.obj
 0002:0000b7d0       $unwind$?AtlHresultFromLastError@ATL@@YAJXZ 00000001800327d0     PointCardRW.obj
 0002:0000b7d0       $unwind$?AtlThrowImpl@ATL@@YAXJ@Z 00000001800327d0     PointCardRW.obj
 0002:0000b7d0       $unwind$?CreateInstance@CComClassFactory@ATL@@UEAAJPEAUIUnknown@@AEBU_GUID@@PEAPEAX@Z 00000001800327d0     PointCardRW.obj
 0002:0000b7d0       $unwind$?DefaultReflectionHandler@?$CWindowImplRoot@VCWindow@ATL@@@ATL@@SAHPEAUHWND__@@I_K_JAEA_J@Z 00000001800327d0     PointCardRW.obj
 0002:0000b7d0       $unwind$?EnumAdvise@?$IOleObjectImpl@VCOPOSPointCardRW@@@ATL@@UEAAJPEAPEAUIEnumSTATDATA@@@Z 00000001800327d0     PointCardRW.obj
 0002:0000b7d0       $unwind$?FireViewChange@CComControlBase@ATL@@QEAAJXZ 00000001800327d0     PointCardRW.obj
 0002:0000b7d0       $unwind$?GetAdvise@?$IViewObjectExImpl@VCOPOSPointCardRW@@@ATL@@UEAAJPEAK0PEAPEAUIAdviseSink@@@Z 00000001800327d0     PointCardRW.obj
 0002:0000b7d0       $unwind$?LockServer@CComClassFactory@ATL@@UEAAJH@Z 00000001800327d0     PointCardRW.obj
 0002:0000b7d0       $unwind$?OnDocWindowActivate@?$IOleInPlaceActiveObjectImpl@VCOPOSPointCardRW@@@ATL@@UEAAJH@Z 00000001800327d0     PointCardRW.obj
 0002:0000b7d0       $unwind$?Unadvise@?$IOleObjectImpl@VCOPOSPointCardRW@@@ATL@@UEAAJK@Z 00000001800327d0     PointCardRW.obj
 0002:0000b7d0       $unwind$?_LocCPQueryInterface@?$IConnectionPointImpl@VCOPOSPointCardRW@@$1?DIID__IOPOSPointCardRWEvents@@3U_GUID@@BVCComDynamicUnkArray@ATL@@@ATL@@UEAAJAEBU_GUID@@PEAPEAX@Z 00000001800327d0     PointCardRW.obj
 0002:0000b7d0       $unwind$?_LocCPQueryInterface@?$IConnectionPointImpl@VCOPOSPointCardRW@@$1?IID_IPropertyNotifySink@@3U_GUID@@BVCComDynamicUnkArray@ATL@@@ATL@@UEAAJAEBU_GUID@@PEAPEAX@Z 00000001800327d0     PointCardRW.obj
 0002:0000b7d0       $unwind$?FinalConstruct@COPOSPointCardRW@@QEAAJXZ 00000001800327d0     PointCardRWImpl.obj
 0002:0000b7d0       $unwind$?get_ResultCode@COPOSPointCardRW@@UEAAJPEAJ@Z 00000001800327d0     PointCardRWImpl.obj
 0002:0000b7d0       $unwind$?get_State@COPOSPointCardRW@@UEAAJPEAJ@Z 00000001800327d0     PointCardRWImpl.obj
 0002:0000b7d0       $unwind$__dcrt_terminate_console_output 00000001800327d0     libucrt:initcon.obj
 0002:0000b7d0       $unwind$??$uninitialize_environment_internal@D@@YAXAEAPEAPEAD@Z 00000001800327d0     libucrt:environment_initialization.obj
 0002:0000b7d0       $unwind$??$uninitialize_environment_internal@_W@@YAXAEAPEAPEA_W@Z 00000001800327d0     libucrt:environment_initialization.obj
 0002:0000b7d0       $unwind$__acrt_initialize_heap 00000001800327d0     libucrt:heap_handle.obj
 0002:0000b7d0       $unwind$_msize_base        00000001800327d0     libucrt:msize.obj
 0002:0000b7d0       $unwind$?initialize_multibyte@@YAHXZ 00000001800327d0     libucrt:multibyte_initializer.obj
 0002:0000b7d0       $unwind$__acrt_thread_attach 00000001800327d0     libucrt:initialization.obj
 0002:0000b7d0       $unwind$__acrt_thread_detach 00000001800327d0     libucrt:initialization.obj
 0002:0000b7d0       $unwind$__acrt_uninitialize 00000001800327d0     libucrt:initialization.obj
 0002:0000b7d0       $unwind$__acrt_uninitialize_critical 00000001800327d0     libucrt:initialization.obj
 0002:0000b7d0       $unwind$initialize_c       00000001800327d0     libucrt:initialization.obj
 0002:0000b7d0       $unwind$uninitialize_allocated_io_buffers 00000001800327d0     libucrt:initialization.obj
 0002:0000b7d0       $unwind$uninitialize_environment 00000001800327d0     libucrt:initialization.obj
 0002:0000b7d0       $unwind$__acrt_initialize_ptd 00000001800327d0     libucrt:per_thread_data.obj
 0002:0000b7d0       $unwind$__acrt_uninitialize_ptd 00000001800327d0     libucrt:per_thread_data.obj
 0002:0000b7d0       $unwind$__acrt_AreFileApisANSI 00000001800327d0     libucrt:winapi_thunks.obj
 0002:0000b7d0       $unwind$__acrt_release_locale_ref 00000001800327d0     libucrt:locale_refcounting.obj
 0002:0000b7d0       $unwind$_isatty            00000001800327d0     libucrt:isatty.obj
 0002:0000b7d0       $unwind$_get_osfhandle     00000001800327d0     libucrt:osfinfo.obj
 0002:0000b7d0       $unwind$__acrt_initialize_multibyte 00000001800327d0     libucrt:mbctype.obj
 0002:0000b7d0       $unwind$__acrt_update_thread_multibyte_data 00000001800327d0     libucrt:mbctype.obj
 0002:0000b7d0       $unwind$__doserrno         00000001800327d0     libucrt:errno.obj
 0002:0000b7d0       $unwind$_errno             00000001800327d0     libucrt:errno.obj
 0002:0000b7d0       $unwind$_invoke_watson     00000001800327d0     libucrt:invalid_parameter.obj
 0002:0000b7d0       $unwind$abort              00000001800327d0     libucrt:abort.obj
 0002:0000b7d0       $unwind$__acrt_initialize_command_line 00000001800327d0     libucrt:argv_data.obj
 0002:0000b7d0       $unwind$?should_call_terminate_process@@YA_NXZ 00000001800327d0     libucrt:exit.obj
 0002:0000b7d0       $unwind$_fileno            00000001800327d0     libucrt:fileno.obj
 0002:0000b7d0       $unwind$_statfp            00000001800327d0     libucrt:fpctrl.obj
 0002:0000b7d0       $unwind$fegetround         00000001800327d0     libucrt:fegetround.obj
 0002:0000b7d0       $unwind$_set_errno_from_matherr 00000001800327d0     libucrt:fpexcept.obj
 0002:0000b7d0       $unwind$??__E_AtlBaseModule@ATL@@YAXXZ 00000001800327d0     atls:atlbase.obj
 0002:0000b7d0       $unwind$__scrt_initialize_default_local_stdio_options 00000001800327d0     LIBCMT:default_local_stdio_options.obj
 0002:0000b7d0       $unwind$?dllmain_crt_dispatch@@YAHQEAUHINSTANCE__@@KQEAX@Z 00000001800327d0     LIBCMT:dll_dllmain.obj
 0002:0000b7d0       $unwind$__report_rangecheckfailure 00000001800327d0     LIBCMT:gs_report.obj
 0002:0000b7d0       $unwind$__GSHandlerCheck   00000001800327d0     LIBCMT:gshandler.obj
 0002:0000b7d0       $unwind$?__scrt_uninitialize_thread_safe_statics@@YAXXZ 00000001800327d0     LIBCMT:thread_safe_statics.obj
 0002:0000b7d0       $unwind$_Init_thread_notify 00000001800327d0     LIBCMT:thread_safe_statics.obj
 0002:0000b7d0       $unwind$__scrt_acquire_startup_lock 00000001800327d0     LIBCMT:utility.obj
 0002:0000b7d0       $unwind$__scrt_dllmain_after_initialize_c 00000001800327d0     LIBCMT:utility.obj
 0002:0000b7d0       $unwind$__scrt_dllmain_before_initialize_c 00000001800327d0     LIBCMT:utility.obj
 0002:0000b7d0       $unwind$__scrt_dllmain_crt_thread_attach 00000001800327d0     LIBCMT:utility.obj
 0002:0000b7d0       $unwind$__scrt_dllmain_crt_thread_detach 00000001800327d0     LIBCMT:utility.obj
 0002:0000b7d0       $unwind$__scrt_dllmain_uninitialize_c 00000001800327d0     LIBCMT:utility.obj
 0002:0000b7d0       $unwind$__scrt_dllmain_uninitialize_critical 00000001800327d0     LIBCMT:utility.obj
 0002:0000b7d0       $unwind$atexit             00000001800327d0     LIBCMT:utility.obj
 0002:0000b7d0       $unwind$__std_terminate    00000001800327d0     libvcruntime:ehhelpers.obj
 0002:0000b7d0       $unwind$?GetCurrentState@__FrameHandler3@@SAHPEA_KPEAU_xDISPATCHER_CONTEXT@@PEBU_s_FuncInfo@@@Z 00000001800327d0     libvcruntime:ehstate.obj
 0002:0000b7d0       $unwind$__vcrt_initialize  00000001800327d0     libvcruntime:initialization.obj
 0002:0000b7d0       $unwind$__vcrt_thread_attach 00000001800327d0     libvcruntime:initialization.obj
 0002:0000b7d0       $unwind$__vcrt_thread_detach 00000001800327d0     libvcruntime:initialization.obj
 0002:0000b7d0       $unwind$__vcrt_uninitialize 00000001800327d0     libvcruntime:initialization.obj
 0002:0000b7d0       $unwind$__vcrt_uninitialize_critical 00000001800327d0     libvcruntime:initialization.obj
 0002:0000b7d0       $unwind$__vcrt_freefls     00000001800327d0     libvcruntime:per_thread_data.obj
 0002:0000b7d0       $unwind$__vcrt_getptd      00000001800327d0     libvcruntime:per_thread_data.obj
 0002:0000b7d0       $unwind$__vcrt_initialize_ptd 00000001800327d0     libvcruntime:per_thread_data.obj
 0002:0000b7d0       $unwind$__vcrt_uninitialize_ptd 00000001800327d0     libvcruntime:per_thread_data.obj
 0002:0000b7d0       $unwind$_purecall          00000001800327d0     libvcruntime:purevirt.obj
 0002:0000b7d0       $unwind$?FrameUnwindToEmptyState@__FrameHandler4@@SAXPEA_KPEAU_xDISPATCHER_CONTEXT@@PEAUFuncInfo4@FH4@@@Z 00000001800327d0     libvcruntime:risctrnsctrl.obj
 0002:0000b7d0       $unwind$_GetImageBase      00000001800327d0     libvcruntime:risctrnsctrl.obj
 0002:0000b7d0       $unwind$_GetThrowImageBase 00000001800327d0     libvcruntime:risctrnsctrl.obj
 0002:0000b7d8       $unwind$?cw_dup@@YAXPEBDAEAHAEAPEA_W1@Z 00000001800327d8     CWString.obj
 0002:0000b7d8       $unwind$?DAdvise@?$IDataObjectImpl@VCOPOSPointCardRW@@@ATL@@UEAAJPEAUtagFORMATETC@@KPEAUIAdviseSink@@PEAK@Z 00000001800327d8     PointCardRW.obj
 0002:0000b7d8       $unwind$??$create_environment@D@@YAQEAPEADQEAD@Z 00000001800327d8     libucrt:environment_initialization.obj
 0002:0000b7d8       $unwind$_mbtowc_internal   00000001800327d8     libucrt:mbtowc.obj
 0002:0000b7d8       $unwind$??$__acrt_convert_wcs_mbs_cp@D_WV<lambda_7c9dea7b4ca7285d2cdb541a38da6275>@@U__crt_win32_buffer_internal_dynamic_resizing@@@@YAHQEBDAEAV?$__crt_win32_buffer@_WU__crt_win32_buffer_internal_dynamic_resizing@@@@AEBV<lambda_7c9dea7b4ca7285d2cdb541a38da6275>@@I@Z 00000001800327d8     libucrt:argv_wildcards.obj
 0002:0000b7d8       $unwind$?process@?$output_processor@_WV?$string_output_adapter@_W@__crt_stdio_output@@V?$format_validation_base@_WV?$string_output_adapter@_W@__crt_stdio_output@@@2@@__crt_stdio_output@@QEAAHXZ 00000001800327d8     libucrt:output.obj
 0002:0000b7f0       $unwind$?DupWide@_CW@@AEAAXXZ 00000001800327f0     CWString.obj
 0002:0000b7f0       $unwind$??0CAtlComModule@ATL@@QEAA@XZ 00000001800327f0     OposVariant.obj
 0002:0000b7f0       $unwind$??0CAtlWinModule@ATL@@QEAA@XZ 00000001800327f0     OposVariant.obj
 0002:0000b7f0       $unwind$??0?$CComObject@VCOPOSPointCardRW@@@ATL@@QEAA@PEAX@Z 00000001800327f0     PointCardRW.obj
 0002:0000b7f0       $unwind$??0CAtlModule@ATL@@QEAA@XZ 00000001800327f0     PointCardRW.obj
 0002:0000b7f0       $unwind$??1?$CComObject@VCOPOSPointCardRW@@@ATL@@UEAA@XZ 00000001800327f0     PointCardRW.obj
 0002:0000b7f0       $unwind$??__E_Module@@YAXXZ 00000001800327f0     PointCardRW.obj
 0002:0000b7f0       $unwind$?AddRef@?$CComObjectCached@VCComClassFactory@ATL@@@ATL@@UEAAKXZ 00000001800327f0     PointCardRW.obj
 0002:0000b7f0       $unwind$?AllocateHeap@?$CTempBuffer@E$0BAA@VCCRTAllocator@ATL@@@ATL@@AEAAX_K@Z 00000001800327f0     PointCardRW.obj
 0002:0000b7f0       $unwind$?AllocateHeap@?$CTempBuffer@_W$0BAA@VCCRTAllocator@ATL@@@ATL@@AEAAX_K@Z 00000001800327f0     PointCardRW.obj
 0002:0000b7f0       $unwind$?AllocateHeap@?$CTempBuffer@_W$0EAA@VCCRTAllocator@ATL@@@ATL@@AEAAX_K@Z 00000001800327f0     PointCardRW.obj
 0002:0000b7f0       $unwind$?GetClassInfoW@?$IProvideClassInfo2Impl@$1?CLSID_OPOSPointCardRW@@3U_GUID@@B$1?DIID__IOPOSPointCardRWEvents@@3U2@B$1?LIBID_OposPointCardRW_CCO@@3U2@B$00$0A@VCComTypeInfoHolder@ATL@@@ATL@@UEAAJPEAPEAUITypeInfo@@@Z 00000001800327f0     PointCardRW.obj
 0002:0000b7f0       $unwind$?GetClientSite@?$IOleObjectImpl@VCOPOSPointCardRW@@@ATL@@UEAAJPEAPEAUIOleClientSite@@@Z 00000001800327f0     PointCardRW.obj
 0002:0000b7f0       $unwind$?GetConnMap@COPOSPointCardRW@@SAPEBU_ATL_CONNMAP_ENTRY@ATL@@PEAH@Z 00000001800327f0     PointCardRW.obj
 0002:0000b7f0       $unwind$?GetTypeInfo@?$IDispatchImpl@UIOPOSPointCardRW@@$1?IID_IOPOSPointCardRW@@3U_GUID@@B$1?LIBID_OposPointCardRW_CCO@@3U3@B$00$0A@VCComTypeInfoHolder@ATL@@@ATL@@UEAAJIKPEAPEAUITypeInfo@@@Z 00000001800327f0     PointCardRW.obj
 0002:0000b7f0       $unwind$?IOleInPlaceObject_InPlaceDeactivate@CComControlBase@ATL@@QEAAJXZ 00000001800327f0     PointCardRW.obj
 0002:0000b7f0       $unwind$?IOleObject_SetExtent@CComControlBase@ATL@@QEAAJKPEAUtagSIZE@@@Z 00000001800327f0     PointCardRW.obj
 0002:0000b7f0       $unwind$?IsEqualObject@?$CComPtrBase@UIOleClientSite@@@ATL@@QEAA_NPEAUIUnknown@@@Z 00000001800327f0     PointCardRW.obj
 0002:0000b7f0       $unwind$?QueryHitPoint@?$IViewObjectExImpl@VCOPOSPointCardRW@@@ATL@@UEAAJKPEBUtagRECT@@UtagPOINT@@JPEAK@Z 00000001800327f0     PointCardRW.obj
 0002:0000b7f0       $unwind$?QueryInterface@?$CComAggObject@VCOPOSPointCardRW@@@ATL@@UEAAJAEBU_GUID@@PEAPEAX@Z 00000001800327f0     PointCardRW.obj
 0002:0000b7f0       $unwind$?Release@?$CComObjectCached@VCComClassFactory@ATL@@@ATL@@UEAAKXZ 00000001800327f0     PointCardRW.obj
 0002:0000b7f0       $unwind$?Unadvise@?$IConnectionPointImpl@VCOPOSPointCardRW@@$1?DIID__IOPOSPointCardRWEvents@@3U_GUID@@BVCComDynamicUnkArray@ATL@@@ATL@@UEAAJK@Z 00000001800327f0     PointCardRW.obj
 0002:0000b7f0       $unwind$?Unadvise@?$IConnectionPointImpl@VCOPOSPointCardRW@@$1?IID_IPropertyNotifySink@@3U_GUID@@BVCComDynamicUnkArray@ATL@@@ATL@@UEAAJK@Z 00000001800327f0     PointCardRW.obj
 0002:0000b7f0       $unwind$??1CComControlBase@ATL@@UEAA@XZ 00000001800327f0     PointCardRWImpl.obj
 0002:0000b7f0       $unwind$??1COPOSPointCardRW@@UEAA@XZ 00000001800327f0     PointCardRWImpl.obj
 0002:0000b7f0       $unwind$?EventUninit@COPOSPointCardRW@@IEAAXXZ 00000001800327f0     PointCardRWImpl.obj
 0002:0000b7f0       $unwind$?FreezeEvents@COPOSPointCardRW@@MEAAJH@Z 00000001800327f0     PointCardRWImpl.obj
 0002:0000b7f0       $unwind$?SOProcessID@COPOSPointCardRW@@UEAAJPEAJ@Z 00000001800327f0     PointCardRWImpl.obj
 0002:0000b7f0       $unwind$?get_CapBold@COPOSPointCardRW@@UEAAJPEAF@Z 00000001800327f0     PointCardRWImpl.obj
 0002:0000b7f0       $unwind$?get_CapCardEntranceSensor@COPOSPointCardRW@@UEAAJPEAF@Z 00000001800327f0     PointCardRWImpl.obj
 0002:0000b7f0       $unwind$?get_CapCleanCard@COPOSPointCardRW@@UEAAJPEAF@Z 00000001800327f0     PointCardRWImpl.obj
 0002:0000b7f0       $unwind$?get_CapClearPrint@COPOSPointCardRW@@UEAAJPEAF@Z 00000001800327f0     PointCardRWImpl.obj
 0002:0000b7f0       $unwind$?get_CapCompareFirmwareVersion@COPOSPointCardRW@@UEAAJPEAF@Z 00000001800327f0     PointCardRWImpl.obj
 0002:0000b7f0       $unwind$?get_CapDhigh@COPOSPointCardRW@@UEAAJPEAF@Z 00000001800327f0     PointCardRWImpl.obj
 0002:0000b7f0       $unwind$?get_CapDwide@COPOSPointCardRW@@UEAAJPEAF@Z 00000001800327f0     PointCardRWImpl.obj
 0002:0000b7f0       $unwind$?get_CapDwideDhigh@COPOSPointCardRW@@UEAAJPEAF@Z 00000001800327f0     PointCardRWImpl.obj
 0002:0000b7f0       $unwind$?get_CapItalic@COPOSPointCardRW@@UEAAJPEAF@Z 00000001800327f0     PointCardRWImpl.obj
 0002:0000b7f0       $unwind$?get_CapLeft90@COPOSPointCardRW@@UEAAJPEAF@Z 00000001800327f0     PointCardRWImpl.obj
 0002:0000b7f0       $unwind$?get_CapMapCharacterSet@COPOSPointCardRW@@UEAAJPEAF@Z 00000001800327f0     PointCardRWImpl.obj
 0002:0000b7f0       $unwind$?get_CapPrint@COPOSPointCardRW@@UEAAJPEAF@Z 00000001800327f0     PointCardRWImpl.obj
 0002:0000b7f0       $unwind$?get_CapPrintMode@COPOSPointCardRW@@UEAAJPEAF@Z 00000001800327f0     PointCardRWImpl.obj
 0002:0000b7f0       $unwind$?get_CapRight90@COPOSPointCardRW@@UEAAJPEAF@Z 00000001800327f0     PointCardRWImpl.obj
 0002:0000b7f0       $unwind$?get_CapRotate180@COPOSPointCardRW@@UEAAJPEAF@Z 00000001800327f0     PointCardRWImpl.obj
 0002:0000b7f0       $unwind$?get_CapStatisticsReporting@COPOSPointCardRW@@UEAAJPEAF@Z 00000001800327f0     PointCardRWImpl.obj
 0002:0000b7f0       $unwind$?get_CapUpdateFirmware@COPOSPointCardRW@@UEAAJPEAF@Z 00000001800327f0     PointCardRWImpl.obj
 0002:0000b7f0       $unwind$?get_CapUpdateStatistics@COPOSPointCardRW@@UEAAJPEAF@Z 00000001800327f0     PointCardRWImpl.obj
 0002:0000b7f0       $unwind$?get_Claimed@COPOSPointCardRW@@UEAAJPEAF@Z 00000001800327f0     PointCardRWImpl.obj
 0002:0000b7f0       $unwind$?get_DataEventEnabled@COPOSPointCardRW@@UEAAJPEAF@Z 00000001800327f0     PointCardRWImpl.obj
 0002:0000b7f0       $unwind$?get_DeviceEnabled@COPOSPointCardRW@@UEAAJPEAF@Z 00000001800327f0     PointCardRWImpl.obj
 0002:0000b7f0       $unwind$?get_FreezeEvents@COPOSPointCardRW@@UEAAJPEAF@Z 00000001800327f0     PointCardRWImpl.obj
 0002:0000b7f0       $unwind$?get_MapCharacterSet@COPOSPointCardRW@@UEAAJPEAF@Z 00000001800327f0     PointCardRWImpl.obj
 0002:0000b7f0       $unwind$?put_FreezeEvents@COPOSPointCardRW@@UEAAJF@Z 00000001800327f0     PointCardRWImpl.obj
 0002:0000b7f0       $unwind$_calloc_base       00000001800327f0     libucrt:calloc_base.obj
 0002:0000b7f0       $unwind$_malloc_base       00000001800327f0     libucrt:malloc_base.obj
 0002:0000b7f0       $unwind$_callnewh          00000001800327f0     libucrt:new_handler.obj
 0002:0000b7f0       $unwind$initialize_pointers 00000001800327f0     libucrt:initialization.obj
 0002:0000b7f0       $unwind$uninitialize_allocated_memory 00000001800327f0     libucrt:initialization.obj
 0002:0000b7f0       $unwind$__acrt_initialize_locks 00000001800327f0     libucrt:locks.obj
 0002:0000b7f0       $unwind$__acrt_uninitialize_locks 00000001800327f0     libucrt:locks.obj
 0002:0000b7f0       $unwind$__acrt_freeptd     00000001800327f0     libucrt:per_thread_data.obj
 0002:0000b7f0       $unwind$__acrt_getptd_head 00000001800327f0     libucrt:per_thread_data.obj
 0002:0000b7f0       $unwind$__acrt_get_process_end_policy 00000001800327f0     libucrt:win_policies.obj
 0002:0000b7f0       $unwind$__acrt_AppPolicyGetProcessTerminationMethodInternal 00000001800327f0     libucrt:winapi_thunks.obj
 0002:0000b7f0       $unwind$__acrt_SetThreadStackGuarantee 00000001800327f0     libucrt:winapi_thunks.obj
 0002:0000b7f0       $unwind$__acrt_uninitialize_winapi_thunks 00000001800327f0     libucrt:winapi_thunks.obj
 0002:0000b7f0       $unwind$__acrt_update_locale_info 00000001800327f0     libucrt:locale_update.obj
 0002:0000b7f0       $unwind$__acrt_update_locale_info_explicit 00000001800327f0     libucrt:locale_update.obj
 0002:0000b7f0       $unwind$__acrt_update_multibyte_info 00000001800327f0     libucrt:locale_update.obj
 0002:0000b7f0       $unwind$__acrt_update_multibyte_info_explicit 00000001800327f0     libucrt:locale_update.obj
 0002:0000b7f0       $unwind$__acrt_errno_map_os_error 00000001800327f0     libucrt:errno.obj
 0002:0000b7f0       $unwind$__acrt_errno_map_os_error_ptd 00000001800327f0     libucrt:errno.obj
 0002:0000b7f0       $unwind$__acrt_allocate_buffer_for_argv 00000001800327f0     libucrt:argv_parsing.obj
 0002:0000b7f0       $unwind$?exit_or_terminate_process@@YAXI@Z 00000001800327f0     libucrt:exit.obj
 0002:0000b7f0       $unwind$__acrt_uninitialize_stdio 00000001800327f0     libucrt:_file.obj
 0002:0000b7f0       $unwind$__acrt_stdio_free_buffer_nolock 00000001800327f0     libucrt:_freebuf.obj
 0002:0000b7f0       $unwind$strcpy_s           00000001800327f0     libucrt:strcpy_s.obj
 0002:0000b7f0       $unwind$wcscat_s           00000001800327f0     libucrt:wcscat_s.obj
 0002:0000b7f0       $unwind$wcscpy_s           00000001800327f0     libucrt:wcscpy_s.obj
 0002:0000b7f0       $unwind$_clrfp             00000001800327f0     libucrt:fpctrl.obj
 0002:0000b7f0       $unwind$_set_statfp        00000001800327f0     libucrt:fpctrl.obj
 0002:0000b7f0       $unwind$_clearfp           00000001800327f0     libucrt:ieee.obj
 0002:0000b7f0       $unwind$_controlfp_s       00000001800327f0     libucrt:contrlfp.obj
 0002:0000b7f0       $unwind$fegetenv           00000001800327f0     libucrt:fegetenv.obj
 0002:0000b7f0       $unwind$feholdexcept       00000001800327f0     libucrt:feholdexcept.obj
 0002:0000b7f0       $unwind$fesetenv           00000001800327f0     libucrt:fesetenv.obj
 0002:0000b7f0       $unwind$??1CAtlBaseModule@ATL@@QEAA@XZ 00000001800327f0     atls:atlbase.obj
 0002:0000b7f0       $unwind$AtlThunk_AllocateData 00000001800327f0     atls:atlthunk.obj
 0002:0000b7f0       $unwind$__raise_securityfailure 00000001800327f0     LIBCMT:gs_report.obj
 0002:0000b7f0       $unwind$??2@YAPEAX_K@Z     00000001800327f0     LIBCMT:new_scalar.obj
 0002:0000b7f0       $unwind$??_Gtype_info@@UEAAPEAXI@Z 00000001800327f0     LIBCMT:std_type_info_static.obj
 0002:0000b7f0       $unwind$_Init_thread_footer 00000001800327f0     LIBCMT:thread_safe_statics.obj
 0002:0000b7f0       $unwind$_Init_thread_header 00000001800327f0     LIBCMT:thread_safe_statics.obj
 0002:0000b7f0       $unwind$_Init_thread_wait  00000001800327f0     LIBCMT:thread_safe_statics.obj
 0002:0000b7f0       $unwind$??0bad_alloc@std@@QEAA@AEBV01@@Z 00000001800327f0     LIBCMT:throw_bad_alloc.obj
 0002:0000b7f0       $unwind$??0bad_array_new_length@std@@QEAA@AEBV01@@Z 00000001800327f0     LIBCMT:throw_bad_alloc.obj
 0002:0000b7f0       $unwind$??0exception@std@@QEAA@AEBV01@@Z 00000001800327f0     LIBCMT:throw_bad_alloc.obj
 0002:0000b7f0       $unwind$__scrt_initialize_crt 00000001800327f0     LIBCMT:utility.obj
 0002:0000b7f0       $unwind$__scrt_initialize_onexit_tables 00000001800327f0     LIBCMT:utility.obj
 0002:0000b7f0       $unwind$__scrt_release_startup_lock 00000001800327f0     LIBCMT:utility.obj
 0002:0000b7f0       $unwind$__scrt_uninitialize_crt 00000001800327f0     LIBCMT:utility.obj
 0002:0000b7f0       $unwind$_onexit            00000001800327f0     LIBCMT:utility.obj
 0002:0000b7f0       $unwind$_IsExceptionObjectToBeDestroyed 00000001800327f0     libvcruntime:ehhelpers.obj
 0002:0000b7f0       $unwind$?GetUnwindTryBlock@__FrameHandler3@@SAHPEA_KPEAU_xDISPATCHER_CONTEXT@@PEBU_s_FuncInfo@@@Z 00000001800327f0     libvcruntime:ehstate.obj
 0002:0000b7f0       $unwind$?StateFromIp@__FrameHandler3@@SAHPEBU_s_FuncInfo@@PEAU_xDISPATCHER_CONTEXT@@_K@Z 00000001800327f0     libvcruntime:ehstate.obj
 0002:0000b7f0       $unwind$??0HandlerMap4@FH4@@QEAA@PEBUTryBlockMapEntry4@1@_KH@Z 00000001800327f0     libvcruntime:frame.obj
 0002:0000b7f0       $unwind$??0bad_exception@std@@QEAA@AEBV01@@Z 00000001800327f0     libvcruntime:frame.obj
 0002:0000b7f0       $unwind$__vcrt_initialize_locks 00000001800327f0     libvcruntime:locks.obj
 0002:0000b7f0       $unwind$__vcrt_uninitialize_locks 00000001800327f0     libvcruntime:locks.obj
 0002:0000b7f0       $unwind$__vcrt_freeptd     00000001800327f0     libvcruntime:per_thread_data.obj
 0002:0000b7f0       $unwind$?ExecutionInCatch@__FrameHandler3@@SA_NPEAU_xDISPATCHER_CONTEXT@@PEBU_s_FuncInfo@@@Z 00000001800327f0     libvcruntime:risctrnsctrl.obj
 0002:0000b7f0       $unwind$_CreateFrameInfo   00000001800327f0     libvcruntime:risctrnsctrl.obj
 0002:0000b7f0       $unwind$_SetImageBase      00000001800327f0     libvcruntime:risctrnsctrl.obj
 0002:0000b7f0       $unwind$_SetThrowImageBase 00000001800327f0     libvcruntime:risctrnsctrl.obj
 0002:0000b7f0       $unwind$__std_exception_destroy 00000001800327f0     libvcruntime:std_exception.obj
 0002:0000b7f0       $unwind$__std_type_info_destroy_list 00000001800327f0     libvcruntime:std_type_info.obj
 0002:0000b7f0       $unwind$__vcrt_FlsAlloc    00000001800327f0     libvcruntime:winapi_downlevel.obj
 0002:0000b7f0       $unwind$__vcrt_FlsFree     00000001800327f0     libvcruntime:winapi_downlevel.obj
 0002:0000b7f0       $unwind$__vcrt_FlsGetValue 00000001800327f0     libvcruntime:winapi_downlevel.obj
 0002:0000b7f8       $unwind$?AtlWinModuleTerm@ATL@@YAJPEAU_ATL_WIN_MODULE70@1@PEAUHINSTANCE__@@@Z 00000001800327f8     OposVariant.obj
 0002:0000b7f8       $unwind$?AtlWinModuleExtractCreateWndData@ATL@@YAPEAXPEAU_ATL_WIN_MODULE70@1@@Z 00000001800327f8     PointCardRW.obj
 0002:0000b7f8       $unwind$?CreateInstance@?$CComCreator@V?$CComObject@VCOPOSPointCardRW@@@ATL@@@ATL@@SAJPEAXAEBU_GUID@@PEAPEAX@Z 00000001800327f8     PointCardRW.obj
 0002:0000b7f8       $unwind$?DoEvent@COPOSPointCardRW@@IEAAXI_K_J@Z 00000001800327f8     PointCardRW.obj
 0002:0000b7f8       $unwind$?DoVerb@?$IOleObjectImpl@VCOPOSPointCardRW@@@ATL@@UEAAJJPEAUtagMSG@@PEAUIOleClientSite@@JPEAUHWND__@@PEBUtagRECT@@@Z 00000001800327f8     PointCardRW.obj
 0002:0000b7f8       $unwind$?HKeyFromString@CRegParser@ATL@@KAPEAUHKEY__@@PEA_W@Z 00000001800327f8     PointCardRW.obj
 0002:0000b7f8       $unwind$?Next@?$CComEnumImpl@UIEnumConnectionPoints@@$1?_GUID_b196b285_bab4_101a_b69c_00aa00341d07@@3U__s_GUID@@BPEAUIConnectionPoint@@V?$_CopyInterface@UIConnectionPoint@@@ATL@@@ATL@@UEAAJKPEAPEAUIConnectionPoint@@PEAK@Z 00000001800327f8     PointCardRW.obj
 0002:0000b7f8       $unwind$?Next@?$CComEnumImpl@UIEnumConnections@@$1?_GUID_b196b287_bab4_101a_b69c_00aa00341d07@@3U__s_GUID@@BUtagCONNECTDATA@@V?$_Copy@UtagCONNECTDATA@@@ATL@@@ATL@@UEAAJKPEAUtagCONNECTDATA@@PEAK@Z 00000001800327f8     PointCardRW.obj
 0002:0000b7f8       $unwind$?SODirectIO@COPOSPointCardRW@@MEAAJJPEAJPEAPEA_W@Z 00000001800327f8     PointCardRW.obj
 0002:0000b7f8       $unwind$?SetControlFocus@CComControlBase@ATL@@QEAAHH@Z 00000001800327f8     PointCardRW.obj
 0002:0000b7f8       $unwind$?ocscpy_s@@YA_NPEA_W_KPEB_W@Z 00000001800327f8     PointCardRW.obj
 0002:0000b7f8       $unwind$?s_EventWindowProc@COPOSPointCardRW@@KA_JPEAUHWND__@@I_K_J@Z 00000001800327f8     PointCardRWImpl.obj
 0002:0000b7f8       $unwind$_recalloc_base     00000001800327f8     libucrt:recalloc.obj
 0002:0000b7f8       $unwind$__acrt_free_locale 00000001800327f8     libucrt:locale_refcounting.obj
 0002:0000b7f8       $unwind$__acrt_lowio_create_handle_array 00000001800327f8     libucrt:osfinfo.obj
 0002:0000b7f8       $unwind$_seh_filter_exe    00000001800327f8     libucrt:exception_filter.obj
 0002:0000b7f8       $unwind$__acrt_stdio_flush_nolock 00000001800327f8     libucrt:fflush.obj
 0002:0000b7f8       $unwind$??$ensure_buffer_is_big_enough@D@formatting_buffer@__crt_stdio_output@@QEAA_N_KAEAV__crt_cached_ptd_host@@@Z 00000001800327f8     libucrt:output.obj
 0002:0000b7f8       $unwind$??$ensure_buffer_is_big_enough@_W@formatting_buffer@__crt_stdio_output@@QEAA_N_KAEAV__crt_cached_ptd_host@@@Z 00000001800327f8     libucrt:output.obj
 0002:0000b7f8       $unwind$__scrt_dllmain_exception_filter 00000001800327f8     LIBCMT:utility.obj
 0002:0000b7f8       $unwind$?GetHandlerSearchState@__FrameHandler3@@SAHPEA_KPEAU_xDISPATCHER_CONTEXT@@PEBU_s_FuncInfo@@@Z 00000001800327f8     libvcruntime:frame.obj
 0002:0000b7f8       $unwind$?Is_bad_exception_allowed@@YAEPEBU_s_ESTypeList@@@Z 00000001800327f8     libvcruntime:frame.obj
 0002:0000b7f8       $unwind$?CatchTryBlock@__FrameHandler3@@SAPEBU_s_TryBlockMapEntry@@PEBU_s_FuncInfo@@H@Z 00000001800327f8     libvcruntime:risctrnsctrl.obj
 0002:0000b80c       $unwind$??0OposDispParms@@QEAA@PEAVOposVariant@@H@Z 000000018003280c     OposVariant.obj
 0002:0000b80c       $unwind$?SetBSTR_Copy@OposVariant@@QEAAXPEA_WAEAJ@Z 000000018003280c     OposVariant.obj
 0002:0000b80c       $unwind$?SetBSTR_InOutPtr@OposVariant@@QEAA_NPEAPEA_WAEAJ@Z 000000018003280c     OposVariant.obj
 0002:0000b80c       $unwind$?SetDispatch_Ptr@OposVariant@@QEAAXPEAUIDispatch@@AEAJ@Z 000000018003280c     OposVariant.obj
 0002:0000b80c       $unwind$?SetLONG_Ptr@OposVariant@@QEAAXPEAJAEAJ@Z 000000018003280c     OposVariant.obj
 0002:0000b80c       $unwind$?SetString@OposVariant@@QEAAXPEB_WAEAJ@Z 000000018003280c     OposVariant.obj
 0002:0000b80c       $unwind$?Term@CAtlComModule@ATL@@QEAAXXZ 000000018003280c     OposVariant.obj
 0002:0000b80c       $unwind$??_GCRegObject@ATL@@UEAAPEAXI@Z 000000018003280c     PointCardRW.obj
 0002:0000b80c       $unwind$?Add@?$CSimpleArray@GV?$CSimpleArrayEqualHelper@G@ATL@@@ATL@@QEAAHAEBG@Z 000000018003280c     PointCardRW.obj
 0002:0000b80c       $unwind$?Add@?$CSimpleMap@PEA_WPEA_WVCExpansionVectorEqualHelper@ATL@@@ATL@@QEAAHAEBQEA_W0@Z 000000018003280c     PointCardRW.obj
 0002:0000b80c       $unwind$?Add@CComDynamicUnkArray@ATL@@QEAAKPEAUIUnknown@@@Z 000000018003280c     PointCardRW.obj
 0002:0000b80c       $unwind$?Advise@?$IOleObjectImpl@VCOPOSPointCardRW@@@ATL@@UEAAJPEAUIAdviseSink@@PEAK@Z 000000018003280c     PointCardRW.obj
 0002:0000b80c       $unwind$?ClearReplacements@CExpansionVector@ATL@@QEAAJXZ 000000018003280c     PointCardRW.obj
 0002:0000b80c       $unwind$?CreateInstance@?$CComObject@V?$CComEnum@UIEnumConnectionPoints@@$1?_GUID_b196b285_bab4_101a_b69c_00aa00341d07@@3U__s_GUID@@BPEAUIConnectionPoint@@V?$_CopyInterface@UIConnectionPoint@@@ATL@@VCComSingleThreadModel@6@@ATL@@@ATL@@SAJPEAPEAV12@@Z 000000018003280c     PointCardRW.obj
 0002:0000b80c       $unwind$?CreateInstance@?$CComObject@V?$CComEnum@UIEnumConnections@@$1?_GUID_b196b287_bab4_101a_b69c_00aa00341d07@@3U__s_GUID@@BUtagCONNECTDATA@@V?$_Copy@UtagCONNECTDATA@@@ATL@@VCComSingleThreadModel@6@@ATL@@@ATL@@SAJPEAPEAV12@@Z 000000018003280c     PointCardRW.obj
 0002:0000b80c       $unwind$?RegisterServer@CComModule@ATL@@QEAAJHPEBU_GUID@@@Z 000000018003280c     PointCardRW.obj
 0002:0000b80c       $unwind$?UnregisterServer@CComModule@ATL@@QEAAJHPEBU_GUID@@@Z 000000018003280c     PointCardRW.obj
 0002:0000b80c       $unwind$?VTFromRegType@CRegParser@ATL@@KAHPEB_WAEAG@Z 000000018003280c     PointCardRW.obj
 0002:0000b80c       $unwind$memcpy_s           000000018003280c     libucrt:cfout.obj
 0002:0000b80c       $unwind$__acrt_getptd      000000018003280c     libucrt:per_thread_data.obj
 0002:0000b80c       $unwind$__acrt_getptd_noexit 000000018003280c     libucrt:per_thread_data.obj
 0002:0000b80c       $unwind$__acrt_getptd_noexit_explicit 000000018003280c     libucrt:per_thread_data.obj
 0002:0000b80c       $unwind$__acrt_execute_initializers 000000018003280c     libucrt:shared_initialization.obj
 0002:0000b80c       $unwind$__acrt_InitializeCriticalSectionEx 000000018003280c     libucrt:winapi_thunks.obj
 0002:0000b80c       $unwind$_close_nolock_internal 000000018003280c     libucrt:close.obj
 0002:0000b80c       $unwind$?value@?$dual_state_global@P6AXPEB_W00I_K@Z@__crt_state_management@@QEAAAEAP6AXPEB_W00I_K@ZAEAV__crt_cached_ptd_host@@@Z 000000018003280c     libucrt:invalid_parameter.obj
 0002:0000b80c       $unwind$??0_LocaleUpdate@@QEAA@QEAU__crt_locale_pointers@@@Z 000000018003280c     libucrt:argv_wildcards.obj
 0002:0000b80c       $unwind$?type_case_Z@?$output_processor@_WV?$string_output_adapter@_W@__crt_stdio_output@@V?$format_validation_base@_WV?$string_output_adapter@_W@__crt_stdio_output@@@2@@__crt_stdio_output@@AEAA_NXZ 000000018003280c     libucrt:output.obj
 0002:0000b80c       $unwind$?type_case_s@?$output_processor@_WV?$string_output_adapter@_W@__crt_stdio_output@@V?$format_validation_base@_WV?$string_output_adapter@_W@__crt_stdio_output@@@2@@__crt_stdio_output@@AEAA_NXZ 000000018003280c     libucrt:output.obj
 0002:0000b80c       $unwind$?type_case_s_compute_narrow_string_length@?$output_processor@_WV?$string_output_adapter@_W@__crt_stdio_output@@V?$format_validation_base@_WV?$string_output_adapter@_W@__crt_stdio_output@@@2@@__crt_stdio_output@@AEAAHH_W@Z 000000018003280c     libucrt:output.obj
 0002:0000b80c       $unwind$?update_locale_slow@__crt_cached_ptd_host@@AEAAXXZ 000000018003280c     libucrt:output.obj
 0002:0000b80c       $unwind$strncpy_s          000000018003280c     libucrt:strncpy_s.obj
 0002:0000b80c       $unwind$wcsncpy_s          000000018003280c     libucrt:wcsncpy_s.obj
 0002:0000b80c       $unwind$_exception_enabled 000000018003280c     libucrt:libm_error.obj
 0002:0000b80c       $unwind$_DllMainCRTStartup 000000018003280c     LIBCMT:dll_dllmain.obj
 0002:0000b80c       $unwind$__vcrt_getptd_noexit 000000018003280c     libvcruntime:per_thread_data.obj
 0002:0000b80c       $unwind$?FrameUnwindToEmptyState@__FrameHandler3@@SAXPEA_KPEAU_xDISPATCHER_CONTEXT@@PEBU_s_FuncInfo@@@Z 000000018003280c     libvcruntime:risctrnsctrl.obj
 0002:0000b80c       $unwind$__vcrt_InitializeCriticalSectionEx 000000018003280c     libvcruntime:winapi_downlevel.obj
 0002:0000b81c       $unwind$??_Estringdispid@CComTypeInfoHolder@ATL@@QEAAPEAXI@Z 000000018003281c     OposVariant.obj
 0002:0000b81c       $unwind$?AddTermFunc@CAtlModule@ATL@@QEAAJP6AX_K@Z0@Z 000000018003281c     PointCardRW.obj
 0002:0000b81c       $unwind$?AtlComModuleRegisterServer@ATL@@YAJPEAU_ATL_COM_MODULE70@1@HPEBU_GUID@@@Z 000000018003281c     PointCardRW.obj
 0002:0000b81c       $unwind$?AtlComModuleUnregisterServer@ATL@@YAJPEAU_ATL_COM_MODULE70@1@HPEBU_GUID@@@Z 000000018003281c     PointCardRW.obj
 0002:0000b81c       $unwind$?CreateInstance@?$CComCreator@V?$CComAggObject@VCOPOSPointCardRW@@@ATL@@@ATL@@SAJPEAXAEBU_GUID@@PEAPEAX@Z 000000018003281c     PointCardRW.obj
 0002:0000b81c       $unwind$?CreateInstance@?$CComCreator@V?$CComObjectCached@VCComClassFactory@ATL@@@ATL@@@ATL@@SAJPEAXAEBU_GUID@@PEAPEAX@Z 000000018003281c     PointCardRW.obj
 0002:0000b81c       $unwind$?GetPagesHelper@?$ISpecifyPropertyPagesImpl@VCOPOSPointCardRW@@@ATL@@IEAAJPEAUtagCAUUID@@PEBUATL_PROPMAP_ENTRY@2@@Z 000000018003281c     PointCardRW.obj
 0002:0000b81c       $unwind$?Term@CAtlModule@ATL@@QEAAXXZ 000000018003281c     PointCardRW.obj
 0002:0000b81c       $unwind$?initialize_stdio_handles_nolock@@YAXXZ 000000018003281c     libucrt:ioinit.obj
 0002:0000b81c       $unwind$__acrt_initialize_stdio 000000018003281c     libucrt:_file.obj
 0002:0000b81c       $unwind$__GSHandlerCheck_EH 000000018003281c     LIBCMT:gshandlereh.obj
 0002:0000b81c       $unwind$__GSHandlerCheck_SEH 000000018003281c     LIBCMT:gshandlerseh.obj
 0002:0000b81c       $unwind$??$TypeMatchHelper@V__FrameHandler3@@@@YAHPEBU_s_HandlerType@@PEBU_s_CatchableType@@PEBU_s_ThrowInfo@@@Z 000000018003281c     libvcruntime:frame.obj
 0002:0000b81c       $unwind$??$TypeMatchHelper@V__FrameHandler4@@@@YAHPEAUHandlerType4@FH4@@PEBU_s_CatchableType@@PEBU_s_ThrowInfo@@@Z 000000018003281c     libvcruntime:frame.obj
 0002:0000b834       $unwind$?SetBSTR@OposVariant@@QEAAXPEA_WAEAJ@Z 0000000180032834     OposVariant.obj
 0002:0000b834       $unwind$?SetLONG@OposVariant@@QEAAXJ@Z 0000000180032834     OposVariant.obj
 0002:0000b834       $unwind$?SetVARIANT_BOOL@OposVariant@@QEAAXF@Z 0000000180032834     OposVariant.obj
 0002:0000b834       $unwind$??0?$CComContainedObject@VCOPOSPointCardRW@@@ATL@@QEAA@PEAX@Z 0000000180032834     PointCardRW.obj
 0002:0000b834       $unwind$??1?$CComEnumImpl@UIEnumConnectionPoints@@$1?_GUID_b196b285_bab4_101a_b69c_00aa00341d07@@3U__s_GUID@@BPEAUIConnectionPoint@@V?$_CopyInterface@UIConnectionPoint@@@ATL@@@ATL@@UEAA@XZ 0000000180032834     PointCardRW.obj
 0002:0000b834       $unwind$??1?$CComEnumImpl@UIEnumConnections@@$1?_GUID_b196b287_bab4_101a_b69c_00aa00341d07@@3U__s_GUID@@BUtagCONNECTDATA@@V?$_Copy@UtagCONNECTDATA@@@ATL@@@ATL@@UEAA@XZ 0000000180032834     PointCardRW.obj
 0002:0000b834       $unwind$??_G?$CComAggObject@VCOPOSPointCardRW@@@ATL@@UEAAPEAXI@Z 0000000180032834     PointCardRW.obj
 0002:0000b834       $unwind$??_G?$CComContainedObject@VCOPOSPointCardRW@@@ATL@@UEAAPEAXI@Z 0000000180032834     PointCardRW.obj
 0002:0000b834       $unwind$??_G?$CComObject@V?$CComEnum@UIEnumConnectionPoints@@$1?_GUID_b196b285_bab4_101a_b69c_00aa00341d07@@3U__s_GUID@@BPEAUIConnectionPoint@@V?$_CopyInterface@UIConnectionPoint@@@ATL@@VCComSingleThreadModel@6@@ATL@@@ATL@@UEAAPEAXI@Z 0000000180032834     PointCardRW.obj
 0002:0000b834       $unwind$??_G?$CComObject@V?$CComEnum@UIEnumConnections@@$1?_GUID_b196b287_bab4_101a_b69c_00aa00341d07@@3U__s_GUID@@BUtagCONNECTDATA@@V?$_Copy@UtagCONNECTDATA@@@ATL@@VCComSingleThreadModel@6@@ATL@@@ATL@@UEAAPEAXI@Z 0000000180032834     PointCardRW.obj
 0002:0000b834       $unwind$??_G?$CComObject@VCOPOSPointCardRW@@@ATL@@UEAAPEAXI@Z 0000000180032834     PointCardRW.obj
 0002:0000b834       $unwind$??_G?$CComObjectCached@VCComClassFactory@ATL@@@ATL@@UEAAPEAXI@Z 0000000180032834     PointCardRW.obj
 0002:0000b834       $unwind$??_GCComClassFactory@ATL@@UEAAPEAXI@Z 0000000180032834     PointCardRW.obj
 0002:0000b834       $unwind$??_GCComModule@ATL@@UEAAPEAXI@Z 0000000180032834     PointCardRW.obj
 0002:0000b834       $unwind$?DeleteSubKey@CRegKey@ATL@@QEAAJPEB_W@Z 0000000180032834     PointCardRW.obj
 0002:0000b834       $unwind$?IOleObject_SetClientSite@CComControlBase@ATL@@QEAAJPEAUIOleClientSite@@@Z 0000000180032834     PointCardRW.obj
 0002:0000b834       $unwind$?InitNew@?$IPersistStorageImpl@VCOPOSPointCardRW@@@ATL@@UEAAJPEAUIStorage@@@Z 0000000180032834     PointCardRW.obj
 0002:0000b834       $unwind$?IsDirty@?$IPersistStorageImpl@VCOPOSPointCardRW@@@ATL@@UEAAJXZ 0000000180032834     PointCardRW.obj
 0002:0000b834       $unwind$?Release@?$CComAggObject@VCOPOSPointCardRW@@@ATL@@UEAAKXZ 0000000180032834     PointCardRW.obj
 0002:0000b834       $unwind$?Release@?$CComObject@V?$CComEnum@UIEnumConnectionPoints@@$1?_GUID_b196b285_bab4_101a_b69c_00aa00341d07@@3U__s_GUID@@BPEAUIConnectionPoint@@V?$_CopyInterface@UIConnectionPoint@@@ATL@@VCComSingleThreadModel@6@@ATL@@@ATL@@UEAAKXZ 0000000180032834     PointCardRW.obj
 0002:0000b834       $unwind$?Release@?$CComObject@V?$CComEnum@UIEnumConnections@@$1?_GUID_b196b287_bab4_101a_b69c_00aa00341d07@@3U__s_GUID@@BUtagCONNECTDATA@@V?$_Copy@UtagCONNECTDATA@@@ATL@@VCComSingleThreadModel@6@@ATL@@@ATL@@UEAAKXZ 0000000180032834     PointCardRW.obj
 0002:0000b834       $unwind$?Release@?$CComObject@VCOPOSPointCardRW@@@ATL@@UEAAKXZ 0000000180032834     PointCardRW.obj
 0002:0000b834       $unwind$?SOData@COPOSPointCardRW@@MEAAJJ@Z 0000000180032834     PointCardRW.obj
 0002:0000b834       $unwind$?SOOutputComplete@COPOSPointCardRW@@MEAAJJ@Z 0000000180032834     PointCardRW.obj
 0002:0000b834       $unwind$?SOStatusUpdate@COPOSPointCardRW@@MEAAJJ@Z 0000000180032834     PointCardRW.obj
 0002:0000b834       $unwind$?SetAdvise@?$IViewObjectExImpl@VCOPOSPointCardRW@@@ATL@@UEAAJKKPEAUIAdviseSink@@@Z 0000000180032834     PointCardRW.obj
 0002:0000b834       $unwind$?Term@CComModule@ATL@@QEAAXXZ 0000000180032834     PointCardRW.obj
 0002:0000b834       $unwind$DllMain            0000000180032834     PointCardRW.obj
 0002:0000b834       $unwind$??1?$IConnectionPointImpl@VCOPOSPointCardRW@@$1?DIID__IOPOSPointCardRWEvents@@3U_GUID@@BVCComDynamicUnkArray@ATL@@@ATL@@QEAA@XZ 0000000180032834     PointCardRWImpl.obj
 0002:0000b834       $unwind$??1?$IConnectionPointImpl@VCOPOSPointCardRW@@$1?IID_IPropertyNotifySink@@3U_GUID@@BVCComDynamicUnkArray@ATL@@@ATL@@QEAA@XZ 0000000180032834     PointCardRWImpl.obj
 0002:0000b834       $unwind$??$common_initialize_environment_nolock@D@@YAHXZ 0000000180032834     libucrt:environment_initialization.obj
 0002:0000b834       $unwind$_realloc_base      0000000180032834     libucrt:realloc_base.obj
 0002:0000b834       $unwind$?replace_current_thread_locale_nolock@@YAXQEAU__acrt_ptd@@QEAU__crt_locale_data@@@Z 0000000180032834     libucrt:per_thread_data.obj
 0002:0000b834       $unwind$__acrt_execute_uninitializers 0000000180032834     libucrt:shared_initialization.obj
 0002:0000b834       $unwind$__acrt_LocaleNameToLCID 0000000180032834     libucrt:winapi_thunks.obj
 0002:0000b834       $unwind$?free_crt_array_internal@@YAXQEAPEBX_K@Z 0000000180032834     libucrt:inittime.obj
 0002:0000b834       $unwind$_updatetlocinfoEx_nolock 0000000180032834     libucrt:locale_refcounting.obj
 0002:0000b834       $unwind$__acrt_uninitialize_lowio 0000000180032834     libucrt:ioinit.obj
 0002:0000b834       $unwind$?setSBCS@@YAXPEAU__crt_multibyte_data@@@Z 0000000180032834     libucrt:mbctype.obj
 0002:0000b834       $unwind$_initterm_e        0000000180032834     libucrt:initterm.obj
 0002:0000b834       $unwind$??0CAtlBaseModule@ATL@@QEAA@XZ 0000000180032834     atls:atlbase.obj
 0002:0000b834       $unwind$??$GetProcAddressAll@P6AP6A_JPEAUHWND__@@I_K_J@ZPEAUAtlThunkData_t@@@Z@@YAP6AP6A_JPEAUHWND__@@I_K_J@ZPEAUAtlThunkData_t@@@ZPEAP6AP6A_J0I12@Z3@Z@Z 0000000180032834     atls:atlthunk.obj
 0002:0000b834       $unwind$??$GetProcAddressAll@P6APEAUAtlThunkData_t@@XZ@@YAP6APEAUAtlThunkData_t@@XZPEAP6APEAU0@XZ@Z 0000000180032834     atls:atlthunk.obj
 0002:0000b834       $unwind$??$GetProcAddressAll@P6AXPEAUAtlThunkData_t@@@Z@@YAP6AXPEAUAtlThunkData_t@@@ZPEAP6AX0@Z@Z 0000000180032834     atls:atlthunk.obj
 0002:0000b834       $unwind$??$GetProcAddressAll@P6AXPEAUAtlThunkData_t@@PEAX_K@Z@@YAP6AXPEAUAtlThunkData_t@@PEAX_K@ZPEAP6AX012@Z@Z 0000000180032834     atls:atlthunk.obj
 0002:0000b834       $unwind$?__AllocStdCallThunk_cmn@@YAPEAXXZ 0000000180032834     atls:atlthunk.obj
 0002:0000b834       $unwind$?__InitializeThunkPool@@YAHXZ 0000000180032834     atls:atlthunk.obj
 0002:0000b834       $unwind$AtlThunk_DataToCode 0000000180032834     atls:atlthunk.obj
 0002:0000b834       $unwind$_RTC_Initialize    0000000180032834     LIBCMT:initsect.obj
 0002:0000b834       $unwind$_RTC_Terminate     0000000180032834     LIBCMT:initsect.obj
 0002:0000b834       $unwind$?__scrt_initialize_thread_safe_statics@@YAHXZ 0000000180032834     LIBCMT:thread_safe_statics.obj
 0002:0000b834       $unwind$??_Gbad_alloc@std@@UEAAPEAXI@Z 0000000180032834     LIBCMT:throw_bad_alloc.obj
 0002:0000b834       $unwind$??_Gbad_array_new_length@std@@UEAAPEAXI@Z 0000000180032834     LIBCMT:throw_bad_alloc.obj
 0002:0000b834       $unwind$??_Gexception@std@@UEAAPEAXI@Z 0000000180032834     LIBCMT:throw_bad_alloc.obj
 0002:0000b834       $unwind$__C_specific_handler_noexcept 0000000180032834     libvcruntime:chandler_noexcept.obj
 0002:0000b834       $unwind$__FrameUnwindFilter 0000000180032834     libvcruntime:ehhelpers.obj
 0002:0000b834       $unwind$?SetUnwindTryBlock@__FrameHandler3@@SAXPEA_KPEAU_xDISPATCHER_CONTEXT@@PEBU_s_FuncInfo@@H@Z 0000000180032834     libvcruntime:ehstate.obj
 0002:0000b834       $unwind$??_Gbad_exception@std@@UEAAPEAXI@Z 0000000180032834     libvcruntime:frame.obj
 0002:0000b834       $unwind$?ExFilterRethrow@@YAHPEAU_EXCEPTION_POINTERS@@PEAUEHExceptionRecord@@PEAH@Z 0000000180032834     libvcruntime:frame.obj
 0002:0000b834       $unwind$?ExFilterRethrowFH4@@YAHPEAU_EXCEPTION_POINTERS@@PEAUEHExceptionRecord@@HPEAH@Z 0000000180032834     libvcruntime:frame.obj
 0002:0000b834       $unwind$_FindAndUnlinkFrame 0000000180032834     libvcruntime:risctrnsctrl.obj
 0002:0000b834       $unwind$__vcrt_FlsSetValue 0000000180032834     libvcruntime:winapi_downlevel.obj
 0002:0000b840       $unwind$?ChangeBSTR@OposVariant@@QEAAXPEAPEA_WAEAJ@Z 0000000180032840     OposVariant.obj
 0002:0000b840       $unwind$?ChangeLONG@OposVariant@@QEAAXPEAJAEAJ@Z 0000000180032840     OposVariant.obj
 0002:0000b840       $unwind$?x_ismbbtype_l@@YAHPEAU__crt_locale_pointers@@IHH@Z 0000000180032840     libucrt:ismbbyte.obj
 0002:0000b850       $unwind$swprintf_s         0000000180032850     PointCardRW.obj
 0002:0000b860       $unwind$?_AtlVerifyStackAvailable@_ATL_SAFE_ALLOCA_IMPL@ATL@@YA_N_K@Z 0000000180032860     PointCardRW.obj
 0002:0000b88c       $unwind$?filt$0@?0??_AtlVerifyStackAvailable@_ATL_SAFE_ALLOCA_IMPL@ATL@@YA_N_K@Z@4HA 000000018003288c     PointCardRW.obj
 0002:0000b88c       $unwind$_query_new_handler$fin$0 000000018003288c     libucrt:new_handler.obj
 0002:0000b88c       $unwind$?fin$0@?0???$?RV<lambda_0ae27a3a962d80f24befdcbee591983d>@@AEAV<lambda_8d0ee55de4b1038c4002e0adecdf1839>@@V<lambda_dc504788e8f1664fe9b84e20bfb512f2>@@@?$__crt_seh_guarded_call@X@@QEAAX$$QEAV<lambda_0ae27a3a962d80f24befdcbee591983d>@@AEAV<lambda_8d0ee55de4b1038c4002e0adecdf1839>@@$$QEAV<lambda_dc504788e8f1664fe9b84e20bfb512f2>@@@Z@4HA 000000018003288c     libucrt:per_thread_data.obj
 0002:0000b88c       $unwind$?fin$0@?0???$?RV<lambda_2d41944a1d46af3157314b8a01080d33>@@AEAV<lambda_8f455de75cd7d7f24b4096f044d8b9e6>@@V<lambda_aa500f224e6afead328df44964fe2772>@@@?$__crt_seh_guarded_call@X@@QEAAX$$QEAV<lambda_2d41944a1d46af3157314b8a01080d33>@@AEAV<lambda_8f455de75cd7d7f24b4096f044d8b9e6>@@$$QEAV<lambda_aa500f224e6afead328df44964fe2772>@@@Z@4HA 000000018003288c     libucrt:per_thread_data.obj
 0002:0000b88c       $unwind$?fin$0@?0???$?RV<lambda_aa87e3671a710a21b5dc78c0bdf72e11>@@AEAV<lambda_92619d2358a28f41a33ba319515a20b9>@@V<lambda_6992ecaafeb10aed2b74cb1fae11a551>@@@?$__crt_seh_guarded_call@X@@QEAAX$$QEAV<lambda_aa87e3671a710a21b5dc78c0bdf72e11>@@AEAV<lambda_92619d2358a28f41a33ba319515a20b9>@@$$QEAV<lambda_6992ecaafeb10aed2b74cb1fae11a551>@@@Z@4HA 000000018003288c     libucrt:per_thread_data.obj
 0002:0000b88c       $unwind$?fin$0@?0???$?RV<lambda_f2e299630e499de9f9a165e60fcd3db5>@@AEAV<lambda_2ae9d31cdba2644fcbeaf08da7c24588>@@V<lambda_40d01ff24d0e7b3814fdbdcee8eab3c7>@@@?$__crt_seh_guarded_call@X@@QEAAX$$QEAV<lambda_f2e299630e499de9f9a165e60fcd3db5>@@AEAV<lambda_2ae9d31cdba2644fcbeaf08da7c24588>@@$$QEAV<lambda_40d01ff24d0e7b3814fdbdcee8eab3c7>@@@Z@4HA 000000018003288c     libucrt:per_thread_data.obj
 0002:0000b88c       $unwind$__acrt_update_thread_locale_data$fin$0 000000018003288c     libucrt:locale_refcounting.obj
 0002:0000b88c       $unwind$?fin$0@?0???$?RV<lambda_410d79af7f07d98d83a3f525b3859a53>@@AEAV<lambda_3e16ef9562a7dcce91392c22ab16ea36>@@V<lambda_38119f0e861e05405d8a144b9b982f0a>@@@?$__crt_seh_guarded_call@X@@QEAAX$$QEAV<lambda_410d79af7f07d98d83a3f525b3859a53>@@AEAV<lambda_3e16ef9562a7dcce91392c22ab16ea36>@@$$QEAV<lambda_38119f0e861e05405d8a144b9b982f0a>@@@Z@4HA 000000018003288c     libucrt:wsetlocale.obj
 0002:0000b88c       $unwind$?fin$0@?0???$?RV<lambda_ad8af0d99a0adf03d037d7dffe354bb5>@@AEAV<lambda_c9ba49e555ba839a7b07aa3fbecb7617>@@V<lambda_2f1ebd5d68526518146ae959c9e734c8>@@@?$__crt_seh_guarded_call@H@@QEAAH$$QEAV<lambda_ad8af0d99a0adf03d037d7dffe354bb5>@@AEAV<lambda_c9ba49e555ba839a7b07aa3fbecb7617>@@$$QEAV<lambda_2f1ebd5d68526518146ae959c9e734c8>@@@Z@4HA 000000018003288c     libucrt:close.obj
 0002:0000b88c       $unwind$?fin$0@?0???$?RV<lambda_a37b2b86f63e897a80ea819b0eb08c01>@@AEAV<lambda_38ce7e780aa69e748d6df282ebc68efe>@@V<lambda_99fb1378e971ab6e7edea83e3a7a83a2>@@@?$__crt_seh_guarded_call@H@@QEAAH$$QEAV<lambda_a37b2b86f63e897a80ea819b0eb08c01>@@AEAV<lambda_38ce7e780aa69e748d6df282ebc68efe>@@$$QEAV<lambda_99fb1378e971ab6e7edea83e3a7a83a2>@@@Z@4HA 000000018003288c     libucrt:commit.obj
 0002:0000b88c       $unwind$__acrt_initialize_lowio$fin$0 000000018003288c     libucrt:ioinit.obj
 0002:0000b88c       $unwind$__acrt_lowio_ensure_fh_exists$fin$0 000000018003288c     libucrt:osfinfo.obj
 0002:0000b88c       $unwind$?fin$0@?0???$?RV<lambda_efdfa57d1f175319df784efa44bb7b81>@@AEAV<lambda_5f0a4c1567f8adc6734073e5d1e1b35c>@@V<lambda_2e8a7d3640ea6ccb4c2413664c2db6fd>@@@?$__crt_seh_guarded_call@X@@QEAAX$$QEAV<lambda_efdfa57d1f175319df784efa44bb7b81>@@AEAV<lambda_5f0a4c1567f8adc6734073e5d1e1b35c>@@$$QEAV<lambda_2e8a7d3640ea6ccb4c2413664c2db6fd>@@@Z@4HA 000000018003288c     libucrt:mbctype.obj
 0002:0000b88c       $unwind$?fin$0@?0??update_thread_multibyte_data_internal@@YAPEAU__crt_multibyte_data@@QEAU__acrt_ptd@@QEAPEAU1@@Z@4HA 000000018003288c     libucrt:mbctype.obj
 0002:0000b88c       $unwind$?fin$0@?0???$?RV<lambda_450d765d439847d4c735a33c368b5fc0>@@AEAV<lambda_44731a7d0e6d81c3e6aa82d741081786>@@V<lambda_601a2a7da3b7a96e9554ac7215c4b07c>@@@?$__crt_seh_guarded_call@P6AXH@Z@@QEAAP6AXH@Z$$QEAV<lambda_450d765d439847d4c735a33c368b5fc0>@@AEAV<lambda_44731a7d0e6d81c3e6aa82d741081786>@@$$QEAV<lambda_601a2a7da3b7a96e9554ac7215c4b07c>@@@Z@4HA 000000018003288c     libucrt:signal.obj
 0002:0000b88c       $unwind$raise$fin$0        000000018003288c     libucrt:signal.obj
 0002:0000b88c       $unwind$?filt$0@?0???R<lambda_6e4b09c48022b2350581041d5f6b0c4c>@@QEBA@XZ@4HA 000000018003288c     libucrt:exit.obj
 0002:0000b88c       $unwind$?fin$0@?0???$?RV<lambda_d80eeec6fff315bfe5c115232f3240e3>@@AEAV<lambda_6e4b09c48022b2350581041d5f6b0c4c>@@V<lambda_2358e3775559c9db80273638284d5e45>@@@?$__crt_seh_guarded_call@X@@QEAAX$$QEAV<lambda_d80eeec6fff315bfe5c115232f3240e3>@@AEAV<lambda_6e4b09c48022b2350581041d5f6b0c4c>@@$$QEAV<lambda_2358e3775559c9db80273638284d5e45>@@@Z@4HA 000000018003288c     libucrt:exit.obj
 0002:0000b88c       $unwind$?fin$0@?0???$?RV<lambda_638799b9deba96c50f710eeac98168cd>@@AEAV<lambda_22ebabd17bc4fa466a2aca6d8deb888d>@@V<lambda_a6f7d7db0129f75315ebf26d50c089f1>@@@?$__crt_seh_guarded_call@H@@QEAAH$$QEAV<lambda_638799b9deba96c50f710eeac98168cd>@@AEAV<lambda_22ebabd17bc4fa466a2aca6d8deb888d>@@$$QEAV<lambda_a6f7d7db0129f75315ebf26d50c089f1>@@@Z@4HA 000000018003288c     libucrt:onexit.obj
 0002:0000b88c       $unwind$?fin$0@?0???$?RV<lambda_7777bce6b2f8c936911f934f8298dc43>@@AEAV<lambda_f03950bc5685219e0bcd2087efbe011e>@@V<lambda_3883c3dff614d5e0c5f61bb1ac94921c>@@@?$__crt_seh_guarded_call@H@@QEAAH$$QEAV<lambda_7777bce6b2f8c936911f934f8298dc43>@@AEAV<lambda_f03950bc5685219e0bcd2087efbe011e>@@$$QEAV<lambda_3883c3dff614d5e0c5f61bb1ac94921c>@@@Z@4HA 000000018003288c     libucrt:onexit.obj
 0002:0000b88c       $unwind$_fcloseall$fin$0   000000018003288c     libucrt:closeall.obj
 0002:0000b88c       $unwind$?fin$0@?0???$?RV<lambda_842d9ff0dc9ef11c61343bbaebe7f885>@@AEAV<lambda_c5860995281e5c4ce005b3de8f5874ee>@@V<lambda_d90129c13df834fdcbf8d2b88dafcf2d>@@@?$__crt_seh_guarded_call@X@@QEAAX$$QEAV<lambda_842d9ff0dc9ef11c61343bbaebe7f885>@@AEAV<lambda_c5860995281e5c4ce005b3de8f5874ee>@@$$QEAV<lambda_d90129c13df834fdcbf8d2b88dafcf2d>@@@Z@4HA 000000018003288c     libucrt:fflush.obj
 0002:0000b88c       $unwind$?fin$0@?0???$?RV<lambda_886d6c58226a84441f68b9f2b8217b83>@@AEAV<lambda_ab61a845afdef5b7c387490eaf3616ee>@@V<lambda_f7f22ab5edc0698d5f6905b0d3f44752>@@@?$__crt_seh_guarded_call@X@@QEAAX$$QEAV<lambda_886d6c58226a84441f68b9f2b8217b83>@@AEAV<lambda_ab61a845afdef5b7c387490eaf3616ee>@@$$QEAV<lambda_f7f22ab5edc0698d5f6905b0d3f44752>@@@Z@4HA 000000018003288c     libucrt:fflush.obj
 0002:0000b88c       $unwind$_ctrlfp$filt$0     000000018003288c     libucrt:fpctrl.obj
 0002:0000b88c       $unwind$common_control87$filt$0 000000018003288c     libucrt:ieee.obj
 0002:0000b88c       $unwind$?fin$0@?0??dllmain_crt_process_attach@@YAHQEAUHINSTANCE__@@QEAX@Z@4HA 000000018003288c     LIBCMT:dll_dllmain.obj
 0002:0000b88c       $unwind$?fin$0@?0??dllmain_crt_process_detach@@YAH_N@Z@4HA 000000018003288c     LIBCMT:dll_dllmain.obj
 0002:0000b88c       $unwind$?fin$1@?0??dllmain_crt_process_detach@@YAH_N@Z@4HA 000000018003288c     LIBCMT:dll_dllmain.obj
 0002:0000b88c       $unwind$_IsNonwritableInCurrentImage$filt$0 000000018003288c     LIBCMT:pesect.obj
 0002:0000b88c       $unwind$?filt$0@?0??CxxCallCatchBlock@__FrameHandler3@@SAPEAXPEAU_EXCEPTION_RECORD@@@Z@4HA 000000018003288c     libvcruntime:frame.obj
 0002:0000b88c       $unwind$?filt$0@?0??CxxCallCatchBlock@__FrameHandler4@@SAPEAXPEAU_EXCEPTION_RECORD@@@Z@4HA 000000018003288c     libvcruntime:frame.obj
 0002:0000b88c       $unwind$?filt$0@?0??FrameUnwindToState@__FrameHandler3@@SAXPEA_KPEAU_xDISPATCHER_CONTEXT@@PEBU_s_FuncInfo@@H@Z@4HA 000000018003288c     libvcruntime:frame.obj
 0002:0000b88c       $unwind$?fin$1@?0??FrameUnwindToState@__FrameHandler3@@SAXPEA_KPEAU_xDISPATCHER_CONTEXT@@PEBU_s_FuncInfo@@H@Z@4HA 000000018003288c     libvcruntime:frame.obj
 0002:0000b894       $unwind$?AtlInternalOleLoadFromStream@ATL@@YAJPEAUIStream@@AEBU_GUID@@PEAPEAXTClassesAllowedInStream@1@K@Z 0000000180032894     PointCardRW.obj
 0002:0000b8b0       $unwind$?ReadFromStream@CComBSTR@ATL@@QEAAJPEAUIStream@@@Z 00000001800328b0     PointCardRW.obj
 0002:0000b8b0       $unwind$_configure_narrow_argv 00000001800328b0     libucrt:argv_parsing.obj
 0002:0000b8c4       $unwind$?WriteToStream@CComVariant@ATL@@QEAAJPEAUIStream@@@Z 00000001800328c4     PointCardRW.obj
 0002:0000b8d8       $unwind$?RegOpenKeyExW@CAtlTransactionManager@ATL@@QEAAJPEAUHKEY__@@PEB_WKKPEAPEAU3@@Z 00000001800328d8     PointCardRW.obj
 0002:0000b8d8       $unwind$?WriteToStream@CComVariant@ATL@@QEAAJPEAUIStream@@G@Z 00000001800328d8     PointCardRW.obj
 0002:0000b8d8       $unwind$__dcrt_write_console 00000001800328d8     libucrt:initcon.obj
 0002:0000b8d8       $unwind$??$__acrt_convert_wcs_mbs_cp@_WDV<lambda_f788ae46380686e8b737efdd8c720d07>@@U__crt_win32_buffer_no_resizing@@@@YAHQEB_WAEAV?$__crt_win32_buffer@DU__crt_win32_buffer_no_resizing@@@@AEBV<lambda_f788ae46380686e8b737efdd8c720d07>@@I@Z 00000001800328d8     libucrt:getmodulefilenamea.obj
 0002:0000b8ec       $unwind$?ReadFromStream@CComVariant@ATL@@QEAAJPEAUIStream@@GTClassesAllowedInStream@2@K@Z 00000001800328ec     PointCardRW.obj
 0002:0000b904       $unwind$?GetSizeMax@CComVariant@ATL@@QEBAJPEAT_ULARGE_INTEGER@@@Z 0000000180032904     PointCardRW.obj
 0002:0000b918       $unwind$?RegCreateKeyExW@CAtlTransactionManager@ATL@@QEAAJPEAUHKEY__@@PEB_WKPEA_WKKQEAU_SECURITY_ATTRIBUTES@@PEAPEAU3@PEAK@Z 0000000180032918     PointCardRW.obj
 0002:0000b92c       $unwind$?GetGITPtr@CAtlModule@ATL@@UEAAJPEAPEAUIGlobalInterfaceTable@@@Z 000000018003292c     PointCardRW.obj
 0002:0000b92c       $unwind$?RegDeleteKeyW@CAtlTransactionManager@ATL@@QEAAJPEAUHKEY__@@PEB_W@Z 000000018003292c     PointCardRW.obj
 0002:0000b92c       $unwind$?getStateFromIterators@UWMap4@FH4@@SAHAEBViterator@12@H0H0@Z 000000018003292c     libvcruntime:frame.obj
 0002:0000b93c       $unwind$?AtlHiMetricToPixel@ATL@@YAXPEBUtagSIZE@@PEAU2@@Z 000000018003293c     PointCardRW.obj
 0002:0000b93c       $unwind$?AtlInternalQueryInterface@ATL@@YAJPEAXPEBU_ATL_INTMAP_ENTRY@1@AEBU_GUID@@PEAPEAX@Z 000000018003293c     PointCardRW.obj
 0002:0000b954       $unwind$?Append@CParseBuffer@CRegParser@ATL@@QEAAHPEB_WH@Z 0000000180032954     PointCardRW.obj
 0002:0000b954       $unwind$?AtlComModuleGetClassObject@ATL@@YAJPEAU_ATL_COM_MODULE70@1@AEBU_GUID@@1PEAPEAX@Z 0000000180032954     PointCardRW.obj
 0002:0000b954       $unwind$?GetClassObject@CComModule@ATL@@QEAAJAEBU_GUID@@0PEAPEAX@Z 0000000180032954     PointCardRW.obj
 0002:0000b954       $unwind$?NextToken@CRegParser@ATL@@IEAAJPEA_W@Z 0000000180032954     PointCardRW.obj
 0002:0000b954       $unwind$?StartWindowProc@?$CWindowImplBaseT@VCWindow@ATL@@V?$CWinTraits@$0FGAAAAAA@$0A@@2@@ATL@@SA_JPEAUHWND__@@I_K_J@Z 0000000180032954     PointCardRW.obj
 0002:0000b954       $unwind$?fp_format_f_internal@@YAHQEAD_KHQEAU_strflt@@_NAEAV__crt_cached_ptd_host@@@Z 0000000180032954     libucrt:cvt.obj
 0002:0000b954       $unwind$__acrt_DownlevelLocaleNameToLCID 0000000180032954     libucrt:lcidtoname_downlevel.obj
 0002:0000b954       $unwind$??R<lambda_f03950bc5685219e0bcd2087efbe011e>@@QEBAHXZ 0000000180032954     libucrt:onexit.obj
 0002:0000b96c       $unwind$?AtlRegisterClassCategoriesHelper@ATL@@YAJAEBU_GUID@@PEBU_ATL_CATMAP_ENTRY@1@H@Z 000000018003296c     PointCardRW.obj
 0002:0000b990       $unwind$?AtlLoadTypeLib@ATL@@YAJPEAUHINSTANCE__@@PEB_WPEAPEA_WPEAPEAUITypeLib@@@Z 0000000180032990     PointCardRW.obj
 0002:0000b9b0       $unwind$?AtlRegisterTypeLib@ATL@@YAJPEAUHINSTANCE__@@PEB_W@Z 00000001800329b0     PointCardRW.obj
 0002:0000b9cc       $unwind$?AtlUnRegisterTypeLib@ATL@@YAJPEAUHINSTANCE__@@PEB_W@Z 00000001800329cc     PointCardRW.obj
 0002:0000b9d4       $unwind$?GetTI@CComTypeInfoHolder@ATL@@QEAAJK@Z 00000001800329d4     PointCardRW.obj
 0002:0000b9d4       $unwind$?RecurseDeleteKey@CRegKey@ATL@@QEAAJPEB_W@Z 00000001800329d4     PointCardRW.obj
 0002:0000b9f4       $unwind$?UpdateRegistryFromResource@CAtlModule@ATL@@QEAAJIHPEAU_ATL_REGMAP_ENTRY@2@@Z 00000001800329f4     PointCardRW.obj
 0002:0000b9f4       $unwind$?UpdateRegistryFromResource@CAtlModule@ATL@@QEAAJPEB_WHPEAU_ATL_REGMAP_ENTRY@2@@Z 00000001800329f4     PointCardRW.obj
 0002:0000ba14       $unwind$?Lookup@?$CSimpleMap@PEA_WPEA_WVCExpansionVectorEqualHelper@ATL@@@ATL@@QEBAPEA_WAEBQEA_W@Z 0000000180032a14     PointCardRW.obj
 0002:0000ba14       $unwind$_free_osfhnd       0000000180032a14     libucrt:osfinfo.obj
 0002:0000ba14       $unwind$__std_exception_copy 0000000180032a14     libvcruntime:std_exception.obj
 0002:0000ba28       $unwind$?Add@CExpansionVector@ATL@@QEAAHPEB_W0@Z 0000000180032a28     PointCardRW.obj
 0002:0000ba40       $unwind$?PreProcessBuffer@CRegParser@ATL@@QEAAJPEA_WPEAPEA_W@Z 0000000180032a40     PointCardRW.obj
 0002:0000ba64       $unwind$?RegisterBuffer@CRegParser@ATL@@QEAAJPEA_WH@Z 0000000180032a64     PointCardRW.obj
 0002:0000ba84       $unwind$?AddValue@CRegParser@ATL@@IEAAJAEAVCRegKey@2@PEB_WPEA_W@Z 0000000180032a84     PointCardRW.obj
 0002:0000baa4       $unwind$?RegisterSubkeys@CRegParser@ATL@@IEAAJPEA_WPEAUHKEY__@@HH@Z 0000000180032aa4     PointCardRW.obj
 0002:0000bac4       $unwind$?SkipAssignment@CRegParser@ATL@@IEAAJPEA_W@Z 0000000180032ac4     PointCardRW.obj
 0002:0000bae0       $unwind$?RegisterFromResource@CRegObject@ATL@@IEAAJPEB_W00H@Z 0000000180032ae0     PointCardRW.obj
 0002:0000bb00       $unwind$?Cleanup@CComTypeInfoHolder@ATL@@SAX_K@Z 0000000180032b00     PointCardRW.obj
 0002:0000bb00       $unwind$_free_base         0000000180032b00     libucrt:free_base.obj
 0002:0000bb00       $unwind$?destroy_fls@@YAXPEAX@Z 0000000180032b00     libucrt:per_thread_data.obj
 0002:0000bb00       $unwind$__acrt_locale_free_numeric 0000000180032b00     libucrt:initnum.obj
 0002:0000bb00       $unwind$__acrt_locale_free_lc_time_if_unreferenced 0000000180032b00     libucrt:locale_refcounting.obj
 0002:0000bb00       $unwind$AtlThunk_FreeData  0000000180032b00     atls:atlthunk.obj
 0002:0000bb08       $unwind$?GetIDsOfNames@CComTypeInfoHolder@ATL@@QEAAJAEBU_GUID@@PEAPEA_WIKPEAJ@Z 0000000180032b08     PointCardRW.obj
 0002:0000bb24       $unwind$?LoadNameCache@CComTypeInfoHolder@ATL@@QEAAJPEAUITypeInfo@@@Z 0000000180032b24     PointCardRW.obj
 0002:0000bb3c       $unwind$?WindowProc@?$CWindowImplBaseT@VCWindow@ATL@@V?$CWinTraits@$0FGAAAAAA@$0A@@2@@ATL@@SA_JPEAUHWND__@@I_K_J@Z 0000000180032b3c     PointCardRW.obj
 0002:0000bb54       $unwind$?atlCreate@?$CWindowImplBaseT@VCWindow@ATL@@V?$CWinTraits@$0FGAAAAAA@$0A@@2@@ATL@@QEAAPEAUHWND__@@PEAU3@V_U_RECT@2@PEB_WKKV_U_MENUorID@2@GPEAX@Z 0000000180032b54     PointCardRW.obj
 0002:0000bb6c       $unwind$??$AtlModuleRegisterWndClassInfoT@VAtlModuleRegisterWndClassInfoParamW@ATL@@@ATL@@YAGPEAU_ATL_BASE_MODULE70@0@PEAU_ATL_WIN_MODULE70@0@PEAU_ATL_WNDCLASSINFOW@0@PEAP6A_JPEAUHWND__@@I_K_J@ZVAtlModuleRegisterWndClassInfoParamW@0@@Z 0000000180032b6c     PointCardRW.obj
 0002:0000bb8c       $unwind$?GetZoomInfo@CComControlBase@ATL@@QEAAXAEAUATL_DRAWINFO@@@Z 0000000180032b8c     PointCardRW.obj
 0002:0000bb8c       $unwind$?OnKillFocus@CComControlBase@ATL@@QEAA_JI_K_JAEAH@Z 0000000180032b8c     PointCardRW.obj
 0002:0000bb8c       $unwind$?get_raw_ptd@__crt_cached_ptd_host@@QEAAPEAU__acrt_ptd@@XZ 0000000180032b8c     libucrt:invalid_parameter.obj
 0002:0000bb98       $unwind$?SendOnDataChange@CComControlBase@ATL@@QEAAJK@Z 0000000180032b98     PointCardRW.obj
 0002:0000bba8       $unwind$?OnSetFocus@CComControlBase@ATL@@QEAA_JI_K_JAEAH@Z 0000000180032ba8     PointCardRW.obj
 0002:0000bbbc       $unwind$?OnMouseActivate@CComControlBase@ATL@@QEAA_JI_K_JAEAH@Z 0000000180032bbc     PointCardRW.obj
 0002:0000bbc4       $unwind$?GetAmbientLocaleID@CComControlBase@ATL@@QEAAJAEAK@Z 0000000180032bc4     PointCardRW.obj
 0002:0000bbc4       $unwind$?GetAmbientUserMode@CComControlBase@ATL@@QEAAJAEAH@Z 0000000180032bc4     PointCardRW.obj
 0002:0000bbd4       $unwind$?IQuickActivate_QuickActivate@CComControlBase@ATL@@QEAAJPEAUtagQACONTAINER@@PEAUtagQACONTROL@@@Z 0000000180032bd4     PointCardRW.obj
 0002:0000bbec       $unwind$?DoVerbProperties@CComControlBase@ATL@@QEAAJPEBUtagRECT@@PEAUHWND__@@@Z 0000000180032bec     PointCardRW.obj
 0002:0000bc04       $unwind$?InPlaceActivate@CComControlBase@ATL@@QEAAJJPEBUtagRECT@@@Z 0000000180032c04     PointCardRW.obj
 0002:0000bc24       $unwind$?IOleObject_Close@CComControlBase@ATL@@QEAAJK@Z 0000000180032c24     PointCardRW.obj
 0002:0000bc24       $unwind$?get_raw_ptd_noexit@__crt_cached_ptd_host@@QEAAPEAU__acrt_ptd@@XZ 0000000180032c24     libucrt:invalid_parameter.obj
 0002:0000bc24       $unwind$?type_case_c_tchar@?$output_processor@_WV?$string_output_adapter@_W@__crt_stdio_output@@V?$format_validation_base@_WV?$string_output_adapter@_W@__crt_stdio_output@@@2@@__crt_stdio_output@@AEAA_N_W@Z 0000000180032c24     libucrt:output.obj
 0002:0000bc34       $unwind$?IOleInPlaceObject_UIDeactivate@CComControlBase@ATL@@QEAAJXZ 0000000180032c34     PointCardRW.obj
 0002:0000bc4c       $unwind$?IOleInPlaceObject_SetObjectRects@CComControlBase@ATL@@QEAAJPEBUtagRECT@@0@Z 0000000180032c4c     PointCardRW.obj
 0002:0000bc60       $unwind$?IViewObject_Draw@CComControlBase@ATL@@QEAAJKJPEAXPEAUtagDVTARGETDEVICE@@PEAUHDC__@@2PEBU_RECTL@@3@Z 0000000180032c60     PointCardRW.obj
 0002:0000bc7c       $unwind$?IDataObject_GetData@CComControlBase@ATL@@QEAAJPEAUtagFORMATETC@@PEAUtagSTGMEDIUM@@@Z 0000000180032c7c     PointCardRW.obj
 0002:0000bc9c       $unwind$?OnPaint@CComControlBase@ATL@@QEAA_JI_K_JAEAH@Z 0000000180032c9c     PointCardRW.obj
 0002:0000bcb8       $unwind$?OnDrawAdvanced@CComControlBase@ATL@@UEAAJAEAUATL_DRAWINFO@@@Z 0000000180032cb8     PointCardRW.obj
 0002:0000bcd4       $unwind$?Invoke@?$IDispatchImpl@UIOPOSPointCardRW@@$1?IID_IOPOSPointCardRW@@3U_GUID@@B$1?LIBID_OposPointCardRW_CCO@@3U3@B$00$0A@VCComTypeInfoHolder@ATL@@@ATL@@UEAAJJAEBU_GUID@@KGPEAUtagDISPPARAMS@@PEAUtagVARIANT@@PEAUtagEXCEPINFO@@PEAI@Z 0000000180032cd4     PointCardRW.obj
 0002:0000bcd4       $unwind$?ReleaseDevice@COPOSPointCardRW@@UEAAJPEAJ@Z 0000000180032cd4     PointCardRWImpl.obj
 0002:0000bcd4       $unwind$_mbsdec_l          0000000180032cd4     libucrt:mbsdec.obj
 0002:0000bce0       $unwind$?atlCreate@?$CWindowImpl@VCOPOSPointCardRW@@VCWindow@ATL@@V?$CWinTraits@$0FGAAAAAA@$0A@@3@@ATL@@QEAAPEAUHWND__@@PEAU3@V_U_RECT@2@PEB_WKKV_U_MENUorID@2@PEAX@Z 0000000180032ce0     PointCardRW.obj
 0002:0000bce0       $unwind$?fp_format_f@@YAHQEBNQEAD_K12HW4__acrt_rounding_mode@@AEAV__crt_cached_ptd_host@@@Z 0000000180032ce0     libucrt:cvt.obj
 0002:0000bce0       $unwind$__acrt_LCMapStringEx 0000000180032ce0     libucrt:winapi_thunks.obj
 0002:0000bcf4       $unwind$?CreateControlWindow@?$CComControl@VCOPOSPointCardRW@@V?$CWindowImpl@VCOPOSPointCardRW@@VCWindow@ATL@@V?$CWinTraits@$0FGAAAAAA@$0A@@3@@ATL@@@ATL@@UEAAPEAUHWND__@@PEAU3@AEAUtagRECT@@@Z 0000000180032cf4     PointCardRW.obj
 0002:0000bcf4       $unwind$?CleanCard@COPOSPointCardRW@@UEAAJPEAJ@Z 0000000180032cf4     PointCardRWImpl.obj
 0002:0000bcf4       $unwind$?ClearInput@COPOSPointCardRW@@UEAAJPEAJ@Z 0000000180032cf4     PointCardRWImpl.obj
 0002:0000bcf4       $unwind$?ClearInputProperties@COPOSPointCardRW@@UEAAJPEAJ@Z 0000000180032cf4     PointCardRWImpl.obj
 0002:0000bcf4       $unwind$?ClearOutput@COPOSPointCardRW@@UEAAJPEAJ@Z 0000000180032cf4     PointCardRWImpl.obj
 0002:0000bcf4       $unwind$?EndInsertion@COPOSPointCardRW@@UEAAJPEAJ@Z 0000000180032cf4     PointCardRWImpl.obj
 0002:0000bcf4       $unwind$?EndRemoval@COPOSPointCardRW@@UEAAJPEAJ@Z 0000000180032cf4     PointCardRWImpl.obj
 0002:0000bcf4       $unwind$_raise_exc         0000000180032cf4     libucrt:fpexcept.obj
 0002:0000bcf4       $unwind$?__scrt_throw_std_bad_alloc@@YAXXZ 0000000180032cf4     LIBCMT:throw_bad_alloc.obj
 0002:0000bcf4       $unwind$?__scrt_throw_std_bad_array_new_length@@YAXXZ 0000000180032cf4     LIBCMT:throw_bad_alloc.obj
 0002:0000bcfc       $unwind$?ProcessWindowMessage@?$CComControl@VCOPOSPointCardRW@@V?$CWindowImpl@VCOPOSPointCardRW@@VCWindow@ATL@@V?$CWinTraits@$0FGAAAAAA@$0A@@3@@ATL@@@ATL@@UEAAHPEAUHWND__@@I_K_JAEA_JK@Z 0000000180032cfc     PointCardRW.obj
 0002:0000bd04       $unwind$?GetSizeMax@?$IPersistStreamInitImpl@VCOPOSPointCardRW@@@ATL@@UEAAJPEAT_ULARGE_INTEGER@@@Z 0000000180032d04     PointCardRW.obj
 0002:0000bd1c       $unwind$?IPersistStreamInit_Load@?$IPersistStreamInitImpl@VCOPOSPointCardRW@@@ATL@@QEAAJPEAUIStream@@PEBUATL_PROPMAP_ENTRY@2@@Z 0000000180032d1c     PointCardRW.obj
 0002:0000bd38       $unwind$?IPersistStreamInit_Save@?$IPersistStreamInitImpl@VCOPOSPointCardRW@@@ATL@@QEAAJPEAUIStream@@HPEBUATL_PROPMAP_ENTRY@2@@Z 0000000180032d38     PointCardRW.obj
 0002:0000bd54       $unwind$?DoVerbPrimary@?$IOleObjectImpl@VCOPOSPointCardRW@@@ATL@@QEAAJPEBUtagRECT@@PEAUHWND__@@@Z 0000000180032d54     PointCardRW.obj
 0002:0000bd6c       $unwind$?TranslateAcceleratorW@?$IOleInPlaceActiveObjectImpl@VCOPOSPointCardRW@@@ATL@@UEAAJPEAUtagMSG@@@Z 0000000180032d6c     PointCardRW.obj
 0002:0000bd78       $unwind$?Draw@?$IViewObjectExImpl@VCOPOSPointCardRW@@@ATL@@UEAAJKJPEAXPEAUtagDVTARGETDEVICE@@PEAUHDC__@@2PEBU_RECTL@@3P6AH_K@Z4@Z 0000000180032d78     PointCardRW.obj
 0002:0000bd80       $unwind$?QueryHitRect@?$IViewObjectExImpl@VCOPOSPointCardRW@@@ATL@@UEAAJKPEBUtagRECT@@0JPEAK@Z 0000000180032d80     PointCardRW.obj
 0002:0000bd90       $unwind$?OnWindowMessage@?$IOleInPlaceObjectWindowlessImpl@VCOPOSPointCardRW@@@ATL@@UEAAJI_K_JPEA_J@Z 0000000180032d90     PointCardRW.obj
 0002:0000bda4       $unwind$?EnumConnectionPoints@?$IConnectionPointContainerImpl@VCOPOSPointCardRW@@@ATL@@UEAAJPEAPEAUIEnumConnectionPoints@@@Z 0000000180032da4     PointCardRW.obj
 0002:0000bdcc       $unwind$?FindConnectionPoint@?$IConnectionPointContainerImpl@VCOPOSPointCardRW@@@ATL@@UEAAJAEBU_GUID@@PEAPEAUIConnectionPoint@@@Z 0000000180032dcc     PointCardRW.obj
 0002:0000bde8       $unwind$?Load@?$IPersistStorageImpl@VCOPOSPointCardRW@@@ATL@@UEAAJPEAUIStorage@@@Z 0000000180032de8     PointCardRW.obj
 0002:0000bdf8       $unwind$?Save@?$IPersistStorageImpl@VCOPOSPointCardRW@@@ATL@@UEAAJPEAUIStorage@@H@Z 0000000180032df8     PointCardRW.obj
 0002:0000be0c       $unwind$?IPSI_GetIPersistStreamInit@?$IPersistStorageImpl@VCOPOSPointCardRW@@@ATL@@AEAAPEAUIPersistStreamInit@@XZ 0000000180032e0c     PointCardRW.obj
 0002:0000be20       $unwind$?GetInterfaceSafetyOptions@?$IObjectSafetyImpl@VCOPOSPointCardRW@@$02@ATL@@UEAAJAEBU_GUID@@PEAK1@Z 0000000180032e20     PointCardRW.obj
 0002:0000be34       $unwind$?SetInterfaceSafetyOptions@?$IObjectSafetyImpl@VCOPOSPointCardRW@@$02@ATL@@UEAAJAEBU_GUID@@KK@Z 0000000180032e34     PointCardRW.obj
 0002:0000be48       $unwind$?Advise@?$IConnectionPointImpl@VCOPOSPointCardRW@@$1?DIID__IOPOSPointCardRWEvents@@3U_GUID@@BVCComDynamicUnkArray@ATL@@@ATL@@UEAAJPEAUIUnknown@@PEAK@Z 0000000180032e48     PointCardRW.obj
 0002:0000be48       $unwind$?Advise@?$IConnectionPointImpl@VCOPOSPointCardRW@@$1?IID_IPropertyNotifySink@@3U_GUID@@BVCComDynamicUnkArray@ATL@@@ATL@@UEAAJPEAUIUnknown@@PEAK@Z 0000000180032e48     PointCardRW.obj
 0002:0000be5c       $unwind$?EnumConnections@?$IConnectionPointImpl@VCOPOSPointCardRW@@$1?DIID__IOPOSPointCardRWEvents@@3U_GUID@@BVCComDynamicUnkArray@ATL@@@ATL@@UEAAJPEAPEAUIEnumConnections@@@Z 0000000180032e5c     PointCardRW.obj
 0002:0000be5c       $unwind$?EnumConnections@?$IConnectionPointImpl@VCOPOSPointCardRW@@$1?IID_IPropertyNotifySink@@3U_GUID@@BVCComDynamicUnkArray@ATL@@@ATL@@UEAAJPEAPEAUIEnumConnections@@@Z 0000000180032e5c     PointCardRW.obj
 0002:0000be74       $unwind$?Fire_DataEvent@?$CProxy_IOPOSEvents@VCOPOSPointCardRW@@@@QEAAXJ@Z 0000000180032e74     PointCardRW.obj
 0002:0000be74       $unwind$?Fire_OutputCompleteEvent@?$CProxy_IOPOSEvents@VCOPOSPointCardRW@@@@QEAAXJ@Z 0000000180032e74     PointCardRW.obj
 0002:0000be74       $unwind$?Fire_StatusUpdateEvent@?$CProxy_IOPOSEvents@VCOPOSPointCardRW@@@@QEAAXJ@Z 0000000180032e74     PointCardRW.obj
 0002:0000be74       $unwind$?fp_format_e@@YAHQEBNQEAD_K12H_NIW4__acrt_rounding_mode@@AEAV__crt_cached_ptd_host@@@Z 0000000180032e74     libucrt:cvt.obj
 0002:0000be74       $unwind$??$__InternalCxxFrameHandler@V__FrameHandler3@@@@YA?AW4_EXCEPTION_DISPOSITION@@PEAUEHExceptionRecord@@PEA_KPEAU_CONTEXT@@PEAU_xDISPATCHER_CONTEXT@@PEBU_s_FuncInfo@@H1E@Z 0000000180032e74     libvcruntime:frame.obj
 0002:0000be8c       $unwind$?Fire_DirectIOEvent@?$CProxy_IOPOSEvents@VCOPOSPointCardRW@@@@QEAAXJPEAJPEAPEA_W@Z 0000000180032e8c     PointCardRW.obj
 0002:0000beac       $unwind$?Fire_ErrorEvent@?$CProxy_IOPOSEvents@VCOPOSPointCardRW@@@@QEAAXJJJPEAJ@Z 0000000180032eac     PointCardRW.obj
 0002:0000becc       $unwind$?FireTheEvent@?$CProxy_IOPOSEvents@VCOPOSPointCardRW@@@@IEAAXPEAVOposVariant@@IAEAJPEB_WJ@Z 0000000180032ecc     PointCardRW.obj
 0002:0000bedc       $unwind$?ProcessWindowMessage@COPOSPointCardRW@@UEAAHPEAUHWND__@@I_K_JAEA_JK@Z 0000000180032edc     PointCardRW.obj
 0002:0000bef4       $unwind$?SOError@COPOSPointCardRW@@MEAAJJJJPEAJ@Z 0000000180032ef4     PointCardRW.obj
 0002:0000bef4       $unwind$??$common_lseek_nolock@_J@@YA_JH_JHAEAV__crt_cached_ptd_host@@@Z 0000000180032ef4     libucrt:lseek.obj
 0002:0000bef4       $unwind$_invalid_parameter_internal 0000000180032ef4     libucrt:invalid_parameter.obj
 0002:0000bef4       $unwind$??$type_case_integer@$07@?$output_processor@_WV?$string_output_adapter@_W@__crt_stdio_output@@V?$format_validation_base@_WV?$string_output_adapter@_W@__crt_stdio_output@@@2@@__crt_stdio_output@@AEAA_N_N@Z 0000000180032ef4     libucrt:output.obj
 0002:0000bef4       $unwind$??$type_case_integer@$09@?$output_processor@_WV?$string_output_adapter@_W@__crt_stdio_output@@V?$format_validation_base@_WV?$string_output_adapter@_W@__crt_stdio_output@@@2@@__crt_stdio_output@@AEAA_N_N@Z 0000000180032ef4     libucrt:output.obj
 0002:0000bef4       $unwind$??$type_case_integer@$0BA@@?$output_processor@_WV?$string_output_adapter@_W@__crt_stdio_output@@V?$format_validation_base@_WV?$string_output_adapter@_W@__crt_stdio_output@@@2@@__crt_stdio_output@@AEAA_N_N@Z 0000000180032ef4     libucrt:output.obj
 0002:0000bf08       $unwind$?Clone@?$CComEnumImpl@UIEnumConnectionPoints@@$1?_GUID_b196b285_bab4_101a_b69c_00aa00341d07@@3U__s_GUID@@BPEAUIConnectionPoint@@V?$_CopyInterface@UIConnectionPoint@@@ATL@@@ATL@@UEAAJPEAPEAUIEnumConnectionPoints@@@Z 0000000180032f08     PointCardRW.obj
 0002:0000bf08       $unwind$?Clone@?$CComEnumImpl@UIEnumConnections@@$1?_GUID_b196b287_bab4_101a_b69c_00aa00341d07@@3U__s_GUID@@BUtagCONNECTDATA@@V?$_Copy@UtagCONNECTDATA@@@ATL@@@ATL@@UEAAJPEAPEAUIEnumConnections@@@Z 0000000180032f08     PointCardRW.obj
 0002:0000bf20       $unwind$?Init@?$CComEnumImpl@UIEnumConnectionPoints@@$1?_GUID_b196b285_bab4_101a_b69c_00aa00341d07@@3U__s_GUID@@BPEAUIConnectionPoint@@V?$_CopyInterface@UIConnectionPoint@@@ATL@@@ATL@@QEAAJPEAPEAUIConnectionPoint@@0PEAUIUnknown@@W4CComEnumFlags@2@@Z 0000000180032f20     PointCardRW.obj
 0002:0000bf20       $unwind$?Init@?$CComEnumImpl@UIEnumConnections@@$1?_GUID_b196b287_bab4_101a_b69c_00aa00341d07@@3U__s_GUID@@BUtagCONNECTDATA@@V?$_Copy@UtagCONNECTDATA@@@ATL@@@ATL@@QEAAJPEAUtagCONNECTDATA@@0PEAUIUnknown@@W4CComEnumFlags@2@@Z 0000000180032f20     PointCardRW.obj
 0002:0000bf20       $unwind$?should_round_up@@YA_NQEBN_KFW4__acrt_rounding_mode@@@Z 0000000180032f20     libucrt:cvt.obj
 0002:0000bf20       $unwind$??$parse_command_line@D@@YAXPEADPEAPEAD0PEA_K2@Z 0000000180032f20     libucrt:argv_parsing.obj
 0002:0000bf3c       $unwind$?GetOposProp@COPOSPointCardRW@@IEAAJJPEAJJ@Z 0000000180032f3c     PointCardRWImpl.obj
 0002:0000bf3c       $unwind$?GetOposProp@COPOSPointCardRW@@IEAAJJPEAPEA_WJ@Z 0000000180032f3c     PointCardRWImpl.obj
 0002:0000bf54       $unwind$?SetOposProp@COPOSPointCardRW@@IEAAJJJJ@Z 0000000180032f54     PointCardRWImpl.obj
 0002:0000bf74       $unwind$?SetOposProp@COPOSPointCardRW@@IEAAJJPEA_WJ@Z 0000000180032f74     PointCardRWImpl.obj
 0002:0000bf90       $unwind$?DoInvoke@COPOSPointCardRW@@IEAAJJPEAVOposVariant@@IHPEAJ_N@Z 0000000180032f90     PointCardRWImpl.obj
 0002:0000bfa8       $unwind$?SetCOFreezeEvents@COPOSPointCardRW@@IEAAXF@Z 0000000180032fa8     PointCardRWImpl.obj
 0002:0000bfbc       $unwind$?OnDraw@COPOSPointCardRW@@MEAAJAEAUATL_DRAWINFO@@@Z 0000000180032fbc     PointCardRWImpl.obj
 0002:0000bfd4       $unwind$?EventInit@COPOSPointCardRW@@IEAAJXZ 0000000180032fd4     PointCardRWImpl.obj
 0002:0000bfe8       $unwind$?EventWindowProc@COPOSPointCardRW@@IEAA_JI_K_J@Z 0000000180032fe8     PointCardRWImpl.obj
 0002:0000bfe8       $unwind$?type_case_n@?$output_processor@_WV?$string_output_adapter@_W@__crt_stdio_output@@V?$format_validation_base@_WV?$string_output_adapter@_W@__crt_stdio_output@@@2@@__crt_stdio_output@@AEAA_NXZ 0000000180032fe8     libucrt:output.obj
 0002:0000bff4       $unwind$?get_ControlObjectDescription@COPOSPointCardRW@@UEAAJPEAPEA_W@Z 0000000180032ff4     PointCardRWImpl.obj
 0002:0000bff4       $unwind$__dcrt_lowio_ensure_console_output_initialized 0000000180032ff4     libucrt:initcon.obj
 0002:0000bff4       $unwind$?__mbrtowc_utf8@__crt_mbstring@@YA_KPEA_WPEBD_KPEAU_Mbstatet@@AEAV__crt_cached_ptd_host@@@Z 0000000180032ff4     libucrt:mbrtowc.obj
 0002:0000bff4       $unwind$?getSystemCP@@YAHH@Z 0000000180032ff4     libucrt:mbctype.obj
 0002:0000bffc       $unwind$?BeginInsertion@COPOSPointCardRW@@UEAAJJPEAJ@Z 0000000180032ffc     PointCardRWImpl.obj
 0002:0000bffc       $unwind$?BeginRemoval@COPOSPointCardRW@@UEAAJJPEAJ@Z 0000000180032ffc     PointCardRWImpl.obj
 0002:0000bffc       $unwind$?CheckHealth@COPOSPointCardRW@@UEAAJJPEAJ@Z 0000000180032ffc     PointCardRWImpl.obj
 0002:0000bffc       $unwind$?ResetStatistics@COPOSPointCardRW@@UEAAJPEA_WPEAJ@Z 0000000180032ffc     PointCardRWImpl.obj
 0002:0000bffc       $unwind$?RetrieveStatistics@COPOSPointCardRW@@UEAAJPEAPEA_WPEAJ@Z 0000000180032ffc     PointCardRWImpl.obj
 0002:0000bffc       $unwind$?RotatePrint@COPOSPointCardRW@@UEAAJJPEAJ@Z 0000000180032ffc     PointCardRWImpl.obj
 0002:0000bffc       $unwind$?UpdateFirmware@COPOSPointCardRW@@UEAAJPEA_WPEAJ@Z 0000000180032ffc     PointCardRWImpl.obj
 0002:0000bffc       $unwind$?UpdateStatistics@COPOSPointCardRW@@UEAAJPEA_WPEAJ@Z 0000000180032ffc     PointCardRWImpl.obj
 0002:0000bffc       $unwind$?ValidateData@COPOSPointCardRW@@UEAAJPEA_WPEAJ@Z 0000000180032ffc     PointCardRWImpl.obj
 0002:0000c00c       $unwind$?ClaimDevice@COPOSPointCardRW@@UEAAJJPEAJ@Z 000000018003300c     PointCardRWImpl.obj
 0002:0000c01c       $unwind$?Close@COPOSPointCardRW@@UEAAJPEAJ@Z 000000018003301c     PointCardRWImpl.obj
 0002:0000c028       $unwind$?DirectIO@COPOSPointCardRW@@UEAAJJPEAJPEAPEA_W0@Z 0000000180033028     PointCardRWImpl.obj
 0002:0000c044       $unwind$?Open@COPOSPointCardRW@@UEAAJPEA_WPEAJ@Z 0000000180033044     PointCardRWImpl.obj
 0002:0000c068       $unwind$?ClearPrintWrite@COPOSPointCardRW@@UEAAJJJJJJPEAJ@Z 0000000180033068     PointCardRWImpl.obj
 0002:0000c084       $unwind$?PrintWrite@COPOSPointCardRW@@UEAAJJJJPEA_WPEAJ@Z 0000000180033084     PointCardRWImpl.obj
 0002:0000c0a4       $unwind$?CompareFirmwareVersion@COPOSPointCardRW@@UEAAJPEA_WPEAJ1@Z 00000001800330a4     PointCardRWImpl.obj
 0002:0000c0a4       $unwind$?initialize_inherited_file_handles_nolock@@YAXXZ 00000001800330a4     libucrt:ioinit.obj
 0002:0000c0c0       $unwind$__scrt_is_nonwritable_in_current_image 00000001800330c0     LIBCMT:utility.obj
 0002:0000c0e0       $unwind$__scrt_is_nonwritable_in_current_image$filt$0 00000001800330e0     LIBCMT:utility.obj
 0002:0000c0e8       $unwind$__report_securityfailure 00000001800330e8     LIBCMT:gs_report.obj
 0002:0000c0f0       $unwind$__report_gsfailure 00000001800330f0     LIBCMT:gs_report.obj
 0002:0000c0f8       $unwind$capture_current_context 00000001800330f8     LIBCMT:gs_report.obj
 0002:0000c104       $unwind$capture_previous_context 0000000180033104     LIBCMT:gs_report.obj
 0002:0000c110       $unwind$??2@YAPEAX_KAEBUnothrow_t@std@@@Z 0000000180033110     LIBCMT:new_scalar_nothrow.obj
 0002:0000c120       $cppxdata$??2@YAPEAX_KAEBUnothrow_t@std@@@Z 0000000180033120     LIBCMT:new_scalar_nothrow.obj
 0002:0000c12d       $stateUnwindMap$??2@YAPEAX_KAEBUnothrow_t@std@@@Z 000000018003312d     LIBCMT:new_scalar_nothrow.obj
 0002:0000c130       $tryMap$??2@YAPEAX_KAEBUnothrow_t@std@@@Z 0000000180033130     LIBCMT:new_scalar_nothrow.obj
 0002:0000c138       $handlerMap$??2@YAPEAX_KAEBUnothrow_t@std@@@Z 0000000180033138     LIBCMT:new_scalar_nothrow.obj
 0002:0000c140       $ip2state$??2@YAPEAX_KAEBUnothrow_t@std@@@Z 0000000180033140     LIBCMT:new_scalar_nothrow.obj
 0002:0000c144       $unwind$?catch$0@?0???2@YAPEAX_KAEBUnothrow_t@std@@@Z@4HA 0000000180033144     LIBCMT:new_scalar_nothrow.obj
 0002:0000c154       $cppxdata$?catch$0@?0???2@YAPEAX_KAEBUnothrow_t@std@@@Z@4HA 0000000180033154     LIBCMT:new_scalar_nothrow.obj
 0002:0000c15e       $stateUnwindMap$?catch$0@?0???2@YAPEAX_KAEBUnothrow_t@std@@@Z@4HA 000000018003315e     LIBCMT:new_scalar_nothrow.obj
 0002:0000c160       $ip2state$?catch$0@?0???2@YAPEAX_KAEBUnothrow_t@std@@@Z@4HA 0000000180033160     LIBCMT:new_scalar_nothrow.obj
 0002:0000c164       $unwind$__GSHandlerCheckCommon 0000000180033164     LIBCMT:gshandler.obj
 0002:0000c170       $xdatasym                  0000000180033170     LIBCMT:chkstk.obj
 0002:0000c178       $xdatasym                  0000000180033178     LIBCMT:amdsecgs.obj
 0002:0000c17c       $unwind$?dllmain_crt_process_attach@@YAHQEAUHINSTANCE__@@QEAX@Z 000000018003317c     LIBCMT:dll_dllmain.obj
 0002:0000c1b8       $unwind$?dllmain_crt_process_detach@@YAH_N@Z 00000001800331b8     LIBCMT:dll_dllmain.obj
 0002:0000c20c       $unwind$?dllmain_dispatch@@YAHQEAUHINSTANCE__@@KQEAX@Z 000000018003320c     LIBCMT:dll_dllmain.obj
 0002:0000c234       $unwind$_write_internal$fin$0 0000000180033234     libucrt:write.obj
 0002:0000c234       $unwind$?fin$0@?0??_fclose_internal@@YAHQEAU_iobuf@@AEAV__crt_cached_ptd_host@@@Z@4HA 0000000180033234     libucrt:fclose.obj
 0002:0000c234       $unwind$?filt$0@?0??dllmain_dispatch@@YAHQEAUHINSTANCE__@@KQEAX@Z@4HA 0000000180033234     LIBCMT:dll_dllmain.obj
 0002:0000c234       $unwind$?filt$0@?0??FrameUnwindToState@__FrameHandler4@@SAXPEA_KPEAU_xDISPATCHER_CONTEXT@@PEAUFuncInfo4@FH4@@H@Z@4HA 0000000180033234     libvcruntime:frame.obj
 0002:0000c234       $unwind$?fin$1@?0??FrameUnwindToState@__FrameHandler4@@SAXPEA_KPEAU_xDISPATCHER_CONTEXT@@PEAUFuncInfo4@FH4@@H@Z@4HA 0000000180033234     libvcruntime:frame.obj
 0002:0000c23c       $unwind$__isa_available_init 000000018003323c     LIBCMT:cpu_disp.obj
 0002:0000c24c       $unwind$__scrt_fastfail    000000018003324c     LIBCMT:utility_desktop.obj
 0002:0000c25c       $unwind$__security_init_cookie 000000018003325c     LIBCMT:gs_support.obj
 0002:0000c268       $xdatasym                  0000000180033268     LIBCMT:guard_dispatch.obj
 0002:0000c270       $xdatasym                  0000000180033270     LIBCMT:guard_xfg_dispatch.obj
 0002:0000c274       $unwind$AtlThunk_InitData  0000000180033274     atls:atlthunk.obj
 0002:0000c288       $unwind$wcsstr             0000000180033288     libvcruntime:wcsstr.obj
 0002:0000c2a0       $xdatasym                  00000001800332a0     libvcruntime:memcmp.obj
 0002:0000c2a8       $xdatasym                  00000001800332a8     libvcruntime:memcpy.obj
 0002:0000c2b8       $xdatasym                  00000001800332b8     libvcruntime:memset.obj
 0002:0000c2c8       $unwind$__C_specific_handler 00000001800332c8     libvcruntime:riscchandler.obj
 0002:0000c2c8       $unwind$?GetRangeOfTrysToCheck@__FrameHandler3@@SA?AU?$pair@Viterator@TryBlockMap@__FrameHandler3@@V123@@std@@AEAVTryBlockMap@1@HPEAU_xDISPATCHER_CONTEXT@@PEBU_s_FuncInfo@@H@Z 00000001800332c8     libvcruntime:risctrnsctrl.obj
 0002:0000c2e4       $unwind$?StateFromIp@__FrameHandler4@@SAHPEAUFuncInfo4@FH4@@PEAU_xDISPATCHER_CONTEXT@@_K@Z 00000001800332e4     libvcruntime:ehstate.obj
 0002:0000c2e4       $unwind$?DecompFuncInfo@FH4@@YA_JPEAEAEAUFuncInfo4@1@_KH_N@Z 00000001800332e4     libvcruntime:risctrnsctrl.obj
 0002:0000c2fc       $unwind$?GetEstablisherFrame@__FrameHandler3@@SAPEA_KPEA_KPEAU_xDISPATCHER_CONTEXT@@PEBU_s_FuncInfo@@0@Z 00000001800332fc     libvcruntime:risctrnsctrl.obj
 0002:0000c314       $unwind$?UnwindNestedFrames@__FrameHandler3@@SAXPEA_KPEAUEHExceptionRecord@@PEAU_CONTEXT@@0PEAXPEBU_s_FuncInfo@@HHPEBU_s_HandlerType@@PEAU_xDISPATCHER_CONTEXT@@E@Z 0000000180033314     libvcruntime:risctrnsctrl.obj
 0002:0000c314       $unwind$?UnwindNestedFrames@__FrameHandler4@@SAXPEA_KPEAUEHExceptionRecord@@PEAU_CONTEXT@@0PEAXPEAUFuncInfo4@FH4@@HHPEAUHandlerType4@5@PEAU_xDISPATCHER_CONTEXT@@E@Z 0000000180033314     libvcruntime:risctrnsctrl.obj
 0002:0000c328       $unwind$?GetRangeOfTrysToCheck@__FrameHandler4@@SA?AU?$pair@Viterator@TryBlockMap4@FH4@@V123@@std@@AEAVTryBlockMap4@FH4@@HPEAU_xDISPATCHER_CONTEXT@@PEAUFuncInfo4@5@H@Z 0000000180033328     libvcruntime:risctrnsctrl.obj
 0002:0000c344       $unwind$__CxxFrameHandler3 0000000180033344     libvcruntime:risctrnsctrl.obj
 0002:0000c358       $unwind$__CxxFrameHandler4 0000000180033358     libvcruntime:risctrnsctrl.obj
 0002:0000c36c       $unwind$??$_CallSETranslator@V__FrameHandler4@@@@YAHPEAUEHExceptionRecord@@PEA_KPEAU_CONTEXT@@PEAU_xDISPATCHER_CONTEXT@@PEAUFuncInfo4@FH4@@K1H@Z 000000018003336c     libvcruntime:risctrnsctrl.obj
 0002:0000c38c       $unwind$?filt$0@?0???$_CallSETranslator@V__FrameHandler3@@@@YAHPEAUEHExceptionRecord@@PEA_KPEAU_CONTEXT@@PEAU_xDISPATCHER_CONTEXT@@PEBU_s_FuncInfo@@K1H@Z@4HA 000000018003338c     libvcruntime:risctrnsctrl.obj
 0002:0000c38c       $unwind$?filt$0@?0???$_CallSETranslator@V__FrameHandler4@@@@YAHPEAUEHExceptionRecord@@PEA_KPEAU_CONTEXT@@PEAU_xDISPATCHER_CONTEXT@@PEAUFuncInfo4@FH4@@K1H@Z@4HA 000000018003338c     libvcruntime:risctrnsctrl.obj
 0002:0000c398       $unwind$??$_CallSETranslator@V__FrameHandler3@@@@YAHPEAUEHExceptionRecord@@PEA_KPEAU_CONTEXT@@PEAU_xDISPATCHER_CONTEXT@@PEBU_s_FuncInfo@@K1H@Z 0000000180033398     libvcruntime:risctrnsctrl.obj
 0002:0000c3b8       $unwind$__DestructExceptionObject 00000001800333b8     libvcruntime:ehhelpers.obj
 0002:0000c3d8       $unwind$__DestructExceptionObject$filt$0 00000001800333d8     libvcruntime:ehhelpers.obj
 0002:0000c3d8       $unwind$?fin$1@?0??CxxCallCatchBlock@__FrameHandler3@@SAPEAXPEAU_EXCEPTION_RECORD@@@Z@4HA 00000001800333d8     libvcruntime:frame.obj
 0002:0000c3d8       $unwind$?fin$1@?0??CxxCallCatchBlock@__FrameHandler4@@SAPEAXPEAU_EXCEPTION_RECORD@@@Z@4HA 00000001800333d8     libvcruntime:frame.obj
 0002:0000c3e4       $unwind$_CxxThrowException 00000001800333e4     libvcruntime:throw.obj
 0002:0000c3f8       $xdatasym                  00000001800333f8     libvcruntime:notify.obj
 0002:0000c404       $unwind$?getStartStop@UWMap4@FH4@@QEAAXHHAEAViterator@12@0@Z 0000000180033404     libvcruntime:frame.obj
 0002:0000c41c       $unwind$?FrameUnwindToState@__FrameHandler3@@SAXPEA_KPEAU_xDISPATCHER_CONTEXT@@PEBU_s_FuncInfo@@H@Z 000000018003341c     libvcruntime:frame.obj
 0002:0000c468       $unwind$?CxxCallCatchBlock@__FrameHandler3@@SAPEAXPEAU_EXCEPTION_RECORD@@@Z 0000000180033468     libvcruntime:frame.obj
 0002:0000c4a4       $unwind$?FrameUnwindToState@__FrameHandler4@@SAXPEA_KPEAU_xDISPATCHER_CONTEXT@@PEAUFuncInfo4@FH4@@H@Z 00000001800334a4     libvcruntime:frame.obj
 0002:0000c4ec       $unwind$?CxxCallCatchBlock@__FrameHandler4@@SAPEAXPEAU_EXCEPTION_RECORD@@@Z 00000001800334ec     libvcruntime:frame.obj
 0002:0000c548       $unwind$?IsInExceptionSpec@@YAEPEAUEHExceptionRecord@@PEBU_s_ESTypeList@@@Z 0000000180033548     libvcruntime:frame.obj
 0002:0000c564       $unwind$??$__InternalCxxFrameHandler@V__FrameHandler4@@@@YA?AW4_EXCEPTION_DISPOSITION@@PEAUEHExceptionRecord@@PEA_KPEAU_CONTEXT@@PEAU_xDISPATCHER_CONTEXT@@PEAUFuncInfo4@FH4@@H1E@Z 0000000180033564     libvcruntime:frame.obj
 0002:0000c57c       $unwind$??$BuildCatchObjectHelperInternal@V__FrameHandler3@@@@YAHPEAUEHExceptionRecord@@PEAXPEBU_s_HandlerType@@PEBU_s_CatchableType@@@Z 000000018003357c     libvcruntime:frame.obj
 0002:0000c5bc       $unwind$??$BuildCatchObjectHelperInternal@V__FrameHandler4@@@@YAHPEAUEHExceptionRecord@@PEAXPEAUHandlerType4@FH4@@PEBU_s_CatchableType@@@Z 00000001800335bc     libvcruntime:frame.obj
 0002:0000c5fc       $unwind$??$BuildCatchObjectInternal@V__FrameHandler3@@@@YAXPEAUEHExceptionRecord@@PEAXPEBU_s_HandlerType@@PEBU_s_CatchableType@@@Z 00000001800335fc     libvcruntime:frame.obj
 0002:0000c628       $unwind$??$BuildCatchObjectInternal@V__FrameHandler4@@@@YAXPEAUEHExceptionRecord@@PEAXPEAUHandlerType4@FH4@@PEBU_s_CatchableType@@@Z 0000000180033628     libvcruntime:frame.obj
 0002:0000c654       $unwind$??$FindHandler@V__FrameHandler3@@@@YAXPEAUEHExceptionRecord@@PEA_KPEAU_CONTEXT@@PEAU_xDISPATCHER_CONTEXT@@PEBU_s_FuncInfo@@EH1@Z 0000000180033654     libvcruntime:frame.obj
 0002:0000c674       $unwind$??$FindHandler@V__FrameHandler4@@@@YAXPEAUEHExceptionRecord@@PEA_KPEAU_CONTEXT@@PEAU_xDISPATCHER_CONTEXT@@PEAUFuncInfo4@FH4@@EH1@Z 0000000180033674     libvcruntime:frame.obj
 0002:0000c694       $unwind$??$CatchIt@V__FrameHandler3@@@@YAXPEAUEHExceptionRecord@@PEA_KPEAU_CONTEXT@@PEAU_xDISPATCHER_CONTEXT@@PEBU_s_FuncInfo@@PEBU_s_HandlerType@@PEBU_s_CatchableType@@PEBU_s_TryBlockMapEntry@@H1EE@Z 0000000180033694     libvcruntime:frame.obj
 0002:0000c694       $unwind$??$CatchIt@V__FrameHandler4@@@@YAXPEAUEHExceptionRecord@@PEA_KPEAU_CONTEXT@@PEAU_xDISPATCHER_CONTEXT@@PEAUFuncInfo4@FH4@@PEAUHandlerType4@4@PEBU_s_CatchableType@@PEAUTryBlockMapEntry4@4@H1EE@Z 0000000180033694     libvcruntime:frame.obj
 0002:0000c6ac       $unwind$??$FindHandlerForForeignException@V__FrameHandler3@@@@YAXPEAUEHExceptionRecord@@PEA_KPEAU_CONTEXT@@PEAU_xDISPATCHER_CONTEXT@@PEBU_s_FuncInfo@@HH1@Z 00000001800336ac     libvcruntime:frame.obj
 0002:0000c6c8       $unwind$??$FindHandlerForForeignException@V__FrameHandler4@@@@YAXPEAUEHExceptionRecord@@PEA_KPEAU_CONTEXT@@PEAU_xDISPATCHER_CONTEXT@@PEAUFuncInfo4@FH4@@HH1@Z 00000001800336c8     libvcruntime:frame.obj
 0002:0000c6e8       $unwind$?try_get_function@@YAPEAXW4function_id@?A0x391cf84c@@QEBDQEBW4module_id@2@2@Z 00000001800336e8     libucrt:winapi_thunks.obj
 0002:0000c6e8       $unwind$?try_get_function@@YAPEAXW4function_id@?A0xbc0cc709@@QEBDQEBW4module_id@2@2@Z 00000001800336e8     libvcruntime:winapi_downlevel.obj
 0002:0000c708       $xdatasym                  0000000180033708     libvcruntime:handlers.obj
 0002:0000c728       $unwind$__acrt_call_reportfault 0000000180033728     libucrt:invalid_parameter.obj
 0002:0000c748       $unwind$_invalid_parameter 0000000180033748     libucrt:invalid_parameter.obj
 0002:0000c754       $unwind$_resetstkoflw      0000000180033754     libucrt:resetstk.obj
 0002:0000c778       $unwind$__stdio_common_vswprintf_s 0000000180033778     libucrt:output.obj
 0002:0000c78c       $unwind$?write_string@?$string_output_adapter@_W@__crt_stdio_output@@QEBAXQEB_WHQEAHAEAV__crt_cached_ptd_host@@@Z 000000018003378c     libucrt:output.obj
 0002:0000c7a4       $unwind$??$common_vsprintf@Vformat_validation_base@__crt_stdio_output@@_W@@YAH_KQEA_W0QEB_WAEAV__crt_cached_ptd_host@@QEAD@Z 00000001800337a4     libucrt:output.obj
 0002:0000c7c4       $unwind$?parse_int_from_format_string@?$output_processor@_WV?$string_output_adapter@_W@__crt_stdio_output@@V?$format_validation_base@_WV?$string_output_adapter@_W@__crt_stdio_output@@@2@@__crt_stdio_output@@AEAA_NQEAH@Z 00000001800337c4     libucrt:output.obj
 0002:0000c7d8       $unwind$?state_case_type@?$output_processor@_WV?$string_output_adapter@_W@__crt_stdio_output@@V?$format_validation_base@_WV?$string_output_adapter@_W@__crt_stdio_output@@@2@@__crt_stdio_output@@AEAA_NXZ 00000001800337d8     libucrt:output.obj
 0002:0000c7fc       $unwind$?type_case_a@?$output_processor@_WV?$string_output_adapter@_W@__crt_stdio_output@@V?$format_validation_base@_WV?$string_output_adapter@_W@__crt_stdio_output@@@2@@__crt_stdio_output@@AEAA_NXZ 00000001800337fc     libucrt:output.obj
 0002:0000c810       $unwind$??$parse_integer@KV?$c_string_character_source@_W@__crt_strtox@@$0A@@__crt_strtox@@YAKAEAV__crt_cached_ptd_host@@V?$c_string_character_source@_W@0@H_N@Z 0000000180033810     libucrt:output.obj
 0002:0000c82c       $unwind$?try_cor_exit_process@@YAXI@Z 000000018003382c     libucrt:exit.obj
 0002:0000c840       $ip2state$?try_cor_exit_process@@YAXI@Z 0000000180033840     libucrt:exit.obj
 0002:0000c848       $unwind$?common_exit@@YAXHW4_crt_exit_cleanup_mode@@W4_crt_exit_return_mode@@@Z 0000000180033848     libucrt:exit.obj
 0002:0000c85c       $stateUnwindMap$__dcrt_uninitialize_environments_nolock 000000018003385c     libucrt:environment_initialization.obj
 0002:0000c85c       $stateUnwindMap$?common_exit@@YAXHW4_crt_exit_cleanup_mode@@W4_crt_exit_return_mode@@@Z 000000018003385c     libucrt:exit.obj
 0002:0000c85c       $stateUnwindMap$_execute_onexit_table 000000018003385c     libucrt:onexit.obj
 0002:0000c868       $ip2state$?common_exit@@YAXHW4_crt_exit_cleanup_mode@@W4_crt_exit_return_mode@@@Z 0000000180033868     libucrt:exit.obj
 0002:0000c870       $unwind$??R<lambda_6e4b09c48022b2350581041d5f6b0c4c>@@QEBA@XZ 0000000180033870     libucrt:exit.obj
 0002:0000c890       $unwind$??$?RV<lambda_d80eeec6fff315bfe5c115232f3240e3>@@AEAV<lambda_6e4b09c48022b2350581041d5f6b0c4c>@@V<lambda_2358e3775559c9db80273638284d5e45>@@@?$__crt_seh_guarded_call@X@@QEAAX$$QEAV<lambda_d80eeec6fff315bfe5c115232f3240e3>@@AEAV<lambda_6e4b09c48022b2350581041d5f6b0c4c>@@$$QEAV<lambda_2358e3775559c9db80273638284d5e45>@@@Z 0000000180033890     libucrt:exit.obj
 0002:0000c8b4       $unwind$__dcrt_uninitialize_environments_nolock 00000001800338b4     libucrt:environment_initialization.obj
 0002:0000c8c4       $unwind$??$free_environment@D@@YAXQEAPEAD@Z 00000001800338c4     libucrt:environment_initialization.obj
 0002:0000c8c4       $unwind$??$free_environment@_W@@YAXQEAPEA_W@Z 00000001800338c4     libucrt:environment_initialization.obj
 0002:0000c8c4       $unwind$_initterm          00000001800338c4     libucrt:initterm.obj
 0002:0000c8d0       $unwind$_register_onexit_function 00000001800338d0     libucrt:onexit.obj
 0002:0000c8d8       $unwind$_execute_onexit_table 00000001800338d8     libucrt:onexit.obj
 0002:0000c8e8       $ip2state$_execute_onexit_table 00000001800338e8     libucrt:onexit.obj
 0002:0000c8f0       $unwind$??R<lambda_22ebabd17bc4fa466a2aca6d8deb888d>@@QEBAHXZ 00000001800338f0     libucrt:onexit.obj
 0002:0000c908       $unwind$??$?RV<lambda_638799b9deba96c50f710eeac98168cd>@@AEAV<lambda_22ebabd17bc4fa466a2aca6d8deb888d>@@V<lambda_a6f7d7db0129f75315ebf26d50c089f1>@@@?$__crt_seh_guarded_call@H@@QEAAH$$QEAV<lambda_638799b9deba96c50f710eeac98168cd>@@AEAV<lambda_22ebabd17bc4fa466a2aca6d8deb888d>@@$$QEAV<lambda_a6f7d7db0129f75315ebf26d50c089f1>@@@Z 0000000180033908     libucrt:onexit.obj
 0002:0000c92c       $unwind$??$?RV<lambda_7777bce6b2f8c936911f934f8298dc43>@@AEAV<lambda_f03950bc5685219e0bcd2087efbe011e>@@V<lambda_3883c3dff614d5e0c5f61bb1ac94921c>@@@?$__crt_seh_guarded_call@H@@QEAAH$$QEAV<lambda_7777bce6b2f8c936911f934f8298dc43>@@AEAV<lambda_f03950bc5685219e0bcd2087efbe011e>@@$$QEAV<lambda_3883c3dff614d5e0c5f61bb1ac94921c>@@@Z 000000018003392c     libucrt:onexit.obj
 0002:0000c950       $unwind$_query_new_handler 0000000180033950     libucrt:new_handler.obj
 0002:0000c970       $unwind$terminate          0000000180033970     libucrt:terminate.obj
 0002:0000c990       $xdatasym                  0000000180033990     libucrt:strncmp.obj
 0002:0000c994       $unwind$?construct_ptd_array@@YAXQEAU__acrt_ptd@@@Z 0000000180033994     libucrt:per_thread_data.obj
 0002:0000c99c       $unwind$?destroy_ptd_array@@YAXQEAU__acrt_ptd@@@Z 000000018003399c     libucrt:per_thread_data.obj
 0002:0000c9a4       $unwind$??$?RV<lambda_0ae27a3a962d80f24befdcbee591983d>@@AEAV<lambda_8d0ee55de4b1038c4002e0adecdf1839>@@V<lambda_dc504788e8f1664fe9b84e20bfb512f2>@@@?$__crt_seh_guarded_call@X@@QEAAX$$QEAV<lambda_0ae27a3a962d80f24befdcbee591983d>@@AEAV<lambda_8d0ee55de4b1038c4002e0adecdf1839>@@$$QEAV<lambda_dc504788e8f1664fe9b84e20bfb512f2>@@@Z 00000001800339a4     libucrt:per_thread_data.obj
 0002:0000c9c8       $unwind$??$?RV<lambda_aa87e3671a710a21b5dc78c0bdf72e11>@@AEAV<lambda_92619d2358a28f41a33ba319515a20b9>@@V<lambda_6992ecaafeb10aed2b74cb1fae11a551>@@@?$__crt_seh_guarded_call@X@@QEAAX$$QEAV<lambda_aa87e3671a710a21b5dc78c0bdf72e11>@@AEAV<lambda_92619d2358a28f41a33ba319515a20b9>@@$$QEAV<lambda_6992ecaafeb10aed2b74cb1fae11a551>@@@Z 00000001800339c8     libucrt:per_thread_data.obj
 0002:0000c9ec       $unwind$??$?RV<lambda_f2e299630e499de9f9a165e60fcd3db5>@@AEAV<lambda_2ae9d31cdba2644fcbeaf08da7c24588>@@V<lambda_40d01ff24d0e7b3814fdbdcee8eab3c7>@@@?$__crt_seh_guarded_call@X@@QEAAX$$QEAV<lambda_f2e299630e499de9f9a165e60fcd3db5>@@AEAV<lambda_2ae9d31cdba2644fcbeaf08da7c24588>@@$$QEAV<lambda_40d01ff24d0e7b3814fdbdcee8eab3c7>@@@Z 00000001800339ec     libucrt:per_thread_data.obj
 0002:0000ca10       $unwind$??$?RV<lambda_2d41944a1d46af3157314b8a01080d33>@@AEAV<lambda_8f455de75cd7d7f24b4096f044d8b9e6>@@V<lambda_aa500f224e6afead328df44964fe2772>@@@?$__crt_seh_guarded_call@X@@QEAAX$$QEAV<lambda_2d41944a1d46af3157314b8a01080d33>@@AEAV<lambda_8f455de75cd7d7f24b4096f044d8b9e6>@@$$QEAV<lambda_aa500f224e6afead328df44964fe2772>@@@Z 0000000180033a10     libucrt:per_thread_data.obj
 0002:0000ca34       $unwind$__acrt_uninitialize_locale 0000000180033a34     libucrt:wsetlocale.obj
 0002:0000ca34       $unwind$__acrt_get_sigabrt_handler 0000000180033a34     libucrt:signal.obj
 0002:0000ca3c       $unwind$??$?RV<lambda_410d79af7f07d98d83a3f525b3859a53>@@AEAV<lambda_3e16ef9562a7dcce91392c22ab16ea36>@@V<lambda_38119f0e861e05405d8a144b9b982f0a>@@@?$__crt_seh_guarded_call@X@@QEAAX$$QEAV<lambda_410d79af7f07d98d83a3f525b3859a53>@@AEAV<lambda_3e16ef9562a7dcce91392c22ab16ea36>@@$$QEAV<lambda_38119f0e861e05405d8a144b9b982f0a>@@@Z 0000000180033a3c     libucrt:wsetlocale.obj
 0002:0000ca64       $unwind$__acrt_initialize_winapi_thunks 0000000180033a64     libucrt:winapi_thunks.obj
 0002:0000ca64       $unwind$__acrt_fenv_get_control 0000000180033a64     libucrt:_fenvutils.obj
 0002:0000ca6c       $unwind$__acrt_fp_format   0000000180033a6c     libucrt:cvt.obj
 0002:0000ca7c       $unwind$?fp_format_e_internal@@YAHQEAD_KH_NIQEAU_strflt@@2AEAV__crt_cached_ptd_host@@@Z 0000000180033a7c     libucrt:cvt.obj
 0002:0000ca98       $unwind$?fp_format_a@@YAHQEBNPEAD_KQEAD2H_NIW4__acrt_rounding_mode@@AEAV__crt_cached_ptd_host@@@Z 0000000180033a98     libucrt:cvt.obj
 0002:0000cab4       $unwind$?fp_format_g@@YAHQEBNQEAD_K12H_NIW4__acrt_rounding_mode@@AEAV__crt_cached_ptd_host@@@Z 0000000180033ab4     libucrt:cvt.obj
 0002:0000cacc       $unwind$__acrt_initialize_lowio 0000000180033acc     libucrt:ioinit.obj
 0002:0000caec       $unwind$??$common_expand_argv_wildcards@D@@YAHQEAPEADQEAPEAPEAD@Z 0000000180033aec     libucrt:argv_wildcards.obj
 0002:0000cb04       $unwind$__dcrt_get_narrow_environment_from_os 0000000180033b04     libucrt:get_environment_from_os.obj
 0002:0000cb04       $unwind$??$__acrt_convert_wcs_mbs_cp@_WDV<lambda_d8593a27d1aa8c02be35c86a17d324c4>@@U__crt_win32_buffer_internal_dynamic_resizing@@@@YAHQEB_WAEAV?$__crt_win32_buffer@DU__crt_win32_buffer_internal_dynamic_resizing@@@@AEBV<lambda_d8593a27d1aa8c02be35c86a17d324c4>@@I@Z 0000000180033b04     libucrt:argv_wildcards.obj
 0002:0000cb1c       $unwind$??$copy_and_add_argument_to_buffer@D@@YAHQEBD0_KAEAV?$argument_list@D@?A0x5f5c8891@@@Z 0000000180033b1c     libucrt:argv_wildcards.obj
 0002:0000cb38       $unwind$??$expand_argument_wildcards@D@@YAHQEAD0AEAV?$argument_list@D@?A0x5f5c8891@@@Z 0000000180033b38     libucrt:argv_wildcards.obj
 0002:0000cb58       $unwind$__acrt_GetModuleFileNameA 0000000180033b58     libucrt:getmodulefilenamea.obj
 0002:0000cb74       $unwind$_setmbcp_nolock    0000000180033b74     libucrt:mbctype.obj
 0002:0000cb94       $unwind$?update_thread_multibyte_data_internal@@YAPEAU__crt_multibyte_data@@QEAU__acrt_ptd@@QEAPEAU1@@Z 0000000180033b94     libucrt:mbctype.obj
 0002:0000cbbc       $unwind$?setmbcp_internal@@YAHH_NQEAU__acrt_ptd@@QEAPEAU__crt_multibyte_data@@@Z 0000000180033bbc     libucrt:mbctype.obj
 0002:0000cbd4       $unwind$?setSBUpLow@@YAXPEAU__crt_multibyte_data@@@Z 0000000180033bd4     libucrt:mbctype.obj
 0002:0000cbf0       $unwind$??$?RV<lambda_efdfa57d1f175319df784efa44bb7b81>@@AEAV<lambda_5f0a4c1567f8adc6734073e5d1e1b35c>@@V<lambda_2e8a7d3640ea6ccb4c2413664c2db6fd>@@@?$__crt_seh_guarded_call@X@@QEAAX$$QEAV<lambda_efdfa57d1f175319df784efa44bb7b81>@@AEAV<lambda_5f0a4c1567f8adc6734073e5d1e1b35c>@@$$QEAV<lambda_2e8a7d3640ea6ccb4c2413664c2db6fd>@@@Z 0000000180033bf0     libucrt:mbctype.obj
 0002:0000cc14       $unwind$__acrt_WideCharToMultiByte 0000000180033c14     libucrt:widechartomultibyte.obj
 0002:0000cc20       $unwind$raise              0000000180033c20     libucrt:signal.obj
 0002:0000cc5c       $unwind$??$?RV<lambda_450d765d439847d4c735a33c368b5fc0>@@AEAV<lambda_44731a7d0e6d81c3e6aa82d741081786>@@V<lambda_601a2a7da3b7a96e9554ac7215c4b07c>@@@?$__crt_seh_guarded_call@P6AXH@Z@@QEAAP6AXH@Z$$QEAV<lambda_450d765d439847d4c735a33c368b5fc0>@@AEAV<lambda_44731a7d0e6d81c3e6aa82d741081786>@@$$QEAV<lambda_601a2a7da3b7a96e9554ac7215c4b07c>@@@Z 0000000180033c5c     libucrt:signal.obj
 0002:0000cc80       $unwind$fclose             0000000180033c80     libucrt:fclose.obj
 0002:0000cc80       $unwind$_fflush_nolock     0000000180033c80     libucrt:fflush.obj
 0002:0000cc90       $unwind$?common_flush_all@@YAH_N@Z 0000000180033c90     libucrt:fflush.obj
 0002:0000cc98       $unwind$??$?RV<lambda_842d9ff0dc9ef11c61343bbaebe7f885>@@AEAV<lambda_c5860995281e5c4ce005b3de8f5874ee>@@V<lambda_d90129c13df834fdcbf8d2b88dafcf2d>@@@?$__crt_seh_guarded_call@X@@QEAAX$$QEAV<lambda_842d9ff0dc9ef11c61343bbaebe7f885>@@AEAV<lambda_c5860995281e5c4ce005b3de8f5874ee>@@$$QEAV<lambda_d90129c13df834fdcbf8d2b88dafcf2d>@@@Z 0000000180033c98     libucrt:fflush.obj
 0002:0000ccbc       $unwind$??$?RV<lambda_886d6c58226a84441f68b9f2b8217b83>@@AEAV<lambda_ab61a845afdef5b7c387490eaf3616ee>@@V<lambda_f7f22ab5edc0698d5f6905b0d3f44752>@@@?$__crt_seh_guarded_call@X@@QEAAX$$QEAV<lambda_886d6c58226a84441f68b9f2b8217b83>@@AEAV<lambda_ab61a845afdef5b7c387490eaf3616ee>@@$$QEAV<lambda_f7f22ab5edc0698d5f6905b0d3f44752>@@@Z 0000000180033cbc     libucrt:fflush.obj
 0002:0000cce4       $unwind$__acrt_update_thread_locale_data 0000000180033ce4     libucrt:locale_refcounting.obj
 0002:0000cd08       $unwind$__acrt_locale_free_monetary 0000000180033d08     libucrt:initmon.obj
 0002:0000cd10       $unwind$__acrt_locale_free_time 0000000180033d10     libucrt:inittime.obj
 0002:0000cd20       $unwind$__acrt_GetStringTypeA 0000000180033d20     libucrt:getstringtypea.obj
 0002:0000cd48       $unwind$__acrt_fp_strflt_to_string 0000000180033d48     libucrt:_fptostr.obj
 0002:0000cd64       $unwind$__acrt_fltout      0000000180033d64     libucrt:cfout.obj
 0002:0000cd84       $unwind$?divide@__crt_strtox@@YA_KAEAUbig_integer@1@AEBU21@@Z 0000000180033d84     libucrt:cfout.obj
 0002:0000cd9c       $chain$0$?divide@__crt_strtox@@YA_KAEAUbig_integer@1@AEBU21@@Z 0000000180033d9c     libucrt:cfout.obj
 0002:0000cdb0       $chain$1$?divide@__crt_strtox@@YA_KAEAUbig_integer@1@AEBU21@@Z 0000000180033db0     libucrt:cfout.obj
 0002:0000cdc0       $unwind$?__mbsrtowcs_utf8@__crt_mbstring@@YA_KPEA_WPEAPEBD_KPEAU_Mbstatet@@AEAV__crt_cached_ptd_host@@@Z 0000000180033dc0     libucrt:mbrtowc.obj
 0002:0000cdd8       $unwind$_fcloseall         0000000180033dd8     libucrt:closeall.obj
 0002:0000cdfc       $unwind$__acrt_lowio_destroy_handle_array 0000000180033dfc     libucrt:osfinfo.obj
 0002:0000ce0c       $unwind$__acrt_lowio_ensure_fh_exists 0000000180033e0c     libucrt:osfinfo.obj
 0002:0000ce38       $unwind$qsort              0000000180033e38     libucrt:qsort.obj
 0002:0000ce50       $chain$4$qsort             0000000180033e50     libucrt:qsort.obj
 0002:0000ce74       $chain$5$qsort             0000000180033e74     libucrt:qsort.obj
 0002:0000ce84       $unwind$strpbrk            0000000180033e84     libucrt:strpbrk.obj
 0002:0000ce94       $unwind$fallbackMethod     0000000180033e94     libucrt:strpbrk.obj
 0002:0000cea4       $unwind$__acrt_LCMapStringA 0000000180033ea4     libucrt:lcmapstringa.obj
 0002:0000ceb4       $unwind$?__acrt_LCMapStringA_stat@@YAHPEAU__crt_locale_pointers@@PEB_WKPEBDHPEADHHH@Z 0000000180033eb4     libucrt:lcmapstringa.obj
 0002:0000cedc       $unwind$_commit            0000000180033edc     libucrt:commit.obj
 0002:0000cee4       $unwind$??$?RV<lambda_a37b2b86f63e897a80ea819b0eb08c01>@@AEAV<lambda_38ce7e780aa69e748d6df282ebc68efe>@@V<lambda_99fb1378e971ab6e7edea83e3a7a83a2>@@@?$__crt_seh_guarded_call@H@@QEAAH$$QEAV<lambda_a37b2b86f63e897a80ea819b0eb08c01>@@AEAV<lambda_38ce7e780aa69e748d6df282ebc68efe>@@$$QEAV<lambda_99fb1378e971ab6e7edea83e3a7a83a2>@@@Z 0000000180033ee4     libucrt:commit.obj
 0002:0000cf08       $unwind$_write_nolock      0000000180033f08     libucrt:write.obj
 0002:0000cf20       $unwind$_write_internal    0000000180033f20     libucrt:write.obj
 0002:0000cf50       $unwind$?write_double_translated_ansi_nolock@@YA?AUwrite_result@?A0x17268360@@HQEBDIAEAV__crt_cached_ptd_host@@@Z 0000000180033f50     libucrt:write.obj
 0002:0000cf78       $ip2state$?write_double_translated_ansi_nolock@@YA?AUwrite_result@?A0x17268360@@HQEBDIAEAV__crt_cached_ptd_host@@@Z 0000000180033f78     libucrt:write.obj
 0002:0000cf80       $unwind$?write_text_ansi_nolock@@YA?AUwrite_result@?A0x17268360@@HQEBDI@Z 0000000180033f80     libucrt:write.obj
 0002:0000cf80       $unwind$?write_text_utf16le_nolock@@YA?AUwrite_result@?A0x17268360@@HQEBDI@Z 0000000180033f80     libucrt:write.obj
 0002:0000cfa0       $unwind$?write_text_utf8_nolock@@YA?AUwrite_result@?A0x17268360@@HQEBDI@Z 0000000180033fa0     libucrt:write.obj
 0002:0000cfc8       $xdatasym                  0000000180033fc8     libucrt:log10.obj
 0002:0000cfd4       $unwind$__acrt_fenv_set_control 0000000180033fd4     libucrt:_fenvutils.obj
 0002:0000cfe4       $unwind$?__mbrtoc32_utf8@__crt_mbstring@@YA_KPEA_UPEBD_KPEAU_Mbstatet@@AEAV__crt_cached_ptd_host@@@Z 0000000180033fe4     libucrt:mbrtoc32.obj
 0002:0000d000       $unwind$?_fclose_nolock_internal@@YAHQEAU_iobuf@@AEAV__crt_cached_ptd_host@@@Z 0000000180034000     libucrt:fclose.obj
 0002:0000d010       $unwind$?_fclose_internal@@YAHQEAU_iobuf@@AEAV__crt_cached_ptd_host@@@Z 0000000180034010     libucrt:fclose.obj
 0002:0000d034       $unwind$_putwch_nolock     0000000180034034     libucrt:putwch.obj
 0002:0000d03c       $unwind$common_control87   000000018003403c     libucrt:ieee.obj
 0002:0000d068       $unwind$_call_matherr      0000000180034068     libucrt:libm_error.obj
 0002:0000d070       $unwind$_handle_error      0000000180034070     libucrt:libm_error.obj
 0002:0000d090       $unwind$__acrt_initialize_fma3 0000000180034090     libucrt:fma3_available.obj
 0002:0000d098       $unwind$_log_special_common 0000000180034098     libucrt:log_special.obj
 0002:0000d0a4       $unwind$_close_internal    00000001800340a4     libucrt:close.obj
 0002:0000d0ac       $unwind$??$?RV<lambda_ad8af0d99a0adf03d037d7dffe354bb5>@@AEAV<lambda_c9ba49e555ba839a7b07aa3fbecb7617>@@V<lambda_2f1ebd5d68526518146ae959c9e734c8>@@@?$__crt_seh_guarded_call@H@@QEAAH$$QEAV<lambda_ad8af0d99a0adf03d037d7dffe354bb5>@@AEAV<lambda_c9ba49e555ba839a7b07aa3fbecb7617>@@$$QEAV<lambda_2f1ebd5d68526518146ae959c9e734c8>@@@Z 00000001800340ac     libucrt:close.obj
 0002:0000d0d0       $xdatasym                  00000001800340d0     libucrt:fpsr.obj
 0002:0000d0d8       $unwind$_raise_exc_ex      00000001800340d8     libucrt:fpexcept.obj
 0002:0000d0ec       $unwind$_ctrlfp            00000001800340ec     libucrt:fpctrl.obj
 0002:0000d114       $unwind$_IsNonwritableInCurrentImage 0000000180034114     LIBCMT:pesect.obj
 0002:0000d138       $unwind$strrchr            0000000180034138     libvcruntime:strrchr.obj
 0002:0000d2a0       .edata                     00000001800342a0     OPOSPointCardRW.exp
 0002:0000d2c8       rgpv                       00000001800342c8     OPOSPointCardRW.exp
 0002:0000d2d8       rgszName                   00000001800342d8     OPOSPointCardRW.exp
 0002:0000d2e8       rgwOrd                     00000001800342e8     OPOSPointCardRW.exp
 0002:0000d2f0       szName                     00000001800342f0     OPOSPointCardRW.exp
 0002:0000d304       $N00001                    0000000180034304     OPOSPointCardRW.exp
 0002:0000d314       $N00002                    0000000180034314     OPOSPointCardRW.exp
 0002:0000d326       $N00003                    0000000180034326     OPOSPointCardRW.exp
 0002:0000d338       $N00004                    0000000180034338     OPOSPointCardRW.exp
 0002:0000dc82       .idata$6                   0000000180034c82     kernel32:KERNEL32.dll
 0002:0000de9a       .idata$6                   0000000180034e9a     user32:USER32.dll
 0002:0000dfce       .idata$6                   0000000180034fce     gdi32:GDI32.dll
 0002:0000e074       .idata$6                   0000000180035074     advapi32:ADVAPI32.dll
 0002:0000e190       .idata$6                   0000000180035190     ole32:ole32.dll
 0002:0000e19a       .idata$6                   000000018003519a     oleaut32:OLEAUT32.dll
 0003:000001c0       ?ObjectMap@@3PAU_ATL_OBJMAP_ENTRY30@ATL@@A 00000001800361c0     PointCardRW.obj
 0003:000002d0       ?s_SOMethodNames@@3PAPEADA 00000001800362d0     PointCardRWImpl.obj
 0003:000003b8       ?s_RequiredMethodsPerRelease@@3PAHA 00000001800363b8     PointCardRWImpl.obj
 0003:00000410       ?__vcrt_flsindex@@3KA      0000000180036410     libvcruntime:per_thread_data.obj
 0003:00000420       ?errno_no_memory@@3HA      0000000180036420     libucrt:errno.obj
 0003:00000424       ?doserrno_no_memory@@3KA   0000000180036424     libucrt:errno.obj
 0003:00000430       ?__acrt_flsindex@@3KA      0000000180036430     libucrt:per_thread_data.obj
 0003:000008f0       _mbctypes                  00000001800368f0     libucrt:mbctype.obj
 0003:00000a00       _mbcasemaps                0000000180036a00     libucrt:mbctype.obj
 0003:00000b00       ?__rgctypeflag@@3PADA      0000000180036b00     libucrt:mbctype.obj
 0003:00000b10       ?__rgcode_page_info@@3PAUcode_page_info@@A 0000000180036b10     libucrt:mbctype.obj
 0003:00000db0       ?dazSupported@?1??common_control87@@9@9 0000000180036db0     libucrt:ieee.obj
 0003:00000dc0       ?__dcrt_lowio_console_output_handle@@3PEAXEA 0000000180036dc0     libucrt:initcon.obj
 0003:00000dd0       ?dazSupported@?1??_ctrlfp@@9@9 0000000180036dd0     libucrt:fpctrl.obj
 0003:00001020       ?is_initialized_as_dll@@3_NA 0000000180037020     LIBCMT:utility.obj
 0003:00001021       ?module_local_atexit_table_initialized@@3_NA 0000000180037021     LIBCMT:utility.obj
 0003:00001028       ?module_local_atexit_table@@3U_onexit_table_t@@A 0000000180037028     LIBCMT:utility.obj
 0003:00001040       ?module_local_at_quick_exit_table@@3U_onexit_table_t@@A 0000000180037040     LIBCMT:utility.obj
 0003:00001058       ?g_tss_cv@@3U_RTL_CONDITION_VARIABLE@@A 0000000180037058     LIBCMT:thread_safe_statics.obj
 0003:00001060       ?g_tss_event@@3PEAXEA      0000000180037060     LIBCMT:thread_safe_statics.obj
 0003:00001068       ?g_tss_mutex@@3U_RTL_CRITICAL_SECTION@@A 0000000180037068     LIBCMT:thread_safe_statics.obj
 0003:00001090       ?g_sleep_condition_variable_cs@@3P6AHPEAU_RTL_CONDITION_VARIABLE@@PEAU_RTL_CRITICAL_SECTION@@K@ZEA 0000000180037090     LIBCMT:thread_safe_statics.obj
 0003:00001098       ?g_wake_all_condition_variable@@3P6AXPEAU_RTL_CONDITION_VARIABLE@@@ZEA 0000000180037098     LIBCMT:thread_safe_statics.obj
 0003:000010a0       GS_ExceptionRecord         00000001800370a0     LIBCMT:gs_report.obj
 0003:00001140       GS_ContextRecord           0000000180037140     LIBCMT:gs_report.obj
 0003:00001614       ?__proc_attached@@3HA      0000000180037614     LIBCMT:dll_dllmain.obj
 0003:000016a8       ?AllocateData@@3P6APEAUAtlThunkData_t@@XZEA 00000001800376a8     atls:atlthunk.obj
 0003:000016b0       ?InitData@@3P6AXPEAUAtlThunkData_t@@PEAX_K@ZEA 00000001800376b0     atls:atlthunk.obj
 0003:000016b8       ?DataToCode@@3P6AP6A_JPEAUHWND__@@I_K_J@ZPEAUAtlThunkData_t@@@ZEA 00000001800376b8     atls:atlthunk.obj
 0003:000016c0       ?FreeData@@3P6AXPEAUAtlThunkData_t@@@ZEA 00000001800376c0     atls:atlthunk.obj
 0003:000016c8       ?Initialized@@3_NA         00000001800376c8     atls:atlthunk.obj
 0003:000016e0       ?__vcrt_startup_thread_ptd@@3U__vcrt_ptd@@A 00000001800376e0     libvcruntime:per_thread_data.obj
 0003:00001760       __vcrt_lock_table          0000000180037760     libvcruntime:locks.obj
 0003:00001788       __vcrt_locks_initialized   0000000180037788     libvcruntime:locks.obj
 0003:000017d0       ?heap@@3V_HeapManager@@A   00000001800377d0     libvcruntime:undname.obj
 0003:000017f8       ?module_handles@@3PAPEAUHINSTANCE__@@A 00000001800377f8     libvcruntime:winapi_downlevel.obj
 0003:00001810       ?function_pointers@@3PAPEAXA 0000000180037810     libvcruntime:winapi_downlevel.obj
 0003:00001838       ?__acrt_invalid_parameter_handler@@3V?$dual_state_global@P6AXPEB_W00I_K@Z@__crt_state_management@@A 0000000180037838     libucrt:invalid_parameter.obj
 0003:00001840       ?c_termination_complete@@3JA 0000000180037840     libucrt:exit.obj
 0003:00001848       ?thread_local_exit_callback_func@@3P6AXPEAXK0@ZEA 0000000180037848     libucrt:exit.obj
 0003:00001860       ?program_name@?1???$common_configure_argv@D@@YAHW4_crt_argv_mode@@@Z@4PADA 0000000180037860     libucrt:argv_parsing.obj
 0003:000019b8       ?__acrt_new_handler@@3V?$dual_state_global@P6AH_K@Z@__crt_state_management@@A 00000001800379b8     libucrt:new_handler.obj
 0003:000019d0       ?module_handles@@3PAPEAUHINSTANCE__@@A 00000001800379d0     libucrt:winapi_thunks.obj
 0003:00001a70       ?encoded_function_pointers@@3PAPEAXA 0000000180037a70     libucrt:winapi_thunks.obj
 0003:00001b60       ?internal_state@?1??_mbtowc_internal@@9@4U_Mbstatet@@A 0000000180037b60     libucrt:mbtowc.obj
 0003:00001b78       ?enable_percent_n@@3_KA    0000000180037b78     libucrt:printf_count_output.obj
 0003:00001fa0       ?__acrt_lock_table@@3PAU_RTL_CRITICAL_SECTION@@A 0000000180037fa0     libucrt:locks.obj
 0003:000021d0       ?__acrt_locks_initialized@@3IA 00000001800381d0     libucrt:locks.obj
 0003:000021f0       ?fSystemSet@@3HA           00000001800381f0     libucrt:mbctype.obj
 0003:000021f4       ?initialized@?1??__acrt_initialize_multibyte@@9@4_NA 00000001800381f4     libucrt:mbctype.obj
 0003:00002230       ?ctrlc_action@@3V?$dual_state_global@P6AXH@Z@__crt_state_management@@A 0000000180038230     libucrt:signal.obj
 0003:00002238       ?ctrlbreak_action@@3V?$dual_state_global@P6AXH@Z@__crt_state_management@@A 0000000180038238     libucrt:signal.obj
 0003:00002240       ?abort_action@@3V?$dual_state_global@P6AXH@Z@__crt_state_management@@A 0000000180038240     libucrt:signal.obj
 0003:00002248       ?term_action@@3V?$dual_state_global@P6AXH@Z@__crt_state_management@@A 0000000180038248     libucrt:signal.obj
 0003:00002250       ?user_matherr@@3V?$dual_state_global@P6AHPEAU_exception@@@Z@__crt_state_management@@A 0000000180038250     libucrt:matherr.obj
 0003:00002260       ?__acrt_global_new_mode@@3V?$dual_state_global@J@__crt_state_management@@A 0000000180038260     libucrt:new_mode.obj
 0003:00002268       ?internal_pst@?1??__mbrtoc32_utf8@__crt_mbstring@@YA_KPEA_UPEBD_KPEAU_Mbstatet@@AEAV__crt_cached_ptd_host@@@Z@4U3@A 0000000180038268     libucrt:mbrtoc32.obj
 0003:00002270       ?__acrt_app_type@@3W4_crt_app_type@@A 0000000180038270     libucrt:report_runtime_error.obj
 0005:00000000       MoveSmall                  000000018003c000     libvcruntime:memcpy.obj
 0005:00000040       MoveSmallYmm               000000018003c040     libvcruntime:memcpy.obj
 0005:00000064       MoveSmallYmmNT             000000018003c064     libvcruntime:memcpy.obj
 0005:00000088       MoveSmallXmm               000000018003c088     libvcruntime:memcpy.obj
 0005:000000b0       MsetTab                    000000018003c0b0     libvcruntime:memset.obj
 0006:00000220       $R000000                   000000018003d220     PointCardRW.res
 0006:00000bc0       $R0009A0                   000000018003dbc0     PointCardRW.res
 0006:00000ca8       $R000A88                   000000018003dca8     PointCardRW.res
 0006:00000f10       $R000CF0                   000000018003df10     PointCardRW.res
 0006:00001480       $R001260                   000000018003e480     PointCardRW.res
 0006:00005e58       $R005C38                   0000000180042e58     PointCardRW.res
 0006:00005e90       $R005C70                   0000000180042e90     PointCardRW.res
