 OPOSCoinDispenser

 Timestamp is 600f7810 (Tue Jan 26 11:01:52 2021)

 Preferred load address is 0000000180000000

 Start         Length     Name                   Class
 0001:00000000 000000c0H .text$di                CODE
 0001:000000c0 00020cf0H .text$mn                CODE
 0001:00020db0 00000040H .text$mn$00             CODE
 0001:00020df0 000004b0H .text$x                 CODE
 0001:000212a0 00000078H .text$yd                CODE
 0002:00000000 00000618H .idata$5                DATA
 0002:00000618 00000028H .00cfg                  DATA
 0002:00000640 00000008H .CRT$XCA                DATA
 0002:00000648 00000008H .CRT$XCL                DATA
 0002:00000650 00000020H .CRT$XCU                DATA
 0002:00000670 00000008H .CRT$XCZ                DATA
 0002:00000678 00000008H .CRT$XIA                DATA
 0002:00000680 00000020H .CRT$XIC                DATA
 0002:000006a0 00000008H .CRT$XIZ                DATA
 0002:000006a8 00000008H .CRT$XLA                DATA
 0002:000006b0 00000008H .CRT$XLZ                DATA
 0002:000006b8 00000008H .CRT$XPA                DATA
 0002:000006c0 00000010H .CRT$XPX                DATA
 0002:000006d0 00000008H .CRT$XPXA               DATA
 0002:000006d8 00000008H .CRT$XPZ                DATA
 0002:000006e0 00000008H .CRT$XTA                DATA
 0002:000006e8 00000008H .CRT$XTZ                DATA
 0002:000006f0 00000000H .gehcont$y              DATA
 0002:000006f0 00000000H .gfids$y                DATA
 0002:000006f0 0000a790H .rdata                  DATA
 0002:0000ae80 00000000H .rdata$CastGuardVftablesA DATA
 0002:0000ae80 00000000H .rdata$CastGuardVftablesC DATA
 0002:0000ae80 00000028H .rdata$T                DATA
 0002:0000aea8 00000274H .rdata$r                DATA
 0002:0000b11c 0000040cH .rdata$zzzdbg           DATA
 0002:0000b528 00000008H .rtc$IAA                DATA
 0002:0000b530 00000008H .rtc$IZZ                DATA
 0002:0000b538 00000008H .rtc$TAA                DATA
 0002:0000b540 00000008H .rtc$TZZ                DATA
 0002:0000b548 00000004H .tls                    DATA
 0002:0000b54c 00000004H .tls$                   DATA
 0002:0000b550 00000008H .tls$ZZZ                DATA
 0002:0000b558 00001690H .xdata                  DATA
 0002:0000cbe8 00000150H .xdata$x                DATA
 0002:0000cd38 00000008H ATL$__a                 DATA
 0002:0000cd40 00000010H ATL$__z                 DATA
 0002:0000cd50 000000b0H .edata                  DATA
 0002:0000ce00 00000078H .idata$2                DATA
 0002:0000ce78 00000018H .idata$3                DATA
 0002:0000ce90 00000618H .idata$4                DATA
 0002:0000d4a8 00000c2aH .idata$6                DATA
 0003:00000000 00000db8H .data                   DATA
 0003:00000db8 000000c8H .data$r                 DATA
 0003:00000e80 0000141cH .bss                    DATA
 0004:00000000 00001e30H .pdata                  DATA
 0005:00000000 00000094H _RDATA                  DATA
 0006:00000000 00000220H .rsrc$01                DATA
 0006:00000220 00003af8H .rsrc$02                DATA

  Address         Publics by Value              Rva+Base               Lib:Object

 0000:00000000       ___safe_se_handler_table   0000000000000000     <absolute>
 0000:00000000       __guard_longjmp_table      0000000000000000     <absolute>
 0000:00000000       __x64_code_ranges_to_entry_points 0000000000000000     <absolute>
 0000:00000000       __arm64x_redirection_metadata 0000000000000000     <absolute>
 0000:00000000       __guard_iat_table          0000000000000000     <absolute>
 0000:00000000       __guard_fids_count         0000000000000000     <absolute>
 0000:00000000       __arm64x_extra_rfe_table   0000000000000000     <absolute>
 0000:00000000       __guard_iat_count          0000000000000000     <absolute>
 0000:00000000       __guard_longjmp_count      0000000000000000     <absolute>
 0000:00000000       __dynamic_value_reloc_table 0000000000000000     <absolute>
 0000:00000000       __x64_code_ranges_to_entry_points_count 0000000000000000     <absolute>
 0000:00000000       __hybrid_code_map          0000000000000000     <absolute>
 0000:00000000       __hybrid_auxiliary_iat     0000000000000000     <absolute>
 0000:00000000       __volatile_metadata        0000000000000000     <absolute>
 0000:00000000       __arm64x_extra_rfe_table_size 0000000000000000     <absolute>
 0000:00000000       ___safe_se_handler_count   0000000000000000     <absolute>
 0000:00000000       __AbsoluteZero             0000000000000000     <absolute>
 0000:00000000       __guard_eh_cont_count      0000000000000000     <absolute>
 0000:00000000       __guard_fids_table         0000000000000000     <absolute>
 0000:00000000       __arm64x_redirection_metadata_count 0000000000000000     <absolute>
 0000:00000000       __enclave_config           0000000000000000     <absolute>
 0000:00000000       __guard_eh_cont_table      0000000000000000     <absolute>
 0000:00000000       __arm64x_native_entrypoint 0000000000000000     <absolute>
 0000:00000000       __hybrid_code_map_count    0000000000000000     <absolute>
 0000:00000100       __guard_flags              0000000000000100     <absolute>
 0000:00000000       __ImageBase                0000000180000000     <linker-defined>
 0001:000000c0       ?DupWide@_CW@@AEAAXXZ      00000001800010c0 f   CWString.obj
 0001:000000e8       ?cw_dup@@YAXPEBDAEAHAEAPEA_W1@Z 00000001800010e8 f   CWString.obj
 0001:000001c8       ?cw_memcpy@@YAHPEA_WPEBDH@Z 00000001800011c8 f   CWString.obj
 0001:00000214       ?cw_strcpy@@YAHPEA_WPEBD@Z 0000000180001214 f   CWString.obj
 0001:00000228       ??0CAtlComModule@ATL@@QEAA@XZ 0000000180001228 f i OposVariant.obj
 0001:000002a8       ??0CAtlWinModule@ATL@@QEAA@XZ 00000001800012a8 f i OposVariant.obj
 0001:00000314       ??0OposDispParms@@QEAA@PEAVOposVariant@@H@Z 0000000180001314 f   OposVariant.obj
 0001:000003bc       ??1OposDispParms@@QEAA@XZ  00000001800013bc f   OposVariant.obj
 0001:000003d4       ??_Estringdispid@CComTypeInfoHolder@ATL@@QEAAPEAXI@Z 00000001800013d4 f i OposVariant.obj
 0001:00000478       ?AtlWinModuleTerm@ATL@@YAJPEAU_ATL_WIN_MODULE70@1@PEAUHINSTANCE__@@@Z 0000000180001478 f i OposVariant.obj
 0001:00000528       ?ChangeBSTR@OposVariant@@QEAAXPEAPEA_WAEAJ@Z 0000000180001528 f   OposVariant.obj
 0001:00000588       ?ChangeLONG@OposVariant@@QEAAXPEAJAEAJ@Z 0000000180001588 f   OposVariant.obj
 0001:000005e4       ?GetLONG@OposVariant@@QEAAJXZ 00000001800015e4 f   OposVariant.obj
 0001:00000608       ?SetBSTR@OposVariant@@QEAAXPEA_WAEAJ@Z 0000000180001608 f   OposVariant.obj
 0001:00000648       ?SetBSTR_Copy@OposVariant@@QEAAXPEA_WAEAJ@Z 0000000180001648 f   OposVariant.obj
 0001:000006b8       ?SetBSTR_InOutPtr@OposVariant@@QEAA_NPEAPEA_WAEAJ@Z 00000001800016b8 f   OposVariant.obj
 0001:00000708       ?SetBSTR_OutPtr@OposVariant@@QEAA_NPEAPEA_WAEAJ@Z 0000000180001708 f   OposVariant.obj
 0001:00000724       ?SetDispatch_Ptr@OposVariant@@QEAAXPEAUIDispatch@@AEAJ@Z 0000000180001724 f   OposVariant.obj
 0001:0000077c       ?SetLONG@OposVariant@@QEAAXJ@Z 000000018000177c f   OposVariant.obj
 0001:000007ac       ?SetLONG_Ptr@OposVariant@@QEAAXPEAJAEAJ@Z 00000001800017ac f   OposVariant.obj
 0001:000007f8       ?SetString@OposVariant@@QEAAXPEB_WAEAJ@Z 00000001800017f8 f   OposVariant.obj
 0001:0000085c       ?SetVARIANT_BOOL@OposVariant@@QEAAXF@Z 000000018000185c f   OposVariant.obj
 0001:00000894       ?SetVARIANT_BOOL_Ptr@OposVariant@@QEAAXPEAFAEAJ@Z 0000000180001894 f   OposVariant.obj
 0001:000008e0       ?Term@CAtlComModule@ATL@@QEAAXXZ 00000001800018e0 f i OposVariant.obj
 0001:00000950       ?_AtlInitializeCriticalSectionEx@ATL@@YAHPEAU_RTL_CRITICAL_SECTION@@KK@Z 0000000180001950 f i OposVariant.obj
 0001:00000958       ?_AtlRaiseException@ATL@@YAXKK@Z 0000000180001958 f i OposVariant.obj
 0001:00000968       ?GetWindowProc@?$CWindowImplBaseT@VCWindow@ATL@@V?$CWinTraits@$0FGAAAAAA@$0A@@2@@ATL@@UEAAP6A_JPEAUHWND__@@I_K_J@ZXZ 0000000180001968 f i CoinDispenser.obj
 0001:00000970       ?StartWindowProc@?$CWindowImplBaseT@VCWindow@ATL@@V?$CWinTraits@$0FGAAAAAA@$0A@@2@@ATL@@SA_JPEAUHWND__@@I_K_J@Z 0000000180001970 f i CoinDispenser.obj
 0001:00000a34       _guard_check_icall_nop     0000000180001a34 f i LIBCMT:guard_support.obj
 0001:00000a34       ?OnFinalMessage@?$CWindowImplBaseT@VCWindow@ATL@@V?$CWinTraits@$0FGAAAAAA@$0A@@2@@ATL@@UEAAXPEAUHWND__@@@Z 0000000180001a34 f i CoinDispenser.obj
 0001:00000a34       ?ObjectMain@CComObjectRootBase@ATL@@SAX_N@Z 0000000180001a34 f i CoinDispenser.obj
 0001:00000a38       ?GetTypeInfoCount@?$IDispatchImpl@UIOPOSCoinDispenser@@$1?IID_IOPOSCoinDispenser@@3U_GUID@@B$1?LIBID_OposCoinDispenser_CCO@@3U3@B$00$0A@VCComTypeInfoHolder@ATL@@@ATL@@UEAAJPEAI@Z 0000000180001a38 f i CoinDispenser.obj
 0001:00000a4c       ?GetTypeInfo@?$IDispatchImpl@UIOPOSCoinDispenser@@$1?IID_IOPOSCoinDispenser@@3U_GUID@@B$1?LIBID_OposCoinDispenser_CCO@@3U3@B$00$0A@VCComTypeInfoHolder@ATL@@@ATL@@UEAAJIKPEAPEAUITypeInfo@@@Z 0000000180001a4c f i CoinDispenser.obj
 0001:00000ab0       ?GetIDsOfNames@?$IDispatchImpl@UIOPOSCoinDispenser@@$1?IID_IOPOSCoinDispenser@@3U_GUID@@B$1?LIBID_OposCoinDispenser_CCO@@3U3@B$00$0A@VCComTypeInfoHolder@ATL@@@ATL@@UEAAJAEBU_GUID@@PEAPEA_WIKPEAJ@Z 0000000180001ab0 f i CoinDispenser.obj
 0001:00000abc       ?Invoke@?$IDispatchImpl@UIOPOSCoinDispenser@@$1?IID_IOPOSCoinDispenser@@3U_GUID@@B$1?LIBID_OposCoinDispenser_CCO@@3U3@B$00$0A@VCComTypeInfoHolder@ATL@@@ATL@@UEAAJJAEBU_GUID@@KGPEAUtagDISPPARAMS@@PEAUtagVARIANT@@PEAUtagEXCEPINFO@@PEAI@Z 0000000180001abc f i CoinDispenser.obj
 0001:00000b4c       ?CreateControlWindow@?$CComControl@VCOPOSCoinDispenser@@V?$CWindowImpl@VCOPOSCoinDispenser@@VCWindow@ATL@@V?$CWinTraits@$0FGAAAAAA@$0A@@3@@ATL@@@ATL@@UEAAPEAUHWND__@@PEAU3@AEAUtagRECT@@@Z 0000000180001b4c f i CoinDispenser.obj
 0001:00000b84       ?ControlQueryInterface@?$CComControl@VCOPOSCoinDispenser@@V?$CWindowImpl@VCOPOSCoinDispenser@@VCWindow@ATL@@V?$CWinTraits@$0FGAAAAAA@$0A@@3@@ATL@@@ATL@@UEAAJAEBU_GUID@@PEAPEAX@Z 0000000180001b84 f i CoinDispenser.obj
 0001:00000b98       ?GetClassID@?$IPersistStorageImpl@VCOPOSCoinDispenser@@@ATL@@UEAAJPEAU_GUID@@@Z 0000000180001b98 f i CoinDispenser.obj
 0001:00000b98       ?GetUserClassID@?$IOleObjectImpl@VCOPOSCoinDispenser@@@ATL@@UEAAJPEAU_GUID@@@Z 0000000180001b98 f i CoinDispenser.obj
 0001:00000b98       ?GetClassID@?$IPersistStreamInitImpl@VCOPOSCoinDispenser@@@ATL@@UEAAJPEAU_GUID@@@Z 0000000180001b98 f i CoinDispenser.obj
 0001:00000bb4       ?IsDirty@?$IPersistStreamInitImpl@VCOPOSCoinDispenser@@@ATL@@UEAAJXZ 0000000180001bb4 f i CoinDispenser.obj
 0001:00000bd0       ?Load@?$IPersistStreamInitImpl@VCOPOSCoinDispenser@@@ATL@@UEAAJPEAUIStream@@@Z 0000000180001bd0 f i CoinDispenser.obj
 0001:00000be8       ?Save@?$IPersistStreamInitImpl@VCOPOSCoinDispenser@@@ATL@@UEAAJPEAUIStream@@H@Z 0000000180001be8 f i CoinDispenser.obj
 0001:00000c00       ?GetSizeMax@?$IPersistStreamInitImpl@VCOPOSCoinDispenser@@@ATL@@UEAAJPEAT_ULARGE_INTEGER@@@Z 0000000180001c00 f i CoinDispenser.obj
 0001:00000e2c       ?InitNew@?$IPersistStreamInitImpl@VCOPOSCoinDispenser@@@ATL@@UEAAJXZ 0000000180001e2c f i CoinDispenser.obj
 0001:00000e44       ?GetCanonicalFormatEtc@?$IDataObjectImpl@VCOPOSCoinDispenser@@@ATL@@UEAAJPEAUtagFORMATETC@@0@Z 0000000180001e44 f i CoinDispenser.obj
 0001:00000e44       ?GetControlInfo@?$IOleControlImpl@VCOPOSCoinDispenser@@@ATL@@UEAAJPEAUtagCONTROLINFO@@@Z 0000000180001e44 f i CoinDispenser.obj
 0001:00000e44       ?SetData@?$IDataObjectImpl@VCOPOSCoinDispenser@@@ATL@@UEAAJPEAUtagFORMATETC@@PEAUtagSTGMEDIUM@@H@Z 0000000180001e44 f i CoinDispenser.obj
 0001:00000e44       ?GetDataHere@?$IDataObjectImpl@VCOPOSCoinDispenser@@@ATL@@UEAAJPEAUtagFORMATETC@@PEAUtagSTGMEDIUM@@@Z 0000000180001e44 f i CoinDispenser.obj
 0001:00000e44       ?OnMnemonic@?$IOleControlImpl@VCOPOSCoinDispenser@@@ATL@@UEAAJPEAUtagMSG@@@Z 0000000180001e44 f i CoinDispenser.obj
 0001:00000e44       ?QueryGetData@?$IDataObjectImpl@VCOPOSCoinDispenser@@@ATL@@UEAAJPEAUtagFORMATETC@@@Z 0000000180001e44 f i CoinDispenser.obj
 0001:00000e44       ?GetColorSet@?$IViewObjectExImpl@VCOPOSCoinDispenser@@@ATL@@UEAAJKJPEAXPEAUtagDVTARGETDEVICE@@PEAUHDC__@@PEAPEAUtagLOGPALETTE@@@Z 0000000180001e44 f i CoinDispenser.obj
 0001:00000e44       ?SOErrorDummy@COPOSCoinDispenser@@MEAAJJJJPEAJ@Z 0000000180001e44 f i CoinDispenser.obj
 0001:00000e44       ?EnumFormatEtc@?$IDataObjectImpl@VCOPOSCoinDispenser@@@ATL@@UEAAJKPEAPEAUIEnumFORMATETC@@@Z 0000000180001e44 f i CoinDispenser.obj
 0001:00000e44       ?GetDropTarget@?$IOleInPlaceObjectWindowlessImpl@VCOPOSCoinDispenser@@@ATL@@UEAAJPEAPEAUIDropTarget@@@Z 0000000180001e44 f i CoinDispenser.obj
 0001:00000e44       ?Freeze@?$IViewObjectExImpl@VCOPOSCoinDispenser@@@ATL@@UEAAJKJPEAXPEAK@Z 0000000180001e44 f i CoinDispenser.obj
 0001:00000e44       ?ContextSensitiveHelp@?$IOleInPlaceActiveObjectImpl@VCOPOSCoinDispenser@@@ATL@@UEAAJH@Z 0000000180001e44 f i CoinDispenser.obj
 0001:00000e44       ?InitFromData@?$IOleObjectImpl@VCOPOSCoinDispenser@@@ATL@@UEAAJPEAUIDataObject@@HK@Z 0000000180001e44 f i CoinDispenser.obj
 0001:00000e44       ?SODataDummy@COPOSCoinDispenser@@MEAAJJ@Z 0000000180001e44 f i CoinDispenser.obj
 0001:00000e44       ?SetMoniker@?$IOleObjectImpl@VCOPOSCoinDispenser@@@ATL@@UEAAJKPEAUIMoniker@@@Z 0000000180001e44 f i CoinDispenser.obj
 0001:00000e44       ?GetClipboardData@?$IOleObjectImpl@VCOPOSCoinDispenser@@@ATL@@UEAAJKPEAPEAUIDataObject@@@Z 0000000180001e44 f i CoinDispenser.obj
 0001:00000e44       ?SOOutputCompleteDummy@COPOSCoinDispenser@@MEAAJJ@Z 0000000180001e44 f i CoinDispenser.obj
 0001:00000e44       ?GetRect@?$IViewObjectExImpl@VCOPOSCoinDispenser@@@ATL@@UEAAJKPEAU_RECTL@@@Z 0000000180001e44 f i CoinDispenser.obj
 0001:00000e44       ?ContextSensitiveHelp@?$IOleInPlaceObjectWindowlessImpl@VCOPOSCoinDispenser@@@ATL@@UEAAJH@Z 0000000180001e44 f i CoinDispenser.obj
 0001:00000e44       ?Unfreeze@?$IViewObjectExImpl@VCOPOSCoinDispenser@@@ATL@@UEAAJK@Z 0000000180001e44 f i CoinDispenser.obj
 0001:00000e44       ?ReactivateAndUndo@?$IOleInPlaceObjectWindowlessImpl@VCOPOSCoinDispenser@@@ATL@@UEAAJXZ 0000000180001e44 f i CoinDispenser.obj
 0001:00000e44       ?QueryInterface@CRegObject@ATL@@UEAAJAEBU_GUID@@PEAPEAX@Z 0000000180001e44 f i CoinDispenser.obj
 0001:00000e44       ?SetColorScheme@?$IOleObjectImpl@VCOPOSCoinDispenser@@@ATL@@UEAAJPEAUtagLOGPALETTE@@@Z 0000000180001e44 f i CoinDispenser.obj
 0001:00000e44       ?GetMoniker@?$IOleObjectImpl@VCOPOSCoinDispenser@@@ATL@@UEAAJKKPEAPEAUIMoniker@@@Z 0000000180001e44 f i CoinDispenser.obj
 0001:00000e4c       ?ResizeBorder@?$IOleInPlaceActiveObjectImpl@VCOPOSCoinDispenser@@@ATL@@UEAAJPEBUtagRECT@@PEAUIOleInPlaceUIWindow@@H@Z 0000000180001e4c f i CoinDispenser.obj
 0001:00000e4c       ?GetCategoryMap@CComObjectRootBase@ATL@@SAPEBU_ATL_CATMAP_ENTRY@2@XZ 0000000180001e4c f i CoinDispenser.obj
 0001:00000e4c       ?SetHostNames@?$IOleObjectImpl@VCOPOSCoinDispenser@@@ATL@@UEAAJPEB_W0@Z 0000000180001e4c f i CoinDispenser.obj
 0001:00000e4c       ?EnableModeless@?$IOleInPlaceActiveObjectImpl@VCOPOSCoinDispenser@@@ATL@@UEAAJH@Z 0000000180001e4c f i CoinDispenser.obj
 0001:00000e4c       ?OnFrameWindowActivate@?$IOleInPlaceActiveObjectImpl@VCOPOSCoinDispenser@@@ATL@@UEAAJH@Z 0000000180001e4c f i CoinDispenser.obj
 0001:00000e4c       ?OnAmbientPropertyChange@?$IOleControlImpl@VCOPOSCoinDispenser@@@ATL@@UEAAJJ@Z 0000000180001e4c f i CoinDispenser.obj
 0001:00000e4c       ?Release@CRegObject@ATL@@UEAAKXZ 0000000180001e4c f i CoinDispenser.obj
 0001:00000e4c       ?HandsOffStorage@?$IPersistStorageImpl@VCOPOSCoinDispenser@@@ATL@@UEAAJXZ 0000000180001e4c f i CoinDispenser.obj
 0001:00000e4c       ?GetObjectDescription@?$CComCoClass@VCOPOSCoinDispenser@@$1?CLSID_OPOSCoinDispenser@@3U_GUID@@B@ATL@@SAPEB_WXZ 0000000180001e4c f i CoinDispenser.obj
 0001:00000e4c       ?Update@?$IOleObjectImpl@VCOPOSCoinDispenser@@@ATL@@UEAAJXZ 0000000180001e4c f i CoinDispenser.obj
 0001:00000e4c       ?SaveCompleted@?$IPersistStorageImpl@VCOPOSCoinDispenser@@@ATL@@UEAAJPEAUIStorage@@@Z 0000000180001e4c f i CoinDispenser.obj
 0001:00000e4c       ?IsUpToDate@?$IOleObjectImpl@VCOPOSCoinDispenser@@@ATL@@UEAAJXZ 0000000180001e4c f i CoinDispenser.obj
 0001:00000e50       ?SetClientSite@?$IOleObjectImpl@VCOPOSCoinDispenser@@@ATL@@UEAAJPEAUIOleClientSite@@@Z 0000000180001e50 f i CoinDispenser.obj
 0001:00000e6c       ?GetClientSite@?$IOleObjectImpl@VCOPOSCoinDispenser@@@ATL@@UEAAJPEAPEAUIOleClientSite@@@Z 0000000180001e6c f i CoinDispenser.obj
 0001:00000eb4       ?Close@?$IOleObjectImpl@VCOPOSCoinDispenser@@@ATL@@UEAAJK@Z 0000000180001eb4 f i CoinDispenser.obj
 0001:00000ed0       ?DoVerb@?$IOleObjectImpl@VCOPOSCoinDispenser@@@ATL@@UEAAJJPEAUtagMSG@@PEAUIOleClientSite@@JPEAUHWND__@@PEBUtagRECT@@@Z 0000000180001ed0 f i CoinDispenser.obj
 0001:00001074       ?EnumVerbs@?$IOleObjectImpl@VCOPOSCoinDispenser@@@ATL@@UEAAJPEAPEAUIEnumOLEVERB@@@Z 0000000180002074 f i CoinDispenser.obj
 0001:00001090       ?GetUserType@?$IOleObjectImpl@VCOPOSCoinDispenser@@@ATL@@UEAAJKPEAPEA_W@Z 0000000180002090 f i CoinDispenser.obj
 0001:000010a0       ?SetExtent@?$IOleObjectImpl@VCOPOSCoinDispenser@@@ATL@@UEAAJKPEAUtagSIZE@@@Z 00000001800020a0 f i CoinDispenser.obj
 0001:000010bc       ?GetExtent@?$IOleObjectImpl@VCOPOSCoinDispenser@@@ATL@@UEAAJKPEAUtagSIZE@@@Z 00000001800020bc f i CoinDispenser.obj
 0001:000010ec       ?Advise@?$IOleObjectImpl@VCOPOSCoinDispenser@@@ATL@@UEAAJPEAUIAdviseSink@@PEAK@Z 00000001800020ec f i CoinDispenser.obj
 0001:00001148       ?Unadvise@?$IOleObjectImpl@VCOPOSCoinDispenser@@@ATL@@UEAAJK@Z 0000000180002148 f i CoinDispenser.obj
 0001:00001180       ?EnumAdvise@?$IOleObjectImpl@VCOPOSCoinDispenser@@@ATL@@UEAAJPEAPEAUIEnumSTATDATA@@@Z 0000000180002180 f i CoinDispenser.obj
 0001:000011c8       ?GetMiscStatus@?$IOleObjectImpl@VCOPOSCoinDispenser@@@ATL@@UEAAJKPEAK@Z 00000001800021c8 f i CoinDispenser.obj
 0001:000011d8       ?GetWindow@?$IOleInPlaceActiveObjectImpl@VCOPOSCoinDispenser@@@ATL@@UEAAJPEAPEAUHWND__@@@Z 00000001800021d8 f i CoinDispenser.obj
 0001:0000122c       ?TranslateAcceleratorW@?$IOleInPlaceActiveObjectImpl@VCOPOSCoinDispenser@@@ATL@@UEAAJPEAUtagMSG@@@Z 000000018000222c f i CoinDispenser.obj
 0001:00001320       ?OnDocWindowActivate@?$IOleInPlaceActiveObjectImpl@VCOPOSCoinDispenser@@@ATL@@UEAAJH@Z 0000000180002320 f i CoinDispenser.obj
 0001:0000134c       ?Draw@?$IViewObjectExImpl@VCOPOSCoinDispenser@@@ATL@@UEAAJKJPEAXPEAUtagDVTARGETDEVICE@@PEAUHDC__@@2PEBU_RECTL@@3P6AH_K@Z4@Z 000000018000234c f i CoinDispenser.obj
 0001:000013b0       ?SetAdvise@?$IViewObjectExImpl@VCOPOSCoinDispenser@@@ATL@@UEAAJKKPEAUIAdviseSink@@@Z 00000001800023b0 f i CoinDispenser.obj
 0001:00001404       ?GetAdvise@?$IViewObjectExImpl@VCOPOSCoinDispenser@@@ATL@@UEAAJPEAK0PEAPEAUIAdviseSink@@@Z 0000000180002404 f i CoinDispenser.obj
 0001:00001440       ?GetExtent@?$IViewObjectExImpl@VCOPOSCoinDispenser@@@ATL@@UEAAJKJPEAUtagDVTARGETDEVICE@@PEAUtagSIZE@@@Z 0000000180002440 f i CoinDispenser.obj
 0001:00001470       ?GetViewStatus@?$IViewObjectExImpl@VCOPOSCoinDispenser@@@ATL@@UEAAJPEAK@Z 0000000180002470 f i CoinDispenser.obj
 0001:00001484       ?QueryHitPoint@?$IViewObjectExImpl@VCOPOSCoinDispenser@@@ATL@@UEAAJKPEBUtagRECT@@UtagPOINT@@JPEAK@Z 0000000180002484 f i CoinDispenser.obj
 0001:000014c8       ?QueryHitRect@?$IViewObjectExImpl@VCOPOSCoinDispenser@@@ATL@@UEAAJKPEBUtagRECT@@0JPEAK@Z 00000001800024c8 f i CoinDispenser.obj
 0001:00001530       ?GetNaturalExtent@?$IViewObjectExImpl@VCOPOSCoinDispenser@@@ATL@@UEAAJKJPEAUtagDVTARGETDEVICE@@PEAUHDC__@@PEAUtagExtentInfo@@PEAUtagSIZE@@@Z 0000000180002530 f i CoinDispenser.obj
 0001:00001578       ?GetWindow@?$IOleInPlaceObjectWindowlessImpl@VCOPOSCoinDispenser@@@ATL@@UEAAJPEAPEAUHWND__@@@Z 0000000180002578 f i CoinDispenser.obj
 0001:000015cc       ?InPlaceDeactivate@?$IOleInPlaceObjectWindowlessImpl@VCOPOSCoinDispenser@@@ATL@@UEAAJXZ 00000001800025cc f i CoinDispenser.obj
 0001:000015e8       ?UIDeactivate@?$IOleInPlaceObjectWindowlessImpl@VCOPOSCoinDispenser@@@ATL@@UEAAJXZ 00000001800025e8 f i CoinDispenser.obj
 0001:00001604       ?SetObjectRects@?$IOleInPlaceObjectWindowlessImpl@VCOPOSCoinDispenser@@@ATL@@UEAAJPEBUtagRECT@@0@Z 0000000180002604 f i CoinDispenser.obj
 0001:00001620       ?OnWindowMessage@?$IOleInPlaceObjectWindowlessImpl@VCOPOSCoinDispenser@@@ATL@@UEAAJI_K_JPEA_J@Z 0000000180002620 f i CoinDispenser.obj
 0001:000016e8       ?EnumConnectionPoints@?$IConnectionPointContainerImpl@VCOPOSCoinDispenser@@@ATL@@UEAAJPEAPEAUIEnumConnectionPoints@@@Z 00000001800026e8 f i CoinDispenser.obj
 0001:00001934       ?FindConnectionPoint@?$IConnectionPointContainerImpl@VCOPOSCoinDispenser@@@ATL@@UEAAJAEBU_GUID@@PEAPEAUIConnectionPoint@@@Z 0000000180002934 f i CoinDispenser.obj
 0001:00001a04       ?IsDirty@?$IPersistStorageImpl@VCOPOSCoinDispenser@@@ATL@@UEAAJXZ 0000000180002a04 f i CoinDispenser.obj
 0001:00001a44       ?InitNew@?$IPersistStorageImpl@VCOPOSCoinDispenser@@@ATL@@UEAAJPEAUIStorage@@@Z 0000000180002a44 f i CoinDispenser.obj
 0001:00001a84       ?Load@?$IPersistStorageImpl@VCOPOSCoinDispenser@@@ATL@@UEAAJPEAUIStorage@@@Z 0000000180002a84 f i CoinDispenser.obj
 0001:00001b24       ?Save@?$IPersistStorageImpl@VCOPOSCoinDispenser@@@ATL@@UEAAJPEAUIStorage@@H@Z 0000000180002b24 f i CoinDispenser.obj
 0001:00001bd4       ?GetPages@?$ISpecifyPropertyPagesImpl@VCOPOSCoinDispenser@@@ATL@@UEAAJPEAUtagCAUUID@@@Z 0000000180002bd4 f i CoinDispenser.obj
 0001:00001be0       ?QuickActivate@?$IQuickActivateImpl@VCOPOSCoinDispenser@@@ATL@@UEAAJPEAUtagQACONTAINER@@PEAUtagQACONTROL@@@Z 0000000180002be0 f i CoinDispenser.obj
 0001:00001bfc       ?SetContentExtent@?$IQuickActivateImpl@VCOPOSCoinDispenser@@@ATL@@UEAAJPEAUtagSIZE@@@Z 0000000180002bfc f i CoinDispenser.obj
 0001:00001c30       ?GetContentExtent@?$IQuickActivateImpl@VCOPOSCoinDispenser@@@ATL@@UEAAJPEAUtagSIZE@@@Z 0000000180002c30 f i CoinDispenser.obj
 0001:00001c68       ?GetData@?$IDataObjectImpl@VCOPOSCoinDispenser@@@ATL@@UEAAJPEAUtagFORMATETC@@PEAUtagSTGMEDIUM@@@Z 0000000180002c68 f i CoinDispenser.obj
 0001:00001c84       ?DAdvise@?$IDataObjectImpl@VCOPOSCoinDispenser@@@ATL@@UEAAJPEAUtagFORMATETC@@KPEAUIAdviseSink@@PEAK@Z 0000000180002c84 f i CoinDispenser.obj
 0001:00001d0c       ?DUnadvise@?$IDataObjectImpl@VCOPOSCoinDispenser@@@ATL@@UEAAJK@Z 0000000180002d0c f i CoinDispenser.obj
 0001:00001d38       ?EnumDAdvise@?$IDataObjectImpl@VCOPOSCoinDispenser@@@ATL@@UEAAJPEAPEAUIEnumSTATDATA@@@Z 0000000180002d38 f i CoinDispenser.obj
 0001:00001d74       ?GetClassInfoW@?$IProvideClassInfo2Impl@$1?CLSID_OPOSCoinDispenser@@3U_GUID@@B$1?DIID__IOPOSCoinDispenserEvents@@3U2@B$1?LIBID_OposCoinDispenser_CCO@@3U2@B$00$0A@VCComTypeInfoHolder@ATL@@@ATL@@UEAAJPEAPEAUITypeInfo@@@Z 0000000180002d74 f i CoinDispenser.obj
 0001:00001dcc       ?GetGUID@?$IProvideClassInfo2Impl@$1?CLSID_OPOSCoinDispenser@@3U_GUID@@B$1?DIID__IOPOSCoinDispenserEvents@@3U2@B$1?LIBID_OposCoinDispenser_CCO@@3U2@B$00$0A@VCComTypeInfoHolder@ATL@@@ATL@@UEAAJKPEAU_GUID@@@Z 0000000180002dcc f i CoinDispenser.obj
 0001:00001e00       _get_startup_argv_mode     0000000180002e00 f i LIBCMT:argv_mode.obj
 0001:00001e00       ?AddRef@CRegObject@ATL@@UEAAKXZ 0000000180002e00 f i CoinDispenser.obj
 0001:00001e00       ?FAccessAllowed@?$IObjectSafetyImpl@VCOPOSCoinDispenser@@$02@ATL@@MEAAHXZ 0000000180002e00 f i CoinDispenser.obj
 0001:00001e08       ?GetInterfaceSafetyOptions@?$IObjectSafetyImpl@VCOPOSCoinDispenser@@$02@ATL@@UEAAJAEBU_GUID@@PEAK1@Z 0000000180002e08 f i CoinDispenser.obj
 0001:00001e9c       ?SetInterfaceSafetyOptions@?$IObjectSafetyImpl@VCOPOSCoinDispenser@@$02@ATL@@UEAAJAEBU_GUID@@KK@Z 0000000180002e9c f i CoinDispenser.obj
 0001:00001f40       ?_LocCPQueryInterface@?$IConnectionPointImpl@VCOPOSCoinDispenser@@$1?DIID__IOPOSCoinDispenserEvents@@3U_GUID@@BVCComDynamicUnkArray@ATL@@@ATL@@UEAAJAEBU_GUID@@PEAPEAX@Z 0000000180002f40 f i CoinDispenser.obj
 0001:00001f40       ?_LocCPQueryInterface@?$IConnectionPointImpl@VCOPOSCoinDispenser@@$1?IID_IPropertyNotifySink@@3U_GUID@@BVCComDynamicUnkArray@ATL@@@ATL@@UEAAJAEBU_GUID@@PEAPEAX@Z 0000000180002f40 f i CoinDispenser.obj
 0001:00001fb0       ?GetConnectionInterface@?$IConnectionPointImpl@VCOPOSCoinDispenser@@$1?IID_IPropertyNotifySink@@3U_GUID@@BVCComDynamicUnkArray@ATL@@@ATL@@UEAAJPEAU_GUID@@@Z 0000000180002fb0 f i CoinDispenser.obj
 0001:00001fcc       ?GetConnectionPointContainer@?$IConnectionPointImpl@VCOPOSCoinDispenser@@$1?IID_IPropertyNotifySink@@3U_GUID@@BVCComDynamicUnkArray@ATL@@@ATL@@UEAAJPEAPEAUIConnectionPointContainer@@@Z 0000000180002fcc f i CoinDispenser.obj
 0001:00001fec       ?Advise@?$IConnectionPointImpl@VCOPOSCoinDispenser@@$1?IID_IPropertyNotifySink@@3U_GUID@@BVCComDynamicUnkArray@ATL@@@ATL@@UEAAJPEAUIUnknown@@PEAK@Z 0000000180002fec f i CoinDispenser.obj
 0001:00001fec       ?Advise@?$IConnectionPointImpl@VCOPOSCoinDispenser@@$1?DIID__IOPOSCoinDispenserEvents@@3U_GUID@@BVCComDynamicUnkArray@ATL@@@ATL@@UEAAJPEAUIUnknown@@PEAK@Z 0000000180002fec f i CoinDispenser.obj
 0001:000020a8       ?Unadvise@?$IConnectionPointImpl@VCOPOSCoinDispenser@@$1?DIID__IOPOSCoinDispenserEvents@@3U_GUID@@BVCComDynamicUnkArray@ATL@@@ATL@@UEAAJK@Z 00000001800030a8 f i CoinDispenser.obj
 0001:000020a8       ?Unadvise@?$IConnectionPointImpl@VCOPOSCoinDispenser@@$1?IID_IPropertyNotifySink@@3U_GUID@@BVCComDynamicUnkArray@ATL@@@ATL@@UEAAJK@Z 00000001800030a8 f i CoinDispenser.obj
 0001:00002110       ?EnumConnections@?$IConnectionPointImpl@VCOPOSCoinDispenser@@$1?DIID__IOPOSCoinDispenserEvents@@3U_GUID@@BVCComDynamicUnkArray@ATL@@@ATL@@UEAAJPEAPEAUIEnumConnections@@@Z 0000000180003110 f i CoinDispenser.obj
 0001:00002110       ?EnumConnections@?$IConnectionPointImpl@VCOPOSCoinDispenser@@$1?IID_IPropertyNotifySink@@3U_GUID@@BVCComDynamicUnkArray@ATL@@@ATL@@UEAAJPEAPEAUIEnumConnections@@@Z 0000000180003110 f i CoinDispenser.obj
 0001:000022bc       ?GetConnectionInterface@?$IConnectionPointImpl@VCOPOSCoinDispenser@@$1?DIID__IOPOSCoinDispenserEvents@@3U_GUID@@BVCComDynamicUnkArray@ATL@@@ATL@@UEAAJPEAU_GUID@@@Z 00000001800032bc f i CoinDispenser.obj
 0001:000022d8       ?GetConnectionPointContainer@?$IConnectionPointImpl@VCOPOSCoinDispenser@@$1?DIID__IOPOSCoinDispenserEvents@@3U_GUID@@BVCComDynamicUnkArray@ATL@@@ATL@@UEAAJPEAPEAUIConnectionPointContainer@@@Z 00000001800032d8 f i CoinDispenser.obj
 0001:000022f8       ?UpdateRegistry@COPOSCoinDispenser@@SAJH@Z 00000001800032f8 f i CoinDispenser.obj
 0001:00002310       ?ProcessWindowMessage@COPOSCoinDispenser@@UEAAHPEAUHWND__@@I_K_JAEA_JK@Z 0000000180003310 f i CoinDispenser.obj
 0001:00002398       ?SODirectIO@COPOSCoinDispenser@@MEAAJJPEAJPEAPEA_W@Z 0000000180003398 f i CoinDispenser.obj
 0001:00002410       ?SOStatusUpdate@COPOSCoinDispenser@@MEAAJJ@Z 0000000180003410 f i CoinDispenser.obj
 0001:00002460       ?Lock@CAtlModule@ATL@@UEAAJXZ 0000000180003460 f i CoinDispenser.obj
 0001:00002470       ?Unlock@CAtlModule@ATL@@UEAAJXZ 0000000180003470 f i CoinDispenser.obj
 0001:0000247c       ?GetLockCount@CAtlModule@ATL@@UEAAJXZ 000000018000347c f i CoinDispenser.obj
 0001:00002480       ?GetGITPtr@CAtlModule@ATL@@UEAAJPEAPEAUIGlobalInterfaceTable@@@Z 0000000180003480 f i CoinDispenser.obj
 0001:000024f0       ?CreateInstance@?$CComCreator@V?$CComObjectCached@VCComClassFactory@ATL@@@ATL@@@ATL@@SAJPEAXAEBU_GUID@@PEAPEAX@Z 00000001800034f0 f i CoinDispenser.obj
 0001:00002614       ?CreateInstance@?$CComCreator2@V?$CComCreator@V?$CComObject@VCOPOSCoinDispenser@@@ATL@@@ATL@@V?$CComCreator@V?$CComAggObject@VCOPOSCoinDispenser@@@ATL@@@2@@ATL@@SAJPEAXAEBU_GUID@@PEAPEAX@Z 0000000180003614 f i CoinDispenser.obj
 0001:00002624       ?AddCommonRGSReplacements@?$CAtlModuleT@VCComModule@ATL@@@ATL@@UEAAJPEAUIRegistrarBase@@@Z 0000000180003624 f i CoinDispenser.obj
 0001:0000263c       ?AddRef@?$CComObjectCached@VCComClassFactory@ATL@@@ATL@@UEAAKXZ 000000018000363c f i CoinDispenser.obj
 0001:00002668       ?Release@?$CComObjectCached@VCComClassFactory@ATL@@@ATL@@UEAAKXZ 0000000180003668 f i CoinDispenser.obj
 0001:000026a8       ?QueryInterface@?$CComObjectCached@VCComClassFactory@ATL@@@ATL@@UEAAJAEBU_GUID@@PEAPEAX@Z 00000001800036a8 f i CoinDispenser.obj
 0001:000026bc       ??_E?$CComObjectCached@VCComClassFactory@ATL@@@ATL@@UEAAPEAXI@Z 00000001800036bc f i CoinDispenser.obj
 0001:000026bc       ??_G?$CComObjectCached@VCComClassFactory@ATL@@@ATL@@UEAAPEAXI@Z 00000001800036bc f i CoinDispenser.obj
 0001:00002714       ?UpdateRegistryFromResourceD@CComModule@ATL@@UEAAJPEB_WHPEAU_ATL_REGMAP_ENTRY@2@@Z 0000000180003714 f i CoinDispenser.obj
 0001:00002714       ?UpdateRegistryFromResourceD@CComModule@ATL@@UEAAJIHPEAU_ATL_REGMAP_ENTRY@2@@Z 0000000180003714 f i CoinDispenser.obj
 0001:0000271c       ?UpdateRegistryFromResource@CComModule@ATL@@UEAAJPEB_WHPEAU_ATL_REGMAP_ENTRY@2@@Z 000000018000371c f i CoinDispenser.obj
 0001:00002724       ?UpdateRegistryFromResource@CComModule@ATL@@UEAAJIHPEAU_ATL_REGMAP_ENTRY@2@@Z 0000000180003724 f i CoinDispenser.obj
 0001:0000272c       ??_GCComModule@ATL@@UEAAPEAXI@Z 000000018000372c f i CoinDispenser.obj
 0001:0000272c       ??_ECComModule@ATL@@UEAAPEAXI@Z 000000018000372c f i CoinDispenser.obj
 0001:0000276c       ?Next@?$CComEnumImpl@UIEnumConnectionPoints@@$1?_GUID_b196b285_bab4_101a_b69c_00aa00341d07@@3U__s_GUID@@BPEAUIConnectionPoint@@V?$_CopyInterface@UIConnectionPoint@@@ATL@@@ATL@@UEAAJKPEAPEAUIConnectionPoint@@PEAK@Z 000000018000376c f i CoinDispenser.obj
 0001:00002838       ?Skip@?$CComEnumImpl@UIEnumConnectionPoints@@$1?_GUID_b196b285_bab4_101a_b69c_00aa00341d07@@3U__s_GUID@@BPEAUIConnectionPoint@@V?$_CopyInterface@UIConnectionPoint@@@ATL@@@ATL@@UEAAJK@Z 0000000180003838 f i CoinDispenser.obj
 0001:00002864       ?Reset@?$CComEnumImpl@UIEnumConnections@@$1?_GUID_b196b287_bab4_101a_b69c_00aa00341d07@@3U__s_GUID@@BUtagCONNECTDATA@@V?$_Copy@UtagCONNECTDATA@@@ATL@@@ATL@@UEAAJXZ 0000000180003864 f i CoinDispenser.obj
 0001:00002864       ?Reset@?$CComEnumImpl@UIEnumConnectionPoints@@$1?_GUID_b196b285_bab4_101a_b69c_00aa00341d07@@3U__s_GUID@@BPEAUIConnectionPoint@@V?$_CopyInterface@UIConnectionPoint@@@ATL@@@ATL@@UEAAJXZ 0000000180003864 f i CoinDispenser.obj
 0001:00002870       ?Clone@?$CComEnumImpl@UIEnumConnectionPoints@@$1?_GUID_b196b285_bab4_101a_b69c_00aa00341d07@@3U__s_GUID@@BPEAUIConnectionPoint@@V?$_CopyInterface@UIConnectionPoint@@@ATL@@@ATL@@UEAAJPEAPEAUIEnumConnectionPoints@@@Z 0000000180003870 f i CoinDispenser.obj
 0001:0000299c       ?AddRef@?$CComObject@V?$CComEnum@UIEnumConnectionPoints@@$1?_GUID_b196b285_bab4_101a_b69c_00aa00341d07@@3U__s_GUID@@BPEAUIConnectionPoint@@V?$_CopyInterface@UIConnectionPoint@@@ATL@@VCComSingleThreadModel@6@@ATL@@@ATL@@UEAAKXZ 000000018000399c f i CoinDispenser.obj
 0001:0000299c       ?AddRef@?$CComObject@V?$CComEnum@UIEnumConnections@@$1?_GUID_b196b287_bab4_101a_b69c_00aa00341d07@@3U__s_GUID@@BUtagCONNECTDATA@@V?$_Copy@UtagCONNECTDATA@@@ATL@@VCComSingleThreadModel@6@@ATL@@@ATL@@UEAAKXZ 000000018000399c f i CoinDispenser.obj
 0001:000029a8       ?Release@?$CComObject@V?$CComEnum@UIEnumConnections@@$1?_GUID_b196b287_bab4_101a_b69c_00aa00341d07@@3U__s_GUID@@BUtagCONNECTDATA@@V?$_Copy@UtagCONNECTDATA@@@ATL@@VCComSingleThreadModel@6@@ATL@@@ATL@@UEAAKXZ 00000001800039a8 f i CoinDispenser.obj
 0001:000029a8       ?Release@?$CComObject@V?$CComEnum@UIEnumConnectionPoints@@$1?_GUID_b196b285_bab4_101a_b69c_00aa00341d07@@3U__s_GUID@@BPEAUIConnectionPoint@@V?$_CopyInterface@UIConnectionPoint@@@ATL@@VCComSingleThreadModel@6@@ATL@@@ATL@@UEAAKXZ 00000001800039a8 f i CoinDispenser.obj
 0001:000029fc       ?QueryInterface@?$CComObject@V?$CComEnum@UIEnumConnectionPoints@@$1?_GUID_b196b285_bab4_101a_b69c_00aa00341d07@@3U__s_GUID@@BPEAUIConnectionPoint@@V?$_CopyInterface@UIConnectionPoint@@@ATL@@VCComSingleThreadModel@6@@ATL@@@ATL@@UEAAJAEBU_GUID@@PEAPEAX@Z 00000001800039fc f i CoinDispenser.obj
 0001:00002a10       ??_G?$CComObject@V?$CComEnum@UIEnumConnectionPoints@@$1?_GUID_b196b285_bab4_101a_b69c_00aa00341d07@@3U__s_GUID@@BPEAUIConnectionPoint@@V?$_CopyInterface@UIConnectionPoint@@@ATL@@VCComSingleThreadModel@6@@ATL@@@ATL@@UEAAPEAXI@Z 0000000180003a10 f i CoinDispenser.obj
 0001:00002a10       ??_E?$CComObject@V?$CComEnum@UIEnumConnectionPoints@@$1?_GUID_b196b285_bab4_101a_b69c_00aa00341d07@@3U__s_GUID@@BPEAUIConnectionPoint@@V?$_CopyInterface@UIConnectionPoint@@@ATL@@VCComSingleThreadModel@6@@ATL@@@ATL@@UEAAPEAXI@Z 0000000180003a10 f i CoinDispenser.obj
 0001:00002a68       ?AddReplacement@CRegObject@ATL@@UEAAJPEB_W0@Z 0000000180003a68 f i CoinDispenser.obj
 0001:00002a98       ?ClearReplacements@CRegObject@ATL@@UEAAJXZ 0000000180003a98 f i CoinDispenser.obj
 0001:00002aa4       ??_GCRegObject@ATL@@UEAAPEAXI@Z 0000000180003aa4 f i CoinDispenser.obj
 0001:00002aa4       ??_ECRegObject@ATL@@UEAAPEAXI@Z 0000000180003aa4 f i CoinDispenser.obj
 0001:00002b24       ?AddRef@?$CComAggObject@VCOPOSCoinDispenser@@@ATL@@UEAAKXZ 0000000180003b24 f i CoinDispenser.obj
 0001:00002b30       ?Release@?$CComAggObject@VCOPOSCoinDispenser@@@ATL@@UEAAKXZ 0000000180003b30 f i CoinDispenser.obj
 0001:00002b84       ?QueryInterface@?$CComAggObject@VCOPOSCoinDispenser@@@ATL@@UEAAJAEBU_GUID@@PEAPEAX@Z 0000000180003b84 f i CoinDispenser.obj
 0001:00002be4       ?AddRef@?$CComContainedObject@VCOPOSCoinDispenser@@@ATL@@UEAAKXZ 0000000180003be4 f i CoinDispenser.obj
 0001:00002bf4       ?Release@?$CComContainedObject@VCOPOSCoinDispenser@@@ATL@@UEAAKXZ 0000000180003bf4 f i CoinDispenser.obj
 0001:00002c04       ?QueryInterface@?$CComContainedObject@VCOPOSCoinDispenser@@@ATL@@UEAAJAEBU_GUID@@PEAPEAX@Z 0000000180003c04 f i CoinDispenser.obj
 0001:00002c14       ??_G?$CComAggObject@VCOPOSCoinDispenser@@@ATL@@UEAAPEAXI@Z 0000000180003c14 f i CoinDispenser.obj
 0001:00002c14       ??_E?$CComAggObject@VCOPOSCoinDispenser@@@ATL@@UEAAPEAXI@Z 0000000180003c14 f i CoinDispenser.obj
 0001:00002c6c       ?AddRef@?$CComObject@VCOPOSCoinDispenser@@@ATL@@UEAAKXZ 0000000180003c6c f i CoinDispenser.obj
 0001:00002c7c       ?Release@?$CComObject@VCOPOSCoinDispenser@@@ATL@@UEAAKXZ 0000000180003c7c f i CoinDispenser.obj
 0001:00002cd4       ?QueryInterface@?$CComObject@VCOPOSCoinDispenser@@@ATL@@UEAAJAEBU_GUID@@PEAPEAX@Z 0000000180003cd4 f i CoinDispenser.obj
 0001:00002ce8       ?OnDrawAdvanced@CComControlBase@ATL@@UEAAJAEAUATL_DRAWINFO@@@Z 0000000180003ce8 f i CoinDispenser.obj
 0001:00002e74       ?Next@?$CComEnumImpl@UIEnumConnections@@$1?_GUID_b196b287_bab4_101a_b69c_00aa00341d07@@3U__s_GUID@@BUtagCONNECTDATA@@V?$_Copy@UtagCONNECTDATA@@@ATL@@@ATL@@UEAAJKPEAUtagCONNECTDATA@@PEAK@Z 0000000180003e74 f i CoinDispenser.obj
 0001:00002f48       ?Skip@?$CComEnumImpl@UIEnumConnections@@$1?_GUID_b196b287_bab4_101a_b69c_00aa00341d07@@3U__s_GUID@@BUtagCONNECTDATA@@V?$_Copy@UtagCONNECTDATA@@@ATL@@@ATL@@UEAAJK@Z 0000000180003f48 f i CoinDispenser.obj
 0001:00002f74       ?Clone@?$CComEnumImpl@UIEnumConnections@@$1?_GUID_b196b287_bab4_101a_b69c_00aa00341d07@@3U__s_GUID@@BUtagCONNECTDATA@@V?$_Copy@UtagCONNECTDATA@@@ATL@@@ATL@@UEAAJPEAPEAUIEnumConnections@@@Z 0000000180003f74 f i CoinDispenser.obj
 0001:000030a0       ?QueryInterface@?$CComObject@V?$CComEnum@UIEnumConnections@@$1?_GUID_b196b287_bab4_101a_b69c_00aa00341d07@@3U__s_GUID@@BUtagCONNECTDATA@@V?$_Copy@UtagCONNECTDATA@@@ATL@@VCComSingleThreadModel@6@@ATL@@@ATL@@UEAAJAEBU_GUID@@PEAPEAX@Z 00000001800040a0 f i CoinDispenser.obj
 0001:000030b4       ??_E?$CComObject@V?$CComEnum@UIEnumConnections@@$1?_GUID_b196b287_bab4_101a_b69c_00aa00341d07@@3U__s_GUID@@BUtagCONNECTDATA@@V?$_Copy@UtagCONNECTDATA@@@ATL@@VCComSingleThreadModel@6@@ATL@@@ATL@@UEAAPEAXI@Z 00000001800040b4 f i CoinDispenser.obj
 0001:000030b4       ??_G?$CComObject@V?$CComEnum@UIEnumConnections@@$1?_GUID_b196b287_bab4_101a_b69c_00aa00341d07@@3U__s_GUID@@BUtagCONNECTDATA@@V?$_Copy@UtagCONNECTDATA@@@ATL@@VCComSingleThreadModel@6@@ATL@@@ATL@@UEAAPEAXI@Z 00000001800040b4 f i CoinDispenser.obj
 0001:0000310c       ??_E?$CComObject@VCOPOSCoinDispenser@@@ATL@@W7EAAPEAXI@Z 000000018000410c f i CoinDispenser.obj
 0001:00003118       ??_E?$CComObject@VCOPOSCoinDispenser@@@ATL@@WHA@EAAPEAXI@Z 0000000180004118 f i CoinDispenser.obj
 0001:00003124       ?QueryInterface@?$CComObject@VCOPOSCoinDispenser@@@ATL@@WLI@EAAJAEBU_GUID@@PEAPEAX@Z 0000000180004124 f i CoinDispenser.obj
 0001:00003130       ?AddRef@?$CComObject@VCOPOSCoinDispenser@@@ATL@@WLI@EAAKXZ 0000000180004130 f i CoinDispenser.obj
 0001:0000313c       ?Release@?$CComObject@VCOPOSCoinDispenser@@@ATL@@WLI@EAAKXZ 000000018000413c f i CoinDispenser.obj
 0001:00003148       ?QueryInterface@?$CComObject@VCOPOSCoinDispenser@@@ATL@@WMA@EAAJAEBU_GUID@@PEAPEAX@Z 0000000180004148 f i CoinDispenser.obj
 0001:00003154       ?AddRef@?$CComObject@VCOPOSCoinDispenser@@@ATL@@WMA@EAAKXZ 0000000180004154 f i CoinDispenser.obj
 0001:00003160       ?Release@?$CComObject@VCOPOSCoinDispenser@@@ATL@@WMA@EAAKXZ 0000000180004160 f i CoinDispenser.obj
 0001:0000316c       ?QueryInterface@?$CComObject@VCOPOSCoinDispenser@@@ATL@@WMI@EAAJAEBU_GUID@@PEAPEAX@Z 000000018000416c f i CoinDispenser.obj
 0001:00003178       ?AddRef@?$CComObject@VCOPOSCoinDispenser@@@ATL@@WMI@EAAKXZ 0000000180004178 f i CoinDispenser.obj
 0001:00003184       ?Release@?$CComObject@VCOPOSCoinDispenser@@@ATL@@WMI@EAAKXZ 0000000180004184 f i CoinDispenser.obj
 0001:00003190       ?QueryInterface@?$CComObject@VCOPOSCoinDispenser@@@ATL@@WNA@EAAJAEBU_GUID@@PEAPEAX@Z 0000000180004190 f i CoinDispenser.obj
 0001:0000319c       ?AddRef@?$CComObject@VCOPOSCoinDispenser@@@ATL@@WNA@EAAKXZ 000000018000419c f i CoinDispenser.obj
 0001:000031a8       ?Release@?$CComObject@VCOPOSCoinDispenser@@@ATL@@WNA@EAAKXZ 00000001800041a8 f i CoinDispenser.obj
 0001:000031b4       ?QueryInterface@?$CComObject@VCOPOSCoinDispenser@@@ATL@@WNI@EAAJAEBU_GUID@@PEAPEAX@Z 00000001800041b4 f i CoinDispenser.obj
 0001:000031c0       ?AddRef@?$CComObject@VCOPOSCoinDispenser@@@ATL@@WNI@EAAKXZ 00000001800041c0 f i CoinDispenser.obj
 0001:000031cc       ?Release@?$CComObject@VCOPOSCoinDispenser@@@ATL@@WNI@EAAKXZ 00000001800041cc f i CoinDispenser.obj
 0001:000031d8       ?QueryInterface@?$CComObject@VCOPOSCoinDispenser@@@ATL@@WOA@EAAJAEBU_GUID@@PEAPEAX@Z 00000001800041d8 f i CoinDispenser.obj
 0001:000031e4       ?AddRef@?$CComObject@VCOPOSCoinDispenser@@@ATL@@WOA@EAAKXZ 00000001800041e4 f i CoinDispenser.obj
 0001:000031f0       ?Release@?$CComObject@VCOPOSCoinDispenser@@@ATL@@WOA@EAAKXZ 00000001800041f0 f i CoinDispenser.obj
 0001:000031fc       ?QueryInterface@?$CComObject@VCOPOSCoinDispenser@@@ATL@@WOI@EAAJAEBU_GUID@@PEAPEAX@Z 00000001800041fc f i CoinDispenser.obj
 0001:00003208       ?AddRef@?$CComObject@VCOPOSCoinDispenser@@@ATL@@WOI@EAAKXZ 0000000180004208 f i CoinDispenser.obj
 0001:00003214       ?Release@?$CComObject@VCOPOSCoinDispenser@@@ATL@@WOI@EAAKXZ 0000000180004214 f i CoinDispenser.obj
 0001:00003220       ?QueryInterface@?$CComObject@VCOPOSCoinDispenser@@@ATL@@WPA@EAAJAEBU_GUID@@PEAPEAX@Z 0000000180004220 f i CoinDispenser.obj
 0001:0000322c       ?AddRef@?$CComObject@VCOPOSCoinDispenser@@@ATL@@WPA@EAAKXZ 000000018000422c f i CoinDispenser.obj
 0001:00003238       ?Release@?$CComObject@VCOPOSCoinDispenser@@@ATL@@WPA@EAAKXZ 0000000180004238 f i CoinDispenser.obj
 0001:00003244       ?QueryInterface@?$CComObject@VCOPOSCoinDispenser@@@ATL@@WPI@EAAJAEBU_GUID@@PEAPEAX@Z 0000000180004244 f i CoinDispenser.obj
 0001:00003250       ?AddRef@?$CComObject@VCOPOSCoinDispenser@@@ATL@@WPI@EAAKXZ 0000000180004250 f i CoinDispenser.obj
 0001:0000325c       ?Release@?$CComObject@VCOPOSCoinDispenser@@@ATL@@WPI@EAAKXZ 000000018000425c f i CoinDispenser.obj
 0001:00003268       ?QueryInterface@?$CComObject@VCOPOSCoinDispenser@@@ATL@@WBAA@EAAJAEBU_GUID@@PEAPEAX@Z 0000000180004268 f i CoinDispenser.obj
 0001:00003274       ?AddRef@?$CComObject@VCOPOSCoinDispenser@@@ATL@@WBAA@EAAKXZ 0000000180004274 f i CoinDispenser.obj
 0001:00003280       ?Release@?$CComObject@VCOPOSCoinDispenser@@@ATL@@WBAA@EAAKXZ 0000000180004280 f i CoinDispenser.obj
 0001:0000328c       ?QueryInterface@?$CComObject@VCOPOSCoinDispenser@@@ATL@@WBAI@EAAJAEBU_GUID@@PEAPEAX@Z 000000018000428c f i CoinDispenser.obj
 0001:00003298       ?AddRef@?$CComObject@VCOPOSCoinDispenser@@@ATL@@WBAI@EAAKXZ 0000000180004298 f i CoinDispenser.obj
 0001:000032a4       ?Release@?$CComObject@VCOPOSCoinDispenser@@@ATL@@WBAI@EAAKXZ 00000001800042a4 f i CoinDispenser.obj
 0001:000032b0       ?QueryInterface@?$CComObject@VCOPOSCoinDispenser@@@ATL@@WBBA@EAAJAEBU_GUID@@PEAPEAX@Z 00000001800042b0 f i CoinDispenser.obj
 0001:000032bc       ?AddRef@?$CComObject@VCOPOSCoinDispenser@@@ATL@@WBBA@EAAKXZ 00000001800042bc f i CoinDispenser.obj
 0001:000032c8       ?Release@?$CComObject@VCOPOSCoinDispenser@@@ATL@@WBBA@EAAKXZ 00000001800042c8 f i CoinDispenser.obj
 0001:000032d4       ?QueryInterface@?$CComObject@VCOPOSCoinDispenser@@@ATL@@WBBI@EAAJAEBU_GUID@@PEAPEAX@Z 00000001800042d4 f i CoinDispenser.obj
 0001:000032e0       ?AddRef@?$CComObject@VCOPOSCoinDispenser@@@ATL@@WBBI@EAAKXZ 00000001800042e0 f i CoinDispenser.obj
 0001:000032ec       ?Release@?$CComObject@VCOPOSCoinDispenser@@@ATL@@WBBI@EAAKXZ 00000001800042ec f i CoinDispenser.obj
 0001:000032f8       ?AddRef@?$CComObject@VCOPOSCoinDispenser@@@ATL@@WBCI@EAAKXZ 00000001800042f8 f i CoinDispenser.obj
 0001:00003304       ?Release@?$CComObject@VCOPOSCoinDispenser@@@ATL@@WBCI@EAAKXZ 0000000180004304 f i CoinDispenser.obj
 0001:00003310       ?AddRef@?$CComObject@VCOPOSCoinDispenser@@@ATL@@WBEA@EAAKXZ 0000000180004310 f i CoinDispenser.obj
 0001:0000331c       ?Release@?$CComObject@VCOPOSCoinDispenser@@@ATL@@WBEA@EAAKXZ 000000018000431c f i CoinDispenser.obj
 0001:00003328       ??_E?$CComContainedObject@VCOPOSCoinDispenser@@@ATL@@W7EAAPEAXI@Z 0000000180004328 f i CoinDispenser.obj
 0001:00003334       ??_E?$CComContainedObject@VCOPOSCoinDispenser@@@ATL@@WHA@EAAPEAXI@Z 0000000180004334 f i CoinDispenser.obj
 0001:00003340       ?QueryInterface@?$CComContainedObject@VCOPOSCoinDispenser@@@ATL@@WLI@EAAJAEBU_GUID@@PEAPEAX@Z 0000000180004340 f i CoinDispenser.obj
 0001:0000334c       ?AddRef@?$CComContainedObject@VCOPOSCoinDispenser@@@ATL@@WLI@EAAKXZ 000000018000434c f i CoinDispenser.obj
 0001:00003358       ?Release@?$CComContainedObject@VCOPOSCoinDispenser@@@ATL@@WLI@EAAKXZ 0000000180004358 f i CoinDispenser.obj
 0001:00003364       ?QueryInterface@?$CComContainedObject@VCOPOSCoinDispenser@@@ATL@@WMA@EAAJAEBU_GUID@@PEAPEAX@Z 0000000180004364 f i CoinDispenser.obj
 0001:00003370       ?AddRef@?$CComContainedObject@VCOPOSCoinDispenser@@@ATL@@WMA@EAAKXZ 0000000180004370 f i CoinDispenser.obj
 0001:0000337c       ?Release@?$CComContainedObject@VCOPOSCoinDispenser@@@ATL@@WMA@EAAKXZ 000000018000437c f i CoinDispenser.obj
 0001:00003388       ?QueryInterface@?$CComContainedObject@VCOPOSCoinDispenser@@@ATL@@WMI@EAAJAEBU_GUID@@PEAPEAX@Z 0000000180004388 f i CoinDispenser.obj
 0001:00003394       ?AddRef@?$CComContainedObject@VCOPOSCoinDispenser@@@ATL@@WMI@EAAKXZ 0000000180004394 f i CoinDispenser.obj
 0001:000033a0       ?Release@?$CComContainedObject@VCOPOSCoinDispenser@@@ATL@@WMI@EAAKXZ 00000001800043a0 f i CoinDispenser.obj
 0001:000033ac       ?QueryInterface@?$CComContainedObject@VCOPOSCoinDispenser@@@ATL@@WNA@EAAJAEBU_GUID@@PEAPEAX@Z 00000001800043ac f i CoinDispenser.obj
 0001:000033b8       ?AddRef@?$CComContainedObject@VCOPOSCoinDispenser@@@ATL@@WNA@EAAKXZ 00000001800043b8 f i CoinDispenser.obj
 0001:000033c4       ?Release@?$CComContainedObject@VCOPOSCoinDispenser@@@ATL@@WNA@EAAKXZ 00000001800043c4 f i CoinDispenser.obj
 0001:000033d0       ?QueryInterface@?$CComContainedObject@VCOPOSCoinDispenser@@@ATL@@WNI@EAAJAEBU_GUID@@PEAPEAX@Z 00000001800043d0 f i CoinDispenser.obj
 0001:000033dc       ?AddRef@?$CComContainedObject@VCOPOSCoinDispenser@@@ATL@@WNI@EAAKXZ 00000001800043dc f i CoinDispenser.obj
 0001:000033e8       ?Release@?$CComContainedObject@VCOPOSCoinDispenser@@@ATL@@WNI@EAAKXZ 00000001800043e8 f i CoinDispenser.obj
 0001:000033f4       ?QueryInterface@?$CComContainedObject@VCOPOSCoinDispenser@@@ATL@@WOA@EAAJAEBU_GUID@@PEAPEAX@Z 00000001800043f4 f i CoinDispenser.obj
 0001:00003400       ?AddRef@?$CComContainedObject@VCOPOSCoinDispenser@@@ATL@@WOA@EAAKXZ 0000000180004400 f i CoinDispenser.obj
 0001:0000340c       ?Release@?$CComContainedObject@VCOPOSCoinDispenser@@@ATL@@WOA@EAAKXZ 000000018000440c f i CoinDispenser.obj
 0001:00003418       ?QueryInterface@?$CComContainedObject@VCOPOSCoinDispenser@@@ATL@@WOI@EAAJAEBU_GUID@@PEAPEAX@Z 0000000180004418 f i CoinDispenser.obj
 0001:00003424       ?AddRef@?$CComContainedObject@VCOPOSCoinDispenser@@@ATL@@WOI@EAAKXZ 0000000180004424 f i CoinDispenser.obj
 0001:00003430       ?Release@?$CComContainedObject@VCOPOSCoinDispenser@@@ATL@@WOI@EAAKXZ 0000000180004430 f i CoinDispenser.obj
 0001:0000343c       ?QueryInterface@?$CComContainedObject@VCOPOSCoinDispenser@@@ATL@@WPA@EAAJAEBU_GUID@@PEAPEAX@Z 000000018000443c f i CoinDispenser.obj
 0001:00003448       ?AddRef@?$CComContainedObject@VCOPOSCoinDispenser@@@ATL@@WPA@EAAKXZ 0000000180004448 f i CoinDispenser.obj
 0001:00003454       ?Release@?$CComContainedObject@VCOPOSCoinDispenser@@@ATL@@WPA@EAAKXZ 0000000180004454 f i CoinDispenser.obj
 0001:00003460       ?QueryInterface@?$CComContainedObject@VCOPOSCoinDispenser@@@ATL@@WPI@EAAJAEBU_GUID@@PEAPEAX@Z 0000000180004460 f i CoinDispenser.obj
 0001:0000346c       ?AddRef@?$CComContainedObject@VCOPOSCoinDispenser@@@ATL@@WPI@EAAKXZ 000000018000446c f i CoinDispenser.obj
 0001:00003478       ?Release@?$CComContainedObject@VCOPOSCoinDispenser@@@ATL@@WPI@EAAKXZ 0000000180004478 f i CoinDispenser.obj
 0001:00003484       ?QueryInterface@?$CComContainedObject@VCOPOSCoinDispenser@@@ATL@@WBAA@EAAJAEBU_GUID@@PEAPEAX@Z 0000000180004484 f i CoinDispenser.obj
 0001:00003490       ?AddRef@?$CComContainedObject@VCOPOSCoinDispenser@@@ATL@@WBAA@EAAKXZ 0000000180004490 f i CoinDispenser.obj
 0001:0000349c       ?Release@?$CComContainedObject@VCOPOSCoinDispenser@@@ATL@@WBAA@EAAKXZ 000000018000449c f i CoinDispenser.obj
 0001:000034a8       ?QueryInterface@?$CComContainedObject@VCOPOSCoinDispenser@@@ATL@@WBAI@EAAJAEBU_GUID@@PEAPEAX@Z 00000001800044a8 f i CoinDispenser.obj
 0001:000034b4       ?AddRef@?$CComContainedObject@VCOPOSCoinDispenser@@@ATL@@WBAI@EAAKXZ 00000001800044b4 f i CoinDispenser.obj
 0001:000034c0       ?Release@?$CComContainedObject@VCOPOSCoinDispenser@@@ATL@@WBAI@EAAKXZ 00000001800044c0 f i CoinDispenser.obj
 0001:000034cc       ?QueryInterface@?$CComContainedObject@VCOPOSCoinDispenser@@@ATL@@WBBA@EAAJAEBU_GUID@@PEAPEAX@Z 00000001800044cc f i CoinDispenser.obj
 0001:000034d8       ?AddRef@?$CComContainedObject@VCOPOSCoinDispenser@@@ATL@@WBBA@EAAKXZ 00000001800044d8 f i CoinDispenser.obj
 0001:000034e4       ?Release@?$CComContainedObject@VCOPOSCoinDispenser@@@ATL@@WBBA@EAAKXZ 00000001800044e4 f i CoinDispenser.obj
 0001:000034f0       ?QueryInterface@?$CComContainedObject@VCOPOSCoinDispenser@@@ATL@@WBBI@EAAJAEBU_GUID@@PEAPEAX@Z 00000001800044f0 f i CoinDispenser.obj
 0001:000034fc       ?AddRef@?$CComContainedObject@VCOPOSCoinDispenser@@@ATL@@WBBI@EAAKXZ 00000001800044fc f i CoinDispenser.obj
 0001:00003508       ?Release@?$CComContainedObject@VCOPOSCoinDispenser@@@ATL@@WBBI@EAAKXZ 0000000180004508 f i CoinDispenser.obj
 0001:00003514       ?AddRef@?$CComContainedObject@VCOPOSCoinDispenser@@@ATL@@WBCI@EAAKXZ 0000000180004514 f i CoinDispenser.obj
 0001:00003520       ?Release@?$CComContainedObject@VCOPOSCoinDispenser@@@ATL@@WBCI@EAAKXZ 0000000180004520 f i CoinDispenser.obj
 0001:0000352c       ?AddRef@?$CComContainedObject@VCOPOSCoinDispenser@@@ATL@@WBEA@EAAKXZ 000000018000452c f i CoinDispenser.obj
 0001:00003538       ?Release@?$CComContainedObject@VCOPOSCoinDispenser@@@ATL@@WBEA@EAAKXZ 0000000180004538 f i CoinDispenser.obj
 0001:00003544       ?CreateInstance@CComClassFactory@ATL@@UEAAJPEAUIUnknown@@AEBU_GUID@@PEAPEAX@Z 0000000180004544 f i CoinDispenser.obj
 0001:000035a4       ?LockServer@CComClassFactory@ATL@@UEAAJH@Z 00000001800045a4 f i CoinDispenser.obj
 0001:000035c8       ??_GCComClassFactory@ATL@@UEAAPEAXI@Z 00000001800045c8 f i CoinDispenser.obj
 0001:000035c8       ??_ECComClassFactory@ATL@@UEAAPEAXI@Z 00000001800045c8 f i CoinDispenser.obj
 0001:00003618       ??$AtlModuleRegisterWndClassInfoT@VAtlModuleRegisterWndClassInfoParamW@ATL@@@ATL@@YAGPEAU_ATL_BASE_MODULE70@0@PEAU_ATL_WIN_MODULE70@0@PEAU_ATL_WNDCLASSINFOW@0@PEAP6A_JPEAUHWND__@@I_K_J@ZVAtlModuleRegisterWndClassInfoParamW@0@@Z 0000000180004618 f i CoinDispenser.obj
 0001:00003818       ??0?$CComContainedObject@VCOPOSCoinDispenser@@@ATL@@QEAA@PEAX@Z 0000000180004818 f i CoinDispenser.obj
 0001:00003934       ??0?$CComObject@VCOPOSCoinDispenser@@@ATL@@QEAA@PEAX@Z 0000000180004934 f i CoinDispenser.obj
 0001:00003a4c       ??0CAtlModule@ATL@@QEAA@XZ 0000000180004a4c f i CoinDispenser.obj
 0001:00003ac0       ??1?$CComEnumImpl@UIEnumConnectionPoints@@$1?_GUID_b196b285_bab4_101a_b69c_00aa00341d07@@3U__s_GUID@@BPEAUIConnectionPoint@@V?$_CopyInterface@UIConnectionPoint@@@ATL@@@ATL@@UEAA@XZ 0000000180004ac0 f i CoinDispenser.obj
 0001:00003b1c       ??1?$CComEnumImpl@UIEnumConnections@@$1?_GUID_b196b287_bab4_101a_b69c_00aa00341d07@@3U__s_GUID@@BUtagCONNECTDATA@@V?$_Copy@UtagCONNECTDATA@@@ATL@@@ATL@@UEAA@XZ 0000000180004b1c f i CoinDispenser.obj
 0001:00003b78       ??1?$CComObject@VCOPOSCoinDispenser@@@ATL@@UEAA@XZ 0000000180004b78 f i CoinDispenser.obj
 0001:00003c98       ??_E?$CComContainedObject@VCOPOSCoinDispenser@@@ATL@@UEAAPEAXI@Z 0000000180004c98 f i CoinDispenser.obj
 0001:00003c98       ??_G?$CComContainedObject@VCOPOSCoinDispenser@@@ATL@@UEAAPEAXI@Z 0000000180004c98 f i CoinDispenser.obj
 0001:00003ccc       ??_E?$CComObject@VCOPOSCoinDispenser@@@ATL@@UEAAPEAXI@Z 0000000180004ccc f i CoinDispenser.obj
 0001:00003ccc       ??_G?$CComObject@VCOPOSCoinDispenser@@@ATL@@UEAAPEAXI@Z 0000000180004ccc f i CoinDispenser.obj
 0001:00003d00       ?Add@?$CSimpleArray@GV?$CSimpleArrayEqualHelper@G@ATL@@@ATL@@QEAAHAEBG@Z 0000000180004d00 f i CoinDispenser.obj
 0001:00003db4       ?Add@?$CSimpleMap@PEA_WPEA_WVCExpansionVectorEqualHelper@ATL@@@ATL@@QEAAHAEBQEA_W0@Z 0000000180004db4 f i CoinDispenser.obj
 0001:00003e54       ?Add@CComDynamicUnkArray@ATL@@QEAAKPEAUIUnknown@@@Z 0000000180004e54 f i CoinDispenser.obj
 0001:00003f40       ?Add@CExpansionVector@ATL@@QEAAHPEB_W0@Z 0000000180004f40 f i CoinDispenser.obj
 0001:00004074       ?AddTermFunc@CAtlModule@ATL@@QEAAJP6AX_K@Z0@Z 0000000180005074 f i CoinDispenser.obj
 0001:00004110       ?AddValue@CRegParser@ATL@@IEAAJAEAVCRegKey@2@PEB_WPEA_W@Z 0000000180005110 f i CoinDispenser.obj
 0001:00004558       ?AllocateHeap@?$CTempBuffer@_W$0EAA@VCCRTAllocator@ATL@@@ATL@@AEAAX_K@Z 0000000180005558 f i CoinDispenser.obj
 0001:00004558       ?AllocateHeap@?$CTempBuffer@_W$0BAA@VCCRTAllocator@ATL@@@ATL@@AEAAX_K@Z 0000000180005558 f i CoinDispenser.obj
 0001:00004558       ?AllocateHeap@?$CTempBuffer@E$0BAA@VCCRTAllocator@ATL@@@ATL@@AEAAX_K@Z 0000000180005558 f i CoinDispenser.obj
 0001:00004584       ?Append@CParseBuffer@CRegParser@ATL@@QEAAHPEB_WH@Z 0000000180005584 f i CoinDispenser.obj
 0001:000046cc       ?AtlComModuleGetClassObject@ATL@@YAJPEAU_ATL_COM_MODULE70@1@AEBU_GUID@@1PEAPEAX@Z 00000001800056cc f i CoinDispenser.obj
 0001:0000480c       ?AtlComModuleRegisterServer@ATL@@YAJPEAU_ATL_COM_MODULE70@1@HPEBU_GUID@@@Z 000000018000580c f i CoinDispenser.obj
 0001:000048cc       ?AtlComModuleUnregisterServer@ATL@@YAJPEAU_ATL_COM_MODULE70@1@HPEBU_GUID@@@Z 00000001800058cc f i CoinDispenser.obj
 0001:00004988       ?AtlHiMetricToPixel@ATL@@YAXPEBUtagSIZE@@PEAU2@@Z 0000000180005988 f i CoinDispenser.obj
 0001:00004a38       ?AtlHresultFromLastError@ATL@@YAJXZ 0000000180005a38 f i CoinDispenser.obj
 0001:00004a58       ?AtlHresultFromWin32@ATL@@YAJK@Z 0000000180005a58 f i CoinDispenser.obj
 0001:00004a68       ?AtlInternalOleLoadFromStream@ATL@@YAJPEAUIStream@@AEBU_GUID@@PEAPEAXTClassesAllowedInStream@1@K@Z 0000000180005a68 f i CoinDispenser.obj
 0001:00004bac       ?AtlInternalQueryInterface@ATL@@YAJPEAXPEBU_ATL_INTMAP_ENTRY@1@AEBU_GUID@@PEAPEAX@Z 0000000180005bac f i CoinDispenser.obj
 0001:00004cb4       ?AtlLoadTypeLib@ATL@@YAJPEAUHINSTANCE__@@PEB_WPEAPEA_WPEAPEAUITypeLib@@@Z 0000000180005cb4 f i CoinDispenser.obj
 0001:00004f10       ?AtlRegisterClassCategoriesHelper@ATL@@YAJAEBU_GUID@@PEBU_ATL_CATMAP_ENTRY@1@H@Z 0000000180005f10 f i CoinDispenser.obj
 0001:00005394       ?AtlRegisterTypeLib@ATL@@YAJPEAUHINSTANCE__@@PEB_W@Z 0000000180006394 f i CoinDispenser.obj
 0001:00005590       ?AtlThrowImpl@ATL@@YAXJ@Z  0000000180006590 f i CoinDispenser.obj
 0001:000055b4       ?AtlUnRegisterTypeLib@ATL@@YAJPEAUHINSTANCE__@@PEB_W@Z 00000001800065b4 f i CoinDispenser.obj
 0001:0000567c       ?AtlWinModuleExtractCreateWndData@ATL@@YAPEAXPEAU_ATL_WIN_MODULE70@1@@Z 000000018000667c f i CoinDispenser.obj
 0001:00005708       ?Cleanup@CComTypeInfoHolder@ATL@@SAX_K@Z 0000000180006708 f i CoinDispenser.obj
 0001:00005748       ?ClearReplacements@CExpansionVector@ATL@@QEAAJXZ 0000000180006748 f i CoinDispenser.obj
 0001:000057e4       ?CreateInstance@?$CComCreator@V?$CComAggObject@VCOPOSCoinDispenser@@@ATL@@@ATL@@SAJPEAXAEBU_GUID@@PEAPEAX@Z 00000001800067e4 f i CoinDispenser.obj
 0001:000058c8       ?CreateInstance@?$CComCreator@V?$CComObject@VCOPOSCoinDispenser@@@ATL@@@ATL@@SAJPEAXAEBU_GUID@@PEAPEAX@Z 00000001800068c8 f i CoinDispenser.obj
 0001:0000597c       ?CreateInstance@?$CComObject@V?$CComEnum@UIEnumConnectionPoints@@$1?_GUID_b196b285_bab4_101a_b69c_00aa00341d07@@3U__s_GUID@@BPEAUIConnectionPoint@@V?$_CopyInterface@UIConnectionPoint@@@ATL@@VCComSingleThreadModel@6@@ATL@@@ATL@@SAJPEAPEAV12@@Z 000000018000697c f i CoinDispenser.obj
 0001:00005a0c       ?CreateInstance@?$CComObject@V?$CComEnum@UIEnumConnections@@$1?_GUID_b196b287_bab4_101a_b69c_00aa00341d07@@3U__s_GUID@@BUtagCONNECTDATA@@V?$_Copy@UtagCONNECTDATA@@@ATL@@VCComSingleThreadModel@6@@ATL@@@ATL@@SAJPEAPEAV12@@Z 0000000180006a0c f i CoinDispenser.obj
 0001:00005a9c       ?DefaultReflectionHandler@?$CWindowImplRoot@VCWindow@ATL@@@ATL@@SAHPEAUHWND__@@I_K_JAEA_J@Z 0000000180006a9c f i CoinDispenser.obj
 0001:00005b00       ?DeleteSubKey@CRegKey@ATL@@QEAAJPEB_W@Z 0000000180006b00 f i CoinDispenser.obj
 0001:00005b98       ?DoEvent@COPOSCoinDispenser@@IEAAXI_K_J@Z 0000000180006b98 f i CoinDispenser.obj
 0001:00005c4c       ?DoVerbPrimary@?$IOleObjectImpl@VCOPOSCoinDispenser@@@ATL@@QEAAJPEBUtagRECT@@PEAUHWND__@@@Z 0000000180006c4c f i CoinDispenser.obj
 0001:00005d78       ?DoVerbProperties@CComControlBase@ATL@@QEAAJPEBUtagRECT@@PEAUHWND__@@@Z 0000000180006d78 f i CoinDispenser.obj
 0001:00005fa0       ?FireTheEvent@?$CProxy_IOPOSEvents@VCOPOSCoinDispenser@@@@IEAAXPEAVOposVariant@@IAEAJPEB_WJ@Z 0000000180006fa0 f i CoinDispenser.obj
 0001:0000608c       ?FireViewChange@CComControlBase@ATL@@QEAAJXZ 000000018000708c f i CoinDispenser.obj
 0001:000060f0       ?Fire_DirectIOEvent@?$CProxy_IOPOSEvents@VCOPOSCoinDispenser@@@@QEAAXJPEAJPEAPEA_W@Z 00000001800070f0 f i CoinDispenser.obj
 0001:00006250       ?Fire_StatusUpdateEvent@?$CProxy_IOPOSEvents@VCOPOSCoinDispenser@@@@QEAAXJ@Z 0000000180007250 f i CoinDispenser.obj
 0001:0000633c       ?FreeHeap@?$CTempBuffer@_W$0EAA@VCCRTAllocator@ATL@@@ATL@@AEAAXXZ 000000018000733c f i CoinDispenser.obj
 0001:0000633c       ?FreeHeap@?$CTempBuffer@_W$0BAA@VCCRTAllocator@ATL@@@ATL@@AEAAXXZ 000000018000733c f i CoinDispenser.obj
 0001:0000633c       ?FreeHeap@?$CTempBuffer@E$0BAA@VCCRTAllocator@ATL@@@ATL@@AEAAXXZ 000000018000733c f i CoinDispenser.obj
 0001:00006344       ?GetAmbientLocaleID@CComControlBase@ATL@@QEAAJAEAK@Z 0000000180007344 f i CoinDispenser.obj
 0001:00006404       ?GetAmbientUserMode@CComControlBase@ATL@@QEAAJAEAH@Z 0000000180007404 f i CoinDispenser.obj
 0001:000064d4       ?GetClassObject@CComModule@ATL@@QEAAJAEBU_GUID@@0PEAPEAX@Z 00000001800074d4 f i CoinDispenser.obj
 0001:000065c8       ?GetConnMap@COPOSCoinDispenser@@SAPEBU_ATL_CONNMAP_ENTRY@ATL@@PEAH@Z 00000001800075c8 f i CoinDispenser.obj
 0001:00006650       ?GetIDsOfNames@CComTypeInfoHolder@ATL@@QEAAJAEBU_GUID@@PEAPEA_WIKPEAJ@Z 0000000180007650 f i CoinDispenser.obj
 0001:000067c8       ?GetPagesHelper@?$ISpecifyPropertyPagesImpl@VCOPOSCoinDispenser@@@ATL@@IEAAJPEAUtagCAUUID@@PEBUATL_PROPMAP_ENTRY@2@@Z 00000001800077c8 f i CoinDispenser.obj
 0001:00006968       ?GetSizeMax@CComVariant@ATL@@QEBAJPEAT_ULARGE_INTEGER@@@Z 0000000180007968 f i CoinDispenser.obj
 0001:00006b98       ?GetTI@CComTypeInfoHolder@ATL@@QEAAJK@Z 0000000180007b98 f i CoinDispenser.obj
 0001:00006e80       ?GetZoomInfo@CComControlBase@ATL@@QEAAXAEAUATL_DRAWINFO@@@Z 0000000180007e80 f i CoinDispenser.obj
 0001:00006f24       ?HKeyFromString@CRegParser@ATL@@KAPEAUHKEY__@@PEA_W@Z 0000000180007f24 f i CoinDispenser.obj
 0001:00006f88       ?IDataObject_GetData@CComControlBase@ATL@@QEAAJPEAUtagFORMATETC@@PEAUtagSTGMEDIUM@@@Z 0000000180007f88 f i CoinDispenser.obj
 0001:0000717c       ?IOleInPlaceObject_InPlaceDeactivate@CComControlBase@ATL@@QEAAJXZ 000000018000817c f i CoinDispenser.obj
 0001:0000721c       ?IOleInPlaceObject_SetObjectRects@CComControlBase@ATL@@QEAAJPEBUtagRECT@@0@Z 000000018000821c f i CoinDispenser.obj
 0001:0000730c       ?IOleInPlaceObject_UIDeactivate@CComControlBase@ATL@@QEAAJXZ 000000018000830c f i CoinDispenser.obj
 0001:00007418       ?IOleObject_Close@CComControlBase@ATL@@QEAAJK@Z 0000000180008418 f i CoinDispenser.obj
 0001:00007530       ?IOleObject_SetClientSite@CComControlBase@ATL@@QEAAJPEAUIOleClientSite@@@Z 0000000180008530 f i CoinDispenser.obj
 0001:000075a8       ?IOleObject_SetExtent@CComControlBase@ATL@@QEAAJKPEAUtagSIZE@@@Z 00000001800085a8 f i CoinDispenser.obj
 0001:00007640       ?IPSI_GetIPersistStreamInit@?$IPersistStorageImpl@VCOPOSCoinDispenser@@@ATL@@AEAAPEAUIPersistStreamInit@@XZ 0000000180008640 f i CoinDispenser.obj
 0001:00007728       ?IPersistStreamInit_Load@?$IPersistStreamInitImpl@VCOPOSCoinDispenser@@@ATL@@QEAAJPEAUIStream@@PEBUATL_PROPMAP_ENTRY@2@@Z 0000000180008728 f i CoinDispenser.obj
 0001:00007a54       ?IPersistStreamInit_Save@?$IPersistStreamInitImpl@VCOPOSCoinDispenser@@@ATL@@QEAAJPEAUIStream@@HPEBUATL_PROPMAP_ENTRY@2@@Z 0000000180008a54 f i CoinDispenser.obj
 0001:00007cf4       ?IQuickActivate_QuickActivate@CComControlBase@ATL@@QEAAJPEAUtagQACONTAINER@@PEAUtagQACONTROL@@@Z 0000000180008cf4 f i CoinDispenser.obj
 0001:00007fb8       ?IViewObject_Draw@CComControlBase@ATL@@QEAAJKJPEAXPEAUtagDVTARGETDEVICE@@PEAUHDC__@@2PEBU_RECTL@@3@Z 0000000180008fb8 f i CoinDispenser.obj
 0001:000080cc       ?InPlaceActivate@CComControlBase@ATL@@QEAAJJPEBUtagRECT@@@Z 00000001800090cc f i CoinDispenser.obj
 0001:00008400       ?Init@?$CComEnumImpl@UIEnumConnectionPoints@@$1?_GUID_b196b285_bab4_101a_b69c_00aa00341d07@@3U__s_GUID@@BPEAUIConnectionPoint@@V?$_CopyInterface@UIConnectionPoint@@@ATL@@@ATL@@QEAAJPEAPEAUIConnectionPoint@@0PEAUIUnknown@@W4CComEnumFlags@2@@Z 0000000180009400 f i CoinDispenser.obj
 0001:00008520       ?Init@?$CComEnumImpl@UIEnumConnections@@$1?_GUID_b196b287_bab4_101a_b69c_00aa00341d07@@3U__s_GUID@@BUtagCONNECTDATA@@V?$_Copy@UtagCONNECTDATA@@@ATL@@@ATL@@QEAAJPEAUtagCONNECTDATA@@0PEAUIUnknown@@W4CComEnumFlags@2@@Z 0000000180009520 f i CoinDispenser.obj
 0001:00008644       ?IsEqualObject@?$CComPtrBase@UIOleClientSite@@@ATL@@QEAA_NPEAUIUnknown@@@Z 0000000180009644 f i CoinDispenser.obj
 0001:000086d0       ?LoadNameCache@CComTypeInfoHolder@ATL@@QEAAJPEAUITypeInfo@@@Z 00000001800096d0 f i CoinDispenser.obj
 0001:00008850       ?Lookup@?$CSimpleMap@PEA_WPEA_WVCExpansionVectorEqualHelper@ATL@@@ATL@@QEBAPEA_WAEBQEA_W@Z 0000000180009850 f i CoinDispenser.obj
 0001:000088d8       ?NextToken@CRegParser@ATL@@IEAAJPEA_W@Z 00000001800098d8 f i CoinDispenser.obj
 0001:00008a90       ?OnKillFocus@CComControlBase@ATL@@QEAA_JI_K_JAEAH@Z 0000000180009a90 f i CoinDispenser.obj
 0001:00008b2c       ?OnMouseActivate@CComControlBase@ATL@@QEAA_JI_K_JAEAH@Z 0000000180009b2c f i CoinDispenser.obj
 0001:00008bcc       ?OnPaint@CComControlBase@ATL@@QEAA_JI_K_JAEAH@Z 0000000180009bcc f i CoinDispenser.obj
 0001:00008cb8       ?OnSetFocus@CComControlBase@ATL@@QEAA_JI_K_JAEAH@Z 0000000180009cb8 f i CoinDispenser.obj
 0001:00008db4       ?PreProcessBuffer@CRegParser@ATL@@QEAAJPEA_WPEAPEA_W@Z 0000000180009db4 f i CoinDispenser.obj
 0001:00009140       ?ProcessWindowMessage@?$CComControl@VCOPOSCoinDispenser@@V?$CWindowImpl@VCOPOSCoinDispenser@@VCWindow@ATL@@V?$CWinTraits@$0FGAAAAAA@$0A@@3@@ATL@@@ATL@@UEAAHPEAUHWND__@@I_K_JAEA_JK@Z 000000018000a140 f i CoinDispenser.obj
 0001:00009224       ?ReadFromStream@CComBSTR@ATL@@QEAAJPEAUIStream@@@Z 000000018000a224 f i CoinDispenser.obj
 0001:00009374       ?ReadFromStream@CComVariant@ATL@@QEAAJPEAUIStream@@GTClassesAllowedInStream@2@K@Z 000000018000a374 f i CoinDispenser.obj
 0001:00009598       ?RecurseDeleteKey@CRegKey@ATL@@QEAAJPEB_W@Z 000000018000a598 f i CoinDispenser.obj
 0001:000096f0       ?RegCreateKeyExW@CAtlTransactionManager@ATL@@QEAAJPEAUHKEY__@@PEB_WKPEA_WKKQEAU_SECURITY_ATTRIBUTES@@PEAPEAU3@PEAK@Z 000000018000a6f0 f i CoinDispenser.obj
 0001:00009824       ?RegDeleteKeyW@CAtlTransactionManager@ATL@@QEAAJPEAUHKEY__@@PEB_W@Z 000000018000a824 f i CoinDispenser.obj
 0001:000098b0       ?RegOpenKeyExW@CAtlTransactionManager@ATL@@QEAAJPEAUHKEY__@@PEB_WKKPEAPEAU3@@Z 000000018000a8b0 f i CoinDispenser.obj
 0001:00009968       ?RegisterBuffer@CRegParser@ATL@@QEAAJPEA_WH@Z 000000018000a968 f i CoinDispenser.obj
 0001:00009ad0       ?RegisterFromResource@CRegObject@ATL@@IEAAJPEB_W00H@Z 000000018000aad0 f i CoinDispenser.obj
 0001:00009c8c       ?RegisterServer@CComModule@ATL@@QEAAJHPEBU_GUID@@@Z 000000018000ac8c f i CoinDispenser.obj
 0001:00009d4c       ?RegisterSubkeys@CRegParser@ATL@@IEAAJPEA_WPEAUHKEY__@@HH@Z 000000018000ad4c f i CoinDispenser.obj
 0001:0000a5b8       ?SendOnDataChange@CComControlBase@ATL@@QEAAJK@Z 000000018000b5b8 f i CoinDispenser.obj
 0001:0000a628       ?SetControlFocus@CComControlBase@ATL@@QEAAHH@Z 000000018000b628 f i CoinDispenser.obj
 0001:0000a704       ?SkipAssignment@CRegParser@ATL@@IEAAJPEA_W@Z 000000018000b704 f i CoinDispenser.obj
 0001:0000a7a8       ?Term@CAtlModule@ATL@@QEAAXXZ 000000018000b7a8 f i CoinDispenser.obj
 0001:0000a828       ?Term@CComModule@ATL@@QEAAXXZ 000000018000b828 f i CoinDispenser.obj
 0001:0000a8a4       ?UnregisterServer@CComModule@ATL@@QEAAJHPEBU_GUID@@@Z 000000018000b8a4 f i CoinDispenser.obj
 0001:0000a954       ?UpdateRegistryFromResource@CAtlModule@ATL@@QEAAJIHPEAU_ATL_REGMAP_ENTRY@2@@Z 000000018000b954 f i CoinDispenser.obj
 0001:0000ac60       ?UpdateRegistryFromResource@CAtlModule@ATL@@QEAAJPEB_WHPEAU_ATL_REGMAP_ENTRY@2@@Z 000000018000bc60 f i CoinDispenser.obj
 0001:0000af84       ?VTFromRegType@CRegParser@ATL@@KAHPEB_WAEAG@Z 000000018000bf84 f i CoinDispenser.obj
 0001:0000b020       ?WindowProc@?$CWindowImplBaseT@VCWindow@ATL@@V?$CWinTraits@$0FGAAAAAA@$0A@@2@@ATL@@SA_JPEAUHWND__@@I_K_J@Z 000000018000c020 f i CoinDispenser.obj
 0001:0000b18c       ?WriteToStream@CComVariant@ATL@@QEAAJPEAUIStream@@@Z 000000018000c18c f i CoinDispenser.obj
 0001:0000b408       ?WriteToStream@CComVariant@ATL@@QEAAJPEAUIStream@@G@Z 000000018000c408 f i CoinDispenser.obj
 0001:0000b4a0       ?_AtlVerifyStackAvailable@_ATL_SAFE_ALLOCA_IMPL@ATL@@YA_N_K@Z 000000018000c4a0 f i CoinDispenser.obj
 0001:0000b524       ?atlCreate@?$CWindowImpl@VCOPOSCoinDispenser@@VCWindow@ATL@@V?$CWinTraits@$0FGAAAAAA@$0A@@3@@ATL@@QEAAPEAUHWND__@@PEAU3@V_U_RECT@2@PEB_WKKV_U_MENUorID@2@PEAX@Z 000000018000c524 f i CoinDispenser.obj
 0001:0000b5d8       ?atlCreate@?$CWindowImplBaseT@VCWindow@ATL@@V?$CWinTraits@$0FGAAAAAA@$0A@@2@@ATL@@QEAAPEAUHWND__@@PEAU3@V_U_RECT@2@PEB_WKKV_U_MENUorID@2@GPEAX@Z 000000018000c5d8 f i CoinDispenser.obj
 0001:0000b748       ?ocscpy_s@@YA_NPEA_W_KPEB_W@Z 000000018000c748 f i CoinDispenser.obj
 0001:0000b7f8       DllCanUnloadNow            000000018000c7f8 f   CoinDispenser.obj
 0001:0000b804       DllGetClassObject          000000018000c804 f   CoinDispenser.obj
 0001:0000b81c       DllMain                    000000018000c81c f   CoinDispenser.obj
 0001:0000b8c4       DllRegisterServer          000000018000c8c4 f   CoinDispenser.obj
 0001:0000b8d8       DllUnregisterServer        000000018000c8d8 f   CoinDispenser.obj
 0001:0000b8ec       __local_stdio_printf_options 000000018000c8ec f i CoinDispenser.obj
 0001:0000b8f4       swprintf_s                 000000018000c8f4 f i CoinDispenser.obj
 0001:0000b948       ??0COPOSCoinDispenser@@QEAA@XZ 000000018000c948 f   CoinDispenserImpl.obj
 0001:0000ba04       ??1?$IConnectionPointImpl@VCOPOSCoinDispenser@@$1?DIID__IOPOSCoinDispenserEvents@@3U_GUID@@BVCComDynamicUnkArray@ATL@@@ATL@@QEAA@XZ 000000018000ca04 f i CoinDispenserImpl.obj
 0001:0000ba04       ??1?$IConnectionPointImpl@VCOPOSCoinDispenser@@$1?IID_IPropertyNotifySink@@3U_GUID@@BVCComDynamicUnkArray@ATL@@@ATL@@QEAA@XZ 000000018000ca04 f i CoinDispenserImpl.obj
 0001:0000ba60       ??1CComControlBase@ATL@@UEAA@XZ 000000018000ca60 f i CoinDispenserImpl.obj
 0001:0000badc       ??1COPOSCoinDispenser@@UEAA@XZ 000000018000cadc f   CoinDispenserImpl.obj
 0001:0000bb40       ?AdjustCashCounts@COPOSCoinDispenser@@UEAAJPEA_WPEAJ@Z 000000018000cb40 f   CoinDispenserImpl.obj
 0001:0000bbc8       ?CheckHealth@COPOSCoinDispenser@@UEAAJJPEAJ@Z 000000018000cbc8 f   CoinDispenserImpl.obj
 0001:0000bc44       ?ClaimDevice@COPOSCoinDispenser@@UEAAJJPEAJ@Z 000000018000cc44 f   CoinDispenserImpl.obj
 0001:0000bce4       ?Close@COPOSCoinDispenser@@UEAAJPEAJ@Z 000000018000cce4 f   CoinDispenserImpl.obj
 0001:0000bd9c       ?CompareFirmwareVersion@COPOSCoinDispenser@@UEAAJPEA_WPEAJ1@Z 000000018000cd9c f   CoinDispenserImpl.obj
 0001:0000be78       ?DirectIO@COPOSCoinDispenser@@UEAAJJPEAJPEAPEA_W0@Z 000000018000ce78 f   CoinDispenserImpl.obj
 0001:0000bf74       ?DispenseChange@COPOSCoinDispenser@@UEAAJJPEAJ@Z 000000018000cf74 f   CoinDispenserImpl.obj
 0001:0000bff0       ?DoInvoke@COPOSCoinDispenser@@IEAAJJPEAVOposVariant@@IHPEAJ_N@Z 000000018000cff0 f   CoinDispenserImpl.obj
 0001:0000c124       ?EventInit@COPOSCoinDispenser@@IEAAJXZ 000000018000d124 f i CoinDispenserImpl.obj
 0001:0000c26c       ?EventUninit@COPOSCoinDispenser@@IEAAXXZ 000000018000d26c f i CoinDispenserImpl.obj
 0001:0000c2d0       ?EventWindowProc@COPOSCoinDispenser@@IEAA_JI_K_J@Z 000000018000d2d0 f i CoinDispenserImpl.obj
 0001:0000c394       ?FinalConstruct@COPOSCoinDispenser@@QEAAJXZ 000000018000d394 f   CoinDispenserImpl.obj
 0001:0000c3d0       ?FreezeEvents@COPOSCoinDispenser@@MEAAJH@Z 000000018000d3d0 f   CoinDispenserImpl.obj
 0001:0000c444       ?GetOposProp@COPOSCoinDispenser@@IEAAJJPEAJJ@Z 000000018000d444 f   CoinDispenserImpl.obj
 0001:0000c560       ?GetOposProp@COPOSCoinDispenser@@IEAAJJPEAPEA_WJ@Z 000000018000d560 f   CoinDispenserImpl.obj
 0001:0000c68c       ?OnDraw@COPOSCoinDispenser@@MEAAJAEAUATL_DRAWINFO@@@Z 000000018000d68c f   CoinDispenserImpl.obj
 0001:0000c778       ?Open@COPOSCoinDispenser@@UEAAJPEA_WPEAJ@Z 000000018000d778 f   CoinDispenserImpl.obj
 0001:0000d000       ?ReadCashCounts@COPOSCoinDispenser@@UEAAJPEAPEA_WPEAFPEAJ@Z 000000018000e000 f   CoinDispenserImpl.obj
 0001:0000d0dc       ?ReleaseDevice@COPOSCoinDispenser@@UEAAJPEAJ@Z 000000018000e0dc f   CoinDispenserImpl.obj
 0001:0000d148       ?ResetStatistics@COPOSCoinDispenser@@UEAAJPEA_WPEAJ@Z 000000018000e148 f   CoinDispenserImpl.obj
 0001:0000d1d0       ?RetrieveStatistics@COPOSCoinDispenser@@UEAAJPEAPEA_WPEAJ@Z 000000018000e1d0 f   CoinDispenserImpl.obj
 0001:0000d258       ?SOProcessID@COPOSCoinDispenser@@UEAAJPEAJ@Z 000000018000e258 f   CoinDispenserImpl.obj
 0001:0000d274       ?SetCOFreezeEvents@COPOSCoinDispenser@@IEAAXF@Z 000000018000e274 f   CoinDispenserImpl.obj
 0001:0000d358       ?SetOposProp@COPOSCoinDispenser@@IEAAJJJJ@Z 000000018000e358 f   CoinDispenserImpl.obj
 0001:0000d4b8       ?UpdateFirmware@COPOSCoinDispenser@@UEAAJPEA_WPEAJ@Z 000000018000e4b8 f   CoinDispenserImpl.obj
 0001:0000d540       ?UpdateStatistics@COPOSCoinDispenser@@UEAAJPEA_WPEAJ@Z 000000018000e540 f   CoinDispenserImpl.obj
 0001:0000d5c8       ?get_BinaryConversion@COPOSCoinDispenser@@UEAAJPEAJ@Z 000000018000e5c8 f   CoinDispenserImpl.obj
 0001:0000d5dc       ?get_CapCompareFirmwareVersion@COPOSCoinDispenser@@UEAAJPEAF@Z 000000018000e5dc f   CoinDispenserImpl.obj
 0001:0000d610       ?get_CapEmptySensor@COPOSCoinDispenser@@UEAAJPEAF@Z 000000018000e610 f   CoinDispenserImpl.obj
 0001:0000d640       ?get_CapJamSensor@COPOSCoinDispenser@@UEAAJPEAF@Z 000000018000e640 f   CoinDispenserImpl.obj
 0001:0000d670       ?get_CapNearEmptySensor@COPOSCoinDispenser@@UEAAJPEAF@Z 000000018000e670 f   CoinDispenserImpl.obj
 0001:0000d6a0       ?get_CapPowerReporting@COPOSCoinDispenser@@UEAAJPEAJ@Z 000000018000e6a0 f   CoinDispenserImpl.obj
 0001:0000d6b4       ?get_CapStatisticsReporting@COPOSCoinDispenser@@UEAAJPEAF@Z 000000018000e6b4 f   CoinDispenserImpl.obj
 0001:0000d6e8       ?get_CapUpdateFirmware@COPOSCoinDispenser@@UEAAJPEAF@Z 000000018000e6e8 f   CoinDispenserImpl.obj
 0001:0000d71c       ?get_CapUpdateStatistics@COPOSCoinDispenser@@UEAAJPEAF@Z 000000018000e71c f   CoinDispenserImpl.obj
 0001:0000d750       ?get_CheckHealthText@COPOSCoinDispenser@@UEAAJPEAPEA_W@Z 000000018000e750 f   CoinDispenserImpl.obj
 0001:0000d760       ?get_Claimed@COPOSCoinDispenser@@UEAAJPEAF@Z 000000018000e760 f   CoinDispenserImpl.obj
 0001:0000d790       ?get_ControlObjectDescription@COPOSCoinDispenser@@UEAAJPEAPEA_W@Z 000000018000e790 f   CoinDispenserImpl.obj
 0001:0000d7f4       ?get_ControlObjectVersion@COPOSCoinDispenser@@UEAAJPEAJ@Z 000000018000e7f4 f   CoinDispenserImpl.obj
 0001:0000d800       ?get_DeviceDescription@COPOSCoinDispenser@@UEAAJPEAPEA_W@Z 000000018000e800 f   CoinDispenserImpl.obj
 0001:0000d810       ?get_DeviceEnabled@COPOSCoinDispenser@@UEAAJPEAF@Z 000000018000e810 f   CoinDispenserImpl.obj
 0001:0000d840       ?get_DeviceName@COPOSCoinDispenser@@UEAAJPEAPEA_W@Z 000000018000e840 f   CoinDispenserImpl.obj
 0001:0000d850       ?get_DispenserStatus@COPOSCoinDispenser@@UEAAJPEAJ@Z 000000018000e850 f   CoinDispenserImpl.obj
 0001:0000d860       ?get_FreezeEvents@COPOSCoinDispenser@@UEAAJPEAF@Z 000000018000e860 f   CoinDispenserImpl.obj
 0001:0000d890       ?get_OpenResult@COPOSCoinDispenser@@UEAAJPEAJ@Z 000000018000e890 f   CoinDispenserImpl.obj
 0001:0000d89c       ?get_PowerNotify@COPOSCoinDispenser@@UEAAJPEAJ@Z 000000018000e89c f   CoinDispenserImpl.obj
 0001:0000d8b0       ?get_PowerState@COPOSCoinDispenser@@UEAAJPEAJ@Z 000000018000e8b0 f   CoinDispenserImpl.obj
 0001:0000d8c4       ?get_ResultCode@COPOSCoinDispenser@@UEAAJPEAJ@Z 000000018000e8c4 f   CoinDispenserImpl.obj
 0001:0000d900       ?get_ResultCodeExtended@COPOSCoinDispenser@@UEAAJPEAJ@Z 000000018000e900 f   CoinDispenserImpl.obj
 0001:0000d910       ?get_ServiceObjectDescription@COPOSCoinDispenser@@UEAAJPEAPEA_W@Z 000000018000e910 f   CoinDispenserImpl.obj
 0001:0000d920       ?get_ServiceObjectVersion@COPOSCoinDispenser@@UEAAJPEAJ@Z 000000018000e920 f   CoinDispenserImpl.obj
 0001:0000d930       ?get_State@COPOSCoinDispenser@@UEAAJPEAJ@Z 000000018000e930 f   CoinDispenserImpl.obj
 0001:0000d95c       ?put_BinaryConversion@COPOSCoinDispenser@@UEAAJJ@Z 000000018000e95c f   CoinDispenserImpl.obj
 0001:0000d970       ?put_DeviceEnabled@COPOSCoinDispenser@@UEAAJF@Z 000000018000e970 f   CoinDispenserImpl.obj
 0001:0000d988       ?put_FreezeEvents@COPOSCoinDispenser@@UEAAJF@Z 000000018000e988 f   CoinDispenserImpl.obj
 0001:0000d9d8       ?put_PowerNotify@COPOSCoinDispenser@@UEAAJJ@Z 000000018000e9d8 f   CoinDispenserImpl.obj
 0001:0000d9ec       ?s_EventWindowProc@COPOSCoinDispenser@@KA_JPEAUHWND__@@I_K_J@Z 000000018000e9ec f i CoinDispenserImpl.obj
 0001:0000da68       ??_U@YAPEAX_K@Z            000000018000ea68 f   LIBCMT:new_array.obj
 0001:0000da70       ??_V@YAXPEAX@Z             000000018000ea70 f   LIBCMT:delete_array.obj
 0001:0000da70       ??3@YAXPEAX_K@Z            000000018000ea70 f   LIBCMT:delete_scalar_size.obj
 0001:0000da78       ??_V@YAXPEAX_K@Z           000000018000ea78 f   LIBCMT:delete_array_size.obj
 0001:0000da80       __scrt_acquire_startup_lock 000000018000ea80 f   LIBCMT:utility.obj
 0001:0000dabc       __scrt_dllmain_after_initialize_c 000000018000eabc f   LIBCMT:utility.obj
 0001:0000daf0       __scrt_dllmain_before_initialize_c 000000018000eaf0 f   LIBCMT:utility.obj
 0001:0000db08       __scrt_dllmain_crt_thread_attach 000000018000eb08 f   LIBCMT:utility.obj
 0001:0000db30       __scrt_dllmain_crt_thread_detach 000000018000eb30 f   LIBCMT:utility.obj
 0001:0000db48       __scrt_dllmain_exception_filter 000000018000eb48 f   LIBCMT:utility.obj
 0001:0000dba8       __scrt_dllmain_uninitialize_c 000000018000eba8 f   LIBCMT:utility.obj
 0001:0000dbd8       __scrt_dllmain_uninitialize_critical 000000018000ebd8 f   LIBCMT:utility.obj
 0001:0000dbec       __scrt_initialize_crt      000000018000ebec f   LIBCMT:utility.obj
 0001:0000dc38       __scrt_initialize_onexit_tables 000000018000ec38 f   LIBCMT:utility.obj
 0001:0000dcc4       __scrt_is_nonwritable_in_current_image 000000018000ecc4 f   LIBCMT:utility.obj
 0001:0000dd5c       __scrt_release_startup_lock 000000018000ed5c f   LIBCMT:utility.obj
 0001:0000dd80       __scrt_uninitialize_crt    000000018000ed80 f   LIBCMT:utility.obj
 0001:0000ddac       _onexit                    000000018000edac f   LIBCMT:utility.obj
 0001:0000dde8       atexit                     000000018000ede8 f   LIBCMT:utility.obj
 0001:0000de00       ??3@YAXPEAX@Z              000000018000ee00 f   LIBCMT:delete_scalar.obj
 0001:0000df00       _Init_thread_footer        000000018000ef00 f   LIBCMT:thread_safe_statics.obj
 0001:0000df60       _Init_thread_header        000000018000ef60 f   LIBCMT:thread_safe_statics.obj
 0001:0000dfc8       _Init_thread_notify        000000018000efc8 f   LIBCMT:thread_safe_statics.obj
 0001:0000e00c       _Init_thread_wait          000000018000f00c f   LIBCMT:thread_safe_statics.obj
 0001:0000e070       __raise_securityfailure    000000018000f070 f   LIBCMT:gs_report.obj
 0001:0000e0a4       __report_gsfailure         000000018000f0a4 f   LIBCMT:gs_report.obj
 0001:0000e178       __report_rangecheckfailure 000000018000f178 f   LIBCMT:gs_report.obj
 0001:0000e18c       __report_securityfailure   000000018000f18c f   LIBCMT:gs_report.obj
 0001:0000e30c       ??2@YAPEAX_KAEBUnothrow_t@std@@@Z 000000018000f30c f   LIBCMT:new_scalar_nothrow.obj
 0001:0000e320       ??_U@YAPEAX_KAEBUnothrow_t@std@@@Z 000000018000f320 f   LIBCMT:new_array_nothrow.obj
 0001:0000e328       __GSHandlerCheck           000000018000f328 f   LIBCMT:gshandler.obj
 0001:0000e348       __GSHandlerCheckCommon     000000018000f348 f   LIBCMT:gshandler.obj
 0001:0000e3a4       __GSHandlerCheck_SEH       000000018000f3a4 f   LIBCMT:gshandlerseh.obj
 0001:0000e440       __chkstk                   000000018000f440 f   LIBCMT:chkstk.obj
 0001:0000e440       _alloca_probe              000000018000f440 f   LIBCMT:chkstk.obj
 0001:0000e4b0       __security_check_cookie    000000018000f4b0 f   LIBCMT:amdsecgs.obj
 0001:0000e7f4       _DllMainCRTStartup         000000018000f7f4 f   LIBCMT:dll_dllmain.obj
 0001:0000e834       ??2@YAPEAX_K@Z             000000018000f834 f   LIBCMT:new_scalar.obj
 0001:0000e870       __isa_available_init       000000018000f870 f   LIBCMT:cpu_disp.obj
 0001:0000ea14       __scrt_is_ucrt_dll_in_use  000000018000fa14 f   LIBCMT:ucrt_detection.obj
 0001:0000ea20       __crt_debugger_hook        000000018000fa20 f   LIBCMT:utility_desktop.obj
 0001:0000ea28       __scrt_fastfail            000000018000fa28 f   LIBCMT:utility_desktop.obj
 0001:0000eb74       __security_init_cookie     000000018000fb74 f   LIBCMT:gs_support.obj
 0001:0000ec20       ?__scrt_initialize_type_info@@YAXXZ 000000018000fc20 f   LIBCMT:tncleanup.obj
 0001:0000ec30       ?__scrt_uninitialize_type_info@@YAXXZ 000000018000fc30 f   LIBCMT:tncleanup.obj
 0001:0000ec3c       __local_stdio_scanf_options 000000018000fc3c f i LIBCMT:default_local_stdio_options.obj
 0001:0000ec44       __scrt_initialize_default_local_stdio_options 000000018000fc44 f   LIBCMT:default_local_stdio_options.obj
 0001:0000ec60       __scrt_get_dyn_tls_init_callback 000000018000fc60 f   LIBCMT:dyn_tls_init.obj
 0001:0000ec68       _RTC_Initialize            000000018000fc68 f   LIBCMT:initsect.obj
 0001:0000eca4       _RTC_Terminate             000000018000fca4 f   LIBCMT:initsect.obj
 0001:0000ece0       ??0bad_alloc@std@@QEAA@AEBV01@@Z 000000018000fce0 f i LIBCMT:throw_bad_alloc.obj
 0001:0000ed1c       ??0bad_alloc@std@@QEAA@XZ  000000018000fd1c f i LIBCMT:throw_bad_alloc.obj
 0001:0000ed3c       ??0bad_array_new_length@std@@QEAA@AEBV01@@Z 000000018000fd3c f i LIBCMT:throw_bad_alloc.obj
 0001:0000ed78       ??0bad_array_new_length@std@@QEAA@XZ 000000018000fd78 f i LIBCMT:throw_bad_alloc.obj
 0001:0000ed98       ??0exception@std@@QEAA@AEBV01@@Z 000000018000fd98 f i LIBCMT:throw_bad_alloc.obj
 0001:0000edcc       ??1bad_array_new_length@std@@UEAA@XZ 000000018000fdcc f i LIBCMT:throw_bad_alloc.obj
 0001:0000edcc       ??1bad_exception@std@@UEAA@XZ 000000018000fdcc f i libvcruntime:frame.obj
 0001:0000edcc       ??1bad_alloc@std@@UEAA@XZ  000000018000fdcc f i LIBCMT:throw_bad_alloc.obj
 0001:0000ede0       ??_Eexception@std@@UEAAPEAXI@Z 000000018000fde0 f i LIBCMT:throw_bad_alloc.obj
 0001:0000ede0       ??_Ebad_array_new_length@std@@UEAAPEAXI@Z 000000018000fde0 f i LIBCMT:throw_bad_alloc.obj
 0001:0000ede0       ??_Ebad_exception@std@@UEAAPEAXI@Z 000000018000fde0 f i libvcruntime:frame.obj
 0001:0000ede0       ??_Ebad_alloc@std@@UEAAPEAXI@Z 000000018000fde0 f i LIBCMT:throw_bad_alloc.obj
 0001:0000ede0       ??_Gbad_exception@std@@UEAAPEAXI@Z 000000018000fde0 f i libvcruntime:frame.obj
 0001:0000ede0       ??_Gexception@std@@UEAAPEAXI@Z 000000018000fde0 f i LIBCMT:throw_bad_alloc.obj
 0001:0000ede0       ??_Gbad_alloc@std@@UEAAPEAXI@Z 000000018000fde0 f i LIBCMT:throw_bad_alloc.obj
 0001:0000ede0       ??_Gbad_array_new_length@std@@UEAAPEAXI@Z 000000018000fde0 f i LIBCMT:throw_bad_alloc.obj
 0001:0000ee24       ?__scrt_throw_std_bad_alloc@@YAXXZ 000000018000fe24 f   LIBCMT:throw_bad_alloc.obj
 0001:0000ee44       ?__scrt_throw_std_bad_array_new_length@@YAXXZ 000000018000fe44 f   LIBCMT:throw_bad_alloc.obj
 0001:0000ee64       ?what@exception@std@@UEBAPEBDXZ 000000018000fe64 f i LIBCMT:throw_bad_alloc.obj
 0001:0000ee80       ??_Etype_info@@UEAAPEAXI@Z 000000018000fe80 f i LIBCMT:std_type_info_static.obj
 0001:0000ee80       ??_Gtype_info@@UEAAPEAXI@Z 000000018000fe80 f i LIBCMT:std_type_info_static.obj
 0001:0000eeac       ??0CAtlBaseModule@ATL@@QEAA@XZ 000000018000feac f   atls:atlbase.obj
 0001:0000ef54       ??1CAtlBaseModule@ATL@@QEAA@XZ 000000018000ff54 f   atls:atlbase.obj
 0001:0000f088       ?__AllocStdCallThunk_cmn@@YAPEAXXZ 0000000180010088 f   atls:atlthunk.obj
 0001:0000f1e0       AtlThunk_AllocateData      00000001800101e0 f   atls:atlthunk.obj
 0001:0000f25c       AtlThunk_DataToCode        000000018001025c f   atls:atlthunk.obj
 0001:0000f2b0       AtlThunk_FreeData          00000001800102b0 f   atls:atlthunk.obj
 0001:0000f310       AtlThunk_InitData          0000000180010310 f   atls:atlthunk.obj
 0001:0000f3b8       _get_purecall_handler      00000001800103b8 f   libvcruntime:purevirt.obj
 0001:0000f3c0       _purecall                  00000001800103c0 f   libvcruntime:purevirt.obj
 0001:0000f3dc       wcsstr                     00000001800103dc f   libvcruntime:wcsstr.obj
 0001:0000f610       memcmp                     0000000180010610 f   libvcruntime:memcmp.obj
 0001:0000f6f0       memcpy_repmovs             00000001800106f0 f   libvcruntime:memcpy.obj
 0001:0000f710       memcpy                     0000000180010710 f   libvcruntime:memcpy.obj
 0001:0000f710       memmove                    0000000180010710 f   libvcruntime:memcpy.obj
 0001:0000fb00       memset_repmovs             0000000180010b00 f   libvcruntime:memset.obj
 0001:0000fb20       memset                     0000000180010b20 f   libvcruntime:memset.obj
 0001:0000fcb0       __vcrt_initialize          0000000180010cb0 f   libvcruntime:initialization.obj
 0001:0000fcd8       __vcrt_thread_attach       0000000180010cd8 f   libvcruntime:initialization.obj
 0001:0000fcec       __vcrt_thread_detach       0000000180010cec f   libvcruntime:initialization.obj
 0001:0000fd00       __vcrt_uninitialize        0000000180010d00 f   libvcruntime:initialization.obj
 0001:0000fd1c       __vcrt_uninitialize_critical 0000000180010d1c f   libvcruntime:initialization.obj
 0001:0000fd2c       __C_specific_handler       0000000180010d2c f   libvcruntime:riscchandler.obj
 0001:0000ff38       ??$_CallSETranslator@V__FrameHandler4@@@@YAHPEAUEHExceptionRecord@@PEA_KPEAU_CONTEXT@@PEAU_xDISPATCHER_CONTEXT@@PEAUFuncInfo4@FH4@@K1H@Z 0000000180010f38 f i libvcruntime:risctrnsctrl.obj
 0001:0000ff8c       ?DecompFuncInfo@FH4@@YA_JPEAEAEAUFuncInfo4@1@_KH_N@Z 0000000180010f8c f i libvcruntime:risctrnsctrl.obj
 0001:000100b0       ?ExecutionInCatch@__FrameHandler4@@SA_NPEAU_xDISPATCHER_CONTEXT@@PEAUFuncInfo4@FH4@@@Z 00000001800110b0 f   libvcruntime:risctrnsctrl.obj
 0001:000100b8       ?FrameUnwindToEmptyState@__FrameHandler4@@SAXPEA_KPEAU_xDISPATCHER_CONTEXT@@PEAUFuncInfo4@FH4@@@Z 00000001800110b8 f   libvcruntime:risctrnsctrl.obj
 0001:000100ec       ?GetEstablisherFrame@__FrameHandler4@@SAPEA_KPEA_KPEAU_xDISPATCHER_CONTEXT@@PEAUFuncInfo4@FH4@@0@Z 00000001800110ec f   libvcruntime:risctrnsctrl.obj
 0001:00010110       ?GetRangeOfTrysToCheck@__FrameHandler4@@SA?AU?$pair@Viterator@TryBlockMap4@FH4@@V123@@std@@AEAVTryBlockMap4@FH4@@HPEAU_xDISPATCHER_CONTEXT@@PEAUFuncInfo4@5@H@Z 0000000180011110 f   libvcruntime:risctrnsctrl.obj
 0001:00010278       ?UnwindNestedFrames@__FrameHandler4@@SAXPEA_KPEAUEHExceptionRecord@@PEAU_CONTEXT@@0PEAXPEAUFuncInfo4@FH4@@HHPEAUHandlerType4@5@PEAU_xDISPATCHER_CONTEXT@@E@Z 0000000180011278 f   libvcruntime:risctrnsctrl.obj
 0001:00010398       ?setBuffer@TryBlockMap4@FH4@@QEAAXViterator@12@@Z 0000000180011398 f i libvcruntime:risctrnsctrl.obj
 0001:00010558       _CreateFrameInfo           0000000180011558 f   libvcruntime:risctrnsctrl.obj
 0001:00010594       _FindAndUnlinkFrame        0000000180011594 f   libvcruntime:risctrnsctrl.obj
 0001:000105e8       _GetImageBase              00000001800115e8 f   libvcruntime:risctrnsctrl.obj
 0001:000105fc       _GetThrowImageBase         00000001800115fc f   libvcruntime:risctrnsctrl.obj
 0001:00010610       _SetImageBase              0000000180011610 f   libvcruntime:risctrnsctrl.obj
 0001:00010628       _SetThrowImageBase         0000000180011628 f   libvcruntime:risctrnsctrl.obj
 0001:00010640       __CxxFrameHandler4         0000000180011640 f   libvcruntime:risctrnsctrl.obj
 0001:00010700       __DestructExceptionObject  0000000180011700 f   libvcruntime:ehhelpers.obj
 0001:00010770       ?_CallMemberFunction0@@YAXQEAX0@Z 0000000180011770 f i libvcruntime:ehhelpers.obj
 0001:00010774       _IsExceptionObjectToBeDestroyed 0000000180011774 f   libvcruntime:ehhelpers.obj
 0001:000107a4       __AdjustPointer            00000001800117a4 f   libvcruntime:ehhelpers.obj
 0001:000107c8       __FrameUnwindFilter        00000001800117c8 f   libvcruntime:ehhelpers.obj
 0001:00010830       __std_type_info_compare    0000000180011830 f   libvcruntime:std_type_info.obj
 0001:00010858       __std_type_info_destroy_list 0000000180011858 f   libvcruntime:std_type_info.obj
 0001:00010884       __std_exception_copy       0000000180011884 f   libvcruntime:std_exception.obj
 0001:00010914       __std_exception_destroy    0000000180011914 f   libvcruntime:std_exception.obj
 0001:0001093c       _CxxThrowException         000000018001193c f   libvcruntime:throw.obj
 0001:000109dc       __vcrt_freefls             00000001800119dc f   libvcruntime:per_thread_data.obj
 0001:000109fc       __vcrt_freeptd             00000001800119fc f   libvcruntime:per_thread_data.obj
 0001:00010a4c       __vcrt_getptd              0000000180011a4c f   libvcruntime:per_thread_data.obj
 0001:00010a68       __vcrt_getptd_noexit       0000000180011a68 f   libvcruntime:per_thread_data.obj
 0001:00010b28       __vcrt_initialize_ptd      0000000180011b28 f   libvcruntime:per_thread_data.obj
 0001:00010b70       __vcrt_uninitialize_ptd    0000000180011b70 f   libvcruntime:per_thread_data.obj
 0001:00010b94       __vcrt_initialize_locks    0000000180011b94 f   libvcruntime:locks.obj
 0001:00010bc8       __vcrt_uninitialize_locks  0000000180011bc8 f   libvcruntime:locks.obj
 0001:00010c10       _NLG_Notify                0000000180011c10 f   libvcruntime:notify.obj
 0001:00010c30       __NLG_Dispatch2            0000000180011c30 f   libvcruntime:notify.obj
 0001:00010c40       __NLG_Return2              0000000180011c40 f   libvcruntime:notify.obj
 0001:00010c44       __except_validate_context_record 0000000180011c44 f   libvcruntime:jbcxrval.obj
 0001:00010c7c       ?StateFromControlPc@__FrameHandler4@@SAHPEAUFuncInfo4@FH4@@PEAU_xDISPATCHER_CONTEXT@@@Z 0000000180011c7c f   libvcruntime:ehstate.obj
 0001:00010c84       ?StateFromIp@__FrameHandler4@@SAHPEAUFuncInfo4@FH4@@PEAU_xDISPATCHER_CONTEXT@@_K@Z 0000000180011c84 f   libvcruntime:ehstate.obj
 0001:00011908       ??$TypeMatchHelper@V__FrameHandler3@@@@YAHPEBU_s_HandlerType@@PEBU_s_CatchableType@@PEBU_s_ThrowInfo@@@Z 0000000180012908 f i libvcruntime:frame.obj
 0001:00011a48       ??$TypeMatchHelper@V__FrameHandler4@@@@YAHPEAUHandlerType4@FH4@@PEBU_s_CatchableType@@PEBU_s_ThrowInfo@@@Z 0000000180012a48 f i libvcruntime:frame.obj
 0001:00011b8c       ??$__InternalCxxFrameHandler@V__FrameHandler4@@@@YA?AW4_EXCEPTION_DISPOSITION@@PEAUEHExceptionRecord@@PEA_KPEAU_CONTEXT@@PEAU_xDISPATCHER_CONTEXT@@PEAUFuncInfo4@FH4@@H1E@Z 0000000180012b8c f i libvcruntime:frame.obj
 0001:00011e20       ??0HandlerMap4@FH4@@QEAA@PEBUTryBlockMapEntry4@1@_KH@Z 0000000180012e20 f i libvcruntime:frame.obj
 0001:00011e9c       ??0TryBlockMap4@FH4@@QEAA@PEBUFuncInfo4@1@_K@Z 0000000180012e9c f i libvcruntime:frame.obj
 0001:00011f74       ??0bad_exception@std@@QEAA@AEBV01@@Z 0000000180012f74 f i libvcruntime:frame.obj
 0001:00011fb0       ??0bad_exception@std@@QEAA@XZ 0000000180012fb0 f i libvcruntime:frame.obj
 0001:00011fd0       ?CxxCallCatchBlock@__FrameHandler4@@SAPEAXPEAU_EXCEPTION_RECORD@@@Z 0000000180012fd0 f   libvcruntime:frame.obj
 0001:00012220       ?DecompHandler@HandlerMap4@FH4@@AEAAXXZ 0000000180013220 f i libvcruntime:frame.obj
 0001:00012460       ?FrameUnwindToState@__FrameHandler4@@SAXPEA_KPEAU_xDISPATCHER_CONTEXT@@PEAUFuncInfo4@FH4@@H@Z 0000000180013460 f   libvcruntime:frame.obj
 0001:000128c0       ?ReadEntry@UWMap4@FH4@@AEAAXPEAPEAE@Z 00000001800138c0 f i libvcruntime:frame.obj
 0001:00012960       ?_CallMemberFunction1@@YAXQEAX00@Z 0000000180013960 f i libvcruntime:frame.obj
 0001:0001296c       ?_CallMemberFunction2@@YAXQEAX00H@Z 000000018001396c f i libvcruntime:frame.obj
 0001:0001297c       ?getStartStop@UWMap4@FH4@@QEAAXHHAEAViterator@12@0@Z 000000018001397c f i libvcruntime:frame.obj
 0001:00012a4c       ?getStateFromIterators@UWMap4@FH4@@SAHAEBViterator@12@H0H0@Z 0000000180013a4c f i libvcruntime:frame.obj
 0001:00012c60       __vcrt_FlsAlloc            0000000180013c60 f   libvcruntime:winapi_downlevel.obj
 0001:00012ca8       __vcrt_FlsFree             0000000180013ca8 f   libvcruntime:winapi_downlevel.obj
 0001:00012cf0       __vcrt_FlsGetValue         0000000180013cf0 f   libvcruntime:winapi_downlevel.obj
 0001:00012d38       __vcrt_FlsSetValue         0000000180013d38 f   libvcruntime:winapi_downlevel.obj
 0001:00012d8c       __vcrt_InitializeCriticalSectionEx 0000000180013d8c f   libvcruntime:winapi_downlevel.obj
 0001:00012e00       _CallSettingFrame          0000000180013e00 f   libvcruntime:handlers.obj
 0001:00012e50       _CallSettingFrame_LookupContinuationIndex 0000000180013e50 f   libvcruntime:handlers.obj
 0001:00012e80       _CallSettingFrame_NotifyContinuationAddr 0000000180013e80 f   libvcruntime:handlers.obj
 0001:00012eb0       _CallSettingFrameEncoded   0000000180013eb0 f   libvcruntime:handlers.obj
 0001:00012ef8       free                       0000000180013ef8 f   libucrt:free.obj
 0001:00012f0c       __acrt_call_reportfault    0000000180013f0c f   libucrt:invalid_parameter.obj
 0001:00013068       __acrt_initialize_invalid_parameter_handler 0000000180014068 f   libucrt:invalid_parameter.obj
 0001:00013070       _invalid_parameter         0000000180014070 f   libucrt:invalid_parameter.obj
 0001:00013120       _invalid_parameter_noinfo  0000000180014120 f   libucrt:invalid_parameter.obj
 0001:00013140       _invoke_watson             0000000180014140 f   libucrt:invalid_parameter.obj
 0001:00013188       __acrt_errno_from_os_error 0000000180014188 f   libucrt:errno.obj
 0001:000131d0       __acrt_errno_map_os_error  00000001800141d0 f   libucrt:errno.obj
 0001:00013220       __doserrno                 0000000180014220 f   libucrt:errno.obj
 0001:00013240       _errno                     0000000180014240 f   libucrt:errno.obj
 0001:00013260       calloc                     0000000180014260 f   libucrt:calloc.obj
 0001:00013268       malloc                     0000000180014268 f   libucrt:malloc.obj
 0001:00013270       _recalloc                  0000000180014270 f   libucrt:recalloc.obj
 0001:00013278       _recalloc_base             0000000180014278 f   libucrt:recalloc.obj
 0001:00013310       _resetstkoflw              0000000180014310 f   libucrt:resetstk.obj
 0001:0001343c       wcscat_s                   000000018001443c f   libucrt:wcscat_s.obj
 0001:000134bc       wcscpy_s                   00000001800144bc f   libucrt:wcscpy_s.obj
 0001:00013524       wcsncpy_s                  0000000180014524 f   libucrt:wcsncpy_s.obj
 0001:000137dc       ??$ensure_buffer_is_big_enough@D@formatting_buffer@__crt_stdio_output@@QEAA_N_K@Z 00000001800147dc f i libucrt:output.obj
 0001:00013884       ??$ensure_buffer_is_big_enough@_W@formatting_buffer@__crt_stdio_output@@QEAA_N_K@Z 0000000180014884 f i libucrt:output.obj
 0001:00013930       ??$is_wide_character_specifier@_W@__crt_stdio_output@@YA_N_K_WW4length_modifier@0@@Z 0000000180014930 f i libucrt:output.obj
 0001:00013970       ??$type_case_integer_parse_into_buffer@I@?$output_processor@_WV?$string_output_adapter@_W@__crt_stdio_output@@V?$format_validation_base@_WV?$string_output_adapter@_W@__crt_stdio_output@@@2@@__crt_stdio_output@@AEAAXII_N@Z 0000000180014970 f i libucrt:output.obj
 0001:00013a14       ??$type_case_integer_parse_into_buffer@_K@?$output_processor@_WV?$string_output_adapter@_W@__crt_stdio_output@@V?$format_validation_base@_WV?$string_output_adapter@_W@__crt_stdio_output@@@2@@__crt_stdio_output@@AEAAX_KI_N@Z 0000000180014a14 f i libucrt:output.obj
 0001:00013ab8       ??$write_multiple_characters@V?$string_output_adapter@_W@__crt_stdio_output@@D@__crt_stdio_output@@YAXAEBV?$string_output_adapter@_W@0@DHQEAH@Z 0000000180014ab8 f i libucrt:output.obj
 0001:00013b30       ??0_LocaleUpdate@@QEAA@QEAU__crt_locale_pointers@@@Z 0000000180014b30 f i libucrt:output.obj
 0001:00013bd0       ?crop_zeroes@__crt_stdio_output@@YAXPEADQEAU__crt_locale_pointers@@@Z 0000000180014bd0 f i libucrt:output.obj
 0001:00013c70       ?force_decimal_point@__crt_stdio_output@@YAXPEADQEAU__crt_locale_pointers@@@Z 0000000180014c70 f i libucrt:output.obj
 0001:00013ce8       ?parse_int_from_format_string@?$output_processor@_WV?$string_output_adapter@_W@__crt_stdio_output@@V?$format_validation_base@_WV?$string_output_adapter@_W@__crt_stdio_output@@@2@@__crt_stdio_output@@AEAA_NQEAH@Z 0000000180014ce8 f i libucrt:output.obj
 0001:00013d8c       ?process@?$output_processor@_WV?$string_output_adapter@_W@__crt_stdio_output@@V?$format_validation_base@_WV?$string_output_adapter@_W@__crt_stdio_output@@@2@@__crt_stdio_output@@QEAAHXZ 0000000180014d8c f i libucrt:output.obj
 0001:00014004       ?state_case_size@?$output_processor@_WV?$string_output_adapter@_W@__crt_stdio_output@@V?$format_validation_base@_WV?$string_output_adapter@_W@__crt_stdio_output@@@2@@__crt_stdio_output@@AEAA_NXZ 0000000180015004 f i libucrt:output.obj
 0001:00014198       ?state_case_type@?$output_processor@_WV?$string_output_adapter@_W@__crt_stdio_output@@V?$format_validation_base@_WV?$string_output_adapter@_W@__crt_stdio_output@@@2@@__crt_stdio_output@@AEAA_NXZ 0000000180015198 f i libucrt:output.obj
 0001:00014470       ?to_integer_size@__crt_stdio_output@@YA_KW4length_modifier@1@@Z 0000000180015470 f i libucrt:output.obj
 0001:000144d8       ?type_case_Z@?$output_processor@_WV?$string_output_adapter@_W@__crt_stdio_output@@V?$format_validation_base@_WV?$string_output_adapter@_W@__crt_stdio_output@@@2@@__crt_stdio_output@@AEAA_NXZ 00000001800154d8 f i libucrt:output.obj
 0001:00014554       ?type_case_a@?$output_processor@_WV?$string_output_adapter@_W@__crt_stdio_output@@V?$format_validation_base@_WV?$string_output_adapter@_W@__crt_stdio_output@@@2@@__crt_stdio_output@@AEAA_NXZ 0000000180015554 f i libucrt:output.obj
 0001:00014734       ?type_case_c_tchar@?$output_processor@_WV?$string_output_adapter@_W@__crt_stdio_output@@V?$format_validation_base@_WV?$string_output_adapter@_W@__crt_stdio_output@@@2@@__crt_stdio_output@@AEAA_N_W@Z 0000000180015734 f i libucrt:output.obj
 0001:000147dc       ?type_case_integer@?$output_processor@_WV?$string_output_adapter@_W@__crt_stdio_output@@V?$format_validation_base@_WV?$string_output_adapter@_W@__crt_stdio_output@@@2@@__crt_stdio_output@@AEAA_NI_N@Z 00000001800157dc f i libucrt:output.obj
 0001:00014964       ?type_case_n@?$output_processor@_WV?$string_output_adapter@_W@__crt_stdio_output@@V?$format_validation_base@_WV?$string_output_adapter@_W@__crt_stdio_output@@@2@@__crt_stdio_output@@AEAA_NXZ 0000000180015964 f i libucrt:output.obj
 0001:000149ec       ?type_case_s@?$output_processor@_WV?$string_output_adapter@_W@__crt_stdio_output@@V?$format_validation_base@_WV?$string_output_adapter@_W@__crt_stdio_output@@@2@@__crt_stdio_output@@AEAA_NXZ 00000001800159ec f i libucrt:output.obj
 0001:00014ab4       ?write_stored_string_tchar@?$output_processor@_WV?$string_output_adapter@_W@__crt_stdio_output@@V?$format_validation_base@_WV?$string_output_adapter@_W@__crt_stdio_output@@@2@@__crt_stdio_output@@AEAA_N_W@Z 0000000180015ab4 f i libucrt:output.obj
 0001:00014b9c       ?write_string@?$string_output_adapter@_W@__crt_stdio_output@@QEBAXQEB_WHQEAHAEAV__crt_deferred_errno_cache@@@Z 0000000180015b9c f i libucrt:output.obj
 0001:00014c44       __stdio_common_vswprintf_s 0000000180015c44 f   libucrt:output.obj
 0001:00014cb4       _seh_filter_dll            0000000180015cb4 f   libucrt:exception_filter.obj
 0001:00014cc8       _seh_filter_exe            0000000180015cc8 f   libucrt:exception_filter.obj
 0001:000150b8       __acrt_initialize_thread_local_exit_callback 00000001800160b8 f   libucrt:exit.obj
 0001:000150c0       _cexit                     00000001800160c0 f   libucrt:exit.obj
 0001:000150d0       _exit                      00000001800160d0 f   libucrt:exit.obj
 0001:000150dc       _is_c_termination_complete 00000001800160dc f   libucrt:exit.obj
 0001:000152a4       __acrt_allocate_buffer_for_argv 00000001800162a4 f   libucrt:argv_parsing.obj
 0001:00015304       _configure_narrow_argv     0000000180016304 f   libucrt:argv_parsing.obj
 0001:0001567c       __dcrt_uninitialize_environments_nolock 000000018001667c f   libucrt:environment_initialization.obj
 0001:000156b4       _initialize_narrow_environment 00000001800166b4 f   libucrt:environment_initialization.obj
 0001:000159fc       _crt_atexit                00000001800169fc f   libucrt:onexit.obj
 0001:00015a0c       _execute_onexit_table      0000000180016a0c f   libucrt:onexit.obj
 0001:00015a48       _initialize_onexit_table   0000000180016a48 f   libucrt:onexit.obj
 0001:00015a70       _register_onexit_function  0000000180016a70 f   libucrt:onexit.obj
 0001:00015af0       __acrt_uninitialize_command_line 0000000180016af0 f   libucrt:argv_data.obj
 0001:00015be8       __acrt_initialize          0000000180016be8 f   libucrt:initialization.obj
 0001:00015bfc       __acrt_thread_attach       0000000180016bfc f   libucrt:initialization.obj
 0001:00015c10       __acrt_thread_detach       0000000180016c10 f   libucrt:initialization.obj
 0001:00015c20       __acrt_uninitialize        0000000180016c20 f   libucrt:initialization.obj
 0001:00015c58       __acrt_uninitialize_critical 0000000180016c58 f   libucrt:initialization.obj
 0001:00015c68       _initterm                  0000000180016c68 f   libucrt:initterm.obj
 0001:00015ccc       _initterm_e                0000000180016ccc f   libucrt:initterm.obj
 0001:00015d0c       __acrt_initialize_new_handler 0000000180016d0c f   libucrt:new_handler.obj
 0001:00015d14       _callnewh                  0000000180016d14 f   libucrt:new_handler.obj
 0001:00015d44       _query_new_handler         0000000180016d44 f   libucrt:new_handler.obj
 0001:00015d78       terminate                  0000000180016d78 f   libucrt:terminate.obj
 0001:00015d98       abort                      0000000180016d98 f   libucrt:abort.obj
 0001:00015df0       strcpy_s                   0000000180016df0 f   libucrt:strcpy_s.obj
 0001:00015e50       ??$parse_integer@KV?$c_string_character_source@_W@__crt_strtox@@@__crt_strtox@@YAKQEAU__crt_locale_pointers@@V?$c_string_character_source@_W@0@H_N@Z 0000000180016e50 f i libucrt:atox.obj
 0001:00016510       strncmp                    0000000180017510 f   libucrt:strncmp.obj
 0001:00016590       wcsncmp                    0000000180017590 f   libucrt:wcsncmp.obj
 0001:000165bc       _free_base                 00000001800175bc f   libucrt:free_base.obj
 0001:00016974       __acrt_freeptd             0000000180017974 f   libucrt:per_thread_data.obj
 0001:000169b8       __acrt_getptd              00000001800179b8 f   libucrt:per_thread_data.obj
 0001:00016a8c       __acrt_getptd_head         0000000180017a8c f   libucrt:per_thread_data.obj
 0001:00016b34       __acrt_getptd_noexit       0000000180017b34 f   libucrt:per_thread_data.obj
 0001:00016c00       __acrt_initialize_ptd      0000000180017c00 f   libucrt:per_thread_data.obj
 0001:00016c3c       __acrt_uninitialize_ptd    0000000180017c3c f   libucrt:per_thread_data.obj
 0001:00016c60       _calloc_base               0000000180017c60 f   libucrt:calloc_base.obj
 0001:00016cd8       _malloc_base               0000000180017cd8 f   libucrt:malloc_base.obj
 0001:00016d38       _msize_base                0000000180017d38 f   libucrt:msize.obj
 0001:00016d74       _realloc_base              0000000180017d74 f   libucrt:realloc_base.obj
 0001:00016fc8       __acrt_AppPolicyGetProcessTerminationMethodInternal 0000000180017fc8 f   libucrt:winapi_thunks.obj
 0001:00017018       __acrt_AreFileApisANSI     0000000180018018 f   libucrt:winapi_thunks.obj
 0001:00017054       __acrt_FlsAlloc            0000000180018054 f   libucrt:winapi_thunks.obj
 0001:0001709c       __acrt_FlsFree             000000018001809c f   libucrt:winapi_thunks.obj
 0001:000170e4       __acrt_FlsGetValue         00000001800180e4 f   libucrt:winapi_thunks.obj
 0001:0001712c       __acrt_FlsSetValue         000000018001812c f   libucrt:winapi_thunks.obj
 0001:00017180       __acrt_InitializeCriticalSectionEx 0000000180018180 f   libucrt:winapi_thunks.obj
 0001:000171e4       __acrt_LCMapStringEx       00000001800181e4 f   libucrt:winapi_thunks.obj
 0001:000172c0       __acrt_LocaleNameToLCID    00000001800182c0 f   libucrt:winapi_thunks.obj
 0001:00017310       __acrt_SetThreadStackGuarantee 0000000180018310 f   libucrt:winapi_thunks.obj
 0001:00017354       __acrt_initialize_winapi_thunks 0000000180018354 f   libucrt:winapi_thunks.obj
 0001:00017388       __acrt_uninitialize_winapi_thunks 0000000180018388 f   libucrt:winapi_thunks.obj
 0001:000173cc       wcstol                     00000001800183cc f   libucrt:strtox.obj
 0001:000173f8       _mbtowc_l                  00000001800183f8 f   libucrt:mbtowc.obj
 0001:00017578       mbtowc                     0000000180018578 f   libucrt:mbtowc.obj
 0001:00017580       wcsnlen                    0000000180018580 f   libucrt:strnlen.obj
 0001:00017758       __acrt_update_locale_info  0000000180018758 f   libucrt:locale_update.obj
 0001:0001778c       __acrt_update_multibyte_info 000000018001878c f   libucrt:locale_update.obj
 0001:000181c4       __acrt_fp_format           00000001800191c4 f   libucrt:cvt.obj
 0001:000184fc       _fileno                    00000001800194fc f   libucrt:fileno.obj
 0001:00018524       __acrt_initialize_stdio    0000000180019524 f   libucrt:_file.obj
 0001:00018644       __acrt_uninitialize_stdio  0000000180019644 f   libucrt:_file.obj
 0001:000186a0       _lock_file                 00000001800196a0 f   libucrt:_file.obj
 0001:000186ac       _unlock_file               00000001800196ac f   libucrt:_file.obj
 0001:000186b8       _get_printf_count_output   00000001800196b8 f   libucrt:printf_count_output.obj
 0001:00018740       __acrt_set_locale_changed  0000000180019740 f   libucrt:wsetlocale.obj
 0001:0001874c       __acrt_uninitialize_locale 000000018001974c f   libucrt:wsetlocale.obj
 0001:00018978       __acrt_initialize_lowio    0000000180019978 f   libucrt:ioinit.obj
 0001:000189b4       __acrt_uninitialize_lowio  00000001800199b4 f   libucrt:ioinit.obj
 0001:000189f4       __acrt_initialize_locks    00000001800199f4 f   libucrt:locks.obj
 0001:00018a3c       __acrt_lock                0000000180019a3c f   libucrt:locks.obj
 0001:00018a58       __acrt_uninitialize_locks  0000000180019a58 f   libucrt:locks.obj
 0001:00018a90       __acrt_unlock              0000000180019a90 f   libucrt:locks.obj
 0001:00018aac       __acrt_get_process_end_policy 0000000180019aac f   libucrt:win_policies.obj
 0001:00018afc       ??$__acrt_mbs_to_wcs_cp@U__crt_win32_buffer_internal_dynamic_resizing@@@@YAHQEBDAEAV?$__crt_win32_buffer@_WU__crt_win32_buffer_internal_dynamic_resizing@@@@I@Z 0000000180019afc f i libucrt:argv_wildcards.obj
 0001:00018c74       ??$__acrt_wcs_to_mbs_cp@U__crt_win32_buffer_internal_dynamic_resizing@@@@YAHQEB_WAEAV?$__crt_win32_buffer@DU__crt_win32_buffer_internal_dynamic_resizing@@@@I@Z 0000000180019c74 f i libucrt:argv_wildcards.obj
 0001:000194a4       __acrt_expand_narrow_argv_wildcards 000000018001a4a4 f   libucrt:argv_wildcards.obj
 0001:000194ac       ??$__acrt_wcs_to_mbs_cp@U__crt_win32_buffer_no_resizing@@@@YAHQEB_WAEAV?$__crt_win32_buffer@DU__crt_win32_buffer_no_resizing@@@@I@Z 000000018001a4ac f i libucrt:getmodulefilenamea.obj
 0001:000195c0       __acrt_GetModuleFileNameA  000000018001a5c0 f   libucrt:getmodulefilenamea.obj
 0001:00019e08       __acrt_initialize_multibyte 000000018001ae08 f   libucrt:mbctype.obj
 0001:00019e68       __acrt_update_thread_multibyte_data 000000018001ae68 f   libucrt:mbctype.obj
 0001:00019e84       _setmbcp_nolock            000000018001ae84 f   libucrt:mbctype.obj
 0001:0001a1b8       _ismbblead                 000000018001b1b8 f   libucrt:ismbbyte.obj
 0001:0001a1cc       __acrt_initialize_command_line 000000018001b1cc f   libucrt:argv_data.obj
 0001:0001a1f4       __acrt_MultiByteToWideChar 000000018001b1f4 f   libucrt:multibytetowidechar.obj
 0001:0001a250       __acrt_WideCharToMultiByte 000000018001b250 f   libucrt:widechartomultibyte.obj
 0001:0001a300       __dcrt_get_narrow_environment_from_os 000000018001b300 f   libucrt:get_environment_from_os.obj
 0001:0001a404       __acrt_initialize_heap     000000018001b404 f   libucrt:heap_handle.obj
 0001:0001a420       __acrt_uninitialize_heap   000000018001b420 f   libucrt:heap_handle.obj
 0001:0001a42c       __acrt_execute_initializers 000000018001b42c f   libucrt:shared_initialization.obj
 0001:0001a4ac       __acrt_execute_uninitializers 000000018001b4ac f   libucrt:shared_initialization.obj
 0001:0001a530       __acrt_get_sigabrt_handler 000000018001b530 f   libucrt:signal.obj
 0001:0001a560       __acrt_initialize_signal_handlers 000000018001b560 f   libucrt:signal.obj
 0001:0001a580       raise                      000000018001b580 f   libucrt:signal.obj
 0001:0001a7ec       __acrt_has_user_matherr    000000018001b7ec f   libucrt:matherr.obj
 0001:0001a80c       __acrt_initialize_user_matherr 000000018001b80c f   libucrt:matherr.obj
 0001:0001a814       __acrt_invoke_user_matherr 000000018001b814 f   libucrt:matherr.obj
 0001:0001aa20       __acrt_stdio_flush_nolock  000000018001ba20 f   libucrt:fflush.obj
 0001:0001aa9c       _fflush_nolock             000000018001ba9c f   libucrt:fflush.obj
 0001:0001aae8       _flushall                  000000018001bae8 f   libucrt:fflush.obj
 0001:0001aaf0       __pctype_func              000000018001baf0 f   libucrt:ctype.obj
 0001:0001ab20       iswctype                   000000018001bb20 f   libucrt:iswctype.obj
 0001:0001ab8c       __acrt_add_locale_ref      000000018001bb8c f   libucrt:locale_refcounting.obj
 0001:0001ac18       __acrt_free_locale         000000018001bc18 f   libucrt:locale_refcounting.obj
 0001:0001ad90       __acrt_locale_add_lc_time_reference 000000018001bd90 f   libucrt:locale_refcounting.obj
 0001:0001adb8       __acrt_locale_free_lc_time_if_unreferenced 000000018001bdb8 f   libucrt:locale_refcounting.obj
 0001:0001adf0       __acrt_locale_release_lc_time_reference 000000018001bdf0 f   libucrt:locale_refcounting.obj
 0001:0001ae18       __acrt_release_locale_ref  000000018001be18 f   libucrt:locale_refcounting.obj
 0001:0001aec0       __acrt_update_thread_locale_data 000000018001bec0 f   libucrt:locale_refcounting.obj
 0001:0001af30       _updatetlocinfoEx_nolock   000000018001bf30 f   libucrt:locale_refcounting.obj
 0001:0001af98       _query_new_mode            000000018001bf98 f   libucrt:new_mode.obj
 0001:0001afa0       __acrt_DownlevelLocaleNameToLCID 000000018001bfa0 f   libucrt:lcidtoname_downlevel.obj
 0001:0001b050       _isleadbyte_l              000000018001c050 f i libucrt:_wctype.obj
 0001:0001b09c       ?__mbrtowc_utf8@__crt_mbstring@@YA_KPEA_WPEBD_KPEAU_Mbstatet@@@Z 000000018001c09c f   libucrt:mbrtowc.obj
 0001:0001b0d8       ?__mbsrtowcs_utf8@__crt_mbstring@@YA_KPEA_WPEAPEBD_KPEAU_Mbstatet@@@Z 000000018001c0d8 f   libucrt:mbrtowc.obj
 0001:0001b250       __acrt_fp_strflt_to_string 000000018001c250 f   libucrt:_fptostr.obj
 0001:0001b3a0       ?divide@__crt_strtox@@YA_KAEAUbig_integer@1@AEBU21@@Z 000000018001c3a0 f i libucrt:cfout.obj
 0001:0001b7cc       __acrt_fltout              000000018001c7cc f   libucrt:cfout.obj
 0001:0001ca98       fegetround                 000000018001da98 f   libucrt:fegetround.obj
 0001:0001caac       _fcloseall                 000000018001daac f   libucrt:closeall.obj
 0001:0001cb60       __acrt_stdio_free_buffer_nolock 000000018001db60 f   libucrt:_freebuf.obj
 0001:0001cba0       _isatty                    000000018001dba0 f   libucrt:isatty.obj
 0001:0001cc00       __acrt_locale_free_monetary 000000018001dc00 f   libucrt:initmon.obj
 0001:0001cd0c       __acrt_locale_free_numeric 000000018001dd0c f   libucrt:initnum.obj
 0001:0001cdd0       __acrt_locale_free_time    000000018001ddd0 f   libucrt:inittime.obj
 0001:0001ced8       __acrt_GetStringTypeA      000000018001ded8 f   libucrt:getstringtypea.obj
 0001:0001d068       __acrt_lowio_create_handle_array 000000018001e068 f   libucrt:osfinfo.obj
 0001:0001d110       __acrt_lowio_destroy_handle_array 000000018001e110 f   libucrt:osfinfo.obj
 0001:0001d160       __acrt_lowio_ensure_fh_exists 000000018001e160 f   libucrt:osfinfo.obj
 0001:0001d208       __acrt_lowio_lock_fh       000000018001e208 f   libucrt:osfinfo.obj
 0001:0001d230       __acrt_lowio_unlock_fh     000000018001e230 f   libucrt:osfinfo.obj
 0001:0001d258       _free_osfhnd               000000018001e258 f   libucrt:osfinfo.obj
 0001:0001d314       _get_osfhandle             000000018001e314 f   libucrt:osfinfo.obj
 0001:0001d390       qsort                      000000018001e390 f   libucrt:qsort.obj
 0001:0001d730       strncpy_s                  000000018001e730 f   libucrt:strncpy_s.obj
 0001:0001d8b0       strpbrk                    000000018001e8b0 f   libucrt:strpbrk.obj
 0001:0001dc78       _mbsdec                    000000018001ec78 f   libucrt:mbsdec.obj
 0001:0001dc80       _mbsdec_l                  000000018001ec80 f   libucrt:mbsdec.obj
 0001:0001e02c       __acrt_LCMapStringA        000000018001f02c f   libucrt:lcmapstringa.obj
 0001:0001e168       _commit                    000000018001f168 f   libucrt:commit.obj
 0001:0001ea78       _write                     000000018001fa78 f   libucrt:write.obj
 0001:0001eb64       _write_nolock              000000018001fb64 f   libucrt:write.obj
 0001:0001ee48       __acrt_GetStringTypeW      000000018001fe48 f   libucrt:getstringtypew.obj
 0001:0001ee50       __ascii_wcsnicmp           000000018001fe50 f   libucrt:wcsnicmp.obj
 0001:0001ee9c       ?__mbrtoc32_utf8@__crt_mbstring@@YA_KPEA_UPEBD_KPEAU_Mbstatet@@@Z 000000018001fe9c f   libucrt:mbrtoc32.obj
 0001:0001f074       _controlfp_s               0000000180020074 f   libucrt:contrlfp.obj
 0001:0001f0d8       fegetenv                   00000001800200d8 f   libucrt:fegetenv.obj
 0001:0001f0f8       fesetenv                   00000001800200f8 f   libucrt:fesetenv.obj
 0001:0001f144       feholdexcept               0000000180020144 f   libucrt:feholdexcept.obj
 0001:0001f194       ceil                       0000000180020194 f   libucrt:ceil.obj
 0001:0001f260       log10                      0000000180020260 f   libucrt:log10.obj
 0001:0001f80c       __acrt_fenv_get_common_round_control 000000018002080c f   libucrt:_fenvutils.obj
 0001:0001f818       __acrt_fenv_get_control    0000000180020818 f   libucrt:_fenvutils.obj
 0001:0001f90c       __acrt_fenv_get_status     000000018002090c f   libucrt:_fenvutils.obj
 0001:0001f960       __acrt_fenv_set_control    0000000180020960 f   libucrt:_fenvutils.obj
 0001:0001faa8       __acrt_fenv_set_status     0000000180020aa8 f   libucrt:_fenvutils.obj
 0001:0001fbc8       _lseeki64_nolock           0000000180020bc8 f   libucrt:lseek.obj
 0001:0001fbd0       _fclose_nolock             0000000180020bd0 f   libucrt:fclose.obj
 0001:0001fc54       fclose                     0000000180020c54 f   libucrt:fclose.obj
 0001:0001fcb8       _query_app_type            0000000180020cb8 f   libucrt:report_runtime_error.obj
 0001:0001fcc0       __strncnt                  0000000180020cc0 f   libucrt:strncnt.obj
 0001:0001fcd8       _putwch_nolock             0000000180020cd8 f   libucrt:putwch.obj
 0001:0001fd14       _clearfp                   0000000180020d14 f   libucrt:ieee.obj
 0001:0001fd84       _control87                 0000000180020d84 f   libucrt:ieee.obj
 0001:00020170       _handle_error              0000000180021170 f   libucrt:libm_error.obj
 0001:00020298       _handle_nan                0000000180021298 f   libucrt:libm_error.obj
 0001:000202c0       __acrt_initialize_fma3     00000001800212c0 f   libucrt:fma3_available.obj
 0001:00020330       _log10_special             0000000180021330 f   libucrt:log_special.obj
 0001:0002045c       _close                     000000018002145c f   libucrt:close.obj
 0001:00020500       _close_nolock              0000000180021500 f   libucrt:close.obj
 0001:000205c0       ?__acrt_stdio_free_stream@@YAXV__crt_stdio_stream@@@Z 00000001800215c0 f   libucrt:stream.obj
 0001:000205dc       __dcrt_lowio_ensure_console_output_initialized 00000001800215dc f   libucrt:initcon.obj
 0001:00020630       __dcrt_terminate_console_output 0000000180021630 f   libucrt:initcon.obj
 0001:0002064c       __dcrt_write_console       000000018002164c f   libucrt:initcon.obj
 0001:00020720       _get_fpsr                  0000000180021720 f   libucrt:fpsr.obj
 0001:00020730       _set_fpsr                  0000000180021730 f   libucrt:fpsr.obj
 0001:0002073a       _fclrf                     000000018002173a f   libucrt:fpsr.obj
 0001:0002074e       _frnd                      000000018002174e f   libucrt:fpsr.obj
 0001:00020770       _raise_exc                 0000000180021770 f   libucrt:fpexcept.obj
 0001:00020798       _raise_exc_ex              0000000180021798 f   libucrt:fpexcept.obj
 0001:00020aa8       _set_errno_from_matherr    0000000180021aa8 f   libucrt:fpexcept.obj
 0001:00020ad8       _clrfp                     0000000180021ad8 f   libucrt:fpctrl.obj
 0001:00020af8       _ctrlfp                    0000000180021af8 f   libucrt:fpctrl.obj
 0001:00020b74       _set_statfp                0000000180021b74 f   libucrt:fpctrl.obj
 0001:00020b94       _statfp                    0000000180021b94 f   libucrt:fpctrl.obj
 0001:00020ba5       IsProcessorFeaturePresent  0000000180021ba5 f   kernel32:KERNEL32.dll
 0001:00020bb0       _FindPESection             0000000180021bb0 f   LIBCMT:pesect.obj
 0001:00020c00       _IsNonwritableInCurrentImage 0000000180021c00 f   LIBCMT:pesect.obj
 0001:00020c50       _ValidateImageBase         0000000180021c50 f   LIBCMT:pesect.obj
 0001:00020c80       strrchr                    0000000180021c80 f   libvcruntime:strrchr.obj
 0001:00020dc0       _guard_dispatch_icall_nop  0000000180021dc0 f   LIBCMT:guard_dispatch.obj
 0001:00020de0       _guard_xfg_dispatch_icall_nop 0000000180021de0 f   LIBCMT:guard_xfg_dispatch.obj
 0002:00000000       __imp_RegQueryValueExW     0000000180023000     advapi32:ADVAPI32.dll
 0002:00000008       __imp_RegSetValueExW       0000000180023008     advapi32:ADVAPI32.dll
 0002:00000010       __imp_RegQueryInfoKeyW     0000000180023010     advapi32:ADVAPI32.dll
 0002:00000018       __imp_RegOpenKeyExW        0000000180023018     advapi32:ADVAPI32.dll
 0002:00000020       __imp_RegEnumKeyExW        0000000180023020     advapi32:ADVAPI32.dll
 0002:00000028       __imp_RegDeleteValueW      0000000180023028     advapi32:ADVAPI32.dll
 0002:00000030       __imp_RegDeleteKeyW        0000000180023030     advapi32:ADVAPI32.dll
 0002:00000038       __imp_RegCreateKeyExW      0000000180023038     advapi32:ADVAPI32.dll
 0002:00000040       __imp_RegCloseKey          0000000180023040     advapi32:ADVAPI32.dll
 0002:00000048       \177ADVAPI32_NULL_THUNK_DATA 0000000180023048     advapi32:ADVAPI32.dll
 0002:00000050       __imp_GetObjectW           0000000180023050     gdi32:GDI32.dll
 0002:00000058       __imp_SelectObject         0000000180023058     gdi32:GDI32.dll
 0002:00000060       __imp_DeleteObject         0000000180023060     gdi32:GDI32.dll
 0002:00000068       __imp_CreateCompatibleDC   0000000180023068     gdi32:GDI32.dll
 0002:00000070       __imp_BitBlt               0000000180023070     gdi32:GDI32.dll
 0002:00000078       __imp_SetWindowOrgEx       0000000180023078     gdi32:GDI32.dll
 0002:00000080       __imp_SetWindowExtEx       0000000180023080     gdi32:GDI32.dll
 0002:00000088       __imp_SetViewportOrgEx     0000000180023088     gdi32:GDI32.dll
 0002:00000090       __imp_LPtoDP               0000000180023090     gdi32:GDI32.dll
 0002:00000098       __imp_SetMapMode           0000000180023098     gdi32:GDI32.dll
 0002:000000a0       __imp_SaveDC               00000001800230a0     gdi32:GDI32.dll
 0002:000000a8       __imp_RestoreDC            00000001800230a8     gdi32:GDI32.dll
 0002:000000b0       __imp_GetDeviceCaps        00000001800230b0     gdi32:GDI32.dll
 0002:000000b8       __imp_DeleteMetaFile       00000001800230b8     gdi32:GDI32.dll
 0002:000000c0       __imp_DeleteDC             00000001800230c0     gdi32:GDI32.dll
 0002:000000c8       __imp_CreateRectRgnIndirect 00000001800230c8     gdi32:GDI32.dll
 0002:000000d0       __imp_CreateMetaFileW      00000001800230d0     gdi32:GDI32.dll
 0002:000000d8       __imp_CreateDCW            00000001800230d8     gdi32:GDI32.dll
 0002:000000e0       __imp_CloseMetaFile        00000001800230e0     gdi32:GDI32.dll
 0002:000000e8       \177GDI32_NULL_THUNK_DATA  00000001800230e8     gdi32:GDI32.dll
 0002:000000f0       __imp_CloseHandle          00000001800230f0     kernel32:KERNEL32.dll
 0002:000000f8       __imp_SetEvent             00000001800230f8     kernel32:KERNEL32.dll
 0002:00000100       __imp_CreateMutexW         0000000180023100     kernel32:KERNEL32.dll
 0002:00000108       __imp_CreateEventW         0000000180023108     kernel32:KERNEL32.dll
 0002:00000110       __imp_GetCurrentProcessId  0000000180023110     kernel32:KERNEL32.dll
 0002:00000118       __imp_WriteConsoleW        0000000180023118     kernel32:KERNEL32.dll
 0002:00000120       __imp_CreateFileW          0000000180023120     kernel32:KERNEL32.dll
 0002:00000128       __imp_GetConsoleMode       0000000180023128     kernel32:KERNEL32.dll
 0002:00000130       __imp_GetConsoleOutputCP   0000000180023130     kernel32:KERNEL32.dll
 0002:00000138       __imp_WriteFile            0000000180023138     kernel32:KERNEL32.dll
 0002:00000140       __imp_FlushFileBuffers     0000000180023140     kernel32:KERNEL32.dll
 0002:00000148       __imp_SetStdHandle         0000000180023148     kernel32:KERNEL32.dll
 0002:00000150       __imp_GetStringTypeW       0000000180023150     kernel32:KERNEL32.dll
 0002:00000158       __imp_SetFilePointerEx     0000000180023158     kernel32:KERNEL32.dll
 0002:00000160       __imp_FreeEnvironmentStringsW 0000000180023160     kernel32:KERNEL32.dll
 0002:00000168       __imp_lstrcmpiW            0000000180023168     kernel32:KERNEL32.dll
 0002:00000170       __imp_GetCommandLineW      0000000180023170     kernel32:KERNEL32.dll
 0002:00000178       __imp_GetCommandLineA      0000000180023178     kernel32:KERNEL32.dll
 0002:00000180       __imp_GetCPInfo            0000000180023180     kernel32:KERNEL32.dll
 0002:00000188       __imp_GetOEMCP             0000000180023188     kernel32:KERNEL32.dll
 0002:00000190       __imp_GetACP               0000000180023190     kernel32:KERNEL32.dll
 0002:00000198       __imp_IsValidCodePage      0000000180023198     kernel32:KERNEL32.dll
 0002:000001a0       __imp_FindNextFileW        00000001800231a0     kernel32:KERNEL32.dll
 0002:000001a8       __imp_FindFirstFileExW     00000001800231a8     kernel32:KERNEL32.dll
 0002:000001b0       __imp_FindClose            00000001800231b0     kernel32:KERNEL32.dll
 0002:000001b8       __imp_GetFileType          00000001800231b8     kernel32:KERNEL32.dll
 0002:000001c0       __imp_GetStdHandle         00000001800231c0     kernel32:KERNEL32.dll
 0002:000001c8       __imp_LCMapStringW         00000001800231c8     kernel32:KERNEL32.dll
 0002:000001d0       __imp_HeapReAlloc          00000001800231d0     kernel32:KERNEL32.dll
 0002:000001d8       __imp_HeapSize             00000001800231d8     kernel32:KERNEL32.dll
 0002:000001e0       __imp_MulDiv               00000001800231e0     kernel32:KERNEL32.dll
 0002:000001e8       __imp_GlobalLock           00000001800231e8     kernel32:KERNEL32.dll
 0002:000001f0       __imp_GlobalUnlock         00000001800231f0     kernel32:KERNEL32.dll
 0002:000001f8       __imp_GlobalAlloc          00000001800231f8     kernel32:KERNEL32.dll
 0002:00000200       __imp_FindResourceW        0000000180023200     kernel32:KERNEL32.dll
 0002:00000208       __imp_SizeofResource       0000000180023208     kernel32:KERNEL32.dll
 0002:00000210       __imp_LoadResource         0000000180023210     kernel32:KERNEL32.dll
 0002:00000218       __imp_LoadLibraryExW       0000000180023218     kernel32:KERNEL32.dll
 0002:00000220       __imp_GetProcAddress       0000000180023220     kernel32:KERNEL32.dll
 0002:00000228       __imp_GetModuleHandleW     0000000180023228     kernel32:KERNEL32.dll
 0002:00000230       __imp_GetModuleFileNameW   0000000180023230     kernel32:KERNEL32.dll
 0002:00000238       __imp_FreeLibrary          0000000180023238     kernel32:KERNEL32.dll
 0002:00000240       __imp_DisableThreadLibraryCalls 0000000180023240     kernel32:KERNEL32.dll
 0002:00000248       __imp_GetCurrentThreadId   0000000180023248     kernel32:KERNEL32.dll
 0002:00000250       __imp_Sleep                0000000180023250     kernel32:KERNEL32.dll
 0002:00000258       __imp_WaitForSingleObject  0000000180023258     kernel32:KERNEL32.dll
 0002:00000260       __imp_ReleaseMutex         0000000180023260     kernel32:KERNEL32.dll
 0002:00000268       __imp_ResetEvent           0000000180023268     kernel32:KERNEL32.dll
 0002:00000270       __imp_EnterCriticalSection 0000000180023270     kernel32:KERNEL32.dll
 0002:00000278       __imp_LeaveCriticalSection 0000000180023278     kernel32:KERNEL32.dll
 0002:00000280       __imp_SetLastError         0000000180023280     kernel32:KERNEL32.dll
 0002:00000288       __imp_EncodePointer        0000000180023288     kernel32:KERNEL32.dll
 0002:00000290       __imp_DeleteCriticalSection 0000000180023290     kernel32:KERNEL32.dll
 0002:00000298       __imp_InitializeCriticalSectionEx 0000000180023298     kernel32:KERNEL32.dll
 0002:000002a0       __imp_GetLastError         00000001800232a0     kernel32:KERNEL32.dll
 0002:000002a8       __imp_RaiseException       00000001800232a8     kernel32:KERNEL32.dll
 0002:000002b0       __imp_DecodePointer        00000001800232b0     kernel32:KERNEL32.dll
 0002:000002b8       __imp_WideCharToMultiByte  00000001800232b8     kernel32:KERNEL32.dll
 0002:000002c0       __imp_GetEnvironmentStringsW 00000001800232c0     kernel32:KERNEL32.dll
 0002:000002c8       __imp_MultiByteToWideChar  00000001800232c8     kernel32:KERNEL32.dll
 0002:000002d0       __imp_GetModuleHandleExW   00000001800232d0     kernel32:KERNEL32.dll
 0002:000002d8       __imp_ExitProcess          00000001800232d8     kernel32:KERNEL32.dll
 0002:000002e0       __imp_VirtualQuery         00000001800232e0     kernel32:KERNEL32.dll
 0002:000002e8       __imp_VirtualProtect       00000001800232e8     kernel32:KERNEL32.dll
 0002:000002f0       __imp_GetSystemInfo        00000001800232f0     kernel32:KERNEL32.dll
 0002:000002f8       __imp_TlsFree              00000001800232f8     kernel32:KERNEL32.dll
 0002:00000300       __imp_TlsSetValue          0000000180023300     kernel32:KERNEL32.dll
 0002:00000308       __imp_TlsGetValue          0000000180023308     kernel32:KERNEL32.dll
 0002:00000310       __imp_TlsAlloc             0000000180023310     kernel32:KERNEL32.dll
 0002:00000318       __imp_RtlPcToFileHeader    0000000180023318     kernel32:KERNEL32.dll
 0002:00000320       __imp_InterlockedFlushSList 0000000180023320     kernel32:KERNEL32.dll
 0002:00000328       __imp_RtlUnwindEx          0000000180023328     kernel32:KERNEL32.dll
 0002:00000330       __imp_LoadLibraryExA       0000000180023330     kernel32:KERNEL32.dll
 0002:00000338       __imp_VirtualFree          0000000180023338     kernel32:KERNEL32.dll
 0002:00000340       __imp_VirtualAlloc         0000000180023340     kernel32:KERNEL32.dll
 0002:00000348       __imp_FlushInstructionCache 0000000180023348     kernel32:KERNEL32.dll
 0002:00000350       __imp_InterlockedPushEntrySList 0000000180023350     kernel32:KERNEL32.dll
 0002:00000358       __imp_InterlockedPopEntrySList 0000000180023358     kernel32:KERNEL32.dll
 0002:00000360       __imp_GetProcessHeap       0000000180023360     kernel32:KERNEL32.dll
 0002:00000368       __imp_HeapFree             0000000180023368     kernel32:KERNEL32.dll
 0002:00000370       __imp_HeapAlloc            0000000180023370     kernel32:KERNEL32.dll
 0002:00000378       __imp_OutputDebugStringW   0000000180023378     kernel32:KERNEL32.dll
 0002:00000380       __imp_InitializeSListHead  0000000180023380     kernel32:KERNEL32.dll
 0002:00000388       __imp_GetSystemTimeAsFileTime 0000000180023388     kernel32:KERNEL32.dll
 0002:00000390       __imp_QueryPerformanceCounter 0000000180023390     kernel32:KERNEL32.dll
 0002:00000398       __imp_GetStartupInfoW      0000000180023398     kernel32:KERNEL32.dll
 0002:000003a0       __imp_IsDebuggerPresent    00000001800233a0     kernel32:KERNEL32.dll
 0002:000003a8       __imp_IsProcessorFeaturePresent 00000001800233a8     kernel32:KERNEL32.dll
 0002:000003b0       __imp_TerminateProcess     00000001800233b0     kernel32:KERNEL32.dll
 0002:000003b8       __imp_GetCurrentProcess    00000001800233b8     kernel32:KERNEL32.dll
 0002:000003c0       __imp_InitializeCriticalSectionAndSpinCount 00000001800233c0     kernel32:KERNEL32.dll
 0002:000003c8       __imp_WaitForSingleObjectEx 00000001800233c8     kernel32:KERNEL32.dll
 0002:000003d0       __imp_RtlCaptureContext    00000001800233d0     kernel32:KERNEL32.dll
 0002:000003d8       __imp_RtlLookupFunctionEntry 00000001800233d8     kernel32:KERNEL32.dll
 0002:000003e0       __imp_RtlVirtualUnwind     00000001800233e0     kernel32:KERNEL32.dll
 0002:000003e8       __imp_UnhandledExceptionFilter 00000001800233e8     kernel32:KERNEL32.dll
 0002:000003f0       __imp_SetUnhandledExceptionFilter 00000001800233f0     kernel32:KERNEL32.dll
 0002:000003f8       \177KERNEL32_NULL_THUNK_DATA 00000001800233f8     kernel32:KERNEL32.dll
 0002:00000400       __imp_OleCreatePropertyFrame 0000000180023400     oleaut32:OLEAUT32.dll
 0002:00000408       __imp_UnRegisterTypeLib    0000000180023408     oleaut32:OLEAUT32.dll
 0002:00000410       __imp_RegisterTypeLib      0000000180023410     oleaut32:OLEAUT32.dll
 0002:00000418       __imp_LoadRegTypeLib       0000000180023418     oleaut32:OLEAUT32.dll
 0002:00000420       __imp_LoadTypeLib          0000000180023420     oleaut32:OLEAUT32.dll
 0002:00000428       __imp_VarUI4FromStr        0000000180023428     oleaut32:OLEAUT32.dll
 0002:00000430       __imp_VariantInit          0000000180023430     oleaut32:OLEAUT32.dll
 0002:00000438       __imp_SysAllocStringByteLen 0000000180023438     oleaut32:OLEAUT32.dll
 0002:00000440       __imp_SysStringByteLen     0000000180023440     oleaut32:OLEAUT32.dll
 0002:00000448       __imp_VariantChangeType    0000000180023448     oleaut32:OLEAUT32.dll
 0002:00000450       __imp_VariantClear         0000000180023450     oleaut32:OLEAUT32.dll
 0002:00000458       __imp_SysStringLen         0000000180023458     oleaut32:OLEAUT32.dll
 0002:00000460       __imp_SysFreeString        0000000180023460     oleaut32:OLEAUT32.dll
 0002:00000468       __imp_SysAllocStringLen    0000000180023468     oleaut32:OLEAUT32.dll
 0002:00000470       __imp_SysAllocString       0000000180023470     oleaut32:OLEAUT32.dll
 0002:00000478       \177OLEAUT32_NULL_THUNK_DATA 0000000180023478     oleaut32:OLEAUT32.dll
 0002:00000480       __imp_UnregisterClassW     0000000180023480     user32:USER32.dll
 0002:00000488       __imp_PostMessageW         0000000180023488     user32:USER32.dll
 0002:00000490       __imp_DefWindowProcW       0000000180023490     user32:USER32.dll
 0002:00000498       __imp_CallWindowProcW      0000000180023498     user32:USER32.dll
 0002:000004a0       __imp_RegisterClassExW     00000001800234a0     user32:USER32.dll
 0002:000004a8       __imp_GetClassInfoExW      00000001800234a8     user32:USER32.dll
 0002:000004b0       __imp_CreateWindowExW      00000001800234b0     user32:USER32.dll
 0002:000004b8       __imp_IsWindow             00000001800234b8     user32:USER32.dll
 0002:000004c0       __imp_IsChild              00000001800234c0     user32:USER32.dll
 0002:000004c8       __imp_DestroyWindow        00000001800234c8     user32:USER32.dll
 0002:000004d0       __imp_ShowWindow           00000001800234d0     user32:USER32.dll
 0002:000004d8       __imp_SetWindowPos         00000001800234d8     user32:USER32.dll
 0002:000004e0       __imp_CharNextW            00000001800234e0     user32:USER32.dll
 0002:000004e8       __imp_SetFocus             00000001800234e8     user32:USER32.dll
 0002:000004f0       __imp_LoadBitmapW          00000001800234f0     user32:USER32.dll
 0002:000004f8       __imp_RegisterClassW       00000001800234f8     user32:USER32.dll
 0002:00000500       __imp_PeekMessageW         0000000180023500     user32:USER32.dll
 0002:00000508       __imp_LoadCursorW          0000000180023508     user32:USER32.dll
 0002:00000510       __imp_GetParent            0000000180023510     user32:USER32.dll
 0002:00000518       __imp_SetWindowLongPtrW    0000000180023518     user32:USER32.dll
 0002:00000520       __imp_GetWindowLongPtrW    0000000180023520     user32:USER32.dll
 0002:00000528       __imp_PtInRect             0000000180023528     user32:USER32.dll
 0002:00000530       __imp_EqualRect            0000000180023530     user32:USER32.dll
 0002:00000538       __imp_OffsetRect           0000000180023538     user32:USER32.dll
 0002:00000540       __imp_UnionRect            0000000180023540     user32:USER32.dll
 0002:00000548       __imp_IntersectRect        0000000180023548     user32:USER32.dll
 0002:00000550       __imp_GetClientRect        0000000180023550     user32:USER32.dll
 0002:00000558       __imp_InvalidateRect       0000000180023558     user32:USER32.dll
 0002:00000560       __imp_SetWindowRgn         0000000180023560     user32:USER32.dll
 0002:00000568       __imp_EndPaint             0000000180023568     user32:USER32.dll
 0002:00000570       __imp_BeginPaint           0000000180023570     user32:USER32.dll
 0002:00000578       __imp_ReleaseDC            0000000180023578     user32:USER32.dll
 0002:00000580       __imp_GetDC                0000000180023580     user32:USER32.dll
 0002:00000588       __imp_GetKeyState          0000000180023588     user32:USER32.dll
 0002:00000590       __imp_GetFocus             0000000180023590     user32:USER32.dll
 0002:00000598       \177USER32_NULL_THUNK_DATA 0000000180023598     user32:USER32.dll
 0002:000005a0       __imp_CoCreateInstance     00000001800235a0     ole32:ole32.dll
 0002:000005a8       __imp_StringFromGUID2      00000001800235a8     ole32:ole32.dll
 0002:000005b0       __imp_CoTaskMemAlloc       00000001800235b0     ole32:ole32.dll
 0002:000005b8       __imp_CoTaskMemFree        00000001800235b8     ole32:ole32.dll
 0002:000005c0       __imp_ReadClassStm         00000001800235c0     ole32:ole32.dll
 0002:000005c8       __imp_WriteClassStm        00000001800235c8     ole32:ole32.dll
 0002:000005d0       __imp_CreateDataAdviseHolder 00000001800235d0     ole32:ole32.dll
 0002:000005d8       __imp_OleSaveToStream      00000001800235d8     ole32:ole32.dll
 0002:000005e0       __imp_CreateOleAdviseHolder 00000001800235e0     ole32:ole32.dll
 0002:000005e8       __imp_OleRegGetUserType    00000001800235e8     ole32:ole32.dll
 0002:000005f0       __imp_OleRegGetMiscStatus  00000001800235f0     ole32:ole32.dll
 0002:000005f8       __imp_OleRegEnumVerbs      00000001800235f8     ole32:ole32.dll
 0002:00000600       __imp_CLSIDFromProgID      0000000180023600     ole32:ole32.dll
 0002:00000608       __imp_CoTaskMemRealloc     0000000180023608     ole32:ole32.dll
 0002:00000610       \177ole32_NULL_THUNK_DATA  0000000180023610     ole32:ole32.dll
 0002:00000618       __guard_check_icall_fptr   0000000180023618     LIBCMT:guard_support.obj
 0002:00000620       __guard_xfg_check_icall_fptr 0000000180023620     LIBCMT:guard_support.obj
 0002:00000628       __guard_dispatch_icall_fptr 0000000180023628     LIBCMT:guard_support.obj
 0002:00000630       __guard_xfg_dispatch_icall_fptr 0000000180023630     LIBCMT:guard_support.obj
 0002:00000638       __guard_xfg_table_dispatch_icall_fptr 0000000180023638     LIBCMT:guard_support.obj
 0002:00000640       __xc_a                     0000000180023640     LIBCMT:initializers.obj
 0002:00000670       __xc_z                     0000000180023670     LIBCMT:initializers.obj
 0002:00000678       __xi_a                     0000000180023678     LIBCMT:initializers.obj
 0002:00000688       __acrt_stdio_initializer   0000000180023688     libucrt:stdio_initializer.obj
 0002:00000690       __acrt_multibyte_initializer 0000000180023690     libucrt:multibyte_initializer.obj
 0002:00000698       __acrt_tran_fma3_initializer 0000000180023698     libucrt:fma3_initializer.obj
 0002:000006a0       __xi_z                     00000001800236a0     LIBCMT:initializers.obj
 0002:000006a8       __xl_a                     00000001800236a8     LIBCMT:tlssup.obj
 0002:000006b0       __xl_z                     00000001800236b0     LIBCMT:tlssup.obj
 0002:000006b8       __xp_a                     00000001800236b8     LIBCMT:initializers.obj
 0002:000006c0       __acrt_locale_terminator   00000001800236c0     libucrt:locale_initializer.obj
 0002:000006c8       __dcrt_console_output_terminator 00000001800236c8     libucrt:console_output_initializer.obj
 0002:000006d0       __acrt_stdio_terminator    00000001800236d0     libucrt:stdio_initializer.obj
 0002:000006d8       __xp_z                     00000001800236d8     LIBCMT:initializers.obj
 0002:000006e0       __xt_a                     00000001800236e0     LIBCMT:initializers.obj
 0002:000006e8       __xt_z                     00000001800236e8     LIBCMT:initializers.obj
 0002:000006f0       ??_C@_13HADIAKP@?$AAS@     00000001800236f0     OposVariant.obj
 0002:000006f4       ??_C@_13LHMFKAAD@?$AAM@    00000001800236f4     OposVariant.obj
 0002:000006f8       ??_C@_13MKMNOPIJ@?$AAD@    00000001800236f8     OposVariant.obj
 0002:000006fc       ??_C@_13OPKGLAFF@?$AAB@    00000001800236fc     OposVariant.obj
 0002:00000700       ??_C@_17LLMMEOJD@?$AAV?$AAa?$AAl@ 0000000180023700     OposVariant.obj
 0002:00000708       ??_C@_1BI@JFAIJMHL@?$AAF?$AAo?$AAr?$AAc?$AAe?$AAR?$AAe?$AAm?$AAo?$AAv?$AAe@ 0000000180023708     OposVariant.obj
 0002:00000720       ??_C@_1BC@GCKHIPE@?$AAN?$AAo?$AAR?$AAe?$AAm?$AAo?$AAv?$AAe@ 0000000180023720     OposVariant.obj
 0002:00000738       ??_C@_1O@JDLOHAN@?$AAD?$AAe?$AAl?$AAe?$AAt?$AAe@ 0000000180023738     OposVariant.obj
 0002:00000748       ??_C@_11LOCGONAA@@         0000000180023748     OposVariant.obj
 0002:00000750       IID_IOPOSCoinDispenser_1_5 0000000180023750     CoinDispenser.obj
 0002:00000760       IID_IOPOSCoinDispenser_1_8 0000000180023760     CoinDispenser.obj
 0002:00000770       IID_IOPOSCoinDispenser_1_9 0000000180023770     CoinDispenser.obj
 0002:00000780       IID_IOPOSCoinDispenser_1_11 0000000180023780     CoinDispenser.obj
 0002:00000790       IID_IOPOSCoinDispenser     0000000180023790     CoinDispenser.obj
 0002:000007a0       LIBID_OposCoinDispenser_CCO 00000001800237a0     CoinDispenser.obj
 0002:000007b0       DIID__IOPOSCoinDispenserEvents 00000001800237b0     CoinDispenser.obj
 0002:000007c0       CLSID_OPOSCoinDispenser    00000001800237c0     CoinDispenser.obj
 0002:000007d0       _GUID_00000114_0000_0000_c000_000000000046 00000001800237d0     CoinDispenser.obj
 0002:000007e0       ??_C@_1BK@BIGILECK@?$AAA?$AAd?$AAv?$AAa?$AAp?$AAi?$AA3?$AA2?$AA?4?$AAd?$AAl?$AAl@ 00000001800237e0     CoinDispenser.obj
 0002:00000800       ??_C@_0BI@MNCFCPFK@RegCreateKeyTransactedW@ 0000000180023800     CoinDispenser.obj
 0002:00000818       _GUID_b196b287_bab4_101a_b69c_00aa00341d07 0000000180023818     CoinDispenser.obj
 0002:00000828       _GUID_b196b285_bab4_101a_b69c_00aa00341d07 0000000180023828     CoinDispenser.obj
 0002:00000838       _GUID_a6bc3ac0_dbaa_11ce_9de3_00aa004bb851 0000000180023838     CoinDispenser.obj
 0002:00000850       ?_entries@?1??_GetEntries@COPOSCoinDispenser@@SAPEBU_ATL_INTMAP_ENTRY@ATL@@XZ@4QBU34@B 0000000180023850     CoinDispenser.obj
 0002:00000ad8       _GUID_0000010c_0000_0000_c000_000000000046 0000000180023ad8     CoinDispenser.obj
 0002:00000ae8       _GUID_cf51ed10_62fe_11cf_bf86_00a0c9034836 0000000180023ae8     CoinDispenser.obj
 0002:00000af8       _GUID_0000010a_0000_0000_c000_000000000046 0000000180023af8     CoinDispenser.obj
 0002:00000b08       _GUID_00000146_0000_0000_c000_000000000046 0000000180023b08     CoinDispenser.obj
 0002:00000b18       _GUID_b196b283_bab4_101a_b69c_00aa00341d07 0000000180023b18     CoinDispenser.obj
 0002:00000b28       _GUID_cb5bdc81_93c1_11cf_8f20_00805f2cd064 0000000180023b28     CoinDispenser.obj
 0002:00000b40       ?pPropMap@?1??GetPropertyMap@COPOSCoinDispenser@@SAPEBUATL_PROPMAP_ENTRY@ATL@@XZ@4QBU34@B 0000000180023b40     CoinDispenser.obj
 0002:00000be8       ??_C@_17DGDADEHL@?$AA_?$AAc?$AAx@ 0000000180023be8     CoinDispenser.obj
 0002:00000bf0       ??_C@_17IOIMFDBO@?$AA_?$AAc?$AAy@ 0000000180023bf0     CoinDispenser.obj
 0002:00000bf8       ??_7?$CComObjectCached@VCComClassFactory@ATL@@@ATL@@6B@ 0000000180023bf8     CoinDispenser.obj
 0002:00000c28       _GUID_922eada0_3424_11cf_b670_00aa004cd6d8 0000000180023c28     CoinDispenser.obj
 0002:00000c38       _GUID_9c2cad80_3424_11cf_b670_00aa004cd6d8 0000000180023c38     CoinDispenser.obj
 0002:00000c48       _GUID_00000119_0000_0000_c000_000000000046 0000000180023c48     CoinDispenser.obj
 0002:00000c58       _GUID_b196b289_bab4_101a_b69c_00aa00341d07 0000000180023c58     CoinDispenser.obj
 0002:00000c68       ??_C@_1CE@PGFMOFKI@?$AAS?$AAt?$AAa?$AAt?$AAu?$AAs?$AAU?$AAp?$AAd?$AAa?$AAt?$AAe?$AAE?$AAv?$AAe@ 0000000180023c68     CoinDispenser.obj
 0002:00000c90       ??_C@_1BM@CBGEBBBJ@?$AAD?$AAi?$AAr?$AAe?$AAc?$AAt?$AAI?$AAO?$AAE?$AAv?$AAe?$AAn?$AAt@ 0000000180023c90     CoinDispenser.obj
 0002:00000cb0       _GUID_b196b286_bab4_101a_b69c_00aa00341d07 0000000180023cb0     CoinDispenser.obj
 0002:00000cc0       ??_7CComModule@ATL@@6B@    0000000180023cc0     CoinDispenser.obj
 0002:00000d10       _GUID_00000117_0000_0000_c000_000000000046 0000000180023d10     CoinDispenser.obj
 0002:00000d20       ??_C@_1BC@ENICKDH@?$AAC?$AAo?$AAn?$AAt?$AAe?$AAn?$AAt?$AAs@ 0000000180023d20     CoinDispenser.obj
 0002:00000d38       _GUID_00000000_0000_0000_c000_000000000046 0000000180023d38     CoinDispenser.obj
 0002:00000d48       _GUID_00020400_0000_0000_c000_000000000046 0000000180023d48     CoinDispenser.obj
 0002:00000d58       ??_7?$CComObject@V?$CComEnum@UIEnumConnectionPoints@@$1?_GUID_b196b285_bab4_101a_b69c_00aa00341d07@@3U__s_GUID@@BPEAUIConnectionPoint@@V?$_CopyInterface@UIConnectionPoint@@@ATL@@VCComSingleThreadModel@6@@ATL@@@ATL@@6B@ 0000000180023d58     CoinDispenser.obj
 0002:00000d98       ??_C@_1M@KANJNLFF@?$AAC?$AAL?$AAS?$AAI?$AAD@ 0000000180023d98     CoinDispenser.obj
 0002:00000da8       _GUID_0000010e_0000_0000_c000_000000000046 0000000180023da8     CoinDispenser.obj
 0002:00000db8       _GUID_b196b288_bab4_101a_b69c_00aa00341d07 0000000180023db8     CoinDispenser.obj
 0002:00000dc8       ??_C@_1M@EJNEECMJ@?$AAA?$AAp?$AAp?$AAI?$AAD@ 0000000180023dc8     CoinDispenser.obj
 0002:00000de0       ?rgszNeverDelete@CRegParser@ATL@@1QBQEB_WB 0000000180023de0     CoinDispenser.obj
 0002:00000e40       _GUID_00000113_0000_0000_c000_000000000046 0000000180023e40     CoinDispenser.obj
 0002:00000e50       ??_7CRegObject@ATL@@6B@    0000000180023e50     CoinDispenser.obj
 0002:00000e80       _GUID_1c2056cc_5ef4_101b_8bc8_00aa003e3b29 0000000180023e80     CoinDispenser.obj
 0002:00000e90       ??_C@_1CK@OEKPKBNA@?$AAC?$AAo?$AAm?$AAp?$AAo?$AAn?$AAe?$AAn?$AAt?$AA?5?$AAC?$AAa?$AAt?$AAe?$AAg@ 0000000180023e90     CoinDispenser.obj
 0002:00000ec0       ??_C@_1BC@NKMMNMGL@?$AAF?$AAi?$AAl?$AAe?$AAT?$AAy?$AAp?$AAe@ 0000000180023ec0     CoinDispenser.obj
 0002:00000ed8       ??_C@_1BE@EKPAFMCP@?$AAI?$AAn?$AAt?$AAe?$AAr?$AAf?$AAa?$AAc?$AAe@ 0000000180023ed8     CoinDispenser.obj
 0002:00000ef0       ??_C@_1BC@MAICEHGI@?$AAH?$AAa?$AAr?$AAd?$AAw?$AAa?$AAr?$AAe@ 0000000180023ef0     CoinDispenser.obj
 0002:00000f08       ??_C@_19HLLLM@?$AAM?$AAi?$AAm?$AAe@ 0000000180023f08     CoinDispenser.obj
 0002:00000f18       ??_C@_17OMAOINJK@?$AAS?$AAA?$AAM@ 0000000180023f18     CoinDispenser.obj
 0002:00000f20       ??_C@_1BC@IBECJAAI@?$AAS?$AAE?$AAC?$AAU?$AAR?$AAI?$AAT?$AAY@ 0000000180023f20     CoinDispenser.obj
 0002:00000f38       ??_C@_1O@GBFINDKL@?$AAS?$AAY?$AAS?$AAT?$AAE?$AAM@ 0000000180023f38     CoinDispenser.obj
 0002:00000f48       ??_C@_1BC@EAHCMADO@?$AAS?$AAo?$AAf?$AAt?$AAw?$AAa?$AAr?$AAe@ 0000000180023f48     CoinDispenser.obj
 0002:00000f60       ??_C@_1BA@JIHHIEDE@?$AAT?$AAy?$AAp?$AAe?$AAL?$AAi?$AAb@ 0000000180023f60     CoinDispenser.obj
 0002:00000f70       _GUID_00000112_0000_0000_c000_000000000046 0000000180023f70     CoinDispenser.obj
 0002:00000f80       ?map@?1??HKeyFromString@CRegParser@ATL@@KAPEAUHKEY__@@PEA_W@Z@4QBUkeymap@?1??123@KAPEAU4@0@Z@B 0000000180023f80     CoinDispenser.obj
 0002:00001060       ??_C@_19NCHLBIN@?$AAH?$AAK?$AAC?$AAR@ 0000000180024060     CoinDispenser.obj
 0002:00001070       ??_C@_19JAPAIJDE@?$AAH?$AAK?$AAC?$AAU@ 0000000180024070     CoinDispenser.obj
 0002:00001080       ??_C@_19PEALEEJB@?$AAH?$AAK?$AAL?$AAM@ 0000000180024080     CoinDispenser.obj
 0002:00001090       ??_C@_17PJOJPMPB@?$AAH?$AAK?$AAU@ 0000000180024090     CoinDispenser.obj
 0002:00001098       ??_C@_19PNBHMJPL@?$AAH?$AAK?$AAP?$AAD@ 0000000180024098     CoinDispenser.obj
 0002:000010a8       ??_C@_19GFFAIJHG@?$AAH?$AAK?$AAD?$AAD@ 00000001800240a8     CoinDispenser.obj
 0002:000010b8       ??_C@_19OFICIBHH@?$AAH?$AAK?$AAC?$AAC@ 00000001800240b8     CoinDispenser.obj
 0002:000010c8       ??_C@_1CE@PACHPJFI@?$AAH?$AAK?$AAE?$AAY?$AA_?$AAC?$AAL?$AAA?$AAS?$AAS?$AAE?$AAS?$AA_?$AAR?$AAO@ 00000001800240c8     CoinDispenser.obj
 0002:000010f0       ??_C@_1CE@HLHNCBPM@?$AAH?$AAK?$AAE?$AAY?$AA_?$AAC?$AAU?$AAR?$AAR?$AAE?$AAN?$AAT?$AA_?$AAU?$AAS@ 00000001800240f0     CoinDispenser.obj
 0002:00001118       ??_C@_1CG@GFBEANJL@?$AAH?$AAK?$AAE?$AAY?$AA_?$AAL?$AAO?$AAC?$AAA?$AAL?$AA_?$AAM?$AAA?$AAC?$AAH@ 0000000180024118     CoinDispenser.obj
 0002:00001140       ??_C@_1BG@BGODANIO@?$AAH?$AAK?$AAE?$AAY?$AA_?$AAU?$AAS?$AAE?$AAR?$AAS@ 0000000180024140     CoinDispenser.obj
 0002:00001158       ??_C@_1CM@KHNNAOIC@?$AAH?$AAK?$AAE?$AAY?$AA_?$AAP?$AAE?$AAR?$AAF?$AAO?$AAR?$AAM?$AAA?$AAN?$AAC@ 0000000180024158     CoinDispenser.obj
 0002:00001188       _GUID_3af24292_0c96_11ce_a0cf_00aa00600ab8 0000000180024188     CoinDispenser.obj
 0002:00001198       ??_C@_1BM@HAGMMHIA@?$AAH?$AAK?$AAE?$AAY?$AA_?$AAD?$AAY?$AAN?$AA_?$AAD?$AAA?$AAT?$AAA@ 0000000180024198     CoinDispenser.obj
 0002:000011b8       ??_C@_1CI@BBJOACGG@?$AAH?$AAK?$AAE?$AAY?$AA_?$AAC?$AAU?$AAR?$AAR?$AAE?$AAN?$AAT?$AA_?$AAC?$AAO@ 00000001800241b8     CoinDispenser.obj
 0002:000011e0       _GUID_00000127_0000_0000_c000_000000000046 00000001800241e0     CoinDispenser.obj
 0002:000011f0       _GUID_0000010d_0000_0000_c000_000000000046 00000001800241f0     CoinDispenser.obj
 0002:00001200       _GUID_00000109_0000_0000_c000_000000000046 0000000180024200     CoinDispenser.obj
 0002:00001210       ??_C@_1M@PPPPCDEP@?$AAA?$AAP?$AAP?$AAI?$AAD@ 0000000180024210     CoinDispenser.obj
 0002:00001220       _GUID_7fd52380_4e07_101b_ae2d_08002b2ec713 0000000180024220     CoinDispenser.obj
 0002:00001230       ??_C@_1EA@NHKLICFA@?$AAH?$AAK?$AAC?$AAU?$AA?$AN?$AA?6?$AA?$HL?$AA?7?$AAS?$AAo?$AAf?$AAt?$AAw?$AAa?$AAr@ 0000000180024230     CoinDispenser.obj
 0002:00001270       ??_C@_1BE@LJOLIMEM@?$AA?$AN?$AA?6?$AA?7?$AA?$HN?$AA?$AN?$AA?6?$AA?$HN?$AA?$AN?$AA?6@ 0000000180024270     CoinDispenser.obj
 0002:00001288       ??_7?$CComContainedObject@VCOPOSCoinDispenser@@@ATL@@6B?$IDispatchImpl@UIOPOSCoinDispenser@@$1?IID_IOPOSCoinDispenser@@3U_GUID@@B$1?LIBID_OposCoinDispenser_CCO@@3U3@B$00$0A@VCComTypeInfoHolder@ATL@@@1@@ 0000000180024288     CoinDispenser.obj
 0002:00001450       ??_7?$CComContainedObject@VCOPOSCoinDispenser@@@ATL@@6BCComControlBase@1@@ 0000000180024450     CoinDispenser.obj
 0002:00001478       ??_7?$CComContainedObject@VCOPOSCoinDispenser@@@ATL@@6B?$CWindowImpl@VCOPOSCoinDispenser@@VCWindow@ATL@@V?$CWinTraits@$0FGAAAAAA@$0A@@3@@1@@ 0000000180024478     CoinDispenser.obj
 0002:00001498       ??_7?$CComContainedObject@VCOPOSCoinDispenser@@@ATL@@6B?$IPersistStreamInitImpl@VCOPOSCoinDispenser@@@1@@ 0000000180024498     CoinDispenser.obj
 0002:000014e0       ??_7?$CComContainedObject@VCOPOSCoinDispenser@@@ATL@@6B?$IOleControlImpl@VCOPOSCoinDispenser@@@1@@ 00000001800244e0     CoinDispenser.obj
 0002:00001518       ??_7?$CComContainedObject@VCOPOSCoinDispenser@@@ATL@@6B?$IOleObjectImpl@VCOPOSCoinDispenser@@@1@@ 0000000180024518     CoinDispenser.obj
 0002:000015d8       ??_7?$CComContainedObject@VCOPOSCoinDispenser@@@ATL@@6B?$IOleInPlaceActiveObjectImpl@VCOPOSCoinDispenser@@@1@@ 00000001800245d8     CoinDispenser.obj
 0002:00001628       ??_7?$CComContainedObject@VCOPOSCoinDispenser@@@ATL@@6B?$IViewObjectExImpl@VCOPOSCoinDispenser@@@1@@ 0000000180024628     CoinDispenser.obj
 0002:000016a0       ??_7?$CComContainedObject@VCOPOSCoinDispenser@@@ATL@@6B?$IOleInPlaceObjectWindowlessImpl@VCOPOSCoinDispenser@@@1@@ 00000001800246a0     CoinDispenser.obj
 0002:000016f8       ??_7?$CComContainedObject@VCOPOSCoinDispenser@@@ATL@@6B?$IConnectionPointContainerImpl@VCOPOSCoinDispenser@@@1@@ 00000001800246f8     CoinDispenser.obj
 0002:00001720       ??_7?$CComContainedObject@VCOPOSCoinDispenser@@@ATL@@6B?$IPersistStorageImpl@VCOPOSCoinDispenser@@@1@@ 0000000180024720     CoinDispenser.obj
 0002:00001770       ??_7?$CComContainedObject@VCOPOSCoinDispenser@@@ATL@@6B?$ISpecifyPropertyPagesImpl@VCOPOSCoinDispenser@@@1@@ 0000000180024770     CoinDispenser.obj
 0002:00001790       ??_7?$CComContainedObject@VCOPOSCoinDispenser@@@ATL@@6B?$IQuickActivateImpl@VCOPOSCoinDispenser@@@1@@ 0000000180024790     CoinDispenser.obj
 0002:000017c0       ??_7?$CComContainedObject@VCOPOSCoinDispenser@@@ATL@@6B?$IDataObjectImpl@VCOPOSCoinDispenser@@@1@@ 00000001800247c0     CoinDispenser.obj
 0002:00001820       ??_7?$CComContainedObject@VCOPOSCoinDispenser@@@ATL@@6B?$IProvideClassInfo2Impl@$1?CLSID_OPOSCoinDispenser@@3U_GUID@@B$1?DIID__IOPOSCoinDispenserEvents@@3U2@B$1?LIBID_OposCoinDispenser_CCO@@3U2@B$00$0A@VCComTypeInfoHolder@ATL@@@1@@ 0000000180024820     CoinDispenser.obj
 0002:00001848       ??_7?$CComContainedObject@VCOPOSCoinDispenser@@@ATL@@6B?$IObjectSafetyImpl@VCOPOSCoinDispenser@@$02@1@@ 0000000180024848     CoinDispenser.obj
 0002:00001878       ??_7?$CComContainedObject@VCOPOSCoinDispenser@@@ATL@@6B?$IPropertyNotifySinkCP@VCOPOSCoinDispenser@@VCComDynamicUnkArray@ATL@@@1@@ 0000000180024878     CoinDispenser.obj
 0002:000018b8       ??_7?$CComContainedObject@VCOPOSCoinDispenser@@@ATL@@6B?$CProxy_IOPOSEvents@VCOPOSCoinDispenser@@@@@ 00000001800248b8     CoinDispenser.obj
 0002:000018f8       ??_7?$CComAggObject@VCOPOSCoinDispenser@@@ATL@@6B@ 00000001800248f8     CoinDispenser.obj
 0002:00001918       ??_7?$CComObject@VCOPOSCoinDispenser@@@ATL@@6B?$IDispatchImpl@UIOPOSCoinDispenser@@$1?IID_IOPOSCoinDispenser@@3U_GUID@@B$1?LIBID_OposCoinDispenser_CCO@@3U3@B$00$0A@VCComTypeInfoHolder@ATL@@@1@@ 0000000180024918     CoinDispenser.obj
 0002:00001ae0       ??_C@_1O@MNLDABAF@?$AAM?$AAo?$AAd?$AAu?$AAl?$AAe@ 0000000180024ae0     CoinDispenser.obj
 0002:00001af0       ??_7?$CComObject@VCOPOSCoinDispenser@@@ATL@@6BCComControlBase@1@@ 0000000180024af0     CoinDispenser.obj
 0002:00001b18       ??_C@_1BG@JBACFMF@?$AAM?$AAo?$AAd?$AAu?$AAl?$AAe?$AA_?$AAR?$AAa?$AAw@ 0000000180024b18     CoinDispenser.obj
 0002:00001b30       ??_7?$CComObject@VCOPOSCoinDispenser@@@ATL@@6B?$CWindowImpl@VCOPOSCoinDispenser@@VCWindow@ATL@@V?$CWinTraits@$0FGAAAAAA@$0A@@3@@1@@ 0000000180024b30     CoinDispenser.obj
 0002:00001b50       ??_7?$CComObject@VCOPOSCoinDispenser@@@ATL@@6B?$IPersistStreamInitImpl@VCOPOSCoinDispenser@@@1@@ 0000000180024b50     CoinDispenser.obj
 0002:00001b98       ??_C@_1BC@KAILKFFG@?$AAR?$AAE?$AAG?$AAI?$AAS?$AAT?$AAR?$AAY@ 0000000180024b98     CoinDispenser.obj
 0002:00001bb0       ??_7?$CComObject@VCOPOSCoinDispenser@@@ATL@@6B?$IOleControlImpl@VCOPOSCoinDispenser@@@1@@ 0000000180024bb0     CoinDispenser.obj
 0002:00001be8       ??_7?$CComObject@VCOPOSCoinDispenser@@@ATL@@6B?$IOleObjectImpl@VCOPOSCoinDispenser@@@1@@ 0000000180024be8     CoinDispenser.obj
 0002:00001ca8       ??_7?$CComObject@VCOPOSCoinDispenser@@@ATL@@6B?$IOleInPlaceActiveObjectImpl@VCOPOSCoinDispenser@@@1@@ 0000000180024ca8     CoinDispenser.obj
 0002:00001cf8       ??_7?$CComObject@VCOPOSCoinDispenser@@@ATL@@6B?$IViewObjectExImpl@VCOPOSCoinDispenser@@@1@@ 0000000180024cf8     CoinDispenser.obj
 0002:00001d70       ??_7?$CComObject@VCOPOSCoinDispenser@@@ATL@@6B?$IOleInPlaceObjectWindowlessImpl@VCOPOSCoinDispenser@@@1@@ 0000000180024d70     CoinDispenser.obj
 0002:00001dc8       ??_7?$CComObject@VCOPOSCoinDispenser@@@ATL@@6B?$IConnectionPointContainerImpl@VCOPOSCoinDispenser@@@1@@ 0000000180024dc8     CoinDispenser.obj
 0002:00001df0       ??_7?$CComObject@VCOPOSCoinDispenser@@@ATL@@6B?$IPersistStorageImpl@VCOPOSCoinDispenser@@@1@@ 0000000180024df0     CoinDispenser.obj
 0002:00001e40       ??_7?$CComObject@VCOPOSCoinDispenser@@@ATL@@6B?$ISpecifyPropertyPagesImpl@VCOPOSCoinDispenser@@@1@@ 0000000180024e40     CoinDispenser.obj
 0002:00001e60       ??_7?$CComObject@VCOPOSCoinDispenser@@@ATL@@6B?$IQuickActivateImpl@VCOPOSCoinDispenser@@@1@@ 0000000180024e60     CoinDispenser.obj
 0002:00001e90       ??_7?$CComObject@VCOPOSCoinDispenser@@@ATL@@6B?$IDataObjectImpl@VCOPOSCoinDispenser@@@1@@ 0000000180024e90     CoinDispenser.obj
 0002:00001ef0       ??_7?$CComObject@VCOPOSCoinDispenser@@@ATL@@6B?$IProvideClassInfo2Impl@$1?CLSID_OPOSCoinDispenser@@3U_GUID@@B$1?DIID__IOPOSCoinDispenserEvents@@3U2@B$1?LIBID_OposCoinDispenser_CCO@@3U2@B$00$0A@VCComTypeInfoHolder@ATL@@@1@@ 0000000180024ef0     CoinDispenser.obj
 0002:00001f18       ??_7?$CComObject@VCOPOSCoinDispenser@@@ATL@@6B?$IObjectSafetyImpl@VCOPOSCoinDispenser@@$02@1@@ 0000000180024f18     CoinDispenser.obj
 0002:00001f48       ??_7?$CComObject@VCOPOSCoinDispenser@@@ATL@@6B?$IPropertyNotifySinkCP@VCOPOSCoinDispenser@@VCComDynamicUnkArray@ATL@@@1@@ 0000000180024f48     CoinDispenser.obj
 0002:00001f88       ??_7?$CComObject@VCOPOSCoinDispenser@@@ATL@@6B?$CProxy_IOPOSEvents@VCOPOSCoinDispenser@@@@@ 0000000180024f88     CoinDispenser.obj
 0002:00001fc8       ??_C@_1O@GBFKGNEO@?$AAA?$AAT?$AAL?$AA?3?$AA?$CF?$AAp@ 0000000180024fc8     CoinDispenser.obj
 0002:00001fd8       ??_C@_1BA@PICGEGJB@?$AAD?$AAI?$AAS?$AAP?$AAL?$AAA?$AAY@ 0000000180024fd8     CoinDispenser.obj
 0002:00001fe8       _GUID_9bfbbc02_eff1_101a_84ed_00aa00341d07 0000000180024fe8     CoinDispenser.obj
 0002:00001ff8       ?_entries@?1??_GetEntries@?$CComEnum@UIEnumConnectionPoints@@$1?_GUID_b196b285_bab4_101a_b69c_00aa00341d07@@3U__s_GUID@@BPEAUIConnectionPoint@@V?$_CopyInterface@UIConnectionPoint@@@ATL@@VCComSingleThreadModel@6@@ATL@@SAPEBU_ATL_INTMAP_ENTRY@3@XZ@4QBU43@B 0000000180024ff8     CoinDispenser.obj
 0002:00002028       _GUID_b196b284_bab4_101a_b69c_00aa00341d07 0000000180025028     CoinDispenser.obj
 0002:00002038       _GUID_00020412_0000_0000_c000_000000000046 0000000180025038     CoinDispenser.obj
 0002:00002048       _GUID_00020401_0000_0000_c000_000000000046 0000000180025048     CoinDispenser.obj
 0002:00002058       ??_7?$CComObject@V?$CComEnum@UIEnumConnections@@$1?_GUID_b196b287_bab4_101a_b69c_00aa00341d07@@3U__s_GUID@@BUtagCONNECTDATA@@V?$_Copy@UtagCONNECTDATA@@@ATL@@VCComSingleThreadModel@6@@ATL@@@ATL@@6B@ 0000000180025058     CoinDispenser.obj
 0002:00002098       _GUID_55980ba0_35aa_11cf_b671_00aa004cd6d8 0000000180025098     CoinDispenser.obj
 0002:000020a8       _GUID_b196b28b_bab4_101a_b69c_00aa00341d07 00000001800250a8     CoinDispenser.obj
 0002:000020b8       ?_entries@?1??_GetEntries@?$CComEnum@UIEnumConnections@@$1?_GUID_b196b287_bab4_101a_b69c_00aa00341d07@@3U__s_GUID@@BUtagCONNECTDATA@@V?$_Copy@UtagCONNECTDATA@@@ATL@@VCComSingleThreadModel@6@@ATL@@SAPEBU_ATL_INTMAP_ENTRY@3@XZ@4QBU43@B 00000001800250b8     CoinDispenser.obj
 0002:000020e8       ??_7CComClassFactory@ATL@@6B@ 00000001800250e8     CoinDispenser.obj
 0002:00002118       ?_entries@?1??_GetEntries@CComClassFactory@ATL@@SAPEBU_ATL_INTMAP_ENTRY@3@XZ@4QBU43@B 0000000180025118     CoinDispenser.obj
 0002:00002148       _GUID_00000001_0000_0000_c000_000000000046 0000000180025148     CoinDispenser.obj
 0002:00002158       ??_C@_0BG@EKFFMJIO@RegOpenKeyTransactedW@ 0000000180025158     CoinDispenser.obj
 0002:00002170       ??_C@_0BI@HAKLOOGP@RegDeleteKeyTransactedW@ 0000000180025170     CoinDispenser.obj
 0002:00002188       ??_C@_0BA@LILAPHGE@RegDeleteKeyExW@ 0000000180025188     CoinDispenser.obj
 0002:00002198       ??_C@_19ILOCMLCJ@?$AA?4?$AAt?$AAl?$AAb@ 0000000180025198     CoinDispenser.obj
 0002:000021a8       _GUID_0002e012_0000_0000_c000_000000000046 00000001800251a8     CoinDispenser.obj
 0002:000021b8       ??_C@_1O@FHBGLCIO@?$AAC?$AAL?$AAS?$AAI?$AAD?$AA?2@ 00000001800251b8     CoinDispenser.obj
 0002:000021c8       ??_C@_1CK@IFBKBFAA@?$AA?2?$AAR?$AAe?$AAq?$AAu?$AAi?$AAr?$AAe?$AAd?$AA?5?$AAC?$AAa?$AAt?$AAe?$AAg@ 00000001800251c8     CoinDispenser.obj
 0002:000021f8       ??_C@_1DA@BIHALFED@?$AA?2?$AAI?$AAm?$AAp?$AAl?$AAe?$AAm?$AAe?$AAn?$AAt?$AAe?$AAd?$AA?5?$AAC?$AAa@ 00000001800251f8     CoinDispenser.obj
 0002:00002228       ??_C@_1BK@EDKOLFBJ@?$AAO?$AAL?$AAE?$AAA?$AAU?$AAT?$AA3?$AA2?$AA?4?$AAD?$AAL?$AAL@ 0000000180025228     CoinDispenser.obj
 0002:00002248       ??_C@_0BJ@CNLFOMHB@UnRegisterTypeLibForUser@ 0000000180025248     CoinDispenser.obj
 0002:00002268       ??_C@_0BH@LBOMMKPJ@RegisterTypeLibForUser@ 0000000180025268     CoinDispenser.obj
 0002:00002280       ??_C@_0P@MMNMMLGK@COFreezeEvents@ 0000000180025280     CoinDispenserImpl.obj
 0002:00002290       ??_C@_0BC@OGCGGIMP@GetPropertyNumber@ 0000000180025290     CoinDispenserImpl.obj
 0002:000022a8       ??_C@_0BC@MDCNODNB@SetPropertyNumber@ 00000001800252a8     CoinDispenserImpl.obj
 0002:000022c0       ??_C@_0BC@CFCCMIMD@GetPropertyString@ 00000001800252c0     CoinDispenserImpl.obj
 0002:000022d8       ??_C@_0BC@CJEDNN@SetPropertyString@ 00000001800252d8     CoinDispenserImpl.obj
 0002:000022f0       ??_C@_0M@LNPKKKDA@OpenService@ 00000001800252f0     CoinDispenserImpl.obj
 0002:00002300       ??_C@_0M@PCMCHHMH@CheckHealth@ 0000000180025300     CoinDispenserImpl.obj
 0002:00002310       ??_C@_0M@JGMIDNEK@ClaimDevice@ 0000000180025310     CoinDispenserImpl.obj
 0002:00002320       ??_C@_0N@DDFIIBMP@CloseService@ 0000000180025320     CoinDispenserImpl.obj
 0002:00002330       ??_C@_08EEIHICPC@DirectIO@ 0000000180025330     CoinDispenserImpl.obj
 0002:00002340       ??_C@_0O@BCPMENMJ@ReleaseDevice@ 0000000180025340     CoinDispenserImpl.obj
 0002:00002350       ??_C@_0P@GNCBCCPO@DispenseChange@ 0000000180025350     CoinDispenserImpl.obj
 0002:00002360       ??_C@_0BA@GFABKEEE@ResetStatistics@ 0000000180025360     CoinDispenserImpl.obj
 0002:00002370       ??_C@_0BD@DPALHJGC@RetrieveStatistics@ 0000000180025370     CoinDispenserImpl.obj
 0002:00002388       ??_C@_0BB@KOHIKNFC@UpdateStatistics@ 0000000180025388     CoinDispenserImpl.obj
 0002:000023a0       ??_C@_0BH@PBKBNMGB@CompareFirmwareVersion@ 00000001800253a0     CoinDispenserImpl.obj
 0002:000023b8       ??_C@_0P@FBPDPIPA@UpdateFirmware@ 00000001800253b8     CoinDispenserImpl.obj
 0002:000023c8       ??_C@_0BB@OAMAKNAK@AdjustCashCounts@ 00000001800253c8     CoinDispenserImpl.obj
 0002:000023e0       ??_C@_0P@HELDJPLA@ReadCashCounts@ 00000001800253e0     CoinDispenserImpl.obj
 0002:000023f0       ??_7?$CProxy_IOPOSEvents@VCOPOSCoinDispenser@@@@6B@ 00000001800253f0     CoinDispenserImpl.obj
 0002:00002430       ??_C@_1BA@IFHENID@?$AA?$FL?$AAE?$AAr?$AAr?$AAo?$AAr?$AA?$FN@ 0000000180025430     CoinDispenserImpl.obj
 0002:00002440       ??_C@_0DA@HMMGFBHA@SOFTWARE?2OLEforRetail?2ServiceOP@ 0000000180025440     CoinDispenserImpl.obj
 0002:00002470       ??_C@_1M@IAIJHCCH@?$AAC?$AAl?$AAo?$AAs?$AAe@ 0000000180025470     CoinDispenserImpl.obj
 0002:00002480       ??_C@_1M@PCPKGJAH@?$AAC?$AAl?$AAa?$AAi?$AAm@ 0000000180025480     CoinDispenserImpl.obj
 0002:00002490       ??_C@_1BA@NDFKIOCP@?$AAR?$AAe?$AAl?$AAe?$AAa?$AAs?$AAe@ 0000000180025490     CoinDispenserImpl.obj
 0002:000024a0       ??_C@_0O@HAMECMKL@CoinDispenser@ 00000001800254a0     CoinDispenserImpl.obj
 0002:000024b0       ??_C@_1BM@IJMNMBPK@?$AAG?$AAe?$AAt?$AAO?$AAp?$AAe?$AAn?$AAR?$AAe?$AAs?$AAu?$AAl?$AAt@ 00000001800254b0     CoinDispenserImpl.obj
 0002:000024d0       IID_IDispatch              00000001800254d0     uuid:oaidl_i.obj
 0002:000024e0       IID_IPropertyNotifySink    00000001800254e0     uuid:ocidl_i.obj
 0002:000024f0       GUID_NULL                  00000001800254f0     uuid:cguid_i.obj
 0002:00002500       CLSID_StdGlobalInterfaceTable 0000000180025500     uuid:cguid_i.obj
 0002:00002510       CLSID_StdComponentCategoriesMgr 0000000180025510     uuid:ieguids.obj
 0002:00002520       IID_IUnknown               0000000180025520     uuid:unknwn_i.obj
 0002:00002530       __xmm@ffffffffffffffffffffffffffffffff 0000000180025530     LIBCMT:utility.obj
 0002:00002540       ??_C@_1EC@JIJBPKFM@?$AAa?$AAp?$AAi?$AA?9?$AAm?$AAs?$AA?9?$AAw?$AAi?$AAn?$AA?9?$AAc?$AAo?$AAr?$AAe@ 0000000180025540     LIBCMT:thread_safe_statics.obj
 0002:00002588       ??_C@_1BK@MGMFAEKH@?$AAk?$AAe?$AAr?$AAn?$AAe?$AAl?$AA3?$AA2?$AA?4?$AAd?$AAl?$AAl@ 0000000180025588     LIBCMT:thread_safe_statics.obj
 0002:000025a8       ??_C@_0BJ@JEBJOJFJ@SleepConditionVariableCS@ 00000001800255a8     LIBCMT:thread_safe_statics.obj
 0002:000025c8       ??_C@_0BJ@PGPPEPCC@WakeAllConditionVariable@ 00000001800255c8     LIBCMT:thread_safe_statics.obj
 0002:000025e1       ?nothrow@std@@3Unothrow_t@1@B 00000001800255e1     LIBCMT:std_nothrow.obj
 0002:000025f8       _pRawDllMain               00000001800255f8     LIBCMT:dll_dllmain.obj
 0002:000025f8       _pDefaultRawDllMain        00000001800255f8     LIBCMT:dll_dllmain.obj
 0002:00002608       ??_7exception@std@@6B@     0000000180025608     LIBCMT:throw_bad_alloc.obj
 0002:00002618       ??_C@_0BC@EOODALEL@Unknown?5exception@ 0000000180025618     LIBCMT:throw_bad_alloc.obj
 0002:00002638       ??_7bad_alloc@std@@6B@     0000000180025638     LIBCMT:throw_bad_alloc.obj
 0002:00002648       ??_C@_0P@GHFPNOJB@bad?5allocation@ 0000000180025648     LIBCMT:throw_bad_alloc.obj
 0002:00002660       ??_7bad_array_new_length@std@@6B@ 0000000180025660     LIBCMT:throw_bad_alloc.obj
 0002:00002670       ??_C@_0BF@KINCDENJ@bad?5array?5new?5length@ 0000000180025670     LIBCMT:throw_bad_alloc.obj
 0002:00002690       ??_7type_info@@6B@         0000000180025690     LIBCMT:std_type_info_static.obj
 0002:00002698       GUID_ATLVer110             0000000180025698     atls:atlbase.obj
 0002:000026b0       ??_C@_1IC@ONKHOIDK@?$AAE?$AAR?$AAR?$AAO?$AAR?$AA?5?$AA?3?$AA?5?$AAU?$AAn?$AAa?$AAb?$AAl?$AAe?$AA?5@ 00000001800256b0     atls:atlbase.obj
 0002:00002738       ??_C@_0N@FJEPLCIH@atlthunk?4dll@ 0000000180025738     atls:atlthunk.obj
 0002:00002748       ??_C@_0BG@GAKFHCBM@AtlThunk_AllocateData@ 0000000180025748     atls:atlthunk.obj
 0002:00002760       ??_C@_0BC@JKONFIAH@AtlThunk_InitData@ 0000000180025760     atls:atlthunk.obj
 0002:00002778       ??_C@_0BE@IAOEELAK@AtlThunk_DataToCode@ 0000000180025778     atls:atlthunk.obj
 0002:00002790       ??_C@_0BC@GBGKAIPI@AtlThunk_FreeData@ 0000000180025790     atls:atlthunk.obj
 0002:000027a8       ?s_negLengthTab@FH4@@3QBCB 00000001800257a8     libvcruntime:risctrnsctrl.obj
 0002:000027b8       ?s_shiftTab@FH4@@3QBEB     00000001800257b8     libvcruntime:risctrnsctrl.obj
 0002:00002868       _pDestructExceptionObject  0000000180025868     libvcruntime:ehhelpers.obj
 0002:00002878       ??_7bad_exception@std@@6B@ 0000000180025878     libvcruntime:frame.obj
 0002:00002888       ??_C@_0O@DPKOEFFH@bad?5exception@ 0000000180025888     libvcruntime:frame.obj
 0002:00002fa0       ??_C@_08EHJDFFNH@__based?$CI@ 0000000180025fa0     libvcruntime:undname.obj
 0002:00002fb0       ??_C@_07KOLFKCDI@__cdecl@  0000000180025fb0     libvcruntime:undname.obj
 0002:00002fb8       ??_C@_08GHMPAG@__pascal@   0000000180025fb8     libvcruntime:undname.obj
 0002:00002fc8       ??_C@_09IFJBGAPI@__stdcall@ 0000000180025fc8     libvcruntime:undname.obj
 0002:00002fd8       ??_C@_0L@NPHFGOKO@__thiscall@ 0000000180025fd8     libvcruntime:undname.obj
 0002:00002fe8       ??_C@_0L@JMKHOMEK@__fastcall@ 0000000180025fe8     libvcruntime:undname.obj
 0002:00002ff8       ??_C@_0N@BCKKPABJ@__vectorcall@ 0000000180025ff8     libvcruntime:undname.obj
 0002:00003008       ??_C@_09HIJEGCPM@__clrcall@ 0000000180026008     libvcruntime:undname.obj
 0002:00003014       ??_C@_06GHPCKEAG@__eabi@   0000000180026014     libvcruntime:undname.obj
 0002:00003020       ??_C@_09IOPIDJLG@__swift_1@ 0000000180026020     libvcruntime:undname.obj
 0002:00003030       ??_C@_09KFNFGKHF@__swift_2@ 0000000180026030     libvcruntime:undname.obj
 0002:00003040       ??_C@_07JOMMBBKO@__ptr64@  0000000180026040     libvcruntime:undname.obj
 0002:00003048       ??_C@_0L@PILCLIHE@__restrict@ 0000000180026048     libvcruntime:undname.obj
 0002:00003058       ??_C@_0M@GFIIJFMG@__unaligned@ 0000000180026058     libvcruntime:undname.obj
 0002:00003068       ??_C@_09DHDLOLLB@restrict?$CI@ 0000000180026068     libvcruntime:undname.obj
 0002:00003072       ??_C@_00CNPNBAHC@@         0000000180026072     libvcruntime:undname.obj
 0002:00003074       ??_C@_04NIHEBCM@?5new@     0000000180026074     libvcruntime:undname.obj
 0002:00003080       ??_C@_07FPCDHGMM@?5delete@ 0000000180026080     libvcruntime:undname.obj
 0002:00003088       ??_C@_01NEMOKFLO@?$DN@     0000000180026088     libvcruntime:undname.obj
 0002:0000308c       ??_C@_02GPIOPFAK@?$DO?$DO@ 000000018002608c     libvcruntime:undname.obj
 0002:00003090       ??_C@_02FODMEDOG@?$DM?$DM@ 0000000180026090     libvcruntime:undname.obj
 0002:00003094       ??_C@_01DCLJPIOD@?$CB@     0000000180026094     libvcruntime:undname.obj
 0002:00003098       ??_C@_02EGOFBIJA@?$DN?$DN@ 0000000180026098     libvcruntime:undname.obj
 0002:0000309c       ??_C@_02FDNJECIE@?$CB?$DN@ 000000018002609c     libvcruntime:undname.obj
 0002:000030a0       ??_C@_02GPECMEKF@?$FL?$FN@ 00000001800260a0     libvcruntime:undname.obj
 0002:000030a8       ??_C@_08LHJFAFGD@operator@ 00000001800260a8     libvcruntime:undname.obj
 0002:000030b4       ??_C@_02HBOOOICD@?9?$DO@   00000001800260b4     libvcruntime:undname.obj
 0002:000030b8       ??_C@_01NBENCBCI@?$CK@     00000001800260b8     libvcruntime:undname.obj
 0002:000030bc       ??_C@_02ECNGHCIF@?$CL?$CL@ 00000001800260bc     libvcruntime:undname.obj
 0002:000030c0       ??_C@_02BAABKJLB@?9?9@     00000001800260c0     libvcruntime:undname.obj
 0002:000030c4       ??_C@_01JOAMLHOP@?9@       00000001800260c4     libvcruntime:undname.obj
 0002:000030c8       ??_C@_01MIFGBAGJ@?$CL@     00000001800260c8     libvcruntime:undname.obj
 0002:000030cc       ??_C@_01HNPIGOCE@?$CG@     00000001800260cc     libvcruntime:undname.obj
 0002:000030d0       ??_C@_03MNHNFDLC@?9?$DO?$CK@ 00000001800260d0     libvcruntime:undname.obj
 0002:000030d4       ??_C@_01KMDKNFGN@?1@       00000001800260d4     libvcruntime:undname.obj
 0002:000030d8       ??_C@_01FGNFDNOH@?$CF@     00000001800260d8     libvcruntime:undname.obj
 0002:000030dc       ??_C@_01MNNFJEPP@?$DM@     00000001800260dc     libvcruntime:undname.obj
 0002:000030e0       ??_C@_02EHCHHCKH@?$DM?$DN@ 00000001800260e0     libvcruntime:undname.obj
 0002:000030e4       ??_C@_01PPODPGHN@?$DO@     00000001800260e4     libvcruntime:undname.obj
 0002:000030e8       ??_C@_02EEKDKGMJ@?$DO?$DN@ 00000001800260e8     libvcruntime:undname.obj
 0002:000030ec       ??_C@_01IHBHIGKO@?0@       00000001800260ec     libvcruntime:undname.obj
 0002:000030f0       ??_C@_02HCKGKOFO@?$CI?$CJ@ 00000001800260f0     libvcruntime:undname.obj
 0002:000030f4       ??_C@_01PJKLJHI@?$HO@      00000001800260f4     libvcruntime:undname.obj
 0002:000030f8       ??_C@_01JKBOJNNK@?$FO@     00000001800260f8     libvcruntime:undname.obj
 0002:000030fc       ??_C@_01DNKMNLPK@?$HM@     00000001800260fc     libvcruntime:undname.obj
 0002:00003100       ??_C@_02PPKAJPJL@?$CG?$CG@ 0000000180026100     libvcruntime:undname.obj
 0002:00003104       ??_C@_02NONPIBCD@?$HM?$HM@ 0000000180026104     libvcruntime:undname.obj
 0002:00003108       ??_C@_02FPIMKNGF@?$CK?$DN@ 0000000180026108     libvcruntime:undname.obj
 0002:0000310c       ??_C@_02FOEOMHFC@?$CL?$DN@ 000000018002610c     libvcruntime:undname.obj
 0002:00003110       ??_C@_02FKMDLLOA@?9?$DN@   0000000180026110     libvcruntime:undname.obj
 0002:00003114       ??_C@_02FJEHGPIO@?1?$DN@   0000000180026114     libvcruntime:undname.obj
 0002:00003118       ??_C@_02FENAOKFI@?$CF?$DN@ 0000000180026118     libvcruntime:undname.obj
 0002:0000311c       ??_C@_03IKFCCPFF@?$DO?$DO?$DN@ 000000018002611c     libvcruntime:undname.obj
 0002:00003120       ??_C@_03CDNPDDLA@?$DM?$DM?$DN@ 0000000180026120     libvcruntime:undname.obj
 0002:00003124       ??_C@_02FGJGFEAB@?$CG?$DN@ 0000000180026124     libvcruntime:undname.obj
 0002:00003128       ??_C@_02DHLNPPGH@?$HM?$DN@ 0000000180026128     libvcruntime:undname.obj
 0002:0000312c       ??_C@_02MHEGNOJ@?$FO?$DN@  000000018002612c     libvcruntime:undname.obj
 0002:00003130       ??_C@_09IFPLHPGF@?$GAvftable?8@ 0000000180026130     libvcruntime:undname.obj
 0002:00003140       ??_C@_09BLBHBJP@?$GAvbtable?8@ 0000000180026140     libvcruntime:undname.obj
 0002:00003150       ??_C@_07FEEIOKP@?$GAvcall?8@ 0000000180026150     libvcruntime:undname.obj
 0002:00003158       ??_C@_08LLFFHHDJ@?$GAtypeof?8@ 0000000180026158     libvcruntime:undname.obj
 0002:00003168       ??_C@_0BF@KDPPACIK@?$GAlocal?5static?5guard?8@ 0000000180026168     libvcruntime:undname.obj
 0002:00003180       ??_C@_08OBABFOLI@?$GAstring?8@ 0000000180026180     libvcruntime:undname.obj
 0002:00003190       ??_C@_0BD@JDLKDPAB@?$GAvbase?5destructor?8@ 0000000180026190     libvcruntime:undname.obj
 0002:000031a8       ??_C@_0BN@DEGPLNFK@?$GAvector?5deleting?5destructor?8@ 00000001800261a8     libvcruntime:undname.obj
 0002:000031c8       ??_C@_0BO@OBMKPJIG@?$GAdefault?5constructor?5closure?8@ 00000001800261c8     libvcruntime:undname.obj
 0002:000031e8       ??_C@_0BN@IMDCHIKM@?$GAscalar?5deleting?5destructor?8@ 00000001800261e8     libvcruntime:undname.obj
 0002:00003208       ??_C@_0BO@PFGOCPJJ@?$GAvector?5constructor?5iterator?8@ 0000000180026208     libvcruntime:undname.obj
 0002:00003228       ??_C@_0BN@LFPFMEDL@?$GAvector?5destructor?5iterator?8@ 0000000180026228     libvcruntime:undname.obj
 0002:00003248       ??_C@_0CE@IKBNEHA@?$GAvector?5vbase?5constructor?5itera@ 0000000180026248     libvcruntime:undname.obj
 0002:00003270       ??_C@_0BL@NILFHHPC@?$GAvirtual?5displacement?5map?8@ 0000000180026270     libvcruntime:undname.obj
 0002:00003290       ??_C@_0CB@JONCMFFK@?$GAeh?5vector?5constructor?5iterator@ 0000000180026290     libvcruntime:undname.obj
 0002:000032b8       ??_C@_0CA@GCEOPDGL@?$GAeh?5vector?5destructor?5iterator?8@ 00000001800262b8     libvcruntime:undname.obj
 0002:000032d8       ??_C@_0CH@OOJPLCPH@?$GAeh?5vector?5vbase?5constructor?5it@ 00000001800262d8     libvcruntime:undname.obj
 0002:00003300       ??_C@_0BL@LLKPOHJI@?$GAcopy?5constructor?5closure?8@ 0000000180026300     libvcruntime:undname.obj
 0002:00003320       ??_C@_0BA@KBCDOMBN@?$GAudt?5returning?8@ 0000000180026320     libvcruntime:undname.obj
 0002:00003330       ??_C@_03KLGMFNMG@?$GAEH@   0000000180026330     libvcruntime:undname.obj
 0002:00003334       ??_C@_05KHLCHHI@?$GARTTI@  0000000180026334     libvcruntime:undname.obj
 0002:00003340       ??_C@_0BA@KKLDJDLB@?$GAlocal?5vftable?8@ 0000000180026340     libvcruntime:undname.obj
 0002:00003350       ??_C@_0CE@IIHCMGGL@?$GAlocal?5vftable?5constructor?5clos@ 0000000180026350     libvcruntime:undname.obj
 0002:00003374       ??_C@_06FHBGPFGH@?5new?$FL?$FN@ 0000000180026374     libvcruntime:undname.obj
 0002:00003380       ??_C@_09LBNFPBCA@?5delete?$FL?$FN@ 0000000180026380     libvcruntime:undname.obj
 0002:00003390       ??_C@_0P@HJKNJFNN@?$GAomni?5callsig?8@ 0000000180026390     libvcruntime:undname.obj
 0002:000033a0       ??_C@_0BL@CNOONJFP@?$GAplacement?5delete?5closure?8@ 00000001800263a0     libvcruntime:undname.obj
 0002:000033c0       ??_C@_0BN@CKNJLHMB@?$GAplacement?5delete?$FL?$FN?5closure?8@ 00000001800263c0     libvcruntime:undname.obj
 0002:000033e0       ??_C@_0CG@CFDHKGGD@?$GAmanaged?5vector?5constructor?5ite@ 00000001800263e0     libvcruntime:undname.obj
 0002:00003408       ??_C@_0CF@IMGKMJNO@?$GAmanaged?5vector?5destructor?5iter@ 0000000180026408     libvcruntime:undname.obj
 0002:00003430       ??_C@_0CG@HLDDJMAG@?$GAeh?5vector?5copy?5constructor?5ite@ 0000000180026430     libvcruntime:undname.obj
 0002:00003458       ??_C@_0CM@FCBBDIGB@?$GAeh?5vector?5vbase?5copy?5construct@ 0000000180026458     libvcruntime:undname.obj
 0002:00003488       ??_C@_0BL@CLIPGLGB@?$GAdynamic?5initializer?5for?5?8@ 0000000180026488     libvcruntime:undname.obj
 0002:000034a8       ??_C@_0CB@PDBIFEP@?$GAdynamic?5atexit?5destructor?5for?5@ 00000001800264a8     libvcruntime:undname.obj
 0002:000034d0       ??_C@_0CD@CGAJBKEJ@?$GAvector?5copy?5constructor?5iterat@ 00000001800264d0     libvcruntime:undname.obj
 0002:000034f8       ??_C@_0CJ@GJELGAMM@?$GAvector?5vbase?5copy?5constructor?5@ 00000001800264f8     libvcruntime:undname.obj
 0002:00003528       ??_C@_0CL@FGIJHLCE@?$GAmanaged?5vector?5copy?5constructo@ 0000000180026528     libvcruntime:undname.obj
 0002:00003558       ??_C@_0BM@PMGGMLDN@?$GAlocal?5static?5thread?5guard?8@ 0000000180026558     libvcruntime:undname.obj
 0002:00003578       ??_C@_0N@BDNMDMOL@operator?5?$CC?$CC?5@ 0000000180026578     libvcruntime:undname.obj
 0002:00003588       ??_C@_0BC@GGEBGALA@operator?5co_await@ 0000000180026588     libvcruntime:undname.obj
 0002:000035a0       ??_C@_0M@GAAIMMOH@operator?$DM?$DN?$DO@ 00000001800265a0     libvcruntime:undname.obj
 0002:000035b0       ??_C@_0BC@DAFEJGAK@?5Type?5Descriptor?8@ 00000001800265b0     libvcruntime:undname.obj
 0002:000035c8       ??_C@_0BM@LDKODKLH@?5Base?5Class?5Descriptor?5at?5?$CI@ 00000001800265c8     libvcruntime:undname.obj
 0002:000035e8       ??_C@_0BD@LGICGFMM@?5Base?5Class?5Array?8@ 00000001800265e8     libvcruntime:undname.obj
 0002:00003600       ??_C@_0BN@MECKDCOJ@?5Class?5Hierarchy?5Descriptor?8@ 0000000180026600     libvcruntime:undname.obj
 0002:00003620       ??_C@_0BK@CFCOFLF@?5Complete?5Object?5Locator?8@ 0000000180026620     libvcruntime:undname.obj
 0002:00003640       ??_C@_0BG@JNJLAMPM@?$GAanonymous?5namespace?8@ 0000000180026640     libvcruntime:undname.obj
 0002:00003670       ??_C@_1DM@KHCHBNEB@?$AAa?$AAp?$AAi?$AA?9?$AAm?$AAs?$AA?9?$AAw?$AAi?$AAn?$AA?9?$AAc?$AAo?$AAr?$AAe@ 0000000180026670     libvcruntime:winapi_downlevel.obj
 0002:000036b0       ??_C@_1DK@LPPGFMPP@?$AAa?$AAp?$AAi?$AA?9?$AAm?$AAs?$AA?9?$AAw?$AAi?$AAn?$AA?9?$AAc?$AAo?$AAr?$AAe@ 00000001800266b0     libvcruntime:winapi_downlevel.obj
 0002:000036f0       ??_C@_1BC@GDMECMAK@?$AAk?$AAe?$AAr?$AAn?$AAe?$AAl?$AA3?$AA2@ 00000001800266f0     libvcruntime:winapi_downlevel.obj
 0002:00003708       ??_C@_1BA@PFFKHIOG@?$AAa?$AAp?$AAi?$AA?9?$AAm?$AAs?$AA?9@ 0000000180026708     libvcruntime:winapi_downlevel.obj
 0002:00003720       ??_C@_08KNHFBNJ@FlsAlloc@  0000000180026720     libvcruntime:winapi_downlevel.obj
 0002:00003738       ??_C@_07PEJMOBNF@FlsFree@  0000000180026738     libvcruntime:winapi_downlevel.obj
 0002:00003748       ??_C@_0M@GDNOONDI@FlsGetValue@ 0000000180026748     libvcruntime:winapi_downlevel.obj
 0002:00003760       ??_C@_0M@JCPCPOEF@FlsSetValue@ 0000000180026760     libvcruntime:winapi_downlevel.obj
 0002:00003778       ??_C@_0BM@HCFOFFN@InitializeCriticalSectionEx@ 0000000180026778     libvcruntime:winapi_downlevel.obj
 0002:00003910       ?format_validation_lookup_table_spectre@__crt_stdio_output@@3V?$spectre_mitigated_lookup_table@Ustate_transition_pair@__crt_stdio_output@@$0IA@@1@B 0000000180026910     libucrt:output.obj
 0002:00003d10       ??_C@_1O@CEDCILHN@?$AA?$CI?$AAn?$AAu?$AAl?$AAl?$AA?$CJ@ 0000000180026d10     libucrt:output.obj
 0002:00003d20       ??_C@_06OJHGLDPL@?$CInull?$CJ@ 0000000180026d20     libucrt:output.obj
 0002:00003d30       __acrt_exception_action_table 0000000180026d30     libucrt:exception_filter.obj
 0002:00003df0       __acrt_signal_action_table_count 0000000180026df0     libucrt:exception_filter.obj
 0002:00003df8       __acrt_signal_action_first_fpe_index 0000000180026df8     libucrt:exception_filter.obj
 0002:00003e00       __acrt_signal_action_fpe_count 0000000180026e00     libucrt:exception_filter.obj
 0002:00003e08       ??_C@_1BI@BGOHAHKC@?$AAm?$AAs?$AAc?$AAo?$AAr?$AAe?$AAe?$AA?4?$AAd?$AAl?$AAl@ 0000000180026e08     libucrt:exit.obj
 0002:00003e20       ??_C@_0P@MIGLKIOC@CorExitProcess@ 0000000180026e20     libucrt:exit.obj
 0002:00003fd0       ??_C@_1EA@JGEFHKEI@?$AAa?$AAp?$AAi?$AA?9?$AAm?$AAs?$AA?9?$AAw?$AAi?$AAn?$AA?9?$AAc?$AAo?$AAr?$AAe@ 0000000180026fd0     libucrt:winapi_thunks.obj
 0002:00004010       ??_C@_1DI@IJCEHOCB@?$AAa?$AAp?$AAi?$AA?9?$AAm?$AAs?$AA?9?$AAw?$AAi?$AAn?$AA?9?$AAc?$AAo?$AAr?$AAe@ 0000000180027010     libucrt:winapi_thunks.obj
 0002:00004050       ??_C@_1EI@MPIAOHOC@?$AAa?$AAp?$AAi?$AA?9?$AAm?$AAs?$AA?9?$AAw?$AAi?$AAn?$AA?9?$AAc?$AAo?$AAr?$AAe@ 0000000180027050     libucrt:winapi_thunks.obj
 0002:000040a0       ??_C@_1FK@FPHCKFIE@?$AAa?$AAp?$AAi?$AA?9?$AAm?$AAs?$AA?9?$AAw?$AAi?$AAn?$AA?9?$AAc?$AAo?$AAr?$AAe@ 00000001800270a0     libucrt:winapi_thunks.obj
 0002:00004100       ??_C@_1EM@DILCGIIO@?$AAa?$AAp?$AAi?$AA?9?$AAm?$AAs?$AA?9?$AAw?$AAi?$AAn?$AA?9?$AAc?$AAo?$AAr?$AAe@ 0000000180027100     libucrt:winapi_thunks.obj
 0002:00004150       ??_C@_1DM@LNCGDDPN@?$AAa?$AAp?$AAi?$AA?9?$AAm?$AAs?$AA?9?$AAw?$AAi?$AAn?$AA?9?$AAc?$AAo?$AAr?$AAe@ 0000000180027150     libucrt:winapi_thunks.obj
 0002:00004190       ??_C@_1DO@FPAPJEMD@?$AAa?$AAp?$AAi?$AA?9?$AAm?$AAs?$AA?9?$AAw?$AAi?$AAn?$AA?9?$AAc?$AAo?$AAr?$AAe@ 0000000180027190     libucrt:winapi_thunks.obj
 0002:000041d0       ??_C@_1DK@NDHNAHIO@?$AAa?$AAp?$AAi?$AA?9?$AAm?$AAs?$AA?9?$AAw?$AAi?$AAn?$AA?9?$AAc?$AAo?$AAr?$AAe@ 00000001800271d0     libucrt:winapi_thunks.obj
 0002:00004210       ??_C@_1DM@KGHDGBCM@?$AAa?$AAp?$AAi?$AA?9?$AAm?$AAs?$AA?9?$AAw?$AAi?$AAn?$AA?9?$AAc?$AAo?$AAr?$AAe@ 0000000180027210     libucrt:winapi_thunks.obj
 0002:00004250       ??_C@_1EO@IJIOEFOH@?$AAa?$AAp?$AAi?$AA?9?$AAm?$AAs?$AA?9?$AAw?$AAi?$AAn?$AA?9?$AAr?$AAt?$AAc?$AAo@ 0000000180027250     libucrt:winapi_thunks.obj
 0002:000042a0       ??_C@_1FG@HHGEKANL@?$AAa?$AAp?$AAi?$AA?9?$AAm?$AAs?$AA?9?$AAw?$AAi?$AAn?$AA?9?$AAs?$AAe?$AAc?$AAu@ 00000001800272a0     libucrt:winapi_thunks.obj
 0002:00004300       ??_C@_1EG@DBIOJECG@?$AAe?$AAx?$AAt?$AA?9?$AAm?$AAs?$AA?9?$AAw?$AAi?$AAn?$AA?9?$AAn?$AAt?$AAu?$AAs@ 0000000180027300     libucrt:winapi_thunks.obj
 0002:00004350       ??_C@_1EO@FIHMJCLF@?$AAe?$AAx?$AAt?$AA?9?$AAm?$AAs?$AA?9?$AAw?$AAi?$AAn?$AA?9?$AAn?$AAt?$AAu?$AAs@ 0000000180027350     libucrt:winapi_thunks.obj
 0002:000043a0       ??_C@_1BC@DNHGCMLG@?$AAa?$AAd?$AAv?$AAa?$AAp?$AAi?$AA3?$AA2@ 00000001800273a0     libucrt:winapi_thunks.obj
 0002:000043b8       ??_C@_1M@OAIMIKLP@?$AAn?$AAt?$AAd?$AAl?$AAl@ 00000001800273b8     libucrt:winapi_thunks.obj
 0002:000043d0       ??_C@_1EG@DPGNFKGC@?$AAa?$AAp?$AAi?$AA?9?$AAm?$AAs?$AA?9?$AAw?$AAi?$AAn?$AA?9?$AAa?$AAp?$AAp?$AAm@ 00000001800273d0     libucrt:winapi_thunks.obj
 0002:00004418       ??_C@_1O@BCCLBEOE@?$AAu?$AAs?$AAe?$AAr?$AA3?$AA2@ 0000000180027418     libucrt:winapi_thunks.obj
 0002:00004428       ??_C@_1BA@IAIFMGEF@?$AAe?$AAx?$AAt?$AA?9?$AAm?$AAs?$AA?9@ 0000000180027428     libucrt:winapi_thunks.obj
 0002:00004440       ??_C@_0BA@FHFNEAED@AreFileApisANSI@ 0000000180027440     libucrt:winapi_thunks.obj
 0002:00004480       ??_C@_0O@KKBNKAPF@LCMapStringEx@ 0000000180027480     libucrt:winapi_thunks.obj
 0002:00004498       ??_C@_0BB@HBDEELFH@LocaleNameToLCID@ 0000000180027498     libucrt:winapi_thunks.obj
 0002:000044b0       ??_C@_0CF@OJOFEIGO@AppPolicyGetProcessTerminationM@ 00000001800274b0     libucrt:winapi_thunks.obj
 0002:000044e0       ??_C@_0BI@BKLFFAPO@SetThreadStackGuarantee@ 00000001800274e0     libucrt:winapi_thunks.obj
 0002:00004580       ??_C@_03OEIAHPBN@INF@      0000000180027580     libucrt:cvt.obj
 0002:00004584       ??_C@_03OJHLLCGB@inf@      0000000180027584     libucrt:cvt.obj
 0002:00004588       ??_C@_03LKNCIKJB@NAN@      0000000180027588     libucrt:cvt.obj
 0002:0000458c       ??_C@_03LHCJEHON@nan@      000000018002758c     libucrt:cvt.obj
 0002:00004590       ??_C@_09OFJJIMPC@NAN?$CISNAN?$CJ@ 0000000180027590     libucrt:cvt.obj
 0002:000045a0       ??_C@_09IPFBKMDL@nan?$CIsnan?$CJ@ 00000001800275a0     libucrt:cvt.obj
 0002:000045b0       ??_C@_08IKHNHAJ@NAN?$CIIND?$CJ@ 00000001800275b0     libucrt:cvt.obj
 0002:000045c0       ??_C@_08OFCDMILK@nan?$CIind?$CJ@ 00000001800275c0     libucrt:cvt.obj
 0002:000045cc       ??_C@_05KLBDPFGC@e?$CL000@ 00000001800275cc     libucrt:cvt.obj
 0002:000045e0       __lc_time_c                00000001800275e0     libucrt:nlsdata.obj
 0002:000048a0       ??_C@_03KOEHGMDN@Sun@      00000001800278a0     libucrt:nlsdata.obj
 0002:000048a4       ??_C@_03PDAGKDH@Mon@       00000001800278a4     libucrt:nlsdata.obj
 0002:000048a8       ??_C@_03NAGEINEP@Tue@      00000001800278a8     libucrt:nlsdata.obj
 0002:000048ac       ??_C@_03MHOMLAJA@Wed@      00000001800278ac     libucrt:nlsdata.obj
 0002:000048b0       ??_C@_03IOFIKPDN@Thu@      00000001800278b0     libucrt:nlsdata.obj
 0002:000048b4       ??_C@_03IDIOELNC@Fri@      00000001800278b4     libucrt:nlsdata.obj
 0002:000048b8       ??_C@_03FEFJNEK@Sat@       00000001800278b8     libucrt:nlsdata.obj
 0002:000048bc       ??_C@_06OOPIFAJ@Sunday@    00000001800278bc     libucrt:nlsdata.obj
 0002:000048c4       ??_C@_06JLEDEDGH@Monday@   00000001800278c4     libucrt:nlsdata.obj
 0002:000048d0       ??_C@_07BAAGCFCM@Tuesday@  00000001800278d0     libucrt:nlsdata.obj
 0002:000048d8       ??_C@_09DLIGFAKA@Wednesday@ 00000001800278d8     libucrt:nlsdata.obj
 0002:000048e8       ??_C@_08HACCIKIA@Thursday@ 00000001800278e8     libucrt:nlsdata.obj
 0002:000048f4       ??_C@_06JECMNKMI@Friday@   00000001800278f4     libucrt:nlsdata.obj
 0002:00004900       ??_C@_08INBOOONO@Saturday@ 0000000180027900     libucrt:nlsdata.obj
 0002:0000490c       ??_C@_03JIHJHPIE@Jan@      000000018002790c     libucrt:nlsdata.obj
 0002:00004910       ??_C@_03HJBDCHOM@Feb@      0000000180027910     libucrt:nlsdata.obj
 0002:00004914       ??_C@_03ODNJBKGA@Mar@      0000000180027914     libucrt:nlsdata.obj
 0002:00004918       ??_C@_03LEOLGMJP@Apr@      0000000180027918     libucrt:nlsdata.obj
 0002:0000491c       ??_C@_03CNMDKL@May@        000000018002791c     libucrt:nlsdata.obj
 0002:00004920       ??_C@_03IDFGHECI@Jun@      0000000180027920     libucrt:nlsdata.obj
 0002:00004924       ??_C@_03LBGABGKK@Jul@      0000000180027924     libucrt:nlsdata.obj
 0002:00004928       ??_C@_03IFJFEIGA@Aug@      0000000180027928     libucrt:nlsdata.obj
 0002:0000492c       ??_C@_03GGCAPAJC@Sep@      000000018002792c     libucrt:nlsdata.obj
 0002:00004930       ??_C@_03BMAOKBAD@Oct@      0000000180027930     libucrt:nlsdata.obj
 0002:00004934       ??_C@_03JPJOFNIA@Nov@      0000000180027934     libucrt:nlsdata.obj
 0002:00004938       ??_C@_03MKABNOCG@Dec@      0000000180027938     libucrt:nlsdata.obj
 0002:00004940       ??_C@_07CGJPFGJA@January@  0000000180027940     libucrt:nlsdata.obj
 0002:00004948       ??_C@_08GNJGEPFN@February@ 0000000180027948     libucrt:nlsdata.obj
 0002:00004954       ??_C@_05HPCKOFNC@March@    0000000180027954     libucrt:nlsdata.obj
 0002:0000495c       ??_C@_05DMJDNLEJ@April@    000000018002795c     libucrt:nlsdata.obj
 0002:00004964       ??_C@_04CNLMGBGM@June@     0000000180027964     libucrt:nlsdata.obj
 0002:0000496c       ??_C@_04MIEPOIFP@July@     000000018002796c     libucrt:nlsdata.obj
 0002:00004974       ??_C@_06LBBHFDDG@August@   0000000180027974     libucrt:nlsdata.obj
 0002:00004980       ??_C@_09BHHEALKD@September@ 0000000180027980     libucrt:nlsdata.obj
 0002:00004990       ??_C@_07JJNFCEND@October@  0000000180027990     libucrt:nlsdata.obj
 0002:00004998       ??_C@_08HCHEGEOA@November@ 0000000180027998     libucrt:nlsdata.obj
 0002:000049a8       ??_C@_08EDHMEBNP@December@ 00000001800279a8     libucrt:nlsdata.obj
 0002:000049b4       ??_C@_02DEDBPAFC@AM@       00000001800279b4     libucrt:nlsdata.obj
 0002:000049b8       ??_C@_02CJNFDJBF@PM@       00000001800279b8     libucrt:nlsdata.obj
 0002:000049c0       ??_C@_08BPBNCDIB@MM?1dd?1yy@ 00000001800279c0     libucrt:nlsdata.obj
 0002:000049d0       ??_C@_0BE@CKGJFCPC@dddd?0?5MMMM?5dd?0?5yyyy@ 00000001800279d0     libucrt:nlsdata.obj
 0002:000049e8       ??_C@_08JCCMCCIL@HH?3mm?3ss@ 00000001800279e8     libucrt:nlsdata.obj
 0002:000049f8       ??_C@_17MBGCMIPB@?$AAS?$AAu?$AAn@ 00000001800279f8     libucrt:nlsdata.obj
 0002:00004a00       ??_C@_17KBOMKBF@?$AAM?$AAo?$AAn@ 0000000180027a00     libucrt:nlsdata.obj
 0002:00004a08       ??_C@_17BMKGEGOJ@?$AAT?$AAu?$AAe@ 0000000180027a08     libucrt:nlsdata.obj
 0002:00004a10       ??_C@_17CJEDCEPE@?$AAW?$AAe?$AAd@ 0000000180027a10     libucrt:nlsdata.obj
 0002:00004a18       ??_C@_17PDPHAADD@?$AAT?$AAh?$AAu@ 0000000180027a18     libucrt:nlsdata.obj
 0002:00004a20       ??_C@_17HFOLPPLP@?$AAF?$AAr?$AAi@ 0000000180027a20     libucrt:nlsdata.obj
 0002:00004a28       ??_C@_17GGIBDPIH@?$AAS?$AAa?$AAt@ 0000000180027a28     libucrt:nlsdata.obj
 0002:00004a30       ??_C@_1O@IHNHDHPB@?$AAS?$AAu?$AAn?$AAd?$AAa?$AAy@ 0000000180027a30     libucrt:nlsdata.obj
 0002:00004a40       ??_C@_1O@MMNBFLIA@?$AAM?$AAo?$AAn?$AAd?$AAa?$AAy@ 0000000180027a40     libucrt:nlsdata.obj
 0002:00004a50       ??_C@_1BA@ENFBFFEK@?$AAT?$AAu?$AAe?$AAs?$AAd?$AAa?$AAy@ 0000000180027a50     libucrt:nlsdata.obj
 0002:00004a60       ??_C@_1BE@EBOGMDOH@?$AAW?$AAe?$AAd?$AAn?$AAe?$AAs?$AAd?$AAa?$AAy@ 0000000180027a60     libucrt:nlsdata.obj
 0002:00004a78       ??_C@_1BC@HHMNLIHE@?$AAT?$AAh?$AAu?$AAr?$AAs?$AAd?$AAa?$AAy@ 0000000180027a78     libucrt:nlsdata.obj
 0002:00004a90       ??_C@_1O@PDICJHAG@?$AAF?$AAr?$AAi?$AAd?$AAa?$AAy@ 0000000180027a90     libucrt:nlsdata.obj
 0002:00004aa0       ??_C@_1BC@ENMNNPAJ@?$AAS?$AAa?$AAt?$AAu?$AAr?$AAd?$AAa?$AAy@ 0000000180027aa0     libucrt:nlsdata.obj
 0002:00004ab8       ??_C@_17DKNBKCHM@?$AAJ?$AAa?$AAn@ 0000000180027ab8     libucrt:nlsdata.obj
 0002:00004ac0       ??_C@_17LMDJEKJN@?$AAF?$AAe?$AAb@ 0000000180027ac0     libucrt:nlsdata.obj
 0002:00004ac8       ??_C@_17CKNLEDEC@?$AAM?$AAa?$AAr@ 0000000180027ac8     libucrt:nlsdata.obj
 0002:00004ad0       ??_C@_17LFPOIHDD@?$AAA?$AAp?$AAr@ 0000000180027ad0     libucrt:nlsdata.obj
 0002:00004ad8       ??_C@_17PNNKMEED@?$AAM?$AAa?$AAy@ 0000000180027ad8     libucrt:nlsdata.obj
 0002:00004ae0       ??_C@_17KCJGOCPB@?$AAJ?$AAu?$AAn@ 0000000180027ae0     libucrt:nlsdata.obj
 0002:00004ae8       ??_C@_17IJPCKHK@?$AAJ?$AAu?$AAl@ 0000000180027ae8     libucrt:nlsdata.obj
 0002:00004af0       ??_C@_17ICPELBCN@?$AAA?$AAu?$AAg@ 0000000180027af0     libucrt:nlsdata.obj
 0002:00004af8       ??_C@_17HCHCOKMG@?$AAS?$AAe?$AAp@ 0000000180027af8     libucrt:nlsdata.obj
 0002:00004b00       ??_C@_17FNLKOI@?$AAO?$AAc?$AAt@ 0000000180027b00     libucrt:nlsdata.obj
 0002:00004b08       ??_C@_17BBDMLCIG@?$AAN?$AAo?$AAv@ 0000000180027b08     libucrt:nlsdata.obj
 0002:00004b10       ??_C@_17EGKACKIF@?$AAD?$AAe?$AAc@ 0000000180027b10     libucrt:nlsdata.obj
 0002:00004b18       ??_C@_1BA@EFMEIEBA@?$AAJ?$AAa?$AAn?$AAu?$AAa?$AAr?$AAy@ 0000000180027b18     libucrt:nlsdata.obj
 0002:00004b28       ??_C@_1BC@JGDDFFAM@?$AAF?$AAe?$AAb?$AAr?$AAu?$AAa?$AAr?$AAy@ 0000000180027b28     libucrt:nlsdata.obj
 0002:00004b40       ??_C@_1M@IKEENEDF@?$AAM?$AAa?$AAr?$AAc?$AAh@ 0000000180027b40     libucrt:nlsdata.obj
 0002:00004b50       ??_C@_1M@GJNLMHFD@?$AAA?$AAp?$AAr?$AAi?$AAl@ 0000000180027b50     libucrt:nlsdata.obj
 0002:00004b60       ??_C@_19EPFLPGAP@?$AAJ?$AAu?$AAn?$AAe@ 0000000180027b60     libucrt:nlsdata.obj
 0002:00004b70       ??_C@_19BIFMLPCD@?$AAJ?$AAu?$AAl?$AAy@ 0000000180027b70     libucrt:nlsdata.obj
 0002:00004b80       ??_C@_1O@PAHLKOAC@?$AAA?$AAu?$AAg?$AAu?$AAs?$AAt@ 0000000180027b80     libucrt:nlsdata.obj
 0002:00004b90       ??_C@_1BE@DKAAMBJL@?$AAS?$AAe?$AAp?$AAt?$AAe?$AAm?$AAb?$AAe?$AAr@ 0000000180027b90     libucrt:nlsdata.obj
 0002:00004ba8       ??_C@_1BA@EPANDLNG@?$AAO?$AAc?$AAt?$AAo?$AAb?$AAe?$AAr@ 0000000180027ba8     libucrt:nlsdata.obj
 0002:00004bb8       ??_C@_1BC@BGLIFPF@?$AAN?$AAo?$AAv?$AAe?$AAm?$AAb?$AAe?$AAr@ 0000000180027bb8     libucrt:nlsdata.obj
 0002:00004bd0       ??_C@_1BC@FEMKIFH@?$AAD?$AAe?$AAc?$AAe?$AAm?$AAb?$AAe?$AAr@ 0000000180027bd0     libucrt:nlsdata.obj
 0002:00004be4       ??_C@_15ODEHAHHF@?$AAA?$AAM@ 0000000180027be4     libucrt:nlsdata.obj
 0002:00004bec       ??_C@_15CLMNNGEL@?$AAP?$AAM@ 0000000180027bec     libucrt:nlsdata.obj
 0002:00004bf8       ??_C@_1BC@IEBCMHCM@?$AAM?$AAM?$AA?1?$AAd?$AAd?$AA?1?$AAy?$AAy@ 0000000180027bf8     libucrt:nlsdata.obj
 0002:00004c10       ??_C@_1CI@KNAKOEBC@?$AAd?$AAd?$AAd?$AAd?$AA?0?$AA?5?$AAM?$AAM?$AAM?$AAM?$AA?5?$AAd?$AAd?$AA?0?$AA?5@ 0000000180027c10     libucrt:nlsdata.obj
 0002:00004c38       ??_C@_1BC@GDGBMEMK@?$AAH?$AAH?$AA?3?$AAm?$AAm?$AA?3?$AAs?$AAs@ 0000000180027c38     libucrt:nlsdata.obj
 0002:00004c50       ??_C@_1M@BMHNFIME@?$AAe?$AAn?$AA?9?$AAU?$AAS@ 0000000180027c50     libucrt:nlsdata.obj
 0002:00004c80       ??_C@_1M@HPNHIDJI@?$AAj?$AAa?$AA?9?$AAJ?$AAP@ 0000000180027c80     libucrt:mbctype.obj
 0002:00004c90       ??_C@_1M@BIBDDEMK@?$AAz?$AAh?$AA?9?$AAC?$AAN@ 0000000180027c90     libucrt:mbctype.obj
 0002:00004ca0       ??_C@_1M@JLOOOEGK@?$AAk?$AAo?$AA?9?$AAK?$AAR@ 0000000180027ca0     libucrt:mbctype.obj
 0002:00004cb0       ??_C@_1M@CLNBBOPM@?$AAz?$AAh?$AA?9?$AAT?$AAW@ 0000000180027cb0     libucrt:mbctype.obj
 0002:00004cc0       __newctype                 0000000180027cc0     libucrt:ctype.obj
 0002:00004fc0       __newclmap                 0000000180027fc0     libucrt:ctype.obj
 0002:00005140       __newcumap                 0000000180028140     libucrt:ctype.obj
 0002:000052c0       _wctype                    00000001800282c0     libucrt:ctype.obj
 0002:00006310       ??_C@_15EMKDOKLE@?$AAa?$AAr@ 0000000180029310     libucrt:lcidtoname_downlevel.obj
 0002:00006318       ??_C@_15KNPADPLH@?$AAb?$AAg@ 0000000180029318     libucrt:lcidtoname_downlevel.obj
 0002:00006320       ??_C@_15EDMHLDMO@?$AAc?$AAa@ 0000000180029320     libucrt:lcidtoname_downlevel.obj
 0002:00006328       ??_C@_1O@BPEAJADD@?$AAz?$AAh?$AA?9?$AAC?$AAH?$AAS@ 0000000180029328     libucrt:lcidtoname_downlevel.obj
 0002:00006338       ??_C@_15LJNHCMNK@?$AAc?$AAs@ 0000000180029338     libucrt:lcidtoname_downlevel.obj
 0002:00006340       ??_C@_15FOMCIDHG@?$AAd?$AAa@ 0000000180029340     libucrt:lcidtoname_downlevel.obj
 0002:00006348       ??_C@_15NBKABECB@?$AAd?$AAe@ 0000000180029348     libucrt:lcidtoname_downlevel.obj
 0002:00006350       ??_C@_15GHPEIIAO@?$AAe?$AAl@ 0000000180029350     libucrt:lcidtoname_downlevel.obj
 0002:00006358       ??_C@_15MNPNEAIF@?$AAe?$AAn@ 0000000180029358     libucrt:lcidtoname_downlevel.obj
 0002:00006360       ??_C@_15GPIOMPMH@?$AAe?$AAs@ 0000000180029360     libucrt:lcidtoname_downlevel.obj
 0002:00006368       ??_C@_15NGLOAKJC@?$AAf?$AAi@ 0000000180029368     libucrt:lcidtoname_downlevel.obj
 0002:00006370       ??_C@_15FBKGNKAM@?$AAf?$AAr@ 0000000180029370     libucrt:lcidtoname_downlevel.obj
 0002:00006378       ??_C@_15KGGCNEFK@?$AAh?$AAe@ 0000000180029378     libucrt:lcidtoname_downlevel.obj
 0002:00006380       ??_C@_15PGHLIDMF@?$AAh?$AAu@ 0000000180029380     libucrt:lcidtoname_downlevel.obj
 0002:00006388       ??_C@_15BIEMAPLM@?$AAi?$AAs@ 0000000180029388     libucrt:lcidtoname_downlevel.obj
 0002:00006390       ??_C@_15IFJLDHAF@?$AAi?$AAt@ 0000000180029390     libucrt:lcidtoname_downlevel.obj
 0002:00006398       ??_C@_15GEMIOCAG@?$AAj?$AAa@ 0000000180029398     libucrt:lcidtoname_downlevel.obj
 0002:000063a0       ??_C@_15EPELEGJA@?$AAk?$AAo@ 00000001800293a0     libucrt:lcidtoname_downlevel.obj
 0002:000063a8       ??_C@_15NDDHIMN@?$AAn?$AAl@ 00000001800293a8     libucrt:lcidtoname_downlevel.obj
 0002:000063b0       ??_C@_15BPIGNHCD@?$AAn?$AAo@ 00000001800293b0     libucrt:lcidtoname_downlevel.obj
 0002:000063b8       ??_C@_15DEOPBLCG@?$AAp?$AAl@ 00000001800293b8     libucrt:lcidtoname_downlevel.obj
 0002:000063c0       ??_C@_15KBECGEFG@?$AAp?$AAt@ 00000001800293c0     libucrt:lcidtoname_downlevel.obj
 0002:000063c8       ??_C@_15GLJCBFMD@?$AAr?$AAo@ 00000001800293c8     libucrt:lcidtoname_downlevel.obj
 0002:000063d0       ??_C@_15FEDGKCDI@?$AAr?$AAu@ 00000001800293d0     libucrt:lcidtoname_downlevel.obj
 0002:000063d8       ??_C@_15GLKMLLHM@?$AAh?$AAr@ 00000001800293d8     libucrt:lcidtoname_downlevel.obj
 0002:000063e0       ??_C@_15CPKMFBDB@?$AAs?$AAk@ 00000001800293e0     libucrt:lcidtoname_downlevel.obj
 0002:000063e8       ??_C@_15BAAIOGMK@?$AAs?$AAq@ 00000001800293e8     libucrt:lcidtoname_downlevel.obj
 0002:000063f0       ??_C@_15INNPNOHD@?$AAs?$AAv@ 00000001800293f0     libucrt:lcidtoname_downlevel.obj
 0002:000063f8       ??_C@_15CABMMOGH@?$AAt?$AAh@ 00000001800293f8     libucrt:lcidtoname_downlevel.obj
 0002:00006400       ??_C@_15BPLIHJJM@?$AAt?$AAr@ 0000000180029400     libucrt:lcidtoname_downlevel.obj
 0002:00006408       ??_C@_15NEOEKKDJ@?$AAu?$AAr@ 0000000180029408     libucrt:lcidtoname_downlevel.obj
 0002:00006410       ??_C@_15NFICGAJK@?$AAi?$AAd@ 0000000180029410     libucrt:lcidtoname_downlevel.obj
 0002:00006418       ??_C@_15PJPFLCCM@?$AAu?$AAk@ 0000000180029418     libucrt:lcidtoname_downlevel.obj
 0002:00006420       ??_C@_15HPJPHDM@?$AAb?$AAe@ 0000000180029420     libucrt:lcidtoname_downlevel.obj
 0002:00006428       ??_C@_15LCHLGJII@?$AAs?$AAl@ 0000000180029428     libucrt:lcidtoname_downlevel.obj
 0002:00006430       ??_C@_15PCFJPHHO@?$AAe?$AAt@ 0000000180029430     libucrt:lcidtoname_downlevel.obj
 0002:00006438       ??_C@_15HPFPGODN@?$AAl?$AAv@ 0000000180029438     libucrt:lcidtoname_downlevel.obj
 0002:00006440       ??_C@_15NFFGKGLG@?$AAl?$AAt@ 0000000180029440     libucrt:lcidtoname_downlevel.obj
 0002:00006448       ??_C@_15BDAKCCHN@?$AAf?$AAa@ 0000000180029448     libucrt:lcidtoname_downlevel.obj
 0002:00006450       ??_C@_15NFGIAIAJ@?$AAv?$AAi@ 0000000180029450     libucrt:lcidtoname_downlevel.obj
 0002:00006458       ??_C@_15LMKNDMHN@?$AAh?$AAy@ 0000000180029458     libucrt:lcidtoname_downlevel.obj
 0002:00006460       ??_C@_15IJBHMCFL@?$AAa?$AAz@ 0000000180029460     libucrt:lcidtoname_downlevel.obj
 0002:00006468       ??_C@_15EKOFJABL@?$AAe?$AAu@ 0000000180029468     libucrt:lcidtoname_downlevel.obj
 0002:00006470       ??_C@_15BGHADCNK@?$AAm?$AAk@ 0000000180029470     libucrt:lcidtoname_downlevel.obj
 0002:00006478       ??_C@_15JDNICKHM@?$AAa?$AAf@ 0000000180029478     libucrt:lcidtoname_downlevel.obj
 0002:00006480       ??_C@_15KPJEDBKD@?$AAk?$AAa@ 0000000180029480     libucrt:lcidtoname_downlevel.obj
 0002:00006488       ??_C@_15PDNFFFEO@?$AAf?$AAo@ 0000000180029488     libucrt:lcidtoname_downlevel.obj
 0002:00006490       ??_C@_15OMLEGLOC@?$AAh?$AAi@ 0000000180029490     libucrt:lcidtoname_downlevel.obj
 0002:00006498       ??_C@_15IDNNENKK@?$AAm?$AAs@ 0000000180029498     libucrt:lcidtoname_downlevel.obj
 0002:000064a0       ??_C@_15MACJNBMH@?$AAk?$AAk@ 00000001800294a0     libucrt:lcidtoname_downlevel.obj
 0002:000064a8       ??_C@_15DKDJEOND@?$AAk?$AAy@ 00000001800294a8     libucrt:lcidtoname_downlevel.obj
 0002:000064b0       ??_C@_15DFGDLJBG@?$AAs?$AAw@ 00000001800294b0     libucrt:lcidtoname_downlevel.obj
 0002:000064b8       ??_C@_15BBFAICNG@?$AAu?$AAz@ 00000001800294b8     libucrt:lcidtoname_downlevel.obj
 0002:000064c0       ??_C@_15DKNDCGEA@?$AAt?$AAt@ 00000001800294c0     libucrt:lcidtoname_downlevel.obj
 0002:000064c8       ??_C@_15MGIFMDPL@?$AAp?$AAa@ 00000001800294c8     libucrt:lcidtoname_downlevel.obj
 0002:000064d0       ??_C@_15HCNDBBA@?$AAg?$AAu@ 00000001800294d0     libucrt:lcidtoname_downlevel.obj
 0002:000064d8       ??_C@_15FNBEIBON@?$AAt?$AAa@ 00000001800294d8     libucrt:lcidtoname_downlevel.obj
 0002:000064e0       ??_C@_15NCHGBGLK@?$AAt?$AAe@ 00000001800294e0     libucrt:lcidtoname_downlevel.obj
 0002:000064e8       ??_C@_15PHPHCBPF@?$AAk?$AAn@ 00000001800294e8     libucrt:lcidtoname_downlevel.obj
 0002:000064f0       ??_C@_15DLGBCKMP@?$AAm?$AAr@ 00000001800294f0     libucrt:lcidtoname_downlevel.obj
 0002:000064f8       ??_C@_15EABBLBFF@?$AAs?$AAa@ 00000001800294f8     libucrt:lcidtoname_downlevel.obj
 0002:00006500       ??_C@_15CBKOMCOI@?$AAm?$AAn@ 0000000180029500     libucrt:lcidtoname_downlevel.obj
 0002:00006508       ??_C@_15CKDMCJAF@?$AAg?$AAl@ 0000000180029508     libucrt:lcidtoname_downlevel.obj
 0002:00006510       ??_C@_17CNJFBPG@?$AAk?$AAo?$AAk@ 0000000180029510     libucrt:lcidtoname_downlevel.obj
 0002:00006518       ??_C@_17FFBJICPL@?$AAs?$AAy?$AAr@ 0000000180029518     libucrt:lcidtoname_downlevel.obj
 0002:00006520       ??_C@_17KPNDCPAF@?$AAd?$AAi?$AAv@ 0000000180029520     libucrt:lcidtoname_downlevel.obj
 0002:00006528       ??_C@_1M@OKAHONE@?$AAa?$AAr?$AA?9?$AAS?$AAA@ 0000000180029528     libucrt:lcidtoname_downlevel.obj
 0002:00006538       ??_C@_1M@FFFIGIGK@?$AAb?$AAg?$AA?9?$AAB?$AAG@ 0000000180029538     libucrt:lcidtoname_downlevel.obj
 0002:00006548       ??_C@_1M@BJNKEDC@?$AAc?$AAa?$AA?9?$AAE?$AAS@ 0000000180029548     libucrt:lcidtoname_downlevel.obj
 0002:00006558       ??_C@_1M@IJJHFJHA@?$AAc?$AAs?$AA?9?$AAC?$AAZ@ 0000000180029558     libucrt:lcidtoname_downlevel.obj
 0002:00006568       ??_C@_1M@CLPEOBGI@?$AAd?$AAa?$AA?9?$AAD?$AAK@ 0000000180029568     libucrt:lcidtoname_downlevel.obj
 0002:00006578       ??_C@_1M@MCMADGCB@?$AAd?$AAe?$AA?9?$AAD?$AAE@ 0000000180029578     libucrt:lcidtoname_downlevel.obj
 0002:00006588       ??_C@_1M@OOCKEMAM@?$AAe?$AAl?$AA?9?$AAG?$AAR@ 0000000180029588     libucrt:lcidtoname_downlevel.obj
 0002:00006598       ??_C@_1M@DDNJFGID@?$AAf?$AAi?$AA?9?$AAF?$AAI@ 0000000180029598     libucrt:lcidtoname_downlevel.obj
 0002:000065a8       ??_C@_1M@GLIPPMAC@?$AAf?$AAr?$AA?9?$AAF?$AAR@ 00000001800295a8     libucrt:lcidtoname_downlevel.obj
 0002:000065b8       ??_C@_1M@GFMCHPE@?$AAh?$AAe?$AA?9?$AAI?$AAL@ 00000001800295b8     libucrt:lcidtoname_downlevel.obj
 0002:000065c8       ??_C@_1M@MHLPGNKM@?$AAh?$AAu?$AA?9?$AAH?$AAU@ 00000001800295c8     libucrt:lcidtoname_downlevel.obj
 0002:000065d8       ??_C@_1M@LPDDNNPN@?$AAi?$AAs?$AA?9?$AAI?$AAS@ 00000001800295d8     libucrt:lcidtoname_downlevel.obj
 0002:000065e8       ??_C@_1M@MADIPODN@?$AAi?$AAt?$AA?9?$AAI?$AAT@ 00000001800295e8     libucrt:lcidtoname_downlevel.obj
 0002:000065f8       ??_C@_1M@IHBJJGG@?$AAn?$AAl?$AA?9?$AAN?$AAL@ 00000001800295f8     libucrt:lcidtoname_downlevel.obj
 0002:00006608       ??_C@_1M@EANAGDL@?$AAn?$AAb?$AA?9?$AAN?$AAO@ 0000000180029608     libucrt:lcidtoname_downlevel.obj
 0002:00006618       ??_C@_1M@NEIEMEGP@?$AAp?$AAl?$AA?9?$AAP?$AAL@ 0000000180029618     libucrt:lcidtoname_downlevel.obj
 0002:00006628       ??_C@_1M@BOCFIGEP@?$AAp?$AAt?$AA?9?$AAB?$AAR@ 0000000180029628     libucrt:lcidtoname_downlevel.obj
 0002:00006638       ??_C@_1M@IMPFOPBG@?$AAr?$AAo?$AA?9?$AAR?$AAO@ 0000000180029638     libucrt:lcidtoname_downlevel.obj
 0002:00006648       ??_C@_1M@IDNNEJMM@?$AAr?$AAu?$AA?9?$AAR?$AAU@ 0000000180029648     libucrt:lcidtoname_downlevel.obj
 0002:00006658       ??_C@_1M@LILEEOGM@?$AAh?$AAr?$AA?9?$AAH?$AAR@ 0000000180029658     libucrt:lcidtoname_downlevel.obj
 0002:00006668       ??_C@_1M@FKIFEHPB@?$AAs?$AAk?$AA?9?$AAS?$AAK@ 0000000180029668     libucrt:lcidtoname_downlevel.obj
 0002:00006678       ??_C@_1M@LJMAMNPJ@?$AAs?$AAq?$AA?9?$AAA?$AAL@ 0000000180029678     libucrt:lcidtoname_downlevel.obj
 0002:00006688       ??_C@_1M@GIAKDKJK@?$AAs?$AAv?$AA?9?$AAS?$AAE@ 0000000180029688     libucrt:lcidtoname_downlevel.obj
 0002:00006698       ??_C@_1M@MKJKIKCL@?$AAt?$AAh?$AA?9?$AAT?$AAH@ 0000000180029698     libucrt:lcidtoname_downlevel.obj
 0002:000066a8       ??_C@_1M@MFLCCMPB@?$AAt?$AAr?$AA?9?$AAT?$AAR@ 00000001800296a8     libucrt:lcidtoname_downlevel.obj
 0002:000066b8       ??_C@_1M@OIJHDKJN@?$AAu?$AAr?$AA?9?$AAP?$AAK@ 00000001800296b8     libucrt:lcidtoname_downlevel.obj
 0002:000066c8       ??_C@_1M@LHIPCIEK@?$AAi?$AAd?$AA?9?$AAI?$AAD@ 00000001800296c8     libucrt:lcidtoname_downlevel.obj
 0002:000066d8       ??_C@_1M@MFMOBGI@?$AAu?$AAk?$AA?9?$AAU?$AAA@ 00000001800296d8     libucrt:lcidtoname_downlevel.obj
 0002:000066e8       ??_C@_1M@OBGLJIPL@?$AAb?$AAe?$AA?9?$AAB?$AAY@ 00000001800296e8     libucrt:lcidtoname_downlevel.obj
 0002:000066f8       ??_C@_1M@BCFAJEAD@?$AAs?$AAl?$AA?9?$AAS?$AAI@ 00000001800296f8     libucrt:lcidtoname_downlevel.obj
 0002:00006708       ??_C@_1M@FKFFEDDN@?$AAe?$AAt?$AA?9?$AAE?$AAE@ 0000000180029708     libucrt:lcidtoname_downlevel.obj
 0002:00006718       ??_C@_1M@KGKKAACI@?$AAl?$AAv?$AA?9?$AAL?$AAV@ 0000000180029718     libucrt:lcidtoname_downlevel.obj
 0002:00006728       ??_C@_1M@IFGBIJO@?$AAl?$AAt?$AA?9?$AAL?$AAT@ 0000000180029728     libucrt:lcidtoname_downlevel.obj
 0002:00006738       ??_C@_1M@FGEAHEDM@?$AAf?$AAa?$AA?9?$AAI?$AAR@ 0000000180029738     libucrt:lcidtoname_downlevel.obj
 0002:00006748       ??_C@_1M@KBMAIBFN@?$AAv?$AAi?$AA?9?$AAV?$AAN@ 0000000180029748     libucrt:lcidtoname_downlevel.obj
 0002:00006758       ??_C@_1M@GPCBKDJK@?$AAh?$AAy?$AA?9?$AAA?$AAM@ 0000000180029758     libucrt:lcidtoname_downlevel.obj
 0002:00006768       ??_C@_1BG@BECMDDJB@?$AAa?$AAz?$AA?9?$AAA?$AAZ?$AA?9?$AAL?$AAa?$AAt?$AAn@ 0000000180029768     libucrt:lcidtoname_downlevel.obj
 0002:00006780       ??_C@_1M@MAOFCAEA@?$AAe?$AAu?$AA?9?$AAE?$AAS@ 0000000180029780     libucrt:lcidtoname_downlevel.obj
 0002:00006790       ??_C@_1M@IGHABKPI@?$AAm?$AAk?$AA?9?$AAM?$AAK@ 0000000180029790     libucrt:lcidtoname_downlevel.obj
 0002:000067a0       ??_C@_1M@IAIGNEJG@?$AAt?$AAn?$AA?9?$AAZ?$AAA@ 00000001800297a0     libucrt:lcidtoname_downlevel.obj
 0002:000067b0       ??_C@_1M@IIJCOJFA@?$AAx?$AAh?$AA?9?$AAZ?$AAA@ 00000001800297b0     libucrt:lcidtoname_downlevel.obj
 0002:000067c0       ??_C@_1M@LGPJHNJH@?$AAz?$AAu?$AA?9?$AAZ?$AAA@ 00000001800297c0     libucrt:lcidtoname_downlevel.obj
 0002:000067d0       ??_C@_1M@HOKAOIO@?$AAa?$AAf?$AA?9?$AAZ?$AAA@ 00000001800297d0     libucrt:lcidtoname_downlevel.obj
 0002:000067e0       ??_C@_1M@DPCLHLIE@?$AAk?$AAa?$AA?9?$AAG?$AAE@ 00000001800297e0     libucrt:lcidtoname_downlevel.obj
 0002:000067f0       ??_C@_1M@BLKMHJBI@?$AAf?$AAo?$AA?9?$AAF?$AAO@ 00000001800297f0     libucrt:lcidtoname_downlevel.obj
 0002:00006800       ??_C@_1M@LGGJAPPB@?$AAh?$AAi?$AA?9?$AAI?$AAN@ 0000000180029800     libucrt:lcidtoname_downlevel.obj
 0002:00006810       ??_C@_1M@FIKPIHFE@?$AAm?$AAt?$AA?9?$AAM?$AAT@ 0000000180029810     libucrt:lcidtoname_downlevel.obj
 0002:00006820       ??_C@_1M@HEGGPBFA@?$AAs?$AAe?$AA?9?$AAN?$AAO@ 0000000180029820     libucrt:lcidtoname_downlevel.obj
 0002:00006830       ??_C@_1M@EIBJEEPA@?$AAm?$AAs?$AA?9?$AAM?$AAY@ 0000000180029830     libucrt:lcidtoname_downlevel.obj
 0002:00006840       ??_C@_1M@FHLBGMPP@?$AAk?$AAk?$AA?9?$AAK?$AAZ@ 0000000180029840     libucrt:lcidtoname_downlevel.obj
 0002:00006850       ??_C@_1M@NGJJLCGI@?$AAk?$AAy?$AA?9?$AAK?$AAG@ 0000000180029850     libucrt:lcidtoname_downlevel.obj
 0002:00006860       ??_C@_1M@GIENNBFC@?$AAs?$AAw?$AA?9?$AAK?$AAE@ 0000000180029860     libucrt:lcidtoname_downlevel.obj
 0002:00006870       ??_C@_1BG@NDGMJIMJ@?$AAu?$AAz?$AA?9?$AAU?$AAZ?$AA?9?$AAL?$AAa?$AAt?$AAn@ 0000000180029870     libucrt:lcidtoname_downlevel.obj
 0002:00006888       ??_C@_1M@IDCCIHBC@?$AAt?$AAt?$AA?9?$AAR?$AAU@ 0000000180029888     libucrt:lcidtoname_downlevel.obj
 0002:00006898       ??_C@_1M@LOICPMOJ@?$AAb?$AAn?$AA?9?$AAI?$AAN@ 0000000180029898     libucrt:lcidtoname_downlevel.obj
 0002:000068a8       ??_C@_1M@KPKKNEAH@?$AAp?$AAa?$AA?9?$AAI?$AAN@ 00000001800298a8     libucrt:lcidtoname_downlevel.obj
 0002:000068b8       ??_C@_1M@PJGPPBOG@?$AAg?$AAu?$AA?9?$AAI?$AAN@ 00000001800298b8     libucrt:lcidtoname_downlevel.obj
 0002:000068c8       ??_C@_1M@KMKMOPHI@?$AAt?$AAa?$AA?9?$AAI?$AAN@ 00000001800298c8     libucrt:lcidtoname_downlevel.obj
 0002:000068d8       ??_C@_1M@KFEHEPAC@?$AAt?$AAe?$AA?9?$AAI?$AAN@ 00000001800298d8     libucrt:lcidtoname_downlevel.obj
 0002:000068e8       ??_C@_1M@CDCLMGHI@?$AAk?$AAn?$AA?9?$AAI?$AAN@ 00000001800298e8     libucrt:lcidtoname_downlevel.obj
 0002:000068f8       ??_C@_1M@MIODLDKF@?$AAm?$AAl?$AA?9?$AAI?$AAN@ 00000001800298f8     libucrt:lcidtoname_downlevel.obj
 0002:00006908       ??_C@_1M@PBIEACPO@?$AAm?$AAr?$AA?9?$AAI?$AAN@ 0000000180029908     libucrt:lcidtoname_downlevel.obj
 0002:00006918       ??_C@_1M@NIDEAGPH@?$AAs?$AAa?$AA?9?$AAI?$AAN@ 0000000180029918     libucrt:lcidtoname_downlevel.obj
 0002:00006928       ??_C@_1M@FHIHCBIO@?$AAm?$AAn?$AA?9?$AAM?$AAN@ 0000000180029928     libucrt:lcidtoname_downlevel.obj
 0002:00006938       ??_C@_1M@JAIJPENP@?$AAc?$AAy?$AA?9?$AAG?$AAB@ 0000000180029938     libucrt:lcidtoname_downlevel.obj
 0002:00006948       ??_C@_1M@PHGFBEPN@?$AAg?$AAl?$AA?9?$AAE?$AAS@ 0000000180029948     libucrt:lcidtoname_downlevel.obj
 0002:00006958       ??_C@_1O@KPIPDNCP@?$AAk?$AAo?$AAk?$AA?9?$AAI?$AAN@ 0000000180029958     libucrt:lcidtoname_downlevel.obj
 0002:00006968       ??_C@_1O@KNHJLDJA@?$AAs?$AAy?$AAr?$AA?9?$AAS?$AAY@ 0000000180029968     libucrt:lcidtoname_downlevel.obj
 0002:00006978       ??_C@_1O@MKEKBLAH@?$AAd?$AAi?$AAv?$AA?9?$AAM?$AAV@ 0000000180029978     libucrt:lcidtoname_downlevel.obj
 0002:00006988       ??_C@_1O@OHDCKDDF@?$AAq?$AAu?$AAz?$AA?9?$AAB?$AAO@ 0000000180029988     libucrt:lcidtoname_downlevel.obj
 0002:00006998       ??_C@_1M@LEPJNLFD@?$AAn?$AAs?$AA?9?$AAZ?$AAA@ 0000000180029998     libucrt:lcidtoname_downlevel.obj
 0002:000069a8       ??_C@_1M@OMLEIIJB@?$AAm?$AAi?$AA?9?$AAN?$AAZ@ 00000001800299a8     libucrt:lcidtoname_downlevel.obj
 0002:000069b8       ??_C@_1M@PMPEAILG@?$AAa?$AAr?$AA?9?$AAI?$AAQ@ 00000001800299b8     libucrt:lcidtoname_downlevel.obj
 0002:000069c8       ??_C@_1M@CNKPNOEE@?$AAd?$AAe?$AA?9?$AAC?$AAH@ 00000001800299c8     libucrt:lcidtoname_downlevel.obj
 0002:000069d8       ??_C@_1M@LKMGMLKO@?$AAe?$AAn?$AA?9?$AAG?$AAB@ 00000001800299d8     libucrt:lcidtoname_downlevel.obj
 0002:000069e8       ??_C@_1M@PGKJFFGL@?$AAe?$AAs?$AA?9?$AAM?$AAX@ 00000001800299e8     libucrt:lcidtoname_downlevel.obj
 0002:000069f8       ??_C@_1M@DNNANBDC@?$AAf?$AAr?$AA?9?$AAB?$AAE@ 00000001800299f8     libucrt:lcidtoname_downlevel.obj
 0002:00006a08       ??_C@_1M@HLGMDFHM@?$AAi?$AAt?$AA?9?$AAC?$AAH@ 0000000180029a08     libucrt:lcidtoname_downlevel.obj
 0002:00006a18       ??_C@_1M@CLLBGJH@?$AAn?$AAl?$AA?9?$AAB?$AAE@ 0000000180029a18     libucrt:lcidtoname_downlevel.obj
 0002:00006a28       ??_C@_1M@BODBOGLF@?$AAn?$AAn?$AA?9?$AAN?$AAO@ 0000000180029a28     libucrt:lcidtoname_downlevel.obj
 0002:00006a38       ??_C@_1M@HFFAHKAD@?$AAp?$AAt?$AA?9?$AAP?$AAT@ 0000000180029a38     libucrt:lcidtoname_downlevel.obj
 0002:00006a48       ??_C@_1BG@LNOAKHIE@?$AAs?$AAr?$AA?9?$AAS?$AAP?$AA?9?$AAL?$AAa?$AAt?$AAn@ 0000000180029a48     libucrt:lcidtoname_downlevel.obj
 0002:00006a60       ??_C@_1M@HBMHBGAK@?$AAs?$AAv?$AA?9?$AAF?$AAI@ 0000000180029a60     libucrt:lcidtoname_downlevel.obj
 0002:00006a70       ??_C@_1BG@DGCJGJBE@?$AAa?$AAz?$AA?9?$AAA?$AAZ?$AA?9?$AAC?$AAy?$AAr?$AAl@ 0000000180029a70     libucrt:lcidtoname_downlevel.obj
 0002:00006a88       ??_C@_1M@KEJDAAHB@?$AAs?$AAe?$AA?9?$AAS?$AAE@ 0000000180029a88     libucrt:lcidtoname_downlevel.obj
 0002:00006a98       ??_C@_1M@HEIBJJAD@?$AAm?$AAs?$AA?9?$AAB?$AAN@ 0000000180029a98     libucrt:lcidtoname_downlevel.obj
 0002:00006aa8       ??_C@_1BG@PBGJMCEM@?$AAu?$AAz?$AA?9?$AAU?$AAZ?$AA?9?$AAC?$AAy?$AAr?$AAl@ 0000000180029aa8     libucrt:lcidtoname_downlevel.obj
 0002:00006ac0       ??_C@_1O@LAOBCMDF@?$AAq?$AAu?$AAz?$AA?9?$AAE?$AAC@ 0000000180029ac0     libucrt:lcidtoname_downlevel.obj
 0002:00006ad0       ??_C@_1M@POEEMAIO@?$AAa?$AAr?$AA?9?$AAE?$AAG@ 0000000180029ad0     libucrt:lcidtoname_downlevel.obj
 0002:00006ae0       ??_C@_1M@EFAKDEDL@?$AAz?$AAh?$AA?9?$AAH?$AAK@ 0000000180029ae0     libucrt:lcidtoname_downlevel.obj
 0002:00006af0       ??_C@_1M@HKKIJHGI@?$AAd?$AAe?$AA?9?$AAA?$AAT@ 0000000180029af0     libucrt:lcidtoname_downlevel.obj
 0002:00006b00       ??_C@_1M@KBFBEHJF@?$AAe?$AAn?$AA?9?$AAA?$AAU@ 0000000180029b00     libucrt:lcidtoname_downlevel.obj
 0002:00006b10       ??_C@_1M@MNPLFAAH@?$AAe?$AAs?$AA?9?$AAE?$AAS@ 0000000180029b10     libucrt:lcidtoname_downlevel.obj
 0002:00006b20       ??_C@_1M@HJOOJFMA@?$AAf?$AAr?$AA?9?$AAC?$AAA@ 0000000180029b20     libucrt:lcidtoname_downlevel.obj
 0002:00006b30       ??_C@_1BG@JPOFPNAB@?$AAs?$AAr?$AA?9?$AAS?$AAP?$AA?9?$AAC?$AAy?$AAr?$AAl@ 0000000180029b30     libucrt:lcidtoname_downlevel.obj
 0002:00006b48       ??_C@_1M@LNFOCMOB@?$AAs?$AAe?$AA?9?$AAF?$AAI@ 0000000180029b48     libucrt:lcidtoname_downlevel.obj
 0002:00006b58       ??_C@_1O@MGJBOAMB@?$AAq?$AAu?$AAz?$AA?9?$AAP?$AAE@ 0000000180029b58     libucrt:lcidtoname_downlevel.obj
 0002:00006b68       ??_C@_1M@GJINLBOK@?$AAa?$AAr?$AA?9?$AAL?$AAY@ 0000000180029b68     libucrt:lcidtoname_downlevel.obj
 0002:00006b78       ??_C@_1M@GGMNHJNL@?$AAz?$AAh?$AA?9?$AAS?$AAG@ 0000000180029b78     libucrt:lcidtoname_downlevel.obj
 0002:00006b88       ??_C@_1M@HOIKODND@?$AAd?$AAe?$AA?9?$AAL?$AAU@ 0000000180029b88     libucrt:lcidtoname_downlevel.obj
 0002:00006b98       ??_C@_1M@DDOCCGFG@?$AAe?$AAn?$AA?9?$AAC?$AAA@ 0000000180029b98     libucrt:lcidtoname_downlevel.obj
 0002:00006ba8       ??_C@_1M@BNOEMJLF@?$AAe?$AAs?$AA?9?$AAG?$AAT@ 0000000180029ba8     libucrt:lcidtoname_downlevel.obj
 0002:00006bb8       ??_C@_1M@EOGNKEK@?$AAf?$AAr?$AA?9?$AAC?$AAH@ 0000000180029bb8     libucrt:lcidtoname_downlevel.obj
 0002:00006bc8       ??_C@_1M@FLIDJFHL@?$AAh?$AAr?$AA?9?$AAB?$AAA@ 0000000180029bc8     libucrt:lcidtoname_downlevel.obj
 0002:00006bd8       ??_C@_1O@FMCELNAJ@?$AAs?$AAm?$AAj?$AA?9?$AAN?$AAO@ 0000000180029bd8     libucrt:lcidtoname_downlevel.obj
 0002:00006be8       ??_C@_1M@JHGLJMGJ@?$AAa?$AAr?$AA?9?$AAD?$AAZ@ 0000000180029be8     libucrt:lcidtoname_downlevel.obj
 0002:00006bf8       ??_C@_1M@JKKFDCNP@?$AAz?$AAh?$AA?9?$AAM?$AAO@ 0000000180029bf8     libucrt:lcidtoname_downlevel.obj
 0002:00006c08       ??_C@_1M@GEEFALPE@?$AAd?$AAe?$AA?9?$AAL?$AAI@ 0000000180029c08     libucrt:lcidtoname_downlevel.obj
 0002:00006c18       ??_C@_1M@IGEOFBG@?$AAe?$AAn?$AA?9?$AAN?$AAZ@ 0000000180029c18     libucrt:lcidtoname_downlevel.obj
 0002:00006c28       ??_C@_1M@KDBONEHP@?$AAe?$AAs?$AA?9?$AAC?$AAR@ 0000000180029c28     libucrt:lcidtoname_downlevel.obj
 0002:00006c38       ??_C@_1M@FHMDOHNN@?$AAf?$AAr?$AA?9?$AAL?$AAU@ 0000000180029c38     libucrt:lcidtoname_downlevel.obj
 0002:00006c48       ??_C@_1BG@NFKKMAFG@?$AAb?$AAs?$AA?9?$AAB?$AAA?$AA?9?$AAL?$AAa?$AAt?$AAn@ 0000000180029c48     libucrt:lcidtoname_downlevel.obj
 0002:00006c60       ??_C@_1O@IMNBEMCI@?$AAs?$AAm?$AAj?$AA?9?$AAS?$AAE@ 0000000180029c60     libucrt:lcidtoname_downlevel.obj
 0002:00006c70       ??_C@_1M@DHHMBNDP@?$AAa?$AAr?$AA?9?$AAM?$AAA@ 0000000180029c70     libucrt:lcidtoname_downlevel.obj
 0002:00006c80       ??_C@_1M@BNBLJCGH@?$AAe?$AAn?$AA?9?$AAI?$AAE@ 0000000180029c80     libucrt:lcidtoname_downlevel.obj
 0002:00006c90       ??_C@_1M@GEPAFMDL@?$AAe?$AAs?$AA?9?$AAP?$AAA@ 0000000180029c90     libucrt:lcidtoname_downlevel.obj
 0002:00006ca0       ??_C@_1M@OJONDMDL@?$AAf?$AAr?$AA?9?$AAM?$AAC@ 0000000180029ca0     libucrt:lcidtoname_downlevel.obj
 0002:00006cb0       ??_C@_1BG@OBCNFJB@?$AAs?$AAr?$AA?9?$AAB?$AAA?$AA?9?$AAL?$AAa?$AAt?$AAn@ 0000000180029cb0     libucrt:lcidtoname_downlevel.obj
 0002:00006cc8       ??_C@_1O@KEMEEGPO@?$AAs?$AAm?$AAa?$AA?9?$AAN?$AAO@ 0000000180029cc8     libucrt:lcidtoname_downlevel.obj
 0002:00006cd8       ??_C@_1M@ELMGFODK@?$AAa?$AAr?$AA?9?$AAT?$AAN@ 0000000180029cd8     libucrt:lcidtoname_downlevel.obj
 0002:00006ce8       ??_C@_1M@BHDLHFAF@?$AAe?$AAn?$AA?9?$AAZ?$AAA@ 0000000180029ce8     libucrt:lcidtoname_downlevel.obj
 0002:00006cf8       ??_C@_1M@BMGIGLIF@?$AAe?$AAs?$AA?9?$AAD?$AAO@ 0000000180029cf8     libucrt:lcidtoname_downlevel.obj
 0002:00006d08       ??_C@_1BG@CMBHIPBE@?$AAs?$AAr?$AA?9?$AAB?$AAA?$AA?9?$AAC?$AAy?$AAr?$AAl@ 0000000180029d08     libucrt:lcidtoname_downlevel.obj
 0002:00006d20       ??_C@_1O@HEDBLHNP@?$AAs?$AAm?$AAa?$AA?9?$AAS?$AAE@ 0000000180029d20     libucrt:lcidtoname_downlevel.obj
 0002:00006d30       ??_C@_1M@DAGCADIM@?$AAa?$AAr?$AA?9?$AAO?$AAM@ 0000000180029d30     libucrt:lcidtoname_downlevel.obj
 0002:00006d40       ??_C@_1M@FODLMICG@?$AAe?$AAn?$AA?9?$AAJ?$AAM@ 0000000180029d40     libucrt:lcidtoname_downlevel.obj
 0002:00006d50       ??_C@_1M@DNMLCIHB@?$AAe?$AAs?$AA?9?$AAV?$AAE@ 0000000180029d50     libucrt:lcidtoname_downlevel.obj
 0002:00006d60       ??_C@_1O@EOKHMKJK@?$AAs?$AAm?$AAs?$AA?9?$AAF?$AAI@ 0000000180029d60     libucrt:lcidtoname_downlevel.obj
 0002:00006d70       ??_C@_1M@CAFJMKOF@?$AAa?$AAr?$AA?9?$AAY?$AAE@ 0000000180029d70     libucrt:lcidtoname_downlevel.obj
 0002:00006d80       ??_C@_1M@CBFHIJLI@?$AAe?$AAn?$AA?9?$AAC?$AAB@ 0000000180029d80     libucrt:lcidtoname_downlevel.obj
 0002:00006d90       ??_C@_1M@BGNFLDN@?$AAe?$AAs?$AA?9?$AAC?$AAO@ 0000000180029d90     libucrt:lcidtoname_downlevel.obj
 0002:00006da0       ??_C@_1O@JMPHMAMC@?$AAs?$AAm?$AAn?$AA?9?$AAF?$AAI@ 0000000180029da0     libucrt:lcidtoname_downlevel.obj
 0002:00006db0       ??_C@_1M@JLANABKE@?$AAa?$AAr?$AA?9?$AAS?$AAY@ 0000000180029db0     libucrt:lcidtoname_downlevel.obj
 0002:00006dc0       ??_C@_1M@HPKGCFGN@?$AAe?$AAn?$AA?9?$AAB?$AAZ@ 0000000180029dc0     libucrt:lcidtoname_downlevel.obj
 0002:00006dd0       ??_C@_1M@OLJCMLGM@?$AAe?$AAs?$AA?9?$AAP?$AAE@ 0000000180029dd0     libucrt:lcidtoname_downlevel.obj
 0002:00006de0       ??_C@_1M@MKKGFKLE@?$AAa?$AAr?$AA?9?$AAJ?$AAO@ 0000000180029de0     libucrt:lcidtoname_downlevel.obj
 0002:00006df0       ??_C@_1M@EKPGLDNI@?$AAe?$AAn?$AA?9?$AAT?$AAT@ 0000000180029df0     libucrt:lcidtoname_downlevel.obj
 0002:00006e00       ??_C@_1M@OONGHFHE@?$AAe?$AAs?$AA?9?$AAA?$AAR@ 0000000180029e00     libucrt:lcidtoname_downlevel.obj
 0002:00006e10       ??_C@_1M@OOJFGBHE@?$AAa?$AAr?$AA?9?$AAL?$AAB@ 0000000180029e10     libucrt:lcidtoname_downlevel.obj
 0002:00006e20       ??_C@_1M@GCEJHNEG@?$AAe?$AAn?$AA?9?$AAZ?$AAW@ 0000000180029e20     libucrt:lcidtoname_downlevel.obj
 0002:00006e30       ??_C@_1M@JNOCAHJI@?$AAe?$AAs?$AA?9?$AAE?$AAC@ 0000000180029e30     libucrt:lcidtoname_downlevel.obj
 0002:00006e40       ??_C@_1M@JEFHPGGB@?$AAa?$AAr?$AA?9?$AAK?$AAW@ 0000000180029e40     libucrt:lcidtoname_downlevel.obj
 0002:00006e50       ??_C@_1M@MLKIBJOJ@?$AAe?$AAn?$AA?9?$AAP?$AAH@ 0000000180029e50     libucrt:lcidtoname_downlevel.obj
 0002:00006e60       ??_C@_1M@BDNIPEND@?$AAe?$AAs?$AA?9?$AAC?$AAL@ 0000000180029e60     libucrt:lcidtoname_downlevel.obj
 0002:00006e70       ??_C@_1M@MPNMEKBD@?$AAa?$AAr?$AA?9?$AAA?$AAE@ 0000000180029e70     libucrt:lcidtoname_downlevel.obj
 0002:00006e80       ??_C@_1M@KBJALCPI@?$AAe?$AAs?$AA?9?$AAU?$AAY@ 0000000180029e80     libucrt:lcidtoname_downlevel.obj
 0002:00006e90       ??_C@_1M@LLCCOAGA@?$AAa?$AAr?$AA?9?$AAB?$AAH@ 0000000180029e90     libucrt:lcidtoname_downlevel.obj
 0002:00006ea0       ??_C@_1M@PBFNCDEL@?$AAe?$AAs?$AA?9?$AAP?$AAY@ 0000000180029ea0     libucrt:lcidtoname_downlevel.obj
 0002:00006eb0       ??_C@_1M@EDGINPNP@?$AAa?$AAr?$AA?9?$AAQ?$AAA@ 0000000180029eb0     libucrt:lcidtoname_downlevel.obj
 0002:00006ec0       ??_C@_1M@MKDBIIJI@?$AAe?$AAs?$AA?9?$AAB?$AAO@ 0000000180029ec0     libucrt:lcidtoname_downlevel.obj
 0002:00006ed0       ??_C@_1M@CPKKEBLD@?$AAe?$AAs?$AA?9?$AAS?$AAV@ 0000000180029ed0     libucrt:lcidtoname_downlevel.obj
 0002:00006ee0       ??_C@_1M@NDBGMMJL@?$AAe?$AAs?$AA?9?$AAH?$AAN@ 0000000180029ee0     libucrt:lcidtoname_downlevel.obj
 0002:00006ef0       ??_C@_1M@JIJIBHDP@?$AAe?$AAs?$AA?9?$AAN?$AAI@ 0000000180029ef0     libucrt:lcidtoname_downlevel.obj
 0002:00006f00       ??_C@_1M@CGFMKEEK@?$AAe?$AAs?$AA?9?$AAP?$AAR@ 0000000180029f00     libucrt:lcidtoname_downlevel.obj
 0002:00006f10       ??_C@_1O@ICJHKIIK@?$AAz?$AAh?$AA?9?$AAC?$AAH?$AAT@ 0000000180029f10     libucrt:lcidtoname_downlevel.obj
 0002:00006f20       ??_C@_15CLNEJCE@?$AAs?$AAr@ 0000000180029f20     libucrt:lcidtoname_downlevel.obj
 0002:00007d70       ??_C@_1M@KAHEKEIG@?$AAa?$AAf?$AA?9?$AAz?$AAa@ 000000018002ad70     libucrt:lcidtoname_downlevel.obj
 0002:00007d80       ??_C@_1M@GIECOABL@?$AAa?$AAr?$AA?9?$AAa?$AAe@ 000000018002ad80     libucrt:lcidtoname_downlevel.obj
 0002:00007d90       ??_C@_1M@BMLMEKGI@?$AAa?$AAr?$AA?9?$AAb?$AAh@ 000000018002ad90     libucrt:lcidtoname_downlevel.obj
 0002:00007da0       ??_C@_1M@DAPFDGGB@?$AAa?$AAr?$AA?9?$AAd?$AAz@ 000000018002ada0     libucrt:lcidtoname_downlevel.obj
 0002:00007db0       ??_C@_1M@FJNKGKIG@?$AAa?$AAr?$AA?9?$AAe?$AAg@ 000000018002adb0     libucrt:lcidtoname_downlevel.obj
 0002:00007dc0       ??_C@_1M@FLGKKCLO@?$AAa?$AAr?$AA?9?$AAi?$AAq@ 000000018002adc0     libucrt:lcidtoname_downlevel.obj
 0002:00007dd0       ??_C@_1M@GNDIPALM@?$AAa?$AAr?$AA?9?$AAj?$AAo@ 000000018002add0     libucrt:lcidtoname_downlevel.obj
 0002:00007de0       ??_C@_1M@DDMJFMGJ@?$AAa?$AAr?$AA?9?$AAk?$AAw@ 000000018002ade0     libucrt:lcidtoname_downlevel.obj
 0002:00007df0       ??_C@_1M@EJALMLHM@?$AAa?$AAr?$AA?9?$AAl?$AAb@ 000000018002adf0     libucrt:lcidtoname_downlevel.obj
 0002:00007e00       ??_C@_1M@MOBDBLOC@?$AAa?$AAr?$AA?9?$AAl?$AAy@ 000000018002ae00     libucrt:lcidtoname_downlevel.obj
 0002:00007e10       ??_C@_1M@JAOCLHDH@?$AAa?$AAr?$AA?9?$AAm?$AAa@ 000000018002ae10     libucrt:lcidtoname_downlevel.obj
 0002:00007e20       ??_C@_1M@JHPMKJIE@?$AAa?$AAr?$AA?9?$AAo?$AAm@ 000000018002ae20     libucrt:lcidtoname_downlevel.obj
 0002:00007e30       ??_C@_1M@OEPGHFNH@?$AAa?$AAr?$AA?9?$AAq?$AAa@ 000000018002ae30     libucrt:lcidtoname_downlevel.obj
 0002:00007e40       ??_C@_1M@KJDONENM@?$AAa?$AAr?$AA?9?$AAs?$AAa@ 000000018002ae40     libucrt:lcidtoname_downlevel.obj
 0002:00007e50       ??_C@_1M@DMJDKLKM@?$AAa?$AAr?$AA?9?$AAs?$AAy@ 000000018002ae50     libucrt:lcidtoname_downlevel.obj
 0002:00007e60       ??_C@_1M@OMFIPEDC@?$AAa?$AAr?$AA?9?$AAt?$AAn@ 000000018002ae60     libucrt:lcidtoname_downlevel.obj
 0002:00007e70       ??_C@_1M@IHMHGAON@?$AAa?$AAr?$AA?9?$AAy?$AAe@ 000000018002ae70     libucrt:lcidtoname_downlevel.obj
 0002:00007e80       ??_C@_1BG@KDCPGJGB@?$AAa?$AAz?$AA?9?$AAa?$AAz?$AA?9?$AAc?$AAy?$AAr?$AAl@ 000000018002ae80     libucrt:lcidtoname_downlevel.obj
 0002:00007e98       ??_C@_1BG@IBCKDDOE@?$AAa?$AAz?$AA?9?$AAa?$AAz?$AA?9?$AAl?$AAa?$AAt?$AAn@ 000000018002ae98     libucrt:lcidtoname_downlevel.obj
 0002:00007eb0       ??_C@_1M@EGPFDCPD@?$AAb?$AAe?$AA?9?$AAb?$AAy@ 000000018002aeb0     libucrt:lcidtoname_downlevel.obj
 0002:00007ec0       ??_C@_1M@PCMGMCGC@?$AAb?$AAg?$AA?9?$AAb?$AAg@ 000000018002aec0     libucrt:lcidtoname_downlevel.obj
 0002:00007ed0       ??_C@_1M@BJBMFGOB@?$AAb?$AAn?$AA?9?$AAi?$AAn@ 000000018002aed0     libucrt:lcidtoname_downlevel.obj
 0002:00007ee0       ??_C@_1BG@EAKMMACD@?$AAb?$AAs?$AA?9?$AAb?$AAa?$AA?9?$AAl?$AAa?$AAt?$AAn@ 000000018002aee0     libucrt:lcidtoname_downlevel.obj
 0002:00007ef8       ??_C@_1M@KGADAODK@?$AAc?$AAa?$AA?9?$AAe?$AAs@ 000000018002aef8     libucrt:lcidtoname_downlevel.obj
 0002:00007f08       ??_C@_1M@COAJPDHI@?$AAc?$AAs?$AA?9?$AAc?$AAz@ 000000018002af08     libucrt:lcidtoname_downlevel.obj
 0002:00007f18       ??_C@_1M@DHBHFONH@?$AAc?$AAy?$AA?9?$AAg?$AAb@ 000000018002af18     libucrt:lcidtoname_downlevel.obj
 0002:00007f28       ??_C@_1M@IMGKELGA@?$AAd?$AAa?$AA?9?$AAd?$AAk@ 000000018002af28     libucrt:lcidtoname_downlevel.obj
 0002:00007f38       ??_C@_1M@NNDGDNGA@?$AAd?$AAe?$AA?9?$AAa?$AAt@ 000000018002af38     libucrt:lcidtoname_downlevel.obj
 0002:00007f48       ??_C@_1M@IKDBHEEM@?$AAd?$AAe?$AA?9?$AAc?$AAh@ 000000018002af48     libucrt:lcidtoname_downlevel.obj
 0002:00007f58       ??_C@_1M@GFFOJMCJ@?$AAd?$AAe?$AA?9?$AAd?$AAe@ 000000018002af58     libucrt:lcidtoname_downlevel.obj
 0002:00007f68       ??_C@_1M@MDNLKBPM@?$AAd?$AAe?$AA?9?$AAl?$AAi@ 000000018002af68     libucrt:lcidtoname_downlevel.obj
 0002:00007f78       ??_C@_1M@NJBEEJNL@?$AAd?$AAe?$AA?9?$AAl?$AAu@ 000000018002af78     libucrt:lcidtoname_downlevel.obj
 0002:00007f88       ??_C@_1O@GNNELBAP@?$AAd?$AAi?$AAv?$AA?9?$AAm?$AAv@ 000000018002af88     libucrt:lcidtoname_downlevel.obj
 0002:00007f98       ??_C@_1M@EJLEOGAE@?$AAe?$AAl?$AA?9?$AAg?$AAr@ 000000018002af98     libucrt:lcidtoname_downlevel.obj
 0002:00007fa8       ??_C@_1M@GMPONJN@?$AAe?$AAn?$AA?9?$AAa?$AAu@ 000000018002afa8     libucrt:lcidtoname_downlevel.obj
 0002:00007fb8       ??_C@_1M@NIDIIPGF@?$AAe?$AAn?$AA?9?$AAb?$AAz@ 000000018002afb8     libucrt:lcidtoname_downlevel.obj
 0002:00007fc8       ??_C@_1M@JEHMIMFO@?$AAe?$AAn?$AA?9?$AAc?$AAa@ 000000018002afc8     libucrt:lcidtoname_downlevel.obj
 0002:00007fd8       ??_C@_1M@IGMJCDLA@?$AAe?$AAn?$AA?9?$AAc?$AAb@ 000000018002afd8     libucrt:lcidtoname_downlevel.obj
 0002:00007fe8       ??_C@_1M@BNFIGBKG@?$AAe?$AAn?$AA?9?$AAg?$AAb@ 000000018002afe8     libucrt:lcidtoname_downlevel.obj
 0002:00007ff8       ??_C@_1M@LKIFDIGP@?$AAe?$AAn?$AA?9?$AAi?$AAe@ 000000018002aff8     libucrt:lcidtoname_downlevel.obj
 0002:00008008       ??_C@_1M@PJKFGCCO@?$AAe?$AAn?$AA?9?$AAj?$AAm@ 000000018002b008     libucrt:lcidtoname_downlevel.obj
 0002:00008018       ??_C@_1M@KPPKEPBO@?$AAe?$AAn?$AA?9?$AAn?$AAz@ 000000018002b018     libucrt:lcidtoname_downlevel.obj
 0002:00008028       ??_C@_1M@GMDGLDOB@?$AAe?$AAn?$AA?9?$AAp?$AAh@ 000000018002b028     libucrt:lcidtoname_downlevel.obj
 0002:00008038       ??_C@_1M@ONGIBJNA@?$AAe?$AAn?$AA?9?$AAt?$AAt@ 000000018002b038     libucrt:lcidtoname_downlevel.obj
 0002:00008048       ??_C@_1M@LLODPCMM@?$AAe?$AAn?$AA?9?$AAu?$AAs@ 000000018002b048     libucrt:lcidtoname_downlevel.obj
 0002:00008058       ??_C@_1M@LAKFNPAN@?$AAe?$AAn?$AA?9?$AAz?$AAa@ 000000018002b058     libucrt:lcidtoname_downlevel.obj
 0002:00008068       ??_C@_1M@MFNHNHEO@?$AAe?$AAn?$AA?9?$AAz?$AAw@ 000000018002b068     libucrt:lcidtoname_downlevel.obj
 0002:00008078       ??_C@_1M@EJEINPHM@?$AAe?$AAs?$AA?9?$AAa?$AAr@ 000000018002b078     libucrt:lcidtoname_downlevel.obj
 0002:00008088       ??_C@_1M@GNKPCCJA@?$AAe?$AAs?$AA?9?$AAb?$AAo@ 000000018002b088     libucrt:lcidtoname_downlevel.obj
 0002:00008098       ??_C@_1M@LEEGFONL@?$AAe?$AAs?$AA?9?$AAc?$AAl@ 000000018002b098     libucrt:lcidtoname_downlevel.obj
 0002:000080a8       ??_C@_1M@KGPDPBDF@?$AAe?$AAs?$AA?9?$AAc?$AAo@ 000000018002b0a8     libucrt:lcidtoname_downlevel.obj
 0002:000080b8       ??_C@_1M@EIAHOHH@?$AAe?$AAs?$AA?9?$AAc?$AAr@ 000000018002b0b8     libucrt:lcidtoname_downlevel.obj
 0002:000080c8       ??_C@_1M@LLPGMBIN@?$AAe?$AAs?$AA?9?$AAd?$AAo@ 000000018002b0c8     libucrt:lcidtoname_downlevel.obj
 0002:000080d8       ??_C@_1M@DKHMKNJA@?$AAe?$AAs?$AA?9?$AAe?$AAc@ 000000018002b0d8     libucrt:lcidtoname_downlevel.obj
 0002:000080e8       ??_C@_1M@GKGFPKAP@?$AAe?$AAs?$AA?9?$AAe?$AAs@ 000000018002b0e8     libucrt:lcidtoname_downlevel.obj
 0002:000080f8       ??_C@_1M@LKHKGDLN@?$AAe?$AAs?$AA?9?$AAg?$AAt@ 000000018002b0f8     libucrt:lcidtoname_downlevel.obj
 0002:00008108       ??_C@_1M@HEIIGGJD@?$AAe?$AAs?$AA?9?$AAh?$AAn@ 000000018002b108     libucrt:lcidtoname_downlevel.obj
 0002:00008118       ??_C@_1M@FBDHPPGD@?$AAe?$AAs?$AA?9?$AAm?$AAx@ 000000018002b118     libucrt:lcidtoname_downlevel.obj
 0002:00008128       ??_C@_1M@DPAGLNDH@?$AAe?$AAs?$AA?9?$AAn?$AAi@ 000000018002b128     libucrt:lcidtoname_downlevel.obj
 0002:00008138       ??_C@_1M@MDGOPGDD@?$AAe?$AAs?$AA?9?$AAp?$AAa@ 000000018002b138     libucrt:lcidtoname_downlevel.obj
 0002:00008148       ??_C@_1M@EMAMGBGE@?$AAe?$AAs?$AA?9?$AAp?$AAe@ 000000018002b148     libucrt:lcidtoname_downlevel.obj
 0002:00008158       ??_C@_1M@IBMCAOEC@?$AAe?$AAs?$AA?9?$AAp?$AAr@ 000000018002b158     libucrt:lcidtoname_downlevel.obj
 0002:00008168       ??_C@_1M@FGMDIJED@?$AAe?$AAs?$AA?9?$AAp?$AAy@ 000000018002b168     libucrt:lcidtoname_downlevel.obj
 0002:00008178       ??_C@_1M@IIDEOLLL@?$AAe?$AAs?$AA?9?$AAs?$AAv@ 000000018002b178     libucrt:lcidtoname_downlevel.obj
 0002:00008188       ??_C@_1M@GAOBIPA@?$AAe?$AAs?$AA?9?$AAu?$AAy@ 000000018002b188     libucrt:lcidtoname_downlevel.obj
 0002:00008198       ??_C@_1M@JKFFICHJ@?$AAe?$AAs?$AA?9?$AAv?$AAe@ 000000018002b198     libucrt:lcidtoname_downlevel.obj
 0002:000081a8       ??_C@_1M@PNMLOJDF@?$AAe?$AAt?$AA?9?$AAe?$AAe@ 000000018002b1a8     libucrt:lcidtoname_downlevel.obj
 0002:000081b8       ??_C@_1M@GHHLIKEI@?$AAe?$AAu?$AA?9?$AAe?$AAs@ 000000018002b1b8     libucrt:lcidtoname_downlevel.obj
 0002:000081c8       ??_C@_1M@PBNONODE@?$AAf?$AAa?$AA?9?$AAi?$AAr@ 000000018002b1c8     libucrt:lcidtoname_downlevel.obj
 0002:000081d8       ??_C@_1M@JEEHPMIL@?$AAf?$AAi?$AA?9?$AAf?$AAi@ 000000018002b1d8     libucrt:lcidtoname_downlevel.obj
 0002:000081e8       ??_C@_1M@LMDCNDBA@?$AAf?$AAo?$AA?9?$AAf?$AAo@ 000000018002b1e8     libucrt:lcidtoname_downlevel.obj
 0002:000081f8       ??_C@_1M@JKEOHLDK@?$AAf?$AAr?$AA?9?$AAb?$AAe@ 000000018002b1f8     libucrt:lcidtoname_downlevel.obj
 0002:00008208       ??_C@_1M@NOHADPMI@?$AAf?$AAr?$AA?9?$AAc?$AAa@ 000000018002b208     libucrt:lcidtoname_downlevel.obj
 0002:00008218       ??_C@_1M@KDHIHAEC@?$AAf?$AAr?$AA?9?$AAc?$AAh@ 000000018002b218     libucrt:lcidtoname_downlevel.obj
 0002:00008228       ??_C@_1M@MMBBFGAK@?$AAf?$AAr?$AA?9?$AAf?$AAr@ 000000018002b228     libucrt:lcidtoname_downlevel.obj
 0002:00008238       ??_C@_1M@PAFNENNF@?$AAf?$AAr?$AA?9?$AAl?$AAu@ 000000018002b238     libucrt:lcidtoname_downlevel.obj
 0002:00008248       ??_C@_1M@EOHDJGDD@?$AAf?$AAr?$AA?9?$AAm?$AAc@ 000000018002b248     libucrt:lcidtoname_downlevel.obj
 0002:00008258       ??_C@_1M@FAPLLOPF@?$AAg?$AAl?$AA?9?$AAe?$AAs@ 000000018002b258     libucrt:lcidtoname_downlevel.obj
 0002:00008268       ??_C@_1M@FOPBFLOO@?$AAg?$AAu?$AA?9?$AAi?$AAn@ 000000018002b268     libucrt:lcidtoname_downlevel.obj
 0002:00008278       ??_C@_1M@KBMCINPM@?$AAh?$AAe?$AA?9?$AAi?$AAl@ 000000018002b278     libucrt:lcidtoname_downlevel.obj
 0002:00008288       ??_C@_1M@BBPHKFPJ@?$AAh?$AAi?$AA?9?$AAi?$AAn@ 000000018002b288     libucrt:lcidtoname_downlevel.obj
 0002:00008298       ??_C@_1M@PMBNDPHD@?$AAh?$AAr?$AA?9?$AAb?$AAa@ 000000018002b298     libucrt:lcidtoname_downlevel.obj
 0002:000082a8       ??_C@_1M@BPCKOEGE@?$AAh?$AAr?$AA?9?$AAh?$AAr@ 000000018002b2a8     libucrt:lcidtoname_downlevel.obj
 0002:000082b8       ??_C@_1M@GACBMHKE@?$AAh?$AAu?$AA?9?$AAh?$AAu@ 000000018002b2b8     libucrt:lcidtoname_downlevel.obj
 0002:000082c8       ??_C@_1M@MILPAJJC@?$AAh?$AAy?$AA?9?$AAa?$AAm@ 000000018002b2c8     libucrt:lcidtoname_downlevel.obj
 0002:000082d8       ??_C@_1M@BABBICEC@?$AAi?$AAd?$AA?9?$AAi?$AAd@ 000000018002b2d8     libucrt:lcidtoname_downlevel.obj
 0002:000082e8       ??_C@_1M@BIKNHHPF@?$AAi?$AAs?$AA?9?$AAi?$AAs@ 000000018002b2e8     libucrt:lcidtoname_downlevel.obj
 0002:000082f8       ??_C@_1M@NMPCJPHE@?$AAi?$AAt?$AA?9?$AAc?$AAh@ 000000018002b2f8     libucrt:lcidtoname_downlevel.obj
 0002:00008308       ??_C@_1M@GHKGFEDF@?$AAi?$AAt?$AA?9?$AAi?$AAt@ 000000018002b308     libucrt:lcidtoname_downlevel.obj
 0002:00008318       ??_C@_1M@NIEJCJJA@?$AAj?$AAa?$AA?9?$AAj?$AAp@ 000000018002b318     libucrt:lcidtoname_downlevel.obj
 0002:00008328       ??_C@_1M@JILFNBIM@?$AAk?$AAa?$AA?9?$AAg?$AAe@ 000000018002b328     libucrt:lcidtoname_downlevel.obj
 0002:00008338       ??_C@_1M@PACPMGPH@?$AAk?$AAk?$AA?9?$AAk?$AAz@ 000000018002b338     libucrt:lcidtoname_downlevel.obj
 0002:00008348       ??_C@_1M@IELFGMHA@?$AAk?$AAn?$AA?9?$AAi?$AAn@ 000000018002b348     libucrt:lcidtoname_downlevel.obj
 0002:00008358       ??_C@_1O@IBBJHCH@?$AAk?$AAo?$AAk?$AA?9?$AAi?$AAn@ 000000018002b358     libucrt:lcidtoname_downlevel.obj
 0002:00008368       ??_C@_1M@DMHAEOGC@?$AAk?$AAo?$AA?9?$AAk?$AAr@ 000000018002b368     libucrt:lcidtoname_downlevel.obj
 0002:00008378       ??_C@_1M@HBAHBIGA@?$AAk?$AAy?$AA?9?$AAk?$AAg@ 000000018002b378     libucrt:lcidtoname_downlevel.obj
 0002:00008388       ??_C@_1M@KPMILCJG@?$AAl?$AAt?$AA?9?$AAl?$AAt@ 000000018002b388     libucrt:lcidtoname_downlevel.obj
 0002:00008398       ??_C@_1M@BDEKKCA@?$AAl?$AAv?$AA?9?$AAl?$AAv@ 000000018002b398     libucrt:lcidtoname_downlevel.obj
 0002:000083a8       ??_C@_1M@ELCKCCJJ@?$AAm?$AAi?$AA?9?$AAn?$AAz@ 000000018002b3a8     libucrt:lcidtoname_downlevel.obj
 0002:000083b8       ??_C@_1M@CBOOLAPA@?$AAm?$AAk?$AA?9?$AAm?$AAk@ 000000018002b3b8     libucrt:lcidtoname_downlevel.obj
 0002:000083c8       ??_C@_1M@GPHNBJKN@?$AAm?$AAl?$AA?9?$AAi?$AAn@ 000000018002b3c8     libucrt:lcidtoname_downlevel.obj
 0002:000083d8       ??_C@_1M@PABJILIG@?$AAm?$AAn?$AA?9?$AAm?$AAn@ 000000018002b3d8     libucrt:lcidtoname_downlevel.obj
 0002:000083e8       ??_C@_1M@FGBKKIPG@?$AAm?$AAr?$AA?9?$AAi?$AAn@ 000000018002b3e8     libucrt:lcidtoname_downlevel.obj
 0002:000083f8       ??_C@_1M@NDBPDDAL@?$AAm?$AAs?$AA?9?$AAb?$AAn@ 000000018002b3f8     libucrt:lcidtoname_downlevel.obj
 0002:00008408       ??_C@_1M@OPIHOOPI@?$AAm?$AAs?$AA?9?$AAm?$AAy@ 000000018002b408     libucrt:lcidtoname_downlevel.obj
 0002:00008418       ??_C@_1M@PPDBCNFM@?$AAm?$AAt?$AA?9?$AAm?$AAt@ 000000018002b418     libucrt:lcidtoname_downlevel.obj
 0002:00008428       ??_C@_1M@KDJDKMDD@?$AAn?$AAb?$AA?9?$AAn?$AAo@ 000000018002b428     libucrt:lcidtoname_downlevel.obj
 0002:00008438       ??_C@_1M@KFCFLMJP@?$AAn?$AAl?$AA?9?$AAb?$AAe@ 000000018002b438     libucrt:lcidtoname_downlevel.obj
 0002:00008448       ??_C@_1M@KPOPDDGO@?$AAn?$AAl?$AA?9?$AAn?$AAl@ 000000018002b448     libucrt:lcidtoname_downlevel.obj
 0002:00008458       ??_C@_1M@LJKPEMLN@?$AAn?$AAn?$AA?9?$AAn?$AAo@ 000000018002b458     libucrt:lcidtoname_downlevel.obj
 0002:00008468       ??_C@_1M@BDGHHBFL@?$AAn?$AAs?$AA?9?$AAz?$AAa@ 000000018002b468     libucrt:lcidtoname_downlevel.obj
 0002:00008478       ??_C@_1M@IDEHOAP@?$AAp?$AAa?$AA?9?$AAi?$AAn@ 000000018002b478     libucrt:lcidtoname_downlevel.obj
 0002:00008488       ??_C@_1M@HDBKGOGH@?$AAp?$AAl?$AA?9?$AAp?$AAl@ 000000018002b488     libucrt:lcidtoname_downlevel.obj
 0002:00008498       ??_C@_1M@LJLLCMEH@?$AAp?$AAt?$AA?9?$AAb?$AAr@ 000000018002b498     libucrt:lcidtoname_downlevel.obj
 0002:000084a8       ??_C@_1M@NCMONAAL@?$AAp?$AAt?$AA?9?$AAp?$AAt@ 000000018002b4a8     libucrt:lcidtoname_downlevel.obj
 0002:000084b8       ??_C@_1O@EAKMAJDN@?$AAq?$AAu?$AAz?$AA?9?$AAb?$AAo@ 000000018002b4b8     libucrt:lcidtoname_downlevel.obj
 0002:000084c8       ??_C@_1O@BHHPIGDN@?$AAq?$AAu?$AAz?$AA?9?$AAe?$AAc@ 000000018002b4c8     libucrt:lcidtoname_downlevel.obj
 0002:000084d8       ??_C@_1O@GBAPEKMJ@?$AAq?$AAu?$AAz?$AA?9?$AAp?$AAe@ 000000018002b4d8     libucrt:lcidtoname_downlevel.obj
 0002:000084e8       ??_C@_1M@CLGLEFBO@?$AAr?$AAo?$AA?9?$AAr?$AAo@ 000000018002b4e8     libucrt:lcidtoname_downlevel.obj
 0002:000084f8       ??_C@_1M@CEEDODME@?$AAr?$AAu?$AA?9?$AAr?$AAu@ 000000018002b4f8     libucrt:lcidtoname_downlevel.obj
 0002:00008508       ??_C@_1M@HPKKKMPP@?$AAs?$AAa?$AA?9?$AAi?$AAn@ 000000018002b508     libucrt:lcidtoname_downlevel.obj
 0002:00008518       ??_C@_1M@BKMAIGOJ@?$AAs?$AAe?$AA?9?$AAf?$AAi@ 000000018002b518     libucrt:lcidtoname_downlevel.obj
 0002:00008528       ??_C@_1M@NDPIFLFI@?$AAs?$AAe?$AA?9?$AAn?$AAo@ 000000018002b528     libucrt:lcidtoname_downlevel.obj
 0002:00008538       ??_C@_1M@DANKKHJ@?$AAs?$AAe?$AA?9?$AAs?$AAe@ 000000018002b538     libucrt:lcidtoname_downlevel.obj
 0002:00008548       ??_C@_1M@PNBLONPJ@?$AAs?$AAk?$AA?9?$AAs?$AAk@ 000000018002b548     libucrt:lcidtoname_downlevel.obj
 0002:00008558       ??_C@_1M@LFMODOAL@?$AAs?$AAl?$AA?9?$AAs?$AAi@ 000000018002b558     libucrt:lcidtoname_downlevel.obj
 0002:00008568       ??_C@_1O@DFKOMPG@?$AAs?$AAm?$AAa?$AA?9?$AAn?$AAo@ 000000018002b568     libucrt:lcidtoname_downlevel.obj
 0002:00008578       ??_C@_1O@NDKPBNNH@?$AAs?$AAm?$AAa?$AA?9?$AAs?$AAe@ 000000018002b578     libucrt:lcidtoname_downlevel.obj
 0002:00008588       ??_C@_1O@PLLKBHAB@?$AAs?$AAm?$AAj?$AA?9?$AAn?$AAo@ 000000018002b588     libucrt:lcidtoname_downlevel.obj
 0002:00008598       ??_C@_1O@CLEPOGCA@?$AAs?$AAm?$AAj?$AA?9?$AAs?$AAe@ 000000018002b598     libucrt:lcidtoname_downlevel.obj
 0002:000085a8       ??_C@_1O@DLGJGKMK@?$AAs?$AAm?$AAn?$AA?9?$AAf?$AAi@ 000000018002b5a8     libucrt:lcidtoname_downlevel.obj
 0002:000085b8       ??_C@_1O@OJDJGAJC@?$AAs?$AAm?$AAs?$AA?9?$AAf?$AAi@ 000000018002b5b8     libucrt:lcidtoname_downlevel.obj
 0002:000085c8       ??_C@_1M@BOFOGHPB@?$AAs?$AAq?$AA?9?$AAa?$AAl@ 000000018002b5c8     libucrt:lcidtoname_downlevel.obj
 0002:000085d8       ??_C@_1BG@LJBBIPGB@?$AAs?$AAr?$AA?9?$AAb?$AAa?$AA?9?$AAc?$AAy?$AAr?$AAl@ 000000018002b5d8     libucrt:lcidtoname_downlevel.obj
 0002:000085f0       ??_C@_1BG@JLBENFOE@?$AAs?$AAr?$AA?9?$AAb?$AAa?$AA?9?$AAl?$AAa?$AAt?$AAn@ 000000018002b5f0     libucrt:lcidtoname_downlevel.obj
 0002:00008608       ??_C@_1BG@KODPNHE@?$AAs?$AAr?$AA?9?$AAs?$AAp?$AA?9?$AAc?$AAy?$AAr?$AAl@ 000000018002b608     libucrt:lcidtoname_downlevel.obj
 0002:00008620       ??_C@_1BG@CIOGKHPB@?$AAs?$AAr?$AA?9?$AAs?$AAp?$AA?9?$AAl?$AAa?$AAt?$AAn@ 000000018002b620     libucrt:lcidtoname_downlevel.obj
 0002:00008638       ??_C@_1M@NGFJLMAC@?$AAs?$AAv?$AA?9?$AAf?$AAi@ 000000018002b638     libucrt:lcidtoname_downlevel.obj
 0002:00008648       ??_C@_1M@MPJEJAJC@?$AAs?$AAv?$AA?9?$AAs?$AAe@ 000000018002b648     libucrt:lcidtoname_downlevel.obj
 0002:00008658       ??_C@_1M@MPNDHLFK@?$AAs?$AAw?$AA?9?$AAk?$AAe@ 000000018002b658     libucrt:lcidtoname_downlevel.obj
 0002:00008668       ??_C@_1O@KOHBJJI@?$AAs?$AAy?$AAr?$AA?9?$AAs?$AAy@ 000000018002b668     libucrt:lcidtoname_downlevel.obj
 0002:00008678       ??_C@_1M@LDCEFHA@?$AAt?$AAa?$AA?9?$AAi?$AAn@ 000000018002b678     libucrt:lcidtoname_downlevel.obj
 0002:00008688       ??_C@_1M@CNJOFAK@?$AAt?$AAe?$AA?9?$AAi?$AAn@ 000000018002b688     libucrt:lcidtoname_downlevel.obj
 0002:00008698       ??_C@_1M@GNAECACD@?$AAt?$AAh?$AA?9?$AAt?$AAh@ 000000018002b698     libucrt:lcidtoname_downlevel.obj
 0002:000086a8       ??_C@_1M@CHBIHOJO@?$AAt?$AAn?$AA?9?$AAz?$AAa@ 000000018002b6a8     libucrt:lcidtoname_downlevel.obj
 0002:000086b8       ??_C@_1M@GCCMIGPJ@?$AAt?$AAr?$AA?9?$AAt?$AAr@ 000000018002b6b8     libucrt:lcidtoname_downlevel.obj
 0002:000086c8       ??_C@_1M@CELMCNBK@?$AAt?$AAt?$AA?9?$AAr?$AAu@ 000000018002b6c8     libucrt:lcidtoname_downlevel.obj
 0002:000086d8       ??_C@_1M@KLMCELGA@?$AAu?$AAk?$AA?9?$AAu?$AAa@ 000000018002b6d8     libucrt:lcidtoname_downlevel.obj
 0002:000086e8       ??_C@_1M@EPAJJAJF@?$AAu?$AAr?$AA?9?$AAp?$AAk@ 000000018002b6e8     libucrt:lcidtoname_downlevel.obj
 0002:000086f8       ??_C@_1BG@GEGPMCDJ@?$AAu?$AAz?$AA?9?$AAu?$AAz?$AA?9?$AAc?$AAy?$AAr?$AAl@ 000000018002b6f8     libucrt:lcidtoname_downlevel.obj
 0002:00008710       ??_C@_1BG@EGGKJILM@?$AAu?$AAz?$AA?9?$AAu?$AAz?$AA?9?$AAl?$AAa?$AAt?$AAn@ 000000018002b710     libucrt:lcidtoname_downlevel.obj
 0002:00008728       ??_C@_1M@GFOCLFF@?$AAv?$AAi?$AA?9?$AAv?$AAn@ 000000018002b728     libucrt:lcidtoname_downlevel.obj
 0002:00008738       ??_C@_1M@CPAMEDFI@?$AAx?$AAh?$AA?9?$AAz?$AAa@ 000000018002b738     libucrt:lcidtoname_downlevel.obj
 0002:00008748       ??_C@_1O@EBKIFIGN@?$AAz?$AAh?$AA?9?$AAc?$AAh?$AAs@ 000000018002b748     libucrt:lcidtoname_downlevel.obj
 0002:00008758       ??_C@_1O@NMHPGANE@?$AAz?$AAh?$AA?9?$AAc?$AAh?$AAt@ 000000018002b758     libucrt:lcidtoname_downlevel.obj
 0002:00008768       ??_C@_1M@LPINJOMC@?$AAz?$AAh?$AA?9?$AAc?$AAn@ 000000018002b768     libucrt:lcidtoname_downlevel.obj
 0002:00008778       ??_C@_1M@OCJEJODD@?$AAz?$AAh?$AA?9?$AAh?$AAk@ 000000018002b778     libucrt:lcidtoname_downlevel.obj
 0002:00008788       ??_C@_1M@DNDLJINH@?$AAz?$AAh?$AA?9?$AAm?$AAo@ 000000018002b788     libucrt:lcidtoname_downlevel.obj
 0002:00008798       ??_C@_1M@MBFDNDND@?$AAz?$AAh?$AA?9?$AAs?$AAg@ 000000018002b798     libucrt:lcidtoname_downlevel.obj
 0002:000087a8       ??_C@_1M@IMEPLEPE@?$AAz?$AAh?$AA?9?$AAt?$AAw@ 000000018002b7a8     libucrt:lcidtoname_downlevel.obj
 0002:000087b8       ??_C@_1M@BBGHNHJP@?$AAz?$AAu?$AA?9?$AAz?$AAa@ 000000018002b7b8     libucrt:lcidtoname_downlevel.obj
 0002:000087d0       ?large_power_data@?1??multiply_by_power_of_ten@__crt_strtox@@YA_NAEAUbig_integer@2@I@Z@4QBIB 000000018002b7d0     libucrt:cfout.obj
 0002:000090e0       ?large_power_indices@?1??multiply_by_power_of_ten@__crt_strtox@@YA_NAEAUbig_integer@2@I@Z@4QBUunpack_index@?1??12@YA_N0I@Z@B 000000018002c0e0     libucrt:cfout.obj
 0002:00009178       ?small_powers_of_ten@?1??multiply_by_power_of_ten@__crt_strtox@@YA_NAEAUbig_integer@2@I@Z@4QBIB 000000018002c178     libucrt:cfout.obj
 0002:0000919c       ??_C@_01GBGANLPD@0@        000000018002c19c     libucrt:cfout.obj
 0002:000091a0       ??_C@_05DNEBIAHO@1?$CDINF@ 000000018002c1a0     libucrt:cfout.obj
 0002:000091a8       ??_C@_06IMKFLFPG@1?$CDQNAN@ 000000018002c1a8     libucrt:cfout.obj
 0002:000091b0       ??_C@_06PGGFOGJG@1?$CDSNAN@ 000000018002c1b0     libucrt:cfout.obj
 0002:000091b8       ??_C@_05PHHOCPM@1?$CDIND@  000000018002c1b8     libucrt:cfout.obj
 0002:000091c0       __real@3ff0000000000000    000000018002c1c0     libucrt:ceil.obj
 0002:00009420       __log10_256_lead           000000018002c420     libucrt:log10_256_lead_tail_table.obj
 0002:00009c30       __log10_256_tail           000000018002cc30     libucrt:log10_256_lead_tail_table.obj
 0002:0000a440       __log_F_inv_qword          000000018002d440     libucrt:log_f_inv_qword_table.obj
 0002:0000ac50       ??_C@_05HGHHAHAP@log10@    000000018002dc50     libucrt:log_special.obj
 0002:0000ac58       ??_C@_1BA@BALFACEM@?$AAC?$AAO?$AAN?$AAO?$AAU?$AAT?$AA$@ 000000018002dc58     libucrt:initcon.obj
 0002:0000ace0       _load_config_used          000000018002dce0     LIBCMT:loadcfg.obj
 0002:0000ae80       _tls_used                  000000018002de80     LIBCMT:tlssup.obj
 0002:0000aea8       ??_R4exception@std@@6B@    000000018002dea8     LIBCMT:throw_bad_alloc.obj
 0002:0000aed0       ??_R3exception@std@@8      000000018002ded0     LIBCMT:throw_bad_alloc.obj
 0002:0000aee8       ??_R2exception@std@@8      000000018002dee8     LIBCMT:throw_bad_alloc.obj
 0002:0000aef8       ??_R1A@?0A@EA@exception@std@@8 000000018002def8     LIBCMT:throw_bad_alloc.obj
 0002:0000af20       ??_R4bad_alloc@std@@6B@    000000018002df20     LIBCMT:throw_bad_alloc.obj
 0002:0000af48       ??_R3bad_alloc@std@@8      000000018002df48     LIBCMT:throw_bad_alloc.obj
 0002:0000af60       ??_R2bad_alloc@std@@8      000000018002df60     LIBCMT:throw_bad_alloc.obj
 0002:0000af78       ??_R1A@?0A@EA@bad_alloc@std@@8 000000018002df78     LIBCMT:throw_bad_alloc.obj
 0002:0000afa0       ??_R4bad_array_new_length@std@@6B@ 000000018002dfa0     LIBCMT:throw_bad_alloc.obj
 0002:0000afc8       ??_R3bad_array_new_length@std@@8 000000018002dfc8     LIBCMT:throw_bad_alloc.obj
 0002:0000afe0       ??_R2bad_array_new_length@std@@8 000000018002dfe0     LIBCMT:throw_bad_alloc.obj
 0002:0000b000       ??_R1A@?0A@EA@bad_array_new_length@std@@8 000000018002e000     LIBCMT:throw_bad_alloc.obj
 0002:0000b028       ??_R4type_info@@6B@        000000018002e028     LIBCMT:std_type_info_static.obj
 0002:0000b050       ??_R3type_info@@8          000000018002e050     LIBCMT:std_type_info_static.obj
 0002:0000b068       ??_R2type_info@@8          000000018002e068     LIBCMT:std_type_info_static.obj
 0002:0000b078       ??_R1A@?0A@EA@type_info@@8 000000018002e078     LIBCMT:std_type_info_static.obj
 0002:0000b0a0       ??_R4bad_exception@std@@6B@ 000000018002e0a0     libvcruntime:frame.obj
 0002:0000b0c8       ??_R3bad_exception@std@@8  000000018002e0c8     libvcruntime:frame.obj
 0002:0000b0e0       ??_R2bad_exception@std@@8  000000018002e0e0     libvcruntime:frame.obj
 0002:0000b0f8       ??_R1A@?0A@EA@bad_exception@std@@8 000000018002e0f8     libvcruntime:frame.obj
 0002:0000b528       __rtc_iaa                  000000018002e528     LIBCMT:initsect.obj
 0002:0000b530       __rtc_izz                  000000018002e530     LIBCMT:initsect.obj
 0002:0000b538       __rtc_taa                  000000018002e538     LIBCMT:initsect.obj
 0002:0000b540       __rtc_tzz                  000000018002e540     LIBCMT:initsect.obj
 0002:0000b548       _tls_start                 000000018002e548     LIBCMT:tlssup.obj
 0002:0000b54c       _Init_thread_epoch         000000018002e54c     LIBCMT:thread_safe_statics.obj
 0002:0000b550       _tls_end                   000000018002e550     LIBCMT:tlssup.obj
 0002:0000cbe8       _TI2?AVbad_alloc@std@@     000000018002fbe8     LIBCMT:throw_bad_alloc.obj
 0002:0000cc08       _CTA2?AVbad_alloc@std@@    000000018002fc08     LIBCMT:throw_bad_alloc.obj
 0002:0000cc20       _CT??_R0?AVbad_alloc@std@@@8??0bad_alloc@std@@QEAA@AEBV01@@Z24 000000018002fc20     LIBCMT:throw_bad_alloc.obj
 0002:0000cc48       _CT??_R0?AVexception@std@@@8??0exception@std@@QEAA@AEBV01@@Z24 000000018002fc48     LIBCMT:throw_bad_alloc.obj
 0002:0000cc70       _TI3?AVbad_array_new_length@std@@ 000000018002fc70     LIBCMT:throw_bad_alloc.obj
 0002:0000cc90       _CTA3?AVbad_array_new_length@std@@ 000000018002fc90     LIBCMT:throw_bad_alloc.obj
 0002:0000ccb0       _CT??_R0?AVbad_array_new_length@std@@@8??0bad_array_new_length@std@@QEAA@AEBV01@@Z24 000000018002fcb0     LIBCMT:throw_bad_alloc.obj
 0002:0000ccd8       _TI2?AVbad_exception@std@@ 000000018002fcd8     libvcruntime:frame.obj
 0002:0000ccf8       _CTA2?AVbad_exception@std@@ 000000018002fcf8     libvcruntime:frame.obj
 0002:0000cd10       _CT??_R0?AVbad_exception@std@@@8??0bad_exception@std@@QEAA@AEBV01@@Z24 000000018002fd10     libvcruntime:frame.obj
 0002:0000cd38       __pobjMapEntryFirst        000000018002fd38     OposVariant.obj
 0002:0000cd40       __pobjMapEntryLast         000000018002fd40     OposVariant.obj
 0002:0000ce00       __IMPORT_DESCRIPTOR_KERNEL32 000000018002fe00     kernel32:KERNEL32.dll
 0002:0000ce14       __IMPORT_DESCRIPTOR_USER32 000000018002fe14     user32:USER32.dll
 0002:0000ce28       __IMPORT_DESCRIPTOR_GDI32  000000018002fe28     gdi32:GDI32.dll
 0002:0000ce3c       __IMPORT_DESCRIPTOR_ADVAPI32 000000018002fe3c     advapi32:ADVAPI32.dll
 0002:0000ce50       __IMPORT_DESCRIPTOR_ole32  000000018002fe50     ole32:ole32.dll
 0002:0000ce64       __IMPORT_DESCRIPTOR_OLEAUT32 000000018002fe64     oleaut32:OLEAUT32.dll
 0002:0000ce78       __NULL_IMPORT_DESCRIPTOR   000000018002fe78     kernel32:KERNEL32.dll
 0003:00000000       ?s_Claim@?7??GetIDsOfNames@CComTypeInfoHolder@ATL@@QEAAJAEBU_GUID@@PEAPEA_WIKPEAJ@Z@4PA_WA 0000000180032000     CoinDispenser.obj
 0003:00000018       ?s_Release@?7??GetIDsOfNames@CComTypeInfoHolder@ATL@@QEAAJAEBU_GUID@@PEAPEA_WIKPEAJ@Z@4PA_WA 0000000180032018     CoinDispenser.obj
 0003:00000038       ?_tih@?$IDispatchImpl@UIOPOSCoinDispenser@@$1?IID_IOPOSCoinDispenser@@3U_GUID@@B$1?LIBID_OposCoinDispenser_CCO@@3U3@B$00$0A@VCComTypeInfoHolder@ATL@@@ATL@@1VCComTypeInfoHolder@2@A 0000000180032038     CoinDispenser.obj
 0003:00000070       ?_tih@?$IProvideClassInfo2Impl@$1?CLSID_OPOSCoinDispenser@@3U_GUID@@B$1?DIID__IOPOSCoinDispenserEvents@@3U2@B$1?LIBID_OposCoinDispenser_CCO@@3U2@B$00$0A@VCComTypeInfoHolder@ATL@@@ATL@@1VCComTypeInfoHolder@2@A 0000000180032070     CoinDispenser.obj
 0003:000000a8       ?vszContents@?6??Save@?$IPersistStorageImpl@VCOPOSCoinDispenser@@@ATL@@UEAAJPEAUIStorage@@H@Z@4PEB_WEB 00000001800320a8     CoinDispenser.obj
 0003:000000b0       ?wc@?1??GetWndClassInfo@?$CWindowImpl@VCOPOSCoinDispenser@@VCWindow@ATL@@V?$CWinTraits@$0FGAAAAAA@$0A@@3@@ATL@@SAAEAU_ATL_WNDCLASSINFOW@3@XZ@4U43@A 00000001800320b0     CoinDispenser.obj
 0003:000001a8       ?rcDefault@CWindow@ATL@@2UtagRECT@@A 00000001800321a8     CoinDispenser.obj
 0003:00000250       ?g_WindowName@@3PA_WA      0000000180032250     CoinDispenserImpl.obj
 0003:00000280       ?g_ControlDescription@@3PADA 0000000180032280     CoinDispenserImpl.obj
 0003:000002d0       ?g_ControlVersion@@3JA     00000001800322d0     CoinDispenserImpl.obj
 0003:000003b0       __scrt_native_dllmain_reason 00000001800323b0     LIBCMT:utility.obj
 0003:000003b4       _Init_global_epoch         00000001800323b4     LIBCMT:thread_safe_statics.obj
 0003:000003c0       __security_cookie_complement 00000001800323c0     LIBCMT:gs_cookie.obj
 0003:000003c8       __security_cookie          00000001800323c8     LIBCMT:gs_cookie.obj
 0003:000003d0       __isa_available            00000001800323d0     LIBCMT:cpu_disp.obj
 0003:000003d4       __isa_enabled              00000001800323d4     LIBCMT:cpu_disp.obj
 0003:000003d8       __memcpy_nt_iters          00000001800323d8     LIBCMT:cpu_disp.obj
 0003:000003e0       __memset_nt_iters          00000001800323e0     LIBCMT:cpu_disp.obj
 0003:00000408       __abort_behavior           0000000180032408     libucrt:abort.obj
 0003:00000420       _iob                       0000000180032420     libucrt:_file.obj
 0003:00000530       __acrt_initial_locale_data 0000000180032530     libucrt:nlsdata.obj
 0003:00000688       __acrt_initial_locale_pointers 0000000180032688     libucrt:nlsdata.obj
 0003:00000698       __acrt_wide_c_locale_string 0000000180032698     libucrt:nlsdata.obj
 0003:000006a0       __acrt_initial_multibyte_data 00000001800326a0     libucrt:mbctype.obj
 0003:00000be0       _pwctype                   0000000180032be0     libucrt:ctype.obj
 0003:00000be8       __globallocalestatus       0000000180032be8     libucrt:glstatus.obj
 0003:00000bf0       __acrt_lconv_c             0000000180032bf0     libucrt:localeconv.obj
 0003:00000c88       __acrt_lconv_static_decimal 0000000180032c88     libucrt:localeconv.obj
 0003:00000c8c       __acrt_lconv_static_W_decimal 0000000180032c8c     libucrt:localeconv.obj
 0003:00000c90       _lookuptrailbytes          0000000180032c90     libucrt:read.obj
 0003:00000db4       _fltused                   0000000180032db4     LIBCMT:fltused.obj
 0003:00000db8       ??_R0?AVbad_alloc@std@@@8  0000000180032db8     LIBCMT:throw_bad_alloc.obj
 0003:00000de0       ??_R0?AVexception@std@@@8  0000000180032de0     LIBCMT:throw_bad_alloc.obj
 0003:00000e08       ??_R0?AVbad_array_new_length@std@@@8 0000000180032e08     LIBCMT:throw_bad_alloc.obj
 0003:00000e38       ??_R0?AVtype_info@@@8      0000000180032e38     LIBCMT:std_type_info_static.obj
 0003:00000e58       ??_R0?AVbad_exception@std@@@8 0000000180032e58     libvcruntime:frame.obj
 0003:00000e80       ?_pPerfRegFunc@ATL@@3P6AJPEAUHINSTANCE__@@@ZEA 0000000180032e80     OposVariant.obj
 0003:00000e88       ?_pPerfUnRegFunc@ATL@@3P6AJXZEA 0000000180032e88     OposVariant.obj
 0003:00000e90       ?_AtlRegisterPerUser@ATL@@3_NA 0000000180032e90     OposVariant.obj
 0003:00000e98       ?_pAtlModule@ATL@@3PEAVCAtlModule@1@EA 0000000180032e98     OposVariant.obj
 0003:00000ea0       ?_pModule@ATL@@3PEAVCComModule@1@EA 0000000180032ea0     OposVariant.obj
 0003:00000ea8       ?m_bInitFailed@CAtlBaseModule@ATL@@2_NA 0000000180032ea8     OposVariant.obj
 0003:00000eb0       ?_AtlComModule@ATL@@3VCAtlComModule@1@A 0000000180032eb0     OposVariant.obj
 0003:00000f00       ?_AtlWinModule@ATL@@3VCAtlWinModule@1@A 0000000180032f00     OposVariant.obj
 0003:00000f48       ?m_libid@CAtlModule@ATL@@2U_GUID@@A 0000000180032f48     CoinDispenser.obj
 0003:00000f58       ?_entries@?1??GetConnMap@COPOSCoinDispenser@@SAPEBU_ATL_CONNMAP_ENTRY@ATL@@PEAH@Z@4QBU34@B 0000000180032f58     CoinDispenser.obj
 0003:00000f70       ?$TSS0@?1??GetConnMap@COPOSCoinDispenser@@SAPEBU_ATL_CONNMAP_ENTRY@ATL@@PEAH@Z@4HA 0000000180032f70     CoinDispenser.obj
 0003:00000f78       ?_OptionsStorage@?1??__local_stdio_printf_options@@9@4_KA 0000000180032f78     CoinDispenser.obj
 0003:00000f80       ?pfnRegDeleteKeyEx@?1??DeleteSubKey@CRegKey@ATL@@QEAAJPEB_W@Z@4P6AJPEAUHKEY__@@0KK@ZEA 0000000180032f80     CoinDispenser.obj
 0003:00000f88       ?bInitialized@?1??DeleteSubKey@CRegKey@ATL@@QEAAJPEB_W@Z@4_NA 0000000180032f88     CoinDispenser.obj
 0003:00000f90       ?_Module@@3VCComModule@ATL@@A 0000000180032f90     CoinDispenser.obj
 0003:00000fe0       ?pConnMap@?$IConnectionPointContainerImpl@VCOPOSCoinDispenser@@@ATL@@0PEBU_ATL_CONNMAP_ENTRY@2@EB 0000000180032fe0     CoinDispenser.obj
 0003:00000fe8       ?s_nInstances@COPOSCoinDispenser@@1HA 0000000180032fe8     CoinDispenserImpl.obj
 0003:00000ff0       __scrt_current_native_startup_state 0000000180032ff0     LIBCMT:utility.obj
 0003:00000ff8       __scrt_native_startup_lock 0000000180032ff8     LIBCMT:utility.obj
 0003:000015f0       _tls_index                 00000001800335f0     LIBCMT:tlssup.obj
 0003:000015f8       __favor                    00000001800335f8     LIBCMT:cpu_disp.obj
 0003:000015fc       __scrt_debugger_hook_flag  00000001800335fc     LIBCMT:utility_desktop.obj
 0003:00001600       __castguard_check_failure_os_handled_fptr 0000000180033600     LIBCMT:guard_support.obj
 0003:00001610       ?__type_info_root_node@@3U__type_info_node@@A 0000000180033610     LIBCMT:tncleanup.obj
 0003:00001620       ?_OptionsStorage@?1??__local_stdio_scanf_options@@9@4_KA 0000000180033620     LIBCMT:default_local_stdio_options.obj
 0003:00001630       ?_AtlBaseModule@ATL@@3VCAtlBaseModule@1@A 0000000180033630     atls:atlbase.obj
 0003:00001690       ?__AtlThunkPool@@3PEAT_SLIST_HEADER@@EA 0000000180033690     atls:atlthunk.obj
 0003:000016bc       __@@_PchSym_@00@UztvmgUPdlipUGDUhUrmgvinvwrzgvUexgllohUzgohOmzgrevkilqPBACIAJCBDBUlyqiUznwGEUhgwzucOlyq@4B2008FD98C1DD4 00000001800336bc     atls:stdafx.obj
 0003:000016c0       ?__WinRTOutOfMemoryExceptionCallback@@3P6APEAXXZEA 00000001800336c0     libvcruntime:ehhelpers.obj
 0003:000016c8       __pPurecall                00000001800336c8     libvcruntime:purevirt_data.obj
 0003:00001780       ?pArgList@UnDecorator@@0PEAVReplicator@@EA 0000000180033780     libvcruntime:undname.obj
 0003:00001788       ?pZNameList@UnDecorator@@0PEAVReplicator@@EA 0000000180033788     libvcruntime:undname.obj
 0003:00001790       ?pTemplateArgList@UnDecorator@@0PEAVReplicator@@EA 0000000180033790     libvcruntime:undname.obj
 0003:00001798       ?gName@UnDecorator@@0PEBDEB 0000000180033798     libvcruntime:undname.obj
 0003:000017a0       ?name@UnDecorator@@0PEBDEB 00000001800337a0     libvcruntime:undname.obj
 0003:000017a8       ?disableFlags@UnDecorator@@0KA 00000001800337a8     libvcruntime:undname.obj
 0003:000017ac       ?fExplicitTemplateParams@UnDecorator@@0_NA 00000001800337ac     libvcruntime:undname.obj
 0003:000017ad       ?fGetTemplateArgumentList@UnDecorator@@0_NA 00000001800337ad     libvcruntime:undname.obj
 0003:000017b0       ?m_pGetParameter@UnDecorator@@0P6APEADJ@ZEA 00000001800337b0     libvcruntime:undname.obj
 0003:000017b8       ?m_CHPENameOffset@UnDecorator@@0KA 00000001800337b8     libvcruntime:undname.obj
 0003:000017bc       ?m_recursionLevel@UnDecorator@@0KA 00000001800337bc     libvcruntime:undname.obj
 0003:00001840       ?c_exit_complete@?1???R<lambda_6e4b09c48022b2350581041d5f6b0c4c>@@QEBA@XZ@4_NA 0000000180033840     libucrt:exit.obj
 0003:00001958       _environ_table             0000000180033958     libucrt:environment_initialization.obj
 0003:00001960       _wenviron_table            0000000180033960     libucrt:environment_initialization.obj
 0003:00001968       __dcrt_initial_wide_environment 0000000180033968     libucrt:environment_initialization.obj
 0003:00001970       __dcrt_initial_narrow_environment 0000000180033970     libucrt:environment_initialization.obj
 0003:00001978       __acrt_atexit_table        0000000180033978     libucrt:onexit.obj
 0003:00001990       __acrt_at_quick_exit_table 0000000180033990     libucrt:onexit.obj
 0003:00001b68       _nstream                   0000000180033b68     libucrt:_file.obj
 0003:00001b70       __piob                     0000000180033b70     libucrt:_file.obj
 0003:00001b80       __acrt_stdout_buffer       0000000180033b80     libucrt:_sftbuf.obj
 0003:00001b88       __acrt_stderr_buffer       0000000180033b88     libucrt:_sftbuf.obj
 0003:00001b90       __acrt_locale_changed_data 0000000180033b90     libucrt:wsetlocale.obj
 0003:00001b98       __acrt_current_locale_data 0000000180033b98     libucrt:nlsdata.obj
 0003:00001ba0       __pioinfo                  0000000180033ba0     libucrt:ioinit.obj
 0003:00001fa0       _nhandle                   0000000180033fa0     libucrt:ioinit.obj
 0003:000021e8       _mbctype                   00000001800341e8     libucrt:mbctype.obj
 0003:000021f0       _mbcasemap                 00000001800341f0     libucrt:mbctype.obj
 0003:000021f8       __acrt_current_multibyte_data 00000001800341f8     libucrt:mbctype.obj
 0003:00002208       _pgmptr                    0000000180034208     libucrt:argv_data.obj
 0003:00002210       __argc                     0000000180034210     libucrt:argv_data.obj
 0003:00002218       __argv                     0000000180034218     libucrt:argv_data.obj
 0003:00002220       __wargv                    0000000180034220     libucrt:argv_data.obj
 0003:00002228       _acmdln                    0000000180034228     libucrt:argv_data.obj
 0003:00002230       _wcmdln                    0000000180034230     libucrt:argv_data.obj
 0003:00002238       __acrt_heap                0000000180034238     libucrt:heap_handle.obj
 0003:0000226c       __acrt_lconv_static_null   000000018003426c     libucrt:localeconv.obj
 0003:00002270       __acrt_lconv_static_W_null 0000000180034270     libucrt:localeconv.obj
 0003:00002284       __fma3_is_available        0000000180034284     libucrt:fma3_available.obj
 0003:00002288       __use_fma3_lib             0000000180034288     libucrt:fma3_available.obj
 0003:00002290       __dyn_tls_init_callback    0000000180034290     <common>
 0003:00002298       __scrt_ucrt_dll_is_in_use  0000000180034298     <common>

 entry point at        0001:0000e7f4

 Static symbols

 0000:fffc3000       .debug$S                   0000000180000000     OPOSCoinDispenser.exp
 0000:fffc3000       .debug$S                   0000000180000000     advapi32:ADVAPI32.dll
 0000:fffc3000       .debug$S                   0000000180000000     advapi32:ADVAPI32.dll
 0000:fffc3000       .debug$S                   0000000180000000     advapi32:ADVAPI32.dll
 0000:fffc3000       .debug$S                   0000000180000000     advapi32:ADVAPI32.dll
 0000:fffc3000       .debug$S                   0000000180000000     advapi32:ADVAPI32.dll
 0000:fffc3000       .debug$S                   0000000180000000     advapi32:ADVAPI32.dll
 0000:fffc3000       .debug$S                   0000000180000000     advapi32:ADVAPI32.dll
 0000:fffc3000       .debug$S                   0000000180000000     advapi32:ADVAPI32.dll
 0000:fffc3000       .debug$S                   0000000180000000     advapi32:ADVAPI32.dll
 0000:fffc3000       .debug$S                   0000000180000000     gdi32:GDI32.dll
 0000:fffc3000       .debug$S                   0000000180000000     gdi32:GDI32.dll
 0000:fffc3000       .debug$S                   0000000180000000     gdi32:GDI32.dll
 0000:fffc3000       .debug$S                   0000000180000000     gdi32:GDI32.dll
 0000:fffc3000       .debug$S                   0000000180000000     gdi32:GDI32.dll
 0000:fffc3000       .debug$S                   0000000180000000     gdi32:GDI32.dll
 0000:fffc3000       .debug$S                   0000000180000000     gdi32:GDI32.dll
 0000:fffc3000       .debug$S                   0000000180000000     gdi32:GDI32.dll
 0000:fffc3000       .debug$S                   0000000180000000     gdi32:GDI32.dll
 0000:fffc3000       .debug$S                   0000000180000000     gdi32:GDI32.dll
 0000:fffc3000       .debug$S                   0000000180000000     gdi32:GDI32.dll
 0000:fffc3000       .debug$S                   0000000180000000     gdi32:GDI32.dll
 0000:fffc3000       .debug$S                   0000000180000000     gdi32:GDI32.dll
 0000:fffc3000       .debug$S                   0000000180000000     gdi32:GDI32.dll
 0000:fffc3000       .debug$S                   0000000180000000     gdi32:GDI32.dll
 0000:fffc3000       .debug$S                   0000000180000000     gdi32:GDI32.dll
 0000:fffc3000       .debug$S                   0000000180000000     gdi32:GDI32.dll
 0000:fffc3000       .debug$S                   0000000180000000     gdi32:GDI32.dll
 0000:fffc3000       .debug$S                   0000000180000000     gdi32:GDI32.dll
 0000:fffc3000       .debug$S                   0000000180000000     kernel32:KERNEL32.dll
 0000:fffc3000       .debug$S                   0000000180000000     kernel32:KERNEL32.dll
 0000:fffc3000       .debug$S                   0000000180000000     kernel32:KERNEL32.dll
 0000:fffc3000       .debug$S                   0000000180000000     kernel32:KERNEL32.dll
 0000:fffc3000       .debug$S                   0000000180000000     kernel32:KERNEL32.dll
 0000:fffc3000       .debug$S                   0000000180000000     kernel32:KERNEL32.dll
 0000:fffc3000       .debug$S                   0000000180000000     kernel32:KERNEL32.dll
 0000:fffc3000       .debug$S                   0000000180000000     kernel32:KERNEL32.dll
 0000:fffc3000       .debug$S                   0000000180000000     kernel32:KERNEL32.dll
 0000:fffc3000       .debug$S                   0000000180000000     kernel32:KERNEL32.dll
 0000:fffc3000       .debug$S                   0000000180000000     kernel32:KERNEL32.dll
 0000:fffc3000       .debug$S                   0000000180000000     kernel32:KERNEL32.dll
 0000:fffc3000       .debug$S                   0000000180000000     kernel32:KERNEL32.dll
 0000:fffc3000       .debug$S                   0000000180000000     kernel32:KERNEL32.dll
 0000:fffc3000       .debug$S                   0000000180000000     kernel32:KERNEL32.dll
 0000:fffc3000       .debug$S                   0000000180000000     kernel32:KERNEL32.dll
 0000:fffc3000       .debug$S                   0000000180000000     kernel32:KERNEL32.dll
 0000:fffc3000       .debug$S                   0000000180000000     kernel32:KERNEL32.dll
 0000:fffc3000       .debug$S                   0000000180000000     kernel32:KERNEL32.dll
 0000:fffc3000       .debug$S                   0000000180000000     kernel32:KERNEL32.dll
 0000:fffc3000       .debug$S                   0000000180000000     kernel32:KERNEL32.dll
 0000:fffc3000       .debug$S                   0000000180000000     kernel32:KERNEL32.dll
 0000:fffc3000       .debug$S                   0000000180000000     kernel32:KERNEL32.dll
 0000:fffc3000       .debug$S                   0000000180000000     kernel32:KERNEL32.dll
 0000:fffc3000       .debug$S                   0000000180000000     kernel32:KERNEL32.dll
 0000:fffc3000       .debug$S                   0000000180000000     kernel32:KERNEL32.dll
 0000:fffc3000       .debug$S                   0000000180000000     kernel32:KERNEL32.dll
 0000:fffc3000       .debug$S                   0000000180000000     kernel32:KERNEL32.dll
 0000:fffc3000       .debug$S                   0000000180000000     kernel32:KERNEL32.dll
 0000:fffc3000       .debug$S                   0000000180000000     kernel32:KERNEL32.dll
 0000:fffc3000       .debug$S                   0000000180000000     kernel32:KERNEL32.dll
 0000:fffc3000       .debug$S                   0000000180000000     kernel32:KERNEL32.dll
 0000:fffc3000       .debug$S                   0000000180000000     kernel32:KERNEL32.dll
 0000:fffc3000       .debug$S                   0000000180000000     kernel32:KERNEL32.dll
 0000:fffc3000       .debug$S                   0000000180000000     kernel32:KERNEL32.dll
 0000:fffc3000       .debug$S                   0000000180000000     kernel32:KERNEL32.dll
 0000:fffc3000       .debug$S                   0000000180000000     kernel32:KERNEL32.dll
 0000:fffc3000       .debug$S                   0000000180000000     kernel32:KERNEL32.dll
 0000:fffc3000       .debug$S                   0000000180000000     kernel32:KERNEL32.dll
 0000:fffc3000       .debug$S                   0000000180000000     kernel32:KERNEL32.dll
 0000:fffc3000       .debug$S                   0000000180000000     kernel32:KERNEL32.dll
 0000:fffc3000       .debug$S                   0000000180000000     kernel32:KERNEL32.dll
 0000:fffc3000       .debug$S                   0000000180000000     kernel32:KERNEL32.dll
 0000:fffc3000       .debug$S                   0000000180000000     kernel32:KERNEL32.dll
 0000:fffc3000       .debug$S                   0000000180000000     kernel32:KERNEL32.dll
 0000:fffc3000       .debug$S                   0000000180000000     kernel32:KERNEL32.dll
 0000:fffc3000       .debug$S                   0000000180000000     kernel32:KERNEL32.dll
 0000:fffc3000       .debug$S                   0000000180000000     kernel32:KERNEL32.dll
 0000:fffc3000       .debug$S                   0000000180000000     kernel32:KERNEL32.dll
 0000:fffc3000       .debug$S                   0000000180000000     kernel32:KERNEL32.dll
 0000:fffc3000       .debug$S                   0000000180000000     kernel32:KERNEL32.dll
 0000:fffc3000       .debug$S                   0000000180000000     kernel32:KERNEL32.dll
 0000:fffc3000       .debug$S                   0000000180000000     kernel32:KERNEL32.dll
 0000:fffc3000       .debug$S                   0000000180000000     kernel32:KERNEL32.dll
 0000:fffc3000       .debug$S                   0000000180000000     kernel32:KERNEL32.dll
 0000:fffc3000       .debug$S                   0000000180000000     kernel32:KERNEL32.dll
 0000:fffc3000       .debug$S                   0000000180000000     kernel32:KERNEL32.dll
 0000:fffc3000       .debug$S                   0000000180000000     kernel32:KERNEL32.dll
 0000:fffc3000       .debug$S                   0000000180000000     kernel32:KERNEL32.dll
 0000:fffc3000       .debug$S                   0000000180000000     kernel32:KERNEL32.dll
 0000:fffc3000       .debug$S                   0000000180000000     kernel32:KERNEL32.dll
 0000:fffc3000       .debug$S                   0000000180000000     kernel32:KERNEL32.dll
 0000:fffc3000       .debug$S                   0000000180000000     kernel32:KERNEL32.dll
 0000:fffc3000       .debug$S                   0000000180000000     kernel32:KERNEL32.dll
 0000:fffc3000       .debug$S                   0000000180000000     kernel32:KERNEL32.dll
 0000:fffc3000       .debug$S                   0000000180000000     kernel32:KERNEL32.dll
 0000:fffc3000       .debug$S                   0000000180000000     kernel32:KERNEL32.dll
 0000:fffc3000       .debug$S                   0000000180000000     kernel32:KERNEL32.dll
 0000:fffc3000       .debug$S                   0000000180000000     kernel32:KERNEL32.dll
 0000:fffc3000       .debug$S                   0000000180000000     kernel32:KERNEL32.dll
 0000:fffc3000       .debug$S                   0000000180000000     kernel32:KERNEL32.dll
 0000:fffc3000       .debug$S                   0000000180000000     kernel32:KERNEL32.dll
 0000:fffc3000       .debug$S                   0000000180000000     kernel32:KERNEL32.dll
 0000:fffc3000       .debug$S                   0000000180000000     kernel32:KERNEL32.dll
 0000:fffc3000       .debug$S                   0000000180000000     kernel32:KERNEL32.dll
 0000:fffc3000       .debug$S                   0000000180000000     kernel32:KERNEL32.dll
 0000:fffc3000       .debug$S                   0000000180000000     kernel32:KERNEL32.dll
 0000:fffc3000       .debug$S                   0000000180000000     kernel32:KERNEL32.dll
 0000:fffc3000       .debug$S                   0000000180000000     kernel32:KERNEL32.dll
 0000:fffc3000       .debug$S                   0000000180000000     kernel32:KERNEL32.dll
 0000:fffc3000       .debug$S                   0000000180000000     kernel32:KERNEL32.dll
 0000:fffc3000       .debug$S                   0000000180000000     kernel32:KERNEL32.dll
 0000:fffc3000       .debug$S                   0000000180000000     kernel32:KERNEL32.dll
 0000:fffc3000       .debug$S                   0000000180000000     kernel32:KERNEL32.dll
 0000:fffc3000       .debug$S                   0000000180000000     kernel32:KERNEL32.dll
 0000:fffc3000       .debug$S                   0000000180000000     kernel32:KERNEL32.dll
 0000:fffc3000       .debug$S                   0000000180000000     kernel32:KERNEL32.dll
 0000:fffc3000       .debug$S                   0000000180000000     kernel32:KERNEL32.dll
 0000:fffc3000       .debug$S                   0000000180000000     kernel32:KERNEL32.dll
 0000:fffc3000       .debug$S                   0000000180000000     kernel32:KERNEL32.dll
 0000:fffc3000       .debug$S                   0000000180000000     kernel32:KERNEL32.dll
 0000:fffc3000       .debug$S                   0000000180000000     kernel32:KERNEL32.dll
 0000:fffc3000       .debug$S                   0000000180000000     kernel32:KERNEL32.dll
 0000:fffc3000       .debug$S                   0000000180000000     kernel32:KERNEL32.dll
 0000:fffc3000       .debug$S                   0000000180000000     kernel32:KERNEL32.dll
 0000:fffc3000       .debug$S                   0000000180000000     kernel32:KERNEL32.dll
 0000:fffc3000       .debug$S                   0000000180000000     kernel32:KERNEL32.dll
 0000:fffc3000       .debug$S                   0000000180000000     kernel32:KERNEL32.dll
 0000:fffc3000       .debug$S                   0000000180000000     kernel32:KERNEL32.dll
 0000:fffc3000       .debug$S                   0000000180000000     kernel32:KERNEL32.dll
 0000:fffc3000       .debug$S                   0000000180000000     kernel32:KERNEL32.dll
 0000:fffc3000       .debug$S                   0000000180000000     kernel32:KERNEL32.dll
 0000:fffc3000       .debug$S                   0000000180000000     kernel32:KERNEL32.dll
 0000:fffc3000       .debug$S                   0000000180000000     kernel32:KERNEL32.dll
 0000:fffc3000       .debug$S                   0000000180000000     kernel32:KERNEL32.dll
 0000:fffc3000       .debug$S                   0000000180000000     kernel32:KERNEL32.dll
 0000:fffc3000       .debug$S                   0000000180000000     kernel32:KERNEL32.dll
 0000:fffc3000       .debug$S                   0000000180000000     kernel32:KERNEL32.dll
 0000:fffc3000       .debug$S                   0000000180000000     kernel32:KERNEL32.dll
 0000:fffc3000       .debug$S                   0000000180000000     kernel32:KERNEL32.dll
 0000:fffc3000       .debug$S                   0000000180000000     kernel32:KERNEL32.dll
 0000:fffc3000       .debug$S                   0000000180000000     ole32:ole32.dll
 0000:fffc3000       .debug$S                   0000000180000000     ole32:ole32.dll
 0000:fffc3000       .debug$S                   0000000180000000     ole32:ole32.dll
 0000:fffc3000       .debug$S                   0000000180000000     ole32:ole32.dll
 0000:fffc3000       .debug$S                   0000000180000000     ole32:ole32.dll
 0000:fffc3000       .debug$S                   0000000180000000     ole32:ole32.dll
 0000:fffc3000       .debug$S                   0000000180000000     ole32:ole32.dll
 0000:fffc3000       .debug$S                   0000000180000000     ole32:ole32.dll
 0000:fffc3000       .debug$S                   0000000180000000     ole32:ole32.dll
 0000:fffc3000       .debug$S                   0000000180000000     ole32:ole32.dll
 0000:fffc3000       .debug$S                   0000000180000000     ole32:ole32.dll
 0000:fffc3000       .debug$S                   0000000180000000     ole32:ole32.dll
 0000:fffc3000       .debug$S                   0000000180000000     ole32:ole32.dll
 0000:fffc3000       .debug$S                   0000000180000000     ole32:ole32.dll
 0000:fffc3000       .debug$S                   0000000180000000     oleaut32:OLEAUT32.dll
 0000:fffc3000       .debug$S                   0000000180000000     oleaut32:OLEAUT32.dll
 0000:fffc3000       .debug$S                   0000000180000000     oleaut32:OLEAUT32.dll
 0000:fffc3000       .debug$S                   0000000180000000     oleaut32:OLEAUT32.dll
 0000:fffc3000       .debug$S                   0000000180000000     oleaut32:OLEAUT32.dll
 0000:fffc3000       .debug$S                   0000000180000000     oleaut32:OLEAUT32.dll
 0000:fffc3000       .debug$S                   0000000180000000     oleaut32:OLEAUT32.dll
 0000:fffc3000       .debug$S                   0000000180000000     oleaut32:OLEAUT32.dll
 0000:fffc3000       .debug$S                   0000000180000000     oleaut32:OLEAUT32.dll
 0000:fffc3000       .debug$S                   0000000180000000     oleaut32:OLEAUT32.dll
 0000:fffc3000       .debug$S                   0000000180000000     oleaut32:OLEAUT32.dll
 0000:fffc3000       .debug$S                   0000000180000000     oleaut32:OLEAUT32.dll
 0000:fffc3000       .debug$S                   0000000180000000     oleaut32:OLEAUT32.dll
 0000:fffc3000       .debug$S                   0000000180000000     oleaut32:OLEAUT32.dll
 0000:fffc3000       .debug$S                   0000000180000000     oleaut32:OLEAUT32.dll
 0000:fffc3000       .debug$S                   0000000180000000     oleaut32:OLEAUT32.dll
 0000:fffc3000       .debug$S                   0000000180000000     user32:USER32.dll
 0000:fffc3000       .debug$S                   0000000180000000     user32:USER32.dll
 0000:fffc3000       .debug$S                   0000000180000000     user32:USER32.dll
 0000:fffc3000       .debug$S                   0000000180000000     user32:USER32.dll
 0000:fffc3000       .debug$S                   0000000180000000     user32:USER32.dll
 0000:fffc3000       .debug$S                   0000000180000000     user32:USER32.dll
 0000:fffc3000       .debug$S                   0000000180000000     user32:USER32.dll
 0000:fffc3000       .debug$S                   0000000180000000     user32:USER32.dll
 0000:fffc3000       .debug$S                   0000000180000000     user32:USER32.dll
 0000:fffc3000       .debug$S                   0000000180000000     user32:USER32.dll
 0000:fffc3000       .debug$S                   0000000180000000     user32:USER32.dll
 0000:fffc3000       .debug$S                   0000000180000000     user32:USER32.dll
 0000:fffc3000       .debug$S                   0000000180000000     user32:USER32.dll
 0000:fffc3000       .debug$S                   0000000180000000     user32:USER32.dll
 0000:fffc3000       .debug$S                   0000000180000000     user32:USER32.dll
 0000:fffc3000       .debug$S                   0000000180000000     user32:USER32.dll
 0000:fffc3000       .debug$S                   0000000180000000     user32:USER32.dll
 0000:fffc3000       .debug$S                   0000000180000000     user32:USER32.dll
 0000:fffc3000       .debug$S                   0000000180000000     user32:USER32.dll
 0000:fffc3000       .debug$S                   0000000180000000     user32:USER32.dll
 0000:fffc3000       .debug$S                   0000000180000000     user32:USER32.dll
 0000:fffc3000       .debug$S                   0000000180000000     user32:USER32.dll
 0000:fffc3000       .debug$S                   0000000180000000     user32:USER32.dll
 0000:fffc3000       .debug$S                   0000000180000000     user32:USER32.dll
 0000:fffc3000       .debug$S                   0000000180000000     user32:USER32.dll
 0000:fffc3000       .debug$S                   0000000180000000     user32:USER32.dll
 0000:fffc3000       .debug$S                   0000000180000000     user32:USER32.dll
 0000:fffc3000       .debug$S                   0000000180000000     user32:USER32.dll
 0000:fffc3000       .debug$S                   0000000180000000     user32:USER32.dll
 0000:fffc3000       .debug$S                   0000000180000000     user32:USER32.dll
 0000:fffc3000       .debug$S                   0000000180000000     user32:USER32.dll
 0000:fffc3000       .debug$S                   0000000180000000     user32:USER32.dll
 0000:fffc3000       .debug$S                   0000000180000000     user32:USER32.dll
 0000:fffc3000       .debug$S                   0000000180000000     user32:USER32.dll
 0000:fffc3000       .debug$S                   0000000180000000     user32:USER32.dll
 0001:00000000       ??__E_AtlComModule@ATL@@YAXXZ 0000000180001000 f   OposVariant.obj
 0001:00000020       ??__E_AtlWinModule@ATL@@YAXXZ 0000000180001020 f   OposVariant.obj
 0001:00000040       ??__E?pConnMap@?$IConnectionPointContainerImpl@VCOPOSCoinDispenser@@@ATL@@0PEBU_ATL_CONNMAP_ENTRY@2@EB@@YAXXZ 0000000180001040 f   CoinDispenser.obj
 0001:00000058       ??__E_Module@@YAXXZ        0000000180001058 f   CoinDispenser.obj
 0001:00000094       ??__E_AtlBaseModule@ATL@@YAXXZ 0000000180001094 f   atls:atlbase.obj
 0001:0000de08       ?__scrt_initialize_thread_safe_statics@@YAHXZ 000000018000ee08 f   LIBCMT:thread_safe_statics.obj
 0001:0000ded8       ?__scrt_uninitialize_thread_safe_statics@@YAXXZ 000000018000eed8 f   LIBCMT:thread_safe_statics.obj
 0001:0000e228       capture_current_context    000000018000f228 f   LIBCMT:gs_report.obj
 0001:0000e298       capture_previous_context   000000018000f298 f   LIBCMT:gs_report.obj
 0001:0000e430       $$000000                   000000018000f430     LIBCMT:chkstk.obj
 0001:0000e4a0       $$000000                   000000018000f4a0     LIBCMT:amdsecgs.obj
 0001:0000e4d4       ?dllmain_crt_dispatch@@YAHQEAUHINSTANCE__@@KQEAX@Z 000000018000f4d4 f   LIBCMT:dll_dllmain.obj
 0001:0000e524       ?dllmain_crt_process_attach@@YAHQEAUHINSTANCE__@@QEAX@Z 000000018000f524 f   LIBCMT:dll_dllmain.obj
 0001:0000e63c       ?dllmain_crt_process_detach@@YAH_N@Z 000000018000f63c f   LIBCMT:dll_dllmain.obj
 0001:0000e6c0       ?dllmain_dispatch@@YAHQEAUHINSTANCE__@@KQEAX@Z 000000018000f6c0 f   LIBCMT:dll_dllmain.obj
 0001:0000ef88       ??$GetProcAddressAll@P6AP6A_JPEAUHWND__@@I_K_J@ZPEAUAtlThunkData_t@@@Z@@YAP6AP6A_JPEAUHWND__@@I_K_J@ZPEAUAtlThunkData_t@@@ZPEAP6AP6A_J0I12@Z3@Z@Z 000000018000ff88 f   atls:atlthunk.obj
 0001:0000ef88       ??$GetProcAddressAll@P6APEAUAtlThunkData_t@@XZ@@YAP6APEAUAtlThunkData_t@@XZPEAP6APEAU0@XZ@Z 000000018000ff88 f   atls:atlthunk.obj
 0001:0000ef88       ??$GetProcAddressAll@P6AXPEAUAtlThunkData_t@@@Z@@YAP6AXPEAUAtlThunkData_t@@@ZPEAP6AX0@Z@Z 000000018000ff88 f   atls:atlthunk.obj
 0001:0000ef88       ??$GetProcAddressAll@P6AXPEAUAtlThunkData_t@@PEAX_K@Z@@YAP6AXPEAUAtlThunkData_t@@PEAX_K@ZPEAP6AX012@Z@Z 000000018000ff88 f   atls:atlthunk.obj
 0001:0000f160       ?__InitializeThunkPool@@YAHXZ 0000000180010160 f   atls:atlthunk.obj
 0001:0000f600       $$000000                   0000000180010600     libvcruntime:memcmp.obj
 0001:0000f6e0       $$000000                   00000001800106e0     libvcruntime:memcpy.obj
 0001:0000faf0       $$000000                   0000000180010af0     libvcruntime:memset.obj
 0001:00010c00       $$000000                   0000000180011c00     libvcruntime:notify.obj
 0001:00010d6c       ??$BuildCatchObjectHelperInternal@V__FrameHandler4@@@@YAHPEAUEHExceptionRecord@@PEAXPEAUHandlerType4@FH4@@PEBU_s_CatchableType@@@Z 0000000180011d6c f   libvcruntime:frame.obj
 0001:00010f70       ??$BuildCatchObjectInternal@V__FrameHandler4@@@@YAXPEAUEHExceptionRecord@@PEAXPEAUHandlerType4@FH4@@PEBU_s_CatchableType@@@Z 0000000180011f70 f   libvcruntime:frame.obj
 0001:00011034       ??$CatchIt@V__FrameHandler4@@@@YAXPEAUEHExceptionRecord@@PEA_KPEAU_CONTEXT@@PEAU_xDISPATCHER_CONTEXT@@PEAUFuncInfo4@FH4@@PEAUHandlerType4@4@PEBU_s_CatchableType@@PEAUTryBlockMapEntry4@4@H1EE@Z 0000000180012034 f   libvcruntime:frame.obj
 0001:00011108       ??$FindHandler@V__FrameHandler4@@@@YAXPEAUEHExceptionRecord@@PEA_KPEAU_CONTEXT@@PEAU_xDISPATCHER_CONTEXT@@PEAUFuncInfo4@FH4@@EH1@Z 0000000180012108 f   libvcruntime:frame.obj
 0001:00011618       ??$FindHandlerForForeignException@V__FrameHandler4@@@@YAXPEAUEHExceptionRecord@@PEA_KPEAU_CONTEXT@@PEAU_xDISPATCHER_CONTEXT@@PEAUFuncInfo4@FH4@@HH1@Z 0000000180012618 f   libvcruntime:frame.obj
 0001:000123a8       ?ExFilterRethrow@@YAHPEAU_EXCEPTION_POINTERS@@PEAUEHExceptionRecord@@PEAH@Z 00000001800133a8 f   libvcruntime:frame.obj
 0001:00012430       ?ExFilterRethrowFH4@@YAHPEAU_EXCEPTION_POINTERS@@PEAUEHExceptionRecord@@HPEAH@Z 0000000180013430 f   libvcruntime:frame.obj
 0001:00012748       ?IsInExceptionSpec@@YAEPEAUEHExceptionRecord@@PEBU_s_ESTypeList@@@Z 0000000180013748 f   libvcruntime:frame.obj
 0001:00012838       ?Is_bad_exception_allowed@@YAEPEBU_s_ESTypeList@@@Z 0000000180013838 f   libvcruntime:frame.obj
 0001:00012b14       ?try_get_function@@YAPEAXW4function_id@?A0x84e3c32f@@QEBDQEBW4module_id@2@2@Z 0000000180013b14 f   libvcruntime:winapi_downlevel.obj
 0001:00012df0       $$000000                   0000000180013df0     libvcruntime:handlers.obj
 0001:00013608       ??$common_vsprintf@Vformat_validation_base@__crt_stdio_output@@_W@@YAH_KQEA_W0QEB_WQEAU__crt_locale_pointers@@QEAD@Z 0000000180014608 f   libucrt:output.obj
 0001:000144a8       $LN17                      00000001800154a8     libucrt:output.obj
 0001:00014e4c       ??$?RV<lambda_d80eeec6fff315bfe5c115232f3240e3>@@AEAV<lambda_6e4b09c48022b2350581041d5f6b0c4c>@@V<lambda_2358e3775559c9db80273638284d5e45>@@@?$__crt_seh_guarded_call@X@@QEAAX$$QEAV<lambda_d80eeec6fff315bfe5c115232f3240e3>@@AEAV<lambda_6e4b09c48022b2350581041d5f6b0c4c>@@$$QEAV<lambda_2358e3775559c9db80273638284d5e45>@@@Z 0000000180015e4c f   libucrt:exit.obj
 0001:00014e84       ??R<lambda_6e4b09c48022b2350581041d5f6b0c4c>@@QEBA@XZ 0000000180015e84 f   libucrt:exit.obj
 0001:00014f48       ?atexit_exception_filter@@YAHK@Z 0000000180015f48 f   libucrt:exit.obj
 0001:00014f54       ?common_exit@@YAXHW4_crt_exit_cleanup_mode@@W4_crt_exit_return_mode@@@Z 0000000180015f54 f   libucrt:exit.obj
 0001:00015010       ?exit_or_terminate_process@@YAXI@Z 0000000180016010 f   libucrt:exit.obj
 0001:0001505c       ?try_cor_exit_process@@YAXI@Z 000000018001605c f   libucrt:exit.obj
 0001:000150e4       ??$parse_command_line@D@@YAXPEADPEAPEAD0PEA_K2@Z 00000001800160e4 f   libucrt:argv_parsing.obj
 0001:0001548c       ??$common_initialize_environment_nolock@D@@YAHXZ 000000018001648c f   libucrt:environment_initialization.obj
 0001:000154f8       ??$create_environment@D@@YAQEAPEADQEAD@Z 00000001800164f8 f   libucrt:environment_initialization.obj
 0001:00015600       ??$free_environment@D@@YAXQEAPEAD@Z 0000000180016600 f   libucrt:environment_initialization.obj
 0001:00015600       ??$free_environment@_W@@YAXQEAPEA_W@Z 0000000180016600 f   libucrt:environment_initialization.obj
 0001:00015644       ??$uninitialize_environment_internal@D@@YAXAEAPEAPEAD@Z 0000000180016644 f   libucrt:environment_initialization.obj
 0001:00015660       ??$uninitialize_environment_internal@_W@@YAXAEAPEAPEA_W@Z 0000000180016660 f   libucrt:environment_initialization.obj
 0001:000156bc       ??$?RV<lambda_638799b9deba96c50f710eeac98168cd>@@AEAV<lambda_22ebabd17bc4fa466a2aca6d8deb888d>@@V<lambda_a6f7d7db0129f75315ebf26d50c089f1>@@@?$__crt_seh_guarded_call@H@@QEAAH$$QEAV<lambda_638799b9deba96c50f710eeac98168cd>@@AEAV<lambda_22ebabd17bc4fa466a2aca6d8deb888d>@@$$QEAV<lambda_a6f7d7db0129f75315ebf26d50c089f1>@@@Z 00000001800166bc f   libucrt:onexit.obj
 0001:000156f8       ??$?RV<lambda_7777bce6b2f8c936911f934f8298dc43>@@AEAV<lambda_f03950bc5685219e0bcd2087efbe011e>@@V<lambda_3883c3dff614d5e0c5f61bb1ac94921c>@@@?$__crt_seh_guarded_call@H@@QEAAH$$QEAV<lambda_7777bce6b2f8c936911f934f8298dc43>@@AEAV<lambda_f03950bc5685219e0bcd2087efbe011e>@@$$QEAV<lambda_3883c3dff614d5e0c5f61bb1ac94921c>@@@Z 00000001800166f8 f   libucrt:onexit.obj
 0001:00015734       ??R<lambda_22ebabd17bc4fa466a2aca6d8deb888d>@@QEBAHXZ 0000000180016734 f   libucrt:onexit.obj
 0001:000158e4       ??R<lambda_f03950bc5685219e0bcd2087efbe011e>@@QEBAHXZ 00000001800168e4 f   libucrt:onexit.obj
 0001:00015ab8       initialize_global_variables 0000000180016ab8 f   libucrt:initialization.obj
 0001:00015acc       initialize_c               0000000180016acc f   libucrt:initialization.obj
 0001:00015af0       initialize_environment     0000000180016af0 f   libucrt:initialization.obj
 0001:00015af0       initialize_global_state_isolation 0000000180016af0 f   libucrt:initialization.obj
 0001:00015af0       report_memory_leaks        0000000180016af0 f   libucrt:initialization.obj
 0001:00015af0       uninitialize_c             0000000180016af0 f   libucrt:initialization.obj
 0001:00015af0       uninitialize_global_state_isolation 0000000180016af0 f   libucrt:initialization.obj
 0001:00015af4       uninitialize_environment   0000000180016af4 f   libucrt:initialization.obj
 0001:00015b04       initialize_pointers        0000000180016b04 f   libucrt:initialization.obj
 0001:00015b44       uninitialize_vcruntime     0000000180016b44 f   libucrt:initialization.obj
 0001:00015b4c       uninitialize_allocated_memory 0000000180016b4c f   libucrt:initialization.obj
 0001:00015b8c       uninitialize_allocated_io_buffers 0000000180016b8c f   libucrt:initialization.obj
 0001:00016500       $$000000                   0000000180017500     libucrt:strncmp.obj
 0001:000165fc       ??$?RV<lambda_0ae27a3a962d80f24befdcbee591983d>@@AEAV<lambda_8d0ee55de4b1038c4002e0adecdf1839>@@V<lambda_dc504788e8f1664fe9b84e20bfb512f2>@@@?$__crt_seh_guarded_call@X@@QEAAX$$QEAV<lambda_0ae27a3a962d80f24befdcbee591983d>@@AEAV<lambda_8d0ee55de4b1038c4002e0adecdf1839>@@$$QEAV<lambda_dc504788e8f1664fe9b84e20bfb512f2>@@@Z 00000001800175fc f   libucrt:per_thread_data.obj
 0001:0001663c       ??$?RV<lambda_2d41944a1d46af3157314b8a01080d33>@@AEAV<lambda_8f455de75cd7d7f24b4096f044d8b9e6>@@V<lambda_aa500f224e6afead328df44964fe2772>@@@?$__crt_seh_guarded_call@X@@QEAAX$$QEAV<lambda_2d41944a1d46af3157314b8a01080d33>@@AEAV<lambda_8f455de75cd7d7f24b4096f044d8b9e6>@@$$QEAV<lambda_aa500f224e6afead328df44964fe2772>@@@Z 000000018001763c f   libucrt:per_thread_data.obj
 0001:0001667c       ??$?RV<lambda_aa87e3671a710a21b5dc78c0bdf72e11>@@AEAV<lambda_92619d2358a28f41a33ba319515a20b9>@@V<lambda_6992ecaafeb10aed2b74cb1fae11a551>@@@?$__crt_seh_guarded_call@X@@QEAAX$$QEAV<lambda_aa87e3671a710a21b5dc78c0bdf72e11>@@AEAV<lambda_92619d2358a28f41a33ba319515a20b9>@@$$QEAV<lambda_6992ecaafeb10aed2b74cb1fae11a551>@@@Z 000000018001767c f   libucrt:per_thread_data.obj
 0001:000166c4       ??$?RV<lambda_f2e299630e499de9f9a165e60fcd3db5>@@AEAV<lambda_2ae9d31cdba2644fcbeaf08da7c24588>@@V<lambda_40d01ff24d0e7b3814fdbdcee8eab3c7>@@@?$__crt_seh_guarded_call@X@@QEAAX$$QEAV<lambda_f2e299630e499de9f9a165e60fcd3db5>@@AEAV<lambda_2ae9d31cdba2644fcbeaf08da7c24588>@@$$QEAV<lambda_40d01ff24d0e7b3814fdbdcee8eab3c7>@@@Z 00000001800176c4 f   libucrt:per_thread_data.obj
 0001:00016724       ?construct_ptd_array@@YAXQEAU__acrt_ptd@@@Z 0000000180017724 f   libucrt:per_thread_data.obj
 0001:000167f4       ?destroy_fls@@YAXPEAX@Z    00000001800177f4 f   libucrt:per_thread_data.obj
 0001:00016814       ?destroy_ptd_array@@YAXQEAU__acrt_ptd@@@Z 0000000180017814 f   libucrt:per_thread_data.obj
 0001:0001690c       ?replace_current_thread_locale_nolock@@YAXQEAU__acrt_ptd@@QEAU__crt_locale_data@@@Z 000000018001790c f   libucrt:per_thread_data.obj
 0001:00016df0       ?try_get_function@@YAPEAXW4function_id@?A0x391cf84c@@QEBDQEBW4module_id@2@2@Z 0000000180017df0 f   libucrt:winapi_thunks.obj
 0001:000177c0       ?fp_format_a@@YAHQEBNPEAD_KQEAD2H_NIQEAU__crt_locale_pointers@@W4__acrt_rounding_mode@@@Z 00000001800187c0 f   libucrt:cvt.obj
 0001:00017b40       ?fp_format_e@@YAHQEBNQEAD_K12H_NIQEAU__crt_locale_pointers@@W4__acrt_rounding_mode@@@Z 0000000180018b40 f   libucrt:cvt.obj
 0001:00017c30       ?fp_format_e_internal@@YAHQEAD_KH_NIQEAU_strflt@@2QEAU__crt_locale_pointers@@@Z 0000000180018c30 f   libucrt:cvt.obj
 0001:00017e04       ?fp_format_f_internal@@YAHQEAD_KHQEAU_strflt@@_NQEAU__crt_locale_pointers@@@Z 0000000180018e04 f   libucrt:cvt.obj
 0001:00017f6c       ?fp_format_g@@YAHQEBNQEAD_K12H_NIQEAU__crt_locale_pointers@@@Z 0000000180018f6c f   libucrt:cvt.obj
 0001:000180ac       ?should_round_up@@YA_NQEBN_KFW4__acrt_rounding_mode@@@Z 00000001800190ac f   libucrt:cvt.obj
 0001:000186d0       ??$?RV<lambda_410d79af7f07d98d83a3f525b3859a53>@@AEAV<lambda_3e16ef9562a7dcce91392c22ab16ea36>@@V<lambda_38119f0e861e05405d8a144b9b982f0a>@@@?$__crt_seh_guarded_call@X@@QEAAX$$QEAV<lambda_410d79af7f07d98d83a3f525b3859a53>@@AEAV<lambda_3e16ef9562a7dcce91392c22ab16ea36>@@$$QEAV<lambda_38119f0e861e05405d8a144b9b982f0a>@@@Z 00000001800196d0 f   libucrt:wsetlocale.obj
 0001:0001877c       ?initialize_inherited_file_handles_nolock@@YAXXZ 000000018001977c f   libucrt:ioinit.obj
 0001:0001886c       ?initialize_stdio_handles_nolock@@YAXXZ 000000018001986c f   libucrt:ioinit.obj
 0001:00018ae8       ?<lambda_invoker_cdecl>@<lambda_a1ce4c8ae42411fd470c77163914f50e>@@CAHPEBX0@Z 0000000180019ae8 f   libucrt:argv_wildcards.obj
 0001:00018e00       ??$common_expand_argv_wildcards@D@@YAHQEAPEADQEAPEAPEAD@Z 0000000180019e00 f   libucrt:argv_wildcards.obj
 0001:0001900c       ??$copy_and_add_argument_to_buffer@D@@YAHQEBD0_KAEAV?$argument_list@D@?A0x5f5c8891@@@Z 000000018001a00c f   libucrt:argv_wildcards.obj
 0001:00019194       ??$expand_argument_wildcards@D@@YAHQEAD0AEAV?$argument_list@D@?A0x5f5c8891@@@Z 000000018001a194 f   libucrt:argv_wildcards.obj
 0001:000196e0       ??$?RV<lambda_efdfa57d1f175319df784efa44bb7b81>@@AEAV<lambda_5f0a4c1567f8adc6734073e5d1e1b35c>@@V<lambda_2e8a7d3640ea6ccb4c2413664c2db6fd>@@@?$__crt_seh_guarded_call@X@@QEAAX$$QEAV<lambda_efdfa57d1f175319df784efa44bb7b81>@@AEAV<lambda_5f0a4c1567f8adc6734073e5d1e1b35c>@@$$QEAV<lambda_2e8a7d3640ea6ccb4c2413664c2db6fd>@@@Z 000000018001a6e0 f   libucrt:mbctype.obj
 0001:0001989c       ?getSystemCP@@YAHH@Z       000000018001a89c f   libucrt:mbctype.obj
 0001:0001991c       ?setSBCS@@YAXPEAU__crt_multibyte_data@@@Z 000000018001a91c f   libucrt:mbctype.obj
 0001:000199ac       ?setSBUpLow@@YAXPEAU__crt_multibyte_data@@@Z 000000018001a9ac f   libucrt:mbctype.obj
 0001:00019b90       ?setmbcp_internal@@YAHH_NQEAU__acrt_ptd@@QEAPEAU__crt_multibyte_data@@@Z 000000018001ab90 f   libucrt:mbctype.obj
 0001:00019d50       ?update_thread_multibyte_data_internal@@YAPEAU__crt_multibyte_data@@QEAU__acrt_ptd@@QEAPEAU1@@Z 000000018001ad50 f   libucrt:mbctype.obj
 0001:0001a140       ?x_ismbbtype_l@@YAHPEAU__crt_locale_pointers@@IHH@Z 000000018001b140 f   libucrt:ismbbyte.obj
 0001:0001a4e8       ??$?RV<lambda_450d765d439847d4c735a33c368b5fc0>@@AEAV<lambda_44731a7d0e6d81c3e6aa82d741081786>@@V<lambda_601a2a7da3b7a96e9554ac7215c4b07c>@@@?$__crt_seh_guarded_call@P6AXH@Z@@QEAAP6AXH@Z$$QEAV<lambda_450d765d439847d4c735a33c368b5fc0>@@AEAV<lambda_44731a7d0e6d81c3e6aa82d741081786>@@$$QEAV<lambda_601a2a7da3b7a96e9554ac7215c4b07c>@@@Z 000000018001b4e8 f   libucrt:signal.obj
 0001:0001a844       ??$?RV<lambda_842d9ff0dc9ef11c61343bbaebe7f885>@@AEAV<lambda_c5860995281e5c4ce005b3de8f5874ee>@@V<lambda_d90129c13df834fdcbf8d2b88dafcf2d>@@@?$__crt_seh_guarded_call@X@@QEAAX$$QEAV<lambda_842d9ff0dc9ef11c61343bbaebe7f885>@@AEAV<lambda_c5860995281e5c4ce005b3de8f5874ee>@@$$QEAV<lambda_d90129c13df834fdcbf8d2b88dafcf2d>@@@Z 000000018001b844 f   libucrt:fflush.obj
 0001:0001a8e0       ??$?RV<lambda_886d6c58226a84441f68b9f2b8217b83>@@AEAV<lambda_ab61a845afdef5b7c387490eaf3616ee>@@V<lambda_f7f22ab5edc0698d5f6905b0d3f44752>@@@?$__crt_seh_guarded_call@X@@QEAAX$$QEAV<lambda_886d6c58226a84441f68b9f2b8217b83>@@AEAV<lambda_ab61a845afdef5b7c387490eaf3616ee>@@$$QEAV<lambda_f7f22ab5edc0698d5f6905b0d3f44752>@@@Z 000000018001b8e0 f   libucrt:fflush.obj
 0001:0001a9c0       ?common_flush_all@@YAH_N@Z 000000018001b9c0 f   libucrt:fflush.obj
 0001:0001ca10       memcpy_s                   000000018001da10 f   libucrt:cfout.obj
 0001:0001cd78       ?free_crt_array_internal@@YAXQEAPEBX_K@Z 000000018001dd78 f   libucrt:inittime.obj
 0001:0001d804       fallbackMethod             000000018001e804 f   libucrt:strpbrk.obj
 0001:0001dbbc       $LN78                      000000018001ebbc     libucrt:strpbrk.obj
 0001:0001dbf8       $LN77                      000000018001ebf8     libucrt:strpbrk.obj
 0001:0001dc38       $LN76                      000000018001ec38     libucrt:strpbrk.obj
 0001:0001dd14       ?__acrt_LCMapStringA_stat@@YAHPEAU__crt_locale_pointers@@PEB_WKPEBDHPEADHHH@Z 000000018001ed14 f   libucrt:lcmapstringa.obj
 0001:0001e0c4       ?initialize_multibyte@@YAHXZ 000000018001f0c4 f   libucrt:multibyte_initializer.obj
 0001:0001e0dc       ??$?RV<lambda_a37b2b86f63e897a80ea819b0eb08c01>@@AEAV<lambda_38ce7e780aa69e748d6df282ebc68efe>@@V<lambda_99fb1378e971ab6e7edea83e3a7a83a2>@@@?$__crt_seh_guarded_call@H@@QEAAH$$QEAV<lambda_a37b2b86f63e897a80ea819b0eb08c01>@@AEAV<lambda_38ce7e780aa69e748d6df282ebc68efe>@@$$QEAV<lambda_99fb1378e971ab6e7edea83e3a7a83a2>@@@Z 000000018001f0dc f   libucrt:commit.obj
 0001:0001e1fc       ?write_double_translated_ansi_nolock@@YA?AUwrite_result@?A0x17268360@@HQEBDI@Z 000000018001f1fc f   libucrt:write.obj
 0001:0001e6e8       ?write_text_ansi_nolock@@YA?AUwrite_result@?A0x17268360@@HQEBDI@Z 000000018001f6e8 f   libucrt:write.obj
 0001:0001e7ec       ?write_text_utf16le_nolock@@YA?AUwrite_result@?A0x17268360@@HQEBDI@Z 000000018001f7ec f   libucrt:write.obj
 0001:0001e908       ?write_text_utf8_nolock@@YA?AUwrite_result@?A0x17268360@@HQEBDI@Z 000000018001f908 f   libucrt:write.obj
 0001:0001f260       $$000000                   0000000180020260     libucrt:log10.obj
 0001:0001fb2c       ??$common_lseek_nolock@_J@@YA_JH_JH@Z 0000000180020b2c f   libucrt:lseek.obj
 0001:0001fd8c       common_control87           0000000180020d8c f   libucrt:ieee.obj
 0001:0002004c       _call_matherr              000000018002104c f   libucrt:libm_error.obj
 0001:000200b4       _exception_enabled         00000001800210b4 f   libucrt:libm_error.obj
 0001:00020350       _log_special_common        0000000180021350 f   libucrt:log_special.obj
 0001:000203e8       ??$?RV<lambda_751a882b2c74d4b022dec766aa51a29a>@@AEAV<lambda_628dfdc04ba53c8bfc02c9951375f3f5>@@V<lambda_f6c7be5f7998530c34de24c7437d6b54>@@@?$__crt_seh_guarded_call@H@@QEAAH$$QEAV<lambda_751a882b2c74d4b022dec766aa51a29a>@@AEAV<lambda_628dfdc04ba53c8bfc02c9951375f3f5>@@$$QEAV<lambda_f6c7be5f7998530c34de24c7437d6b54>@@@Z 00000001800213e8 f   libucrt:close.obj
 0001:00020710       $$000000                   0000000180021710     libucrt:fpsr.obj
 0001:00020db0       $$000000                   0000000180021db0     LIBCMT:guard_dispatch.obj
 0001:00020dd0       $$000000                   0000000180021dd0     LIBCMT:guard_xfg_dispatch.obj
 0001:00020df0       ?filt$0@?0??_AtlVerifyStackAvailable@_ATL_SAFE_ALLOCA_IMPL@ATL@@YA_N_K@Z@4HA 0000000180021df0 f   CoinDispenser.obj
 0001:00020e11       __scrt_is_nonwritable_in_current_image$filt$0 0000000180021e11 f   LIBCMT:utility.obj
 0001:00020e29       ?catch$0@?0???2@YAPEAX_KAEBUnothrow_t@std@@@Z@4HA 0000000180021e29 f   LIBCMT:new_scalar_nothrow.obj
 0001:00020e36       __catch$??2@YAPEAX_KAEBUnothrow_t@std@@@Z$0 0000000180021e36 f   LIBCMT:new_scalar_nothrow.obj
 0001:00020e47       ?fin$0@?0??dllmain_crt_process_attach@@YAHQEAUHINSTANCE__@@QEAX@Z@4HA 0000000180021e47 f   LIBCMT:dll_dllmain.obj
 0001:00020e5e       ?fin$0@?0??dllmain_crt_process_detach@@YAH_N@Z@4HA 0000000180021e5e f   LIBCMT:dll_dllmain.obj
 0001:00020e77       ?fin$1@?0??dllmain_crt_process_detach@@YAH_N@Z@4HA 0000000180021e77 f   LIBCMT:dll_dllmain.obj
 0001:00020e8b       ?filt$0@?0??dllmain_dispatch@@YAHQEAUHINSTANCE__@@KQEAX@Z@4HA 0000000180021e8b f   LIBCMT:dll_dllmain.obj
 0001:00020ec1       ?filt$0@?0???$_CallSETranslator@V__FrameHandler4@@@@YAHPEAUEHExceptionRecord@@PEA_KPEAU_CONTEXT@@PEAU_xDISPATCHER_CONTEXT@@PEAUFuncInfo4@FH4@@K1H@Z@4HA 0000000180021ec1 f   libvcruntime:risctrnsctrl.obj
 0001:00020f60       __DestructExceptionObject$filt$0 0000000180021f60 f   libvcruntime:ehhelpers.obj
 0001:00020ff6       ?filt$0@?0??CxxCallCatchBlock@__FrameHandler4@@SAPEAXPEAU_EXCEPTION_RECORD@@@Z@4HA 0000000180021ff6 f   libvcruntime:frame.obj
 0001:00021025       ?fin$1@?0??CxxCallCatchBlock@__FrameHandler4@@SAPEAXPEAU_EXCEPTION_RECORD@@@Z@4HA 0000000180022025 f   libvcruntime:frame.obj
 0001:000210a8       ?filt$0@?0??FrameUnwindToState@__FrameHandler4@@SAXPEA_KPEAU_xDISPATCHER_CONTEXT@@PEAUFuncInfo4@FH4@@H@Z@4HA 00000001800220a8 f   libvcruntime:frame.obj
 0001:000210be       ?fin$1@?0??FrameUnwindToState@__FrameHandler4@@SAXPEA_KPEAU_xDISPATCHER_CONTEXT@@PEAUFuncInfo4@FH4@@H@Z@4HA 00000001800220be f   libvcruntime:frame.obj
 0001:000210e1       ?fin$0@?0???$?RV<lambda_0ae27a3a962d80f24befdcbee591983d>@@AEAV<lambda_8d0ee55de4b1038c4002e0adecdf1839>@@V<lambda_dc504788e8f1664fe9b84e20bfb512f2>@@@?$__crt_seh_guarded_call@X@@QEAAX$$QEAV<lambda_0ae27a3a962d80f24befdcbee591983d>@@AEAV<lambda_8d0ee55de4b1038c4002e0adecdf1839>@@$$QEAV<lambda_dc504788e8f1664fe9b84e20bfb512f2>@@@Z@4HA 00000001800220e1 f   libucrt:per_thread_data.obj
 0001:000210e1       ?fin$0@?0???$?RV<lambda_2d41944a1d46af3157314b8a01080d33>@@AEAV<lambda_8f455de75cd7d7f24b4096f044d8b9e6>@@V<lambda_aa500f224e6afead328df44964fe2772>@@@?$__crt_seh_guarded_call@X@@QEAAX$$QEAV<lambda_2d41944a1d46af3157314b8a01080d33>@@AEAV<lambda_8f455de75cd7d7f24b4096f044d8b9e6>@@$$QEAV<lambda_aa500f224e6afead328df44964fe2772>@@@Z@4HA 00000001800220e1 f   libucrt:per_thread_data.obj
 0001:000210e1       ?fin$0@?0???$?RV<lambda_aa87e3671a710a21b5dc78c0bdf72e11>@@AEAV<lambda_92619d2358a28f41a33ba319515a20b9>@@V<lambda_6992ecaafeb10aed2b74cb1fae11a551>@@@?$__crt_seh_guarded_call@X@@QEAAX$$QEAV<lambda_aa87e3671a710a21b5dc78c0bdf72e11>@@AEAV<lambda_92619d2358a28f41a33ba319515a20b9>@@$$QEAV<lambda_6992ecaafeb10aed2b74cb1fae11a551>@@@Z@4HA 00000001800220e1 f   libucrt:per_thread_data.obj
 0001:000210e1       ?fin$0@?0???$?RV<lambda_f2e299630e499de9f9a165e60fcd3db5>@@AEAV<lambda_2ae9d31cdba2644fcbeaf08da7c24588>@@V<lambda_40d01ff24d0e7b3814fdbdcee8eab3c7>@@@?$__crt_seh_guarded_call@X@@QEAAX$$QEAV<lambda_f2e299630e499de9f9a165e60fcd3db5>@@AEAV<lambda_2ae9d31cdba2644fcbeaf08da7c24588>@@$$QEAV<lambda_40d01ff24d0e7b3814fdbdcee8eab3c7>@@@Z@4HA 00000001800220e1 f   libucrt:per_thread_data.obj
 0001:000210e1       ?fin$0@?0???$?RV<lambda_efdfa57d1f175319df784efa44bb7b81>@@AEAV<lambda_5f0a4c1567f8adc6734073e5d1e1b35c>@@V<lambda_2e8a7d3640ea6ccb4c2413664c2db6fd>@@@?$__crt_seh_guarded_call@X@@QEAAX$$QEAV<lambda_efdfa57d1f175319df784efa44bb7b81>@@AEAV<lambda_5f0a4c1567f8adc6734073e5d1e1b35c>@@$$QEAV<lambda_2e8a7d3640ea6ccb4c2413664c2db6fd>@@@Z@4HA 00000001800220e1 f   libucrt:mbctype.obj
 0001:000210e1       ?fin$0@?0???$?RV<lambda_450d765d439847d4c735a33c368b5fc0>@@AEAV<lambda_44731a7d0e6d81c3e6aa82d741081786>@@V<lambda_601a2a7da3b7a96e9554ac7215c4b07c>@@@?$__crt_seh_guarded_call@P6AXH@Z@@QEAAP6AXH@Z$$QEAV<lambda_450d765d439847d4c735a33c368b5fc0>@@AEAV<lambda_44731a7d0e6d81c3e6aa82d741081786>@@$$QEAV<lambda_601a2a7da3b7a96e9554ac7215c4b07c>@@@Z@4HA 00000001800220e1 f   libucrt:signal.obj
 0001:000210e1       ?fin$0@?0???$?RV<lambda_d80eeec6fff315bfe5c115232f3240e3>@@AEAV<lambda_6e4b09c48022b2350581041d5f6b0c4c>@@V<lambda_2358e3775559c9db80273638284d5e45>@@@?$__crt_seh_guarded_call@X@@QEAAX$$QEAV<lambda_d80eeec6fff315bfe5c115232f3240e3>@@AEAV<lambda_6e4b09c48022b2350581041d5f6b0c4c>@@$$QEAV<lambda_2358e3775559c9db80273638284d5e45>@@@Z@4HA 00000001800220e1 f   libucrt:exit.obj
 0001:000210e1       ?fin$0@?0???$?RV<lambda_638799b9deba96c50f710eeac98168cd>@@AEAV<lambda_22ebabd17bc4fa466a2aca6d8deb888d>@@V<lambda_a6f7d7db0129f75315ebf26d50c089f1>@@@?$__crt_seh_guarded_call@H@@QEAAH$$QEAV<lambda_638799b9deba96c50f710eeac98168cd>@@AEAV<lambda_22ebabd17bc4fa466a2aca6d8deb888d>@@$$QEAV<lambda_a6f7d7db0129f75315ebf26d50c089f1>@@@Z@4HA 00000001800220e1 f   libucrt:onexit.obj
 0001:000210e1       ?fin$0@?0???$?RV<lambda_7777bce6b2f8c936911f934f8298dc43>@@AEAV<lambda_f03950bc5685219e0bcd2087efbe011e>@@V<lambda_3883c3dff614d5e0c5f61bb1ac94921c>@@@?$__crt_seh_guarded_call@H@@QEAAH$$QEAV<lambda_7777bce6b2f8c936911f934f8298dc43>@@AEAV<lambda_f03950bc5685219e0bcd2087efbe011e>@@$$QEAV<lambda_3883c3dff614d5e0c5f61bb1ac94921c>@@@Z@4HA 00000001800220e1 f   libucrt:onexit.obj
 0001:000210fb       ?filt$0@?0???R<lambda_6e4b09c48022b2350581041d5f6b0c4c>@@QEBA@XZ@4HA 00000001800220fb f   libucrt:exit.obj
 0001:00021116       _query_new_handler$fin$0   0000000180022116 f   libucrt:new_handler.obj
 0001:0002112c       ?fin$0@?0???$?RV<lambda_410d79af7f07d98d83a3f525b3859a53>@@AEAV<lambda_3e16ef9562a7dcce91392c22ab16ea36>@@V<lambda_38119f0e861e05405d8a144b9b982f0a>@@@?$__crt_seh_guarded_call@X@@QEAAX$$QEAV<lambda_410d79af7f07d98d83a3f525b3859a53>@@AEAV<lambda_3e16ef9562a7dcce91392c22ab16ea36>@@$$QEAV<lambda_38119f0e861e05405d8a144b9b982f0a>@@@Z@4HA 000000018002212c f   libucrt:wsetlocale.obj
 0001:00021146       __acrt_initialize_lowio$fin$0 0000000180022146 f   libucrt:ioinit.obj
 0001:00021146       __acrt_lowio_ensure_fh_exists$fin$0 0000000180022146 f   libucrt:osfinfo.obj
 0001:0002115f       ?fin$0@?0??update_thread_multibyte_data_internal@@YAPEAU__crt_multibyte_data@@QEAU__acrt_ptd@@QEAPEAU1@@Z@4HA 000000018002215f f   libucrt:mbctype.obj
 0001:00021178       raise$fin$0                0000000180022178 f   libucrt:signal.obj
 0001:00021199       ?fin$0@?0???$?RV<lambda_842d9ff0dc9ef11c61343bbaebe7f885>@@AEAV<lambda_c5860995281e5c4ce005b3de8f5874ee>@@V<lambda_d90129c13df834fdcbf8d2b88dafcf2d>@@@?$__crt_seh_guarded_call@X@@QEAAX$$QEAV<lambda_842d9ff0dc9ef11c61343bbaebe7f885>@@AEAV<lambda_c5860995281e5c4ce005b3de8f5874ee>@@$$QEAV<lambda_d90129c13df834fdcbf8d2b88dafcf2d>@@@Z@4HA 0000000180022199 f   libucrt:fflush.obj
 0001:000211b4       ?fin$0@?0???$?RV<lambda_886d6c58226a84441f68b9f2b8217b83>@@AEAV<lambda_ab61a845afdef5b7c387490eaf3616ee>@@V<lambda_f7f22ab5edc0698d5f6905b0d3f44752>@@@?$__crt_seh_guarded_call@X@@QEAAX$$QEAV<lambda_886d6c58226a84441f68b9f2b8217b83>@@AEAV<lambda_ab61a845afdef5b7c387490eaf3616ee>@@$$QEAV<lambda_f7f22ab5edc0698d5f6905b0d3f44752>@@@Z@4HA 00000001800221b4 f   libucrt:fflush.obj
 0001:000211d1       __acrt_update_thread_locale_data$fin$0 00000001800221d1 f   libucrt:locale_refcounting.obj
 0001:000211ea       _fcloseall$fin$0           00000001800221ea f   libucrt:closeall.obj
 0001:00021203       ?fin$0@?0???$?RV<lambda_751a882b2c74d4b022dec766aa51a29a>@@AEAV<lambda_628dfdc04ba53c8bfc02c9951375f3f5>@@V<lambda_f6c7be5f7998530c34de24c7437d6b54>@@@?$__crt_seh_guarded_call@H@@QEAAH$$QEAV<lambda_751a882b2c74d4b022dec766aa51a29a>@@AEAV<lambda_628dfdc04ba53c8bfc02c9951375f3f5>@@$$QEAV<lambda_f6c7be5f7998530c34de24c7437d6b54>@@@Z@4HA 0000000180022203 f   libucrt:close.obj
 0001:00021203       ?fin$0@?0???$?RV<lambda_a37b2b86f63e897a80ea819b0eb08c01>@@AEAV<lambda_38ce7e780aa69e748d6df282ebc68efe>@@V<lambda_99fb1378e971ab6e7edea83e3a7a83a2>@@@?$__crt_seh_guarded_call@H@@QEAAH$$QEAV<lambda_a37b2b86f63e897a80ea819b0eb08c01>@@AEAV<lambda_38ce7e780aa69e748d6df282ebc68efe>@@$$QEAV<lambda_99fb1378e971ab6e7edea83e3a7a83a2>@@@Z@4HA 0000000180022203 f   libucrt:commit.obj
 0001:0002121d       _write$fin$0               000000018002221d f   libucrt:write.obj
 0001:00021234       fclose$fin$0               0000000180022234 f   libucrt:fclose.obj
 0001:0002124c       _ctrlfp$filt$0             000000018002224c f   libucrt:fpctrl.obj
 0001:0002124c       common_control87$filt$0    000000018002224c f   libucrt:ieee.obj
 0001:00021280       _IsNonwritableInCurrentImage$filt$0 0000000180022280 f   LIBCMT:pesect.obj
 0001:000212a0       ??__F_AtlComModule@ATL@@YAXXZ 00000001800222a0 f   OposVariant.obj
 0001:000212ac       ??__F_AtlWinModule@ATL@@YAXXZ 00000001800222ac f   OposVariant.obj
 0001:000212f0       ??__F_Module@@YAXXZ        00000001800222f0 f   CoinDispenser.obj
 0001:0002130c       ??__F_AtlBaseModule@ATL@@YAXXZ 000000018002230c f   atls:atlbase.obj
 0002:00000648       ?_AtlBaseModule$initializer$@ATL@@3P6AXXZEA 0000000180023648     atls:atlbase.obj
 0002:00000650       ?_AtlComModule$initializer$@ATL@@3P6AXXZEA 0000000180023650     OposVariant.obj
 0002:00000658       ?_AtlWinModule$initializer$@ATL@@3P6AXXZEA 0000000180023658     OposVariant.obj
 0002:00000660       ?_Module$initializer$@@3P6AXXZEA 0000000180023660     CoinDispenser.obj
 0002:00000668       ??pConnMap$initializer$@?$IConnectionPointContainerImpl@VCOPOSCoinDispenser@@@ATL@@0P6AXXZEA@@3P6AXXZEA 0000000180023668     CoinDispenser.obj
 0002:00000680       ?__scrt_initialize_tss_var@@3P6AHXZEA 0000000180023680     LIBCMT:thread_safe_statics.obj
 0002:000025e8       GS_ExceptionPointers       00000001800255e8     LIBCMT:gs_report.obj
 0002:000027d0       ?ExceptionTemplate@?1??UnwindNestedFrames@__FrameHandler4@@SAXPEA_KPEAUEHExceptionRecord@@PEAU_CONTEXT@@0PEAXPEAUFuncInfo4@FH4@@HHPEAUHandlerType4@6@PEAU_xDISPATCHER_CONTEXT@@E@Z@4U_EXCEPTION_RECORD@@B 00000001800257d0     libvcruntime:risctrnsctrl.obj
 0002:000028a0       ?tokenTable@@3QBUStringLiteral@@B 00000001800258a0     libvcruntime:undname.obj
 0002:000029a0       ?nameTable@@3QBUStringLiteral@@B 00000001800259a0     libvcruntime:undname.obj
 0002:00002ed0       ?rttiTable@@3QBUStringLiteral@@B 0000000180025ed0     libvcruntime:undname.obj
 0002:00002f20       ?IndirectionName@@3QBUStringLiteral@@B 0000000180025f20     libvcruntime:undname.obj
 0002:00002f80       ?PrefixName@@3QBUStringLiteral@@B 0000000180025f80     libvcruntime:undname.obj
 0002:00003658       ?module_names@?A0x84e3c32f@@3QBQEB_WB 0000000180026658     libvcruntime:winapi_downlevel.obj
 0002:00003718       ?candidate_modules@?1??try_get_FlsAlloc@@YAP6AKP6AXPEAX@Z@ZXZ@4QBW4module_id@?A0x84e3c32f@@B 0000000180026718     libvcruntime:winapi_downlevel.obj
 0002:00003730       ?candidate_modules@?1??try_get_FlsFree@@YAP6AHK@ZXZ@4QBW4module_id@?A0x84e3c32f@@B 0000000180026730     libvcruntime:winapi_downlevel.obj
 0002:00003740       ?candidate_modules@?1??try_get_FlsGetValue@@YAP6APEAXK@ZXZ@4QBW4module_id@?A0x84e3c32f@@B 0000000180026740     libvcruntime:winapi_downlevel.obj
 0002:00003758       ?candidate_modules@?1??try_get_FlsSetValue@@YAP6AHKPEAX@ZXZ@4QBW4module_id@?A0x84e3c32f@@B 0000000180026758     libvcruntime:winapi_downlevel.obj
 0002:00003770       ?candidate_modules@?1??try_get_InitializeCriticalSectionEx@@YAP6AHPEAU_RTL_CRITICAL_SECTION@@KK@ZXZ@4QBW4module_id@?A0x84e3c32f@@B 0000000180026770     libvcruntime:winapi_downlevel.obj
 0002:000037a0       ?errtable@@3QBUerrentry@?A0x31fdb9ec@@B 00000001800267a0     libucrt:errno.obj
 0002:00003e30       __acrt_initializers        0000000180026e30     libucrt:initialization.obj
 0002:00003f30       ?module_names@?A0x391cf84c@@3QBQEB_WB 0000000180026f30     libucrt:winapi_thunks.obj
 0002:00004438       ?candidate_modules@?1??try_get_AreFileApisANSI@@YAP6AHXZXZ@4QBW4module_id@?A0x391cf84c@@B 0000000180027438     libucrt:winapi_thunks.obj
 0002:00004450       ?candidate_modules@?1??try_get_FlsAlloc@@YAP6AKP6AXPEAX@Z@ZXZ@4QBW4module_id@?A0x391cf84c@@B 0000000180027450     libucrt:winapi_thunks.obj
 0002:00004458       ?candidate_modules@?1??try_get_FlsFree@@YAP6AHK@ZXZ@4QBW4module_id@?A0x391cf84c@@B 0000000180027458     libucrt:winapi_thunks.obj
 0002:00004460       ?candidate_modules@?1??try_get_FlsGetValue@@YAP6APEAXK@ZXZ@4QBW4module_id@?A0x391cf84c@@B 0000000180027460     libucrt:winapi_thunks.obj
 0002:00004468       ?candidate_modules@?1??try_get_FlsSetValue@@YAP6AHKPEAX@ZXZ@4QBW4module_id@?A0x391cf84c@@B 0000000180027468     libucrt:winapi_thunks.obj
 0002:00004470       ?candidate_modules@?1??try_get_InitializeCriticalSectionEx@@YAP6AHPEAU_RTL_CRITICAL_SECTION@@KK@ZXZ@4QBW4module_id@?A0x391cf84c@@B 0000000180027470     libucrt:winapi_thunks.obj
 0002:00004478       ?candidate_modules@?1??try_get_LCMapStringEx@@YAP6AHPEB_WK0HPEA_WHPEAU_nlsversioninfo@@PEAX_J@ZXZ@4QBW4module_id@?A0x391cf84c@@B 0000000180027478     libucrt:winapi_thunks.obj
 0002:00004490       ?candidate_modules@?1??try_get_LocaleNameToLCID@@YAP6AKPEB_WK@ZXZ@4QBW4module_id@?A0x391cf84c@@B 0000000180027490     libucrt:winapi_thunks.obj
 0002:000044ac       ?candidate_modules@?1??try_get_AppPolicyGetProcessTerminationMethod@@YAP6AJPEAXPEAW4AppPolicyProcessTerminationMethod@@@ZXZ@4QBW4module_id@?A0x391cf84c@@B 00000001800274ac     libucrt:winapi_thunks.obj
 0002:000044d8       ?candidate_modules@?1??try_get_SetThreadStackGuarantee@@YAP6AHPEAK@ZXZ@4QBW4module_id@?A0x391cf84c@@B 00000001800274d8     libucrt:winapi_thunks.obj
 0002:00004500       ?strings@?1??fp_format_nan_or_infinity@@YAHW4__acrt_fp_class@@_NPEAD_K1@Z@4QAY03QEBDA 0000000180027500     libucrt:cvt.obj
 0002:00004c60       ?_mb_locale_names@@3QBQEB_WB 0000000180027c60     libucrt:mbctype.obj
 0002:000054d0       ?LcidToLocaleNameTable@?A0x881e4c05@@3QBULcidToLocaleName@1@B 00000001800284d0     libucrt:lcidtoname_downlevel.obj
 0002:00006f30       ?LocaleNameToIndexTable@?A0x881e4c05@@3QBULocaleNameIndex@1@B 0000000180029f30     libucrt:lcidtoname_downlevel.obj
 0002:000091d0       __real_ninf                000000018002c1d0     libucrt:log10.obj
 0002:000091e0       __real_inf                 000000018002c1e0     libucrt:log10.obj
 0002:000091f0       __real_neg_qnan            000000018002c1f0     libucrt:log10.obj
 0002:00009200       __real_qnanbit             000000018002c200     libucrt:log10.obj
 0002:00009210       __int_1023                 000000018002c210     libucrt:log10.obj
 0002:00009220       __mask_001                 000000018002c220     libucrt:log10.obj
 0002:00009230       __mask_mant                000000018002c230     libucrt:log10.obj
 0002:00009240       __mask_mant_top8           000000018002c240     libucrt:log10.obj
 0002:00009250       __mask_mant9               000000018002c250     libucrt:log10.obj
 0002:00009260       __real_log10_e             000000018002c260     libucrt:log10.obj
 0002:00009270       __real_log10_e_lead        000000018002c270     libucrt:log10.obj
 0002:00009280       __real_log10_e_tail        000000018002c280     libucrt:log10.obj
 0002:00009290       __real_log10_2_lead        000000018002c290     libucrt:log10.obj
 0002:000092a0       __real_log10_2_tail        000000018002c2a0     libucrt:log10.obj
 0002:000092b0       __real_two                 000000018002c2b0     libucrt:log10.obj
 0002:000092c0       __real_one                 000000018002c2c0     libucrt:log10.obj
 0002:000092d0       __real_half                000000018002c2d0     libucrt:log10.obj
 0002:000092e0       __mask_100                 000000018002c2e0     libucrt:log10.obj
 0002:000092f0       __real_1_over_512          000000018002c2f0     libucrt:log10.obj
 0002:00009300       __real_1_over_2            000000018002c300     libucrt:log10.obj
 0002:00009310       __real_1_over_3            000000018002c310     libucrt:log10.obj
 0002:00009320       __real_1_over_4            000000018002c320     libucrt:log10.obj
 0002:00009330       __real_1_over_5            000000018002c330     libucrt:log10.obj
 0002:00009340       __real_1_over_6            000000018002c340     libucrt:log10.obj
 0002:00009350       __real_neg_1023            000000018002c350     libucrt:log10.obj
 0002:00009360       __mask_2045                000000018002c360     libucrt:log10.obj
 0002:00009370       __real_threshold           000000018002c370     libucrt:log10.obj
 0002:00009380       __real_near_one_lt         000000018002c380     libucrt:log10.obj
 0002:00009390       __real_near_one_gt         000000018002c390     libucrt:log10.obj
 0002:000093a0       __real_min_norm            000000018002c3a0     libucrt:log10.obj
 0002:000093b0       __real_notsign             000000018002c3b0     libucrt:log10.obj
 0002:000093c0       __real_ca1                 000000018002c3c0     libucrt:log10.obj
 0002:000093d0       __real_ca2                 000000018002c3d0     libucrt:log10.obj
 0002:000093e0       __real_ca3                 000000018002c3e0     libucrt:log10.obj
 0002:000093f0       __real_ca4                 000000018002c3f0     libucrt:log10.obj
 0002:00009400       __mask_lower               000000018002c400     libucrt:log10.obj
 0002:00009410       __flag_x_zero              000000018002c410     libucrt:log10.obj
 0002:00009414       __flag_x_neg               000000018002c414     libucrt:log10.obj
 0002:00009418       __flag_x_nan               000000018002c418     libucrt:log10.obj
 0002:0000ac70       __real@433fffffffffffff    000000018002dc70     libucrt:fpsr.obj
 0002:0000ac78       __real@c33fffffffffffff    000000018002dc78     libucrt:fpsr.obj
 0002:0000b558       $unwind$?cw_memcpy@@YAHPEA_WPEBDH@Z 000000018002e558     CWString.obj
 0002:0000b558       $unwind$?ProcessWindowMessage@?$CComControl@VCOPOSCoinDispenser@@V?$CWindowImpl@VCOPOSCoinDispenser@@VCWindow@ATL@@V?$CWinTraits@$0FGAAAAAA@$0A@@3@@ATL@@@ATL@@UEAAHPEAUHWND__@@I_K_JAEA_JK@Z 000000018002e558     CoinDispenser.obj
 0002:0000b558       $unwind$wcstol             000000018002e558     libucrt:strtox.obj
 0002:0000b558       $unwind$_invalid_parameter_noinfo 000000018002e558     libucrt:invalid_parameter.obj
 0002:0000b558       $unwind$_log10_special     000000018002e558     libucrt:log_special.obj
 0002:0000b560       $unwind$?cw_strcpy@@YAHPEA_WPEBD@Z 000000018002e560     CWString.obj
 0002:0000b560       $unwind$??__E?pConnMap@?$IConnectionPointContainerImpl@VCOPOSCoinDispenser@@@ATL@@0PEBU_ATL_CONNMAP_ENTRY@2@EB@@YAXXZ 000000018002e560     CoinDispenser.obj
 0002:0000b560       $unwind$?AddReplacement@CRegObject@ATL@@UEAAJPEB_W0@Z 000000018002e560     CoinDispenser.obj
 0002:0000b560       $unwind$?AtlHresultFromLastError@ATL@@YAJXZ 000000018002e560     CoinDispenser.obj
 0002:0000b560       $unwind$?AtlThrowImpl@ATL@@YAXJ@Z 000000018002e560     CoinDispenser.obj
 0002:0000b560       $unwind$?CreateInstance@CComClassFactory@ATL@@UEAAJPEAUIUnknown@@AEBU_GUID@@PEAPEAX@Z 000000018002e560     CoinDispenser.obj
 0002:0000b560       $unwind$?DefaultReflectionHandler@?$CWindowImplRoot@VCWindow@ATL@@@ATL@@SAHPEAUHWND__@@I_K_JAEA_J@Z 000000018002e560     CoinDispenser.obj
 0002:0000b560       $unwind$?EnumAdvise@?$IOleObjectImpl@VCOPOSCoinDispenser@@@ATL@@UEAAJPEAPEAUIEnumSTATDATA@@@Z 000000018002e560     CoinDispenser.obj
 0002:0000b560       $unwind$?FireViewChange@CComControlBase@ATL@@QEAAJXZ 000000018002e560     CoinDispenser.obj
 0002:0000b560       $unwind$?GetAdvise@?$IViewObjectExImpl@VCOPOSCoinDispenser@@@ATL@@UEAAJPEAK0PEAPEAUIAdviseSink@@@Z 000000018002e560     CoinDispenser.obj
 0002:0000b560       $unwind$?LockServer@CComClassFactory@ATL@@UEAAJH@Z 000000018002e560     CoinDispenser.obj
 0002:0000b560       $unwind$?OnDocWindowActivate@?$IOleInPlaceActiveObjectImpl@VCOPOSCoinDispenser@@@ATL@@UEAAJH@Z 000000018002e560     CoinDispenser.obj
 0002:0000b560       $unwind$?Unadvise@?$IOleObjectImpl@VCOPOSCoinDispenser@@@ATL@@UEAAJK@Z 000000018002e560     CoinDispenser.obj
 0002:0000b560       $unwind$?_LocCPQueryInterface@?$IConnectionPointImpl@VCOPOSCoinDispenser@@$1?DIID__IOPOSCoinDispenserEvents@@3U_GUID@@BVCComDynamicUnkArray@ATL@@@ATL@@UEAAJAEBU_GUID@@PEAPEAX@Z 000000018002e560     CoinDispenser.obj
 0002:0000b560       $unwind$?_LocCPQueryInterface@?$IConnectionPointImpl@VCOPOSCoinDispenser@@$1?IID_IPropertyNotifySink@@3U_GUID@@BVCComDynamicUnkArray@ATL@@@ATL@@UEAAJAEBU_GUID@@PEAPEAX@Z 000000018002e560     CoinDispenser.obj
 0002:0000b560       $unwind$?FinalConstruct@COPOSCoinDispenser@@QEAAJXZ 000000018002e560     CoinDispenserImpl.obj
 0002:0000b560       $unwind$?get_ResultCode@COPOSCoinDispenser@@UEAAJPEAJ@Z 000000018002e560     CoinDispenserImpl.obj
 0002:0000b560       $unwind$?get_State@COPOSCoinDispenser@@UEAAJPEAJ@Z 000000018002e560     CoinDispenserImpl.obj
 0002:0000b560       $unwind$??1OposDispParms@@QEAA@XZ 000000018002e560     OposVariant.obj
 0002:0000b560       $unwind$??__E_AtlComModule@ATL@@YAXXZ 000000018002e560     OposVariant.obj
 0002:0000b560       $unwind$??__E_AtlWinModule@ATL@@YAXXZ 000000018002e560     OposVariant.obj
 0002:0000b560       $unwind$??__F_AtlWinModule@ATL@@YAXXZ 000000018002e560     OposVariant.obj
 0002:0000b560       $unwind$?GetLONG@OposVariant@@QEAAJXZ 000000018002e560     OposVariant.obj
 0002:0000b560       $unwind$??__E_AtlBaseModule@ATL@@YAXXZ 000000018002e560     atls:atlbase.obj
 0002:0000b560       $unwind$__scrt_initialize_default_local_stdio_options 000000018002e560     LIBCMT:default_local_stdio_options.obj
 0002:0000b560       $unwind$?dllmain_crt_dispatch@@YAHQEAUHINSTANCE__@@KQEAX@Z 000000018002e560     LIBCMT:dll_dllmain.obj
 0002:0000b560       $unwind$__report_rangecheckfailure 000000018002e560     LIBCMT:gs_report.obj
 0002:0000b560       $unwind$__GSHandlerCheck   000000018002e560     LIBCMT:gshandler.obj
 0002:0000b560       $unwind$?__scrt_uninitialize_thread_safe_statics@@YAXXZ 000000018002e560     LIBCMT:thread_safe_statics.obj
 0002:0000b560       $unwind$_Init_thread_notify 000000018002e560     LIBCMT:thread_safe_statics.obj
 0002:0000b560       $unwind$__scrt_acquire_startup_lock 000000018002e560     LIBCMT:utility.obj
 0002:0000b560       $unwind$__scrt_dllmain_after_initialize_c 000000018002e560     LIBCMT:utility.obj
 0002:0000b560       $unwind$__scrt_dllmain_before_initialize_c 000000018002e560     LIBCMT:utility.obj
 0002:0000b560       $unwind$__scrt_dllmain_crt_thread_attach 000000018002e560     LIBCMT:utility.obj
 0002:0000b560       $unwind$__scrt_dllmain_crt_thread_detach 000000018002e560     LIBCMT:utility.obj
 0002:0000b560       $unwind$__scrt_dllmain_uninitialize_c 000000018002e560     LIBCMT:utility.obj
 0002:0000b560       $unwind$__scrt_dllmain_uninitialize_critical 000000018002e560     LIBCMT:utility.obj
 0002:0000b560       $unwind$atexit             000000018002e560     LIBCMT:utility.obj
 0002:0000b560       $unwind$__vcrt_initialize  000000018002e560     libvcruntime:initialization.obj
 0002:0000b560       $unwind$__vcrt_thread_attach 000000018002e560     libvcruntime:initialization.obj
 0002:0000b560       $unwind$__vcrt_thread_detach 000000018002e560     libvcruntime:initialization.obj
 0002:0000b560       $unwind$__vcrt_uninitialize 000000018002e560     libvcruntime:initialization.obj
 0002:0000b560       $unwind$__vcrt_uninitialize_critical 000000018002e560     libvcruntime:initialization.obj
 0002:0000b560       $unwind$__vcrt_initialize_locks 000000018002e560     libvcruntime:locks.obj
 0002:0000b560       $unwind$__vcrt_freefls     000000018002e560     libvcruntime:per_thread_data.obj
 0002:0000b560       $unwind$__vcrt_getptd      000000018002e560     libvcruntime:per_thread_data.obj
 0002:0000b560       $unwind$__vcrt_initialize_ptd 000000018002e560     libvcruntime:per_thread_data.obj
 0002:0000b560       $unwind$__vcrt_uninitialize_ptd 000000018002e560     libvcruntime:per_thread_data.obj
 0002:0000b560       $unwind$_purecall          000000018002e560     libvcruntime:purevirt.obj
 0002:0000b560       $unwind$?FrameUnwindToEmptyState@__FrameHandler4@@SAXPEA_KPEAU_xDISPATCHER_CONTEXT@@PEAUFuncInfo4@FH4@@@Z 000000018002e560     libvcruntime:risctrnsctrl.obj
 0002:0000b560       $unwind$_GetImageBase      000000018002e560     libvcruntime:risctrnsctrl.obj
 0002:0000b560       $unwind$_GetThrowImageBase 000000018002e560     libvcruntime:risctrnsctrl.obj
 0002:0000b560       $unwind$__dcrt_terminate_console_output 000000018002e560     libucrt:initcon.obj
 0002:0000b560       $unwind$??$uninitialize_environment_internal@D@@YAXAEAPEAPEAD@Z 000000018002e560     libucrt:environment_initialization.obj
 0002:0000b560       $unwind$??$uninitialize_environment_internal@_W@@YAXAEAPEAPEA_W@Z 000000018002e560     libucrt:environment_initialization.obj
 0002:0000b560       $unwind$__dcrt_uninitialize_environments_nolock 000000018002e560     libucrt:environment_initialization.obj
 0002:0000b560       $unwind$__acrt_initialize_heap 000000018002e560     libucrt:heap_handle.obj
 0002:0000b560       $unwind$_msize_base        000000018002e560     libucrt:msize.obj
 0002:0000b560       $unwind$?initialize_multibyte@@YAHXZ 000000018002e560     libucrt:multibyte_initializer.obj
 0002:0000b560       $unwind$__acrt_thread_attach 000000018002e560     libucrt:initialization.obj
 0002:0000b560       $unwind$__acrt_thread_detach 000000018002e560     libucrt:initialization.obj
 0002:0000b560       $unwind$__acrt_uninitialize 000000018002e560     libucrt:initialization.obj
 0002:0000b560       $unwind$__acrt_uninitialize_critical 000000018002e560     libucrt:initialization.obj
 0002:0000b560       $unwind$initialize_c       000000018002e560     libucrt:initialization.obj
 0002:0000b560       $unwind$uninitialize_allocated_io_buffers 000000018002e560     libucrt:initialization.obj
 0002:0000b560       $unwind$uninitialize_environment 000000018002e560     libucrt:initialization.obj
 0002:0000b560       $unwind$__acrt_initialize_ptd 000000018002e560     libucrt:per_thread_data.obj
 0002:0000b560       $unwind$__acrt_uninitialize_ptd 000000018002e560     libucrt:per_thread_data.obj
 0002:0000b560       $unwind$__acrt_AreFileApisANSI 000000018002e560     libucrt:winapi_thunks.obj
 0002:0000b560       $unwind$__pctype_func      000000018002e560     libucrt:ctype.obj
 0002:0000b560       $unwind$__acrt_release_locale_ref 000000018002e560     libucrt:locale_refcounting.obj
 0002:0000b560       $unwind$_isatty            000000018002e560     libucrt:isatty.obj
 0002:0000b560       $unwind$_get_osfhandle     000000018002e560     libucrt:osfinfo.obj
 0002:0000b560       $unwind$__acrt_initialize_multibyte 000000018002e560     libucrt:mbctype.obj
 0002:0000b560       $unwind$__acrt_update_thread_multibyte_data 000000018002e560     libucrt:mbctype.obj
 0002:0000b560       $unwind$__doserrno         000000018002e560     libucrt:errno.obj
 0002:0000b560       $unwind$_errno             000000018002e560     libucrt:errno.obj
 0002:0000b560       $unwind$_invoke_watson     000000018002e560     libucrt:invalid_parameter.obj
 0002:0000b560       $unwind$abort              000000018002e560     libucrt:abort.obj
 0002:0000b560       $unwind$__acrt_initialize_command_line 000000018002e560     libucrt:argv_data.obj
 0002:0000b560       $unwind$_fileno            000000018002e560     libucrt:fileno.obj
 0002:0000b560       $unwind$?state_case_size@?$output_processor@_WV?$string_output_adapter@_W@__crt_stdio_output@@V?$format_validation_base@_WV?$string_output_adapter@_W@__crt_stdio_output@@@2@@__crt_stdio_output@@AEAA_NXZ 000000018002e560     libucrt:output.obj
 0002:0000b560       $unwind$_statfp            000000018002e560     libucrt:fpctrl.obj
 0002:0000b560       $unwind$fegetround         000000018002e560     libucrt:fegetround.obj
 0002:0000b560       $unwind$_set_errno_from_matherr 000000018002e560     libucrt:fpexcept.obj
 0002:0000b568       $unwind$?cw_dup@@YAXPEBDAEAHAEAPEA_W1@Z 000000018002e568     CWString.obj
 0002:0000b568       $unwind$?DAdvise@?$IDataObjectImpl@VCOPOSCoinDispenser@@@ATL@@UEAAJPEAUtagFORMATETC@@KPEAUIAdviseSink@@PEAK@Z 000000018002e568     CoinDispenser.obj
 0002:0000b568       $unwind$??$__acrt_mbs_to_wcs_cp@U__crt_win32_buffer_internal_dynamic_resizing@@@@YAHQEBDAEAV?$__crt_win32_buffer@_WU__crt_win32_buffer_internal_dynamic_resizing@@@@I@Z 000000018002e568     libucrt:argv_wildcards.obj
 0002:0000b580       $unwind$?DupWide@_CW@@AEAAXXZ 000000018002e580     CWString.obj
 0002:0000b580       $unwind$??0?$CComObject@VCOPOSCoinDispenser@@@ATL@@QEAA@PEAX@Z 000000018002e580     CoinDispenser.obj
 0002:0000b580       $unwind$??0CAtlModule@ATL@@QEAA@XZ 000000018002e580     CoinDispenser.obj
 0002:0000b580       $unwind$??1?$CComObject@VCOPOSCoinDispenser@@@ATL@@UEAA@XZ 000000018002e580     CoinDispenser.obj
 0002:0000b580       $unwind$??__E_Module@@YAXXZ 000000018002e580     CoinDispenser.obj
 0002:0000b580       $unwind$?AddRef@?$CComObjectCached@VCComClassFactory@ATL@@@ATL@@UEAAKXZ 000000018002e580     CoinDispenser.obj
 0002:0000b580       $unwind$?AllocateHeap@?$CTempBuffer@E$0BAA@VCCRTAllocator@ATL@@@ATL@@AEAAX_K@Z 000000018002e580     CoinDispenser.obj
 0002:0000b580       $unwind$?AllocateHeap@?$CTempBuffer@_W$0BAA@VCCRTAllocator@ATL@@@ATL@@AEAAX_K@Z 000000018002e580     CoinDispenser.obj
 0002:0000b580       $unwind$?AllocateHeap@?$CTempBuffer@_W$0EAA@VCCRTAllocator@ATL@@@ATL@@AEAAX_K@Z 000000018002e580     CoinDispenser.obj
 0002:0000b580       $unwind$?GetClassInfoW@?$IProvideClassInfo2Impl@$1?CLSID_OPOSCoinDispenser@@3U_GUID@@B$1?DIID__IOPOSCoinDispenserEvents@@3U2@B$1?LIBID_OposCoinDispenser_CCO@@3U2@B$00$0A@VCComTypeInfoHolder@ATL@@@ATL@@UEAAJPEAPEAUITypeInfo@@@Z 000000018002e580     CoinDispenser.obj
 0002:0000b580       $unwind$?GetClientSite@?$IOleObjectImpl@VCOPOSCoinDispenser@@@ATL@@UEAAJPEAPEAUIOleClientSite@@@Z 000000018002e580     CoinDispenser.obj
 0002:0000b580       $unwind$?GetConnMap@COPOSCoinDispenser@@SAPEBU_ATL_CONNMAP_ENTRY@ATL@@PEAH@Z 000000018002e580     CoinDispenser.obj
 0002:0000b580       $unwind$?GetTypeInfo@?$IDispatchImpl@UIOPOSCoinDispenser@@$1?IID_IOPOSCoinDispenser@@3U_GUID@@B$1?LIBID_OposCoinDispenser_CCO@@3U3@B$00$0A@VCComTypeInfoHolder@ATL@@@ATL@@UEAAJIKPEAPEAUITypeInfo@@@Z 000000018002e580     CoinDispenser.obj
 0002:0000b580       $unwind$?IOleInPlaceObject_InPlaceDeactivate@CComControlBase@ATL@@QEAAJXZ 000000018002e580     CoinDispenser.obj
 0002:0000b580       $unwind$?IOleObject_SetExtent@CComControlBase@ATL@@QEAAJKPEAUtagSIZE@@@Z 000000018002e580     CoinDispenser.obj
 0002:0000b580       $unwind$?IsEqualObject@?$CComPtrBase@UIOleClientSite@@@ATL@@QEAA_NPEAUIUnknown@@@Z 000000018002e580     CoinDispenser.obj
 0002:0000b580       $unwind$?QueryHitPoint@?$IViewObjectExImpl@VCOPOSCoinDispenser@@@ATL@@UEAAJKPEBUtagRECT@@UtagPOINT@@JPEAK@Z 000000018002e580     CoinDispenser.obj
 0002:0000b580       $unwind$?QueryInterface@?$CComAggObject@VCOPOSCoinDispenser@@@ATL@@UEAAJAEBU_GUID@@PEAPEAX@Z 000000018002e580     CoinDispenser.obj
 0002:0000b580       $unwind$?Release@?$CComObjectCached@VCComClassFactory@ATL@@@ATL@@UEAAKXZ 000000018002e580     CoinDispenser.obj
 0002:0000b580       $unwind$?Unadvise@?$IConnectionPointImpl@VCOPOSCoinDispenser@@$1?DIID__IOPOSCoinDispenserEvents@@3U_GUID@@BVCComDynamicUnkArray@ATL@@@ATL@@UEAAJK@Z 000000018002e580     CoinDispenser.obj
 0002:0000b580       $unwind$?Unadvise@?$IConnectionPointImpl@VCOPOSCoinDispenser@@$1?IID_IPropertyNotifySink@@3U_GUID@@BVCComDynamicUnkArray@ATL@@@ATL@@UEAAJK@Z 000000018002e580     CoinDispenser.obj
 0002:0000b580       $unwind$??1CComControlBase@ATL@@UEAA@XZ 000000018002e580     CoinDispenserImpl.obj
 0002:0000b580       $unwind$??1COPOSCoinDispenser@@UEAA@XZ 000000018002e580     CoinDispenserImpl.obj
 0002:0000b580       $unwind$?EventUninit@COPOSCoinDispenser@@IEAAXXZ 000000018002e580     CoinDispenserImpl.obj
 0002:0000b580       $unwind$?FreezeEvents@COPOSCoinDispenser@@MEAAJH@Z 000000018002e580     CoinDispenserImpl.obj
 0002:0000b580       $unwind$?SOProcessID@COPOSCoinDispenser@@UEAAJPEAJ@Z 000000018002e580     CoinDispenserImpl.obj
 0002:0000b580       $unwind$?get_CapCompareFirmwareVersion@COPOSCoinDispenser@@UEAAJPEAF@Z 000000018002e580     CoinDispenserImpl.obj
 0002:0000b580       $unwind$?get_CapEmptySensor@COPOSCoinDispenser@@UEAAJPEAF@Z 000000018002e580     CoinDispenserImpl.obj
 0002:0000b580       $unwind$?get_CapJamSensor@COPOSCoinDispenser@@UEAAJPEAF@Z 000000018002e580     CoinDispenserImpl.obj
 0002:0000b580       $unwind$?get_CapNearEmptySensor@COPOSCoinDispenser@@UEAAJPEAF@Z 000000018002e580     CoinDispenserImpl.obj
 0002:0000b580       $unwind$?get_CapStatisticsReporting@COPOSCoinDispenser@@UEAAJPEAF@Z 000000018002e580     CoinDispenserImpl.obj
 0002:0000b580       $unwind$?get_CapUpdateFirmware@COPOSCoinDispenser@@UEAAJPEAF@Z 000000018002e580     CoinDispenserImpl.obj
 0002:0000b580       $unwind$?get_CapUpdateStatistics@COPOSCoinDispenser@@UEAAJPEAF@Z 000000018002e580     CoinDispenserImpl.obj
 0002:0000b580       $unwind$?get_Claimed@COPOSCoinDispenser@@UEAAJPEAF@Z 000000018002e580     CoinDispenserImpl.obj
 0002:0000b580       $unwind$?get_DeviceEnabled@COPOSCoinDispenser@@UEAAJPEAF@Z 000000018002e580     CoinDispenserImpl.obj
 0002:0000b580       $unwind$?get_FreezeEvents@COPOSCoinDispenser@@UEAAJPEAF@Z 000000018002e580     CoinDispenserImpl.obj
 0002:0000b580       $unwind$?put_FreezeEvents@COPOSCoinDispenser@@UEAAJF@Z 000000018002e580     CoinDispenserImpl.obj
 0002:0000b580       $unwind$??0CAtlComModule@ATL@@QEAA@XZ 000000018002e580     OposVariant.obj
 0002:0000b580       $unwind$??0CAtlWinModule@ATL@@QEAA@XZ 000000018002e580     OposVariant.obj
 0002:0000b580       $unwind$?SetBSTR_OutPtr@OposVariant@@QEAA_NPEAPEA_WAEAJ@Z 000000018002e580     OposVariant.obj
 0002:0000b580       $unwind$??1CAtlBaseModule@ATL@@QEAA@XZ 000000018002e580     atls:atlbase.obj
 0002:0000b580       $unwind$AtlThunk_AllocateData 000000018002e580     atls:atlthunk.obj
 0002:0000b580       $unwind$__raise_securityfailure 000000018002e580     LIBCMT:gs_report.obj
 0002:0000b580       $unwind$??2@YAPEAX_K@Z     000000018002e580     LIBCMT:new_scalar.obj
 0002:0000b580       $unwind$??_Gtype_info@@UEAAPEAXI@Z 000000018002e580     LIBCMT:std_type_info_static.obj
 0002:0000b580       $unwind$_Init_thread_footer 000000018002e580     LIBCMT:thread_safe_statics.obj
 0002:0000b580       $unwind$_Init_thread_header 000000018002e580     LIBCMT:thread_safe_statics.obj
 0002:0000b580       $unwind$_Init_thread_wait  000000018002e580     LIBCMT:thread_safe_statics.obj
 0002:0000b580       $unwind$??0bad_alloc@std@@QEAA@AEBV01@@Z 000000018002e580     LIBCMT:throw_bad_alloc.obj
 0002:0000b580       $unwind$??0bad_array_new_length@std@@QEAA@AEBV01@@Z 000000018002e580     LIBCMT:throw_bad_alloc.obj
 0002:0000b580       $unwind$??0exception@std@@QEAA@AEBV01@@Z 000000018002e580     LIBCMT:throw_bad_alloc.obj
 0002:0000b580       $unwind$__scrt_initialize_crt 000000018002e580     LIBCMT:utility.obj
 0002:0000b580       $unwind$__scrt_initialize_onexit_tables 000000018002e580     LIBCMT:utility.obj
 0002:0000b580       $unwind$__scrt_release_startup_lock 000000018002e580     LIBCMT:utility.obj
 0002:0000b580       $unwind$__scrt_uninitialize_crt 000000018002e580     LIBCMT:utility.obj
 0002:0000b580       $unwind$_onexit            000000018002e580     LIBCMT:utility.obj
 0002:0000b580       $unwind$_IsExceptionObjectToBeDestroyed 000000018002e580     libvcruntime:ehhelpers.obj
 0002:0000b580       $unwind$??0HandlerMap4@FH4@@QEAA@PEBUTryBlockMapEntry4@1@_KH@Z 000000018002e580     libvcruntime:frame.obj
 0002:0000b580       $unwind$??0bad_exception@std@@QEAA@AEBV01@@Z 000000018002e580     libvcruntime:frame.obj
 0002:0000b580       $unwind$?ExFilterRethrow@@YAHPEAU_EXCEPTION_POINTERS@@PEAUEHExceptionRecord@@PEAH@Z 000000018002e580     libvcruntime:frame.obj
 0002:0000b580       $unwind$__vcrt_uninitialize_locks 000000018002e580     libvcruntime:locks.obj
 0002:0000b580       $unwind$__vcrt_freeptd     000000018002e580     libvcruntime:per_thread_data.obj
 0002:0000b580       $unwind$_CreateFrameInfo   000000018002e580     libvcruntime:risctrnsctrl.obj
 0002:0000b580       $unwind$_SetImageBase      000000018002e580     libvcruntime:risctrnsctrl.obj
 0002:0000b580       $unwind$_SetThrowImageBase 000000018002e580     libvcruntime:risctrnsctrl.obj
 0002:0000b580       $unwind$__std_exception_destroy 000000018002e580     libvcruntime:std_exception.obj
 0002:0000b580       $unwind$__std_type_info_destroy_list 000000018002e580     libvcruntime:std_type_info.obj
 0002:0000b580       $unwind$__vcrt_FlsAlloc    000000018002e580     libvcruntime:winapi_downlevel.obj
 0002:0000b580       $unwind$__vcrt_FlsFree     000000018002e580     libvcruntime:winapi_downlevel.obj
 0002:0000b580       $unwind$__vcrt_FlsGetValue 000000018002e580     libvcruntime:winapi_downlevel.obj
 0002:0000b580       $unwind$_calloc_base       000000018002e580     libucrt:calloc_base.obj
 0002:0000b580       $unwind$_malloc_base       000000018002e580     libucrt:malloc_base.obj
 0002:0000b580       $unwind$_callnewh          000000018002e580     libucrt:new_handler.obj
 0002:0000b580       $unwind$initialize_pointers 000000018002e580     libucrt:initialization.obj
 0002:0000b580       $unwind$uninitialize_allocated_memory 000000018002e580     libucrt:initialization.obj
 0002:0000b580       $unwind$__acrt_initialize_locks 000000018002e580     libucrt:locks.obj
 0002:0000b580       $unwind$__acrt_uninitialize_locks 000000018002e580     libucrt:locks.obj
 0002:0000b580       $unwind$__acrt_freeptd     000000018002e580     libucrt:per_thread_data.obj
 0002:0000b580       $unwind$__acrt_getptd_head 000000018002e580     libucrt:per_thread_data.obj
 0002:0000b580       $unwind$__acrt_get_process_end_policy 000000018002e580     libucrt:win_policies.obj
 0002:0000b580       $unwind$__acrt_AppPolicyGetProcessTerminationMethodInternal 000000018002e580     libucrt:winapi_thunks.obj
 0002:0000b580       $unwind$__acrt_FlsAlloc    000000018002e580     libucrt:winapi_thunks.obj
 0002:0000b580       $unwind$__acrt_FlsFree     000000018002e580     libucrt:winapi_thunks.obj
 0002:0000b580       $unwind$__acrt_FlsGetValue 000000018002e580     libucrt:winapi_thunks.obj
 0002:0000b580       $unwind$__acrt_SetThreadStackGuarantee 000000018002e580     libucrt:winapi_thunks.obj
 0002:0000b580       $unwind$__acrt_uninitialize_winapi_thunks 000000018002e580     libucrt:winapi_thunks.obj
 0002:0000b580       $unwind$__acrt_update_locale_info 000000018002e580     libucrt:locale_update.obj
 0002:0000b580       $unwind$__acrt_update_multibyte_info 000000018002e580     libucrt:locale_update.obj
 0002:0000b580       $unwind$__acrt_allocate_buffer_for_argv 000000018002e580     libucrt:argv_parsing.obj
 0002:0000b580       $unwind$?exit_or_terminate_process@@YAXI@Z 000000018002e580     libucrt:exit.obj
 0002:0000b580       $unwind$?try_cor_exit_process@@YAXI@Z 000000018002e580     libucrt:exit.obj
 0002:0000b580       $unwind$__acrt_uninitialize_stdio 000000018002e580     libucrt:_file.obj
 0002:0000b580       $unwind$__acrt_stdio_free_buffer_nolock 000000018002e580     libucrt:_freebuf.obj
 0002:0000b580       $unwind$_fflush_nolock     000000018002e580     libucrt:fflush.obj
 0002:0000b580       $unwind$strcpy_s           000000018002e580     libucrt:strcpy_s.obj
 0002:0000b580       $unwind$wcscat_s           000000018002e580     libucrt:wcscat_s.obj
 0002:0000b580       $unwind$wcscpy_s           000000018002e580     libucrt:wcscpy_s.obj
 0002:0000b580       $unwind$_clrfp             000000018002e580     libucrt:fpctrl.obj
 0002:0000b580       $unwind$_set_statfp        000000018002e580     libucrt:fpctrl.obj
 0002:0000b580       $unwind$_clearfp           000000018002e580     libucrt:ieee.obj
 0002:0000b580       $unwind$_controlfp_s       000000018002e580     libucrt:contrlfp.obj
 0002:0000b580       $unwind$fegetenv           000000018002e580     libucrt:fegetenv.obj
 0002:0000b580       $unwind$feholdexcept       000000018002e580     libucrt:feholdexcept.obj
 0002:0000b580       $unwind$fesetenv           000000018002e580     libucrt:fesetenv.obj
 0002:0000b588       $unwind$?AtlWinModuleExtractCreateWndData@ATL@@YAPEAXPEAU_ATL_WIN_MODULE70@1@@Z 000000018002e588     CoinDispenser.obj
 0002:0000b588       $unwind$?CreateInstance@?$CComCreator@V?$CComObject@VCOPOSCoinDispenser@@@ATL@@@ATL@@SAJPEAXAEBU_GUID@@PEAPEAX@Z 000000018002e588     CoinDispenser.obj
 0002:0000b588       $unwind$?DoEvent@COPOSCoinDispenser@@IEAAXI_K_J@Z 000000018002e588     CoinDispenser.obj
 0002:0000b588       $unwind$?DoVerb@?$IOleObjectImpl@VCOPOSCoinDispenser@@@ATL@@UEAAJJPEAUtagMSG@@PEAUIOleClientSite@@JPEAUHWND__@@PEBUtagRECT@@@Z 000000018002e588     CoinDispenser.obj
 0002:0000b588       $unwind$?HKeyFromString@CRegParser@ATL@@KAPEAUHKEY__@@PEA_W@Z 000000018002e588     CoinDispenser.obj
 0002:0000b588       $unwind$?Next@?$CComEnumImpl@UIEnumConnectionPoints@@$1?_GUID_b196b285_bab4_101a_b69c_00aa00341d07@@3U__s_GUID@@BPEAUIConnectionPoint@@V?$_CopyInterface@UIConnectionPoint@@@ATL@@@ATL@@UEAAJKPEAPEAUIConnectionPoint@@PEAK@Z 000000018002e588     CoinDispenser.obj
 0002:0000b588       $unwind$?Next@?$CComEnumImpl@UIEnumConnections@@$1?_GUID_b196b287_bab4_101a_b69c_00aa00341d07@@3U__s_GUID@@BUtagCONNECTDATA@@V?$_Copy@UtagCONNECTDATA@@@ATL@@@ATL@@UEAAJKPEAUtagCONNECTDATA@@PEAK@Z 000000018002e588     CoinDispenser.obj
 0002:0000b588       $unwind$?SODirectIO@COPOSCoinDispenser@@MEAAJJPEAJPEAPEA_W@Z 000000018002e588     CoinDispenser.obj
 0002:0000b588       $unwind$?SetControlFocus@CComControlBase@ATL@@QEAAHH@Z 000000018002e588     CoinDispenser.obj
 0002:0000b588       $unwind$?ocscpy_s@@YA_NPEA_W_KPEB_W@Z 000000018002e588     CoinDispenser.obj
 0002:0000b588       $unwind$?s_EventWindowProc@COPOSCoinDispenser@@KA_JPEAUHWND__@@I_K_J@Z 000000018002e588     CoinDispenserImpl.obj
 0002:0000b588       $unwind$?AtlWinModuleTerm@ATL@@YAJPEAU_ATL_WIN_MODULE70@1@PEAUHINSTANCE__@@@Z 000000018002e588     OposVariant.obj
 0002:0000b588       $unwind$__scrt_dllmain_exception_filter 000000018002e588     LIBCMT:utility.obj
 0002:0000b588       $unwind$?Is_bad_exception_allowed@@YAEPEBU_s_ESTypeList@@@Z 000000018002e588     libvcruntime:frame.obj
 0002:0000b588       $unwind$_recalloc_base     000000018002e588     libucrt:recalloc.obj
 0002:0000b588       $unwind$__acrt_free_locale 000000018002e588     libucrt:locale_refcounting.obj
 0002:0000b588       $unwind$__acrt_lowio_create_handle_array 000000018002e588     libucrt:osfinfo.obj
 0002:0000b588       $unwind$?setSBCS@@YAXPEAU__crt_multibyte_data@@@Z 000000018002e588     libucrt:mbctype.obj
 0002:0000b588       $unwind$_seh_filter_exe    000000018002e588     libucrt:exception_filter.obj
 0002:0000b588       $unwind$_initterm          000000018002e588     libucrt:initterm.obj
 0002:0000b588       $unwind$??$ensure_buffer_is_big_enough@D@formatting_buffer@__crt_stdio_output@@QEAA_N_K@Z 000000018002e588     libucrt:output.obj
 0002:0000b588       $unwind$??$ensure_buffer_is_big_enough@_W@formatting_buffer@__crt_stdio_output@@QEAA_N_K@Z 000000018002e588     libucrt:output.obj
 0002:0000b59c       $unwind$??_GCRegObject@ATL@@UEAAPEAXI@Z 000000018002e59c     CoinDispenser.obj
 0002:0000b59c       $unwind$?Add@?$CSimpleArray@GV?$CSimpleArrayEqualHelper@G@ATL@@@ATL@@QEAAHAEBG@Z 000000018002e59c     CoinDispenser.obj
 0002:0000b59c       $unwind$?Add@?$CSimpleMap@PEA_WPEA_WVCExpansionVectorEqualHelper@ATL@@@ATL@@QEAAHAEBQEA_W0@Z 000000018002e59c     CoinDispenser.obj
 0002:0000b59c       $unwind$?Add@CComDynamicUnkArray@ATL@@QEAAKPEAUIUnknown@@@Z 000000018002e59c     CoinDispenser.obj
 0002:0000b59c       $unwind$?Advise@?$IOleObjectImpl@VCOPOSCoinDispenser@@@ATL@@UEAAJPEAUIAdviseSink@@PEAK@Z 000000018002e59c     CoinDispenser.obj
 0002:0000b59c       $unwind$?ClearReplacements@CExpansionVector@ATL@@QEAAJXZ 000000018002e59c     CoinDispenser.obj
 0002:0000b59c       $unwind$?CreateInstance@?$CComObject@V?$CComEnum@UIEnumConnectionPoints@@$1?_GUID_b196b285_bab4_101a_b69c_00aa00341d07@@3U__s_GUID@@BPEAUIConnectionPoint@@V?$_CopyInterface@UIConnectionPoint@@@ATL@@VCComSingleThreadModel@6@@ATL@@@ATL@@SAJPEAPEAV12@@Z 000000018002e59c     CoinDispenser.obj
 0002:0000b59c       $unwind$?CreateInstance@?$CComObject@V?$CComEnum@UIEnumConnections@@$1?_GUID_b196b287_bab4_101a_b69c_00aa00341d07@@3U__s_GUID@@BUtagCONNECTDATA@@V?$_Copy@UtagCONNECTDATA@@@ATL@@VCComSingleThreadModel@6@@ATL@@@ATL@@SAJPEAPEAV12@@Z 000000018002e59c     CoinDispenser.obj
 0002:0000b59c       $unwind$?RegisterServer@CComModule@ATL@@QEAAJHPEBU_GUID@@@Z 000000018002e59c     CoinDispenser.obj
 0002:0000b59c       $unwind$?Term@CAtlModule@ATL@@QEAAXXZ 000000018002e59c     CoinDispenser.obj
 0002:0000b59c       $unwind$?UnregisterServer@CComModule@ATL@@QEAAJHPEBU_GUID@@@Z 000000018002e59c     CoinDispenser.obj
 0002:0000b59c       $unwind$?VTFromRegType@CRegParser@ATL@@KAHPEB_WAEAG@Z 000000018002e59c     CoinDispenser.obj
 0002:0000b59c       $unwind$??0OposDispParms@@QEAA@PEAVOposVariant@@H@Z 000000018002e59c     OposVariant.obj
 0002:0000b59c       $unwind$?SetBSTR_Copy@OposVariant@@QEAAXPEA_WAEAJ@Z 000000018002e59c     OposVariant.obj
 0002:0000b59c       $unwind$?SetBSTR_InOutPtr@OposVariant@@QEAA_NPEAPEA_WAEAJ@Z 000000018002e59c     OposVariant.obj
 0002:0000b59c       $unwind$?SetDispatch_Ptr@OposVariant@@QEAAXPEAUIDispatch@@AEAJ@Z 000000018002e59c     OposVariant.obj
 0002:0000b59c       $unwind$?SetLONG_Ptr@OposVariant@@QEAAXPEAJAEAJ@Z 000000018002e59c     OposVariant.obj
 0002:0000b59c       $unwind$?SetString@OposVariant@@QEAAXPEB_WAEAJ@Z 000000018002e59c     OposVariant.obj
 0002:0000b59c       $unwind$?SetVARIANT_BOOL_Ptr@OposVariant@@QEAAXPEAFAEAJ@Z 000000018002e59c     OposVariant.obj
 0002:0000b59c       $unwind$?Term@CAtlComModule@ATL@@QEAAXXZ 000000018002e59c     OposVariant.obj
 0002:0000b59c       $unwind$_DllMainCRTStartup 000000018002e59c     LIBCMT:dll_dllmain.obj
 0002:0000b59c       $unwind$__vcrt_getptd_noexit 000000018002e59c     libvcruntime:per_thread_data.obj
 0002:0000b59c       $unwind$__vcrt_InitializeCriticalSectionEx 000000018002e59c     libvcruntime:winapi_downlevel.obj
 0002:0000b59c       $unwind$memcpy_s           000000018002e59c     libucrt:cfout.obj
 0002:0000b59c       $unwind$__acrt_getptd      000000018002e59c     libucrt:per_thread_data.obj
 0002:0000b59c       $unwind$__acrt_getptd_noexit 000000018002e59c     libucrt:per_thread_data.obj
 0002:0000b59c       $unwind$__acrt_execute_initializers 000000018002e59c     libucrt:shared_initialization.obj
 0002:0000b59c       $unwind$__acrt_InitializeCriticalSectionEx 000000018002e59c     libucrt:winapi_thunks.obj
 0002:0000b59c       $unwind$?free_crt_array_internal@@YAXQEAPEBX_K@Z 000000018002e59c     libucrt:inittime.obj
 0002:0000b59c       $unwind$??$common_lseek_nolock@_J@@YA_JH_JH@Z 000000018002e59c     libucrt:lseek.obj
 0002:0000b59c       $unwind$__acrt_stdio_flush_nolock 000000018002e59c     libucrt:fflush.obj
 0002:0000b59c       $unwind$??0_LocaleUpdate@@QEAA@QEAU__crt_locale_pointers@@@Z 000000018002e59c     libucrt:output.obj
 0002:0000b59c       $unwind$?type_case_Z@?$output_processor@_WV?$string_output_adapter@_W@__crt_stdio_output@@V?$format_validation_base@_WV?$string_output_adapter@_W@__crt_stdio_output@@@2@@__crt_stdio_output@@AEAA_NXZ 000000018002e59c     libucrt:output.obj
 0002:0000b59c       $unwind$?type_case_s@?$output_processor@_WV?$string_output_adapter@_W@__crt_stdio_output@@V?$format_validation_base@_WV?$string_output_adapter@_W@__crt_stdio_output@@@2@@__crt_stdio_output@@AEAA_NXZ 000000018002e59c     libucrt:output.obj
 0002:0000b59c       $unwind$_exception_enabled 000000018002e59c     libucrt:libm_error.obj
 0002:0000b5ac       $unwind$?AddTermFunc@CAtlModule@ATL@@QEAAJP6AX_K@Z0@Z 000000018002e5ac     CoinDispenser.obj
 0002:0000b5ac       $unwind$?AtlComModuleRegisterServer@ATL@@YAJPEAU_ATL_COM_MODULE70@1@HPEBU_GUID@@@Z 000000018002e5ac     CoinDispenser.obj
 0002:0000b5ac       $unwind$?AtlComModuleUnregisterServer@ATL@@YAJPEAU_ATL_COM_MODULE70@1@HPEBU_GUID@@@Z 000000018002e5ac     CoinDispenser.obj
 0002:0000b5ac       $unwind$?CreateInstance@?$CComCreator@V?$CComAggObject@VCOPOSCoinDispenser@@@ATL@@@ATL@@SAJPEAXAEBU_GUID@@PEAPEAX@Z 000000018002e5ac     CoinDispenser.obj
 0002:0000b5ac       $unwind$?CreateInstance@?$CComCreator@V?$CComObjectCached@VCComClassFactory@ATL@@@ATL@@@ATL@@SAJPEAXAEBU_GUID@@PEAPEAX@Z 000000018002e5ac     CoinDispenser.obj
 0002:0000b5ac       $unwind$?GetPagesHelper@?$ISpecifyPropertyPagesImpl@VCOPOSCoinDispenser@@@ATL@@IEAAJPEAUtagCAUUID@@PEBUATL_PROPMAP_ENTRY@2@@Z 000000018002e5ac     CoinDispenser.obj
 0002:0000b5ac       $unwind$??_Estringdispid@CComTypeInfoHolder@ATL@@QEAAPEAXI@Z 000000018002e5ac     OposVariant.obj
 0002:0000b5ac       $unwind$__GSHandlerCheck_SEH 000000018002e5ac     LIBCMT:gshandlerseh.obj
 0002:0000b5ac       $unwind$??$TypeMatchHelper@V__FrameHandler3@@@@YAHPEBU_s_HandlerType@@PEBU_s_CatchableType@@PEBU_s_ThrowInfo@@@Z 000000018002e5ac     libvcruntime:frame.obj
 0002:0000b5ac       $unwind$??$TypeMatchHelper@V__FrameHandler4@@@@YAHPEAUHandlerType4@FH4@@PEBU_s_CatchableType@@PEBU_s_ThrowInfo@@@Z 000000018002e5ac     libvcruntime:frame.obj
 0002:0000b5ac       $unwind$?initialize_stdio_handles_nolock@@YAXXZ 000000018002e5ac     libucrt:ioinit.obj
 0002:0000b5ac       $unwind$__acrt_initialize_stdio 000000018002e5ac     libucrt:_file.obj
 0002:0000b5ac       $unwind$?process@?$output_processor@_WV?$string_output_adapter@_W@__crt_stdio_output@@V?$format_validation_base@_WV?$string_output_adapter@_W@__crt_stdio_output@@@2@@__crt_stdio_output@@QEAAHXZ 000000018002e5ac     libucrt:output.obj
 0002:0000b5ac       $unwind$?type_case_integer@?$output_processor@_WV?$string_output_adapter@_W@__crt_stdio_output@@V?$format_validation_base@_WV?$string_output_adapter@_W@__crt_stdio_output@@@2@@__crt_stdio_output@@AEAA_NI_N@Z 000000018002e5ac     libucrt:output.obj
 0002:0000b5c4       $unwind$??0?$CComContainedObject@VCOPOSCoinDispenser@@@ATL@@QEAA@PEAX@Z 000000018002e5c4     CoinDispenser.obj
 0002:0000b5c4       $unwind$??1?$CComEnumImpl@UIEnumConnectionPoints@@$1?_GUID_b196b285_bab4_101a_b69c_00aa00341d07@@3U__s_GUID@@BPEAUIConnectionPoint@@V?$_CopyInterface@UIConnectionPoint@@@ATL@@@ATL@@UEAA@XZ 000000018002e5c4     CoinDispenser.obj
 0002:0000b5c4       $unwind$??1?$CComEnumImpl@UIEnumConnections@@$1?_GUID_b196b287_bab4_101a_b69c_00aa00341d07@@3U__s_GUID@@BUtagCONNECTDATA@@V?$_Copy@UtagCONNECTDATA@@@ATL@@@ATL@@UEAA@XZ 000000018002e5c4     CoinDispenser.obj
 0002:0000b5c4       $unwind$??_G?$CComAggObject@VCOPOSCoinDispenser@@@ATL@@UEAAPEAXI@Z 000000018002e5c4     CoinDispenser.obj
 0002:0000b5c4       $unwind$??_G?$CComContainedObject@VCOPOSCoinDispenser@@@ATL@@UEAAPEAXI@Z 000000018002e5c4     CoinDispenser.obj
 0002:0000b5c4       $unwind$??_G?$CComObject@V?$CComEnum@UIEnumConnectionPoints@@$1?_GUID_b196b285_bab4_101a_b69c_00aa00341d07@@3U__s_GUID@@BPEAUIConnectionPoint@@V?$_CopyInterface@UIConnectionPoint@@@ATL@@VCComSingleThreadModel@6@@ATL@@@ATL@@UEAAPEAXI@Z 000000018002e5c4     CoinDispenser.obj
 0002:0000b5c4       $unwind$??_G?$CComObject@V?$CComEnum@UIEnumConnections@@$1?_GUID_b196b287_bab4_101a_b69c_00aa00341d07@@3U__s_GUID@@BUtagCONNECTDATA@@V?$_Copy@UtagCONNECTDATA@@@ATL@@VCComSingleThreadModel@6@@ATL@@@ATL@@UEAAPEAXI@Z 000000018002e5c4     CoinDispenser.obj
 0002:0000b5c4       $unwind$??_G?$CComObject@VCOPOSCoinDispenser@@@ATL@@UEAAPEAXI@Z 000000018002e5c4     CoinDispenser.obj
 0002:0000b5c4       $unwind$??_G?$CComObjectCached@VCComClassFactory@ATL@@@ATL@@UEAAPEAXI@Z 000000018002e5c4     CoinDispenser.obj
 0002:0000b5c4       $unwind$??_GCComClassFactory@ATL@@UEAAPEAXI@Z 000000018002e5c4     CoinDispenser.obj
 0002:0000b5c4       $unwind$??_GCComModule@ATL@@UEAAPEAXI@Z 000000018002e5c4     CoinDispenser.obj
 0002:0000b5c4       $unwind$?DeleteSubKey@CRegKey@ATL@@QEAAJPEB_W@Z 000000018002e5c4     CoinDispenser.obj
 0002:0000b5c4       $unwind$?IOleObject_SetClientSite@CComControlBase@ATL@@QEAAJPEAUIOleClientSite@@@Z 000000018002e5c4     CoinDispenser.obj
 0002:0000b5c4       $unwind$?InitNew@?$IPersistStorageImpl@VCOPOSCoinDispenser@@@ATL@@UEAAJPEAUIStorage@@@Z 000000018002e5c4     CoinDispenser.obj
 0002:0000b5c4       $unwind$?IsDirty@?$IPersistStorageImpl@VCOPOSCoinDispenser@@@ATL@@UEAAJXZ 000000018002e5c4     CoinDispenser.obj
 0002:0000b5c4       $unwind$?Release@?$CComAggObject@VCOPOSCoinDispenser@@@ATL@@UEAAKXZ 000000018002e5c4     CoinDispenser.obj
 0002:0000b5c4       $unwind$?Release@?$CComObject@V?$CComEnum@UIEnumConnectionPoints@@$1?_GUID_b196b285_bab4_101a_b69c_00aa00341d07@@3U__s_GUID@@BPEAUIConnectionPoint@@V?$_CopyInterface@UIConnectionPoint@@@ATL@@VCComSingleThreadModel@6@@ATL@@@ATL@@UEAAKXZ 000000018002e5c4     CoinDispenser.obj
 0002:0000b5c4       $unwind$?Release@?$CComObject@V?$CComEnum@UIEnumConnections@@$1?_GUID_b196b287_bab4_101a_b69c_00aa00341d07@@3U__s_GUID@@BUtagCONNECTDATA@@V?$_Copy@UtagCONNECTDATA@@@ATL@@VCComSingleThreadModel@6@@ATL@@@ATL@@UEAAKXZ 000000018002e5c4     CoinDispenser.obj
 0002:0000b5c4       $unwind$?Release@?$CComObject@VCOPOSCoinDispenser@@@ATL@@UEAAKXZ 000000018002e5c4     CoinDispenser.obj
 0002:0000b5c4       $unwind$?SOStatusUpdate@COPOSCoinDispenser@@MEAAJJ@Z 000000018002e5c4     CoinDispenser.obj
 0002:0000b5c4       $unwind$?SetAdvise@?$IViewObjectExImpl@VCOPOSCoinDispenser@@@ATL@@UEAAJKKPEAUIAdviseSink@@@Z 000000018002e5c4     CoinDispenser.obj
 0002:0000b5c4       $unwind$?Term@CComModule@ATL@@QEAAXXZ 000000018002e5c4     CoinDispenser.obj
 0002:0000b5c4       $unwind$DllMain            000000018002e5c4     CoinDispenser.obj
 0002:0000b5c4       $unwind$??1?$IConnectionPointImpl@VCOPOSCoinDispenser@@$1?DIID__IOPOSCoinDispenserEvents@@3U_GUID@@BVCComDynamicUnkArray@ATL@@@ATL@@QEAA@XZ 000000018002e5c4     CoinDispenserImpl.obj
 0002:0000b5c4       $unwind$??1?$IConnectionPointImpl@VCOPOSCoinDispenser@@$1?IID_IPropertyNotifySink@@3U_GUID@@BVCComDynamicUnkArray@ATL@@@ATL@@QEAA@XZ 000000018002e5c4     CoinDispenserImpl.obj
 0002:0000b5c4       $unwind$?EventWindowProc@COPOSCoinDispenser@@IEAA_JI_K_J@Z 000000018002e5c4     CoinDispenserImpl.obj
 0002:0000b5c4       $unwind$?SetBSTR@OposVariant@@QEAAXPEA_WAEAJ@Z 000000018002e5c4     OposVariant.obj
 0002:0000b5c4       $unwind$?SetLONG@OposVariant@@QEAAXJ@Z 000000018002e5c4     OposVariant.obj
 0002:0000b5c4       $unwind$?SetVARIANT_BOOL@OposVariant@@QEAAXF@Z 000000018002e5c4     OposVariant.obj
 0002:0000b5c4       $unwind$??0CAtlBaseModule@ATL@@QEAA@XZ 000000018002e5c4     atls:atlbase.obj
 0002:0000b5c4       $unwind$??$GetProcAddressAll@P6AP6A_JPEAUHWND__@@I_K_J@ZPEAUAtlThunkData_t@@@Z@@YAP6AP6A_JPEAUHWND__@@I_K_J@ZPEAUAtlThunkData_t@@@ZPEAP6AP6A_J0I12@Z3@Z@Z 000000018002e5c4     atls:atlthunk.obj
 0002:0000b5c4       $unwind$??$GetProcAddressAll@P6APEAUAtlThunkData_t@@XZ@@YAP6APEAUAtlThunkData_t@@XZPEAP6APEAU0@XZ@Z 000000018002e5c4     atls:atlthunk.obj
 0002:0000b5c4       $unwind$??$GetProcAddressAll@P6AXPEAUAtlThunkData_t@@@Z@@YAP6AXPEAUAtlThunkData_t@@@ZPEAP6AX0@Z@Z 000000018002e5c4     atls:atlthunk.obj
 0002:0000b5c4       $unwind$??$GetProcAddressAll@P6AXPEAUAtlThunkData_t@@PEAX_K@Z@@YAP6AXPEAUAtlThunkData_t@@PEAX_K@ZPEAP6AX012@Z@Z 000000018002e5c4     atls:atlthunk.obj
 0002:0000b5c4       $unwind$?__AllocStdCallThunk_cmn@@YAPEAXXZ 000000018002e5c4     atls:atlthunk.obj
 0002:0000b5c4       $unwind$?__InitializeThunkPool@@YAHXZ 000000018002e5c4     atls:atlthunk.obj
 0002:0000b5c4       $unwind$AtlThunk_DataToCode 000000018002e5c4     atls:atlthunk.obj
 0002:0000b5c4       $unwind$_RTC_Initialize    000000018002e5c4     LIBCMT:initsect.obj
 0002:0000b5c4       $unwind$_RTC_Terminate     000000018002e5c4     LIBCMT:initsect.obj
 0002:0000b5c4       $unwind$?__scrt_initialize_thread_safe_statics@@YAHXZ 000000018002e5c4     LIBCMT:thread_safe_statics.obj
 0002:0000b5c4       $unwind$??_Gbad_alloc@std@@UEAAPEAXI@Z 000000018002e5c4     LIBCMT:throw_bad_alloc.obj
 0002:0000b5c4       $unwind$??_Gbad_array_new_length@std@@UEAAPEAXI@Z 000000018002e5c4     LIBCMT:throw_bad_alloc.obj
 0002:0000b5c4       $unwind$??_Gexception@std@@UEAAPEAXI@Z 000000018002e5c4     LIBCMT:throw_bad_alloc.obj
 0002:0000b5c4       $unwind$__FrameUnwindFilter 000000018002e5c4     libvcruntime:ehhelpers.obj
 0002:0000b5c4       $unwind$??_Gbad_exception@std@@UEAAPEAXI@Z 000000018002e5c4     libvcruntime:frame.obj
 0002:0000b5c4       $unwind$?ExFilterRethrowFH4@@YAHPEAU_EXCEPTION_POINTERS@@PEAUEHExceptionRecord@@HPEAH@Z 000000018002e5c4     libvcruntime:frame.obj
 0002:0000b5c4       $unwind$_FindAndUnlinkFrame 000000018002e5c4     libvcruntime:risctrnsctrl.obj
 0002:0000b5c4       $unwind$__vcrt_FlsSetValue 000000018002e5c4     libvcruntime:winapi_downlevel.obj
 0002:0000b5c4       $unwind$??$common_initialize_environment_nolock@D@@YAHXZ 000000018002e5c4     libucrt:environment_initialization.obj
 0002:0000b5c4       $unwind$_realloc_base      000000018002e5c4     libucrt:realloc_base.obj
 0002:0000b5c4       $unwind$?replace_current_thread_locale_nolock@@YAXQEAU__acrt_ptd@@QEAU__crt_locale_data@@@Z 000000018002e5c4     libucrt:per_thread_data.obj
 0002:0000b5c4       $unwind$__acrt_execute_uninitializers 000000018002e5c4     libucrt:shared_initialization.obj
 0002:0000b5c4       $unwind$__acrt_FlsSetValue 000000018002e5c4     libucrt:winapi_thunks.obj
 0002:0000b5c4       $unwind$__acrt_LocaleNameToLCID 000000018002e5c4     libucrt:winapi_thunks.obj
 0002:0000b5c4       $unwind$_updatetlocinfoEx_nolock 000000018002e5c4     libucrt:locale_refcounting.obj
 0002:0000b5c4       $unwind$_close_nolock      000000018002e5c4     libucrt:close.obj
 0002:0000b5c4       $unwind$__acrt_uninitialize_lowio 000000018002e5c4     libucrt:ioinit.obj
 0002:0000b5c4       $unwind$__acrt_errno_map_os_error 000000018002e5c4     libucrt:errno.obj
 0002:0000b5c4       $unwind$_initterm_e        000000018002e5c4     libucrt:initterm.obj
 0002:0000b5c4       $unwind$_fclose_nolock     000000018002e5c4     libucrt:fclose.obj
 0002:0000b5c4       $unwind$?type_case_n@?$output_processor@_WV?$string_output_adapter@_W@__crt_stdio_output@@V?$format_validation_base@_WV?$string_output_adapter@_W@__crt_stdio_output@@@2@@__crt_stdio_output@@AEAA_NXZ 000000018002e5c4     libucrt:output.obj
 0002:0000b5c4       $unwind$strncpy_s          000000018002e5c4     libucrt:strncpy_s.obj
 0002:0000b5c4       $unwind$wcsncpy_s          000000018002e5c4     libucrt:wcsncpy_s.obj
 0002:0000b5d0       $unwind$?ChangeBSTR@OposVariant@@QEAAXPEAPEA_WAEAJ@Z 000000018002e5d0     OposVariant.obj
 0002:0000b5d0       $unwind$?ChangeLONG@OposVariant@@QEAAXPEAJAEAJ@Z 000000018002e5d0     OposVariant.obj
 0002:0000b5d0       $unwind$?x_ismbbtype_l@@YAHPEAU__crt_locale_pointers@@IHH@Z 000000018002e5d0     libucrt:ismbbyte.obj
 0002:0000b5e0       $unwind$swprintf_s         000000018002e5e0     CoinDispenser.obj
 0002:0000b5f0       $unwind$?_AtlVerifyStackAvailable@_ATL_SAFE_ALLOCA_IMPL@ATL@@YA_N_K@Z 000000018002e5f0     CoinDispenser.obj
 0002:0000b61c       $unwind$?filt$0@?0??_AtlVerifyStackAvailable@_ATL_SAFE_ALLOCA_IMPL@ATL@@YA_N_K@Z@4HA 000000018002e61c     CoinDispenser.obj
 0002:0000b61c       $unwind$?fin$0@?0??dllmain_crt_process_attach@@YAHQEAUHINSTANCE__@@QEAX@Z@4HA 000000018002e61c     LIBCMT:dll_dllmain.obj
 0002:0000b61c       $unwind$?fin$0@?0??dllmain_crt_process_detach@@YAH_N@Z@4HA 000000018002e61c     LIBCMT:dll_dllmain.obj
 0002:0000b61c       $unwind$?fin$1@?0??dllmain_crt_process_detach@@YAH_N@Z@4HA 000000018002e61c     LIBCMT:dll_dllmain.obj
 0002:0000b61c       $unwind$_IsNonwritableInCurrentImage$filt$0 000000018002e61c     LIBCMT:pesect.obj
 0002:0000b61c       $unwind$?filt$0@?0??CxxCallCatchBlock@__FrameHandler4@@SAPEAXPEAU_EXCEPTION_RECORD@@@Z@4HA 000000018002e61c     libvcruntime:frame.obj
 0002:0000b61c       $unwind$_query_new_handler$fin$0 000000018002e61c     libucrt:new_handler.obj
 0002:0000b61c       $unwind$?fin$0@?0???$?RV<lambda_0ae27a3a962d80f24befdcbee591983d>@@AEAV<lambda_8d0ee55de4b1038c4002e0adecdf1839>@@V<lambda_dc504788e8f1664fe9b84e20bfb512f2>@@@?$__crt_seh_guarded_call@X@@QEAAX$$QEAV<lambda_0ae27a3a962d80f24befdcbee591983d>@@AEAV<lambda_8d0ee55de4b1038c4002e0adecdf1839>@@$$QEAV<lambda_dc504788e8f1664fe9b84e20bfb512f2>@@@Z@4HA 000000018002e61c     libucrt:per_thread_data.obj
 0002:0000b61c       $unwind$?fin$0@?0???$?RV<lambda_2d41944a1d46af3157314b8a01080d33>@@AEAV<lambda_8f455de75cd7d7f24b4096f044d8b9e6>@@V<lambda_aa500f224e6afead328df44964fe2772>@@@?$__crt_seh_guarded_call@X@@QEAAX$$QEAV<lambda_2d41944a1d46af3157314b8a01080d33>@@AEAV<lambda_8f455de75cd7d7f24b4096f044d8b9e6>@@$$QEAV<lambda_aa500f224e6afead328df44964fe2772>@@@Z@4HA 000000018002e61c     libucrt:per_thread_data.obj
 0002:0000b61c       $unwind$?fin$0@?0???$?RV<lambda_aa87e3671a710a21b5dc78c0bdf72e11>@@AEAV<lambda_92619d2358a28f41a33ba319515a20b9>@@V<lambda_6992ecaafeb10aed2b74cb1fae11a551>@@@?$__crt_seh_guarded_call@X@@QEAAX$$QEAV<lambda_aa87e3671a710a21b5dc78c0bdf72e11>@@AEAV<lambda_92619d2358a28f41a33ba319515a20b9>@@$$QEAV<lambda_6992ecaafeb10aed2b74cb1fae11a551>@@@Z@4HA 000000018002e61c     libucrt:per_thread_data.obj
 0002:0000b61c       $unwind$?fin$0@?0???$?RV<lambda_f2e299630e499de9f9a165e60fcd3db5>@@AEAV<lambda_2ae9d31cdba2644fcbeaf08da7c24588>@@V<lambda_40d01ff24d0e7b3814fdbdcee8eab3c7>@@@?$__crt_seh_guarded_call@X@@QEAAX$$QEAV<lambda_f2e299630e499de9f9a165e60fcd3db5>@@AEAV<lambda_2ae9d31cdba2644fcbeaf08da7c24588>@@$$QEAV<lambda_40d01ff24d0e7b3814fdbdcee8eab3c7>@@@Z@4HA 000000018002e61c     libucrt:per_thread_data.obj
 0002:0000b61c       $unwind$__acrt_update_thread_locale_data$fin$0 000000018002e61c     libucrt:locale_refcounting.obj
 0002:0000b61c       $unwind$?fin$0@?0???$?RV<lambda_410d79af7f07d98d83a3f525b3859a53>@@AEAV<lambda_3e16ef9562a7dcce91392c22ab16ea36>@@V<lambda_38119f0e861e05405d8a144b9b982f0a>@@@?$__crt_seh_guarded_call@X@@QEAAX$$QEAV<lambda_410d79af7f07d98d83a3f525b3859a53>@@AEAV<lambda_3e16ef9562a7dcce91392c22ab16ea36>@@$$QEAV<lambda_38119f0e861e05405d8a144b9b982f0a>@@@Z@4HA 000000018002e61c     libucrt:wsetlocale.obj
 0002:0000b61c       $unwind$?fin$0@?0???$?RV<lambda_751a882b2c74d4b022dec766aa51a29a>@@AEAV<lambda_628dfdc04ba53c8bfc02c9951375f3f5>@@V<lambda_f6c7be5f7998530c34de24c7437d6b54>@@@?$__crt_seh_guarded_call@H@@QEAAH$$QEAV<lambda_751a882b2c74d4b022dec766aa51a29a>@@AEAV<lambda_628dfdc04ba53c8bfc02c9951375f3f5>@@$$QEAV<lambda_f6c7be5f7998530c34de24c7437d6b54>@@@Z@4HA 000000018002e61c     libucrt:close.obj
 0002:0000b61c       $unwind$?fin$0@?0???$?RV<lambda_a37b2b86f63e897a80ea819b0eb08c01>@@AEAV<lambda_38ce7e780aa69e748d6df282ebc68efe>@@V<lambda_99fb1378e971ab6e7edea83e3a7a83a2>@@@?$__crt_seh_guarded_call@H@@QEAAH$$QEAV<lambda_a37b2b86f63e897a80ea819b0eb08c01>@@AEAV<lambda_38ce7e780aa69e748d6df282ebc68efe>@@$$QEAV<lambda_99fb1378e971ab6e7edea83e3a7a83a2>@@@Z@4HA 000000018002e61c     libucrt:commit.obj
 0002:0000b61c       $unwind$__acrt_initialize_lowio$fin$0 000000018002e61c     libucrt:ioinit.obj
 0002:0000b61c       $unwind$__acrt_lowio_ensure_fh_exists$fin$0 000000018002e61c     libucrt:osfinfo.obj
 0002:0000b61c       $unwind$_write$fin$0       000000018002e61c     libucrt:write.obj
 0002:0000b61c       $unwind$?fin$0@?0???$?RV<lambda_efdfa57d1f175319df784efa44bb7b81>@@AEAV<lambda_5f0a4c1567f8adc6734073e5d1e1b35c>@@V<lambda_2e8a7d3640ea6ccb4c2413664c2db6fd>@@@?$__crt_seh_guarded_call@X@@QEAAX$$QEAV<lambda_efdfa57d1f175319df784efa44bb7b81>@@AEAV<lambda_5f0a4c1567f8adc6734073e5d1e1b35c>@@$$QEAV<lambda_2e8a7d3640ea6ccb4c2413664c2db6fd>@@@Z@4HA 000000018002e61c     libucrt:mbctype.obj
 0002:0000b61c       $unwind$?fin$0@?0??update_thread_multibyte_data_internal@@YAPEAU__crt_multibyte_data@@QEAU__acrt_ptd@@QEAPEAU1@@Z@4HA 000000018002e61c     libucrt:mbctype.obj
 0002:0000b61c       $unwind$?fin$0@?0???$?RV<lambda_450d765d439847d4c735a33c368b5fc0>@@AEAV<lambda_44731a7d0e6d81c3e6aa82d741081786>@@V<lambda_601a2a7da3b7a96e9554ac7215c4b07c>@@@?$__crt_seh_guarded_call@P6AXH@Z@@QEAAP6AXH@Z$$QEAV<lambda_450d765d439847d4c735a33c368b5fc0>@@AEAV<lambda_44731a7d0e6d81c3e6aa82d741081786>@@$$QEAV<lambda_601a2a7da3b7a96e9554ac7215c4b07c>@@@Z@4HA 000000018002e61c     libucrt:signal.obj
 0002:0000b61c       $unwind$raise$fin$0        000000018002e61c     libucrt:signal.obj
 0002:0000b61c       $unwind$?filt$0@?0???R<lambda_6e4b09c48022b2350581041d5f6b0c4c>@@QEBA@XZ@4HA 000000018002e61c     libucrt:exit.obj
 0002:0000b61c       $unwind$?fin$0@?0???$?RV<lambda_d80eeec6fff315bfe5c115232f3240e3>@@AEAV<lambda_6e4b09c48022b2350581041d5f6b0c4c>@@V<lambda_2358e3775559c9db80273638284d5e45>@@@?$__crt_seh_guarded_call@X@@QEAAX$$QEAV<lambda_d80eeec6fff315bfe5c115232f3240e3>@@AEAV<lambda_6e4b09c48022b2350581041d5f6b0c4c>@@$$QEAV<lambda_2358e3775559c9db80273638284d5e45>@@@Z@4HA 000000018002e61c     libucrt:exit.obj
 0002:0000b61c       $unwind$?fin$0@?0???$?RV<lambda_638799b9deba96c50f710eeac98168cd>@@AEAV<lambda_22ebabd17bc4fa466a2aca6d8deb888d>@@V<lambda_a6f7d7db0129f75315ebf26d50c089f1>@@@?$__crt_seh_guarded_call@H@@QEAAH$$QEAV<lambda_638799b9deba96c50f710eeac98168cd>@@AEAV<lambda_22ebabd17bc4fa466a2aca6d8deb888d>@@$$QEAV<lambda_a6f7d7db0129f75315ebf26d50c089f1>@@@Z@4HA 000000018002e61c     libucrt:onexit.obj
 0002:0000b61c       $unwind$?fin$0@?0???$?RV<lambda_7777bce6b2f8c936911f934f8298dc43>@@AEAV<lambda_f03950bc5685219e0bcd2087efbe011e>@@V<lambda_3883c3dff614d5e0c5f61bb1ac94921c>@@@?$__crt_seh_guarded_call@H@@QEAAH$$QEAV<lambda_7777bce6b2f8c936911f934f8298dc43>@@AEAV<lambda_f03950bc5685219e0bcd2087efbe011e>@@$$QEAV<lambda_3883c3dff614d5e0c5f61bb1ac94921c>@@@Z@4HA 000000018002e61c     libucrt:onexit.obj
 0002:0000b61c       $unwind$_fcloseall$fin$0   000000018002e61c     libucrt:closeall.obj
 0002:0000b61c       $unwind$fclose$fin$0       000000018002e61c     libucrt:fclose.obj
 0002:0000b61c       $unwind$?fin$0@?0???$?RV<lambda_842d9ff0dc9ef11c61343bbaebe7f885>@@AEAV<lambda_c5860995281e5c4ce005b3de8f5874ee>@@V<lambda_d90129c13df834fdcbf8d2b88dafcf2d>@@@?$__crt_seh_guarded_call@X@@QEAAX$$QEAV<lambda_842d9ff0dc9ef11c61343bbaebe7f885>@@AEAV<lambda_c5860995281e5c4ce005b3de8f5874ee>@@$$QEAV<lambda_d90129c13df834fdcbf8d2b88dafcf2d>@@@Z@4HA 000000018002e61c     libucrt:fflush.obj
 0002:0000b61c       $unwind$?fin$0@?0???$?RV<lambda_886d6c58226a84441f68b9f2b8217b83>@@AEAV<lambda_ab61a845afdef5b7c387490eaf3616ee>@@V<lambda_f7f22ab5edc0698d5f6905b0d3f44752>@@@?$__crt_seh_guarded_call@X@@QEAAX$$QEAV<lambda_886d6c58226a84441f68b9f2b8217b83>@@AEAV<lambda_ab61a845afdef5b7c387490eaf3616ee>@@$$QEAV<lambda_f7f22ab5edc0698d5f6905b0d3f44752>@@@Z@4HA 000000018002e61c     libucrt:fflush.obj
 0002:0000b61c       $unwind$_ctrlfp$filt$0     000000018002e61c     libucrt:fpctrl.obj
 0002:0000b61c       $unwind$common_control87$filt$0 000000018002e61c     libucrt:ieee.obj
 0002:0000b624       $unwind$?AtlInternalOleLoadFromStream@ATL@@YAJPEAUIStream@@AEBU_GUID@@PEAPEAXTClassesAllowedInStream@1@K@Z 000000018002e624     CoinDispenser.obj
 0002:0000b640       $unwind$?ReadFromStream@CComBSTR@ATL@@QEAAJPEAUIStream@@@Z 000000018002e640     CoinDispenser.obj
 0002:0000b640       $unwind$_configure_narrow_argv 000000018002e640     libucrt:argv_parsing.obj
 0002:0000b654       $unwind$?WriteToStream@CComVariant@ATL@@QEAAJPEAUIStream@@@Z 000000018002e654     CoinDispenser.obj
 0002:0000b668       $unwind$?RegOpenKeyExW@CAtlTransactionManager@ATL@@QEAAJPEAUHKEY__@@PEB_WKKPEAPEAU3@@Z 000000018002e668     CoinDispenser.obj
 0002:0000b668       $unwind$?WriteToStream@CComVariant@ATL@@QEAAJPEAUIStream@@G@Z 000000018002e668     CoinDispenser.obj
 0002:0000b668       $unwind$__dcrt_write_console 000000018002e668     libucrt:initcon.obj
 0002:0000b668       $unwind$??$__acrt_wcs_to_mbs_cp@U__crt_win32_buffer_no_resizing@@@@YAHQEB_WAEAV?$__crt_win32_buffer@DU__crt_win32_buffer_no_resizing@@@@I@Z 000000018002e668     libucrt:getmodulefilenamea.obj
 0002:0000b67c       $unwind$?ReadFromStream@CComVariant@ATL@@QEAAJPEAUIStream@@GTClassesAllowedInStream@2@K@Z 000000018002e67c     CoinDispenser.obj
 0002:0000b694       $unwind$?GetSizeMax@CComVariant@ATL@@QEBAJPEAT_ULARGE_INTEGER@@@Z 000000018002e694     CoinDispenser.obj
 0002:0000b6ac       $unwind$?RegCreateKeyExW@CAtlTransactionManager@ATL@@QEAAJPEAUHKEY__@@PEB_WKPEA_WKKQEAU_SECURITY_ATTRIBUTES@@PEAPEAU3@PEAK@Z 000000018002e6ac     CoinDispenser.obj
 0002:0000b6c0       $unwind$?GetGITPtr@CAtlModule@ATL@@UEAAJPEAPEAUIGlobalInterfaceTable@@@Z 000000018002e6c0     CoinDispenser.obj
 0002:0000b6c0       $unwind$?RegDeleteKeyW@CAtlTransactionManager@ATL@@QEAAJPEAUHKEY__@@PEB_W@Z 000000018002e6c0     CoinDispenser.obj
 0002:0000b6c0       $unwind$?getStateFromIterators@UWMap4@FH4@@SAHAEBViterator@12@H0H0@Z 000000018002e6c0     libvcruntime:frame.obj
 0002:0000b6d0       $unwind$?AtlHiMetricToPixel@ATL@@YAXPEBUtagSIZE@@PEAU2@@Z 000000018002e6d0     CoinDispenser.obj
 0002:0000b6d0       $unwind$?AtlInternalQueryInterface@ATL@@YAJPEAXPEBU_ATL_INTMAP_ENTRY@1@AEBU_GUID@@PEAPEAX@Z 000000018002e6d0     CoinDispenser.obj
 0002:0000b6e8       $unwind$?Append@CParseBuffer@CRegParser@ATL@@QEAAHPEB_WH@Z 000000018002e6e8     CoinDispenser.obj
 0002:0000b6e8       $unwind$?AtlComModuleGetClassObject@ATL@@YAJPEAU_ATL_COM_MODULE70@1@AEBU_GUID@@1PEAPEAX@Z 000000018002e6e8     CoinDispenser.obj
 0002:0000b6e8       $unwind$?EnumConnections@?$IConnectionPointImpl@VCOPOSCoinDispenser@@$1?DIID__IOPOSCoinDispenserEvents@@3U_GUID@@BVCComDynamicUnkArray@ATL@@@ATL@@UEAAJPEAPEAUIEnumConnections@@@Z 000000018002e6e8     CoinDispenser.obj
 0002:0000b6e8       $unwind$?EnumConnections@?$IConnectionPointImpl@VCOPOSCoinDispenser@@$1?IID_IPropertyNotifySink@@3U_GUID@@BVCComDynamicUnkArray@ATL@@@ATL@@UEAAJPEAPEAUIEnumConnections@@@Z 000000018002e6e8     CoinDispenser.obj
 0002:0000b6e8       $unwind$?GetClassObject@CComModule@ATL@@QEAAJAEBU_GUID@@0PEAPEAX@Z 000000018002e6e8     CoinDispenser.obj
 0002:0000b6e8       $unwind$?Init@?$CComEnumImpl@UIEnumConnectionPoints@@$1?_GUID_b196b285_bab4_101a_b69c_00aa00341d07@@3U__s_GUID@@BPEAUIConnectionPoint@@V?$_CopyInterface@UIConnectionPoint@@@ATL@@@ATL@@QEAAJPEAPEAUIConnectionPoint@@0PEAUIUnknown@@W4CComEnumFlags@2@@Z 000000018002e6e8     CoinDispenser.obj
 0002:0000b6e8       $unwind$?Init@?$CComEnumImpl@UIEnumConnections@@$1?_GUID_b196b287_bab4_101a_b69c_00aa00341d07@@3U__s_GUID@@BUtagCONNECTDATA@@V?$_Copy@UtagCONNECTDATA@@@ATL@@@ATL@@QEAAJPEAUtagCONNECTDATA@@0PEAUIUnknown@@W4CComEnumFlags@2@@Z 000000018002e6e8     CoinDispenser.obj
 0002:0000b6e8       $unwind$?NextToken@CRegParser@ATL@@IEAAJPEA_W@Z 000000018002e6e8     CoinDispenser.obj
 0002:0000b6e8       $unwind$__acrt_fp_strflt_to_string 000000018002e6e8     libucrt:_fptostr.obj
 0002:0000b6e8       $unwind$__acrt_DownlevelLocaleNameToLCID 000000018002e6e8     libucrt:lcidtoname_downlevel.obj
 0002:0000b6e8       $unwind$??R<lambda_f03950bc5685219e0bcd2087efbe011e>@@QEBAHXZ 000000018002e6e8     libucrt:onexit.obj
 0002:0000b700       $unwind$?AtlRegisterClassCategoriesHelper@ATL@@YAJAEBU_GUID@@PEBU_ATL_CATMAP_ENTRY@1@H@Z 000000018002e700     CoinDispenser.obj
 0002:0000b724       $unwind$?AtlLoadTypeLib@ATL@@YAJPEAUHINSTANCE__@@PEB_WPEAPEA_WPEAPEAUITypeLib@@@Z 000000018002e724     CoinDispenser.obj
 0002:0000b744       $unwind$?AtlRegisterTypeLib@ATL@@YAJPEAUHINSTANCE__@@PEB_W@Z 000000018002e744     CoinDispenser.obj
 0002:0000b760       $unwind$?AtlUnRegisterTypeLib@ATL@@YAJPEAUHINSTANCE__@@PEB_W@Z 000000018002e760     CoinDispenser.obj
 0002:0000b768       $unwind$?GetTI@CComTypeInfoHolder@ATL@@QEAAJK@Z 000000018002e768     CoinDispenser.obj
 0002:0000b768       $unwind$?RecurseDeleteKey@CRegKey@ATL@@QEAAJPEB_W@Z 000000018002e768     CoinDispenser.obj
 0002:0000b788       $unwind$?UpdateRegistryFromResource@CAtlModule@ATL@@QEAAJIHPEAU_ATL_REGMAP_ENTRY@2@@Z 000000018002e788     CoinDispenser.obj
 0002:0000b788       $unwind$?UpdateRegistryFromResource@CAtlModule@ATL@@QEAAJPEB_WHPEAU_ATL_REGMAP_ENTRY@2@@Z 000000018002e788     CoinDispenser.obj
 0002:0000b7a8       $unwind$?Lookup@?$CSimpleMap@PEA_WPEA_WVCExpansionVectorEqualHelper@ATL@@@ATL@@QEBAPEA_WAEBQEA_W@Z 000000018002e7a8     CoinDispenser.obj
 0002:0000b7a8       $unwind$__std_exception_copy 000000018002e7a8     libvcruntime:std_exception.obj
 0002:0000b7a8       $unwind$_free_osfhnd       000000018002e7a8     libucrt:osfinfo.obj
 0002:0000b7bc       $unwind$?Add@CExpansionVector@ATL@@QEAAHPEB_W0@Z 000000018002e7bc     CoinDispenser.obj
 0002:0000b7d4       $unwind$?PreProcessBuffer@CRegParser@ATL@@QEAAJPEA_WPEAPEA_W@Z 000000018002e7d4     CoinDispenser.obj
 0002:0000b7f8       $unwind$?RegisterBuffer@CRegParser@ATL@@QEAAJPEA_WH@Z 000000018002e7f8     CoinDispenser.obj
 0002:0000b818       $unwind$?AddValue@CRegParser@ATL@@IEAAJAEAVCRegKey@2@PEB_WPEA_W@Z 000000018002e818     CoinDispenser.obj
 0002:0000b838       $unwind$?RegisterSubkeys@CRegParser@ATL@@IEAAJPEA_WPEAUHKEY__@@HH@Z 000000018002e838     CoinDispenser.obj
 0002:0000b858       $unwind$?SkipAssignment@CRegParser@ATL@@IEAAJPEA_W@Z 000000018002e858     CoinDispenser.obj
 0002:0000b870       $unwind$?RegisterFromResource@CRegObject@ATL@@IEAAJPEB_W00H@Z 000000018002e870     CoinDispenser.obj
 0002:0000b890       $unwind$?Cleanup@CComTypeInfoHolder@ATL@@SAX_K@Z 000000018002e890     CoinDispenser.obj
 0002:0000b890       $unwind$AtlThunk_FreeData  000000018002e890     atls:atlthunk.obj
 0002:0000b890       $unwind$_free_base         000000018002e890     libucrt:free_base.obj
 0002:0000b890       $unwind$?destroy_fls@@YAXPEAX@Z 000000018002e890     libucrt:per_thread_data.obj
 0002:0000b890       $unwind$__acrt_locale_free_numeric 000000018002e890     libucrt:initnum.obj
 0002:0000b890       $unwind$__acrt_locale_free_lc_time_if_unreferenced 000000018002e890     libucrt:locale_refcounting.obj
 0002:0000b898       $unwind$?GetIDsOfNames@CComTypeInfoHolder@ATL@@QEAAJAEBU_GUID@@PEAPEA_WIKPEAJ@Z 000000018002e898     CoinDispenser.obj
 0002:0000b8b4       $unwind$?LoadNameCache@CComTypeInfoHolder@ATL@@QEAAJPEAUITypeInfo@@@Z 000000018002e8b4     CoinDispenser.obj
 0002:0000b8c8       $unwind$?StartWindowProc@?$CWindowImplBaseT@VCWindow@ATL@@V?$CWinTraits@$0FGAAAAAA@$0A@@2@@ATL@@SA_JPEAUHWND__@@I_K_J@Z 000000018002e8c8     CoinDispenser.obj
 0002:0000b8c8       $unwind$?should_round_up@@YA_NQEBN_KFW4__acrt_rounding_mode@@@Z 000000018002e8c8     libucrt:cvt.obj
 0002:0000b8c8       $unwind$??$parse_command_line@D@@YAXPEADPEAPEAD0PEA_K2@Z 000000018002e8c8     libucrt:argv_parsing.obj
 0002:0000b8e4       $unwind$?WindowProc@?$CWindowImplBaseT@VCWindow@ATL@@V?$CWinTraits@$0FGAAAAAA@$0A@@2@@ATL@@SA_JPEAUHWND__@@I_K_J@Z 000000018002e8e4     CoinDispenser.obj
 0002:0000b8fc       $unwind$?atlCreate@?$CWindowImplBaseT@VCWindow@ATL@@V?$CWinTraits@$0FGAAAAAA@$0A@@2@@ATL@@QEAAPEAUHWND__@@PEAU3@V_U_RECT@2@PEB_WKKV_U_MENUorID@2@GPEAX@Z 000000018002e8fc     CoinDispenser.obj
 0002:0000b914       $unwind$??$AtlModuleRegisterWndClassInfoT@VAtlModuleRegisterWndClassInfoParamW@ATL@@@ATL@@YAGPEAU_ATL_BASE_MODULE70@0@PEAU_ATL_WIN_MODULE70@0@PEAU_ATL_WNDCLASSINFOW@0@PEAP6A_JPEAUHWND__@@I_K_J@ZVAtlModuleRegisterWndClassInfoParamW@0@@Z 000000018002e914     CoinDispenser.obj
 0002:0000b934       $unwind$?GetZoomInfo@CComControlBase@ATL@@QEAAXAEAUATL_DRAWINFO@@@Z 000000018002e934     CoinDispenser.obj
 0002:0000b934       $unwind$?OnKillFocus@CComControlBase@ATL@@QEAA_JI_K_JAEAH@Z 000000018002e934     CoinDispenser.obj
 0002:0000b934       $unwind$iswctype           000000018002e934     libucrt:iswctype.obj
 0002:0000b940       $unwind$?SendOnDataChange@CComControlBase@ATL@@QEAAJK@Z 000000018002e940     CoinDispenser.obj
 0002:0000b950       $unwind$?OnSetFocus@CComControlBase@ATL@@QEAA_JI_K_JAEAH@Z 000000018002e950     CoinDispenser.obj
 0002:0000b960       $unwind$?OnMouseActivate@CComControlBase@ATL@@QEAA_JI_K_JAEAH@Z 000000018002e960     CoinDispenser.obj
 0002:0000b968       $unwind$?GetAmbientLocaleID@CComControlBase@ATL@@QEAAJAEAK@Z 000000018002e968     CoinDispenser.obj
 0002:0000b968       $unwind$?GetAmbientUserMode@CComControlBase@ATL@@QEAAJAEAH@Z 000000018002e968     CoinDispenser.obj
 0002:0000b978       $unwind$?IQuickActivate_QuickActivate@CComControlBase@ATL@@QEAAJPEAUtagQACONTAINER@@PEAUtagQACONTROL@@@Z 000000018002e978     CoinDispenser.obj
 0002:0000b990       $unwind$?DoVerbProperties@CComControlBase@ATL@@QEAAJPEBUtagRECT@@PEAUHWND__@@@Z 000000018002e990     CoinDispenser.obj
 0002:0000b9a8       $unwind$?InPlaceActivate@CComControlBase@ATL@@QEAAJJPEBUtagRECT@@@Z 000000018002e9a8     CoinDispenser.obj
 0002:0000b9c8       $unwind$?IOleObject_Close@CComControlBase@ATL@@QEAAJK@Z 000000018002e9c8     CoinDispenser.obj
 0002:0000b9c8       $unwind$?type_case_c_tchar@?$output_processor@_WV?$string_output_adapter@_W@__crt_stdio_output@@V?$format_validation_base@_WV?$string_output_adapter@_W@__crt_stdio_output@@@2@@__crt_stdio_output@@AEAA_N_W@Z 000000018002e9c8     libucrt:output.obj
 0002:0000b9d8       $unwind$?IOleInPlaceObject_UIDeactivate@CComControlBase@ATL@@QEAAJXZ 000000018002e9d8     CoinDispenser.obj
 0002:0000b9f0       $unwind$?IOleInPlaceObject_SetObjectRects@CComControlBase@ATL@@QEAAJPEBUtagRECT@@0@Z 000000018002e9f0     CoinDispenser.obj
 0002:0000ba04       $unwind$?IViewObject_Draw@CComControlBase@ATL@@QEAAJKJPEAXPEAUtagDVTARGETDEVICE@@PEAUHDC__@@2PEBU_RECTL@@3@Z 000000018002ea04     CoinDispenser.obj
 0002:0000ba20       $unwind$?IDataObject_GetData@CComControlBase@ATL@@QEAAJPEAUtagFORMATETC@@PEAUtagSTGMEDIUM@@@Z 000000018002ea20     CoinDispenser.obj
 0002:0000ba40       $unwind$?OnPaint@CComControlBase@ATL@@QEAA_JI_K_JAEAH@Z 000000018002ea40     CoinDispenser.obj
 0002:0000ba5c       $unwind$?OnDrawAdvanced@CComControlBase@ATL@@UEAAJAEAUATL_DRAWINFO@@@Z 000000018002ea5c     CoinDispenser.obj
 0002:0000ba78       $unwind$?Invoke@?$IDispatchImpl@UIOPOSCoinDispenser@@$1?IID_IOPOSCoinDispenser@@3U_GUID@@B$1?LIBID_OposCoinDispenser_CCO@@3U3@B$00$0A@VCComTypeInfoHolder@ATL@@@ATL@@UEAAJJAEBU_GUID@@KGPEAUtagDISPPARAMS@@PEAUtagVARIANT@@PEAUtagEXCEPINFO@@PEAI@Z 000000018002ea78     CoinDispenser.obj
 0002:0000ba78       $unwind$?ReleaseDevice@COPOSCoinDispenser@@UEAAJPEAJ@Z 000000018002ea78     CoinDispenserImpl.obj
 0002:0000ba78       $unwind$_mbsdec_l          000000018002ea78     libucrt:mbsdec.obj
 0002:0000ba84       $unwind$?atlCreate@?$CWindowImpl@VCOPOSCoinDispenser@@VCWindow@ATL@@V?$CWinTraits@$0FGAAAAAA@$0A@@3@@ATL@@QEAAPEAUHWND__@@PEAU3@V_U_RECT@2@PEB_WKKV_U_MENUorID@2@PEAX@Z 000000018002ea84     CoinDispenser.obj
 0002:0000ba84       $unwind$?fp_format_e@@YAHQEBNQEAD_K12H_NIQEAU__crt_locale_pointers@@W4__acrt_rounding_mode@@@Z 000000018002ea84     libucrt:cvt.obj
 0002:0000ba84       $unwind$_mbtowc_l          000000018002ea84     libucrt:mbtowc.obj
 0002:0000ba84       $unwind$__acrt_LCMapStringEx 000000018002ea84     libucrt:winapi_thunks.obj
 0002:0000ba98       $unwind$?CreateControlWindow@?$CComControl@VCOPOSCoinDispenser@@V?$CWindowImpl@VCOPOSCoinDispenser@@VCWindow@ATL@@V?$CWinTraits@$0FGAAAAAA@$0A@@3@@ATL@@@ATL@@UEAAPEAUHWND__@@PEAU3@AEAUtagRECT@@@Z 000000018002ea98     CoinDispenser.obj
 0002:0000ba98       $unwind$?__scrt_throw_std_bad_alloc@@YAXXZ 000000018002ea98     LIBCMT:throw_bad_alloc.obj
 0002:0000ba98       $unwind$?__scrt_throw_std_bad_array_new_length@@YAXXZ 000000018002ea98     LIBCMT:throw_bad_alloc.obj
 0002:0000ba98       $unwind$_raise_exc         000000018002ea98     libucrt:fpexcept.obj
 0002:0000baa0       $unwind$?GetSizeMax@?$IPersistStreamInitImpl@VCOPOSCoinDispenser@@@ATL@@UEAAJPEAT_ULARGE_INTEGER@@@Z 000000018002eaa0     CoinDispenser.obj
 0002:0000bab8       $unwind$?IPersistStreamInit_Load@?$IPersistStreamInitImpl@VCOPOSCoinDispenser@@@ATL@@QEAAJPEAUIStream@@PEBUATL_PROPMAP_ENTRY@2@@Z 000000018002eab8     CoinDispenser.obj
 0002:0000bad4       $unwind$?IPersistStreamInit_Save@?$IPersistStreamInitImpl@VCOPOSCoinDispenser@@@ATL@@QEAAJPEAUIStream@@HPEBUATL_PROPMAP_ENTRY@2@@Z 000000018002ead4     CoinDispenser.obj
 0002:0000baf0       $unwind$?DoVerbPrimary@?$IOleObjectImpl@VCOPOSCoinDispenser@@@ATL@@QEAAJPEBUtagRECT@@PEAUHWND__@@@Z 000000018002eaf0     CoinDispenser.obj
 0002:0000bb08       $unwind$?TranslateAcceleratorW@?$IOleInPlaceActiveObjectImpl@VCOPOSCoinDispenser@@@ATL@@UEAAJPEAUtagMSG@@@Z 000000018002eb08     CoinDispenser.obj
 0002:0000bb14       $unwind$?Draw@?$IViewObjectExImpl@VCOPOSCoinDispenser@@@ATL@@UEAAJKJPEAXPEAUtagDVTARGETDEVICE@@PEAUHDC__@@2PEBU_RECTL@@3P6AH_K@Z4@Z 000000018002eb14     CoinDispenser.obj
 0002:0000bb1c       $unwind$?QueryHitRect@?$IViewObjectExImpl@VCOPOSCoinDispenser@@@ATL@@UEAAJKPEBUtagRECT@@0JPEAK@Z 000000018002eb1c     CoinDispenser.obj
 0002:0000bb2c       $unwind$?OnWindowMessage@?$IOleInPlaceObjectWindowlessImpl@VCOPOSCoinDispenser@@@ATL@@UEAAJI_K_JPEA_J@Z 000000018002eb2c     CoinDispenser.obj
 0002:0000bb40       $unwind$?EnumConnectionPoints@?$IConnectionPointContainerImpl@VCOPOSCoinDispenser@@@ATL@@UEAAJPEAPEAUIEnumConnectionPoints@@@Z 000000018002eb40     CoinDispenser.obj
 0002:0000bb68       $unwind$?FindConnectionPoint@?$IConnectionPointContainerImpl@VCOPOSCoinDispenser@@@ATL@@UEAAJAEBU_GUID@@PEAPEAUIConnectionPoint@@@Z 000000018002eb68     CoinDispenser.obj
 0002:0000bb68       $unwind$?__mbrtoc32_utf8@__crt_mbstring@@YA_KPEA_UPEBD_KPEAU_Mbstatet@@@Z 000000018002eb68     libucrt:mbrtoc32.obj
 0002:0000bb84       $unwind$?Load@?$IPersistStorageImpl@VCOPOSCoinDispenser@@@ATL@@UEAAJPEAUIStorage@@@Z 000000018002eb84     CoinDispenser.obj
 0002:0000bb94       $unwind$?Save@?$IPersistStorageImpl@VCOPOSCoinDispenser@@@ATL@@UEAAJPEAUIStorage@@H@Z 000000018002eb94     CoinDispenser.obj
 0002:0000bba8       $unwind$?IPSI_GetIPersistStreamInit@?$IPersistStorageImpl@VCOPOSCoinDispenser@@@ATL@@AEAAPEAUIPersistStreamInit@@XZ 000000018002eba8     CoinDispenser.obj
 0002:0000bba8       $unwind$?parse_int_from_format_string@?$output_processor@_WV?$string_output_adapter@_W@__crt_stdio_output@@V?$format_validation_base@_WV?$string_output_adapter@_W@__crt_stdio_output@@@2@@__crt_stdio_output@@AEAA_NQEAH@Z 000000018002eba8     libucrt:output.obj
 0002:0000bbbc       $unwind$?GetInterfaceSafetyOptions@?$IObjectSafetyImpl@VCOPOSCoinDispenser@@$02@ATL@@UEAAJAEBU_GUID@@PEAK1@Z 000000018002ebbc     CoinDispenser.obj
 0002:0000bbd0       $unwind$?SetInterfaceSafetyOptions@?$IObjectSafetyImpl@VCOPOSCoinDispenser@@$02@ATL@@UEAAJAEBU_GUID@@KK@Z 000000018002ebd0     CoinDispenser.obj
 0002:0000bbe4       $unwind$?Advise@?$IConnectionPointImpl@VCOPOSCoinDispenser@@$1?DIID__IOPOSCoinDispenserEvents@@3U_GUID@@BVCComDynamicUnkArray@ATL@@@ATL@@UEAAJPEAUIUnknown@@PEAK@Z 000000018002ebe4     CoinDispenser.obj
 0002:0000bbe4       $unwind$?Advise@?$IConnectionPointImpl@VCOPOSCoinDispenser@@$1?IID_IPropertyNotifySink@@3U_GUID@@BVCComDynamicUnkArray@ATL@@@ATL@@UEAAJPEAUIUnknown@@PEAK@Z 000000018002ebe4     CoinDispenser.obj
 0002:0000bbf8       $unwind$?Fire_DirectIOEvent@?$CProxy_IOPOSEvents@VCOPOSCoinDispenser@@@@QEAAXJPEAJPEAPEA_W@Z 000000018002ebf8     CoinDispenser.obj
 0002:0000bc18       $unwind$?Fire_StatusUpdateEvent@?$CProxy_IOPOSEvents@VCOPOSCoinDispenser@@@@QEAAXJ@Z 000000018002ec18     CoinDispenser.obj
 0002:0000bc30       $unwind$?FireTheEvent@?$CProxy_IOPOSEvents@VCOPOSCoinDispenser@@@@IEAAXPEAVOposVariant@@IAEAJPEB_WJ@Z 000000018002ec30     CoinDispenser.obj
 0002:0000bc40       $unwind$?ProcessWindowMessage@COPOSCoinDispenser@@UEAAHPEAUHWND__@@I_K_JAEA_JK@Z 000000018002ec40     CoinDispenser.obj
 0002:0000bc40       $unwind$__dcrt_get_narrow_environment_from_os 000000018002ec40     libucrt:get_environment_from_os.obj
 0002:0000bc40       $unwind$?fp_format_f_internal@@YAHQEAD_KHQEAU_strflt@@_NQEAU__crt_locale_pointers@@@Z 000000018002ec40     libucrt:cvt.obj
 0002:0000bc40       $unwind$??$__acrt_wcs_to_mbs_cp@U__crt_win32_buffer_internal_dynamic_resizing@@@@YAHQEB_WAEAV?$__crt_win32_buffer@DU__crt_win32_buffer_internal_dynamic_resizing@@@@I@Z 000000018002ec40     libucrt:argv_wildcards.obj
 0002:0000bc58       $unwind$?Clone@?$CComEnumImpl@UIEnumConnectionPoints@@$1?_GUID_b196b285_bab4_101a_b69c_00aa00341d07@@3U__s_GUID@@BPEAUIConnectionPoint@@V?$_CopyInterface@UIConnectionPoint@@@ATL@@@ATL@@UEAAJPEAPEAUIEnumConnectionPoints@@@Z 000000018002ec58     CoinDispenser.obj
 0002:0000bc58       $unwind$?Clone@?$CComEnumImpl@UIEnumConnections@@$1?_GUID_b196b287_bab4_101a_b69c_00aa00341d07@@3U__s_GUID@@BUtagCONNECTDATA@@V?$_Copy@UtagCONNECTDATA@@@ATL@@@ATL@@UEAAJPEAPEAUIEnumConnections@@@Z 000000018002ec58     CoinDispenser.obj
 0002:0000bc70       $unwind$?GetOposProp@COPOSCoinDispenser@@IEAAJJPEAJJ@Z 000000018002ec70     CoinDispenserImpl.obj
 0002:0000bc70       $unwind$?GetOposProp@COPOSCoinDispenser@@IEAAJJPEAPEA_WJ@Z 000000018002ec70     CoinDispenserImpl.obj
 0002:0000bc88       $unwind$?SetOposProp@COPOSCoinDispenser@@IEAAJJJJ@Z 000000018002ec88     CoinDispenserImpl.obj
 0002:0000bca8       $unwind$?DoInvoke@COPOSCoinDispenser@@IEAAJJPEAVOposVariant@@IHPEAJ_N@Z 000000018002eca8     CoinDispenserImpl.obj
 0002:0000bcc0       $unwind$?SetCOFreezeEvents@COPOSCoinDispenser@@IEAAXF@Z 000000018002ecc0     CoinDispenserImpl.obj
 0002:0000bcd4       $unwind$?OnDraw@COPOSCoinDispenser@@MEAAJAEAUATL_DRAWINFO@@@Z 000000018002ecd4     CoinDispenserImpl.obj
 0002:0000bcec       $unwind$?EventInit@COPOSCoinDispenser@@IEAAJXZ 000000018002ecec     CoinDispenserImpl.obj
 0002:0000bd00       $unwind$?get_ControlObjectDescription@COPOSCoinDispenser@@UEAAJPEAPEA_W@Z 000000018002ed00     CoinDispenserImpl.obj
 0002:0000bd00       $unwind$__dcrt_lowio_ensure_console_output_initialized 000000018002ed00     libucrt:initcon.obj
 0002:0000bd00       $unwind$_isleadbyte_l      000000018002ed00     libucrt:_wctype.obj
 0002:0000bd00       $unwind$?getSystemCP@@YAHH@Z 000000018002ed00     libucrt:mbctype.obj
 0002:0000bd08       $unwind$?AdjustCashCounts@COPOSCoinDispenser@@UEAAJPEA_WPEAJ@Z 000000018002ed08     CoinDispenserImpl.obj
 0002:0000bd08       $unwind$?CheckHealth@COPOSCoinDispenser@@UEAAJJPEAJ@Z 000000018002ed08     CoinDispenserImpl.obj
 0002:0000bd08       $unwind$?DispenseChange@COPOSCoinDispenser@@UEAAJJPEAJ@Z 000000018002ed08     CoinDispenserImpl.obj
 0002:0000bd08       $unwind$?ResetStatistics@COPOSCoinDispenser@@UEAAJPEA_WPEAJ@Z 000000018002ed08     CoinDispenserImpl.obj
 0002:0000bd08       $unwind$?RetrieveStatistics@COPOSCoinDispenser@@UEAAJPEAPEA_WPEAJ@Z 000000018002ed08     CoinDispenserImpl.obj
 0002:0000bd08       $unwind$?UpdateFirmware@COPOSCoinDispenser@@UEAAJPEA_WPEAJ@Z 000000018002ed08     CoinDispenserImpl.obj
 0002:0000bd08       $unwind$?UpdateStatistics@COPOSCoinDispenser@@UEAAJPEA_WPEAJ@Z 000000018002ed08     CoinDispenserImpl.obj
 0002:0000bd18       $unwind$?ClaimDevice@COPOSCoinDispenser@@UEAAJJPEAJ@Z 000000018002ed18     CoinDispenserImpl.obj
 0002:0000bd28       $unwind$?Close@COPOSCoinDispenser@@UEAAJPEAJ@Z 000000018002ed28     CoinDispenserImpl.obj
 0002:0000bd34       $unwind$?DirectIO@COPOSCoinDispenser@@UEAAJJPEAJPEAPEA_W0@Z 000000018002ed34     CoinDispenserImpl.obj
 0002:0000bd50       $unwind$?Open@COPOSCoinDispenser@@UEAAJPEA_WPEAJ@Z 000000018002ed50     CoinDispenserImpl.obj
 0002:0000bd74       $unwind$?CompareFirmwareVersion@COPOSCoinDispenser@@UEAAJPEA_WPEAJ1@Z 000000018002ed74     CoinDispenserImpl.obj
 0002:0000bd74       $unwind$?ReadCashCounts@COPOSCoinDispenser@@UEAAJPEAPEA_WPEAFPEAJ@Z 000000018002ed74     CoinDispenserImpl.obj
 0002:0000bd74       $unwind$?initialize_inherited_file_handles_nolock@@YAXXZ 000000018002ed74     libucrt:ioinit.obj
 0002:0000bd90       $unwind$__scrt_is_nonwritable_in_current_image 000000018002ed90     LIBCMT:utility.obj
 0002:0000bdb0       $unwind$__scrt_is_nonwritable_in_current_image$filt$0 000000018002edb0     LIBCMT:utility.obj
 0002:0000bdb8       $unwind$__report_securityfailure 000000018002edb8     LIBCMT:gs_report.obj
 0002:0000bdc0       $unwind$__report_gsfailure 000000018002edc0     LIBCMT:gs_report.obj
 0002:0000bdc8       $unwind$capture_current_context 000000018002edc8     LIBCMT:gs_report.obj
 0002:0000bdd4       $unwind$capture_previous_context 000000018002edd4     LIBCMT:gs_report.obj
 0002:0000bde0       $unwind$??2@YAPEAX_KAEBUnothrow_t@std@@@Z 000000018002ede0     LIBCMT:new_scalar_nothrow.obj
 0002:0000bdf0       $cppxdata$??2@YAPEAX_KAEBUnothrow_t@std@@@Z 000000018002edf0     LIBCMT:new_scalar_nothrow.obj
 0002:0000bdfd       $stateUnwindMap$??2@YAPEAX_KAEBUnothrow_t@std@@@Z 000000018002edfd     LIBCMT:new_scalar_nothrow.obj
 0002:0000be00       $tryMap$??2@YAPEAX_KAEBUnothrow_t@std@@@Z 000000018002ee00     LIBCMT:new_scalar_nothrow.obj
 0002:0000be08       $handlerMap$??2@YAPEAX_KAEBUnothrow_t@std@@@Z 000000018002ee08     LIBCMT:new_scalar_nothrow.obj
 0002:0000be10       $ip2state$??2@YAPEAX_KAEBUnothrow_t@std@@@Z 000000018002ee10     LIBCMT:new_scalar_nothrow.obj
 0002:0000be14       $unwind$?catch$0@?0???2@YAPEAX_KAEBUnothrow_t@std@@@Z@4HA 000000018002ee14     LIBCMT:new_scalar_nothrow.obj
 0002:0000be24       $cppxdata$?catch$0@?0???2@YAPEAX_KAEBUnothrow_t@std@@@Z@4HA 000000018002ee24     LIBCMT:new_scalar_nothrow.obj
 0002:0000be2e       $stateUnwindMap$?catch$0@?0???2@YAPEAX_KAEBUnothrow_t@std@@@Z@4HA 000000018002ee2e     LIBCMT:new_scalar_nothrow.obj
 0002:0000be30       $ip2state$?catch$0@?0???2@YAPEAX_KAEBUnothrow_t@std@@@Z@4HA 000000018002ee30     LIBCMT:new_scalar_nothrow.obj
 0002:0000be34       $unwind$__GSHandlerCheckCommon 000000018002ee34     LIBCMT:gshandler.obj
 0002:0000be40       $xdatasym                  000000018002ee40     LIBCMT:chkstk.obj
 0002:0000be48       $xdatasym                  000000018002ee48     LIBCMT:amdsecgs.obj
 0002:0000be4c       $unwind$?dllmain_crt_process_attach@@YAHQEAUHINSTANCE__@@QEAX@Z 000000018002ee4c     LIBCMT:dll_dllmain.obj
 0002:0000be88       $unwind$?dllmain_crt_process_detach@@YAH_N@Z 000000018002ee88     LIBCMT:dll_dllmain.obj
 0002:0000bedc       $unwind$?dllmain_dispatch@@YAHQEAUHINSTANCE__@@KQEAX@Z 000000018002eedc     LIBCMT:dll_dllmain.obj
 0002:0000bf04       $unwind$?filt$0@?0??dllmain_dispatch@@YAHQEAUHINSTANCE__@@KQEAX@Z@4HA 000000018002ef04     LIBCMT:dll_dllmain.obj
 0002:0000bf04       $unwind$?filt$0@?0??FrameUnwindToState@__FrameHandler4@@SAXPEA_KPEAU_xDISPATCHER_CONTEXT@@PEAUFuncInfo4@FH4@@H@Z@4HA 000000018002ef04     libvcruntime:frame.obj
 0002:0000bf04       $unwind$?fin$1@?0??FrameUnwindToState@__FrameHandler4@@SAXPEA_KPEAU_xDISPATCHER_CONTEXT@@PEAUFuncInfo4@FH4@@H@Z@4HA 000000018002ef04     libvcruntime:frame.obj
 0002:0000bf0c       $unwind$__isa_available_init 000000018002ef0c     LIBCMT:cpu_disp.obj
 0002:0000bf1c       $unwind$__scrt_fastfail    000000018002ef1c     LIBCMT:utility_desktop.obj
 0002:0000bf2c       $unwind$__security_init_cookie 000000018002ef2c     LIBCMT:gs_support.obj
 0002:0000bf38       $xdatasym                  000000018002ef38     LIBCMT:guard_dispatch.obj
 0002:0000bf40       $xdatasym                  000000018002ef40     LIBCMT:guard_xfg_dispatch.obj
 0002:0000bf44       $unwind$AtlThunk_InitData  000000018002ef44     atls:atlthunk.obj
 0002:0000bf58       $unwind$wcsstr             000000018002ef58     libvcruntime:wcsstr.obj
 0002:0000bf70       $xdatasym                  000000018002ef70     libvcruntime:memcmp.obj
 0002:0000bf78       $xdatasym                  000000018002ef78     libvcruntime:memcpy.obj
 0002:0000bf88       $xdatasym                  000000018002ef88     libvcruntime:memset.obj
 0002:0000bf98       $unwind$__C_specific_handler 000000018002ef98     libvcruntime:riscchandler.obj
 0002:0000bfb4       $unwind$?DecompFuncInfo@FH4@@YA_JPEAEAEAUFuncInfo4@1@_KH_N@Z 000000018002efb4     libvcruntime:risctrnsctrl.obj
 0002:0000bfcc       $unwind$?UnwindNestedFrames@__FrameHandler4@@SAXPEA_KPEAUEHExceptionRecord@@PEAU_CONTEXT@@0PEAXPEAUFuncInfo4@FH4@@HHPEAUHandlerType4@5@PEAU_xDISPATCHER_CONTEXT@@E@Z 000000018002efcc     libvcruntime:risctrnsctrl.obj
 0002:0000bfe0       $unwind$?GetRangeOfTrysToCheck@__FrameHandler4@@SA?AU?$pair@Viterator@TryBlockMap4@FH4@@V123@@std@@AEAVTryBlockMap4@FH4@@HPEAU_xDISPATCHER_CONTEXT@@PEAUFuncInfo4@5@H@Z 000000018002efe0     libvcruntime:risctrnsctrl.obj
 0002:0000bffc       $unwind$__CxxFrameHandler4 000000018002effc     libvcruntime:risctrnsctrl.obj
 0002:0000c010       $unwind$??$_CallSETranslator@V__FrameHandler4@@@@YAHPEAUEHExceptionRecord@@PEA_KPEAU_CONTEXT@@PEAU_xDISPATCHER_CONTEXT@@PEAUFuncInfo4@FH4@@K1H@Z 000000018002f010     libvcruntime:risctrnsctrl.obj
 0002:0000c030       $unwind$?filt$0@?0???$_CallSETranslator@V__FrameHandler4@@@@YAHPEAUEHExceptionRecord@@PEA_KPEAU_CONTEXT@@PEAU_xDISPATCHER_CONTEXT@@PEAUFuncInfo4@FH4@@K1H@Z@4HA 000000018002f030     libvcruntime:risctrnsctrl.obj
 0002:0000c03c       $unwind$__DestructExceptionObject 000000018002f03c     libvcruntime:ehhelpers.obj
 0002:0000c05c       $unwind$__DestructExceptionObject$filt$0 000000018002f05c     libvcruntime:ehhelpers.obj
 0002:0000c05c       $unwind$?fin$1@?0??CxxCallCatchBlock@__FrameHandler4@@SAPEAXPEAU_EXCEPTION_RECORD@@@Z@4HA 000000018002f05c     libvcruntime:frame.obj
 0002:0000c068       $unwind$_CxxThrowException 000000018002f068     libvcruntime:throw.obj
 0002:0000c078       $xdatasym                  000000018002f078     libvcruntime:notify.obj
 0002:0000c084       $unwind$?StateFromIp@__FrameHandler4@@SAHPEAUFuncInfo4@FH4@@PEAU_xDISPATCHER_CONTEXT@@_K@Z 000000018002f084     libvcruntime:ehstate.obj
 0002:0000c098       $unwind$?getStartStop@UWMap4@FH4@@QEAAXHHAEAViterator@12@0@Z 000000018002f098     libvcruntime:frame.obj
 0002:0000c0b0       $unwind$?FrameUnwindToState@__FrameHandler4@@SAXPEA_KPEAU_xDISPATCHER_CONTEXT@@PEAUFuncInfo4@FH4@@H@Z 000000018002f0b0     libvcruntime:frame.obj
 0002:0000c0f8       $unwind$?CxxCallCatchBlock@__FrameHandler4@@SAPEAXPEAU_EXCEPTION_RECORD@@@Z 000000018002f0f8     libvcruntime:frame.obj
 0002:0000c154       $unwind$?IsInExceptionSpec@@YAEPEAUEHExceptionRecord@@PEBU_s_ESTypeList@@@Z 000000018002f154     libvcruntime:frame.obj
 0002:0000c170       $unwind$??$__InternalCxxFrameHandler@V__FrameHandler4@@@@YA?AW4_EXCEPTION_DISPOSITION@@PEAUEHExceptionRecord@@PEA_KPEAU_CONTEXT@@PEAU_xDISPATCHER_CONTEXT@@PEAUFuncInfo4@FH4@@H1E@Z 000000018002f170     libvcruntime:frame.obj
 0002:0000c188       $unwind$??$BuildCatchObjectHelperInternal@V__FrameHandler4@@@@YAHPEAUEHExceptionRecord@@PEAXPEAUHandlerType4@FH4@@PEBU_s_CatchableType@@@Z 000000018002f188     libvcruntime:frame.obj
 0002:0000c1c8       $unwind$??$BuildCatchObjectInternal@V__FrameHandler4@@@@YAXPEAUEHExceptionRecord@@PEAXPEAUHandlerType4@FH4@@PEBU_s_CatchableType@@@Z 000000018002f1c8     libvcruntime:frame.obj
 0002:0000c1f4       $unwind$??$FindHandler@V__FrameHandler4@@@@YAXPEAUEHExceptionRecord@@PEA_KPEAU_CONTEXT@@PEAU_xDISPATCHER_CONTEXT@@PEAUFuncInfo4@FH4@@EH1@Z 000000018002f1f4     libvcruntime:frame.obj
 0002:0000c214       $unwind$??$CatchIt@V__FrameHandler4@@@@YAXPEAUEHExceptionRecord@@PEA_KPEAU_CONTEXT@@PEAU_xDISPATCHER_CONTEXT@@PEAUFuncInfo4@FH4@@PEAUHandlerType4@4@PEBU_s_CatchableType@@PEAUTryBlockMapEntry4@4@H1EE@Z 000000018002f214     libvcruntime:frame.obj
 0002:0000c22c       $unwind$??$FindHandlerForForeignException@V__FrameHandler4@@@@YAXPEAUEHExceptionRecord@@PEA_KPEAU_CONTEXT@@PEAU_xDISPATCHER_CONTEXT@@PEAUFuncInfo4@FH4@@HH1@Z 000000018002f22c     libvcruntime:frame.obj
 0002:0000c24c       $unwind$?try_get_function@@YAPEAXW4function_id@?A0x84e3c32f@@QEBDQEBW4module_id@2@2@Z 000000018002f24c     libvcruntime:winapi_downlevel.obj
 0002:0000c24c       $unwind$?try_get_function@@YAPEAXW4function_id@?A0x391cf84c@@QEBDQEBW4module_id@2@2@Z 000000018002f24c     libucrt:winapi_thunks.obj
 0002:0000c268       $xdatasym                  000000018002f268     libvcruntime:handlers.obj
 0002:0000c288       $unwind$__acrt_call_reportfault 000000018002f288     libucrt:invalid_parameter.obj
 0002:0000c2a8       $unwind$_invalid_parameter 000000018002f2a8     libucrt:invalid_parameter.obj
 0002:0000c2bc       $unwind$_resetstkoflw      000000018002f2bc     libucrt:resetstk.obj
 0002:0000c2e0       $unwind$__stdio_common_vswprintf_s 000000018002f2e0     libucrt:output.obj
 0002:0000c2ec       $unwind$?write_string@?$string_output_adapter@_W@__crt_stdio_output@@QEBAXQEB_WHQEAHAEAV__crt_deferred_errno_cache@@@Z 000000018002f2ec     libucrt:output.obj
 0002:0000c304       $unwind$??$common_vsprintf@Vformat_validation_base@__crt_stdio_output@@_W@@YAH_KQEA_W0QEB_WQEAU__crt_locale_pointers@@QEAD@Z 000000018002f304     libucrt:output.obj
 0002:0000c324       $unwind$??$write_multiple_characters@V?$string_output_adapter@_W@__crt_stdio_output@@D@__crt_stdio_output@@YAXAEBV?$string_output_adapter@_W@0@DHQEAH@Z 000000018002f324     libucrt:output.obj
 0002:0000c330       $unwind$?state_case_type@?$output_processor@_WV?$string_output_adapter@_W@__crt_stdio_output@@V?$format_validation_base@_WV?$string_output_adapter@_W@__crt_stdio_output@@@2@@__crt_stdio_output@@AEAA_NXZ 000000018002f330     libucrt:output.obj
 0002:0000c354       $unwind$?type_case_a@?$output_processor@_WV?$string_output_adapter@_W@__crt_stdio_output@@V?$format_validation_base@_WV?$string_output_adapter@_W@__crt_stdio_output@@@2@@__crt_stdio_output@@AEAA_NXZ 000000018002f354     libucrt:output.obj
 0002:0000c364       $unwind$?write_stored_string_tchar@?$output_processor@_WV?$string_output_adapter@_W@__crt_stdio_output@@V?$format_validation_base@_WV?$string_output_adapter@_W@__crt_stdio_output@@@2@@__crt_stdio_output@@AEAA_N_W@Z 000000018002f364     libucrt:output.obj
 0002:0000c378       $unwind$??$type_case_integer_parse_into_buffer@I@?$output_processor@_WV?$string_output_adapter@_W@__crt_stdio_output@@V?$format_validation_base@_WV?$string_output_adapter@_W@__crt_stdio_output@@@2@@__crt_stdio_output@@AEAAXII_N@Z 000000018002f378     libucrt:output.obj
 0002:0000c378       $unwind$??$type_case_integer_parse_into_buffer@_K@?$output_processor@_WV?$string_output_adapter@_W@__crt_stdio_output@@V?$format_validation_base@_WV?$string_output_adapter@_W@__crt_stdio_output@@@2@@__crt_stdio_output@@AEAAX_KI_N@Z 000000018002f378     libucrt:output.obj
 0002:0000c380       $unwind$?common_exit@@YAXHW4_crt_exit_cleanup_mode@@W4_crt_exit_return_mode@@@Z 000000018002f380     libucrt:exit.obj
 0002:0000c38c       $unwind$??R<lambda_6e4b09c48022b2350581041d5f6b0c4c>@@QEBA@XZ 000000018002f38c     libucrt:exit.obj
 0002:0000c3ac       $unwind$??$?RV<lambda_d80eeec6fff315bfe5c115232f3240e3>@@AEAV<lambda_6e4b09c48022b2350581041d5f6b0c4c>@@V<lambda_2358e3775559c9db80273638284d5e45>@@@?$__crt_seh_guarded_call@X@@QEAAX$$QEAV<lambda_d80eeec6fff315bfe5c115232f3240e3>@@AEAV<lambda_6e4b09c48022b2350581041d5f6b0c4c>@@$$QEAV<lambda_2358e3775559c9db80273638284d5e45>@@@Z 000000018002f3ac     libucrt:exit.obj
 0002:0000c3d0       $unwind$??$free_environment@D@@YAXQEAPEAD@Z 000000018002f3d0     libucrt:environment_initialization.obj
 0002:0000c3d0       $unwind$??$free_environment@_W@@YAXQEAPEA_W@Z 000000018002f3d0     libucrt:environment_initialization.obj
 0002:0000c3dc       $unwind$??$create_environment@D@@YAQEAPEADQEAD@Z 000000018002f3dc     libucrt:environment_initialization.obj
 0002:0000c3f4       $unwind$_register_onexit_function 000000018002f3f4     libucrt:onexit.obj
 0002:0000c3fc       $unwind$_execute_onexit_table 000000018002f3fc     libucrt:onexit.obj
 0002:0000c404       $unwind$??R<lambda_22ebabd17bc4fa466a2aca6d8deb888d>@@QEBAHXZ 000000018002f404     libucrt:onexit.obj
 0002:0000c41c       $unwind$??$?RV<lambda_638799b9deba96c50f710eeac98168cd>@@AEAV<lambda_22ebabd17bc4fa466a2aca6d8deb888d>@@V<lambda_a6f7d7db0129f75315ebf26d50c089f1>@@@?$__crt_seh_guarded_call@H@@QEAAH$$QEAV<lambda_638799b9deba96c50f710eeac98168cd>@@AEAV<lambda_22ebabd17bc4fa466a2aca6d8deb888d>@@$$QEAV<lambda_a6f7d7db0129f75315ebf26d50c089f1>@@@Z 000000018002f41c     libucrt:onexit.obj
 0002:0000c440       $unwind$??$?RV<lambda_7777bce6b2f8c936911f934f8298dc43>@@AEAV<lambda_f03950bc5685219e0bcd2087efbe011e>@@V<lambda_3883c3dff614d5e0c5f61bb1ac94921c>@@@?$__crt_seh_guarded_call@H@@QEAAH$$QEAV<lambda_7777bce6b2f8c936911f934f8298dc43>@@AEAV<lambda_f03950bc5685219e0bcd2087efbe011e>@@$$QEAV<lambda_3883c3dff614d5e0c5f61bb1ac94921c>@@@Z 000000018002f440     libucrt:onexit.obj
 0002:0000c464       $unwind$_query_new_handler 000000018002f464     libucrt:new_handler.obj
 0002:0000c484       $unwind$terminate          000000018002f484     libucrt:terminate.obj
 0002:0000c4a4       $unwind$??$parse_integer@KV?$c_string_character_source@_W@__crt_strtox@@@__crt_strtox@@YAKQEAU__crt_locale_pointers@@V?$c_string_character_source@_W@0@H_N@Z 000000018002f4a4     libucrt:atox.obj
 0002:0000c4c0       $xdatasym                  000000018002f4c0     libucrt:strncmp.obj
 0002:0000c4c4       $unwind$?construct_ptd_array@@YAXQEAU__acrt_ptd@@@Z 000000018002f4c4     libucrt:per_thread_data.obj
 0002:0000c4cc       $unwind$?destroy_ptd_array@@YAXQEAU__acrt_ptd@@@Z 000000018002f4cc     libucrt:per_thread_data.obj
 0002:0000c4d4       $unwind$??$?RV<lambda_0ae27a3a962d80f24befdcbee591983d>@@AEAV<lambda_8d0ee55de4b1038c4002e0adecdf1839>@@V<lambda_dc504788e8f1664fe9b84e20bfb512f2>@@@?$__crt_seh_guarded_call@X@@QEAAX$$QEAV<lambda_0ae27a3a962d80f24befdcbee591983d>@@AEAV<lambda_8d0ee55de4b1038c4002e0adecdf1839>@@$$QEAV<lambda_dc504788e8f1664fe9b84e20bfb512f2>@@@Z 000000018002f4d4     libucrt:per_thread_data.obj
 0002:0000c4f8       $unwind$??$?RV<lambda_aa87e3671a710a21b5dc78c0bdf72e11>@@AEAV<lambda_92619d2358a28f41a33ba319515a20b9>@@V<lambda_6992ecaafeb10aed2b74cb1fae11a551>@@@?$__crt_seh_guarded_call@X@@QEAAX$$QEAV<lambda_aa87e3671a710a21b5dc78c0bdf72e11>@@AEAV<lambda_92619d2358a28f41a33ba319515a20b9>@@$$QEAV<lambda_6992ecaafeb10aed2b74cb1fae11a551>@@@Z 000000018002f4f8     libucrt:per_thread_data.obj
 0002:0000c51c       $unwind$??$?RV<lambda_f2e299630e499de9f9a165e60fcd3db5>@@AEAV<lambda_2ae9d31cdba2644fcbeaf08da7c24588>@@V<lambda_40d01ff24d0e7b3814fdbdcee8eab3c7>@@@?$__crt_seh_guarded_call@X@@QEAAX$$QEAV<lambda_f2e299630e499de9f9a165e60fcd3db5>@@AEAV<lambda_2ae9d31cdba2644fcbeaf08da7c24588>@@$$QEAV<lambda_40d01ff24d0e7b3814fdbdcee8eab3c7>@@@Z 000000018002f51c     libucrt:per_thread_data.obj
 0002:0000c540       $unwind$??$?RV<lambda_2d41944a1d46af3157314b8a01080d33>@@AEAV<lambda_8f455de75cd7d7f24b4096f044d8b9e6>@@V<lambda_aa500f224e6afead328df44964fe2772>@@@?$__crt_seh_guarded_call@X@@QEAAX$$QEAV<lambda_2d41944a1d46af3157314b8a01080d33>@@AEAV<lambda_8f455de75cd7d7f24b4096f044d8b9e6>@@$$QEAV<lambda_aa500f224e6afead328df44964fe2772>@@@Z 000000018002f540     libucrt:per_thread_data.obj
 0002:0000c564       $unwind$__acrt_initialize_winapi_thunks 000000018002f564     libucrt:winapi_thunks.obj
 0002:0000c56c       $unwind$__acrt_fp_format   000000018002f56c     libucrt:cvt.obj
 0002:0000c584       $unwind$?fp_format_e_internal@@YAHQEAD_KH_NIQEAU_strflt@@2QEAU__crt_locale_pointers@@@Z 000000018002f584     libucrt:cvt.obj
 0002:0000c59c       $unwind$?fp_format_a@@YAHQEBNPEAD_KQEAD2H_NIQEAU__crt_locale_pointers@@W4__acrt_rounding_mode@@@Z 000000018002f59c     libucrt:cvt.obj
 0002:0000c5b8       $unwind$?fp_format_g@@YAHQEBNQEAD_K12H_NIQEAU__crt_locale_pointers@@@Z 000000018002f5b8     libucrt:cvt.obj
 0002:0000c5cc       $unwind$__acrt_uninitialize_locale 000000018002f5cc     libucrt:wsetlocale.obj
 0002:0000c5cc       $unwind$__acrt_get_sigabrt_handler 000000018002f5cc     libucrt:signal.obj
 0002:0000c5d4       $unwind$??$?RV<lambda_410d79af7f07d98d83a3f525b3859a53>@@AEAV<lambda_3e16ef9562a7dcce91392c22ab16ea36>@@V<lambda_38119f0e861e05405d8a144b9b982f0a>@@@?$__crt_seh_guarded_call@X@@QEAAX$$QEAV<lambda_410d79af7f07d98d83a3f525b3859a53>@@AEAV<lambda_3e16ef9562a7dcce91392c22ab16ea36>@@$$QEAV<lambda_38119f0e861e05405d8a144b9b982f0a>@@@Z 000000018002f5d4     libucrt:wsetlocale.obj
 0002:0000c5fc       $unwind$__acrt_initialize_lowio 000000018002f5fc     libucrt:ioinit.obj
 0002:0000c61c       $unwind$??$common_expand_argv_wildcards@D@@YAHQEAPEADQEAPEAPEAD@Z 000000018002f61c     libucrt:argv_wildcards.obj
 0002:0000c634       $unwind$??$copy_and_add_argument_to_buffer@D@@YAHQEBD0_KAEAV?$argument_list@D@?A0x5f5c8891@@@Z 000000018002f634     libucrt:argv_wildcards.obj
 0002:0000c650       $unwind$??$expand_argument_wildcards@D@@YAHQEAD0AEAV?$argument_list@D@?A0x5f5c8891@@@Z 000000018002f650     libucrt:argv_wildcards.obj
 0002:0000c674       $unwind$__acrt_GetModuleFileNameA 000000018002f674     libucrt:getmodulefilenamea.obj
 0002:0000c690       $unwind$_setmbcp_nolock    000000018002f690     libucrt:mbctype.obj
 0002:0000c6b0       $unwind$?update_thread_multibyte_data_internal@@YAPEAU__crt_multibyte_data@@QEAU__acrt_ptd@@QEAPEAU1@@Z 000000018002f6b0     libucrt:mbctype.obj
 0002:0000c6d8       $unwind$?setmbcp_internal@@YAHH_NQEAU__acrt_ptd@@QEAPEAU__crt_multibyte_data@@@Z 000000018002f6d8     libucrt:mbctype.obj
 0002:0000c6e8       $unwind$?setSBUpLow@@YAXPEAU__crt_multibyte_data@@@Z 000000018002f6e8     libucrt:mbctype.obj
 0002:0000c704       $unwind$??$?RV<lambda_efdfa57d1f175319df784efa44bb7b81>@@AEAV<lambda_5f0a4c1567f8adc6734073e5d1e1b35c>@@V<lambda_2e8a7d3640ea6ccb4c2413664c2db6fd>@@@?$__crt_seh_guarded_call@X@@QEAAX$$QEAV<lambda_efdfa57d1f175319df784efa44bb7b81>@@AEAV<lambda_5f0a4c1567f8adc6734073e5d1e1b35c>@@$$QEAV<lambda_2e8a7d3640ea6ccb4c2413664c2db6fd>@@@Z 000000018002f704     libucrt:mbctype.obj
 0002:0000c728       $unwind$__acrt_WideCharToMultiByte 000000018002f728     libucrt:widechartomultibyte.obj
 0002:0000c734       $unwind$raise              000000018002f734     libucrt:signal.obj
 0002:0000c770       $unwind$??$?RV<lambda_450d765d439847d4c735a33c368b5fc0>@@AEAV<lambda_44731a7d0e6d81c3e6aa82d741081786>@@V<lambda_601a2a7da3b7a96e9554ac7215c4b07c>@@@?$__crt_seh_guarded_call@P6AXH@Z@@QEAAP6AXH@Z$$QEAV<lambda_450d765d439847d4c735a33c368b5fc0>@@AEAV<lambda_44731a7d0e6d81c3e6aa82d741081786>@@$$QEAV<lambda_601a2a7da3b7a96e9554ac7215c4b07c>@@@Z 000000018002f770     libucrt:signal.obj
 0002:0000c794       $unwind$?common_flush_all@@YAH_N@Z 000000018002f794     libucrt:fflush.obj
 0002:0000c79c       $unwind$??$?RV<lambda_842d9ff0dc9ef11c61343bbaebe7f885>@@AEAV<lambda_c5860995281e5c4ce005b3de8f5874ee>@@V<lambda_d90129c13df834fdcbf8d2b88dafcf2d>@@@?$__crt_seh_guarded_call@X@@QEAAX$$QEAV<lambda_842d9ff0dc9ef11c61343bbaebe7f885>@@AEAV<lambda_c5860995281e5c4ce005b3de8f5874ee>@@$$QEAV<lambda_d90129c13df834fdcbf8d2b88dafcf2d>@@@Z 000000018002f79c     libucrt:fflush.obj
 0002:0000c7c0       $unwind$??$?RV<lambda_886d6c58226a84441f68b9f2b8217b83>@@AEAV<lambda_ab61a845afdef5b7c387490eaf3616ee>@@V<lambda_f7f22ab5edc0698d5f6905b0d3f44752>@@@?$__crt_seh_guarded_call@X@@QEAAX$$QEAV<lambda_886d6c58226a84441f68b9f2b8217b83>@@AEAV<lambda_ab61a845afdef5b7c387490eaf3616ee>@@$$QEAV<lambda_f7f22ab5edc0698d5f6905b0d3f44752>@@@Z 000000018002f7c0     libucrt:fflush.obj
 0002:0000c7e8       $unwind$__acrt_update_thread_locale_data 000000018002f7e8     libucrt:locale_refcounting.obj
 0002:0000c80c       $unwind$?__mbrtowc_utf8@__crt_mbstring@@YA_KPEA_WPEBD_KPEAU_Mbstatet@@@Z 000000018002f80c     libucrt:mbrtowc.obj
 0002:0000c814       $unwind$?__mbsrtowcs_utf8@__crt_mbstring@@YA_KPEA_WPEAPEBD_KPEAU_Mbstatet@@@Z 000000018002f814     libucrt:mbrtowc.obj
 0002:0000c82c       $unwind$__acrt_fltout      000000018002f82c     libucrt:cfout.obj
 0002:0000c84c       $unwind$?divide@__crt_strtox@@YA_KAEAUbig_integer@1@AEBU21@@Z 000000018002f84c     libucrt:cfout.obj
 0002:0000c864       $chain$0$?divide@__crt_strtox@@YA_KAEAUbig_integer@1@AEBU21@@Z 000000018002f864     libucrt:cfout.obj
 0002:0000c878       $chain$1$?divide@__crt_strtox@@YA_KAEAUbig_integer@1@AEBU21@@Z 000000018002f878     libucrt:cfout.obj
 0002:0000c888       $unwind$_fcloseall         000000018002f888     libucrt:closeall.obj
 0002:0000c8ac       $unwind$__acrt_locale_free_monetary 000000018002f8ac     libucrt:initmon.obj
 0002:0000c8b4       $unwind$__acrt_locale_free_time 000000018002f8b4     libucrt:inittime.obj
 0002:0000c8c4       $unwind$__acrt_GetStringTypeA 000000018002f8c4     libucrt:getstringtypea.obj
 0002:0000c8ec       $unwind$__acrt_lowio_destroy_handle_array 000000018002f8ec     libucrt:osfinfo.obj
 0002:0000c8fc       $unwind$__acrt_lowio_ensure_fh_exists 000000018002f8fc     libucrt:osfinfo.obj
 0002:0000c928       $unwind$qsort              000000018002f928     libucrt:qsort.obj
 0002:0000c940       $chain$4$qsort             000000018002f940     libucrt:qsort.obj
 0002:0000c964       $chain$5$qsort             000000018002f964     libucrt:qsort.obj
 0002:0000c974       $unwind$strpbrk            000000018002f974     libucrt:strpbrk.obj
 0002:0000c984       $unwind$fallbackMethod     000000018002f984     libucrt:strpbrk.obj
 0002:0000c994       $unwind$__acrt_LCMapStringA 000000018002f994     libucrt:lcmapstringa.obj
 0002:0000c9a4       $unwind$?__acrt_LCMapStringA_stat@@YAHPEAU__crt_locale_pointers@@PEB_WKPEBDHPEADHHH@Z 000000018002f9a4     libucrt:lcmapstringa.obj
 0002:0000c9cc       $unwind$_close             000000018002f9cc     libucrt:close.obj
 0002:0000c9cc       $unwind$_commit            000000018002f9cc     libucrt:commit.obj
 0002:0000c9d4       $unwind$??$?RV<lambda_a37b2b86f63e897a80ea819b0eb08c01>@@AEAV<lambda_38ce7e780aa69e748d6df282ebc68efe>@@V<lambda_99fb1378e971ab6e7edea83e3a7a83a2>@@@?$__crt_seh_guarded_call@H@@QEAAH$$QEAV<lambda_a37b2b86f63e897a80ea819b0eb08c01>@@AEAV<lambda_38ce7e780aa69e748d6df282ebc68efe>@@$$QEAV<lambda_99fb1378e971ab6e7edea83e3a7a83a2>@@@Z 000000018002f9d4     libucrt:commit.obj
 0002:0000c9f8       $unwind$_write             000000018002f9f8     libucrt:write.obj
 0002:0000ca28       $unwind$_write_nolock      000000018002fa28     libucrt:write.obj
 0002:0000ca40       $unwind$?write_double_translated_ansi_nolock@@YA?AUwrite_result@?A0x17268360@@HQEBDI@Z 000000018002fa40     libucrt:write.obj
 0002:0000ca64       $unwind$?write_text_ansi_nolock@@YA?AUwrite_result@?A0x17268360@@HQEBDI@Z 000000018002fa64     libucrt:write.obj
 0002:0000ca64       $unwind$?write_text_utf16le_nolock@@YA?AUwrite_result@?A0x17268360@@HQEBDI@Z 000000018002fa64     libucrt:write.obj
 0002:0000ca84       $unwind$?write_text_utf8_nolock@@YA?AUwrite_result@?A0x17268360@@HQEBDI@Z 000000018002fa84     libucrt:write.obj
 0002:0000caa8       $xdatasym                  000000018002faa8     libucrt:log10.obj
 0002:0000cab4       $unwind$__acrt_fenv_set_control 000000018002fab4     libucrt:_fenvutils.obj
 0002:0000cac4       $unwind$fclose             000000018002fac4     libucrt:fclose.obj
 0002:0000cae8       $unwind$_putwch_nolock     000000018002fae8     libucrt:putwch.obj
 0002:0000caf0       $unwind$common_control87   000000018002faf0     libucrt:ieee.obj
 0002:0000cb1c       $unwind$_call_matherr      000000018002fb1c     libucrt:libm_error.obj
 0002:0000cb24       $unwind$_handle_error      000000018002fb24     libucrt:libm_error.obj
 0002:0000cb44       $unwind$__acrt_initialize_fma3 000000018002fb44     libucrt:fma3_available.obj
 0002:0000cb4c       $unwind$_log_special_common 000000018002fb4c     libucrt:log_special.obj
 0002:0000cb58       $unwind$??$?RV<lambda_751a882b2c74d4b022dec766aa51a29a>@@AEAV<lambda_628dfdc04ba53c8bfc02c9951375f3f5>@@V<lambda_f6c7be5f7998530c34de24c7437d6b54>@@@?$__crt_seh_guarded_call@H@@QEAAH$$QEAV<lambda_751a882b2c74d4b022dec766aa51a29a>@@AEAV<lambda_628dfdc04ba53c8bfc02c9951375f3f5>@@$$QEAV<lambda_f6c7be5f7998530c34de24c7437d6b54>@@@Z 000000018002fb58     libucrt:close.obj
 0002:0000cb80       $xdatasym                  000000018002fb80     libucrt:fpsr.obj
 0002:0000cb88       $unwind$_raise_exc_ex      000000018002fb88     libucrt:fpexcept.obj
 0002:0000cb9c       $unwind$_ctrlfp            000000018002fb9c     libucrt:fpctrl.obj
 0002:0000cbc4       $unwind$_IsNonwritableInCurrentImage 000000018002fbc4     LIBCMT:pesect.obj
 0002:0000cd50       .edata                     000000018002fd50     OPOSCoinDispenser.exp
 0002:0000cd78       rgpv                       000000018002fd78     OPOSCoinDispenser.exp
 0002:0000cd88       rgszName                   000000018002fd88     OPOSCoinDispenser.exp
 0002:0000cd98       rgwOrd                     000000018002fd98     OPOSCoinDispenser.exp
 0002:0000cda0       szName                     000000018002fda0     OPOSCoinDispenser.exp
 0002:0000cdb6       $N00001                    000000018002fdb6     OPOSCoinDispenser.exp
 0002:0000cdc6       $N00002                    000000018002fdc6     OPOSCoinDispenser.exp
 0002:0000cdd8       $N00003                    000000018002fdd8     OPOSCoinDispenser.exp
 0002:0000cdea       $N00004                    000000018002fdea     OPOSCoinDispenser.exp
 0002:0000d71a       .idata$6                   000000018003071a     kernel32:KERNEL32.dll
 0002:0000d932       .idata$6                   0000000180030932     user32:USER32.dll
 0002:0000da66       .idata$6                   0000000180030a66     gdi32:GDI32.dll
 0002:0000db0c       .idata$6                   0000000180030b0c     advapi32:ADVAPI32.dll
 0002:0000dc28       .idata$6                   0000000180030c28     ole32:ole32.dll
 0002:0000dc32       .idata$6                   0000000180030c32     oleaut32:OLEAUT32.dll
 0003:000001c0       ?ObjectMap@@3PAU_ATL_OBJMAP_ENTRY30@ATL@@A 00000001800321c0     CoinDispenser.obj
 0003:000002e0       ?s_SOMethodNames@@3PAPEADA 00000001800322e0     CoinDispenserImpl.obj
 0003:00000380       ?s_RequiredMethodsPerRelease@@3PAHA 0000000180032380     CoinDispenserImpl.obj
 0003:000003f0       ?__vcrt_flsindex@@3KA      00000001800323f0     libvcruntime:per_thread_data.obj
 0003:00000400       ?errno_no_memory@@3HA      0000000180032400     libucrt:errno.obj
 0003:00000404       ?doserrno_no_memory@@3KA   0000000180032404     libucrt:errno.obj
 0003:00000410       ?__acrt_flsindex@@3KA      0000000180032410     libucrt:per_thread_data.obj
 0003:000008d0       _mbctypes                  00000001800328d0     libucrt:mbctype.obj
 0003:000009e0       _mbcasemaps                00000001800329e0     libucrt:mbctype.obj
 0003:00000ae0       ?__rgctypeflag@@3PADA      0000000180032ae0     libucrt:mbctype.obj
 0003:00000af0       ?__rgcode_page_info@@3PAUcode_page_info@@A 0000000180032af0     libucrt:mbctype.obj
 0003:00000d90       ?dazSupported@?1??common_control87@@9@9 0000000180032d90     libucrt:ieee.obj
 0003:00000da0       ?__dcrt_lowio_console_output_handle@@3PEAXEA 0000000180032da0     libucrt:initcon.obj
 0003:00000db0       ?dazSupported@?1??_ctrlfp@@9@9 0000000180032db0     libucrt:fpctrl.obj
 0003:00001000       ?is_initialized_as_dll@@3_NA 0000000180033000     LIBCMT:utility.obj
 0003:00001001       ?module_local_atexit_table_initialized@@3_NA 0000000180033001     LIBCMT:utility.obj
 0003:00001008       ?module_local_atexit_table@@3U_onexit_table_t@@A 0000000180033008     LIBCMT:utility.obj
 0003:00001020       ?module_local_at_quick_exit_table@@3U_onexit_table_t@@A 0000000180033020     LIBCMT:utility.obj
 0003:00001038       ?g_tss_cv@@3U_RTL_CONDITION_VARIABLE@@A 0000000180033038     LIBCMT:thread_safe_statics.obj
 0003:00001040       ?g_tss_event@@3PEAXEA      0000000180033040     LIBCMT:thread_safe_statics.obj
 0003:00001048       ?g_tss_mutex@@3U_RTL_CRITICAL_SECTION@@A 0000000180033048     LIBCMT:thread_safe_statics.obj
 0003:00001070       ?g_sleep_condition_variable_cs@@3P6AHPEAU_RTL_CONDITION_VARIABLE@@PEAU_RTL_CRITICAL_SECTION@@K@ZEA 0000000180033070     LIBCMT:thread_safe_statics.obj
 0003:00001078       ?g_wake_all_condition_variable@@3P6AXPEAU_RTL_CONDITION_VARIABLE@@@ZEA 0000000180033078     LIBCMT:thread_safe_statics.obj
 0003:00001080       GS_ExceptionRecord         0000000180033080     LIBCMT:gs_report.obj
 0003:00001120       GS_ContextRecord           0000000180033120     LIBCMT:gs_report.obj
 0003:000015f4       ?__proc_attached@@3HA      00000001800335f4     LIBCMT:dll_dllmain.obj
 0003:00001698       ?AllocateData@@3P6APEAUAtlThunkData_t@@XZEA 0000000180033698     atls:atlthunk.obj
 0003:000016a0       ?InitData@@3P6AXPEAUAtlThunkData_t@@PEAX_K@ZEA 00000001800336a0     atls:atlthunk.obj
 0003:000016a8       ?DataToCode@@3P6AP6A_JPEAUHWND__@@I_K_J@ZPEAUAtlThunkData_t@@@ZEA 00000001800336a8     atls:atlthunk.obj
 0003:000016b0       ?FreeData@@3P6AXPEAUAtlThunkData_t@@@ZEA 00000001800336b0     atls:atlthunk.obj
 0003:000016b8       ?Initialized@@3_NA         00000001800336b8     atls:atlthunk.obj
 0003:000016d0       ?__vcrt_startup_thread_ptd@@3U__vcrt_ptd@@A 00000001800336d0     libvcruntime:per_thread_data.obj
 0003:00001750       __vcrt_lock_table          0000000180033750     libvcruntime:locks.obj
 0003:00001778       __vcrt_locks_initialized   0000000180033778     libvcruntime:locks.obj
 0003:000017c0       ?heap@@3V_HeapManager@@A   00000001800337c0     libvcruntime:undname.obj
 0003:000017e8       ?module_handles@@3PAPEAUHINSTANCE__@@A 00000001800337e8     libvcruntime:winapi_downlevel.obj
 0003:00001800       ?function_pointers@@3PAPEAXA 0000000180033800     libvcruntime:winapi_downlevel.obj
 0003:00001828       ?__acrt_invalid_parameter_handler@@3V?$dual_state_global@P6AXPEB_W00I_K@Z@__crt_state_management@@A 0000000180033828     libucrt:invalid_parameter.obj
 0003:00001830       ?c_termination_complete@@3JA 0000000180033830     libucrt:exit.obj
 0003:00001838       ?thread_local_exit_callback_func@@3P6AXPEAXK0@ZEA 0000000180033838     libucrt:exit.obj
 0003:00001850       ?program_name@?1???$common_configure_argv@D@@YAHW4_crt_argv_mode@@@Z@4PADA 0000000180033850     libucrt:argv_parsing.obj
 0003:000019a8       ?__acrt_new_handler@@3V?$dual_state_global@P6AH_K@Z@__crt_state_management@@A 00000001800339a8     libucrt:new_handler.obj
 0003:000019b0       ?module_handles@@3PAPEAUHINSTANCE__@@A 00000001800339b0     libucrt:winapi_thunks.obj
 0003:00001a50       ?encoded_function_pointers@@3PAPEAXA 0000000180033a50     libucrt:winapi_thunks.obj
 0003:00001b60       ?internal_state@?1??_mbtowc_l@@9@4U_Mbstatet@@A 0000000180033b60     libucrt:mbtowc.obj
 0003:00001b78       ?enable_percent_n@@3_KA    0000000180033b78     libucrt:printf_count_output.obj
 0003:00001fb0       ?__acrt_lock_table@@3PAU_RTL_CRITICAL_SECTION@@A 0000000180033fb0     libucrt:locks.obj
 0003:000021e0       ?__acrt_locks_initialized@@3IA 00000001800341e0     libucrt:locks.obj
 0003:00002200       ?fSystemSet@@3HA           0000000180034200     libucrt:mbctype.obj
 0003:00002204       ?initialized@?1??__acrt_initialize_multibyte@@9@4_NA 0000000180034204     libucrt:mbctype.obj
 0003:00002240       ?ctrlc_action@@3V?$dual_state_global@P6AXH@Z@__crt_state_management@@A 0000000180034240     libucrt:signal.obj
 0003:00002248       ?ctrlbreak_action@@3V?$dual_state_global@P6AXH@Z@__crt_state_management@@A 0000000180034248     libucrt:signal.obj
 0003:00002250       ?abort_action@@3V?$dual_state_global@P6AXH@Z@__crt_state_management@@A 0000000180034250     libucrt:signal.obj
 0003:00002258       ?term_action@@3V?$dual_state_global@P6AXH@Z@__crt_state_management@@A 0000000180034258     libucrt:signal.obj
 0003:00002260       ?user_matherr@@3V?$dual_state_global@P6AHPEAU_exception@@@Z@__crt_state_management@@A 0000000180034260     libucrt:matherr.obj
 0003:00002268       ?__acrt_global_new_mode@@3V?$dual_state_global@J@__crt_state_management@@A 0000000180034268     libucrt:new_mode.obj
 0003:00002278       ?internal_pst@?1??__mbrtoc32_utf8@__crt_mbstring@@YA_KPEA_UPEBD_KPEAU_Mbstatet@@@Z@4U3@A 0000000180034278     libucrt:mbrtoc32.obj
 0003:00002280       ?__acrt_app_type@@3W4_crt_app_type@@A 0000000180034280     libucrt:report_runtime_error.obj
 0005:00000000       MoveSmall                  0000000180037000     libvcruntime:memcpy.obj
 0005:00000050       MsetTab                    0000000180037050     libvcruntime:memset.obj
 0006:00000220       $R000000                   0000000180038220     CoinDispenser.res
 0006:00000bc8       $R0009A8                   0000000180038bc8     CoinDispenser.res
 0006:00000cb0       $R000A90                   0000000180038cb0     CoinDispenser.res
 0006:00000f18       $R000CF8                   0000000180038f18     CoinDispenser.res
 0006:00001498       $R001278                   0000000180039498     CoinDispenser.res
 0006:00003b58       $R003938                   000000018003bb58     CoinDispenser.res
 0006:00003b98       $R003978                   000000018003bb98     CoinDispenser.res
