 OPOSPOSPower

 Timestamp is 61a75836 (Wed Dec  1 20:10:46 2021)

 Preferred load address is 0000000180000000

 Start         Length     Name                   Class
 0001:00000000 000000c0H .text$di                CODE
 0001:000000c0 00023910H .text$mn                CODE
 0001:000239d0 00000040H .text$mn$00             CODE
 0001:00023a10 00000660H .text$x                 CODE
 0001:00024070 00000078H .text$yd                CODE
 0002:00000000 00000638H .idata$5                DATA
 0002:00000638 00000030H .00cfg                  DATA
 0002:00000668 00000008H .CRT$XCA                DATA
 0002:00000670 00000008H .CRT$XCL                DATA
 0002:00000678 00000020H .CRT$XCU                DATA
 0002:00000698 00000008H .CRT$XCZ                DATA
 0002:000006a0 00000008H .CRT$XIA                DATA
 0002:000006a8 00000020H .CRT$XIC                DATA
 0002:000006c8 00000008H .CRT$XIZ                DATA
 0002:000006d0 00000008H .CRT$XLA                DATA
 0002:000006d8 00000008H .CRT$XLZ                DATA
 0002:000006e0 00000008H .CRT$XPA                DATA
 0002:000006e8 00000010H .CRT$XPX                DATA
 0002:000006f8 00000008H .CRT$XPXA               DATA
 0002:00000700 00000008H .CRT$XPZ                DATA
 0002:00000708 00000008H .CRT$XTA                DATA
 0002:00000710 00000010H .CRT$XTZ                DATA
 0002:00000718 00000000H .gehcont$y              DATA
 0002:00000718 00000000H .gfids$y                DATA
 0002:00000720 0000a4e0H .rdata                  DATA
 0002:0000ac00 00000000H .rdata$CastGuardVftablesA DATA
 0002:0000ac00 00000000H .rdata$CastGuardVftablesC DATA
 0002:0000ac00 00000028H .rdata$T                DATA
 0002:0000ac28 00000274H .rdata$r                DATA
 0002:0000ae9c 00000048H .rdata$voltmd           DATA
 0002:0000aee4 00000434H .rdata$zzzdbg           DATA
 0002:0000b318 00000008H .rtc$IAA                DATA
 0002:0000b320 00000008H .rtc$IZZ                DATA
 0002:0000b328 00000008H .rtc$TAA                DATA
 0002:0000b330 00000008H .rtc$TZZ                DATA
 0002:0000b338 00000004H .tls                    DATA
 0002:0000b33c 00000004H .tls$                   DATA
 0002:0000b340 00000008H .tls$ZZZ                DATA
 0002:0000b348 00001900H .xdata                  DATA
 0002:0000cc48 00000150H .xdata$x                DATA
 0002:0000cd98 00000008H ATL$__a                 DATA
 0002:0000cda0 00000010H ATL$__z                 DATA
 0002:0000cdb0 000000acH .edata                  DATA
 0002:0000ce5c 00000078H .idata$2                DATA
 0002:0000ced4 00000014H .idata$3                DATA
 0002:0000cee8 00000638H .idata$4                DATA
 0002:0000d520 00000c5cH .idata$6                DATA
 0003:00000000 00000d88H .data                   DATA
 0003:00000d88 000000a8H .data$r                 DATA
 0003:00000e30 00000020H .data$rs                DATA
 0003:00000e50 000013ecH .bss                    DATA
 0004:00000000 00002028H .pdata                  DATA
 0005:00000000 000000f4H _RDATA                  DATA
 0006:00000000 00000220H .rsrc$01                DATA
 0006:00000220 000043d0H .rsrc$02                DATA

  Address         Publics by Value              Rva+Base               Lib:Object

 0000:00000000       __x64_code_ranges_to_entry_points 0000000000000000     <absolute>
 0000:00000000       __x64_code_ranges_to_entry_points_count 0000000000000000     <absolute>
 0000:00000000       __guard_longjmp_table      0000000000000000     <absolute>
 0000:00000000       __guard_fids_count         0000000000000000     <absolute>
 0000:00000000       __arm64x_extra_rfe_table   0000000000000000     <absolute>
 0000:00000000       __arm64x_redirection_metadata 0000000000000000     <absolute>
 0000:00000000       __guard_iat_table          0000000000000000     <absolute>
 0000:00000000       __hybrid_code_map          0000000000000000     <absolute>
 0000:00000000       __arm64x_extra_rfe_table_size 0000000000000000     <absolute>
 0000:00000000       __guard_iat_count          0000000000000000     <absolute>
 0000:00000000       ___safe_se_handler_count   0000000000000000     <absolute>
 0000:00000000       __guard_longjmp_count      0000000000000000     <absolute>
 0000:00000000       ___safe_se_handler_table   0000000000000000     <absolute>
 0000:00000000       __dynamic_value_reloc_table 0000000000000000     <absolute>
 0000:00000000       __hybrid_auxiliary_iat     0000000000000000     <absolute>
 0000:00000000       __hybrid_auxiliary_iat_copy 0000000000000000     <absolute>
 0000:00000000       __AbsoluteZero             0000000000000000     <absolute>
 0000:00000000       __guard_eh_cont_count      0000000000000000     <absolute>
 0000:00000000       __guard_check_icall_a64n_fptr 0000000000000000     <absolute>
 0000:00000000       __guard_fids_table         0000000000000000     <absolute>
 0000:00000000       __arm64x_redirection_metadata_count 0000000000000000     <absolute>
 0000:00000000       __enclave_config           0000000000000000     <absolute>
 0000:00000000       __guard_eh_cont_table      0000000000000000     <absolute>
 0000:00000000       __arm64x_native_entrypoint 0000000000000000     <absolute>
 0000:00000000       __hybrid_code_map_count    0000000000000000     <absolute>
 0000:00000100       __guard_flags              0000000000000100     <absolute>
 0000:00000000       __ImageBase                0000000180000000     <linker-defined>
 0001:000000c0       ?DupWide@_CW@@AEAAXXZ      00000001800010c0 f   CWString.obj
 0001:000000e8       ?cw_dup@@YAXPEBDAEAHAEAPEA_W1@Z 00000001800010e8 f   CWString.obj
 0001:000001c8       ?cw_memcpy@@YAHPEA_WPEBDH@Z 00000001800011c8 f   CWString.obj
 0001:00000214       ?cw_strcpy@@YAHPEA_WPEBD@Z 0000000180001214 f   CWString.obj
 0001:00000228       ??0CAtlComModule@ATL@@QEAA@XZ 0000000180001228 f i OposVariant.obj
 0001:000002a8       ??0CAtlWinModule@ATL@@QEAA@XZ 00000001800012a8 f i OposVariant.obj
 0001:00000314       ??0OposDispParms@@QEAA@PEAVOposVariant@@H@Z 0000000180001314 f   OposVariant.obj
 0001:000003bc       ??1OposDispParms@@QEAA@XZ  00000001800013bc f   OposVariant.obj
 0001:000003d4       ??_Estringdispid@CComTypeInfoHolder@ATL@@QEAAPEAXI@Z 00000001800013d4 f i OposVariant.obj
 0001:00000478       ?AtlWinModuleTerm@ATL@@YAJPEAU_ATL_WIN_MODULE70@1@PEAUHINSTANCE__@@@Z 0000000180001478 f i OposVariant.obj
 0001:00000528       ?ChangeBSTR@OposVariant@@QEAAXPEAPEA_WAEAJ@Z 0000000180001528 f   OposVariant.obj
 0001:00000588       ?ChangeLONG@OposVariant@@QEAAXPEAJAEAJ@Z 0000000180001588 f   OposVariant.obj
 0001:000005e4       ?GetLONG@OposVariant@@QEAAJXZ 00000001800015e4 f   OposVariant.obj
 0001:00000608       ?SetBSTR@OposVariant@@QEAAXPEA_WAEAJ@Z 0000000180001608 f   OposVariant.obj
 0001:00000648       ?SetBSTR_Copy@OposVariant@@QEAAXPEA_WAEAJ@Z 0000000180001648 f   OposVariant.obj
 0001:000006b8       ?SetBSTR_InOutPtr@OposVariant@@QEAA_NPEAPEA_WAEAJ@Z 00000001800016b8 f   OposVariant.obj
 0001:00000708       ?SetDispatch_Ptr@OposVariant@@QEAAXPEAUIDispatch@@AEAJ@Z 0000000180001708 f   OposVariant.obj
 0001:00000760       ?SetLONG@OposVariant@@QEAAXJ@Z 0000000180001760 f   OposVariant.obj
 0001:00000790       ?SetLONG_Ptr@OposVariant@@QEAAXPEAJAEAJ@Z 0000000180001790 f   OposVariant.obj
 0001:000007dc       ?SetString@OposVariant@@QEAAXPEB_WAEAJ@Z 00000001800017dc f   OposVariant.obj
 0001:00000840       ?SetVARIANT_BOOL@OposVariant@@QEAAXF@Z 0000000180001840 f   OposVariant.obj
 0001:00000878       ?Term@CAtlComModule@ATL@@QEAAXXZ 0000000180001878 f i OposVariant.obj
 0001:000008e8       ?_AtlInitializeCriticalSectionEx@ATL@@YAHPEAU_RTL_CRITICAL_SECTION@@KK@Z 00000001800018e8 f i OposVariant.obj
 0001:000008f0       ?_AtlRaiseException@ATL@@YAXKK@Z 00000001800018f0 f i OposVariant.obj
 0001:00000900       ?Next@?$CComEnumImpl@UIEnumConnections@@$1?_GUID_b196b287_bab4_101a_b69c_00aa00341d07@@3U__s_GUID@@BUtagCONNECTDATA@@V?$_Copy@UtagCONNECTDATA@@@ATL@@@ATL@@UEAAJKPEAUtagCONNECTDATA@@PEAK@Z 0000000180001900 f i POSPower.obj
 0001:000009c8       ?Skip@?$CComEnumImpl@UIEnumConnections@@$1?_GUID_b196b287_bab4_101a_b69c_00aa00341d07@@3U__s_GUID@@BUtagCONNECTDATA@@V?$_Copy@UtagCONNECTDATA@@@ATL@@@ATL@@UEAAJK@Z 00000001800019c8 f i POSPower.obj
 0001:000009f4       ?Reset@?$CComEnumImpl@UIEnumConnections@@$1?_GUID_b196b287_bab4_101a_b69c_00aa00341d07@@3U__s_GUID@@BUtagCONNECTDATA@@V?$_Copy@UtagCONNECTDATA@@@ATL@@@ATL@@UEAAJXZ 00000001800019f4 f i POSPower.obj
 0001:000009f4       ?Reset@?$CComEnumImpl@UIEnumConnectionPoints@@$1?_GUID_b196b285_bab4_101a_b69c_00aa00341d07@@3U__s_GUID@@BPEAUIConnectionPoint@@V?$_CopyInterface@UIConnectionPoint@@@ATL@@@ATL@@UEAAJXZ 00000001800019f4 f i POSPower.obj
 0001:00000a00       ?Clone@?$CComEnumImpl@UIEnumConnections@@$1?_GUID_b196b287_bab4_101a_b69c_00aa00341d07@@3U__s_GUID@@BUtagCONNECTDATA@@V?$_Copy@UtagCONNECTDATA@@@ATL@@@ATL@@UEAAJPEAPEAUIEnumConnections@@@Z 0000000180001a00 f i POSPower.obj
 0001:00000b2c       ?AddRef@?$CComObject@V?$CComEnum@UIEnumConnectionPoints@@$1?_GUID_b196b285_bab4_101a_b69c_00aa00341d07@@3U__s_GUID@@BPEAUIConnectionPoint@@V?$_CopyInterface@UIConnectionPoint@@@ATL@@VCComSingleThreadModel@6@@ATL@@@ATL@@UEAAKXZ 0000000180001b2c f i POSPower.obj
 0001:00000b2c       ?AddRef@?$CComObject@V?$CComEnum@UIEnumConnections@@$1?_GUID_b196b287_bab4_101a_b69c_00aa00341d07@@3U__s_GUID@@BUtagCONNECTDATA@@V?$_Copy@UtagCONNECTDATA@@@ATL@@VCComSingleThreadModel@6@@ATL@@@ATL@@UEAAKXZ 0000000180001b2c f i POSPower.obj
 0001:00000b38       ?Release@?$CComObject@V?$CComEnum@UIEnumConnectionPoints@@$1?_GUID_b196b285_bab4_101a_b69c_00aa00341d07@@3U__s_GUID@@BPEAUIConnectionPoint@@V?$_CopyInterface@UIConnectionPoint@@@ATL@@VCComSingleThreadModel@6@@ATL@@@ATL@@UEAAKXZ 0000000180001b38 f i POSPower.obj
 0001:00000b38       ?Release@?$CComObject@V?$CComEnum@UIEnumConnections@@$1?_GUID_b196b287_bab4_101a_b69c_00aa00341d07@@3U__s_GUID@@BUtagCONNECTDATA@@V?$_Copy@UtagCONNECTDATA@@@ATL@@VCComSingleThreadModel@6@@ATL@@@ATL@@UEAAKXZ 0000000180001b38 f i POSPower.obj
 0001:00000b8c       ?QueryInterface@?$CComObject@V?$CComEnum@UIEnumConnections@@$1?_GUID_b196b287_bab4_101a_b69c_00aa00341d07@@3U__s_GUID@@BUtagCONNECTDATA@@V?$_Copy@UtagCONNECTDATA@@@ATL@@VCComSingleThreadModel@6@@ATL@@@ATL@@UEAAJAEBU_GUID@@PEAPEAX@Z 0000000180001b8c f i POSPower.obj
 0001:00000ba0       ??_E?$CComObject@V?$CComEnum@UIEnumConnections@@$1?_GUID_b196b287_bab4_101a_b69c_00aa00341d07@@3U__s_GUID@@BUtagCONNECTDATA@@V?$_Copy@UtagCONNECTDATA@@@ATL@@VCComSingleThreadModel@6@@ATL@@@ATL@@UEAAPEAXI@Z 0000000180001ba0 f i POSPower.obj
 0001:00000ba0       ??_G?$CComObject@V?$CComEnum@UIEnumConnections@@$1?_GUID_b196b287_bab4_101a_b69c_00aa00341d07@@3U__s_GUID@@BUtagCONNECTDATA@@V?$_Copy@UtagCONNECTDATA@@@ATL@@VCComSingleThreadModel@6@@ATL@@@ATL@@UEAAPEAXI@Z 0000000180001ba0 f i POSPower.obj
 0001:00000bf8       ?OnFinalMessage@?$CWindowImplBaseT@VCWindow@ATL@@V?$CWinTraits@$0FGAAAAAA@$0A@@2@@ATL@@UEAAXPEAUHWND__@@@Z 0000000180001bf8 f i POSPower.obj
 0001:00000bf8       _guard_check_icall_nop     0000000180001bf8 f i LIBCMT:guard_support.obj
 0001:00000bf8       ?ObjectMain@CComObjectRootBase@ATL@@SAX_N@Z 0000000180001bf8 f i POSPower.obj
 0001:00000bfc       ?Update@?$IOleObjectImpl@VCOPOSPOSPower@@@ATL@@UEAAJXZ 0000000180001bfc f i POSPower.obj
 0001:00000bfc       ?IsUpToDate@?$IOleObjectImpl@VCOPOSPOSPower@@@ATL@@UEAAJXZ 0000000180001bfc f i POSPower.obj
 0001:00000bfc       ?SetHostNames@?$IOleObjectImpl@VCOPOSPOSPower@@@ATL@@UEAAJPEB_W0@Z 0000000180001bfc f i POSPower.obj
 0001:00000bfc       ?Release@CRegObject@ATL@@UEAAKXZ 0000000180001bfc f i POSPower.obj
 0001:00000bfc       ?HandsOffStorage@?$IPersistStorageImpl@VCOPOSPOSPower@@@ATL@@UEAAJXZ 0000000180001bfc f i POSPower.obj
 0001:00000bfc       ?OnFrameWindowActivate@?$IOleInPlaceActiveObjectImpl@VCOPOSPOSPower@@@ATL@@UEAAJH@Z 0000000180001bfc f i POSPower.obj
 0001:00000bfc       ?EnableModeless@?$IOleInPlaceActiveObjectImpl@VCOPOSPOSPower@@@ATL@@UEAAJH@Z 0000000180001bfc f i POSPower.obj
 0001:00000bfc       ?SaveCompleted@?$IPersistStorageImpl@VCOPOSPOSPower@@@ATL@@UEAAJPEAUIStorage@@@Z 0000000180001bfc f i POSPower.obj
 0001:00000bfc       ?GetObjectDescription@?$CComCoClass@VCOPOSPOSPower@@$1?CLSID_OPOSPOSPower@@3U_GUID@@B@ATL@@SAPEB_WXZ 0000000180001bfc f i POSPower.obj
 0001:00000bfc       ?OnAmbientPropertyChange@?$IOleControlImpl@VCOPOSPOSPower@@@ATL@@UEAAJJ@Z 0000000180001bfc f i POSPower.obj
 0001:00000bfc       ?GetCategoryMap@CComObjectRootBase@ATL@@SAPEBU_ATL_CATMAP_ENTRY@2@XZ 0000000180001bfc f i POSPower.obj
 0001:00000bfc       ?ResizeBorder@?$IOleInPlaceActiveObjectImpl@VCOPOSPOSPower@@@ATL@@UEAAJPEBUtagRECT@@PEAUIOleInPlaceUIWindow@@H@Z 0000000180001bfc f i POSPower.obj
 0001:00000c00       ??_E?$CComObject@VCOPOSPOSPower@@@ATL@@W7EAAPEAXI@Z 0000000180001c00 f i POSPower.obj
 0001:00000c0c       ??_E?$CComObject@VCOPOSPOSPower@@@ATL@@WHA@EAAPEAXI@Z 0000000180001c0c f i POSPower.obj
 0001:00000c18       ?QueryInterface@?$CComObject@VCOPOSPOSPower@@@ATL@@WLI@EAAJAEBU_GUID@@PEAPEAX@Z 0000000180001c18 f i POSPower.obj
 0001:00000c24       ?AddRef@?$CComObject@VCOPOSPOSPower@@@ATL@@WLI@EAAKXZ 0000000180001c24 f i POSPower.obj
 0001:00000c30       ?Release@?$CComObject@VCOPOSPOSPower@@@ATL@@WLI@EAAKXZ 0000000180001c30 f i POSPower.obj
 0001:00000c3c       ?QueryInterface@?$CComObject@VCOPOSPOSPower@@@ATL@@WMA@EAAJAEBU_GUID@@PEAPEAX@Z 0000000180001c3c f i POSPower.obj
 0001:00000c48       ?AddRef@?$CComObject@VCOPOSPOSPower@@@ATL@@WMA@EAAKXZ 0000000180001c48 f i POSPower.obj
 0001:00000c54       ?Release@?$CComObject@VCOPOSPOSPower@@@ATL@@WMA@EAAKXZ 0000000180001c54 f i POSPower.obj
 0001:00000c60       ?QueryInterface@?$CComObject@VCOPOSPOSPower@@@ATL@@WMI@EAAJAEBU_GUID@@PEAPEAX@Z 0000000180001c60 f i POSPower.obj
 0001:00000c6c       ?AddRef@?$CComObject@VCOPOSPOSPower@@@ATL@@WMI@EAAKXZ 0000000180001c6c f i POSPower.obj
 0001:00000c78       ?Release@?$CComObject@VCOPOSPOSPower@@@ATL@@WMI@EAAKXZ 0000000180001c78 f i POSPower.obj
 0001:00000c84       ?QueryInterface@?$CComObject@VCOPOSPOSPower@@@ATL@@WNA@EAAJAEBU_GUID@@PEAPEAX@Z 0000000180001c84 f i POSPower.obj
 0001:00000c90       ?AddRef@?$CComObject@VCOPOSPOSPower@@@ATL@@WNA@EAAKXZ 0000000180001c90 f i POSPower.obj
 0001:00000c9c       ?Release@?$CComObject@VCOPOSPOSPower@@@ATL@@WNA@EAAKXZ 0000000180001c9c f i POSPower.obj
 0001:00000ca8       ?QueryInterface@?$CComObject@VCOPOSPOSPower@@@ATL@@WNI@EAAJAEBU_GUID@@PEAPEAX@Z 0000000180001ca8 f i POSPower.obj
 0001:00000cb4       ?AddRef@?$CComObject@VCOPOSPOSPower@@@ATL@@WNI@EAAKXZ 0000000180001cb4 f i POSPower.obj
 0001:00000cc0       ?Release@?$CComObject@VCOPOSPOSPower@@@ATL@@WNI@EAAKXZ 0000000180001cc0 f i POSPower.obj
 0001:00000ccc       ?QueryInterface@?$CComObject@VCOPOSPOSPower@@@ATL@@WOA@EAAJAEBU_GUID@@PEAPEAX@Z 0000000180001ccc f i POSPower.obj
 0001:00000cd8       ?AddRef@?$CComObject@VCOPOSPOSPower@@@ATL@@WOA@EAAKXZ 0000000180001cd8 f i POSPower.obj
 0001:00000ce4       ?Release@?$CComObject@VCOPOSPOSPower@@@ATL@@WOA@EAAKXZ 0000000180001ce4 f i POSPower.obj
 0001:00000cf0       ?QueryInterface@?$CComObject@VCOPOSPOSPower@@@ATL@@WOI@EAAJAEBU_GUID@@PEAPEAX@Z 0000000180001cf0 f i POSPower.obj
 0001:00000cfc       ?AddRef@?$CComObject@VCOPOSPOSPower@@@ATL@@WOI@EAAKXZ 0000000180001cfc f i POSPower.obj
 0001:00000d08       ?Release@?$CComObject@VCOPOSPOSPower@@@ATL@@WOI@EAAKXZ 0000000180001d08 f i POSPower.obj
 0001:00000d14       ?QueryInterface@?$CComObject@VCOPOSPOSPower@@@ATL@@WPA@EAAJAEBU_GUID@@PEAPEAX@Z 0000000180001d14 f i POSPower.obj
 0001:00000d20       ?AddRef@?$CComObject@VCOPOSPOSPower@@@ATL@@WPA@EAAKXZ 0000000180001d20 f i POSPower.obj
 0001:00000d2c       ?Release@?$CComObject@VCOPOSPOSPower@@@ATL@@WPA@EAAKXZ 0000000180001d2c f i POSPower.obj
 0001:00000d38       ?QueryInterface@?$CComObject@VCOPOSPOSPower@@@ATL@@WPI@EAAJAEBU_GUID@@PEAPEAX@Z 0000000180001d38 f i POSPower.obj
 0001:00000d44       ?AddRef@?$CComObject@VCOPOSPOSPower@@@ATL@@WPI@EAAKXZ 0000000180001d44 f i POSPower.obj
 0001:00000d50       ?Release@?$CComObject@VCOPOSPOSPower@@@ATL@@WPI@EAAKXZ 0000000180001d50 f i POSPower.obj
 0001:00000d5c       ?QueryInterface@?$CComObject@VCOPOSPOSPower@@@ATL@@WBAA@EAAJAEBU_GUID@@PEAPEAX@Z 0000000180001d5c f i POSPower.obj
 0001:00000d68       ?AddRef@?$CComObject@VCOPOSPOSPower@@@ATL@@WBAA@EAAKXZ 0000000180001d68 f i POSPower.obj
 0001:00000d74       ?Release@?$CComObject@VCOPOSPOSPower@@@ATL@@WBAA@EAAKXZ 0000000180001d74 f i POSPower.obj
 0001:00000d80       ?QueryInterface@?$CComObject@VCOPOSPOSPower@@@ATL@@WBAI@EAAJAEBU_GUID@@PEAPEAX@Z 0000000180001d80 f i POSPower.obj
 0001:00000d8c       ?AddRef@?$CComObject@VCOPOSPOSPower@@@ATL@@WBAI@EAAKXZ 0000000180001d8c f i POSPower.obj
 0001:00000d98       ?Release@?$CComObject@VCOPOSPOSPower@@@ATL@@WBAI@EAAKXZ 0000000180001d98 f i POSPower.obj
 0001:00000da4       ?QueryInterface@?$CComObject@VCOPOSPOSPower@@@ATL@@WBBA@EAAJAEBU_GUID@@PEAPEAX@Z 0000000180001da4 f i POSPower.obj
 0001:00000db0       ?AddRef@?$CComObject@VCOPOSPOSPower@@@ATL@@WBBA@EAAKXZ 0000000180001db0 f i POSPower.obj
 0001:00000dbc       ?Release@?$CComObject@VCOPOSPOSPower@@@ATL@@WBBA@EAAKXZ 0000000180001dbc f i POSPower.obj
 0001:00000dc8       ?QueryInterface@?$CComObject@VCOPOSPOSPower@@@ATL@@WBBI@EAAJAEBU_GUID@@PEAPEAX@Z 0000000180001dc8 f i POSPower.obj
 0001:00000dd4       ?AddRef@?$CComObject@VCOPOSPOSPower@@@ATL@@WBBI@EAAKXZ 0000000180001dd4 f i POSPower.obj
 0001:00000de0       ?Release@?$CComObject@VCOPOSPOSPower@@@ATL@@WBBI@EAAKXZ 0000000180001de0 f i POSPower.obj
 0001:00000dec       ?AddRef@?$CComObject@VCOPOSPOSPower@@@ATL@@WBCI@EAAKXZ 0000000180001dec f i POSPower.obj
 0001:00000df8       ?Release@?$CComObject@VCOPOSPOSPower@@@ATL@@WBCI@EAAKXZ 0000000180001df8 f i POSPower.obj
 0001:00000e04       ?AddRef@?$CComObject@VCOPOSPOSPower@@@ATL@@WBEA@EAAKXZ 0000000180001e04 f i POSPower.obj
 0001:00000e10       ?Release@?$CComObject@VCOPOSPOSPower@@@ATL@@WBEA@EAAKXZ 0000000180001e10 f i POSPower.obj
 0001:00000e1c       ??_E?$CComContainedObject@VCOPOSPOSPower@@@ATL@@W7EAAPEAXI@Z 0000000180001e1c f i POSPower.obj
 0001:00000e28       ??_E?$CComContainedObject@VCOPOSPOSPower@@@ATL@@WHA@EAAPEAXI@Z 0000000180001e28 f i POSPower.obj
 0001:00000e34       ?QueryInterface@?$CComContainedObject@VCOPOSPOSPower@@@ATL@@WLI@EAAJAEBU_GUID@@PEAPEAX@Z 0000000180001e34 f i POSPower.obj
 0001:00000e40       ?AddRef@?$CComContainedObject@VCOPOSPOSPower@@@ATL@@WLI@EAAKXZ 0000000180001e40 f i POSPower.obj
 0001:00000e4c       ?Release@?$CComContainedObject@VCOPOSPOSPower@@@ATL@@WLI@EAAKXZ 0000000180001e4c f i POSPower.obj
 0001:00000e58       ?QueryInterface@?$CComContainedObject@VCOPOSPOSPower@@@ATL@@WMA@EAAJAEBU_GUID@@PEAPEAX@Z 0000000180001e58 f i POSPower.obj
 0001:00000e64       ?AddRef@?$CComContainedObject@VCOPOSPOSPower@@@ATL@@WMA@EAAKXZ 0000000180001e64 f i POSPower.obj
 0001:00000e70       ?Release@?$CComContainedObject@VCOPOSPOSPower@@@ATL@@WMA@EAAKXZ 0000000180001e70 f i POSPower.obj
 0001:00000e7c       ?QueryInterface@?$CComContainedObject@VCOPOSPOSPower@@@ATL@@WMI@EAAJAEBU_GUID@@PEAPEAX@Z 0000000180001e7c f i POSPower.obj
 0001:00000e88       ?AddRef@?$CComContainedObject@VCOPOSPOSPower@@@ATL@@WMI@EAAKXZ 0000000180001e88 f i POSPower.obj
 0001:00000e94       ?Release@?$CComContainedObject@VCOPOSPOSPower@@@ATL@@WMI@EAAKXZ 0000000180001e94 f i POSPower.obj
 0001:00000ea0       ?QueryInterface@?$CComContainedObject@VCOPOSPOSPower@@@ATL@@WNA@EAAJAEBU_GUID@@PEAPEAX@Z 0000000180001ea0 f i POSPower.obj
 0001:00000eac       ?AddRef@?$CComContainedObject@VCOPOSPOSPower@@@ATL@@WNA@EAAKXZ 0000000180001eac f i POSPower.obj
 0001:00000eb8       ?Release@?$CComContainedObject@VCOPOSPOSPower@@@ATL@@WNA@EAAKXZ 0000000180001eb8 f i POSPower.obj
 0001:00000ec4       ?QueryInterface@?$CComContainedObject@VCOPOSPOSPower@@@ATL@@WNI@EAAJAEBU_GUID@@PEAPEAX@Z 0000000180001ec4 f i POSPower.obj
 0001:00000ed0       ?AddRef@?$CComContainedObject@VCOPOSPOSPower@@@ATL@@WNI@EAAKXZ 0000000180001ed0 f i POSPower.obj
 0001:00000edc       ?Release@?$CComContainedObject@VCOPOSPOSPower@@@ATL@@WNI@EAAKXZ 0000000180001edc f i POSPower.obj
 0001:00000ee8       ?QueryInterface@?$CComContainedObject@VCOPOSPOSPower@@@ATL@@WOA@EAAJAEBU_GUID@@PEAPEAX@Z 0000000180001ee8 f i POSPower.obj
 0001:00000ef4       ?AddRef@?$CComContainedObject@VCOPOSPOSPower@@@ATL@@WOA@EAAKXZ 0000000180001ef4 f i POSPower.obj
 0001:00000f00       ?Release@?$CComContainedObject@VCOPOSPOSPower@@@ATL@@WOA@EAAKXZ 0000000180001f00 f i POSPower.obj
 0001:00000f0c       ?QueryInterface@?$CComContainedObject@VCOPOSPOSPower@@@ATL@@WOI@EAAJAEBU_GUID@@PEAPEAX@Z 0000000180001f0c f i POSPower.obj
 0001:00000f18       ?AddRef@?$CComContainedObject@VCOPOSPOSPower@@@ATL@@WOI@EAAKXZ 0000000180001f18 f i POSPower.obj
 0001:00000f24       ?Release@?$CComContainedObject@VCOPOSPOSPower@@@ATL@@WOI@EAAKXZ 0000000180001f24 f i POSPower.obj
 0001:00000f30       ?QueryInterface@?$CComContainedObject@VCOPOSPOSPower@@@ATL@@WPA@EAAJAEBU_GUID@@PEAPEAX@Z 0000000180001f30 f i POSPower.obj
 0001:00000f3c       ?AddRef@?$CComContainedObject@VCOPOSPOSPower@@@ATL@@WPA@EAAKXZ 0000000180001f3c f i POSPower.obj
 0001:00000f48       ?Release@?$CComContainedObject@VCOPOSPOSPower@@@ATL@@WPA@EAAKXZ 0000000180001f48 f i POSPower.obj
 0001:00000f54       ?QueryInterface@?$CComContainedObject@VCOPOSPOSPower@@@ATL@@WPI@EAAJAEBU_GUID@@PEAPEAX@Z 0000000180001f54 f i POSPower.obj
 0001:00000f60       ?AddRef@?$CComContainedObject@VCOPOSPOSPower@@@ATL@@WPI@EAAKXZ 0000000180001f60 f i POSPower.obj
 0001:00000f6c       ?Release@?$CComContainedObject@VCOPOSPOSPower@@@ATL@@WPI@EAAKXZ 0000000180001f6c f i POSPower.obj
 0001:00000f78       ?QueryInterface@?$CComContainedObject@VCOPOSPOSPower@@@ATL@@WBAA@EAAJAEBU_GUID@@PEAPEAX@Z 0000000180001f78 f i POSPower.obj
 0001:00000f84       ?AddRef@?$CComContainedObject@VCOPOSPOSPower@@@ATL@@WBAA@EAAKXZ 0000000180001f84 f i POSPower.obj
 0001:00000f90       ?Release@?$CComContainedObject@VCOPOSPOSPower@@@ATL@@WBAA@EAAKXZ 0000000180001f90 f i POSPower.obj
 0001:00000f9c       ?QueryInterface@?$CComContainedObject@VCOPOSPOSPower@@@ATL@@WBAI@EAAJAEBU_GUID@@PEAPEAX@Z 0000000180001f9c f i POSPower.obj
 0001:00000fa8       ?AddRef@?$CComContainedObject@VCOPOSPOSPower@@@ATL@@WBAI@EAAKXZ 0000000180001fa8 f i POSPower.obj
 0001:00000fb4       ?Release@?$CComContainedObject@VCOPOSPOSPower@@@ATL@@WBAI@EAAKXZ 0000000180001fb4 f i POSPower.obj
 0001:00000fc0       ?QueryInterface@?$CComContainedObject@VCOPOSPOSPower@@@ATL@@WBBA@EAAJAEBU_GUID@@PEAPEAX@Z 0000000180001fc0 f i POSPower.obj
 0001:00000fcc       ?AddRef@?$CComContainedObject@VCOPOSPOSPower@@@ATL@@WBBA@EAAKXZ 0000000180001fcc f i POSPower.obj
 0001:00000fd8       ?Release@?$CComContainedObject@VCOPOSPOSPower@@@ATL@@WBBA@EAAKXZ 0000000180001fd8 f i POSPower.obj
 0001:00000fe4       ?QueryInterface@?$CComContainedObject@VCOPOSPOSPower@@@ATL@@WBBI@EAAJAEBU_GUID@@PEAPEAX@Z 0000000180001fe4 f i POSPower.obj
 0001:00000ff0       ?AddRef@?$CComContainedObject@VCOPOSPOSPower@@@ATL@@WBBI@EAAKXZ 0000000180001ff0 f i POSPower.obj
 0001:00000ffc       ?Release@?$CComContainedObject@VCOPOSPOSPower@@@ATL@@WBBI@EAAKXZ 0000000180001ffc f i POSPower.obj
 0001:00001008       ?AddRef@?$CComContainedObject@VCOPOSPOSPower@@@ATL@@WBCI@EAAKXZ 0000000180002008 f i POSPower.obj
 0001:00001014       ?Release@?$CComContainedObject@VCOPOSPOSPower@@@ATL@@WBCI@EAAKXZ 0000000180002014 f i POSPower.obj
 0001:00001020       ?AddRef@?$CComContainedObject@VCOPOSPOSPower@@@ATL@@WBEA@EAAKXZ 0000000180002020 f i POSPower.obj
 0001:0000102c       ?Release@?$CComContainedObject@VCOPOSPOSPower@@@ATL@@WBEA@EAAKXZ 000000018000202c f i POSPower.obj
 0001:00001038       ?CreateInstance@CComClassFactory@ATL@@UEAAJPEAUIUnknown@@AEBU_GUID@@PEAPEAX@Z 0000000180002038 f i POSPower.obj
 0001:00001098       ?LockServer@CComClassFactory@ATL@@UEAAJH@Z 0000000180002098 f i POSPower.obj
 0001:000010bc       ??_GCComClassFactory@ATL@@UEAAPEAXI@Z 00000001800020bc f i POSPower.obj
 0001:000010bc       ??_ECComClassFactory@ATL@@UEAAPEAXI@Z 00000001800020bc f i POSPower.obj
 0001:0000110c       ?GetWindowProc@?$CWindowImplBaseT@VCWindow@ATL@@V?$CWinTraits@$0FGAAAAAA@$0A@@2@@ATL@@UEAAP6A_JPEAUHWND__@@I_K_J@ZXZ 000000018000210c f i POSPower.obj
 0001:00001114       ?StartWindowProc@?$CWindowImplBaseT@VCWindow@ATL@@V?$CWinTraits@$0FGAAAAAA@$0A@@2@@ATL@@SA_JPEAUHWND__@@I_K_J@Z 0000000180002114 f i POSPower.obj
 0001:000011c8       ?GetTypeInfoCount@?$IDispatchImpl@UIOPOSPOSPower@@$1?IID_IOPOSPOSPower@@3U_GUID@@B$1?LIBID_OposPOSPower_CCO@@3U3@B$00$0A@VCComTypeInfoHolder@ATL@@@ATL@@UEAAJPEAI@Z 00000001800021c8 f i POSPower.obj
 0001:000011dc       ?GetTypeInfo@?$IDispatchImpl@UIOPOSPOSPower@@$1?IID_IOPOSPOSPower@@3U_GUID@@B$1?LIBID_OposPOSPower_CCO@@3U3@B$00$0A@VCComTypeInfoHolder@ATL@@@ATL@@UEAAJIKPEAPEAUITypeInfo@@@Z 00000001800021dc f i POSPower.obj
 0001:00001240       ?GetIDsOfNames@?$IDispatchImpl@UIOPOSPOSPower@@$1?IID_IOPOSPOSPower@@3U_GUID@@B$1?LIBID_OposPOSPower_CCO@@3U3@B$00$0A@VCComTypeInfoHolder@ATL@@@ATL@@UEAAJAEBU_GUID@@PEAPEA_WIKPEAJ@Z 0000000180002240 f i POSPower.obj
 0001:0000124c       ?Invoke@?$IDispatchImpl@UIOPOSPOSPower@@$1?IID_IOPOSPOSPower@@3U_GUID@@B$1?LIBID_OposPOSPower_CCO@@3U3@B$00$0A@VCComTypeInfoHolder@ATL@@@ATL@@UEAAJJAEBU_GUID@@KGPEAUtagDISPPARAMS@@PEAUtagVARIANT@@PEAUtagEXCEPINFO@@PEAI@Z 000000018000224c f i POSPower.obj
 0001:000012dc       ?CreateControlWindow@?$CComControl@VCOPOSPOSPower@@V?$CWindowImpl@VCOPOSPOSPower@@VCWindow@ATL@@V?$CWinTraits@$0FGAAAAAA@$0A@@3@@ATL@@@ATL@@UEAAPEAUHWND__@@PEAU3@AEAUtagRECT@@@Z 00000001800022dc f i POSPower.obj
 0001:00001314       ?ControlQueryInterface@?$CComControl@VCOPOSPOSPower@@V?$CWindowImpl@VCOPOSPOSPower@@VCWindow@ATL@@V?$CWinTraits@$0FGAAAAAA@$0A@@3@@ATL@@@ATL@@UEAAJAEBU_GUID@@PEAPEAX@Z 0000000180002314 f i POSPower.obj
 0001:00001328       ?GetUserClassID@?$IOleObjectImpl@VCOPOSPOSPower@@@ATL@@UEAAJPEAU_GUID@@@Z 0000000180002328 f i POSPower.obj
 0001:00001328       ?GetClassID@?$IPersistStorageImpl@VCOPOSPOSPower@@@ATL@@UEAAJPEAU_GUID@@@Z 0000000180002328 f i POSPower.obj
 0001:00001328       ?GetClassID@?$IPersistStreamInitImpl@VCOPOSPOSPower@@@ATL@@UEAAJPEAU_GUID@@@Z 0000000180002328 f i POSPower.obj
 0001:00001344       ?IsDirty@?$IPersistStreamInitImpl@VCOPOSPOSPower@@@ATL@@UEAAJXZ 0000000180002344 f i POSPower.obj
 0001:00001360       ?Load@?$IPersistStreamInitImpl@VCOPOSPOSPower@@@ATL@@UEAAJPEAUIStream@@@Z 0000000180002360 f i POSPower.obj
 0001:00001378       ?Save@?$IPersistStreamInitImpl@VCOPOSPOSPower@@@ATL@@UEAAJPEAUIStream@@H@Z 0000000180002378 f i POSPower.obj
 0001:00001390       ?GetSizeMax@?$IPersistStreamInitImpl@VCOPOSPOSPower@@@ATL@@UEAAJPEAT_ULARGE_INTEGER@@@Z 0000000180002390 f i POSPower.obj
 0001:000015b4       ?InitNew@?$IPersistStreamInitImpl@VCOPOSPOSPower@@@ATL@@UEAAJXZ 00000001800025b4 f i POSPower.obj
 0001:000015cc       ?GetDataHere@?$IDataObjectImpl@VCOPOSPOSPower@@@ATL@@UEAAJPEAUtagFORMATETC@@PEAUtagSTGMEDIUM@@@Z 00000001800025cc f i POSPower.obj
 0001:000015cc       ?GetCanonicalFormatEtc@?$IDataObjectImpl@VCOPOSPOSPower@@@ATL@@UEAAJPEAUtagFORMATETC@@0@Z 00000001800025cc f i POSPower.obj
 0001:000015cc       ?InitFromData@?$IOleObjectImpl@VCOPOSPOSPower@@@ATL@@UEAAJPEAUIDataObject@@HK@Z 00000001800025cc f i POSPower.obj
 0001:000015cc       ?GetColorSet@?$IViewObjectExImpl@VCOPOSPOSPower@@@ATL@@UEAAJKJPEAXPEAUtagDVTARGETDEVICE@@PEAUHDC__@@PEAPEAUtagLOGPALETTE@@@Z 00000001800025cc f i POSPower.obj
 0001:000015cc       ?SODataDummy@COPOSPOSPower@@MEAAJJ@Z 00000001800025cc f i POSPower.obj
 0001:000015cc       ?GetDropTarget@?$IOleInPlaceObjectWindowlessImpl@VCOPOSPOSPower@@@ATL@@UEAAJPEAPEAUIDropTarget@@@Z 00000001800025cc f i POSPower.obj
 0001:000015cc       ?ReactivateAndUndo@?$IOleInPlaceObjectWindowlessImpl@VCOPOSPOSPower@@@ATL@@UEAAJXZ 00000001800025cc f i POSPower.obj
 0001:000015cc       ?GetMoniker@?$IOleObjectImpl@VCOPOSPOSPower@@@ATL@@UEAAJKKPEAPEAUIMoniker@@@Z 00000001800025cc f i POSPower.obj
 0001:000015cc       ?GetClipboardData@?$IOleObjectImpl@VCOPOSPOSPower@@@ATL@@UEAAJKPEAPEAUIDataObject@@@Z 00000001800025cc f i POSPower.obj
 0001:000015cc       ?Unfreeze@?$IViewObjectExImpl@VCOPOSPOSPower@@@ATL@@UEAAJK@Z 00000001800025cc f i POSPower.obj
 0001:000015cc       ?QueryGetData@?$IDataObjectImpl@VCOPOSPOSPower@@@ATL@@UEAAJPEAUtagFORMATETC@@@Z 00000001800025cc f i POSPower.obj
 0001:000015cc       ?SetMoniker@?$IOleObjectImpl@VCOPOSPOSPower@@@ATL@@UEAAJKPEAUIMoniker@@@Z 00000001800025cc f i POSPower.obj
 0001:000015cc       ?ContextSensitiveHelp@?$IOleInPlaceActiveObjectImpl@VCOPOSPOSPower@@@ATL@@UEAAJH@Z 00000001800025cc f i POSPower.obj
 0001:000015cc       ?OnMnemonic@?$IOleControlImpl@VCOPOSPOSPower@@@ATL@@UEAAJPEAUtagMSG@@@Z 00000001800025cc f i POSPower.obj
 0001:000015cc       ?SOErrorDummy@COPOSPOSPower@@MEAAJJJJPEAJ@Z 00000001800025cc f i POSPower.obj
 0001:000015cc       ?EnumFormatEtc@?$IDataObjectImpl@VCOPOSPOSPower@@@ATL@@UEAAJKPEAPEAUIEnumFORMATETC@@@Z 00000001800025cc f i POSPower.obj
 0001:000015cc       ?SetData@?$IDataObjectImpl@VCOPOSPOSPower@@@ATL@@UEAAJPEAUtagFORMATETC@@PEAUtagSTGMEDIUM@@H@Z 00000001800025cc f i POSPower.obj
 0001:000015cc       ?GetControlInfo@?$IOleControlImpl@VCOPOSPOSPower@@@ATL@@UEAAJPEAUtagCONTROLINFO@@@Z 00000001800025cc f i POSPower.obj
 0001:000015cc       ?SOOutputCompleteDummy@COPOSPOSPower@@MEAAJJ@Z 00000001800025cc f i POSPower.obj
 0001:000015cc       ?GetRect@?$IViewObjectExImpl@VCOPOSPOSPower@@@ATL@@UEAAJKPEAU_RECTL@@@Z 00000001800025cc f i POSPower.obj
 0001:000015cc       ?ContextSensitiveHelp@?$IOleInPlaceObjectWindowlessImpl@VCOPOSPOSPower@@@ATL@@UEAAJH@Z 00000001800025cc f i POSPower.obj
 0001:000015cc       ?SetColorScheme@?$IOleObjectImpl@VCOPOSPOSPower@@@ATL@@UEAAJPEAUtagLOGPALETTE@@@Z 00000001800025cc f i POSPower.obj
 0001:000015cc       ?Freeze@?$IViewObjectExImpl@VCOPOSPOSPower@@@ATL@@UEAAJKJPEAXPEAK@Z 00000001800025cc f i POSPower.obj
 0001:000015cc       ?QueryInterface@CRegObject@ATL@@UEAAJAEBU_GUID@@PEAPEAX@Z 00000001800025cc f i POSPower.obj
 0001:000015d4       ?SetClientSite@?$IOleObjectImpl@VCOPOSPOSPower@@@ATL@@UEAAJPEAUIOleClientSite@@@Z 00000001800025d4 f i POSPower.obj
 0001:000015f0       ?GetClientSite@?$IOleObjectImpl@VCOPOSPOSPower@@@ATL@@UEAAJPEAPEAUIOleClientSite@@@Z 00000001800025f0 f i POSPower.obj
 0001:00001638       ?Close@?$IOleObjectImpl@VCOPOSPOSPower@@@ATL@@UEAAJK@Z 0000000180002638 f i POSPower.obj
 0001:00001654       ?DoVerb@?$IOleObjectImpl@VCOPOSPOSPower@@@ATL@@UEAAJJPEAUtagMSG@@PEAUIOleClientSite@@JPEAUHWND__@@PEBUtagRECT@@@Z 0000000180002654 f i POSPower.obj
 0001:000017f8       ?EnumVerbs@?$IOleObjectImpl@VCOPOSPOSPower@@@ATL@@UEAAJPEAPEAUIEnumOLEVERB@@@Z 00000001800027f8 f i POSPower.obj
 0001:00001814       ?GetUserType@?$IOleObjectImpl@VCOPOSPOSPower@@@ATL@@UEAAJKPEAPEA_W@Z 0000000180002814 f i POSPower.obj
 0001:00001824       ?SetExtent@?$IOleObjectImpl@VCOPOSPOSPower@@@ATL@@UEAAJKPEAUtagSIZE@@@Z 0000000180002824 f i POSPower.obj
 0001:00001840       ?GetExtent@?$IOleObjectImpl@VCOPOSPOSPower@@@ATL@@UEAAJKPEAUtagSIZE@@@Z 0000000180002840 f i POSPower.obj
 0001:00001870       ?Advise@?$IOleObjectImpl@VCOPOSPOSPower@@@ATL@@UEAAJPEAUIAdviseSink@@PEAK@Z 0000000180002870 f i POSPower.obj
 0001:000018cc       ?Unadvise@?$IOleObjectImpl@VCOPOSPOSPower@@@ATL@@UEAAJK@Z 00000001800028cc f i POSPower.obj
 0001:00001904       ?EnumAdvise@?$IOleObjectImpl@VCOPOSPOSPower@@@ATL@@UEAAJPEAPEAUIEnumSTATDATA@@@Z 0000000180002904 f i POSPower.obj
 0001:0000194c       ?GetMiscStatus@?$IOleObjectImpl@VCOPOSPOSPower@@@ATL@@UEAAJKPEAK@Z 000000018000294c f i POSPower.obj
 0001:0000195c       ?GetWindow@?$IOleInPlaceActiveObjectImpl@VCOPOSPOSPower@@@ATL@@UEAAJPEAPEAUHWND__@@@Z 000000018000295c f i POSPower.obj
 0001:000019b0       ?TranslateAcceleratorW@?$IOleInPlaceActiveObjectImpl@VCOPOSPOSPower@@@ATL@@UEAAJPEAUtagMSG@@@Z 00000001800029b0 f i POSPower.obj
 0001:00001aa4       ?OnDocWindowActivate@?$IOleInPlaceActiveObjectImpl@VCOPOSPOSPower@@@ATL@@UEAAJH@Z 0000000180002aa4 f i POSPower.obj
 0001:00001ad0       ?Draw@?$IViewObjectExImpl@VCOPOSPOSPower@@@ATL@@UEAAJKJPEAXPEAUtagDVTARGETDEVICE@@PEAUHDC__@@2PEBU_RECTL@@3P6AH_K@Z4@Z 0000000180002ad0 f i POSPower.obj
 0001:00001b34       ?SetAdvise@?$IViewObjectExImpl@VCOPOSPOSPower@@@ATL@@UEAAJKKPEAUIAdviseSink@@@Z 0000000180002b34 f i POSPower.obj
 0001:00001b88       ?GetAdvise@?$IViewObjectExImpl@VCOPOSPOSPower@@@ATL@@UEAAJPEAK0PEAPEAUIAdviseSink@@@Z 0000000180002b88 f i POSPower.obj
 0001:00001bc4       ?GetExtent@?$IViewObjectExImpl@VCOPOSPOSPower@@@ATL@@UEAAJKJPEAUtagDVTARGETDEVICE@@PEAUtagSIZE@@@Z 0000000180002bc4 f i POSPower.obj
 0001:00001bf4       ?GetViewStatus@?$IViewObjectExImpl@VCOPOSPOSPower@@@ATL@@UEAAJPEAK@Z 0000000180002bf4 f i POSPower.obj
 0001:00001c08       ?QueryHitPoint@?$IViewObjectExImpl@VCOPOSPOSPower@@@ATL@@UEAAJKPEBUtagRECT@@UtagPOINT@@JPEAK@Z 0000000180002c08 f i POSPower.obj
 0001:00001c4c       ?QueryHitRect@?$IViewObjectExImpl@VCOPOSPOSPower@@@ATL@@UEAAJKPEBUtagRECT@@0JPEAK@Z 0000000180002c4c f i POSPower.obj
 0001:00001cb4       ?GetNaturalExtent@?$IViewObjectExImpl@VCOPOSPOSPower@@@ATL@@UEAAJKJPEAUtagDVTARGETDEVICE@@PEAUHDC__@@PEAUtagExtentInfo@@PEAUtagSIZE@@@Z 0000000180002cb4 f i POSPower.obj
 0001:00001cfc       ?GetWindow@?$IOleInPlaceObjectWindowlessImpl@VCOPOSPOSPower@@@ATL@@UEAAJPEAPEAUHWND__@@@Z 0000000180002cfc f i POSPower.obj
 0001:00001d50       ?InPlaceDeactivate@?$IOleInPlaceObjectWindowlessImpl@VCOPOSPOSPower@@@ATL@@UEAAJXZ 0000000180002d50 f i POSPower.obj
 0001:00001d6c       ?UIDeactivate@?$IOleInPlaceObjectWindowlessImpl@VCOPOSPOSPower@@@ATL@@UEAAJXZ 0000000180002d6c f i POSPower.obj
 0001:00001d88       ?SetObjectRects@?$IOleInPlaceObjectWindowlessImpl@VCOPOSPOSPower@@@ATL@@UEAAJPEBUtagRECT@@0@Z 0000000180002d88 f i POSPower.obj
 0001:00001da4       ?OnWindowMessage@?$IOleInPlaceObjectWindowlessImpl@VCOPOSPOSPower@@@ATL@@UEAAJI_K_JPEA_J@Z 0000000180002da4 f i POSPower.obj
 0001:00001e6c       ?EnumConnectionPoints@?$IConnectionPointContainerImpl@VCOPOSPOSPower@@@ATL@@UEAAJPEAPEAUIEnumConnectionPoints@@@Z 0000000180002e6c f i POSPower.obj
 0001:000020b4       ?FindConnectionPoint@?$IConnectionPointContainerImpl@VCOPOSPOSPower@@@ATL@@UEAAJAEBU_GUID@@PEAPEAUIConnectionPoint@@@Z 00000001800030b4 f i POSPower.obj
 0001:00002184       ?IsDirty@?$IPersistStorageImpl@VCOPOSPOSPower@@@ATL@@UEAAJXZ 0000000180003184 f i POSPower.obj
 0001:000021c4       ?InitNew@?$IPersistStorageImpl@VCOPOSPOSPower@@@ATL@@UEAAJPEAUIStorage@@@Z 00000001800031c4 f i POSPower.obj
 0001:00002204       ?Load@?$IPersistStorageImpl@VCOPOSPOSPower@@@ATL@@UEAAJPEAUIStorage@@@Z 0000000180003204 f i POSPower.obj
 0001:000022a4       ?Save@?$IPersistStorageImpl@VCOPOSPOSPower@@@ATL@@UEAAJPEAUIStorage@@H@Z 00000001800032a4 f i POSPower.obj
 0001:00002354       ?GetPages@?$ISpecifyPropertyPagesImpl@VCOPOSPOSPower@@@ATL@@UEAAJPEAUtagCAUUID@@@Z 0000000180003354 f i POSPower.obj
 0001:00002360       ?QuickActivate@?$IQuickActivateImpl@VCOPOSPOSPower@@@ATL@@UEAAJPEAUtagQACONTAINER@@PEAUtagQACONTROL@@@Z 0000000180003360 f i POSPower.obj
 0001:0000237c       ?SetContentExtent@?$IQuickActivateImpl@VCOPOSPOSPower@@@ATL@@UEAAJPEAUtagSIZE@@@Z 000000018000337c f i POSPower.obj
 0001:000023b0       ?GetContentExtent@?$IQuickActivateImpl@VCOPOSPOSPower@@@ATL@@UEAAJPEAUtagSIZE@@@Z 00000001800033b0 f i POSPower.obj
 0001:000023e8       ?GetData@?$IDataObjectImpl@VCOPOSPOSPower@@@ATL@@UEAAJPEAUtagFORMATETC@@PEAUtagSTGMEDIUM@@@Z 00000001800033e8 f i POSPower.obj
 0001:00002404       ?DAdvise@?$IDataObjectImpl@VCOPOSPOSPower@@@ATL@@UEAAJPEAUtagFORMATETC@@KPEAUIAdviseSink@@PEAK@Z 0000000180003404 f i POSPower.obj
 0001:0000248c       ?DUnadvise@?$IDataObjectImpl@VCOPOSPOSPower@@@ATL@@UEAAJK@Z 000000018000348c f i POSPower.obj
 0001:000024b8       ?EnumDAdvise@?$IDataObjectImpl@VCOPOSPOSPower@@@ATL@@UEAAJPEAPEAUIEnumSTATDATA@@@Z 00000001800034b8 f i POSPower.obj
 0001:000024f4       ?GetClassInfoW@?$IProvideClassInfo2Impl@$1?CLSID_OPOSPOSPower@@3U_GUID@@B$1?DIID__IOPOSPOSPowerEvents@@3U2@B$1?LIBID_OposPOSPower_CCO@@3U2@B$00$0A@VCComTypeInfoHolder@ATL@@@ATL@@UEAAJPEAPEAUITypeInfo@@@Z 00000001800034f4 f i POSPower.obj
 0001:0000254c       ?GetGUID@?$IProvideClassInfo2Impl@$1?CLSID_OPOSPOSPower@@3U_GUID@@B$1?DIID__IOPOSPOSPowerEvents@@3U2@B$1?LIBID_OposPOSPower_CCO@@3U2@B$00$0A@VCComTypeInfoHolder@ATL@@@ATL@@UEAAJKPEAU_GUID@@@Z 000000018000354c f i POSPower.obj
 0001:00002580       ?FAccessAllowed@?$IObjectSafetyImpl@VCOPOSPOSPower@@$02@ATL@@MEAAHXZ 0000000180003580 f i POSPower.obj
 0001:00002580       _get_startup_argv_mode     0000000180003580 f i LIBCMT:argv_mode.obj
 0001:00002580       ?AddRef@CRegObject@ATL@@UEAAKXZ 0000000180003580 f i POSPower.obj
 0001:00002588       ?GetInterfaceSafetyOptions@?$IObjectSafetyImpl@VCOPOSPOSPower@@$02@ATL@@UEAAJAEBU_GUID@@PEAK1@Z 0000000180003588 f i POSPower.obj
 0001:0000261c       ?SetInterfaceSafetyOptions@?$IObjectSafetyImpl@VCOPOSPOSPower@@$02@ATL@@UEAAJAEBU_GUID@@KK@Z 000000018000361c f i POSPower.obj
 0001:000026c0       ?_LocCPQueryInterface@?$IConnectionPointImpl@VCOPOSPOSPower@@$1?IID_IPropertyNotifySink@@3U_GUID@@BVCComDynamicUnkArray@ATL@@@ATL@@UEAAJAEBU_GUID@@PEAPEAX@Z 00000001800036c0 f i POSPower.obj
 0001:000026c0       ?_LocCPQueryInterface@?$IConnectionPointImpl@VCOPOSPOSPower@@$1?DIID__IOPOSPOSPowerEvents@@3U_GUID@@BVCComDynamicUnkArray@ATL@@@ATL@@UEAAJAEBU_GUID@@PEAPEAX@Z 00000001800036c0 f i POSPower.obj
 0001:00002734       ?GetConnectionInterface@?$IConnectionPointImpl@VCOPOSPOSPower@@$1?IID_IPropertyNotifySink@@3U_GUID@@BVCComDynamicUnkArray@ATL@@@ATL@@UEAAJPEAU_GUID@@@Z 0000000180003734 f i POSPower.obj
 0001:00002750       ?GetConnectionPointContainer@?$IConnectionPointImpl@VCOPOSPOSPower@@$1?IID_IPropertyNotifySink@@3U_GUID@@BVCComDynamicUnkArray@ATL@@@ATL@@UEAAJPEAPEAUIConnectionPointContainer@@@Z 0000000180003750 f i POSPower.obj
 0001:00002770       ?Advise@?$IConnectionPointImpl@VCOPOSPOSPower@@$1?IID_IPropertyNotifySink@@3U_GUID@@BVCComDynamicUnkArray@ATL@@@ATL@@UEAAJPEAUIUnknown@@PEAK@Z 0000000180003770 f i POSPower.obj
 0001:00002770       ?Advise@?$IConnectionPointImpl@VCOPOSPOSPower@@$1?DIID__IOPOSPOSPowerEvents@@3U_GUID@@BVCComDynamicUnkArray@ATL@@@ATL@@UEAAJPEAUIUnknown@@PEAK@Z 0000000180003770 f i POSPower.obj
 0001:0000282c       ?Unadvise@?$IConnectionPointImpl@VCOPOSPOSPower@@$1?DIID__IOPOSPOSPowerEvents@@3U_GUID@@BVCComDynamicUnkArray@ATL@@@ATL@@UEAAJK@Z 000000018000382c f i POSPower.obj
 0001:0000282c       ?Unadvise@?$IConnectionPointImpl@VCOPOSPOSPower@@$1?IID_IPropertyNotifySink@@3U_GUID@@BVCComDynamicUnkArray@ATL@@@ATL@@UEAAJK@Z 000000018000382c f i POSPower.obj
 0001:00002894       ?EnumConnections@?$IConnectionPointImpl@VCOPOSPOSPower@@$1?DIID__IOPOSPOSPowerEvents@@3U_GUID@@BVCComDynamicUnkArray@ATL@@@ATL@@UEAAJPEAPEAUIEnumConnections@@@Z 0000000180003894 f i POSPower.obj
 0001:00002894       ?EnumConnections@?$IConnectionPointImpl@VCOPOSPOSPower@@$1?IID_IPropertyNotifySink@@3U_GUID@@BVCComDynamicUnkArray@ATL@@@ATL@@UEAAJPEAPEAUIEnumConnections@@@Z 0000000180003894 f i POSPower.obj
 0001:00002a28       ?GetConnectionInterface@?$IConnectionPointImpl@VCOPOSPOSPower@@$1?DIID__IOPOSPOSPowerEvents@@3U_GUID@@BVCComDynamicUnkArray@ATL@@@ATL@@UEAAJPEAU_GUID@@@Z 0000000180003a28 f i POSPower.obj
 0001:00002a44       ?GetConnectionPointContainer@?$IConnectionPointImpl@VCOPOSPOSPower@@$1?DIID__IOPOSPOSPowerEvents@@3U_GUID@@BVCComDynamicUnkArray@ATL@@@ATL@@UEAAJPEAPEAUIConnectionPointContainer@@@Z 0000000180003a44 f i POSPower.obj
 0001:00002a64       ?Lock@CAtlModule@ATL@@UEAAJXZ 0000000180003a64 f i POSPower.obj
 0001:00002a74       ?Unlock@CAtlModule@ATL@@UEAAJXZ 0000000180003a74 f i POSPower.obj
 0001:00002a80       ?GetLockCount@CAtlModule@ATL@@UEAAJXZ 0000000180003a80 f i POSPower.obj
 0001:00002a84       ?GetGITPtr@CAtlModule@ATL@@UEAAJPEAPEAUIGlobalInterfaceTable@@@Z 0000000180003a84 f i POSPower.obj
 0001:00002af4       ?UpdateRegistry@COPOSPOSPower@@SAJH@Z 0000000180003af4 f i POSPower.obj
 0001:00002b0c       ?ProcessWindowMessage@COPOSPOSPower@@UEAAHPEAUHWND__@@I_K_JAEA_JK@Z 0000000180003b0c f i POSPower.obj
 0001:00002b9c       ?SODirectIO@COPOSPOSPower@@MEAAJJPEAJPEAPEA_W@Z 0000000180003b9c f i POSPower.obj
 0001:00002c14       ?SOStatusUpdate@COPOSPOSPower@@MEAAJJ@Z 0000000180003c14 f i POSPower.obj
 0001:00002c64       ?AddCommonRGSReplacements@?$CAtlModuleT@VCComModule@ATL@@@ATL@@UEAAJPEAUIRegistrarBase@@@Z 0000000180003c64 f i POSPower.obj
 0001:00002c7c       ?UpdateRegistryFromResourceD@CComModule@ATL@@UEAAJIHPEAU_ATL_REGMAP_ENTRY@2@@Z 0000000180003c7c f i POSPower.obj
 0001:00002c7c       ?UpdateRegistryFromResourceD@CComModule@ATL@@UEAAJPEB_WHPEAU_ATL_REGMAP_ENTRY@2@@Z 0000000180003c7c f i POSPower.obj
 0001:00002c84       ?UpdateRegistryFromResource@CComModule@ATL@@UEAAJPEB_WHPEAU_ATL_REGMAP_ENTRY@2@@Z 0000000180003c84 f i POSPower.obj
 0001:00002c8c       ?UpdateRegistryFromResource@CComModule@ATL@@UEAAJIHPEAU_ATL_REGMAP_ENTRY@2@@Z 0000000180003c8c f i POSPower.obj
 0001:00002c94       ??_GCComModule@ATL@@UEAAPEAXI@Z 0000000180003c94 f i POSPower.obj
 0001:00002c94       ??_ECComModule@ATL@@UEAAPEAXI@Z 0000000180003c94 f i POSPower.obj
 0001:00002cd4       ?CreateInstance@?$CComCreator@V?$CComObjectCached@VCComClassFactory@ATL@@@ATL@@@ATL@@SAJPEAXAEBU_GUID@@PEAPEAX@Z 0000000180003cd4 f i POSPower.obj
 0001:00002df8       ?CreateInstance@?$CComCreator2@V?$CComCreator@V?$CComObject@VCOPOSPOSPower@@@ATL@@@ATL@@V?$CComCreator@V?$CComAggObject@VCOPOSPOSPower@@@ATL@@@2@@ATL@@SAJPEAXAEBU_GUID@@PEAPEAX@Z 0000000180003df8 f i POSPower.obj
 0001:00002e08       ?AddRef@?$CComObjectCached@VCComClassFactory@ATL@@@ATL@@UEAAKXZ 0000000180003e08 f i POSPower.obj
 0001:00002e34       ?Release@?$CComObjectCached@VCComClassFactory@ATL@@@ATL@@UEAAKXZ 0000000180003e34 f i POSPower.obj
 0001:00002e74       ?QueryInterface@?$CComObjectCached@VCComClassFactory@ATL@@@ATL@@UEAAJAEBU_GUID@@PEAPEAX@Z 0000000180003e74 f i POSPower.obj
 0001:00002e88       ??_G?$CComObjectCached@VCComClassFactory@ATL@@@ATL@@UEAAPEAXI@Z 0000000180003e88 f i POSPower.obj
 0001:00002e88       ??_E?$CComObjectCached@VCComClassFactory@ATL@@@ATL@@UEAAPEAXI@Z 0000000180003e88 f i POSPower.obj
 0001:00002ee0       ?Next@?$CComEnumImpl@UIEnumConnectionPoints@@$1?_GUID_b196b285_bab4_101a_b69c_00aa00341d07@@3U__s_GUID@@BPEAUIConnectionPoint@@V?$_CopyInterface@UIConnectionPoint@@@ATL@@@ATL@@UEAAJKPEAPEAUIConnectionPoint@@PEAK@Z 0000000180003ee0 f i POSPower.obj
 0001:00002fa4       ?Skip@?$CComEnumImpl@UIEnumConnectionPoints@@$1?_GUID_b196b285_bab4_101a_b69c_00aa00341d07@@3U__s_GUID@@BPEAUIConnectionPoint@@V?$_CopyInterface@UIConnectionPoint@@@ATL@@@ATL@@UEAAJK@Z 0000000180003fa4 f i POSPower.obj
 0001:00002fd0       ?Clone@?$CComEnumImpl@UIEnumConnectionPoints@@$1?_GUID_b196b285_bab4_101a_b69c_00aa00341d07@@3U__s_GUID@@BPEAUIConnectionPoint@@V?$_CopyInterface@UIConnectionPoint@@@ATL@@@ATL@@UEAAJPEAPEAUIEnumConnectionPoints@@@Z 0000000180003fd0 f i POSPower.obj
 0001:000030fc       ?QueryInterface@?$CComObject@V?$CComEnum@UIEnumConnectionPoints@@$1?_GUID_b196b285_bab4_101a_b69c_00aa00341d07@@3U__s_GUID@@BPEAUIConnectionPoint@@V?$_CopyInterface@UIConnectionPoint@@@ATL@@VCComSingleThreadModel@6@@ATL@@@ATL@@UEAAJAEBU_GUID@@PEAPEAX@Z 00000001800040fc f i POSPower.obj
 0001:00003110       ??_E?$CComObject@V?$CComEnum@UIEnumConnectionPoints@@$1?_GUID_b196b285_bab4_101a_b69c_00aa00341d07@@3U__s_GUID@@BPEAUIConnectionPoint@@V?$_CopyInterface@UIConnectionPoint@@@ATL@@VCComSingleThreadModel@6@@ATL@@@ATL@@UEAAPEAXI@Z 0000000180004110 f i POSPower.obj
 0001:00003110       ??_G?$CComObject@V?$CComEnum@UIEnumConnectionPoints@@$1?_GUID_b196b285_bab4_101a_b69c_00aa00341d07@@3U__s_GUID@@BPEAUIConnectionPoint@@V?$_CopyInterface@UIConnectionPoint@@@ATL@@VCComSingleThreadModel@6@@ATL@@@ATL@@UEAAPEAXI@Z 0000000180004110 f i POSPower.obj
 0001:00003168       ?AddReplacement@CRegObject@ATL@@UEAAJPEB_W0@Z 0000000180004168 f i POSPower.obj
 0001:00003198       ?ClearReplacements@CRegObject@ATL@@UEAAJXZ 0000000180004198 f i POSPower.obj
 0001:000031a4       ??_ECRegObject@ATL@@UEAAPEAXI@Z 00000001800041a4 f i POSPower.obj
 0001:000031a4       ??_GCRegObject@ATL@@UEAAPEAXI@Z 00000001800041a4 f i POSPower.obj
 0001:00003224       ?AddRef@?$CComAggObject@VCOPOSPOSPower@@@ATL@@UEAAKXZ 0000000180004224 f i POSPower.obj
 0001:00003230       ?Release@?$CComAggObject@VCOPOSPOSPower@@@ATL@@UEAAKXZ 0000000180004230 f i POSPower.obj
 0001:00003284       ?QueryInterface@?$CComAggObject@VCOPOSPOSPower@@@ATL@@UEAAJAEBU_GUID@@PEAPEAX@Z 0000000180004284 f i POSPower.obj
 0001:000032e4       ?AddRef@?$CComContainedObject@VCOPOSPOSPower@@@ATL@@UEAAKXZ 00000001800042e4 f i POSPower.obj
 0001:000032f4       ?Release@?$CComContainedObject@VCOPOSPOSPower@@@ATL@@UEAAKXZ 00000001800042f4 f i POSPower.obj
 0001:00003304       ?QueryInterface@?$CComContainedObject@VCOPOSPOSPower@@@ATL@@UEAAJAEBU_GUID@@PEAPEAX@Z 0000000180004304 f i POSPower.obj
 0001:00003314       ??_E?$CComAggObject@VCOPOSPOSPower@@@ATL@@UEAAPEAXI@Z 0000000180004314 f i POSPower.obj
 0001:00003314       ??_G?$CComAggObject@VCOPOSPOSPower@@@ATL@@UEAAPEAXI@Z 0000000180004314 f i POSPower.obj
 0001:0000336c       ?AddRef@?$CComObject@VCOPOSPOSPower@@@ATL@@UEAAKXZ 000000018000436c f i POSPower.obj
 0001:0000337c       ?Release@?$CComObject@VCOPOSPOSPower@@@ATL@@UEAAKXZ 000000018000437c f i POSPower.obj
 0001:000033d4       ?QueryInterface@?$CComObject@VCOPOSPOSPower@@@ATL@@UEAAJAEBU_GUID@@PEAPEAX@Z 00000001800043d4 f i POSPower.obj
 0001:000033e8       ?OnDrawAdvanced@CComControlBase@ATL@@UEAAJAEAUATL_DRAWINFO@@@Z 00000001800043e8 f i POSPower.obj
 0001:00003574       ??$AtlModuleRegisterWndClassInfoT@VAtlModuleRegisterWndClassInfoParamW@ATL@@@ATL@@YAGPEAU_ATL_BASE_MODULE70@0@PEAU_ATL_WIN_MODULE70@0@PEAU_ATL_WNDCLASSINFOW@0@PEAP6A_JPEAUHWND__@@I_K_J@ZVAtlModuleRegisterWndClassInfoParamW@0@@Z 0000000180004574 f i POSPower.obj
 0001:00003774       ??0?$CComContainedObject@VCOPOSPOSPower@@@ATL@@QEAA@PEAX@Z 0000000180004774 f i POSPower.obj
 0001:00003890       ??0?$CComObject@VCOPOSPOSPower@@@ATL@@QEAA@PEAX@Z 0000000180004890 f i POSPower.obj
 0001:000039a8       ??0CAtlModule@ATL@@QEAA@XZ 00000001800049a8 f i POSPower.obj
 0001:00003a1c       ??1?$CComEnumImpl@UIEnumConnectionPoints@@$1?_GUID_b196b285_bab4_101a_b69c_00aa00341d07@@3U__s_GUID@@BPEAUIConnectionPoint@@V?$_CopyInterface@UIConnectionPoint@@@ATL@@@ATL@@UEAA@XZ 0000000180004a1c f i POSPower.obj
 0001:00003a74       ??1?$CComEnumImpl@UIEnumConnections@@$1?_GUID_b196b287_bab4_101a_b69c_00aa00341d07@@3U__s_GUID@@BUtagCONNECTDATA@@V?$_Copy@UtagCONNECTDATA@@@ATL@@@ATL@@UEAA@XZ 0000000180004a74 f i POSPower.obj
 0001:00003acc       ??1?$CComObject@VCOPOSPOSPower@@@ATL@@UEAA@XZ 0000000180004acc f i POSPower.obj
 0001:00003bec       ??_G?$CComContainedObject@VCOPOSPOSPower@@@ATL@@UEAAPEAXI@Z 0000000180004bec f i POSPower.obj
 0001:00003bec       ??_E?$CComContainedObject@VCOPOSPOSPower@@@ATL@@UEAAPEAXI@Z 0000000180004bec f i POSPower.obj
 0001:00003c20       ??_G?$CComObject@VCOPOSPOSPower@@@ATL@@UEAAPEAXI@Z 0000000180004c20 f i POSPower.obj
 0001:00003c20       ??_E?$CComObject@VCOPOSPOSPower@@@ATL@@UEAAPEAXI@Z 0000000180004c20 f i POSPower.obj
 0001:00003c54       ?Add@?$CSimpleArray@GV?$CSimpleArrayEqualHelper@G@ATL@@@ATL@@QEAAHAEBG@Z 0000000180004c54 f i POSPower.obj
 0001:00003cf4       ?Add@?$CSimpleMap@PEA_WPEA_WVCExpansionVectorEqualHelper@ATL@@@ATL@@QEAAHAEBQEA_W0@Z 0000000180004cf4 f i POSPower.obj
 0001:00003d90       ?Add@CComDynamicUnkArray@ATL@@QEAAKPEAUIUnknown@@@Z 0000000180004d90 f i POSPower.obj
 0001:00003e74       ?Add@CExpansionVector@ATL@@QEAAHPEB_W0@Z 0000000180004e74 f i POSPower.obj
 0001:00003fa8       ?AddTermFunc@CAtlModule@ATL@@QEAAJP6AX_K@Z0@Z 0000000180004fa8 f i POSPower.obj
 0001:00004044       ?AddValue@CRegParser@ATL@@IEAAJAEAVCRegKey@2@PEB_WPEA_W@Z 0000000180005044 f i POSPower.obj
 0001:00004454       ?AllocateHeap@?$CTempBuffer@E$0BAA@VCCRTAllocator@ATL@@@ATL@@AEAAX_K@Z 0000000180005454 f i POSPower.obj
 0001:00004454       ?AllocateHeap@?$CTempBuffer@_W$0BAA@VCCRTAllocator@ATL@@@ATL@@AEAAX_K@Z 0000000180005454 f i POSPower.obj
 0001:00004454       ?AllocateHeap@?$CTempBuffer@_W$0EAA@VCCRTAllocator@ATL@@@ATL@@AEAAX_K@Z 0000000180005454 f i POSPower.obj
 0001:00004480       ?Append@CParseBuffer@CRegParser@ATL@@QEAAHPEB_WH@Z 0000000180005480 f i POSPower.obj
 0001:000045b4       ?AtlComModuleGetClassObject@ATL@@YAJPEAU_ATL_COM_MODULE70@1@AEBU_GUID@@1PEAPEAX@Z 00000001800055b4 f i POSPower.obj
 0001:000046f0       ?AtlComModuleRegisterServer@ATL@@YAJPEAU_ATL_COM_MODULE70@1@HPEBU_GUID@@@Z 00000001800056f0 f i POSPower.obj
 0001:000047b0       ?AtlComModuleUnregisterServer@ATL@@YAJPEAU_ATL_COM_MODULE70@1@HPEBU_GUID@@@Z 00000001800057b0 f i POSPower.obj
 0001:0000486c       ?AtlHiMetricToPixel@ATL@@YAXPEBUtagSIZE@@PEAU2@@Z 000000018000586c f i POSPower.obj
 0001:0000491c       ?AtlHresultFromLastError@ATL@@YAJXZ 000000018000591c f i POSPower.obj
 0001:0000493c       ?AtlHresultFromWin32@ATL@@YAJK@Z 000000018000593c f i POSPower.obj
 0001:0000494c       ?AtlInternalOleLoadFromStream@ATL@@YAJPEAUIStream@@AEBU_GUID@@PEAPEAXTClassesAllowedInStream@1@K@Z 000000018000594c f i POSPower.obj
 0001:00004a9c       ?AtlInternalQueryInterface@ATL@@YAJPEAXPEBU_ATL_INTMAP_ENTRY@1@AEBU_GUID@@PEAPEAX@Z 0000000180005a9c f i POSPower.obj
 0001:00004ba4       ?AtlLoadTypeLib@ATL@@YAJPEAUHINSTANCE__@@PEB_WPEAPEA_WPEAPEAUITypeLib@@@Z 0000000180005ba4 f i POSPower.obj
 0001:00004e00       ?AtlRegisterClassCategoriesHelper@ATL@@YAJAEBU_GUID@@PEBU_ATL_CATMAP_ENTRY@1@H@Z 0000000180005e00 f i POSPower.obj
 0001:00005284       ?AtlRegisterTypeLib@ATL@@YAJPEAUHINSTANCE__@@PEB_W@Z 0000000180006284 f i POSPower.obj
 0001:00005480       ?AtlThrowImpl@ATL@@YAXJ@Z  0000000180006480 f i POSPower.obj
 0001:000054a4       ?AtlUnRegisterTypeLib@ATL@@YAJPEAUHINSTANCE__@@PEB_W@Z 00000001800064a4 f i POSPower.obj
 0001:0000556c       ?AtlWinModuleExtractCreateWndData@ATL@@YAPEAXPEAU_ATL_WIN_MODULE70@1@@Z 000000018000656c f i POSPower.obj
 0001:000055f8       ?ChToByte@CRegParser@ATL@@KAE_W@Z 00000001800065f8 f i POSPower.obj
 0001:00005684       ?Cleanup@CComTypeInfoHolder@ATL@@SAX_K@Z 0000000180006684 f i POSPower.obj
 0001:000056c4       ?ClearReplacements@CExpansionVector@ATL@@QEAAJXZ 00000001800066c4 f i POSPower.obj
 0001:00005760       ?CreateInstance@?$CComCreator@V?$CComAggObject@VCOPOSPOSPower@@@ATL@@@ATL@@SAJPEAXAEBU_GUID@@PEAPEAX@Z 0000000180006760 f i POSPower.obj
 0001:00005844       ?CreateInstance@?$CComCreator@V?$CComObject@VCOPOSPOSPower@@@ATL@@@ATL@@SAJPEAXAEBU_GUID@@PEAPEAX@Z 0000000180006844 f i POSPower.obj
 0001:00005904       ?CreateInstance@?$CComObject@V?$CComEnum@UIEnumConnectionPoints@@$1?_GUID_b196b285_bab4_101a_b69c_00aa00341d07@@3U__s_GUID@@BPEAUIConnectionPoint@@V?$_CopyInterface@UIConnectionPoint@@@ATL@@VCComSingleThreadModel@6@@ATL@@@ATL@@SAJPEAPEAV12@@Z 0000000180006904 f i POSPower.obj
 0001:00005994       ?CreateInstance@?$CComObject@V?$CComEnum@UIEnumConnections@@$1?_GUID_b196b287_bab4_101a_b69c_00aa00341d07@@3U__s_GUID@@BUtagCONNECTDATA@@V?$_Copy@UtagCONNECTDATA@@@ATL@@VCComSingleThreadModel@6@@ATL@@@ATL@@SAJPEAPEAV12@@Z 0000000180006994 f i POSPower.obj
 0001:00005a24       ?DefaultReflectionHandler@?$CWindowImplRoot@VCWindow@ATL@@@ATL@@SAHPEAUHWND__@@I_K_JAEA_J@Z 0000000180006a24 f i POSPower.obj
 0001:00005ab8       ?DeleteSubKey@CRegKey@ATL@@QEAAJPEB_W@Z 0000000180006ab8 f i POSPower.obj
 0001:00005b50       ?DoEvent@COPOSPOSPower@@IEAAXI_K_J@Z 0000000180006b50 f i POSPower.obj
 0001:00005c04       ?DoVerbPrimary@?$IOleObjectImpl@VCOPOSPOSPower@@@ATL@@QEAAJPEBUtagRECT@@PEAUHWND__@@@Z 0000000180006c04 f i POSPower.obj
 0001:00005d30       ?DoVerbProperties@CComControlBase@ATL@@QEAAJPEBUtagRECT@@PEAUHWND__@@@Z 0000000180006d30 f i POSPower.obj
 0001:00005f58       ?FireTheEvent@?$CProxy_IOPOSEvents@VCOPOSPOSPower@@@@IEAAXPEAVOposVariant@@IAEAJPEB_WJ@Z 0000000180006f58 f i POSPower.obj
 0001:00006044       ?FireViewChange@CComControlBase@ATL@@QEAAJXZ 0000000180007044 f i POSPower.obj
 0001:000060a8       ?Fire_DirectIOEvent@?$CProxy_IOPOSEvents@VCOPOSPOSPower@@@@QEAAXJPEAJPEAPEA_W@Z 00000001800070a8 f i POSPower.obj
 0001:00006208       ?Fire_StatusUpdateEvent@?$CProxy_IOPOSEvents@VCOPOSPOSPower@@@@QEAAXJ@Z 0000000180007208 f i POSPower.obj
 0001:000062f4       ?FreeHeap@?$CTempBuffer@_W$0BAA@VCCRTAllocator@ATL@@@ATL@@AEAAXXZ 00000001800072f4 f i POSPower.obj
 0001:000062f4       ?FreeHeap@?$CTempBuffer@E$0BAA@VCCRTAllocator@ATL@@@ATL@@AEAAXXZ 00000001800072f4 f i POSPower.obj
 0001:000062f4       ?FreeHeap@?$CTempBuffer@_W$0EAA@VCCRTAllocator@ATL@@@ATL@@AEAAXXZ 00000001800072f4 f i POSPower.obj
 0001:000062fc       ?GetAmbientLocaleID@CComControlBase@ATL@@QEAAJAEAK@Z 00000001800072fc f i POSPower.obj
 0001:000063bc       ?GetAmbientUserMode@CComControlBase@ATL@@QEAAJAEAH@Z 00000001800073bc f i POSPower.obj
 0001:0000648c       ?GetClassObject@CComModule@ATL@@QEAAJAEBU_GUID@@0PEAPEAX@Z 000000018000748c f i POSPower.obj
 0001:00006580       ?GetConnMap@COPOSPOSPower@@SAPEBU_ATL_CONNMAP_ENTRY@ATL@@PEAH@Z 0000000180007580 f i POSPower.obj
 0001:00006608       ?GetIDsOfNames@CComTypeInfoHolder@ATL@@QEAAJAEBU_GUID@@PEAPEA_WIKPEAJ@Z 0000000180007608 f i POSPower.obj
 0001:00006778       ?GetPagesHelper@?$ISpecifyPropertyPagesImpl@VCOPOSPOSPower@@@ATL@@IEAAJPEAUtagCAUUID@@PEBUATL_PROPMAP_ENTRY@2@@Z 0000000180007778 f i POSPower.obj
 0001:00006918       ?GetSizeMax@CComVariant@ATL@@QEBAJPEAT_ULARGE_INTEGER@@@Z 0000000180007918 f i POSPower.obj
 0001:00006b48       ?GetTI@CComTypeInfoHolder@ATL@@QEAAJK@Z 0000000180007b48 f i POSPower.obj
 0001:00006e2c       ?GetZoomInfo@CComControlBase@ATL@@QEAAXAEAUATL_DRAWINFO@@@Z 0000000180007e2c f i POSPower.obj
 0001:00006ed0       ?HKeyFromString@CRegParser@ATL@@KAPEAUHKEY__@@PEA_W@Z 0000000180007ed0 f i POSPower.obj
 0001:00006f34       ?IDataObject_GetData@CComControlBase@ATL@@QEAAJPEAUtagFORMATETC@@PEAUtagSTGMEDIUM@@@Z 0000000180007f34 f i POSPower.obj
 0001:00007128       ?IOleInPlaceObject_InPlaceDeactivate@CComControlBase@ATL@@QEAAJXZ 0000000180008128 f i POSPower.obj
 0001:000071c8       ?IOleInPlaceObject_SetObjectRects@CComControlBase@ATL@@QEAAJPEBUtagRECT@@0@Z 00000001800081c8 f i POSPower.obj
 0001:000072b8       ?IOleInPlaceObject_UIDeactivate@CComControlBase@ATL@@QEAAJXZ 00000001800082b8 f i POSPower.obj
 0001:000073c4       ?IOleObject_Close@CComControlBase@ATL@@QEAAJK@Z 00000001800083c4 f i POSPower.obj
 0001:000074dc       ?IOleObject_SetClientSite@CComControlBase@ATL@@QEAAJPEAUIOleClientSite@@@Z 00000001800084dc f i POSPower.obj
 0001:00007550       ?IOleObject_SetExtent@CComControlBase@ATL@@QEAAJKPEAUtagSIZE@@@Z 0000000180008550 f i POSPower.obj
 0001:000075e8       ?IPSI_GetIPersistStreamInit@?$IPersistStorageImpl@VCOPOSPOSPower@@@ATL@@AEAAPEAUIPersistStreamInit@@XZ 00000001800085e8 f i POSPower.obj
 0001:000076d0       ?IPersistStreamInit_Load@?$IPersistStreamInitImpl@VCOPOSPOSPower@@@ATL@@QEAAJPEAUIStream@@PEBUATL_PROPMAP_ENTRY@2@@Z 00000001800086d0 f i POSPower.obj
 0001:000079f8       ?IPersistStreamInit_Save@?$IPersistStreamInitImpl@VCOPOSPOSPower@@@ATL@@QEAAJPEAUIStream@@HPEBUATL_PROPMAP_ENTRY@2@@Z 00000001800089f8 f i POSPower.obj
 0001:00007c94       ?IQuickActivate_QuickActivate@CComControlBase@ATL@@QEAAJPEAUtagQACONTAINER@@PEAUtagQACONTROL@@@Z 0000000180008c94 f i POSPower.obj
 0001:00007f58       ?IViewObject_Draw@CComControlBase@ATL@@QEAAJKJPEAXPEAUtagDVTARGETDEVICE@@PEAUHDC__@@2PEBU_RECTL@@3@Z 0000000180008f58 f i POSPower.obj
 0001:0000806c       ?InPlaceActivate@CComControlBase@ATL@@QEAAJJPEBUtagRECT@@@Z 000000018000906c f i POSPower.obj
 0001:0000839c       ?Init@?$CComEnumImpl@UIEnumConnectionPoints@@$1?_GUID_b196b285_bab4_101a_b69c_00aa00341d07@@3U__s_GUID@@BPEAUIConnectionPoint@@V?$_CopyInterface@UIConnectionPoint@@@ATL@@@ATL@@QEAAJPEAPEAUIConnectionPoint@@0PEAUIUnknown@@W4CComEnumFlags@2@@Z 000000018000939c f i POSPower.obj
 0001:000084b8       ?Init@?$CComEnumImpl@UIEnumConnections@@$1?_GUID_b196b287_bab4_101a_b69c_00aa00341d07@@3U__s_GUID@@BUtagCONNECTDATA@@V?$_Copy@UtagCONNECTDATA@@@ATL@@@ATL@@QEAAJPEAUtagCONNECTDATA@@0PEAUIUnknown@@W4CComEnumFlags@2@@Z 00000001800094b8 f i POSPower.obj
 0001:000085d8       ?IsEqualObject@?$CComPtrBase@UIOleClientSite@@@ATL@@QEAA_NPEAUIUnknown@@@Z 00000001800095d8 f i POSPower.obj
 0001:00008664       ?LoadNameCache@CComTypeInfoHolder@ATL@@QEAAJPEAUITypeInfo@@@Z 0000000180009664 f i POSPower.obj
 0001:000087f4       ?Lookup@?$CSimpleMap@PEA_WPEA_WVCExpansionVectorEqualHelper@ATL@@@ATL@@QEBAPEA_WAEBQEA_W@Z 00000001800097f4 f i POSPower.obj
 0001:0000887c       ?NextToken@CRegParser@ATL@@IEAAJPEA_W@Z 000000018000987c f i POSPower.obj
 0001:00008a18       ?OnKillFocus@CComControlBase@ATL@@QEAA_JI_K_JAEAH@Z 0000000180009a18 f i POSPower.obj
 0001:00008ab4       ?OnMouseActivate@CComControlBase@ATL@@QEAA_JI_K_JAEAH@Z 0000000180009ab4 f i POSPower.obj
 0001:00008b54       ?OnPaint@CComControlBase@ATL@@QEAA_JI_K_JAEAH@Z 0000000180009b54 f i POSPower.obj
 0001:00008c40       ?OnSetFocus@CComControlBase@ATL@@QEAA_JI_K_JAEAH@Z 0000000180009c40 f i POSPower.obj
 0001:00008d48       ?PreProcessBuffer@CRegParser@ATL@@QEAAJPEA_WPEAPEA_W@Z 0000000180009d48 f i POSPower.obj
 0001:000090d0       ?ProcessWindowMessage@?$CComControl@VCOPOSPOSPower@@V?$CWindowImpl@VCOPOSPOSPower@@VCWindow@ATL@@V?$CWinTraits@$0FGAAAAAA@$0A@@3@@ATL@@@ATL@@UEAAHPEAUHWND__@@I_K_JAEA_JK@Z 000000018000a0d0 f i POSPower.obj
 0001:000091bc       ?ReadFromStream@CComBSTR@ATL@@QEAAJPEAUIStream@@@Z 000000018000a1bc f i POSPower.obj
 0001:0000930c       ?ReadFromStream@CComVariant@ATL@@QEAAJPEAUIStream@@GTClassesAllowedInStream@2@K@Z 000000018000a30c f i POSPower.obj
 0001:00009550       ?RecurseDeleteKey@CRegKey@ATL@@QEAAJPEB_W@Z 000000018000a550 f i POSPower.obj
 0001:000096a8       ?RegCreateKeyExW@CAtlTransactionManager@ATL@@QEAAJPEAUHKEY__@@PEB_WKPEA_WKKQEAU_SECURITY_ATTRIBUTES@@PEAPEAU3@PEAK@Z 000000018000a6a8 f i POSPower.obj
 0001:000097dc       ?RegDeleteKeyW@CAtlTransactionManager@ATL@@QEAAJPEAUHKEY__@@PEB_W@Z 000000018000a7dc f i POSPower.obj
 0001:00009868       ?RegOpenKeyExW@CAtlTransactionManager@ATL@@QEAAJPEAUHKEY__@@PEB_WKKPEAPEAU3@@Z 000000018000a868 f i POSPower.obj
 0001:00009920       ?RegisterBuffer@CRegParser@ATL@@QEAAJPEA_WH@Z 000000018000a920 f i POSPower.obj
 0001:00009a8c       ?RegisterFromResource@CRegObject@ATL@@IEAAJPEB_W00H@Z 000000018000aa8c f i POSPower.obj
 0001:00009c48       ?RegisterServer@CComModule@ATL@@QEAAJHPEBU_GUID@@@Z 000000018000ac48 f i POSPower.obj
 0001:00009d04       ?RegisterSubkeys@CRegParser@ATL@@IEAAJPEA_WPEAUHKEY__@@HH@Z 000000018000ad04 f i POSPower.obj
 0001:0000a584       ?SendOnDataChange@CComControlBase@ATL@@QEAAJK@Z 000000018000b584 f i POSPower.obj
 0001:0000a5f4       ?SetControlFocus@CComControlBase@ATL@@QEAAHH@Z 000000018000b5f4 f i POSPower.obj
 0001:0000a6c4       ?SkipAssignment@CRegParser@ATL@@IEAAJPEA_W@Z 000000018000b6c4 f i POSPower.obj
 0001:0000a77c       ?Term@CAtlModule@ATL@@QEAAXXZ 000000018000b77c f i POSPower.obj
 0001:0000a834       ?Term@CComModule@ATL@@QEAAXXZ 000000018000b834 f i POSPower.obj
 0001:0000a8b0       ?UnregisterServer@CComModule@ATL@@QEAAJHPEBU_GUID@@@Z 000000018000b8b0 f i POSPower.obj
 0001:0000a960       ?UpdateRegistryFromResource@CAtlModule@ATL@@QEAAJIHPEAU_ATL_REGMAP_ENTRY@2@@Z 000000018000b960 f i POSPower.obj
 0001:0000ac6c       ?UpdateRegistryFromResource@CAtlModule@ATL@@QEAAJPEB_WHPEAU_ATL_REGMAP_ENTRY@2@@Z 000000018000bc6c f i POSPower.obj
 0001:0000af90       ?VTFromRegType@CRegParser@ATL@@KAHPEB_WAEAG@Z 000000018000bf90 f i POSPower.obj
 0001:0000b02c       ?WindowProc@?$CWindowImplBaseT@VCWindow@ATL@@V?$CWinTraits@$0FGAAAAAA@$0A@@2@@ATL@@SA_JPEAUHWND__@@I_K_J@Z 000000018000c02c f i POSPower.obj
 0001:0000b198       ?WriteToStream@CComVariant@ATL@@QEAAJPEAUIStream@@@Z 000000018000c198 f i POSPower.obj
 0001:0000b404       ?WriteToStream@CComVariant@ATL@@QEAAJPEAUIStream@@G@Z 000000018000c404 f i POSPower.obj
 0001:0000b49c       ?_AtlVerifyStackAvailable@_ATL_SAFE_ALLOCA_IMPL@ATL@@YA_N_K@Z 000000018000c49c f i POSPower.obj
 0001:0000b520       ?atlCreate@?$CWindowImpl@VCOPOSPOSPower@@VCWindow@ATL@@V?$CWinTraits@$0FGAAAAAA@$0A@@3@@ATL@@QEAAPEAUHWND__@@PEAU3@V_U_RECT@2@PEB_WKKV_U_MENUorID@2@PEAX@Z 000000018000c520 f i POSPower.obj
 0001:0000b5dc       ?atlCreate@?$CWindowImplBaseT@VCWindow@ATL@@V?$CWinTraits@$0FGAAAAAA@$0A@@2@@ATL@@QEAAPEAUHWND__@@PEAU3@V_U_RECT@2@PEB_WKKV_U_MENUorID@2@GPEAX@Z 000000018000c5dc f i POSPower.obj
 0001:0000b74c       ?ocscpy_s@@YA_NPEA_W_KPEB_W@Z 000000018000c74c f i POSPower.obj
 0001:0000b7fc       DllCanUnloadNow            000000018000c7fc f   POSPower.obj
 0001:0000b808       DllGetClassObject          000000018000c808 f   POSPower.obj
 0001:0000b820       DllMain                    000000018000c820 f   POSPower.obj
 0001:0000b8c8       DllRegisterServer          000000018000c8c8 f   POSPower.obj
 0001:0000b8dc       DllUnregisterServer        000000018000c8dc f   POSPower.obj
 0001:0000b8f0       __local_stdio_printf_options 000000018000c8f0 f i POSPower.obj
 0001:0000b8f8       swprintf_s                 000000018000c8f8 f i POSPower.obj
 0001:0000b94c       ??0COPOSPOSPower@@QEAA@XZ  000000018000c94c f   POSPowerImpl.obj
 0001:0000ba08       ??1?$IConnectionPointImpl@VCOPOSPOSPower@@$1?IID_IPropertyNotifySink@@3U_GUID@@BVCComDynamicUnkArray@ATL@@@ATL@@QEAA@XZ 000000018000ca08 f i POSPowerImpl.obj
 0001:0000ba08       ??1?$IConnectionPointImpl@VCOPOSPOSPower@@$1?DIID__IOPOSPOSPowerEvents@@3U_GUID@@BVCComDynamicUnkArray@ATL@@@ATL@@QEAA@XZ 000000018000ca08 f i POSPowerImpl.obj
 0001:0000ba64       ??1CComControlBase@ATL@@UEAA@XZ 000000018000ca64 f i POSPowerImpl.obj
 0001:0000bae0       ??1COPOSPOSPower@@UEAA@XZ  000000018000cae0 f   POSPowerImpl.obj
 0001:0000bb44       ?CheckHealth@COPOSPOSPower@@UEAAJJPEAJ@Z 000000018000cb44 f   POSPowerImpl.obj
 0001:0000bbc0       ?ClaimDevice@COPOSPOSPower@@UEAAJJPEAJ@Z 000000018000cbc0 f   POSPowerImpl.obj
 0001:0000bc58       ?Close@COPOSPOSPower@@UEAAJPEAJ@Z 000000018000cc58 f   POSPowerImpl.obj
 0001:0000bd10       ?CompareFirmwareVersion@COPOSPOSPower@@UEAAJPEA_WPEAJ1@Z 000000018000cd10 f   POSPowerImpl.obj
 0001:0000bdec       ?DirectIO@COPOSPOSPower@@UEAAJJPEAJPEAPEA_W0@Z 000000018000cdec f   POSPowerImpl.obj
 0001:0000bee8       ?DoInvoke@COPOSPOSPower@@IEAAJJPEAVOposVariant@@IHPEAJ_N@Z 000000018000cee8 f   POSPowerImpl.obj
 0001:0000c01c       ?EventInit@COPOSPOSPower@@IEAAJXZ 000000018000d01c f i POSPowerImpl.obj
 0001:0000c16c       ?EventUninit@COPOSPOSPower@@IEAAXXZ 000000018000d16c f i POSPowerImpl.obj
 0001:0000c1d0       ?EventWindowProc@COPOSPOSPower@@IEAA_JI_K_J@Z 000000018000d1d0 f i POSPowerImpl.obj
 0001:0000c294       ?FinalConstruct@COPOSPOSPower@@QEAAJXZ 000000018000d294 f   POSPowerImpl.obj
 0001:0000c2d0       ?FreezeEvents@COPOSPOSPower@@MEAAJH@Z 000000018000d2d0 f   POSPowerImpl.obj
 0001:0000c33c       ?GetOposProp@COPOSPOSPower@@IEAAJJPEAJJ@Z 000000018000d33c f   POSPowerImpl.obj
 0001:0000c458       ?GetOposProp@COPOSPOSPower@@IEAAJJPEAPEA_WJ@Z 000000018000d458 f   POSPowerImpl.obj
 0001:0000c584       ?OnDraw@COPOSPOSPower@@MEAAJAEAUATL_DRAWINFO@@@Z 000000018000d584 f   POSPowerImpl.obj
 0001:0000c670       ?Open@COPOSPOSPower@@UEAAJPEA_WPEAJ@Z 000000018000d670 f   POSPowerImpl.obj
 0001:0000cee8       ?ReleaseDevice@COPOSPOSPower@@UEAAJPEAJ@Z 000000018000dee8 f   POSPowerImpl.obj
 0001:0000cf2c       ?ResetStatistics@COPOSPOSPower@@UEAAJPEA_WPEAJ@Z 000000018000df2c f   POSPowerImpl.obj
 0001:0000cfb4       ?RestartPOS@COPOSPOSPower@@UEAAJPEAJ@Z 000000018000dfb4 f   POSPowerImpl.obj
 0001:0000cfdc       ?RetrieveStatistics@COPOSPOSPower@@UEAAJPEAPEA_WPEAJ@Z 000000018000dfdc f   POSPowerImpl.obj
 0001:0000d064       ?SOProcessID@COPOSPOSPower@@UEAAJPEAJ@Z 000000018000e064 f   POSPowerImpl.obj
 0001:0000d080       ?SetCOFreezeEvents@COPOSPOSPower@@IEAAXF@Z 000000018000e080 f   POSPowerImpl.obj
 0001:0000d164       ?SetOposProp@COPOSPOSPower@@IEAAJJJJ@Z 000000018000e164 f   POSPowerImpl.obj
 0001:0000d2c4       ?ShutdownPOS@COPOSPOSPower@@UEAAJPEAJ@Z 000000018000e2c4 f   POSPowerImpl.obj
 0001:0000d2ec       ?StandbyPOS@COPOSPOSPower@@UEAAJJPEAJ@Z 000000018000e2ec f   POSPowerImpl.obj
 0001:0000d368       ?SuspendPOS@COPOSPOSPower@@UEAAJJPEAJ@Z 000000018000e368 f   POSPowerImpl.obj
 0001:0000d3e4       ?UpdateFirmware@COPOSPOSPower@@UEAAJPEA_WPEAJ@Z 000000018000e3e4 f   POSPowerImpl.obj
 0001:0000d46c       ?UpdateStatistics@COPOSPOSPower@@UEAAJPEA_WPEAJ@Z 000000018000e46c f   POSPowerImpl.obj
 0001:0000d4f4       ?get_BatteryCapacityRemaining@COPOSPOSPower@@UEAAJPEAJ@Z 000000018000e4f4 f   POSPowerImpl.obj
 0001:0000d508       ?get_BatteryCriticallyLowThreshold@COPOSPOSPower@@UEAAJPEAJ@Z 000000018000e508 f   POSPowerImpl.obj
 0001:0000d51c       ?get_BatteryLowThreshold@COPOSPOSPower@@UEAAJPEAJ@Z 000000018000e51c f   POSPowerImpl.obj
 0001:0000d530       ?get_BinaryConversion@COPOSPOSPower@@UEAAJPEAJ@Z 000000018000e530 f   POSPowerImpl.obj
 0001:0000d544       ?get_CapBatteryCapacityRemaining@COPOSPOSPower@@UEAAJPEAF@Z 000000018000e544 f   POSPowerImpl.obj
 0001:0000d578       ?get_CapCompareFirmwareVersion@COPOSPOSPower@@UEAAJPEAF@Z 000000018000e578 f   POSPowerImpl.obj
 0001:0000d5ac       ?get_CapFanAlarm@COPOSPOSPower@@UEAAJPEAF@Z 000000018000e5ac f   POSPowerImpl.obj
 0001:0000d5e0       ?get_CapHeatAlarm@COPOSPOSPower@@UEAAJPEAF@Z 000000018000e5e0 f   POSPowerImpl.obj
 0001:0000d614       ?get_CapPowerReporting@COPOSPOSPower@@UEAAJPEAJ@Z 000000018000e614 f   POSPowerImpl.obj
 0001:0000d628       ?get_CapQuickCharge@COPOSPOSPower@@UEAAJPEAF@Z 000000018000e628 f   POSPowerImpl.obj
 0001:0000d65c       ?get_CapRestartPOS@COPOSPOSPower@@UEAAJPEAF@Z 000000018000e65c f   POSPowerImpl.obj
 0001:0000d690       ?get_CapShutdownPOS@COPOSPOSPower@@UEAAJPEAF@Z 000000018000e690 f   POSPowerImpl.obj
 0001:0000d6c4       ?get_CapStandbyPOS@COPOSPOSPower@@UEAAJPEAF@Z 000000018000e6c4 f   POSPowerImpl.obj
 0001:0000d6f8       ?get_CapStatisticsReporting@COPOSPOSPower@@UEAAJPEAF@Z 000000018000e6f8 f   POSPowerImpl.obj
 0001:0000d72c       ?get_CapSuspendPOS@COPOSPOSPower@@UEAAJPEAF@Z 000000018000e72c f   POSPowerImpl.obj
 0001:0000d760       ?get_CapUPSChargeState@COPOSPOSPower@@UEAAJPEAJ@Z 000000018000e760 f   POSPowerImpl.obj
 0001:0000d774       ?get_CapUpdateFirmware@COPOSPOSPower@@UEAAJPEAF@Z 000000018000e774 f   POSPowerImpl.obj
 0001:0000d7a8       ?get_CapUpdateStatistics@COPOSPOSPower@@UEAAJPEAF@Z 000000018000e7a8 f   POSPowerImpl.obj
 0001:0000d7dc       ?get_CapVariableBatteryCriticallyLowThreshold@COPOSPOSPower@@UEAAJPEAF@Z 000000018000e7dc f   POSPowerImpl.obj
 0001:0000d810       ?get_CapVariableBatteryLowThreshold@COPOSPOSPower@@UEAAJPEAF@Z 000000018000e810 f   POSPowerImpl.obj
 0001:0000d844       ?get_CheckHealthText@COPOSPOSPower@@UEAAJPEAPEA_W@Z 000000018000e844 f   POSPowerImpl.obj
 0001:0000d858       ?get_Claimed@COPOSPOSPower@@UEAAJPEAF@Z 000000018000e858 f   POSPowerImpl.obj
 0001:0000d88c       ?get_ControlObjectDescription@COPOSPOSPower@@UEAAJPEAPEA_W@Z 000000018000e88c f   POSPowerImpl.obj
 0001:0000d8f0       ?get_ControlObjectVersion@COPOSPOSPower@@UEAAJPEAJ@Z 000000018000e8f0 f   POSPowerImpl.obj
 0001:0000d8fc       ?get_DeviceDescription@COPOSPOSPower@@UEAAJPEAPEA_W@Z 000000018000e8fc f   POSPowerImpl.obj
 0001:0000d910       ?get_DeviceEnabled@COPOSPOSPower@@UEAAJPEAF@Z 000000018000e910 f   POSPowerImpl.obj
 0001:0000d944       ?get_DeviceName@COPOSPOSPower@@UEAAJPEAPEA_W@Z 000000018000e944 f   POSPowerImpl.obj
 0001:0000d958       ?get_EnforcedShutdownDelayTime@COPOSPOSPower@@UEAAJPEAJ@Z 000000018000e958 f   POSPowerImpl.obj
 0001:0000d96c       ?get_FreezeEvents@COPOSPOSPower@@UEAAJPEAF@Z 000000018000e96c f   POSPowerImpl.obj
 0001:0000d99c       ?get_OpenResult@COPOSPOSPower@@UEAAJPEAJ@Z 000000018000e99c f   POSPowerImpl.obj
 0001:0000d9a8       ?get_PowerFailDelayTime@COPOSPOSPower@@UEAAJPEAJ@Z 000000018000e9a8 f   POSPowerImpl.obj
 0001:0000d9bc       ?get_PowerNotify@COPOSPOSPower@@UEAAJPEAJ@Z 000000018000e9bc f   POSPowerImpl.obj
 0001:0000d9d0       ?get_PowerSource@COPOSPOSPower@@UEAAJPEAJ@Z 000000018000e9d0 f   POSPowerImpl.obj
 0001:0000d9e4       ?get_PowerState@COPOSPOSPower@@UEAAJPEAJ@Z 000000018000e9e4 f   POSPowerImpl.obj
 0001:0000d9f8       ?get_QuickChargeMode@COPOSPOSPower@@UEAAJPEAF@Z 000000018000e9f8 f   POSPowerImpl.obj
 0001:0000da2c       ?get_QuickChargeTime@COPOSPOSPower@@UEAAJPEAJ@Z 000000018000ea2c f   POSPowerImpl.obj
 0001:0000da40       ?get_ResultCode@COPOSPOSPower@@UEAAJPEAJ@Z 000000018000ea40 f   POSPowerImpl.obj
 0001:0000da7c       ?get_ResultCodeExtended@COPOSPOSPower@@UEAAJPEAJ@Z 000000018000ea7c f   POSPowerImpl.obj
 0001:0000da90       ?get_ServiceObjectDescription@COPOSPOSPower@@UEAAJPEAPEA_W@Z 000000018000ea90 f   POSPowerImpl.obj
 0001:0000daa4       ?get_ServiceObjectVersion@COPOSPOSPower@@UEAAJPEAJ@Z 000000018000eaa4 f   POSPowerImpl.obj
 0001:0000dab8       ?get_State@COPOSPOSPower@@UEAAJPEAJ@Z 000000018000eab8 f   POSPowerImpl.obj
 0001:0000dae4       ?get_UPSChargeState@COPOSPOSPower@@UEAAJPEAJ@Z 000000018000eae4 f   POSPowerImpl.obj
 0001:0000daf8       ?put_BatteryCriticallyLowThreshold@COPOSPOSPower@@UEAAJJ@Z 000000018000eaf8 f   POSPowerImpl.obj
 0001:0000db0c       ?put_BatteryLowThreshold@COPOSPOSPower@@UEAAJJ@Z 000000018000eb0c f   POSPowerImpl.obj
 0001:0000db20       ?put_BinaryConversion@COPOSPOSPower@@UEAAJJ@Z 000000018000eb20 f   POSPowerImpl.obj
 0001:0000db34       ?put_DeviceEnabled@COPOSPOSPower@@UEAAJF@Z 000000018000eb34 f   POSPowerImpl.obj
 0001:0000db4c       ?put_EnforcedShutdownDelayTime@COPOSPOSPower@@UEAAJJ@Z 000000018000eb4c f   POSPowerImpl.obj
 0001:0000db60       ?put_FreezeEvents@COPOSPOSPower@@UEAAJF@Z 000000018000eb60 f   POSPowerImpl.obj
 0001:0000dbb0       ?put_PowerNotify@COPOSPOSPower@@UEAAJJ@Z 000000018000ebb0 f   POSPowerImpl.obj
 0001:0000dbc4       ?s_EventWindowProc@COPOSPOSPower@@KA_JPEAUHWND__@@I_K_J@Z 000000018000ebc4 f i POSPowerImpl.obj
 0001:0000dc40       ??_U@YAPEAX_K@Z            000000018000ec40 f   LIBCMT:new_array.obj
 0001:0000dc48       ??3@YAXPEAX_K@Z            000000018000ec48 f   LIBCMT:delete_scalar_size.obj
 0001:0000dc48       ??_V@YAXPEAX@Z             000000018000ec48 f   LIBCMT:delete_array.obj
 0001:0000dc50       ??_V@YAXPEAX_K@Z           000000018000ec50 f   LIBCMT:delete_array_size.obj
 0001:0000dc58       __scrt_acquire_startup_lock 000000018000ec58 f   LIBCMT:utility.obj
 0001:0000dc94       __scrt_dllmain_after_initialize_c 000000018000ec94 f   LIBCMT:utility.obj
 0001:0000dcc8       __scrt_dllmain_before_initialize_c 000000018000ecc8 f   LIBCMT:utility.obj
 0001:0000dce0       __scrt_dllmain_crt_thread_attach 000000018000ece0 f   LIBCMT:utility.obj
 0001:0000dd08       __scrt_dllmain_crt_thread_detach 000000018000ed08 f   LIBCMT:utility.obj
 0001:0000dd20       __scrt_dllmain_exception_filter 000000018000ed20 f   LIBCMT:utility.obj
 0001:0000dd80       __scrt_dllmain_uninitialize_c 000000018000ed80 f   LIBCMT:utility.obj
 0001:0000ddb0       __scrt_dllmain_uninitialize_critical 000000018000edb0 f   LIBCMT:utility.obj
 0001:0000ddc4       __scrt_initialize_crt      000000018000edc4 f   LIBCMT:utility.obj
 0001:0000de10       __scrt_initialize_onexit_tables 000000018000ee10 f   LIBCMT:utility.obj
 0001:0000de9c       __scrt_is_nonwritable_in_current_image 000000018000ee9c f   LIBCMT:utility.obj
 0001:0000df34       __scrt_release_startup_lock 000000018000ef34 f   LIBCMT:utility.obj
 0001:0000df58       __scrt_uninitialize_crt    000000018000ef58 f   LIBCMT:utility.obj
 0001:0000df84       _onexit                    000000018000ef84 f   LIBCMT:utility.obj
 0001:0000dfc0       atexit                     000000018000efc0 f   LIBCMT:utility.obj
 0001:0000dfd8       ??3@YAXPEAX@Z              000000018000efd8 f   LIBCMT:delete_scalar.obj
 0001:0000e0d8       _Init_thread_footer        000000018000f0d8 f   LIBCMT:thread_safe_statics.obj
 0001:0000e138       _Init_thread_header        000000018000f138 f   LIBCMT:thread_safe_statics.obj
 0001:0000e1a0       _Init_thread_notify        000000018000f1a0 f   LIBCMT:thread_safe_statics.obj
 0001:0000e1e4       _Init_thread_wait          000000018000f1e4 f   LIBCMT:thread_safe_statics.obj
 0001:0000e248       __raise_securityfailure    000000018000f248 f   LIBCMT:gs_report.obj
 0001:0000e27c       __report_gsfailure         000000018000f27c f   LIBCMT:gs_report.obj
 0001:0000e350       __report_rangecheckfailure 000000018000f350 f   LIBCMT:gs_report.obj
 0001:0000e364       __report_securityfailure   000000018000f364 f   LIBCMT:gs_report.obj
 0001:0000e4e4       ??2@YAPEAX_KAEBUnothrow_t@std@@@Z 000000018000f4e4 f   LIBCMT:new_scalar_nothrow.obj
 0001:0000e4f8       ??_U@YAPEAX_KAEBUnothrow_t@std@@@Z 000000018000f4f8 f   LIBCMT:new_array_nothrow.obj
 0001:0000e500       __GSHandlerCheck           000000018000f500 f   LIBCMT:gshandler.obj
 0001:0000e520       __GSHandlerCheckCommon     000000018000f520 f   LIBCMT:gshandler.obj
 0001:0000e57c       __GSHandlerCheck_SEH       000000018000f57c f   LIBCMT:gshandlerseh.obj
 0001:0000e620       _alloca_probe              000000018000f620 f   LIBCMT:chkstk.obj
 0001:0000e620       __chkstk                   000000018000f620 f   LIBCMT:chkstk.obj
 0001:0000e680       __security_check_cookie    000000018000f680 f   LIBCMT:amdsecgs.obj
 0001:0000e9c0       _DllMainCRTStartup         000000018000f9c0 f   LIBCMT:dll_dllmain.obj
 0001:0000ea00       ??2@YAPEAX_K@Z             000000018000fa00 f   LIBCMT:new_scalar.obj
 0001:0000ea3c       __isa_available_init       000000018000fa3c f   LIBCMT:cpu_disp.obj
 0001:0000ebe0       __scrt_is_ucrt_dll_in_use  000000018000fbe0 f   LIBCMT:ucrt_detection.obj
 0001:0000ebec       __crt_debugger_hook        000000018000fbec f   LIBCMT:utility_desktop.obj
 0001:0000ebf4       __scrt_fastfail            000000018000fbf4 f   LIBCMT:utility_desktop.obj
 0001:0000ed40       __security_init_cookie     000000018000fd40 f   LIBCMT:gs_support.obj
 0001:0000edec       ?__scrt_initialize_type_info@@YAXXZ 000000018000fdec f   LIBCMT:tncleanup.obj
 0001:0000edfc       ?__scrt_uninitialize_type_info@@YAXXZ 000000018000fdfc f   LIBCMT:tncleanup.obj
 0001:0000ee08       __local_stdio_scanf_options 000000018000fe08 f i LIBCMT:default_local_stdio_options.obj
 0001:0000ee10       __scrt_initialize_default_local_stdio_options 000000018000fe10 f   LIBCMT:default_local_stdio_options.obj
 0001:0000ee2c       __scrt_get_dyn_tls_init_callback 000000018000fe2c f   LIBCMT:dyn_tls_init.obj
 0001:0000ee34       _RTC_Initialize            000000018000fe34 f   LIBCMT:initsect.obj
 0001:0000ee70       _RTC_Terminate             000000018000fe70 f   LIBCMT:initsect.obj
 0001:0000eeac       ??0bad_alloc@std@@QEAA@AEBV01@@Z 000000018000feac f i LIBCMT:throw_bad_alloc.obj
 0001:0000eee8       ??0bad_alloc@std@@QEAA@XZ  000000018000fee8 f i LIBCMT:throw_bad_alloc.obj
 0001:0000ef08       ??0bad_array_new_length@std@@QEAA@AEBV01@@Z 000000018000ff08 f i LIBCMT:throw_bad_alloc.obj
 0001:0000ef44       ??0bad_array_new_length@std@@QEAA@XZ 000000018000ff44 f i LIBCMT:throw_bad_alloc.obj
 0001:0000ef64       ??0exception@std@@QEAA@AEBV01@@Z 000000018000ff64 f i LIBCMT:throw_bad_alloc.obj
 0001:0000ef98       ??1bad_exception@std@@UEAA@XZ 000000018000ff98 f i libvcruntime:frame.obj
 0001:0000ef98       ??1bad_array_new_length@std@@UEAA@XZ 000000018000ff98 f i LIBCMT:throw_bad_alloc.obj
 0001:0000ef98       ??1bad_alloc@std@@UEAA@XZ  000000018000ff98 f i LIBCMT:throw_bad_alloc.obj
 0001:0000efac       ??_Gbad_exception@std@@UEAAPEAXI@Z 000000018000ffac f i libvcruntime:frame.obj
 0001:0000efac       ??_Gexception@std@@UEAAPEAXI@Z 000000018000ffac f i LIBCMT:throw_bad_alloc.obj
 0001:0000efac       ??_Ebad_array_new_length@std@@UEAAPEAXI@Z 000000018000ffac f i LIBCMT:throw_bad_alloc.obj
 0001:0000efac       ??_Eexception@std@@UEAAPEAXI@Z 000000018000ffac f i LIBCMT:throw_bad_alloc.obj
 0001:0000efac       ??_Ebad_exception@std@@UEAAPEAXI@Z 000000018000ffac f i libvcruntime:frame.obj
 0001:0000efac       ??_Gbad_array_new_length@std@@UEAAPEAXI@Z 000000018000ffac f i LIBCMT:throw_bad_alloc.obj
 0001:0000efac       ??_Gbad_alloc@std@@UEAAPEAXI@Z 000000018000ffac f i LIBCMT:throw_bad_alloc.obj
 0001:0000efac       ??_Ebad_alloc@std@@UEAAPEAXI@Z 000000018000ffac f i LIBCMT:throw_bad_alloc.obj
 0001:0000eff0       ?__scrt_throw_std_bad_alloc@@YAXXZ 000000018000fff0 f   LIBCMT:throw_bad_alloc.obj
 0001:0000f010       ?__scrt_throw_std_bad_array_new_length@@YAXXZ 0000000180010010 f   LIBCMT:throw_bad_alloc.obj
 0001:0000f030       ?what@exception@std@@UEBAPEBDXZ 0000000180010030 f i LIBCMT:throw_bad_alloc.obj
 0001:0000f050       ??_Gtype_info@@UEAAPEAXI@Z 0000000180010050 f i LIBCMT:std_type_info_static.obj
 0001:0000f050       ??_Etype_info@@UEAAPEAXI@Z 0000000180010050 f i LIBCMT:std_type_info_static.obj
 0001:0000f07c       ??0CAtlBaseModule@ATL@@QEAA@XZ 000000018001007c f   atls:atlbase.obj
 0001:0000f124       ??1CAtlBaseModule@ATL@@QEAA@XZ 0000000180010124 f   atls:atlbase.obj
 0001:0000f258       ?__AllocStdCallThunk_cmn@@YAPEAXXZ 0000000180010258 f   atls:atlthunk.obj
 0001:0000f3b0       AtlThunk_AllocateData      00000001800103b0 f   atls:atlthunk.obj
 0001:0000f42c       AtlThunk_DataToCode        000000018001042c f   atls:atlthunk.obj
 0001:0000f480       AtlThunk_FreeData          0000000180010480 f   atls:atlthunk.obj
 0001:0000f4e0       AtlThunk_InitData          00000001800104e0 f   atls:atlthunk.obj
 0001:0000f588       _get_purecall_handler      0000000180010588 f   libvcruntime:purevirt.obj
 0001:0000f594       _purecall                  0000000180010594 f   libvcruntime:purevirt.obj
 0001:0000f5b0       wcsstr                     00000001800105b0 f   libvcruntime:wcsstr.obj
 0001:0000f7e0       memcmp                     00000001800107e0 f   libvcruntime:memcmp.obj
 0001:0000f8c0       memcpy_repmovs             00000001800108c0 f   libvcruntime:memcpy.obj
 0001:0000f8e0       memcpy                     00000001800108e0 f   libvcruntime:memcpy.obj
 0001:0000f8e0       memmove                    00000001800108e0 f   libvcruntime:memcpy.obj
 0001:0000ff70       memset_repmovs             0000000180010f70 f   libvcruntime:memset.obj
 0001:0000ff90       memset                     0000000180010f90 f   libvcruntime:memset.obj
 0001:00010120       __vcrt_initialize          0000000180011120 f   libvcruntime:initialization.obj
 0001:00010148       __vcrt_thread_attach       0000000180011148 f   libvcruntime:initialization.obj
 0001:0001015c       __vcrt_thread_detach       000000018001115c f   libvcruntime:initialization.obj
 0001:00010170       __vcrt_uninitialize        0000000180011170 f   libvcruntime:initialization.obj
 0001:0001018c       __vcrt_uninitialize_critical 000000018001118c f   libvcruntime:initialization.obj
 0001:0001019c       __C_specific_handler       000000018001119c f   libvcruntime:riscchandler.obj
 0001:00010394       ??$_CallSETranslator@V__FrameHandler3@@@@YAHPEAUEHExceptionRecord@@PEA_KPEAU_CONTEXT@@PEAU_xDISPATCHER_CONTEXT@@PEBU_s_FuncInfo@@K1H@Z 0000000180011394 f i libvcruntime:risctrnsctrl.obj
 0001:000103e8       ??$_CallSETranslator@V__FrameHandler4@@@@YAHPEAUEHExceptionRecord@@PEA_KPEAU_CONTEXT@@PEAU_xDISPATCHER_CONTEXT@@PEAUFuncInfo4@FH4@@K1H@Z 00000001800113e8 f i libvcruntime:risctrnsctrl.obj
 0001:0001043c       ?CatchTryBlock@__FrameHandler3@@SAPEBU_s_TryBlockMapEntry@@PEBU_s_FuncInfo@@H@Z 000000018001143c f   libvcruntime:risctrnsctrl.obj
 0001:000104a0       ?DecompFuncInfo@FH4@@YA_JPEAEAEAUFuncInfo4@1@_KH_N@Z 00000001800114a0 f i libvcruntime:risctrnsctrl.obj
 0001:000105c4       ?ExecutionInCatch@__FrameHandler3@@SA_NPEAU_xDISPATCHER_CONTEXT@@PEBU_s_FuncInfo@@@Z 00000001800115c4 f   libvcruntime:risctrnsctrl.obj
 0001:000105f0       ?ExecutionInCatch@__FrameHandler4@@SA_NPEAU_xDISPATCHER_CONTEXT@@PEAUFuncInfo4@FH4@@@Z 00000001800115f0 f   libvcruntime:risctrnsctrl.obj
 0001:000105f8       ?FrameUnwindToEmptyState@__FrameHandler3@@SAXPEA_KPEAU_xDISPATCHER_CONTEXT@@PEBU_s_FuncInfo@@@Z 00000001800115f8 f   libvcruntime:risctrnsctrl.obj
 0001:0001065c       ?FrameUnwindToEmptyState@__FrameHandler4@@SAXPEA_KPEAU_xDISPATCHER_CONTEXT@@PEAUFuncInfo4@FH4@@@Z 000000018001165c f   libvcruntime:risctrnsctrl.obj
 0001:00010690       ?GetEstablisherFrame@__FrameHandler3@@SAPEA_KPEA_KPEAU_xDISPATCHER_CONTEXT@@PEBU_s_FuncInfo@@0@Z 0000000180011690 f   libvcruntime:risctrnsctrl.obj
 0001:0001075c       ?GetEstablisherFrame@__FrameHandler4@@SAPEA_KPEA_KPEAU_xDISPATCHER_CONTEXT@@PEAUFuncInfo4@FH4@@0@Z 000000018001175c f   libvcruntime:risctrnsctrl.obj
 0001:00010780       ?GetRangeOfTrysToCheck@__FrameHandler3@@SA?AU?$pair@Viterator@TryBlockMap@__FrameHandler3@@V123@@std@@AEAVTryBlockMap@1@HPEAU_xDISPATCHER_CONTEXT@@PEBU_s_FuncInfo@@H@Z 0000000180011780 f   libvcruntime:risctrnsctrl.obj
 0001:000108c0       ?GetRangeOfTrysToCheck@__FrameHandler4@@SA?AU?$pair@Viterator@TryBlockMap4@FH4@@V123@@std@@AEAVTryBlockMap4@FH4@@HPEAU_xDISPATCHER_CONTEXT@@PEAUFuncInfo4@5@H@Z 00000001800118c0 f   libvcruntime:risctrnsctrl.obj
 0001:00010a2c       ?UnwindNestedFrames@__FrameHandler3@@SAXPEA_KPEAUEHExceptionRecord@@PEAU_CONTEXT@@0PEAXPEBU_s_FuncInfo@@HHPEBU_s_HandlerType@@PEAU_xDISPATCHER_CONTEXT@@E@Z 0000000180011a2c f   libvcruntime:risctrnsctrl.obj
 0001:00010b30       ?UnwindNestedFrames@__FrameHandler4@@SAXPEA_KPEAUEHExceptionRecord@@PEAU_CONTEXT@@0PEAXPEAUFuncInfo4@FH4@@HHPEAUHandlerType4@5@PEAU_xDISPATCHER_CONTEXT@@E@Z 0000000180011b30 f   libvcruntime:risctrnsctrl.obj
 0001:00010c50       ?setBuffer@TryBlockMap4@FH4@@QEAAXViterator@12@@Z 0000000180011c50 f i libvcruntime:risctrnsctrl.obj
 0001:00010e14       _CreateFrameInfo           0000000180011e14 f   libvcruntime:risctrnsctrl.obj
 0001:00010e50       _FindAndUnlinkFrame        0000000180011e50 f   libvcruntime:risctrnsctrl.obj
 0001:00010ea4       _GetImageBase              0000000180011ea4 f   libvcruntime:risctrnsctrl.obj
 0001:00010eb8       _GetThrowImageBase         0000000180011eb8 f   libvcruntime:risctrnsctrl.obj
 0001:00010ecc       _SetImageBase              0000000180011ecc f   libvcruntime:risctrnsctrl.obj
 0001:00010ee4       _SetThrowImageBase         0000000180011ee4 f   libvcruntime:risctrnsctrl.obj
 0001:00010efc       __CxxFrameHandler3         0000000180011efc f   libvcruntime:risctrnsctrl.obj
 0001:00010f84       __CxxFrameHandler4         0000000180011f84 f   libvcruntime:risctrnsctrl.obj
 0001:00011044       __DestructExceptionObject  0000000180012044 f   libvcruntime:ehhelpers.obj
 0001:000110b4       ?_CallMemberFunction0@@YAXQEAX0@Z 00000001800120b4 f i libvcruntime:ehhelpers.obj
 0001:000110b8       _IsExceptionObjectToBeDestroyed 00000001800120b8 f   libvcruntime:ehhelpers.obj
 0001:000110e8       __AdjustPointer            00000001800120e8 f   libvcruntime:ehhelpers.obj
 0001:0001110c       __FrameUnwindFilter        000000018001210c f   libvcruntime:ehhelpers.obj
 0001:00011174       __std_terminate            0000000180012174 f   libvcruntime:ehhelpers.obj
 0001:00011180       __std_type_info_compare    0000000180012180 f   libvcruntime:std_type_info.obj
 0001:000111a8       __std_type_info_destroy_list 00000001800121a8 f   libvcruntime:std_type_info.obj
 0001:000111d4       __std_exception_copy       00000001800121d4 f   libvcruntime:std_exception.obj
 0001:00011264       __std_exception_destroy    0000000180012264 f   libvcruntime:std_exception.obj
 0001:0001128c       _CxxThrowException         000000018001228c f   libvcruntime:throw.obj
 0001:0001132c       __vcrt_freefls             000000018001232c f   libvcruntime:per_thread_data.obj
 0001:0001134c       __vcrt_freeptd             000000018001234c f   libvcruntime:per_thread_data.obj
 0001:0001139c       __vcrt_getptd              000000018001239c f   libvcruntime:per_thread_data.obj
 0001:000113b8       __vcrt_getptd_noexit       00000001800123b8 f   libvcruntime:per_thread_data.obj
 0001:00011478       __vcrt_initialize_ptd      0000000180012478 f   libvcruntime:per_thread_data.obj
 0001:000114c0       __vcrt_uninitialize_ptd    00000001800124c0 f   libvcruntime:per_thread_data.obj
 0001:000114e4       __vcrt_initialize_locks    00000001800124e4 f   libvcruntime:locks.obj
 0001:0001152c       __vcrt_uninitialize_locks  000000018001252c f   libvcruntime:locks.obj
 0001:00011580       _NLG_Notify                0000000180012580 f   libvcruntime:notify.obj
 0001:000115a0       __NLG_Dispatch2            00000001800125a0 f   libvcruntime:notify.obj
 0001:000115b0       __NLG_Return2              00000001800125b0 f   libvcruntime:notify.obj
 0001:000115b4       __except_validate_context_record 00000001800125b4 f   libvcruntime:jbcxrval.obj
 0001:000115ec       ?GetCurrentState@__FrameHandler3@@SAHPEA_KPEAU_xDISPATCHER_CONTEXT@@PEBU_s_FuncInfo@@@Z 00000001800125ec f   libvcruntime:ehstate.obj
 0001:00011614       ?GetUnwindTryBlock@__FrameHandler3@@SAHPEA_KPEAU_xDISPATCHER_CONTEXT@@PEBU_s_FuncInfo@@@Z 0000000180012614 f   libvcruntime:ehstate.obj
 0001:00011640       ?SetState@__FrameHandler3@@SAXPEA_KPEBU_s_FuncInfo@@H@Z 0000000180012640 f   libvcruntime:ehstate.obj
 0001:0001164c       ?SetUnwindTryBlock@__FrameHandler3@@SAXPEA_KPEAU_xDISPATCHER_CONTEXT@@PEBU_s_FuncInfo@@H@Z 000000018001264c f   libvcruntime:ehstate.obj
 0001:00011688       ?StateFromControlPc@__FrameHandler3@@SAHPEBU_s_FuncInfo@@PEAU_xDISPATCHER_CONTEXT@@@Z 0000000180012688 f   libvcruntime:ehstate.obj
 0001:00011690       ?StateFromControlPc@__FrameHandler4@@SAHPEAUFuncInfo4@FH4@@PEAU_xDISPATCHER_CONTEXT@@@Z 0000000180012690 f   libvcruntime:ehstate.obj
 0001:00011698       ?StateFromIp@__FrameHandler3@@SAHPEBU_s_FuncInfo@@PEAU_xDISPATCHER_CONTEXT@@_K@Z 0000000180012698 f   libvcruntime:ehstate.obj
 0001:00011700       ?StateFromIp@__FrameHandler4@@SAHPEAUFuncInfo4@FH4@@PEAU_xDISPATCHER_CONTEXT@@_K@Z 0000000180012700 f   libvcruntime:ehstate.obj
 0001:00012e00       ??$TypeMatchHelper@V__FrameHandler3@@@@YAHPEBU_s_HandlerType@@PEBU_s_CatchableType@@PEBU_s_ThrowInfo@@@Z 0000000180013e00 f i libvcruntime:frame.obj
 0001:00012f40       ??$TypeMatchHelper@V__FrameHandler4@@@@YAHPEAUHandlerType4@FH4@@PEBU_s_CatchableType@@PEBU_s_ThrowInfo@@@Z 0000000180013f40 f i libvcruntime:frame.obj
 0001:00013084       ??$__InternalCxxFrameHandler@V__FrameHandler3@@@@YA?AW4_EXCEPTION_DISPOSITION@@PEAUEHExceptionRecord@@PEA_KPEAU_CONTEXT@@PEAU_xDISPATCHER_CONTEXT@@PEBU_s_FuncInfo@@H1E@Z 0000000180014084 f i libvcruntime:frame.obj
 0001:000132bc       ??$__InternalCxxFrameHandler@V__FrameHandler4@@@@YA?AW4_EXCEPTION_DISPOSITION@@PEAUEHExceptionRecord@@PEA_KPEAU_CONTEXT@@PEAU_xDISPATCHER_CONTEXT@@PEAUFuncInfo4@FH4@@H1E@Z 00000001800142bc f i libvcruntime:frame.obj
 0001:00013550       ??0HandlerMap4@FH4@@QEAA@PEBUTryBlockMapEntry4@1@_KH@Z 0000000180014550 f i libvcruntime:frame.obj
 0001:000135cc       ??0TryBlockMap4@FH4@@QEAA@PEBUFuncInfo4@1@_K@Z 00000001800145cc f i libvcruntime:frame.obj
 0001:000136a4       ??0bad_exception@std@@QEAA@AEBV01@@Z 00000001800146a4 f i libvcruntime:frame.obj
 0001:000136e0       ??0bad_exception@std@@QEAA@XZ 00000001800146e0 f i libvcruntime:frame.obj
 0001:00013700       ?CxxCallCatchBlock@__FrameHandler3@@SAPEAXPEAU_EXCEPTION_RECORD@@@Z 0000000180014700 f   libvcruntime:frame.obj
 0001:000138ec       ?CxxCallCatchBlock@__FrameHandler4@@SAPEAXPEAU_EXCEPTION_RECORD@@@Z 00000001800148ec f   libvcruntime:frame.obj
 0001:00013b3c       ?DecompHandler@HandlerMap4@FH4@@AEAAXXZ 0000000180014b3c f i libvcruntime:frame.obj
 0001:00013d88       ?FrameUnwindToState@__FrameHandler3@@SAXPEA_KPEAU_xDISPATCHER_CONTEXT@@PEBU_s_FuncInfo@@H@Z 0000000180014d88 f   libvcruntime:frame.obj
 0001:00013f14       ?FrameUnwindToState@__FrameHandler4@@SAXPEA_KPEAU_xDISPATCHER_CONTEXT@@PEAUFuncInfo4@FH4@@H@Z 0000000180014f14 f   libvcruntime:frame.obj
 0001:00014210       ?GetHandlerSearchState@__FrameHandler3@@SAHPEA_KPEAU_xDISPATCHER_CONTEXT@@PEBU_s_FuncInfo@@@Z 0000000180015210 f i libvcruntime:frame.obj
 0001:00014420       ?ReadEntry@UWMap4@FH4@@AEAAXPEAPEAE@Z 0000000180015420 f i libvcruntime:frame.obj
 0001:000144bc       ?_CallMemberFunction1@@YAXQEAX00@Z 00000001800154bc f i libvcruntime:frame.obj
 0001:000144c8       ?_CallMemberFunction2@@YAXQEAX00H@Z 00000001800154c8 f i libvcruntime:frame.obj
 0001:000144d8       ?getStartStop@UWMap4@FH4@@QEAAXHHAEAViterator@12@0@Z 00000001800154d8 f i libvcruntime:frame.obj
 0001:000145a8       ?getStateFromIterators@UWMap4@FH4@@SAHAEBViterator@12@H0H0@Z 00000001800155a8 f i libvcruntime:frame.obj
 0001:000147c4       __vcrt_FlsAlloc            00000001800157c4 f   libvcruntime:winapi_downlevel.obj
 0001:0001480c       __vcrt_FlsFree             000000018001580c f   libvcruntime:winapi_downlevel.obj
 0001:00014854       __vcrt_FlsGetValue         0000000180015854 f   libvcruntime:winapi_downlevel.obj
 0001:0001489c       __vcrt_FlsSetValue         000000018001589c f   libvcruntime:winapi_downlevel.obj
 0001:000148f0       __vcrt_InitializeCriticalSectionEx 00000001800158f0 f   libvcruntime:winapi_downlevel.obj
 0001:00014970       _CallSettingFrame          0000000180015970 f   libvcruntime:handlers.obj
 0001:000149c0       _CallSettingFrame_LookupContinuationIndex 00000001800159c0 f   libvcruntime:handlers.obj
 0001:000149f0       _CallSettingFrame_NotifyContinuationAddr 00000001800159f0 f   libvcruntime:handlers.obj
 0001:00014a20       _CallSettingFrameEncoded   0000000180015a20 f   libvcruntime:handlers.obj
 0001:00014a68       free                       0000000180015a68 f   libucrt:free.obj
 0001:00014a7c       ?get_raw_ptd@__crt_cached_ptd_host@@QEAAPEAU__acrt_ptd@@XZ 0000000180015a7c f i libucrt:invalid_parameter.obj
 0001:00014ae4       ?get_raw_ptd_noexit@__crt_cached_ptd_host@@QEAAPEAU__acrt_ptd@@XZ 0000000180015ae4 f i libucrt:invalid_parameter.obj
 0001:00014b50       ?value@?$dual_state_global@P6AXPEB_W00I_K@Z@__crt_state_management@@QEAAAEAP6AXPEB_W00I_K@ZAEAV__crt_cached_ptd_host@@@Z 0000000180015b50 f i libucrt:invalid_parameter.obj
 0001:00014b9c       __acrt_call_reportfault    0000000180015b9c f   libucrt:invalid_parameter.obj
 0001:00014cf8       __acrt_initialize_invalid_parameter_handler 0000000180015cf8 f   libucrt:invalid_parameter.obj
 0001:00014d00       _invalid_parameter         0000000180015d00 f   libucrt:invalid_parameter.obj
 0001:00014d9c       _invalid_parameter_internal 0000000180015d9c f   libucrt:invalid_parameter.obj
 0001:00014e6c       _invalid_parameter_noinfo  0000000180015e6c f   libucrt:invalid_parameter.obj
 0001:00014e8c       _invoke_watson             0000000180015e8c f   libucrt:invalid_parameter.obj
 0001:00014ed4       __acrt_errno_from_os_error 0000000180015ed4 f   libucrt:errno.obj
 0001:00014f1c       __acrt_errno_map_os_error  0000000180015f1c f   libucrt:errno.obj
 0001:00014f64       __acrt_errno_map_os_error_ptd 0000000180015f64 f   libucrt:errno.obj
 0001:00014f88       __doserrno                 0000000180015f88 f   libucrt:errno.obj
 0001:00014fa8       _errno                     0000000180015fa8 f   libucrt:errno.obj
 0001:00014fc8       calloc                     0000000180015fc8 f   libucrt:calloc.obj
 0001:00014fd0       malloc                     0000000180015fd0 f   libucrt:malloc.obj
 0001:00014fd8       _recalloc                  0000000180015fd8 f   libucrt:recalloc.obj
 0001:00014fe0       _recalloc_base             0000000180015fe0 f   libucrt:recalloc.obj
 0001:00015078       _resetstkoflw              0000000180016078 f   libucrt:resetstk.obj
 0001:000151a4       wcscat_s                   00000001800161a4 f   libucrt:wcscat_s.obj
 0001:00015228       wcscpy_s                   0000000180016228 f   libucrt:wcscpy_s.obj
 0001:00015290       wcsncpy_s                  0000000180016290 f   libucrt:wcsncpy_s.obj
 0001:00015544       ??$ensure_buffer_is_big_enough@D@formatting_buffer@__crt_stdio_output@@QEAA_N_KAEAV__crt_cached_ptd_host@@@Z 0000000180016544 f i libucrt:output.obj
 0001:000155ec       ??$ensure_buffer_is_big_enough@_W@formatting_buffer@__crt_stdio_output@@QEAA_N_KAEAV__crt_cached_ptd_host@@@Z 00000001800165ec f i libucrt:output.obj
 0001:00015698       ??$is_wide_character_specifier@_W@__crt_stdio_output@@YA_N_K_WW4length_modifier@0@@Z 0000000180016698 f i libucrt:output.obj
 0001:000156d8       ??$parse_integer@KV?$c_string_character_source@_W@__crt_strtox@@$0A@@__crt_strtox@@YAKAEAV__crt_cached_ptd_host@@V?$c_string_character_source@_W@0@H_N@Z 00000001800166d8 f i libucrt:output.obj
 0001:00015e30       ??$type_case_integer@$07@?$output_processor@_WV?$string_output_adapter@_W@__crt_stdio_output@@V?$format_validation_base@_WV?$string_output_adapter@_W@__crt_stdio_output@@@2@@__crt_stdio_output@@AEAA_N_N@Z 0000000180016e30 f i libucrt:output.obj
 0001:0001601c       ??$type_case_integer@$09@?$output_processor@_WV?$string_output_adapter@_W@__crt_stdio_output@@V?$format_validation_base@_WV?$string_output_adapter@_W@__crt_stdio_output@@@2@@__crt_stdio_output@@AEAA_N_N@Z 000000018001701c f i libucrt:output.obj
 0001:00016208       ??$type_case_integer@$0BA@@?$output_processor@_WV?$string_output_adapter@_W@__crt_stdio_output@@V?$format_validation_base@_WV?$string_output_adapter@_W@__crt_stdio_output@@@2@@__crt_stdio_output@@AEAA_N_N@Z 0000000180017208 f i libucrt:output.obj
 0001:000163f4       ??$type_case_integer_parse_into_buffer@I$07@?$output_processor@_WV?$string_output_adapter@_W@__crt_stdio_output@@V?$format_validation_base@_WV?$string_output_adapter@_W@__crt_stdio_output@@@2@@__crt_stdio_output@@AEAAXI_N@Z 00000001800173f4 f i libucrt:output.obj
 0001:0001647c       ??$type_case_integer_parse_into_buffer@I$09@?$output_processor@_WV?$string_output_adapter@_W@__crt_stdio_output@@V?$format_validation_base@_WV?$string_output_adapter@_W@__crt_stdio_output@@@2@@__crt_stdio_output@@AEAAXI_N@Z 000000018001747c f i libucrt:output.obj
 0001:00016534       ??$type_case_integer_parse_into_buffer@I$0BA@@?$output_processor@_WV?$string_output_adapter@_W@__crt_stdio_output@@V?$format_validation_base@_WV?$string_output_adapter@_W@__crt_stdio_output@@@2@@__crt_stdio_output@@AEAAXI_N@Z 0000000180017534 f i libucrt:output.obj
 0001:000165d8       ??$type_case_integer_parse_into_buffer@_K$07@?$output_processor@_WV?$string_output_adapter@_W@__crt_stdio_output@@V?$format_validation_base@_WV?$string_output_adapter@_W@__crt_stdio_output@@@2@@__crt_stdio_output@@AEAAX_K_N@Z 00000001800175d8 f i libucrt:output.obj
 0001:00016660       ??$type_case_integer_parse_into_buffer@_K$09@?$output_processor@_WV?$string_output_adapter@_W@__crt_stdio_output@@V?$format_validation_base@_WV?$string_output_adapter@_W@__crt_stdio_output@@@2@@__crt_stdio_output@@AEAAX_K_N@Z 0000000180017660 f i libucrt:output.obj
 0001:00016720       ??$type_case_integer_parse_into_buffer@_K$0BA@@?$output_processor@_WV?$string_output_adapter@_W@__crt_stdio_output@@V?$format_validation_base@_WV?$string_output_adapter@_W@__crt_stdio_output@@@2@@__crt_stdio_output@@AEAAX_K_N@Z 0000000180017720 f i libucrt:output.obj
 0001:000167c4       ?crop_zeroes@__crt_stdio_output@@YAXPEADQEAU__crt_locale_pointers@@@Z 00000001800177c4 f i libucrt:output.obj
 0001:00016830       ?parse_int_from_format_string@?$output_processor@_WV?$string_output_adapter@_W@__crt_stdio_output@@V?$format_validation_base@_WV?$string_output_adapter@_W@__crt_stdio_output@@@2@@__crt_stdio_output@@AEAA_NQEAH@Z 0000000180017830 f i libucrt:output.obj
 0001:000168c0       ?process@?$output_processor@_WV?$string_output_adapter@_W@__crt_stdio_output@@V?$format_validation_base@_WV?$string_output_adapter@_W@__crt_stdio_output@@@2@@__crt_stdio_output@@QEAAHXZ 00000001800178c0 f i libucrt:output.obj
 0001:00016b9c       ?state_case_size@?$output_processor@_WV?$string_output_adapter@_W@__crt_stdio_output@@V?$format_validation_base@_WV?$string_output_adapter@_W@__crt_stdio_output@@@2@@__crt_stdio_output@@AEAA_NXZ 0000000180017b9c f i libucrt:output.obj
 0001:00016d48       ?state_case_type@?$output_processor@_WV?$string_output_adapter@_W@__crt_stdio_output@@V?$format_validation_base@_WV?$string_output_adapter@_W@__crt_stdio_output@@@2@@__crt_stdio_output@@AEAA_NXZ 0000000180017d48 f i libucrt:output.obj
 0001:000171a4       ?type_case_Z@?$output_processor@_WV?$string_output_adapter@_W@__crt_stdio_output@@V?$format_validation_base@_WV?$string_output_adapter@_W@__crt_stdio_output@@@2@@__crt_stdio_output@@AEAA_NXZ 00000001800181a4 f i libucrt:output.obj
 0001:00017220       ?type_case_a@?$output_processor@_WV?$string_output_adapter@_W@__crt_stdio_output@@V?$format_validation_base@_WV?$string_output_adapter@_W@__crt_stdio_output@@@2@@__crt_stdio_output@@AEAA_NXZ 0000000180018220 f i libucrt:output.obj
 0001:00017480       ?type_case_c_tchar@?$output_processor@_WV?$string_output_adapter@_W@__crt_stdio_output@@V?$format_validation_base@_WV?$string_output_adapter@_W@__crt_stdio_output@@@2@@__crt_stdio_output@@AEAA_N_W@Z 0000000180018480 f i libucrt:output.obj
 0001:00017544       ?type_case_n@?$output_processor@_WV?$string_output_adapter@_W@__crt_stdio_output@@V?$format_validation_base@_WV?$string_output_adapter@_W@__crt_stdio_output@@@2@@__crt_stdio_output@@AEAA_NXZ 0000000180018544 f i libucrt:output.obj
 0001:000175f8       ?type_case_s@?$output_processor@_WV?$string_output_adapter@_W@__crt_stdio_output@@V?$format_validation_base@_WV?$string_output_adapter@_W@__crt_stdio_output@@@2@@__crt_stdio_output@@AEAA_NXZ 00000001800185f8 f i libucrt:output.obj
 0001:00017690       ?type_case_s_compute_narrow_string_length@?$output_processor@_WV?$string_output_adapter@_W@__crt_stdio_output@@V?$format_validation_base@_WV?$string_output_adapter@_W@__crt_stdio_output@@@2@@__crt_stdio_output@@AEAAHH_W@Z 0000000180018690 f i libucrt:output.obj
 0001:00017710       ?update_locale_slow@__crt_cached_ptd_host@@AEAAXXZ 0000000180018710 f i libucrt:output.obj
 0001:00017788       ?write_string@?$string_output_adapter@_W@__crt_stdio_output@@QEBAXQEB_WHQEAHAEAV__crt_cached_ptd_host@@@Z 0000000180018788 f i libucrt:output.obj
 0001:00017830       __stdio_common_vswprintf_s 0000000180018830 f   libucrt:output.obj
 0001:00017944       _seh_filter_dll            0000000180018944 f   libucrt:exception_filter.obj
 0001:00017958       _seh_filter_exe            0000000180018958 f   libucrt:exception_filter.obj
 0001:00017d7c       __acrt_initialize_thread_local_exit_callback 0000000180018d7c f   libucrt:exit.obj
 0001:00017d84       _cexit                     0000000180018d84 f   libucrt:exit.obj
 0001:00017d94       _exit                      0000000180018d94 f   libucrt:exit.obj
 0001:00017da0       _is_c_termination_complete 0000000180018da0 f   libucrt:exit.obj
 0001:00017f68       __acrt_allocate_buffer_for_argv 0000000180018f68 f   libucrt:argv_parsing.obj
 0001:00017fc8       _configure_narrow_argv     0000000180018fc8 f   libucrt:argv_parsing.obj
 0001:00018350       __dcrt_uninitialize_environments_nolock 0000000180019350 f   libucrt:environment_initialization.obj
 0001:00018394       _initialize_narrow_environment 0000000180019394 f   libucrt:environment_initialization.obj
 0001:000186e4       _crt_atexit                00000001800196e4 f   libucrt:onexit.obj
 0001:000186f4       _execute_onexit_table      00000001800196f4 f   libucrt:onexit.obj
 0001:00018738       _initialize_onexit_table   0000000180019738 f   libucrt:onexit.obj
 0001:00018760       _register_onexit_function  0000000180019760 f   libucrt:onexit.obj
 0001:000187e0       __acrt_uninitialize_command_line 00000001800197e0 f   libucrt:argv_data.obj
 0001:000188d8       __acrt_initialize          00000001800198d8 f   libucrt:initialization.obj
 0001:000188ec       __acrt_thread_attach       00000001800198ec f   libucrt:initialization.obj
 0001:00018900       __acrt_thread_detach       0000000180019900 f   libucrt:initialization.obj
 0001:00018910       __acrt_uninitialize        0000000180019910 f   libucrt:initialization.obj
 0001:00018948       __acrt_uninitialize_critical 0000000180019948 f   libucrt:initialization.obj
 0001:00018958       _initterm                  0000000180019958 f   libucrt:initterm.obj
 0001:0001899c       _initterm_e                000000018001999c f   libucrt:initterm.obj
 0001:000189e4       __acrt_initialize_new_handler 00000001800199e4 f   libucrt:new_handler.obj
 0001:000189ec       _callnewh                  00000001800199ec f   libucrt:new_handler.obj
 0001:00018a28       _query_new_handler         0000000180019a28 f   libucrt:new_handler.obj
 0001:00018a5c       terminate                  0000000180019a5c f   libucrt:terminate.obj
 0001:00018a88       abort                      0000000180019a88 f   libucrt:abort.obj
 0001:00018ae0       strcpy_s                   0000000180019ae0 f   libucrt:strcpy_s.obj
 0001:00018b50       strncmp                    0000000180019b50 f   libucrt:strncmp.obj
 0001:00018bd0       wcsncmp                    0000000180019bd0 f   libucrt:wcsncmp.obj
 0001:00018bfc       _free_base                 0000000180019bfc f   libucrt:free_base.obj
 0001:00018fb0       __acrt_freeptd             0000000180019fb0 f   libucrt:per_thread_data.obj
 0001:00018ff4       __acrt_getptd              0000000180019ff4 f   libucrt:per_thread_data.obj
 0001:000190c8       __acrt_getptd_head         000000018001a0c8 f   libucrt:per_thread_data.obj
 0001:0001916c       __acrt_getptd_noexit       000000018001a16c f   libucrt:per_thread_data.obj
 0001:00019234       __acrt_getptd_noexit_explicit 000000018001a234 f   libucrt:per_thread_data.obj
 0001:000192f4       __acrt_initialize_ptd      000000018001a2f4 f   libucrt:per_thread_data.obj
 0001:00019330       __acrt_uninitialize_ptd    000000018001a330 f   libucrt:per_thread_data.obj
 0001:000193c4       __acrt_set_locale_changed  000000018001a3c4 f   libucrt:wsetlocale.obj
 0001:000193d0       __acrt_uninitialize_locale 000000018001a3d0 f   libucrt:wsetlocale.obj
 0001:00019400       _calloc_base               000000018001a400 f   libucrt:calloc_base.obj
 0001:00019478       _malloc_base               000000018001a478 f   libucrt:malloc_base.obj
 0001:000194d8       _msize_base                000000018001a4d8 f   libucrt:msize.obj
 0001:00019514       _realloc_base              000000018001a514 f   libucrt:realloc_base.obj
 0001:00019750       __acrt_AppPolicyGetProcessTerminationMethodInternal 000000018001a750 f   libucrt:winapi_thunks.obj
 0001:000197a8       __acrt_AreFileApisANSI     000000018001a7a8 f   libucrt:winapi_thunks.obj
 0001:000197ec       __acrt_FlsAlloc            000000018001a7ec f   libucrt:winapi_thunks.obj
 0001:000197f4       __acrt_FlsFree             000000018001a7f4 f   libucrt:winapi_thunks.obj
 0001:000197fc       __acrt_FlsGetValue         000000018001a7fc f   libucrt:winapi_thunks.obj
 0001:00019804       __acrt_FlsSetValue         000000018001a804 f   libucrt:winapi_thunks.obj
 0001:0001980c       __acrt_InitializeCriticalSectionEx 000000018001a80c f   libucrt:winapi_thunks.obj
 0001:0001987c       __acrt_LCMapStringEx       000000018001a87c f   libucrt:winapi_thunks.obj
 0001:00019968       __acrt_LocaleNameToLCID    000000018001a968 f   libucrt:winapi_thunks.obj
 0001:000199c8       __acrt_SetThreadStackGuarantee 000000018001a9c8 f   libucrt:winapi_thunks.obj
 0001:00019a14       __acrt_initialize_winapi_thunks 000000018001aa14 f   libucrt:winapi_thunks.obj
 0001:00019a38       __acrt_uninitialize_winapi_thunks 000000018001aa38 f   libucrt:winapi_thunks.obj
 0001:00019a7c       wcsnlen                    000000018001aa7c f   libucrt:strnlen.obj
 0001:00019c54       __acrt_update_locale_info  000000018001ac54 f   libucrt:locale_update.obj
 0001:00019c88       __acrt_update_locale_info_explicit 000000018001ac88 f   libucrt:locale_update.obj
 0001:00019cc0       __acrt_update_multibyte_info 000000018001acc0 f   libucrt:locale_update.obj
 0001:00019cf4       __acrt_update_multibyte_info_explicit 000000018001acf4 f   libucrt:locale_update.obj
 0001:0001a85c       __acrt_fp_format           000000018001b85c f   libucrt:cvt.obj
 0001:0001ab44       _mbtowc_internal           000000018001bb44 f   libucrt:mbtowc.obj
 0001:0001acbc       _fileno                    000000018001bcbc f   libucrt:fileno.obj
 0001:0001ace4       __acrt_initialize_stdio    000000018001bce4 f   libucrt:_file.obj
 0001:0001ae04       __acrt_uninitialize_stdio  000000018001be04 f   libucrt:_file.obj
 0001:0001ae60       _lock_file                 000000018001be60 f   libucrt:_file.obj
 0001:0001ae6c       _unlock_file               000000018001be6c f   libucrt:_file.obj
 0001:0001ae78       _get_printf_count_output   000000018001be78 f   libucrt:printf_count_output.obj
 0001:0001b088       __acrt_initialize_lowio    000000018001c088 f   libucrt:ioinit.obj
 0001:0001b0c4       __acrt_uninitialize_lowio  000000018001c0c4 f   libucrt:ioinit.obj
 0001:0001b104       __acrt_initialize_locks    000000018001c104 f   libucrt:locks.obj
 0001:0001b14c       __acrt_lock                000000018001c14c f   libucrt:locks.obj
 0001:0001b168       __acrt_uninitialize_locks  000000018001c168 f   libucrt:locks.obj
 0001:0001b1a0       __acrt_unlock              000000018001c1a0 f   libucrt:locks.obj
 0001:0001b1bc       __acrt_get_process_end_policy 000000018001c1bc f   libucrt:win_policies.obj
 0001:0001b20c       ??$__acrt_convert_wcs_mbs_cp@D_WV<lambda_7c9dea7b4ca7285d2cdb541a38da6275>@@U__crt_win32_buffer_internal_dynamic_resizing@@@@YAHQEBDAEAV?$__crt_win32_buffer@_WU__crt_win32_buffer_internal_dynamic_resizing@@@@AEBV<lambda_7c9dea7b4ca7285d2cdb541a38da6275>@@I@Z 000000018001c20c f i libucrt:argv_wildcards.obj
 0001:0001b388       ??$__acrt_convert_wcs_mbs_cp@_WDV<lambda_d8593a27d1aa8c02be35c86a17d324c4>@@U__crt_win32_buffer_internal_dynamic_resizing@@@@YAHQEB_WAEAV?$__crt_win32_buffer@DU__crt_win32_buffer_internal_dynamic_resizing@@@@AEBV<lambda_d8593a27d1aa8c02be35c86a17d324c4>@@I@Z 000000018001c388 f i libucrt:argv_wildcards.obj
 0001:0001bc30       ??0_LocaleUpdate@@QEAA@QEAU__crt_locale_pointers@@@Z 000000018001cc30 f i libucrt:argv_wildcards.obj
 0001:0001bccc       __acrt_expand_narrow_argv_wildcards 000000018001cccc f   libucrt:argv_wildcards.obj
 0001:0001bcd4       ??$__acrt_convert_wcs_mbs_cp@_WDV<lambda_f788ae46380686e8b737efdd8c720d07>@@U__crt_win32_buffer_no_resizing@@@@YAHQEB_WAEAV?$__crt_win32_buffer@DU__crt_win32_buffer_no_resizing@@@@AEBV<lambda_f788ae46380686e8b737efdd8c720d07>@@I@Z 000000018001ccd4 f i libucrt:getmodulefilenamea.obj
 0001:0001bdf0       __acrt_GetModuleFileNameA  000000018001cdf0 f   libucrt:getmodulefilenamea.obj
 0001:0001c70c       __acrt_initialize_multibyte 000000018001d70c f   libucrt:mbctype.obj
 0001:0001c76c       __acrt_update_thread_multibyte_data 000000018001d76c f   libucrt:mbctype.obj
 0001:0001c788       _setmbcp_nolock            000000018001d788 f   libucrt:mbctype.obj
 0001:0001cabc       _ismbblead                 000000018001dabc f   libucrt:ismbbyte.obj
 0001:0001cad0       __acrt_initialize_command_line 000000018001dad0 f   libucrt:argv_data.obj
 0001:0001caf8       __acrt_MultiByteToWideChar 000000018001daf8 f   libucrt:multibytetowidechar.obj
 0001:0001cb54       __acrt_WideCharToMultiByte 000000018001db54 f   libucrt:widechartomultibyte.obj
 0001:0001cc04       __dcrt_get_narrow_environment_from_os 000000018001dc04 f   libucrt:get_environment_from_os.obj
 0001:0001cd14       __acrt_initialize_heap     000000018001dd14 f   libucrt:heap_handle.obj
 0001:0001cd30       __acrt_uninitialize_heap   000000018001dd30 f   libucrt:heap_handle.obj
 0001:0001cd3c       __acrt_execute_initializers 000000018001dd3c f   libucrt:shared_initialization.obj
 0001:0001cdd0       __acrt_execute_uninitializers 000000018001ddd0 f   libucrt:shared_initialization.obj
 0001:0001ce60       __acrt_get_sigabrt_handler 000000018001de60 f   libucrt:signal.obj
 0001:0001ce90       __acrt_initialize_signal_handlers 000000018001de90 f   libucrt:signal.obj
 0001:0001ceb0       raise                      000000018001deb0 f   libucrt:signal.obj
 0001:0001d130       __acrt_has_user_matherr    000000018001e130 f   libucrt:matherr.obj
 0001:0001d150       __acrt_initialize_user_matherr 000000018001e150 f   libucrt:matherr.obj
 0001:0001d158       __acrt_invoke_user_matherr 000000018001e158 f   libucrt:matherr.obj
 0001:0001d36c       __acrt_stdio_flush_nolock  000000018001e36c f   libucrt:fflush.obj
 0001:0001d3f8       _fflush_nolock             000000018001e3f8 f   libucrt:fflush.obj
 0001:0001d4cc       _flushall                  000000018001e4cc f   libucrt:fflush.obj
 0001:0001d4d4       __acrt_add_locale_ref      000000018001e4d4 f   libucrt:locale_refcounting.obj
 0001:0001d560       __acrt_free_locale         000000018001e560 f   libucrt:locale_refcounting.obj
 0001:0001d6d8       __acrt_locale_add_lc_time_reference 000000018001e6d8 f   libucrt:locale_refcounting.obj
 0001:0001d700       __acrt_locale_free_lc_time_if_unreferenced 000000018001e700 f   libucrt:locale_refcounting.obj
 0001:0001d738       __acrt_locale_release_lc_time_reference 000000018001e738 f   libucrt:locale_refcounting.obj
 0001:0001d760       __acrt_release_locale_ref  000000018001e760 f   libucrt:locale_refcounting.obj
 0001:0001d808       __acrt_update_thread_locale_data 000000018001e808 f   libucrt:locale_refcounting.obj
 0001:0001d878       _updatetlocinfoEx_nolock   000000018001e878 f   libucrt:locale_refcounting.obj
 0001:0001d8e0       __acrt_locale_free_monetary 000000018001e8e0 f   libucrt:initmon.obj
 0001:0001d9ec       __acrt_locale_free_numeric 000000018001e9ec f   libucrt:initnum.obj
 0001:0001da8c       __acrt_locale_free_time    000000018001ea8c f   libucrt:inittime.obj
 0001:0001db94       __acrt_GetStringTypeA      000000018001eb94 f   libucrt:getstringtypea.obj
 0001:0001dd30       _query_new_mode            000000018001ed30 f   libucrt:new_mode.obj
 0001:0001dd38       __acrt_DownlevelLocaleNameToLCID 000000018001ed38 f   libucrt:lcidtoname_downlevel.obj
 0001:0001dde0       __acrt_fp_strflt_to_string 000000018001ede0 f   libucrt:_fptostr.obj
 0001:0001df70       ?divide@__crt_strtox@@YA_KAEAUbig_integer@1@AEBU21@@Z 000000018001ef70 f i libucrt:cfout.obj
 0001:0001e3fc       __acrt_fltout              000000018001f3fc f   libucrt:cfout.obj
 0001:0001f6c4       fegetround                 00000001800206c4 f   libucrt:fegetround.obj
 0001:0001f6d8       ?__mbrtowc_utf8@__crt_mbstring@@YA_KPEA_WPEBD_KPEAU_Mbstatet@@AEAV__crt_cached_ptd_host@@@Z 00000001800206d8 f   libucrt:mbrtowc.obj
 0001:0001f71c       ?__mbsrtowcs_utf8@__crt_mbstring@@YA_KPEA_WPEAPEBD_KPEAU_Mbstatet@@AEAV__crt_cached_ptd_host@@@Z 000000018002071c f   libucrt:mbrtowc.obj
 0001:0001f8c0       _fcloseall                 00000001800208c0 f   libucrt:closeall.obj
 0001:0001f974       __acrt_stdio_free_buffer_nolock 0000000180020974 f   libucrt:_freebuf.obj
 0001:0001f9b4       _isatty                    00000001800209b4 f   libucrt:isatty.obj
 0001:0001fa14       __acrt_lowio_create_handle_array 0000000180020a14 f   libucrt:osfinfo.obj
 0001:0001fabc       __acrt_lowio_destroy_handle_array 0000000180020abc f   libucrt:osfinfo.obj
 0001:0001fb0c       __acrt_lowio_ensure_fh_exists 0000000180020b0c f   libucrt:osfinfo.obj
 0001:0001fbb4       __acrt_lowio_lock_fh       0000000180020bb4 f   libucrt:osfinfo.obj
 0001:0001fbdc       __acrt_lowio_unlock_fh     0000000180020bdc f   libucrt:osfinfo.obj
 0001:0001fc04       _free_osfhnd               0000000180020c04 f   libucrt:osfinfo.obj
 0001:0001fcc0       _get_osfhandle             0000000180020cc0 f   libucrt:osfinfo.obj
 0001:0001fd40       qsort                      0000000180020d40 f   libucrt:qsort.obj
 0001:00020150       strncpy_s                  0000000180021150 f   libucrt:strncpy_s.obj
 0001:000202e0       strpbrk                    00000001800212e0 f   libucrt:strpbrk.obj
 0001:000206a8       _mbsdec                    00000001800216a8 f   libucrt:mbsdec.obj
 0001:000206b0       _mbsdec_l                  00000001800216b0 f   libucrt:mbsdec.obj
 0001:00020a64       __acrt_LCMapStringA        0000000180021a64 f   libucrt:lcmapstringa.obj
 0001:00020ba0       _commit                    0000000180021ba0 f   libucrt:commit.obj
 0001:00021450       _write_internal            0000000180022450 f   libucrt:write.obj
 0001:00021578       _write_nolock              0000000180022578 f   libucrt:write.obj
 0001:00021888       __ascii_wcsnicmp           0000000180022888 f   libucrt:wcsnicmp.obj
 0001:000218d4       _controlfp_s               00000001800228d4 f   libucrt:contrlfp.obj
 0001:00021938       fegetenv                   0000000180022938 f   libucrt:fegetenv.obj
 0001:00021958       fesetenv                   0000000180022958 f   libucrt:fesetenv.obj
 0001:000219a4       feholdexcept               00000001800229a4 f   libucrt:feholdexcept.obj
 0001:000219f4       ceil                       00000001800229f4 f   libucrt:ceil.obj
 0001:00021ac0       log10                      0000000180022ac0 f   libucrt:log10.obj
 0001:0002206c       __acrt_fenv_get_common_round_control 000000018002306c f   libucrt:_fenvutils.obj
 0001:00022078       __acrt_fenv_get_control    0000000180023078 f   libucrt:_fenvutils.obj
 0001:0002215c       __acrt_fenv_get_status     000000018002315c f   libucrt:_fenvutils.obj
 0001:000221b4       __acrt_fenv_set_control    00000001800231b4 f   libucrt:_fenvutils.obj
 0001:000222f0       __acrt_fenv_set_status     00000001800232f0 f   libucrt:_fenvutils.obj
 0001:00022364       ?reset_and_return@__crt_mbstring@@YA_K_KPEAU_Mbstatet@@@Z 0000000180023364 f   libucrt:common_utf8.obj
 0001:0002236c       ?return_illegal_sequence@__crt_mbstring@@YA_KPEAU_Mbstatet@@AEAV__crt_cached_ptd_host@@@Z 000000018002336c f   libucrt:common_utf8.obj
 0001:00022380       ?__mbrtoc32_utf8@__crt_mbstring@@YA_KPEA_UPEBD_KPEAU_Mbstatet@@AEAV__crt_cached_ptd_host@@@Z 0000000180023380 f   libucrt:mbrtoc32.obj
 0001:0002267c       fclose                     000000018002367c f   libucrt:fclose.obj
 0001:000227c0       _lseeki64_nolock_internal  00000001800237c0 f   libucrt:lseek.obj
 0001:000227c8       _query_app_type            00000001800237c8 f   libucrt:report_runtime_error.obj
 0001:000227d0       __strncnt                  00000001800237d0 f   libucrt:strncnt.obj
 0001:000227e8       _putwch_nolock             00000001800237e8 f   libucrt:putwch.obj
 0001:00022824       _clearfp                   0000000180023824 f   libucrt:ieee.obj
 0001:00022894       _control87                 0000000180023894 f   libucrt:ieee.obj
 0001:00022c80       _handle_error              0000000180023c80 f   libucrt:libm_error.obj
 0001:00022da8       _handle_nan                0000000180023da8 f   libucrt:libm_error.obj
 0001:00022dd0       __acrt_initialize_fma3     0000000180023dd0 f   libucrt:fma3_available.obj
 0001:00022e40       _log10_special             0000000180023e40 f   libucrt:log_special.obj
 0001:00022f70       _close_internal            0000000180023f70 f   libucrt:close.obj
 0001:00023034       _close_nolock_internal     0000000180024034 f   libucrt:close.obj
 0001:00023104       ?__acrt_stdio_free_stream@@YAXV__crt_stdio_stream@@@Z 0000000180024104 f   libucrt:stream.obj
 0001:00023120       __dcrt_lowio_ensure_console_output_initialized 0000000180024120 f   libucrt:initcon.obj
 0001:00023174       __dcrt_terminate_console_output 0000000180024174 f   libucrt:initcon.obj
 0001:00023190       __dcrt_write_console       0000000180024190 f   libucrt:initcon.obj
 0001:00023260       _get_fpsr                  0000000180024260 f   libucrt:fpsr.obj
 0001:00023270       _set_fpsr                  0000000180024270 f   libucrt:fpsr.obj
 0001:0002327a       _fclrf                     000000018002427a f   libucrt:fpsr.obj
 0001:0002328e       _frnd                      000000018002428e f   libucrt:fpsr.obj
 0001:000232b0       _raise_exc                 00000001800242b0 f   libucrt:fpexcept.obj
 0001:000232d8       _raise_exc_ex              00000001800242d8 f   libucrt:fpexcept.obj
 0001:000235e8       _set_errno_from_matherr    00000001800245e8 f   libucrt:fpexcept.obj
 0001:00023618       _clrfp                     0000000180024618 f   libucrt:fpctrl.obj
 0001:00023638       _ctrlfp                    0000000180024638 f   libucrt:fpctrl.obj
 0001:000236b4       _set_statfp                00000001800246b4 f   libucrt:fpctrl.obj
 0001:000236d4       _statfp                    00000001800246d4 f   libucrt:fpctrl.obj
 0001:000236f0       _FindPESection             00000001800246f0 f   LIBCMT:pesect.obj
 0001:00023740       _IsNonwritableInCurrentImage 0000000180024740 f   LIBCMT:pesect.obj
 0001:00023790       _ValidateImageBase         0000000180024790 f   LIBCMT:pesect.obj
 0001:000237bc       __GSHandlerCheck_EH        00000001800247bc f   LIBCMT:gshandlereh.obj
 0001:0002383c       __C_specific_handler_noexcept 000000018002483c f   libvcruntime:chandler_noexcept.obj
 0001:00023888       strrchr                    0000000180024888 f   libvcruntime:strrchr.obj
 0001:000239e0       _guard_dispatch_icall_nop  00000001800249e0 f   LIBCMT:guard_dispatch.obj
 0001:00023a00       _guard_xfg_dispatch_icall_nop 0000000180024a00 f   LIBCMT:guard_xfg_dispatch.obj
 0002:00000000       __imp_RegQueryValueExW     0000000180026000     advapi32:ADVAPI32.dll
 0002:00000008       __imp_RegSetValueExW       0000000180026008     advapi32:ADVAPI32.dll
 0002:00000010       __imp_RegQueryInfoKeyW     0000000180026010     advapi32:ADVAPI32.dll
 0002:00000018       __imp_RegOpenKeyExW        0000000180026018     advapi32:ADVAPI32.dll
 0002:00000020       __imp_RegEnumKeyExW        0000000180026020     advapi32:ADVAPI32.dll
 0002:00000028       __imp_RegDeleteValueW      0000000180026028     advapi32:ADVAPI32.dll
 0002:00000030       __imp_RegDeleteKeyW        0000000180026030     advapi32:ADVAPI32.dll
 0002:00000038       __imp_RegCreateKeyExW      0000000180026038     advapi32:ADVAPI32.dll
 0002:00000040       __imp_RegCloseKey          0000000180026040     advapi32:ADVAPI32.dll
 0002:00000048       \177ADVAPI32_NULL_THUNK_DATA 0000000180026048     advapi32:ADVAPI32.dll
 0002:00000050       __imp_GetObjectW           0000000180026050     gdi32:GDI32.dll
 0002:00000058       __imp_SelectObject         0000000180026058     gdi32:GDI32.dll
 0002:00000060       __imp_DeleteObject         0000000180026060     gdi32:GDI32.dll
 0002:00000068       __imp_CreateCompatibleDC   0000000180026068     gdi32:GDI32.dll
 0002:00000070       __imp_BitBlt               0000000180026070     gdi32:GDI32.dll
 0002:00000078       __imp_SetWindowOrgEx       0000000180026078     gdi32:GDI32.dll
 0002:00000080       __imp_SetWindowExtEx       0000000180026080     gdi32:GDI32.dll
 0002:00000088       __imp_SetViewportOrgEx     0000000180026088     gdi32:GDI32.dll
 0002:00000090       __imp_LPtoDP               0000000180026090     gdi32:GDI32.dll
 0002:00000098       __imp_SetMapMode           0000000180026098     gdi32:GDI32.dll
 0002:000000a0       __imp_SaveDC               00000001800260a0     gdi32:GDI32.dll
 0002:000000a8       __imp_RestoreDC            00000001800260a8     gdi32:GDI32.dll
 0002:000000b0       __imp_GetDeviceCaps        00000001800260b0     gdi32:GDI32.dll
 0002:000000b8       __imp_DeleteMetaFile       00000001800260b8     gdi32:GDI32.dll
 0002:000000c0       __imp_DeleteDC             00000001800260c0     gdi32:GDI32.dll
 0002:000000c8       __imp_CreateRectRgnIndirect 00000001800260c8     gdi32:GDI32.dll
 0002:000000d0       __imp_CreateMetaFileW      00000001800260d0     gdi32:GDI32.dll
 0002:000000d8       __imp_CreateDCW            00000001800260d8     gdi32:GDI32.dll
 0002:000000e0       __imp_CloseMetaFile        00000001800260e0     gdi32:GDI32.dll
 0002:000000e8       \177GDI32_NULL_THUNK_DATA  00000001800260e8     gdi32:GDI32.dll
 0002:000000f0       __imp_CloseHandle          00000001800260f0     kernel32:KERNEL32.dll
 0002:000000f8       __imp_SetEvent             00000001800260f8     kernel32:KERNEL32.dll
 0002:00000100       __imp_CreateMutexW         0000000180026100     kernel32:KERNEL32.dll
 0002:00000108       __imp_CreateEventW         0000000180026108     kernel32:KERNEL32.dll
 0002:00000110       __imp_GetCurrentProcessId  0000000180026110     kernel32:KERNEL32.dll
 0002:00000118       __imp_WriteConsoleW        0000000180026118     kernel32:KERNEL32.dll
 0002:00000120       __imp_CreateFileW          0000000180026120     kernel32:KERNEL32.dll
 0002:00000128       __imp_GetConsoleMode       0000000180026128     kernel32:KERNEL32.dll
 0002:00000130       __imp_GetConsoleOutputCP   0000000180026130     kernel32:KERNEL32.dll
 0002:00000138       __imp_WriteFile            0000000180026138     kernel32:KERNEL32.dll
 0002:00000140       __imp_FlushFileBuffers     0000000180026140     kernel32:KERNEL32.dll
 0002:00000148       __imp_SetStdHandle         0000000180026148     kernel32:KERNEL32.dll
 0002:00000150       __imp_SetFilePointerEx     0000000180026150     kernel32:KERNEL32.dll
 0002:00000158       __imp_GetStringTypeW       0000000180026158     kernel32:KERNEL32.dll
 0002:00000160       __imp_FreeEnvironmentStringsW 0000000180026160     kernel32:KERNEL32.dll
 0002:00000168       __imp_lstrcmpiW            0000000180026168     kernel32:KERNEL32.dll
 0002:00000170       __imp_GetCommandLineW      0000000180026170     kernel32:KERNEL32.dll
 0002:00000178       __imp_GetCommandLineA      0000000180026178     kernel32:KERNEL32.dll
 0002:00000180       __imp_GetCPInfo            0000000180026180     kernel32:KERNEL32.dll
 0002:00000188       __imp_GetOEMCP             0000000180026188     kernel32:KERNEL32.dll
 0002:00000190       __imp_GetACP               0000000180026190     kernel32:KERNEL32.dll
 0002:00000198       __imp_IsValidCodePage      0000000180026198     kernel32:KERNEL32.dll
 0002:000001a0       __imp_FindNextFileW        00000001800261a0     kernel32:KERNEL32.dll
 0002:000001a8       __imp_FindFirstFileExW     00000001800261a8     kernel32:KERNEL32.dll
 0002:000001b0       __imp_FindClose            00000001800261b0     kernel32:KERNEL32.dll
 0002:000001b8       __imp_GetFileType          00000001800261b8     kernel32:KERNEL32.dll
 0002:000001c0       __imp_GetStdHandle         00000001800261c0     kernel32:KERNEL32.dll
 0002:000001c8       __imp_LCMapStringW         00000001800261c8     kernel32:KERNEL32.dll
 0002:000001d0       __imp_FlsFree              00000001800261d0     kernel32:KERNEL32.dll
 0002:000001d8       __imp_FlsSetValue          00000001800261d8     kernel32:KERNEL32.dll
 0002:000001e0       __imp_MulDiv               00000001800261e0     kernel32:KERNEL32.dll
 0002:000001e8       __imp_GlobalLock           00000001800261e8     kernel32:KERNEL32.dll
 0002:000001f0       __imp_GlobalUnlock         00000001800261f0     kernel32:KERNEL32.dll
 0002:000001f8       __imp_GlobalAlloc          00000001800261f8     kernel32:KERNEL32.dll
 0002:00000200       __imp_FindResourceW        0000000180026200     kernel32:KERNEL32.dll
 0002:00000208       __imp_SizeofResource       0000000180026208     kernel32:KERNEL32.dll
 0002:00000210       __imp_LoadResource         0000000180026210     kernel32:KERNEL32.dll
 0002:00000218       __imp_LoadLibraryExW       0000000180026218     kernel32:KERNEL32.dll
 0002:00000220       __imp_GetProcAddress       0000000180026220     kernel32:KERNEL32.dll
 0002:00000228       __imp_GetModuleHandleW     0000000180026228     kernel32:KERNEL32.dll
 0002:00000230       __imp_GetModuleFileNameW   0000000180026230     kernel32:KERNEL32.dll
 0002:00000238       __imp_FreeLibrary          0000000180026238     kernel32:KERNEL32.dll
 0002:00000240       __imp_DisableThreadLibraryCalls 0000000180026240     kernel32:KERNEL32.dll
 0002:00000248       __imp_GetCurrentThreadId   0000000180026248     kernel32:KERNEL32.dll
 0002:00000250       __imp_Sleep                0000000180026250     kernel32:KERNEL32.dll
 0002:00000258       __imp_WaitForSingleObject  0000000180026258     kernel32:KERNEL32.dll
 0002:00000260       __imp_ReleaseMutex         0000000180026260     kernel32:KERNEL32.dll
 0002:00000268       __imp_ResetEvent           0000000180026268     kernel32:KERNEL32.dll
 0002:00000270       __imp_EnterCriticalSection 0000000180026270     kernel32:KERNEL32.dll
 0002:00000278       __imp_LeaveCriticalSection 0000000180026278     kernel32:KERNEL32.dll
 0002:00000280       __imp_SetLastError         0000000180026280     kernel32:KERNEL32.dll
 0002:00000288       __imp_EncodePointer        0000000180026288     kernel32:KERNEL32.dll
 0002:00000290       __imp_DeleteCriticalSection 0000000180026290     kernel32:KERNEL32.dll
 0002:00000298       __imp_InitializeCriticalSectionEx 0000000180026298     kernel32:KERNEL32.dll
 0002:000002a0       __imp_GetLastError         00000001800262a0     kernel32:KERNEL32.dll
 0002:000002a8       __imp_RaiseException       00000001800262a8     kernel32:KERNEL32.dll
 0002:000002b0       __imp_DecodePointer        00000001800262b0     kernel32:KERNEL32.dll
 0002:000002b8       __imp_WideCharToMultiByte  00000001800262b8     kernel32:KERNEL32.dll
 0002:000002c0       __imp_GetEnvironmentStringsW 00000001800262c0     kernel32:KERNEL32.dll
 0002:000002c8       __imp_MultiByteToWideChar  00000001800262c8     kernel32:KERNEL32.dll
 0002:000002d0       __imp_FlsGetValue          00000001800262d0     kernel32:KERNEL32.dll
 0002:000002d8       __imp_FlsAlloc             00000001800262d8     kernel32:KERNEL32.dll
 0002:000002e0       __imp_HeapReAlloc          00000001800262e0     kernel32:KERNEL32.dll
 0002:000002e8       __imp_HeapSize             00000001800262e8     kernel32:KERNEL32.dll
 0002:000002f0       __imp_GetModuleHandleExW   00000001800262f0     kernel32:KERNEL32.dll
 0002:000002f8       __imp_ExitProcess          00000001800262f8     kernel32:KERNEL32.dll
 0002:00000300       __imp_VirtualQuery         0000000180026300     kernel32:KERNEL32.dll
 0002:00000308       __imp_VirtualProtect       0000000180026308     kernel32:KERNEL32.dll
 0002:00000310       __imp_GetSystemInfo        0000000180026310     kernel32:KERNEL32.dll
 0002:00000318       __imp_TlsFree              0000000180026318     kernel32:KERNEL32.dll
 0002:00000320       __imp_TlsSetValue          0000000180026320     kernel32:KERNEL32.dll
 0002:00000328       __imp_TlsGetValue          0000000180026328     kernel32:KERNEL32.dll
 0002:00000330       __imp_TlsAlloc             0000000180026330     kernel32:KERNEL32.dll
 0002:00000338       __imp_RtlPcToFileHeader    0000000180026338     kernel32:KERNEL32.dll
 0002:00000340       __imp_InterlockedFlushSList 0000000180026340     kernel32:KERNEL32.dll
 0002:00000348       __imp_RtlUnwindEx          0000000180026348     kernel32:KERNEL32.dll
 0002:00000350       __imp_LoadLibraryExA       0000000180026350     kernel32:KERNEL32.dll
 0002:00000358       __imp_VirtualFree          0000000180026358     kernel32:KERNEL32.dll
 0002:00000360       __imp_VirtualAlloc         0000000180026360     kernel32:KERNEL32.dll
 0002:00000368       __imp_FlushInstructionCache 0000000180026368     kernel32:KERNEL32.dll
 0002:00000370       __imp_InterlockedPushEntrySList 0000000180026370     kernel32:KERNEL32.dll
 0002:00000378       __imp_InterlockedPopEntrySList 0000000180026378     kernel32:KERNEL32.dll
 0002:00000380       __imp_GetProcessHeap       0000000180026380     kernel32:KERNEL32.dll
 0002:00000388       __imp_HeapFree             0000000180026388     kernel32:KERNEL32.dll
 0002:00000390       __imp_HeapAlloc            0000000180026390     kernel32:KERNEL32.dll
 0002:00000398       __imp_OutputDebugStringW   0000000180026398     kernel32:KERNEL32.dll
 0002:000003a0       __imp_InitializeSListHead  00000001800263a0     kernel32:KERNEL32.dll
 0002:000003a8       __imp_GetSystemTimeAsFileTime 00000001800263a8     kernel32:KERNEL32.dll
 0002:000003b0       __imp_QueryPerformanceCounter 00000001800263b0     kernel32:KERNEL32.dll
 0002:000003b8       __imp_GetStartupInfoW      00000001800263b8     kernel32:KERNEL32.dll
 0002:000003c0       __imp_InitializeCriticalSectionAndSpinCount 00000001800263c0     kernel32:KERNEL32.dll
 0002:000003c8       __imp_WaitForSingleObjectEx 00000001800263c8     kernel32:KERNEL32.dll
 0002:000003d0       __imp_RtlCaptureContext    00000001800263d0     kernel32:KERNEL32.dll
 0002:000003d8       __imp_RtlLookupFunctionEntry 00000001800263d8     kernel32:KERNEL32.dll
 0002:000003e0       __imp_RtlVirtualUnwind     00000001800263e0     kernel32:KERNEL32.dll
 0002:000003e8       __imp_UnhandledExceptionFilter 00000001800263e8     kernel32:KERNEL32.dll
 0002:000003f0       __imp_SetUnhandledExceptionFilter 00000001800263f0     kernel32:KERNEL32.dll
 0002:000003f8       __imp_GetCurrentProcess    00000001800263f8     kernel32:KERNEL32.dll
 0002:00000400       __imp_TerminateProcess     0000000180026400     kernel32:KERNEL32.dll
 0002:00000408       __imp_IsProcessorFeaturePresent 0000000180026408     kernel32:KERNEL32.dll
 0002:00000410       __imp_IsDebuggerPresent    0000000180026410     kernel32:KERNEL32.dll
 0002:00000418       \177KERNEL32_NULL_THUNK_DATA 0000000180026418     kernel32:KERNEL32.dll
 0002:00000420       __imp_OleCreatePropertyFrame 0000000180026420     oleaut32:OLEAUT32.dll
 0002:00000428       __imp_UnRegisterTypeLib    0000000180026428     oleaut32:OLEAUT32.dll
 0002:00000430       __imp_RegisterTypeLib      0000000180026430     oleaut32:OLEAUT32.dll
 0002:00000438       __imp_LoadRegTypeLib       0000000180026438     oleaut32:OLEAUT32.dll
 0002:00000440       __imp_LoadTypeLib          0000000180026440     oleaut32:OLEAUT32.dll
 0002:00000448       __imp_VarUI4FromStr        0000000180026448     oleaut32:OLEAUT32.dll
 0002:00000450       __imp_VariantInit          0000000180026450     oleaut32:OLEAUT32.dll
 0002:00000458       __imp_SysAllocStringByteLen 0000000180026458     oleaut32:OLEAUT32.dll
 0002:00000460       __imp_SysStringByteLen     0000000180026460     oleaut32:OLEAUT32.dll
 0002:00000468       __imp_VariantChangeType    0000000180026468     oleaut32:OLEAUT32.dll
 0002:00000470       __imp_VariantClear         0000000180026470     oleaut32:OLEAUT32.dll
 0002:00000478       __imp_SysStringLen         0000000180026478     oleaut32:OLEAUT32.dll
 0002:00000480       __imp_SysFreeString        0000000180026480     oleaut32:OLEAUT32.dll
 0002:00000488       __imp_SysAllocStringLen    0000000180026488     oleaut32:OLEAUT32.dll
 0002:00000490       __imp_SysAllocString       0000000180026490     oleaut32:OLEAUT32.dll
 0002:00000498       \177OLEAUT32_NULL_THUNK_DATA 0000000180026498     oleaut32:OLEAUT32.dll
 0002:000004a0       __imp_UnregisterClassW     00000001800264a0     user32:USER32.dll
 0002:000004a8       __imp_PostMessageW         00000001800264a8     user32:USER32.dll
 0002:000004b0       __imp_DefWindowProcW       00000001800264b0     user32:USER32.dll
 0002:000004b8       __imp_CallWindowProcW      00000001800264b8     user32:USER32.dll
 0002:000004c0       __imp_RegisterClassExW     00000001800264c0     user32:USER32.dll
 0002:000004c8       __imp_GetClassInfoExW      00000001800264c8     user32:USER32.dll
 0002:000004d0       __imp_CreateWindowExW      00000001800264d0     user32:USER32.dll
 0002:000004d8       __imp_IsWindow             00000001800264d8     user32:USER32.dll
 0002:000004e0       __imp_IsChild              00000001800264e0     user32:USER32.dll
 0002:000004e8       __imp_DestroyWindow        00000001800264e8     user32:USER32.dll
 0002:000004f0       __imp_ShowWindow           00000001800264f0     user32:USER32.dll
 0002:000004f8       __imp_SetWindowPos         00000001800264f8     user32:USER32.dll
 0002:00000500       __imp_CharNextW            0000000180026500     user32:USER32.dll
 0002:00000508       __imp_SetFocus             0000000180026508     user32:USER32.dll
 0002:00000510       __imp_LoadBitmapW          0000000180026510     user32:USER32.dll
 0002:00000518       __imp_RegisterClassW       0000000180026518     user32:USER32.dll
 0002:00000520       __imp_PeekMessageW         0000000180026520     user32:USER32.dll
 0002:00000528       __imp_LoadCursorW          0000000180026528     user32:USER32.dll
 0002:00000530       __imp_GetParent            0000000180026530     user32:USER32.dll
 0002:00000538       __imp_SetWindowLongPtrW    0000000180026538     user32:USER32.dll
 0002:00000540       __imp_GetWindowLongPtrW    0000000180026540     user32:USER32.dll
 0002:00000548       __imp_PtInRect             0000000180026548     user32:USER32.dll
 0002:00000550       __imp_EqualRect            0000000180026550     user32:USER32.dll
 0002:00000558       __imp_OffsetRect           0000000180026558     user32:USER32.dll
 0002:00000560       __imp_UnionRect            0000000180026560     user32:USER32.dll
 0002:00000568       __imp_IntersectRect        0000000180026568     user32:USER32.dll
 0002:00000570       __imp_GetClientRect        0000000180026570     user32:USER32.dll
 0002:00000578       __imp_InvalidateRect       0000000180026578     user32:USER32.dll
 0002:00000580       __imp_SetWindowRgn         0000000180026580     user32:USER32.dll
 0002:00000588       __imp_EndPaint             0000000180026588     user32:USER32.dll
 0002:00000590       __imp_BeginPaint           0000000180026590     user32:USER32.dll
 0002:00000598       __imp_ReleaseDC            0000000180026598     user32:USER32.dll
 0002:000005a0       __imp_GetDC                00000001800265a0     user32:USER32.dll
 0002:000005a8       __imp_GetKeyState          00000001800265a8     user32:USER32.dll
 0002:000005b0       __imp_GetFocus             00000001800265b0     user32:USER32.dll
 0002:000005b8       \177USER32_NULL_THUNK_DATA 00000001800265b8     user32:USER32.dll
 0002:000005c0       __imp_CoCreateInstance     00000001800265c0     ole32:ole32.dll
 0002:000005c8       __imp_StringFromGUID2      00000001800265c8     ole32:ole32.dll
 0002:000005d0       __imp_CoTaskMemAlloc       00000001800265d0     ole32:ole32.dll
 0002:000005d8       __imp_CoTaskMemRealloc     00000001800265d8     ole32:ole32.dll
 0002:000005e0       __imp_CoTaskMemFree        00000001800265e0     ole32:ole32.dll
 0002:000005e8       __imp_WriteClassStm        00000001800265e8     ole32:ole32.dll
 0002:000005f0       __imp_CreateDataAdviseHolder 00000001800265f0     ole32:ole32.dll
 0002:000005f8       __imp_OleSaveToStream      00000001800265f8     ole32:ole32.dll
 0002:00000600       __imp_CreateOleAdviseHolder 0000000180026600     ole32:ole32.dll
 0002:00000608       __imp_OleRegGetUserType    0000000180026608     ole32:ole32.dll
 0002:00000610       __imp_OleRegGetMiscStatus  0000000180026610     ole32:ole32.dll
 0002:00000618       __imp_OleRegEnumVerbs      0000000180026618     ole32:ole32.dll
 0002:00000620       __imp_CLSIDFromProgID      0000000180026620     ole32:ole32.dll
 0002:00000628       __imp_ReadClassStm         0000000180026628     ole32:ole32.dll
 0002:00000630       \177ole32_NULL_THUNK_DATA  0000000180026630     ole32:ole32.dll
 0002:00000638       __guard_check_icall_fptr   0000000180026638     LIBCMT:guard_support.obj
 0002:00000640       __guard_xfg_check_icall_fptr 0000000180026640     LIBCMT:guard_support.obj
 0002:00000648       __guard_dispatch_icall_fptr 0000000180026648     LIBCMT:guard_support.obj
 0002:00000650       __guard_xfg_dispatch_icall_fptr 0000000180026650     LIBCMT:guard_support.obj
 0002:00000658       __guard_xfg_table_dispatch_icall_fptr 0000000180026658     LIBCMT:guard_support.obj
 0002:00000660       __castguard_check_failure_os_handled_fptr 0000000180026660     LIBCMT:guard_support.obj
 0002:00000668       __xc_a                     0000000180026668     LIBCMT:initializers.obj
 0002:00000698       __xc_z                     0000000180026698     LIBCMT:initializers.obj
 0002:000006a0       __xi_a                     00000001800266a0     LIBCMT:initializers.obj
 0002:000006b0       __acrt_stdio_initializer   00000001800266b0     libucrt:stdio_initializer.obj
 0002:000006b8       __acrt_multibyte_initializer 00000001800266b8     libucrt:multibyte_initializer.obj
 0002:000006c0       __acrt_tran_fma3_initializer 00000001800266c0     libucrt:fma3_initializer.obj
 0002:000006c8       __xi_z                     00000001800266c8     LIBCMT:initializers.obj
 0002:000006d0       __xl_a                     00000001800266d0     LIBCMT:tlssup.obj
 0002:000006d8       __xl_z                     00000001800266d8     LIBCMT:tlssup.obj
 0002:000006e0       __xp_a                     00000001800266e0     LIBCMT:initializers.obj
 0002:000006e8       __acrt_locale_terminator   00000001800266e8     libucrt:locale_initializer.obj
 0002:000006f0       __dcrt_console_output_terminator 00000001800266f0     libucrt:console_output_initializer.obj
 0002:000006f8       __acrt_stdio_terminator    00000001800266f8     libucrt:stdio_initializer.obj
 0002:00000700       __xp_z                     0000000180026700     LIBCMT:initializers.obj
 0002:00000708       __xt_a                     0000000180026708     LIBCMT:initializers.obj
 0002:00000710       __xt_z                     0000000180026710     LIBCMT:initializers.obj
 0002:00000720       ??_C@_13HADIAKP@?$AAS@     0000000180026720     OposVariant.obj
 0002:00000724       ??_C@_13LHMFKAAD@?$AAM@    0000000180026724     OposVariant.obj
 0002:00000728       ??_C@_13MKMNOPIJ@?$AAD@    0000000180026728     OposVariant.obj
 0002:0000072c       ??_C@_13OPKGLAFF@?$AAB@    000000018002672c     OposVariant.obj
 0002:00000730       ??_C@_17LLMMEOJD@?$AAV?$AAa?$AAl@ 0000000180026730     OposVariant.obj
 0002:00000738       ??_C@_1BI@JFAIJMHL@?$AAF?$AAo?$AAr?$AAc?$AAe?$AAR?$AAe?$AAm?$AAo?$AAv?$AAe@ 0000000180026738     OposVariant.obj
 0002:00000750       ??_C@_1BC@GCKHIPE@?$AAN?$AAo?$AAR?$AAe?$AAm?$AAo?$AAv?$AAe@ 0000000180026750     OposVariant.obj
 0002:00000768       ??_C@_1O@JDLOHAN@?$AAD?$AAe?$AAl?$AAe?$AAt?$AAe@ 0000000180026768     OposVariant.obj
 0002:00000778       ??_C@_11LOCGONAA@@         0000000180026778     OposVariant.obj
 0002:00000780       ??_7?$CComObject@V?$CComEnum@UIEnumConnections@@$1?_GUID_b196b287_bab4_101a_b69c_00aa00341d07@@3U__s_GUID@@BUtagCONNECTDATA@@V?$_Copy@UtagCONNECTDATA@@@ATL@@VCComSingleThreadModel@6@@ATL@@@ATL@@6B@ 0000000180026780     POSPower.obj
 0002:000007c0       _GUID_55980ba0_35aa_11cf_b671_00aa004cd6d8 00000001800267c0     POSPower.obj
 0002:000007d0       _GUID_b196b28b_bab4_101a_b69c_00aa00341d07 00000001800267d0     POSPower.obj
 0002:000007e0       ?_entries@?1??_GetEntries@?$CComEnum@UIEnumConnections@@$1?_GUID_b196b287_bab4_101a_b69c_00aa00341d07@@3U__s_GUID@@BUtagCONNECTDATA@@V?$_Copy@UtagCONNECTDATA@@@ATL@@VCComSingleThreadModel@6@@ATL@@SAPEBU_ATL_INTMAP_ENTRY@3@XZ@4QBU43@B 00000001800267e0     POSPower.obj
 0002:00000810       ??_7CComClassFactory@ATL@@6B@ 0000000180026810     POSPower.obj
 0002:00000840       ?_entries@?1??_GetEntries@CComClassFactory@ATL@@SAPEBU_ATL_INTMAP_ENTRY@3@XZ@4QBU43@B 0000000180026840     POSPower.obj
 0002:00000870       _GUID_00000001_0000_0000_c000_000000000046 0000000180026870     POSPower.obj
 0002:00000880       IID_IOPOSPOSPower_1_5      0000000180026880     POSPower.obj
 0002:00000890       IID_IOPOSPOSPower_1_8      0000000180026890     POSPower.obj
 0002:000008a0       IID_IOPOSPOSPower_1_9      00000001800268a0     POSPower.obj
 0002:000008b0       IID_IOPOSPOSPower          00000001800268b0     POSPower.obj
 0002:000008c0       LIBID_OposPOSPower_CCO     00000001800268c0     POSPower.obj
 0002:000008d0       DIID__IOPOSPOSPowerEvents  00000001800268d0     POSPower.obj
 0002:000008e0       CLSID_OPOSPOSPower         00000001800268e0     POSPower.obj
 0002:000008f0       ??_C@_1BK@BIGILECK@?$AAA?$AAd?$AAv?$AAa?$AAp?$AAi?$AA3?$AA2?$AA?4?$AAd?$AAl?$AAl@ 00000001800268f0     POSPower.obj
 0002:00000910       ??_C@_0BI@MNCFCPFK@RegCreateKeyTransactedW@ 0000000180026910     POSPower.obj
 0002:00000928       _GUID_00000114_0000_0000_c000_000000000046 0000000180026928     POSPower.obj
 0002:00000938       _GUID_b196b287_bab4_101a_b69c_00aa00341d07 0000000180026938     POSPower.obj
 0002:00000948       _GUID_b196b285_bab4_101a_b69c_00aa00341d07 0000000180026948     POSPower.obj
 0002:00000958       _GUID_a6bc3ac0_dbaa_11ce_9de3_00aa004bb851 0000000180026958     POSPower.obj
 0002:00000968       _GUID_0000010c_0000_0000_c000_000000000046 0000000180026968     POSPower.obj
 0002:00000978       _GUID_00000146_0000_0000_c000_000000000046 0000000180026978     POSPower.obj
 0002:00000990       ?_entries@?1??_GetEntries@COPOSPOSPower@@SAPEBU_ATL_INTMAP_ENTRY@ATL@@XZ@4QBU34@B 0000000180026990     POSPower.obj
 0002:00000c00       _GUID_cf51ed10_62fe_11cf_bf86_00a0c9034836 0000000180026c00     POSPower.obj
 0002:00000c10       ??_7CComModule@ATL@@6B@    0000000180026c10     POSPower.obj
 0002:00000c60       _GUID_0000010a_0000_0000_c000_000000000046 0000000180026c60     POSPower.obj
 0002:00000c70       _GUID_b196b283_bab4_101a_b69c_00aa00341d07 0000000180026c70     POSPower.obj
 0002:00000c80       _GUID_cb5bdc81_93c1_11cf_8f20_00805f2cd064 0000000180026c80     POSPower.obj
 0002:00000c90       ?pPropMap@?1??GetPropertyMap@COPOSPOSPower@@SAPEBUATL_PROPMAP_ENTRY@ATL@@XZ@4QBU34@B 0000000180026c90     POSPower.obj
 0002:00000d38       ??_C@_17DGDADEHL@?$AA_?$AAc?$AAx@ 0000000180026d38     POSPower.obj
 0002:00000d40       ??_C@_17IOIMFDBO@?$AA_?$AAc?$AAy@ 0000000180026d40     POSPower.obj
 0002:00000d48       _GUID_00000000_0000_0000_c000_000000000046 0000000180026d48     POSPower.obj
 0002:00000d58       _GUID_00020400_0000_0000_c000_000000000046 0000000180026d58     POSPower.obj
 0002:00000d68       _GUID_922eada0_3424_11cf_b670_00aa004cd6d8 0000000180026d68     POSPower.obj
 0002:00000d78       _GUID_9c2cad80_3424_11cf_b670_00aa004cd6d8 0000000180026d78     POSPower.obj
 0002:00000d88       _GUID_00000119_0000_0000_c000_000000000046 0000000180026d88     POSPower.obj
 0002:00000d98       _GUID_b196b289_bab4_101a_b69c_00aa00341d07 0000000180026d98     POSPower.obj
 0002:00000da8       ??_7?$CComObjectCached@VCComClassFactory@ATL@@@ATL@@6B@ 0000000180026da8     POSPower.obj
 0002:00000dd8       ??_C@_1CE@PGFMOFKI@?$AAS?$AAt?$AAa?$AAt?$AAu?$AAs?$AAU?$AAp?$AAd?$AAa?$AAt?$AAe?$AAE?$AAv?$AAe@ 0000000180026dd8     POSPower.obj
 0002:00000e00       ??_C@_1BM@CBGEBBBJ@?$AAD?$AAi?$AAr?$AAe?$AAc?$AAt?$AAI?$AAO?$AAE?$AAv?$AAe?$AAn?$AAt@ 0000000180026e00     POSPower.obj
 0002:00000e20       _GUID_b196b286_bab4_101a_b69c_00aa00341d07 0000000180026e20     POSPower.obj
 0002:00000e30       _GUID_00000117_0000_0000_c000_000000000046 0000000180026e30     POSPower.obj
 0002:00000e40       ??_C@_1BC@ENICKDH@?$AAC?$AAo?$AAn?$AAt?$AAe?$AAn?$AAt?$AAs@ 0000000180026e40     POSPower.obj
 0002:00000e58       ??_7?$CComObject@V?$CComEnum@UIEnumConnectionPoints@@$1?_GUID_b196b285_bab4_101a_b69c_00aa00341d07@@3U__s_GUID@@BPEAUIConnectionPoint@@V?$_CopyInterface@UIConnectionPoint@@@ATL@@VCComSingleThreadModel@6@@ATL@@@ATL@@6B@ 0000000180026e58     POSPower.obj
 0002:00000e98       ??_C@_1M@KANJNLFF@?$AAC?$AAL?$AAS?$AAI?$AAD@ 0000000180026e98     POSPower.obj
 0002:00000ea8       ??_C@_1M@EJNEECMJ@?$AAA?$AAp?$AAp?$AAI?$AAD@ 0000000180026ea8     POSPower.obj
 0002:00000eb8       _GUID_0000010e_0000_0000_c000_000000000046 0000000180026eb8     POSPower.obj
 0002:00000ed0       ?rgszNeverDelete@CRegParser@ATL@@1QBQEB_WB 0000000180026ed0     POSPower.obj
 0002:00000f30       _GUID_b196b288_bab4_101a_b69c_00aa00341d07 0000000180026f30     POSPower.obj
 0002:00000f40       ??_7CRegObject@ATL@@6B@    0000000180026f40     POSPower.obj
 0002:00000f70       _GUID_00000113_0000_0000_c000_000000000046 0000000180026f70     POSPower.obj
 0002:00000f80       ??_C@_1CK@OEKPKBNA@?$AAC?$AAo?$AAm?$AAp?$AAo?$AAn?$AAe?$AAn?$AAt?$AA?5?$AAC?$AAa?$AAt?$AAe?$AAg@ 0000000180026f80     POSPower.obj
 0002:00000fb0       ??_C@_1BC@NKMMNMGL@?$AAF?$AAi?$AAl?$AAe?$AAT?$AAy?$AAp?$AAe@ 0000000180026fb0     POSPower.obj
 0002:00000fc8       ??_C@_1BE@EKPAFMCP@?$AAI?$AAn?$AAt?$AAe?$AAr?$AAf?$AAa?$AAc?$AAe@ 0000000180026fc8     POSPower.obj
 0002:00000fe0       ??_C@_1BC@MAICEHGI@?$AAH?$AAa?$AAr?$AAd?$AAw?$AAa?$AAr?$AAe@ 0000000180026fe0     POSPower.obj
 0002:00000ff8       ??_C@_19HLLLM@?$AAM?$AAi?$AAm?$AAe@ 0000000180026ff8     POSPower.obj
 0002:00001008       ??_C@_17OMAOINJK@?$AAS?$AAA?$AAM@ 0000000180027008     POSPower.obj
 0002:00001010       ??_C@_1BC@IBECJAAI@?$AAS?$AAE?$AAC?$AAU?$AAR?$AAI?$AAT?$AAY@ 0000000180027010     POSPower.obj
 0002:00001028       ??_C@_1O@GBFINDKL@?$AAS?$AAY?$AAS?$AAT?$AAE?$AAM@ 0000000180027028     POSPower.obj
 0002:00001038       ??_C@_1BC@EAHCMADO@?$AAS?$AAo?$AAf?$AAt?$AAw?$AAa?$AAr?$AAe@ 0000000180027038     POSPower.obj
 0002:00001050       ??_C@_1BA@JIHHIEDE@?$AAT?$AAy?$AAp?$AAe?$AAL?$AAi?$AAb@ 0000000180027050     POSPower.obj
 0002:00001060       _GUID_1c2056cc_5ef4_101b_8bc8_00aa003e3b29 0000000180027060     POSPower.obj
 0002:00001070       ?map@?1??HKeyFromString@CRegParser@ATL@@KAPEAUHKEY__@@PEA_W@Z@4QBUkeymap@?1??123@KAPEAU4@0@Z@B 0000000180027070     POSPower.obj
 0002:00001150       ??_C@_19NCHLBIN@?$AAH?$AAK?$AAC?$AAR@ 0000000180027150     POSPower.obj
 0002:00001160       ??_C@_19JAPAIJDE@?$AAH?$AAK?$AAC?$AAU@ 0000000180027160     POSPower.obj
 0002:00001170       ??_C@_19PEALEEJB@?$AAH?$AAK?$AAL?$AAM@ 0000000180027170     POSPower.obj
 0002:00001180       ??_C@_17PJOJPMPB@?$AAH?$AAK?$AAU@ 0000000180027180     POSPower.obj
 0002:00001188       ??_C@_19PNBHMJPL@?$AAH?$AAK?$AAP?$AAD@ 0000000180027188     POSPower.obj
 0002:00001198       ??_C@_19GFFAIJHG@?$AAH?$AAK?$AAD?$AAD@ 0000000180027198     POSPower.obj
 0002:000011a8       ??_C@_19OFICIBHH@?$AAH?$AAK?$AAC?$AAC@ 00000001800271a8     POSPower.obj
 0002:000011b8       ??_C@_1CE@PACHPJFI@?$AAH?$AAK?$AAE?$AAY?$AA_?$AAC?$AAL?$AAA?$AAS?$AAS?$AAE?$AAS?$AA_?$AAR?$AAO@ 00000001800271b8     POSPower.obj
 0002:000011e0       ??_C@_1CE@HLHNCBPM@?$AAH?$AAK?$AAE?$AAY?$AA_?$AAC?$AAU?$AAR?$AAR?$AAE?$AAN?$AAT?$AA_?$AAU?$AAS@ 00000001800271e0     POSPower.obj
 0002:00001208       ??_C@_1CG@GFBEANJL@?$AAH?$AAK?$AAE?$AAY?$AA_?$AAL?$AAO?$AAC?$AAA?$AAL?$AA_?$AAM?$AAA?$AAC?$AAH@ 0000000180027208     POSPower.obj
 0002:00001230       ??_C@_1BG@BGODANIO@?$AAH?$AAK?$AAE?$AAY?$AA_?$AAU?$AAS?$AAE?$AAR?$AAS@ 0000000180027230     POSPower.obj
 0002:00001248       ??_C@_1CM@KHNNAOIC@?$AAH?$AAK?$AAE?$AAY?$AA_?$AAP?$AAE?$AAR?$AAF?$AAO?$AAR?$AAM?$AAA?$AAN?$AAC@ 0000000180027248     POSPower.obj
 0002:00001278       ??_C@_1BM@HAGMMHIA@?$AAH?$AAK?$AAE?$AAY?$AA_?$AAD?$AAY?$AAN?$AA_?$AAD?$AAA?$AAT?$AAA@ 0000000180027278     POSPower.obj
 0002:00001298       ??_C@_1CI@BBJOACGG@?$AAH?$AAK?$AAE?$AAY?$AA_?$AAC?$AAU?$AAR?$AAR?$AAE?$AAN?$AAT?$AA_?$AAC?$AAO@ 0000000180027298     POSPower.obj
 0002:000012c0       _GUID_00000109_0000_0000_c000_000000000046 00000001800272c0     POSPower.obj
 0002:000012d0       _GUID_7fd52380_4e07_101b_ae2d_08002b2ec713 00000001800272d0     POSPower.obj
 0002:000012e0       _GUID_00000112_0000_0000_c000_000000000046 00000001800272e0     POSPower.obj
 0002:000012f0       ??_C@_1EA@NHKLICFA@?$AAH?$AAK?$AAC?$AAU?$AA?$AN?$AA?6?$AA?$HL?$AA?7?$AAS?$AAo?$AAf?$AAt?$AAw?$AAa?$AAr@ 00000001800272f0     POSPower.obj
 0002:00001330       ??_C@_1BE@LJOLIMEM@?$AA?$AN?$AA?6?$AA?7?$AA?$HN?$AA?$AN?$AA?6?$AA?$HN?$AA?$AN?$AA?6@ 0000000180027330     POSPower.obj
 0002:00001348       _GUID_3af24292_0c96_11ce_a0cf_00aa00600ab8 0000000180027348     POSPower.obj
 0002:00001358       _GUID_00000127_0000_0000_c000_000000000046 0000000180027358     POSPower.obj
 0002:00001368       _GUID_0000010d_0000_0000_c000_000000000046 0000000180027368     POSPower.obj
 0002:00001378       ??_C@_1M@PPPPCDEP@?$AAA?$AAP?$AAP?$AAI?$AAD@ 0000000180027378     POSPower.obj
 0002:00001388       ??_C@_1O@MNLDABAF@?$AAM?$AAo?$AAd?$AAu?$AAl?$AAe@ 0000000180027388     POSPower.obj
 0002:00001398       ??_C@_1BG@JBACFMF@?$AAM?$AAo?$AAd?$AAu?$AAl?$AAe?$AA_?$AAR?$AAa?$AAw@ 0000000180027398     POSPower.obj
 0002:000013b0       ??_C@_1BC@KAILKFFG@?$AAR?$AAE?$AAG?$AAI?$AAS?$AAT?$AAR?$AAY@ 00000001800273b0     POSPower.obj
 0002:000013c8       ??_7?$CComContainedObject@VCOPOSPOSPower@@@ATL@@6B?$IDispatchImpl@UIOPOSPOSPower@@$1?IID_IOPOSPOSPower@@3U_GUID@@B$1?LIBID_OposPOSPower_CCO@@3U3@B$00$0A@VCComTypeInfoHolder@ATL@@@1@@ 00000001800273c8     POSPower.obj
 0002:00001630       ??_7?$CComContainedObject@VCOPOSPOSPower@@@ATL@@6BCComControlBase@1@@ 0000000180027630     POSPower.obj
 0002:00001658       ??_7?$CComContainedObject@VCOPOSPOSPower@@@ATL@@6B?$CWindowImpl@VCOPOSPOSPower@@VCWindow@ATL@@V?$CWinTraits@$0FGAAAAAA@$0A@@3@@1@@ 0000000180027658     POSPower.obj
 0002:00001678       ??_7?$CComContainedObject@VCOPOSPOSPower@@@ATL@@6B?$IPersistStreamInitImpl@VCOPOSPOSPower@@@1@@ 0000000180027678     POSPower.obj
 0002:000016c0       ??_7?$CComContainedObject@VCOPOSPOSPower@@@ATL@@6B?$IOleControlImpl@VCOPOSPOSPower@@@1@@ 00000001800276c0     POSPower.obj
 0002:000016f8       ??_7?$CComContainedObject@VCOPOSPOSPower@@@ATL@@6B?$IOleObjectImpl@VCOPOSPOSPower@@@1@@ 00000001800276f8     POSPower.obj
 0002:000017b8       ??_7?$CComContainedObject@VCOPOSPOSPower@@@ATL@@6B?$IOleInPlaceActiveObjectImpl@VCOPOSPOSPower@@@1@@ 00000001800277b8     POSPower.obj
 0002:00001808       ??_7?$CComContainedObject@VCOPOSPOSPower@@@ATL@@6B?$IViewObjectExImpl@VCOPOSPOSPower@@@1@@ 0000000180027808     POSPower.obj
 0002:00001880       ??_7?$CComContainedObject@VCOPOSPOSPower@@@ATL@@6B?$IOleInPlaceObjectWindowlessImpl@VCOPOSPOSPower@@@1@@ 0000000180027880     POSPower.obj
 0002:000018d8       ??_7?$CComContainedObject@VCOPOSPOSPower@@@ATL@@6B?$IConnectionPointContainerImpl@VCOPOSPOSPower@@@1@@ 00000001800278d8     POSPower.obj
 0002:00001900       ??_7?$CComContainedObject@VCOPOSPOSPower@@@ATL@@6B?$IPersistStorageImpl@VCOPOSPOSPower@@@1@@ 0000000180027900     POSPower.obj
 0002:00001950       ??_7?$CComContainedObject@VCOPOSPOSPower@@@ATL@@6B?$ISpecifyPropertyPagesImpl@VCOPOSPOSPower@@@1@@ 0000000180027950     POSPower.obj
 0002:00001970       ??_7?$CComContainedObject@VCOPOSPOSPower@@@ATL@@6B?$IQuickActivateImpl@VCOPOSPOSPower@@@1@@ 0000000180027970     POSPower.obj
 0002:000019a0       ??_7?$CComContainedObject@VCOPOSPOSPower@@@ATL@@6B?$IDataObjectImpl@VCOPOSPOSPower@@@1@@ 00000001800279a0     POSPower.obj
 0002:00001a00       ??_7?$CComContainedObject@VCOPOSPOSPower@@@ATL@@6B?$IProvideClassInfo2Impl@$1?CLSID_OPOSPOSPower@@3U_GUID@@B$1?DIID__IOPOSPOSPowerEvents@@3U2@B$1?LIBID_OposPOSPower_CCO@@3U2@B$00$0A@VCComTypeInfoHolder@ATL@@@1@@ 0000000180027a00     POSPower.obj
 0002:00001a28       ??_7?$CComContainedObject@VCOPOSPOSPower@@@ATL@@6B?$IObjectSafetyImpl@VCOPOSPOSPower@@$02@1@@ 0000000180027a28     POSPower.obj
 0002:00001a58       ??_7?$CComContainedObject@VCOPOSPOSPower@@@ATL@@6B?$IPropertyNotifySinkCP@VCOPOSPOSPower@@VCComDynamicUnkArray@ATL@@@1@@ 0000000180027a58     POSPower.obj
 0002:00001a98       ??_7?$CComContainedObject@VCOPOSPOSPower@@@ATL@@6B?$CProxy_IOPOSEvents@VCOPOSPOSPower@@@@@ 0000000180027a98     POSPower.obj
 0002:00001ad8       ??_7?$CComAggObject@VCOPOSPOSPower@@@ATL@@6B@ 0000000180027ad8     POSPower.obj
 0002:00001af8       ??_7?$CComObject@VCOPOSPOSPower@@@ATL@@6B?$IDispatchImpl@UIOPOSPOSPower@@$1?IID_IOPOSPOSPower@@3U_GUID@@B$1?LIBID_OposPOSPower_CCO@@3U3@B$00$0A@VCComTypeInfoHolder@ATL@@@1@@ 0000000180027af8     POSPower.obj
 0002:00001d60       ??_7?$CComObject@VCOPOSPOSPower@@@ATL@@6BCComControlBase@1@@ 0000000180027d60     POSPower.obj
 0002:00001d88       ??_7?$CComObject@VCOPOSPOSPower@@@ATL@@6B?$CWindowImpl@VCOPOSPOSPower@@VCWindow@ATL@@V?$CWinTraits@$0FGAAAAAA@$0A@@3@@1@@ 0000000180027d88     POSPower.obj
 0002:00001da8       ??_7?$CComObject@VCOPOSPOSPower@@@ATL@@6B?$IPersistStreamInitImpl@VCOPOSPOSPower@@@1@@ 0000000180027da8     POSPower.obj
 0002:00001df0       ??_7?$CComObject@VCOPOSPOSPower@@@ATL@@6B?$IOleControlImpl@VCOPOSPOSPower@@@1@@ 0000000180027df0     POSPower.obj
 0002:00001e28       ??_7?$CComObject@VCOPOSPOSPower@@@ATL@@6B?$IOleObjectImpl@VCOPOSPOSPower@@@1@@ 0000000180027e28     POSPower.obj
 0002:00001ee8       ??_7?$CComObject@VCOPOSPOSPower@@@ATL@@6B?$IOleInPlaceActiveObjectImpl@VCOPOSPOSPower@@@1@@ 0000000180027ee8     POSPower.obj
 0002:00001f38       ??_7?$CComObject@VCOPOSPOSPower@@@ATL@@6B?$IViewObjectExImpl@VCOPOSPOSPower@@@1@@ 0000000180027f38     POSPower.obj
 0002:00001fb0       ??_7?$CComObject@VCOPOSPOSPower@@@ATL@@6B?$IOleInPlaceObjectWindowlessImpl@VCOPOSPOSPower@@@1@@ 0000000180027fb0     POSPower.obj
 0002:00002008       ??_7?$CComObject@VCOPOSPOSPower@@@ATL@@6B?$IConnectionPointContainerImpl@VCOPOSPOSPower@@@1@@ 0000000180028008     POSPower.obj
 0002:00002030       ??_7?$CComObject@VCOPOSPOSPower@@@ATL@@6B?$IPersistStorageImpl@VCOPOSPOSPower@@@1@@ 0000000180028030     POSPower.obj
 0002:00002080       ??_7?$CComObject@VCOPOSPOSPower@@@ATL@@6B?$ISpecifyPropertyPagesImpl@VCOPOSPOSPower@@@1@@ 0000000180028080     POSPower.obj
 0002:000020a0       ??_7?$CComObject@VCOPOSPOSPower@@@ATL@@6B?$IQuickActivateImpl@VCOPOSPOSPower@@@1@@ 00000001800280a0     POSPower.obj
 0002:000020d0       ??_7?$CComObject@VCOPOSPOSPower@@@ATL@@6B?$IDataObjectImpl@VCOPOSPOSPower@@@1@@ 00000001800280d0     POSPower.obj
 0002:00002130       ??_7?$CComObject@VCOPOSPOSPower@@@ATL@@6B?$IProvideClassInfo2Impl@$1?CLSID_OPOSPOSPower@@3U_GUID@@B$1?DIID__IOPOSPOSPowerEvents@@3U2@B$1?LIBID_OposPOSPower_CCO@@3U2@B$00$0A@VCComTypeInfoHolder@ATL@@@1@@ 0000000180028130     POSPower.obj
 0002:00002158       ??_7?$CComObject@VCOPOSPOSPower@@@ATL@@6B?$IObjectSafetyImpl@VCOPOSPOSPower@@$02@1@@ 0000000180028158     POSPower.obj
 0002:00002188       ??_7?$CComObject@VCOPOSPOSPower@@@ATL@@6B?$IPropertyNotifySinkCP@VCOPOSPOSPower@@VCComDynamicUnkArray@ATL@@@1@@ 0000000180028188     POSPower.obj
 0002:000021c8       ??_7?$CComObject@VCOPOSPOSPower@@@ATL@@6B?$CProxy_IOPOSEvents@VCOPOSPOSPower@@@@@ 00000001800281c8     POSPower.obj
 0002:00002208       ??_C@_1O@GBFKGNEO@?$AAA?$AAT?$AAL?$AA?3?$AA?$CF?$AAp@ 0000000180028208     POSPower.obj
 0002:00002218       ??_C@_1BA@PICGEGJB@?$AAD?$AAI?$AAS?$AAP?$AAL?$AAA?$AAY@ 0000000180028218     POSPower.obj
 0002:00002228       _GUID_b196b284_bab4_101a_b69c_00aa00341d07 0000000180028228     POSPower.obj
 0002:00002238       _GUID_9bfbbc02_eff1_101a_84ed_00aa00341d07 0000000180028238     POSPower.obj
 0002:00002248       ?_entries@?1??_GetEntries@?$CComEnum@UIEnumConnectionPoints@@$1?_GUID_b196b285_bab4_101a_b69c_00aa00341d07@@3U__s_GUID@@BPEAUIConnectionPoint@@V?$_CopyInterface@UIConnectionPoint@@@ATL@@VCComSingleThreadModel@6@@ATL@@SAPEBU_ATL_INTMAP_ENTRY@3@XZ@4QBU43@B 0000000180028248     POSPower.obj
 0002:00002278       _GUID_00020412_0000_0000_c000_000000000046 0000000180028278     POSPower.obj
 0002:00002288       _GUID_00020401_0000_0000_c000_000000000046 0000000180028288     POSPower.obj
 0002:00002298       ??_C@_0BG@EKFFMJIO@RegOpenKeyTransactedW@ 0000000180028298     POSPower.obj
 0002:000022b0       ??_C@_0BI@HAKLOOGP@RegDeleteKeyTransactedW@ 00000001800282b0     POSPower.obj
 0002:000022c8       ??_C@_0BA@LILAPHGE@RegDeleteKeyExW@ 00000001800282c8     POSPower.obj
 0002:000022d8       ??_C@_19ILOCMLCJ@?$AA?4?$AAt?$AAl?$AAb@ 00000001800282d8     POSPower.obj
 0002:000022e8       _GUID_0002e012_0000_0000_c000_000000000046 00000001800282e8     POSPower.obj
 0002:000022f8       ??_C@_1O@FHBGLCIO@?$AAC?$AAL?$AAS?$AAI?$AAD?$AA?2@ 00000001800282f8     POSPower.obj
 0002:00002308       ??_C@_1CK@IFBKBFAA@?$AA?2?$AAR?$AAe?$AAq?$AAu?$AAi?$AAr?$AAe?$AAd?$AA?5?$AAC?$AAa?$AAt?$AAe?$AAg@ 0000000180028308     POSPower.obj
 0002:00002338       ??_C@_1DA@BIHALFED@?$AA?2?$AAI?$AAm?$AAp?$AAl?$AAe?$AAm?$AAe?$AAn?$AAt?$AAe?$AAd?$AA?5?$AAC?$AAa@ 0000000180028338     POSPower.obj
 0002:00002368       ??_C@_1BK@EDKOLFBJ@?$AAO?$AAL?$AAE?$AAA?$AAU?$AAT?$AA3?$AA2?$AA?4?$AAD?$AAL?$AAL@ 0000000180028368     POSPower.obj
 0002:00002388       ??_C@_0BJ@CNLFOMHB@UnRegisterTypeLibForUser@ 0000000180028388     POSPower.obj
 0002:000023a8       ??_C@_0BH@LBOMMKPJ@RegisterTypeLibForUser@ 00000001800283a8     POSPower.obj
 0002:000023c0       ??_C@_0P@MMNMMLGK@COFreezeEvents@ 00000001800283c0     POSPowerImpl.obj
 0002:000023d0       ??_C@_0BC@OGCGGIMP@GetPropertyNumber@ 00000001800283d0     POSPowerImpl.obj
 0002:000023e8       ??_C@_0BC@MDCNODNB@SetPropertyNumber@ 00000001800283e8     POSPowerImpl.obj
 0002:00002400       ??_C@_0BC@CFCCMIMD@GetPropertyString@ 0000000180028400     POSPowerImpl.obj
 0002:00002418       ??_C@_0BC@CJEDNN@SetPropertyString@ 0000000180028418     POSPowerImpl.obj
 0002:00002430       ??_C@_0M@LNPKKKDA@OpenService@ 0000000180028430     POSPowerImpl.obj
 0002:00002440       ??_C@_0M@PCMCHHMH@CheckHealth@ 0000000180028440     POSPowerImpl.obj
 0002:00002450       ??_C@_0M@JGMIDNEK@ClaimDevice@ 0000000180028450     POSPowerImpl.obj
 0002:00002460       ??_C@_0N@DDFIIBMP@CloseService@ 0000000180028460     POSPowerImpl.obj
 0002:00002470       ??_C@_08EEIHICPC@DirectIO@ 0000000180028470     POSPowerImpl.obj
 0002:00002480       ??_C@_0O@BCPMENMJ@ReleaseDevice@ 0000000180028480     POSPowerImpl.obj
 0002:00002490       ??_C@_0M@KANALHME@ShutdownPOS@ 0000000180028490     POSPowerImpl.obj
 0002:000024a0       ??_C@_0BA@GFABKEEE@ResetStatistics@ 00000001800284a0     POSPowerImpl.obj
 0002:000024b0       ??_C@_0BD@DPALHJGC@RetrieveStatistics@ 00000001800284b0     POSPowerImpl.obj
 0002:000024c8       ??_C@_0BB@KOHIKNFC@UpdateStatistics@ 00000001800284c8     POSPowerImpl.obj
 0002:000024e0       ??_C@_0BH@PBKBNMGB@CompareFirmwareVersion@ 00000001800284e0     POSPowerImpl.obj
 0002:000024f8       ??_C@_0P@FBPDPIPA@UpdateFirmware@ 00000001800284f8     POSPowerImpl.obj
 0002:00002508       ??_C@_0L@CEHEODOE@RestartPOS@ 0000000180028508     POSPowerImpl.obj
 0002:00002518       ??_C@_0L@OLKFHIGL@StandbyPOS@ 0000000180028518     POSPowerImpl.obj
 0002:00002528       ??_C@_0L@KGKFMCEH@SuspendPOS@ 0000000180028528     POSPowerImpl.obj
 0002:00002538       ??_7?$CProxy_IOPOSEvents@VCOPOSPOSPower@@@@6B@ 0000000180028538     POSPowerImpl.obj
 0002:00002578       ??_C@_1BA@IFHENID@?$AA?$FL?$AAE?$AAr?$AAr?$AAo?$AAr?$AA?$FN@ 0000000180028578     POSPowerImpl.obj
 0002:00002588       ??_C@_0CL@EMHFMPDC@SOFTWARE?2OLEforRetail?2ServiceOP@ 0000000180028588     POSPowerImpl.obj
 0002:000025b8       ??_C@_1M@IAIJHCCH@?$AAC?$AAl?$AAo?$AAs?$AAe@ 00000001800285b8     POSPowerImpl.obj
 0002:000025c8       ??_C@_1M@PCPKGJAH@?$AAC?$AAl?$AAa?$AAi?$AAm@ 00000001800285c8     POSPowerImpl.obj
 0002:000025d8       ??_C@_1BA@NDFKIOCP@?$AAR?$AAe?$AAl?$AAe?$AAa?$AAs?$AAe@ 00000001800285d8     POSPowerImpl.obj
 0002:000025e8       ??_C@_08DLDFOLLN@POSPower@ 00000001800285e8     POSPowerImpl.obj
 0002:000025f8       ??_C@_1BM@IJMNMBPK@?$AAG?$AAe?$AAt?$AAO?$AAp?$AAe?$AAn?$AAR?$AAe?$AAs?$AAu?$AAl?$AAt@ 00000001800285f8     POSPowerImpl.obj
 0002:00002618       IID_IDispatch              0000000180028618     uuid:oaidl_i.obj
 0002:00002628       IID_IPropertyNotifySink    0000000180028628     uuid:ocidl_i.obj
 0002:00002638       GUID_NULL                  0000000180028638     uuid:cguid_i.obj
 0002:00002648       CLSID_StdGlobalInterfaceTable 0000000180028648     uuid:cguid_i.obj
 0002:00002658       CLSID_StdComponentCategoriesMgr 0000000180028658     uuid:ieguids.obj
 0002:00002668       IID_IUnknown               0000000180028668     uuid:unknwn_i.obj
 0002:00002680       __xmm@ffffffffffffffffffffffffffffffff 0000000180028680     LIBCMT:utility.obj
 0002:00002690       ??_C@_1EC@JIJBPKFM@?$AAa?$AAp?$AAi?$AA?9?$AAm?$AAs?$AA?9?$AAw?$AAi?$AAn?$AA?9?$AAc?$AAo?$AAr?$AAe@ 0000000180028690     LIBCMT:thread_safe_statics.obj
 0002:000026d8       ??_C@_1BK@MGMFAEKH@?$AAk?$AAe?$AAr?$AAn?$AAe?$AAl?$AA3?$AA2?$AA?4?$AAd?$AAl?$AAl@ 00000001800286d8     LIBCMT:thread_safe_statics.obj
 0002:000026f8       ??_C@_0BJ@JEBJOJFJ@SleepConditionVariableCS@ 00000001800286f8     LIBCMT:thread_safe_statics.obj
 0002:00002718       ??_C@_0BJ@PGPPEPCC@WakeAllConditionVariable@ 0000000180028718     LIBCMT:thread_safe_statics.obj
 0002:00002731       ?nothrow@std@@3Unothrow_t@1@B 0000000180028731     LIBCMT:std_nothrow.obj
 0002:00002748       _pRawDllMain               0000000180028748     LIBCMT:dll_dllmain.obj
 0002:00002748       _pDefaultRawDllMain        0000000180028748     LIBCMT:dll_dllmain.obj
 0002:00002758       ??_7exception@std@@6B@     0000000180028758     LIBCMT:throw_bad_alloc.obj
 0002:00002768       ??_C@_0BC@EOODALEL@Unknown?5exception@ 0000000180028768     LIBCMT:throw_bad_alloc.obj
 0002:00002788       ??_7bad_alloc@std@@6B@     0000000180028788     LIBCMT:throw_bad_alloc.obj
 0002:00002798       ??_C@_0P@GHFPNOJB@bad?5allocation@ 0000000180028798     LIBCMT:throw_bad_alloc.obj
 0002:000027b0       ??_7bad_array_new_length@std@@6B@ 00000001800287b0     LIBCMT:throw_bad_alloc.obj
 0002:000027c0       ??_C@_0BF@KINCDENJ@bad?5array?5new?5length@ 00000001800287c0     LIBCMT:throw_bad_alloc.obj
 0002:000027e0       ??_7type_info@@6B@         00000001800287e0     LIBCMT:std_type_info_static.obj
 0002:000027e8       GUID_ATLVer110             00000001800287e8     atls:atlbase.obj
 0002:00002800       ??_C@_1IC@ONKHOIDK@?$AAE?$AAR?$AAR?$AAO?$AAR?$AA?5?$AA?3?$AA?5?$AAU?$AAn?$AAa?$AAb?$AAl?$AAe?$AA?5@ 0000000180028800     atls:atlbase.obj
 0002:00002888       ??_C@_0N@FJEPLCIH@atlthunk?4dll@ 0000000180028888     atls:atlthunk.obj
 0002:00002898       ??_C@_0BG@GAKFHCBM@AtlThunk_AllocateData@ 0000000180028898     atls:atlthunk.obj
 0002:000028b0       ??_C@_0BC@JKONFIAH@AtlThunk_InitData@ 00000001800288b0     atls:atlthunk.obj
 0002:000028c8       ??_C@_0BE@IAOEELAK@AtlThunk_DataToCode@ 00000001800288c8     atls:atlthunk.obj
 0002:000028e0       ??_C@_0BC@GBGKAIPI@AtlThunk_FreeData@ 00000001800288e0     atls:atlthunk.obj
 0002:000028f8       ?s_negLengthTab@FH4@@3QBCB 00000001800288f8     libvcruntime:risctrnsctrl.obj
 0002:00002908       ?s_shiftTab@FH4@@3QBEB     0000000180028908     libvcruntime:risctrnsctrl.obj
 0002:00002a58       _pDestructExceptionObject  0000000180028a58     libvcruntime:ehhelpers.obj
 0002:00002a68       ??_7bad_exception@std@@6B@ 0000000180028a68     libvcruntime:frame.obj
 0002:00002a78       ??_C@_0O@DPKOEFFH@bad?5exception@ 0000000180028a78     libvcruntime:frame.obj
 0002:000031a0       ??_C@_08EHJDFFNH@__based?$CI@ 00000001800291a0     libvcruntime:undname.obj
 0002:000031b0       ??_C@_07KOLFKCDI@__cdecl@  00000001800291b0     libvcruntime:undname.obj
 0002:000031b8       ??_C@_08GHMPAG@__pascal@   00000001800291b8     libvcruntime:undname.obj
 0002:000031c8       ??_C@_09IFJBGAPI@__stdcall@ 00000001800291c8     libvcruntime:undname.obj
 0002:000031d8       ??_C@_0L@NPHFGOKO@__thiscall@ 00000001800291d8     libvcruntime:undname.obj
 0002:000031e8       ??_C@_0L@JMKHOMEK@__fastcall@ 00000001800291e8     libvcruntime:undname.obj
 0002:000031f8       ??_C@_0N@BCKKPABJ@__vectorcall@ 00000001800291f8     libvcruntime:undname.obj
 0002:00003208       ??_C@_09HIJEGCPM@__clrcall@ 0000000180029208     libvcruntime:undname.obj
 0002:00003214       ??_C@_06GHPCKEAG@__eabi@   0000000180029214     libvcruntime:undname.obj
 0002:00003220       ??_C@_09IOPIDJLG@__swift_1@ 0000000180029220     libvcruntime:undname.obj
 0002:00003230       ??_C@_09KFNFGKHF@__swift_2@ 0000000180029230     libvcruntime:undname.obj
 0002:00003240       ??_C@_09LMMOFLDE@__swift_3@ 0000000180029240     libvcruntime:undname.obj
 0002:00003250       ??_C@_07JOMMBBKO@__ptr64@  0000000180029250     libvcruntime:undname.obj
 0002:00003258       ??_C@_0L@PILCLIHE@__restrict@ 0000000180029258     libvcruntime:undname.obj
 0002:00003268       ??_C@_0M@GFIIJFMG@__unaligned@ 0000000180029268     libvcruntime:undname.obj
 0002:00003278       ??_C@_09DHDLOLLB@restrict?$CI@ 0000000180029278     libvcruntime:undname.obj
 0002:00003282       ??_C@_00CNPNBAHC@@         0000000180029282     libvcruntime:undname.obj
 0002:00003284       ??_C@_04NIHEBCM@?5new@     0000000180029284     libvcruntime:undname.obj
 0002:00003290       ??_C@_07FPCDHGMM@?5delete@ 0000000180029290     libvcruntime:undname.obj
 0002:00003298       ??_C@_01NEMOKFLO@?$DN@     0000000180029298     libvcruntime:undname.obj
 0002:0000329c       ??_C@_02GPIOPFAK@?$DO?$DO@ 000000018002929c     libvcruntime:undname.obj
 0002:000032a0       ??_C@_02FODMEDOG@?$DM?$DM@ 00000001800292a0     libvcruntime:undname.obj
 0002:000032a4       ??_C@_01DCLJPIOD@?$CB@     00000001800292a4     libvcruntime:undname.obj
 0002:000032a8       ??_C@_02EGOFBIJA@?$DN?$DN@ 00000001800292a8     libvcruntime:undname.obj
 0002:000032ac       ??_C@_02FDNJECIE@?$CB?$DN@ 00000001800292ac     libvcruntime:undname.obj
 0002:000032b0       ??_C@_02GPECMEKF@?$FL?$FN@ 00000001800292b0     libvcruntime:undname.obj
 0002:000032b8       ??_C@_08LHJFAFGD@operator@ 00000001800292b8     libvcruntime:undname.obj
 0002:000032c4       ??_C@_02HBOOOICD@?9?$DO@   00000001800292c4     libvcruntime:undname.obj
 0002:000032c8       ??_C@_01NBENCBCI@?$CK@     00000001800292c8     libvcruntime:undname.obj
 0002:000032cc       ??_C@_02ECNGHCIF@?$CL?$CL@ 00000001800292cc     libvcruntime:undname.obj
 0002:000032d0       ??_C@_02BAABKJLB@?9?9@     00000001800292d0     libvcruntime:undname.obj
 0002:000032d4       ??_C@_01JOAMLHOP@?9@       00000001800292d4     libvcruntime:undname.obj
 0002:000032d8       ??_C@_01MIFGBAGJ@?$CL@     00000001800292d8     libvcruntime:undname.obj
 0002:000032dc       ??_C@_01HNPIGOCE@?$CG@     00000001800292dc     libvcruntime:undname.obj
 0002:000032e0       ??_C@_03MNHNFDLC@?9?$DO?$CK@ 00000001800292e0     libvcruntime:undname.obj
 0002:000032e4       ??_C@_01KMDKNFGN@?1@       00000001800292e4     libvcruntime:undname.obj
 0002:000032e8       ??_C@_01FGNFDNOH@?$CF@     00000001800292e8     libvcruntime:undname.obj
 0002:000032ec       ??_C@_01MNNFJEPP@?$DM@     00000001800292ec     libvcruntime:undname.obj
 0002:000032f0       ??_C@_02EHCHHCKH@?$DM?$DN@ 00000001800292f0     libvcruntime:undname.obj
 0002:000032f4       ??_C@_01PPODPGHN@?$DO@     00000001800292f4     libvcruntime:undname.obj
 0002:000032f8       ??_C@_02EEKDKGMJ@?$DO?$DN@ 00000001800292f8     libvcruntime:undname.obj
 0002:000032fc       ??_C@_01IHBHIGKO@?0@       00000001800292fc     libvcruntime:undname.obj
 0002:00003300       ??_C@_02HCKGKOFO@?$CI?$CJ@ 0000000180029300     libvcruntime:undname.obj
 0002:00003304       ??_C@_01PJKLJHI@?$HO@      0000000180029304     libvcruntime:undname.obj
 0002:00003308       ??_C@_01JKBOJNNK@?$FO@     0000000180029308     libvcruntime:undname.obj
 0002:0000330c       ??_C@_01DNKMNLPK@?$HM@     000000018002930c     libvcruntime:undname.obj
 0002:00003310       ??_C@_02PPKAJPJL@?$CG?$CG@ 0000000180029310     libvcruntime:undname.obj
 0002:00003314       ??_C@_02NONPIBCD@?$HM?$HM@ 0000000180029314     libvcruntime:undname.obj
 0002:00003318       ??_C@_02FPIMKNGF@?$CK?$DN@ 0000000180029318     libvcruntime:undname.obj
 0002:0000331c       ??_C@_02FOEOMHFC@?$CL?$DN@ 000000018002931c     libvcruntime:undname.obj
 0002:00003320       ??_C@_02FKMDLLOA@?9?$DN@   0000000180029320     libvcruntime:undname.obj
 0002:00003324       ??_C@_02FJEHGPIO@?1?$DN@   0000000180029324     libvcruntime:undname.obj
 0002:00003328       ??_C@_02FENAOKFI@?$CF?$DN@ 0000000180029328     libvcruntime:undname.obj
 0002:0000332c       ??_C@_03IKFCCPFF@?$DO?$DO?$DN@ 000000018002932c     libvcruntime:undname.obj
 0002:00003330       ??_C@_03CDNPDDLA@?$DM?$DM?$DN@ 0000000180029330     libvcruntime:undname.obj
 0002:00003334       ??_C@_02FGJGFEAB@?$CG?$DN@ 0000000180029334     libvcruntime:undname.obj
 0002:00003338       ??_C@_02DHLNPPGH@?$HM?$DN@ 0000000180029338     libvcruntime:undname.obj
 0002:0000333c       ??_C@_02MHEGNOJ@?$FO?$DN@  000000018002933c     libvcruntime:undname.obj
 0002:00003340       ??_C@_09IFPLHPGF@?$GAvftable?8@ 0000000180029340     libvcruntime:undname.obj
 0002:00003350       ??_C@_09BLBHBJP@?$GAvbtable?8@ 0000000180029350     libvcruntime:undname.obj
 0002:00003360       ??_C@_07FEEIOKP@?$GAvcall?8@ 0000000180029360     libvcruntime:undname.obj
 0002:00003368       ??_C@_08LLFFHHDJ@?$GAtypeof?8@ 0000000180029368     libvcruntime:undname.obj
 0002:00003378       ??_C@_0BF@KDPPACIK@?$GAlocal?5static?5guard?8@ 0000000180029378     libvcruntime:undname.obj
 0002:00003390       ??_C@_08OBABFOLI@?$GAstring?8@ 0000000180029390     libvcruntime:undname.obj
 0002:000033a0       ??_C@_0BD@JDLKDPAB@?$GAvbase?5destructor?8@ 00000001800293a0     libvcruntime:undname.obj
 0002:000033b8       ??_C@_0BN@DEGPLNFK@?$GAvector?5deleting?5destructor?8@ 00000001800293b8     libvcruntime:undname.obj
 0002:000033d8       ??_C@_0BO@OBMKPJIG@?$GAdefault?5constructor?5closure?8@ 00000001800293d8     libvcruntime:undname.obj
 0002:000033f8       ??_C@_0BN@IMDCHIKM@?$GAscalar?5deleting?5destructor?8@ 00000001800293f8     libvcruntime:undname.obj
 0002:00003418       ??_C@_0BO@PFGOCPJJ@?$GAvector?5constructor?5iterator?8@ 0000000180029418     libvcruntime:undname.obj
 0002:00003438       ??_C@_0BN@LFPFMEDL@?$GAvector?5destructor?5iterator?8@ 0000000180029438     libvcruntime:undname.obj
 0002:00003458       ??_C@_0CE@IKBNEHA@?$GAvector?5vbase?5constructor?5itera@ 0000000180029458     libvcruntime:undname.obj
 0002:00003480       ??_C@_0BL@NILFHHPC@?$GAvirtual?5displacement?5map?8@ 0000000180029480     libvcruntime:undname.obj
 0002:000034a0       ??_C@_0CB@JONCMFFK@?$GAeh?5vector?5constructor?5iterator@ 00000001800294a0     libvcruntime:undname.obj
 0002:000034c8       ??_C@_0CA@GCEOPDGL@?$GAeh?5vector?5destructor?5iterator?8@ 00000001800294c8     libvcruntime:undname.obj
 0002:000034e8       ??_C@_0CH@OOJPLCPH@?$GAeh?5vector?5vbase?5constructor?5it@ 00000001800294e8     libvcruntime:undname.obj
 0002:00003510       ??_C@_0BL@LLKPOHJI@?$GAcopy?5constructor?5closure?8@ 0000000180029510     libvcruntime:undname.obj
 0002:00003530       ??_C@_0BA@KBCDOMBN@?$GAudt?5returning?8@ 0000000180029530     libvcruntime:undname.obj
 0002:00003540       ??_C@_03KLGMFNMG@?$GAEH@   0000000180029540     libvcruntime:undname.obj
 0002:00003544       ??_C@_05KHLCHHI@?$GARTTI@  0000000180029544     libvcruntime:undname.obj
 0002:00003550       ??_C@_0BA@KKLDJDLB@?$GAlocal?5vftable?8@ 0000000180029550     libvcruntime:undname.obj
 0002:00003560       ??_C@_0CE@IIHCMGGL@?$GAlocal?5vftable?5constructor?5clos@ 0000000180029560     libvcruntime:undname.obj
 0002:00003584       ??_C@_06FHBGPFGH@?5new?$FL?$FN@ 0000000180029584     libvcruntime:undname.obj
 0002:00003590       ??_C@_09LBNFPBCA@?5delete?$FL?$FN@ 0000000180029590     libvcruntime:undname.obj
 0002:000035a0       ??_C@_0P@HJKNJFNN@?$GAomni?5callsig?8@ 00000001800295a0     libvcruntime:undname.obj
 0002:000035b0       ??_C@_0BL@CNOONJFP@?$GAplacement?5delete?5closure?8@ 00000001800295b0     libvcruntime:undname.obj
 0002:000035d0       ??_C@_0BN@CKNJLHMB@?$GAplacement?5delete?$FL?$FN?5closure?8@ 00000001800295d0     libvcruntime:undname.obj
 0002:000035f0       ??_C@_0CG@CFDHKGGD@?$GAmanaged?5vector?5constructor?5ite@ 00000001800295f0     libvcruntime:undname.obj
 0002:00003618       ??_C@_0CF@IMGKMJNO@?$GAmanaged?5vector?5destructor?5iter@ 0000000180029618     libvcruntime:undname.obj
 0002:00003640       ??_C@_0CG@HLDDJMAG@?$GAeh?5vector?5copy?5constructor?5ite@ 0000000180029640     libvcruntime:undname.obj
 0002:00003668       ??_C@_0CM@FCBBDIGB@?$GAeh?5vector?5vbase?5copy?5construct@ 0000000180029668     libvcruntime:undname.obj
 0002:00003698       ??_C@_0BL@CLIPGLGB@?$GAdynamic?5initializer?5for?5?8@ 0000000180029698     libvcruntime:undname.obj
 0002:000036b8       ??_C@_0CB@PDBIFEP@?$GAdynamic?5atexit?5destructor?5for?5@ 00000001800296b8     libvcruntime:undname.obj
 0002:000036e0       ??_C@_0CD@CGAJBKEJ@?$GAvector?5copy?5constructor?5iterat@ 00000001800296e0     libvcruntime:undname.obj
 0002:00003708       ??_C@_0CJ@GJELGAMM@?$GAvector?5vbase?5copy?5constructor?5@ 0000000180029708     libvcruntime:undname.obj
 0002:00003738       ??_C@_0CL@FGIJHLCE@?$GAmanaged?5vector?5copy?5constructo@ 0000000180029738     libvcruntime:undname.obj
 0002:00003768       ??_C@_0BM@PMGGMLDN@?$GAlocal?5static?5thread?5guard?8@ 0000000180029768     libvcruntime:undname.obj
 0002:00003788       ??_C@_0N@BDNMDMOL@operator?5?$CC?$CC?5@ 0000000180029788     libvcruntime:undname.obj
 0002:00003798       ??_C@_0BC@GGEBGALA@operator?5co_await@ 0000000180029798     libvcruntime:undname.obj
 0002:000037b0       ??_C@_0M@GAAIMMOH@operator?$DM?$DN?$DO@ 00000001800297b0     libvcruntime:undname.obj
 0002:000037c0       ??_C@_0BC@DAFEJGAK@?5Type?5Descriptor?8@ 00000001800297c0     libvcruntime:undname.obj
 0002:000037d8       ??_C@_0BM@LDKODKLH@?5Base?5Class?5Descriptor?5at?5?$CI@ 00000001800297d8     libvcruntime:undname.obj
 0002:000037f8       ??_C@_0BD@LGICGFMM@?5Base?5Class?5Array?8@ 00000001800297f8     libvcruntime:undname.obj
 0002:00003810       ??_C@_0BN@MECKDCOJ@?5Class?5Hierarchy?5Descriptor?8@ 0000000180029810     libvcruntime:undname.obj
 0002:00003830       ??_C@_0BK@CFCOFLF@?5Complete?5Object?5Locator?8@ 0000000180029830     libvcruntime:undname.obj
 0002:00003850       ??_C@_0BG@JNJLAMPM@?$GAanonymous?5namespace?8@ 0000000180029850     libvcruntime:undname.obj
 0002:00003880       ??_C@_1DM@KHCHBNEB@?$AAa?$AAp?$AAi?$AA?9?$AAm?$AAs?$AA?9?$AAw?$AAi?$AAn?$AA?9?$AAc?$AAo?$AAr?$AAe@ 0000000180029880     libvcruntime:winapi_downlevel.obj
 0002:000038c0       ??_C@_1DK@LPPGFMPP@?$AAa?$AAp?$AAi?$AA?9?$AAm?$AAs?$AA?9?$AAw?$AAi?$AAn?$AA?9?$AAc?$AAo?$AAr?$AAe@ 00000001800298c0     libvcruntime:winapi_downlevel.obj
 0002:00003900       ??_C@_1BC@GDMECMAK@?$AAk?$AAe?$AAr?$AAn?$AAe?$AAl?$AA3?$AA2@ 0000000180029900     libvcruntime:winapi_downlevel.obj
 0002:00003918       ??_C@_1BA@PFFKHIOG@?$AAa?$AAp?$AAi?$AA?9?$AAm?$AAs?$AA?9@ 0000000180029918     libvcruntime:winapi_downlevel.obj
 0002:00003930       ??_C@_08KNHFBNJ@FlsAlloc@  0000000180029930     libvcruntime:winapi_downlevel.obj
 0002:00003948       ??_C@_07PEJMOBNF@FlsFree@  0000000180029948     libvcruntime:winapi_downlevel.obj
 0002:00003958       ??_C@_0M@GDNOONDI@FlsGetValue@ 0000000180029958     libvcruntime:winapi_downlevel.obj
 0002:00003970       ??_C@_0M@JCPCPOEF@FlsSetValue@ 0000000180029970     libvcruntime:winapi_downlevel.obj
 0002:00003988       ??_C@_0BM@HCFOFFN@InitializeCriticalSectionEx@ 0000000180029988     libvcruntime:winapi_downlevel.obj
 0002:00003b20       ?format_validation_lookup_table_spectre@__crt_stdio_output@@3V?$spectre_mitigated_lookup_table@Ustate_transition_pair@__crt_stdio_output@@$0IA@@1@B 0000000180029b20     libucrt:output.obj
 0002:00003c20       ??_C@_1O@CEDCILHN@?$AA?$CI?$AAn?$AAu?$AAl?$AAl?$AA?$CJ@ 0000000180029c20     libucrt:output.obj
 0002:00003c30       ??_C@_06OJHGLDPL@?$CInull?$CJ@ 0000000180029c30     libucrt:output.obj
 0002:00003c40       __acrt_exception_action_table 0000000180029c40     libucrt:exception_filter.obj
 0002:00003d00       __acrt_signal_action_table_count 0000000180029d00     libucrt:exception_filter.obj
 0002:00003d08       __acrt_signal_action_first_fpe_index 0000000180029d08     libucrt:exception_filter.obj
 0002:00003d10       __acrt_signal_action_fpe_count 0000000180029d10     libucrt:exception_filter.obj
 0002:00003d68       ??_C@_1BI@BGOHAHKC@?$AAm?$AAs?$AAc?$AAo?$AAr?$AAe?$AAe?$AA?4?$AAd?$AAl?$AAl@ 0000000180029d68     libucrt:exit.obj
 0002:00003d80       ??_C@_0P@MIGLKIOC@CorExitProcess@ 0000000180029d80     libucrt:exit.obj
 0002:00003ee0       __lc_time_c                0000000180029ee0     libucrt:nlsdata.obj
 0002:000041a0       ??_C@_03KOEHGMDN@Sun@      000000018002a1a0     libucrt:nlsdata.obj
 0002:000041a4       ??_C@_03PDAGKDH@Mon@       000000018002a1a4     libucrt:nlsdata.obj
 0002:000041a8       ??_C@_03NAGEINEP@Tue@      000000018002a1a8     libucrt:nlsdata.obj
 0002:000041ac       ??_C@_03MHOMLAJA@Wed@      000000018002a1ac     libucrt:nlsdata.obj
 0002:000041b0       ??_C@_03IOFIKPDN@Thu@      000000018002a1b0     libucrt:nlsdata.obj
 0002:000041b4       ??_C@_03IDIOELNC@Fri@      000000018002a1b4     libucrt:nlsdata.obj
 0002:000041b8       ??_C@_03FEFJNEK@Sat@       000000018002a1b8     libucrt:nlsdata.obj
 0002:000041bc       ??_C@_06OOPIFAJ@Sunday@    000000018002a1bc     libucrt:nlsdata.obj
 0002:000041c4       ??_C@_06JLEDEDGH@Monday@   000000018002a1c4     libucrt:nlsdata.obj
 0002:000041d0       ??_C@_07BAAGCFCM@Tuesday@  000000018002a1d0     libucrt:nlsdata.obj
 0002:000041d8       ??_C@_09DLIGFAKA@Wednesday@ 000000018002a1d8     libucrt:nlsdata.obj
 0002:000041e8       ??_C@_08HACCIKIA@Thursday@ 000000018002a1e8     libucrt:nlsdata.obj
 0002:000041f4       ??_C@_06JECMNKMI@Friday@   000000018002a1f4     libucrt:nlsdata.obj
 0002:00004200       ??_C@_08INBOOONO@Saturday@ 000000018002a200     libucrt:nlsdata.obj
 0002:0000420c       ??_C@_03JIHJHPIE@Jan@      000000018002a20c     libucrt:nlsdata.obj
 0002:00004210       ??_C@_03HJBDCHOM@Feb@      000000018002a210     libucrt:nlsdata.obj
 0002:00004214       ??_C@_03ODNJBKGA@Mar@      000000018002a214     libucrt:nlsdata.obj
 0002:00004218       ??_C@_03LEOLGMJP@Apr@      000000018002a218     libucrt:nlsdata.obj
 0002:0000421c       ??_C@_03CNMDKL@May@        000000018002a21c     libucrt:nlsdata.obj
 0002:00004220       ??_C@_03IDFGHECI@Jun@      000000018002a220     libucrt:nlsdata.obj
 0002:00004224       ??_C@_03LBGABGKK@Jul@      000000018002a224     libucrt:nlsdata.obj
 0002:00004228       ??_C@_03IFJFEIGA@Aug@      000000018002a228     libucrt:nlsdata.obj
 0002:0000422c       ??_C@_03GGCAPAJC@Sep@      000000018002a22c     libucrt:nlsdata.obj
 0002:00004230       ??_C@_03BMAOKBAD@Oct@      000000018002a230     libucrt:nlsdata.obj
 0002:00004234       ??_C@_03JPJOFNIA@Nov@      000000018002a234     libucrt:nlsdata.obj
 0002:00004238       ??_C@_03MKABNOCG@Dec@      000000018002a238     libucrt:nlsdata.obj
 0002:00004240       ??_C@_07CGJPFGJA@January@  000000018002a240     libucrt:nlsdata.obj
 0002:00004248       ??_C@_08GNJGEPFN@February@ 000000018002a248     libucrt:nlsdata.obj
 0002:00004254       ??_C@_05HPCKOFNC@March@    000000018002a254     libucrt:nlsdata.obj
 0002:0000425c       ??_C@_05DMJDNLEJ@April@    000000018002a25c     libucrt:nlsdata.obj
 0002:00004264       ??_C@_04CNLMGBGM@June@     000000018002a264     libucrt:nlsdata.obj
 0002:0000426c       ??_C@_04MIEPOIFP@July@     000000018002a26c     libucrt:nlsdata.obj
 0002:00004274       ??_C@_06LBBHFDDG@August@   000000018002a274     libucrt:nlsdata.obj
 0002:00004280       ??_C@_09BHHEALKD@September@ 000000018002a280     libucrt:nlsdata.obj
 0002:00004290       ??_C@_07JJNFCEND@October@  000000018002a290     libucrt:nlsdata.obj
 0002:00004298       ??_C@_08HCHEGEOA@November@ 000000018002a298     libucrt:nlsdata.obj
 0002:000042a8       ??_C@_08EDHMEBNP@December@ 000000018002a2a8     libucrt:nlsdata.obj
 0002:000042b4       ??_C@_02DEDBPAFC@AM@       000000018002a2b4     libucrt:nlsdata.obj
 0002:000042b8       ??_C@_02CJNFDJBF@PM@       000000018002a2b8     libucrt:nlsdata.obj
 0002:000042c0       ??_C@_08BPBNCDIB@MM?1dd?1yy@ 000000018002a2c0     libucrt:nlsdata.obj
 0002:000042d0       ??_C@_0BE@CKGJFCPC@dddd?0?5MMMM?5dd?0?5yyyy@ 000000018002a2d0     libucrt:nlsdata.obj
 0002:000042e8       ??_C@_08JCCMCCIL@HH?3mm?3ss@ 000000018002a2e8     libucrt:nlsdata.obj
 0002:000042f8       ??_C@_17MBGCMIPB@?$AAS?$AAu?$AAn@ 000000018002a2f8     libucrt:nlsdata.obj
 0002:00004300       ??_C@_17KBOMKBF@?$AAM?$AAo?$AAn@ 000000018002a300     libucrt:nlsdata.obj
 0002:00004308       ??_C@_17BMKGEGOJ@?$AAT?$AAu?$AAe@ 000000018002a308     libucrt:nlsdata.obj
 0002:00004310       ??_C@_17CJEDCEPE@?$AAW?$AAe?$AAd@ 000000018002a310     libucrt:nlsdata.obj
 0002:00004318       ??_C@_17PDPHAADD@?$AAT?$AAh?$AAu@ 000000018002a318     libucrt:nlsdata.obj
 0002:00004320       ??_C@_17HFOLPPLP@?$AAF?$AAr?$AAi@ 000000018002a320     libucrt:nlsdata.obj
 0002:00004328       ??_C@_17GGIBDPIH@?$AAS?$AAa?$AAt@ 000000018002a328     libucrt:nlsdata.obj
 0002:00004330       ??_C@_1O@IHNHDHPB@?$AAS?$AAu?$AAn?$AAd?$AAa?$AAy@ 000000018002a330     libucrt:nlsdata.obj
 0002:00004340       ??_C@_1O@MMNBFLIA@?$AAM?$AAo?$AAn?$AAd?$AAa?$AAy@ 000000018002a340     libucrt:nlsdata.obj
 0002:00004350       ??_C@_1BA@ENFBFFEK@?$AAT?$AAu?$AAe?$AAs?$AAd?$AAa?$AAy@ 000000018002a350     libucrt:nlsdata.obj
 0002:00004360       ??_C@_1BE@EBOGMDOH@?$AAW?$AAe?$AAd?$AAn?$AAe?$AAs?$AAd?$AAa?$AAy@ 000000018002a360     libucrt:nlsdata.obj
 0002:00004378       ??_C@_1BC@HHMNLIHE@?$AAT?$AAh?$AAu?$AAr?$AAs?$AAd?$AAa?$AAy@ 000000018002a378     libucrt:nlsdata.obj
 0002:00004390       ??_C@_1O@PDICJHAG@?$AAF?$AAr?$AAi?$AAd?$AAa?$AAy@ 000000018002a390     libucrt:nlsdata.obj
 0002:000043a0       ??_C@_1BC@ENMNNPAJ@?$AAS?$AAa?$AAt?$AAu?$AAr?$AAd?$AAa?$AAy@ 000000018002a3a0     libucrt:nlsdata.obj
 0002:000043b8       ??_C@_17DKNBKCHM@?$AAJ?$AAa?$AAn@ 000000018002a3b8     libucrt:nlsdata.obj
 0002:000043c0       ??_C@_17LMDJEKJN@?$AAF?$AAe?$AAb@ 000000018002a3c0     libucrt:nlsdata.obj
 0002:000043c8       ??_C@_17CKNLEDEC@?$AAM?$AAa?$AAr@ 000000018002a3c8     libucrt:nlsdata.obj
 0002:000043d0       ??_C@_17LFPOIHDD@?$AAA?$AAp?$AAr@ 000000018002a3d0     libucrt:nlsdata.obj
 0002:000043d8       ??_C@_17PNNKMEED@?$AAM?$AAa?$AAy@ 000000018002a3d8     libucrt:nlsdata.obj
 0002:000043e0       ??_C@_17KCJGOCPB@?$AAJ?$AAu?$AAn@ 000000018002a3e0     libucrt:nlsdata.obj
 0002:000043e8       ??_C@_17IJPCKHK@?$AAJ?$AAu?$AAl@ 000000018002a3e8     libucrt:nlsdata.obj
 0002:000043f0       ??_C@_17ICPELBCN@?$AAA?$AAu?$AAg@ 000000018002a3f0     libucrt:nlsdata.obj
 0002:000043f8       ??_C@_17HCHCOKMG@?$AAS?$AAe?$AAp@ 000000018002a3f8     libucrt:nlsdata.obj
 0002:00004400       ??_C@_17FNLKOI@?$AAO?$AAc?$AAt@ 000000018002a400     libucrt:nlsdata.obj
 0002:00004408       ??_C@_17BBDMLCIG@?$AAN?$AAo?$AAv@ 000000018002a408     libucrt:nlsdata.obj
 0002:00004410       ??_C@_17EGKACKIF@?$AAD?$AAe?$AAc@ 000000018002a410     libucrt:nlsdata.obj
 0002:00004418       ??_C@_1BA@EFMEIEBA@?$AAJ?$AAa?$AAn?$AAu?$AAa?$AAr?$AAy@ 000000018002a418     libucrt:nlsdata.obj
 0002:00004428       ??_C@_1BC@JGDDFFAM@?$AAF?$AAe?$AAb?$AAr?$AAu?$AAa?$AAr?$AAy@ 000000018002a428     libucrt:nlsdata.obj
 0002:00004440       ??_C@_1M@IKEENEDF@?$AAM?$AAa?$AAr?$AAc?$AAh@ 000000018002a440     libucrt:nlsdata.obj
 0002:00004450       ??_C@_1M@GJNLMHFD@?$AAA?$AAp?$AAr?$AAi?$AAl@ 000000018002a450     libucrt:nlsdata.obj
 0002:00004460       ??_C@_19EPFLPGAP@?$AAJ?$AAu?$AAn?$AAe@ 000000018002a460     libucrt:nlsdata.obj
 0002:00004470       ??_C@_19BIFMLPCD@?$AAJ?$AAu?$AAl?$AAy@ 000000018002a470     libucrt:nlsdata.obj
 0002:00004480       ??_C@_1O@PAHLKOAC@?$AAA?$AAu?$AAg?$AAu?$AAs?$AAt@ 000000018002a480     libucrt:nlsdata.obj
 0002:00004490       ??_C@_1BE@DKAAMBJL@?$AAS?$AAe?$AAp?$AAt?$AAe?$AAm?$AAb?$AAe?$AAr@ 000000018002a490     libucrt:nlsdata.obj
 0002:000044a8       ??_C@_1BA@EPANDLNG@?$AAO?$AAc?$AAt?$AAo?$AAb?$AAe?$AAr@ 000000018002a4a8     libucrt:nlsdata.obj
 0002:000044b8       ??_C@_1BC@BGLIFPF@?$AAN?$AAo?$AAv?$AAe?$AAm?$AAb?$AAe?$AAr@ 000000018002a4b8     libucrt:nlsdata.obj
 0002:000044d0       ??_C@_1BC@FEMKIFH@?$AAD?$AAe?$AAc?$AAe?$AAm?$AAb?$AAe?$AAr@ 000000018002a4d0     libucrt:nlsdata.obj
 0002:000044e4       ??_C@_15ODEHAHHF@?$AAA?$AAM@ 000000018002a4e4     libucrt:nlsdata.obj
 0002:000044ec       ??_C@_15CLMNNGEL@?$AAP?$AAM@ 000000018002a4ec     libucrt:nlsdata.obj
 0002:000044f8       ??_C@_1BC@IEBCMHCM@?$AAM?$AAM?$AA?1?$AAd?$AAd?$AA?1?$AAy?$AAy@ 000000018002a4f8     libucrt:nlsdata.obj
 0002:00004510       ??_C@_1CI@KNAKOEBC@?$AAd?$AAd?$AAd?$AAd?$AA?0?$AA?5?$AAM?$AAM?$AAM?$AAM?$AA?5?$AAd?$AAd?$AA?0?$AA?5@ 000000018002a510     libucrt:nlsdata.obj
 0002:00004538       ??_C@_1BC@GDGBMEMK@?$AAH?$AAH?$AA?3?$AAm?$AAm?$AA?3?$AAs?$AAs@ 000000018002a538     libucrt:nlsdata.obj
 0002:00004550       ??_C@_1M@BMHNFIME@?$AAe?$AAn?$AA?9?$AAU?$AAS@ 000000018002a550     libucrt:nlsdata.obj
 0002:00004600       ??_C@_1EA@JGEFHKEI@?$AAa?$AAp?$AAi?$AA?9?$AAm?$AAs?$AA?9?$AAw?$AAi?$AAn?$AA?9?$AAc?$AAo?$AAr?$AAe@ 000000018002a600     libucrt:winapi_thunks.obj
 0002:00004640       ??_C@_1DI@IJCEHOCB@?$AAa?$AAp?$AAi?$AA?9?$AAm?$AAs?$AA?9?$AAw?$AAi?$AAn?$AA?9?$AAc?$AAo?$AAr?$AAe@ 000000018002a640     libucrt:winapi_thunks.obj
 0002:00004680       ??_C@_1EI@MPIAOHOC@?$AAa?$AAp?$AAi?$AA?9?$AAm?$AAs?$AA?9?$AAw?$AAi?$AAn?$AA?9?$AAc?$AAo?$AAr?$AAe@ 000000018002a680     libucrt:winapi_thunks.obj
 0002:000046d0       ??_C@_1FK@FPHCKFIE@?$AAa?$AAp?$AAi?$AA?9?$AAm?$AAs?$AA?9?$AAw?$AAi?$AAn?$AA?9?$AAc?$AAo?$AAr?$AAe@ 000000018002a6d0     libucrt:winapi_thunks.obj
 0002:00004730       ??_C@_1EM@DILCGIIO@?$AAa?$AAp?$AAi?$AA?9?$AAm?$AAs?$AA?9?$AAw?$AAi?$AAn?$AA?9?$AAc?$AAo?$AAr?$AAe@ 000000018002a730     libucrt:winapi_thunks.obj
 0002:00004780       ??_C@_1DM@LNCGDDPN@?$AAa?$AAp?$AAi?$AA?9?$AAm?$AAs?$AA?9?$AAw?$AAi?$AAn?$AA?9?$AAc?$AAo?$AAr?$AAe@ 000000018002a780     libucrt:winapi_thunks.obj
 0002:000047c0       ??_C@_1DO@FPAPJEMD@?$AAa?$AAp?$AAi?$AA?9?$AAm?$AAs?$AA?9?$AAw?$AAi?$AAn?$AA?9?$AAc?$AAo?$AAr?$AAe@ 000000018002a7c0     libucrt:winapi_thunks.obj
 0002:00004800       ??_C@_1DK@NDHNAHIO@?$AAa?$AAp?$AAi?$AA?9?$AAm?$AAs?$AA?9?$AAw?$AAi?$AAn?$AA?9?$AAc?$AAo?$AAr?$AAe@ 000000018002a800     libucrt:winapi_thunks.obj
 0002:00004840       ??_C@_1DM@KGHDGBCM@?$AAa?$AAp?$AAi?$AA?9?$AAm?$AAs?$AA?9?$AAw?$AAi?$AAn?$AA?9?$AAc?$AAo?$AAr?$AAe@ 000000018002a840     libucrt:winapi_thunks.obj
 0002:00004880       ??_C@_1EO@IJIOEFOH@?$AAa?$AAp?$AAi?$AA?9?$AAm?$AAs?$AA?9?$AAw?$AAi?$AAn?$AA?9?$AAr?$AAt?$AAc?$AAo@ 000000018002a880     libucrt:winapi_thunks.obj
 0002:000048d0       ??_C@_1FG@HHGEKANL@?$AAa?$AAp?$AAi?$AA?9?$AAm?$AAs?$AA?9?$AAw?$AAi?$AAn?$AA?9?$AAs?$AAe?$AAc?$AAu@ 000000018002a8d0     libucrt:winapi_thunks.obj
 0002:00004930       ??_C@_1EG@DBIOJECG@?$AAe?$AAx?$AAt?$AA?9?$AAm?$AAs?$AA?9?$AAw?$AAi?$AAn?$AA?9?$AAn?$AAt?$AAu?$AAs@ 000000018002a930     libucrt:winapi_thunks.obj
 0002:00004980       ??_C@_1EO@FIHMJCLF@?$AAe?$AAx?$AAt?$AA?9?$AAm?$AAs?$AA?9?$AAw?$AAi?$AAn?$AA?9?$AAn?$AAt?$AAu?$AAs@ 000000018002a980     libucrt:winapi_thunks.obj
 0002:000049d0       ??_C@_1BC@DNHGCMLG@?$AAa?$AAd?$AAv?$AAa?$AAp?$AAi?$AA3?$AA2@ 000000018002a9d0     libucrt:winapi_thunks.obj
 0002:000049e8       ??_C@_1M@OAIMIKLP@?$AAn?$AAt?$AAd?$AAl?$AAl@ 000000018002a9e8     libucrt:winapi_thunks.obj
 0002:00004a00       ??_C@_1EG@DPGNFKGC@?$AAa?$AAp?$AAi?$AA?9?$AAm?$AAs?$AA?9?$AAw?$AAi?$AAn?$AA?9?$AAa?$AAp?$AAp?$AAm@ 000000018002aa00     libucrt:winapi_thunks.obj
 0002:00004a48       ??_C@_1O@BCCLBEOE@?$AAu?$AAs?$AAe?$AAr?$AA3?$AA2@ 000000018002aa48     libucrt:winapi_thunks.obj
 0002:00004a58       ??_C@_1BA@IAIFMGEF@?$AAe?$AAx?$AAt?$AA?9?$AAm?$AAs?$AA?9@ 000000018002aa58     libucrt:winapi_thunks.obj
 0002:00004a70       ??_C@_0BA@FHFNEAED@AreFileApisANSI@ 000000018002aa70     libucrt:winapi_thunks.obj
 0002:00004a90       ??_C@_0O@KKBNKAPF@LCMapStringEx@ 000000018002aa90     libucrt:winapi_thunks.obj
 0002:00004aa8       ??_C@_0BB@HBDEELFH@LocaleNameToLCID@ 000000018002aaa8     libucrt:winapi_thunks.obj
 0002:00004ac0       ??_C@_0CF@OJOFEIGO@AppPolicyGetProcessTerminationM@ 000000018002aac0     libucrt:winapi_thunks.obj
 0002:00004af0       ??_C@_0BI@BKLFFAPO@SetThreadStackGuarantee@ 000000018002aaf0     libucrt:winapi_thunks.obj
 0002:00004b90       ??_C@_03OEIAHPBN@INF@      000000018002ab90     libucrt:cvt.obj
 0002:00004b94       ??_C@_03OJHLLCGB@inf@      000000018002ab94     libucrt:cvt.obj
 0002:00004b98       ??_C@_03LKNCIKJB@NAN@      000000018002ab98     libucrt:cvt.obj
 0002:00004b9c       ??_C@_03LHCJEHON@nan@      000000018002ab9c     libucrt:cvt.obj
 0002:00004ba0       ??_C@_09OFJJIMPC@NAN?$CISNAN?$CJ@ 000000018002aba0     libucrt:cvt.obj
 0002:00004bb0       ??_C@_09IPFBKMDL@nan?$CIsnan?$CJ@ 000000018002abb0     libucrt:cvt.obj
 0002:00004bc0       ??_C@_08IKHNHAJ@NAN?$CIIND?$CJ@ 000000018002abc0     libucrt:cvt.obj
 0002:00004bd0       ??_C@_08OFCDMILK@nan?$CIind?$CJ@ 000000018002abd0     libucrt:cvt.obj
 0002:00004bdc       ??_C@_05KLBDPFGC@e?$CL000@ 000000018002abdc     libucrt:cvt.obj
 0002:00004c08       ??_C@_1M@HPNHIDJI@?$AAj?$AAa?$AA?9?$AAJ?$AAP@ 000000018002ac08     libucrt:mbctype.obj
 0002:00004c18       ??_C@_1M@BIBDDEMK@?$AAz?$AAh?$AA?9?$AAC?$AAN@ 000000018002ac18     libucrt:mbctype.obj
 0002:00004c28       ??_C@_1M@JLOOOEGK@?$AAk?$AAo?$AA?9?$AAK?$AAR@ 000000018002ac28     libucrt:mbctype.obj
 0002:00004c38       ??_C@_1M@CLNBBOPM@?$AAz?$AAh?$AA?9?$AAT?$AAW@ 000000018002ac38     libucrt:mbctype.obj
 0002:00004c50       __newctype                 000000018002ac50     libucrt:ctype.obj
 0002:00004f50       __newclmap                 000000018002af50     libucrt:ctype.obj
 0002:000050d0       __newcumap                 000000018002b0d0     libucrt:ctype.obj
 0002:00005250       ??_C@_15PJPFLCCM@?$AAu?$AAk@ 000000018002b250     libucrt:get_qualified_locale.obj
 0002:000060a0       ??_C@_15EMKDOKLE@?$AAa?$AAr@ 000000018002c0a0     libucrt:lcidtoname_downlevel.obj
 0002:000060a8       ??_C@_15KNPADPLH@?$AAb?$AAg@ 000000018002c0a8     libucrt:lcidtoname_downlevel.obj
 0002:000060b0       ??_C@_15EDMHLDMO@?$AAc?$AAa@ 000000018002c0b0     libucrt:lcidtoname_downlevel.obj
 0002:000060b8       ??_C@_1O@BPEAJADD@?$AAz?$AAh?$AA?9?$AAC?$AAH?$AAS@ 000000018002c0b8     libucrt:lcidtoname_downlevel.obj
 0002:000060c8       ??_C@_15LJNHCMNK@?$AAc?$AAs@ 000000018002c0c8     libucrt:lcidtoname_downlevel.obj
 0002:000060d0       ??_C@_15FOMCIDHG@?$AAd?$AAa@ 000000018002c0d0     libucrt:lcidtoname_downlevel.obj
 0002:000060d8       ??_C@_15NBKABECB@?$AAd?$AAe@ 000000018002c0d8     libucrt:lcidtoname_downlevel.obj
 0002:000060e0       ??_C@_15GHPEIIAO@?$AAe?$AAl@ 000000018002c0e0     libucrt:lcidtoname_downlevel.obj
 0002:000060e8       ??_C@_15MNPNEAIF@?$AAe?$AAn@ 000000018002c0e8     libucrt:lcidtoname_downlevel.obj
 0002:000060f0       ??_C@_15GPIOMPMH@?$AAe?$AAs@ 000000018002c0f0     libucrt:lcidtoname_downlevel.obj
 0002:000060f8       ??_C@_15NGLOAKJC@?$AAf?$AAi@ 000000018002c0f8     libucrt:lcidtoname_downlevel.obj
 0002:00006100       ??_C@_15FBKGNKAM@?$AAf?$AAr@ 000000018002c100     libucrt:lcidtoname_downlevel.obj
 0002:00006108       ??_C@_15KGGCNEFK@?$AAh?$AAe@ 000000018002c108     libucrt:lcidtoname_downlevel.obj
 0002:00006110       ??_C@_15PGHLIDMF@?$AAh?$AAu@ 000000018002c110     libucrt:lcidtoname_downlevel.obj
 0002:00006118       ??_C@_15BIEMAPLM@?$AAi?$AAs@ 000000018002c118     libucrt:lcidtoname_downlevel.obj
 0002:00006120       ??_C@_15IFJLDHAF@?$AAi?$AAt@ 000000018002c120     libucrt:lcidtoname_downlevel.obj
 0002:00006128       ??_C@_15GEMIOCAG@?$AAj?$AAa@ 000000018002c128     libucrt:lcidtoname_downlevel.obj
 0002:00006130       ??_C@_15EPELEGJA@?$AAk?$AAo@ 000000018002c130     libucrt:lcidtoname_downlevel.obj
 0002:00006138       ??_C@_15NDDHIMN@?$AAn?$AAl@ 000000018002c138     libucrt:lcidtoname_downlevel.obj
 0002:00006140       ??_C@_15BPIGNHCD@?$AAn?$AAo@ 000000018002c140     libucrt:lcidtoname_downlevel.obj
 0002:00006148       ??_C@_15DEOPBLCG@?$AAp?$AAl@ 000000018002c148     libucrt:lcidtoname_downlevel.obj
 0002:00006150       ??_C@_15KBECGEFG@?$AAp?$AAt@ 000000018002c150     libucrt:lcidtoname_downlevel.obj
 0002:00006158       ??_C@_15GLJCBFMD@?$AAr?$AAo@ 000000018002c158     libucrt:lcidtoname_downlevel.obj
 0002:00006160       ??_C@_15FEDGKCDI@?$AAr?$AAu@ 000000018002c160     libucrt:lcidtoname_downlevel.obj
 0002:00006168       ??_C@_15GLKMLLHM@?$AAh?$AAr@ 000000018002c168     libucrt:lcidtoname_downlevel.obj
 0002:00006170       ??_C@_15CPKMFBDB@?$AAs?$AAk@ 000000018002c170     libucrt:lcidtoname_downlevel.obj
 0002:00006178       ??_C@_15BAAIOGMK@?$AAs?$AAq@ 000000018002c178     libucrt:lcidtoname_downlevel.obj
 0002:00006180       ??_C@_15INNPNOHD@?$AAs?$AAv@ 000000018002c180     libucrt:lcidtoname_downlevel.obj
 0002:00006188       ??_C@_15CABMMOGH@?$AAt?$AAh@ 000000018002c188     libucrt:lcidtoname_downlevel.obj
 0002:00006190       ??_C@_15BPLIHJJM@?$AAt?$AAr@ 000000018002c190     libucrt:lcidtoname_downlevel.obj
 0002:00006198       ??_C@_15NEOEKKDJ@?$AAu?$AAr@ 000000018002c198     libucrt:lcidtoname_downlevel.obj
 0002:000061a0       ??_C@_15NFICGAJK@?$AAi?$AAd@ 000000018002c1a0     libucrt:lcidtoname_downlevel.obj
 0002:000061a8       ??_C@_15HPJPHDM@?$AAb?$AAe@ 000000018002c1a8     libucrt:lcidtoname_downlevel.obj
 0002:000061b0       ??_C@_15LCHLGJII@?$AAs?$AAl@ 000000018002c1b0     libucrt:lcidtoname_downlevel.obj
 0002:000061b8       ??_C@_15PCFJPHHO@?$AAe?$AAt@ 000000018002c1b8     libucrt:lcidtoname_downlevel.obj
 0002:000061c0       ??_C@_15HPFPGODN@?$AAl?$AAv@ 000000018002c1c0     libucrt:lcidtoname_downlevel.obj
 0002:000061c8       ??_C@_15NFFGKGLG@?$AAl?$AAt@ 000000018002c1c8     libucrt:lcidtoname_downlevel.obj
 0002:000061d0       ??_C@_15BDAKCCHN@?$AAf?$AAa@ 000000018002c1d0     libucrt:lcidtoname_downlevel.obj
 0002:000061d8       ??_C@_15NFGIAIAJ@?$AAv?$AAi@ 000000018002c1d8     libucrt:lcidtoname_downlevel.obj
 0002:000061e0       ??_C@_15LMKNDMHN@?$AAh?$AAy@ 000000018002c1e0     libucrt:lcidtoname_downlevel.obj
 0002:000061e8       ??_C@_15IJBHMCFL@?$AAa?$AAz@ 000000018002c1e8     libucrt:lcidtoname_downlevel.obj
 0002:000061f0       ??_C@_15EKOFJABL@?$AAe?$AAu@ 000000018002c1f0     libucrt:lcidtoname_downlevel.obj
 0002:000061f8       ??_C@_15BGHADCNK@?$AAm?$AAk@ 000000018002c1f8     libucrt:lcidtoname_downlevel.obj
 0002:00006200       ??_C@_15JDNICKHM@?$AAa?$AAf@ 000000018002c200     libucrt:lcidtoname_downlevel.obj
 0002:00006208       ??_C@_15KPJEDBKD@?$AAk?$AAa@ 000000018002c208     libucrt:lcidtoname_downlevel.obj
 0002:00006210       ??_C@_15PDNFFFEO@?$AAf?$AAo@ 000000018002c210     libucrt:lcidtoname_downlevel.obj
 0002:00006218       ??_C@_15OMLEGLOC@?$AAh?$AAi@ 000000018002c218     libucrt:lcidtoname_downlevel.obj
 0002:00006220       ??_C@_15IDNNENKK@?$AAm?$AAs@ 000000018002c220     libucrt:lcidtoname_downlevel.obj
 0002:00006228       ??_C@_15MACJNBMH@?$AAk?$AAk@ 000000018002c228     libucrt:lcidtoname_downlevel.obj
 0002:00006230       ??_C@_15DKDJEOND@?$AAk?$AAy@ 000000018002c230     libucrt:lcidtoname_downlevel.obj
 0002:00006238       ??_C@_15DFGDLJBG@?$AAs?$AAw@ 000000018002c238     libucrt:lcidtoname_downlevel.obj
 0002:00006240       ??_C@_15BBFAICNG@?$AAu?$AAz@ 000000018002c240     libucrt:lcidtoname_downlevel.obj
 0002:00006248       ??_C@_15DKNDCGEA@?$AAt?$AAt@ 000000018002c248     libucrt:lcidtoname_downlevel.obj
 0002:00006250       ??_C@_15MGIFMDPL@?$AAp?$AAa@ 000000018002c250     libucrt:lcidtoname_downlevel.obj
 0002:00006258       ??_C@_15HCNDBBA@?$AAg?$AAu@ 000000018002c258     libucrt:lcidtoname_downlevel.obj
 0002:00006260       ??_C@_15FNBEIBON@?$AAt?$AAa@ 000000018002c260     libucrt:lcidtoname_downlevel.obj
 0002:00006268       ??_C@_15NCHGBGLK@?$AAt?$AAe@ 000000018002c268     libucrt:lcidtoname_downlevel.obj
 0002:00006270       ??_C@_15PHPHCBPF@?$AAk?$AAn@ 000000018002c270     libucrt:lcidtoname_downlevel.obj
 0002:00006278       ??_C@_15DLGBCKMP@?$AAm?$AAr@ 000000018002c278     libucrt:lcidtoname_downlevel.obj
 0002:00006280       ??_C@_15EABBLBFF@?$AAs?$AAa@ 000000018002c280     libucrt:lcidtoname_downlevel.obj
 0002:00006288       ??_C@_15CBKOMCOI@?$AAm?$AAn@ 000000018002c288     libucrt:lcidtoname_downlevel.obj
 0002:00006290       ??_C@_15CKDMCJAF@?$AAg?$AAl@ 000000018002c290     libucrt:lcidtoname_downlevel.obj
 0002:00006298       ??_C@_17CNJFBPG@?$AAk?$AAo?$AAk@ 000000018002c298     libucrt:lcidtoname_downlevel.obj
 0002:000062a0       ??_C@_17FFBJICPL@?$AAs?$AAy?$AAr@ 000000018002c2a0     libucrt:lcidtoname_downlevel.obj
 0002:000062a8       ??_C@_17KPNDCPAF@?$AAd?$AAi?$AAv@ 000000018002c2a8     libucrt:lcidtoname_downlevel.obj
 0002:000062b0       ??_C@_1M@OKAHONE@?$AAa?$AAr?$AA?9?$AAS?$AAA@ 000000018002c2b0     libucrt:lcidtoname_downlevel.obj
 0002:000062c0       ??_C@_1M@FFFIGIGK@?$AAb?$AAg?$AA?9?$AAB?$AAG@ 000000018002c2c0     libucrt:lcidtoname_downlevel.obj
 0002:000062d0       ??_C@_1M@BJNKEDC@?$AAc?$AAa?$AA?9?$AAE?$AAS@ 000000018002c2d0     libucrt:lcidtoname_downlevel.obj
 0002:000062e0       ??_C@_1M@IJJHFJHA@?$AAc?$AAs?$AA?9?$AAC?$AAZ@ 000000018002c2e0     libucrt:lcidtoname_downlevel.obj
 0002:000062f0       ??_C@_1M@CLPEOBGI@?$AAd?$AAa?$AA?9?$AAD?$AAK@ 000000018002c2f0     libucrt:lcidtoname_downlevel.obj
 0002:00006300       ??_C@_1M@MCMADGCB@?$AAd?$AAe?$AA?9?$AAD?$AAE@ 000000018002c300     libucrt:lcidtoname_downlevel.obj
 0002:00006310       ??_C@_1M@OOCKEMAM@?$AAe?$AAl?$AA?9?$AAG?$AAR@ 000000018002c310     libucrt:lcidtoname_downlevel.obj
 0002:00006320       ??_C@_1M@DDNJFGID@?$AAf?$AAi?$AA?9?$AAF?$AAI@ 000000018002c320     libucrt:lcidtoname_downlevel.obj
 0002:00006330       ??_C@_1M@GLIPPMAC@?$AAf?$AAr?$AA?9?$AAF?$AAR@ 000000018002c330     libucrt:lcidtoname_downlevel.obj
 0002:00006340       ??_C@_1M@GFMCHPE@?$AAh?$AAe?$AA?9?$AAI?$AAL@ 000000018002c340     libucrt:lcidtoname_downlevel.obj
 0002:00006350       ??_C@_1M@MHLPGNKM@?$AAh?$AAu?$AA?9?$AAH?$AAU@ 000000018002c350     libucrt:lcidtoname_downlevel.obj
 0002:00006360       ??_C@_1M@LPDDNNPN@?$AAi?$AAs?$AA?9?$AAI?$AAS@ 000000018002c360     libucrt:lcidtoname_downlevel.obj
 0002:00006370       ??_C@_1M@MADIPODN@?$AAi?$AAt?$AA?9?$AAI?$AAT@ 000000018002c370     libucrt:lcidtoname_downlevel.obj
 0002:00006380       ??_C@_1M@IHBJJGG@?$AAn?$AAl?$AA?9?$AAN?$AAL@ 000000018002c380     libucrt:lcidtoname_downlevel.obj
 0002:00006390       ??_C@_1M@EANAGDL@?$AAn?$AAb?$AA?9?$AAN?$AAO@ 000000018002c390     libucrt:lcidtoname_downlevel.obj
 0002:000063a0       ??_C@_1M@NEIEMEGP@?$AAp?$AAl?$AA?9?$AAP?$AAL@ 000000018002c3a0     libucrt:lcidtoname_downlevel.obj
 0002:000063b0       ??_C@_1M@BOCFIGEP@?$AAp?$AAt?$AA?9?$AAB?$AAR@ 000000018002c3b0     libucrt:lcidtoname_downlevel.obj
 0002:000063c0       ??_C@_1M@IMPFOPBG@?$AAr?$AAo?$AA?9?$AAR?$AAO@ 000000018002c3c0     libucrt:lcidtoname_downlevel.obj
 0002:000063d0       ??_C@_1M@IDNNEJMM@?$AAr?$AAu?$AA?9?$AAR?$AAU@ 000000018002c3d0     libucrt:lcidtoname_downlevel.obj
 0002:000063e0       ??_C@_1M@LILEEOGM@?$AAh?$AAr?$AA?9?$AAH?$AAR@ 000000018002c3e0     libucrt:lcidtoname_downlevel.obj
 0002:000063f0       ??_C@_1M@FKIFEHPB@?$AAs?$AAk?$AA?9?$AAS?$AAK@ 000000018002c3f0     libucrt:lcidtoname_downlevel.obj
 0002:00006400       ??_C@_1M@LJMAMNPJ@?$AAs?$AAq?$AA?9?$AAA?$AAL@ 000000018002c400     libucrt:lcidtoname_downlevel.obj
 0002:00006410       ??_C@_1M@GIAKDKJK@?$AAs?$AAv?$AA?9?$AAS?$AAE@ 000000018002c410     libucrt:lcidtoname_downlevel.obj
 0002:00006420       ??_C@_1M@MKJKIKCL@?$AAt?$AAh?$AA?9?$AAT?$AAH@ 000000018002c420     libucrt:lcidtoname_downlevel.obj
 0002:00006430       ??_C@_1M@MFLCCMPB@?$AAt?$AAr?$AA?9?$AAT?$AAR@ 000000018002c430     libucrt:lcidtoname_downlevel.obj
 0002:00006440       ??_C@_1M@OIJHDKJN@?$AAu?$AAr?$AA?9?$AAP?$AAK@ 000000018002c440     libucrt:lcidtoname_downlevel.obj
 0002:00006450       ??_C@_1M@LHIPCIEK@?$AAi?$AAd?$AA?9?$AAI?$AAD@ 000000018002c450     libucrt:lcidtoname_downlevel.obj
 0002:00006460       ??_C@_1M@MFMOBGI@?$AAu?$AAk?$AA?9?$AAU?$AAA@ 000000018002c460     libucrt:lcidtoname_downlevel.obj
 0002:00006470       ??_C@_1M@OBGLJIPL@?$AAb?$AAe?$AA?9?$AAB?$AAY@ 000000018002c470     libucrt:lcidtoname_downlevel.obj
 0002:00006480       ??_C@_1M@BCFAJEAD@?$AAs?$AAl?$AA?9?$AAS?$AAI@ 000000018002c480     libucrt:lcidtoname_downlevel.obj
 0002:00006490       ??_C@_1M@FKFFEDDN@?$AAe?$AAt?$AA?9?$AAE?$AAE@ 000000018002c490     libucrt:lcidtoname_downlevel.obj
 0002:000064a0       ??_C@_1M@KGKKAACI@?$AAl?$AAv?$AA?9?$AAL?$AAV@ 000000018002c4a0     libucrt:lcidtoname_downlevel.obj
 0002:000064b0       ??_C@_1M@IFGBIJO@?$AAl?$AAt?$AA?9?$AAL?$AAT@ 000000018002c4b0     libucrt:lcidtoname_downlevel.obj
 0002:000064c0       ??_C@_1M@FGEAHEDM@?$AAf?$AAa?$AA?9?$AAI?$AAR@ 000000018002c4c0     libucrt:lcidtoname_downlevel.obj
 0002:000064d0       ??_C@_1M@KBMAIBFN@?$AAv?$AAi?$AA?9?$AAV?$AAN@ 000000018002c4d0     libucrt:lcidtoname_downlevel.obj
 0002:000064e0       ??_C@_1M@GPCBKDJK@?$AAh?$AAy?$AA?9?$AAA?$AAM@ 000000018002c4e0     libucrt:lcidtoname_downlevel.obj
 0002:000064f0       ??_C@_1BG@BECMDDJB@?$AAa?$AAz?$AA?9?$AAA?$AAZ?$AA?9?$AAL?$AAa?$AAt?$AAn@ 000000018002c4f0     libucrt:lcidtoname_downlevel.obj
 0002:00006508       ??_C@_1M@MAOFCAEA@?$AAe?$AAu?$AA?9?$AAE?$AAS@ 000000018002c508     libucrt:lcidtoname_downlevel.obj
 0002:00006518       ??_C@_1M@IGHABKPI@?$AAm?$AAk?$AA?9?$AAM?$AAK@ 000000018002c518     libucrt:lcidtoname_downlevel.obj
 0002:00006528       ??_C@_1M@IAIGNEJG@?$AAt?$AAn?$AA?9?$AAZ?$AAA@ 000000018002c528     libucrt:lcidtoname_downlevel.obj
 0002:00006538       ??_C@_1M@IIJCOJFA@?$AAx?$AAh?$AA?9?$AAZ?$AAA@ 000000018002c538     libucrt:lcidtoname_downlevel.obj
 0002:00006548       ??_C@_1M@LGPJHNJH@?$AAz?$AAu?$AA?9?$AAZ?$AAA@ 000000018002c548     libucrt:lcidtoname_downlevel.obj
 0002:00006558       ??_C@_1M@HOKAOIO@?$AAa?$AAf?$AA?9?$AAZ?$AAA@ 000000018002c558     libucrt:lcidtoname_downlevel.obj
 0002:00006568       ??_C@_1M@DPCLHLIE@?$AAk?$AAa?$AA?9?$AAG?$AAE@ 000000018002c568     libucrt:lcidtoname_downlevel.obj
 0002:00006578       ??_C@_1M@BLKMHJBI@?$AAf?$AAo?$AA?9?$AAF?$AAO@ 000000018002c578     libucrt:lcidtoname_downlevel.obj
 0002:00006588       ??_C@_1M@LGGJAPPB@?$AAh?$AAi?$AA?9?$AAI?$AAN@ 000000018002c588     libucrt:lcidtoname_downlevel.obj
 0002:00006598       ??_C@_1M@FIKPIHFE@?$AAm?$AAt?$AA?9?$AAM?$AAT@ 000000018002c598     libucrt:lcidtoname_downlevel.obj
 0002:000065a8       ??_C@_1M@HEGGPBFA@?$AAs?$AAe?$AA?9?$AAN?$AAO@ 000000018002c5a8     libucrt:lcidtoname_downlevel.obj
 0002:000065b8       ??_C@_1M@EIBJEEPA@?$AAm?$AAs?$AA?9?$AAM?$AAY@ 000000018002c5b8     libucrt:lcidtoname_downlevel.obj
 0002:000065c8       ??_C@_1M@FHLBGMPP@?$AAk?$AAk?$AA?9?$AAK?$AAZ@ 000000018002c5c8     libucrt:lcidtoname_downlevel.obj
 0002:000065d8       ??_C@_1M@NGJJLCGI@?$AAk?$AAy?$AA?9?$AAK?$AAG@ 000000018002c5d8     libucrt:lcidtoname_downlevel.obj
 0002:000065e8       ??_C@_1M@GIENNBFC@?$AAs?$AAw?$AA?9?$AAK?$AAE@ 000000018002c5e8     libucrt:lcidtoname_downlevel.obj
 0002:000065f8       ??_C@_1BG@NDGMJIMJ@?$AAu?$AAz?$AA?9?$AAU?$AAZ?$AA?9?$AAL?$AAa?$AAt?$AAn@ 000000018002c5f8     libucrt:lcidtoname_downlevel.obj
 0002:00006610       ??_C@_1M@IDCCIHBC@?$AAt?$AAt?$AA?9?$AAR?$AAU@ 000000018002c610     libucrt:lcidtoname_downlevel.obj
 0002:00006620       ??_C@_1M@LOICPMOJ@?$AAb?$AAn?$AA?9?$AAI?$AAN@ 000000018002c620     libucrt:lcidtoname_downlevel.obj
 0002:00006630       ??_C@_1M@KPKKNEAH@?$AAp?$AAa?$AA?9?$AAI?$AAN@ 000000018002c630     libucrt:lcidtoname_downlevel.obj
 0002:00006640       ??_C@_1M@PJGPPBOG@?$AAg?$AAu?$AA?9?$AAI?$AAN@ 000000018002c640     libucrt:lcidtoname_downlevel.obj
 0002:00006650       ??_C@_1M@KMKMOPHI@?$AAt?$AAa?$AA?9?$AAI?$AAN@ 000000018002c650     libucrt:lcidtoname_downlevel.obj
 0002:00006660       ??_C@_1M@KFEHEPAC@?$AAt?$AAe?$AA?9?$AAI?$AAN@ 000000018002c660     libucrt:lcidtoname_downlevel.obj
 0002:00006670       ??_C@_1M@CDCLMGHI@?$AAk?$AAn?$AA?9?$AAI?$AAN@ 000000018002c670     libucrt:lcidtoname_downlevel.obj
 0002:00006680       ??_C@_1M@MIODLDKF@?$AAm?$AAl?$AA?9?$AAI?$AAN@ 000000018002c680     libucrt:lcidtoname_downlevel.obj
 0002:00006690       ??_C@_1M@PBIEACPO@?$AAm?$AAr?$AA?9?$AAI?$AAN@ 000000018002c690     libucrt:lcidtoname_downlevel.obj
 0002:000066a0       ??_C@_1M@NIDEAGPH@?$AAs?$AAa?$AA?9?$AAI?$AAN@ 000000018002c6a0     libucrt:lcidtoname_downlevel.obj
 0002:000066b0       ??_C@_1M@FHIHCBIO@?$AAm?$AAn?$AA?9?$AAM?$AAN@ 000000018002c6b0     libucrt:lcidtoname_downlevel.obj
 0002:000066c0       ??_C@_1M@JAIJPENP@?$AAc?$AAy?$AA?9?$AAG?$AAB@ 000000018002c6c0     libucrt:lcidtoname_downlevel.obj
 0002:000066d0       ??_C@_1M@PHGFBEPN@?$AAg?$AAl?$AA?9?$AAE?$AAS@ 000000018002c6d0     libucrt:lcidtoname_downlevel.obj
 0002:000066e0       ??_C@_1O@KPIPDNCP@?$AAk?$AAo?$AAk?$AA?9?$AAI?$AAN@ 000000018002c6e0     libucrt:lcidtoname_downlevel.obj
 0002:000066f0       ??_C@_1O@KNHJLDJA@?$AAs?$AAy?$AAr?$AA?9?$AAS?$AAY@ 000000018002c6f0     libucrt:lcidtoname_downlevel.obj
 0002:00006700       ??_C@_1O@MKEKBLAH@?$AAd?$AAi?$AAv?$AA?9?$AAM?$AAV@ 000000018002c700     libucrt:lcidtoname_downlevel.obj
 0002:00006710       ??_C@_1O@OHDCKDDF@?$AAq?$AAu?$AAz?$AA?9?$AAB?$AAO@ 000000018002c710     libucrt:lcidtoname_downlevel.obj
 0002:00006720       ??_C@_1M@LEPJNLFD@?$AAn?$AAs?$AA?9?$AAZ?$AAA@ 000000018002c720     libucrt:lcidtoname_downlevel.obj
 0002:00006730       ??_C@_1M@OMLEIIJB@?$AAm?$AAi?$AA?9?$AAN?$AAZ@ 000000018002c730     libucrt:lcidtoname_downlevel.obj
 0002:00006740       ??_C@_1M@PMPEAILG@?$AAa?$AAr?$AA?9?$AAI?$AAQ@ 000000018002c740     libucrt:lcidtoname_downlevel.obj
 0002:00006750       ??_C@_1M@CNKPNOEE@?$AAd?$AAe?$AA?9?$AAC?$AAH@ 000000018002c750     libucrt:lcidtoname_downlevel.obj
 0002:00006760       ??_C@_1M@LKMGMLKO@?$AAe?$AAn?$AA?9?$AAG?$AAB@ 000000018002c760     libucrt:lcidtoname_downlevel.obj
 0002:00006770       ??_C@_1M@PGKJFFGL@?$AAe?$AAs?$AA?9?$AAM?$AAX@ 000000018002c770     libucrt:lcidtoname_downlevel.obj
 0002:00006780       ??_C@_1M@DNNANBDC@?$AAf?$AAr?$AA?9?$AAB?$AAE@ 000000018002c780     libucrt:lcidtoname_downlevel.obj
 0002:00006790       ??_C@_1M@HLGMDFHM@?$AAi?$AAt?$AA?9?$AAC?$AAH@ 000000018002c790     libucrt:lcidtoname_downlevel.obj
 0002:000067a0       ??_C@_1M@CLLBGJH@?$AAn?$AAl?$AA?9?$AAB?$AAE@ 000000018002c7a0     libucrt:lcidtoname_downlevel.obj
 0002:000067b0       ??_C@_1M@BODBOGLF@?$AAn?$AAn?$AA?9?$AAN?$AAO@ 000000018002c7b0     libucrt:lcidtoname_downlevel.obj
 0002:000067c0       ??_C@_1M@HFFAHKAD@?$AAp?$AAt?$AA?9?$AAP?$AAT@ 000000018002c7c0     libucrt:lcidtoname_downlevel.obj
 0002:000067d0       ??_C@_1BG@LNOAKHIE@?$AAs?$AAr?$AA?9?$AAS?$AAP?$AA?9?$AAL?$AAa?$AAt?$AAn@ 000000018002c7d0     libucrt:lcidtoname_downlevel.obj
 0002:000067e8       ??_C@_1M@HBMHBGAK@?$AAs?$AAv?$AA?9?$AAF?$AAI@ 000000018002c7e8     libucrt:lcidtoname_downlevel.obj
 0002:000067f8       ??_C@_1BG@DGCJGJBE@?$AAa?$AAz?$AA?9?$AAA?$AAZ?$AA?9?$AAC?$AAy?$AAr?$AAl@ 000000018002c7f8     libucrt:lcidtoname_downlevel.obj
 0002:00006810       ??_C@_1M@KEJDAAHB@?$AAs?$AAe?$AA?9?$AAS?$AAE@ 000000018002c810     libucrt:lcidtoname_downlevel.obj
 0002:00006820       ??_C@_1M@HEIBJJAD@?$AAm?$AAs?$AA?9?$AAB?$AAN@ 000000018002c820     libucrt:lcidtoname_downlevel.obj
 0002:00006830       ??_C@_1BG@PBGJMCEM@?$AAu?$AAz?$AA?9?$AAU?$AAZ?$AA?9?$AAC?$AAy?$AAr?$AAl@ 000000018002c830     libucrt:lcidtoname_downlevel.obj
 0002:00006848       ??_C@_1O@LAOBCMDF@?$AAq?$AAu?$AAz?$AA?9?$AAE?$AAC@ 000000018002c848     libucrt:lcidtoname_downlevel.obj
 0002:00006858       ??_C@_1M@POEEMAIO@?$AAa?$AAr?$AA?9?$AAE?$AAG@ 000000018002c858     libucrt:lcidtoname_downlevel.obj
 0002:00006868       ??_C@_1M@EFAKDEDL@?$AAz?$AAh?$AA?9?$AAH?$AAK@ 000000018002c868     libucrt:lcidtoname_downlevel.obj
 0002:00006878       ??_C@_1M@HKKIJHGI@?$AAd?$AAe?$AA?9?$AAA?$AAT@ 000000018002c878     libucrt:lcidtoname_downlevel.obj
 0002:00006888       ??_C@_1M@KBFBEHJF@?$AAe?$AAn?$AA?9?$AAA?$AAU@ 000000018002c888     libucrt:lcidtoname_downlevel.obj
 0002:00006898       ??_C@_1M@MNPLFAAH@?$AAe?$AAs?$AA?9?$AAE?$AAS@ 000000018002c898     libucrt:lcidtoname_downlevel.obj
 0002:000068a8       ??_C@_1M@HJOOJFMA@?$AAf?$AAr?$AA?9?$AAC?$AAA@ 000000018002c8a8     libucrt:lcidtoname_downlevel.obj
 0002:000068b8       ??_C@_1BG@JPOFPNAB@?$AAs?$AAr?$AA?9?$AAS?$AAP?$AA?9?$AAC?$AAy?$AAr?$AAl@ 000000018002c8b8     libucrt:lcidtoname_downlevel.obj
 0002:000068d0       ??_C@_1M@LNFOCMOB@?$AAs?$AAe?$AA?9?$AAF?$AAI@ 000000018002c8d0     libucrt:lcidtoname_downlevel.obj
 0002:000068e0       ??_C@_1O@MGJBOAMB@?$AAq?$AAu?$AAz?$AA?9?$AAP?$AAE@ 000000018002c8e0     libucrt:lcidtoname_downlevel.obj
 0002:000068f0       ??_C@_1M@GJINLBOK@?$AAa?$AAr?$AA?9?$AAL?$AAY@ 000000018002c8f0     libucrt:lcidtoname_downlevel.obj
 0002:00006900       ??_C@_1M@GGMNHJNL@?$AAz?$AAh?$AA?9?$AAS?$AAG@ 000000018002c900     libucrt:lcidtoname_downlevel.obj
 0002:00006910       ??_C@_1M@HOIKODND@?$AAd?$AAe?$AA?9?$AAL?$AAU@ 000000018002c910     libucrt:lcidtoname_downlevel.obj
 0002:00006920       ??_C@_1M@DDOCCGFG@?$AAe?$AAn?$AA?9?$AAC?$AAA@ 000000018002c920     libucrt:lcidtoname_downlevel.obj
 0002:00006930       ??_C@_1M@BNOEMJLF@?$AAe?$AAs?$AA?9?$AAG?$AAT@ 000000018002c930     libucrt:lcidtoname_downlevel.obj
 0002:00006940       ??_C@_1M@EOGNKEK@?$AAf?$AAr?$AA?9?$AAC?$AAH@ 000000018002c940     libucrt:lcidtoname_downlevel.obj
 0002:00006950       ??_C@_1M@FLIDJFHL@?$AAh?$AAr?$AA?9?$AAB?$AAA@ 000000018002c950     libucrt:lcidtoname_downlevel.obj
 0002:00006960       ??_C@_1O@FMCELNAJ@?$AAs?$AAm?$AAj?$AA?9?$AAN?$AAO@ 000000018002c960     libucrt:lcidtoname_downlevel.obj
 0002:00006970       ??_C@_1M@JHGLJMGJ@?$AAa?$AAr?$AA?9?$AAD?$AAZ@ 000000018002c970     libucrt:lcidtoname_downlevel.obj
 0002:00006980       ??_C@_1M@JKKFDCNP@?$AAz?$AAh?$AA?9?$AAM?$AAO@ 000000018002c980     libucrt:lcidtoname_downlevel.obj
 0002:00006990       ??_C@_1M@GEEFALPE@?$AAd?$AAe?$AA?9?$AAL?$AAI@ 000000018002c990     libucrt:lcidtoname_downlevel.obj
 0002:000069a0       ??_C@_1M@IGEOFBG@?$AAe?$AAn?$AA?9?$AAN?$AAZ@ 000000018002c9a0     libucrt:lcidtoname_downlevel.obj
 0002:000069b0       ??_C@_1M@KDBONEHP@?$AAe?$AAs?$AA?9?$AAC?$AAR@ 000000018002c9b0     libucrt:lcidtoname_downlevel.obj
 0002:000069c0       ??_C@_1M@FHMDOHNN@?$AAf?$AAr?$AA?9?$AAL?$AAU@ 000000018002c9c0     libucrt:lcidtoname_downlevel.obj
 0002:000069d0       ??_C@_1BG@NFKKMAFG@?$AAb?$AAs?$AA?9?$AAB?$AAA?$AA?9?$AAL?$AAa?$AAt?$AAn@ 000000018002c9d0     libucrt:lcidtoname_downlevel.obj
 0002:000069e8       ??_C@_1O@IMNBEMCI@?$AAs?$AAm?$AAj?$AA?9?$AAS?$AAE@ 000000018002c9e8     libucrt:lcidtoname_downlevel.obj
 0002:000069f8       ??_C@_1M@DHHMBNDP@?$AAa?$AAr?$AA?9?$AAM?$AAA@ 000000018002c9f8     libucrt:lcidtoname_downlevel.obj
 0002:00006a08       ??_C@_1M@BNBLJCGH@?$AAe?$AAn?$AA?9?$AAI?$AAE@ 000000018002ca08     libucrt:lcidtoname_downlevel.obj
 0002:00006a18       ??_C@_1M@GEPAFMDL@?$AAe?$AAs?$AA?9?$AAP?$AAA@ 000000018002ca18     libucrt:lcidtoname_downlevel.obj
 0002:00006a28       ??_C@_1M@OJONDMDL@?$AAf?$AAr?$AA?9?$AAM?$AAC@ 000000018002ca28     libucrt:lcidtoname_downlevel.obj
 0002:00006a38       ??_C@_1BG@OBCNFJB@?$AAs?$AAr?$AA?9?$AAB?$AAA?$AA?9?$AAL?$AAa?$AAt?$AAn@ 000000018002ca38     libucrt:lcidtoname_downlevel.obj
 0002:00006a50       ??_C@_1O@KEMEEGPO@?$AAs?$AAm?$AAa?$AA?9?$AAN?$AAO@ 000000018002ca50     libucrt:lcidtoname_downlevel.obj
 0002:00006a60       ??_C@_1M@ELMGFODK@?$AAa?$AAr?$AA?9?$AAT?$AAN@ 000000018002ca60     libucrt:lcidtoname_downlevel.obj
 0002:00006a70       ??_C@_1M@BHDLHFAF@?$AAe?$AAn?$AA?9?$AAZ?$AAA@ 000000018002ca70     libucrt:lcidtoname_downlevel.obj
 0002:00006a80       ??_C@_1M@BMGIGLIF@?$AAe?$AAs?$AA?9?$AAD?$AAO@ 000000018002ca80     libucrt:lcidtoname_downlevel.obj
 0002:00006a90       ??_C@_1BG@CMBHIPBE@?$AAs?$AAr?$AA?9?$AAB?$AAA?$AA?9?$AAC?$AAy?$AAr?$AAl@ 000000018002ca90     libucrt:lcidtoname_downlevel.obj
 0002:00006aa8       ??_C@_1O@HEDBLHNP@?$AAs?$AAm?$AAa?$AA?9?$AAS?$AAE@ 000000018002caa8     libucrt:lcidtoname_downlevel.obj
 0002:00006ab8       ??_C@_1M@DAGCADIM@?$AAa?$AAr?$AA?9?$AAO?$AAM@ 000000018002cab8     libucrt:lcidtoname_downlevel.obj
 0002:00006ac8       ??_C@_1M@FODLMICG@?$AAe?$AAn?$AA?9?$AAJ?$AAM@ 000000018002cac8     libucrt:lcidtoname_downlevel.obj
 0002:00006ad8       ??_C@_1M@DNMLCIHB@?$AAe?$AAs?$AA?9?$AAV?$AAE@ 000000018002cad8     libucrt:lcidtoname_downlevel.obj
 0002:00006ae8       ??_C@_1O@EOKHMKJK@?$AAs?$AAm?$AAs?$AA?9?$AAF?$AAI@ 000000018002cae8     libucrt:lcidtoname_downlevel.obj
 0002:00006af8       ??_C@_1M@CAFJMKOF@?$AAa?$AAr?$AA?9?$AAY?$AAE@ 000000018002caf8     libucrt:lcidtoname_downlevel.obj
 0002:00006b08       ??_C@_1M@CBFHIJLI@?$AAe?$AAn?$AA?9?$AAC?$AAB@ 000000018002cb08     libucrt:lcidtoname_downlevel.obj
 0002:00006b18       ??_C@_1M@BGNFLDN@?$AAe?$AAs?$AA?9?$AAC?$AAO@ 000000018002cb18     libucrt:lcidtoname_downlevel.obj
 0002:00006b28       ??_C@_1O@JMPHMAMC@?$AAs?$AAm?$AAn?$AA?9?$AAF?$AAI@ 000000018002cb28     libucrt:lcidtoname_downlevel.obj
 0002:00006b38       ??_C@_1M@JLANABKE@?$AAa?$AAr?$AA?9?$AAS?$AAY@ 000000018002cb38     libucrt:lcidtoname_downlevel.obj
 0002:00006b48       ??_C@_1M@HPKGCFGN@?$AAe?$AAn?$AA?9?$AAB?$AAZ@ 000000018002cb48     libucrt:lcidtoname_downlevel.obj
 0002:00006b58       ??_C@_1M@OLJCMLGM@?$AAe?$AAs?$AA?9?$AAP?$AAE@ 000000018002cb58     libucrt:lcidtoname_downlevel.obj
 0002:00006b68       ??_C@_1M@MKKGFKLE@?$AAa?$AAr?$AA?9?$AAJ?$AAO@ 000000018002cb68     libucrt:lcidtoname_downlevel.obj
 0002:00006b78       ??_C@_1M@EKPGLDNI@?$AAe?$AAn?$AA?9?$AAT?$AAT@ 000000018002cb78     libucrt:lcidtoname_downlevel.obj
 0002:00006b88       ??_C@_1M@OONGHFHE@?$AAe?$AAs?$AA?9?$AAA?$AAR@ 000000018002cb88     libucrt:lcidtoname_downlevel.obj
 0002:00006b98       ??_C@_1M@OOJFGBHE@?$AAa?$AAr?$AA?9?$AAL?$AAB@ 000000018002cb98     libucrt:lcidtoname_downlevel.obj
 0002:00006ba8       ??_C@_1M@GCEJHNEG@?$AAe?$AAn?$AA?9?$AAZ?$AAW@ 000000018002cba8     libucrt:lcidtoname_downlevel.obj
 0002:00006bb8       ??_C@_1M@JNOCAHJI@?$AAe?$AAs?$AA?9?$AAE?$AAC@ 000000018002cbb8     libucrt:lcidtoname_downlevel.obj
 0002:00006bc8       ??_C@_1M@JEFHPGGB@?$AAa?$AAr?$AA?9?$AAK?$AAW@ 000000018002cbc8     libucrt:lcidtoname_downlevel.obj
 0002:00006bd8       ??_C@_1M@MLKIBJOJ@?$AAe?$AAn?$AA?9?$AAP?$AAH@ 000000018002cbd8     libucrt:lcidtoname_downlevel.obj
 0002:00006be8       ??_C@_1M@BDNIPEND@?$AAe?$AAs?$AA?9?$AAC?$AAL@ 000000018002cbe8     libucrt:lcidtoname_downlevel.obj
 0002:00006bf8       ??_C@_1M@MPNMEKBD@?$AAa?$AAr?$AA?9?$AAA?$AAE@ 000000018002cbf8     libucrt:lcidtoname_downlevel.obj
 0002:00006c08       ??_C@_1M@KBJALCPI@?$AAe?$AAs?$AA?9?$AAU?$AAY@ 000000018002cc08     libucrt:lcidtoname_downlevel.obj
 0002:00006c18       ??_C@_1M@LLCCOAGA@?$AAa?$AAr?$AA?9?$AAB?$AAH@ 000000018002cc18     libucrt:lcidtoname_downlevel.obj
 0002:00006c28       ??_C@_1M@PBFNCDEL@?$AAe?$AAs?$AA?9?$AAP?$AAY@ 000000018002cc28     libucrt:lcidtoname_downlevel.obj
 0002:00006c38       ??_C@_1M@EDGINPNP@?$AAa?$AAr?$AA?9?$AAQ?$AAA@ 000000018002cc38     libucrt:lcidtoname_downlevel.obj
 0002:00006c48       ??_C@_1M@MKDBIIJI@?$AAe?$AAs?$AA?9?$AAB?$AAO@ 000000018002cc48     libucrt:lcidtoname_downlevel.obj
 0002:00006c58       ??_C@_1M@CPKKEBLD@?$AAe?$AAs?$AA?9?$AAS?$AAV@ 000000018002cc58     libucrt:lcidtoname_downlevel.obj
 0002:00006c68       ??_C@_1M@NDBGMMJL@?$AAe?$AAs?$AA?9?$AAH?$AAN@ 000000018002cc68     libucrt:lcidtoname_downlevel.obj
 0002:00006c78       ??_C@_1M@JIJIBHDP@?$AAe?$AAs?$AA?9?$AAN?$AAI@ 000000018002cc78     libucrt:lcidtoname_downlevel.obj
 0002:00006c88       ??_C@_1M@CGFMKEEK@?$AAe?$AAs?$AA?9?$AAP?$AAR@ 000000018002cc88     libucrt:lcidtoname_downlevel.obj
 0002:00006c98       ??_C@_1O@ICJHKIIK@?$AAz?$AAh?$AA?9?$AAC?$AAH?$AAT@ 000000018002cc98     libucrt:lcidtoname_downlevel.obj
 0002:00006ca8       ??_C@_15CLNEJCE@?$AAs?$AAr@ 000000018002cca8     libucrt:lcidtoname_downlevel.obj
 0002:00007af0       ??_C@_1M@KAHEKEIG@?$AAa?$AAf?$AA?9?$AAz?$AAa@ 000000018002daf0     libucrt:lcidtoname_downlevel.obj
 0002:00007b00       ??_C@_1M@GIECOABL@?$AAa?$AAr?$AA?9?$AAa?$AAe@ 000000018002db00     libucrt:lcidtoname_downlevel.obj
 0002:00007b10       ??_C@_1M@BMLMEKGI@?$AAa?$AAr?$AA?9?$AAb?$AAh@ 000000018002db10     libucrt:lcidtoname_downlevel.obj
 0002:00007b20       ??_C@_1M@DAPFDGGB@?$AAa?$AAr?$AA?9?$AAd?$AAz@ 000000018002db20     libucrt:lcidtoname_downlevel.obj
 0002:00007b30       ??_C@_1M@FJNKGKIG@?$AAa?$AAr?$AA?9?$AAe?$AAg@ 000000018002db30     libucrt:lcidtoname_downlevel.obj
 0002:00007b40       ??_C@_1M@FLGKKCLO@?$AAa?$AAr?$AA?9?$AAi?$AAq@ 000000018002db40     libucrt:lcidtoname_downlevel.obj
 0002:00007b50       ??_C@_1M@GNDIPALM@?$AAa?$AAr?$AA?9?$AAj?$AAo@ 000000018002db50     libucrt:lcidtoname_downlevel.obj
 0002:00007b60       ??_C@_1M@DDMJFMGJ@?$AAa?$AAr?$AA?9?$AAk?$AAw@ 000000018002db60     libucrt:lcidtoname_downlevel.obj
 0002:00007b70       ??_C@_1M@EJALMLHM@?$AAa?$AAr?$AA?9?$AAl?$AAb@ 000000018002db70     libucrt:lcidtoname_downlevel.obj
 0002:00007b80       ??_C@_1M@MOBDBLOC@?$AAa?$AAr?$AA?9?$AAl?$AAy@ 000000018002db80     libucrt:lcidtoname_downlevel.obj
 0002:00007b90       ??_C@_1M@JAOCLHDH@?$AAa?$AAr?$AA?9?$AAm?$AAa@ 000000018002db90     libucrt:lcidtoname_downlevel.obj
 0002:00007ba0       ??_C@_1M@JHPMKJIE@?$AAa?$AAr?$AA?9?$AAo?$AAm@ 000000018002dba0     libucrt:lcidtoname_downlevel.obj
 0002:00007bb0       ??_C@_1M@OEPGHFNH@?$AAa?$AAr?$AA?9?$AAq?$AAa@ 000000018002dbb0     libucrt:lcidtoname_downlevel.obj
 0002:00007bc0       ??_C@_1M@KJDONENM@?$AAa?$AAr?$AA?9?$AAs?$AAa@ 000000018002dbc0     libucrt:lcidtoname_downlevel.obj
 0002:00007bd0       ??_C@_1M@DMJDKLKM@?$AAa?$AAr?$AA?9?$AAs?$AAy@ 000000018002dbd0     libucrt:lcidtoname_downlevel.obj
 0002:00007be0       ??_C@_1M@OMFIPEDC@?$AAa?$AAr?$AA?9?$AAt?$AAn@ 000000018002dbe0     libucrt:lcidtoname_downlevel.obj
 0002:00007bf0       ??_C@_1M@IHMHGAON@?$AAa?$AAr?$AA?9?$AAy?$AAe@ 000000018002dbf0     libucrt:lcidtoname_downlevel.obj
 0002:00007c00       ??_C@_1BG@KDCPGJGB@?$AAa?$AAz?$AA?9?$AAa?$AAz?$AA?9?$AAc?$AAy?$AAr?$AAl@ 000000018002dc00     libucrt:lcidtoname_downlevel.obj
 0002:00007c18       ??_C@_1BG@IBCKDDOE@?$AAa?$AAz?$AA?9?$AAa?$AAz?$AA?9?$AAl?$AAa?$AAt?$AAn@ 000000018002dc18     libucrt:lcidtoname_downlevel.obj
 0002:00007c30       ??_C@_1M@EGPFDCPD@?$AAb?$AAe?$AA?9?$AAb?$AAy@ 000000018002dc30     libucrt:lcidtoname_downlevel.obj
 0002:00007c40       ??_C@_1M@PCMGMCGC@?$AAb?$AAg?$AA?9?$AAb?$AAg@ 000000018002dc40     libucrt:lcidtoname_downlevel.obj
 0002:00007c50       ??_C@_1M@BJBMFGOB@?$AAb?$AAn?$AA?9?$AAi?$AAn@ 000000018002dc50     libucrt:lcidtoname_downlevel.obj
 0002:00007c60       ??_C@_1BG@EAKMMACD@?$AAb?$AAs?$AA?9?$AAb?$AAa?$AA?9?$AAl?$AAa?$AAt?$AAn@ 000000018002dc60     libucrt:lcidtoname_downlevel.obj
 0002:00007c78       ??_C@_1M@KGADAODK@?$AAc?$AAa?$AA?9?$AAe?$AAs@ 000000018002dc78     libucrt:lcidtoname_downlevel.obj
 0002:00007c88       ??_C@_1M@COAJPDHI@?$AAc?$AAs?$AA?9?$AAc?$AAz@ 000000018002dc88     libucrt:lcidtoname_downlevel.obj
 0002:00007c98       ??_C@_1M@DHBHFONH@?$AAc?$AAy?$AA?9?$AAg?$AAb@ 000000018002dc98     libucrt:lcidtoname_downlevel.obj
 0002:00007ca8       ??_C@_1M@IMGKELGA@?$AAd?$AAa?$AA?9?$AAd?$AAk@ 000000018002dca8     libucrt:lcidtoname_downlevel.obj
 0002:00007cb8       ??_C@_1M@NNDGDNGA@?$AAd?$AAe?$AA?9?$AAa?$AAt@ 000000018002dcb8     libucrt:lcidtoname_downlevel.obj
 0002:00007cc8       ??_C@_1M@IKDBHEEM@?$AAd?$AAe?$AA?9?$AAc?$AAh@ 000000018002dcc8     libucrt:lcidtoname_downlevel.obj
 0002:00007cd8       ??_C@_1M@GFFOJMCJ@?$AAd?$AAe?$AA?9?$AAd?$AAe@ 000000018002dcd8     libucrt:lcidtoname_downlevel.obj
 0002:00007ce8       ??_C@_1M@MDNLKBPM@?$AAd?$AAe?$AA?9?$AAl?$AAi@ 000000018002dce8     libucrt:lcidtoname_downlevel.obj
 0002:00007cf8       ??_C@_1M@NJBEEJNL@?$AAd?$AAe?$AA?9?$AAl?$AAu@ 000000018002dcf8     libucrt:lcidtoname_downlevel.obj
 0002:00007d08       ??_C@_1O@GNNELBAP@?$AAd?$AAi?$AAv?$AA?9?$AAm?$AAv@ 000000018002dd08     libucrt:lcidtoname_downlevel.obj
 0002:00007d18       ??_C@_1M@EJLEOGAE@?$AAe?$AAl?$AA?9?$AAg?$AAr@ 000000018002dd18     libucrt:lcidtoname_downlevel.obj
 0002:00007d28       ??_C@_1M@GMPONJN@?$AAe?$AAn?$AA?9?$AAa?$AAu@ 000000018002dd28     libucrt:lcidtoname_downlevel.obj
 0002:00007d38       ??_C@_1M@NIDIIPGF@?$AAe?$AAn?$AA?9?$AAb?$AAz@ 000000018002dd38     libucrt:lcidtoname_downlevel.obj
 0002:00007d48       ??_C@_1M@JEHMIMFO@?$AAe?$AAn?$AA?9?$AAc?$AAa@ 000000018002dd48     libucrt:lcidtoname_downlevel.obj
 0002:00007d58       ??_C@_1M@IGMJCDLA@?$AAe?$AAn?$AA?9?$AAc?$AAb@ 000000018002dd58     libucrt:lcidtoname_downlevel.obj
 0002:00007d68       ??_C@_1M@BNFIGBKG@?$AAe?$AAn?$AA?9?$AAg?$AAb@ 000000018002dd68     libucrt:lcidtoname_downlevel.obj
 0002:00007d78       ??_C@_1M@LKIFDIGP@?$AAe?$AAn?$AA?9?$AAi?$AAe@ 000000018002dd78     libucrt:lcidtoname_downlevel.obj
 0002:00007d88       ??_C@_1M@PJKFGCCO@?$AAe?$AAn?$AA?9?$AAj?$AAm@ 000000018002dd88     libucrt:lcidtoname_downlevel.obj
 0002:00007d98       ??_C@_1M@KPPKEPBO@?$AAe?$AAn?$AA?9?$AAn?$AAz@ 000000018002dd98     libucrt:lcidtoname_downlevel.obj
 0002:00007da8       ??_C@_1M@GMDGLDOB@?$AAe?$AAn?$AA?9?$AAp?$AAh@ 000000018002dda8     libucrt:lcidtoname_downlevel.obj
 0002:00007db8       ??_C@_1M@ONGIBJNA@?$AAe?$AAn?$AA?9?$AAt?$AAt@ 000000018002ddb8     libucrt:lcidtoname_downlevel.obj
 0002:00007dc8       ??_C@_1M@LLODPCMM@?$AAe?$AAn?$AA?9?$AAu?$AAs@ 000000018002ddc8     libucrt:lcidtoname_downlevel.obj
 0002:00007dd8       ??_C@_1M@LAKFNPAN@?$AAe?$AAn?$AA?9?$AAz?$AAa@ 000000018002ddd8     libucrt:lcidtoname_downlevel.obj
 0002:00007de8       ??_C@_1M@MFNHNHEO@?$AAe?$AAn?$AA?9?$AAz?$AAw@ 000000018002dde8     libucrt:lcidtoname_downlevel.obj
 0002:00007df8       ??_C@_1M@EJEINPHM@?$AAe?$AAs?$AA?9?$AAa?$AAr@ 000000018002ddf8     libucrt:lcidtoname_downlevel.obj
 0002:00007e08       ??_C@_1M@GNKPCCJA@?$AAe?$AAs?$AA?9?$AAb?$AAo@ 000000018002de08     libucrt:lcidtoname_downlevel.obj
 0002:00007e18       ??_C@_1M@LEEGFONL@?$AAe?$AAs?$AA?9?$AAc?$AAl@ 000000018002de18     libucrt:lcidtoname_downlevel.obj
 0002:00007e28       ??_C@_1M@KGPDPBDF@?$AAe?$AAs?$AA?9?$AAc?$AAo@ 000000018002de28     libucrt:lcidtoname_downlevel.obj
 0002:00007e38       ??_C@_1M@EIAHOHH@?$AAe?$AAs?$AA?9?$AAc?$AAr@ 000000018002de38     libucrt:lcidtoname_downlevel.obj
 0002:00007e48       ??_C@_1M@LLPGMBIN@?$AAe?$AAs?$AA?9?$AAd?$AAo@ 000000018002de48     libucrt:lcidtoname_downlevel.obj
 0002:00007e58       ??_C@_1M@DKHMKNJA@?$AAe?$AAs?$AA?9?$AAe?$AAc@ 000000018002de58     libucrt:lcidtoname_downlevel.obj
 0002:00007e68       ??_C@_1M@GKGFPKAP@?$AAe?$AAs?$AA?9?$AAe?$AAs@ 000000018002de68     libucrt:lcidtoname_downlevel.obj
 0002:00007e78       ??_C@_1M@LKHKGDLN@?$AAe?$AAs?$AA?9?$AAg?$AAt@ 000000018002de78     libucrt:lcidtoname_downlevel.obj
 0002:00007e88       ??_C@_1M@HEIIGGJD@?$AAe?$AAs?$AA?9?$AAh?$AAn@ 000000018002de88     libucrt:lcidtoname_downlevel.obj
 0002:00007e98       ??_C@_1M@FBDHPPGD@?$AAe?$AAs?$AA?9?$AAm?$AAx@ 000000018002de98     libucrt:lcidtoname_downlevel.obj
 0002:00007ea8       ??_C@_1M@DPAGLNDH@?$AAe?$AAs?$AA?9?$AAn?$AAi@ 000000018002dea8     libucrt:lcidtoname_downlevel.obj
 0002:00007eb8       ??_C@_1M@MDGOPGDD@?$AAe?$AAs?$AA?9?$AAp?$AAa@ 000000018002deb8     libucrt:lcidtoname_downlevel.obj
 0002:00007ec8       ??_C@_1M@EMAMGBGE@?$AAe?$AAs?$AA?9?$AAp?$AAe@ 000000018002dec8     libucrt:lcidtoname_downlevel.obj
 0002:00007ed8       ??_C@_1M@IBMCAOEC@?$AAe?$AAs?$AA?9?$AAp?$AAr@ 000000018002ded8     libucrt:lcidtoname_downlevel.obj
 0002:00007ee8       ??_C@_1M@FGMDIJED@?$AAe?$AAs?$AA?9?$AAp?$AAy@ 000000018002dee8     libucrt:lcidtoname_downlevel.obj
 0002:00007ef8       ??_C@_1M@IIDEOLLL@?$AAe?$AAs?$AA?9?$AAs?$AAv@ 000000018002def8     libucrt:lcidtoname_downlevel.obj
 0002:00007f08       ??_C@_1M@GAOBIPA@?$AAe?$AAs?$AA?9?$AAu?$AAy@ 000000018002df08     libucrt:lcidtoname_downlevel.obj
 0002:00007f18       ??_C@_1M@JKFFICHJ@?$AAe?$AAs?$AA?9?$AAv?$AAe@ 000000018002df18     libucrt:lcidtoname_downlevel.obj
 0002:00007f28       ??_C@_1M@PNMLOJDF@?$AAe?$AAt?$AA?9?$AAe?$AAe@ 000000018002df28     libucrt:lcidtoname_downlevel.obj
 0002:00007f38       ??_C@_1M@GHHLIKEI@?$AAe?$AAu?$AA?9?$AAe?$AAs@ 000000018002df38     libucrt:lcidtoname_downlevel.obj
 0002:00007f48       ??_C@_1M@PBNONODE@?$AAf?$AAa?$AA?9?$AAi?$AAr@ 000000018002df48     libucrt:lcidtoname_downlevel.obj
 0002:00007f58       ??_C@_1M@JEEHPMIL@?$AAf?$AAi?$AA?9?$AAf?$AAi@ 000000018002df58     libucrt:lcidtoname_downlevel.obj
 0002:00007f68       ??_C@_1M@LMDCNDBA@?$AAf?$AAo?$AA?9?$AAf?$AAo@ 000000018002df68     libucrt:lcidtoname_downlevel.obj
 0002:00007f78       ??_C@_1M@JKEOHLDK@?$AAf?$AAr?$AA?9?$AAb?$AAe@ 000000018002df78     libucrt:lcidtoname_downlevel.obj
 0002:00007f88       ??_C@_1M@NOHADPMI@?$AAf?$AAr?$AA?9?$AAc?$AAa@ 000000018002df88     libucrt:lcidtoname_downlevel.obj
 0002:00007f98       ??_C@_1M@KDHIHAEC@?$AAf?$AAr?$AA?9?$AAc?$AAh@ 000000018002df98     libucrt:lcidtoname_downlevel.obj
 0002:00007fa8       ??_C@_1M@MMBBFGAK@?$AAf?$AAr?$AA?9?$AAf?$AAr@ 000000018002dfa8     libucrt:lcidtoname_downlevel.obj
 0002:00007fb8       ??_C@_1M@PAFNENNF@?$AAf?$AAr?$AA?9?$AAl?$AAu@ 000000018002dfb8     libucrt:lcidtoname_downlevel.obj
 0002:00007fc8       ??_C@_1M@EOHDJGDD@?$AAf?$AAr?$AA?9?$AAm?$AAc@ 000000018002dfc8     libucrt:lcidtoname_downlevel.obj
 0002:00007fd8       ??_C@_1M@FAPLLOPF@?$AAg?$AAl?$AA?9?$AAe?$AAs@ 000000018002dfd8     libucrt:lcidtoname_downlevel.obj
 0002:00007fe8       ??_C@_1M@FOPBFLOO@?$AAg?$AAu?$AA?9?$AAi?$AAn@ 000000018002dfe8     libucrt:lcidtoname_downlevel.obj
 0002:00007ff8       ??_C@_1M@KBMCINPM@?$AAh?$AAe?$AA?9?$AAi?$AAl@ 000000018002dff8     libucrt:lcidtoname_downlevel.obj
 0002:00008008       ??_C@_1M@BBPHKFPJ@?$AAh?$AAi?$AA?9?$AAi?$AAn@ 000000018002e008     libucrt:lcidtoname_downlevel.obj
 0002:00008018       ??_C@_1M@PMBNDPHD@?$AAh?$AAr?$AA?9?$AAb?$AAa@ 000000018002e018     libucrt:lcidtoname_downlevel.obj
 0002:00008028       ??_C@_1M@BPCKOEGE@?$AAh?$AAr?$AA?9?$AAh?$AAr@ 000000018002e028     libucrt:lcidtoname_downlevel.obj
 0002:00008038       ??_C@_1M@GACBMHKE@?$AAh?$AAu?$AA?9?$AAh?$AAu@ 000000018002e038     libucrt:lcidtoname_downlevel.obj
 0002:00008048       ??_C@_1M@MILPAJJC@?$AAh?$AAy?$AA?9?$AAa?$AAm@ 000000018002e048     libucrt:lcidtoname_downlevel.obj
 0002:00008058       ??_C@_1M@BABBICEC@?$AAi?$AAd?$AA?9?$AAi?$AAd@ 000000018002e058     libucrt:lcidtoname_downlevel.obj
 0002:00008068       ??_C@_1M@BIKNHHPF@?$AAi?$AAs?$AA?9?$AAi?$AAs@ 000000018002e068     libucrt:lcidtoname_downlevel.obj
 0002:00008078       ??_C@_1M@NMPCJPHE@?$AAi?$AAt?$AA?9?$AAc?$AAh@ 000000018002e078     libucrt:lcidtoname_downlevel.obj
 0002:00008088       ??_C@_1M@GHKGFEDF@?$AAi?$AAt?$AA?9?$AAi?$AAt@ 000000018002e088     libucrt:lcidtoname_downlevel.obj
 0002:00008098       ??_C@_1M@NIEJCJJA@?$AAj?$AAa?$AA?9?$AAj?$AAp@ 000000018002e098     libucrt:lcidtoname_downlevel.obj
 0002:000080a8       ??_C@_1M@JILFNBIM@?$AAk?$AAa?$AA?9?$AAg?$AAe@ 000000018002e0a8     libucrt:lcidtoname_downlevel.obj
 0002:000080b8       ??_C@_1M@PACPMGPH@?$AAk?$AAk?$AA?9?$AAk?$AAz@ 000000018002e0b8     libucrt:lcidtoname_downlevel.obj
 0002:000080c8       ??_C@_1M@IELFGMHA@?$AAk?$AAn?$AA?9?$AAi?$AAn@ 000000018002e0c8     libucrt:lcidtoname_downlevel.obj
 0002:000080d8       ??_C@_1O@IBBJHCH@?$AAk?$AAo?$AAk?$AA?9?$AAi?$AAn@ 000000018002e0d8     libucrt:lcidtoname_downlevel.obj
 0002:000080e8       ??_C@_1M@DMHAEOGC@?$AAk?$AAo?$AA?9?$AAk?$AAr@ 000000018002e0e8     libucrt:lcidtoname_downlevel.obj
 0002:000080f8       ??_C@_1M@HBAHBIGA@?$AAk?$AAy?$AA?9?$AAk?$AAg@ 000000018002e0f8     libucrt:lcidtoname_downlevel.obj
 0002:00008108       ??_C@_1M@KPMILCJG@?$AAl?$AAt?$AA?9?$AAl?$AAt@ 000000018002e108     libucrt:lcidtoname_downlevel.obj
 0002:00008118       ??_C@_1M@BDEKKCA@?$AAl?$AAv?$AA?9?$AAl?$AAv@ 000000018002e118     libucrt:lcidtoname_downlevel.obj
 0002:00008128       ??_C@_1M@ELCKCCJJ@?$AAm?$AAi?$AA?9?$AAn?$AAz@ 000000018002e128     libucrt:lcidtoname_downlevel.obj
 0002:00008138       ??_C@_1M@CBOOLAPA@?$AAm?$AAk?$AA?9?$AAm?$AAk@ 000000018002e138     libucrt:lcidtoname_downlevel.obj
 0002:00008148       ??_C@_1M@GPHNBJKN@?$AAm?$AAl?$AA?9?$AAi?$AAn@ 000000018002e148     libucrt:lcidtoname_downlevel.obj
 0002:00008158       ??_C@_1M@PABJILIG@?$AAm?$AAn?$AA?9?$AAm?$AAn@ 000000018002e158     libucrt:lcidtoname_downlevel.obj
 0002:00008168       ??_C@_1M@FGBKKIPG@?$AAm?$AAr?$AA?9?$AAi?$AAn@ 000000018002e168     libucrt:lcidtoname_downlevel.obj
 0002:00008178       ??_C@_1M@NDBPDDAL@?$AAm?$AAs?$AA?9?$AAb?$AAn@ 000000018002e178     libucrt:lcidtoname_downlevel.obj
 0002:00008188       ??_C@_1M@OPIHOOPI@?$AAm?$AAs?$AA?9?$AAm?$AAy@ 000000018002e188     libucrt:lcidtoname_downlevel.obj
 0002:00008198       ??_C@_1M@PPDBCNFM@?$AAm?$AAt?$AA?9?$AAm?$AAt@ 000000018002e198     libucrt:lcidtoname_downlevel.obj
 0002:000081a8       ??_C@_1M@KDJDKMDD@?$AAn?$AAb?$AA?9?$AAn?$AAo@ 000000018002e1a8     libucrt:lcidtoname_downlevel.obj
 0002:000081b8       ??_C@_1M@KFCFLMJP@?$AAn?$AAl?$AA?9?$AAb?$AAe@ 000000018002e1b8     libucrt:lcidtoname_downlevel.obj
 0002:000081c8       ??_C@_1M@KPOPDDGO@?$AAn?$AAl?$AA?9?$AAn?$AAl@ 000000018002e1c8     libucrt:lcidtoname_downlevel.obj
 0002:000081d8       ??_C@_1M@LJKPEMLN@?$AAn?$AAn?$AA?9?$AAn?$AAo@ 000000018002e1d8     libucrt:lcidtoname_downlevel.obj
 0002:000081e8       ??_C@_1M@BDGHHBFL@?$AAn?$AAs?$AA?9?$AAz?$AAa@ 000000018002e1e8     libucrt:lcidtoname_downlevel.obj
 0002:000081f8       ??_C@_1M@IDEHOAP@?$AAp?$AAa?$AA?9?$AAi?$AAn@ 000000018002e1f8     libucrt:lcidtoname_downlevel.obj
 0002:00008208       ??_C@_1M@HDBKGOGH@?$AAp?$AAl?$AA?9?$AAp?$AAl@ 000000018002e208     libucrt:lcidtoname_downlevel.obj
 0002:00008218       ??_C@_1M@LJLLCMEH@?$AAp?$AAt?$AA?9?$AAb?$AAr@ 000000018002e218     libucrt:lcidtoname_downlevel.obj
 0002:00008228       ??_C@_1M@NCMONAAL@?$AAp?$AAt?$AA?9?$AAp?$AAt@ 000000018002e228     libucrt:lcidtoname_downlevel.obj
 0002:00008238       ??_C@_1O@EAKMAJDN@?$AAq?$AAu?$AAz?$AA?9?$AAb?$AAo@ 000000018002e238     libucrt:lcidtoname_downlevel.obj
 0002:00008248       ??_C@_1O@BHHPIGDN@?$AAq?$AAu?$AAz?$AA?9?$AAe?$AAc@ 000000018002e248     libucrt:lcidtoname_downlevel.obj
 0002:00008258       ??_C@_1O@GBAPEKMJ@?$AAq?$AAu?$AAz?$AA?9?$AAp?$AAe@ 000000018002e258     libucrt:lcidtoname_downlevel.obj
 0002:00008268       ??_C@_1M@CLGLEFBO@?$AAr?$AAo?$AA?9?$AAr?$AAo@ 000000018002e268     libucrt:lcidtoname_downlevel.obj
 0002:00008278       ??_C@_1M@CEEDODME@?$AAr?$AAu?$AA?9?$AAr?$AAu@ 000000018002e278     libucrt:lcidtoname_downlevel.obj
 0002:00008288       ??_C@_1M@HPKKKMPP@?$AAs?$AAa?$AA?9?$AAi?$AAn@ 000000018002e288     libucrt:lcidtoname_downlevel.obj
 0002:00008298       ??_C@_1M@BKMAIGOJ@?$AAs?$AAe?$AA?9?$AAf?$AAi@ 000000018002e298     libucrt:lcidtoname_downlevel.obj
 0002:000082a8       ??_C@_1M@NDPIFLFI@?$AAs?$AAe?$AA?9?$AAn?$AAo@ 000000018002e2a8     libucrt:lcidtoname_downlevel.obj
 0002:000082b8       ??_C@_1M@DANKKHJ@?$AAs?$AAe?$AA?9?$AAs?$AAe@ 000000018002e2b8     libucrt:lcidtoname_downlevel.obj
 0002:000082c8       ??_C@_1M@PNBLONPJ@?$AAs?$AAk?$AA?9?$AAs?$AAk@ 000000018002e2c8     libucrt:lcidtoname_downlevel.obj
 0002:000082d8       ??_C@_1M@LFMODOAL@?$AAs?$AAl?$AA?9?$AAs?$AAi@ 000000018002e2d8     libucrt:lcidtoname_downlevel.obj
 0002:000082e8       ??_C@_1O@DFKOMPG@?$AAs?$AAm?$AAa?$AA?9?$AAn?$AAo@ 000000018002e2e8     libucrt:lcidtoname_downlevel.obj
 0002:000082f8       ??_C@_1O@NDKPBNNH@?$AAs?$AAm?$AAa?$AA?9?$AAs?$AAe@ 000000018002e2f8     libucrt:lcidtoname_downlevel.obj
 0002:00008308       ??_C@_1O@PLLKBHAB@?$AAs?$AAm?$AAj?$AA?9?$AAn?$AAo@ 000000018002e308     libucrt:lcidtoname_downlevel.obj
 0002:00008318       ??_C@_1O@CLEPOGCA@?$AAs?$AAm?$AAj?$AA?9?$AAs?$AAe@ 000000018002e318     libucrt:lcidtoname_downlevel.obj
 0002:00008328       ??_C@_1O@DLGJGKMK@?$AAs?$AAm?$AAn?$AA?9?$AAf?$AAi@ 000000018002e328     libucrt:lcidtoname_downlevel.obj
 0002:00008338       ??_C@_1O@OJDJGAJC@?$AAs?$AAm?$AAs?$AA?9?$AAf?$AAi@ 000000018002e338     libucrt:lcidtoname_downlevel.obj
 0002:00008348       ??_C@_1M@BOFOGHPB@?$AAs?$AAq?$AA?9?$AAa?$AAl@ 000000018002e348     libucrt:lcidtoname_downlevel.obj
 0002:00008358       ??_C@_1BG@LJBBIPGB@?$AAs?$AAr?$AA?9?$AAb?$AAa?$AA?9?$AAc?$AAy?$AAr?$AAl@ 000000018002e358     libucrt:lcidtoname_downlevel.obj
 0002:00008370       ??_C@_1BG@JLBENFOE@?$AAs?$AAr?$AA?9?$AAb?$AAa?$AA?9?$AAl?$AAa?$AAt?$AAn@ 000000018002e370     libucrt:lcidtoname_downlevel.obj
 0002:00008388       ??_C@_1BG@KODPNHE@?$AAs?$AAr?$AA?9?$AAs?$AAp?$AA?9?$AAc?$AAy?$AAr?$AAl@ 000000018002e388     libucrt:lcidtoname_downlevel.obj
 0002:000083a0       ??_C@_1BG@CIOGKHPB@?$AAs?$AAr?$AA?9?$AAs?$AAp?$AA?9?$AAl?$AAa?$AAt?$AAn@ 000000018002e3a0     libucrt:lcidtoname_downlevel.obj
 0002:000083b8       ??_C@_1M@NGFJLMAC@?$AAs?$AAv?$AA?9?$AAf?$AAi@ 000000018002e3b8     libucrt:lcidtoname_downlevel.obj
 0002:000083c8       ??_C@_1M@MPJEJAJC@?$AAs?$AAv?$AA?9?$AAs?$AAe@ 000000018002e3c8     libucrt:lcidtoname_downlevel.obj
 0002:000083d8       ??_C@_1M@MPNDHLFK@?$AAs?$AAw?$AA?9?$AAk?$AAe@ 000000018002e3d8     libucrt:lcidtoname_downlevel.obj
 0002:000083e8       ??_C@_1O@KOHBJJI@?$AAs?$AAy?$AAr?$AA?9?$AAs?$AAy@ 000000018002e3e8     libucrt:lcidtoname_downlevel.obj
 0002:000083f8       ??_C@_1M@LDCEFHA@?$AAt?$AAa?$AA?9?$AAi?$AAn@ 000000018002e3f8     libucrt:lcidtoname_downlevel.obj
 0002:00008408       ??_C@_1M@CNJOFAK@?$AAt?$AAe?$AA?9?$AAi?$AAn@ 000000018002e408     libucrt:lcidtoname_downlevel.obj
 0002:00008418       ??_C@_1M@GNAECACD@?$AAt?$AAh?$AA?9?$AAt?$AAh@ 000000018002e418     libucrt:lcidtoname_downlevel.obj
 0002:00008428       ??_C@_1M@CHBIHOJO@?$AAt?$AAn?$AA?9?$AAz?$AAa@ 000000018002e428     libucrt:lcidtoname_downlevel.obj
 0002:00008438       ??_C@_1M@GCCMIGPJ@?$AAt?$AAr?$AA?9?$AAt?$AAr@ 000000018002e438     libucrt:lcidtoname_downlevel.obj
 0002:00008448       ??_C@_1M@CELMCNBK@?$AAt?$AAt?$AA?9?$AAr?$AAu@ 000000018002e448     libucrt:lcidtoname_downlevel.obj
 0002:00008458       ??_C@_1M@KLMCELGA@?$AAu?$AAk?$AA?9?$AAu?$AAa@ 000000018002e458     libucrt:lcidtoname_downlevel.obj
 0002:00008468       ??_C@_1M@EPAJJAJF@?$AAu?$AAr?$AA?9?$AAp?$AAk@ 000000018002e468     libucrt:lcidtoname_downlevel.obj
 0002:00008478       ??_C@_1BG@GEGPMCDJ@?$AAu?$AAz?$AA?9?$AAu?$AAz?$AA?9?$AAc?$AAy?$AAr?$AAl@ 000000018002e478     libucrt:lcidtoname_downlevel.obj
 0002:00008490       ??_C@_1BG@EGGKJILM@?$AAu?$AAz?$AA?9?$AAu?$AAz?$AA?9?$AAl?$AAa?$AAt?$AAn@ 000000018002e490     libucrt:lcidtoname_downlevel.obj
 0002:000084a8       ??_C@_1M@GFOCLFF@?$AAv?$AAi?$AA?9?$AAv?$AAn@ 000000018002e4a8     libucrt:lcidtoname_downlevel.obj
 0002:000084b8       ??_C@_1M@CPAMEDFI@?$AAx?$AAh?$AA?9?$AAz?$AAa@ 000000018002e4b8     libucrt:lcidtoname_downlevel.obj
 0002:000084c8       ??_C@_1O@EBKIFIGN@?$AAz?$AAh?$AA?9?$AAc?$AAh?$AAs@ 000000018002e4c8     libucrt:lcidtoname_downlevel.obj
 0002:000084d8       ??_C@_1O@NMHPGANE@?$AAz?$AAh?$AA?9?$AAc?$AAh?$AAt@ 000000018002e4d8     libucrt:lcidtoname_downlevel.obj
 0002:000084e8       ??_C@_1M@LPINJOMC@?$AAz?$AAh?$AA?9?$AAc?$AAn@ 000000018002e4e8     libucrt:lcidtoname_downlevel.obj
 0002:000084f8       ??_C@_1M@OCJEJODD@?$AAz?$AAh?$AA?9?$AAh?$AAk@ 000000018002e4f8     libucrt:lcidtoname_downlevel.obj
 0002:00008508       ??_C@_1M@DNDLJINH@?$AAz?$AAh?$AA?9?$AAm?$AAo@ 000000018002e508     libucrt:lcidtoname_downlevel.obj
 0002:00008518       ??_C@_1M@MBFDNDND@?$AAz?$AAh?$AA?9?$AAs?$AAg@ 000000018002e518     libucrt:lcidtoname_downlevel.obj
 0002:00008528       ??_C@_1M@IMEPLEPE@?$AAz?$AAh?$AA?9?$AAt?$AAw@ 000000018002e528     libucrt:lcidtoname_downlevel.obj
 0002:00008538       ??_C@_1M@BBGHNHJP@?$AAz?$AAu?$AA?9?$AAz?$AAa@ 000000018002e538     libucrt:lcidtoname_downlevel.obj
 0002:00008550       ?large_power_data@?1??multiply_by_power_of_ten@__crt_strtox@@YA_NAEAUbig_integer@2@I@Z@4QBIB 000000018002e550     libucrt:cfout.obj
 0002:00008e60       ?large_power_indices@?1??multiply_by_power_of_ten@__crt_strtox@@YA_NAEAUbig_integer@2@I@Z@4QBUunpack_index@?1??12@YA_N0I@Z@B 000000018002ee60     libucrt:cfout.obj
 0002:00008ef8       ?small_powers_of_ten@?1??multiply_by_power_of_ten@__crt_strtox@@YA_NAEAUbig_integer@2@I@Z@4QBIB 000000018002eef8     libucrt:cfout.obj
 0002:00008f1c       ??_C@_01GBGANLPD@0@        000000018002ef1c     libucrt:cfout.obj
 0002:00008f20       ??_C@_05DNEBIAHO@1?$CDINF@ 000000018002ef20     libucrt:cfout.obj
 0002:00008f28       ??_C@_06IMKFLFPG@1?$CDQNAN@ 000000018002ef28     libucrt:cfout.obj
 0002:00008f30       ??_C@_06PGGFOGJG@1?$CDSNAN@ 000000018002ef30     libucrt:cfout.obj
 0002:00008f38       ??_C@_05PHHOCPM@1?$CDIND@  000000018002ef38     libucrt:cfout.obj
 0002:00008f68       __real@3ff0000000000000    000000018002ef68     libucrt:ceil.obj
 0002:000091c0       __log10_256_lead           000000018002f1c0     libucrt:log10_256_lead_tail_table.obj
 0002:000099d0       __log10_256_tail           000000018002f9d0     libucrt:log10_256_lead_tail_table.obj
 0002:0000a1e0       __log_F_inv_qword          00000001800301e0     libucrt:log_f_inv_qword_table.obj
 0002:0000a9f0       ??_C@_05HGHHAHAP@log10@    00000001800309f0     libucrt:log_special.obj
 0002:0000a9f8       ??_C@_1BA@BALFACEM@?$AAC?$AAO?$AAN?$AAO?$AAU?$AAT?$AA$@ 00000001800309f8     libucrt:initcon.obj
 0002:0000aa80       _load_config_used          0000000180030a80     LIBCMT:loadcfg.obj
 0002:0000ac00       _tls_used                  0000000180030c00     LIBCMT:tlssup.obj
 0002:0000ac28       ??_R4exception@std@@6B@    0000000180030c28     LIBCMT:throw_bad_alloc.obj
 0002:0000ac50       ??_R3exception@std@@8      0000000180030c50     LIBCMT:throw_bad_alloc.obj
 0002:0000ac68       ??_R2exception@std@@8      0000000180030c68     LIBCMT:throw_bad_alloc.obj
 0002:0000ac78       ??_R1A@?0A@EA@exception@std@@8 0000000180030c78     LIBCMT:throw_bad_alloc.obj
 0002:0000aca0       ??_R4bad_alloc@std@@6B@    0000000180030ca0     LIBCMT:throw_bad_alloc.obj
 0002:0000acc8       ??_R3bad_alloc@std@@8      0000000180030cc8     LIBCMT:throw_bad_alloc.obj
 0002:0000ace0       ??_R2bad_alloc@std@@8      0000000180030ce0     LIBCMT:throw_bad_alloc.obj
 0002:0000acf8       ??_R1A@?0A@EA@bad_alloc@std@@8 0000000180030cf8     LIBCMT:throw_bad_alloc.obj
 0002:0000ad20       ??_R4bad_array_new_length@std@@6B@ 0000000180030d20     LIBCMT:throw_bad_alloc.obj
 0002:0000ad48       ??_R3bad_array_new_length@std@@8 0000000180030d48     LIBCMT:throw_bad_alloc.obj
 0002:0000ad60       ??_R2bad_array_new_length@std@@8 0000000180030d60     LIBCMT:throw_bad_alloc.obj
 0002:0000ad80       ??_R1A@?0A@EA@bad_array_new_length@std@@8 0000000180030d80     LIBCMT:throw_bad_alloc.obj
 0002:0000ada8       ??_R4type_info@@6B@        0000000180030da8     LIBCMT:std_type_info_static.obj
 0002:0000add0       ??_R3type_info@@8          0000000180030dd0     LIBCMT:std_type_info_static.obj
 0002:0000ade8       ??_R2type_info@@8          0000000180030de8     LIBCMT:std_type_info_static.obj
 0002:0000adf8       ??_R1A@?0A@EA@type_info@@8 0000000180030df8     LIBCMT:std_type_info_static.obj
 0002:0000ae20       ??_R4bad_exception@std@@6B@ 0000000180030e20     libvcruntime:frame.obj
 0002:0000ae48       ??_R3bad_exception@std@@8  0000000180030e48     libvcruntime:frame.obj
 0002:0000ae60       ??_R2bad_exception@std@@8  0000000180030e60     libvcruntime:frame.obj
 0002:0000ae78       ??_R1A@?0A@EA@bad_exception@std@@8 0000000180030e78     libvcruntime:frame.obj
 0002:0000ae9c       __volatile_metadata        0000000180030e9c     <linker-defined>
 0002:0000b318       __rtc_iaa                  0000000180031318     LIBCMT:initsect.obj
 0002:0000b320       __rtc_izz                  0000000180031320     LIBCMT:initsect.obj
 0002:0000b328       __rtc_taa                  0000000180031328     LIBCMT:initsect.obj
 0002:0000b330       __rtc_tzz                  0000000180031330     LIBCMT:initsect.obj
 0002:0000b338       _tls_start                 0000000180031338     LIBCMT:tlssup.obj
 0002:0000b33c       _Init_thread_epoch         000000018003133c     LIBCMT:thread_safe_statics.obj
 0002:0000b340       _tls_end                   0000000180031340     LIBCMT:tlssup.obj
 0002:0000cc48       _TI2?AVbad_alloc@std@@     0000000180032c48     LIBCMT:throw_bad_alloc.obj
 0002:0000cc68       _CTA2?AVbad_alloc@std@@    0000000180032c68     LIBCMT:throw_bad_alloc.obj
 0002:0000cc80       _CT??_R0?AVbad_alloc@std@@@8??0bad_alloc@std@@QEAA@AEBV01@@Z24 0000000180032c80     LIBCMT:throw_bad_alloc.obj
 0002:0000cca8       _CT??_R0?AVexception@std@@@8??0exception@std@@QEAA@AEBV01@@Z24 0000000180032ca8     LIBCMT:throw_bad_alloc.obj
 0002:0000ccd0       _TI3?AVbad_array_new_length@std@@ 0000000180032cd0     LIBCMT:throw_bad_alloc.obj
 0002:0000ccf0       _CTA3?AVbad_array_new_length@std@@ 0000000180032cf0     LIBCMT:throw_bad_alloc.obj
 0002:0000cd10       _CT??_R0?AVbad_array_new_length@std@@@8??0bad_array_new_length@std@@QEAA@AEBV01@@Z24 0000000180032d10     LIBCMT:throw_bad_alloc.obj
 0002:0000cd38       _TI2?AVbad_exception@std@@ 0000000180032d38     libvcruntime:frame.obj
 0002:0000cd58       _CTA2?AVbad_exception@std@@ 0000000180032d58     libvcruntime:frame.obj
 0002:0000cd70       _CT??_R0?AVbad_exception@std@@@8??0bad_exception@std@@QEAA@AEBV01@@Z24 0000000180032d70     libvcruntime:frame.obj
 0002:0000cd98       __pobjMapEntryFirst        0000000180032d98     OposVariant.obj
 0002:0000cda0       __pobjMapEntryLast         0000000180032da0     OposVariant.obj
 0002:0000ce5c       __IMPORT_DESCRIPTOR_KERNEL32 0000000180032e5c     kernel32:KERNEL32.dll
 0002:0000ce70       __IMPORT_DESCRIPTOR_USER32 0000000180032e70     user32:USER32.dll
 0002:0000ce84       __IMPORT_DESCRIPTOR_GDI32  0000000180032e84     gdi32:GDI32.dll
 0002:0000ce98       __IMPORT_DESCRIPTOR_ADVAPI32 0000000180032e98     advapi32:ADVAPI32.dll
 0002:0000ceac       __IMPORT_DESCRIPTOR_ole32  0000000180032eac     ole32:ole32.dll
 0002:0000cec0       __IMPORT_DESCRIPTOR_OLEAUT32 0000000180032ec0     oleaut32:OLEAUT32.dll
 0002:0000ced4       __NULL_IMPORT_DESCRIPTOR   0000000180032ed4     kernel32:KERNEL32.dll
 0003:00000000       ?rcDefault@CWindow@ATL@@2UtagRECT@@A 0000000180035000     POSPower.obj
 0003:00000010       ?s_Claim@?7??GetIDsOfNames@CComTypeInfoHolder@ATL@@QEAAJAEBU_GUID@@PEAPEA_WIKPEAJ@Z@4PA_WA 0000000180035010     POSPower.obj
 0003:00000028       ?s_Release@?7??GetIDsOfNames@CComTypeInfoHolder@ATL@@QEAAJAEBU_GUID@@PEAPEA_WIKPEAJ@Z@4PA_WA 0000000180035028     POSPower.obj
 0003:00000048       ?_tih@?$IDispatchImpl@UIOPOSPOSPower@@$1?IID_IOPOSPOSPower@@3U_GUID@@B$1?LIBID_OposPOSPower_CCO@@3U3@B$00$0A@VCComTypeInfoHolder@ATL@@@ATL@@1VCComTypeInfoHolder@2@A 0000000180035048     POSPower.obj
 0003:00000080       ?_tih@?$IProvideClassInfo2Impl@$1?CLSID_OPOSPOSPower@@3U_GUID@@B$1?DIID__IOPOSPOSPowerEvents@@3U2@B$1?LIBID_OposPOSPower_CCO@@3U2@B$00$0A@VCComTypeInfoHolder@ATL@@@ATL@@1VCComTypeInfoHolder@2@A 0000000180035080     POSPower.obj
 0003:000000b8       ?vszContents@?6??Save@?$IPersistStorageImpl@VCOPOSPOSPower@@@ATL@@UEAAJPEAUIStorage@@H@Z@4PEB_WEB 00000001800350b8     POSPower.obj
 0003:000000c0       ?wc@?1??GetWndClassInfo@?$CWindowImpl@VCOPOSPOSPower@@VCWindow@ATL@@V?$CWinTraits@$0FGAAAAAA@$0A@@3@@ATL@@SAAEAU_ATL_WNDCLASSINFOW@3@XZ@4U43@A 00000001800350c0     POSPower.obj
 0003:00000250       ?g_WindowName@@3PA_WA      0000000180035250     POSPowerImpl.obj
 0003:00000270       ?g_ControlDescription@@3PADA 0000000180035270     POSPowerImpl.obj
 0003:000002b8       ?g_ControlVersion@@3JA     00000001800352b8     POSPowerImpl.obj
 0003:0000037c       __scrt_native_dllmain_reason 000000018003537c     LIBCMT:utility.obj
 0003:00000380       _Init_global_epoch         0000000180035380     LIBCMT:thread_safe_statics.obj
 0003:00000390       __security_cookie          0000000180035390     LIBCMT:gs_cookie.obj
 0003:00000398       __security_cookie_complement 0000000180035398     LIBCMT:gs_cookie.obj
 0003:000003a0       __isa_available            00000001800353a0     LIBCMT:cpu_disp.obj
 0003:000003a4       __isa_enabled              00000001800353a4     LIBCMT:cpu_disp.obj
 0003:000003a8       __memcpy_nt_iters          00000001800353a8     LIBCMT:cpu_disp.obj
 0003:000003b0       __memset_nt_iters          00000001800353b0     LIBCMT:cpu_disp.obj
 0003:000003d8       __abort_behavior           00000001800353d8     libucrt:abort.obj
 0003:000003f0       __acrt_initial_locale_data 00000001800353f0     libucrt:nlsdata.obj
 0003:00000548       __acrt_initial_locale_pointers 0000000180035548     libucrt:nlsdata.obj
 0003:00000558       __acrt_wide_c_locale_string 0000000180035558     libucrt:nlsdata.obj
 0003:00000560       _iob                       0000000180035560     libucrt:_file.obj
 0003:00000670       __acrt_initial_multibyte_data 0000000180035670     libucrt:mbctype.obj
 0003:00000bb0       __acrt_lconv_c             0000000180035bb0     libucrt:localeconv.obj
 0003:00000c48       __acrt_lconv_static_decimal 0000000180035c48     libucrt:localeconv.obj
 0003:00000c4c       __acrt_lconv_static_W_decimal 0000000180035c4c     libucrt:localeconv.obj
 0003:00000c50       __globallocalestatus       0000000180035c50     libucrt:glstatus.obj
 0003:00000c60       _lookuptrailbytes          0000000180035c60     libucrt:read.obj
 0003:00000d84       _fltused                   0000000180035d84     LIBCMT:fltused.obj
 0003:00000d88       ??_R0?AVbad_alloc@std@@@8  0000000180035d88     LIBCMT:throw_bad_alloc.obj
 0003:00000db0       ??_R0?AVexception@std@@@8  0000000180035db0     LIBCMT:throw_bad_alloc.obj
 0003:00000dd8       ??_R0?AVbad_array_new_length@std@@@8 0000000180035dd8     LIBCMT:throw_bad_alloc.obj
 0003:00000e08       ??_R0?AVbad_exception@std@@@8 0000000180035e08     libvcruntime:frame.obj
 0003:00000e30       ??_R0?AVtype_info@@@8      0000000180035e30     LIBCMT:std_type_info_static.obj
 0003:00000e50       ?m_bInitFailed@CAtlBaseModule@ATL@@2_NA 0000000180035e50     OposVariant.obj
 0003:00000e58       ?_pPerfRegFunc@ATL@@3P6AJPEAUHINSTANCE__@@@ZEA 0000000180035e58     OposVariant.obj
 0003:00000e60       ?_pPerfUnRegFunc@ATL@@3P6AJXZEA 0000000180035e60     OposVariant.obj
 0003:00000e68       ?_AtlRegisterPerUser@ATL@@3_NA 0000000180035e68     OposVariant.obj
 0003:00000e70       ?_pAtlModule@ATL@@3PEAVCAtlModule@1@EA 0000000180035e70     OposVariant.obj
 0003:00000e78       ?_pModule@ATL@@3PEAVCComModule@1@EA 0000000180035e78     OposVariant.obj
 0003:00000e80       ?_AtlComModule@ATL@@3VCAtlComModule@1@A 0000000180035e80     OposVariant.obj
 0003:00000ed0       ?_AtlWinModule@ATL@@3VCAtlWinModule@1@A 0000000180035ed0     OposVariant.obj
 0003:00000f18       ?m_libid@CAtlModule@ATL@@2U_GUID@@A 0000000180035f18     POSPower.obj
 0003:00000f28       ?_entries@?1??GetConnMap@COPOSPOSPower@@SAPEBU_ATL_CONNMAP_ENTRY@ATL@@PEAH@Z@4QBU34@B 0000000180035f28     POSPower.obj
 0003:00000f40       ?$TSS0@?1??GetConnMap@COPOSPOSPower@@SAPEBU_ATL_CONNMAP_ENTRY@ATL@@PEAH@Z@4HA 0000000180035f40     POSPower.obj
 0003:00000f48       ?_OptionsStorage@?1??__local_stdio_printf_options@@9@4_KA 0000000180035f48     POSPower.obj
 0003:00000f50       ?pfnRegDeleteKeyEx@?1??DeleteSubKey@CRegKey@ATL@@QEAAJPEB_W@Z@4P6AJPEAUHKEY__@@0KK@ZEA 0000000180035f50     POSPower.obj
 0003:00000f58       ?bInitialized@?1??DeleteSubKey@CRegKey@ATL@@QEAAJPEB_W@Z@4_NA 0000000180035f58     POSPower.obj
 0003:00000f60       ?_Module@@3VCComModule@ATL@@A 0000000180035f60     POSPower.obj
 0003:00000fb0       ?pConnMap@?$IConnectionPointContainerImpl@VCOPOSPOSPower@@@ATL@@0PEBU_ATL_CONNMAP_ENTRY@2@EB 0000000180035fb0     POSPower.obj
 0003:00000fb8       ?s_nInstances@COPOSPOSPower@@1HA 0000000180035fb8     POSPowerImpl.obj
 0003:00000fc0       __scrt_current_native_startup_state 0000000180035fc0     LIBCMT:utility.obj
 0003:00000fc8       __scrt_native_startup_lock 0000000180035fc8     LIBCMT:utility.obj
 0003:000015c0       _tls_index                 00000001800365c0     LIBCMT:tlssup.obj
 0003:000015c8       __favor                    00000001800365c8     LIBCMT:cpu_disp.obj
 0003:000015cc       __scrt_debugger_hook_flag  00000001800365cc     LIBCMT:utility_desktop.obj
 0003:000015d0       ?__type_info_root_node@@3U__type_info_node@@A 00000001800365d0     LIBCMT:tncleanup.obj
 0003:000015e0       ?_OptionsStorage@?1??__local_stdio_scanf_options@@9@4_KA 00000001800365e0     LIBCMT:default_local_stdio_options.obj
 0003:000015f0       ?_AtlBaseModule@ATL@@3VCAtlBaseModule@1@A 00000001800365f0     atls:atlbase.obj
 0003:00001650       ?__AtlThunkPool@@3PEAT_SLIST_HEADER@@EA 0000000180036650     atls:atlthunk.obj
 0003:0000167c       __@@_PchSym_@00@UzABUPdlipUCAUhUrmgvinvwrzgvUexgllohUzgohOmzgrevkilqPBACIAJCBDBUlyqiUznwGEUhgwzucOlyq@4B2008FD98C1DD4 000000018003667c     atls:stdafx.obj
 0003:00001680       ?__WinRTOutOfMemoryExceptionCallback@@3P6APEAXXZEA 0000000180036680     libvcruntime:ehhelpers.obj
 0003:00001688       __pPurecall                0000000180036688     libvcruntime:purevirt_data.obj
 0003:00001740       ?pArgList@UnDecorator@@0PEAVReplicator@@EA 0000000180036740     libvcruntime:undname.obj
 0003:00001748       ?pZNameList@UnDecorator@@0PEAVReplicator@@EA 0000000180036748     libvcruntime:undname.obj
 0003:00001750       ?pTemplateArgList@UnDecorator@@0PEAVReplicator@@EA 0000000180036750     libvcruntime:undname.obj
 0003:00001758       ?gName@UnDecorator@@0PEBDEB 0000000180036758     libvcruntime:undname.obj
 0003:00001760       ?name@UnDecorator@@0PEBDEB 0000000180036760     libvcruntime:undname.obj
 0003:00001768       ?disableFlags@UnDecorator@@0KA 0000000180036768     libvcruntime:undname.obj
 0003:0000176c       ?fExplicitTemplateParams@UnDecorator@@0_NA 000000018003676c     libvcruntime:undname.obj
 0003:0000176d       ?fGetTemplateArgumentList@UnDecorator@@0_NA 000000018003676d     libvcruntime:undname.obj
 0003:00001770       ?m_pGetParameter@UnDecorator@@0P6APEADJ@ZEA 0000000180036770     libvcruntime:undname.obj
 0003:00001778       ?m_CHPENameOffset@UnDecorator@@0KA 0000000180036778     libvcruntime:undname.obj
 0003:0000177c       ?m_recursionLevel@UnDecorator@@0KA 000000018003677c     libvcruntime:undname.obj
 0003:00001800       ?c_exit_complete@?1???R<lambda_6e4b09c48022b2350581041d5f6b0c4c>@@QEBA@XZ@4_NA 0000000180036800     libucrt:exit.obj
 0003:00001918       _environ_table             0000000180036918     libucrt:environment_initialization.obj
 0003:00001920       _wenviron_table            0000000180036920     libucrt:environment_initialization.obj
 0003:00001928       __dcrt_initial_wide_environment 0000000180036928     libucrt:environment_initialization.obj
 0003:00001930       __dcrt_initial_narrow_environment 0000000180036930     libucrt:environment_initialization.obj
 0003:00001938       __acrt_atexit_table        0000000180036938     libucrt:onexit.obj
 0003:00001950       __acrt_at_quick_exit_table 0000000180036950     libucrt:onexit.obj
 0003:00001970       __acrt_locale_changed_data 0000000180036970     libucrt:wsetlocale.obj
 0003:00001978       __acrt_current_locale_data 0000000180036978     libucrt:nlsdata.obj
 0003:00001b18       _nstream                   0000000180036b18     libucrt:_file.obj
 0003:00001b20       __piob                     0000000180036b20     libucrt:_file.obj
 0003:00001b30       __acrt_stdout_buffer       0000000180036b30     libucrt:_sftbuf.obj
 0003:00001b38       __acrt_stderr_buffer       0000000180036b38     libucrt:_sftbuf.obj
 0003:00001b40       __pioinfo                  0000000180036b40     libucrt:ioinit.obj
 0003:00001f40       _nhandle                   0000000180036f40     libucrt:ioinit.obj
 0003:00002188       _mbctype                   0000000180037188     libucrt:mbctype.obj
 0003:00002190       _mbcasemap                 0000000180037190     libucrt:mbctype.obj
 0003:00002198       __acrt_current_multibyte_data 0000000180037198     libucrt:mbctype.obj
 0003:000021a8       _pgmptr                    00000001800371a8     libucrt:argv_data.obj
 0003:000021b0       __argc                     00000001800371b0     libucrt:argv_data.obj
 0003:000021b8       __argv                     00000001800371b8     libucrt:argv_data.obj
 0003:000021c0       __wargv                    00000001800371c0     libucrt:argv_data.obj
 0003:000021c8       _acmdln                    00000001800371c8     libucrt:argv_data.obj
 0003:000021d0       _wcmdln                    00000001800371d0     libucrt:argv_data.obj
 0003:000021d8       __acrt_heap                00000001800371d8     libucrt:heap_handle.obj
 0003:00002208       __acrt_lconv_static_null   0000000180037208     libucrt:localeconv.obj
 0003:0000220c       __acrt_lconv_static_W_null 000000018003720c     libucrt:localeconv.obj
 0003:00002224       __fma3_is_available        0000000180037224     libucrt:fma3_available.obj
 0003:00002228       __use_fma3_lib             0000000180037228     libucrt:fma3_available.obj
 0003:00002230       __dyn_tls_init_callback    0000000180037230     <common>
 0003:00002238       __scrt_ucrt_dll_is_in_use  0000000180037238     <common>

 entry point at        0001:0000e9c0

 Static symbols

 0000:fffbe000       .debug$S                   0000000180000000     OPOSPOSPower.exp
 0000:fffbe000       .debug$S                   0000000180000000     advapi32:ADVAPI32.dll
 0000:fffbe000       .debug$S                   0000000180000000     advapi32:ADVAPI32.dll
 0000:fffbe000       .debug$S                   0000000180000000     advapi32:ADVAPI32.dll
 0000:fffbe000       .debug$S                   0000000180000000     advapi32:ADVAPI32.dll
 0000:fffbe000       .debug$S                   0000000180000000     advapi32:ADVAPI32.dll
 0000:fffbe000       .debug$S                   0000000180000000     advapi32:ADVAPI32.dll
 0000:fffbe000       .debug$S                   0000000180000000     advapi32:ADVAPI32.dll
 0000:fffbe000       .debug$S                   0000000180000000     advapi32:ADVAPI32.dll
 0000:fffbe000       .debug$S                   0000000180000000     advapi32:ADVAPI32.dll
 0000:fffbe000       .debug$S                   0000000180000000     gdi32:GDI32.dll
 0000:fffbe000       .debug$S                   0000000180000000     gdi32:GDI32.dll
 0000:fffbe000       .debug$S                   0000000180000000     gdi32:GDI32.dll
 0000:fffbe000       .debug$S                   0000000180000000     gdi32:GDI32.dll
 0000:fffbe000       .debug$S                   0000000180000000     gdi32:GDI32.dll
 0000:fffbe000       .debug$S                   0000000180000000     gdi32:GDI32.dll
 0000:fffbe000       .debug$S                   0000000180000000     gdi32:GDI32.dll
 0000:fffbe000       .debug$S                   0000000180000000     gdi32:GDI32.dll
 0000:fffbe000       .debug$S                   0000000180000000     gdi32:GDI32.dll
 0000:fffbe000       .debug$S                   0000000180000000     gdi32:GDI32.dll
 0000:fffbe000       .debug$S                   0000000180000000     gdi32:GDI32.dll
 0000:fffbe000       .debug$S                   0000000180000000     gdi32:GDI32.dll
 0000:fffbe000       .debug$S                   0000000180000000     gdi32:GDI32.dll
 0000:fffbe000       .debug$S                   0000000180000000     gdi32:GDI32.dll
 0000:fffbe000       .debug$S                   0000000180000000     gdi32:GDI32.dll
 0000:fffbe000       .debug$S                   0000000180000000     gdi32:GDI32.dll
 0000:fffbe000       .debug$S                   0000000180000000     gdi32:GDI32.dll
 0000:fffbe000       .debug$S                   0000000180000000     gdi32:GDI32.dll
 0000:fffbe000       .debug$S                   0000000180000000     gdi32:GDI32.dll
 0000:fffbe000       .debug$S                   0000000180000000     kernel32:KERNEL32.dll
 0000:fffbe000       .debug$S                   0000000180000000     kernel32:KERNEL32.dll
 0000:fffbe000       .debug$S                   0000000180000000     kernel32:KERNEL32.dll
 0000:fffbe000       .debug$S                   0000000180000000     kernel32:KERNEL32.dll
 0000:fffbe000       .debug$S                   0000000180000000     kernel32:KERNEL32.dll
 0000:fffbe000       .debug$S                   0000000180000000     kernel32:KERNEL32.dll
 0000:fffbe000       .debug$S                   0000000180000000     kernel32:KERNEL32.dll
 0000:fffbe000       .debug$S                   0000000180000000     kernel32:KERNEL32.dll
 0000:fffbe000       .debug$S                   0000000180000000     kernel32:KERNEL32.dll
 0000:fffbe000       .debug$S                   0000000180000000     kernel32:KERNEL32.dll
 0000:fffbe000       .debug$S                   0000000180000000     kernel32:KERNEL32.dll
 0000:fffbe000       .debug$S                   0000000180000000     kernel32:KERNEL32.dll
 0000:fffbe000       .debug$S                   0000000180000000     kernel32:KERNEL32.dll
 0000:fffbe000       .debug$S                   0000000180000000     kernel32:KERNEL32.dll
 0000:fffbe000       .debug$S                   0000000180000000     kernel32:KERNEL32.dll
 0000:fffbe000       .debug$S                   0000000180000000     kernel32:KERNEL32.dll
 0000:fffbe000       .debug$S                   0000000180000000     kernel32:KERNEL32.dll
 0000:fffbe000       .debug$S                   0000000180000000     kernel32:KERNEL32.dll
 0000:fffbe000       .debug$S                   0000000180000000     kernel32:KERNEL32.dll
 0000:fffbe000       .debug$S                   0000000180000000     kernel32:KERNEL32.dll
 0000:fffbe000       .debug$S                   0000000180000000     kernel32:KERNEL32.dll
 0000:fffbe000       .debug$S                   0000000180000000     kernel32:KERNEL32.dll
 0000:fffbe000       .debug$S                   0000000180000000     kernel32:KERNEL32.dll
 0000:fffbe000       .debug$S                   0000000180000000     kernel32:KERNEL32.dll
 0000:fffbe000       .debug$S                   0000000180000000     kernel32:KERNEL32.dll
 0000:fffbe000       .debug$S                   0000000180000000     kernel32:KERNEL32.dll
 0000:fffbe000       .debug$S                   0000000180000000     kernel32:KERNEL32.dll
 0000:fffbe000       .debug$S                   0000000180000000     kernel32:KERNEL32.dll
 0000:fffbe000       .debug$S                   0000000180000000     kernel32:KERNEL32.dll
 0000:fffbe000       .debug$S                   0000000180000000     kernel32:KERNEL32.dll
 0000:fffbe000       .debug$S                   0000000180000000     kernel32:KERNEL32.dll
 0000:fffbe000       .debug$S                   0000000180000000     kernel32:KERNEL32.dll
 0000:fffbe000       .debug$S                   0000000180000000     kernel32:KERNEL32.dll
 0000:fffbe000       .debug$S                   0000000180000000     kernel32:KERNEL32.dll
 0000:fffbe000       .debug$S                   0000000180000000     kernel32:KERNEL32.dll
 0000:fffbe000       .debug$S                   0000000180000000     kernel32:KERNEL32.dll
 0000:fffbe000       .debug$S                   0000000180000000     kernel32:KERNEL32.dll
 0000:fffbe000       .debug$S                   0000000180000000     kernel32:KERNEL32.dll
 0000:fffbe000       .debug$S                   0000000180000000     kernel32:KERNEL32.dll
 0000:fffbe000       .debug$S                   0000000180000000     kernel32:KERNEL32.dll
 0000:fffbe000       .debug$S                   0000000180000000     kernel32:KERNEL32.dll
 0000:fffbe000       .debug$S                   0000000180000000     kernel32:KERNEL32.dll
 0000:fffbe000       .debug$S                   0000000180000000     kernel32:KERNEL32.dll
 0000:fffbe000       .debug$S                   0000000180000000     kernel32:KERNEL32.dll
 0000:fffbe000       .debug$S                   0000000180000000     kernel32:KERNEL32.dll
 0000:fffbe000       .debug$S                   0000000180000000     kernel32:KERNEL32.dll
 0000:fffbe000       .debug$S                   0000000180000000     kernel32:KERNEL32.dll
 0000:fffbe000       .debug$S                   0000000180000000     kernel32:KERNEL32.dll
 0000:fffbe000       .debug$S                   0000000180000000     kernel32:KERNEL32.dll
 0000:fffbe000       .debug$S                   0000000180000000     kernel32:KERNEL32.dll
 0000:fffbe000       .debug$S                   0000000180000000     kernel32:KERNEL32.dll
 0000:fffbe000       .debug$S                   0000000180000000     kernel32:KERNEL32.dll
 0000:fffbe000       .debug$S                   0000000180000000     kernel32:KERNEL32.dll
 0000:fffbe000       .debug$S                   0000000180000000     kernel32:KERNEL32.dll
 0000:fffbe000       .debug$S                   0000000180000000     kernel32:KERNEL32.dll
 0000:fffbe000       .debug$S                   0000000180000000     kernel32:KERNEL32.dll
 0000:fffbe000       .debug$S                   0000000180000000     kernel32:KERNEL32.dll
 0000:fffbe000       .debug$S                   0000000180000000     kernel32:KERNEL32.dll
 0000:fffbe000       .debug$S                   0000000180000000     kernel32:KERNEL32.dll
 0000:fffbe000       .debug$S                   0000000180000000     kernel32:KERNEL32.dll
 0000:fffbe000       .debug$S                   0000000180000000     kernel32:KERNEL32.dll
 0000:fffbe000       .debug$S                   0000000180000000     kernel32:KERNEL32.dll
 0000:fffbe000       .debug$S                   0000000180000000     kernel32:KERNEL32.dll
 0000:fffbe000       .debug$S                   0000000180000000     kernel32:KERNEL32.dll
 0000:fffbe000       .debug$S                   0000000180000000     kernel32:KERNEL32.dll
 0000:fffbe000       .debug$S                   0000000180000000     kernel32:KERNEL32.dll
 0000:fffbe000       .debug$S                   0000000180000000     kernel32:KERNEL32.dll
 0000:fffbe000       .debug$S                   0000000180000000     kernel32:KERNEL32.dll
 0000:fffbe000       .debug$S                   0000000180000000     kernel32:KERNEL32.dll
 0000:fffbe000       .debug$S                   0000000180000000     kernel32:KERNEL32.dll
 0000:fffbe000       .debug$S                   0000000180000000     kernel32:KERNEL32.dll
 0000:fffbe000       .debug$S                   0000000180000000     kernel32:KERNEL32.dll
 0000:fffbe000       .debug$S                   0000000180000000     kernel32:KERNEL32.dll
 0000:fffbe000       .debug$S                   0000000180000000     kernel32:KERNEL32.dll
 0000:fffbe000       .debug$S                   0000000180000000     kernel32:KERNEL32.dll
 0000:fffbe000       .debug$S                   0000000180000000     kernel32:KERNEL32.dll
 0000:fffbe000       .debug$S                   0000000180000000     kernel32:KERNEL32.dll
 0000:fffbe000       .debug$S                   0000000180000000     kernel32:KERNEL32.dll
 0000:fffbe000       .debug$S                   0000000180000000     kernel32:KERNEL32.dll
 0000:fffbe000       .debug$S                   0000000180000000     kernel32:KERNEL32.dll
 0000:fffbe000       .debug$S                   0000000180000000     kernel32:KERNEL32.dll
 0000:fffbe000       .debug$S                   0000000180000000     kernel32:KERNEL32.dll
 0000:fffbe000       .debug$S                   0000000180000000     kernel32:KERNEL32.dll
 0000:fffbe000       .debug$S                   0000000180000000     kernel32:KERNEL32.dll
 0000:fffbe000       .debug$S                   0000000180000000     kernel32:KERNEL32.dll
 0000:fffbe000       .debug$S                   0000000180000000     kernel32:KERNEL32.dll
 0000:fffbe000       .debug$S                   0000000180000000     kernel32:KERNEL32.dll
 0000:fffbe000       .debug$S                   0000000180000000     kernel32:KERNEL32.dll
 0000:fffbe000       .debug$S                   0000000180000000     kernel32:KERNEL32.dll
 0000:fffbe000       .debug$S                   0000000180000000     kernel32:KERNEL32.dll
 0000:fffbe000       .debug$S                   0000000180000000     kernel32:KERNEL32.dll
 0000:fffbe000       .debug$S                   0000000180000000     kernel32:KERNEL32.dll
 0000:fffbe000       .debug$S                   0000000180000000     kernel32:KERNEL32.dll
 0000:fffbe000       .debug$S                   0000000180000000     kernel32:KERNEL32.dll
 0000:fffbe000       .debug$S                   0000000180000000     kernel32:KERNEL32.dll
 0000:fffbe000       .debug$S                   0000000180000000     kernel32:KERNEL32.dll
 0000:fffbe000       .debug$S                   0000000180000000     kernel32:KERNEL32.dll
 0000:fffbe000       .debug$S                   0000000180000000     kernel32:KERNEL32.dll
 0000:fffbe000       .debug$S                   0000000180000000     kernel32:KERNEL32.dll
 0000:fffbe000       .debug$S                   0000000180000000     kernel32:KERNEL32.dll
 0000:fffbe000       .debug$S                   0000000180000000     kernel32:KERNEL32.dll
 0000:fffbe000       .debug$S                   0000000180000000     kernel32:KERNEL32.dll
 0000:fffbe000       .debug$S                   0000000180000000     kernel32:KERNEL32.dll
 0000:fffbe000       .debug$S                   0000000180000000     kernel32:KERNEL32.dll
 0000:fffbe000       .debug$S                   0000000180000000     kernel32:KERNEL32.dll
 0000:fffbe000       .debug$S                   0000000180000000     kernel32:KERNEL32.dll
 0000:fffbe000       .debug$S                   0000000180000000     kernel32:KERNEL32.dll
 0000:fffbe000       .debug$S                   0000000180000000     kernel32:KERNEL32.dll
 0000:fffbe000       .debug$S                   0000000180000000     kernel32:KERNEL32.dll
 0000:fffbe000       .debug$S                   0000000180000000     kernel32:KERNEL32.dll
 0000:fffbe000       .debug$S                   0000000180000000     kernel32:KERNEL32.dll
 0000:fffbe000       .debug$S                   0000000180000000     kernel32:KERNEL32.dll
 0000:fffbe000       .debug$S                   0000000180000000     kernel32:KERNEL32.dll
 0000:fffbe000       .debug$S                   0000000180000000     kernel32:KERNEL32.dll
 0000:fffbe000       .debug$S                   0000000180000000     kernel32:KERNEL32.dll
 0000:fffbe000       .debug$S                   0000000180000000     ole32:ole32.dll
 0000:fffbe000       .debug$S                   0000000180000000     ole32:ole32.dll
 0000:fffbe000       .debug$S                   0000000180000000     ole32:ole32.dll
 0000:fffbe000       .debug$S                   0000000180000000     ole32:ole32.dll
 0000:fffbe000       .debug$S                   0000000180000000     ole32:ole32.dll
 0000:fffbe000       .debug$S                   0000000180000000     ole32:ole32.dll
 0000:fffbe000       .debug$S                   0000000180000000     ole32:ole32.dll
 0000:fffbe000       .debug$S                   0000000180000000     ole32:ole32.dll
 0000:fffbe000       .debug$S                   0000000180000000     ole32:ole32.dll
 0000:fffbe000       .debug$S                   0000000180000000     ole32:ole32.dll
 0000:fffbe000       .debug$S                   0000000180000000     ole32:ole32.dll
 0000:fffbe000       .debug$S                   0000000180000000     ole32:ole32.dll
 0000:fffbe000       .debug$S                   0000000180000000     ole32:ole32.dll
 0000:fffbe000       .debug$S                   0000000180000000     ole32:ole32.dll
 0000:fffbe000       .debug$S                   0000000180000000     oleaut32:OLEAUT32.dll
 0000:fffbe000       .debug$S                   0000000180000000     oleaut32:OLEAUT32.dll
 0000:fffbe000       .debug$S                   0000000180000000     oleaut32:OLEAUT32.dll
 0000:fffbe000       .debug$S                   0000000180000000     oleaut32:OLEAUT32.dll
 0000:fffbe000       .debug$S                   0000000180000000     oleaut32:OLEAUT32.dll
 0000:fffbe000       .debug$S                   0000000180000000     oleaut32:OLEAUT32.dll
 0000:fffbe000       .debug$S                   0000000180000000     oleaut32:OLEAUT32.dll
 0000:fffbe000       .debug$S                   0000000180000000     oleaut32:OLEAUT32.dll
 0000:fffbe000       .debug$S                   0000000180000000     oleaut32:OLEAUT32.dll
 0000:fffbe000       .debug$S                   0000000180000000     oleaut32:OLEAUT32.dll
 0000:fffbe000       .debug$S                   0000000180000000     oleaut32:OLEAUT32.dll
 0000:fffbe000       .debug$S                   0000000180000000     oleaut32:OLEAUT32.dll
 0000:fffbe000       .debug$S                   0000000180000000     oleaut32:OLEAUT32.dll
 0000:fffbe000       .debug$S                   0000000180000000     oleaut32:OLEAUT32.dll
 0000:fffbe000       .debug$S                   0000000180000000     oleaut32:OLEAUT32.dll
 0000:fffbe000       .debug$S                   0000000180000000     oleaut32:OLEAUT32.dll
 0000:fffbe000       .debug$S                   0000000180000000     user32:USER32.dll
 0000:fffbe000       .debug$S                   0000000180000000     user32:USER32.dll
 0000:fffbe000       .debug$S                   0000000180000000     user32:USER32.dll
 0000:fffbe000       .debug$S                   0000000180000000     user32:USER32.dll
 0000:fffbe000       .debug$S                   0000000180000000     user32:USER32.dll
 0000:fffbe000       .debug$S                   0000000180000000     user32:USER32.dll
 0000:fffbe000       .debug$S                   0000000180000000     user32:USER32.dll
 0000:fffbe000       .debug$S                   0000000180000000     user32:USER32.dll
 0000:fffbe000       .debug$S                   0000000180000000     user32:USER32.dll
 0000:fffbe000       .debug$S                   0000000180000000     user32:USER32.dll
 0000:fffbe000       .debug$S                   0000000180000000     user32:USER32.dll
 0000:fffbe000       .debug$S                   0000000180000000     user32:USER32.dll
 0000:fffbe000       .debug$S                   0000000180000000     user32:USER32.dll
 0000:fffbe000       .debug$S                   0000000180000000     user32:USER32.dll
 0000:fffbe000       .debug$S                   0000000180000000     user32:USER32.dll
 0000:fffbe000       .debug$S                   0000000180000000     user32:USER32.dll
 0000:fffbe000       .debug$S                   0000000180000000     user32:USER32.dll
 0000:fffbe000       .debug$S                   0000000180000000     user32:USER32.dll
 0000:fffbe000       .debug$S                   0000000180000000     user32:USER32.dll
 0000:fffbe000       .debug$S                   0000000180000000     user32:USER32.dll
 0000:fffbe000       .debug$S                   0000000180000000     user32:USER32.dll
 0000:fffbe000       .debug$S                   0000000180000000     user32:USER32.dll
 0000:fffbe000       .debug$S                   0000000180000000     user32:USER32.dll
 0000:fffbe000       .debug$S                   0000000180000000     user32:USER32.dll
 0000:fffbe000       .debug$S                   0000000180000000     user32:USER32.dll
 0000:fffbe000       .debug$S                   0000000180000000     user32:USER32.dll
 0000:fffbe000       .debug$S                   0000000180000000     user32:USER32.dll
 0000:fffbe000       .debug$S                   0000000180000000     user32:USER32.dll
 0000:fffbe000       .debug$S                   0000000180000000     user32:USER32.dll
 0000:fffbe000       .debug$S                   0000000180000000     user32:USER32.dll
 0000:fffbe000       .debug$S                   0000000180000000     user32:USER32.dll
 0000:fffbe000       .debug$S                   0000000180000000     user32:USER32.dll
 0000:fffbe000       .debug$S                   0000000180000000     user32:USER32.dll
 0000:fffbe000       .debug$S                   0000000180000000     user32:USER32.dll
 0000:fffbe000       .debug$S                   0000000180000000     user32:USER32.dll
 0001:00000000       ??__E_AtlComModule@ATL@@YAXXZ 0000000180001000 f   OposVariant.obj
 0001:00000020       ??__E_AtlWinModule@ATL@@YAXXZ 0000000180001020 f   OposVariant.obj
 0001:00000040       ??__E?pConnMap@?$IConnectionPointContainerImpl@VCOPOSPOSPower@@@ATL@@0PEBU_ATL_CONNMAP_ENTRY@2@EB@@YAXXZ 0000000180001040 f   POSPower.obj
 0001:00000058       ??__E_Module@@YAXXZ        0000000180001058 f   POSPower.obj
 0001:00000094       ??__E_AtlBaseModule@ATL@@YAXXZ 0000000180001094 f   atls:atlbase.obj
 0001:0000dfe0       ?__scrt_initialize_thread_safe_statics@@YAHXZ 000000018000efe0 f   LIBCMT:thread_safe_statics.obj
 0001:0000e0b0       ?__scrt_uninitialize_thread_safe_statics@@YAXXZ 000000018000f0b0 f   LIBCMT:thread_safe_statics.obj
 0001:0000e400       capture_current_context    000000018000f400 f   LIBCMT:gs_report.obj
 0001:0000e470       capture_previous_context   000000018000f470 f   LIBCMT:gs_report.obj
 0001:0000e610       $$000000                   000000018000f610     LIBCMT:chkstk.obj
 0001:0000e670       $$000000                   000000018000f670     LIBCMT:amdsecgs.obj
 0001:0000e6a0       ?dllmain_crt_dispatch@@YAHQEAUHINSTANCE__@@KQEAX@Z 000000018000f6a0 f   LIBCMT:dll_dllmain.obj
 0001:0000e6f0       ?dllmain_crt_process_attach@@YAHQEAUHINSTANCE__@@QEAX@Z 000000018000f6f0 f   LIBCMT:dll_dllmain.obj
 0001:0000e808       ?dllmain_crt_process_detach@@YAH_N@Z 000000018000f808 f   LIBCMT:dll_dllmain.obj
 0001:0000e88c       ?dllmain_dispatch@@YAHQEAUHINSTANCE__@@KQEAX@Z 000000018000f88c f   LIBCMT:dll_dllmain.obj
 0001:0000f158       ??$GetProcAddressAll@P6AP6A_JPEAUHWND__@@I_K_J@ZPEAUAtlThunkData_t@@@Z@@YAP6AP6A_JPEAUHWND__@@I_K_J@ZPEAUAtlThunkData_t@@@ZPEAP6AP6A_J0I12@Z3@Z@Z 0000000180010158 f   atls:atlthunk.obj
 0001:0000f158       ??$GetProcAddressAll@P6APEAUAtlThunkData_t@@XZ@@YAP6APEAUAtlThunkData_t@@XZPEAP6APEAU0@XZ@Z 0000000180010158 f   atls:atlthunk.obj
 0001:0000f158       ??$GetProcAddressAll@P6AXPEAUAtlThunkData_t@@@Z@@YAP6AXPEAUAtlThunkData_t@@@ZPEAP6AX0@Z@Z 0000000180010158 f   atls:atlthunk.obj
 0001:0000f158       ??$GetProcAddressAll@P6AXPEAUAtlThunkData_t@@PEAX_K@Z@@YAP6AXPEAUAtlThunkData_t@@PEAX_K@ZPEAP6AX012@Z@Z 0000000180010158 f   atls:atlthunk.obj
 0001:0000f330       ?__InitializeThunkPool@@YAHXZ 0000000180010330 f   atls:atlthunk.obj
 0001:0000f7d0       $$000000                   00000001800107d0     libvcruntime:memcmp.obj
 0001:0000f8b0       $$000000                   00000001800108b0     libvcruntime:memcpy.obj
 0001:0000ff60       $$000000                   0000000180010f60     libvcruntime:memset.obj
 0001:00011570       $$000000                   0000000180012570     libvcruntime:notify.obj
 0001:000117f0       ??$BuildCatchObjectHelperInternal@V__FrameHandler3@@@@YAHPEAUEHExceptionRecord@@PEAXPEBU_s_HandlerType@@PEBU_s_CatchableType@@@Z 00000001800127f0 f   libvcruntime:frame.obj
 0001:000119f0       ??$BuildCatchObjectHelperInternal@V__FrameHandler4@@@@YAHPEAUEHExceptionRecord@@PEAXPEAUHandlerType4@FH4@@PEBU_s_CatchableType@@@Z 00000001800129f0 f   libvcruntime:frame.obj
 0001:00011bf4       ??$BuildCatchObjectInternal@V__FrameHandler3@@@@YAXPEAUEHExceptionRecord@@PEAXPEBU_s_HandlerType@@PEBU_s_CatchableType@@@Z 0000000180012bf4 f   libvcruntime:frame.obj
 0001:00011cb4       ??$BuildCatchObjectInternal@V__FrameHandler4@@@@YAXPEAUEHExceptionRecord@@PEAXPEAUHandlerType4@FH4@@PEBU_s_CatchableType@@@Z 0000000180012cb4 f   libvcruntime:frame.obj
 0001:00011d78       ??$CatchIt@V__FrameHandler3@@@@YAXPEAUEHExceptionRecord@@PEA_KPEAU_CONTEXT@@PEAU_xDISPATCHER_CONTEXT@@PEBU_s_FuncInfo@@PEBU_s_HandlerType@@PEBU_s_CatchableType@@PEBU_s_TryBlockMapEntry@@H1EE@Z 0000000180012d78 f   libvcruntime:frame.obj
 0001:00011e4c       ??$CatchIt@V__FrameHandler4@@@@YAXPEAUEHExceptionRecord@@PEA_KPEAU_CONTEXT@@PEAU_xDISPATCHER_CONTEXT@@PEAUFuncInfo4@FH4@@PEAUHandlerType4@4@PEBU_s_CatchableType@@PEAUTryBlockMapEntry4@4@H1EE@Z 0000000180012e4c f   libvcruntime:frame.obj
 0001:00011f20       ??$FindHandler@V__FrameHandler3@@@@YAXPEAUEHExceptionRecord@@PEA_KPEAU_CONTEXT@@PEAU_xDISPATCHER_CONTEXT@@PEBU_s_FuncInfo@@EH1@Z 0000000180012f20 f   libvcruntime:frame.obj
 0001:000123f8       ??$FindHandler@V__FrameHandler4@@@@YAXPEAUEHExceptionRecord@@PEA_KPEAU_CONTEXT@@PEAU_xDISPATCHER_CONTEXT@@PEAUFuncInfo4@FH4@@EH1@Z 00000001800133f8 f   libvcruntime:frame.obj
 0001:000128f4       ??$FindHandlerForForeignException@V__FrameHandler3@@@@YAXPEAUEHExceptionRecord@@PEA_KPEAU_CONTEXT@@PEAU_xDISPATCHER_CONTEXT@@PEBU_s_FuncInfo@@HH1@Z 00000001800138f4 f   libvcruntime:frame.obj
 0001:00012b10       ??$FindHandlerForForeignException@V__FrameHandler4@@@@YAXPEAUEHExceptionRecord@@PEA_KPEAU_CONTEXT@@PEAU_xDISPATCHER_CONTEXT@@PEAUFuncInfo4@FH4@@HH1@Z 0000000180013b10 f   libvcruntime:frame.obj
 0001:00013cd0       ?ExFilterRethrow@@YAHPEAU_EXCEPTION_POINTERS@@PEAUEHExceptionRecord@@PEAH@Z 0000000180014cd0 f   libvcruntime:frame.obj
 0001:00013d58       ?ExFilterRethrowFH4@@YAHPEAU_EXCEPTION_POINTERS@@PEAUEHExceptionRecord@@HPEAH@Z 0000000180014d58 f   libvcruntime:frame.obj
 0001:000142a8       ?IsInExceptionSpec@@YAEPEAUEHExceptionRecord@@PEBU_s_ESTypeList@@@Z 00000001800152a8 f   libvcruntime:frame.obj
 0001:00014398       ?Is_bad_exception_allowed@@YAEPEBU_s_ESTypeList@@@Z 0000000180015398 f   libvcruntime:frame.obj
 0001:00014674       ?try_get_function@@YAPEAXW4function_id@?A0xbc0cc709@@QEBDQEBW4module_id@2@2@Z 0000000180015674 f   libvcruntime:winapi_downlevel.obj
 0001:00014960       $$000000                   0000000180015960     libvcruntime:handlers.obj
 0001:0001538c       ??$common_vsprintf@Vformat_validation_base@__crt_stdio_output@@_W@@YAH_KQEA_W0QEB_WAEAV__crt_cached_ptd_host@@QEAD@Z 000000018001638c f   libucrt:output.obj
 0001:00017adc       ??$?RV<lambda_d80eeec6fff315bfe5c115232f3240e3>@@AEAV<lambda_6e4b09c48022b2350581041d5f6b0c4c>@@V<lambda_2358e3775559c9db80273638284d5e45>@@@?$__crt_seh_guarded_call@X@@QEAAX$$QEAV<lambda_d80eeec6fff315bfe5c115232f3240e3>@@AEAV<lambda_6e4b09c48022b2350581041d5f6b0c4c>@@$$QEAV<lambda_2358e3775559c9db80273638284d5e45>@@@Z 0000000180018adc f   libucrt:exit.obj
 0001:00017b14       ??R<lambda_6e4b09c48022b2350581041d5f6b0c4c>@@QEBA@XZ 0000000180018b14 f   libucrt:exit.obj
 0001:00017be0       ?common_exit@@YAXHW4_crt_exit_cleanup_mode@@W4_crt_exit_return_mode@@@Z 0000000180018be0 f   libucrt:exit.obj
 0001:00017ca8       ?exit_or_terminate_process@@YAXI@Z 0000000180018ca8 f   libucrt:exit.obj
 0001:00017cdc       ?should_call_terminate_process@@YA_NXZ 0000000180018cdc f   libucrt:exit.obj
 0001:00017d0c       ?try_cor_exit_process@@YAXI@Z 0000000180018d0c f   libucrt:exit.obj
 0001:00017da8       ??$parse_command_line@D@@YAXPEADPEAPEAD0PEA_K2@Z 0000000180018da8 f   libucrt:argv_parsing.obj
 0001:00018150       ??$common_initialize_environment_nolock@D@@YAHXZ 0000000180019150 f   libucrt:environment_initialization.obj
 0001:000181c4       ??$create_environment@D@@YAQEAPEADQEAD@Z 00000001800191c4 f   libucrt:environment_initialization.obj
 0001:000182d4       ??$free_environment@D@@YAXQEAPEAD@Z 00000001800192d4 f   libucrt:environment_initialization.obj
 0001:000182d4       ??$free_environment@_W@@YAXQEAPEA_W@Z 00000001800192d4 f   libucrt:environment_initialization.obj
 0001:00018318       ??$uninitialize_environment_internal@D@@YAXAEAPEAPEAD@Z 0000000180019318 f   libucrt:environment_initialization.obj
 0001:00018334       ??$uninitialize_environment_internal@_W@@YAXAEAPEAPEA_W@Z 0000000180019334 f   libucrt:environment_initialization.obj
 0001:0001839c       ??$?RV<lambda_638799b9deba96c50f710eeac98168cd>@@AEAV<lambda_22ebabd17bc4fa466a2aca6d8deb888d>@@V<lambda_a6f7d7db0129f75315ebf26d50c089f1>@@@?$__crt_seh_guarded_call@H@@QEAAH$$QEAV<lambda_638799b9deba96c50f710eeac98168cd>@@AEAV<lambda_22ebabd17bc4fa466a2aca6d8deb888d>@@$$QEAV<lambda_a6f7d7db0129f75315ebf26d50c089f1>@@@Z 000000018001939c f   libucrt:onexit.obj
 0001:000183d8       ??$?RV<lambda_7777bce6b2f8c936911f934f8298dc43>@@AEAV<lambda_f03950bc5685219e0bcd2087efbe011e>@@V<lambda_3883c3dff614d5e0c5f61bb1ac94921c>@@@?$__crt_seh_guarded_call@H@@QEAAH$$QEAV<lambda_7777bce6b2f8c936911f934f8298dc43>@@AEAV<lambda_f03950bc5685219e0bcd2087efbe011e>@@$$QEAV<lambda_3883c3dff614d5e0c5f61bb1ac94921c>@@@Z 00000001800193d8 f   libucrt:onexit.obj
 0001:00018414       ??R<lambda_22ebabd17bc4fa466a2aca6d8deb888d>@@QEBAHXZ 0000000180019414 f   libucrt:onexit.obj
 0001:000185c4       ??R<lambda_f03950bc5685219e0bcd2087efbe011e>@@QEBAHXZ 00000001800195c4 f   libucrt:onexit.obj
 0001:000187a8       initialize_global_variables 00000001800197a8 f   libucrt:initialization.obj
 0001:000187bc       initialize_c               00000001800197bc f   libucrt:initialization.obj
 0001:000187e0       initialize_environment     00000001800197e0 f   libucrt:initialization.obj
 0001:000187e0       initialize_global_state_isolation 00000001800197e0 f   libucrt:initialization.obj
 0001:000187e0       report_memory_leaks        00000001800197e0 f   libucrt:initialization.obj
 0001:000187e0       uninitialize_c             00000001800197e0 f   libucrt:initialization.obj
 0001:000187e0       uninitialize_global_state_isolation 00000001800197e0 f   libucrt:initialization.obj
 0001:000187e4       uninitialize_environment   00000001800197e4 f   libucrt:initialization.obj
 0001:000187f4       initialize_pointers        00000001800197f4 f   libucrt:initialization.obj
 0001:00018834       uninitialize_vcruntime     0000000180019834 f   libucrt:initialization.obj
 0001:0001883c       uninitialize_allocated_memory 000000018001983c f   libucrt:initialization.obj
 0001:0001887c       uninitialize_allocated_io_buffers 000000018001987c f   libucrt:initialization.obj
 0001:00018b40       $$000000                   0000000180019b40     libucrt:strncmp.obj
 0001:00018c38       ??$?RV<lambda_0ae27a3a962d80f24befdcbee591983d>@@AEAV<lambda_8d0ee55de4b1038c4002e0adecdf1839>@@V<lambda_dc504788e8f1664fe9b84e20bfb512f2>@@@?$__crt_seh_guarded_call@X@@QEAAX$$QEAV<lambda_0ae27a3a962d80f24befdcbee591983d>@@AEAV<lambda_8d0ee55de4b1038c4002e0adecdf1839>@@$$QEAV<lambda_dc504788e8f1664fe9b84e20bfb512f2>@@@Z 0000000180019c38 f   libucrt:per_thread_data.obj
 0001:00018c78       ??$?RV<lambda_2d41944a1d46af3157314b8a01080d33>@@AEAV<lambda_8f455de75cd7d7f24b4096f044d8b9e6>@@V<lambda_aa500f224e6afead328df44964fe2772>@@@?$__crt_seh_guarded_call@X@@QEAAX$$QEAV<lambda_2d41944a1d46af3157314b8a01080d33>@@AEAV<lambda_8f455de75cd7d7f24b4096f044d8b9e6>@@$$QEAV<lambda_aa500f224e6afead328df44964fe2772>@@@Z 0000000180019c78 f   libucrt:per_thread_data.obj
 0001:00018cb8       ??$?RV<lambda_aa87e3671a710a21b5dc78c0bdf72e11>@@AEAV<lambda_92619d2358a28f41a33ba319515a20b9>@@V<lambda_6992ecaafeb10aed2b74cb1fae11a551>@@@?$__crt_seh_guarded_call@X@@QEAAX$$QEAV<lambda_aa87e3671a710a21b5dc78c0bdf72e11>@@AEAV<lambda_92619d2358a28f41a33ba319515a20b9>@@$$QEAV<lambda_6992ecaafeb10aed2b74cb1fae11a551>@@@Z 0000000180019cb8 f   libucrt:per_thread_data.obj
 0001:00018d00       ??$?RV<lambda_f2e299630e499de9f9a165e60fcd3db5>@@AEAV<lambda_2ae9d31cdba2644fcbeaf08da7c24588>@@V<lambda_40d01ff24d0e7b3814fdbdcee8eab3c7>@@@?$__crt_seh_guarded_call@X@@QEAAX$$QEAV<lambda_f2e299630e499de9f9a165e60fcd3db5>@@AEAV<lambda_2ae9d31cdba2644fcbeaf08da7c24588>@@$$QEAV<lambda_40d01ff24d0e7b3814fdbdcee8eab3c7>@@@Z 0000000180019d00 f   libucrt:per_thread_data.obj
 0001:00018d60       ?construct_ptd_array@@YAXQEAU__acrt_ptd@@@Z 0000000180019d60 f   libucrt:per_thread_data.obj
 0001:00018e30       ?destroy_fls@@YAXPEAX@Z    0000000180019e30 f   libucrt:per_thread_data.obj
 0001:00018e50       ?destroy_ptd_array@@YAXQEAU__acrt_ptd@@@Z 0000000180019e50 f   libucrt:per_thread_data.obj
 0001:00018f48       ?replace_current_thread_locale_nolock@@YAXQEAU__acrt_ptd@@QEAU__crt_locale_data@@@Z 0000000180019f48 f   libucrt:per_thread_data.obj
 0001:00019354       ??$?RV<lambda_410d79af7f07d98d83a3f525b3859a53>@@AEAV<lambda_3e16ef9562a7dcce91392c22ab16ea36>@@V<lambda_38119f0e861e05405d8a144b9b982f0a>@@@?$__crt_seh_guarded_call@X@@QEAAX$$QEAV<lambda_410d79af7f07d98d83a3f525b3859a53>@@AEAV<lambda_3e16ef9562a7dcce91392c22ab16ea36>@@$$QEAV<lambda_38119f0e861e05405d8a144b9b982f0a>@@@Z 000000018001a354 f   libucrt:wsetlocale.obj
 0001:00019590       ?try_get_function@@YAPEAXW4function_id@?A0x391cf84c@@QEBDQEBW4module_id@2@2@Z 000000018001a590 f   libucrt:winapi_thunks.obj
 0001:00019d2c       ?fp_format_a@@YAHQEBNPEAD_KQEAD2H_NIW4__acrt_rounding_mode@@AEAV__crt_cached_ptd_host@@@Z 000000018001ad2c f   libucrt:cvt.obj
 0001:0001a0e0       ?fp_format_e@@YAHQEBNQEAD_K12H_NIW4__acrt_rounding_mode@@AEAV__crt_cached_ptd_host@@@Z 000000018001b0e0 f   libucrt:cvt.obj
 0001:0001a1dc       ?fp_format_e_internal@@YAHQEAD_KH_NIQEAU_strflt@@2AEAV__crt_cached_ptd_host@@@Z 000000018001b1dc f   libucrt:cvt.obj
 0001:0001a3c0       ?fp_format_f@@YAHQEBNQEAD_K12HW4__acrt_rounding_mode@@AEAV__crt_cached_ptd_host@@@Z 000000018001b3c0 f   libucrt:cvt.obj
 0001:0001a498       ?fp_format_f_internal@@YAHQEAD_KHQEAU_strflt@@_NAEAV__crt_cached_ptd_host@@@Z 000000018001b498 f   libucrt:cvt.obj
 0001:0001a5f0       ?fp_format_g@@YAHQEBNQEAD_K12H_NIW4__acrt_rounding_mode@@AEAV__crt_cached_ptd_host@@@Z 000000018001b5f0 f   libucrt:cvt.obj
 0001:0001a744       ?should_round_up@@YA_NQEBN_KFW4__acrt_rounding_mode@@@Z 000000018001b744 f   libucrt:cvt.obj
 0001:0001ae90       ?initialize_inherited_file_handles_nolock@@YAXXZ 000000018001be90 f   libucrt:ioinit.obj
 0001:0001af80       ?initialize_stdio_handles_nolock@@YAXXZ 000000018001bf80 f   libucrt:ioinit.obj
 0001:0001b1f8       ?<lambda_invoker_cdecl>@<lambda_a1ce4c8ae42411fd470c77163914f50e>@@CAHPEBX0@Z 000000018001c1f8 f   libucrt:argv_wildcards.obj
 0001:0001b514       ??$common_expand_argv_wildcards@D@@YAHQEAPEADQEAPEAPEAD@Z 000000018001c514 f   libucrt:argv_wildcards.obj
 0001:0001b758       ??$copy_and_add_argument_to_buffer@D@@YAHQEBD0_KAEAV?$argument_list@D@?A0x5f5c8891@@@Z 000000018001c758 f   libucrt:argv_wildcards.obj
 0001:0001b8e0       ??$expand_argument_wildcards@D@@YAHQEAD0AEAV?$argument_list@D@?A0x5f5c8891@@@Z 000000018001c8e0 f   libucrt:argv_wildcards.obj
 0001:0001bf14       ??$?RV<lambda_efdfa57d1f175319df784efa44bb7b81>@@AEAV<lambda_5f0a4c1567f8adc6734073e5d1e1b35c>@@V<lambda_2e8a7d3640ea6ccb4c2413664c2db6fd>@@@?$__crt_seh_guarded_call@X@@QEAAX$$QEAV<lambda_efdfa57d1f175319df784efa44bb7b81>@@AEAV<lambda_5f0a4c1567f8adc6734073e5d1e1b35c>@@$$QEAV<lambda_2e8a7d3640ea6ccb4c2413664c2db6fd>@@@Z 000000018001cf14 f   libucrt:mbctype.obj
 0001:0001c0e4       ?getSystemCP@@YAHH@Z       000000018001d0e4 f   libucrt:mbctype.obj
 0001:0001c164       ?setSBCS@@YAXPEAU__crt_multibyte_data@@@Z 000000018001d164 f   libucrt:mbctype.obj
 0001:0001c1fc       ?setSBUpLow@@YAXPEAU__crt_multibyte_data@@@Z 000000018001d1fc f   libucrt:mbctype.obj
 0001:0001c3e4       ?setmbcp_internal@@YAHH_NQEAU__acrt_ptd@@QEAPEAU__crt_multibyte_data@@@Z 000000018001d3e4 f   libucrt:mbctype.obj
 0001:0001c654       ?update_thread_multibyte_data_internal@@YAPEAU__crt_multibyte_data@@QEAU__acrt_ptd@@QEAPEAU1@@Z 000000018001d654 f   libucrt:mbctype.obj
 0001:0001ca48       ?x_ismbbtype_l@@YAHPEAU__crt_locale_pointers@@IHH@Z 000000018001da48 f   libucrt:ismbbyte.obj
 0001:0001ce18       ??$?RV<lambda_450d765d439847d4c735a33c368b5fc0>@@AEAV<lambda_44731a7d0e6d81c3e6aa82d741081786>@@V<lambda_601a2a7da3b7a96e9554ac7215c4b07c>@@@?$__crt_seh_guarded_call@P6AXH@Z@@QEAAP6AXH@Z$$QEAV<lambda_450d765d439847d4c735a33c368b5fc0>@@AEAV<lambda_44731a7d0e6d81c3e6aa82d741081786>@@$$QEAV<lambda_601a2a7da3b7a96e9554ac7215c4b07c>@@@Z 000000018001de18 f   libucrt:signal.obj
 0001:0001d190       ??$?RV<lambda_842d9ff0dc9ef11c61343bbaebe7f885>@@AEAV<lambda_c5860995281e5c4ce005b3de8f5874ee>@@V<lambda_d90129c13df834fdcbf8d2b88dafcf2d>@@@?$__crt_seh_guarded_call@X@@QEAAX$$QEAV<lambda_842d9ff0dc9ef11c61343bbaebe7f885>@@AEAV<lambda_c5860995281e5c4ce005b3de8f5874ee>@@$$QEAV<lambda_d90129c13df834fdcbf8d2b88dafcf2d>@@@Z 000000018001e190 f   libucrt:fflush.obj
 0001:0001d22c       ??$?RV<lambda_886d6c58226a84441f68b9f2b8217b83>@@AEAV<lambda_ab61a845afdef5b7c387490eaf3616ee>@@V<lambda_f7f22ab5edc0698d5f6905b0d3f44752>@@@?$__crt_seh_guarded_call@X@@QEAAX$$QEAV<lambda_886d6c58226a84441f68b9f2b8217b83>@@AEAV<lambda_ab61a845afdef5b7c387490eaf3616ee>@@$$QEAV<lambda_f7f22ab5edc0698d5f6905b0d3f44752>@@@Z 000000018001e22c f   libucrt:fflush.obj
 0001:0001d30c       ?common_flush_all@@YAH_N@Z 000000018001e30c f   libucrt:fflush.obj
 0001:0001da58       ?free_crt_array_internal@@YAXQEAPEBX_K@Z 000000018001ea58 f   libucrt:inittime.obj
 0001:0001f63c       memcpy_s                   000000018002063c f   libucrt:cfout.obj
 0001:00020240       fallbackMethod             0000000180021240 f   libucrt:strpbrk.obj
 0001:000205ec       $LN78                      00000001800215ec     libucrt:strpbrk.obj
 0001:00020628       $LN77                      0000000180021628     libucrt:strpbrk.obj
 0001:00020668       $LN76                      0000000180021668     libucrt:strpbrk.obj
 0001:00020744       ?__acrt_LCMapStringA_stat@@YAHPEAU__crt_locale_pointers@@PEB_WKPEBDHPEADHHH@Z 0000000180021744 f   libucrt:lcmapstringa.obj
 0001:00020afc       ?initialize_multibyte@@YAHXZ 0000000180021afc f   libucrt:multibyte_initializer.obj
 0001:00020b14       ??$?RV<lambda_a37b2b86f63e897a80ea819b0eb08c01>@@AEAV<lambda_38ce7e780aa69e748d6df282ebc68efe>@@V<lambda_99fb1378e971ab6e7edea83e3a7a83a2>@@@?$__crt_seh_guarded_call@H@@QEAAH$$QEAV<lambda_a37b2b86f63e897a80ea819b0eb08c01>@@AEAV<lambda_38ce7e780aa69e748d6df282ebc68efe>@@$$QEAV<lambda_99fb1378e971ab6e7edea83e3a7a83a2>@@@Z 0000000180021b14 f   libucrt:commit.obj
 0001:00020c34       ?write_double_translated_ansi_nolock@@YA?AUwrite_result@?A0x17268360@@HQEBDIAEAV__crt_cached_ptd_host@@@Z 0000000180021c34 f   libucrt:write.obj
 0001:000210c0       ?write_text_ansi_nolock@@YA?AUwrite_result@?A0x17268360@@HQEBDI@Z 00000001800220c0 f   libucrt:write.obj
 0001:000211c4       ?write_text_utf16le_nolock@@YA?AUwrite_result@?A0x17268360@@HQEBDI@Z 00000001800221c4 f   libucrt:write.obj
 0001:000212e0       ?write_text_utf8_nolock@@YA?AUwrite_result@?A0x17268360@@HQEBDI@Z 00000001800222e0 f   libucrt:write.obj
 0001:00021ac0       $$000000                   0000000180022ac0     libucrt:log10.obj
 0001:0002255c       ?_fclose_internal@@YAHQEAU_iobuf@@AEAV__crt_cached_ptd_host@@@Z 000000018002355c f   libucrt:fclose.obj
 0001:000225d8       ?_fclose_nolock_internal@@YAHQEAU_iobuf@@AEAV__crt_cached_ptd_host@@@Z 00000001800235d8 f   libucrt:fclose.obj
 0001:00022714       ??$common_lseek_nolock@_J@@YA_JH_JHAEAV__crt_cached_ptd_host@@@Z 0000000180023714 f   libucrt:lseek.obj
 0001:0002289c       common_control87           000000018002389c f   libucrt:ieee.obj
 0001:00022b5c       _call_matherr              0000000180023b5c f   libucrt:libm_error.obj
 0001:00022bc4       _exception_enabled         0000000180023bc4 f   libucrt:libm_error.obj
 0001:00022e60       _log_special_common        0000000180023e60 f   libucrt:log_special.obj
 0001:00022ef8       ??$?RV<lambda_ad8af0d99a0adf03d037d7dffe354bb5>@@AEAV<lambda_c9ba49e555ba839a7b07aa3fbecb7617>@@V<lambda_2f1ebd5d68526518146ae959c9e734c8>@@@?$__crt_seh_guarded_call@H@@QEAAH$$QEAV<lambda_ad8af0d99a0adf03d037d7dffe354bb5>@@AEAV<lambda_c9ba49e555ba839a7b07aa3fbecb7617>@@$$QEAV<lambda_2f1ebd5d68526518146ae959c9e734c8>@@@Z 0000000180023ef8 f   libucrt:close.obj
 0001:00023250       $$000000                   0000000180024250     libucrt:fpsr.obj
 0001:000239d0       $$000000                   00000001800249d0     LIBCMT:guard_dispatch.obj
 0001:000239f0       $$000000                   00000001800249f0     LIBCMT:guard_xfg_dispatch.obj
 0001:00023a10       ?filt$0@?0??_AtlVerifyStackAvailable@_ATL_SAFE_ALLOCA_IMPL@ATL@@YA_N_K@Z@4HA 0000000180024a10 f   POSPower.obj
 0001:00023a31       __scrt_is_nonwritable_in_current_image$filt$0 0000000180024a31 f   LIBCMT:utility.obj
 0001:00023a49       ?catch$0@?0???2@YAPEAX_KAEBUnothrow_t@std@@@Z@4HA 0000000180024a49 f   LIBCMT:new_scalar_nothrow.obj
 0001:00023a56       __catch$??2@YAPEAX_KAEBUnothrow_t@std@@@Z$0 0000000180024a56 f   LIBCMT:new_scalar_nothrow.obj
 0001:00023a67       ?fin$0@?0??dllmain_crt_process_attach@@YAHQEAUHINSTANCE__@@QEAX@Z@4HA 0000000180024a67 f   LIBCMT:dll_dllmain.obj
 0001:00023a7e       ?fin$0@?0??dllmain_crt_process_detach@@YAH_N@Z@4HA 0000000180024a7e f   LIBCMT:dll_dllmain.obj
 0001:00023a97       ?fin$1@?0??dllmain_crt_process_detach@@YAH_N@Z@4HA 0000000180024a97 f   LIBCMT:dll_dllmain.obj
 0001:00023aab       ?filt$0@?0??dllmain_dispatch@@YAHQEAUHINSTANCE__@@KQEAX@Z@4HA 0000000180024aab f   LIBCMT:dll_dllmain.obj
 0001:00023ae1       ?filt$0@?0???$_CallSETranslator@V__FrameHandler3@@@@YAHPEAUEHExceptionRecord@@PEA_KPEAU_CONTEXT@@PEAU_xDISPATCHER_CONTEXT@@PEBU_s_FuncInfo@@K1H@Z@4HA 0000000180024ae1 f   libvcruntime:risctrnsctrl.obj
 0001:00023b72       ?filt$0@?0???$_CallSETranslator@V__FrameHandler4@@@@YAHPEAUEHExceptionRecord@@PEA_KPEAU_CONTEXT@@PEAU_xDISPATCHER_CONTEXT@@PEAUFuncInfo4@FH4@@K1H@Z@4HA 0000000180024b72 f   libvcruntime:risctrnsctrl.obj
 0001:00023c11       __DestructExceptionObject$filt$0 0000000180024c11 f   libvcruntime:ehhelpers.obj
 0001:00023ca7       ?filt$0@?0??CxxCallCatchBlock@__FrameHandler3@@SAPEAXPEAU_EXCEPTION_RECORD@@@Z@4HA 0000000180024ca7 f   libvcruntime:frame.obj
 0001:00023ccc       ?fin$1@?0??CxxCallCatchBlock@__FrameHandler3@@SAPEAXPEAU_EXCEPTION_RECORD@@@Z@4HA 0000000180024ccc f   libvcruntime:frame.obj
 0001:00023d52       ?filt$0@?0??CxxCallCatchBlock@__FrameHandler4@@SAPEAXPEAU_EXCEPTION_RECORD@@@Z@4HA 0000000180024d52 f   libvcruntime:frame.obj
 0001:00023d81       ?fin$1@?0??CxxCallCatchBlock@__FrameHandler4@@SAPEAXPEAU_EXCEPTION_RECORD@@@Z@4HA 0000000180024d81 f   libvcruntime:frame.obj
 0001:00023e12       ?filt$0@?0??FrameUnwindToState@__FrameHandler3@@SAXPEA_KPEAU_xDISPATCHER_CONTEXT@@PEBU_s_FuncInfo@@H@Z@4HA 0000000180024e12 f   libvcruntime:frame.obj
 0001:00023e28       ?fin$1@?0??FrameUnwindToState@__FrameHandler3@@SAXPEA_KPEAU_xDISPATCHER_CONTEXT@@PEBU_s_FuncInfo@@H@Z@4HA 0000000180024e28 f   libvcruntime:frame.obj
 0001:00023e4b       ?filt$0@?0??FrameUnwindToState@__FrameHandler4@@SAXPEA_KPEAU_xDISPATCHER_CONTEXT@@PEAUFuncInfo4@FH4@@H@Z@4HA 0000000180024e4b f   libvcruntime:frame.obj
 0001:00023e61       ?fin$1@?0??FrameUnwindToState@__FrameHandler4@@SAXPEA_KPEAU_xDISPATCHER_CONTEXT@@PEAUFuncInfo4@FH4@@H@Z@4HA 0000000180024e61 f   libvcruntime:frame.obj
 0001:00023e84       ?fin$0@?0???$?RV<lambda_0ae27a3a962d80f24befdcbee591983d>@@AEAV<lambda_8d0ee55de4b1038c4002e0adecdf1839>@@V<lambda_dc504788e8f1664fe9b84e20bfb512f2>@@@?$__crt_seh_guarded_call@X@@QEAAX$$QEAV<lambda_0ae27a3a962d80f24befdcbee591983d>@@AEAV<lambda_8d0ee55de4b1038c4002e0adecdf1839>@@$$QEAV<lambda_dc504788e8f1664fe9b84e20bfb512f2>@@@Z@4HA 0000000180024e84 f   libucrt:per_thread_data.obj
 0001:00023e84       ?fin$0@?0???$?RV<lambda_2d41944a1d46af3157314b8a01080d33>@@AEAV<lambda_8f455de75cd7d7f24b4096f044d8b9e6>@@V<lambda_aa500f224e6afead328df44964fe2772>@@@?$__crt_seh_guarded_call@X@@QEAAX$$QEAV<lambda_2d41944a1d46af3157314b8a01080d33>@@AEAV<lambda_8f455de75cd7d7f24b4096f044d8b9e6>@@$$QEAV<lambda_aa500f224e6afead328df44964fe2772>@@@Z@4HA 0000000180024e84 f   libucrt:per_thread_data.obj
 0001:00023e84       ?fin$0@?0???$?RV<lambda_aa87e3671a710a21b5dc78c0bdf72e11>@@AEAV<lambda_92619d2358a28f41a33ba319515a20b9>@@V<lambda_6992ecaafeb10aed2b74cb1fae11a551>@@@?$__crt_seh_guarded_call@X@@QEAAX$$QEAV<lambda_aa87e3671a710a21b5dc78c0bdf72e11>@@AEAV<lambda_92619d2358a28f41a33ba319515a20b9>@@$$QEAV<lambda_6992ecaafeb10aed2b74cb1fae11a551>@@@Z@4HA 0000000180024e84 f   libucrt:per_thread_data.obj
 0001:00023e84       ?fin$0@?0???$?RV<lambda_f2e299630e499de9f9a165e60fcd3db5>@@AEAV<lambda_2ae9d31cdba2644fcbeaf08da7c24588>@@V<lambda_40d01ff24d0e7b3814fdbdcee8eab3c7>@@@?$__crt_seh_guarded_call@X@@QEAAX$$QEAV<lambda_f2e299630e499de9f9a165e60fcd3db5>@@AEAV<lambda_2ae9d31cdba2644fcbeaf08da7c24588>@@$$QEAV<lambda_40d01ff24d0e7b3814fdbdcee8eab3c7>@@@Z@4HA 0000000180024e84 f   libucrt:per_thread_data.obj
 0001:00023e84       ?fin$0@?0???$?RV<lambda_450d765d439847d4c735a33c368b5fc0>@@AEAV<lambda_44731a7d0e6d81c3e6aa82d741081786>@@V<lambda_601a2a7da3b7a96e9554ac7215c4b07c>@@@?$__crt_seh_guarded_call@P6AXH@Z@@QEAAP6AXH@Z$$QEAV<lambda_450d765d439847d4c735a33c368b5fc0>@@AEAV<lambda_44731a7d0e6d81c3e6aa82d741081786>@@$$QEAV<lambda_601a2a7da3b7a96e9554ac7215c4b07c>@@@Z@4HA 0000000180024e84 f   libucrt:signal.obj
 0001:00023e84       ?fin$0@?0???$?RV<lambda_d80eeec6fff315bfe5c115232f3240e3>@@AEAV<lambda_6e4b09c48022b2350581041d5f6b0c4c>@@V<lambda_2358e3775559c9db80273638284d5e45>@@@?$__crt_seh_guarded_call@X@@QEAAX$$QEAV<lambda_d80eeec6fff315bfe5c115232f3240e3>@@AEAV<lambda_6e4b09c48022b2350581041d5f6b0c4c>@@$$QEAV<lambda_2358e3775559c9db80273638284d5e45>@@@Z@4HA 0000000180024e84 f   libucrt:exit.obj
 0001:00023e84       ?fin$0@?0???$?RV<lambda_638799b9deba96c50f710eeac98168cd>@@AEAV<lambda_22ebabd17bc4fa466a2aca6d8deb888d>@@V<lambda_a6f7d7db0129f75315ebf26d50c089f1>@@@?$__crt_seh_guarded_call@H@@QEAAH$$QEAV<lambda_638799b9deba96c50f710eeac98168cd>@@AEAV<lambda_22ebabd17bc4fa466a2aca6d8deb888d>@@$$QEAV<lambda_a6f7d7db0129f75315ebf26d50c089f1>@@@Z@4HA 0000000180024e84 f   libucrt:onexit.obj
 0001:00023e84       ?fin$0@?0???$?RV<lambda_7777bce6b2f8c936911f934f8298dc43>@@AEAV<lambda_f03950bc5685219e0bcd2087efbe011e>@@V<lambda_3883c3dff614d5e0c5f61bb1ac94921c>@@@?$__crt_seh_guarded_call@H@@QEAAH$$QEAV<lambda_7777bce6b2f8c936911f934f8298dc43>@@AEAV<lambda_f03950bc5685219e0bcd2087efbe011e>@@$$QEAV<lambda_3883c3dff614d5e0c5f61bb1ac94921c>@@@Z@4HA 0000000180024e84 f   libucrt:onexit.obj
 0001:00023e9e       ?filt$0@?0???R<lambda_6e4b09c48022b2350581041d5f6b0c4c>@@QEBA@XZ@4HA 0000000180024e9e f   libucrt:exit.obj
 0001:00023ecb       _query_new_handler$fin$0   0000000180024ecb f   libucrt:new_handler.obj
 0001:00023ee1       ?fin$0@?0???$?RV<lambda_410d79af7f07d98d83a3f525b3859a53>@@AEAV<lambda_3e16ef9562a7dcce91392c22ab16ea36>@@V<lambda_38119f0e861e05405d8a144b9b982f0a>@@@?$__crt_seh_guarded_call@X@@QEAAX$$QEAV<lambda_410d79af7f07d98d83a3f525b3859a53>@@AEAV<lambda_3e16ef9562a7dcce91392c22ab16ea36>@@$$QEAV<lambda_38119f0e861e05405d8a144b9b982f0a>@@@Z@4HA 0000000180024ee1 f   libucrt:wsetlocale.obj
 0001:00023efb       __acrt_initialize_lowio$fin$0 0000000180024efb f   libucrt:ioinit.obj
 0001:00023efb       __acrt_lowio_ensure_fh_exists$fin$0 0000000180024efb f   libucrt:osfinfo.obj
 0001:00023f14       ?fin$0@?0???$?RV<lambda_efdfa57d1f175319df784efa44bb7b81>@@AEAV<lambda_5f0a4c1567f8adc6734073e5d1e1b35c>@@V<lambda_2e8a7d3640ea6ccb4c2413664c2db6fd>@@@?$__crt_seh_guarded_call@X@@QEAAX$$QEAV<lambda_efdfa57d1f175319df784efa44bb7b81>@@AEAV<lambda_5f0a4c1567f8adc6734073e5d1e1b35c>@@$$QEAV<lambda_2e8a7d3640ea6ccb4c2413664c2db6fd>@@@Z@4HA 0000000180024f14 f   libucrt:mbctype.obj
 0001:00023f2e       ?fin$0@?0??update_thread_multibyte_data_internal@@YAPEAU__crt_multibyte_data@@QEAU__acrt_ptd@@QEAPEAU1@@Z@4HA 0000000180024f2e f   libucrt:mbctype.obj
 0001:00023f47       raise$fin$0                0000000180024f47 f   libucrt:signal.obj
 0001:00023f68       ?fin$0@?0???$?RV<lambda_842d9ff0dc9ef11c61343bbaebe7f885>@@AEAV<lambda_c5860995281e5c4ce005b3de8f5874ee>@@V<lambda_d90129c13df834fdcbf8d2b88dafcf2d>@@@?$__crt_seh_guarded_call@X@@QEAAX$$QEAV<lambda_842d9ff0dc9ef11c61343bbaebe7f885>@@AEAV<lambda_c5860995281e5c4ce005b3de8f5874ee>@@$$QEAV<lambda_d90129c13df834fdcbf8d2b88dafcf2d>@@@Z@4HA 0000000180024f68 f   libucrt:fflush.obj
 0001:00023f83       ?fin$0@?0???$?RV<lambda_886d6c58226a84441f68b9f2b8217b83>@@AEAV<lambda_ab61a845afdef5b7c387490eaf3616ee>@@V<lambda_f7f22ab5edc0698d5f6905b0d3f44752>@@@?$__crt_seh_guarded_call@X@@QEAAX$$QEAV<lambda_886d6c58226a84441f68b9f2b8217b83>@@AEAV<lambda_ab61a845afdef5b7c387490eaf3616ee>@@$$QEAV<lambda_f7f22ab5edc0698d5f6905b0d3f44752>@@@Z@4HA 0000000180024f83 f   libucrt:fflush.obj
 0001:00023fa0       __acrt_update_thread_locale_data$fin$0 0000000180024fa0 f   libucrt:locale_refcounting.obj
 0001:00023fb9       _fcloseall$fin$0           0000000180024fb9 f   libucrt:closeall.obj
 0001:00023fd2       ?fin$0@?0???$?RV<lambda_ad8af0d99a0adf03d037d7dffe354bb5>@@AEAV<lambda_c9ba49e555ba839a7b07aa3fbecb7617>@@V<lambda_2f1ebd5d68526518146ae959c9e734c8>@@@?$__crt_seh_guarded_call@H@@QEAAH$$QEAV<lambda_ad8af0d99a0adf03d037d7dffe354bb5>@@AEAV<lambda_c9ba49e555ba839a7b07aa3fbecb7617>@@$$QEAV<lambda_2f1ebd5d68526518146ae959c9e734c8>@@@Z@4HA 0000000180024fd2 f   libucrt:close.obj
 0001:00023fd2       ?fin$0@?0???$?RV<lambda_a37b2b86f63e897a80ea819b0eb08c01>@@AEAV<lambda_38ce7e780aa69e748d6df282ebc68efe>@@V<lambda_99fb1378e971ab6e7edea83e3a7a83a2>@@@?$__crt_seh_guarded_call@H@@QEAAH$$QEAV<lambda_a37b2b86f63e897a80ea819b0eb08c01>@@AEAV<lambda_38ce7e780aa69e748d6df282ebc68efe>@@$$QEAV<lambda_99fb1378e971ab6e7edea83e3a7a83a2>@@@Z@4HA 0000000180024fd2 f   libucrt:commit.obj
 0001:00023fec       _write_internal$fin$0      0000000180024fec f   libucrt:write.obj
 0001:00024003       ?fin$0@?0??_fclose_internal@@YAHQEAU_iobuf@@AEAV__crt_cached_ptd_host@@@Z@4HA 0000000180025003 f   libucrt:fclose.obj
 0001:0002401b       _ctrlfp$filt$0             000000018002501b f   libucrt:fpctrl.obj
 0001:0002401b       common_control87$filt$0    000000018002501b f   libucrt:ieee.obj
 0001:00024050       _IsNonwritableInCurrentImage$filt$0 0000000180025050 f   LIBCMT:pesect.obj
 0001:00024070       ??__F_AtlComModule@ATL@@YAXXZ 0000000180025070 f   OposVariant.obj
 0001:0002407c       ??__F_AtlWinModule@ATL@@YAXXZ 000000018002507c f   OposVariant.obj
 0001:000240c0       ??__F_Module@@YAXXZ        00000001800250c0 f   POSPower.obj
 0001:000240dc       ??__F_AtlBaseModule@ATL@@YAXXZ 00000001800250dc f   atls:atlbase.obj
 0002:00000670       ?_AtlBaseModule$initializer$@ATL@@3P6AXXZEA 0000000180026670     atls:atlbase.obj
 0002:00000678       ?_AtlComModule$initializer$@ATL@@3P6AXXZEA 0000000180026678     OposVariant.obj
 0002:00000680       ?_AtlWinModule$initializer$@ATL@@3P6AXXZEA 0000000180026680     OposVariant.obj
 0002:00000688       ?_Module$initializer$@@3P6AXXZEA 0000000180026688     POSPower.obj
 0002:00000690       ??pConnMap$initializer$@?$IConnectionPointContainerImpl@VCOPOSPOSPower@@@ATL@@0P6AXXZEA@@3P6AXXZEA 0000000180026690     POSPower.obj
 0002:000006a8       ?__scrt_initialize_tss_var@@3P6AHXZEA 00000001800266a8     LIBCMT:thread_safe_statics.obj
 0002:00002738       GS_ExceptionPointers       0000000180028738     LIBCMT:gs_report.obj
 0002:00002920       ?ExceptionTemplate@?1??UnwindNestedFrames@__FrameHandler4@@SAXPEA_KPEAUEHExceptionRecord@@PEAU_CONTEXT@@0PEAXPEAUFuncInfo4@FH4@@HHPEAUHandlerType4@6@PEAU_xDISPATCHER_CONTEXT@@E@Z@4U_EXCEPTION_RECORD@@B 0000000180028920     libvcruntime:risctrnsctrl.obj
 0002:000029c0       ?ExceptionTemplate@?1??UnwindNestedFrames@__FrameHandler3@@SAXPEA_KPEAUEHExceptionRecord@@PEAU_CONTEXT@@0PEAXPEBU_s_FuncInfo@@HHPEBU_s_HandlerType@@PEAU_xDISPATCHER_CONTEXT@@E@Z@4U_EXCEPTION_RECORD@@B 00000001800289c0     libvcruntime:risctrnsctrl.obj
 0002:00002a90       ?tokenTable@@3QBUStringLiteral@@B 0000000180028a90     libvcruntime:undname.obj
 0002:00002ba0       ?nameTable@@3QBUStringLiteral@@B 0000000180028ba0     libvcruntime:undname.obj
 0002:000030d0       ?rttiTable@@3QBUStringLiteral@@B 00000001800290d0     libvcruntime:undname.obj
 0002:00003120       ?IndirectionName@@3QBUStringLiteral@@B 0000000180029120     libvcruntime:undname.obj
 0002:00003180       ?PrefixName@@3QBUStringLiteral@@B 0000000180029180     libvcruntime:undname.obj
 0002:00003868       ?module_names@?A0xbc0cc709@@3QBQEB_WB 0000000180029868     libvcruntime:winapi_downlevel.obj
 0002:00003928       ?candidate_modules@?1??try_get_FlsAlloc@@YAP6AKP6AXPEAX@Z@ZXZ@4QBW4module_id@?A0xbc0cc709@@B 0000000180029928     libvcruntime:winapi_downlevel.obj
 0002:00003940       ?candidate_modules@?1??try_get_FlsFree@@YAP6AHK@ZXZ@4QBW4module_id@?A0xbc0cc709@@B 0000000180029940     libvcruntime:winapi_downlevel.obj
 0002:00003950       ?candidate_modules@?1??try_get_FlsGetValue@@YAP6APEAXK@ZXZ@4QBW4module_id@?A0xbc0cc709@@B 0000000180029950     libvcruntime:winapi_downlevel.obj
 0002:00003968       ?candidate_modules@?1??try_get_FlsSetValue@@YAP6AHKPEAX@ZXZ@4QBW4module_id@?A0xbc0cc709@@B 0000000180029968     libvcruntime:winapi_downlevel.obj
 0002:00003980       ?candidate_modules@?1??try_get_InitializeCriticalSectionEx@@YAP6AHPEAU_RTL_CRITICAL_SECTION@@KK@ZXZ@4QBW4module_id@?A0xbc0cc709@@B 0000000180029980     libvcruntime:winapi_downlevel.obj
 0002:000039b0       ?errtable@@3QBUerrentry@?A0x31fdb9ec@@B 00000001800299b0     libucrt:errno.obj
 0002:00003d18       $cppxdata$?try_cor_exit_process@@YAXI@Z 0000000180029d18     libucrt:exit.obj
 0002:00003d40       $cppxdata$?common_exit@@YAXHW4_crt_exit_cleanup_mode@@W4_crt_exit_return_mode@@@Z 0000000180029d40     libucrt:exit.obj
 0002:00003d90       $cppxdata$__dcrt_uninitialize_environments_nolock 0000000180029d90     libucrt:environment_initialization.obj
 0002:00003db8       $cppxdata$_execute_onexit_table 0000000180029db8     libucrt:onexit.obj
 0002:00003de0       __acrt_initializers        0000000180029de0     libucrt:initialization.obj
 0002:00004560       ?module_names@?A0x391cf84c@@3QBQEB_WB 000000018002a560     libucrt:winapi_thunks.obj
 0002:00004a68       ?candidate_modules@?1??try_get_AreFileApisANSI@@YAP6AHXZXZ@4QBW4module_id@?A0x391cf84c@@B 000000018002aa68     libucrt:winapi_thunks.obj
 0002:00004a80       ?candidate_modules@?1??try_get_InitializeCriticalSectionEx@@YAP6AHPEAU_RTL_CRITICAL_SECTION@@KK@ZXZ@4QBW4module_id@?A0x391cf84c@@B 000000018002aa80     libucrt:winapi_thunks.obj
 0002:00004a88       ?candidate_modules@?1??try_get_LCMapStringEx@@YAP6AHPEB_WK0HPEA_WHPEAU_nlsversioninfo@@PEAX_J@ZXZ@4QBW4module_id@?A0x391cf84c@@B 000000018002aa88     libucrt:winapi_thunks.obj
 0002:00004aa0       ?candidate_modules@?1??try_get_LocaleNameToLCID@@YAP6AKPEB_WK@ZXZ@4QBW4module_id@?A0x391cf84c@@B 000000018002aaa0     libucrt:winapi_thunks.obj
 0002:00004abc       ?candidate_modules@?1??try_get_AppPolicyGetProcessTerminationMethod@@YAP6AJPEAXPEAW4AppPolicyProcessTerminationMethod@@@ZXZ@4QBW4module_id@?A0x391cf84c@@B 000000018002aabc     libucrt:winapi_thunks.obj
 0002:00004ae8       ?candidate_modules@?1??try_get_SetThreadStackGuarantee@@YAP6AHPEAK@ZXZ@4QBW4module_id@?A0x391cf84c@@B 000000018002aae8     libucrt:winapi_thunks.obj
 0002:00004b10       ?strings@?1??fp_format_nan_or_infinity@@YAHW4__acrt_fp_class@@_NPEAD_K1@Z@4QAY03QEBDA 000000018002ab10     libucrt:cvt.obj
 0002:00004be8       ?_mb_locale_names@@3QBQEB_WB 000000018002abe8     libucrt:mbctype.obj
 0002:00005260       ?LcidToLocaleNameTable@?A0x881e4c05@@3QBULcidToLocaleName@1@B 000000018002b260     libucrt:lcidtoname_downlevel.obj
 0002:00006cb0       ?LocaleNameToIndexTable@?A0x881e4c05@@3QBULocaleNameIndex@1@B 000000018002ccb0     libucrt:lcidtoname_downlevel.obj
 0002:00008f40       $cppxdata$?write_double_translated_ansi_nolock@@YA?AUwrite_result@?A0x17268360@@HQEBDIAEAV__crt_cached_ptd_host@@@Z 000000018002ef40     libucrt:write.obj
 0002:00008f70       __real_ninf                000000018002ef70     libucrt:log10.obj
 0002:00008f80       __real_inf                 000000018002ef80     libucrt:log10.obj
 0002:00008f90       __real_neg_qnan            000000018002ef90     libucrt:log10.obj
 0002:00008fa0       __real_qnanbit             000000018002efa0     libucrt:log10.obj
 0002:00008fb0       __int_1023                 000000018002efb0     libucrt:log10.obj
 0002:00008fc0       __mask_001                 000000018002efc0     libucrt:log10.obj
 0002:00008fd0       __mask_mant                000000018002efd0     libucrt:log10.obj
 0002:00008fe0       __mask_mant_top8           000000018002efe0     libucrt:log10.obj
 0002:00008ff0       __mask_mant9               000000018002eff0     libucrt:log10.obj
 0002:00009000       __real_log10_e             000000018002f000     libucrt:log10.obj
 0002:00009010       __real_log10_e_lead        000000018002f010     libucrt:log10.obj
 0002:00009020       __real_log10_e_tail        000000018002f020     libucrt:log10.obj
 0002:00009030       __real_log10_2_lead        000000018002f030     libucrt:log10.obj
 0002:00009040       __real_log10_2_tail        000000018002f040     libucrt:log10.obj
 0002:00009050       __real_two                 000000018002f050     libucrt:log10.obj
 0002:00009060       __real_one                 000000018002f060     libucrt:log10.obj
 0002:00009070       __real_half                000000018002f070     libucrt:log10.obj
 0002:00009080       __mask_100                 000000018002f080     libucrt:log10.obj
 0002:00009090       __real_1_over_512          000000018002f090     libucrt:log10.obj
 0002:000090a0       __real_1_over_2            000000018002f0a0     libucrt:log10.obj
 0002:000090b0       __real_1_over_3            000000018002f0b0     libucrt:log10.obj
 0002:000090c0       __real_1_over_4            000000018002f0c0     libucrt:log10.obj
 0002:000090d0       __real_1_over_5            000000018002f0d0     libucrt:log10.obj
 0002:000090e0       __real_1_over_6            000000018002f0e0     libucrt:log10.obj
 0002:000090f0       __real_neg_1023            000000018002f0f0     libucrt:log10.obj
 0002:00009100       __mask_2045                000000018002f100     libucrt:log10.obj
 0002:00009110       __real_threshold           000000018002f110     libucrt:log10.obj
 0002:00009120       __real_near_one_lt         000000018002f120     libucrt:log10.obj
 0002:00009130       __real_near_one_gt         000000018002f130     libucrt:log10.obj
 0002:00009140       __real_min_norm            000000018002f140     libucrt:log10.obj
 0002:00009150       __real_notsign             000000018002f150     libucrt:log10.obj
 0002:00009160       __real_ca1                 000000018002f160     libucrt:log10.obj
 0002:00009170       __real_ca2                 000000018002f170     libucrt:log10.obj
 0002:00009180       __real_ca3                 000000018002f180     libucrt:log10.obj
 0002:00009190       __real_ca4                 000000018002f190     libucrt:log10.obj
 0002:000091a0       __mask_lower               000000018002f1a0     libucrt:log10.obj
 0002:000091b0       __flag_x_zero              000000018002f1b0     libucrt:log10.obj
 0002:000091b4       __flag_x_neg               000000018002f1b4     libucrt:log10.obj
 0002:000091b8       __flag_x_nan               000000018002f1b8     libucrt:log10.obj
 0002:0000aa10       __real@433fffffffffffff    0000000180030a10     libucrt:fpsr.obj
 0002:0000aa18       __real@c33fffffffffffff    0000000180030a18     libucrt:fpsr.obj
 0002:0000b348       $unwind$?cw_memcpy@@YAHPEA_WPEBDH@Z 0000000180031348     CWString.obj
 0002:0000b348       $unwind$_invalid_parameter_noinfo 0000000180031348     libucrt:invalid_parameter.obj
 0002:0000b348       $unwind$?state_case_size@?$output_processor@_WV?$string_output_adapter@_W@__crt_stdio_output@@V?$format_validation_base@_WV?$string_output_adapter@_W@__crt_stdio_output@@@2@@__crt_stdio_output@@AEAA_NXZ 0000000180031348     libucrt:output.obj
 0002:0000b348       $unwind$_log10_special     0000000180031348     libucrt:log_special.obj
 0002:0000b350       $unwind$?cw_strcpy@@YAHPEA_WPEBD@Z 0000000180031350     CWString.obj
 0002:0000b350       $unwind$??1OposDispParms@@QEAA@XZ 0000000180031350     OposVariant.obj
 0002:0000b350       $unwind$??__E_AtlComModule@ATL@@YAXXZ 0000000180031350     OposVariant.obj
 0002:0000b350       $unwind$??__E_AtlWinModule@ATL@@YAXXZ 0000000180031350     OposVariant.obj
 0002:0000b350       $unwind$??__F_AtlWinModule@ATL@@YAXXZ 0000000180031350     OposVariant.obj
 0002:0000b350       $unwind$?GetLONG@OposVariant@@QEAAJXZ 0000000180031350     OposVariant.obj
 0002:0000b350       $unwind$??__E?pConnMap@?$IConnectionPointContainerImpl@VCOPOSPOSPower@@@ATL@@0PEBU_ATL_CONNMAP_ENTRY@2@EB@@YAXXZ 0000000180031350     POSPower.obj
 0002:0000b350       $unwind$?AddReplacement@CRegObject@ATL@@UEAAJPEB_W0@Z 0000000180031350     POSPower.obj
 0002:0000b350       $unwind$?AtlHresultFromLastError@ATL@@YAJXZ 0000000180031350     POSPower.obj
 0002:0000b350       $unwind$?AtlThrowImpl@ATL@@YAXJ@Z 0000000180031350     POSPower.obj
 0002:0000b350       $unwind$?CreateInstance@CComClassFactory@ATL@@UEAAJPEAUIUnknown@@AEBU_GUID@@PEAPEAX@Z 0000000180031350     POSPower.obj
 0002:0000b350       $unwind$?DefaultReflectionHandler@?$CWindowImplRoot@VCWindow@ATL@@@ATL@@SAHPEAUHWND__@@I_K_JAEA_J@Z 0000000180031350     POSPower.obj
 0002:0000b350       $unwind$?EnumAdvise@?$IOleObjectImpl@VCOPOSPOSPower@@@ATL@@UEAAJPEAPEAUIEnumSTATDATA@@@Z 0000000180031350     POSPower.obj
 0002:0000b350       $unwind$?FireViewChange@CComControlBase@ATL@@QEAAJXZ 0000000180031350     POSPower.obj
 0002:0000b350       $unwind$?GetAdvise@?$IViewObjectExImpl@VCOPOSPOSPower@@@ATL@@UEAAJPEAK0PEAPEAUIAdviseSink@@@Z 0000000180031350     POSPower.obj
 0002:0000b350       $unwind$?LockServer@CComClassFactory@ATL@@UEAAJH@Z 0000000180031350     POSPower.obj
 0002:0000b350       $unwind$?OnDocWindowActivate@?$IOleInPlaceActiveObjectImpl@VCOPOSPOSPower@@@ATL@@UEAAJH@Z 0000000180031350     POSPower.obj
 0002:0000b350       $unwind$?Unadvise@?$IOleObjectImpl@VCOPOSPOSPower@@@ATL@@UEAAJK@Z 0000000180031350     POSPower.obj
 0002:0000b350       $unwind$?_LocCPQueryInterface@?$IConnectionPointImpl@VCOPOSPOSPower@@$1?DIID__IOPOSPOSPowerEvents@@3U_GUID@@BVCComDynamicUnkArray@ATL@@@ATL@@UEAAJAEBU_GUID@@PEAPEAX@Z 0000000180031350     POSPower.obj
 0002:0000b350       $unwind$?_LocCPQueryInterface@?$IConnectionPointImpl@VCOPOSPOSPower@@$1?IID_IPropertyNotifySink@@3U_GUID@@BVCComDynamicUnkArray@ATL@@@ATL@@UEAAJAEBU_GUID@@PEAPEAX@Z 0000000180031350     POSPower.obj
 0002:0000b350       $unwind$?FinalConstruct@COPOSPOSPower@@QEAAJXZ 0000000180031350     POSPowerImpl.obj
 0002:0000b350       $unwind$?get_ResultCode@COPOSPOSPower@@UEAAJPEAJ@Z 0000000180031350     POSPowerImpl.obj
 0002:0000b350       $unwind$?get_State@COPOSPOSPower@@UEAAJPEAJ@Z 0000000180031350     POSPowerImpl.obj
 0002:0000b350       $unwind$__dcrt_terminate_console_output 0000000180031350     libucrt:initcon.obj
 0002:0000b350       $unwind$??$uninitialize_environment_internal@D@@YAXAEAPEAPEAD@Z 0000000180031350     libucrt:environment_initialization.obj
 0002:0000b350       $unwind$??$uninitialize_environment_internal@_W@@YAXAEAPEAPEA_W@Z 0000000180031350     libucrt:environment_initialization.obj
 0002:0000b350       $unwind$__acrt_initialize_heap 0000000180031350     libucrt:heap_handle.obj
 0002:0000b350       $unwind$_msize_base        0000000180031350     libucrt:msize.obj
 0002:0000b350       $unwind$?initialize_multibyte@@YAHXZ 0000000180031350     libucrt:multibyte_initializer.obj
 0002:0000b350       $unwind$__acrt_thread_attach 0000000180031350     libucrt:initialization.obj
 0002:0000b350       $unwind$__acrt_thread_detach 0000000180031350     libucrt:initialization.obj
 0002:0000b350       $unwind$__acrt_uninitialize 0000000180031350     libucrt:initialization.obj
 0002:0000b350       $unwind$__acrt_uninitialize_critical 0000000180031350     libucrt:initialization.obj
 0002:0000b350       $unwind$initialize_c       0000000180031350     libucrt:initialization.obj
 0002:0000b350       $unwind$uninitialize_allocated_io_buffers 0000000180031350     libucrt:initialization.obj
 0002:0000b350       $unwind$uninitialize_environment 0000000180031350     libucrt:initialization.obj
 0002:0000b350       $unwind$__acrt_initialize_ptd 0000000180031350     libucrt:per_thread_data.obj
 0002:0000b350       $unwind$__acrt_uninitialize_ptd 0000000180031350     libucrt:per_thread_data.obj
 0002:0000b350       $unwind$__acrt_AreFileApisANSI 0000000180031350     libucrt:winapi_thunks.obj
 0002:0000b350       $unwind$__acrt_release_locale_ref 0000000180031350     libucrt:locale_refcounting.obj
 0002:0000b350       $unwind$_isatty            0000000180031350     libucrt:isatty.obj
 0002:0000b350       $unwind$_get_osfhandle     0000000180031350     libucrt:osfinfo.obj
 0002:0000b350       $unwind$__acrt_initialize_multibyte 0000000180031350     libucrt:mbctype.obj
 0002:0000b350       $unwind$__acrt_update_thread_multibyte_data 0000000180031350     libucrt:mbctype.obj
 0002:0000b350       $unwind$__doserrno         0000000180031350     libucrt:errno.obj
 0002:0000b350       $unwind$_errno             0000000180031350     libucrt:errno.obj
 0002:0000b350       $unwind$_invoke_watson     0000000180031350     libucrt:invalid_parameter.obj
 0002:0000b350       $unwind$abort              0000000180031350     libucrt:abort.obj
 0002:0000b350       $unwind$__acrt_initialize_command_line 0000000180031350     libucrt:argv_data.obj
 0002:0000b350       $unwind$?should_call_terminate_process@@YA_NXZ 0000000180031350     libucrt:exit.obj
 0002:0000b350       $unwind$_fileno            0000000180031350     libucrt:fileno.obj
 0002:0000b350       $unwind$_statfp            0000000180031350     libucrt:fpctrl.obj
 0002:0000b350       $unwind$fegetround         0000000180031350     libucrt:fegetround.obj
 0002:0000b350       $unwind$_set_errno_from_matherr 0000000180031350     libucrt:fpexcept.obj
 0002:0000b350       $unwind$??__E_AtlBaseModule@ATL@@YAXXZ 0000000180031350     atls:atlbase.obj
 0002:0000b350       $unwind$__scrt_initialize_default_local_stdio_options 0000000180031350     LIBCMT:default_local_stdio_options.obj
 0002:0000b350       $unwind$?dllmain_crt_dispatch@@YAHQEAUHINSTANCE__@@KQEAX@Z 0000000180031350     LIBCMT:dll_dllmain.obj
 0002:0000b350       $unwind$__report_rangecheckfailure 0000000180031350     LIBCMT:gs_report.obj
 0002:0000b350       $unwind$__GSHandlerCheck   0000000180031350     LIBCMT:gshandler.obj
 0002:0000b350       $unwind$?__scrt_uninitialize_thread_safe_statics@@YAXXZ 0000000180031350     LIBCMT:thread_safe_statics.obj
 0002:0000b350       $unwind$_Init_thread_notify 0000000180031350     LIBCMT:thread_safe_statics.obj
 0002:0000b350       $unwind$__scrt_acquire_startup_lock 0000000180031350     LIBCMT:utility.obj
 0002:0000b350       $unwind$__scrt_dllmain_after_initialize_c 0000000180031350     LIBCMT:utility.obj
 0002:0000b350       $unwind$__scrt_dllmain_before_initialize_c 0000000180031350     LIBCMT:utility.obj
 0002:0000b350       $unwind$__scrt_dllmain_crt_thread_attach 0000000180031350     LIBCMT:utility.obj
 0002:0000b350       $unwind$__scrt_dllmain_crt_thread_detach 0000000180031350     LIBCMT:utility.obj
 0002:0000b350       $unwind$__scrt_dllmain_uninitialize_c 0000000180031350     LIBCMT:utility.obj
 0002:0000b350       $unwind$__scrt_dllmain_uninitialize_critical 0000000180031350     LIBCMT:utility.obj
 0002:0000b350       $unwind$atexit             0000000180031350     LIBCMT:utility.obj
 0002:0000b350       $unwind$__std_terminate    0000000180031350     libvcruntime:ehhelpers.obj
 0002:0000b350       $unwind$?GetCurrentState@__FrameHandler3@@SAHPEA_KPEAU_xDISPATCHER_CONTEXT@@PEBU_s_FuncInfo@@@Z 0000000180031350     libvcruntime:ehstate.obj
 0002:0000b350       $unwind$__vcrt_initialize  0000000180031350     libvcruntime:initialization.obj
 0002:0000b350       $unwind$__vcrt_thread_attach 0000000180031350     libvcruntime:initialization.obj
 0002:0000b350       $unwind$__vcrt_thread_detach 0000000180031350     libvcruntime:initialization.obj
 0002:0000b350       $unwind$__vcrt_uninitialize 0000000180031350     libvcruntime:initialization.obj
 0002:0000b350       $unwind$__vcrt_uninitialize_critical 0000000180031350     libvcruntime:initialization.obj
 0002:0000b350       $unwind$__vcrt_freefls     0000000180031350     libvcruntime:per_thread_data.obj
 0002:0000b350       $unwind$__vcrt_getptd      0000000180031350     libvcruntime:per_thread_data.obj
 0002:0000b350       $unwind$__vcrt_initialize_ptd 0000000180031350     libvcruntime:per_thread_data.obj
 0002:0000b350       $unwind$__vcrt_uninitialize_ptd 0000000180031350     libvcruntime:per_thread_data.obj
 0002:0000b350       $unwind$_purecall          0000000180031350     libvcruntime:purevirt.obj
 0002:0000b350       $unwind$?FrameUnwindToEmptyState@__FrameHandler4@@SAXPEA_KPEAU_xDISPATCHER_CONTEXT@@PEAUFuncInfo4@FH4@@@Z 0000000180031350     libvcruntime:risctrnsctrl.obj
 0002:0000b350       $unwind$_GetImageBase      0000000180031350     libvcruntime:risctrnsctrl.obj
 0002:0000b350       $unwind$_GetThrowImageBase 0000000180031350     libvcruntime:risctrnsctrl.obj
 0002:0000b358       $unwind$?cw_dup@@YAXPEBDAEAHAEAPEA_W1@Z 0000000180031358     CWString.obj
 0002:0000b358       $unwind$?DAdvise@?$IDataObjectImpl@VCOPOSPOSPower@@@ATL@@UEAAJPEAUtagFORMATETC@@KPEAUIAdviseSink@@PEAK@Z 0000000180031358     POSPower.obj
 0002:0000b358       $unwind$??$create_environment@D@@YAQEAPEADQEAD@Z 0000000180031358     libucrt:environment_initialization.obj
 0002:0000b358       $unwind$_mbtowc_internal   0000000180031358     libucrt:mbtowc.obj
 0002:0000b358       $unwind$??$__acrt_convert_wcs_mbs_cp@D_WV<lambda_7c9dea7b4ca7285d2cdb541a38da6275>@@U__crt_win32_buffer_internal_dynamic_resizing@@@@YAHQEBDAEAV?$__crt_win32_buffer@_WU__crt_win32_buffer_internal_dynamic_resizing@@@@AEBV<lambda_7c9dea7b4ca7285d2cdb541a38da6275>@@I@Z 0000000180031358     libucrt:argv_wildcards.obj
 0002:0000b358       $unwind$?process@?$output_processor@_WV?$string_output_adapter@_W@__crt_stdio_output@@V?$format_validation_base@_WV?$string_output_adapter@_W@__crt_stdio_output@@@2@@__crt_stdio_output@@QEAAHXZ 0000000180031358     libucrt:output.obj
 0002:0000b370       $unwind$?DupWide@_CW@@AEAAXXZ 0000000180031370     CWString.obj
 0002:0000b370       $unwind$??0CAtlComModule@ATL@@QEAA@XZ 0000000180031370     OposVariant.obj
 0002:0000b370       $unwind$??0CAtlWinModule@ATL@@QEAA@XZ 0000000180031370     OposVariant.obj
 0002:0000b370       $unwind$??0?$CComObject@VCOPOSPOSPower@@@ATL@@QEAA@PEAX@Z 0000000180031370     POSPower.obj
 0002:0000b370       $unwind$??0CAtlModule@ATL@@QEAA@XZ 0000000180031370     POSPower.obj
 0002:0000b370       $unwind$??1?$CComObject@VCOPOSPOSPower@@@ATL@@UEAA@XZ 0000000180031370     POSPower.obj
 0002:0000b370       $unwind$??__E_Module@@YAXXZ 0000000180031370     POSPower.obj
 0002:0000b370       $unwind$?AddRef@?$CComObjectCached@VCComClassFactory@ATL@@@ATL@@UEAAKXZ 0000000180031370     POSPower.obj
 0002:0000b370       $unwind$?AllocateHeap@?$CTempBuffer@E$0BAA@VCCRTAllocator@ATL@@@ATL@@AEAAX_K@Z 0000000180031370     POSPower.obj
 0002:0000b370       $unwind$?AllocateHeap@?$CTempBuffer@_W$0BAA@VCCRTAllocator@ATL@@@ATL@@AEAAX_K@Z 0000000180031370     POSPower.obj
 0002:0000b370       $unwind$?AllocateHeap@?$CTempBuffer@_W$0EAA@VCCRTAllocator@ATL@@@ATL@@AEAAX_K@Z 0000000180031370     POSPower.obj
 0002:0000b370       $unwind$?GetClassInfoW@?$IProvideClassInfo2Impl@$1?CLSID_OPOSPOSPower@@3U_GUID@@B$1?DIID__IOPOSPOSPowerEvents@@3U2@B$1?LIBID_OposPOSPower_CCO@@3U2@B$00$0A@VCComTypeInfoHolder@ATL@@@ATL@@UEAAJPEAPEAUITypeInfo@@@Z 0000000180031370     POSPower.obj
 0002:0000b370       $unwind$?GetClientSite@?$IOleObjectImpl@VCOPOSPOSPower@@@ATL@@UEAAJPEAPEAUIOleClientSite@@@Z 0000000180031370     POSPower.obj
 0002:0000b370       $unwind$?GetConnMap@COPOSPOSPower@@SAPEBU_ATL_CONNMAP_ENTRY@ATL@@PEAH@Z 0000000180031370     POSPower.obj
 0002:0000b370       $unwind$?GetTypeInfo@?$IDispatchImpl@UIOPOSPOSPower@@$1?IID_IOPOSPOSPower@@3U_GUID@@B$1?LIBID_OposPOSPower_CCO@@3U3@B$00$0A@VCComTypeInfoHolder@ATL@@@ATL@@UEAAJIKPEAPEAUITypeInfo@@@Z 0000000180031370     POSPower.obj
 0002:0000b370       $unwind$?IOleInPlaceObject_InPlaceDeactivate@CComControlBase@ATL@@QEAAJXZ 0000000180031370     POSPower.obj
 0002:0000b370       $unwind$?IOleObject_SetExtent@CComControlBase@ATL@@QEAAJKPEAUtagSIZE@@@Z 0000000180031370     POSPower.obj
 0002:0000b370       $unwind$?IsEqualObject@?$CComPtrBase@UIOleClientSite@@@ATL@@QEAA_NPEAUIUnknown@@@Z 0000000180031370     POSPower.obj
 0002:0000b370       $unwind$?QueryHitPoint@?$IViewObjectExImpl@VCOPOSPOSPower@@@ATL@@UEAAJKPEBUtagRECT@@UtagPOINT@@JPEAK@Z 0000000180031370     POSPower.obj
 0002:0000b370       $unwind$?QueryInterface@?$CComAggObject@VCOPOSPOSPower@@@ATL@@UEAAJAEBU_GUID@@PEAPEAX@Z 0000000180031370     POSPower.obj
 0002:0000b370       $unwind$?Release@?$CComObjectCached@VCComClassFactory@ATL@@@ATL@@UEAAKXZ 0000000180031370     POSPower.obj
 0002:0000b370       $unwind$?Unadvise@?$IConnectionPointImpl@VCOPOSPOSPower@@$1?DIID__IOPOSPOSPowerEvents@@3U_GUID@@BVCComDynamicUnkArray@ATL@@@ATL@@UEAAJK@Z 0000000180031370     POSPower.obj
 0002:0000b370       $unwind$?Unadvise@?$IConnectionPointImpl@VCOPOSPOSPower@@$1?IID_IPropertyNotifySink@@3U_GUID@@BVCComDynamicUnkArray@ATL@@@ATL@@UEAAJK@Z 0000000180031370     POSPower.obj
 0002:0000b370       $unwind$??1CComControlBase@ATL@@UEAA@XZ 0000000180031370     POSPowerImpl.obj
 0002:0000b370       $unwind$??1COPOSPOSPower@@UEAA@XZ 0000000180031370     POSPowerImpl.obj
 0002:0000b370       $unwind$?EventUninit@COPOSPOSPower@@IEAAXXZ 0000000180031370     POSPowerImpl.obj
 0002:0000b370       $unwind$?FreezeEvents@COPOSPOSPower@@MEAAJH@Z 0000000180031370     POSPowerImpl.obj
 0002:0000b370       $unwind$?SOProcessID@COPOSPOSPower@@UEAAJPEAJ@Z 0000000180031370     POSPowerImpl.obj
 0002:0000b370       $unwind$?get_CapBatteryCapacityRemaining@COPOSPOSPower@@UEAAJPEAF@Z 0000000180031370     POSPowerImpl.obj
 0002:0000b370       $unwind$?get_CapCompareFirmwareVersion@COPOSPOSPower@@UEAAJPEAF@Z 0000000180031370     POSPowerImpl.obj
 0002:0000b370       $unwind$?get_CapFanAlarm@COPOSPOSPower@@UEAAJPEAF@Z 0000000180031370     POSPowerImpl.obj
 0002:0000b370       $unwind$?get_CapHeatAlarm@COPOSPOSPower@@UEAAJPEAF@Z 0000000180031370     POSPowerImpl.obj
 0002:0000b370       $unwind$?get_CapQuickCharge@COPOSPOSPower@@UEAAJPEAF@Z 0000000180031370     POSPowerImpl.obj
 0002:0000b370       $unwind$?get_CapRestartPOS@COPOSPOSPower@@UEAAJPEAF@Z 0000000180031370     POSPowerImpl.obj
 0002:0000b370       $unwind$?get_CapShutdownPOS@COPOSPOSPower@@UEAAJPEAF@Z 0000000180031370     POSPowerImpl.obj
 0002:0000b370       $unwind$?get_CapStandbyPOS@COPOSPOSPower@@UEAAJPEAF@Z 0000000180031370     POSPowerImpl.obj
 0002:0000b370       $unwind$?get_CapStatisticsReporting@COPOSPOSPower@@UEAAJPEAF@Z 0000000180031370     POSPowerImpl.obj
 0002:0000b370       $unwind$?get_CapSuspendPOS@COPOSPOSPower@@UEAAJPEAF@Z 0000000180031370     POSPowerImpl.obj
 0002:0000b370       $unwind$?get_CapUpdateFirmware@COPOSPOSPower@@UEAAJPEAF@Z 0000000180031370     POSPowerImpl.obj
 0002:0000b370       $unwind$?get_CapUpdateStatistics@COPOSPOSPower@@UEAAJPEAF@Z 0000000180031370     POSPowerImpl.obj
 0002:0000b370       $unwind$?get_CapVariableBatteryCriticallyLowThreshold@COPOSPOSPower@@UEAAJPEAF@Z 0000000180031370     POSPowerImpl.obj
 0002:0000b370       $unwind$?get_CapVariableBatteryLowThreshold@COPOSPOSPower@@UEAAJPEAF@Z 0000000180031370     POSPowerImpl.obj
 0002:0000b370       $unwind$?get_Claimed@COPOSPOSPower@@UEAAJPEAF@Z 0000000180031370     POSPowerImpl.obj
 0002:0000b370       $unwind$?get_DeviceEnabled@COPOSPOSPower@@UEAAJPEAF@Z 0000000180031370     POSPowerImpl.obj
 0002:0000b370       $unwind$?get_FreezeEvents@COPOSPOSPower@@UEAAJPEAF@Z 0000000180031370     POSPowerImpl.obj
 0002:0000b370       $unwind$?get_QuickChargeMode@COPOSPOSPower@@UEAAJPEAF@Z 0000000180031370     POSPowerImpl.obj
 0002:0000b370       $unwind$?put_FreezeEvents@COPOSPOSPower@@UEAAJF@Z 0000000180031370     POSPowerImpl.obj
 0002:0000b370       $unwind$_calloc_base       0000000180031370     libucrt:calloc_base.obj
 0002:0000b370       $unwind$_malloc_base       0000000180031370     libucrt:malloc_base.obj
 0002:0000b370       $unwind$_callnewh          0000000180031370     libucrt:new_handler.obj
 0002:0000b370       $unwind$initialize_pointers 0000000180031370     libucrt:initialization.obj
 0002:0000b370       $unwind$uninitialize_allocated_memory 0000000180031370     libucrt:initialization.obj
 0002:0000b370       $unwind$__acrt_initialize_locks 0000000180031370     libucrt:locks.obj
 0002:0000b370       $unwind$__acrt_uninitialize_locks 0000000180031370     libucrt:locks.obj
 0002:0000b370       $unwind$__acrt_freeptd     0000000180031370     libucrt:per_thread_data.obj
 0002:0000b370       $unwind$__acrt_getptd_head 0000000180031370     libucrt:per_thread_data.obj
 0002:0000b370       $unwind$__acrt_get_process_end_policy 0000000180031370     libucrt:win_policies.obj
 0002:0000b370       $unwind$__acrt_AppPolicyGetProcessTerminationMethodInternal 0000000180031370     libucrt:winapi_thunks.obj
 0002:0000b370       $unwind$__acrt_SetThreadStackGuarantee 0000000180031370     libucrt:winapi_thunks.obj
 0002:0000b370       $unwind$__acrt_uninitialize_winapi_thunks 0000000180031370     libucrt:winapi_thunks.obj
 0002:0000b370       $unwind$__acrt_update_locale_info 0000000180031370     libucrt:locale_update.obj
 0002:0000b370       $unwind$__acrt_update_locale_info_explicit 0000000180031370     libucrt:locale_update.obj
 0002:0000b370       $unwind$__acrt_update_multibyte_info 0000000180031370     libucrt:locale_update.obj
 0002:0000b370       $unwind$__acrt_update_multibyte_info_explicit 0000000180031370     libucrt:locale_update.obj
 0002:0000b370       $unwind$__acrt_errno_map_os_error 0000000180031370     libucrt:errno.obj
 0002:0000b370       $unwind$__acrt_errno_map_os_error_ptd 0000000180031370     libucrt:errno.obj
 0002:0000b370       $unwind$__acrt_allocate_buffer_for_argv 0000000180031370     libucrt:argv_parsing.obj
 0002:0000b370       $unwind$?exit_or_terminate_process@@YAXI@Z 0000000180031370     libucrt:exit.obj
 0002:0000b370       $unwind$__acrt_uninitialize_stdio 0000000180031370     libucrt:_file.obj
 0002:0000b370       $unwind$__acrt_stdio_free_buffer_nolock 0000000180031370     libucrt:_freebuf.obj
 0002:0000b370       $unwind$strcpy_s           0000000180031370     libucrt:strcpy_s.obj
 0002:0000b370       $unwind$wcscat_s           0000000180031370     libucrt:wcscat_s.obj
 0002:0000b370       $unwind$wcscpy_s           0000000180031370     libucrt:wcscpy_s.obj
 0002:0000b370       $unwind$_clrfp             0000000180031370     libucrt:fpctrl.obj
 0002:0000b370       $unwind$_set_statfp        0000000180031370     libucrt:fpctrl.obj
 0002:0000b370       $unwind$_clearfp           0000000180031370     libucrt:ieee.obj
 0002:0000b370       $unwind$_controlfp_s       0000000180031370     libucrt:contrlfp.obj
 0002:0000b370       $unwind$fegetenv           0000000180031370     libucrt:fegetenv.obj
 0002:0000b370       $unwind$feholdexcept       0000000180031370     libucrt:feholdexcept.obj
 0002:0000b370       $unwind$fesetenv           0000000180031370     libucrt:fesetenv.obj
 0002:0000b370       $unwind$??1CAtlBaseModule@ATL@@QEAA@XZ 0000000180031370     atls:atlbase.obj
 0002:0000b370       $unwind$AtlThunk_AllocateData 0000000180031370     atls:atlthunk.obj
 0002:0000b370       $unwind$__raise_securityfailure 0000000180031370     LIBCMT:gs_report.obj
 0002:0000b370       $unwind$??2@YAPEAX_K@Z     0000000180031370     LIBCMT:new_scalar.obj
 0002:0000b370       $unwind$??_Gtype_info@@UEAAPEAXI@Z 0000000180031370     LIBCMT:std_type_info_static.obj
 0002:0000b370       $unwind$_Init_thread_footer 0000000180031370     LIBCMT:thread_safe_statics.obj
 0002:0000b370       $unwind$_Init_thread_header 0000000180031370     LIBCMT:thread_safe_statics.obj
 0002:0000b370       $unwind$_Init_thread_wait  0000000180031370     LIBCMT:thread_safe_statics.obj
 0002:0000b370       $unwind$??0bad_alloc@std@@QEAA@AEBV01@@Z 0000000180031370     LIBCMT:throw_bad_alloc.obj
 0002:0000b370       $unwind$??0bad_array_new_length@std@@QEAA@AEBV01@@Z 0000000180031370     LIBCMT:throw_bad_alloc.obj
 0002:0000b370       $unwind$??0exception@std@@QEAA@AEBV01@@Z 0000000180031370     LIBCMT:throw_bad_alloc.obj
 0002:0000b370       $unwind$__scrt_initialize_crt 0000000180031370     LIBCMT:utility.obj
 0002:0000b370       $unwind$__scrt_initialize_onexit_tables 0000000180031370     LIBCMT:utility.obj
 0002:0000b370       $unwind$__scrt_release_startup_lock 0000000180031370     LIBCMT:utility.obj
 0002:0000b370       $unwind$__scrt_uninitialize_crt 0000000180031370     LIBCMT:utility.obj
 0002:0000b370       $unwind$_onexit            0000000180031370     LIBCMT:utility.obj
 0002:0000b370       $unwind$_IsExceptionObjectToBeDestroyed 0000000180031370     libvcruntime:ehhelpers.obj
 0002:0000b370       $unwind$?GetUnwindTryBlock@__FrameHandler3@@SAHPEA_KPEAU_xDISPATCHER_CONTEXT@@PEBU_s_FuncInfo@@@Z 0000000180031370     libvcruntime:ehstate.obj
 0002:0000b370       $unwind$?StateFromIp@__FrameHandler3@@SAHPEBU_s_FuncInfo@@PEAU_xDISPATCHER_CONTEXT@@_K@Z 0000000180031370     libvcruntime:ehstate.obj
 0002:0000b370       $unwind$??0HandlerMap4@FH4@@QEAA@PEBUTryBlockMapEntry4@1@_KH@Z 0000000180031370     libvcruntime:frame.obj
 0002:0000b370       $unwind$??0bad_exception@std@@QEAA@AEBV01@@Z 0000000180031370     libvcruntime:frame.obj
 0002:0000b370       $unwind$__vcrt_initialize_locks 0000000180031370     libvcruntime:locks.obj
 0002:0000b370       $unwind$__vcrt_uninitialize_locks 0000000180031370     libvcruntime:locks.obj
 0002:0000b370       $unwind$__vcrt_freeptd     0000000180031370     libvcruntime:per_thread_data.obj
 0002:0000b370       $unwind$?ExecutionInCatch@__FrameHandler3@@SA_NPEAU_xDISPATCHER_CONTEXT@@PEBU_s_FuncInfo@@@Z 0000000180031370     libvcruntime:risctrnsctrl.obj
 0002:0000b370       $unwind$_CreateFrameInfo   0000000180031370     libvcruntime:risctrnsctrl.obj
 0002:0000b370       $unwind$_SetImageBase      0000000180031370     libvcruntime:risctrnsctrl.obj
 0002:0000b370       $unwind$_SetThrowImageBase 0000000180031370     libvcruntime:risctrnsctrl.obj
 0002:0000b370       $unwind$__std_exception_destroy 0000000180031370     libvcruntime:std_exception.obj
 0002:0000b370       $unwind$__std_type_info_destroy_list 0000000180031370     libvcruntime:std_type_info.obj
 0002:0000b370       $unwind$__vcrt_FlsAlloc    0000000180031370     libvcruntime:winapi_downlevel.obj
 0002:0000b370       $unwind$__vcrt_FlsFree     0000000180031370     libvcruntime:winapi_downlevel.obj
 0002:0000b370       $unwind$__vcrt_FlsGetValue 0000000180031370     libvcruntime:winapi_downlevel.obj
 0002:0000b378       $unwind$?AtlWinModuleTerm@ATL@@YAJPEAU_ATL_WIN_MODULE70@1@PEAUHINSTANCE__@@@Z 0000000180031378     OposVariant.obj
 0002:0000b378       $unwind$?AtlWinModuleExtractCreateWndData@ATL@@YAPEAXPEAU_ATL_WIN_MODULE70@1@@Z 0000000180031378     POSPower.obj
 0002:0000b378       $unwind$?CreateInstance@?$CComCreator@V?$CComObject@VCOPOSPOSPower@@@ATL@@@ATL@@SAJPEAXAEBU_GUID@@PEAPEAX@Z 0000000180031378     POSPower.obj
 0002:0000b378       $unwind$?DoEvent@COPOSPOSPower@@IEAAXI_K_J@Z 0000000180031378     POSPower.obj
 0002:0000b378       $unwind$?DoVerb@?$IOleObjectImpl@VCOPOSPOSPower@@@ATL@@UEAAJJPEAUtagMSG@@PEAUIOleClientSite@@JPEAUHWND__@@PEBUtagRECT@@@Z 0000000180031378     POSPower.obj
 0002:0000b378       $unwind$?HKeyFromString@CRegParser@ATL@@KAPEAUHKEY__@@PEA_W@Z 0000000180031378     POSPower.obj
 0002:0000b378       $unwind$?Next@?$CComEnumImpl@UIEnumConnectionPoints@@$1?_GUID_b196b285_bab4_101a_b69c_00aa00341d07@@3U__s_GUID@@BPEAUIConnectionPoint@@V?$_CopyInterface@UIConnectionPoint@@@ATL@@@ATL@@UEAAJKPEAPEAUIConnectionPoint@@PEAK@Z 0000000180031378     POSPower.obj
 0002:0000b378       $unwind$?Next@?$CComEnumImpl@UIEnumConnections@@$1?_GUID_b196b287_bab4_101a_b69c_00aa00341d07@@3U__s_GUID@@BUtagCONNECTDATA@@V?$_Copy@UtagCONNECTDATA@@@ATL@@@ATL@@UEAAJKPEAUtagCONNECTDATA@@PEAK@Z 0000000180031378     POSPower.obj
 0002:0000b378       $unwind$?SODirectIO@COPOSPOSPower@@MEAAJJPEAJPEAPEA_W@Z 0000000180031378     POSPower.obj
 0002:0000b378       $unwind$?SetControlFocus@CComControlBase@ATL@@QEAAHH@Z 0000000180031378     POSPower.obj
 0002:0000b378       $unwind$?ocscpy_s@@YA_NPEA_W_KPEB_W@Z 0000000180031378     POSPower.obj
 0002:0000b378       $unwind$?s_EventWindowProc@COPOSPOSPower@@KA_JPEAUHWND__@@I_K_J@Z 0000000180031378     POSPowerImpl.obj
 0002:0000b378       $unwind$_recalloc_base     0000000180031378     libucrt:recalloc.obj
 0002:0000b378       $unwind$__acrt_free_locale 0000000180031378     libucrt:locale_refcounting.obj
 0002:0000b378       $unwind$__acrt_lowio_create_handle_array 0000000180031378     libucrt:osfinfo.obj
 0002:0000b378       $unwind$_seh_filter_exe    0000000180031378     libucrt:exception_filter.obj
 0002:0000b378       $unwind$__acrt_stdio_flush_nolock 0000000180031378     libucrt:fflush.obj
 0002:0000b378       $unwind$??$ensure_buffer_is_big_enough@D@formatting_buffer@__crt_stdio_output@@QEAA_N_KAEAV__crt_cached_ptd_host@@@Z 0000000180031378     libucrt:output.obj
 0002:0000b378       $unwind$??$ensure_buffer_is_big_enough@_W@formatting_buffer@__crt_stdio_output@@QEAA_N_KAEAV__crt_cached_ptd_host@@@Z 0000000180031378     libucrt:output.obj
 0002:0000b378       $unwind$__scrt_dllmain_exception_filter 0000000180031378     LIBCMT:utility.obj
 0002:0000b378       $unwind$?GetHandlerSearchState@__FrameHandler3@@SAHPEA_KPEAU_xDISPATCHER_CONTEXT@@PEBU_s_FuncInfo@@@Z 0000000180031378     libvcruntime:frame.obj
 0002:0000b378       $unwind$?Is_bad_exception_allowed@@YAEPEBU_s_ESTypeList@@@Z 0000000180031378     libvcruntime:frame.obj
 0002:0000b378       $unwind$?CatchTryBlock@__FrameHandler3@@SAPEBU_s_TryBlockMapEntry@@PEBU_s_FuncInfo@@H@Z 0000000180031378     libvcruntime:risctrnsctrl.obj
 0002:0000b38c       $unwind$??0OposDispParms@@QEAA@PEAVOposVariant@@H@Z 000000018003138c     OposVariant.obj
 0002:0000b38c       $unwind$?SetBSTR_Copy@OposVariant@@QEAAXPEA_WAEAJ@Z 000000018003138c     OposVariant.obj
 0002:0000b38c       $unwind$?SetBSTR_InOutPtr@OposVariant@@QEAA_NPEAPEA_WAEAJ@Z 000000018003138c     OposVariant.obj
 0002:0000b38c       $unwind$?SetDispatch_Ptr@OposVariant@@QEAAXPEAUIDispatch@@AEAJ@Z 000000018003138c     OposVariant.obj
 0002:0000b38c       $unwind$?SetLONG_Ptr@OposVariant@@QEAAXPEAJAEAJ@Z 000000018003138c     OposVariant.obj
 0002:0000b38c       $unwind$?SetString@OposVariant@@QEAAXPEB_WAEAJ@Z 000000018003138c     OposVariant.obj
 0002:0000b38c       $unwind$?Term@CAtlComModule@ATL@@QEAAXXZ 000000018003138c     OposVariant.obj
 0002:0000b38c       $unwind$??_GCRegObject@ATL@@UEAAPEAXI@Z 000000018003138c     POSPower.obj
 0002:0000b38c       $unwind$?Add@?$CSimpleArray@GV?$CSimpleArrayEqualHelper@G@ATL@@@ATL@@QEAAHAEBG@Z 000000018003138c     POSPower.obj
 0002:0000b38c       $unwind$?Add@?$CSimpleMap@PEA_WPEA_WVCExpansionVectorEqualHelper@ATL@@@ATL@@QEAAHAEBQEA_W0@Z 000000018003138c     POSPower.obj
 0002:0000b38c       $unwind$?Add@CComDynamicUnkArray@ATL@@QEAAKPEAUIUnknown@@@Z 000000018003138c     POSPower.obj
 0002:0000b38c       $unwind$?Advise@?$IOleObjectImpl@VCOPOSPOSPower@@@ATL@@UEAAJPEAUIAdviseSink@@PEAK@Z 000000018003138c     POSPower.obj
 0002:0000b38c       $unwind$?ClearReplacements@CExpansionVector@ATL@@QEAAJXZ 000000018003138c     POSPower.obj
 0002:0000b38c       $unwind$?CreateInstance@?$CComObject@V?$CComEnum@UIEnumConnectionPoints@@$1?_GUID_b196b285_bab4_101a_b69c_00aa00341d07@@3U__s_GUID@@BPEAUIConnectionPoint@@V?$_CopyInterface@UIConnectionPoint@@@ATL@@VCComSingleThreadModel@6@@ATL@@@ATL@@SAJPEAPEAV12@@Z 000000018003138c     POSPower.obj
 0002:0000b38c       $unwind$?CreateInstance@?$CComObject@V?$CComEnum@UIEnumConnections@@$1?_GUID_b196b287_bab4_101a_b69c_00aa00341d07@@3U__s_GUID@@BUtagCONNECTDATA@@V?$_Copy@UtagCONNECTDATA@@@ATL@@VCComSingleThreadModel@6@@ATL@@@ATL@@SAJPEAPEAV12@@Z 000000018003138c     POSPower.obj
 0002:0000b38c       $unwind$?RegisterServer@CComModule@ATL@@QEAAJHPEBU_GUID@@@Z 000000018003138c     POSPower.obj
 0002:0000b38c       $unwind$?UnregisterServer@CComModule@ATL@@QEAAJHPEBU_GUID@@@Z 000000018003138c     POSPower.obj
 0002:0000b38c       $unwind$?VTFromRegType@CRegParser@ATL@@KAHPEB_WAEAG@Z 000000018003138c     POSPower.obj
 0002:0000b38c       $unwind$memcpy_s           000000018003138c     libucrt:cfout.obj
 0002:0000b38c       $unwind$__acrt_getptd      000000018003138c     libucrt:per_thread_data.obj
 0002:0000b38c       $unwind$__acrt_getptd_noexit 000000018003138c     libucrt:per_thread_data.obj
 0002:0000b38c       $unwind$__acrt_getptd_noexit_explicit 000000018003138c     libucrt:per_thread_data.obj
 0002:0000b38c       $unwind$__acrt_execute_initializers 000000018003138c     libucrt:shared_initialization.obj
 0002:0000b38c       $unwind$__acrt_InitializeCriticalSectionEx 000000018003138c     libucrt:winapi_thunks.obj
 0002:0000b38c       $unwind$_close_nolock_internal 000000018003138c     libucrt:close.obj
 0002:0000b38c       $unwind$?value@?$dual_state_global@P6AXPEB_W00I_K@Z@__crt_state_management@@QEAAAEAP6AXPEB_W00I_K@ZAEAV__crt_cached_ptd_host@@@Z 000000018003138c     libucrt:invalid_parameter.obj
 0002:0000b38c       $unwind$??0_LocaleUpdate@@QEAA@QEAU__crt_locale_pointers@@@Z 000000018003138c     libucrt:argv_wildcards.obj
 0002:0000b38c       $unwind$?type_case_Z@?$output_processor@_WV?$string_output_adapter@_W@__crt_stdio_output@@V?$format_validation_base@_WV?$string_output_adapter@_W@__crt_stdio_output@@@2@@__crt_stdio_output@@AEAA_NXZ 000000018003138c     libucrt:output.obj
 0002:0000b38c       $unwind$?type_case_s@?$output_processor@_WV?$string_output_adapter@_W@__crt_stdio_output@@V?$format_validation_base@_WV?$string_output_adapter@_W@__crt_stdio_output@@@2@@__crt_stdio_output@@AEAA_NXZ 000000018003138c     libucrt:output.obj
 0002:0000b38c       $unwind$?type_case_s_compute_narrow_string_length@?$output_processor@_WV?$string_output_adapter@_W@__crt_stdio_output@@V?$format_validation_base@_WV?$string_output_adapter@_W@__crt_stdio_output@@@2@@__crt_stdio_output@@AEAAHH_W@Z 000000018003138c     libucrt:output.obj
 0002:0000b38c       $unwind$?update_locale_slow@__crt_cached_ptd_host@@AEAAXXZ 000000018003138c     libucrt:output.obj
 0002:0000b38c       $unwind$strncpy_s          000000018003138c     libucrt:strncpy_s.obj
 0002:0000b38c       $unwind$wcsncpy_s          000000018003138c     libucrt:wcsncpy_s.obj
 0002:0000b38c       $unwind$_exception_enabled 000000018003138c     libucrt:libm_error.obj
 0002:0000b38c       $unwind$_DllMainCRTStartup 000000018003138c     LIBCMT:dll_dllmain.obj
 0002:0000b38c       $unwind$__vcrt_getptd_noexit 000000018003138c     libvcruntime:per_thread_data.obj
 0002:0000b38c       $unwind$?FrameUnwindToEmptyState@__FrameHandler3@@SAXPEA_KPEAU_xDISPATCHER_CONTEXT@@PEBU_s_FuncInfo@@@Z 000000018003138c     libvcruntime:risctrnsctrl.obj
 0002:0000b38c       $unwind$__vcrt_InitializeCriticalSectionEx 000000018003138c     libvcruntime:winapi_downlevel.obj
 0002:0000b39c       $unwind$??_Estringdispid@CComTypeInfoHolder@ATL@@QEAAPEAXI@Z 000000018003139c     OposVariant.obj
 0002:0000b39c       $unwind$?AddTermFunc@CAtlModule@ATL@@QEAAJP6AX_K@Z0@Z 000000018003139c     POSPower.obj
 0002:0000b39c       $unwind$?AtlComModuleRegisterServer@ATL@@YAJPEAU_ATL_COM_MODULE70@1@HPEBU_GUID@@@Z 000000018003139c     POSPower.obj
 0002:0000b39c       $unwind$?AtlComModuleUnregisterServer@ATL@@YAJPEAU_ATL_COM_MODULE70@1@HPEBU_GUID@@@Z 000000018003139c     POSPower.obj
 0002:0000b39c       $unwind$?CreateInstance@?$CComCreator@V?$CComAggObject@VCOPOSPOSPower@@@ATL@@@ATL@@SAJPEAXAEBU_GUID@@PEAPEAX@Z 000000018003139c     POSPower.obj
 0002:0000b39c       $unwind$?CreateInstance@?$CComCreator@V?$CComObjectCached@VCComClassFactory@ATL@@@ATL@@@ATL@@SAJPEAXAEBU_GUID@@PEAPEAX@Z 000000018003139c     POSPower.obj
 0002:0000b39c       $unwind$?GetPagesHelper@?$ISpecifyPropertyPagesImpl@VCOPOSPOSPower@@@ATL@@IEAAJPEAUtagCAUUID@@PEBUATL_PROPMAP_ENTRY@2@@Z 000000018003139c     POSPower.obj
 0002:0000b39c       $unwind$?Term@CAtlModule@ATL@@QEAAXXZ 000000018003139c     POSPower.obj
 0002:0000b39c       $unwind$?initialize_stdio_handles_nolock@@YAXXZ 000000018003139c     libucrt:ioinit.obj
 0002:0000b39c       $unwind$__acrt_initialize_stdio 000000018003139c     libucrt:_file.obj
 0002:0000b39c       $unwind$__GSHandlerCheck_EH 000000018003139c     LIBCMT:gshandlereh.obj
 0002:0000b39c       $unwind$__GSHandlerCheck_SEH 000000018003139c     LIBCMT:gshandlerseh.obj
 0002:0000b39c       $unwind$??$TypeMatchHelper@V__FrameHandler3@@@@YAHPEBU_s_HandlerType@@PEBU_s_CatchableType@@PEBU_s_ThrowInfo@@@Z 000000018003139c     libvcruntime:frame.obj
 0002:0000b39c       $unwind$??$TypeMatchHelper@V__FrameHandler4@@@@YAHPEAUHandlerType4@FH4@@PEBU_s_CatchableType@@PEBU_s_ThrowInfo@@@Z 000000018003139c     libvcruntime:frame.obj
 0002:0000b3b4       $unwind$?SetBSTR@OposVariant@@QEAAXPEA_WAEAJ@Z 00000001800313b4     OposVariant.obj
 0002:0000b3b4       $unwind$?SetLONG@OposVariant@@QEAAXJ@Z 00000001800313b4     OposVariant.obj
 0002:0000b3b4       $unwind$?SetVARIANT_BOOL@OposVariant@@QEAAXF@Z 00000001800313b4     OposVariant.obj
 0002:0000b3b4       $unwind$??0?$CComContainedObject@VCOPOSPOSPower@@@ATL@@QEAA@PEAX@Z 00000001800313b4     POSPower.obj
 0002:0000b3b4       $unwind$??1?$CComEnumImpl@UIEnumConnectionPoints@@$1?_GUID_b196b285_bab4_101a_b69c_00aa00341d07@@3U__s_GUID@@BPEAUIConnectionPoint@@V?$_CopyInterface@UIConnectionPoint@@@ATL@@@ATL@@UEAA@XZ 00000001800313b4     POSPower.obj
 0002:0000b3b4       $unwind$??1?$CComEnumImpl@UIEnumConnections@@$1?_GUID_b196b287_bab4_101a_b69c_00aa00341d07@@3U__s_GUID@@BUtagCONNECTDATA@@V?$_Copy@UtagCONNECTDATA@@@ATL@@@ATL@@UEAA@XZ 00000001800313b4     POSPower.obj
 0002:0000b3b4       $unwind$??_G?$CComAggObject@VCOPOSPOSPower@@@ATL@@UEAAPEAXI@Z 00000001800313b4     POSPower.obj
 0002:0000b3b4       $unwind$??_G?$CComContainedObject@VCOPOSPOSPower@@@ATL@@UEAAPEAXI@Z 00000001800313b4     POSPower.obj
 0002:0000b3b4       $unwind$??_G?$CComObject@V?$CComEnum@UIEnumConnectionPoints@@$1?_GUID_b196b285_bab4_101a_b69c_00aa00341d07@@3U__s_GUID@@BPEAUIConnectionPoint@@V?$_CopyInterface@UIConnectionPoint@@@ATL@@VCComSingleThreadModel@6@@ATL@@@ATL@@UEAAPEAXI@Z 00000001800313b4     POSPower.obj
 0002:0000b3b4       $unwind$??_G?$CComObject@V?$CComEnum@UIEnumConnections@@$1?_GUID_b196b287_bab4_101a_b69c_00aa00341d07@@3U__s_GUID@@BUtagCONNECTDATA@@V?$_Copy@UtagCONNECTDATA@@@ATL@@VCComSingleThreadModel@6@@ATL@@@ATL@@UEAAPEAXI@Z 00000001800313b4     POSPower.obj
 0002:0000b3b4       $unwind$??_G?$CComObject@VCOPOSPOSPower@@@ATL@@UEAAPEAXI@Z 00000001800313b4     POSPower.obj
 0002:0000b3b4       $unwind$??_G?$CComObjectCached@VCComClassFactory@ATL@@@ATL@@UEAAPEAXI@Z 00000001800313b4     POSPower.obj
 0002:0000b3b4       $unwind$??_GCComClassFactory@ATL@@UEAAPEAXI@Z 00000001800313b4     POSPower.obj
 0002:0000b3b4       $unwind$??_GCComModule@ATL@@UEAAPEAXI@Z 00000001800313b4     POSPower.obj
 0002:0000b3b4       $unwind$?DeleteSubKey@CRegKey@ATL@@QEAAJPEB_W@Z 00000001800313b4     POSPower.obj
 0002:0000b3b4       $unwind$?IOleObject_SetClientSite@CComControlBase@ATL@@QEAAJPEAUIOleClientSite@@@Z 00000001800313b4     POSPower.obj
 0002:0000b3b4       $unwind$?InitNew@?$IPersistStorageImpl@VCOPOSPOSPower@@@ATL@@UEAAJPEAUIStorage@@@Z 00000001800313b4     POSPower.obj
 0002:0000b3b4       $unwind$?IsDirty@?$IPersistStorageImpl@VCOPOSPOSPower@@@ATL@@UEAAJXZ 00000001800313b4     POSPower.obj
 0002:0000b3b4       $unwind$?Release@?$CComAggObject@VCOPOSPOSPower@@@ATL@@UEAAKXZ 00000001800313b4     POSPower.obj
 0002:0000b3b4       $unwind$?Release@?$CComObject@V?$CComEnum@UIEnumConnectionPoints@@$1?_GUID_b196b285_bab4_101a_b69c_00aa00341d07@@3U__s_GUID@@BPEAUIConnectionPoint@@V?$_CopyInterface@UIConnectionPoint@@@ATL@@VCComSingleThreadModel@6@@ATL@@@ATL@@UEAAKXZ 00000001800313b4     POSPower.obj
 0002:0000b3b4       $unwind$?Release@?$CComObject@V?$CComEnum@UIEnumConnections@@$1?_GUID_b196b287_bab4_101a_b69c_00aa00341d07@@3U__s_GUID@@BUtagCONNECTDATA@@V?$_Copy@UtagCONNECTDATA@@@ATL@@VCComSingleThreadModel@6@@ATL@@@ATL@@UEAAKXZ 00000001800313b4     POSPower.obj
 0002:0000b3b4       $unwind$?Release@?$CComObject@VCOPOSPOSPower@@@ATL@@UEAAKXZ 00000001800313b4     POSPower.obj
 0002:0000b3b4       $unwind$?SOStatusUpdate@COPOSPOSPower@@MEAAJJ@Z 00000001800313b4     POSPower.obj
 0002:0000b3b4       $unwind$?SetAdvise@?$IViewObjectExImpl@VCOPOSPOSPower@@@ATL@@UEAAJKKPEAUIAdviseSink@@@Z 00000001800313b4     POSPower.obj
 0002:0000b3b4       $unwind$?Term@CComModule@ATL@@QEAAXXZ 00000001800313b4     POSPower.obj
 0002:0000b3b4       $unwind$DllMain            00000001800313b4     POSPower.obj
 0002:0000b3b4       $unwind$??1?$IConnectionPointImpl@VCOPOSPOSPower@@$1?DIID__IOPOSPOSPowerEvents@@3U_GUID@@BVCComDynamicUnkArray@ATL@@@ATL@@QEAA@XZ 00000001800313b4     POSPowerImpl.obj
 0002:0000b3b4       $unwind$??1?$IConnectionPointImpl@VCOPOSPOSPower@@$1?IID_IPropertyNotifySink@@3U_GUID@@BVCComDynamicUnkArray@ATL@@@ATL@@QEAA@XZ 00000001800313b4     POSPowerImpl.obj
 0002:0000b3b4       $unwind$?EventWindowProc@COPOSPOSPower@@IEAA_JI_K_J@Z 00000001800313b4     POSPowerImpl.obj
 0002:0000b3b4       $unwind$??$common_initialize_environment_nolock@D@@YAHXZ 00000001800313b4     libucrt:environment_initialization.obj
 0002:0000b3b4       $unwind$_realloc_base      00000001800313b4     libucrt:realloc_base.obj
 0002:0000b3b4       $unwind$?replace_current_thread_locale_nolock@@YAXQEAU__acrt_ptd@@QEAU__crt_locale_data@@@Z 00000001800313b4     libucrt:per_thread_data.obj
 0002:0000b3b4       $unwind$__acrt_execute_uninitializers 00000001800313b4     libucrt:shared_initialization.obj
 0002:0000b3b4       $unwind$__acrt_LocaleNameToLCID 00000001800313b4     libucrt:winapi_thunks.obj
 0002:0000b3b4       $unwind$?free_crt_array_internal@@YAXQEAPEBX_K@Z 00000001800313b4     libucrt:inittime.obj
 0002:0000b3b4       $unwind$_updatetlocinfoEx_nolock 00000001800313b4     libucrt:locale_refcounting.obj
 0002:0000b3b4       $unwind$__acrt_uninitialize_lowio 00000001800313b4     libucrt:ioinit.obj
 0002:0000b3b4       $unwind$?setSBCS@@YAXPEAU__crt_multibyte_data@@@Z 00000001800313b4     libucrt:mbctype.obj
 0002:0000b3b4       $unwind$_initterm_e        00000001800313b4     libucrt:initterm.obj
 0002:0000b3b4       $unwind$??0CAtlBaseModule@ATL@@QEAA@XZ 00000001800313b4     atls:atlbase.obj
 0002:0000b3b4       $unwind$??$GetProcAddressAll@P6AP6A_JPEAUHWND__@@I_K_J@ZPEAUAtlThunkData_t@@@Z@@YAP6AP6A_JPEAUHWND__@@I_K_J@ZPEAUAtlThunkData_t@@@ZPEAP6AP6A_J0I12@Z3@Z@Z 00000001800313b4     atls:atlthunk.obj
 0002:0000b3b4       $unwind$??$GetProcAddressAll@P6APEAUAtlThunkData_t@@XZ@@YAP6APEAUAtlThunkData_t@@XZPEAP6APEAU0@XZ@Z 00000001800313b4     atls:atlthunk.obj
 0002:0000b3b4       $unwind$??$GetProcAddressAll@P6AXPEAUAtlThunkData_t@@@Z@@YAP6AXPEAUAtlThunkData_t@@@ZPEAP6AX0@Z@Z 00000001800313b4     atls:atlthunk.obj
 0002:0000b3b4       $unwind$??$GetProcAddressAll@P6AXPEAUAtlThunkData_t@@PEAX_K@Z@@YAP6AXPEAUAtlThunkData_t@@PEAX_K@ZPEAP6AX012@Z@Z 00000001800313b4     atls:atlthunk.obj
 0002:0000b3b4       $unwind$?__AllocStdCallThunk_cmn@@YAPEAXXZ 00000001800313b4     atls:atlthunk.obj
 0002:0000b3b4       $unwind$?__InitializeThunkPool@@YAHXZ 00000001800313b4     atls:atlthunk.obj
 0002:0000b3b4       $unwind$AtlThunk_DataToCode 00000001800313b4     atls:atlthunk.obj
 0002:0000b3b4       $unwind$_RTC_Initialize    00000001800313b4     LIBCMT:initsect.obj
 0002:0000b3b4       $unwind$_RTC_Terminate     00000001800313b4     LIBCMT:initsect.obj
 0002:0000b3b4       $unwind$?__scrt_initialize_thread_safe_statics@@YAHXZ 00000001800313b4     LIBCMT:thread_safe_statics.obj
 0002:0000b3b4       $unwind$??_Gbad_alloc@std@@UEAAPEAXI@Z 00000001800313b4     LIBCMT:throw_bad_alloc.obj
 0002:0000b3b4       $unwind$??_Gbad_array_new_length@std@@UEAAPEAXI@Z 00000001800313b4     LIBCMT:throw_bad_alloc.obj
 0002:0000b3b4       $unwind$??_Gexception@std@@UEAAPEAXI@Z 00000001800313b4     LIBCMT:throw_bad_alloc.obj
 0002:0000b3b4       $unwind$__C_specific_handler_noexcept 00000001800313b4     libvcruntime:chandler_noexcept.obj
 0002:0000b3b4       $unwind$__FrameUnwindFilter 00000001800313b4     libvcruntime:ehhelpers.obj
 0002:0000b3b4       $unwind$?SetUnwindTryBlock@__FrameHandler3@@SAXPEA_KPEAU_xDISPATCHER_CONTEXT@@PEBU_s_FuncInfo@@H@Z 00000001800313b4     libvcruntime:ehstate.obj
 0002:0000b3b4       $unwind$??_Gbad_exception@std@@UEAAPEAXI@Z 00000001800313b4     libvcruntime:frame.obj
 0002:0000b3b4       $unwind$?ExFilterRethrow@@YAHPEAU_EXCEPTION_POINTERS@@PEAUEHExceptionRecord@@PEAH@Z 00000001800313b4     libvcruntime:frame.obj
 0002:0000b3b4       $unwind$?ExFilterRethrowFH4@@YAHPEAU_EXCEPTION_POINTERS@@PEAUEHExceptionRecord@@HPEAH@Z 00000001800313b4     libvcruntime:frame.obj
 0002:0000b3b4       $unwind$_FindAndUnlinkFrame 00000001800313b4     libvcruntime:risctrnsctrl.obj
 0002:0000b3b4       $unwind$__vcrt_FlsSetValue 00000001800313b4     libvcruntime:winapi_downlevel.obj
 0002:0000b3c0       $unwind$?ChangeBSTR@OposVariant@@QEAAXPEAPEA_WAEAJ@Z 00000001800313c0     OposVariant.obj
 0002:0000b3c0       $unwind$?ChangeLONG@OposVariant@@QEAAXPEAJAEAJ@Z 00000001800313c0     OposVariant.obj
 0002:0000b3c0       $unwind$?x_ismbbtype_l@@YAHPEAU__crt_locale_pointers@@IHH@Z 00000001800313c0     libucrt:ismbbyte.obj
 0002:0000b3d0       $unwind$swprintf_s         00000001800313d0     POSPower.obj
 0002:0000b3e0       $unwind$?_AtlVerifyStackAvailable@_ATL_SAFE_ALLOCA_IMPL@ATL@@YA_N_K@Z 00000001800313e0     POSPower.obj
 0002:0000b40c       $unwind$?filt$0@?0??_AtlVerifyStackAvailable@_ATL_SAFE_ALLOCA_IMPL@ATL@@YA_N_K@Z@4HA 000000018003140c     POSPower.obj
 0002:0000b40c       $unwind$_query_new_handler$fin$0 000000018003140c     libucrt:new_handler.obj
 0002:0000b40c       $unwind$?fin$0@?0???$?RV<lambda_0ae27a3a962d80f24befdcbee591983d>@@AEAV<lambda_8d0ee55de4b1038c4002e0adecdf1839>@@V<lambda_dc504788e8f1664fe9b84e20bfb512f2>@@@?$__crt_seh_guarded_call@X@@QEAAX$$QEAV<lambda_0ae27a3a962d80f24befdcbee591983d>@@AEAV<lambda_8d0ee55de4b1038c4002e0adecdf1839>@@$$QEAV<lambda_dc504788e8f1664fe9b84e20bfb512f2>@@@Z@4HA 000000018003140c     libucrt:per_thread_data.obj
 0002:0000b40c       $unwind$?fin$0@?0???$?RV<lambda_2d41944a1d46af3157314b8a01080d33>@@AEAV<lambda_8f455de75cd7d7f24b4096f044d8b9e6>@@V<lambda_aa500f224e6afead328df44964fe2772>@@@?$__crt_seh_guarded_call@X@@QEAAX$$QEAV<lambda_2d41944a1d46af3157314b8a01080d33>@@AEAV<lambda_8f455de75cd7d7f24b4096f044d8b9e6>@@$$QEAV<lambda_aa500f224e6afead328df44964fe2772>@@@Z@4HA 000000018003140c     libucrt:per_thread_data.obj
 0002:0000b40c       $unwind$?fin$0@?0???$?RV<lambda_aa87e3671a710a21b5dc78c0bdf72e11>@@AEAV<lambda_92619d2358a28f41a33ba319515a20b9>@@V<lambda_6992ecaafeb10aed2b74cb1fae11a551>@@@?$__crt_seh_guarded_call@X@@QEAAX$$QEAV<lambda_aa87e3671a710a21b5dc78c0bdf72e11>@@AEAV<lambda_92619d2358a28f41a33ba319515a20b9>@@$$QEAV<lambda_6992ecaafeb10aed2b74cb1fae11a551>@@@Z@4HA 000000018003140c     libucrt:per_thread_data.obj
 0002:0000b40c       $unwind$?fin$0@?0???$?RV<lambda_f2e299630e499de9f9a165e60fcd3db5>@@AEAV<lambda_2ae9d31cdba2644fcbeaf08da7c24588>@@V<lambda_40d01ff24d0e7b3814fdbdcee8eab3c7>@@@?$__crt_seh_guarded_call@X@@QEAAX$$QEAV<lambda_f2e299630e499de9f9a165e60fcd3db5>@@AEAV<lambda_2ae9d31cdba2644fcbeaf08da7c24588>@@$$QEAV<lambda_40d01ff24d0e7b3814fdbdcee8eab3c7>@@@Z@4HA 000000018003140c     libucrt:per_thread_data.obj
 0002:0000b40c       $unwind$__acrt_update_thread_locale_data$fin$0 000000018003140c     libucrt:locale_refcounting.obj
 0002:0000b40c       $unwind$?fin$0@?0???$?RV<lambda_410d79af7f07d98d83a3f525b3859a53>@@AEAV<lambda_3e16ef9562a7dcce91392c22ab16ea36>@@V<lambda_38119f0e861e05405d8a144b9b982f0a>@@@?$__crt_seh_guarded_call@X@@QEAAX$$QEAV<lambda_410d79af7f07d98d83a3f525b3859a53>@@AEAV<lambda_3e16ef9562a7dcce91392c22ab16ea36>@@$$QEAV<lambda_38119f0e861e05405d8a144b9b982f0a>@@@Z@4HA 000000018003140c     libucrt:wsetlocale.obj
 0002:0000b40c       $unwind$?fin$0@?0???$?RV<lambda_ad8af0d99a0adf03d037d7dffe354bb5>@@AEAV<lambda_c9ba49e555ba839a7b07aa3fbecb7617>@@V<lambda_2f1ebd5d68526518146ae959c9e734c8>@@@?$__crt_seh_guarded_call@H@@QEAAH$$QEAV<lambda_ad8af0d99a0adf03d037d7dffe354bb5>@@AEAV<lambda_c9ba49e555ba839a7b07aa3fbecb7617>@@$$QEAV<lambda_2f1ebd5d68526518146ae959c9e734c8>@@@Z@4HA 000000018003140c     libucrt:close.obj
 0002:0000b40c       $unwind$?fin$0@?0???$?RV<lambda_a37b2b86f63e897a80ea819b0eb08c01>@@AEAV<lambda_38ce7e780aa69e748d6df282ebc68efe>@@V<lambda_99fb1378e971ab6e7edea83e3a7a83a2>@@@?$__crt_seh_guarded_call@H@@QEAAH$$QEAV<lambda_a37b2b86f63e897a80ea819b0eb08c01>@@AEAV<lambda_38ce7e780aa69e748d6df282ebc68efe>@@$$QEAV<lambda_99fb1378e971ab6e7edea83e3a7a83a2>@@@Z@4HA 000000018003140c     libucrt:commit.obj
 0002:0000b40c       $unwind$__acrt_initialize_lowio$fin$0 000000018003140c     libucrt:ioinit.obj
 0002:0000b40c       $unwind$__acrt_lowio_ensure_fh_exists$fin$0 000000018003140c     libucrt:osfinfo.obj
 0002:0000b40c       $unwind$?fin$0@?0???$?RV<lambda_efdfa57d1f175319df784efa44bb7b81>@@AEAV<lambda_5f0a4c1567f8adc6734073e5d1e1b35c>@@V<lambda_2e8a7d3640ea6ccb4c2413664c2db6fd>@@@?$__crt_seh_guarded_call@X@@QEAAX$$QEAV<lambda_efdfa57d1f175319df784efa44bb7b81>@@AEAV<lambda_5f0a4c1567f8adc6734073e5d1e1b35c>@@$$QEAV<lambda_2e8a7d3640ea6ccb4c2413664c2db6fd>@@@Z@4HA 000000018003140c     libucrt:mbctype.obj
 0002:0000b40c       $unwind$?fin$0@?0??update_thread_multibyte_data_internal@@YAPEAU__crt_multibyte_data@@QEAU__acrt_ptd@@QEAPEAU1@@Z@4HA 000000018003140c     libucrt:mbctype.obj
 0002:0000b40c       $unwind$?fin$0@?0???$?RV<lambda_450d765d439847d4c735a33c368b5fc0>@@AEAV<lambda_44731a7d0e6d81c3e6aa82d741081786>@@V<lambda_601a2a7da3b7a96e9554ac7215c4b07c>@@@?$__crt_seh_guarded_call@P6AXH@Z@@QEAAP6AXH@Z$$QEAV<lambda_450d765d439847d4c735a33c368b5fc0>@@AEAV<lambda_44731a7d0e6d81c3e6aa82d741081786>@@$$QEAV<lambda_601a2a7da3b7a96e9554ac7215c4b07c>@@@Z@4HA 000000018003140c     libucrt:signal.obj
 0002:0000b40c       $unwind$raise$fin$0        000000018003140c     libucrt:signal.obj
 0002:0000b40c       $unwind$?filt$0@?0???R<lambda_6e4b09c48022b2350581041d5f6b0c4c>@@QEBA@XZ@4HA 000000018003140c     libucrt:exit.obj
 0002:0000b40c       $unwind$?fin$0@?0???$?RV<lambda_d80eeec6fff315bfe5c115232f3240e3>@@AEAV<lambda_6e4b09c48022b2350581041d5f6b0c4c>@@V<lambda_2358e3775559c9db80273638284d5e45>@@@?$__crt_seh_guarded_call@X@@QEAAX$$QEAV<lambda_d80eeec6fff315bfe5c115232f3240e3>@@AEAV<lambda_6e4b09c48022b2350581041d5f6b0c4c>@@$$QEAV<lambda_2358e3775559c9db80273638284d5e45>@@@Z@4HA 000000018003140c     libucrt:exit.obj
 0002:0000b40c       $unwind$?fin$0@?0???$?RV<lambda_638799b9deba96c50f710eeac98168cd>@@AEAV<lambda_22ebabd17bc4fa466a2aca6d8deb888d>@@V<lambda_a6f7d7db0129f75315ebf26d50c089f1>@@@?$__crt_seh_guarded_call@H@@QEAAH$$QEAV<lambda_638799b9deba96c50f710eeac98168cd>@@AEAV<lambda_22ebabd17bc4fa466a2aca6d8deb888d>@@$$QEAV<lambda_a6f7d7db0129f75315ebf26d50c089f1>@@@Z@4HA 000000018003140c     libucrt:onexit.obj
 0002:0000b40c       $unwind$?fin$0@?0???$?RV<lambda_7777bce6b2f8c936911f934f8298dc43>@@AEAV<lambda_f03950bc5685219e0bcd2087efbe011e>@@V<lambda_3883c3dff614d5e0c5f61bb1ac94921c>@@@?$__crt_seh_guarded_call@H@@QEAAH$$QEAV<lambda_7777bce6b2f8c936911f934f8298dc43>@@AEAV<lambda_f03950bc5685219e0bcd2087efbe011e>@@$$QEAV<lambda_3883c3dff614d5e0c5f61bb1ac94921c>@@@Z@4HA 000000018003140c     libucrt:onexit.obj
 0002:0000b40c       $unwind$_fcloseall$fin$0   000000018003140c     libucrt:closeall.obj
 0002:0000b40c       $unwind$?fin$0@?0???$?RV<lambda_842d9ff0dc9ef11c61343bbaebe7f885>@@AEAV<lambda_c5860995281e5c4ce005b3de8f5874ee>@@V<lambda_d90129c13df834fdcbf8d2b88dafcf2d>@@@?$__crt_seh_guarded_call@X@@QEAAX$$QEAV<lambda_842d9ff0dc9ef11c61343bbaebe7f885>@@AEAV<lambda_c5860995281e5c4ce005b3de8f5874ee>@@$$QEAV<lambda_d90129c13df834fdcbf8d2b88dafcf2d>@@@Z@4HA 000000018003140c     libucrt:fflush.obj
 0002:0000b40c       $unwind$?fin$0@?0???$?RV<lambda_886d6c58226a84441f68b9f2b8217b83>@@AEAV<lambda_ab61a845afdef5b7c387490eaf3616ee>@@V<lambda_f7f22ab5edc0698d5f6905b0d3f44752>@@@?$__crt_seh_guarded_call@X@@QEAAX$$QEAV<lambda_886d6c58226a84441f68b9f2b8217b83>@@AEAV<lambda_ab61a845afdef5b7c387490eaf3616ee>@@$$QEAV<lambda_f7f22ab5edc0698d5f6905b0d3f44752>@@@Z@4HA 000000018003140c     libucrt:fflush.obj
 0002:0000b40c       $unwind$_ctrlfp$filt$0     000000018003140c     libucrt:fpctrl.obj
 0002:0000b40c       $unwind$common_control87$filt$0 000000018003140c     libucrt:ieee.obj
 0002:0000b40c       $unwind$?fin$0@?0??dllmain_crt_process_attach@@YAHQEAUHINSTANCE__@@QEAX@Z@4HA 000000018003140c     LIBCMT:dll_dllmain.obj
 0002:0000b40c       $unwind$?fin$0@?0??dllmain_crt_process_detach@@YAH_N@Z@4HA 000000018003140c     LIBCMT:dll_dllmain.obj
 0002:0000b40c       $unwind$?fin$1@?0??dllmain_crt_process_detach@@YAH_N@Z@4HA 000000018003140c     LIBCMT:dll_dllmain.obj
 0002:0000b40c       $unwind$_IsNonwritableInCurrentImage$filt$0 000000018003140c     LIBCMT:pesect.obj
 0002:0000b40c       $unwind$?filt$0@?0??CxxCallCatchBlock@__FrameHandler3@@SAPEAXPEAU_EXCEPTION_RECORD@@@Z@4HA 000000018003140c     libvcruntime:frame.obj
 0002:0000b40c       $unwind$?filt$0@?0??CxxCallCatchBlock@__FrameHandler4@@SAPEAXPEAU_EXCEPTION_RECORD@@@Z@4HA 000000018003140c     libvcruntime:frame.obj
 0002:0000b40c       $unwind$?filt$0@?0??FrameUnwindToState@__FrameHandler3@@SAXPEA_KPEAU_xDISPATCHER_CONTEXT@@PEBU_s_FuncInfo@@H@Z@4HA 000000018003140c     libvcruntime:frame.obj
 0002:0000b40c       $unwind$?fin$1@?0??FrameUnwindToState@__FrameHandler3@@SAXPEA_KPEAU_xDISPATCHER_CONTEXT@@PEBU_s_FuncInfo@@H@Z@4HA 000000018003140c     libvcruntime:frame.obj
 0002:0000b414       $unwind$?AtlInternalOleLoadFromStream@ATL@@YAJPEAUIStream@@AEBU_GUID@@PEAPEAXTClassesAllowedInStream@1@K@Z 0000000180031414     POSPower.obj
 0002:0000b430       $unwind$?ReadFromStream@CComBSTR@ATL@@QEAAJPEAUIStream@@@Z 0000000180031430     POSPower.obj
 0002:0000b430       $unwind$_configure_narrow_argv 0000000180031430     libucrt:argv_parsing.obj
 0002:0000b444       $unwind$?WriteToStream@CComVariant@ATL@@QEAAJPEAUIStream@@@Z 0000000180031444     POSPower.obj
 0002:0000b458       $unwind$?RegOpenKeyExW@CAtlTransactionManager@ATL@@QEAAJPEAUHKEY__@@PEB_WKKPEAPEAU3@@Z 0000000180031458     POSPower.obj
 0002:0000b458       $unwind$?WriteToStream@CComVariant@ATL@@QEAAJPEAUIStream@@G@Z 0000000180031458     POSPower.obj
 0002:0000b458       $unwind$__dcrt_write_console 0000000180031458     libucrt:initcon.obj
 0002:0000b458       $unwind$??$__acrt_convert_wcs_mbs_cp@_WDV<lambda_f788ae46380686e8b737efdd8c720d07>@@U__crt_win32_buffer_no_resizing@@@@YAHQEB_WAEAV?$__crt_win32_buffer@DU__crt_win32_buffer_no_resizing@@@@AEBV<lambda_f788ae46380686e8b737efdd8c720d07>@@I@Z 0000000180031458     libucrt:getmodulefilenamea.obj
 0002:0000b46c       $unwind$?ReadFromStream@CComVariant@ATL@@QEAAJPEAUIStream@@GTClassesAllowedInStream@2@K@Z 000000018003146c     POSPower.obj
 0002:0000b484       $unwind$?GetSizeMax@CComVariant@ATL@@QEBAJPEAT_ULARGE_INTEGER@@@Z 0000000180031484     POSPower.obj
 0002:0000b498       $unwind$?RegCreateKeyExW@CAtlTransactionManager@ATL@@QEAAJPEAUHKEY__@@PEB_WKPEA_WKKQEAU_SECURITY_ATTRIBUTES@@PEAPEAU3@PEAK@Z 0000000180031498     POSPower.obj
 0002:0000b4ac       $unwind$?GetGITPtr@CAtlModule@ATL@@UEAAJPEAPEAUIGlobalInterfaceTable@@@Z 00000001800314ac     POSPower.obj
 0002:0000b4ac       $unwind$?RegDeleteKeyW@CAtlTransactionManager@ATL@@QEAAJPEAUHKEY__@@PEB_W@Z 00000001800314ac     POSPower.obj
 0002:0000b4ac       $unwind$?getStateFromIterators@UWMap4@FH4@@SAHAEBViterator@12@H0H0@Z 00000001800314ac     libvcruntime:frame.obj
 0002:0000b4bc       $unwind$?AtlHiMetricToPixel@ATL@@YAXPEBUtagSIZE@@PEAU2@@Z 00000001800314bc     POSPower.obj
 0002:0000b4bc       $unwind$?AtlInternalQueryInterface@ATL@@YAJPEAXPEBU_ATL_INTMAP_ENTRY@1@AEBU_GUID@@PEAPEAX@Z 00000001800314bc     POSPower.obj
 0002:0000b4d4       $unwind$?Append@CParseBuffer@CRegParser@ATL@@QEAAHPEB_WH@Z 00000001800314d4     POSPower.obj
 0002:0000b4d4       $unwind$?AtlComModuleGetClassObject@ATL@@YAJPEAU_ATL_COM_MODULE70@1@AEBU_GUID@@1PEAPEAX@Z 00000001800314d4     POSPower.obj
 0002:0000b4d4       $unwind$?GetClassObject@CComModule@ATL@@QEAAJAEBU_GUID@@0PEAPEAX@Z 00000001800314d4     POSPower.obj
 0002:0000b4d4       $unwind$?NextToken@CRegParser@ATL@@IEAAJPEA_W@Z 00000001800314d4     POSPower.obj
 0002:0000b4d4       $unwind$?StartWindowProc@?$CWindowImplBaseT@VCWindow@ATL@@V?$CWinTraits@$0FGAAAAAA@$0A@@2@@ATL@@SA_JPEAUHWND__@@I_K_J@Z 00000001800314d4     POSPower.obj
 0002:0000b4d4       $unwind$?fp_format_f_internal@@YAHQEAD_KHQEAU_strflt@@_NAEAV__crt_cached_ptd_host@@@Z 00000001800314d4     libucrt:cvt.obj
 0002:0000b4d4       $unwind$__acrt_DownlevelLocaleNameToLCID 00000001800314d4     libucrt:lcidtoname_downlevel.obj
 0002:0000b4d4       $unwind$??R<lambda_f03950bc5685219e0bcd2087efbe011e>@@QEBAHXZ 00000001800314d4     libucrt:onexit.obj
 0002:0000b4ec       $unwind$?AtlRegisterClassCategoriesHelper@ATL@@YAJAEBU_GUID@@PEBU_ATL_CATMAP_ENTRY@1@H@Z 00000001800314ec     POSPower.obj
 0002:0000b510       $unwind$?AtlLoadTypeLib@ATL@@YAJPEAUHINSTANCE__@@PEB_WPEAPEA_WPEAPEAUITypeLib@@@Z 0000000180031510     POSPower.obj
 0002:0000b530       $unwind$?AtlRegisterTypeLib@ATL@@YAJPEAUHINSTANCE__@@PEB_W@Z 0000000180031530     POSPower.obj
 0002:0000b54c       $unwind$?AtlUnRegisterTypeLib@ATL@@YAJPEAUHINSTANCE__@@PEB_W@Z 000000018003154c     POSPower.obj
 0002:0000b554       $unwind$?GetTI@CComTypeInfoHolder@ATL@@QEAAJK@Z 0000000180031554     POSPower.obj
 0002:0000b554       $unwind$?RecurseDeleteKey@CRegKey@ATL@@QEAAJPEB_W@Z 0000000180031554     POSPower.obj
 0002:0000b574       $unwind$?UpdateRegistryFromResource@CAtlModule@ATL@@QEAAJIHPEAU_ATL_REGMAP_ENTRY@2@@Z 0000000180031574     POSPower.obj
 0002:0000b574       $unwind$?UpdateRegistryFromResource@CAtlModule@ATL@@QEAAJPEB_WHPEAU_ATL_REGMAP_ENTRY@2@@Z 0000000180031574     POSPower.obj
 0002:0000b594       $unwind$?Lookup@?$CSimpleMap@PEA_WPEA_WVCExpansionVectorEqualHelper@ATL@@@ATL@@QEBAPEA_WAEBQEA_W@Z 0000000180031594     POSPower.obj
 0002:0000b594       $unwind$_free_osfhnd       0000000180031594     libucrt:osfinfo.obj
 0002:0000b594       $unwind$__std_exception_copy 0000000180031594     libvcruntime:std_exception.obj
 0002:0000b5a8       $unwind$?Add@CExpansionVector@ATL@@QEAAHPEB_W0@Z 00000001800315a8     POSPower.obj
 0002:0000b5c0       $unwind$?PreProcessBuffer@CRegParser@ATL@@QEAAJPEA_WPEAPEA_W@Z 00000001800315c0     POSPower.obj
 0002:0000b5e4       $unwind$?RegisterBuffer@CRegParser@ATL@@QEAAJPEA_WH@Z 00000001800315e4     POSPower.obj
 0002:0000b604       $unwind$?AddValue@CRegParser@ATL@@IEAAJAEAVCRegKey@2@PEB_WPEA_W@Z 0000000180031604     POSPower.obj
 0002:0000b624       $unwind$?RegisterSubkeys@CRegParser@ATL@@IEAAJPEA_WPEAUHKEY__@@HH@Z 0000000180031624     POSPower.obj
 0002:0000b644       $unwind$?SkipAssignment@CRegParser@ATL@@IEAAJPEA_W@Z 0000000180031644     POSPower.obj
 0002:0000b660       $unwind$?RegisterFromResource@CRegObject@ATL@@IEAAJPEB_W00H@Z 0000000180031660     POSPower.obj
 0002:0000b680       $unwind$?Cleanup@CComTypeInfoHolder@ATL@@SAX_K@Z 0000000180031680     POSPower.obj
 0002:0000b680       $unwind$_free_base         0000000180031680     libucrt:free_base.obj
 0002:0000b680       $unwind$?destroy_fls@@YAXPEAX@Z 0000000180031680     libucrt:per_thread_data.obj
 0002:0000b680       $unwind$__acrt_locale_free_numeric 0000000180031680     libucrt:initnum.obj
 0002:0000b680       $unwind$__acrt_locale_free_lc_time_if_unreferenced 0000000180031680     libucrt:locale_refcounting.obj
 0002:0000b680       $unwind$AtlThunk_FreeData  0000000180031680     atls:atlthunk.obj
 0002:0000b688       $unwind$?GetIDsOfNames@CComTypeInfoHolder@ATL@@QEAAJAEBU_GUID@@PEAPEA_WIKPEAJ@Z 0000000180031688     POSPower.obj
 0002:0000b6a4       $unwind$?LoadNameCache@CComTypeInfoHolder@ATL@@QEAAJPEAUITypeInfo@@@Z 00000001800316a4     POSPower.obj
 0002:0000b6bc       $unwind$?WindowProc@?$CWindowImplBaseT@VCWindow@ATL@@V?$CWinTraits@$0FGAAAAAA@$0A@@2@@ATL@@SA_JPEAUHWND__@@I_K_J@Z 00000001800316bc     POSPower.obj
 0002:0000b6d4       $unwind$?atlCreate@?$CWindowImplBaseT@VCWindow@ATL@@V?$CWinTraits@$0FGAAAAAA@$0A@@2@@ATL@@QEAAPEAUHWND__@@PEAU3@V_U_RECT@2@PEB_WKKV_U_MENUorID@2@GPEAX@Z 00000001800316d4     POSPower.obj
 0002:0000b6ec       $unwind$??$AtlModuleRegisterWndClassInfoT@VAtlModuleRegisterWndClassInfoParamW@ATL@@@ATL@@YAGPEAU_ATL_BASE_MODULE70@0@PEAU_ATL_WIN_MODULE70@0@PEAU_ATL_WNDCLASSINFOW@0@PEAP6A_JPEAUHWND__@@I_K_J@ZVAtlModuleRegisterWndClassInfoParamW@0@@Z 00000001800316ec     POSPower.obj
 0002:0000b70c       $unwind$?GetZoomInfo@CComControlBase@ATL@@QEAAXAEAUATL_DRAWINFO@@@Z 000000018003170c     POSPower.obj
 0002:0000b70c       $unwind$?OnKillFocus@CComControlBase@ATL@@QEAA_JI_K_JAEAH@Z 000000018003170c     POSPower.obj
 0002:0000b70c       $unwind$?get_raw_ptd@__crt_cached_ptd_host@@QEAAPEAU__acrt_ptd@@XZ 000000018003170c     libucrt:invalid_parameter.obj
 0002:0000b718       $unwind$?SendOnDataChange@CComControlBase@ATL@@QEAAJK@Z 0000000180031718     POSPower.obj
 0002:0000b728       $unwind$?OnSetFocus@CComControlBase@ATL@@QEAA_JI_K_JAEAH@Z 0000000180031728     POSPower.obj
 0002:0000b73c       $unwind$?OnMouseActivate@CComControlBase@ATL@@QEAA_JI_K_JAEAH@Z 000000018003173c     POSPower.obj
 0002:0000b744       $unwind$?GetAmbientLocaleID@CComControlBase@ATL@@QEAAJAEAK@Z 0000000180031744     POSPower.obj
 0002:0000b744       $unwind$?GetAmbientUserMode@CComControlBase@ATL@@QEAAJAEAH@Z 0000000180031744     POSPower.obj
 0002:0000b754       $unwind$?IQuickActivate_QuickActivate@CComControlBase@ATL@@QEAAJPEAUtagQACONTAINER@@PEAUtagQACONTROL@@@Z 0000000180031754     POSPower.obj
 0002:0000b76c       $unwind$?DoVerbProperties@CComControlBase@ATL@@QEAAJPEBUtagRECT@@PEAUHWND__@@@Z 000000018003176c     POSPower.obj
 0002:0000b784       $unwind$?InPlaceActivate@CComControlBase@ATL@@QEAAJJPEBUtagRECT@@@Z 0000000180031784     POSPower.obj
 0002:0000b7a4       $unwind$?IOleObject_Close@CComControlBase@ATL@@QEAAJK@Z 00000001800317a4     POSPower.obj
 0002:0000b7a4       $unwind$?get_raw_ptd_noexit@__crt_cached_ptd_host@@QEAAPEAU__acrt_ptd@@XZ 00000001800317a4     libucrt:invalid_parameter.obj
 0002:0000b7a4       $unwind$?type_case_c_tchar@?$output_processor@_WV?$string_output_adapter@_W@__crt_stdio_output@@V?$format_validation_base@_WV?$string_output_adapter@_W@__crt_stdio_output@@@2@@__crt_stdio_output@@AEAA_N_W@Z 00000001800317a4     libucrt:output.obj
 0002:0000b7b4       $unwind$?IOleInPlaceObject_UIDeactivate@CComControlBase@ATL@@QEAAJXZ 00000001800317b4     POSPower.obj
 0002:0000b7cc       $unwind$?IOleInPlaceObject_SetObjectRects@CComControlBase@ATL@@QEAAJPEBUtagRECT@@0@Z 00000001800317cc     POSPower.obj
 0002:0000b7e0       $unwind$?IViewObject_Draw@CComControlBase@ATL@@QEAAJKJPEAXPEAUtagDVTARGETDEVICE@@PEAUHDC__@@2PEBU_RECTL@@3@Z 00000001800317e0     POSPower.obj
 0002:0000b7fc       $unwind$?IDataObject_GetData@CComControlBase@ATL@@QEAAJPEAUtagFORMATETC@@PEAUtagSTGMEDIUM@@@Z 00000001800317fc     POSPower.obj
 0002:0000b81c       $unwind$?OnPaint@CComControlBase@ATL@@QEAA_JI_K_JAEAH@Z 000000018003181c     POSPower.obj
 0002:0000b838       $unwind$?OnDrawAdvanced@CComControlBase@ATL@@UEAAJAEAUATL_DRAWINFO@@@Z 0000000180031838     POSPower.obj
 0002:0000b854       $unwind$?Invoke@?$IDispatchImpl@UIOPOSPOSPower@@$1?IID_IOPOSPOSPower@@3U_GUID@@B$1?LIBID_OposPOSPower_CCO@@3U3@B$00$0A@VCComTypeInfoHolder@ATL@@@ATL@@UEAAJJAEBU_GUID@@KGPEAUtagDISPPARAMS@@PEAUtagVARIANT@@PEAUtagEXCEPINFO@@PEAI@Z 0000000180031854     POSPower.obj
 0002:0000b854       $unwind$_mbsdec_l          0000000180031854     libucrt:mbsdec.obj
 0002:0000b860       $unwind$?atlCreate@?$CWindowImpl@VCOPOSPOSPower@@VCWindow@ATL@@V?$CWinTraits@$0FGAAAAAA@$0A@@3@@ATL@@QEAAPEAUHWND__@@PEAU3@V_U_RECT@2@PEB_WKKV_U_MENUorID@2@PEAX@Z 0000000180031860     POSPower.obj
 0002:0000b860       $unwind$?fp_format_f@@YAHQEBNQEAD_K12HW4__acrt_rounding_mode@@AEAV__crt_cached_ptd_host@@@Z 0000000180031860     libucrt:cvt.obj
 0002:0000b860       $unwind$__acrt_LCMapStringEx 0000000180031860     libucrt:winapi_thunks.obj
 0002:0000b874       $unwind$?CreateControlWindow@?$CComControl@VCOPOSPOSPower@@V?$CWindowImpl@VCOPOSPOSPower@@VCWindow@ATL@@V?$CWinTraits@$0FGAAAAAA@$0A@@3@@ATL@@@ATL@@UEAAPEAUHWND__@@PEAU3@AEAUtagRECT@@@Z 0000000180031874     POSPower.obj
 0002:0000b874       $unwind$?ReleaseDevice@COPOSPOSPower@@UEAAJPEAJ@Z 0000000180031874     POSPowerImpl.obj
 0002:0000b874       $unwind$?RestartPOS@COPOSPOSPower@@UEAAJPEAJ@Z 0000000180031874     POSPowerImpl.obj
 0002:0000b874       $unwind$?ShutdownPOS@COPOSPOSPower@@UEAAJPEAJ@Z 0000000180031874     POSPowerImpl.obj
 0002:0000b874       $unwind$_raise_exc         0000000180031874     libucrt:fpexcept.obj
 0002:0000b874       $unwind$?__scrt_throw_std_bad_alloc@@YAXXZ 0000000180031874     LIBCMT:throw_bad_alloc.obj
 0002:0000b874       $unwind$?__scrt_throw_std_bad_array_new_length@@YAXXZ 0000000180031874     LIBCMT:throw_bad_alloc.obj
 0002:0000b87c       $unwind$?ProcessWindowMessage@?$CComControl@VCOPOSPOSPower@@V?$CWindowImpl@VCOPOSPOSPower@@VCWindow@ATL@@V?$CWinTraits@$0FGAAAAAA@$0A@@3@@ATL@@@ATL@@UEAAHPEAUHWND__@@I_K_JAEA_JK@Z 000000018003187c     POSPower.obj
 0002:0000b884       $unwind$?GetSizeMax@?$IPersistStreamInitImpl@VCOPOSPOSPower@@@ATL@@UEAAJPEAT_ULARGE_INTEGER@@@Z 0000000180031884     POSPower.obj
 0002:0000b89c       $unwind$?IPersistStreamInit_Load@?$IPersistStreamInitImpl@VCOPOSPOSPower@@@ATL@@QEAAJPEAUIStream@@PEBUATL_PROPMAP_ENTRY@2@@Z 000000018003189c     POSPower.obj
 0002:0000b8b8       $unwind$?IPersistStreamInit_Save@?$IPersistStreamInitImpl@VCOPOSPOSPower@@@ATL@@QEAAJPEAUIStream@@HPEBUATL_PROPMAP_ENTRY@2@@Z 00000001800318b8     POSPower.obj
 0002:0000b8d4       $unwind$?DoVerbPrimary@?$IOleObjectImpl@VCOPOSPOSPower@@@ATL@@QEAAJPEBUtagRECT@@PEAUHWND__@@@Z 00000001800318d4     POSPower.obj
 0002:0000b8ec       $unwind$?TranslateAcceleratorW@?$IOleInPlaceActiveObjectImpl@VCOPOSPOSPower@@@ATL@@UEAAJPEAUtagMSG@@@Z 00000001800318ec     POSPower.obj
 0002:0000b8f8       $unwind$?Draw@?$IViewObjectExImpl@VCOPOSPOSPower@@@ATL@@UEAAJKJPEAXPEAUtagDVTARGETDEVICE@@PEAUHDC__@@2PEBU_RECTL@@3P6AH_K@Z4@Z 00000001800318f8     POSPower.obj
 0002:0000b900       $unwind$?QueryHitRect@?$IViewObjectExImpl@VCOPOSPOSPower@@@ATL@@UEAAJKPEBUtagRECT@@0JPEAK@Z 0000000180031900     POSPower.obj
 0002:0000b910       $unwind$?OnWindowMessage@?$IOleInPlaceObjectWindowlessImpl@VCOPOSPOSPower@@@ATL@@UEAAJI_K_JPEA_J@Z 0000000180031910     POSPower.obj
 0002:0000b924       $unwind$?EnumConnectionPoints@?$IConnectionPointContainerImpl@VCOPOSPOSPower@@@ATL@@UEAAJPEAPEAUIEnumConnectionPoints@@@Z 0000000180031924     POSPower.obj
 0002:0000b94c       $unwind$?FindConnectionPoint@?$IConnectionPointContainerImpl@VCOPOSPOSPower@@@ATL@@UEAAJAEBU_GUID@@PEAPEAUIConnectionPoint@@@Z 000000018003194c     POSPower.obj
 0002:0000b968       $unwind$?Load@?$IPersistStorageImpl@VCOPOSPOSPower@@@ATL@@UEAAJPEAUIStorage@@@Z 0000000180031968     POSPower.obj
 0002:0000b978       $unwind$?Save@?$IPersistStorageImpl@VCOPOSPOSPower@@@ATL@@UEAAJPEAUIStorage@@H@Z 0000000180031978     POSPower.obj
 0002:0000b98c       $unwind$?IPSI_GetIPersistStreamInit@?$IPersistStorageImpl@VCOPOSPOSPower@@@ATL@@AEAAPEAUIPersistStreamInit@@XZ 000000018003198c     POSPower.obj
 0002:0000b9a0       $unwind$?GetInterfaceSafetyOptions@?$IObjectSafetyImpl@VCOPOSPOSPower@@$02@ATL@@UEAAJAEBU_GUID@@PEAK1@Z 00000001800319a0     POSPower.obj
 0002:0000b9b4       $unwind$?SetInterfaceSafetyOptions@?$IObjectSafetyImpl@VCOPOSPOSPower@@$02@ATL@@UEAAJAEBU_GUID@@KK@Z 00000001800319b4     POSPower.obj
 0002:0000b9c8       $unwind$?Advise@?$IConnectionPointImpl@VCOPOSPOSPower@@$1?DIID__IOPOSPOSPowerEvents@@3U_GUID@@BVCComDynamicUnkArray@ATL@@@ATL@@UEAAJPEAUIUnknown@@PEAK@Z 00000001800319c8     POSPower.obj
 0002:0000b9c8       $unwind$?Advise@?$IConnectionPointImpl@VCOPOSPOSPower@@$1?IID_IPropertyNotifySink@@3U_GUID@@BVCComDynamicUnkArray@ATL@@@ATL@@UEAAJPEAUIUnknown@@PEAK@Z 00000001800319c8     POSPower.obj
 0002:0000b9dc       $unwind$?EnumConnections@?$IConnectionPointImpl@VCOPOSPOSPower@@$1?DIID__IOPOSPOSPowerEvents@@3U_GUID@@BVCComDynamicUnkArray@ATL@@@ATL@@UEAAJPEAPEAUIEnumConnections@@@Z 00000001800319dc     POSPower.obj
 0002:0000b9dc       $unwind$?EnumConnections@?$IConnectionPointImpl@VCOPOSPOSPower@@$1?IID_IPropertyNotifySink@@3U_GUID@@BVCComDynamicUnkArray@ATL@@@ATL@@UEAAJPEAPEAUIEnumConnections@@@Z 00000001800319dc     POSPower.obj
 0002:0000b9f4       $unwind$?Fire_DirectIOEvent@?$CProxy_IOPOSEvents@VCOPOSPOSPower@@@@QEAAXJPEAJPEAPEA_W@Z 00000001800319f4     POSPower.obj
 0002:0000ba14       $unwind$?Fire_StatusUpdateEvent@?$CProxy_IOPOSEvents@VCOPOSPOSPower@@@@QEAAXJ@Z 0000000180031a14     POSPower.obj
 0002:0000ba14       $unwind$?fp_format_e@@YAHQEBNQEAD_K12H_NIW4__acrt_rounding_mode@@AEAV__crt_cached_ptd_host@@@Z 0000000180031a14     libucrt:cvt.obj
 0002:0000ba14       $unwind$??$__InternalCxxFrameHandler@V__FrameHandler3@@@@YA?AW4_EXCEPTION_DISPOSITION@@PEAUEHExceptionRecord@@PEA_KPEAU_CONTEXT@@PEAU_xDISPATCHER_CONTEXT@@PEBU_s_FuncInfo@@H1E@Z 0000000180031a14     libvcruntime:frame.obj
 0002:0000ba2c       $unwind$?FireTheEvent@?$CProxy_IOPOSEvents@VCOPOSPOSPower@@@@IEAAXPEAVOposVariant@@IAEAJPEB_WJ@Z 0000000180031a2c     POSPower.obj
 0002:0000ba3c       $unwind$?ProcessWindowMessage@COPOSPOSPower@@UEAAHPEAUHWND__@@I_K_JAEA_JK@Z 0000000180031a3c     POSPower.obj
 0002:0000ba54       $unwind$?Clone@?$CComEnumImpl@UIEnumConnectionPoints@@$1?_GUID_b196b285_bab4_101a_b69c_00aa00341d07@@3U__s_GUID@@BPEAUIConnectionPoint@@V?$_CopyInterface@UIConnectionPoint@@@ATL@@@ATL@@UEAAJPEAPEAUIEnumConnectionPoints@@@Z 0000000180031a54     POSPower.obj
 0002:0000ba54       $unwind$?Clone@?$CComEnumImpl@UIEnumConnections@@$1?_GUID_b196b287_bab4_101a_b69c_00aa00341d07@@3U__s_GUID@@BUtagCONNECTDATA@@V?$_Copy@UtagCONNECTDATA@@@ATL@@@ATL@@UEAAJPEAPEAUIEnumConnections@@@Z 0000000180031a54     POSPower.obj
 0002:0000ba6c       $unwind$?Init@?$CComEnumImpl@UIEnumConnectionPoints@@$1?_GUID_b196b285_bab4_101a_b69c_00aa00341d07@@3U__s_GUID@@BPEAUIConnectionPoint@@V?$_CopyInterface@UIConnectionPoint@@@ATL@@@ATL@@QEAAJPEAPEAUIConnectionPoint@@0PEAUIUnknown@@W4CComEnumFlags@2@@Z 0000000180031a6c     POSPower.obj
 0002:0000ba6c       $unwind$?Init@?$CComEnumImpl@UIEnumConnections@@$1?_GUID_b196b287_bab4_101a_b69c_00aa00341d07@@3U__s_GUID@@BUtagCONNECTDATA@@V?$_Copy@UtagCONNECTDATA@@@ATL@@@ATL@@QEAAJPEAUtagCONNECTDATA@@0PEAUIUnknown@@W4CComEnumFlags@2@@Z 0000000180031a6c     POSPower.obj
 0002:0000ba6c       $unwind$?should_round_up@@YA_NQEBN_KFW4__acrt_rounding_mode@@@Z 0000000180031a6c     libucrt:cvt.obj
 0002:0000ba6c       $unwind$??$parse_command_line@D@@YAXPEADPEAPEAD0PEA_K2@Z 0000000180031a6c     libucrt:argv_parsing.obj
 0002:0000ba88       $unwind$?GetOposProp@COPOSPOSPower@@IEAAJJPEAJJ@Z 0000000180031a88     POSPowerImpl.obj
 0002:0000ba88       $unwind$?GetOposProp@COPOSPOSPower@@IEAAJJPEAPEA_WJ@Z 0000000180031a88     POSPowerImpl.obj
 0002:0000baa0       $unwind$?SetOposProp@COPOSPOSPower@@IEAAJJJJ@Z 0000000180031aa0     POSPowerImpl.obj
 0002:0000bac0       $unwind$?DoInvoke@COPOSPOSPower@@IEAAJJPEAVOposVariant@@IHPEAJ_N@Z 0000000180031ac0     POSPowerImpl.obj
 0002:0000bad8       $unwind$?SetCOFreezeEvents@COPOSPOSPower@@IEAAXF@Z 0000000180031ad8     POSPowerImpl.obj
 0002:0000baec       $unwind$?OnDraw@COPOSPOSPower@@MEAAJAEAUATL_DRAWINFO@@@Z 0000000180031aec     POSPowerImpl.obj
 0002:0000bb04       $unwind$?EventInit@COPOSPOSPower@@IEAAJXZ 0000000180031b04     POSPowerImpl.obj
 0002:0000bb18       $unwind$?get_ControlObjectDescription@COPOSPOSPower@@UEAAJPEAPEA_W@Z 0000000180031b18     POSPowerImpl.obj
 0002:0000bb18       $unwind$__dcrt_lowio_ensure_console_output_initialized 0000000180031b18     libucrt:initcon.obj
 0002:0000bb18       $unwind$?__mbrtowc_utf8@__crt_mbstring@@YA_KPEA_WPEBD_KPEAU_Mbstatet@@AEAV__crt_cached_ptd_host@@@Z 0000000180031b18     libucrt:mbrtowc.obj
 0002:0000bb18       $unwind$?getSystemCP@@YAHH@Z 0000000180031b18     libucrt:mbctype.obj
 0002:0000bb20       $unwind$?CheckHealth@COPOSPOSPower@@UEAAJJPEAJ@Z 0000000180031b20     POSPowerImpl.obj
 0002:0000bb20       $unwind$?ResetStatistics@COPOSPOSPower@@UEAAJPEA_WPEAJ@Z 0000000180031b20     POSPowerImpl.obj
 0002:0000bb20       $unwind$?RetrieveStatistics@COPOSPOSPower@@UEAAJPEAPEA_WPEAJ@Z 0000000180031b20     POSPowerImpl.obj
 0002:0000bb20       $unwind$?StandbyPOS@COPOSPOSPower@@UEAAJJPEAJ@Z 0000000180031b20     POSPowerImpl.obj
 0002:0000bb20       $unwind$?SuspendPOS@COPOSPOSPower@@UEAAJJPEAJ@Z 0000000180031b20     POSPowerImpl.obj
 0002:0000bb20       $unwind$?UpdateFirmware@COPOSPOSPower@@UEAAJPEA_WPEAJ@Z 0000000180031b20     POSPowerImpl.obj
 0002:0000bb20       $unwind$?UpdateStatistics@COPOSPOSPower@@UEAAJPEA_WPEAJ@Z 0000000180031b20     POSPowerImpl.obj
 0002:0000bb30       $unwind$?ClaimDevice@COPOSPOSPower@@UEAAJJPEAJ@Z 0000000180031b30     POSPowerImpl.obj
 0002:0000bb40       $unwind$?Close@COPOSPOSPower@@UEAAJPEAJ@Z 0000000180031b40     POSPowerImpl.obj
 0002:0000bb4c       $unwind$?DirectIO@COPOSPOSPower@@UEAAJJPEAJPEAPEA_W0@Z 0000000180031b4c     POSPowerImpl.obj
 0002:0000bb68       $unwind$?Open@COPOSPOSPower@@UEAAJPEA_WPEAJ@Z 0000000180031b68     POSPowerImpl.obj
 0002:0000bb8c       $unwind$?CompareFirmwareVersion@COPOSPOSPower@@UEAAJPEA_WPEAJ1@Z 0000000180031b8c     POSPowerImpl.obj
 0002:0000bb8c       $unwind$?initialize_inherited_file_handles_nolock@@YAXXZ 0000000180031b8c     libucrt:ioinit.obj
 0002:0000bba8       $unwind$__scrt_is_nonwritable_in_current_image 0000000180031ba8     LIBCMT:utility.obj
 0002:0000bbc8       $unwind$__scrt_is_nonwritable_in_current_image$filt$0 0000000180031bc8     LIBCMT:utility.obj
 0002:0000bbd0       $unwind$__report_securityfailure 0000000180031bd0     LIBCMT:gs_report.obj
 0002:0000bbd8       $unwind$__report_gsfailure 0000000180031bd8     LIBCMT:gs_report.obj
 0002:0000bbe0       $unwind$capture_current_context 0000000180031be0     LIBCMT:gs_report.obj
 0002:0000bbec       $unwind$capture_previous_context 0000000180031bec     LIBCMT:gs_report.obj
 0002:0000bbf8       $unwind$??2@YAPEAX_KAEBUnothrow_t@std@@@Z 0000000180031bf8     LIBCMT:new_scalar_nothrow.obj
 0002:0000bc08       $cppxdata$??2@YAPEAX_KAEBUnothrow_t@std@@@Z 0000000180031c08     LIBCMT:new_scalar_nothrow.obj
 0002:0000bc15       $stateUnwindMap$??2@YAPEAX_KAEBUnothrow_t@std@@@Z 0000000180031c15     LIBCMT:new_scalar_nothrow.obj
 0002:0000bc18       $tryMap$??2@YAPEAX_KAEBUnothrow_t@std@@@Z 0000000180031c18     LIBCMT:new_scalar_nothrow.obj
 0002:0000bc20       $handlerMap$??2@YAPEAX_KAEBUnothrow_t@std@@@Z 0000000180031c20     LIBCMT:new_scalar_nothrow.obj
 0002:0000bc28       $ip2state$??2@YAPEAX_KAEBUnothrow_t@std@@@Z 0000000180031c28     LIBCMT:new_scalar_nothrow.obj
 0002:0000bc2c       $unwind$?catch$0@?0???2@YAPEAX_KAEBUnothrow_t@std@@@Z@4HA 0000000180031c2c     LIBCMT:new_scalar_nothrow.obj
 0002:0000bc3c       $cppxdata$?catch$0@?0???2@YAPEAX_KAEBUnothrow_t@std@@@Z@4HA 0000000180031c3c     LIBCMT:new_scalar_nothrow.obj
 0002:0000bc46       $stateUnwindMap$?catch$0@?0???2@YAPEAX_KAEBUnothrow_t@std@@@Z@4HA 0000000180031c46     LIBCMT:new_scalar_nothrow.obj
 0002:0000bc48       $ip2state$?catch$0@?0???2@YAPEAX_KAEBUnothrow_t@std@@@Z@4HA 0000000180031c48     LIBCMT:new_scalar_nothrow.obj
 0002:0000bc4c       $unwind$__GSHandlerCheckCommon 0000000180031c4c     LIBCMT:gshandler.obj
 0002:0000bc58       $xdatasym                  0000000180031c58     LIBCMT:chkstk.obj
 0002:0000bc60       $xdatasym                  0000000180031c60     LIBCMT:amdsecgs.obj
 0002:0000bc64       $unwind$?dllmain_crt_process_attach@@YAHQEAUHINSTANCE__@@QEAX@Z 0000000180031c64     LIBCMT:dll_dllmain.obj
 0002:0000bca0       $unwind$?dllmain_crt_process_detach@@YAH_N@Z 0000000180031ca0     LIBCMT:dll_dllmain.obj
 0002:0000bcf4       $unwind$?dllmain_dispatch@@YAHQEAUHINSTANCE__@@KQEAX@Z 0000000180031cf4     LIBCMT:dll_dllmain.obj
 0002:0000bd1c       $unwind$_write_internal$fin$0 0000000180031d1c     libucrt:write.obj
 0002:0000bd1c       $unwind$?fin$0@?0??_fclose_internal@@YAHQEAU_iobuf@@AEAV__crt_cached_ptd_host@@@Z@4HA 0000000180031d1c     libucrt:fclose.obj
 0002:0000bd1c       $unwind$?filt$0@?0??dllmain_dispatch@@YAHQEAUHINSTANCE__@@KQEAX@Z@4HA 0000000180031d1c     LIBCMT:dll_dllmain.obj
 0002:0000bd1c       $unwind$?filt$0@?0??FrameUnwindToState@__FrameHandler4@@SAXPEA_KPEAU_xDISPATCHER_CONTEXT@@PEAUFuncInfo4@FH4@@H@Z@4HA 0000000180031d1c     libvcruntime:frame.obj
 0002:0000bd1c       $unwind$?fin$1@?0??FrameUnwindToState@__FrameHandler4@@SAXPEA_KPEAU_xDISPATCHER_CONTEXT@@PEAUFuncInfo4@FH4@@H@Z@4HA 0000000180031d1c     libvcruntime:frame.obj
 0002:0000bd24       $unwind$__isa_available_init 0000000180031d24     LIBCMT:cpu_disp.obj
 0002:0000bd34       $unwind$__scrt_fastfail    0000000180031d34     LIBCMT:utility_desktop.obj
 0002:0000bd44       $unwind$__security_init_cookie 0000000180031d44     LIBCMT:gs_support.obj
 0002:0000bd50       $xdatasym                  0000000180031d50     LIBCMT:guard_dispatch.obj
 0002:0000bd58       $xdatasym                  0000000180031d58     LIBCMT:guard_xfg_dispatch.obj
 0002:0000bd5c       $unwind$AtlThunk_InitData  0000000180031d5c     atls:atlthunk.obj
 0002:0000bd70       $unwind$wcsstr             0000000180031d70     libvcruntime:wcsstr.obj
 0002:0000bd88       $xdatasym                  0000000180031d88     libvcruntime:memcmp.obj
 0002:0000bd90       $xdatasym                  0000000180031d90     libvcruntime:memcpy.obj
 0002:0000bda0       $xdatasym                  0000000180031da0     libvcruntime:memset.obj
 0002:0000bdb0       $unwind$__C_specific_handler 0000000180031db0     libvcruntime:riscchandler.obj
 0002:0000bdb0       $unwind$?GetRangeOfTrysToCheck@__FrameHandler3@@SA?AU?$pair@Viterator@TryBlockMap@__FrameHandler3@@V123@@std@@AEAVTryBlockMap@1@HPEAU_xDISPATCHER_CONTEXT@@PEBU_s_FuncInfo@@H@Z 0000000180031db0     libvcruntime:risctrnsctrl.obj
 0002:0000bdcc       $unwind$?StateFromIp@__FrameHandler4@@SAHPEAUFuncInfo4@FH4@@PEAU_xDISPATCHER_CONTEXT@@_K@Z 0000000180031dcc     libvcruntime:ehstate.obj
 0002:0000bdcc       $unwind$?DecompFuncInfo@FH4@@YA_JPEAEAEAUFuncInfo4@1@_KH_N@Z 0000000180031dcc     libvcruntime:risctrnsctrl.obj
 0002:0000bde4       $unwind$?GetEstablisherFrame@__FrameHandler3@@SAPEA_KPEA_KPEAU_xDISPATCHER_CONTEXT@@PEBU_s_FuncInfo@@0@Z 0000000180031de4     libvcruntime:risctrnsctrl.obj
 0002:0000bdfc       $unwind$?UnwindNestedFrames@__FrameHandler3@@SAXPEA_KPEAUEHExceptionRecord@@PEAU_CONTEXT@@0PEAXPEBU_s_FuncInfo@@HHPEBU_s_HandlerType@@PEAU_xDISPATCHER_CONTEXT@@E@Z 0000000180031dfc     libvcruntime:risctrnsctrl.obj
 0002:0000bdfc       $unwind$?UnwindNestedFrames@__FrameHandler4@@SAXPEA_KPEAUEHExceptionRecord@@PEAU_CONTEXT@@0PEAXPEAUFuncInfo4@FH4@@HHPEAUHandlerType4@5@PEAU_xDISPATCHER_CONTEXT@@E@Z 0000000180031dfc     libvcruntime:risctrnsctrl.obj
 0002:0000be10       $unwind$?GetRangeOfTrysToCheck@__FrameHandler4@@SA?AU?$pair@Viterator@TryBlockMap4@FH4@@V123@@std@@AEAVTryBlockMap4@FH4@@HPEAU_xDISPATCHER_CONTEXT@@PEAUFuncInfo4@5@H@Z 0000000180031e10     libvcruntime:risctrnsctrl.obj
 0002:0000be2c       $unwind$__CxxFrameHandler3 0000000180031e2c     libvcruntime:risctrnsctrl.obj
 0002:0000be40       $unwind$__CxxFrameHandler4 0000000180031e40     libvcruntime:risctrnsctrl.obj
 0002:0000be54       $unwind$??$_CallSETranslator@V__FrameHandler4@@@@YAHPEAUEHExceptionRecord@@PEA_KPEAU_CONTEXT@@PEAU_xDISPATCHER_CONTEXT@@PEAUFuncInfo4@FH4@@K1H@Z 0000000180031e54     libvcruntime:risctrnsctrl.obj
 0002:0000be74       $unwind$?filt$0@?0???$_CallSETranslator@V__FrameHandler3@@@@YAHPEAUEHExceptionRecord@@PEA_KPEAU_CONTEXT@@PEAU_xDISPATCHER_CONTEXT@@PEBU_s_FuncInfo@@K1H@Z@4HA 0000000180031e74     libvcruntime:risctrnsctrl.obj
 0002:0000be74       $unwind$?filt$0@?0???$_CallSETranslator@V__FrameHandler4@@@@YAHPEAUEHExceptionRecord@@PEA_KPEAU_CONTEXT@@PEAU_xDISPATCHER_CONTEXT@@PEAUFuncInfo4@FH4@@K1H@Z@4HA 0000000180031e74     libvcruntime:risctrnsctrl.obj
 0002:0000be80       $unwind$??$_CallSETranslator@V__FrameHandler3@@@@YAHPEAUEHExceptionRecord@@PEA_KPEAU_CONTEXT@@PEAU_xDISPATCHER_CONTEXT@@PEBU_s_FuncInfo@@K1H@Z 0000000180031e80     libvcruntime:risctrnsctrl.obj
 0002:0000bea0       $unwind$__DestructExceptionObject 0000000180031ea0     libvcruntime:ehhelpers.obj
 0002:0000bec0       $unwind$__DestructExceptionObject$filt$0 0000000180031ec0     libvcruntime:ehhelpers.obj
 0002:0000bec0       $unwind$?fin$1@?0??CxxCallCatchBlock@__FrameHandler3@@SAPEAXPEAU_EXCEPTION_RECORD@@@Z@4HA 0000000180031ec0     libvcruntime:frame.obj
 0002:0000bec0       $unwind$?fin$1@?0??CxxCallCatchBlock@__FrameHandler4@@SAPEAXPEAU_EXCEPTION_RECORD@@@Z@4HA 0000000180031ec0     libvcruntime:frame.obj
 0002:0000becc       $unwind$_CxxThrowException 0000000180031ecc     libvcruntime:throw.obj
 0002:0000bee0       $xdatasym                  0000000180031ee0     libvcruntime:notify.obj
 0002:0000beec       $unwind$?getStartStop@UWMap4@FH4@@QEAAXHHAEAViterator@12@0@Z 0000000180031eec     libvcruntime:frame.obj
 0002:0000bf04       $unwind$?FrameUnwindToState@__FrameHandler3@@SAXPEA_KPEAU_xDISPATCHER_CONTEXT@@PEBU_s_FuncInfo@@H@Z 0000000180031f04     libvcruntime:frame.obj
 0002:0000bf50       $unwind$?CxxCallCatchBlock@__FrameHandler3@@SAPEAXPEAU_EXCEPTION_RECORD@@@Z 0000000180031f50     libvcruntime:frame.obj
 0002:0000bf8c       $unwind$?FrameUnwindToState@__FrameHandler4@@SAXPEA_KPEAU_xDISPATCHER_CONTEXT@@PEAUFuncInfo4@FH4@@H@Z 0000000180031f8c     libvcruntime:frame.obj
 0002:0000bfd4       $unwind$?CxxCallCatchBlock@__FrameHandler4@@SAPEAXPEAU_EXCEPTION_RECORD@@@Z 0000000180031fd4     libvcruntime:frame.obj
 0002:0000c030       $unwind$?IsInExceptionSpec@@YAEPEAUEHExceptionRecord@@PEBU_s_ESTypeList@@@Z 0000000180032030     libvcruntime:frame.obj
 0002:0000c04c       $unwind$??$__InternalCxxFrameHandler@V__FrameHandler4@@@@YA?AW4_EXCEPTION_DISPOSITION@@PEAUEHExceptionRecord@@PEA_KPEAU_CONTEXT@@PEAU_xDISPATCHER_CONTEXT@@PEAUFuncInfo4@FH4@@H1E@Z 000000018003204c     libvcruntime:frame.obj
 0002:0000c064       $unwind$??$BuildCatchObjectHelperInternal@V__FrameHandler3@@@@YAHPEAUEHExceptionRecord@@PEAXPEBU_s_HandlerType@@PEBU_s_CatchableType@@@Z 0000000180032064     libvcruntime:frame.obj
 0002:0000c0a4       $unwind$??$BuildCatchObjectHelperInternal@V__FrameHandler4@@@@YAHPEAUEHExceptionRecord@@PEAXPEAUHandlerType4@FH4@@PEBU_s_CatchableType@@@Z 00000001800320a4     libvcruntime:frame.obj
 0002:0000c0e4       $unwind$??$BuildCatchObjectInternal@V__FrameHandler3@@@@YAXPEAUEHExceptionRecord@@PEAXPEBU_s_HandlerType@@PEBU_s_CatchableType@@@Z 00000001800320e4     libvcruntime:frame.obj
 0002:0000c110       $unwind$??$BuildCatchObjectInternal@V__FrameHandler4@@@@YAXPEAUEHExceptionRecord@@PEAXPEAUHandlerType4@FH4@@PEBU_s_CatchableType@@@Z 0000000180032110     libvcruntime:frame.obj
 0002:0000c13c       $unwind$??$FindHandler@V__FrameHandler3@@@@YAXPEAUEHExceptionRecord@@PEA_KPEAU_CONTEXT@@PEAU_xDISPATCHER_CONTEXT@@PEBU_s_FuncInfo@@EH1@Z 000000018003213c     libvcruntime:frame.obj
 0002:0000c15c       $unwind$??$FindHandler@V__FrameHandler4@@@@YAXPEAUEHExceptionRecord@@PEA_KPEAU_CONTEXT@@PEAU_xDISPATCHER_CONTEXT@@PEAUFuncInfo4@FH4@@EH1@Z 000000018003215c     libvcruntime:frame.obj
 0002:0000c17c       $unwind$??$CatchIt@V__FrameHandler3@@@@YAXPEAUEHExceptionRecord@@PEA_KPEAU_CONTEXT@@PEAU_xDISPATCHER_CONTEXT@@PEBU_s_FuncInfo@@PEBU_s_HandlerType@@PEBU_s_CatchableType@@PEBU_s_TryBlockMapEntry@@H1EE@Z 000000018003217c     libvcruntime:frame.obj
 0002:0000c17c       $unwind$??$CatchIt@V__FrameHandler4@@@@YAXPEAUEHExceptionRecord@@PEA_KPEAU_CONTEXT@@PEAU_xDISPATCHER_CONTEXT@@PEAUFuncInfo4@FH4@@PEAUHandlerType4@4@PEBU_s_CatchableType@@PEAUTryBlockMapEntry4@4@H1EE@Z 000000018003217c     libvcruntime:frame.obj
 0002:0000c194       $unwind$??$FindHandlerForForeignException@V__FrameHandler3@@@@YAXPEAUEHExceptionRecord@@PEA_KPEAU_CONTEXT@@PEAU_xDISPATCHER_CONTEXT@@PEBU_s_FuncInfo@@HH1@Z 0000000180032194     libvcruntime:frame.obj
 0002:0000c1b0       $unwind$??$FindHandlerForForeignException@V__FrameHandler4@@@@YAXPEAUEHExceptionRecord@@PEA_KPEAU_CONTEXT@@PEAU_xDISPATCHER_CONTEXT@@PEAUFuncInfo4@FH4@@HH1@Z 00000001800321b0     libvcruntime:frame.obj
 0002:0000c1d0       $unwind$?try_get_function@@YAPEAXW4function_id@?A0x391cf84c@@QEBDQEBW4module_id@2@2@Z 00000001800321d0     libucrt:winapi_thunks.obj
 0002:0000c1d0       $unwind$?try_get_function@@YAPEAXW4function_id@?A0xbc0cc709@@QEBDQEBW4module_id@2@2@Z 00000001800321d0     libvcruntime:winapi_downlevel.obj
 0002:0000c1f0       $xdatasym                  00000001800321f0     libvcruntime:handlers.obj
 0002:0000c210       $unwind$__acrt_call_reportfault 0000000180032210     libucrt:invalid_parameter.obj
 0002:0000c230       $unwind$??$common_lseek_nolock@_J@@YA_JH_JHAEAV__crt_cached_ptd_host@@@Z 0000000180032230     libucrt:lseek.obj
 0002:0000c230       $unwind$_invalid_parameter_internal 0000000180032230     libucrt:invalid_parameter.obj
 0002:0000c230       $unwind$??$type_case_integer@$07@?$output_processor@_WV?$string_output_adapter@_W@__crt_stdio_output@@V?$format_validation_base@_WV?$string_output_adapter@_W@__crt_stdio_output@@@2@@__crt_stdio_output@@AEAA_N_N@Z 0000000180032230     libucrt:output.obj
 0002:0000c230       $unwind$??$type_case_integer@$09@?$output_processor@_WV?$string_output_adapter@_W@__crt_stdio_output@@V?$format_validation_base@_WV?$string_output_adapter@_W@__crt_stdio_output@@@2@@__crt_stdio_output@@AEAA_N_N@Z 0000000180032230     libucrt:output.obj
 0002:0000c230       $unwind$??$type_case_integer@$0BA@@?$output_processor@_WV?$string_output_adapter@_W@__crt_stdio_output@@V?$format_validation_base@_WV?$string_output_adapter@_W@__crt_stdio_output@@@2@@__crt_stdio_output@@AEAA_N_N@Z 0000000180032230     libucrt:output.obj
 0002:0000c244       $unwind$_invalid_parameter 0000000180032244     libucrt:invalid_parameter.obj
 0002:0000c250       $unwind$_resetstkoflw      0000000180032250     libucrt:resetstk.obj
 0002:0000c274       $unwind$__stdio_common_vswprintf_s 0000000180032274     libucrt:output.obj
 0002:0000c288       $unwind$?write_string@?$string_output_adapter@_W@__crt_stdio_output@@QEBAXQEB_WHQEAHAEAV__crt_cached_ptd_host@@@Z 0000000180032288     libucrt:output.obj
 0002:0000c2a0       $unwind$??$common_vsprintf@Vformat_validation_base@__crt_stdio_output@@_W@@YAH_KQEA_W0QEB_WAEAV__crt_cached_ptd_host@@QEAD@Z 00000001800322a0     libucrt:output.obj
 0002:0000c2c0       $unwind$?parse_int_from_format_string@?$output_processor@_WV?$string_output_adapter@_W@__crt_stdio_output@@V?$format_validation_base@_WV?$string_output_adapter@_W@__crt_stdio_output@@@2@@__crt_stdio_output@@AEAA_NQEAH@Z 00000001800322c0     libucrt:output.obj
 0002:0000c2d4       $unwind$?state_case_type@?$output_processor@_WV?$string_output_adapter@_W@__crt_stdio_output@@V?$format_validation_base@_WV?$string_output_adapter@_W@__crt_stdio_output@@@2@@__crt_stdio_output@@AEAA_NXZ 00000001800322d4     libucrt:output.obj
 0002:0000c2f8       $unwind$?type_case_a@?$output_processor@_WV?$string_output_adapter@_W@__crt_stdio_output@@V?$format_validation_base@_WV?$string_output_adapter@_W@__crt_stdio_output@@@2@@__crt_stdio_output@@AEAA_NXZ 00000001800322f8     libucrt:output.obj
 0002:0000c30c       $unwind$?type_case_n@?$output_processor@_WV?$string_output_adapter@_W@__crt_stdio_output@@V?$format_validation_base@_WV?$string_output_adapter@_W@__crt_stdio_output@@@2@@__crt_stdio_output@@AEAA_NXZ 000000018003230c     libucrt:output.obj
 0002:0000c318       $unwind$??$parse_integer@KV?$c_string_character_source@_W@__crt_strtox@@$0A@@__crt_strtox@@YAKAEAV__crt_cached_ptd_host@@V?$c_string_character_source@_W@0@H_N@Z 0000000180032318     libucrt:output.obj
 0002:0000c334       $unwind$?try_cor_exit_process@@YAXI@Z 0000000180032334     libucrt:exit.obj
 0002:0000c348       $ip2state$?try_cor_exit_process@@YAXI@Z 0000000180032348     libucrt:exit.obj
 0002:0000c350       $unwind$?common_exit@@YAXHW4_crt_exit_cleanup_mode@@W4_crt_exit_return_mode@@@Z 0000000180032350     libucrt:exit.obj
 0002:0000c364       $stateUnwindMap$__dcrt_uninitialize_environments_nolock 0000000180032364     libucrt:environment_initialization.obj
 0002:0000c364       $stateUnwindMap$?common_exit@@YAXHW4_crt_exit_cleanup_mode@@W4_crt_exit_return_mode@@@Z 0000000180032364     libucrt:exit.obj
 0002:0000c364       $stateUnwindMap$_execute_onexit_table 0000000180032364     libucrt:onexit.obj
 0002:0000c370       $ip2state$?common_exit@@YAXHW4_crt_exit_cleanup_mode@@W4_crt_exit_return_mode@@@Z 0000000180032370     libucrt:exit.obj
 0002:0000c378       $unwind$??R<lambda_6e4b09c48022b2350581041d5f6b0c4c>@@QEBA@XZ 0000000180032378     libucrt:exit.obj
 0002:0000c398       $unwind$??$?RV<lambda_d80eeec6fff315bfe5c115232f3240e3>@@AEAV<lambda_6e4b09c48022b2350581041d5f6b0c4c>@@V<lambda_2358e3775559c9db80273638284d5e45>@@@?$__crt_seh_guarded_call@X@@QEAAX$$QEAV<lambda_d80eeec6fff315bfe5c115232f3240e3>@@AEAV<lambda_6e4b09c48022b2350581041d5f6b0c4c>@@$$QEAV<lambda_2358e3775559c9db80273638284d5e45>@@@Z 0000000180032398     libucrt:exit.obj
 0002:0000c3bc       $unwind$__dcrt_uninitialize_environments_nolock 00000001800323bc     libucrt:environment_initialization.obj
 0002:0000c3cc       $unwind$??$free_environment@D@@YAXQEAPEAD@Z 00000001800323cc     libucrt:environment_initialization.obj
 0002:0000c3cc       $unwind$??$free_environment@_W@@YAXQEAPEA_W@Z 00000001800323cc     libucrt:environment_initialization.obj
 0002:0000c3cc       $unwind$_initterm          00000001800323cc     libucrt:initterm.obj
 0002:0000c3d8       $unwind$_register_onexit_function 00000001800323d8     libucrt:onexit.obj
 0002:0000c3e0       $unwind$_execute_onexit_table 00000001800323e0     libucrt:onexit.obj
 0002:0000c3f0       $ip2state$_execute_onexit_table 00000001800323f0     libucrt:onexit.obj
 0002:0000c3f8       $unwind$??R<lambda_22ebabd17bc4fa466a2aca6d8deb888d>@@QEBAHXZ 00000001800323f8     libucrt:onexit.obj
 0002:0000c410       $unwind$??$?RV<lambda_638799b9deba96c50f710eeac98168cd>@@AEAV<lambda_22ebabd17bc4fa466a2aca6d8deb888d>@@V<lambda_a6f7d7db0129f75315ebf26d50c089f1>@@@?$__crt_seh_guarded_call@H@@QEAAH$$QEAV<lambda_638799b9deba96c50f710eeac98168cd>@@AEAV<lambda_22ebabd17bc4fa466a2aca6d8deb888d>@@$$QEAV<lambda_a6f7d7db0129f75315ebf26d50c089f1>@@@Z 0000000180032410     libucrt:onexit.obj
 0002:0000c434       $unwind$??$?RV<lambda_7777bce6b2f8c936911f934f8298dc43>@@AEAV<lambda_f03950bc5685219e0bcd2087efbe011e>@@V<lambda_3883c3dff614d5e0c5f61bb1ac94921c>@@@?$__crt_seh_guarded_call@H@@QEAAH$$QEAV<lambda_7777bce6b2f8c936911f934f8298dc43>@@AEAV<lambda_f03950bc5685219e0bcd2087efbe011e>@@$$QEAV<lambda_3883c3dff614d5e0c5f61bb1ac94921c>@@@Z 0000000180032434     libucrt:onexit.obj
 0002:0000c458       $unwind$_query_new_handler 0000000180032458     libucrt:new_handler.obj
 0002:0000c478       $unwind$terminate          0000000180032478     libucrt:terminate.obj
 0002:0000c498       $xdatasym                  0000000180032498     libucrt:strncmp.obj
 0002:0000c49c       $unwind$?construct_ptd_array@@YAXQEAU__acrt_ptd@@@Z 000000018003249c     libucrt:per_thread_data.obj
 0002:0000c4a4       $unwind$?destroy_ptd_array@@YAXQEAU__acrt_ptd@@@Z 00000001800324a4     libucrt:per_thread_data.obj
 0002:0000c4ac       $unwind$??$?RV<lambda_0ae27a3a962d80f24befdcbee591983d>@@AEAV<lambda_8d0ee55de4b1038c4002e0adecdf1839>@@V<lambda_dc504788e8f1664fe9b84e20bfb512f2>@@@?$__crt_seh_guarded_call@X@@QEAAX$$QEAV<lambda_0ae27a3a962d80f24befdcbee591983d>@@AEAV<lambda_8d0ee55de4b1038c4002e0adecdf1839>@@$$QEAV<lambda_dc504788e8f1664fe9b84e20bfb512f2>@@@Z 00000001800324ac     libucrt:per_thread_data.obj
 0002:0000c4d0       $unwind$??$?RV<lambda_aa87e3671a710a21b5dc78c0bdf72e11>@@AEAV<lambda_92619d2358a28f41a33ba319515a20b9>@@V<lambda_6992ecaafeb10aed2b74cb1fae11a551>@@@?$__crt_seh_guarded_call@X@@QEAAX$$QEAV<lambda_aa87e3671a710a21b5dc78c0bdf72e11>@@AEAV<lambda_92619d2358a28f41a33ba319515a20b9>@@$$QEAV<lambda_6992ecaafeb10aed2b74cb1fae11a551>@@@Z 00000001800324d0     libucrt:per_thread_data.obj
 0002:0000c4f4       $unwind$??$?RV<lambda_f2e299630e499de9f9a165e60fcd3db5>@@AEAV<lambda_2ae9d31cdba2644fcbeaf08da7c24588>@@V<lambda_40d01ff24d0e7b3814fdbdcee8eab3c7>@@@?$__crt_seh_guarded_call@X@@QEAAX$$QEAV<lambda_f2e299630e499de9f9a165e60fcd3db5>@@AEAV<lambda_2ae9d31cdba2644fcbeaf08da7c24588>@@$$QEAV<lambda_40d01ff24d0e7b3814fdbdcee8eab3c7>@@@Z 00000001800324f4     libucrt:per_thread_data.obj
 0002:0000c518       $unwind$??$?RV<lambda_2d41944a1d46af3157314b8a01080d33>@@AEAV<lambda_8f455de75cd7d7f24b4096f044d8b9e6>@@V<lambda_aa500f224e6afead328df44964fe2772>@@@?$__crt_seh_guarded_call@X@@QEAAX$$QEAV<lambda_2d41944a1d46af3157314b8a01080d33>@@AEAV<lambda_8f455de75cd7d7f24b4096f044d8b9e6>@@$$QEAV<lambda_aa500f224e6afead328df44964fe2772>@@@Z 0000000180032518     libucrt:per_thread_data.obj
 0002:0000c53c       $unwind$__acrt_uninitialize_locale 000000018003253c     libucrt:wsetlocale.obj
 0002:0000c53c       $unwind$__acrt_get_sigabrt_handler 000000018003253c     libucrt:signal.obj
 0002:0000c544       $unwind$??$?RV<lambda_410d79af7f07d98d83a3f525b3859a53>@@AEAV<lambda_3e16ef9562a7dcce91392c22ab16ea36>@@V<lambda_38119f0e861e05405d8a144b9b982f0a>@@@?$__crt_seh_guarded_call@X@@QEAAX$$QEAV<lambda_410d79af7f07d98d83a3f525b3859a53>@@AEAV<lambda_3e16ef9562a7dcce91392c22ab16ea36>@@$$QEAV<lambda_38119f0e861e05405d8a144b9b982f0a>@@@Z 0000000180032544     libucrt:wsetlocale.obj
 0002:0000c56c       $unwind$__acrt_initialize_winapi_thunks 000000018003256c     libucrt:winapi_thunks.obj
 0002:0000c56c       $unwind$__acrt_fenv_get_control 000000018003256c     libucrt:_fenvutils.obj
 0002:0000c574       $unwind$__acrt_fp_format   0000000180032574     libucrt:cvt.obj
 0002:0000c584       $unwind$?fp_format_e_internal@@YAHQEAD_KH_NIQEAU_strflt@@2AEAV__crt_cached_ptd_host@@@Z 0000000180032584     libucrt:cvt.obj
 0002:0000c5a0       $unwind$?fp_format_a@@YAHQEBNPEAD_KQEAD2H_NIW4__acrt_rounding_mode@@AEAV__crt_cached_ptd_host@@@Z 00000001800325a0     libucrt:cvt.obj
 0002:0000c5bc       $unwind$?fp_format_g@@YAHQEBNQEAD_K12H_NIW4__acrt_rounding_mode@@AEAV__crt_cached_ptd_host@@@Z 00000001800325bc     libucrt:cvt.obj
 0002:0000c5d4       $unwind$__acrt_initialize_lowio 00000001800325d4     libucrt:ioinit.obj
 0002:0000c5f4       $unwind$??$common_expand_argv_wildcards@D@@YAHQEAPEADQEAPEAPEAD@Z 00000001800325f4     libucrt:argv_wildcards.obj
 0002:0000c60c       $unwind$__dcrt_get_narrow_environment_from_os 000000018003260c     libucrt:get_environment_from_os.obj
 0002:0000c60c       $unwind$??$__acrt_convert_wcs_mbs_cp@_WDV<lambda_d8593a27d1aa8c02be35c86a17d324c4>@@U__crt_win32_buffer_internal_dynamic_resizing@@@@YAHQEB_WAEAV?$__crt_win32_buffer@DU__crt_win32_buffer_internal_dynamic_resizing@@@@AEBV<lambda_d8593a27d1aa8c02be35c86a17d324c4>@@I@Z 000000018003260c     libucrt:argv_wildcards.obj
 0002:0000c624       $unwind$??$copy_and_add_argument_to_buffer@D@@YAHQEBD0_KAEAV?$argument_list@D@?A0x5f5c8891@@@Z 0000000180032624     libucrt:argv_wildcards.obj
 0002:0000c640       $unwind$??$expand_argument_wildcards@D@@YAHQEAD0AEAV?$argument_list@D@?A0x5f5c8891@@@Z 0000000180032640     libucrt:argv_wildcards.obj
 0002:0000c660       $unwind$__acrt_GetModuleFileNameA 0000000180032660     libucrt:getmodulefilenamea.obj
 0002:0000c67c       $unwind$_setmbcp_nolock    000000018003267c     libucrt:mbctype.obj
 0002:0000c69c       $unwind$?update_thread_multibyte_data_internal@@YAPEAU__crt_multibyte_data@@QEAU__acrt_ptd@@QEAPEAU1@@Z 000000018003269c     libucrt:mbctype.obj
 0002:0000c6c4       $unwind$?setmbcp_internal@@YAHH_NQEAU__acrt_ptd@@QEAPEAU__crt_multibyte_data@@@Z 00000001800326c4     libucrt:mbctype.obj
 0002:0000c6dc       $unwind$?setSBUpLow@@YAXPEAU__crt_multibyte_data@@@Z 00000001800326dc     libucrt:mbctype.obj
 0002:0000c6f8       $unwind$??$?RV<lambda_efdfa57d1f175319df784efa44bb7b81>@@AEAV<lambda_5f0a4c1567f8adc6734073e5d1e1b35c>@@V<lambda_2e8a7d3640ea6ccb4c2413664c2db6fd>@@@?$__crt_seh_guarded_call@X@@QEAAX$$QEAV<lambda_efdfa57d1f175319df784efa44bb7b81>@@AEAV<lambda_5f0a4c1567f8adc6734073e5d1e1b35c>@@$$QEAV<lambda_2e8a7d3640ea6ccb4c2413664c2db6fd>@@@Z 00000001800326f8     libucrt:mbctype.obj
 0002:0000c71c       $unwind$__acrt_WideCharToMultiByte 000000018003271c     libucrt:widechartomultibyte.obj
 0002:0000c728       $unwind$raise              0000000180032728     libucrt:signal.obj
 0002:0000c764       $unwind$??$?RV<lambda_450d765d439847d4c735a33c368b5fc0>@@AEAV<lambda_44731a7d0e6d81c3e6aa82d741081786>@@V<lambda_601a2a7da3b7a96e9554ac7215c4b07c>@@@?$__crt_seh_guarded_call@P6AXH@Z@@QEAAP6AXH@Z$$QEAV<lambda_450d765d439847d4c735a33c368b5fc0>@@AEAV<lambda_44731a7d0e6d81c3e6aa82d741081786>@@$$QEAV<lambda_601a2a7da3b7a96e9554ac7215c4b07c>@@@Z 0000000180032764     libucrt:signal.obj
 0002:0000c788       $unwind$fclose             0000000180032788     libucrt:fclose.obj
 0002:0000c788       $unwind$_fflush_nolock     0000000180032788     libucrt:fflush.obj
 0002:0000c798       $unwind$?common_flush_all@@YAH_N@Z 0000000180032798     libucrt:fflush.obj
 0002:0000c7a0       $unwind$??$?RV<lambda_842d9ff0dc9ef11c61343bbaebe7f885>@@AEAV<lambda_c5860995281e5c4ce005b3de8f5874ee>@@V<lambda_d90129c13df834fdcbf8d2b88dafcf2d>@@@?$__crt_seh_guarded_call@X@@QEAAX$$QEAV<lambda_842d9ff0dc9ef11c61343bbaebe7f885>@@AEAV<lambda_c5860995281e5c4ce005b3de8f5874ee>@@$$QEAV<lambda_d90129c13df834fdcbf8d2b88dafcf2d>@@@Z 00000001800327a0     libucrt:fflush.obj
 0002:0000c7c4       $unwind$??$?RV<lambda_886d6c58226a84441f68b9f2b8217b83>@@AEAV<lambda_ab61a845afdef5b7c387490eaf3616ee>@@V<lambda_f7f22ab5edc0698d5f6905b0d3f44752>@@@?$__crt_seh_guarded_call@X@@QEAAX$$QEAV<lambda_886d6c58226a84441f68b9f2b8217b83>@@AEAV<lambda_ab61a845afdef5b7c387490eaf3616ee>@@$$QEAV<lambda_f7f22ab5edc0698d5f6905b0d3f44752>@@@Z 00000001800327c4     libucrt:fflush.obj
 0002:0000c7ec       $unwind$__acrt_update_thread_locale_data 00000001800327ec     libucrt:locale_refcounting.obj
 0002:0000c810       $unwind$__acrt_locale_free_monetary 0000000180032810     libucrt:initmon.obj
 0002:0000c818       $unwind$__acrt_locale_free_time 0000000180032818     libucrt:inittime.obj
 0002:0000c828       $unwind$__acrt_GetStringTypeA 0000000180032828     libucrt:getstringtypea.obj
 0002:0000c850       $unwind$__acrt_fp_strflt_to_string 0000000180032850     libucrt:_fptostr.obj
 0002:0000c86c       $unwind$__acrt_fltout      000000018003286c     libucrt:cfout.obj
 0002:0000c88c       $unwind$?divide@__crt_strtox@@YA_KAEAUbig_integer@1@AEBU21@@Z 000000018003288c     libucrt:cfout.obj
 0002:0000c8a4       $chain$0$?divide@__crt_strtox@@YA_KAEAUbig_integer@1@AEBU21@@Z 00000001800328a4     libucrt:cfout.obj
 0002:0000c8b8       $chain$1$?divide@__crt_strtox@@YA_KAEAUbig_integer@1@AEBU21@@Z 00000001800328b8     libucrt:cfout.obj
 0002:0000c8c8       $unwind$?__mbsrtowcs_utf8@__crt_mbstring@@YA_KPEA_WPEAPEBD_KPEAU_Mbstatet@@AEAV__crt_cached_ptd_host@@@Z 00000001800328c8     libucrt:mbrtowc.obj
 0002:0000c8e0       $unwind$_fcloseall         00000001800328e0     libucrt:closeall.obj
 0002:0000c904       $unwind$__acrt_lowio_destroy_handle_array 0000000180032904     libucrt:osfinfo.obj
 0002:0000c914       $unwind$__acrt_lowio_ensure_fh_exists 0000000180032914     libucrt:osfinfo.obj
 0002:0000c940       $unwind$qsort              0000000180032940     libucrt:qsort.obj
 0002:0000c958       $chain$4$qsort             0000000180032958     libucrt:qsort.obj
 0002:0000c97c       $chain$5$qsort             000000018003297c     libucrt:qsort.obj
 0002:0000c98c       $unwind$strpbrk            000000018003298c     libucrt:strpbrk.obj
 0002:0000c99c       $unwind$fallbackMethod     000000018003299c     libucrt:strpbrk.obj
 0002:0000c9ac       $unwind$__acrt_LCMapStringA 00000001800329ac     libucrt:lcmapstringa.obj
 0002:0000c9bc       $unwind$?__acrt_LCMapStringA_stat@@YAHPEAU__crt_locale_pointers@@PEB_WKPEBDHPEADHHH@Z 00000001800329bc     libucrt:lcmapstringa.obj
 0002:0000c9e4       $unwind$_commit            00000001800329e4     libucrt:commit.obj
 0002:0000c9ec       $unwind$??$?RV<lambda_a37b2b86f63e897a80ea819b0eb08c01>@@AEAV<lambda_38ce7e780aa69e748d6df282ebc68efe>@@V<lambda_99fb1378e971ab6e7edea83e3a7a83a2>@@@?$__crt_seh_guarded_call@H@@QEAAH$$QEAV<lambda_a37b2b86f63e897a80ea819b0eb08c01>@@AEAV<lambda_38ce7e780aa69e748d6df282ebc68efe>@@$$QEAV<lambda_99fb1378e971ab6e7edea83e3a7a83a2>@@@Z 00000001800329ec     libucrt:commit.obj
 0002:0000ca10       $unwind$_write_nolock      0000000180032a10     libucrt:write.obj
 0002:0000ca28       $unwind$_write_internal    0000000180032a28     libucrt:write.obj
 0002:0000ca58       $unwind$?write_double_translated_ansi_nolock@@YA?AUwrite_result@?A0x17268360@@HQEBDIAEAV__crt_cached_ptd_host@@@Z 0000000180032a58     libucrt:write.obj
 0002:0000ca80       $ip2state$?write_double_translated_ansi_nolock@@YA?AUwrite_result@?A0x17268360@@HQEBDIAEAV__crt_cached_ptd_host@@@Z 0000000180032a80     libucrt:write.obj
 0002:0000ca88       $unwind$?write_text_ansi_nolock@@YA?AUwrite_result@?A0x17268360@@HQEBDI@Z 0000000180032a88     libucrt:write.obj
 0002:0000ca88       $unwind$?write_text_utf16le_nolock@@YA?AUwrite_result@?A0x17268360@@HQEBDI@Z 0000000180032a88     libucrt:write.obj
 0002:0000caa8       $unwind$?write_text_utf8_nolock@@YA?AUwrite_result@?A0x17268360@@HQEBDI@Z 0000000180032aa8     libucrt:write.obj
 0002:0000cad0       $xdatasym                  0000000180032ad0     libucrt:log10.obj
 0002:0000cadc       $unwind$__acrt_fenv_set_control 0000000180032adc     libucrt:_fenvutils.obj
 0002:0000caec       $unwind$?__mbrtoc32_utf8@__crt_mbstring@@YA_KPEA_UPEBD_KPEAU_Mbstatet@@AEAV__crt_cached_ptd_host@@@Z 0000000180032aec     libucrt:mbrtoc32.obj
 0002:0000cb08       $unwind$?_fclose_nolock_internal@@YAHQEAU_iobuf@@AEAV__crt_cached_ptd_host@@@Z 0000000180032b08     libucrt:fclose.obj
 0002:0000cb18       $unwind$?_fclose_internal@@YAHQEAU_iobuf@@AEAV__crt_cached_ptd_host@@@Z 0000000180032b18     libucrt:fclose.obj
 0002:0000cb3c       $unwind$_putwch_nolock     0000000180032b3c     libucrt:putwch.obj
 0002:0000cb44       $unwind$common_control87   0000000180032b44     libucrt:ieee.obj
 0002:0000cb70       $unwind$_call_matherr      0000000180032b70     libucrt:libm_error.obj
 0002:0000cb78       $unwind$_handle_error      0000000180032b78     libucrt:libm_error.obj
 0002:0000cb98       $unwind$__acrt_initialize_fma3 0000000180032b98     libucrt:fma3_available.obj
 0002:0000cba0       $unwind$_log_special_common 0000000180032ba0     libucrt:log_special.obj
 0002:0000cbac       $unwind$_close_internal    0000000180032bac     libucrt:close.obj
 0002:0000cbb4       $unwind$??$?RV<lambda_ad8af0d99a0adf03d037d7dffe354bb5>@@AEAV<lambda_c9ba49e555ba839a7b07aa3fbecb7617>@@V<lambda_2f1ebd5d68526518146ae959c9e734c8>@@@?$__crt_seh_guarded_call@H@@QEAAH$$QEAV<lambda_ad8af0d99a0adf03d037d7dffe354bb5>@@AEAV<lambda_c9ba49e555ba839a7b07aa3fbecb7617>@@$$QEAV<lambda_2f1ebd5d68526518146ae959c9e734c8>@@@Z 0000000180032bb4     libucrt:close.obj
 0002:0000cbd8       $xdatasym                  0000000180032bd8     libucrt:fpsr.obj
 0002:0000cbe0       $unwind$_raise_exc_ex      0000000180032be0     libucrt:fpexcept.obj
 0002:0000cbf4       $unwind$_ctrlfp            0000000180032bf4     libucrt:fpctrl.obj
 0002:0000cc1c       $unwind$_IsNonwritableInCurrentImage 0000000180032c1c     LIBCMT:pesect.obj
 0002:0000cc40       $unwind$strrchr            0000000180032c40     libvcruntime:strrchr.obj
 0002:0000cdb0       .edata                     0000000180032db0     OPOSPOSPower.exp
 0002:0000cdd8       rgpv                       0000000180032dd8     OPOSPOSPower.exp
 0002:0000cde8       rgszName                   0000000180032de8     OPOSPOSPower.exp
 0002:0000cdf8       rgwOrd                     0000000180032df8     OPOSPOSPower.exp
 0002:0000ce00       szName                     0000000180032e00     OPOSPOSPower.exp
 0002:0000ce11       $N00001                    0000000180032e11     OPOSPOSPower.exp
 0002:0000ce21       $N00002                    0000000180032e21     OPOSPOSPower.exp
 0002:0000ce33       $N00003                    0000000180032e33     OPOSPOSPower.exp
 0002:0000ce45       $N00004                    0000000180032e45     OPOSPOSPower.exp
 0002:0000d792       .idata$6                   0000000180033792     kernel32:KERNEL32.dll
 0002:0000d9aa       .idata$6                   00000001800339aa     user32:USER32.dll
 0002:0000dade       .idata$6                   0000000180033ade     gdi32:GDI32.dll
 0002:0000db84       .idata$6                   0000000180033b84     advapi32:ADVAPI32.dll
 0002:0000dca0       .idata$6                   0000000180033ca0     ole32:ole32.dll
 0002:0000dcaa       .idata$6                   0000000180033caa     oleaut32:OLEAUT32.dll
 0003:000001c0       ?ObjectMap@@3PAU_ATL_OBJMAP_ENTRY30@ATL@@A 00000001800351c0     POSPower.obj
 0003:000002c0       ?s_SOMethodNames@@3PAPEADA 00000001800352c0     POSPowerImpl.obj
 0003:00000368       ?s_RequiredMethodsPerRelease@@3PAHA 0000000180035368     POSPowerImpl.obj
 0003:000003c0       ?__vcrt_flsindex@@3KA      00000001800353c0     libvcruntime:per_thread_data.obj
 0003:000003d0       ?errno_no_memory@@3HA      00000001800353d0     libucrt:errno.obj
 0003:000003d4       ?doserrno_no_memory@@3KA   00000001800353d4     libucrt:errno.obj
 0003:000003e0       ?__acrt_flsindex@@3KA      00000001800353e0     libucrt:per_thread_data.obj
 0003:000008a0       _mbctypes                  00000001800358a0     libucrt:mbctype.obj
 0003:000009b0       _mbcasemaps                00000001800359b0     libucrt:mbctype.obj
 0003:00000ab0       ?__rgctypeflag@@3PADA      0000000180035ab0     libucrt:mbctype.obj
 0003:00000ac0       ?__rgcode_page_info@@3PAUcode_page_info@@A 0000000180035ac0     libucrt:mbctype.obj
 0003:00000d60       ?dazSupported@?1??common_control87@@9@9 0000000180035d60     libucrt:ieee.obj
 0003:00000d70       ?__dcrt_lowio_console_output_handle@@3PEAXEA 0000000180035d70     libucrt:initcon.obj
 0003:00000d80       ?dazSupported@?1??_ctrlfp@@9@9 0000000180035d80     libucrt:fpctrl.obj
 0003:00000fd0       ?is_initialized_as_dll@@3_NA 0000000180035fd0     LIBCMT:utility.obj
 0003:00000fd1       ?module_local_atexit_table_initialized@@3_NA 0000000180035fd1     LIBCMT:utility.obj
 0003:00000fd8       ?module_local_atexit_table@@3U_onexit_table_t@@A 0000000180035fd8     LIBCMT:utility.obj
 0003:00000ff0       ?module_local_at_quick_exit_table@@3U_onexit_table_t@@A 0000000180035ff0     LIBCMT:utility.obj
 0003:00001008       ?g_tss_cv@@3U_RTL_CONDITION_VARIABLE@@A 0000000180036008     LIBCMT:thread_safe_statics.obj
 0003:00001010       ?g_tss_event@@3PEAXEA      0000000180036010     LIBCMT:thread_safe_statics.obj
 0003:00001018       ?g_tss_mutex@@3U_RTL_CRITICAL_SECTION@@A 0000000180036018     LIBCMT:thread_safe_statics.obj
 0003:00001040       ?g_sleep_condition_variable_cs@@3P6AHPEAU_RTL_CONDITION_VARIABLE@@PEAU_RTL_CRITICAL_SECTION@@K@ZEA 0000000180036040     LIBCMT:thread_safe_statics.obj
 0003:00001048       ?g_wake_all_condition_variable@@3P6AXPEAU_RTL_CONDITION_VARIABLE@@@ZEA 0000000180036048     LIBCMT:thread_safe_statics.obj
 0003:00001050       GS_ExceptionRecord         0000000180036050     LIBCMT:gs_report.obj
 0003:000010f0       GS_ContextRecord           00000001800360f0     LIBCMT:gs_report.obj
 0003:000015c4       ?__proc_attached@@3HA      00000001800365c4     LIBCMT:dll_dllmain.obj
 0003:00001658       ?AllocateData@@3P6APEAUAtlThunkData_t@@XZEA 0000000180036658     atls:atlthunk.obj
 0003:00001660       ?InitData@@3P6AXPEAUAtlThunkData_t@@PEAX_K@ZEA 0000000180036660     atls:atlthunk.obj
 0003:00001668       ?DataToCode@@3P6AP6A_JPEAUHWND__@@I_K_J@ZPEAUAtlThunkData_t@@@ZEA 0000000180036668     atls:atlthunk.obj
 0003:00001670       ?FreeData@@3P6AXPEAUAtlThunkData_t@@@ZEA 0000000180036670     atls:atlthunk.obj
 0003:00001678       ?Initialized@@3_NA         0000000180036678     atls:atlthunk.obj
 0003:00001690       ?__vcrt_startup_thread_ptd@@3U__vcrt_ptd@@A 0000000180036690     libvcruntime:per_thread_data.obj
 0003:00001710       __vcrt_lock_table          0000000180036710     libvcruntime:locks.obj
 0003:00001738       __vcrt_locks_initialized   0000000180036738     libvcruntime:locks.obj
 0003:00001780       ?heap@@3V_HeapManager@@A   0000000180036780     libvcruntime:undname.obj
 0003:000017a8       ?module_handles@@3PAPEAUHINSTANCE__@@A 00000001800367a8     libvcruntime:winapi_downlevel.obj
 0003:000017c0       ?function_pointers@@3PAPEAXA 00000001800367c0     libvcruntime:winapi_downlevel.obj
 0003:000017e8       ?__acrt_invalid_parameter_handler@@3V?$dual_state_global@P6AXPEB_W00I_K@Z@__crt_state_management@@A 00000001800367e8     libucrt:invalid_parameter.obj
 0003:000017f0       ?c_termination_complete@@3JA 00000001800367f0     libucrt:exit.obj
 0003:000017f8       ?thread_local_exit_callback_func@@3P6AXPEAXK0@ZEA 00000001800367f8     libucrt:exit.obj
 0003:00001810       ?program_name@?1???$common_configure_argv@D@@YAHW4_crt_argv_mode@@@Z@4PADA 0000000180036810     libucrt:argv_parsing.obj
 0003:00001968       ?__acrt_new_handler@@3V?$dual_state_global@P6AH_K@Z@__crt_state_management@@A 0000000180036968     libucrt:new_handler.obj
 0003:00001980       ?module_handles@@3PAPEAUHINSTANCE__@@A 0000000180036980     libucrt:winapi_thunks.obj
 0003:00001a20       ?encoded_function_pointers@@3PAPEAXA 0000000180036a20     libucrt:winapi_thunks.obj
 0003:00001b10       ?internal_state@?1??_mbtowc_internal@@9@4U_Mbstatet@@A 0000000180036b10     libucrt:mbtowc.obj
 0003:00001b28       ?enable_percent_n@@3_KA    0000000180036b28     libucrt:printf_count_output.obj
 0003:00001f50       ?__acrt_lock_table@@3PAU_RTL_CRITICAL_SECTION@@A 0000000180036f50     libucrt:locks.obj
 0003:00002180       ?__acrt_locks_initialized@@3IA 0000000180037180     libucrt:locks.obj
 0003:000021a0       ?fSystemSet@@3HA           00000001800371a0     libucrt:mbctype.obj
 0003:000021a4       ?initialized@?1??__acrt_initialize_multibyte@@9@4_NA 00000001800371a4     libucrt:mbctype.obj
 0003:000021e0       ?ctrlc_action@@3V?$dual_state_global@P6AXH@Z@__crt_state_management@@A 00000001800371e0     libucrt:signal.obj
 0003:000021e8       ?ctrlbreak_action@@3V?$dual_state_global@P6AXH@Z@__crt_state_management@@A 00000001800371e8     libucrt:signal.obj
 0003:000021f0       ?abort_action@@3V?$dual_state_global@P6AXH@Z@__crt_state_management@@A 00000001800371f0     libucrt:signal.obj
 0003:000021f8       ?term_action@@3V?$dual_state_global@P6AXH@Z@__crt_state_management@@A 00000001800371f8     libucrt:signal.obj
 0003:00002200       ?user_matherr@@3V?$dual_state_global@P6AHPEAU_exception@@@Z@__crt_state_management@@A 0000000180037200     libucrt:matherr.obj
 0003:00002210       ?__acrt_global_new_mode@@3V?$dual_state_global@J@__crt_state_management@@A 0000000180037210     libucrt:new_mode.obj
 0003:00002218       ?internal_pst@?1??__mbrtoc32_utf8@__crt_mbstring@@YA_KPEA_UPEBD_KPEAU_Mbstatet@@AEAV__crt_cached_ptd_host@@@Z@4U3@A 0000000180037218     libucrt:mbrtoc32.obj
 0003:00002220       ?__acrt_app_type@@3W4_crt_app_type@@A 0000000180037220     libucrt:report_runtime_error.obj
 0005:00000000       MoveSmall                  000000018003b000     libvcruntime:memcpy.obj
 0005:00000040       MoveSmallYmm               000000018003b040     libvcruntime:memcpy.obj
 0005:00000064       MoveSmallYmmNT             000000018003b064     libvcruntime:memcpy.obj
 0005:00000088       MoveSmallXmm               000000018003b088     libvcruntime:memcpy.obj
 0005:000000b0       MsetTab                    000000018003b0b0     libvcruntime:memset.obj
 0006:00000220       $R000000                   000000018003c220     POSPower.res
 0006:00000bb0       $R000990                   000000018003cbb0     POSPower.res
 0006:00000c98       $R000A78                   000000018003cc98     POSPower.res
 0006:00000f00       $R000CE0                   000000018003cf00     POSPower.res
 0006:00001458       $R001238                   000000018003d458     POSPower.res
 0006:00004440       $R004220                   0000000180040440     POSPower.res
 0006:00004470       $R004250                   0000000180040470     POSPower.res
