 OPOSLineDisplay

 Timestamp is 5ed4589d (Mon Jun  1 10:23:41 2020)

 Preferred load address is 0000000180000000

 Start         Length     Name                   Class
 0001:00000000 000000c0H .text$di                CODE
 0001:000000c0 00021890H .text$mn                CODE
 0001:00021950 00000040H .text$mn$00             CODE
 0001:00021990 000004b0H .text$x                 CODE
 0001:00021e40 00000078H .text$yd                CODE
 0002:00000000 00000618H .idata$5                DATA
 0002:00000618 00000028H .00cfg                  DATA
 0002:00000640 00000008H .CRT$XCA                DATA
 0002:00000648 00000008H .CRT$XCL                DATA
 0002:00000650 00000020H .CRT$XCU                DATA
 0002:00000670 00000008H .CRT$XCZ                DATA
 0002:00000678 00000008H .CRT$XIA                DATA
 0002:00000680 00000020H .CRT$XIC                DATA
 0002:000006a0 00000008H .CRT$XIZ                DATA
 0002:000006a8 00000008H .CRT$XLA                DATA
 0002:000006b0 00000008H .CRT$XLZ                DATA
 0002:000006b8 00000008H .CRT$XPA                DATA
 0002:000006c0 00000010H .CRT$XPX                DATA
 0002:000006d0 00000008H .CRT$XPXA               DATA
 0002:000006d8 00000008H .CRT$XPZ                DATA
 0002:000006e0 00000008H .CRT$XTA                DATA
 0002:000006e8 00000008H .CRT$XTZ                DATA
 0002:000006f0 00000000H .gfids$y                DATA
 0002:000006f0 0000abd0H .rdata                  DATA
 0002:0000b2c0 00000028H .rdata$T                DATA
 0002:0000b2e8 00000274H .rdata$r                DATA
 0002:0000b55c 0000040cH .rdata$zzzdbg           DATA
 0002:0000b968 00000008H .rtc$IAA                DATA
 0002:0000b970 00000008H .rtc$IZZ                DATA
 0002:0000b978 00000008H .rtc$TAA                DATA
 0002:0000b980 00000008H .rtc$TZZ                DATA
 0002:0000b988 00000004H .tls                    DATA
 0002:0000b98c 00000004H .tls$                   DATA
 0002:0000b990 00000008H .tls$ZZZ                DATA
 0002:0000b998 000016e8H .xdata                  DATA
 0002:0000d080 00000150H .xdata$x                DATA
 0002:0000d1d0 00000008H ATL$__a                 DATA
 0002:0000d1d8 00000008H ATL$__z                 DATA
 0002:0000d1e0 000000acH .edata                  DATA
 0002:0000d28c 00000078H .idata$2                DATA
 0002:0000d304 00000014H .idata$3                DATA
 0002:0000d318 00000618H .idata$4                DATA
 0002:0000d930 00000c2aH .idata$6                DATA
 0003:00000000 00000de8H .data                   DATA
 0003:00000de8 000000c8H .data$r                 DATA
 0003:00000eb0 0000140cH .bss                    DATA
 0004:00000000 00001efcH .pdata                  DATA
 0005:00000000 00000094H _RDATA                  DATA
 0006:00000000 00000220H .rsrc$01                DATA
 0006:00000220 00005908H .rsrc$02                DATA

  Address         Publics by Value              Rva+Base               Lib:Object

 0000:00000000       __guard_fids_count         0000000000000000     <absolute>
 0000:00000000       __x64_code_ranges_to_entry_points 0000000000000000     <absolute>
 0000:00000000       __guard_longjmp_count      0000000000000000     <absolute>
 0000:00000000       __guard_longjmp_table      0000000000000000     <absolute>
 0000:00000000       __arm64x_redirection_metadata 0000000000000000     <absolute>
 0000:00000000       __hybrid_code_map          0000000000000000     <absolute>
 0000:00000000       __guard_iat_count          0000000000000000     <absolute>
 0000:00000000       __guard_eh_cont_count      0000000000000000     <absolute>
 0000:00000000       __guard_iat_table          0000000000000000     <absolute>
 0000:00000000       __arm64x_native_entrypoint 0000000000000000     <absolute>
 0000:00000000       __volatile_metadata        0000000000000000     <absolute>
 0000:00000000       __hybrid_code_map_count    0000000000000000     <absolute>
 0000:00000000       __guard_eh_cont_table      0000000000000000     <absolute>
 0000:00000000       __enclave_config           0000000000000000     <absolute>
 0000:00000000       ___safe_se_handler_count   0000000000000000     <absolute>
 0000:00000000       __AbsoluteZero             0000000000000000     <absolute>
 0000:00000000       ___safe_se_handler_table   0000000000000000     <absolute>
 0000:00000000       __dynamic_value_reloc_table 0000000000000000     <absolute>
 0000:00000000       __guard_fids_table         0000000000000000     <absolute>
 0000:00000000       __hybrid_auxiliary_iat     0000000000000000     <absolute>
 0000:00000100       __guard_flags              0000000000000100     <absolute>
 0000:00000000       __ImageBase                0000000180000000     <linker-defined>
 0001:000000c0       ?DupWide@_CW@@AEAAXXZ      00000001800010c0 f   CWString.obj
 0001:000000e8       ?cw_dup@@YAXPEBDAEAHAEAPEA_W1@Z 00000001800010e8 f   CWString.obj
 0001:000001c8       ?cw_memcpy@@YAHPEA_WPEBDH@Z 00000001800011c8 f   CWString.obj
 0001:00000214       ?cw_strcpy@@YAHPEA_WPEBD@Z 0000000180001214 f   CWString.obj
 0001:00000228       ??0CAtlComModule@ATL@@QEAA@XZ 0000000180001228 f i OposVariant.obj
 0001:000002a8       ??0CAtlWinModule@ATL@@QEAA@XZ 00000001800012a8 f i OposVariant.obj
 0001:00000314       ??0OposDispParms@@QEAA@PEAVOposVariant@@H@Z 0000000180001314 f   OposVariant.obj
 0001:000003bc       ??1OposDispParms@@QEAA@XZ  00000001800013bc f   OposVariant.obj
 0001:000003d4       ??_Estringdispid@CComTypeInfoHolder@ATL@@QEAAPEAXI@Z 00000001800013d4 f i OposVariant.obj
 0001:00000478       ?AtlWinModuleTerm@ATL@@YAJPEAU_ATL_WIN_MODULE70@1@PEAUHINSTANCE__@@@Z 0000000180001478 f i OposVariant.obj
 0001:00000528       ?ChangeBSTR@OposVariant@@QEAAXPEAPEA_WAEAJ@Z 0000000180001528 f   OposVariant.obj
 0001:00000588       ?ChangeLONG@OposVariant@@QEAAXPEAJAEAJ@Z 0000000180001588 f   OposVariant.obj
 0001:000005e4       ?GetLONG@OposVariant@@QEAAJXZ 00000001800015e4 f   OposVariant.obj
 0001:00000608       ?SetBSTR@OposVariant@@QEAAXPEA_WAEAJ@Z 0000000180001608 f   OposVariant.obj
 0001:00000648       ?SetBSTR_Copy@OposVariant@@QEAAXPEA_WAEAJ@Z 0000000180001648 f   OposVariant.obj
 0001:000006b8       ?SetBSTR_InOutPtr@OposVariant@@QEAA_NPEAPEA_WAEAJ@Z 00000001800016b8 f   OposVariant.obj
 0001:00000708       ?SetDispatch_Ptr@OposVariant@@QEAAXPEAUIDispatch@@AEAJ@Z 0000000180001708 f   OposVariant.obj
 0001:00000760       ?SetLONG@OposVariant@@QEAAXJ@Z 0000000180001760 f   OposVariant.obj
 0001:00000790       ?SetLONG_Ptr@OposVariant@@QEAAXPEAJAEAJ@Z 0000000180001790 f   OposVariant.obj
 0001:000007dc       ?SetString@OposVariant@@QEAAXPEB_WAEAJ@Z 00000001800017dc f   OposVariant.obj
 0001:00000840       ?SetVARIANT_BOOL@OposVariant@@QEAAXF@Z 0000000180001840 f   OposVariant.obj
 0001:00000878       ?Term@CAtlComModule@ATL@@QEAAXXZ 0000000180001878 f i OposVariant.obj
 0001:000008e8       ?_AtlInitializeCriticalSectionEx@ATL@@YAHPEAU_RTL_CRITICAL_SECTION@@KK@Z 00000001800018e8 f i OposVariant.obj
 0001:000008f0       ?_AtlRaiseException@ATL@@YAXKK@Z 00000001800018f0 f i OposVariant.obj
 0001:00000900       ?GetWindowProc@?$CWindowImplBaseT@VCWindow@ATL@@V?$CWinTraits@$0FGAAAAAA@$0A@@2@@ATL@@UEAAP6A_JPEAUHWND__@@I_K_J@ZXZ 0000000180001900 f i LineDisplay.obj
 0001:00000908       ?StartWindowProc@?$CWindowImplBaseT@VCWindow@ATL@@V?$CWinTraits@$0FGAAAAAA@$0A@@2@@ATL@@SA_JPEAUHWND__@@I_K_J@Z 0000000180001908 f i LineDisplay.obj
 0001:000009cc       ?ObjectMain@CComObjectRootBase@ATL@@SAX_N@Z 00000001800019cc f i LineDisplay.obj
 0001:000009cc       ?OnFinalMessage@?$CWindowImplBaseT@VCWindow@ATL@@V?$CWinTraits@$0FGAAAAAA@$0A@@2@@ATL@@UEAAXPEAUHWND__@@@Z 00000001800019cc f i LineDisplay.obj
 0001:000009cc       _guard_check_icall_nop     00000001800019cc f i LIBCMT:guard_support.obj
 0001:000009d0       ?GetTypeInfoCount@?$IDispatchImpl@UIOPOSLineDisplay@@$1?IID_IOPOSLineDisplay@@3U_GUID@@B$1?LIBID_OposLineDisplay_CCO@@3U3@B$00$0A@VCComTypeInfoHolder@ATL@@@ATL@@UEAAJPEAI@Z 00000001800019d0 f i LineDisplay.obj
 0001:000009e4       ?GetTypeInfo@?$IDispatchImpl@UIOPOSLineDisplay@@$1?IID_IOPOSLineDisplay@@3U_GUID@@B$1?LIBID_OposLineDisplay_CCO@@3U3@B$00$0A@VCComTypeInfoHolder@ATL@@@ATL@@UEAAJIKPEAPEAUITypeInfo@@@Z 00000001800019e4 f i LineDisplay.obj
 0001:00000a48       ?GetIDsOfNames@?$IDispatchImpl@UIOPOSLineDisplay@@$1?IID_IOPOSLineDisplay@@3U_GUID@@B$1?LIBID_OposLineDisplay_CCO@@3U3@B$00$0A@VCComTypeInfoHolder@ATL@@@ATL@@UEAAJAEBU_GUID@@PEAPEA_WIKPEAJ@Z 0000000180001a48 f i LineDisplay.obj
 0001:00000a54       ?Invoke@?$IDispatchImpl@UIOPOSLineDisplay@@$1?IID_IOPOSLineDisplay@@3U_GUID@@B$1?LIBID_OposLineDisplay_CCO@@3U3@B$00$0A@VCComTypeInfoHolder@ATL@@@ATL@@UEAAJJAEBU_GUID@@KGPEAUtagDISPPARAMS@@PEAUtagVARIANT@@PEAUtagEXCEPINFO@@PEAI@Z 0000000180001a54 f i LineDisplay.obj
 0001:00000ae4       ?CreateControlWindow@?$CComControl@VCOPOSLineDisplay@@V?$CWindowImpl@VCOPOSLineDisplay@@VCWindow@ATL@@V?$CWinTraits@$0FGAAAAAA@$0A@@3@@ATL@@@ATL@@UEAAPEAUHWND__@@PEAU3@AEAUtagRECT@@@Z 0000000180001ae4 f i LineDisplay.obj
 0001:00000b1c       ?ControlQueryInterface@?$CComControl@VCOPOSLineDisplay@@V?$CWindowImpl@VCOPOSLineDisplay@@VCWindow@ATL@@V?$CWinTraits@$0FGAAAAAA@$0A@@3@@ATL@@@ATL@@UEAAJAEBU_GUID@@PEAPEAX@Z 0000000180001b1c f i LineDisplay.obj
 0001:00000b30       ?GetClassID@?$IPersistStorageImpl@VCOPOSLineDisplay@@@ATL@@UEAAJPEAU_GUID@@@Z 0000000180001b30 f i LineDisplay.obj
 0001:00000b30       ?GetUserClassID@?$IOleObjectImpl@VCOPOSLineDisplay@@@ATL@@UEAAJPEAU_GUID@@@Z 0000000180001b30 f i LineDisplay.obj
 0001:00000b30       ?GetClassID@?$IPersistStreamInitImpl@VCOPOSLineDisplay@@@ATL@@UEAAJPEAU_GUID@@@Z 0000000180001b30 f i LineDisplay.obj
 0001:00000b4c       ?IsDirty@?$IPersistStreamInitImpl@VCOPOSLineDisplay@@@ATL@@UEAAJXZ 0000000180001b4c f i LineDisplay.obj
 0001:00000b68       ?Load@?$IPersistStreamInitImpl@VCOPOSLineDisplay@@@ATL@@UEAAJPEAUIStream@@@Z 0000000180001b68 f i LineDisplay.obj
 0001:00000b80       ?Save@?$IPersistStreamInitImpl@VCOPOSLineDisplay@@@ATL@@UEAAJPEAUIStream@@H@Z 0000000180001b80 f i LineDisplay.obj
 0001:00000b98       ?GetSizeMax@?$IPersistStreamInitImpl@VCOPOSLineDisplay@@@ATL@@UEAAJPEAT_ULARGE_INTEGER@@@Z 0000000180001b98 f i LineDisplay.obj
 0001:00000dc4       ?InitNew@?$IPersistStreamInitImpl@VCOPOSLineDisplay@@@ATL@@UEAAJXZ 0000000180001dc4 f i LineDisplay.obj
 0001:00000ddc       ?SODataDummy@COPOSLineDisplay@@MEAAJJ@Z 0000000180001ddc f i LineDisplay.obj
 0001:00000ddc       ?GetCanonicalFormatEtc@?$IDataObjectImpl@VCOPOSLineDisplay@@@ATL@@UEAAJPEAUtagFORMATETC@@0@Z 0000000180001ddc f i LineDisplay.obj
 0001:00000ddc       ?QueryGetData@?$IDataObjectImpl@VCOPOSLineDisplay@@@ATL@@UEAAJPEAUtagFORMATETC@@@Z 0000000180001ddc f i LineDisplay.obj
 0001:00000ddc       ?SetMoniker@?$IOleObjectImpl@VCOPOSLineDisplay@@@ATL@@UEAAJKPEAUIMoniker@@@Z 0000000180001ddc f i LineDisplay.obj
 0001:00000ddc       ?SetColorScheme@?$IOleObjectImpl@VCOPOSLineDisplay@@@ATL@@UEAAJPEAUtagLOGPALETTE@@@Z 0000000180001ddc f i LineDisplay.obj
 0001:00000ddc       ?OnMnemonic@?$IOleControlImpl@VCOPOSLineDisplay@@@ATL@@UEAAJPEAUtagMSG@@@Z 0000000180001ddc f i LineDisplay.obj
 0001:00000ddc       ?InitFromData@?$IOleObjectImpl@VCOPOSLineDisplay@@@ATL@@UEAAJPEAUIDataObject@@HK@Z 0000000180001ddc f i LineDisplay.obj
 0001:00000ddc       ?GetDropTarget@?$IOleInPlaceObjectWindowlessImpl@VCOPOSLineDisplay@@@ATL@@UEAAJPEAPEAUIDropTarget@@@Z 0000000180001ddc f i LineDisplay.obj
 0001:00000ddc       ?SOErrorDummy@COPOSLineDisplay@@MEAAJJJJPEAJ@Z 0000000180001ddc f i LineDisplay.obj
 0001:00000ddc       ?SOOutputCompleteDummy@COPOSLineDisplay@@MEAAJJ@Z 0000000180001ddc f i LineDisplay.obj
 0001:00000ddc       ?ContextSensitiveHelp@?$IOleInPlaceActiveObjectImpl@VCOPOSLineDisplay@@@ATL@@UEAAJH@Z 0000000180001ddc f i LineDisplay.obj
 0001:00000ddc       ?Unfreeze@?$IViewObjectExImpl@VCOPOSLineDisplay@@@ATL@@UEAAJK@Z 0000000180001ddc f i LineDisplay.obj
 0001:00000ddc       ?GetControlInfo@?$IOleControlImpl@VCOPOSLineDisplay@@@ATL@@UEAAJPEAUtagCONTROLINFO@@@Z 0000000180001ddc f i LineDisplay.obj
 0001:00000ddc       ?GetClipboardData@?$IOleObjectImpl@VCOPOSLineDisplay@@@ATL@@UEAAJKPEAPEAUIDataObject@@@Z 0000000180001ddc f i LineDisplay.obj
 0001:00000ddc       ?EnumFormatEtc@?$IDataObjectImpl@VCOPOSLineDisplay@@@ATL@@UEAAJKPEAPEAUIEnumFORMATETC@@@Z 0000000180001ddc f i LineDisplay.obj
 0001:00000ddc       ?Freeze@?$IViewObjectExImpl@VCOPOSLineDisplay@@@ATL@@UEAAJKJPEAXPEAK@Z 0000000180001ddc f i LineDisplay.obj
 0001:00000ddc       ?SetData@?$IDataObjectImpl@VCOPOSLineDisplay@@@ATL@@UEAAJPEAUtagFORMATETC@@PEAUtagSTGMEDIUM@@H@Z 0000000180001ddc f i LineDisplay.obj
 0001:00000ddc       ?GetColorSet@?$IViewObjectExImpl@VCOPOSLineDisplay@@@ATL@@UEAAJKJPEAXPEAUtagDVTARGETDEVICE@@PEAUHDC__@@PEAPEAUtagLOGPALETTE@@@Z 0000000180001ddc f i LineDisplay.obj
 0001:00000ddc       ?QueryInterface@CRegObject@ATL@@UEAAJAEBU_GUID@@PEAPEAX@Z 0000000180001ddc f i LineDisplay.obj
 0001:00000ddc       ?GetMoniker@?$IOleObjectImpl@VCOPOSLineDisplay@@@ATL@@UEAAJKKPEAPEAUIMoniker@@@Z 0000000180001ddc f i LineDisplay.obj
 0001:00000ddc       ?GetRect@?$IViewObjectExImpl@VCOPOSLineDisplay@@@ATL@@UEAAJKPEAU_RECTL@@@Z 0000000180001ddc f i LineDisplay.obj
 0001:00000ddc       ?ReactivateAndUndo@?$IOleInPlaceObjectWindowlessImpl@VCOPOSLineDisplay@@@ATL@@UEAAJXZ 0000000180001ddc f i LineDisplay.obj
 0001:00000ddc       ?ContextSensitiveHelp@?$IOleInPlaceObjectWindowlessImpl@VCOPOSLineDisplay@@@ATL@@UEAAJH@Z 0000000180001ddc f i LineDisplay.obj
 0001:00000ddc       ?GetDataHere@?$IDataObjectImpl@VCOPOSLineDisplay@@@ATL@@UEAAJPEAUtagFORMATETC@@PEAUtagSTGMEDIUM@@@Z 0000000180001ddc f i LineDisplay.obj
 0001:00000de4       ?HandsOffStorage@?$IPersistStorageImpl@VCOPOSLineDisplay@@@ATL@@UEAAJXZ 0000000180001de4 f i LineDisplay.obj
 0001:00000de4       ?SaveCompleted@?$IPersistStorageImpl@VCOPOSLineDisplay@@@ATL@@UEAAJPEAUIStorage@@@Z 0000000180001de4 f i LineDisplay.obj
 0001:00000de4       ?GetObjectDescription@?$CComCoClass@VCOPOSLineDisplay@@$1?CLSID_OPOSLineDisplay@@3U_GUID@@B@ATL@@SAPEB_WXZ 0000000180001de4 f i LineDisplay.obj
 0001:00000de4       ?GetCategoryMap@CComObjectRootBase@ATL@@SAPEBU_ATL_CATMAP_ENTRY@2@XZ 0000000180001de4 f i LineDisplay.obj
 0001:00000de4       ?OnFrameWindowActivate@?$IOleInPlaceActiveObjectImpl@VCOPOSLineDisplay@@@ATL@@UEAAJH@Z 0000000180001de4 f i LineDisplay.obj
 0001:00000de4       ?Release@CRegObject@ATL@@UEAAKXZ 0000000180001de4 f i LineDisplay.obj
 0001:00000de4       ?IsUpToDate@?$IOleObjectImpl@VCOPOSLineDisplay@@@ATL@@UEAAJXZ 0000000180001de4 f i LineDisplay.obj
 0001:00000de4       ?OnAmbientPropertyChange@?$IOleControlImpl@VCOPOSLineDisplay@@@ATL@@UEAAJJ@Z 0000000180001de4 f i LineDisplay.obj
 0001:00000de4       ?EnableModeless@?$IOleInPlaceActiveObjectImpl@VCOPOSLineDisplay@@@ATL@@UEAAJH@Z 0000000180001de4 f i LineDisplay.obj
 0001:00000de4       ?SetHostNames@?$IOleObjectImpl@VCOPOSLineDisplay@@@ATL@@UEAAJPEB_W0@Z 0000000180001de4 f i LineDisplay.obj
 0001:00000de4       ?ResizeBorder@?$IOleInPlaceActiveObjectImpl@VCOPOSLineDisplay@@@ATL@@UEAAJPEBUtagRECT@@PEAUIOleInPlaceUIWindow@@H@Z 0000000180001de4 f i LineDisplay.obj
 0001:00000de4       ?Update@?$IOleObjectImpl@VCOPOSLineDisplay@@@ATL@@UEAAJXZ 0000000180001de4 f i LineDisplay.obj
 0001:00000de8       ?SetClientSite@?$IOleObjectImpl@VCOPOSLineDisplay@@@ATL@@UEAAJPEAUIOleClientSite@@@Z 0000000180001de8 f i LineDisplay.obj
 0001:00000e04       ?GetClientSite@?$IOleObjectImpl@VCOPOSLineDisplay@@@ATL@@UEAAJPEAPEAUIOleClientSite@@@Z 0000000180001e04 f i LineDisplay.obj
 0001:00000e4c       ?Close@?$IOleObjectImpl@VCOPOSLineDisplay@@@ATL@@UEAAJK@Z 0000000180001e4c f i LineDisplay.obj
 0001:00000e68       ?DoVerb@?$IOleObjectImpl@VCOPOSLineDisplay@@@ATL@@UEAAJJPEAUtagMSG@@PEAUIOleClientSite@@JPEAUHWND__@@PEBUtagRECT@@@Z 0000000180001e68 f i LineDisplay.obj
 0001:0000100c       ?EnumVerbs@?$IOleObjectImpl@VCOPOSLineDisplay@@@ATL@@UEAAJPEAPEAUIEnumOLEVERB@@@Z 000000018000200c f i LineDisplay.obj
 0001:00001028       ?GetUserType@?$IOleObjectImpl@VCOPOSLineDisplay@@@ATL@@UEAAJKPEAPEA_W@Z 0000000180002028 f i LineDisplay.obj
 0001:00001038       ?SetExtent@?$IOleObjectImpl@VCOPOSLineDisplay@@@ATL@@UEAAJKPEAUtagSIZE@@@Z 0000000180002038 f i LineDisplay.obj
 0001:00001054       ?GetExtent@?$IOleObjectImpl@VCOPOSLineDisplay@@@ATL@@UEAAJKPEAUtagSIZE@@@Z 0000000180002054 f i LineDisplay.obj
 0001:00001084       ?Advise@?$IOleObjectImpl@VCOPOSLineDisplay@@@ATL@@UEAAJPEAUIAdviseSink@@PEAK@Z 0000000180002084 f i LineDisplay.obj
 0001:000010e0       ?Unadvise@?$IOleObjectImpl@VCOPOSLineDisplay@@@ATL@@UEAAJK@Z 00000001800020e0 f i LineDisplay.obj
 0001:00001118       ?EnumAdvise@?$IOleObjectImpl@VCOPOSLineDisplay@@@ATL@@UEAAJPEAPEAUIEnumSTATDATA@@@Z 0000000180002118 f i LineDisplay.obj
 0001:00001160       ?GetMiscStatus@?$IOleObjectImpl@VCOPOSLineDisplay@@@ATL@@UEAAJKPEAK@Z 0000000180002160 f i LineDisplay.obj
 0001:00001170       ?GetWindow@?$IOleInPlaceActiveObjectImpl@VCOPOSLineDisplay@@@ATL@@UEAAJPEAPEAUHWND__@@@Z 0000000180002170 f i LineDisplay.obj
 0001:000011c4       ?TranslateAcceleratorW@?$IOleInPlaceActiveObjectImpl@VCOPOSLineDisplay@@@ATL@@UEAAJPEAUtagMSG@@@Z 00000001800021c4 f i LineDisplay.obj
 0001:000012b8       ?OnDocWindowActivate@?$IOleInPlaceActiveObjectImpl@VCOPOSLineDisplay@@@ATL@@UEAAJH@Z 00000001800022b8 f i LineDisplay.obj
 0001:000012e4       ?Draw@?$IViewObjectExImpl@VCOPOSLineDisplay@@@ATL@@UEAAJKJPEAXPEAUtagDVTARGETDEVICE@@PEAUHDC__@@2PEBU_RECTL@@3P6AH_K@Z4@Z 00000001800022e4 f i LineDisplay.obj
 0001:00001348       ?SetAdvise@?$IViewObjectExImpl@VCOPOSLineDisplay@@@ATL@@UEAAJKKPEAUIAdviseSink@@@Z 0000000180002348 f i LineDisplay.obj
 0001:0000139c       ?GetAdvise@?$IViewObjectExImpl@VCOPOSLineDisplay@@@ATL@@UEAAJPEAK0PEAPEAUIAdviseSink@@@Z 000000018000239c f i LineDisplay.obj
 0001:000013d8       ?GetExtent@?$IViewObjectExImpl@VCOPOSLineDisplay@@@ATL@@UEAAJKJPEAUtagDVTARGETDEVICE@@PEAUtagSIZE@@@Z 00000001800023d8 f i LineDisplay.obj
 0001:00001408       ?GetViewStatus@?$IViewObjectExImpl@VCOPOSLineDisplay@@@ATL@@UEAAJPEAK@Z 0000000180002408 f i LineDisplay.obj
 0001:0000141c       ?QueryHitPoint@?$IViewObjectExImpl@VCOPOSLineDisplay@@@ATL@@UEAAJKPEBUtagRECT@@UtagPOINT@@JPEAK@Z 000000018000241c f i LineDisplay.obj
 0001:00001460       ?QueryHitRect@?$IViewObjectExImpl@VCOPOSLineDisplay@@@ATL@@UEAAJKPEBUtagRECT@@0JPEAK@Z 0000000180002460 f i LineDisplay.obj
 0001:000014c8       ?GetNaturalExtent@?$IViewObjectExImpl@VCOPOSLineDisplay@@@ATL@@UEAAJKJPEAUtagDVTARGETDEVICE@@PEAUHDC__@@PEAUtagExtentInfo@@PEAUtagSIZE@@@Z 00000001800024c8 f i LineDisplay.obj
 0001:00001510       ?GetWindow@?$IOleInPlaceObjectWindowlessImpl@VCOPOSLineDisplay@@@ATL@@UEAAJPEAPEAUHWND__@@@Z 0000000180002510 f i LineDisplay.obj
 0001:00001564       ?InPlaceDeactivate@?$IOleInPlaceObjectWindowlessImpl@VCOPOSLineDisplay@@@ATL@@UEAAJXZ 0000000180002564 f i LineDisplay.obj
 0001:00001580       ?UIDeactivate@?$IOleInPlaceObjectWindowlessImpl@VCOPOSLineDisplay@@@ATL@@UEAAJXZ 0000000180002580 f i LineDisplay.obj
 0001:0000159c       ?SetObjectRects@?$IOleInPlaceObjectWindowlessImpl@VCOPOSLineDisplay@@@ATL@@UEAAJPEBUtagRECT@@0@Z 000000018000259c f i LineDisplay.obj
 0001:000015b8       ?OnWindowMessage@?$IOleInPlaceObjectWindowlessImpl@VCOPOSLineDisplay@@@ATL@@UEAAJI_K_JPEA_J@Z 00000001800025b8 f i LineDisplay.obj
 0001:00001680       ?EnumConnectionPoints@?$IConnectionPointContainerImpl@VCOPOSLineDisplay@@@ATL@@UEAAJPEAPEAUIEnumConnectionPoints@@@Z 0000000180002680 f i LineDisplay.obj
 0001:000018cc       ?FindConnectionPoint@?$IConnectionPointContainerImpl@VCOPOSLineDisplay@@@ATL@@UEAAJAEBU_GUID@@PEAPEAUIConnectionPoint@@@Z 00000001800028cc f i LineDisplay.obj
 0001:0000199c       ?IsDirty@?$IPersistStorageImpl@VCOPOSLineDisplay@@@ATL@@UEAAJXZ 000000018000299c f i LineDisplay.obj
 0001:000019dc       ?InitNew@?$IPersistStorageImpl@VCOPOSLineDisplay@@@ATL@@UEAAJPEAUIStorage@@@Z 00000001800029dc f i LineDisplay.obj
 0001:00001a1c       ?Load@?$IPersistStorageImpl@VCOPOSLineDisplay@@@ATL@@UEAAJPEAUIStorage@@@Z 0000000180002a1c f i LineDisplay.obj
 0001:00001abc       ?Save@?$IPersistStorageImpl@VCOPOSLineDisplay@@@ATL@@UEAAJPEAUIStorage@@H@Z 0000000180002abc f i LineDisplay.obj
 0001:00001b6c       ?GetPages@?$ISpecifyPropertyPagesImpl@VCOPOSLineDisplay@@@ATL@@UEAAJPEAUtagCAUUID@@@Z 0000000180002b6c f i LineDisplay.obj
 0001:00001b78       ?QuickActivate@?$IQuickActivateImpl@VCOPOSLineDisplay@@@ATL@@UEAAJPEAUtagQACONTAINER@@PEAUtagQACONTROL@@@Z 0000000180002b78 f i LineDisplay.obj
 0001:00001b94       ?SetContentExtent@?$IQuickActivateImpl@VCOPOSLineDisplay@@@ATL@@UEAAJPEAUtagSIZE@@@Z 0000000180002b94 f i LineDisplay.obj
 0001:00001bc8       ?GetContentExtent@?$IQuickActivateImpl@VCOPOSLineDisplay@@@ATL@@UEAAJPEAUtagSIZE@@@Z 0000000180002bc8 f i LineDisplay.obj
 0001:00001c00       ?GetData@?$IDataObjectImpl@VCOPOSLineDisplay@@@ATL@@UEAAJPEAUtagFORMATETC@@PEAUtagSTGMEDIUM@@@Z 0000000180002c00 f i LineDisplay.obj
 0001:00001c1c       ?DAdvise@?$IDataObjectImpl@VCOPOSLineDisplay@@@ATL@@UEAAJPEAUtagFORMATETC@@KPEAUIAdviseSink@@PEAK@Z 0000000180002c1c f i LineDisplay.obj
 0001:00001ca4       ?DUnadvise@?$IDataObjectImpl@VCOPOSLineDisplay@@@ATL@@UEAAJK@Z 0000000180002ca4 f i LineDisplay.obj
 0001:00001cd0       ?EnumDAdvise@?$IDataObjectImpl@VCOPOSLineDisplay@@@ATL@@UEAAJPEAPEAUIEnumSTATDATA@@@Z 0000000180002cd0 f i LineDisplay.obj
 0001:00001d0c       ?GetClassInfoW@?$IProvideClassInfo2Impl@$1?CLSID_OPOSLineDisplay@@3U_GUID@@B$1?DIID__IOPOSLineDisplayEvents@@3U2@B$1?LIBID_OposLineDisplay_CCO@@3U2@B$00$0A@VCComTypeInfoHolder@ATL@@@ATL@@UEAAJPEAPEAUITypeInfo@@@Z 0000000180002d0c f i LineDisplay.obj
 0001:00001d64       ?GetGUID@?$IProvideClassInfo2Impl@$1?CLSID_OPOSLineDisplay@@3U_GUID@@B$1?DIID__IOPOSLineDisplayEvents@@3U2@B$1?LIBID_OposLineDisplay_CCO@@3U2@B$00$0A@VCComTypeInfoHolder@ATL@@@ATL@@UEAAJKPEAU_GUID@@@Z 0000000180002d64 f i LineDisplay.obj
 0001:00001d98       ?AddRef@CRegObject@ATL@@UEAAKXZ 0000000180002d98 f i LineDisplay.obj
 0001:00001d98       ?FAccessAllowed@?$IObjectSafetyImpl@VCOPOSLineDisplay@@$02@ATL@@MEAAHXZ 0000000180002d98 f i LineDisplay.obj
 0001:00001d98       _get_startup_argv_mode     0000000180002d98 f i LIBCMT:argv_mode.obj
 0001:00001da0       ?GetInterfaceSafetyOptions@?$IObjectSafetyImpl@VCOPOSLineDisplay@@$02@ATL@@UEAAJAEBU_GUID@@PEAK1@Z 0000000180002da0 f i LineDisplay.obj
 0001:00001e34       ?SetInterfaceSafetyOptions@?$IObjectSafetyImpl@VCOPOSLineDisplay@@$02@ATL@@UEAAJAEBU_GUID@@KK@Z 0000000180002e34 f i LineDisplay.obj
 0001:00001ed8       ?_LocCPQueryInterface@?$IConnectionPointImpl@VCOPOSLineDisplay@@$1?DIID__IOPOSLineDisplayEvents@@3U_GUID@@BVCComDynamicUnkArray@ATL@@@ATL@@UEAAJAEBU_GUID@@PEAPEAX@Z 0000000180002ed8 f i LineDisplay.obj
 0001:00001ed8       ?_LocCPQueryInterface@?$IConnectionPointImpl@VCOPOSLineDisplay@@$1?IID_IPropertyNotifySink@@3U_GUID@@BVCComDynamicUnkArray@ATL@@@ATL@@UEAAJAEBU_GUID@@PEAPEAX@Z 0000000180002ed8 f i LineDisplay.obj
 0001:00001f48       ?GetConnectionInterface@?$IConnectionPointImpl@VCOPOSLineDisplay@@$1?IID_IPropertyNotifySink@@3U_GUID@@BVCComDynamicUnkArray@ATL@@@ATL@@UEAAJPEAU_GUID@@@Z 0000000180002f48 f i LineDisplay.obj
 0001:00001f64       ?GetConnectionPointContainer@?$IConnectionPointImpl@VCOPOSLineDisplay@@$1?IID_IPropertyNotifySink@@3U_GUID@@BVCComDynamicUnkArray@ATL@@@ATL@@UEAAJPEAPEAUIConnectionPointContainer@@@Z 0000000180002f64 f i LineDisplay.obj
 0001:00001f84       ?Advise@?$IConnectionPointImpl@VCOPOSLineDisplay@@$1?DIID__IOPOSLineDisplayEvents@@3U_GUID@@BVCComDynamicUnkArray@ATL@@@ATL@@UEAAJPEAUIUnknown@@PEAK@Z 0000000180002f84 f i LineDisplay.obj
 0001:00001f84       ?Advise@?$IConnectionPointImpl@VCOPOSLineDisplay@@$1?IID_IPropertyNotifySink@@3U_GUID@@BVCComDynamicUnkArray@ATL@@@ATL@@UEAAJPEAUIUnknown@@PEAK@Z 0000000180002f84 f i LineDisplay.obj
 0001:00002040       ?Unadvise@?$IConnectionPointImpl@VCOPOSLineDisplay@@$1?IID_IPropertyNotifySink@@3U_GUID@@BVCComDynamicUnkArray@ATL@@@ATL@@UEAAJK@Z 0000000180003040 f i LineDisplay.obj
 0001:00002040       ?Unadvise@?$IConnectionPointImpl@VCOPOSLineDisplay@@$1?DIID__IOPOSLineDisplayEvents@@3U_GUID@@BVCComDynamicUnkArray@ATL@@@ATL@@UEAAJK@Z 0000000180003040 f i LineDisplay.obj
 0001:000020a8       ?EnumConnections@?$IConnectionPointImpl@VCOPOSLineDisplay@@$1?IID_IPropertyNotifySink@@3U_GUID@@BVCComDynamicUnkArray@ATL@@@ATL@@UEAAJPEAPEAUIEnumConnections@@@Z 00000001800030a8 f i LineDisplay.obj
 0001:000020a8       ?EnumConnections@?$IConnectionPointImpl@VCOPOSLineDisplay@@$1?DIID__IOPOSLineDisplayEvents@@3U_GUID@@BVCComDynamicUnkArray@ATL@@@ATL@@UEAAJPEAPEAUIEnumConnections@@@Z 00000001800030a8 f i LineDisplay.obj
 0001:00002254       ?GetConnectionInterface@?$IConnectionPointImpl@VCOPOSLineDisplay@@$1?DIID__IOPOSLineDisplayEvents@@3U_GUID@@BVCComDynamicUnkArray@ATL@@@ATL@@UEAAJPEAU_GUID@@@Z 0000000180003254 f i LineDisplay.obj
 0001:00002270       ?GetConnectionPointContainer@?$IConnectionPointImpl@VCOPOSLineDisplay@@$1?DIID__IOPOSLineDisplayEvents@@3U_GUID@@BVCComDynamicUnkArray@ATL@@@ATL@@UEAAJPEAPEAUIConnectionPointContainer@@@Z 0000000180003270 f i LineDisplay.obj
 0001:00002290       ?UpdateRegistry@COPOSLineDisplay@@SAJH@Z 0000000180003290 f i LineDisplay.obj
 0001:000022a8       ?ProcessWindowMessage@COPOSLineDisplay@@UEAAHPEAUHWND__@@I_K_JAEA_JK@Z 00000001800032a8 f i LineDisplay.obj
 0001:00002330       ?SODirectIO@COPOSLineDisplay@@MEAAJJPEAJPEAPEA_W@Z 0000000180003330 f i LineDisplay.obj
 0001:000023a8       ?SOStatusUpdate@COPOSLineDisplay@@MEAAJJ@Z 00000001800033a8 f i LineDisplay.obj
 0001:000023f8       ?Lock@CAtlModule@ATL@@UEAAJXZ 00000001800033f8 f i LineDisplay.obj
 0001:00002408       ?Unlock@CAtlModule@ATL@@UEAAJXZ 0000000180003408 f i LineDisplay.obj
 0001:00002414       ?GetLockCount@CAtlModule@ATL@@UEAAJXZ 0000000180003414 f i LineDisplay.obj
 0001:00002418       ?GetGITPtr@CAtlModule@ATL@@UEAAJPEAPEAUIGlobalInterfaceTable@@@Z 0000000180003418 f i LineDisplay.obj
 0001:00002488       ?AddCommonRGSReplacements@?$CAtlModuleT@VCComModule@ATL@@@ATL@@UEAAJPEAUIRegistrarBase@@@Z 0000000180003488 f i LineDisplay.obj
 0001:000024a0       ?UpdateRegistryFromResourceD@CComModule@ATL@@UEAAJIHPEAU_ATL_REGMAP_ENTRY@2@@Z 00000001800034a0 f i LineDisplay.obj
 0001:000024a0       ?UpdateRegistryFromResourceD@CComModule@ATL@@UEAAJPEB_WHPEAU_ATL_REGMAP_ENTRY@2@@Z 00000001800034a0 f i LineDisplay.obj
 0001:000024a8       ?UpdateRegistryFromResource@CComModule@ATL@@UEAAJPEB_WHPEAU_ATL_REGMAP_ENTRY@2@@Z 00000001800034a8 f i LineDisplay.obj
 0001:000024b0       ?UpdateRegistryFromResource@CComModule@ATL@@UEAAJIHPEAU_ATL_REGMAP_ENTRY@2@@Z 00000001800034b0 f i LineDisplay.obj
 0001:000024b8       ?CreateInstance@?$CComCreator@V?$CComObjectCached@VCComClassFactory@ATL@@@ATL@@@ATL@@SAJPEAXAEBU_GUID@@PEAPEAX@Z 00000001800034b8 f i LineDisplay.obj
 0001:000025dc       ?CreateInstance@?$CComCreator2@V?$CComCreator@V?$CComObject@VCOPOSLineDisplay@@@ATL@@@ATL@@V?$CComCreator@V?$CComAggObject@VCOPOSLineDisplay@@@ATL@@@2@@ATL@@SAJPEAXAEBU_GUID@@PEAPEAX@Z 00000001800035dc f i LineDisplay.obj
 0001:000025ec       ??_GCComModule@ATL@@UEAAPEAXI@Z 00000001800035ec f i LineDisplay.obj
 0001:000025ec       ??_ECComModule@ATL@@UEAAPEAXI@Z 00000001800035ec f i LineDisplay.obj
 0001:0000262c       ?AddRef@?$CComObjectCached@VCComClassFactory@ATL@@@ATL@@UEAAKXZ 000000018000362c f i LineDisplay.obj
 0001:00002658       ?Release@?$CComObjectCached@VCComClassFactory@ATL@@@ATL@@UEAAKXZ 0000000180003658 f i LineDisplay.obj
 0001:00002698       ?QueryInterface@?$CComObjectCached@VCComClassFactory@ATL@@@ATL@@UEAAJAEBU_GUID@@PEAPEAX@Z 0000000180003698 f i LineDisplay.obj
 0001:000026ac       ??_G?$CComObjectCached@VCComClassFactory@ATL@@@ATL@@UEAAPEAXI@Z 00000001800036ac f i LineDisplay.obj
 0001:000026ac       ??_E?$CComObjectCached@VCComClassFactory@ATL@@@ATL@@UEAAPEAXI@Z 00000001800036ac f i LineDisplay.obj
 0001:00002704       ?Next@?$CComEnumImpl@UIEnumConnectionPoints@@$1?_GUID_b196b285_bab4_101a_b69c_00aa00341d07@@3U__s_GUID@@BPEAUIConnectionPoint@@V?$_CopyInterface@UIConnectionPoint@@@ATL@@@ATL@@UEAAJKPEAPEAUIConnectionPoint@@PEAK@Z 0000000180003704 f i LineDisplay.obj
 0001:000027d0       ?Skip@?$CComEnumImpl@UIEnumConnectionPoints@@$1?_GUID_b196b285_bab4_101a_b69c_00aa00341d07@@3U__s_GUID@@BPEAUIConnectionPoint@@V?$_CopyInterface@UIConnectionPoint@@@ATL@@@ATL@@UEAAJK@Z 00000001800037d0 f i LineDisplay.obj
 0001:000027fc       ?Reset@?$CComEnumImpl@UIEnumConnections@@$1?_GUID_b196b287_bab4_101a_b69c_00aa00341d07@@3U__s_GUID@@BUtagCONNECTDATA@@V?$_Copy@UtagCONNECTDATA@@@ATL@@@ATL@@UEAAJXZ 00000001800037fc f i LineDisplay.obj
 0001:000027fc       ?Reset@?$CComEnumImpl@UIEnumConnectionPoints@@$1?_GUID_b196b285_bab4_101a_b69c_00aa00341d07@@3U__s_GUID@@BPEAUIConnectionPoint@@V?$_CopyInterface@UIConnectionPoint@@@ATL@@@ATL@@UEAAJXZ 00000001800037fc f i LineDisplay.obj
 0001:00002808       ?Clone@?$CComEnumImpl@UIEnumConnectionPoints@@$1?_GUID_b196b285_bab4_101a_b69c_00aa00341d07@@3U__s_GUID@@BPEAUIConnectionPoint@@V?$_CopyInterface@UIConnectionPoint@@@ATL@@@ATL@@UEAAJPEAPEAUIEnumConnectionPoints@@@Z 0000000180003808 f i LineDisplay.obj
 0001:00002934       ?AddRef@?$CComObject@V?$CComEnum@UIEnumConnectionPoints@@$1?_GUID_b196b285_bab4_101a_b69c_00aa00341d07@@3U__s_GUID@@BPEAUIConnectionPoint@@V?$_CopyInterface@UIConnectionPoint@@@ATL@@VCComSingleThreadModel@6@@ATL@@@ATL@@UEAAKXZ 0000000180003934 f i LineDisplay.obj
 0001:00002934       ?AddRef@?$CComObject@V?$CComEnum@UIEnumConnections@@$1?_GUID_b196b287_bab4_101a_b69c_00aa00341d07@@3U__s_GUID@@BUtagCONNECTDATA@@V?$_Copy@UtagCONNECTDATA@@@ATL@@VCComSingleThreadModel@6@@ATL@@@ATL@@UEAAKXZ 0000000180003934 f i LineDisplay.obj
 0001:00002940       ?Release@?$CComObject@V?$CComEnum@UIEnumConnections@@$1?_GUID_b196b287_bab4_101a_b69c_00aa00341d07@@3U__s_GUID@@BUtagCONNECTDATA@@V?$_Copy@UtagCONNECTDATA@@@ATL@@VCComSingleThreadModel@6@@ATL@@@ATL@@UEAAKXZ 0000000180003940 f i LineDisplay.obj
 0001:00002940       ?Release@?$CComObject@V?$CComEnum@UIEnumConnectionPoints@@$1?_GUID_b196b285_bab4_101a_b69c_00aa00341d07@@3U__s_GUID@@BPEAUIConnectionPoint@@V?$_CopyInterface@UIConnectionPoint@@@ATL@@VCComSingleThreadModel@6@@ATL@@@ATL@@UEAAKXZ 0000000180003940 f i LineDisplay.obj
 0001:00002994       ?QueryInterface@?$CComObject@V?$CComEnum@UIEnumConnectionPoints@@$1?_GUID_b196b285_bab4_101a_b69c_00aa00341d07@@3U__s_GUID@@BPEAUIConnectionPoint@@V?$_CopyInterface@UIConnectionPoint@@@ATL@@VCComSingleThreadModel@6@@ATL@@@ATL@@UEAAJAEBU_GUID@@PEAPEAX@Z 0000000180003994 f i LineDisplay.obj
 0001:000029a8       ??_E?$CComObject@V?$CComEnum@UIEnumConnectionPoints@@$1?_GUID_b196b285_bab4_101a_b69c_00aa00341d07@@3U__s_GUID@@BPEAUIConnectionPoint@@V?$_CopyInterface@UIConnectionPoint@@@ATL@@VCComSingleThreadModel@6@@ATL@@@ATL@@UEAAPEAXI@Z 00000001800039a8 f i LineDisplay.obj
 0001:000029a8       ??_G?$CComObject@V?$CComEnum@UIEnumConnectionPoints@@$1?_GUID_b196b285_bab4_101a_b69c_00aa00341d07@@3U__s_GUID@@BPEAUIConnectionPoint@@V?$_CopyInterface@UIConnectionPoint@@@ATL@@VCComSingleThreadModel@6@@ATL@@@ATL@@UEAAPEAXI@Z 00000001800039a8 f i LineDisplay.obj
 0001:00002a00       ?AddReplacement@CRegObject@ATL@@UEAAJPEB_W0@Z 0000000180003a00 f i LineDisplay.obj
 0001:00002a30       ?ClearReplacements@CRegObject@ATL@@UEAAJXZ 0000000180003a30 f i LineDisplay.obj
 0001:00002a3c       ??_ECRegObject@ATL@@UEAAPEAXI@Z 0000000180003a3c f i LineDisplay.obj
 0001:00002a3c       ??_GCRegObject@ATL@@UEAAPEAXI@Z 0000000180003a3c f i LineDisplay.obj
 0001:00002abc       ?AddRef@?$CComAggObject@VCOPOSLineDisplay@@@ATL@@UEAAKXZ 0000000180003abc f i LineDisplay.obj
 0001:00002ac8       ?Release@?$CComAggObject@VCOPOSLineDisplay@@@ATL@@UEAAKXZ 0000000180003ac8 f i LineDisplay.obj
 0001:00002b1c       ?QueryInterface@?$CComAggObject@VCOPOSLineDisplay@@@ATL@@UEAAJAEBU_GUID@@PEAPEAX@Z 0000000180003b1c f i LineDisplay.obj
 0001:00002b7c       ?AddRef@?$CComContainedObject@VCOPOSLineDisplay@@@ATL@@UEAAKXZ 0000000180003b7c f i LineDisplay.obj
 0001:00002b8c       ?Release@?$CComContainedObject@VCOPOSLineDisplay@@@ATL@@UEAAKXZ 0000000180003b8c f i LineDisplay.obj
 0001:00002b9c       ?QueryInterface@?$CComContainedObject@VCOPOSLineDisplay@@@ATL@@UEAAJAEBU_GUID@@PEAPEAX@Z 0000000180003b9c f i LineDisplay.obj
 0001:00002bac       ??_G?$CComAggObject@VCOPOSLineDisplay@@@ATL@@UEAAPEAXI@Z 0000000180003bac f i LineDisplay.obj
 0001:00002bac       ??_E?$CComAggObject@VCOPOSLineDisplay@@@ATL@@UEAAPEAXI@Z 0000000180003bac f i LineDisplay.obj
 0001:00002c04       ?AddRef@?$CComObject@VCOPOSLineDisplay@@@ATL@@UEAAKXZ 0000000180003c04 f i LineDisplay.obj
 0001:00002c14       ?Release@?$CComObject@VCOPOSLineDisplay@@@ATL@@UEAAKXZ 0000000180003c14 f i LineDisplay.obj
 0001:00002c6c       ?QueryInterface@?$CComObject@VCOPOSLineDisplay@@@ATL@@UEAAJAEBU_GUID@@PEAPEAX@Z 0000000180003c6c f i LineDisplay.obj
 0001:00002c80       ?OnDrawAdvanced@CComControlBase@ATL@@UEAAJAEAUATL_DRAWINFO@@@Z 0000000180003c80 f i LineDisplay.obj
 0001:00002e0c       ?Next@?$CComEnumImpl@UIEnumConnections@@$1?_GUID_b196b287_bab4_101a_b69c_00aa00341d07@@3U__s_GUID@@BUtagCONNECTDATA@@V?$_Copy@UtagCONNECTDATA@@@ATL@@@ATL@@UEAAJKPEAUtagCONNECTDATA@@PEAK@Z 0000000180003e0c f i LineDisplay.obj
 0001:00002ee0       ?Skip@?$CComEnumImpl@UIEnumConnections@@$1?_GUID_b196b287_bab4_101a_b69c_00aa00341d07@@3U__s_GUID@@BUtagCONNECTDATA@@V?$_Copy@UtagCONNECTDATA@@@ATL@@@ATL@@UEAAJK@Z 0000000180003ee0 f i LineDisplay.obj
 0001:00002f0c       ?Clone@?$CComEnumImpl@UIEnumConnections@@$1?_GUID_b196b287_bab4_101a_b69c_00aa00341d07@@3U__s_GUID@@BUtagCONNECTDATA@@V?$_Copy@UtagCONNECTDATA@@@ATL@@@ATL@@UEAAJPEAPEAUIEnumConnections@@@Z 0000000180003f0c f i LineDisplay.obj
 0001:00003038       ?QueryInterface@?$CComObject@V?$CComEnum@UIEnumConnections@@$1?_GUID_b196b287_bab4_101a_b69c_00aa00341d07@@3U__s_GUID@@BUtagCONNECTDATA@@V?$_Copy@UtagCONNECTDATA@@@ATL@@VCComSingleThreadModel@6@@ATL@@@ATL@@UEAAJAEBU_GUID@@PEAPEAX@Z 0000000180004038 f i LineDisplay.obj
 0001:0000304c       ??_G?$CComObject@V?$CComEnum@UIEnumConnections@@$1?_GUID_b196b287_bab4_101a_b69c_00aa00341d07@@3U__s_GUID@@BUtagCONNECTDATA@@V?$_Copy@UtagCONNECTDATA@@@ATL@@VCComSingleThreadModel@6@@ATL@@@ATL@@UEAAPEAXI@Z 000000018000404c f i LineDisplay.obj
 0001:0000304c       ??_E?$CComObject@V?$CComEnum@UIEnumConnections@@$1?_GUID_b196b287_bab4_101a_b69c_00aa00341d07@@3U__s_GUID@@BUtagCONNECTDATA@@V?$_Copy@UtagCONNECTDATA@@@ATL@@VCComSingleThreadModel@6@@ATL@@@ATL@@UEAAPEAXI@Z 000000018000404c f i LineDisplay.obj
 0001:000030a4       ??_E?$CComObject@VCOPOSLineDisplay@@@ATL@@W7EAAPEAXI@Z 00000001800040a4 f i LineDisplay.obj
 0001:000030b0       ??_E?$CComObject@VCOPOSLineDisplay@@@ATL@@WHA@EAAPEAXI@Z 00000001800040b0 f i LineDisplay.obj
 0001:000030bc       ?QueryInterface@?$CComObject@VCOPOSLineDisplay@@@ATL@@WLI@EAAJAEBU_GUID@@PEAPEAX@Z 00000001800040bc f i LineDisplay.obj
 0001:000030c8       ?AddRef@?$CComObject@VCOPOSLineDisplay@@@ATL@@WLI@EAAKXZ 00000001800040c8 f i LineDisplay.obj
 0001:000030d4       ?Release@?$CComObject@VCOPOSLineDisplay@@@ATL@@WLI@EAAKXZ 00000001800040d4 f i LineDisplay.obj
 0001:000030e0       ?QueryInterface@?$CComObject@VCOPOSLineDisplay@@@ATL@@WMA@EAAJAEBU_GUID@@PEAPEAX@Z 00000001800040e0 f i LineDisplay.obj
 0001:000030ec       ?AddRef@?$CComObject@VCOPOSLineDisplay@@@ATL@@WMA@EAAKXZ 00000001800040ec f i LineDisplay.obj
 0001:000030f8       ?Release@?$CComObject@VCOPOSLineDisplay@@@ATL@@WMA@EAAKXZ 00000001800040f8 f i LineDisplay.obj
 0001:00003104       ?QueryInterface@?$CComObject@VCOPOSLineDisplay@@@ATL@@WMI@EAAJAEBU_GUID@@PEAPEAX@Z 0000000180004104 f i LineDisplay.obj
 0001:00003110       ?AddRef@?$CComObject@VCOPOSLineDisplay@@@ATL@@WMI@EAAKXZ 0000000180004110 f i LineDisplay.obj
 0001:0000311c       ?Release@?$CComObject@VCOPOSLineDisplay@@@ATL@@WMI@EAAKXZ 000000018000411c f i LineDisplay.obj
 0001:00003128       ?QueryInterface@?$CComObject@VCOPOSLineDisplay@@@ATL@@WNA@EAAJAEBU_GUID@@PEAPEAX@Z 0000000180004128 f i LineDisplay.obj
 0001:00003134       ?AddRef@?$CComObject@VCOPOSLineDisplay@@@ATL@@WNA@EAAKXZ 0000000180004134 f i LineDisplay.obj
 0001:00003140       ?Release@?$CComObject@VCOPOSLineDisplay@@@ATL@@WNA@EAAKXZ 0000000180004140 f i LineDisplay.obj
 0001:0000314c       ?QueryInterface@?$CComObject@VCOPOSLineDisplay@@@ATL@@WNI@EAAJAEBU_GUID@@PEAPEAX@Z 000000018000414c f i LineDisplay.obj
 0001:00003158       ?AddRef@?$CComObject@VCOPOSLineDisplay@@@ATL@@WNI@EAAKXZ 0000000180004158 f i LineDisplay.obj
 0001:00003164       ?Release@?$CComObject@VCOPOSLineDisplay@@@ATL@@WNI@EAAKXZ 0000000180004164 f i LineDisplay.obj
 0001:00003170       ?QueryInterface@?$CComObject@VCOPOSLineDisplay@@@ATL@@WOA@EAAJAEBU_GUID@@PEAPEAX@Z 0000000180004170 f i LineDisplay.obj
 0001:0000317c       ?AddRef@?$CComObject@VCOPOSLineDisplay@@@ATL@@WOA@EAAKXZ 000000018000417c f i LineDisplay.obj
 0001:00003188       ?Release@?$CComObject@VCOPOSLineDisplay@@@ATL@@WOA@EAAKXZ 0000000180004188 f i LineDisplay.obj
 0001:00003194       ?QueryInterface@?$CComObject@VCOPOSLineDisplay@@@ATL@@WOI@EAAJAEBU_GUID@@PEAPEAX@Z 0000000180004194 f i LineDisplay.obj
 0001:000031a0       ?AddRef@?$CComObject@VCOPOSLineDisplay@@@ATL@@WOI@EAAKXZ 00000001800041a0 f i LineDisplay.obj
 0001:000031ac       ?Release@?$CComObject@VCOPOSLineDisplay@@@ATL@@WOI@EAAKXZ 00000001800041ac f i LineDisplay.obj
 0001:000031b8       ?QueryInterface@?$CComObject@VCOPOSLineDisplay@@@ATL@@WPA@EAAJAEBU_GUID@@PEAPEAX@Z 00000001800041b8 f i LineDisplay.obj
 0001:000031c4       ?AddRef@?$CComObject@VCOPOSLineDisplay@@@ATL@@WPA@EAAKXZ 00000001800041c4 f i LineDisplay.obj
 0001:000031d0       ?Release@?$CComObject@VCOPOSLineDisplay@@@ATL@@WPA@EAAKXZ 00000001800041d0 f i LineDisplay.obj
 0001:000031dc       ?QueryInterface@?$CComObject@VCOPOSLineDisplay@@@ATL@@WPI@EAAJAEBU_GUID@@PEAPEAX@Z 00000001800041dc f i LineDisplay.obj
 0001:000031e8       ?AddRef@?$CComObject@VCOPOSLineDisplay@@@ATL@@WPI@EAAKXZ 00000001800041e8 f i LineDisplay.obj
 0001:000031f4       ?Release@?$CComObject@VCOPOSLineDisplay@@@ATL@@WPI@EAAKXZ 00000001800041f4 f i LineDisplay.obj
 0001:00003200       ?QueryInterface@?$CComObject@VCOPOSLineDisplay@@@ATL@@WBAA@EAAJAEBU_GUID@@PEAPEAX@Z 0000000180004200 f i LineDisplay.obj
 0001:0000320c       ?AddRef@?$CComObject@VCOPOSLineDisplay@@@ATL@@WBAA@EAAKXZ 000000018000420c f i LineDisplay.obj
 0001:00003218       ?Release@?$CComObject@VCOPOSLineDisplay@@@ATL@@WBAA@EAAKXZ 0000000180004218 f i LineDisplay.obj
 0001:00003224       ?QueryInterface@?$CComObject@VCOPOSLineDisplay@@@ATL@@WBAI@EAAJAEBU_GUID@@PEAPEAX@Z 0000000180004224 f i LineDisplay.obj
 0001:00003230       ?AddRef@?$CComObject@VCOPOSLineDisplay@@@ATL@@WBAI@EAAKXZ 0000000180004230 f i LineDisplay.obj
 0001:0000323c       ?Release@?$CComObject@VCOPOSLineDisplay@@@ATL@@WBAI@EAAKXZ 000000018000423c f i LineDisplay.obj
 0001:00003248       ?QueryInterface@?$CComObject@VCOPOSLineDisplay@@@ATL@@WBBA@EAAJAEBU_GUID@@PEAPEAX@Z 0000000180004248 f i LineDisplay.obj
 0001:00003254       ?AddRef@?$CComObject@VCOPOSLineDisplay@@@ATL@@WBBA@EAAKXZ 0000000180004254 f i LineDisplay.obj
 0001:00003260       ?Release@?$CComObject@VCOPOSLineDisplay@@@ATL@@WBBA@EAAKXZ 0000000180004260 f i LineDisplay.obj
 0001:0000326c       ?QueryInterface@?$CComObject@VCOPOSLineDisplay@@@ATL@@WBBI@EAAJAEBU_GUID@@PEAPEAX@Z 000000018000426c f i LineDisplay.obj
 0001:00003278       ?AddRef@?$CComObject@VCOPOSLineDisplay@@@ATL@@WBBI@EAAKXZ 0000000180004278 f i LineDisplay.obj
 0001:00003284       ?Release@?$CComObject@VCOPOSLineDisplay@@@ATL@@WBBI@EAAKXZ 0000000180004284 f i LineDisplay.obj
 0001:00003290       ?AddRef@?$CComObject@VCOPOSLineDisplay@@@ATL@@WBCI@EAAKXZ 0000000180004290 f i LineDisplay.obj
 0001:0000329c       ?Release@?$CComObject@VCOPOSLineDisplay@@@ATL@@WBCI@EAAKXZ 000000018000429c f i LineDisplay.obj
 0001:000032a8       ?AddRef@?$CComObject@VCOPOSLineDisplay@@@ATL@@WBEA@EAAKXZ 00000001800042a8 f i LineDisplay.obj
 0001:000032b4       ?Release@?$CComObject@VCOPOSLineDisplay@@@ATL@@WBEA@EAAKXZ 00000001800042b4 f i LineDisplay.obj
 0001:000032c0       ??_E?$CComContainedObject@VCOPOSLineDisplay@@@ATL@@W7EAAPEAXI@Z 00000001800042c0 f i LineDisplay.obj
 0001:000032cc       ??_E?$CComContainedObject@VCOPOSLineDisplay@@@ATL@@WHA@EAAPEAXI@Z 00000001800042cc f i LineDisplay.obj
 0001:000032d8       ?QueryInterface@?$CComContainedObject@VCOPOSLineDisplay@@@ATL@@WLI@EAAJAEBU_GUID@@PEAPEAX@Z 00000001800042d8 f i LineDisplay.obj
 0001:000032e4       ?AddRef@?$CComContainedObject@VCOPOSLineDisplay@@@ATL@@WLI@EAAKXZ 00000001800042e4 f i LineDisplay.obj
 0001:000032f0       ?Release@?$CComContainedObject@VCOPOSLineDisplay@@@ATL@@WLI@EAAKXZ 00000001800042f0 f i LineDisplay.obj
 0001:000032fc       ?QueryInterface@?$CComContainedObject@VCOPOSLineDisplay@@@ATL@@WMA@EAAJAEBU_GUID@@PEAPEAX@Z 00000001800042fc f i LineDisplay.obj
 0001:00003308       ?AddRef@?$CComContainedObject@VCOPOSLineDisplay@@@ATL@@WMA@EAAKXZ 0000000180004308 f i LineDisplay.obj
 0001:00003314       ?Release@?$CComContainedObject@VCOPOSLineDisplay@@@ATL@@WMA@EAAKXZ 0000000180004314 f i LineDisplay.obj
 0001:00003320       ?QueryInterface@?$CComContainedObject@VCOPOSLineDisplay@@@ATL@@WMI@EAAJAEBU_GUID@@PEAPEAX@Z 0000000180004320 f i LineDisplay.obj
 0001:0000332c       ?AddRef@?$CComContainedObject@VCOPOSLineDisplay@@@ATL@@WMI@EAAKXZ 000000018000432c f i LineDisplay.obj
 0001:00003338       ?Release@?$CComContainedObject@VCOPOSLineDisplay@@@ATL@@WMI@EAAKXZ 0000000180004338 f i LineDisplay.obj
 0001:00003344       ?QueryInterface@?$CComContainedObject@VCOPOSLineDisplay@@@ATL@@WNA@EAAJAEBU_GUID@@PEAPEAX@Z 0000000180004344 f i LineDisplay.obj
 0001:00003350       ?AddRef@?$CComContainedObject@VCOPOSLineDisplay@@@ATL@@WNA@EAAKXZ 0000000180004350 f i LineDisplay.obj
 0001:0000335c       ?Release@?$CComContainedObject@VCOPOSLineDisplay@@@ATL@@WNA@EAAKXZ 000000018000435c f i LineDisplay.obj
 0001:00003368       ?QueryInterface@?$CComContainedObject@VCOPOSLineDisplay@@@ATL@@WNI@EAAJAEBU_GUID@@PEAPEAX@Z 0000000180004368 f i LineDisplay.obj
 0001:00003374       ?AddRef@?$CComContainedObject@VCOPOSLineDisplay@@@ATL@@WNI@EAAKXZ 0000000180004374 f i LineDisplay.obj
 0001:00003380       ?Release@?$CComContainedObject@VCOPOSLineDisplay@@@ATL@@WNI@EAAKXZ 0000000180004380 f i LineDisplay.obj
 0001:0000338c       ?QueryInterface@?$CComContainedObject@VCOPOSLineDisplay@@@ATL@@WOA@EAAJAEBU_GUID@@PEAPEAX@Z 000000018000438c f i LineDisplay.obj
 0001:00003398       ?AddRef@?$CComContainedObject@VCOPOSLineDisplay@@@ATL@@WOA@EAAKXZ 0000000180004398 f i LineDisplay.obj
 0001:000033a4       ?Release@?$CComContainedObject@VCOPOSLineDisplay@@@ATL@@WOA@EAAKXZ 00000001800043a4 f i LineDisplay.obj
 0001:000033b0       ?QueryInterface@?$CComContainedObject@VCOPOSLineDisplay@@@ATL@@WOI@EAAJAEBU_GUID@@PEAPEAX@Z 00000001800043b0 f i LineDisplay.obj
 0001:000033bc       ?AddRef@?$CComContainedObject@VCOPOSLineDisplay@@@ATL@@WOI@EAAKXZ 00000001800043bc f i LineDisplay.obj
 0001:000033c8       ?Release@?$CComContainedObject@VCOPOSLineDisplay@@@ATL@@WOI@EAAKXZ 00000001800043c8 f i LineDisplay.obj
 0001:000033d4       ?QueryInterface@?$CComContainedObject@VCOPOSLineDisplay@@@ATL@@WPA@EAAJAEBU_GUID@@PEAPEAX@Z 00000001800043d4 f i LineDisplay.obj
 0001:000033e0       ?AddRef@?$CComContainedObject@VCOPOSLineDisplay@@@ATL@@WPA@EAAKXZ 00000001800043e0 f i LineDisplay.obj
 0001:000033ec       ?Release@?$CComContainedObject@VCOPOSLineDisplay@@@ATL@@WPA@EAAKXZ 00000001800043ec f i LineDisplay.obj
 0001:000033f8       ?QueryInterface@?$CComContainedObject@VCOPOSLineDisplay@@@ATL@@WPI@EAAJAEBU_GUID@@PEAPEAX@Z 00000001800043f8 f i LineDisplay.obj
 0001:00003404       ?AddRef@?$CComContainedObject@VCOPOSLineDisplay@@@ATL@@WPI@EAAKXZ 0000000180004404 f i LineDisplay.obj
 0001:00003410       ?Release@?$CComContainedObject@VCOPOSLineDisplay@@@ATL@@WPI@EAAKXZ 0000000180004410 f i LineDisplay.obj
 0001:0000341c       ?QueryInterface@?$CComContainedObject@VCOPOSLineDisplay@@@ATL@@WBAA@EAAJAEBU_GUID@@PEAPEAX@Z 000000018000441c f i LineDisplay.obj
 0001:00003428       ?AddRef@?$CComContainedObject@VCOPOSLineDisplay@@@ATL@@WBAA@EAAKXZ 0000000180004428 f i LineDisplay.obj
 0001:00003434       ?Release@?$CComContainedObject@VCOPOSLineDisplay@@@ATL@@WBAA@EAAKXZ 0000000180004434 f i LineDisplay.obj
 0001:00003440       ?QueryInterface@?$CComContainedObject@VCOPOSLineDisplay@@@ATL@@WBAI@EAAJAEBU_GUID@@PEAPEAX@Z 0000000180004440 f i LineDisplay.obj
 0001:0000344c       ?AddRef@?$CComContainedObject@VCOPOSLineDisplay@@@ATL@@WBAI@EAAKXZ 000000018000444c f i LineDisplay.obj
 0001:00003458       ?Release@?$CComContainedObject@VCOPOSLineDisplay@@@ATL@@WBAI@EAAKXZ 0000000180004458 f i LineDisplay.obj
 0001:00003464       ?QueryInterface@?$CComContainedObject@VCOPOSLineDisplay@@@ATL@@WBBA@EAAJAEBU_GUID@@PEAPEAX@Z 0000000180004464 f i LineDisplay.obj
 0001:00003470       ?AddRef@?$CComContainedObject@VCOPOSLineDisplay@@@ATL@@WBBA@EAAKXZ 0000000180004470 f i LineDisplay.obj
 0001:0000347c       ?Release@?$CComContainedObject@VCOPOSLineDisplay@@@ATL@@WBBA@EAAKXZ 000000018000447c f i LineDisplay.obj
 0001:00003488       ?QueryInterface@?$CComContainedObject@VCOPOSLineDisplay@@@ATL@@WBBI@EAAJAEBU_GUID@@PEAPEAX@Z 0000000180004488 f i LineDisplay.obj
 0001:00003494       ?AddRef@?$CComContainedObject@VCOPOSLineDisplay@@@ATL@@WBBI@EAAKXZ 0000000180004494 f i LineDisplay.obj
 0001:000034a0       ?Release@?$CComContainedObject@VCOPOSLineDisplay@@@ATL@@WBBI@EAAKXZ 00000001800044a0 f i LineDisplay.obj
 0001:000034ac       ?AddRef@?$CComContainedObject@VCOPOSLineDisplay@@@ATL@@WBCI@EAAKXZ 00000001800044ac f i LineDisplay.obj
 0001:000034b8       ?Release@?$CComContainedObject@VCOPOSLineDisplay@@@ATL@@WBCI@EAAKXZ 00000001800044b8 f i LineDisplay.obj
 0001:000034c4       ?AddRef@?$CComContainedObject@VCOPOSLineDisplay@@@ATL@@WBEA@EAAKXZ 00000001800044c4 f i LineDisplay.obj
 0001:000034d0       ?Release@?$CComContainedObject@VCOPOSLineDisplay@@@ATL@@WBEA@EAAKXZ 00000001800044d0 f i LineDisplay.obj
 0001:000034dc       ?CreateInstance@CComClassFactory@ATL@@UEAAJPEAUIUnknown@@AEBU_GUID@@PEAPEAX@Z 00000001800044dc f i LineDisplay.obj
 0001:0000353c       ?LockServer@CComClassFactory@ATL@@UEAAJH@Z 000000018000453c f i LineDisplay.obj
 0001:00003560       ??_GCComClassFactory@ATL@@UEAAPEAXI@Z 0000000180004560 f i LineDisplay.obj
 0001:00003560       ??_ECComClassFactory@ATL@@UEAAPEAXI@Z 0000000180004560 f i LineDisplay.obj
 0001:000035b0       ??$AtlModuleRegisterWndClassInfoT@VAtlModuleRegisterWndClassInfoParamW@ATL@@@ATL@@YAGPEAU_ATL_BASE_MODULE70@0@PEAU_ATL_WIN_MODULE70@0@PEAU_ATL_WNDCLASSINFOW@0@PEAP6A_JPEAUHWND__@@I_K_J@ZVAtlModuleRegisterWndClassInfoParamW@0@@Z 00000001800045b0 f i LineDisplay.obj
 0001:000037b0       ??0?$CComContainedObject@VCOPOSLineDisplay@@@ATL@@QEAA@PEAX@Z 00000001800047b0 f i LineDisplay.obj
 0001:000038cc       ??0?$CComObject@VCOPOSLineDisplay@@@ATL@@QEAA@PEAX@Z 00000001800048cc f i LineDisplay.obj
 0001:000039e4       ??0CAtlModule@ATL@@QEAA@XZ 00000001800049e4 f i LineDisplay.obj
 0001:00003a58       ??1?$CComEnumImpl@UIEnumConnectionPoints@@$1?_GUID_b196b285_bab4_101a_b69c_00aa00341d07@@3U__s_GUID@@BPEAUIConnectionPoint@@V?$_CopyInterface@UIConnectionPoint@@@ATL@@@ATL@@UEAA@XZ 0000000180004a58 f i LineDisplay.obj
 0001:00003ab4       ??1?$CComEnumImpl@UIEnumConnections@@$1?_GUID_b196b287_bab4_101a_b69c_00aa00341d07@@3U__s_GUID@@BUtagCONNECTDATA@@V?$_Copy@UtagCONNECTDATA@@@ATL@@@ATL@@UEAA@XZ 0000000180004ab4 f i LineDisplay.obj
 0001:00003b10       ??1?$CComObject@VCOPOSLineDisplay@@@ATL@@UEAA@XZ 0000000180004b10 f i LineDisplay.obj
 0001:00003c30       ??_E?$CComContainedObject@VCOPOSLineDisplay@@@ATL@@UEAAPEAXI@Z 0000000180004c30 f i LineDisplay.obj
 0001:00003c30       ??_G?$CComContainedObject@VCOPOSLineDisplay@@@ATL@@UEAAPEAXI@Z 0000000180004c30 f i LineDisplay.obj
 0001:00003c64       ??_G?$CComObject@VCOPOSLineDisplay@@@ATL@@UEAAPEAXI@Z 0000000180004c64 f i LineDisplay.obj
 0001:00003c64       ??_E?$CComObject@VCOPOSLineDisplay@@@ATL@@UEAAPEAXI@Z 0000000180004c64 f i LineDisplay.obj
 0001:00003c98       ?Add@?$CSimpleArray@GV?$CSimpleArrayEqualHelper@G@ATL@@@ATL@@QEAAHAEBG@Z 0000000180004c98 f i LineDisplay.obj
 0001:00003d4c       ?Add@?$CSimpleMap@PEA_WPEA_WVCExpansionVectorEqualHelper@ATL@@@ATL@@QEAAHAEBQEA_W0@Z 0000000180004d4c f i LineDisplay.obj
 0001:00003dec       ?Add@CComDynamicUnkArray@ATL@@QEAAKPEAUIUnknown@@@Z 0000000180004dec f i LineDisplay.obj
 0001:00003ed8       ?Add@CExpansionVector@ATL@@QEAAHPEB_W0@Z 0000000180004ed8 f i LineDisplay.obj
 0001:0000400c       ?AddTermFunc@CAtlModule@ATL@@QEAAJP6AX_K@Z0@Z 000000018000500c f i LineDisplay.obj
 0001:000040a8       ?AddValue@CRegParser@ATL@@IEAAJAEAVCRegKey@2@PEB_WPEA_W@Z 00000001800050a8 f i LineDisplay.obj
 0001:000044f0       ?AllocateHeap@?$CTempBuffer@_W$0BAA@VCCRTAllocator@ATL@@@ATL@@AEAAX_K@Z 00000001800054f0 f i LineDisplay.obj
 0001:000044f0       ?AllocateHeap@?$CTempBuffer@_W$0EAA@VCCRTAllocator@ATL@@@ATL@@AEAAX_K@Z 00000001800054f0 f i LineDisplay.obj
 0001:000044f0       ?AllocateHeap@?$CTempBuffer@E$0BAA@VCCRTAllocator@ATL@@@ATL@@AEAAX_K@Z 00000001800054f0 f i LineDisplay.obj
 0001:0000451c       ?Append@CParseBuffer@CRegParser@ATL@@QEAAHPEB_WH@Z 000000018000551c f i LineDisplay.obj
 0001:00004664       ?AtlComModuleGetClassObject@ATL@@YAJPEAU_ATL_COM_MODULE70@1@AEBU_GUID@@1PEAPEAX@Z 0000000180005664 f i LineDisplay.obj
 0001:000047a4       ?AtlComModuleRegisterServer@ATL@@YAJPEAU_ATL_COM_MODULE70@1@HPEBU_GUID@@@Z 00000001800057a4 f i LineDisplay.obj
 0001:00004864       ?AtlComModuleUnregisterServer@ATL@@YAJPEAU_ATL_COM_MODULE70@1@HPEBU_GUID@@@Z 0000000180005864 f i LineDisplay.obj
 0001:00004920       ?AtlHiMetricToPixel@ATL@@YAXPEBUtagSIZE@@PEAU2@@Z 0000000180005920 f i LineDisplay.obj
 0001:000049d0       ?AtlHresultFromLastError@ATL@@YAJXZ 00000001800059d0 f i LineDisplay.obj
 0001:000049f0       ?AtlHresultFromWin32@ATL@@YAJK@Z 00000001800059f0 f i LineDisplay.obj
 0001:00004a00       ?AtlInternalOleLoadFromStream@ATL@@YAJPEAUIStream@@AEBU_GUID@@PEAPEAXTClassesAllowedInStream@1@K@Z 0000000180005a00 f i LineDisplay.obj
 0001:00004b44       ?AtlInternalQueryInterface@ATL@@YAJPEAXPEBU_ATL_INTMAP_ENTRY@1@AEBU_GUID@@PEAPEAX@Z 0000000180005b44 f i LineDisplay.obj
 0001:00004c4c       ?AtlLoadTypeLib@ATL@@YAJPEAUHINSTANCE__@@PEB_WPEAPEA_WPEAPEAUITypeLib@@@Z 0000000180005c4c f i LineDisplay.obj
 0001:00004ea8       ?AtlRegisterClassCategoriesHelper@ATL@@YAJAEBU_GUID@@PEBU_ATL_CATMAP_ENTRY@1@H@Z 0000000180005ea8 f i LineDisplay.obj
 0001:0000532c       ?AtlRegisterTypeLib@ATL@@YAJPEAUHINSTANCE__@@PEB_W@Z 000000018000632c f i LineDisplay.obj
 0001:00005528       ?AtlThrowImpl@ATL@@YAXJ@Z  0000000180006528 f i LineDisplay.obj
 0001:0000554c       ?AtlUnRegisterTypeLib@ATL@@YAJPEAUHINSTANCE__@@PEB_W@Z 000000018000654c f i LineDisplay.obj
 0001:00005614       ?AtlWinModuleExtractCreateWndData@ATL@@YAPEAXPEAU_ATL_WIN_MODULE70@1@@Z 0000000180006614 f i LineDisplay.obj
 0001:000056a0       ?Cleanup@CComTypeInfoHolder@ATL@@SAX_K@Z 00000001800066a0 f i LineDisplay.obj
 0001:000056e0       ?ClearReplacements@CExpansionVector@ATL@@QEAAJXZ 00000001800066e0 f i LineDisplay.obj
 0001:0000577c       ?CreateInstance@?$CComCreator@V?$CComAggObject@VCOPOSLineDisplay@@@ATL@@@ATL@@SAJPEAXAEBU_GUID@@PEAPEAX@Z 000000018000677c f i LineDisplay.obj
 0001:00005860       ?CreateInstance@?$CComCreator@V?$CComObject@VCOPOSLineDisplay@@@ATL@@@ATL@@SAJPEAXAEBU_GUID@@PEAPEAX@Z 0000000180006860 f i LineDisplay.obj
 0001:00005914       ?CreateInstance@?$CComObject@V?$CComEnum@UIEnumConnectionPoints@@$1?_GUID_b196b285_bab4_101a_b69c_00aa00341d07@@3U__s_GUID@@BPEAUIConnectionPoint@@V?$_CopyInterface@UIConnectionPoint@@@ATL@@VCComSingleThreadModel@6@@ATL@@@ATL@@SAJPEAPEAV12@@Z 0000000180006914 f i LineDisplay.obj
 0001:000059a4       ?CreateInstance@?$CComObject@V?$CComEnum@UIEnumConnections@@$1?_GUID_b196b287_bab4_101a_b69c_00aa00341d07@@3U__s_GUID@@BUtagCONNECTDATA@@V?$_Copy@UtagCONNECTDATA@@@ATL@@VCComSingleThreadModel@6@@ATL@@@ATL@@SAJPEAPEAV12@@Z 00000001800069a4 f i LineDisplay.obj
 0001:00005a34       ?DefaultReflectionHandler@?$CWindowImplRoot@VCWindow@ATL@@@ATL@@SAHPEAUHWND__@@I_K_JAEA_J@Z 0000000180006a34 f i LineDisplay.obj
 0001:00005a98       ?DeleteSubKey@CRegKey@ATL@@QEAAJPEB_W@Z 0000000180006a98 f i LineDisplay.obj
 0001:00005b30       ?DoEvent@COPOSLineDisplay@@IEAAXI_K_J@Z 0000000180006b30 f i LineDisplay.obj
 0001:00005be4       ?DoVerbPrimary@?$IOleObjectImpl@VCOPOSLineDisplay@@@ATL@@QEAAJPEBUtagRECT@@PEAUHWND__@@@Z 0000000180006be4 f i LineDisplay.obj
 0001:00005d10       ?DoVerbProperties@CComControlBase@ATL@@QEAAJPEBUtagRECT@@PEAUHWND__@@@Z 0000000180006d10 f i LineDisplay.obj
 0001:00005f38       ?FireTheEvent@?$CProxy_IOPOSEvents@VCOPOSLineDisplay@@@@IEAAXPEAVOposVariant@@IAEAJPEB_WJ@Z 0000000180006f38 f i LineDisplay.obj
 0001:00006024       ?FireViewChange@CComControlBase@ATL@@QEAAJXZ 0000000180007024 f i LineDisplay.obj
 0001:00006088       ?Fire_DirectIOEvent@?$CProxy_IOPOSEvents@VCOPOSLineDisplay@@@@QEAAXJPEAJPEAPEA_W@Z 0000000180007088 f i LineDisplay.obj
 0001:000061e8       ?Fire_StatusUpdateEvent@?$CProxy_IOPOSEvents@VCOPOSLineDisplay@@@@QEAAXJ@Z 00000001800071e8 f i LineDisplay.obj
 0001:000062d4       ?FreeHeap@?$CTempBuffer@_W$0EAA@VCCRTAllocator@ATL@@@ATL@@AEAAXXZ 00000001800072d4 f i LineDisplay.obj
 0001:000062d4       ?FreeHeap@?$CTempBuffer@_W$0BAA@VCCRTAllocator@ATL@@@ATL@@AEAAXXZ 00000001800072d4 f i LineDisplay.obj
 0001:000062d4       ?FreeHeap@?$CTempBuffer@E$0BAA@VCCRTAllocator@ATL@@@ATL@@AEAAXXZ 00000001800072d4 f i LineDisplay.obj
 0001:000062dc       ?GetAmbientLocaleID@CComControlBase@ATL@@QEAAJAEAK@Z 00000001800072dc f i LineDisplay.obj
 0001:0000639c       ?GetAmbientUserMode@CComControlBase@ATL@@QEAAJAEAH@Z 000000018000739c f i LineDisplay.obj
 0001:0000646c       ?GetClassObject@CComModule@ATL@@QEAAJAEBU_GUID@@0PEAPEAX@Z 000000018000746c f i LineDisplay.obj
 0001:00006560       ?GetConnMap@COPOSLineDisplay@@SAPEBU_ATL_CONNMAP_ENTRY@ATL@@PEAH@Z 0000000180007560 f i LineDisplay.obj
 0001:000065e8       ?GetIDsOfNames@CComTypeInfoHolder@ATL@@QEAAJAEBU_GUID@@PEAPEA_WIKPEAJ@Z 00000001800075e8 f i LineDisplay.obj
 0001:00006760       ?GetPagesHelper@?$ISpecifyPropertyPagesImpl@VCOPOSLineDisplay@@@ATL@@IEAAJPEAUtagCAUUID@@PEBUATL_PROPMAP_ENTRY@2@@Z 0000000180007760 f i LineDisplay.obj
 0001:00006900       ?GetSizeMax@CComVariant@ATL@@QEBAJPEAT_ULARGE_INTEGER@@@Z 0000000180007900 f i LineDisplay.obj
 0001:00006b30       ?GetTI@CComTypeInfoHolder@ATL@@QEAAJK@Z 0000000180007b30 f i LineDisplay.obj
 0001:00006e18       ?GetZoomInfo@CComControlBase@ATL@@QEAAXAEAUATL_DRAWINFO@@@Z 0000000180007e18 f i LineDisplay.obj
 0001:00006ebc       ?HKeyFromString@CRegParser@ATL@@KAPEAUHKEY__@@PEA_W@Z 0000000180007ebc f i LineDisplay.obj
 0001:00006f20       ?IDataObject_GetData@CComControlBase@ATL@@QEAAJPEAUtagFORMATETC@@PEAUtagSTGMEDIUM@@@Z 0000000180007f20 f i LineDisplay.obj
 0001:00007114       ?IOleInPlaceObject_InPlaceDeactivate@CComControlBase@ATL@@QEAAJXZ 0000000180008114 f i LineDisplay.obj
 0001:000071b4       ?IOleInPlaceObject_SetObjectRects@CComControlBase@ATL@@QEAAJPEBUtagRECT@@0@Z 00000001800081b4 f i LineDisplay.obj
 0001:000072a4       ?IOleInPlaceObject_UIDeactivate@CComControlBase@ATL@@QEAAJXZ 00000001800082a4 f i LineDisplay.obj
 0001:000073b0       ?IOleObject_Close@CComControlBase@ATL@@QEAAJK@Z 00000001800083b0 f i LineDisplay.obj
 0001:000074c8       ?IOleObject_SetClientSite@CComControlBase@ATL@@QEAAJPEAUIOleClientSite@@@Z 00000001800084c8 f i LineDisplay.obj
 0001:00007540       ?IOleObject_SetExtent@CComControlBase@ATL@@QEAAJKPEAUtagSIZE@@@Z 0000000180008540 f i LineDisplay.obj
 0001:000075d8       ?IPSI_GetIPersistStreamInit@?$IPersistStorageImpl@VCOPOSLineDisplay@@@ATL@@AEAAPEAUIPersistStreamInit@@XZ 00000001800085d8 f i LineDisplay.obj
 0001:000076c0       ?IPersistStreamInit_Load@?$IPersistStreamInitImpl@VCOPOSLineDisplay@@@ATL@@QEAAJPEAUIStream@@PEBUATL_PROPMAP_ENTRY@2@@Z 00000001800086c0 f i LineDisplay.obj
 0001:000079ec       ?IPersistStreamInit_Save@?$IPersistStreamInitImpl@VCOPOSLineDisplay@@@ATL@@QEAAJPEAUIStream@@HPEBUATL_PROPMAP_ENTRY@2@@Z 00000001800089ec f i LineDisplay.obj
 0001:00007c8c       ?IQuickActivate_QuickActivate@CComControlBase@ATL@@QEAAJPEAUtagQACONTAINER@@PEAUtagQACONTROL@@@Z 0000000180008c8c f i LineDisplay.obj
 0001:00007f50       ?IViewObject_Draw@CComControlBase@ATL@@QEAAJKJPEAXPEAUtagDVTARGETDEVICE@@PEAUHDC__@@2PEBU_RECTL@@3@Z 0000000180008f50 f i LineDisplay.obj
 0001:00008064       ?InPlaceActivate@CComControlBase@ATL@@QEAAJJPEBUtagRECT@@@Z 0000000180009064 f i LineDisplay.obj
 0001:00008398       ?Init@?$CComEnumImpl@UIEnumConnectionPoints@@$1?_GUID_b196b285_bab4_101a_b69c_00aa00341d07@@3U__s_GUID@@BPEAUIConnectionPoint@@V?$_CopyInterface@UIConnectionPoint@@@ATL@@@ATL@@QEAAJPEAPEAUIConnectionPoint@@0PEAUIUnknown@@W4CComEnumFlags@2@@Z 0000000180009398 f i LineDisplay.obj
 0001:000084b8       ?Init@?$CComEnumImpl@UIEnumConnections@@$1?_GUID_b196b287_bab4_101a_b69c_00aa00341d07@@3U__s_GUID@@BUtagCONNECTDATA@@V?$_Copy@UtagCONNECTDATA@@@ATL@@@ATL@@QEAAJPEAUtagCONNECTDATA@@0PEAUIUnknown@@W4CComEnumFlags@2@@Z 00000001800094b8 f i LineDisplay.obj
 0001:000085dc       ?IsEqualObject@?$CComPtrBase@UIOleClientSite@@@ATL@@QEAA_NPEAUIUnknown@@@Z 00000001800095dc f i LineDisplay.obj
 0001:00008668       ?LoadNameCache@CComTypeInfoHolder@ATL@@QEAAJPEAUITypeInfo@@@Z 0000000180009668 f i LineDisplay.obj
 0001:000087e8       ?Lookup@?$CSimpleMap@PEA_WPEA_WVCExpansionVectorEqualHelper@ATL@@@ATL@@QEBAPEA_WAEBQEA_W@Z 00000001800097e8 f i LineDisplay.obj
 0001:00008870       ?NextToken@CRegParser@ATL@@IEAAJPEA_W@Z 0000000180009870 f i LineDisplay.obj
 0001:00008a28       ?OnKillFocus@CComControlBase@ATL@@QEAA_JI_K_JAEAH@Z 0000000180009a28 f i LineDisplay.obj
 0001:00008ac4       ?OnMouseActivate@CComControlBase@ATL@@QEAA_JI_K_JAEAH@Z 0000000180009ac4 f i LineDisplay.obj
 0001:00008b64       ?OnPaint@CComControlBase@ATL@@QEAA_JI_K_JAEAH@Z 0000000180009b64 f i LineDisplay.obj
 0001:00008c50       ?OnSetFocus@CComControlBase@ATL@@QEAA_JI_K_JAEAH@Z 0000000180009c50 f i LineDisplay.obj
 0001:00008d4c       ?PreProcessBuffer@CRegParser@ATL@@QEAAJPEA_WPEAPEA_W@Z 0000000180009d4c f i LineDisplay.obj
 0001:000090d8       ?ProcessWindowMessage@?$CComControl@VCOPOSLineDisplay@@V?$CWindowImpl@VCOPOSLineDisplay@@VCWindow@ATL@@V?$CWinTraits@$0FGAAAAAA@$0A@@3@@ATL@@@ATL@@UEAAHPEAUHWND__@@I_K_JAEA_JK@Z 000000018000a0d8 f i LineDisplay.obj
 0001:000091bc       ?ReadFromStream@CComBSTR@ATL@@QEAAJPEAUIStream@@@Z 000000018000a1bc f i LineDisplay.obj
 0001:0000930c       ?ReadFromStream@CComVariant@ATL@@QEAAJPEAUIStream@@GTClassesAllowedInStream@2@K@Z 000000018000a30c f i LineDisplay.obj
 0001:00009530       ?RecurseDeleteKey@CRegKey@ATL@@QEAAJPEB_W@Z 000000018000a530 f i LineDisplay.obj
 0001:00009688       ?RegCreateKeyExW@CAtlTransactionManager@ATL@@QEAAJPEAUHKEY__@@PEB_WKPEA_WKKQEAU_SECURITY_ATTRIBUTES@@PEAPEAU3@PEAK@Z 000000018000a688 f i LineDisplay.obj
 0001:000097bc       ?RegDeleteKeyW@CAtlTransactionManager@ATL@@QEAAJPEAUHKEY__@@PEB_W@Z 000000018000a7bc f i LineDisplay.obj
 0001:00009848       ?RegOpenKeyExW@CAtlTransactionManager@ATL@@QEAAJPEAUHKEY__@@PEB_WKKPEAPEAU3@@Z 000000018000a848 f i LineDisplay.obj
 0001:00009900       ?RegisterBuffer@CRegParser@ATL@@QEAAJPEA_WH@Z 000000018000a900 f i LineDisplay.obj
 0001:00009a68       ?RegisterFromResource@CRegObject@ATL@@IEAAJPEB_W00H@Z 000000018000aa68 f i LineDisplay.obj
 0001:00009c24       ?RegisterServer@CComModule@ATL@@QEAAJHPEBU_GUID@@@Z 000000018000ac24 f i LineDisplay.obj
 0001:00009ce4       ?RegisterSubkeys@CRegParser@ATL@@IEAAJPEA_WPEAUHKEY__@@HH@Z 000000018000ace4 f i LineDisplay.obj
 0001:0000a550       ?SendOnDataChange@CComControlBase@ATL@@QEAAJK@Z 000000018000b550 f i LineDisplay.obj
 0001:0000a5c0       ?SetControlFocus@CComControlBase@ATL@@QEAAHH@Z 000000018000b5c0 f i LineDisplay.obj
 0001:0000a69c       ?SkipAssignment@CRegParser@ATL@@IEAAJPEA_W@Z 000000018000b69c f i LineDisplay.obj
 0001:0000a740       ?Term@CAtlModule@ATL@@QEAAXXZ 000000018000b740 f i LineDisplay.obj
 0001:0000a7c0       ?Term@CComModule@ATL@@QEAAXXZ 000000018000b7c0 f i LineDisplay.obj
 0001:0000a83c       ?UnregisterServer@CComModule@ATL@@QEAAJHPEBU_GUID@@@Z 000000018000b83c f i LineDisplay.obj
 0001:0000a8ec       ?UpdateRegistryFromResource@CAtlModule@ATL@@QEAAJIHPEAU_ATL_REGMAP_ENTRY@2@@Z 000000018000b8ec f i LineDisplay.obj
 0001:0000abf8       ?UpdateRegistryFromResource@CAtlModule@ATL@@QEAAJPEB_WHPEAU_ATL_REGMAP_ENTRY@2@@Z 000000018000bbf8 f i LineDisplay.obj
 0001:0000af1c       ?VTFromRegType@CRegParser@ATL@@KAHPEB_WAEAG@Z 000000018000bf1c f i LineDisplay.obj
 0001:0000afb8       ?WindowProc@?$CWindowImplBaseT@VCWindow@ATL@@V?$CWinTraits@$0FGAAAAAA@$0A@@2@@ATL@@SA_JPEAUHWND__@@I_K_J@Z 000000018000bfb8 f i LineDisplay.obj
 0001:0000b124       ?WriteToStream@CComVariant@ATL@@QEAAJPEAUIStream@@@Z 000000018000c124 f i LineDisplay.obj
 0001:0000b3a0       ?WriteToStream@CComVariant@ATL@@QEAAJPEAUIStream@@G@Z 000000018000c3a0 f i LineDisplay.obj
 0001:0000b438       ?_AtlVerifyStackAvailable@_ATL_SAFE_ALLOCA_IMPL@ATL@@YA_N_K@Z 000000018000c438 f i LineDisplay.obj
 0001:0000b4bc       ?atlCreate@?$CWindowImpl@VCOPOSLineDisplay@@VCWindow@ATL@@V?$CWinTraits@$0FGAAAAAA@$0A@@3@@ATL@@QEAAPEAUHWND__@@PEAU3@V_U_RECT@2@PEB_WKKV_U_MENUorID@2@PEAX@Z 000000018000c4bc f i LineDisplay.obj
 0001:0000b56c       ?atlCreate@?$CWindowImplBaseT@VCWindow@ATL@@V?$CWinTraits@$0FGAAAAAA@$0A@@2@@ATL@@QEAAPEAUHWND__@@PEAU3@V_U_RECT@2@PEB_WKKV_U_MENUorID@2@GPEAX@Z 000000018000c56c f i LineDisplay.obj
 0001:0000b6dc       ?ocscpy_s@@YA_NPEA_W_KPEB_W@Z 000000018000c6dc f i LineDisplay.obj
 0001:0000b78c       DllCanUnloadNow            000000018000c78c f   LineDisplay.obj
 0001:0000b798       DllGetClassObject          000000018000c798 f   LineDisplay.obj
 0001:0000b7b0       DllMain                    000000018000c7b0 f   LineDisplay.obj
 0001:0000b858       DllRegisterServer          000000018000c858 f   LineDisplay.obj
 0001:0000b86c       DllUnregisterServer        000000018000c86c f   LineDisplay.obj
 0001:0000b880       __local_stdio_printf_options 000000018000c880 f i LineDisplay.obj
 0001:0000b888       swprintf_s                 000000018000c888 f i LineDisplay.obj
 0001:0000b8dc       ??0COPOSLineDisplay@@QEAA@XZ 000000018000c8dc f   LineDisplayImpl.obj
 0001:0000b998       ??1?$IConnectionPointImpl@VCOPOSLineDisplay@@$1?IID_IPropertyNotifySink@@3U_GUID@@BVCComDynamicUnkArray@ATL@@@ATL@@QEAA@XZ 000000018000c998 f i LineDisplayImpl.obj
 0001:0000b998       ??1?$IConnectionPointImpl@VCOPOSLineDisplay@@$1?DIID__IOPOSLineDisplayEvents@@3U_GUID@@BVCComDynamicUnkArray@ATL@@@ATL@@QEAA@XZ 000000018000c998 f i LineDisplayImpl.obj
 0001:0000b9f4       ??1CComControlBase@ATL@@UEAA@XZ 000000018000c9f4 f i LineDisplayImpl.obj
 0001:0000ba70       ??1COPOSLineDisplay@@UEAA@XZ 000000018000ca70 f   LineDisplayImpl.obj
 0001:0000bad4       ?CheckHealth@COPOSLineDisplay@@UEAAJJPEAJ@Z 000000018000cad4 f   LineDisplayImpl.obj
 0001:0000bb50       ?ClaimDevice@COPOSLineDisplay@@UEAAJJPEAJ@Z 000000018000cb50 f   LineDisplayImpl.obj
 0001:0000bbf0       ?ClearDescriptors@COPOSLineDisplay@@UEAAJPEAJ@Z 000000018000cbf0 f   LineDisplayImpl.obj
 0001:0000bc18       ?ClearText@COPOSLineDisplay@@UEAAJPEAJ@Z 000000018000cc18 f   LineDisplayImpl.obj
 0001:0000bc40       ?Close@COPOSLineDisplay@@UEAAJPEAJ@Z 000000018000cc40 f   LineDisplayImpl.obj
 0001:0000bcf8       ?CompareFirmwareVersion@COPOSLineDisplay@@UEAAJPEA_WPEAJ1@Z 000000018000ccf8 f   LineDisplayImpl.obj
 0001:0000bdd4       ?CreateWindow@COPOSLineDisplay@@UEAAJJJJJJJPEAJ@Z 000000018000cdd4 f   LineDisplayImpl.obj
 0001:0000bef8       ?DefineGlyph@COPOSLineDisplay@@UEAAJJPEA_WPEAJ@Z 000000018000cef8 f   LineDisplayImpl.obj
 0001:0000bfd0       ?DestroyWindow@COPOSLineDisplay@@UEAAJPEAJ@Z 000000018000cfd0 f   LineDisplayImpl.obj
 0001:0000bff8       ?DirectIO@COPOSLineDisplay@@UEAAJJPEAJPEAPEA_W0@Z 000000018000cff8 f   LineDisplayImpl.obj
 0001:0000c0f4       ?DisplayBitmap@COPOSLineDisplay@@UEAAJPEA_WJJJPEAJ@Z 000000018000d0f4 f   LineDisplayImpl.obj
 0001:0000c1fc       ?DisplayText@COPOSLineDisplay@@UEAAJPEA_WJPEAJ@Z 000000018000d1fc f   LineDisplayImpl.obj
 0001:0000c2d4       ?DisplayTextAt@COPOSLineDisplay@@UEAAJJJPEA_WJPEAJ@Z 000000018000d2d4 f   LineDisplayImpl.obj
 0001:0000c3e0       ?DoInvoke@COPOSLineDisplay@@IEAAJJPEAVOposVariant@@IHPEAJ_N@Z 000000018000d3e0 f   LineDisplayImpl.obj
 0001:0000c514       ?EventInit@COPOSLineDisplay@@IEAAJXZ 000000018000d514 f i LineDisplayImpl.obj
 0001:0000c65c       ?EventUninit@COPOSLineDisplay@@IEAAXXZ 000000018000d65c f i LineDisplayImpl.obj
 0001:0000c6c0       ?EventWindowProc@COPOSLineDisplay@@IEAA_JI_K_J@Z 000000018000d6c0 f i LineDisplayImpl.obj
 0001:0000c784       ?FinalConstruct@COPOSLineDisplay@@QEAAJXZ 000000018000d784 f   LineDisplayImpl.obj
 0001:0000c7c0       ?FreezeEvents@COPOSLineDisplay@@MEAAJH@Z 000000018000d7c0 f   LineDisplayImpl.obj
 0001:0000c834       ?GetOposProp@COPOSLineDisplay@@IEAAJJPEAJJ@Z 000000018000d834 f   LineDisplayImpl.obj
 0001:0000c950       ?GetOposProp@COPOSLineDisplay@@IEAAJJPEAPEA_WJ@Z 000000018000d950 f   LineDisplayImpl.obj
 0001:0000ca7c       ?OnDraw@COPOSLineDisplay@@MEAAJAEAUATL_DRAWINFO@@@Z 000000018000da7c f   LineDisplayImpl.obj
 0001:0000cb68       ?Open@COPOSLineDisplay@@UEAAJPEA_WPEAJ@Z 000000018000db68 f   LineDisplayImpl.obj
 0001:0000d3f0       ?ReadCharacterAtCursor@COPOSLineDisplay@@UEAAJPEAJ0@Z 000000018000e3f0 f   LineDisplayImpl.obj
 0001:0000d478       ?RefreshWindow@COPOSLineDisplay@@UEAAJJPEAJ@Z 000000018000e478 f   LineDisplayImpl.obj
 0001:0000d4f4       ?ReleaseDevice@COPOSLineDisplay@@UEAAJPEAJ@Z 000000018000e4f4 f   LineDisplayImpl.obj
 0001:0000d560       ?ResetStatistics@COPOSLineDisplay@@UEAAJPEA_WPEAJ@Z 000000018000e560 f   LineDisplayImpl.obj
 0001:0000d5e8       ?RetrieveStatistics@COPOSLineDisplay@@UEAAJPEAPEA_WPEAJ@Z 000000018000e5e8 f   LineDisplayImpl.obj
 0001:0000d670       ?SOProcessID@COPOSLineDisplay@@UEAAJPEAJ@Z 000000018000e670 f   LineDisplayImpl.obj
 0001:0000d68c       ?ScrollText@COPOSLineDisplay@@UEAAJJJPEAJ@Z 000000018000e68c f   LineDisplayImpl.obj
 0001:0000d758       ?SetBitmap@COPOSLineDisplay@@UEAAJJPEA_WJJJPEAJ@Z 000000018000e758 f   LineDisplayImpl.obj
 0001:0000d85c       ?SetCOFreezeEvents@COPOSLineDisplay@@IEAAXF@Z 000000018000e85c f   LineDisplayImpl.obj
 0001:0000d940       ?SetDescriptor@COPOSLineDisplay@@UEAAJJJPEAJ@Z 000000018000e940 f   LineDisplayImpl.obj
 0001:0000da0c       ?SetOposProp@COPOSLineDisplay@@IEAAJJJJ@Z 000000018000ea0c f   LineDisplayImpl.obj
 0001:0000db6c       ?UpdateFirmware@COPOSLineDisplay@@UEAAJPEA_WPEAJ@Z 000000018000eb6c f   LineDisplayImpl.obj
 0001:0000dbf4       ?UpdateStatistics@COPOSLineDisplay@@UEAAJPEA_WPEAJ@Z 000000018000ebf4 f   LineDisplayImpl.obj
 0001:0000dc7c       ?get_BinaryConversion@COPOSLineDisplay@@UEAAJPEAJ@Z 000000018000ec7c f   LineDisplayImpl.obj
 0001:0000dc90       ?get_BlinkRate@COPOSLineDisplay@@UEAAJPEAJ@Z 000000018000ec90 f   LineDisplayImpl.obj
 0001:0000dca4       ?get_CapBitmap@COPOSLineDisplay@@UEAAJPEAF@Z 000000018000eca4 f   LineDisplayImpl.obj
 0001:0000dcd8       ?get_CapBlink@COPOSLineDisplay@@UEAAJPEAJ@Z 000000018000ecd8 f   LineDisplayImpl.obj
 0001:0000dce8       ?get_CapBlinkRate@COPOSLineDisplay@@UEAAJPEAF@Z 000000018000ece8 f   LineDisplayImpl.obj
 0001:0000dd1c       ?get_CapBrightness@COPOSLineDisplay@@UEAAJPEAF@Z 000000018000ed1c f   LineDisplayImpl.obj
 0001:0000dd4c       ?get_CapCharacterSet@COPOSLineDisplay@@UEAAJPEAJ@Z 000000018000ed4c f   LineDisplayImpl.obj
 0001:0000dd5c       ?get_CapCompareFirmwareVersion@COPOSLineDisplay@@UEAAJPEAF@Z 000000018000ed5c f   LineDisplayImpl.obj
 0001:0000dd90       ?get_CapCursorType@COPOSLineDisplay@@UEAAJPEAJ@Z 000000018000ed90 f   LineDisplayImpl.obj
 0001:0000dda4       ?get_CapCustomGlyph@COPOSLineDisplay@@UEAAJPEAF@Z 000000018000eda4 f   LineDisplayImpl.obj
 0001:0000ddd8       ?get_CapDescriptors@COPOSLineDisplay@@UEAAJPEAF@Z 000000018000edd8 f   LineDisplayImpl.obj
 0001:0000de08       ?get_CapHMarquee@COPOSLineDisplay@@UEAAJPEAF@Z 000000018000ee08 f   LineDisplayImpl.obj
 0001:0000de38       ?get_CapICharWait@COPOSLineDisplay@@UEAAJPEAF@Z 000000018000ee38 f   LineDisplayImpl.obj
 0001:0000de68       ?get_CapMapCharacterSet@COPOSLineDisplay@@UEAAJPEAF@Z 000000018000ee68 f   LineDisplayImpl.obj
 0001:0000de9c       ?get_CapPowerReporting@COPOSLineDisplay@@UEAAJPEAJ@Z 000000018000ee9c f   LineDisplayImpl.obj
 0001:0000deb0       ?get_CapReadBack@COPOSLineDisplay@@UEAAJPEAJ@Z 000000018000eeb0 f   LineDisplayImpl.obj
 0001:0000dec4       ?get_CapReverse@COPOSLineDisplay@@UEAAJPEAJ@Z 000000018000eec4 f   LineDisplayImpl.obj
 0001:0000ded8       ?get_CapScreenMode@COPOSLineDisplay@@UEAAJPEAF@Z 000000018000eed8 f   LineDisplayImpl.obj
 0001:0000df0c       ?get_CapStatisticsReporting@COPOSLineDisplay@@UEAAJPEAF@Z 000000018000ef0c f   LineDisplayImpl.obj
 0001:0000df40       ?get_CapUpdateFirmware@COPOSLineDisplay@@UEAAJPEAF@Z 000000018000ef40 f   LineDisplayImpl.obj
 0001:0000df74       ?get_CapUpdateStatistics@COPOSLineDisplay@@UEAAJPEAF@Z 000000018000ef74 f   LineDisplayImpl.obj
 0001:0000dfa8       ?get_CapVMarquee@COPOSLineDisplay@@UEAAJPEAF@Z 000000018000efa8 f   LineDisplayImpl.obj
 0001:0000dfd8       ?get_CharacterSet@COPOSLineDisplay@@UEAAJPEAJ@Z 000000018000efd8 f   LineDisplayImpl.obj
 0001:0000dfe8       ?get_CharacterSetList@COPOSLineDisplay@@UEAAJPEAPEA_W@Z 000000018000efe8 f   LineDisplayImpl.obj
 0001:0000dff8       ?get_CheckHealthText@COPOSLineDisplay@@UEAAJPEAPEA_W@Z 000000018000eff8 f   LineDisplayImpl.obj
 0001:0000e008       ?get_Claimed@COPOSLineDisplay@@UEAAJPEAF@Z 000000018000f008 f   LineDisplayImpl.obj
 0001:0000e038       ?get_Columns@COPOSLineDisplay@@UEAAJPEAJ@Z 000000018000f038 f   LineDisplayImpl.obj
 0001:0000e048       ?get_ControlObjectDescription@COPOSLineDisplay@@UEAAJPEAPEA_W@Z 000000018000f048 f   LineDisplayImpl.obj
 0001:0000e0ac       ?get_ControlObjectVersion@COPOSLineDisplay@@UEAAJPEAJ@Z 000000018000f0ac f   LineDisplayImpl.obj
 0001:0000e0b8       ?get_CurrentWindow@COPOSLineDisplay@@UEAAJPEAJ@Z 000000018000f0b8 f   LineDisplayImpl.obj
 0001:0000e0c8       ?get_CursorColumn@COPOSLineDisplay@@UEAAJPEAJ@Z 000000018000f0c8 f   LineDisplayImpl.obj
 0001:0000e0d8       ?get_CursorRow@COPOSLineDisplay@@UEAAJPEAJ@Z 000000018000f0d8 f   LineDisplayImpl.obj
 0001:0000e0e8       ?get_CursorType@COPOSLineDisplay@@UEAAJPEAJ@Z 000000018000f0e8 f   LineDisplayImpl.obj
 0001:0000e0fc       ?get_CursorUpdate@COPOSLineDisplay@@UEAAJPEAF@Z 000000018000f0fc f   LineDisplayImpl.obj
 0001:0000e12c       ?get_CustomGlyphList@COPOSLineDisplay@@UEAAJPEAPEA_W@Z 000000018000f12c f   LineDisplayImpl.obj
 0001:0000e140       ?get_DeviceBrightness@COPOSLineDisplay@@UEAAJPEAJ@Z 000000018000f140 f   LineDisplayImpl.obj
 0001:0000e150       ?get_DeviceColumns@COPOSLineDisplay@@UEAAJPEAJ@Z 000000018000f150 f   LineDisplayImpl.obj
 0001:0000e160       ?get_DeviceDescription@COPOSLineDisplay@@UEAAJPEAPEA_W@Z 000000018000f160 f   LineDisplayImpl.obj
 0001:0000e170       ?get_DeviceDescriptors@COPOSLineDisplay@@UEAAJPEAJ@Z 000000018000f170 f   LineDisplayImpl.obj
 0001:0000e180       ?get_DeviceEnabled@COPOSLineDisplay@@UEAAJPEAF@Z 000000018000f180 f   LineDisplayImpl.obj
 0001:0000e1b0       ?get_DeviceName@COPOSLineDisplay@@UEAAJPEAPEA_W@Z 000000018000f1b0 f   LineDisplayImpl.obj
 0001:0000e1c0       ?get_DeviceRows@COPOSLineDisplay@@UEAAJPEAJ@Z 000000018000f1c0 f   LineDisplayImpl.obj
 0001:0000e1d0       ?get_DeviceWindows@COPOSLineDisplay@@UEAAJPEAJ@Z 000000018000f1d0 f   LineDisplayImpl.obj
 0001:0000e1e0       ?get_FreezeEvents@COPOSLineDisplay@@UEAAJPEAF@Z 000000018000f1e0 f   LineDisplayImpl.obj
 0001:0000e210       ?get_GlyphHeight@COPOSLineDisplay@@UEAAJPEAJ@Z 000000018000f210 f   LineDisplayImpl.obj
 0001:0000e224       ?get_GlyphWidth@COPOSLineDisplay@@UEAAJPEAJ@Z 000000018000f224 f   LineDisplayImpl.obj
 0001:0000e238       ?get_InterCharacterWait@COPOSLineDisplay@@UEAAJPEAJ@Z 000000018000f238 f   LineDisplayImpl.obj
 0001:0000e248       ?get_MapCharacterSet@COPOSLineDisplay@@UEAAJPEAF@Z 000000018000f248 f   LineDisplayImpl.obj
 0001:0000e27c       ?get_MarqueeFormat@COPOSLineDisplay@@UEAAJPEAJ@Z 000000018000f27c f   LineDisplayImpl.obj
 0001:0000e28c       ?get_MarqueeRepeatWait@COPOSLineDisplay@@UEAAJPEAJ@Z 000000018000f28c f   LineDisplayImpl.obj
 0001:0000e29c       ?get_MarqueeType@COPOSLineDisplay@@UEAAJPEAJ@Z 000000018000f29c f   LineDisplayImpl.obj
 0001:0000e2ac       ?get_MarqueeUnitWait@COPOSLineDisplay@@UEAAJPEAJ@Z 000000018000f2ac f   LineDisplayImpl.obj
 0001:0000e2bc       ?get_MaximumX@COPOSLineDisplay@@UEAAJPEAJ@Z 000000018000f2bc f   LineDisplayImpl.obj
 0001:0000e2d0       ?get_MaximumY@COPOSLineDisplay@@UEAAJPEAJ@Z 000000018000f2d0 f   LineDisplayImpl.obj
 0001:0000e2e4       ?get_OpenResult@COPOSLineDisplay@@UEAAJPEAJ@Z 000000018000f2e4 f   LineDisplayImpl.obj
 0001:0000e2f0       ?get_PowerNotify@COPOSLineDisplay@@UEAAJPEAJ@Z 000000018000f2f0 f   LineDisplayImpl.obj
 0001:0000e304       ?get_PowerState@COPOSLineDisplay@@UEAAJPEAJ@Z 000000018000f304 f   LineDisplayImpl.obj
 0001:0000e318       ?get_ResultCode@COPOSLineDisplay@@UEAAJPEAJ@Z 000000018000f318 f   LineDisplayImpl.obj
 0001:0000e354       ?get_ResultCodeExtended@COPOSLineDisplay@@UEAAJPEAJ@Z 000000018000f354 f   LineDisplayImpl.obj
 0001:0000e364       ?get_Rows@COPOSLineDisplay@@UEAAJPEAJ@Z 000000018000f364 f   LineDisplayImpl.obj
 0001:0000e374       ?get_ScreenMode@COPOSLineDisplay@@UEAAJPEAJ@Z 000000018000f374 f   LineDisplayImpl.obj
 0001:0000e388       ?get_ScreenModeList@COPOSLineDisplay@@UEAAJPEAPEA_W@Z 000000018000f388 f   LineDisplayImpl.obj
 0001:0000e39c       ?get_ServiceObjectDescription@COPOSLineDisplay@@UEAAJPEAPEA_W@Z 000000018000f39c f   LineDisplayImpl.obj
 0001:0000e3ac       ?get_ServiceObjectVersion@COPOSLineDisplay@@UEAAJPEAJ@Z 000000018000f3ac f   LineDisplayImpl.obj
 0001:0000e3bc       ?get_State@COPOSLineDisplay@@UEAAJPEAJ@Z 000000018000f3bc f   LineDisplayImpl.obj
 0001:0000e3e8       ?put_BinaryConversion@COPOSLineDisplay@@UEAAJJ@Z 000000018000f3e8 f   LineDisplayImpl.obj
 0001:0000e3fc       ?put_BlinkRate@COPOSLineDisplay@@UEAAJJ@Z 000000018000f3fc f   LineDisplayImpl.obj
 0001:0000e410       ?put_CharacterSet@COPOSLineDisplay@@UEAAJJ@Z 000000018000f410 f   LineDisplayImpl.obj
 0001:0000e420       ?put_CurrentWindow@COPOSLineDisplay@@UEAAJJ@Z 000000018000f420 f   LineDisplayImpl.obj
 0001:0000e430       ?put_CursorColumn@COPOSLineDisplay@@UEAAJJ@Z 000000018000f430 f   LineDisplayImpl.obj
 0001:0000e440       ?put_CursorRow@COPOSLineDisplay@@UEAAJJ@Z 000000018000f440 f   LineDisplayImpl.obj
 0001:0000e450       ?put_CursorType@COPOSLineDisplay@@UEAAJJ@Z 000000018000f450 f   LineDisplayImpl.obj
 0001:0000e464       ?put_CursorUpdate@COPOSLineDisplay@@UEAAJF@Z 000000018000f464 f   LineDisplayImpl.obj
 0001:0000e47c       ?put_DeviceBrightness@COPOSLineDisplay@@UEAAJJ@Z 000000018000f47c f   LineDisplayImpl.obj
 0001:0000e48c       ?put_DeviceEnabled@COPOSLineDisplay@@UEAAJF@Z 000000018000f48c f   LineDisplayImpl.obj
 0001:0000e4a4       ?put_FreezeEvents@COPOSLineDisplay@@UEAAJF@Z 000000018000f4a4 f   LineDisplayImpl.obj
 0001:0000e4f4       ?put_InterCharacterWait@COPOSLineDisplay@@UEAAJJ@Z 000000018000f4f4 f   LineDisplayImpl.obj
 0001:0000e504       ?put_MapCharacterSet@COPOSLineDisplay@@UEAAJF@Z 000000018000f504 f   LineDisplayImpl.obj
 0001:0000e520       ?put_MarqueeFormat@COPOSLineDisplay@@UEAAJJ@Z 000000018000f520 f   LineDisplayImpl.obj
 0001:0000e530       ?put_MarqueeRepeatWait@COPOSLineDisplay@@UEAAJJ@Z 000000018000f530 f   LineDisplayImpl.obj
 0001:0000e540       ?put_MarqueeType@COPOSLineDisplay@@UEAAJJ@Z 000000018000f540 f   LineDisplayImpl.obj
 0001:0000e550       ?put_MarqueeUnitWait@COPOSLineDisplay@@UEAAJJ@Z 000000018000f550 f   LineDisplayImpl.obj
 0001:0000e560       ?put_PowerNotify@COPOSLineDisplay@@UEAAJJ@Z 000000018000f560 f   LineDisplayImpl.obj
 0001:0000e574       ?put_ScreenMode@COPOSLineDisplay@@UEAAJJ@Z 000000018000f574 f   LineDisplayImpl.obj
 0001:0000e588       ?s_EventWindowProc@COPOSLineDisplay@@KA_JPEAUHWND__@@I_K_J@Z 000000018000f588 f i LineDisplayImpl.obj
 0001:0000e604       ??_U@YAPEAX_K@Z            000000018000f604 f   LIBCMT:new_array.obj
 0001:0000e60c       ??3@YAXPEAX_K@Z            000000018000f60c f   LIBCMT:delete_scalar_size.obj
 0001:0000e60c       ??_V@YAXPEAX@Z             000000018000f60c f   LIBCMT:delete_array.obj
 0001:0000e614       ??_V@YAXPEAX_K@Z           000000018000f614 f   LIBCMT:delete_array_size.obj
 0001:0000e61c       __scrt_acquire_startup_lock 000000018000f61c f   LIBCMT:utility.obj
 0001:0000e658       __scrt_dllmain_after_initialize_c 000000018000f658 f   LIBCMT:utility.obj
 0001:0000e68c       __scrt_dllmain_before_initialize_c 000000018000f68c f   LIBCMT:utility.obj
 0001:0000e6a4       __scrt_dllmain_crt_thread_attach 000000018000f6a4 f   LIBCMT:utility.obj
 0001:0000e6cc       __scrt_dllmain_crt_thread_detach 000000018000f6cc f   LIBCMT:utility.obj
 0001:0000e6e4       __scrt_dllmain_exception_filter 000000018000f6e4 f   LIBCMT:utility.obj
 0001:0000e744       __scrt_dllmain_uninitialize_c 000000018000f744 f   LIBCMT:utility.obj
 0001:0000e774       __scrt_dllmain_uninitialize_critical 000000018000f774 f   LIBCMT:utility.obj
 0001:0000e788       __scrt_initialize_crt      000000018000f788 f   LIBCMT:utility.obj
 0001:0000e7d4       __scrt_initialize_onexit_tables 000000018000f7d4 f   LIBCMT:utility.obj
 0001:0000e860       __scrt_is_nonwritable_in_current_image 000000018000f860 f   LIBCMT:utility.obj
 0001:0000e8f8       __scrt_release_startup_lock 000000018000f8f8 f   LIBCMT:utility.obj
 0001:0000e91c       __scrt_uninitialize_crt    000000018000f91c f   LIBCMT:utility.obj
 0001:0000e948       _onexit                    000000018000f948 f   LIBCMT:utility.obj
 0001:0000e984       atexit                     000000018000f984 f   LIBCMT:utility.obj
 0001:0000e99c       ??3@YAXPEAX@Z              000000018000f99c f   LIBCMT:delete_scalar.obj
 0001:0000ea9c       _Init_thread_footer        000000018000fa9c f   LIBCMT:thread_safe_statics.obj
 0001:0000eafc       _Init_thread_header        000000018000fafc f   LIBCMT:thread_safe_statics.obj
 0001:0000eb64       _Init_thread_notify        000000018000fb64 f   LIBCMT:thread_safe_statics.obj
 0001:0000eba8       _Init_thread_wait          000000018000fba8 f   LIBCMT:thread_safe_statics.obj
 0001:0000ec0c       __raise_securityfailure    000000018000fc0c f   LIBCMT:gs_report.obj
 0001:0000ec40       __report_gsfailure         000000018000fc40 f   LIBCMT:gs_report.obj
 0001:0000ed14       __report_rangecheckfailure 000000018000fd14 f   LIBCMT:gs_report.obj
 0001:0000ed28       __report_securityfailure   000000018000fd28 f   LIBCMT:gs_report.obj
 0001:0000eea8       ??2@YAPEAX_KAEBUnothrow_t@std@@@Z 000000018000fea8 f   LIBCMT:new_scalar_nothrow.obj
 0001:0000eebc       ??_U@YAPEAX_KAEBUnothrow_t@std@@@Z 000000018000febc f   LIBCMT:new_array_nothrow.obj
 0001:0000eec4       __GSHandlerCheck           000000018000fec4 f   LIBCMT:gshandler.obj
 0001:0000eee4       __GSHandlerCheckCommon     000000018000fee4 f   LIBCMT:gshandler.obj
 0001:0000ef40       __GSHandlerCheck_SEH       000000018000ff40 f   LIBCMT:gshandlerseh.obj
 0001:0000efe0       _alloca_probe              000000018000ffe0 f   LIBCMT:chkstk.obj
 0001:0000efe0       __chkstk                   000000018000ffe0 f   LIBCMT:chkstk.obj
 0001:0000f050       __security_check_cookie    0000000180010050 f   LIBCMT:amdsecgs.obj
 0001:0000f394       _DllMainCRTStartup         0000000180010394 f   LIBCMT:dll_dllmain.obj
 0001:0000f3d4       ??2@YAPEAX_K@Z             00000001800103d4 f   LIBCMT:new_scalar.obj
 0001:0000f410       __isa_available_init       0000000180010410 f   LIBCMT:cpu_disp.obj
 0001:0000f5b4       __scrt_is_ucrt_dll_in_use  00000001800105b4 f   LIBCMT:ucrt_detection.obj
 0001:0000f5c0       __crt_debugger_hook        00000001800105c0 f   LIBCMT:utility_desktop.obj
 0001:0000f5c8       __scrt_fastfail            00000001800105c8 f   LIBCMT:utility_desktop.obj
 0001:0000f714       __security_init_cookie     0000000180010714 f   LIBCMT:gs_support.obj
 0001:0000f7c0       ?__scrt_initialize_type_info@@YAXXZ 00000001800107c0 f   LIBCMT:tncleanup.obj
 0001:0000f7d0       ?__scrt_uninitialize_type_info@@YAXXZ 00000001800107d0 f   LIBCMT:tncleanup.obj
 0001:0000f7dc       __local_stdio_scanf_options 00000001800107dc f i LIBCMT:default_local_stdio_options.obj
 0001:0000f7e4       __scrt_initialize_default_local_stdio_options 00000001800107e4 f   LIBCMT:default_local_stdio_options.obj
 0001:0000f800       __scrt_get_dyn_tls_init_callback 0000000180010800 f   LIBCMT:dyn_tls_init.obj
 0001:0000f808       _RTC_Initialize            0000000180010808 f   LIBCMT:initsect.obj
 0001:0000f844       _RTC_Terminate             0000000180010844 f   LIBCMT:initsect.obj
 0001:0000f880       ??0bad_alloc@std@@QEAA@AEBV01@@Z 0000000180010880 f i LIBCMT:throw_bad_alloc.obj
 0001:0000f8bc       ??0bad_alloc@std@@QEAA@XZ  00000001800108bc f i LIBCMT:throw_bad_alloc.obj
 0001:0000f8dc       ??0bad_array_new_length@std@@QEAA@AEBV01@@Z 00000001800108dc f i LIBCMT:throw_bad_alloc.obj
 0001:0000f918       ??0bad_array_new_length@std@@QEAA@XZ 0000000180010918 f i LIBCMT:throw_bad_alloc.obj
 0001:0000f938       ??0exception@std@@QEAA@AEBV01@@Z 0000000180010938 f i LIBCMT:throw_bad_alloc.obj
 0001:0000f96c       ??1bad_array_new_length@std@@UEAA@XZ 000000018001096c f i LIBCMT:throw_bad_alloc.obj
 0001:0000f96c       ??1bad_exception@std@@UEAA@XZ 000000018001096c f i libvcruntime:frame.obj
 0001:0000f96c       ??1bad_alloc@std@@UEAA@XZ  000000018001096c f i LIBCMT:throw_bad_alloc.obj
 0001:0000f980       ??_Ebad_alloc@std@@UEAAPEAXI@Z 0000000180010980 f i LIBCMT:throw_bad_alloc.obj
 0001:0000f980       ??_Gbad_alloc@std@@UEAAPEAXI@Z 0000000180010980 f i LIBCMT:throw_bad_alloc.obj
 0001:0000f980       ??_Eexception@std@@UEAAPEAXI@Z 0000000180010980 f i LIBCMT:throw_bad_alloc.obj
 0001:0000f980       ??_Gbad_exception@std@@UEAAPEAXI@Z 0000000180010980 f i libvcruntime:frame.obj
 0001:0000f980       ??_Gexception@std@@UEAAPEAXI@Z 0000000180010980 f i LIBCMT:throw_bad_alloc.obj
 0001:0000f980       ??_Ebad_array_new_length@std@@UEAAPEAXI@Z 0000000180010980 f i LIBCMT:throw_bad_alloc.obj
 0001:0000f980       ??_Ebad_exception@std@@UEAAPEAXI@Z 0000000180010980 f i libvcruntime:frame.obj
 0001:0000f980       ??_Gbad_array_new_length@std@@UEAAPEAXI@Z 0000000180010980 f i LIBCMT:throw_bad_alloc.obj
 0001:0000f9c4       ?__scrt_throw_std_bad_alloc@@YAXXZ 00000001800109c4 f   LIBCMT:throw_bad_alloc.obj
 0001:0000f9e4       ?__scrt_throw_std_bad_array_new_length@@YAXXZ 00000001800109e4 f   LIBCMT:throw_bad_alloc.obj
 0001:0000fa04       ?what@exception@std@@UEBAPEBDXZ 0000000180010a04 f i LIBCMT:throw_bad_alloc.obj
 0001:0000fa20       ??_Etype_info@@UEAAPEAXI@Z 0000000180010a20 f i LIBCMT:std_type_info_static.obj
 0001:0000fa20       ??_Gtype_info@@UEAAPEAXI@Z 0000000180010a20 f i LIBCMT:std_type_info_static.obj
 0001:0000fa4c       ??0CAtlBaseModule@ATL@@QEAA@XZ 0000000180010a4c f   atls:atlbase.obj
 0001:0000faf4       ??1CAtlBaseModule@ATL@@QEAA@XZ 0000000180010af4 f   atls:atlbase.obj
 0001:0000fc28       ?__AllocStdCallThunk_cmn@@YAPEAXXZ 0000000180010c28 f   atls:atlthunk.obj
 0001:0000fd80       AtlThunk_AllocateData      0000000180010d80 f   atls:atlthunk.obj
 0001:0000fdfc       AtlThunk_DataToCode        0000000180010dfc f   atls:atlthunk.obj
 0001:0000fe50       AtlThunk_FreeData          0000000180010e50 f   atls:atlthunk.obj
 0001:0000feb0       AtlThunk_InitData          0000000180010eb0 f   atls:atlthunk.obj
 0001:0000ff58       _get_purecall_handler      0000000180010f58 f   libvcruntime:purevirt.obj
 0001:0000ff60       _purecall                  0000000180010f60 f   libvcruntime:purevirt.obj
 0001:0000ff7c       wcsstr                     0000000180010f7c f   libvcruntime:wcsstr.obj
 0001:000101b0       memcmp                     00000001800111b0 f   libvcruntime:memcmp.obj
 0001:00010290       memcpy_repmovs             0000000180011290 f   libvcruntime:memcpy.obj
 0001:000102b0       memmove                    00000001800112b0 f   libvcruntime:memcpy.obj
 0001:000102b0       memcpy                     00000001800112b0 f   libvcruntime:memcpy.obj
 0001:000106a0       memset_repmovs             00000001800116a0 f   libvcruntime:memset.obj
 0001:000106c0       memset                     00000001800116c0 f   libvcruntime:memset.obj
 0001:00010850       __vcrt_initialize          0000000180011850 f   libvcruntime:initialization.obj
 0001:00010878       __vcrt_thread_attach       0000000180011878 f   libvcruntime:initialization.obj
 0001:0001088c       __vcrt_thread_detach       000000018001188c f   libvcruntime:initialization.obj
 0001:000108a0       __vcrt_uninitialize        00000001800118a0 f   libvcruntime:initialization.obj
 0001:000108bc       __vcrt_uninitialize_critical 00000001800118bc f   libvcruntime:initialization.obj
 0001:000108cc       __C_specific_handler       00000001800118cc f   libvcruntime:riscchandler.obj
 0001:00010ad8       ??$_CallSETranslator@V__FrameHandler4@@@@YAHPEAUEHExceptionRecord@@PEA_KPEAU_CONTEXT@@PEAU_xDISPATCHER_CONTEXT@@PEAUFuncInfo4@FH4@@K1H@Z 0000000180011ad8 f i libvcruntime:risctrnsctrl.obj
 0001:00010b2c       ?DecompFuncInfo@FH4@@YA_JPEAEAEAUFuncInfo4@1@_KH_N@Z 0000000180011b2c f i libvcruntime:risctrnsctrl.obj
 0001:00010c50       ?ExecutionInCatch@__FrameHandler4@@SA_NPEAU_xDISPATCHER_CONTEXT@@PEAUFuncInfo4@FH4@@@Z 0000000180011c50 f   libvcruntime:risctrnsctrl.obj
 0001:00010c58       ?FrameUnwindToEmptyState@__FrameHandler4@@SAXPEA_KPEAU_xDISPATCHER_CONTEXT@@PEAUFuncInfo4@FH4@@@Z 0000000180011c58 f   libvcruntime:risctrnsctrl.obj
 0001:00010c8c       ?GetEstablisherFrame@__FrameHandler4@@SAPEA_KPEA_KPEAU_xDISPATCHER_CONTEXT@@PEAUFuncInfo4@FH4@@0@Z 0000000180011c8c f   libvcruntime:risctrnsctrl.obj
 0001:00010cb0       ?GetRangeOfTrysToCheck@__FrameHandler4@@SA?AU?$pair@Viterator@TryBlockMap4@FH4@@V123@@std@@AEAVTryBlockMap4@FH4@@HPEAU_xDISPATCHER_CONTEXT@@PEAUFuncInfo4@5@H@Z 0000000180011cb0 f   libvcruntime:risctrnsctrl.obj
 0001:00010e0c       ?UnwindNestedFrames@__FrameHandler4@@SAXPEA_KPEAUEHExceptionRecord@@PEAU_CONTEXT@@0PEAXPEAUFuncInfo4@FH4@@HHPEAUHandlerType4@5@PEAU_xDISPATCHER_CONTEXT@@E@Z 0000000180011e0c f   libvcruntime:risctrnsctrl.obj
 0001:00010f2c       ?setBuffer@TryBlockMap4@FH4@@QEAAXViterator@12@@Z 0000000180011f2c f i libvcruntime:risctrnsctrl.obj
 0001:000110f0       _CreateFrameInfo           00000001800120f0 f   libvcruntime:risctrnsctrl.obj
 0001:0001112c       _FindAndUnlinkFrame        000000018001212c f   libvcruntime:risctrnsctrl.obj
 0001:00011180       _GetImageBase              0000000180012180 f   libvcruntime:risctrnsctrl.obj
 0001:00011194       _GetThrowImageBase         0000000180012194 f   libvcruntime:risctrnsctrl.obj
 0001:000111a8       _SetImageBase              00000001800121a8 f   libvcruntime:risctrnsctrl.obj
 0001:000111c0       _SetThrowImageBase         00000001800121c0 f   libvcruntime:risctrnsctrl.obj
 0001:000111d8       __CxxFrameHandler4         00000001800121d8 f   libvcruntime:risctrnsctrl.obj
 0001:00011298       __DestructExceptionObject  0000000180012298 f   libvcruntime:ehhelpers.obj
 0001:00011308       ?_CallMemberFunction0@@YAXQEAX0@Z 0000000180012308 f i libvcruntime:ehhelpers.obj
 0001:0001130c       _IsExceptionObjectToBeDestroyed 000000018001230c f   libvcruntime:ehhelpers.obj
 0001:0001133c       __AdjustPointer            000000018001233c f   libvcruntime:ehhelpers.obj
 0001:00011360       __FrameUnwindFilter        0000000180012360 f   libvcruntime:ehhelpers.obj
 0001:000113c8       __std_type_info_compare    00000001800123c8 f   libvcruntime:std_type_info.obj
 0001:000113f0       __std_type_info_destroy_list 00000001800123f0 f   libvcruntime:std_type_info.obj
 0001:0001141c       __std_exception_copy       000000018001241c f   libvcruntime:std_exception.obj
 0001:000114ac       __std_exception_destroy    00000001800124ac f   libvcruntime:std_exception.obj
 0001:000114d4       _CxxThrowException         00000001800124d4 f   libvcruntime:throw.obj
 0001:00011574       __vcrt_freefls             0000000180012574 f   libvcruntime:per_thread_data.obj
 0001:00011594       __vcrt_freeptd             0000000180012594 f   libvcruntime:per_thread_data.obj
 0001:000115e4       __vcrt_getptd              00000001800125e4 f   libvcruntime:per_thread_data.obj
 0001:00011600       __vcrt_getptd_noexit       0000000180012600 f   libvcruntime:per_thread_data.obj
 0001:000116c0       __vcrt_initialize_ptd      00000001800126c0 f   libvcruntime:per_thread_data.obj
 0001:00011708       __vcrt_uninitialize_ptd    0000000180012708 f   libvcruntime:per_thread_data.obj
 0001:0001172c       __vcrt_initialize_locks    000000018001272c f   libvcruntime:locks.obj
 0001:00011760       __vcrt_uninitialize_locks  0000000180012760 f   libvcruntime:locks.obj
 0001:000117b0       _NLG_Notify                00000001800127b0 f   libvcruntime:notify.obj
 0001:000117d0       __NLG_Dispatch2            00000001800127d0 f   libvcruntime:notify.obj
 0001:000117e0       __NLG_Return2              00000001800127e0 f   libvcruntime:notify.obj
 0001:000117e4       __except_validate_context_record 00000001800127e4 f   libvcruntime:jbcxrval.obj
 0001:0001181c       ?StateFromControlPc@__FrameHandler4@@SAHPEAUFuncInfo4@FH4@@PEAU_xDISPATCHER_CONTEXT@@@Z 000000018001281c f   libvcruntime:ehstate.obj
 0001:00011824       ?StateFromIp@__FrameHandler4@@SAHPEAUFuncInfo4@FH4@@PEAU_xDISPATCHER_CONTEXT@@_K@Z 0000000180012824 f   libvcruntime:ehstate.obj
 0001:000124a8       ??$TypeMatchHelper@V__FrameHandler3@@@@YAHPEBU_s_HandlerType@@PEBU_s_CatchableType@@PEBU_s_ThrowInfo@@@Z 00000001800134a8 f i libvcruntime:frame.obj
 0001:000125e8       ??$TypeMatchHelper@V__FrameHandler4@@@@YAHPEAUHandlerType4@FH4@@PEBU_s_CatchableType@@PEBU_s_ThrowInfo@@@Z 00000001800135e8 f i libvcruntime:frame.obj
 0001:0001272c       ??$__InternalCxxFrameHandler@V__FrameHandler4@@@@YA?AW4_EXCEPTION_DISPOSITION@@PEAUEHExceptionRecord@@PEA_KPEAU_CONTEXT@@PEAU_xDISPATCHER_CONTEXT@@PEAUFuncInfo4@FH4@@H1E@Z 000000018001372c f i libvcruntime:frame.obj
 0001:000129c0       ??0HandlerMap4@FH4@@QEAA@PEBUTryBlockMapEntry4@1@_KH@Z 00000001800139c0 f i libvcruntime:frame.obj
 0001:00012a3c       ??0TryBlockMap4@FH4@@QEAA@PEBUFuncInfo4@1@_K@Z 0000000180013a3c f i libvcruntime:frame.obj
 0001:00012b14       ??0bad_exception@std@@QEAA@AEBV01@@Z 0000000180013b14 f i libvcruntime:frame.obj
 0001:00012b50       ??0bad_exception@std@@QEAA@XZ 0000000180013b50 f i libvcruntime:frame.obj
 0001:00012b70       ?CxxCallCatchBlock@__FrameHandler4@@SAPEAXPEAU_EXCEPTION_RECORD@@@Z 0000000180013b70 f   libvcruntime:frame.obj
 0001:00012dc0       ?DecompHandler@HandlerMap4@FH4@@AEAAXXZ 0000000180013dc0 f i libvcruntime:frame.obj
 0001:00013000       ?FrameUnwindToState@__FrameHandler4@@SAXPEA_KPEAU_xDISPATCHER_CONTEXT@@PEAUFuncInfo4@FH4@@H@Z 0000000180014000 f   libvcruntime:frame.obj
 0001:0001345c       ?ReadEntry@UWMap4@FH4@@AEAAXPEAPEAE@Z 000000018001445c f i libvcruntime:frame.obj
 0001:000134fc       ?_CallMemberFunction1@@YAXQEAX00@Z 00000001800144fc f i libvcruntime:frame.obj
 0001:00013508       ?_CallMemberFunction2@@YAXQEAX00H@Z 0000000180014508 f i libvcruntime:frame.obj
 0001:00013518       ?getStartStop@UWMap4@FH4@@QEAAXHHAEAViterator@12@0@Z 0000000180014518 f i libvcruntime:frame.obj
 0001:000135e8       ?getStateFromIterators@UWMap4@FH4@@SAHAEBViterator@12@H0H0@Z 00000001800145e8 f i libvcruntime:frame.obj
 0001:000137fc       __vcrt_FlsAlloc            00000001800147fc f   libvcruntime:winapi_downlevel.obj
 0001:00013844       __vcrt_FlsFree             0000000180014844 f   libvcruntime:winapi_downlevel.obj
 0001:0001388c       __vcrt_FlsGetValue         000000018001488c f   libvcruntime:winapi_downlevel.obj
 0001:000138d4       __vcrt_FlsSetValue         00000001800148d4 f   libvcruntime:winapi_downlevel.obj
 0001:00013928       __vcrt_InitializeCriticalSectionEx 0000000180014928 f   libvcruntime:winapi_downlevel.obj
 0001:000139a0       _CallSettingFrame          00000001800149a0 f   libvcruntime:handlers.obj
 0001:000139f0       _CallSettingFrame_LookupContinuationIndex 00000001800149f0 f   libvcruntime:handlers.obj
 0001:00013a20       _CallSettingFrame_NotifyContinuationAddr 0000000180014a20 f   libvcruntime:handlers.obj
 0001:00013a50       _CallSettingFrameEncoded   0000000180014a50 f   libvcruntime:handlers.obj
 0001:00013a98       free                       0000000180014a98 f   libucrt:free.obj
 0001:00013aac       __acrt_call_reportfault    0000000180014aac f   libucrt:invalid_parameter.obj
 0001:00013c08       __acrt_initialize_invalid_parameter_handler 0000000180014c08 f   libucrt:invalid_parameter.obj
 0001:00013c10       _invalid_parameter         0000000180014c10 f   libucrt:invalid_parameter.obj
 0001:00013cc0       _invalid_parameter_noinfo  0000000180014cc0 f   libucrt:invalid_parameter.obj
 0001:00013ce0       _invoke_watson             0000000180014ce0 f   libucrt:invalid_parameter.obj
 0001:00013d28       __acrt_errno_from_os_error 0000000180014d28 f   libucrt:errno.obj
 0001:00013d70       __acrt_errno_map_os_error  0000000180014d70 f   libucrt:errno.obj
 0001:00013dc0       __doserrno                 0000000180014dc0 f   libucrt:errno.obj
 0001:00013de0       _errno                     0000000180014de0 f   libucrt:errno.obj
 0001:00013e00       calloc                     0000000180014e00 f   libucrt:calloc.obj
 0001:00013e08       malloc                     0000000180014e08 f   libucrt:malloc.obj
 0001:00013e10       _recalloc                  0000000180014e10 f   libucrt:recalloc.obj
 0001:00013e18       _recalloc_base             0000000180014e18 f   libucrt:recalloc.obj
 0001:00013eb0       _resetstkoflw              0000000180014eb0 f   libucrt:resetstk.obj
 0001:00013fdc       wcscat_s                   0000000180014fdc f   libucrt:wcscat_s.obj
 0001:0001405c       wcscpy_s                   000000018001505c f   libucrt:wcscpy_s.obj
 0001:000140c4       wcsncpy_s                  00000001800150c4 f   libucrt:wcsncpy_s.obj
 0001:0001437c       ??$ensure_buffer_is_big_enough@D@formatting_buffer@__crt_stdio_output@@QEAA_N_K@Z 000000018001537c f i libucrt:output.obj
 0001:00014424       ??$ensure_buffer_is_big_enough@_W@formatting_buffer@__crt_stdio_output@@QEAA_N_K@Z 0000000180015424 f i libucrt:output.obj
 0001:000144d0       ??$is_wide_character_specifier@_W@__crt_stdio_output@@YA_N_K_WW4length_modifier@0@@Z 00000001800154d0 f i libucrt:output.obj
 0001:00014510       ??$type_case_integer_parse_into_buffer@I@?$output_processor@_WV?$string_output_adapter@_W@__crt_stdio_output@@V?$format_validation_base@_WV?$string_output_adapter@_W@__crt_stdio_output@@@2@@__crt_stdio_output@@AEAAXII_N@Z 0000000180015510 f i libucrt:output.obj
 0001:000145b4       ??$type_case_integer_parse_into_buffer@_K@?$output_processor@_WV?$string_output_adapter@_W@__crt_stdio_output@@V?$format_validation_base@_WV?$string_output_adapter@_W@__crt_stdio_output@@@2@@__crt_stdio_output@@AEAAX_KI_N@Z 00000001800155b4 f i libucrt:output.obj
 0001:00014658       ??$write_multiple_characters@V?$string_output_adapter@_W@__crt_stdio_output@@D@__crt_stdio_output@@YAXAEBV?$string_output_adapter@_W@0@DHQEAH@Z 0000000180015658 f i libucrt:output.obj
 0001:000146d0       ??0_LocaleUpdate@@QEAA@QEAU__crt_locale_pointers@@@Z 00000001800156d0 f i libucrt:output.obj
 0001:00014770       ?crop_zeroes@__crt_stdio_output@@YAXPEADQEAU__crt_locale_pointers@@@Z 0000000180015770 f i libucrt:output.obj
 0001:00014810       ?force_decimal_point@__crt_stdio_output@@YAXPEADQEAU__crt_locale_pointers@@@Z 0000000180015810 f i libucrt:output.obj
 0001:00014888       ?parse_int_from_format_string@?$output_processor@_WV?$string_output_adapter@_W@__crt_stdio_output@@V?$format_validation_base@_WV?$string_output_adapter@_W@__crt_stdio_output@@@2@@__crt_stdio_output@@AEAA_NQEAH@Z 0000000180015888 f i libucrt:output.obj
 0001:0001492c       ?process@?$output_processor@_WV?$string_output_adapter@_W@__crt_stdio_output@@V?$format_validation_base@_WV?$string_output_adapter@_W@__crt_stdio_output@@@2@@__crt_stdio_output@@QEAAHXZ 000000018001592c f i libucrt:output.obj
 0001:00014ba4       ?state_case_size@?$output_processor@_WV?$string_output_adapter@_W@__crt_stdio_output@@V?$format_validation_base@_WV?$string_output_adapter@_W@__crt_stdio_output@@@2@@__crt_stdio_output@@AEAA_NXZ 0000000180015ba4 f i libucrt:output.obj
 0001:00014d38       ?state_case_type@?$output_processor@_WV?$string_output_adapter@_W@__crt_stdio_output@@V?$format_validation_base@_WV?$string_output_adapter@_W@__crt_stdio_output@@@2@@__crt_stdio_output@@AEAA_NXZ 0000000180015d38 f i libucrt:output.obj
 0001:00015010       ?to_integer_size@__crt_stdio_output@@YA_KW4length_modifier@1@@Z 0000000180016010 f i libucrt:output.obj
 0001:00015078       ?type_case_Z@?$output_processor@_WV?$string_output_adapter@_W@__crt_stdio_output@@V?$format_validation_base@_WV?$string_output_adapter@_W@__crt_stdio_output@@@2@@__crt_stdio_output@@AEAA_NXZ 0000000180016078 f i libucrt:output.obj
 0001:000150f4       ?type_case_a@?$output_processor@_WV?$string_output_adapter@_W@__crt_stdio_output@@V?$format_validation_base@_WV?$string_output_adapter@_W@__crt_stdio_output@@@2@@__crt_stdio_output@@AEAA_NXZ 00000001800160f4 f i libucrt:output.obj
 0001:000152d4       ?type_case_c_tchar@?$output_processor@_WV?$string_output_adapter@_W@__crt_stdio_output@@V?$format_validation_base@_WV?$string_output_adapter@_W@__crt_stdio_output@@@2@@__crt_stdio_output@@AEAA_N_W@Z 00000001800162d4 f i libucrt:output.obj
 0001:0001537c       ?type_case_integer@?$output_processor@_WV?$string_output_adapter@_W@__crt_stdio_output@@V?$format_validation_base@_WV?$string_output_adapter@_W@__crt_stdio_output@@@2@@__crt_stdio_output@@AEAA_NI_N@Z 000000018001637c f i libucrt:output.obj
 0001:00015504       ?type_case_n@?$output_processor@_WV?$string_output_adapter@_W@__crt_stdio_output@@V?$format_validation_base@_WV?$string_output_adapter@_W@__crt_stdio_output@@@2@@__crt_stdio_output@@AEAA_NXZ 0000000180016504 f i libucrt:output.obj
 0001:0001558c       ?type_case_s@?$output_processor@_WV?$string_output_adapter@_W@__crt_stdio_output@@V?$format_validation_base@_WV?$string_output_adapter@_W@__crt_stdio_output@@@2@@__crt_stdio_output@@AEAA_NXZ 000000018001658c f i libucrt:output.obj
 0001:00015654       ?write_stored_string_tchar@?$output_processor@_WV?$string_output_adapter@_W@__crt_stdio_output@@V?$format_validation_base@_WV?$string_output_adapter@_W@__crt_stdio_output@@@2@@__crt_stdio_output@@AEAA_N_W@Z 0000000180016654 f i libucrt:output.obj
 0001:0001573c       ?write_string@?$string_output_adapter@_W@__crt_stdio_output@@QEBAXQEB_WHQEAHAEAV__crt_deferred_errno_cache@@@Z 000000018001673c f i libucrt:output.obj
 0001:000157e4       __stdio_common_vswprintf_s 00000001800167e4 f   libucrt:output.obj
 0001:00015854       _seh_filter_dll            0000000180016854 f   libucrt:exception_filter.obj
 0001:00015868       _seh_filter_exe            0000000180016868 f   libucrt:exception_filter.obj
 0001:00015c58       __acrt_initialize_thread_local_exit_callback 0000000180016c58 f   libucrt:exit.obj
 0001:00015c60       _cexit                     0000000180016c60 f   libucrt:exit.obj
 0001:00015c70       _exit                      0000000180016c70 f   libucrt:exit.obj
 0001:00015c7c       _is_c_termination_complete 0000000180016c7c f   libucrt:exit.obj
 0001:00015e44       __acrt_allocate_buffer_for_argv 0000000180016e44 f   libucrt:argv_parsing.obj
 0001:00015ea4       _configure_narrow_argv     0000000180016ea4 f   libucrt:argv_parsing.obj
 0001:0001621c       __dcrt_uninitialize_environments_nolock 000000018001721c f   libucrt:environment_initialization.obj
 0001:00016254       _initialize_narrow_environment 0000000180017254 f   libucrt:environment_initialization.obj
 0001:0001659c       _crt_atexit                000000018001759c f   libucrt:onexit.obj
 0001:000165ac       _execute_onexit_table      00000001800175ac f   libucrt:onexit.obj
 0001:000165e8       _initialize_onexit_table   00000001800175e8 f   libucrt:onexit.obj
 0001:00016610       _register_onexit_function  0000000180017610 f   libucrt:onexit.obj
 0001:00016690       __acrt_uninitialize_command_line 0000000180017690 f   libucrt:argv_data.obj
 0001:00016788       __acrt_initialize          0000000180017788 f   libucrt:initialization.obj
 0001:0001679c       __acrt_thread_attach       000000018001779c f   libucrt:initialization.obj
 0001:000167b0       __acrt_thread_detach       00000001800177b0 f   libucrt:initialization.obj
 0001:000167c0       __acrt_uninitialize        00000001800177c0 f   libucrt:initialization.obj
 0001:000167f8       __acrt_uninitialize_critical 00000001800177f8 f   libucrt:initialization.obj
 0001:00016808       _initterm                  0000000180017808 f   libucrt:initterm.obj
 0001:0001686c       _initterm_e                000000018001786c f   libucrt:initterm.obj
 0001:000168ac       __acrt_initialize_new_handler 00000001800178ac f   libucrt:new_handler.obj
 0001:000168b4       _callnewh                  00000001800178b4 f   libucrt:new_handler.obj
 0001:000168e4       _query_new_handler         00000001800178e4 f   libucrt:new_handler.obj
 0001:00016918       terminate                  0000000180017918 f   libucrt:terminate.obj
 0001:00016938       abort                      0000000180017938 f   libucrt:abort.obj
 0001:00016990       strcpy_s                   0000000180017990 f   libucrt:strcpy_s.obj
 0001:000169f0       ??$parse_integer@KV?$c_string_character_source@_W@__crt_strtox@@@__crt_strtox@@YAKQEAU__crt_locale_pointers@@V?$c_string_character_source@_W@0@H_N@Z 00000001800179f0 f i libucrt:atox.obj
 0001:000170b0       strncmp                    00000001800180b0 f   libucrt:strncmp.obj
 0001:00017130       wcsncmp                    0000000180018130 f   libucrt:wcsncmp.obj
 0001:0001715c       _free_base                 000000018001815c f   libucrt:free_base.obj
 0001:00017514       __acrt_freeptd             0000000180018514 f   libucrt:per_thread_data.obj
 0001:00017558       __acrt_getptd              0000000180018558 f   libucrt:per_thread_data.obj
 0001:0001762c       __acrt_getptd_head         000000018001862c f   libucrt:per_thread_data.obj
 0001:000176d4       __acrt_getptd_noexit       00000001800186d4 f   libucrt:per_thread_data.obj
 0001:000177a0       __acrt_initialize_ptd      00000001800187a0 f   libucrt:per_thread_data.obj
 0001:000177dc       __acrt_uninitialize_ptd    00000001800187dc f   libucrt:per_thread_data.obj
 0001:00017800       _calloc_base               0000000180018800 f   libucrt:calloc_base.obj
 0001:00017878       _malloc_base               0000000180018878 f   libucrt:malloc_base.obj
 0001:000178d8       _msize_base                00000001800188d8 f   libucrt:msize.obj
 0001:00017914       _realloc_base              0000000180018914 f   libucrt:realloc_base.obj
 0001:00017b68       __acrt_AppPolicyGetProcessTerminationMethodInternal 0000000180018b68 f   libucrt:winapi_thunks.obj
 0001:00017bb8       __acrt_AreFileApisANSI     0000000180018bb8 f   libucrt:winapi_thunks.obj
 0001:00017bf4       __acrt_FlsAlloc            0000000180018bf4 f   libucrt:winapi_thunks.obj
 0001:00017c3c       __acrt_FlsFree             0000000180018c3c f   libucrt:winapi_thunks.obj
 0001:00017c84       __acrt_FlsGetValue         0000000180018c84 f   libucrt:winapi_thunks.obj
 0001:00017ccc       __acrt_FlsSetValue         0000000180018ccc f   libucrt:winapi_thunks.obj
 0001:00017d20       __acrt_InitializeCriticalSectionEx 0000000180018d20 f   libucrt:winapi_thunks.obj
 0001:00017d84       __acrt_LCMapStringEx       0000000180018d84 f   libucrt:winapi_thunks.obj
 0001:00017e60       __acrt_LocaleNameToLCID    0000000180018e60 f   libucrt:winapi_thunks.obj
 0001:00017eb0       __acrt_SetThreadStackGuarantee 0000000180018eb0 f   libucrt:winapi_thunks.obj
 0001:00017ef4       __acrt_initialize_winapi_thunks 0000000180018ef4 f   libucrt:winapi_thunks.obj
 0001:00017f28       __acrt_uninitialize_winapi_thunks 0000000180018f28 f   libucrt:winapi_thunks.obj
 0001:00017f6c       wcstol                     0000000180018f6c f   libucrt:strtox.obj
 0001:00017f98       _mbtowc_l                  0000000180018f98 f   libucrt:mbtowc.obj
 0001:00018118       mbtowc                     0000000180019118 f   libucrt:mbtowc.obj
 0001:00018120       wcsnlen                    0000000180019120 f   libucrt:strnlen.obj
 0001:000182f8       __acrt_update_locale_info  00000001800192f8 f   libucrt:locale_update.obj
 0001:0001832c       __acrt_update_multibyte_info 000000018001932c f   libucrt:locale_update.obj
 0001:00018d64       __acrt_fp_format           0000000180019d64 f   libucrt:cvt.obj
 0001:0001909c       _fileno                    000000018001a09c f   libucrt:fileno.obj
 0001:000190c4       __acrt_initialize_stdio    000000018001a0c4 f   libucrt:_file.obj
 0001:000191e4       __acrt_uninitialize_stdio  000000018001a1e4 f   libucrt:_file.obj
 0001:00019240       _lock_file                 000000018001a240 f   libucrt:_file.obj
 0001:0001924c       _unlock_file               000000018001a24c f   libucrt:_file.obj
 0001:00019258       _get_printf_count_output   000000018001a258 f   libucrt:printf_count_output.obj
 0001:000192e0       __acrt_set_locale_changed  000000018001a2e0 f   libucrt:wsetlocale.obj
 0001:000192ec       __acrt_uninitialize_locale 000000018001a2ec f   libucrt:wsetlocale.obj
 0001:00019518       __acrt_initialize_lowio    000000018001a518 f   libucrt:ioinit.obj
 0001:00019554       __acrt_uninitialize_lowio  000000018001a554 f   libucrt:ioinit.obj
 0001:00019594       __acrt_initialize_locks    000000018001a594 f   libucrt:locks.obj
 0001:000195dc       __acrt_lock                000000018001a5dc f   libucrt:locks.obj
 0001:000195f8       __acrt_uninitialize_locks  000000018001a5f8 f   libucrt:locks.obj
 0001:00019630       __acrt_unlock              000000018001a630 f   libucrt:locks.obj
 0001:0001964c       __acrt_get_process_end_policy 000000018001a64c f   libucrt:win_policies.obj
 0001:0001969c       ??$__acrt_mbs_to_wcs_cp@U__crt_win32_buffer_internal_dynamic_resizing@@@@YAHQEBDAEAV?$__crt_win32_buffer@_WU__crt_win32_buffer_internal_dynamic_resizing@@@@I@Z 000000018001a69c f i libucrt:argv_wildcards.obj
 0001:00019814       ??$__acrt_wcs_to_mbs_cp@U__crt_win32_buffer_internal_dynamic_resizing@@@@YAHQEB_WAEAV?$__crt_win32_buffer@DU__crt_win32_buffer_internal_dynamic_resizing@@@@I@Z 000000018001a814 f i libucrt:argv_wildcards.obj
 0001:0001a044       __acrt_expand_narrow_argv_wildcards 000000018001b044 f   libucrt:argv_wildcards.obj
 0001:0001a04c       ??$__acrt_wcs_to_mbs_cp@U__crt_win32_buffer_no_resizing@@@@YAHQEB_WAEAV?$__crt_win32_buffer@DU__crt_win32_buffer_no_resizing@@@@I@Z 000000018001b04c f i libucrt:getmodulefilenamea.obj
 0001:0001a160       __acrt_GetModuleFileNameA  000000018001b160 f   libucrt:getmodulefilenamea.obj
 0001:0001a9a8       __acrt_initialize_multibyte 000000018001b9a8 f   libucrt:mbctype.obj
 0001:0001aa08       __acrt_update_thread_multibyte_data 000000018001ba08 f   libucrt:mbctype.obj
 0001:0001aa24       _setmbcp_nolock            000000018001ba24 f   libucrt:mbctype.obj
 0001:0001ad58       _ismbblead                 000000018001bd58 f   libucrt:ismbbyte.obj
 0001:0001ad6c       __acrt_initialize_command_line 000000018001bd6c f   libucrt:argv_data.obj
 0001:0001ad94       __acrt_MultiByteToWideChar 000000018001bd94 f   libucrt:multibytetowidechar.obj
 0001:0001adf0       __acrt_WideCharToMultiByte 000000018001bdf0 f   libucrt:widechartomultibyte.obj
 0001:0001aea0       __dcrt_get_narrow_environment_from_os 000000018001bea0 f   libucrt:get_environment_from_os.obj
 0001:0001afa4       __acrt_initialize_heap     000000018001bfa4 f   libucrt:heap_handle.obj
 0001:0001afc0       __acrt_uninitialize_heap   000000018001bfc0 f   libucrt:heap_handle.obj
 0001:0001afcc       __acrt_execute_initializers 000000018001bfcc f   libucrt:shared_initialization.obj
 0001:0001b04c       __acrt_execute_uninitializers 000000018001c04c f   libucrt:shared_initialization.obj
 0001:0001b0d0       __acrt_get_sigabrt_handler 000000018001c0d0 f   libucrt:signal.obj
 0001:0001b100       __acrt_initialize_signal_handlers 000000018001c100 f   libucrt:signal.obj
 0001:0001b120       raise                      000000018001c120 f   libucrt:signal.obj
 0001:0001b38c       __acrt_has_user_matherr    000000018001c38c f   libucrt:matherr.obj
 0001:0001b3ac       __acrt_initialize_user_matherr 000000018001c3ac f   libucrt:matherr.obj
 0001:0001b3b4       __acrt_invoke_user_matherr 000000018001c3b4 f   libucrt:matherr.obj
 0001:0001b5c0       __acrt_stdio_flush_nolock  000000018001c5c0 f   libucrt:fflush.obj
 0001:0001b63c       _fflush_nolock             000000018001c63c f   libucrt:fflush.obj
 0001:0001b688       _flushall                  000000018001c688 f   libucrt:fflush.obj
 0001:0001b690       __pctype_func              000000018001c690 f   libucrt:ctype.obj
 0001:0001b6c0       iswctype                   000000018001c6c0 f   libucrt:iswctype.obj
 0001:0001b72c       __acrt_add_locale_ref      000000018001c72c f   libucrt:locale_refcounting.obj
 0001:0001b7b8       __acrt_free_locale         000000018001c7b8 f   libucrt:locale_refcounting.obj
 0001:0001b930       __acrt_locale_add_lc_time_reference 000000018001c930 f   libucrt:locale_refcounting.obj
 0001:0001b958       __acrt_locale_free_lc_time_if_unreferenced 000000018001c958 f   libucrt:locale_refcounting.obj
 0001:0001b990       __acrt_locale_release_lc_time_reference 000000018001c990 f   libucrt:locale_refcounting.obj
 0001:0001b9b8       __acrt_release_locale_ref  000000018001c9b8 f   libucrt:locale_refcounting.obj
 0001:0001ba60       __acrt_update_thread_locale_data 000000018001ca60 f   libucrt:locale_refcounting.obj
 0001:0001bad0       _updatetlocinfoEx_nolock   000000018001cad0 f   libucrt:locale_refcounting.obj
 0001:0001bb38       _query_new_mode            000000018001cb38 f   libucrt:new_mode.obj
 0001:0001bb40       __acrt_DownlevelLocaleNameToLCID 000000018001cb40 f   libucrt:lcidtoname_downlevel.obj
 0001:0001bbf0       _isleadbyte_l              000000018001cbf0 f i libucrt:_wctype.obj
 0001:0001bc3c       ?__mbrtowc_utf8@__crt_mbstring@@YA_KPEA_WPEBD_KPEAU_Mbstatet@@@Z 000000018001cc3c f   libucrt:mbrtowc.obj
 0001:0001bc78       ?__mbsrtowcs_utf8@__crt_mbstring@@YA_KPEA_WPEAPEBD_KPEAU_Mbstatet@@@Z 000000018001cc78 f   libucrt:mbrtowc.obj
 0001:0001bdf0       __acrt_fp_strflt_to_string 000000018001cdf0 f   libucrt:_fptostr.obj
 0001:0001bf40       ?divide@__crt_strtox@@YA_KAEAUbig_integer@1@AEBU21@@Z 000000018001cf40 f i libucrt:cfout.obj
 0001:0001c36c       __acrt_fltout              000000018001d36c f   libucrt:cfout.obj
 0001:0001d638       fegetround                 000000018001e638 f   libucrt:fegetround.obj
 0001:0001d64c       _fcloseall                 000000018001e64c f   libucrt:closeall.obj
 0001:0001d700       __acrt_stdio_free_buffer_nolock 000000018001e700 f   libucrt:_freebuf.obj
 0001:0001d740       _isatty                    000000018001e740 f   libucrt:isatty.obj
 0001:0001d7a0       __acrt_locale_free_monetary 000000018001e7a0 f   libucrt:initmon.obj
 0001:0001d8ac       __acrt_locale_free_numeric 000000018001e8ac f   libucrt:initnum.obj
 0001:0001d970       __acrt_locale_free_time    000000018001e970 f   libucrt:inittime.obj
 0001:0001da78       __acrt_GetStringTypeA      000000018001ea78 f   libucrt:getstringtypea.obj
 0001:0001dc08       __acrt_lowio_create_handle_array 000000018001ec08 f   libucrt:osfinfo.obj
 0001:0001dcb0       __acrt_lowio_destroy_handle_array 000000018001ecb0 f   libucrt:osfinfo.obj
 0001:0001dd00       __acrt_lowio_ensure_fh_exists 000000018001ed00 f   libucrt:osfinfo.obj
 0001:0001dda8       __acrt_lowio_lock_fh       000000018001eda8 f   libucrt:osfinfo.obj
 0001:0001ddd0       __acrt_lowio_unlock_fh     000000018001edd0 f   libucrt:osfinfo.obj
 0001:0001ddf8       _free_osfhnd               000000018001edf8 f   libucrt:osfinfo.obj
 0001:0001deb4       _get_osfhandle             000000018001eeb4 f   libucrt:osfinfo.obj
 0001:0001df30       qsort                      000000018001ef30 f   libucrt:qsort.obj
 0001:0001e2d0       strncpy_s                  000000018001f2d0 f   libucrt:strncpy_s.obj
 0001:0001e450       strpbrk                    000000018001f450 f   libucrt:strpbrk.obj
 0001:0001e818       _mbsdec                    000000018001f818 f   libucrt:mbsdec.obj
 0001:0001e820       _mbsdec_l                  000000018001f820 f   libucrt:mbsdec.obj
 0001:0001ebcc       __acrt_LCMapStringA        000000018001fbcc f   libucrt:lcmapstringa.obj
 0001:0001ed08       _commit                    000000018001fd08 f   libucrt:commit.obj
 0001:0001f618       _write                     0000000180020618 f   libucrt:write.obj
 0001:0001f704       _write_nolock              0000000180020704 f   libucrt:write.obj
 0001:0001f9e8       __acrt_GetStringTypeW      00000001800209e8 f   libucrt:getstringtypew.obj
 0001:0001f9f0       __ascii_wcsnicmp           00000001800209f0 f   libucrt:wcsnicmp.obj
 0001:0001fa3c       ?__mbrtoc32_utf8@__crt_mbstring@@YA_KPEA_UPEBD_KPEAU_Mbstatet@@@Z 0000000180020a3c f   libucrt:mbrtoc32.obj
 0001:0001fc14       _controlfp_s               0000000180020c14 f   libucrt:contrlfp.obj
 0001:0001fc78       fegetenv                   0000000180020c78 f   libucrt:fegetenv.obj
 0001:0001fc98       fesetenv                   0000000180020c98 f   libucrt:fesetenv.obj
 0001:0001fce4       feholdexcept               0000000180020ce4 f   libucrt:feholdexcept.obj
 0001:0001fd34       ceil                       0000000180020d34 f   libucrt:ceil.obj
 0001:0001fe00       log10                      0000000180020e00 f   libucrt:log10.obj
 0001:000203ac       __acrt_fenv_get_common_round_control 00000001800213ac f   libucrt:_fenvutils.obj
 0001:000203b8       __acrt_fenv_get_control    00000001800213b8 f   libucrt:_fenvutils.obj
 0001:000204ac       __acrt_fenv_get_status     00000001800214ac f   libucrt:_fenvutils.obj
 0001:00020500       __acrt_fenv_set_control    0000000180021500 f   libucrt:_fenvutils.obj
 0001:00020648       __acrt_fenv_set_status     0000000180021648 f   libucrt:_fenvutils.obj
 0001:00020768       _lseeki64_nolock           0000000180021768 f   libucrt:lseek.obj
 0001:00020770       _fclose_nolock             0000000180021770 f   libucrt:fclose.obj
 0001:000207f4       fclose                     00000001800217f4 f   libucrt:fclose.obj
 0001:00020858       _query_app_type            0000000180021858 f   libucrt:report_runtime_error.obj
 0001:00020860       __strncnt                  0000000180021860 f   libucrt:strncnt.obj
 0001:00020878       _putwch_nolock             0000000180021878 f   libucrt:putwch.obj
 0001:000208b4       _clearfp                   00000001800218b4 f   libucrt:ieee.obj
 0001:00020924       _control87                 0000000180021924 f   libucrt:ieee.obj
 0001:00020d10       _handle_error              0000000180021d10 f   libucrt:libm_error.obj
 0001:00020e38       _handle_nan                0000000180021e38 f   libucrt:libm_error.obj
 0001:00020e60       __acrt_initialize_fma3     0000000180021e60 f   libucrt:fma3_available.obj
 0001:00020ed0       _log10_special             0000000180021ed0 f   libucrt:log_special.obj
 0001:00020ffc       _close                     0000000180021ffc f   libucrt:close.obj
 0001:000210a0       _close_nolock              00000001800220a0 f   libucrt:close.obj
 0001:00021160       ?__acrt_stdio_free_stream@@YAXV__crt_stdio_stream@@@Z 0000000180022160 f   libucrt:stream.obj
 0001:0002117c       __dcrt_lowio_ensure_console_output_initialized 000000018002217c f   libucrt:initcon.obj
 0001:000211d0       __dcrt_terminate_console_output 00000001800221d0 f   libucrt:initcon.obj
 0001:000211ec       __dcrt_write_console       00000001800221ec f   libucrt:initcon.obj
 0001:000212c0       _get_fpsr                  00000001800222c0 f   libucrt:fpsr.obj
 0001:000212d0       _set_fpsr                  00000001800222d0 f   libucrt:fpsr.obj
 0001:000212da       _fclrf                     00000001800222da f   libucrt:fpsr.obj
 0001:000212ee       _frnd                      00000001800222ee f   libucrt:fpsr.obj
 0001:00021310       _raise_exc                 0000000180022310 f   libucrt:fpexcept.obj
 0001:00021338       _raise_exc_ex              0000000180022338 f   libucrt:fpexcept.obj
 0001:00021648       _set_errno_from_matherr    0000000180022648 f   libucrt:fpexcept.obj
 0001:00021678       _clrfp                     0000000180022678 f   libucrt:fpctrl.obj
 0001:00021698       _ctrlfp                    0000000180022698 f   libucrt:fpctrl.obj
 0001:00021714       _set_statfp                0000000180022714 f   libucrt:fpctrl.obj
 0001:00021734       _statfp                    0000000180022734 f   libucrt:fpctrl.obj
 0001:00021745       IsProcessorFeaturePresent  0000000180022745 f   kernel32:KERNEL32.dll
 0001:00021750       _FindPESection             0000000180022750 f   LIBCMT:pesect.obj
 0001:000217a0       _IsNonwritableInCurrentImage 00000001800227a0 f   LIBCMT:pesect.obj
 0001:000217f0       _ValidateImageBase         00000001800227f0 f   LIBCMT:pesect.obj
 0001:00021820       strrchr                    0000000180022820 f   libvcruntime:strrchr.obj
 0001:00021960       _guard_dispatch_icall_nop  0000000180022960 f   LIBCMT:guard_dispatch.obj
 0001:00021980       _guard_xfg_dispatch_icall_nop 0000000180022980 f   LIBCMT:guard_xfg_dispatch.obj
 0002:00000000       __imp_RegQueryValueExW     0000000180023000     advapi32:ADVAPI32.dll
 0002:00000008       __imp_RegSetValueExW       0000000180023008     advapi32:ADVAPI32.dll
 0002:00000010       __imp_RegQueryInfoKeyW     0000000180023010     advapi32:ADVAPI32.dll
 0002:00000018       __imp_RegOpenKeyExW        0000000180023018     advapi32:ADVAPI32.dll
 0002:00000020       __imp_RegEnumKeyExW        0000000180023020     advapi32:ADVAPI32.dll
 0002:00000028       __imp_RegDeleteValueW      0000000180023028     advapi32:ADVAPI32.dll
 0002:00000030       __imp_RegDeleteKeyW        0000000180023030     advapi32:ADVAPI32.dll
 0002:00000038       __imp_RegCreateKeyExW      0000000180023038     advapi32:ADVAPI32.dll
 0002:00000040       __imp_RegCloseKey          0000000180023040     advapi32:ADVAPI32.dll
 0002:00000048       \177ADVAPI32_NULL_THUNK_DATA 0000000180023048     advapi32:ADVAPI32.dll
 0002:00000050       __imp_GetObjectW           0000000180023050     gdi32:GDI32.dll
 0002:00000058       __imp_SelectObject         0000000180023058     gdi32:GDI32.dll
 0002:00000060       __imp_DeleteObject         0000000180023060     gdi32:GDI32.dll
 0002:00000068       __imp_CreateCompatibleDC   0000000180023068     gdi32:GDI32.dll
 0002:00000070       __imp_BitBlt               0000000180023070     gdi32:GDI32.dll
 0002:00000078       __imp_SetWindowOrgEx       0000000180023078     gdi32:GDI32.dll
 0002:00000080       __imp_SetWindowExtEx       0000000180023080     gdi32:GDI32.dll
 0002:00000088       __imp_SetViewportOrgEx     0000000180023088     gdi32:GDI32.dll
 0002:00000090       __imp_LPtoDP               0000000180023090     gdi32:GDI32.dll
 0002:00000098       __imp_SetMapMode           0000000180023098     gdi32:GDI32.dll
 0002:000000a0       __imp_SaveDC               00000001800230a0     gdi32:GDI32.dll
 0002:000000a8       __imp_RestoreDC            00000001800230a8     gdi32:GDI32.dll
 0002:000000b0       __imp_GetDeviceCaps        00000001800230b0     gdi32:GDI32.dll
 0002:000000b8       __imp_DeleteMetaFile       00000001800230b8     gdi32:GDI32.dll
 0002:000000c0       __imp_DeleteDC             00000001800230c0     gdi32:GDI32.dll
 0002:000000c8       __imp_CreateRectRgnIndirect 00000001800230c8     gdi32:GDI32.dll
 0002:000000d0       __imp_CreateMetaFileW      00000001800230d0     gdi32:GDI32.dll
 0002:000000d8       __imp_CreateDCW            00000001800230d8     gdi32:GDI32.dll
 0002:000000e0       __imp_CloseMetaFile        00000001800230e0     gdi32:GDI32.dll
 0002:000000e8       \177GDI32_NULL_THUNK_DATA  00000001800230e8     gdi32:GDI32.dll
 0002:000000f0       __imp_CloseHandle          00000001800230f0     kernel32:KERNEL32.dll
 0002:000000f8       __imp_SetEvent             00000001800230f8     kernel32:KERNEL32.dll
 0002:00000100       __imp_CreateMutexW         0000000180023100     kernel32:KERNEL32.dll
 0002:00000108       __imp_CreateEventW         0000000180023108     kernel32:KERNEL32.dll
 0002:00000110       __imp_GetCurrentProcessId  0000000180023110     kernel32:KERNEL32.dll
 0002:00000118       __imp_WriteConsoleW        0000000180023118     kernel32:KERNEL32.dll
 0002:00000120       __imp_CreateFileW          0000000180023120     kernel32:KERNEL32.dll
 0002:00000128       __imp_GetConsoleMode       0000000180023128     kernel32:KERNEL32.dll
 0002:00000130       __imp_GetConsoleOutputCP   0000000180023130     kernel32:KERNEL32.dll
 0002:00000138       __imp_WriteFile            0000000180023138     kernel32:KERNEL32.dll
 0002:00000140       __imp_FlushFileBuffers     0000000180023140     kernel32:KERNEL32.dll
 0002:00000148       __imp_SetStdHandle         0000000180023148     kernel32:KERNEL32.dll
 0002:00000150       __imp_GetStringTypeW       0000000180023150     kernel32:KERNEL32.dll
 0002:00000158       __imp_SetFilePointerEx     0000000180023158     kernel32:KERNEL32.dll
 0002:00000160       __imp_FreeEnvironmentStringsW 0000000180023160     kernel32:KERNEL32.dll
 0002:00000168       __imp_lstrcmpiW            0000000180023168     kernel32:KERNEL32.dll
 0002:00000170       __imp_GetCommandLineW      0000000180023170     kernel32:KERNEL32.dll
 0002:00000178       __imp_GetCommandLineA      0000000180023178     kernel32:KERNEL32.dll
 0002:00000180       __imp_GetCPInfo            0000000180023180     kernel32:KERNEL32.dll
 0002:00000188       __imp_GetOEMCP             0000000180023188     kernel32:KERNEL32.dll
 0002:00000190       __imp_GetACP               0000000180023190     kernel32:KERNEL32.dll
 0002:00000198       __imp_IsValidCodePage      0000000180023198     kernel32:KERNEL32.dll
 0002:000001a0       __imp_FindNextFileW        00000001800231a0     kernel32:KERNEL32.dll
 0002:000001a8       __imp_FindFirstFileExW     00000001800231a8     kernel32:KERNEL32.dll
 0002:000001b0       __imp_FindClose            00000001800231b0     kernel32:KERNEL32.dll
 0002:000001b8       __imp_GetFileType          00000001800231b8     kernel32:KERNEL32.dll
 0002:000001c0       __imp_GetStdHandle         00000001800231c0     kernel32:KERNEL32.dll
 0002:000001c8       __imp_LCMapStringW         00000001800231c8     kernel32:KERNEL32.dll
 0002:000001d0       __imp_HeapReAlloc          00000001800231d0     kernel32:KERNEL32.dll
 0002:000001d8       __imp_HeapSize             00000001800231d8     kernel32:KERNEL32.dll
 0002:000001e0       __imp_MulDiv               00000001800231e0     kernel32:KERNEL32.dll
 0002:000001e8       __imp_GlobalLock           00000001800231e8     kernel32:KERNEL32.dll
 0002:000001f0       __imp_GlobalUnlock         00000001800231f0     kernel32:KERNEL32.dll
 0002:000001f8       __imp_GlobalAlloc          00000001800231f8     kernel32:KERNEL32.dll
 0002:00000200       __imp_FindResourceW        0000000180023200     kernel32:KERNEL32.dll
 0002:00000208       __imp_SizeofResource       0000000180023208     kernel32:KERNEL32.dll
 0002:00000210       __imp_LoadResource         0000000180023210     kernel32:KERNEL32.dll
 0002:00000218       __imp_LoadLibraryExW       0000000180023218     kernel32:KERNEL32.dll
 0002:00000220       __imp_GetProcAddress       0000000180023220     kernel32:KERNEL32.dll
 0002:00000228       __imp_GetModuleHandleW     0000000180023228     kernel32:KERNEL32.dll
 0002:00000230       __imp_GetModuleFileNameW   0000000180023230     kernel32:KERNEL32.dll
 0002:00000238       __imp_FreeLibrary          0000000180023238     kernel32:KERNEL32.dll
 0002:00000240       __imp_DisableThreadLibraryCalls 0000000180023240     kernel32:KERNEL32.dll
 0002:00000248       __imp_GetCurrentThreadId   0000000180023248     kernel32:KERNEL32.dll
 0002:00000250       __imp_Sleep                0000000180023250     kernel32:KERNEL32.dll
 0002:00000258       __imp_WaitForSingleObject  0000000180023258     kernel32:KERNEL32.dll
 0002:00000260       __imp_ReleaseMutex         0000000180023260     kernel32:KERNEL32.dll
 0002:00000268       __imp_ResetEvent           0000000180023268     kernel32:KERNEL32.dll
 0002:00000270       __imp_EnterCriticalSection 0000000180023270     kernel32:KERNEL32.dll
 0002:00000278       __imp_LeaveCriticalSection 0000000180023278     kernel32:KERNEL32.dll
 0002:00000280       __imp_SetLastError         0000000180023280     kernel32:KERNEL32.dll
 0002:00000288       __imp_EncodePointer        0000000180023288     kernel32:KERNEL32.dll
 0002:00000290       __imp_DeleteCriticalSection 0000000180023290     kernel32:KERNEL32.dll
 0002:00000298       __imp_InitializeCriticalSectionEx 0000000180023298     kernel32:KERNEL32.dll
 0002:000002a0       __imp_GetLastError         00000001800232a0     kernel32:KERNEL32.dll
 0002:000002a8       __imp_RaiseException       00000001800232a8     kernel32:KERNEL32.dll
 0002:000002b0       __imp_DecodePointer        00000001800232b0     kernel32:KERNEL32.dll
 0002:000002b8       __imp_WideCharToMultiByte  00000001800232b8     kernel32:KERNEL32.dll
 0002:000002c0       __imp_GetEnvironmentStringsW 00000001800232c0     kernel32:KERNEL32.dll
 0002:000002c8       __imp_MultiByteToWideChar  00000001800232c8     kernel32:KERNEL32.dll
 0002:000002d0       __imp_GetModuleHandleExW   00000001800232d0     kernel32:KERNEL32.dll
 0002:000002d8       __imp_ExitProcess          00000001800232d8     kernel32:KERNEL32.dll
 0002:000002e0       __imp_VirtualQuery         00000001800232e0     kernel32:KERNEL32.dll
 0002:000002e8       __imp_VirtualProtect       00000001800232e8     kernel32:KERNEL32.dll
 0002:000002f0       __imp_GetSystemInfo        00000001800232f0     kernel32:KERNEL32.dll
 0002:000002f8       __imp_TlsFree              00000001800232f8     kernel32:KERNEL32.dll
 0002:00000300       __imp_TlsSetValue          0000000180023300     kernel32:KERNEL32.dll
 0002:00000308       __imp_TlsGetValue          0000000180023308     kernel32:KERNEL32.dll
 0002:00000310       __imp_TlsAlloc             0000000180023310     kernel32:KERNEL32.dll
 0002:00000318       __imp_RtlPcToFileHeader    0000000180023318     kernel32:KERNEL32.dll
 0002:00000320       __imp_InterlockedFlushSList 0000000180023320     kernel32:KERNEL32.dll
 0002:00000328       __imp_RtlUnwindEx          0000000180023328     kernel32:KERNEL32.dll
 0002:00000330       __imp_LoadLibraryExA       0000000180023330     kernel32:KERNEL32.dll
 0002:00000338       __imp_VirtualFree          0000000180023338     kernel32:KERNEL32.dll
 0002:00000340       __imp_VirtualAlloc         0000000180023340     kernel32:KERNEL32.dll
 0002:00000348       __imp_FlushInstructionCache 0000000180023348     kernel32:KERNEL32.dll
 0002:00000350       __imp_InterlockedPushEntrySList 0000000180023350     kernel32:KERNEL32.dll
 0002:00000358       __imp_InterlockedPopEntrySList 0000000180023358     kernel32:KERNEL32.dll
 0002:00000360       __imp_GetProcessHeap       0000000180023360     kernel32:KERNEL32.dll
 0002:00000368       __imp_HeapFree             0000000180023368     kernel32:KERNEL32.dll
 0002:00000370       __imp_HeapAlloc            0000000180023370     kernel32:KERNEL32.dll
 0002:00000378       __imp_OutputDebugStringW   0000000180023378     kernel32:KERNEL32.dll
 0002:00000380       __imp_InitializeSListHead  0000000180023380     kernel32:KERNEL32.dll
 0002:00000388       __imp_GetSystemTimeAsFileTime 0000000180023388     kernel32:KERNEL32.dll
 0002:00000390       __imp_QueryPerformanceCounter 0000000180023390     kernel32:KERNEL32.dll
 0002:00000398       __imp_GetStartupInfoW      0000000180023398     kernel32:KERNEL32.dll
 0002:000003a0       __imp_IsDebuggerPresent    00000001800233a0     kernel32:KERNEL32.dll
 0002:000003a8       __imp_IsProcessorFeaturePresent 00000001800233a8     kernel32:KERNEL32.dll
 0002:000003b0       __imp_TerminateProcess     00000001800233b0     kernel32:KERNEL32.dll
 0002:000003b8       __imp_GetCurrentProcess    00000001800233b8     kernel32:KERNEL32.dll
 0002:000003c0       __imp_InitializeCriticalSectionAndSpinCount 00000001800233c0     kernel32:KERNEL32.dll
 0002:000003c8       __imp_WaitForSingleObjectEx 00000001800233c8     kernel32:KERNEL32.dll
 0002:000003d0       __imp_RtlCaptureContext    00000001800233d0     kernel32:KERNEL32.dll
 0002:000003d8       __imp_RtlLookupFunctionEntry 00000001800233d8     kernel32:KERNEL32.dll
 0002:000003e0       __imp_RtlVirtualUnwind     00000001800233e0     kernel32:KERNEL32.dll
 0002:000003e8       __imp_UnhandledExceptionFilter 00000001800233e8     kernel32:KERNEL32.dll
 0002:000003f0       __imp_SetUnhandledExceptionFilter 00000001800233f0     kernel32:KERNEL32.dll
 0002:000003f8       \177KERNEL32_NULL_THUNK_DATA 00000001800233f8     kernel32:KERNEL32.dll
 0002:00000400       __imp_OleCreatePropertyFrame 0000000180023400     oleaut32:OLEAUT32.dll
 0002:00000408       __imp_UnRegisterTypeLib    0000000180023408     oleaut32:OLEAUT32.dll
 0002:00000410       __imp_RegisterTypeLib      0000000180023410     oleaut32:OLEAUT32.dll
 0002:00000418       __imp_LoadRegTypeLib       0000000180023418     oleaut32:OLEAUT32.dll
 0002:00000420       __imp_LoadTypeLib          0000000180023420     oleaut32:OLEAUT32.dll
 0002:00000428       __imp_VarUI4FromStr        0000000180023428     oleaut32:OLEAUT32.dll
 0002:00000430       __imp_VariantInit          0000000180023430     oleaut32:OLEAUT32.dll
 0002:00000438       __imp_SysAllocStringByteLen 0000000180023438     oleaut32:OLEAUT32.dll
 0002:00000440       __imp_SysStringByteLen     0000000180023440     oleaut32:OLEAUT32.dll
 0002:00000448       __imp_VariantChangeType    0000000180023448     oleaut32:OLEAUT32.dll
 0002:00000450       __imp_VariantClear         0000000180023450     oleaut32:OLEAUT32.dll
 0002:00000458       __imp_SysStringLen         0000000180023458     oleaut32:OLEAUT32.dll
 0002:00000460       __imp_SysFreeString        0000000180023460     oleaut32:OLEAUT32.dll
 0002:00000468       __imp_SysAllocStringLen    0000000180023468     oleaut32:OLEAUT32.dll
 0002:00000470       __imp_SysAllocString       0000000180023470     oleaut32:OLEAUT32.dll
 0002:00000478       \177OLEAUT32_NULL_THUNK_DATA 0000000180023478     oleaut32:OLEAUT32.dll
 0002:00000480       __imp_UnregisterClassW     0000000180023480     user32:USER32.dll
 0002:00000488       __imp_PostMessageW         0000000180023488     user32:USER32.dll
 0002:00000490       __imp_DefWindowProcW       0000000180023490     user32:USER32.dll
 0002:00000498       __imp_CallWindowProcW      0000000180023498     user32:USER32.dll
 0002:000004a0       __imp_RegisterClassExW     00000001800234a0     user32:USER32.dll
 0002:000004a8       __imp_GetClassInfoExW      00000001800234a8     user32:USER32.dll
 0002:000004b0       __imp_CreateWindowExW      00000001800234b0     user32:USER32.dll
 0002:000004b8       __imp_IsWindow             00000001800234b8     user32:USER32.dll
 0002:000004c0       __imp_IsChild              00000001800234c0     user32:USER32.dll
 0002:000004c8       __imp_DestroyWindow        00000001800234c8     user32:USER32.dll
 0002:000004d0       __imp_ShowWindow           00000001800234d0     user32:USER32.dll
 0002:000004d8       __imp_SetWindowPos         00000001800234d8     user32:USER32.dll
 0002:000004e0       __imp_CharNextW            00000001800234e0     user32:USER32.dll
 0002:000004e8       __imp_SetFocus             00000001800234e8     user32:USER32.dll
 0002:000004f0       __imp_LoadBitmapW          00000001800234f0     user32:USER32.dll
 0002:000004f8       __imp_RegisterClassW       00000001800234f8     user32:USER32.dll
 0002:00000500       __imp_PeekMessageW         0000000180023500     user32:USER32.dll
 0002:00000508       __imp_LoadCursorW          0000000180023508     user32:USER32.dll
 0002:00000510       __imp_GetParent            0000000180023510     user32:USER32.dll
 0002:00000518       __imp_SetWindowLongPtrW    0000000180023518     user32:USER32.dll
 0002:00000520       __imp_GetWindowLongPtrW    0000000180023520     user32:USER32.dll
 0002:00000528       __imp_PtInRect             0000000180023528     user32:USER32.dll
 0002:00000530       __imp_EqualRect            0000000180023530     user32:USER32.dll
 0002:00000538       __imp_OffsetRect           0000000180023538     user32:USER32.dll
 0002:00000540       __imp_UnionRect            0000000180023540     user32:USER32.dll
 0002:00000548       __imp_IntersectRect        0000000180023548     user32:USER32.dll
 0002:00000550       __imp_GetClientRect        0000000180023550     user32:USER32.dll
 0002:00000558       __imp_InvalidateRect       0000000180023558     user32:USER32.dll
 0002:00000560       __imp_SetWindowRgn         0000000180023560     user32:USER32.dll
 0002:00000568       __imp_EndPaint             0000000180023568     user32:USER32.dll
 0002:00000570       __imp_BeginPaint           0000000180023570     user32:USER32.dll
 0002:00000578       __imp_ReleaseDC            0000000180023578     user32:USER32.dll
 0002:00000580       __imp_GetDC                0000000180023580     user32:USER32.dll
 0002:00000588       __imp_GetKeyState          0000000180023588     user32:USER32.dll
 0002:00000590       __imp_GetFocus             0000000180023590     user32:USER32.dll
 0002:00000598       \177USER32_NULL_THUNK_DATA 0000000180023598     user32:USER32.dll
 0002:000005a0       __imp_CoCreateInstance     00000001800235a0     ole32:ole32.dll
 0002:000005a8       __imp_StringFromGUID2      00000001800235a8     ole32:ole32.dll
 0002:000005b0       __imp_CoTaskMemAlloc       00000001800235b0     ole32:ole32.dll
 0002:000005b8       __imp_CoTaskMemFree        00000001800235b8     ole32:ole32.dll
 0002:000005c0       __imp_ReadClassStm         00000001800235c0     ole32:ole32.dll
 0002:000005c8       __imp_WriteClassStm        00000001800235c8     ole32:ole32.dll
 0002:000005d0       __imp_CreateDataAdviseHolder 00000001800235d0     ole32:ole32.dll
 0002:000005d8       __imp_OleSaveToStream      00000001800235d8     ole32:ole32.dll
 0002:000005e0       __imp_CreateOleAdviseHolder 00000001800235e0     ole32:ole32.dll
 0002:000005e8       __imp_OleRegGetUserType    00000001800235e8     ole32:ole32.dll
 0002:000005f0       __imp_OleRegGetMiscStatus  00000001800235f0     ole32:ole32.dll
 0002:000005f8       __imp_OleRegEnumVerbs      00000001800235f8     ole32:ole32.dll
 0002:00000600       __imp_CLSIDFromProgID      0000000180023600     ole32:ole32.dll
 0002:00000608       __imp_CoTaskMemRealloc     0000000180023608     ole32:ole32.dll
 0002:00000610       \177ole32_NULL_THUNK_DATA  0000000180023610     ole32:ole32.dll
 0002:00000618       __guard_check_icall_fptr   0000000180023618     LIBCMT:guard_support.obj
 0002:00000620       __guard_xfg_check_icall_fptr 0000000180023620     LIBCMT:guard_support.obj
 0002:00000628       __guard_dispatch_icall_fptr 0000000180023628     LIBCMT:guard_support.obj
 0002:00000630       __guard_xfg_dispatch_icall_fptr 0000000180023630     LIBCMT:guard_support.obj
 0002:00000638       __guard_xfg_table_dispatch_icall_fptr 0000000180023638     LIBCMT:guard_support.obj
 0002:00000640       __xc_a                     0000000180023640     LIBCMT:initializers.obj
 0002:00000670       __xc_z                     0000000180023670     LIBCMT:initializers.obj
 0002:00000678       __xi_a                     0000000180023678     LIBCMT:initializers.obj
 0002:00000688       __acrt_stdio_initializer   0000000180023688     libucrt:stdio_initializer.obj
 0002:00000690       __acrt_multibyte_initializer 0000000180023690     libucrt:multibyte_initializer.obj
 0002:00000698       __acrt_tran_fma3_initializer 0000000180023698     libucrt:fma3_initializer.obj
 0002:000006a0       __xi_z                     00000001800236a0     LIBCMT:initializers.obj
 0002:000006a8       __xl_a                     00000001800236a8     LIBCMT:tlssup.obj
 0002:000006b0       __xl_z                     00000001800236b0     LIBCMT:tlssup.obj
 0002:000006b8       __xp_a                     00000001800236b8     LIBCMT:initializers.obj
 0002:000006c0       __acrt_locale_terminator   00000001800236c0     libucrt:locale_initializer.obj
 0002:000006c8       __dcrt_console_output_terminator 00000001800236c8     libucrt:console_output_initializer.obj
 0002:000006d0       __acrt_stdio_terminator    00000001800236d0     libucrt:stdio_initializer.obj
 0002:000006d8       __xp_z                     00000001800236d8     LIBCMT:initializers.obj
 0002:000006e0       __xt_a                     00000001800236e0     LIBCMT:initializers.obj
 0002:000006e8       __xt_z                     00000001800236e8     LIBCMT:initializers.obj
 0002:000006f0       ??_C@_13HADIAKP@?$AAS@     00000001800236f0     OposVariant.obj
 0002:000006f4       ??_C@_13LHMFKAAD@?$AAM@    00000001800236f4     OposVariant.obj
 0002:000006f8       ??_C@_13MKMNOPIJ@?$AAD@    00000001800236f8     OposVariant.obj
 0002:000006fc       ??_C@_13OPKGLAFF@?$AAB@    00000001800236fc     OposVariant.obj
 0002:00000700       ??_C@_17LLMMEOJD@?$AAV?$AAa?$AAl@ 0000000180023700     OposVariant.obj
 0002:00000708       ??_C@_1BI@JFAIJMHL@?$AAF?$AAo?$AAr?$AAc?$AAe?$AAR?$AAe?$AAm?$AAo?$AAv?$AAe@ 0000000180023708     OposVariant.obj
 0002:00000720       ??_C@_1BC@GCKHIPE@?$AAN?$AAo?$AAR?$AAe?$AAm?$AAo?$AAv?$AAe@ 0000000180023720     OposVariant.obj
 0002:00000738       ??_C@_1O@JDLOHAN@?$AAD?$AAe?$AAl?$AAe?$AAt?$AAe@ 0000000180023738     OposVariant.obj
 0002:00000748       ??_C@_11LOCGONAA@@         0000000180023748     OposVariant.obj
 0002:00000750       IID_IOPOSLineDisplay_1_6   0000000180023750     LineDisplay.obj
 0002:00000760       IID_IOPOSLineDisplay_1_7   0000000180023760     LineDisplay.obj
 0002:00000770       IID_IOPOSLineDisplay_1_8   0000000180023770     LineDisplay.obj
 0002:00000780       IID_IOPOSLineDisplay_1_9   0000000180023780     LineDisplay.obj
 0002:00000790       IID_IOPOSLineDisplay       0000000180023790     LineDisplay.obj
 0002:000007a0       LIBID_OposLineDisplay_CCO  00000001800237a0     LineDisplay.obj
 0002:000007b0       DIID__IOPOSLineDisplayEvents 00000001800237b0     LineDisplay.obj
 0002:000007c0       CLSID_OPOSLineDisplay      00000001800237c0     LineDisplay.obj
 0002:000007d0       _GUID_00000114_0000_0000_c000_000000000046 00000001800237d0     LineDisplay.obj
 0002:000007e0       ??_C@_1BK@BIGILECK@?$AAA?$AAd?$AAv?$AAa?$AAp?$AAi?$AA3?$AA2?$AA?4?$AAd?$AAl?$AAl@ 00000001800237e0     LineDisplay.obj
 0002:00000800       ??_C@_0BI@MNCFCPFK@RegCreateKeyTransactedW@ 0000000180023800     LineDisplay.obj
 0002:00000818       _GUID_b196b287_bab4_101a_b69c_00aa00341d07 0000000180023818     LineDisplay.obj
 0002:00000828       _GUID_b196b285_bab4_101a_b69c_00aa00341d07 0000000180023828     LineDisplay.obj
 0002:00000838       _GUID_a6bc3ac0_dbaa_11ce_9de3_00aa004bb851 0000000180023838     LineDisplay.obj
 0002:00000848       _GUID_0000010c_0000_0000_c000_000000000046 0000000180023848     LineDisplay.obj
 0002:00000858       _GUID_00000146_0000_0000_c000_000000000046 0000000180023858     LineDisplay.obj
 0002:00000870       ?_entries@?1??_GetEntries@COPOSLineDisplay@@SAPEBU_ATL_INTMAP_ENTRY@ATL@@XZ@4QBU34@B 0000000180023870     LineDisplay.obj
 0002:00000af8       _GUID_922eada0_3424_11cf_b670_00aa004cd6d8 0000000180023af8     LineDisplay.obj
 0002:00000b08       _GUID_9c2cad80_3424_11cf_b670_00aa004cd6d8 0000000180023b08     LineDisplay.obj
 0002:00000b18       _GUID_00000119_0000_0000_c000_000000000046 0000000180023b18     LineDisplay.obj
 0002:00000b28       _GUID_b196b289_bab4_101a_b69c_00aa00341d07 0000000180023b28     LineDisplay.obj
 0002:00000b38       _GUID_cf51ed10_62fe_11cf_bf86_00a0c9034836 0000000180023b38     LineDisplay.obj
 0002:00000b48       _GUID_0000010a_0000_0000_c000_000000000046 0000000180023b48     LineDisplay.obj
 0002:00000b58       _GUID_b196b283_bab4_101a_b69c_00aa00341d07 0000000180023b58     LineDisplay.obj
 0002:00000b68       _GUID_cb5bdc81_93c1_11cf_8f20_00805f2cd064 0000000180023b68     LineDisplay.obj
 0002:00000b80       ?pPropMap@?1??GetPropertyMap@COPOSLineDisplay@@SAPEBUATL_PROPMAP_ENTRY@ATL@@XZ@4QBU34@B 0000000180023b80     LineDisplay.obj
 0002:00000c28       ??_C@_17DGDADEHL@?$AA_?$AAc?$AAx@ 0000000180023c28     LineDisplay.obj
 0002:00000c30       ??_C@_17IOIMFDBO@?$AA_?$AAc?$AAy@ 0000000180023c30     LineDisplay.obj
 0002:00000c38       _GUID_00000117_0000_0000_c000_000000000046 0000000180023c38     LineDisplay.obj
 0002:00000c48       ??_7CComModule@ATL@@6B@    0000000180023c48     LineDisplay.obj
 0002:00000c98       ??_7?$CComObjectCached@VCComClassFactory@ATL@@@ATL@@6B@ 0000000180023c98     LineDisplay.obj
 0002:00000cc8       ??_C@_1CE@PGFMOFKI@?$AAS?$AAt?$AAa?$AAt?$AAu?$AAs?$AAU?$AAp?$AAd?$AAa?$AAt?$AAe?$AAE?$AAv?$AAe@ 0000000180023cc8     LineDisplay.obj
 0002:00000cf0       ??_C@_1BM@CBGEBBBJ@?$AAD?$AAi?$AAr?$AAe?$AAc?$AAt?$AAI?$AAO?$AAE?$AAv?$AAe?$AAn?$AAt@ 0000000180023cf0     LineDisplay.obj
 0002:00000d10       _GUID_b196b286_bab4_101a_b69c_00aa00341d07 0000000180023d10     LineDisplay.obj
 0002:00000d20       _GUID_00000000_0000_0000_c000_000000000046 0000000180023d20     LineDisplay.obj
 0002:00000d30       _GUID_00020400_0000_0000_c000_000000000046 0000000180023d30     LineDisplay.obj
 0002:00000d40       ??_C@_1BC@ENICKDH@?$AAC?$AAo?$AAn?$AAt?$AAe?$AAn?$AAt?$AAs@ 0000000180023d40     LineDisplay.obj
 0002:00000d58       ??_7?$CComObject@V?$CComEnum@UIEnumConnectionPoints@@$1?_GUID_b196b285_bab4_101a_b69c_00aa00341d07@@3U__s_GUID@@BPEAUIConnectionPoint@@V?$_CopyInterface@UIConnectionPoint@@@ATL@@VCComSingleThreadModel@6@@ATL@@@ATL@@6B@ 0000000180023d58     LineDisplay.obj
 0002:00000d98       _GUID_0000010e_0000_0000_c000_000000000046 0000000180023d98     LineDisplay.obj
 0002:00000da8       _GUID_b196b288_bab4_101a_b69c_00aa00341d07 0000000180023da8     LineDisplay.obj
 0002:00000db8       ??_C@_1M@KANJNLFF@?$AAC?$AAL?$AAS?$AAI?$AAD@ 0000000180023db8     LineDisplay.obj
 0002:00000dc8       ??_C@_1M@EJNEECMJ@?$AAA?$AAp?$AAp?$AAI?$AAD@ 0000000180023dc8     LineDisplay.obj
 0002:00000dd8       _GUID_00000113_0000_0000_c000_000000000046 0000000180023dd8     LineDisplay.obj
 0002:00000df0       ?rgszNeverDelete@CRegParser@ATL@@1QBQEB_WB 0000000180023df0     LineDisplay.obj
 0002:00000e50       _GUID_1c2056cc_5ef4_101b_8bc8_00aa003e3b29 0000000180023e50     LineDisplay.obj
 0002:00000e60       ??_7CRegObject@ATL@@6B@    0000000180023e60     LineDisplay.obj
 0002:00000e90       _GUID_00000112_0000_0000_c000_000000000046 0000000180023e90     LineDisplay.obj
 0002:00000ea0       _GUID_3af24292_0c96_11ce_a0cf_00aa00600ab8 0000000180023ea0     LineDisplay.obj
 0002:00000eb0       _GUID_00000127_0000_0000_c000_000000000046 0000000180023eb0     LineDisplay.obj
 0002:00000ec0       _GUID_0000010d_0000_0000_c000_000000000046 0000000180023ec0     LineDisplay.obj
 0002:00000ed0       ??_C@_1CK@OEKPKBNA@?$AAC?$AAo?$AAm?$AAp?$AAo?$AAn?$AAe?$AAn?$AAt?$AA?5?$AAC?$AAa?$AAt?$AAe?$AAg@ 0000000180023ed0     LineDisplay.obj
 0002:00000f00       ??_C@_1BC@NKMMNMGL@?$AAF?$AAi?$AAl?$AAe?$AAT?$AAy?$AAp?$AAe@ 0000000180023f00     LineDisplay.obj
 0002:00000f18       ??_C@_1BE@EKPAFMCP@?$AAI?$AAn?$AAt?$AAe?$AAr?$AAf?$AAa?$AAc?$AAe@ 0000000180023f18     LineDisplay.obj
 0002:00000f30       ??_C@_1BC@MAICEHGI@?$AAH?$AAa?$AAr?$AAd?$AAw?$AAa?$AAr?$AAe@ 0000000180023f30     LineDisplay.obj
 0002:00000f48       ??_C@_19HLLLM@?$AAM?$AAi?$AAm?$AAe@ 0000000180023f48     LineDisplay.obj
 0002:00000f58       ??_C@_17OMAOINJK@?$AAS?$AAA?$AAM@ 0000000180023f58     LineDisplay.obj
 0002:00000f60       ??_C@_1BC@IBECJAAI@?$AAS?$AAE?$AAC?$AAU?$AAR?$AAI?$AAT?$AAY@ 0000000180023f60     LineDisplay.obj
 0002:00000f78       ??_C@_1O@GBFINDKL@?$AAS?$AAY?$AAS?$AAT?$AAE?$AAM@ 0000000180023f78     LineDisplay.obj
 0002:00000f88       ??_C@_1BC@EAHCMADO@?$AAS?$AAo?$AAf?$AAt?$AAw?$AAa?$AAr?$AAe@ 0000000180023f88     LineDisplay.obj
 0002:00000fa0       ??_C@_1BA@JIHHIEDE@?$AAT?$AAy?$AAp?$AAe?$AAL?$AAi?$AAb@ 0000000180023fa0     LineDisplay.obj
 0002:00000fb0       ?map@?1??HKeyFromString@CRegParser@ATL@@KAPEAUHKEY__@@PEA_W@Z@4QBUkeymap@?1??123@KAPEAU4@0@Z@B 0000000180023fb0     LineDisplay.obj
 0002:00001090       ??_C@_19NCHLBIN@?$AAH?$AAK?$AAC?$AAR@ 0000000180024090     LineDisplay.obj
 0002:000010a0       ??_C@_19JAPAIJDE@?$AAH?$AAK?$AAC?$AAU@ 00000001800240a0     LineDisplay.obj
 0002:000010b0       ??_C@_19PEALEEJB@?$AAH?$AAK?$AAL?$AAM@ 00000001800240b0     LineDisplay.obj
 0002:000010c0       ??_C@_17PJOJPMPB@?$AAH?$AAK?$AAU@ 00000001800240c0     LineDisplay.obj
 0002:000010c8       ??_C@_19PNBHMJPL@?$AAH?$AAK?$AAP?$AAD@ 00000001800240c8     LineDisplay.obj
 0002:000010d8       ??_C@_19GFFAIJHG@?$AAH?$AAK?$AAD?$AAD@ 00000001800240d8     LineDisplay.obj
 0002:000010e8       ??_C@_19OFICIBHH@?$AAH?$AAK?$AAC?$AAC@ 00000001800240e8     LineDisplay.obj
 0002:000010f8       ??_C@_1CE@PACHPJFI@?$AAH?$AAK?$AAE?$AAY?$AA_?$AAC?$AAL?$AAA?$AAS?$AAS?$AAE?$AAS?$AA_?$AAR?$AAO@ 00000001800240f8     LineDisplay.obj
 0002:00001120       ??_C@_1CE@HLHNCBPM@?$AAH?$AAK?$AAE?$AAY?$AA_?$AAC?$AAU?$AAR?$AAR?$AAE?$AAN?$AAT?$AA_?$AAU?$AAS@ 0000000180024120     LineDisplay.obj
 0002:00001148       ??_C@_1CG@GFBEANJL@?$AAH?$AAK?$AAE?$AAY?$AA_?$AAL?$AAO?$AAC?$AAA?$AAL?$AA_?$AAM?$AAA?$AAC?$AAH@ 0000000180024148     LineDisplay.obj
 0002:00001170       ??_C@_1BG@BGODANIO@?$AAH?$AAK?$AAE?$AAY?$AA_?$AAU?$AAS?$AAE?$AAR?$AAS@ 0000000180024170     LineDisplay.obj
 0002:00001188       ??_C@_1CM@KHNNAOIC@?$AAH?$AAK?$AAE?$AAY?$AA_?$AAP?$AAE?$AAR?$AAF?$AAO?$AAR?$AAM?$AAA?$AAN?$AAC@ 0000000180024188     LineDisplay.obj
 0002:000011b8       ??_C@_1BM@HAGMMHIA@?$AAH?$AAK?$AAE?$AAY?$AA_?$AAD?$AAY?$AAN?$AA_?$AAD?$AAA?$AAT?$AAA@ 00000001800241b8     LineDisplay.obj
 0002:000011d8       ??_C@_1CI@BBJOACGG@?$AAH?$AAK?$AAE?$AAY?$AA_?$AAC?$AAU?$AAR?$AAR?$AAE?$AAN?$AAT?$AA_?$AAC?$AAO@ 00000001800241d8     LineDisplay.obj
 0002:00001200       _GUID_00000109_0000_0000_c000_000000000046 0000000180024200     LineDisplay.obj
 0002:00001210       _GUID_7fd52380_4e07_101b_ae2d_08002b2ec713 0000000180024210     LineDisplay.obj
 0002:00001220       ??_C@_1M@PPPPCDEP@?$AAA?$AAP?$AAP?$AAI?$AAD@ 0000000180024220     LineDisplay.obj
 0002:00001230       ??_C@_1EA@NHKLICFA@?$AAH?$AAK?$AAC?$AAU?$AA?$AN?$AA?6?$AA?$HL?$AA?7?$AAS?$AAo?$AAf?$AAt?$AAw?$AAa?$AAr@ 0000000180024230     LineDisplay.obj
 0002:00001270       ??_C@_1BE@LJOLIMEM@?$AA?$AN?$AA?6?$AA?7?$AA?$HN?$AA?$AN?$AA?6?$AA?$HN?$AA?$AN?$AA?6@ 0000000180024270     LineDisplay.obj
 0002:00001288       ??_C@_1O@MNLDABAF@?$AAM?$AAo?$AAd?$AAu?$AAl?$AAe@ 0000000180024288     LineDisplay.obj
 0002:00001298       ??_C@_1BG@JBACFMF@?$AAM?$AAo?$AAd?$AAu?$AAl?$AAe?$AA_?$AAR?$AAa?$AAw@ 0000000180024298     LineDisplay.obj
 0002:000012b0       ??_C@_1BC@KAILKFFG@?$AAR?$AAE?$AAG?$AAI?$AAS?$AAT?$AAR?$AAY@ 00000001800242b0     LineDisplay.obj
 0002:000012c8       ??_7?$CComContainedObject@VCOPOSLineDisplay@@@ATL@@6B?$IDispatchImpl@UIOPOSLineDisplay@@$1?IID_IOPOSLineDisplay@@3U_GUID@@B$1?LIBID_OposLineDisplay_CCO@@3U3@B$00$0A@VCComTypeInfoHolder@ATL@@@1@@ 00000001800242c8     LineDisplay.obj
 0002:00001690       ??_7?$CComContainedObject@VCOPOSLineDisplay@@@ATL@@6BCComControlBase@1@@ 0000000180024690     LineDisplay.obj
 0002:000016b8       ??_7?$CComContainedObject@VCOPOSLineDisplay@@@ATL@@6B?$CWindowImpl@VCOPOSLineDisplay@@VCWindow@ATL@@V?$CWinTraits@$0FGAAAAAA@$0A@@3@@1@@ 00000001800246b8     LineDisplay.obj
 0002:000016d8       ??_7?$CComContainedObject@VCOPOSLineDisplay@@@ATL@@6B?$IPersistStreamInitImpl@VCOPOSLineDisplay@@@1@@ 00000001800246d8     LineDisplay.obj
 0002:00001720       ??_7?$CComContainedObject@VCOPOSLineDisplay@@@ATL@@6B?$IOleControlImpl@VCOPOSLineDisplay@@@1@@ 0000000180024720     LineDisplay.obj
 0002:00001758       ??_7?$CComContainedObject@VCOPOSLineDisplay@@@ATL@@6B?$IOleObjectImpl@VCOPOSLineDisplay@@@1@@ 0000000180024758     LineDisplay.obj
 0002:00001818       ??_7?$CComContainedObject@VCOPOSLineDisplay@@@ATL@@6B?$IOleInPlaceActiveObjectImpl@VCOPOSLineDisplay@@@1@@ 0000000180024818     LineDisplay.obj
 0002:00001868       ??_7?$CComContainedObject@VCOPOSLineDisplay@@@ATL@@6B?$IViewObjectExImpl@VCOPOSLineDisplay@@@1@@ 0000000180024868     LineDisplay.obj
 0002:000018e0       ??_7?$CComContainedObject@VCOPOSLineDisplay@@@ATL@@6B?$IOleInPlaceObjectWindowlessImpl@VCOPOSLineDisplay@@@1@@ 00000001800248e0     LineDisplay.obj
 0002:00001938       ??_7?$CComContainedObject@VCOPOSLineDisplay@@@ATL@@6B?$IConnectionPointContainerImpl@VCOPOSLineDisplay@@@1@@ 0000000180024938     LineDisplay.obj
 0002:00001960       ??_7?$CComContainedObject@VCOPOSLineDisplay@@@ATL@@6B?$IPersistStorageImpl@VCOPOSLineDisplay@@@1@@ 0000000180024960     LineDisplay.obj
 0002:000019b0       ??_7?$CComContainedObject@VCOPOSLineDisplay@@@ATL@@6B?$ISpecifyPropertyPagesImpl@VCOPOSLineDisplay@@@1@@ 00000001800249b0     LineDisplay.obj
 0002:000019d0       ??_7?$CComContainedObject@VCOPOSLineDisplay@@@ATL@@6B?$IQuickActivateImpl@VCOPOSLineDisplay@@@1@@ 00000001800249d0     LineDisplay.obj
 0002:00001a00       ??_7?$CComContainedObject@VCOPOSLineDisplay@@@ATL@@6B?$IDataObjectImpl@VCOPOSLineDisplay@@@1@@ 0000000180024a00     LineDisplay.obj
 0002:00001a60       ??_7?$CComContainedObject@VCOPOSLineDisplay@@@ATL@@6B?$IProvideClassInfo2Impl@$1?CLSID_OPOSLineDisplay@@3U_GUID@@B$1?DIID__IOPOSLineDisplayEvents@@3U2@B$1?LIBID_OposLineDisplay_CCO@@3U2@B$00$0A@VCComTypeInfoHolder@ATL@@@1@@ 0000000180024a60     LineDisplay.obj
 0002:00001a88       ??_7?$CComContainedObject@VCOPOSLineDisplay@@@ATL@@6B?$IObjectSafetyImpl@VCOPOSLineDisplay@@$02@1@@ 0000000180024a88     LineDisplay.obj
 0002:00001ab8       ??_7?$CComContainedObject@VCOPOSLineDisplay@@@ATL@@6B?$IPropertyNotifySinkCP@VCOPOSLineDisplay@@VCComDynamicUnkArray@ATL@@@1@@ 0000000180024ab8     LineDisplay.obj
 0002:00001af8       ??_7?$CComContainedObject@VCOPOSLineDisplay@@@ATL@@6B?$CProxy_IOPOSEvents@VCOPOSLineDisplay@@@@@ 0000000180024af8     LineDisplay.obj
 0002:00001b38       ??_7?$CComAggObject@VCOPOSLineDisplay@@@ATL@@6B@ 0000000180024b38     LineDisplay.obj
 0002:00001b58       ??_7?$CComObject@VCOPOSLineDisplay@@@ATL@@6B?$IDispatchImpl@UIOPOSLineDisplay@@$1?IID_IOPOSLineDisplay@@3U_GUID@@B$1?LIBID_OposLineDisplay_CCO@@3U3@B$00$0A@VCComTypeInfoHolder@ATL@@@1@@ 0000000180024b58     LineDisplay.obj
 0002:00001f20       ??_7?$CComObject@VCOPOSLineDisplay@@@ATL@@6BCComControlBase@1@@ 0000000180024f20     LineDisplay.obj
 0002:00001f48       ??_7?$CComObject@VCOPOSLineDisplay@@@ATL@@6B?$CWindowImpl@VCOPOSLineDisplay@@VCWindow@ATL@@V?$CWinTraits@$0FGAAAAAA@$0A@@3@@1@@ 0000000180024f48     LineDisplay.obj
 0002:00001f68       ??_7?$CComObject@VCOPOSLineDisplay@@@ATL@@6B?$IPersistStreamInitImpl@VCOPOSLineDisplay@@@1@@ 0000000180024f68     LineDisplay.obj
 0002:00001fb0       ??_7?$CComObject@VCOPOSLineDisplay@@@ATL@@6B?$IOleControlImpl@VCOPOSLineDisplay@@@1@@ 0000000180024fb0     LineDisplay.obj
 0002:00001fe8       ??_7?$CComObject@VCOPOSLineDisplay@@@ATL@@6B?$IOleObjectImpl@VCOPOSLineDisplay@@@1@@ 0000000180024fe8     LineDisplay.obj
 0002:000020a8       ??_7?$CComObject@VCOPOSLineDisplay@@@ATL@@6B?$IOleInPlaceActiveObjectImpl@VCOPOSLineDisplay@@@1@@ 00000001800250a8     LineDisplay.obj
 0002:000020f8       ??_7?$CComObject@VCOPOSLineDisplay@@@ATL@@6B?$IViewObjectExImpl@VCOPOSLineDisplay@@@1@@ 00000001800250f8     LineDisplay.obj
 0002:00002170       ??_7?$CComObject@VCOPOSLineDisplay@@@ATL@@6B?$IOleInPlaceObjectWindowlessImpl@VCOPOSLineDisplay@@@1@@ 0000000180025170     LineDisplay.obj
 0002:000021c8       ??_7?$CComObject@VCOPOSLineDisplay@@@ATL@@6B?$IConnectionPointContainerImpl@VCOPOSLineDisplay@@@1@@ 00000001800251c8     LineDisplay.obj
 0002:000021f0       ??_7?$CComObject@VCOPOSLineDisplay@@@ATL@@6B?$IPersistStorageImpl@VCOPOSLineDisplay@@@1@@ 00000001800251f0     LineDisplay.obj
 0002:00002240       ??_7?$CComObject@VCOPOSLineDisplay@@@ATL@@6B?$ISpecifyPropertyPagesImpl@VCOPOSLineDisplay@@@1@@ 0000000180025240     LineDisplay.obj
 0002:00002260       ??_7?$CComObject@VCOPOSLineDisplay@@@ATL@@6B?$IQuickActivateImpl@VCOPOSLineDisplay@@@1@@ 0000000180025260     LineDisplay.obj
 0002:00002290       ??_7?$CComObject@VCOPOSLineDisplay@@@ATL@@6B?$IDataObjectImpl@VCOPOSLineDisplay@@@1@@ 0000000180025290     LineDisplay.obj
 0002:000022f0       ??_7?$CComObject@VCOPOSLineDisplay@@@ATL@@6B?$IProvideClassInfo2Impl@$1?CLSID_OPOSLineDisplay@@3U_GUID@@B$1?DIID__IOPOSLineDisplayEvents@@3U2@B$1?LIBID_OposLineDisplay_CCO@@3U2@B$00$0A@VCComTypeInfoHolder@ATL@@@1@@ 00000001800252f0     LineDisplay.obj
 0002:00002318       ??_7?$CComObject@VCOPOSLineDisplay@@@ATL@@6B?$IObjectSafetyImpl@VCOPOSLineDisplay@@$02@1@@ 0000000180025318     LineDisplay.obj
 0002:00002348       ??_7?$CComObject@VCOPOSLineDisplay@@@ATL@@6B?$IPropertyNotifySinkCP@VCOPOSLineDisplay@@VCComDynamicUnkArray@ATL@@@1@@ 0000000180025348     LineDisplay.obj
 0002:00002388       ??_7?$CComObject@VCOPOSLineDisplay@@@ATL@@6B?$CProxy_IOPOSEvents@VCOPOSLineDisplay@@@@@ 0000000180025388     LineDisplay.obj
 0002:000023c8       ??_C@_1O@GBFKGNEO@?$AAA?$AAT?$AAL?$AA?3?$AA?$CF?$AAp@ 00000001800253c8     LineDisplay.obj
 0002:000023d8       ??_C@_1BA@PICGEGJB@?$AAD?$AAI?$AAS?$AAP?$AAL?$AAA?$AAY@ 00000001800253d8     LineDisplay.obj
 0002:000023e8       _GUID_9bfbbc02_eff1_101a_84ed_00aa00341d07 00000001800253e8     LineDisplay.obj
 0002:000023f8       ?_entries@?1??_GetEntries@?$CComEnum@UIEnumConnectionPoints@@$1?_GUID_b196b285_bab4_101a_b69c_00aa00341d07@@3U__s_GUID@@BPEAUIConnectionPoint@@V?$_CopyInterface@UIConnectionPoint@@@ATL@@VCComSingleThreadModel@6@@ATL@@SAPEBU_ATL_INTMAP_ENTRY@3@XZ@4QBU43@B 00000001800253f8     LineDisplay.obj
 0002:00002428       _GUID_b196b284_bab4_101a_b69c_00aa00341d07 0000000180025428     LineDisplay.obj
 0002:00002438       _GUID_00020412_0000_0000_c000_000000000046 0000000180025438     LineDisplay.obj
 0002:00002448       _GUID_00020401_0000_0000_c000_000000000046 0000000180025448     LineDisplay.obj
 0002:00002458       _GUID_55980ba0_35aa_11cf_b671_00aa004cd6d8 0000000180025458     LineDisplay.obj
 0002:00002468       _GUID_b196b28b_bab4_101a_b69c_00aa00341d07 0000000180025468     LineDisplay.obj
 0002:00002478       ??_7?$CComObject@V?$CComEnum@UIEnumConnections@@$1?_GUID_b196b287_bab4_101a_b69c_00aa00341d07@@3U__s_GUID@@BUtagCONNECTDATA@@V?$_Copy@UtagCONNECTDATA@@@ATL@@VCComSingleThreadModel@6@@ATL@@@ATL@@6B@ 0000000180025478     LineDisplay.obj
 0002:000024b8       ?_entries@?1??_GetEntries@?$CComEnum@UIEnumConnections@@$1?_GUID_b196b287_bab4_101a_b69c_00aa00341d07@@3U__s_GUID@@BUtagCONNECTDATA@@V?$_Copy@UtagCONNECTDATA@@@ATL@@VCComSingleThreadModel@6@@ATL@@SAPEBU_ATL_INTMAP_ENTRY@3@XZ@4QBU43@B 00000001800254b8     LineDisplay.obj
 0002:000024e8       ??_7CComClassFactory@ATL@@6B@ 00000001800254e8     LineDisplay.obj
 0002:00002518       ?_entries@?1??_GetEntries@CComClassFactory@ATL@@SAPEBU_ATL_INTMAP_ENTRY@3@XZ@4QBU43@B 0000000180025518     LineDisplay.obj
 0002:00002548       _GUID_00000001_0000_0000_c000_000000000046 0000000180025548     LineDisplay.obj
 0002:00002558       ??_C@_0BG@EKFFMJIO@RegOpenKeyTransactedW@ 0000000180025558     LineDisplay.obj
 0002:00002570       ??_C@_0BI@HAKLOOGP@RegDeleteKeyTransactedW@ 0000000180025570     LineDisplay.obj
 0002:00002588       ??_C@_0BA@LILAPHGE@RegDeleteKeyExW@ 0000000180025588     LineDisplay.obj
 0002:00002598       ??_C@_19ILOCMLCJ@?$AA?4?$AAt?$AAl?$AAb@ 0000000180025598     LineDisplay.obj
 0002:000025a8       _GUID_0002e012_0000_0000_c000_000000000046 00000001800255a8     LineDisplay.obj
 0002:000025b8       ??_C@_1O@FHBGLCIO@?$AAC?$AAL?$AAS?$AAI?$AAD?$AA?2@ 00000001800255b8     LineDisplay.obj
 0002:000025c8       ??_C@_1CK@IFBKBFAA@?$AA?2?$AAR?$AAe?$AAq?$AAu?$AAi?$AAr?$AAe?$AAd?$AA?5?$AAC?$AAa?$AAt?$AAe?$AAg@ 00000001800255c8     LineDisplay.obj
 0002:000025f8       ??_C@_1DA@BIHALFED@?$AA?2?$AAI?$AAm?$AAp?$AAl?$AAe?$AAm?$AAe?$AAn?$AAt?$AAe?$AAd?$AA?5?$AAC?$AAa@ 00000001800255f8     LineDisplay.obj
 0002:00002628       ??_C@_1BK@EDKOLFBJ@?$AAO?$AAL?$AAE?$AAA?$AAU?$AAT?$AA3?$AA2?$AA?4?$AAD?$AAL?$AAL@ 0000000180025628     LineDisplay.obj
 0002:00002648       ??_C@_0BJ@CNLFOMHB@UnRegisterTypeLibForUser@ 0000000180025648     LineDisplay.obj
 0002:00002668       ??_C@_0BH@LBOMMKPJ@RegisterTypeLibForUser@ 0000000180025668     LineDisplay.obj
 0002:00002680       ??_C@_0P@MMNMMLGK@COFreezeEvents@ 0000000180025680     LineDisplayImpl.obj
 0002:00002690       ??_C@_0BC@OGCGGIMP@GetPropertyNumber@ 0000000180025690     LineDisplayImpl.obj
 0002:000026a8       ??_C@_0BC@MDCNODNB@SetPropertyNumber@ 00000001800256a8     LineDisplayImpl.obj
 0002:000026c0       ??_C@_0BC@CFCCMIMD@GetPropertyString@ 00000001800256c0     LineDisplayImpl.obj
 0002:000026d8       ??_C@_0BC@CJEDNN@SetPropertyString@ 00000001800256d8     LineDisplayImpl.obj
 0002:000026f0       ??_C@_0M@LNPKKKDA@OpenService@ 00000001800256f0     LineDisplayImpl.obj
 0002:00002700       ??_C@_0M@PCMCHHMH@CheckHealth@ 0000000180025700     LineDisplayImpl.obj
 0002:00002710       ??_C@_0M@JGMIDNEK@ClaimDevice@ 0000000180025710     LineDisplayImpl.obj
 0002:00002720       ??_C@_0N@DDFIIBMP@CloseService@ 0000000180025720     LineDisplayImpl.obj
 0002:00002730       ??_C@_08EEIHICPC@DirectIO@ 0000000180025730     LineDisplayImpl.obj
 0002:00002740       ??_C@_0O@BCPMENMJ@ReleaseDevice@ 0000000180025740     LineDisplayImpl.obj
 0002:00002750       ??_C@_0BB@LBBDKCMB@ClearDescriptors@ 0000000180025750     LineDisplayImpl.obj
 0002:00002768       ??_C@_09PAFFPHPO@ClearText@ 0000000180025768     LineDisplayImpl.obj
 0002:00002778       ??_C@_0N@GKGFHBLO@CreateWindow@ 0000000180025778     LineDisplayImpl.obj
 0002:00002788       ??_C@_0O@MCOBDHHO@DestroyWindow@ 0000000180025788     LineDisplayImpl.obj
 0002:00002798       ??_C@_0M@CHHJKFGA@DisplayText@ 0000000180025798     LineDisplayImpl.obj
 0002:000027a8       ??_C@_0O@PJEKEALM@DisplayTextAt@ 00000001800257a8     LineDisplayImpl.obj
 0002:000027b8       ??_C@_0O@BPAIAKEK@RefreshWindow@ 00000001800257b8     LineDisplayImpl.obj
 0002:000027c8       ??_C@_0L@HLJABBJB@ScrollText@ 00000001800257c8     LineDisplayImpl.obj
 0002:000027d8       ??_C@_0O@JAKKJJFE@SetDescriptor@ 00000001800257d8     LineDisplayImpl.obj
 0002:000027e8       ??_C@_0M@HGHNLBH@DefineGlyph@ 00000001800257e8     LineDisplayImpl.obj
 0002:000027f8       ??_C@_0BG@PNMCMCLO@ReadCharacterAtCursor@ 00000001800257f8     LineDisplayImpl.obj
 0002:00002810       ??_C@_0O@DOEGFPMD@DisplayBitmap@ 0000000180025810     LineDisplayImpl.obj
 0002:00002820       ??_C@_09CPODHKLB@SetBitmap@ 0000000180025820     LineDisplayImpl.obj
 0002:00002830       ??_C@_0BA@GFABKEEE@ResetStatistics@ 0000000180025830     LineDisplayImpl.obj
 0002:00002840       ??_C@_0BD@DPALHJGC@RetrieveStatistics@ 0000000180025840     LineDisplayImpl.obj
 0002:00002858       ??_C@_0BB@KOHIKNFC@UpdateStatistics@ 0000000180025858     LineDisplayImpl.obj
 0002:00002870       ??_C@_0BH@PBKBNMGB@CompareFirmwareVersion@ 0000000180025870     LineDisplayImpl.obj
 0002:00002888       ??_C@_0P@FBPDPIPA@UpdateFirmware@ 0000000180025888     LineDisplayImpl.obj
 0002:00002898       ??_7?$CProxy_IOPOSEvents@VCOPOSLineDisplay@@@@6B@ 0000000180025898     LineDisplayImpl.obj
 0002:000028d8       ??_C@_1BA@IFHENID@?$AA?$FL?$AAE?$AAr?$AAr?$AAo?$AAr?$AA?$FN@ 00000001800258d8     LineDisplayImpl.obj
 0002:000028e8       ??_C@_0CO@CPNIBGBK@SOFTWARE?2OLEforRetail?2ServiceOP@ 00000001800258e8     LineDisplayImpl.obj
 0002:00002918       ??_C@_1M@IAIJHCCH@?$AAC?$AAl?$AAo?$AAs?$AAe@ 0000000180025918     LineDisplayImpl.obj
 0002:00002928       ??_C@_1M@PCPKGJAH@?$AAC?$AAl?$AAa?$AAi?$AAm@ 0000000180025928     LineDisplayImpl.obj
 0002:00002938       ??_C@_1BA@NDFKIOCP@?$AAR?$AAe?$AAl?$AAe?$AAa?$AAs?$AAe@ 0000000180025938     LineDisplayImpl.obj
 0002:00002948       ??_C@_0M@ECIFOKOG@LineDisplay@ 0000000180025948     LineDisplayImpl.obj
 0002:00002958       ??_C@_1BM@IJMNMBPK@?$AAG?$AAe?$AAt?$AAO?$AAp?$AAe?$AAn?$AAR?$AAe?$AAs?$AAu?$AAl?$AAt@ 0000000180025958     LineDisplayImpl.obj
 0002:00002978       IID_IDispatch              0000000180025978     uuid:oaidl_i.obj
 0002:00002988       IID_IPropertyNotifySink    0000000180025988     uuid:ocidl_i.obj
 0002:00002998       GUID_NULL                  0000000180025998     uuid:cguid_i.obj
 0002:000029a8       CLSID_StdGlobalInterfaceTable 00000001800259a8     uuid:cguid_i.obj
 0002:000029b8       CLSID_StdComponentCategoriesMgr 00000001800259b8     uuid:ieguids.obj
 0002:000029c8       IID_IUnknown               00000001800259c8     uuid:unknwn_i.obj
 0002:000029e0       __xmm@ffffffffffffffffffffffffffffffff 00000001800259e0     LIBCMT:utility.obj
 0002:000029f0       ??_C@_1EC@JIJBPKFM@?$AAa?$AAp?$AAi?$AA?9?$AAm?$AAs?$AA?9?$AAw?$AAi?$AAn?$AA?9?$AAc?$AAo?$AAr?$AAe@ 00000001800259f0     LIBCMT:thread_safe_statics.obj
 0002:00002a38       ??_C@_1BK@MGMFAEKH@?$AAk?$AAe?$AAr?$AAn?$AAe?$AAl?$AA3?$AA2?$AA?4?$AAd?$AAl?$AAl@ 0000000180025a38     LIBCMT:thread_safe_statics.obj
 0002:00002a58       ??_C@_0BJ@JEBJOJFJ@SleepConditionVariableCS@ 0000000180025a58     LIBCMT:thread_safe_statics.obj
 0002:00002a78       ??_C@_0BJ@PGPPEPCC@WakeAllConditionVariable@ 0000000180025a78     LIBCMT:thread_safe_statics.obj
 0002:00002a91       ?nothrow@std@@3Unothrow_t@1@B 0000000180025a91     LIBCMT:std_nothrow.obj
 0002:00002aa8       _pDefaultRawDllMain        0000000180025aa8     LIBCMT:dll_dllmain.obj
 0002:00002aa8       _pRawDllMain               0000000180025aa8     LIBCMT:dll_dllmain.obj
 0002:00002ab8       ??_7exception@std@@6B@     0000000180025ab8     LIBCMT:throw_bad_alloc.obj
 0002:00002ac8       ??_C@_0BC@EOODALEL@Unknown?5exception@ 0000000180025ac8     LIBCMT:throw_bad_alloc.obj
 0002:00002ae8       ??_7bad_alloc@std@@6B@     0000000180025ae8     LIBCMT:throw_bad_alloc.obj
 0002:00002af8       ??_C@_0P@GHFPNOJB@bad?5allocation@ 0000000180025af8     LIBCMT:throw_bad_alloc.obj
 0002:00002b10       ??_7bad_array_new_length@std@@6B@ 0000000180025b10     LIBCMT:throw_bad_alloc.obj
 0002:00002b20       ??_C@_0BF@KINCDENJ@bad?5array?5new?5length@ 0000000180025b20     LIBCMT:throw_bad_alloc.obj
 0002:00002b40       ??_7type_info@@6B@         0000000180025b40     LIBCMT:std_type_info_static.obj
 0002:00002b48       GUID_ATLVer110             0000000180025b48     atls:atlbase.obj
 0002:00002b60       ??_C@_1IC@ONKHOIDK@?$AAE?$AAR?$AAR?$AAO?$AAR?$AA?5?$AA?3?$AA?5?$AAU?$AAn?$AAa?$AAb?$AAl?$AAe?$AA?5@ 0000000180025b60     atls:atlbase.obj
 0002:00002be8       ??_C@_0N@FJEPLCIH@atlthunk?4dll@ 0000000180025be8     atls:atlthunk.obj
 0002:00002bf8       ??_C@_0BG@GAKFHCBM@AtlThunk_AllocateData@ 0000000180025bf8     atls:atlthunk.obj
 0002:00002c10       ??_C@_0BC@JKONFIAH@AtlThunk_InitData@ 0000000180025c10     atls:atlthunk.obj
 0002:00002c28       ??_C@_0BE@IAOEELAK@AtlThunk_DataToCode@ 0000000180025c28     atls:atlthunk.obj
 0002:00002c40       ??_C@_0BC@GBGKAIPI@AtlThunk_FreeData@ 0000000180025c40     atls:atlthunk.obj
 0002:00002c58       ?s_negLengthTab@FH4@@3QBCB 0000000180025c58     libvcruntime:risctrnsctrl.obj
 0002:00002c68       ?s_shiftTab@FH4@@3QBEB     0000000180025c68     libvcruntime:risctrnsctrl.obj
 0002:00002d18       _pDestructExceptionObject  0000000180025d18     libvcruntime:ehhelpers.obj
 0002:00002d28       ??_7bad_exception@std@@6B@ 0000000180025d28     libvcruntime:frame.obj
 0002:00002d38       ??_C@_0O@DPKOEFFH@bad?5exception@ 0000000180025d38     libvcruntime:frame.obj
 0002:00003450       ??_C@_08EHJDFFNH@__based?$CI@ 0000000180026450     libvcruntime:undname.obj
 0002:00003460       ??_C@_07KOLFKCDI@__cdecl@  0000000180026460     libvcruntime:undname.obj
 0002:00003468       ??_C@_08GHMPAG@__pascal@   0000000180026468     libvcruntime:undname.obj
 0002:00003478       ??_C@_09IFJBGAPI@__stdcall@ 0000000180026478     libvcruntime:undname.obj
 0002:00003488       ??_C@_0L@NPHFGOKO@__thiscall@ 0000000180026488     libvcruntime:undname.obj
 0002:00003498       ??_C@_0L@JMKHOMEK@__fastcall@ 0000000180026498     libvcruntime:undname.obj
 0002:000034a8       ??_C@_0N@BCKKPABJ@__vectorcall@ 00000001800264a8     libvcruntime:undname.obj
 0002:000034b8       ??_C@_09HIJEGCPM@__clrcall@ 00000001800264b8     libvcruntime:undname.obj
 0002:000034c4       ??_C@_06GHPCKEAG@__eabi@   00000001800264c4     libvcruntime:undname.obj
 0002:000034d0       ??_C@_09IOPIDJLG@__swift_1@ 00000001800264d0     libvcruntime:undname.obj
 0002:000034e0       ??_C@_09KFNFGKHF@__swift_2@ 00000001800264e0     libvcruntime:undname.obj
 0002:000034f0       ??_C@_07JOMMBBKO@__ptr64@  00000001800264f0     libvcruntime:undname.obj
 0002:000034f8       ??_C@_0L@PILCLIHE@__restrict@ 00000001800264f8     libvcruntime:undname.obj
 0002:00003508       ??_C@_0M@GFIIJFMG@__unaligned@ 0000000180026508     libvcruntime:undname.obj
 0002:00003518       ??_C@_09DHDLOLLB@restrict?$CI@ 0000000180026518     libvcruntime:undname.obj
 0002:00003522       ??_C@_00CNPNBAHC@@         0000000180026522     libvcruntime:undname.obj
 0002:00003524       ??_C@_04NIHEBCM@?5new@     0000000180026524     libvcruntime:undname.obj
 0002:00003530       ??_C@_07FPCDHGMM@?5delete@ 0000000180026530     libvcruntime:undname.obj
 0002:00003538       ??_C@_01NEMOKFLO@?$DN@     0000000180026538     libvcruntime:undname.obj
 0002:0000353c       ??_C@_02GPIOPFAK@?$DO?$DO@ 000000018002653c     libvcruntime:undname.obj
 0002:00003540       ??_C@_02FODMEDOG@?$DM?$DM@ 0000000180026540     libvcruntime:undname.obj
 0002:00003544       ??_C@_01DCLJPIOD@?$CB@     0000000180026544     libvcruntime:undname.obj
 0002:00003548       ??_C@_02EGOFBIJA@?$DN?$DN@ 0000000180026548     libvcruntime:undname.obj
 0002:0000354c       ??_C@_02FDNJECIE@?$CB?$DN@ 000000018002654c     libvcruntime:undname.obj
 0002:00003550       ??_C@_02GPECMEKF@?$FL?$FN@ 0000000180026550     libvcruntime:undname.obj
 0002:00003558       ??_C@_08LHJFAFGD@operator@ 0000000180026558     libvcruntime:undname.obj
 0002:00003564       ??_C@_02HBOOOICD@?9?$DO@   0000000180026564     libvcruntime:undname.obj
 0002:00003568       ??_C@_01NBENCBCI@?$CK@     0000000180026568     libvcruntime:undname.obj
 0002:0000356c       ??_C@_02ECNGHCIF@?$CL?$CL@ 000000018002656c     libvcruntime:undname.obj
 0002:00003570       ??_C@_02BAABKJLB@?9?9@     0000000180026570     libvcruntime:undname.obj
 0002:00003574       ??_C@_01JOAMLHOP@?9@       0000000180026574     libvcruntime:undname.obj
 0002:00003578       ??_C@_01MIFGBAGJ@?$CL@     0000000180026578     libvcruntime:undname.obj
 0002:0000357c       ??_C@_01HNPIGOCE@?$CG@     000000018002657c     libvcruntime:undname.obj
 0002:00003580       ??_C@_03MNHNFDLC@?9?$DO?$CK@ 0000000180026580     libvcruntime:undname.obj
 0002:00003584       ??_C@_01KMDKNFGN@?1@       0000000180026584     libvcruntime:undname.obj
 0002:00003588       ??_C@_01FGNFDNOH@?$CF@     0000000180026588     libvcruntime:undname.obj
 0002:0000358c       ??_C@_01MNNFJEPP@?$DM@     000000018002658c     libvcruntime:undname.obj
 0002:00003590       ??_C@_02EHCHHCKH@?$DM?$DN@ 0000000180026590     libvcruntime:undname.obj
 0002:00003594       ??_C@_01PPODPGHN@?$DO@     0000000180026594     libvcruntime:undname.obj
 0002:00003598       ??_C@_02EEKDKGMJ@?$DO?$DN@ 0000000180026598     libvcruntime:undname.obj
 0002:0000359c       ??_C@_01IHBHIGKO@?0@       000000018002659c     libvcruntime:undname.obj
 0002:000035a0       ??_C@_02HCKGKOFO@?$CI?$CJ@ 00000001800265a0     libvcruntime:undname.obj
 0002:000035a4       ??_C@_01PJKLJHI@?$HO@      00000001800265a4     libvcruntime:undname.obj
 0002:000035a8       ??_C@_01JKBOJNNK@?$FO@     00000001800265a8     libvcruntime:undname.obj
 0002:000035ac       ??_C@_01DNKMNLPK@?$HM@     00000001800265ac     libvcruntime:undname.obj
 0002:000035b0       ??_C@_02PPKAJPJL@?$CG?$CG@ 00000001800265b0     libvcruntime:undname.obj
 0002:000035b4       ??_C@_02NONPIBCD@?$HM?$HM@ 00000001800265b4     libvcruntime:undname.obj
 0002:000035b8       ??_C@_02FPIMKNGF@?$CK?$DN@ 00000001800265b8     libvcruntime:undname.obj
 0002:000035bc       ??_C@_02FOEOMHFC@?$CL?$DN@ 00000001800265bc     libvcruntime:undname.obj
 0002:000035c0       ??_C@_02FKMDLLOA@?9?$DN@   00000001800265c0     libvcruntime:undname.obj
 0002:000035c4       ??_C@_02FJEHGPIO@?1?$DN@   00000001800265c4     libvcruntime:undname.obj
 0002:000035c8       ??_C@_02FENAOKFI@?$CF?$DN@ 00000001800265c8     libvcruntime:undname.obj
 0002:000035cc       ??_C@_03IKFCCPFF@?$DO?$DO?$DN@ 00000001800265cc     libvcruntime:undname.obj
 0002:000035d0       ??_C@_03CDNPDDLA@?$DM?$DM?$DN@ 00000001800265d0     libvcruntime:undname.obj
 0002:000035d4       ??_C@_02FGJGFEAB@?$CG?$DN@ 00000001800265d4     libvcruntime:undname.obj
 0002:000035d8       ??_C@_02DHLNPPGH@?$HM?$DN@ 00000001800265d8     libvcruntime:undname.obj
 0002:000035dc       ??_C@_02MHEGNOJ@?$FO?$DN@  00000001800265dc     libvcruntime:undname.obj
 0002:000035e0       ??_C@_09IFPLHPGF@?$GAvftable?8@ 00000001800265e0     libvcruntime:undname.obj
 0002:000035f0       ??_C@_09BLBHBJP@?$GAvbtable?8@ 00000001800265f0     libvcruntime:undname.obj
 0002:00003600       ??_C@_07FEEIOKP@?$GAvcall?8@ 0000000180026600     libvcruntime:undname.obj
 0002:00003608       ??_C@_08LLFFHHDJ@?$GAtypeof?8@ 0000000180026608     libvcruntime:undname.obj
 0002:00003618       ??_C@_0BF@KDPPACIK@?$GAlocal?5static?5guard?8@ 0000000180026618     libvcruntime:undname.obj
 0002:00003630       ??_C@_08OBABFOLI@?$GAstring?8@ 0000000180026630     libvcruntime:undname.obj
 0002:00003640       ??_C@_0BD@JDLKDPAB@?$GAvbase?5destructor?8@ 0000000180026640     libvcruntime:undname.obj
 0002:00003658       ??_C@_0BN@DEGPLNFK@?$GAvector?5deleting?5destructor?8@ 0000000180026658     libvcruntime:undname.obj
 0002:00003678       ??_C@_0BO@OBMKPJIG@?$GAdefault?5constructor?5closure?8@ 0000000180026678     libvcruntime:undname.obj
 0002:00003698       ??_C@_0BN@IMDCHIKM@?$GAscalar?5deleting?5destructor?8@ 0000000180026698     libvcruntime:undname.obj
 0002:000036b8       ??_C@_0BO@PFGOCPJJ@?$GAvector?5constructor?5iterator?8@ 00000001800266b8     libvcruntime:undname.obj
 0002:000036d8       ??_C@_0BN@LFPFMEDL@?$GAvector?5destructor?5iterator?8@ 00000001800266d8     libvcruntime:undname.obj
 0002:000036f8       ??_C@_0CE@IKBNEHA@?$GAvector?5vbase?5constructor?5itera@ 00000001800266f8     libvcruntime:undname.obj
 0002:00003720       ??_C@_0BL@NILFHHPC@?$GAvirtual?5displacement?5map?8@ 0000000180026720     libvcruntime:undname.obj
 0002:00003740       ??_C@_0CB@JONCMFFK@?$GAeh?5vector?5constructor?5iterator@ 0000000180026740     libvcruntime:undname.obj
 0002:00003768       ??_C@_0CA@GCEOPDGL@?$GAeh?5vector?5destructor?5iterator?8@ 0000000180026768     libvcruntime:undname.obj
 0002:00003788       ??_C@_0CH@OOJPLCPH@?$GAeh?5vector?5vbase?5constructor?5it@ 0000000180026788     libvcruntime:undname.obj
 0002:000037b0       ??_C@_0BL@LLKPOHJI@?$GAcopy?5constructor?5closure?8@ 00000001800267b0     libvcruntime:undname.obj
 0002:000037d0       ??_C@_0BA@KBCDOMBN@?$GAudt?5returning?8@ 00000001800267d0     libvcruntime:undname.obj
 0002:000037e0       ??_C@_03KLGMFNMG@?$GAEH@   00000001800267e0     libvcruntime:undname.obj
 0002:000037e4       ??_C@_05KHLCHHI@?$GARTTI@  00000001800267e4     libvcruntime:undname.obj
 0002:000037f0       ??_C@_0BA@KKLDJDLB@?$GAlocal?5vftable?8@ 00000001800267f0     libvcruntime:undname.obj
 0002:00003800       ??_C@_0CE@IIHCMGGL@?$GAlocal?5vftable?5constructor?5clos@ 0000000180026800     libvcruntime:undname.obj
 0002:00003824       ??_C@_06FHBGPFGH@?5new?$FL?$FN@ 0000000180026824     libvcruntime:undname.obj
 0002:00003830       ??_C@_09LBNFPBCA@?5delete?$FL?$FN@ 0000000180026830     libvcruntime:undname.obj
 0002:00003840       ??_C@_0P@HJKNJFNN@?$GAomni?5callsig?8@ 0000000180026840     libvcruntime:undname.obj
 0002:00003850       ??_C@_0BL@CNOONJFP@?$GAplacement?5delete?5closure?8@ 0000000180026850     libvcruntime:undname.obj
 0002:00003870       ??_C@_0BN@CKNJLHMB@?$GAplacement?5delete?$FL?$FN?5closure?8@ 0000000180026870     libvcruntime:undname.obj
 0002:00003890       ??_C@_0CG@CFDHKGGD@?$GAmanaged?5vector?5constructor?5ite@ 0000000180026890     libvcruntime:undname.obj
 0002:000038b8       ??_C@_0CF@IMGKMJNO@?$GAmanaged?5vector?5destructor?5iter@ 00000001800268b8     libvcruntime:undname.obj
 0002:000038e0       ??_C@_0CG@HLDDJMAG@?$GAeh?5vector?5copy?5constructor?5ite@ 00000001800268e0     libvcruntime:undname.obj
 0002:00003908       ??_C@_0CM@FCBBDIGB@?$GAeh?5vector?5vbase?5copy?5construct@ 0000000180026908     libvcruntime:undname.obj
 0002:00003938       ??_C@_0BL@CLIPGLGB@?$GAdynamic?5initializer?5for?5?8@ 0000000180026938     libvcruntime:undname.obj
 0002:00003958       ??_C@_0CB@PDBIFEP@?$GAdynamic?5atexit?5destructor?5for?5@ 0000000180026958     libvcruntime:undname.obj
 0002:00003980       ??_C@_0CD@CGAJBKEJ@?$GAvector?5copy?5constructor?5iterat@ 0000000180026980     libvcruntime:undname.obj
 0002:000039a8       ??_C@_0CJ@GJELGAMM@?$GAvector?5vbase?5copy?5constructor?5@ 00000001800269a8     libvcruntime:undname.obj
 0002:000039d8       ??_C@_0CL@FGIJHLCE@?$GAmanaged?5vector?5copy?5constructo@ 00000001800269d8     libvcruntime:undname.obj
 0002:00003a08       ??_C@_0BM@PMGGMLDN@?$GAlocal?5static?5thread?5guard?8@ 0000000180026a08     libvcruntime:undname.obj
 0002:00003a28       ??_C@_0N@BDNMDMOL@operator?5?$CC?$CC?5@ 0000000180026a28     libvcruntime:undname.obj
 0002:00003a38       ??_C@_0BC@GGEBGALA@operator?5co_await@ 0000000180026a38     libvcruntime:undname.obj
 0002:00003a50       ??_C@_0M@GAAIMMOH@operator?$DM?$DN?$DO@ 0000000180026a50     libvcruntime:undname.obj
 0002:00003a60       ??_C@_0BC@DAFEJGAK@?5Type?5Descriptor?8@ 0000000180026a60     libvcruntime:undname.obj
 0002:00003a78       ??_C@_0BM@LDKODKLH@?5Base?5Class?5Descriptor?5at?5?$CI@ 0000000180026a78     libvcruntime:undname.obj
 0002:00003a98       ??_C@_0BD@LGICGFMM@?5Base?5Class?5Array?8@ 0000000180026a98     libvcruntime:undname.obj
 0002:00003ab0       ??_C@_0BN@MECKDCOJ@?5Class?5Hierarchy?5Descriptor?8@ 0000000180026ab0     libvcruntime:undname.obj
 0002:00003ad0       ??_C@_0BK@CFCOFLF@?5Complete?5Object?5Locator?8@ 0000000180026ad0     libvcruntime:undname.obj
 0002:00003af0       ??_C@_0BG@JNJLAMPM@?$GAanonymous?5namespace?8@ 0000000180026af0     libvcruntime:undname.obj
 0002:00003b20       ??_C@_1DM@KHCHBNEB@?$AAa?$AAp?$AAi?$AA?9?$AAm?$AAs?$AA?9?$AAw?$AAi?$AAn?$AA?9?$AAc?$AAo?$AAr?$AAe@ 0000000180026b20     libvcruntime:winapi_downlevel.obj
 0002:00003b60       ??_C@_1DK@LPPGFMPP@?$AAa?$AAp?$AAi?$AA?9?$AAm?$AAs?$AA?9?$AAw?$AAi?$AAn?$AA?9?$AAc?$AAo?$AAr?$AAe@ 0000000180026b60     libvcruntime:winapi_downlevel.obj
 0002:00003ba0       ??_C@_1BC@GDMECMAK@?$AAk?$AAe?$AAr?$AAn?$AAe?$AAl?$AA3?$AA2@ 0000000180026ba0     libvcruntime:winapi_downlevel.obj
 0002:00003bb8       ??_C@_1BA@PFFKHIOG@?$AAa?$AAp?$AAi?$AA?9?$AAm?$AAs?$AA?9@ 0000000180026bb8     libvcruntime:winapi_downlevel.obj
 0002:00003bd0       ??_C@_08KNHFBNJ@FlsAlloc@  0000000180026bd0     libvcruntime:winapi_downlevel.obj
 0002:00003be8       ??_C@_07PEJMOBNF@FlsFree@  0000000180026be8     libvcruntime:winapi_downlevel.obj
 0002:00003bf8       ??_C@_0M@GDNOONDI@FlsGetValue@ 0000000180026bf8     libvcruntime:winapi_downlevel.obj
 0002:00003c10       ??_C@_0M@JCPCPOEF@FlsSetValue@ 0000000180026c10     libvcruntime:winapi_downlevel.obj
 0002:00003c28       ??_C@_0BM@HCFOFFN@InitializeCriticalSectionEx@ 0000000180026c28     libvcruntime:winapi_downlevel.obj
 0002:00003dc0       ?format_validation_lookup_table_spectre@__crt_stdio_output@@3V?$spectre_mitigated_lookup_table@Ustate_transition_pair@__crt_stdio_output@@$0IA@@1@B 0000000180026dc0     libucrt:output.obj
 0002:000041c0       ??_C@_1O@CEDCILHN@?$AA?$CI?$AAn?$AAu?$AAl?$AAl?$AA?$CJ@ 00000001800271c0     libucrt:output.obj
 0002:000041d0       ??_C@_06OJHGLDPL@?$CInull?$CJ@ 00000001800271d0     libucrt:output.obj
 0002:000041e0       __acrt_exception_action_table 00000001800271e0     libucrt:exception_filter.obj
 0002:000042a0       __acrt_signal_action_table_count 00000001800272a0     libucrt:exception_filter.obj
 0002:000042a8       __acrt_signal_action_first_fpe_index 00000001800272a8     libucrt:exception_filter.obj
 0002:000042b0       __acrt_signal_action_fpe_count 00000001800272b0     libucrt:exception_filter.obj
 0002:000042b8       ??_C@_1BI@BGOHAHKC@?$AAm?$AAs?$AAc?$AAo?$AAr?$AAe?$AAe?$AA?4?$AAd?$AAl?$AAl@ 00000001800272b8     libucrt:exit.obj
 0002:000042d0       ??_C@_0P@MIGLKIOC@CorExitProcess@ 00000001800272d0     libucrt:exit.obj
 0002:00004480       ??_C@_1EA@JGEFHKEI@?$AAa?$AAp?$AAi?$AA?9?$AAm?$AAs?$AA?9?$AAw?$AAi?$AAn?$AA?9?$AAc?$AAo?$AAr?$AAe@ 0000000180027480     libucrt:winapi_thunks.obj
 0002:000044c0       ??_C@_1DI@IJCEHOCB@?$AAa?$AAp?$AAi?$AA?9?$AAm?$AAs?$AA?9?$AAw?$AAi?$AAn?$AA?9?$AAc?$AAo?$AAr?$AAe@ 00000001800274c0     libucrt:winapi_thunks.obj
 0002:00004500       ??_C@_1EI@MPIAOHOC@?$AAa?$AAp?$AAi?$AA?9?$AAm?$AAs?$AA?9?$AAw?$AAi?$AAn?$AA?9?$AAc?$AAo?$AAr?$AAe@ 0000000180027500     libucrt:winapi_thunks.obj
 0002:00004550       ??_C@_1FK@FPHCKFIE@?$AAa?$AAp?$AAi?$AA?9?$AAm?$AAs?$AA?9?$AAw?$AAi?$AAn?$AA?9?$AAc?$AAo?$AAr?$AAe@ 0000000180027550     libucrt:winapi_thunks.obj
 0002:000045b0       ??_C@_1EM@DILCGIIO@?$AAa?$AAp?$AAi?$AA?9?$AAm?$AAs?$AA?9?$AAw?$AAi?$AAn?$AA?9?$AAc?$AAo?$AAr?$AAe@ 00000001800275b0     libucrt:winapi_thunks.obj
 0002:00004600       ??_C@_1DM@LNCGDDPN@?$AAa?$AAp?$AAi?$AA?9?$AAm?$AAs?$AA?9?$AAw?$AAi?$AAn?$AA?9?$AAc?$AAo?$AAr?$AAe@ 0000000180027600     libucrt:winapi_thunks.obj
 0002:00004640       ??_C@_1DO@FPAPJEMD@?$AAa?$AAp?$AAi?$AA?9?$AAm?$AAs?$AA?9?$AAw?$AAi?$AAn?$AA?9?$AAc?$AAo?$AAr?$AAe@ 0000000180027640     libucrt:winapi_thunks.obj
 0002:00004680       ??_C@_1DK@NDHNAHIO@?$AAa?$AAp?$AAi?$AA?9?$AAm?$AAs?$AA?9?$AAw?$AAi?$AAn?$AA?9?$AAc?$AAo?$AAr?$AAe@ 0000000180027680     libucrt:winapi_thunks.obj
 0002:000046c0       ??_C@_1DM@KGHDGBCM@?$AAa?$AAp?$AAi?$AA?9?$AAm?$AAs?$AA?9?$AAw?$AAi?$AAn?$AA?9?$AAc?$AAo?$AAr?$AAe@ 00000001800276c0     libucrt:winapi_thunks.obj
 0002:00004700       ??_C@_1EO@IJIOEFOH@?$AAa?$AAp?$AAi?$AA?9?$AAm?$AAs?$AA?9?$AAw?$AAi?$AAn?$AA?9?$AAr?$AAt?$AAc?$AAo@ 0000000180027700     libucrt:winapi_thunks.obj
 0002:00004750       ??_C@_1FG@HHGEKANL@?$AAa?$AAp?$AAi?$AA?9?$AAm?$AAs?$AA?9?$AAw?$AAi?$AAn?$AA?9?$AAs?$AAe?$AAc?$AAu@ 0000000180027750     libucrt:winapi_thunks.obj
 0002:000047b0       ??_C@_1EG@DBIOJECG@?$AAe?$AAx?$AAt?$AA?9?$AAm?$AAs?$AA?9?$AAw?$AAi?$AAn?$AA?9?$AAn?$AAt?$AAu?$AAs@ 00000001800277b0     libucrt:winapi_thunks.obj
 0002:00004800       ??_C@_1EO@FIHMJCLF@?$AAe?$AAx?$AAt?$AA?9?$AAm?$AAs?$AA?9?$AAw?$AAi?$AAn?$AA?9?$AAn?$AAt?$AAu?$AAs@ 0000000180027800     libucrt:winapi_thunks.obj
 0002:00004850       ??_C@_1BC@DNHGCMLG@?$AAa?$AAd?$AAv?$AAa?$AAp?$AAi?$AA3?$AA2@ 0000000180027850     libucrt:winapi_thunks.obj
 0002:00004868       ??_C@_1M@OAIMIKLP@?$AAn?$AAt?$AAd?$AAl?$AAl@ 0000000180027868     libucrt:winapi_thunks.obj
 0002:00004880       ??_C@_1EG@DPGNFKGC@?$AAa?$AAp?$AAi?$AA?9?$AAm?$AAs?$AA?9?$AAw?$AAi?$AAn?$AA?9?$AAa?$AAp?$AAp?$AAm@ 0000000180027880     libucrt:winapi_thunks.obj
 0002:000048c8       ??_C@_1O@BCCLBEOE@?$AAu?$AAs?$AAe?$AAr?$AA3?$AA2@ 00000001800278c8     libucrt:winapi_thunks.obj
 0002:000048d8       ??_C@_1BA@IAIFMGEF@?$AAe?$AAx?$AAt?$AA?9?$AAm?$AAs?$AA?9@ 00000001800278d8     libucrt:winapi_thunks.obj
 0002:000048f0       ??_C@_0BA@FHFNEAED@AreFileApisANSI@ 00000001800278f0     libucrt:winapi_thunks.obj
 0002:00004930       ??_C@_0O@KKBNKAPF@LCMapStringEx@ 0000000180027930     libucrt:winapi_thunks.obj
 0002:00004948       ??_C@_0BB@HBDEELFH@LocaleNameToLCID@ 0000000180027948     libucrt:winapi_thunks.obj
 0002:00004960       ??_C@_0CF@OJOFEIGO@AppPolicyGetProcessTerminationM@ 0000000180027960     libucrt:winapi_thunks.obj
 0002:00004990       ??_C@_0BI@BKLFFAPO@SetThreadStackGuarantee@ 0000000180027990     libucrt:winapi_thunks.obj
 0002:00004a30       ??_C@_03OEIAHPBN@INF@      0000000180027a30     libucrt:cvt.obj
 0002:00004a34       ??_C@_03OJHLLCGB@inf@      0000000180027a34     libucrt:cvt.obj
 0002:00004a38       ??_C@_03LKNCIKJB@NAN@      0000000180027a38     libucrt:cvt.obj
 0002:00004a3c       ??_C@_03LHCJEHON@nan@      0000000180027a3c     libucrt:cvt.obj
 0002:00004a40       ??_C@_09OFJJIMPC@NAN?$CISNAN?$CJ@ 0000000180027a40     libucrt:cvt.obj
 0002:00004a50       ??_C@_09IPFBKMDL@nan?$CIsnan?$CJ@ 0000000180027a50     libucrt:cvt.obj
 0002:00004a60       ??_C@_08IKHNHAJ@NAN?$CIIND?$CJ@ 0000000180027a60     libucrt:cvt.obj
 0002:00004a70       ??_C@_08OFCDMILK@nan?$CIind?$CJ@ 0000000180027a70     libucrt:cvt.obj
 0002:00004a7c       ??_C@_05KLBDPFGC@e?$CL000@ 0000000180027a7c     libucrt:cvt.obj
 0002:00004a90       __lc_time_c                0000000180027a90     libucrt:nlsdata.obj
 0002:00004d50       ??_C@_03KOEHGMDN@Sun@      0000000180027d50     libucrt:nlsdata.obj
 0002:00004d54       ??_C@_03PDAGKDH@Mon@       0000000180027d54     libucrt:nlsdata.obj
 0002:00004d58       ??_C@_03NAGEINEP@Tue@      0000000180027d58     libucrt:nlsdata.obj
 0002:00004d5c       ??_C@_03MHOMLAJA@Wed@      0000000180027d5c     libucrt:nlsdata.obj
 0002:00004d60       ??_C@_03IOFIKPDN@Thu@      0000000180027d60     libucrt:nlsdata.obj
 0002:00004d64       ??_C@_03IDIOELNC@Fri@      0000000180027d64     libucrt:nlsdata.obj
 0002:00004d68       ??_C@_03FEFJNEK@Sat@       0000000180027d68     libucrt:nlsdata.obj
 0002:00004d6c       ??_C@_06OOPIFAJ@Sunday@    0000000180027d6c     libucrt:nlsdata.obj
 0002:00004d74       ??_C@_06JLEDEDGH@Monday@   0000000180027d74     libucrt:nlsdata.obj
 0002:00004d80       ??_C@_07BAAGCFCM@Tuesday@  0000000180027d80     libucrt:nlsdata.obj
 0002:00004d88       ??_C@_09DLIGFAKA@Wednesday@ 0000000180027d88     libucrt:nlsdata.obj
 0002:00004d98       ??_C@_08HACCIKIA@Thursday@ 0000000180027d98     libucrt:nlsdata.obj
 0002:00004da4       ??_C@_06JECMNKMI@Friday@   0000000180027da4     libucrt:nlsdata.obj
 0002:00004db0       ??_C@_08INBOOONO@Saturday@ 0000000180027db0     libucrt:nlsdata.obj
 0002:00004dbc       ??_C@_03JIHJHPIE@Jan@      0000000180027dbc     libucrt:nlsdata.obj
 0002:00004dc0       ??_C@_03HJBDCHOM@Feb@      0000000180027dc0     libucrt:nlsdata.obj
 0002:00004dc4       ??_C@_03ODNJBKGA@Mar@      0000000180027dc4     libucrt:nlsdata.obj
 0002:00004dc8       ??_C@_03LEOLGMJP@Apr@      0000000180027dc8     libucrt:nlsdata.obj
 0002:00004dcc       ??_C@_03CNMDKL@May@        0000000180027dcc     libucrt:nlsdata.obj
 0002:00004dd0       ??_C@_03IDFGHECI@Jun@      0000000180027dd0     libucrt:nlsdata.obj
 0002:00004dd4       ??_C@_03LBGABGKK@Jul@      0000000180027dd4     libucrt:nlsdata.obj
 0002:00004dd8       ??_C@_03IFJFEIGA@Aug@      0000000180027dd8     libucrt:nlsdata.obj
 0002:00004ddc       ??_C@_03GGCAPAJC@Sep@      0000000180027ddc     libucrt:nlsdata.obj
 0002:00004de0       ??_C@_03BMAOKBAD@Oct@      0000000180027de0     libucrt:nlsdata.obj
 0002:00004de4       ??_C@_03JPJOFNIA@Nov@      0000000180027de4     libucrt:nlsdata.obj
 0002:00004de8       ??_C@_03MKABNOCG@Dec@      0000000180027de8     libucrt:nlsdata.obj
 0002:00004df0       ??_C@_07CGJPFGJA@January@  0000000180027df0     libucrt:nlsdata.obj
 0002:00004df8       ??_C@_08GNJGEPFN@February@ 0000000180027df8     libucrt:nlsdata.obj
 0002:00004e04       ??_C@_05HPCKOFNC@March@    0000000180027e04     libucrt:nlsdata.obj
 0002:00004e0c       ??_C@_05DMJDNLEJ@April@    0000000180027e0c     libucrt:nlsdata.obj
 0002:00004e14       ??_C@_04CNLMGBGM@June@     0000000180027e14     libucrt:nlsdata.obj
 0002:00004e1c       ??_C@_04MIEPOIFP@July@     0000000180027e1c     libucrt:nlsdata.obj
 0002:00004e24       ??_C@_06LBBHFDDG@August@   0000000180027e24     libucrt:nlsdata.obj
 0002:00004e30       ??_C@_09BHHEALKD@September@ 0000000180027e30     libucrt:nlsdata.obj
 0002:00004e40       ??_C@_07JJNFCEND@October@  0000000180027e40     libucrt:nlsdata.obj
 0002:00004e48       ??_C@_08HCHEGEOA@November@ 0000000180027e48     libucrt:nlsdata.obj
 0002:00004e58       ??_C@_08EDHMEBNP@December@ 0000000180027e58     libucrt:nlsdata.obj
 0002:00004e64       ??_C@_02DEDBPAFC@AM@       0000000180027e64     libucrt:nlsdata.obj
 0002:00004e68       ??_C@_02CJNFDJBF@PM@       0000000180027e68     libucrt:nlsdata.obj
 0002:00004e70       ??_C@_08BPBNCDIB@MM?1dd?1yy@ 0000000180027e70     libucrt:nlsdata.obj
 0002:00004e80       ??_C@_0BE@CKGJFCPC@dddd?0?5MMMM?5dd?0?5yyyy@ 0000000180027e80     libucrt:nlsdata.obj
 0002:00004e98       ??_C@_08JCCMCCIL@HH?3mm?3ss@ 0000000180027e98     libucrt:nlsdata.obj
 0002:00004ea8       ??_C@_17MBGCMIPB@?$AAS?$AAu?$AAn@ 0000000180027ea8     libucrt:nlsdata.obj
 0002:00004eb0       ??_C@_17KBOMKBF@?$AAM?$AAo?$AAn@ 0000000180027eb0     libucrt:nlsdata.obj
 0002:00004eb8       ??_C@_17BMKGEGOJ@?$AAT?$AAu?$AAe@ 0000000180027eb8     libucrt:nlsdata.obj
 0002:00004ec0       ??_C@_17CJEDCEPE@?$AAW?$AAe?$AAd@ 0000000180027ec0     libucrt:nlsdata.obj
 0002:00004ec8       ??_C@_17PDPHAADD@?$AAT?$AAh?$AAu@ 0000000180027ec8     libucrt:nlsdata.obj
 0002:00004ed0       ??_C@_17HFOLPPLP@?$AAF?$AAr?$AAi@ 0000000180027ed0     libucrt:nlsdata.obj
 0002:00004ed8       ??_C@_17GGIBDPIH@?$AAS?$AAa?$AAt@ 0000000180027ed8     libucrt:nlsdata.obj
 0002:00004ee0       ??_C@_1O@IHNHDHPB@?$AAS?$AAu?$AAn?$AAd?$AAa?$AAy@ 0000000180027ee0     libucrt:nlsdata.obj
 0002:00004ef0       ??_C@_1O@MMNBFLIA@?$AAM?$AAo?$AAn?$AAd?$AAa?$AAy@ 0000000180027ef0     libucrt:nlsdata.obj
 0002:00004f00       ??_C@_1BA@ENFBFFEK@?$AAT?$AAu?$AAe?$AAs?$AAd?$AAa?$AAy@ 0000000180027f00     libucrt:nlsdata.obj
 0002:00004f10       ??_C@_1BE@EBOGMDOH@?$AAW?$AAe?$AAd?$AAn?$AAe?$AAs?$AAd?$AAa?$AAy@ 0000000180027f10     libucrt:nlsdata.obj
 0002:00004f28       ??_C@_1BC@HHMNLIHE@?$AAT?$AAh?$AAu?$AAr?$AAs?$AAd?$AAa?$AAy@ 0000000180027f28     libucrt:nlsdata.obj
 0002:00004f40       ??_C@_1O@PDICJHAG@?$AAF?$AAr?$AAi?$AAd?$AAa?$AAy@ 0000000180027f40     libucrt:nlsdata.obj
 0002:00004f50       ??_C@_1BC@ENMNNPAJ@?$AAS?$AAa?$AAt?$AAu?$AAr?$AAd?$AAa?$AAy@ 0000000180027f50     libucrt:nlsdata.obj
 0002:00004f68       ??_C@_17DKNBKCHM@?$AAJ?$AAa?$AAn@ 0000000180027f68     libucrt:nlsdata.obj
 0002:00004f70       ??_C@_17LMDJEKJN@?$AAF?$AAe?$AAb@ 0000000180027f70     libucrt:nlsdata.obj
 0002:00004f78       ??_C@_17CKNLEDEC@?$AAM?$AAa?$AAr@ 0000000180027f78     libucrt:nlsdata.obj
 0002:00004f80       ??_C@_17LFPOIHDD@?$AAA?$AAp?$AAr@ 0000000180027f80     libucrt:nlsdata.obj
 0002:00004f88       ??_C@_17PNNKMEED@?$AAM?$AAa?$AAy@ 0000000180027f88     libucrt:nlsdata.obj
 0002:00004f90       ??_C@_17KCJGOCPB@?$AAJ?$AAu?$AAn@ 0000000180027f90     libucrt:nlsdata.obj
 0002:00004f98       ??_C@_17IJPCKHK@?$AAJ?$AAu?$AAl@ 0000000180027f98     libucrt:nlsdata.obj
 0002:00004fa0       ??_C@_17ICPELBCN@?$AAA?$AAu?$AAg@ 0000000180027fa0     libucrt:nlsdata.obj
 0002:00004fa8       ??_C@_17HCHCOKMG@?$AAS?$AAe?$AAp@ 0000000180027fa8     libucrt:nlsdata.obj
 0002:00004fb0       ??_C@_17FNLKOI@?$AAO?$AAc?$AAt@ 0000000180027fb0     libucrt:nlsdata.obj
 0002:00004fb8       ??_C@_17BBDMLCIG@?$AAN?$AAo?$AAv@ 0000000180027fb8     libucrt:nlsdata.obj
 0002:00004fc0       ??_C@_17EGKACKIF@?$AAD?$AAe?$AAc@ 0000000180027fc0     libucrt:nlsdata.obj
 0002:00004fc8       ??_C@_1BA@EFMEIEBA@?$AAJ?$AAa?$AAn?$AAu?$AAa?$AAr?$AAy@ 0000000180027fc8     libucrt:nlsdata.obj
 0002:00004fd8       ??_C@_1BC@JGDDFFAM@?$AAF?$AAe?$AAb?$AAr?$AAu?$AAa?$AAr?$AAy@ 0000000180027fd8     libucrt:nlsdata.obj
 0002:00004ff0       ??_C@_1M@IKEENEDF@?$AAM?$AAa?$AAr?$AAc?$AAh@ 0000000180027ff0     libucrt:nlsdata.obj
 0002:00005000       ??_C@_1M@GJNLMHFD@?$AAA?$AAp?$AAr?$AAi?$AAl@ 0000000180028000     libucrt:nlsdata.obj
 0002:00005010       ??_C@_19EPFLPGAP@?$AAJ?$AAu?$AAn?$AAe@ 0000000180028010     libucrt:nlsdata.obj
 0002:00005020       ??_C@_19BIFMLPCD@?$AAJ?$AAu?$AAl?$AAy@ 0000000180028020     libucrt:nlsdata.obj
 0002:00005030       ??_C@_1O@PAHLKOAC@?$AAA?$AAu?$AAg?$AAu?$AAs?$AAt@ 0000000180028030     libucrt:nlsdata.obj
 0002:00005040       ??_C@_1BE@DKAAMBJL@?$AAS?$AAe?$AAp?$AAt?$AAe?$AAm?$AAb?$AAe?$AAr@ 0000000180028040     libucrt:nlsdata.obj
 0002:00005058       ??_C@_1BA@EPANDLNG@?$AAO?$AAc?$AAt?$AAo?$AAb?$AAe?$AAr@ 0000000180028058     libucrt:nlsdata.obj
 0002:00005068       ??_C@_1BC@BGLIFPF@?$AAN?$AAo?$AAv?$AAe?$AAm?$AAb?$AAe?$AAr@ 0000000180028068     libucrt:nlsdata.obj
 0002:00005080       ??_C@_1BC@FEMKIFH@?$AAD?$AAe?$AAc?$AAe?$AAm?$AAb?$AAe?$AAr@ 0000000180028080     libucrt:nlsdata.obj
 0002:00005094       ??_C@_15ODEHAHHF@?$AAA?$AAM@ 0000000180028094     libucrt:nlsdata.obj
 0002:0000509c       ??_C@_15CLMNNGEL@?$AAP?$AAM@ 000000018002809c     libucrt:nlsdata.obj
 0002:000050a8       ??_C@_1BC@IEBCMHCM@?$AAM?$AAM?$AA?1?$AAd?$AAd?$AA?1?$AAy?$AAy@ 00000001800280a8     libucrt:nlsdata.obj
 0002:000050c0       ??_C@_1CI@KNAKOEBC@?$AAd?$AAd?$AAd?$AAd?$AA?0?$AA?5?$AAM?$AAM?$AAM?$AAM?$AA?5?$AAd?$AAd?$AA?0?$AA?5@ 00000001800280c0     libucrt:nlsdata.obj
 0002:000050e8       ??_C@_1BC@GDGBMEMK@?$AAH?$AAH?$AA?3?$AAm?$AAm?$AA?3?$AAs?$AAs@ 00000001800280e8     libucrt:nlsdata.obj
 0002:00005100       ??_C@_1M@BMHNFIME@?$AAe?$AAn?$AA?9?$AAU?$AAS@ 0000000180028100     libucrt:nlsdata.obj
 0002:00005130       ??_C@_1M@HPNHIDJI@?$AAj?$AAa?$AA?9?$AAJ?$AAP@ 0000000180028130     libucrt:mbctype.obj
 0002:00005140       ??_C@_1M@BIBDDEMK@?$AAz?$AAh?$AA?9?$AAC?$AAN@ 0000000180028140     libucrt:mbctype.obj
 0002:00005150       ??_C@_1M@JLOOOEGK@?$AAk?$AAo?$AA?9?$AAK?$AAR@ 0000000180028150     libucrt:mbctype.obj
 0002:00005160       ??_C@_1M@CLNBBOPM@?$AAz?$AAh?$AA?9?$AAT?$AAW@ 0000000180028160     libucrt:mbctype.obj
 0002:00005170       __newctype                 0000000180028170     libucrt:ctype.obj
 0002:00005470       __newclmap                 0000000180028470     libucrt:ctype.obj
 0002:000055f0       __newcumap                 00000001800285f0     libucrt:ctype.obj
 0002:00005770       _wctype                    0000000180028770     libucrt:ctype.obj
 0002:000067c0       ??_C@_15EMKDOKLE@?$AAa?$AAr@ 00000001800297c0     libucrt:lcidtoname_downlevel.obj
 0002:000067c8       ??_C@_15KNPADPLH@?$AAb?$AAg@ 00000001800297c8     libucrt:lcidtoname_downlevel.obj
 0002:000067d0       ??_C@_15EDMHLDMO@?$AAc?$AAa@ 00000001800297d0     libucrt:lcidtoname_downlevel.obj
 0002:000067d8       ??_C@_1O@BPEAJADD@?$AAz?$AAh?$AA?9?$AAC?$AAH?$AAS@ 00000001800297d8     libucrt:lcidtoname_downlevel.obj
 0002:000067e8       ??_C@_15LJNHCMNK@?$AAc?$AAs@ 00000001800297e8     libucrt:lcidtoname_downlevel.obj
 0002:000067f0       ??_C@_15FOMCIDHG@?$AAd?$AAa@ 00000001800297f0     libucrt:lcidtoname_downlevel.obj
 0002:000067f8       ??_C@_15NBKABECB@?$AAd?$AAe@ 00000001800297f8     libucrt:lcidtoname_downlevel.obj
 0002:00006800       ??_C@_15GHPEIIAO@?$AAe?$AAl@ 0000000180029800     libucrt:lcidtoname_downlevel.obj
 0002:00006808       ??_C@_15MNPNEAIF@?$AAe?$AAn@ 0000000180029808     libucrt:lcidtoname_downlevel.obj
 0002:00006810       ??_C@_15GPIOMPMH@?$AAe?$AAs@ 0000000180029810     libucrt:lcidtoname_downlevel.obj
 0002:00006818       ??_C@_15NGLOAKJC@?$AAf?$AAi@ 0000000180029818     libucrt:lcidtoname_downlevel.obj
 0002:00006820       ??_C@_15FBKGNKAM@?$AAf?$AAr@ 0000000180029820     libucrt:lcidtoname_downlevel.obj
 0002:00006828       ??_C@_15KGGCNEFK@?$AAh?$AAe@ 0000000180029828     libucrt:lcidtoname_downlevel.obj
 0002:00006830       ??_C@_15PGHLIDMF@?$AAh?$AAu@ 0000000180029830     libucrt:lcidtoname_downlevel.obj
 0002:00006838       ??_C@_15BIEMAPLM@?$AAi?$AAs@ 0000000180029838     libucrt:lcidtoname_downlevel.obj
 0002:00006840       ??_C@_15IFJLDHAF@?$AAi?$AAt@ 0000000180029840     libucrt:lcidtoname_downlevel.obj
 0002:00006848       ??_C@_15GEMIOCAG@?$AAj?$AAa@ 0000000180029848     libucrt:lcidtoname_downlevel.obj
 0002:00006850       ??_C@_15EPELEGJA@?$AAk?$AAo@ 0000000180029850     libucrt:lcidtoname_downlevel.obj
 0002:00006858       ??_C@_15NDDHIMN@?$AAn?$AAl@ 0000000180029858     libucrt:lcidtoname_downlevel.obj
 0002:00006860       ??_C@_15BPIGNHCD@?$AAn?$AAo@ 0000000180029860     libucrt:lcidtoname_downlevel.obj
 0002:00006868       ??_C@_15DEOPBLCG@?$AAp?$AAl@ 0000000180029868     libucrt:lcidtoname_downlevel.obj
 0002:00006870       ??_C@_15KBECGEFG@?$AAp?$AAt@ 0000000180029870     libucrt:lcidtoname_downlevel.obj
 0002:00006878       ??_C@_15GLJCBFMD@?$AAr?$AAo@ 0000000180029878     libucrt:lcidtoname_downlevel.obj
 0002:00006880       ??_C@_15FEDGKCDI@?$AAr?$AAu@ 0000000180029880     libucrt:lcidtoname_downlevel.obj
 0002:00006888       ??_C@_15GLKMLLHM@?$AAh?$AAr@ 0000000180029888     libucrt:lcidtoname_downlevel.obj
 0002:00006890       ??_C@_15CPKMFBDB@?$AAs?$AAk@ 0000000180029890     libucrt:lcidtoname_downlevel.obj
 0002:00006898       ??_C@_15BAAIOGMK@?$AAs?$AAq@ 0000000180029898     libucrt:lcidtoname_downlevel.obj
 0002:000068a0       ??_C@_15INNPNOHD@?$AAs?$AAv@ 00000001800298a0     libucrt:lcidtoname_downlevel.obj
 0002:000068a8       ??_C@_15CABMMOGH@?$AAt?$AAh@ 00000001800298a8     libucrt:lcidtoname_downlevel.obj
 0002:000068b0       ??_C@_15BPLIHJJM@?$AAt?$AAr@ 00000001800298b0     libucrt:lcidtoname_downlevel.obj
 0002:000068b8       ??_C@_15NEOEKKDJ@?$AAu?$AAr@ 00000001800298b8     libucrt:lcidtoname_downlevel.obj
 0002:000068c0       ??_C@_15NFICGAJK@?$AAi?$AAd@ 00000001800298c0     libucrt:lcidtoname_downlevel.obj
 0002:000068c8       ??_C@_15PJPFLCCM@?$AAu?$AAk@ 00000001800298c8     libucrt:lcidtoname_downlevel.obj
 0002:000068d0       ??_C@_15HPJPHDM@?$AAb?$AAe@ 00000001800298d0     libucrt:lcidtoname_downlevel.obj
 0002:000068d8       ??_C@_15LCHLGJII@?$AAs?$AAl@ 00000001800298d8     libucrt:lcidtoname_downlevel.obj
 0002:000068e0       ??_C@_15PCFJPHHO@?$AAe?$AAt@ 00000001800298e0     libucrt:lcidtoname_downlevel.obj
 0002:000068e8       ??_C@_15HPFPGODN@?$AAl?$AAv@ 00000001800298e8     libucrt:lcidtoname_downlevel.obj
 0002:000068f0       ??_C@_15NFFGKGLG@?$AAl?$AAt@ 00000001800298f0     libucrt:lcidtoname_downlevel.obj
 0002:000068f8       ??_C@_15BDAKCCHN@?$AAf?$AAa@ 00000001800298f8     libucrt:lcidtoname_downlevel.obj
 0002:00006900       ??_C@_15NFGIAIAJ@?$AAv?$AAi@ 0000000180029900     libucrt:lcidtoname_downlevel.obj
 0002:00006908       ??_C@_15LMKNDMHN@?$AAh?$AAy@ 0000000180029908     libucrt:lcidtoname_downlevel.obj
 0002:00006910       ??_C@_15IJBHMCFL@?$AAa?$AAz@ 0000000180029910     libucrt:lcidtoname_downlevel.obj
 0002:00006918       ??_C@_15EKOFJABL@?$AAe?$AAu@ 0000000180029918     libucrt:lcidtoname_downlevel.obj
 0002:00006920       ??_C@_15BGHADCNK@?$AAm?$AAk@ 0000000180029920     libucrt:lcidtoname_downlevel.obj
 0002:00006928       ??_C@_15JDNICKHM@?$AAa?$AAf@ 0000000180029928     libucrt:lcidtoname_downlevel.obj
 0002:00006930       ??_C@_15KPJEDBKD@?$AAk?$AAa@ 0000000180029930     libucrt:lcidtoname_downlevel.obj
 0002:00006938       ??_C@_15PDNFFFEO@?$AAf?$AAo@ 0000000180029938     libucrt:lcidtoname_downlevel.obj
 0002:00006940       ??_C@_15OMLEGLOC@?$AAh?$AAi@ 0000000180029940     libucrt:lcidtoname_downlevel.obj
 0002:00006948       ??_C@_15IDNNENKK@?$AAm?$AAs@ 0000000180029948     libucrt:lcidtoname_downlevel.obj
 0002:00006950       ??_C@_15MACJNBMH@?$AAk?$AAk@ 0000000180029950     libucrt:lcidtoname_downlevel.obj
 0002:00006958       ??_C@_15DKDJEOND@?$AAk?$AAy@ 0000000180029958     libucrt:lcidtoname_downlevel.obj
 0002:00006960       ??_C@_15DFGDLJBG@?$AAs?$AAw@ 0000000180029960     libucrt:lcidtoname_downlevel.obj
 0002:00006968       ??_C@_15BBFAICNG@?$AAu?$AAz@ 0000000180029968     libucrt:lcidtoname_downlevel.obj
 0002:00006970       ??_C@_15DKNDCGEA@?$AAt?$AAt@ 0000000180029970     libucrt:lcidtoname_downlevel.obj
 0002:00006978       ??_C@_15MGIFMDPL@?$AAp?$AAa@ 0000000180029978     libucrt:lcidtoname_downlevel.obj
 0002:00006980       ??_C@_15HCNDBBA@?$AAg?$AAu@ 0000000180029980     libucrt:lcidtoname_downlevel.obj
 0002:00006988       ??_C@_15FNBEIBON@?$AAt?$AAa@ 0000000180029988     libucrt:lcidtoname_downlevel.obj
 0002:00006990       ??_C@_15NCHGBGLK@?$AAt?$AAe@ 0000000180029990     libucrt:lcidtoname_downlevel.obj
 0002:00006998       ??_C@_15PHPHCBPF@?$AAk?$AAn@ 0000000180029998     libucrt:lcidtoname_downlevel.obj
 0002:000069a0       ??_C@_15DLGBCKMP@?$AAm?$AAr@ 00000001800299a0     libucrt:lcidtoname_downlevel.obj
 0002:000069a8       ??_C@_15EABBLBFF@?$AAs?$AAa@ 00000001800299a8     libucrt:lcidtoname_downlevel.obj
 0002:000069b0       ??_C@_15CBKOMCOI@?$AAm?$AAn@ 00000001800299b0     libucrt:lcidtoname_downlevel.obj
 0002:000069b8       ??_C@_15CKDMCJAF@?$AAg?$AAl@ 00000001800299b8     libucrt:lcidtoname_downlevel.obj
 0002:000069c0       ??_C@_17CNJFBPG@?$AAk?$AAo?$AAk@ 00000001800299c0     libucrt:lcidtoname_downlevel.obj
 0002:000069c8       ??_C@_17FFBJICPL@?$AAs?$AAy?$AAr@ 00000001800299c8     libucrt:lcidtoname_downlevel.obj
 0002:000069d0       ??_C@_17KPNDCPAF@?$AAd?$AAi?$AAv@ 00000001800299d0     libucrt:lcidtoname_downlevel.obj
 0002:000069d8       ??_C@_1M@OKAHONE@?$AAa?$AAr?$AA?9?$AAS?$AAA@ 00000001800299d8     libucrt:lcidtoname_downlevel.obj
 0002:000069e8       ??_C@_1M@FFFIGIGK@?$AAb?$AAg?$AA?9?$AAB?$AAG@ 00000001800299e8     libucrt:lcidtoname_downlevel.obj
 0002:000069f8       ??_C@_1M@BJNKEDC@?$AAc?$AAa?$AA?9?$AAE?$AAS@ 00000001800299f8     libucrt:lcidtoname_downlevel.obj
 0002:00006a08       ??_C@_1M@IJJHFJHA@?$AAc?$AAs?$AA?9?$AAC?$AAZ@ 0000000180029a08     libucrt:lcidtoname_downlevel.obj
 0002:00006a18       ??_C@_1M@CLPEOBGI@?$AAd?$AAa?$AA?9?$AAD?$AAK@ 0000000180029a18     libucrt:lcidtoname_downlevel.obj
 0002:00006a28       ??_C@_1M@MCMADGCB@?$AAd?$AAe?$AA?9?$AAD?$AAE@ 0000000180029a28     libucrt:lcidtoname_downlevel.obj
 0002:00006a38       ??_C@_1M@OOCKEMAM@?$AAe?$AAl?$AA?9?$AAG?$AAR@ 0000000180029a38     libucrt:lcidtoname_downlevel.obj
 0002:00006a48       ??_C@_1M@DDNJFGID@?$AAf?$AAi?$AA?9?$AAF?$AAI@ 0000000180029a48     libucrt:lcidtoname_downlevel.obj
 0002:00006a58       ??_C@_1M@GLIPPMAC@?$AAf?$AAr?$AA?9?$AAF?$AAR@ 0000000180029a58     libucrt:lcidtoname_downlevel.obj
 0002:00006a68       ??_C@_1M@GFMCHPE@?$AAh?$AAe?$AA?9?$AAI?$AAL@ 0000000180029a68     libucrt:lcidtoname_downlevel.obj
 0002:00006a78       ??_C@_1M@MHLPGNKM@?$AAh?$AAu?$AA?9?$AAH?$AAU@ 0000000180029a78     libucrt:lcidtoname_downlevel.obj
 0002:00006a88       ??_C@_1M@LPDDNNPN@?$AAi?$AAs?$AA?9?$AAI?$AAS@ 0000000180029a88     libucrt:lcidtoname_downlevel.obj
 0002:00006a98       ??_C@_1M@MADIPODN@?$AAi?$AAt?$AA?9?$AAI?$AAT@ 0000000180029a98     libucrt:lcidtoname_downlevel.obj
 0002:00006aa8       ??_C@_1M@IHBJJGG@?$AAn?$AAl?$AA?9?$AAN?$AAL@ 0000000180029aa8     libucrt:lcidtoname_downlevel.obj
 0002:00006ab8       ??_C@_1M@EANAGDL@?$AAn?$AAb?$AA?9?$AAN?$AAO@ 0000000180029ab8     libucrt:lcidtoname_downlevel.obj
 0002:00006ac8       ??_C@_1M@NEIEMEGP@?$AAp?$AAl?$AA?9?$AAP?$AAL@ 0000000180029ac8     libucrt:lcidtoname_downlevel.obj
 0002:00006ad8       ??_C@_1M@BOCFIGEP@?$AAp?$AAt?$AA?9?$AAB?$AAR@ 0000000180029ad8     libucrt:lcidtoname_downlevel.obj
 0002:00006ae8       ??_C@_1M@IMPFOPBG@?$AAr?$AAo?$AA?9?$AAR?$AAO@ 0000000180029ae8     libucrt:lcidtoname_downlevel.obj
 0002:00006af8       ??_C@_1M@IDNNEJMM@?$AAr?$AAu?$AA?9?$AAR?$AAU@ 0000000180029af8     libucrt:lcidtoname_downlevel.obj
 0002:00006b08       ??_C@_1M@LILEEOGM@?$AAh?$AAr?$AA?9?$AAH?$AAR@ 0000000180029b08     libucrt:lcidtoname_downlevel.obj
 0002:00006b18       ??_C@_1M@FKIFEHPB@?$AAs?$AAk?$AA?9?$AAS?$AAK@ 0000000180029b18     libucrt:lcidtoname_downlevel.obj
 0002:00006b28       ??_C@_1M@LJMAMNPJ@?$AAs?$AAq?$AA?9?$AAA?$AAL@ 0000000180029b28     libucrt:lcidtoname_downlevel.obj
 0002:00006b38       ??_C@_1M@GIAKDKJK@?$AAs?$AAv?$AA?9?$AAS?$AAE@ 0000000180029b38     libucrt:lcidtoname_downlevel.obj
 0002:00006b48       ??_C@_1M@MKJKIKCL@?$AAt?$AAh?$AA?9?$AAT?$AAH@ 0000000180029b48     libucrt:lcidtoname_downlevel.obj
 0002:00006b58       ??_C@_1M@MFLCCMPB@?$AAt?$AAr?$AA?9?$AAT?$AAR@ 0000000180029b58     libucrt:lcidtoname_downlevel.obj
 0002:00006b68       ??_C@_1M@OIJHDKJN@?$AAu?$AAr?$AA?9?$AAP?$AAK@ 0000000180029b68     libucrt:lcidtoname_downlevel.obj
 0002:00006b78       ??_C@_1M@LHIPCIEK@?$AAi?$AAd?$AA?9?$AAI?$AAD@ 0000000180029b78     libucrt:lcidtoname_downlevel.obj
 0002:00006b88       ??_C@_1M@MFMOBGI@?$AAu?$AAk?$AA?9?$AAU?$AAA@ 0000000180029b88     libucrt:lcidtoname_downlevel.obj
 0002:00006b98       ??_C@_1M@OBGLJIPL@?$AAb?$AAe?$AA?9?$AAB?$AAY@ 0000000180029b98     libucrt:lcidtoname_downlevel.obj
 0002:00006ba8       ??_C@_1M@BCFAJEAD@?$AAs?$AAl?$AA?9?$AAS?$AAI@ 0000000180029ba8     libucrt:lcidtoname_downlevel.obj
 0002:00006bb8       ??_C@_1M@FKFFEDDN@?$AAe?$AAt?$AA?9?$AAE?$AAE@ 0000000180029bb8     libucrt:lcidtoname_downlevel.obj
 0002:00006bc8       ??_C@_1M@KGKKAACI@?$AAl?$AAv?$AA?9?$AAL?$AAV@ 0000000180029bc8     libucrt:lcidtoname_downlevel.obj
 0002:00006bd8       ??_C@_1M@IFGBIJO@?$AAl?$AAt?$AA?9?$AAL?$AAT@ 0000000180029bd8     libucrt:lcidtoname_downlevel.obj
 0002:00006be8       ??_C@_1M@FGEAHEDM@?$AAf?$AAa?$AA?9?$AAI?$AAR@ 0000000180029be8     libucrt:lcidtoname_downlevel.obj
 0002:00006bf8       ??_C@_1M@KBMAIBFN@?$AAv?$AAi?$AA?9?$AAV?$AAN@ 0000000180029bf8     libucrt:lcidtoname_downlevel.obj
 0002:00006c08       ??_C@_1M@GPCBKDJK@?$AAh?$AAy?$AA?9?$AAA?$AAM@ 0000000180029c08     libucrt:lcidtoname_downlevel.obj
 0002:00006c18       ??_C@_1BG@BECMDDJB@?$AAa?$AAz?$AA?9?$AAA?$AAZ?$AA?9?$AAL?$AAa?$AAt?$AAn@ 0000000180029c18     libucrt:lcidtoname_downlevel.obj
 0002:00006c30       ??_C@_1M@MAOFCAEA@?$AAe?$AAu?$AA?9?$AAE?$AAS@ 0000000180029c30     libucrt:lcidtoname_downlevel.obj
 0002:00006c40       ??_C@_1M@IGHABKPI@?$AAm?$AAk?$AA?9?$AAM?$AAK@ 0000000180029c40     libucrt:lcidtoname_downlevel.obj
 0002:00006c50       ??_C@_1M@IAIGNEJG@?$AAt?$AAn?$AA?9?$AAZ?$AAA@ 0000000180029c50     libucrt:lcidtoname_downlevel.obj
 0002:00006c60       ??_C@_1M@IIJCOJFA@?$AAx?$AAh?$AA?9?$AAZ?$AAA@ 0000000180029c60     libucrt:lcidtoname_downlevel.obj
 0002:00006c70       ??_C@_1M@LGPJHNJH@?$AAz?$AAu?$AA?9?$AAZ?$AAA@ 0000000180029c70     libucrt:lcidtoname_downlevel.obj
 0002:00006c80       ??_C@_1M@HOKAOIO@?$AAa?$AAf?$AA?9?$AAZ?$AAA@ 0000000180029c80     libucrt:lcidtoname_downlevel.obj
 0002:00006c90       ??_C@_1M@DPCLHLIE@?$AAk?$AAa?$AA?9?$AAG?$AAE@ 0000000180029c90     libucrt:lcidtoname_downlevel.obj
 0002:00006ca0       ??_C@_1M@BLKMHJBI@?$AAf?$AAo?$AA?9?$AAF?$AAO@ 0000000180029ca0     libucrt:lcidtoname_downlevel.obj
 0002:00006cb0       ??_C@_1M@LGGJAPPB@?$AAh?$AAi?$AA?9?$AAI?$AAN@ 0000000180029cb0     libucrt:lcidtoname_downlevel.obj
 0002:00006cc0       ??_C@_1M@FIKPIHFE@?$AAm?$AAt?$AA?9?$AAM?$AAT@ 0000000180029cc0     libucrt:lcidtoname_downlevel.obj
 0002:00006cd0       ??_C@_1M@HEGGPBFA@?$AAs?$AAe?$AA?9?$AAN?$AAO@ 0000000180029cd0     libucrt:lcidtoname_downlevel.obj
 0002:00006ce0       ??_C@_1M@EIBJEEPA@?$AAm?$AAs?$AA?9?$AAM?$AAY@ 0000000180029ce0     libucrt:lcidtoname_downlevel.obj
 0002:00006cf0       ??_C@_1M@FHLBGMPP@?$AAk?$AAk?$AA?9?$AAK?$AAZ@ 0000000180029cf0     libucrt:lcidtoname_downlevel.obj
 0002:00006d00       ??_C@_1M@NGJJLCGI@?$AAk?$AAy?$AA?9?$AAK?$AAG@ 0000000180029d00     libucrt:lcidtoname_downlevel.obj
 0002:00006d10       ??_C@_1M@GIENNBFC@?$AAs?$AAw?$AA?9?$AAK?$AAE@ 0000000180029d10     libucrt:lcidtoname_downlevel.obj
 0002:00006d20       ??_C@_1BG@NDGMJIMJ@?$AAu?$AAz?$AA?9?$AAU?$AAZ?$AA?9?$AAL?$AAa?$AAt?$AAn@ 0000000180029d20     libucrt:lcidtoname_downlevel.obj
 0002:00006d38       ??_C@_1M@IDCCIHBC@?$AAt?$AAt?$AA?9?$AAR?$AAU@ 0000000180029d38     libucrt:lcidtoname_downlevel.obj
 0002:00006d48       ??_C@_1M@LOICPMOJ@?$AAb?$AAn?$AA?9?$AAI?$AAN@ 0000000180029d48     libucrt:lcidtoname_downlevel.obj
 0002:00006d58       ??_C@_1M@KPKKNEAH@?$AAp?$AAa?$AA?9?$AAI?$AAN@ 0000000180029d58     libucrt:lcidtoname_downlevel.obj
 0002:00006d68       ??_C@_1M@PJGPPBOG@?$AAg?$AAu?$AA?9?$AAI?$AAN@ 0000000180029d68     libucrt:lcidtoname_downlevel.obj
 0002:00006d78       ??_C@_1M@KMKMOPHI@?$AAt?$AAa?$AA?9?$AAI?$AAN@ 0000000180029d78     libucrt:lcidtoname_downlevel.obj
 0002:00006d88       ??_C@_1M@KFEHEPAC@?$AAt?$AAe?$AA?9?$AAI?$AAN@ 0000000180029d88     libucrt:lcidtoname_downlevel.obj
 0002:00006d98       ??_C@_1M@CDCLMGHI@?$AAk?$AAn?$AA?9?$AAI?$AAN@ 0000000180029d98     libucrt:lcidtoname_downlevel.obj
 0002:00006da8       ??_C@_1M@MIODLDKF@?$AAm?$AAl?$AA?9?$AAI?$AAN@ 0000000180029da8     libucrt:lcidtoname_downlevel.obj
 0002:00006db8       ??_C@_1M@PBIEACPO@?$AAm?$AAr?$AA?9?$AAI?$AAN@ 0000000180029db8     libucrt:lcidtoname_downlevel.obj
 0002:00006dc8       ??_C@_1M@NIDEAGPH@?$AAs?$AAa?$AA?9?$AAI?$AAN@ 0000000180029dc8     libucrt:lcidtoname_downlevel.obj
 0002:00006dd8       ??_C@_1M@FHIHCBIO@?$AAm?$AAn?$AA?9?$AAM?$AAN@ 0000000180029dd8     libucrt:lcidtoname_downlevel.obj
 0002:00006de8       ??_C@_1M@JAIJPENP@?$AAc?$AAy?$AA?9?$AAG?$AAB@ 0000000180029de8     libucrt:lcidtoname_downlevel.obj
 0002:00006df8       ??_C@_1M@PHGFBEPN@?$AAg?$AAl?$AA?9?$AAE?$AAS@ 0000000180029df8     libucrt:lcidtoname_downlevel.obj
 0002:00006e08       ??_C@_1O@KPIPDNCP@?$AAk?$AAo?$AAk?$AA?9?$AAI?$AAN@ 0000000180029e08     libucrt:lcidtoname_downlevel.obj
 0002:00006e18       ??_C@_1O@KNHJLDJA@?$AAs?$AAy?$AAr?$AA?9?$AAS?$AAY@ 0000000180029e18     libucrt:lcidtoname_downlevel.obj
 0002:00006e28       ??_C@_1O@MKEKBLAH@?$AAd?$AAi?$AAv?$AA?9?$AAM?$AAV@ 0000000180029e28     libucrt:lcidtoname_downlevel.obj
 0002:00006e38       ??_C@_1O@OHDCKDDF@?$AAq?$AAu?$AAz?$AA?9?$AAB?$AAO@ 0000000180029e38     libucrt:lcidtoname_downlevel.obj
 0002:00006e48       ??_C@_1M@LEPJNLFD@?$AAn?$AAs?$AA?9?$AAZ?$AAA@ 0000000180029e48     libucrt:lcidtoname_downlevel.obj
 0002:00006e58       ??_C@_1M@OMLEIIJB@?$AAm?$AAi?$AA?9?$AAN?$AAZ@ 0000000180029e58     libucrt:lcidtoname_downlevel.obj
 0002:00006e68       ??_C@_1M@PMPEAILG@?$AAa?$AAr?$AA?9?$AAI?$AAQ@ 0000000180029e68     libucrt:lcidtoname_downlevel.obj
 0002:00006e78       ??_C@_1M@CNKPNOEE@?$AAd?$AAe?$AA?9?$AAC?$AAH@ 0000000180029e78     libucrt:lcidtoname_downlevel.obj
 0002:00006e88       ??_C@_1M@LKMGMLKO@?$AAe?$AAn?$AA?9?$AAG?$AAB@ 0000000180029e88     libucrt:lcidtoname_downlevel.obj
 0002:00006e98       ??_C@_1M@PGKJFFGL@?$AAe?$AAs?$AA?9?$AAM?$AAX@ 0000000180029e98     libucrt:lcidtoname_downlevel.obj
 0002:00006ea8       ??_C@_1M@DNNANBDC@?$AAf?$AAr?$AA?9?$AAB?$AAE@ 0000000180029ea8     libucrt:lcidtoname_downlevel.obj
 0002:00006eb8       ??_C@_1M@HLGMDFHM@?$AAi?$AAt?$AA?9?$AAC?$AAH@ 0000000180029eb8     libucrt:lcidtoname_downlevel.obj
 0002:00006ec8       ??_C@_1M@CLLBGJH@?$AAn?$AAl?$AA?9?$AAB?$AAE@ 0000000180029ec8     libucrt:lcidtoname_downlevel.obj
 0002:00006ed8       ??_C@_1M@BODBOGLF@?$AAn?$AAn?$AA?9?$AAN?$AAO@ 0000000180029ed8     libucrt:lcidtoname_downlevel.obj
 0002:00006ee8       ??_C@_1M@HFFAHKAD@?$AAp?$AAt?$AA?9?$AAP?$AAT@ 0000000180029ee8     libucrt:lcidtoname_downlevel.obj
 0002:00006ef8       ??_C@_1BG@LNOAKHIE@?$AAs?$AAr?$AA?9?$AAS?$AAP?$AA?9?$AAL?$AAa?$AAt?$AAn@ 0000000180029ef8     libucrt:lcidtoname_downlevel.obj
 0002:00006f10       ??_C@_1M@HBMHBGAK@?$AAs?$AAv?$AA?9?$AAF?$AAI@ 0000000180029f10     libucrt:lcidtoname_downlevel.obj
 0002:00006f20       ??_C@_1BG@DGCJGJBE@?$AAa?$AAz?$AA?9?$AAA?$AAZ?$AA?9?$AAC?$AAy?$AAr?$AAl@ 0000000180029f20     libucrt:lcidtoname_downlevel.obj
 0002:00006f38       ??_C@_1M@KEJDAAHB@?$AAs?$AAe?$AA?9?$AAS?$AAE@ 0000000180029f38     libucrt:lcidtoname_downlevel.obj
 0002:00006f48       ??_C@_1M@HEIBJJAD@?$AAm?$AAs?$AA?9?$AAB?$AAN@ 0000000180029f48     libucrt:lcidtoname_downlevel.obj
 0002:00006f58       ??_C@_1BG@PBGJMCEM@?$AAu?$AAz?$AA?9?$AAU?$AAZ?$AA?9?$AAC?$AAy?$AAr?$AAl@ 0000000180029f58     libucrt:lcidtoname_downlevel.obj
 0002:00006f70       ??_C@_1O@LAOBCMDF@?$AAq?$AAu?$AAz?$AA?9?$AAE?$AAC@ 0000000180029f70     libucrt:lcidtoname_downlevel.obj
 0002:00006f80       ??_C@_1M@POEEMAIO@?$AAa?$AAr?$AA?9?$AAE?$AAG@ 0000000180029f80     libucrt:lcidtoname_downlevel.obj
 0002:00006f90       ??_C@_1M@EFAKDEDL@?$AAz?$AAh?$AA?9?$AAH?$AAK@ 0000000180029f90     libucrt:lcidtoname_downlevel.obj
 0002:00006fa0       ??_C@_1M@HKKIJHGI@?$AAd?$AAe?$AA?9?$AAA?$AAT@ 0000000180029fa0     libucrt:lcidtoname_downlevel.obj
 0002:00006fb0       ??_C@_1M@KBFBEHJF@?$AAe?$AAn?$AA?9?$AAA?$AAU@ 0000000180029fb0     libucrt:lcidtoname_downlevel.obj
 0002:00006fc0       ??_C@_1M@MNPLFAAH@?$AAe?$AAs?$AA?9?$AAE?$AAS@ 0000000180029fc0     libucrt:lcidtoname_downlevel.obj
 0002:00006fd0       ??_C@_1M@HJOOJFMA@?$AAf?$AAr?$AA?9?$AAC?$AAA@ 0000000180029fd0     libucrt:lcidtoname_downlevel.obj
 0002:00006fe0       ??_C@_1BG@JPOFPNAB@?$AAs?$AAr?$AA?9?$AAS?$AAP?$AA?9?$AAC?$AAy?$AAr?$AAl@ 0000000180029fe0     libucrt:lcidtoname_downlevel.obj
 0002:00006ff8       ??_C@_1M@LNFOCMOB@?$AAs?$AAe?$AA?9?$AAF?$AAI@ 0000000180029ff8     libucrt:lcidtoname_downlevel.obj
 0002:00007008       ??_C@_1O@MGJBOAMB@?$AAq?$AAu?$AAz?$AA?9?$AAP?$AAE@ 000000018002a008     libucrt:lcidtoname_downlevel.obj
 0002:00007018       ??_C@_1M@GJINLBOK@?$AAa?$AAr?$AA?9?$AAL?$AAY@ 000000018002a018     libucrt:lcidtoname_downlevel.obj
 0002:00007028       ??_C@_1M@GGMNHJNL@?$AAz?$AAh?$AA?9?$AAS?$AAG@ 000000018002a028     libucrt:lcidtoname_downlevel.obj
 0002:00007038       ??_C@_1M@HOIKODND@?$AAd?$AAe?$AA?9?$AAL?$AAU@ 000000018002a038     libucrt:lcidtoname_downlevel.obj
 0002:00007048       ??_C@_1M@DDOCCGFG@?$AAe?$AAn?$AA?9?$AAC?$AAA@ 000000018002a048     libucrt:lcidtoname_downlevel.obj
 0002:00007058       ??_C@_1M@BNOEMJLF@?$AAe?$AAs?$AA?9?$AAG?$AAT@ 000000018002a058     libucrt:lcidtoname_downlevel.obj
 0002:00007068       ??_C@_1M@EOGNKEK@?$AAf?$AAr?$AA?9?$AAC?$AAH@ 000000018002a068     libucrt:lcidtoname_downlevel.obj
 0002:00007078       ??_C@_1M@FLIDJFHL@?$AAh?$AAr?$AA?9?$AAB?$AAA@ 000000018002a078     libucrt:lcidtoname_downlevel.obj
 0002:00007088       ??_C@_1O@FMCELNAJ@?$AAs?$AAm?$AAj?$AA?9?$AAN?$AAO@ 000000018002a088     libucrt:lcidtoname_downlevel.obj
 0002:00007098       ??_C@_1M@JHGLJMGJ@?$AAa?$AAr?$AA?9?$AAD?$AAZ@ 000000018002a098     libucrt:lcidtoname_downlevel.obj
 0002:000070a8       ??_C@_1M@JKKFDCNP@?$AAz?$AAh?$AA?9?$AAM?$AAO@ 000000018002a0a8     libucrt:lcidtoname_downlevel.obj
 0002:000070b8       ??_C@_1M@GEEFALPE@?$AAd?$AAe?$AA?9?$AAL?$AAI@ 000000018002a0b8     libucrt:lcidtoname_downlevel.obj
 0002:000070c8       ??_C@_1M@IGEOFBG@?$AAe?$AAn?$AA?9?$AAN?$AAZ@ 000000018002a0c8     libucrt:lcidtoname_downlevel.obj
 0002:000070d8       ??_C@_1M@KDBONEHP@?$AAe?$AAs?$AA?9?$AAC?$AAR@ 000000018002a0d8     libucrt:lcidtoname_downlevel.obj
 0002:000070e8       ??_C@_1M@FHMDOHNN@?$AAf?$AAr?$AA?9?$AAL?$AAU@ 000000018002a0e8     libucrt:lcidtoname_downlevel.obj
 0002:000070f8       ??_C@_1BG@NFKKMAFG@?$AAb?$AAs?$AA?9?$AAB?$AAA?$AA?9?$AAL?$AAa?$AAt?$AAn@ 000000018002a0f8     libucrt:lcidtoname_downlevel.obj
 0002:00007110       ??_C@_1O@IMNBEMCI@?$AAs?$AAm?$AAj?$AA?9?$AAS?$AAE@ 000000018002a110     libucrt:lcidtoname_downlevel.obj
 0002:00007120       ??_C@_1M@DHHMBNDP@?$AAa?$AAr?$AA?9?$AAM?$AAA@ 000000018002a120     libucrt:lcidtoname_downlevel.obj
 0002:00007130       ??_C@_1M@BNBLJCGH@?$AAe?$AAn?$AA?9?$AAI?$AAE@ 000000018002a130     libucrt:lcidtoname_downlevel.obj
 0002:00007140       ??_C@_1M@GEPAFMDL@?$AAe?$AAs?$AA?9?$AAP?$AAA@ 000000018002a140     libucrt:lcidtoname_downlevel.obj
 0002:00007150       ??_C@_1M@OJONDMDL@?$AAf?$AAr?$AA?9?$AAM?$AAC@ 000000018002a150     libucrt:lcidtoname_downlevel.obj
 0002:00007160       ??_C@_1BG@OBCNFJB@?$AAs?$AAr?$AA?9?$AAB?$AAA?$AA?9?$AAL?$AAa?$AAt?$AAn@ 000000018002a160     libucrt:lcidtoname_downlevel.obj
 0002:00007178       ??_C@_1O@KEMEEGPO@?$AAs?$AAm?$AAa?$AA?9?$AAN?$AAO@ 000000018002a178     libucrt:lcidtoname_downlevel.obj
 0002:00007188       ??_C@_1M@ELMGFODK@?$AAa?$AAr?$AA?9?$AAT?$AAN@ 000000018002a188     libucrt:lcidtoname_downlevel.obj
 0002:00007198       ??_C@_1M@BHDLHFAF@?$AAe?$AAn?$AA?9?$AAZ?$AAA@ 000000018002a198     libucrt:lcidtoname_downlevel.obj
 0002:000071a8       ??_C@_1M@BMGIGLIF@?$AAe?$AAs?$AA?9?$AAD?$AAO@ 000000018002a1a8     libucrt:lcidtoname_downlevel.obj
 0002:000071b8       ??_C@_1BG@CMBHIPBE@?$AAs?$AAr?$AA?9?$AAB?$AAA?$AA?9?$AAC?$AAy?$AAr?$AAl@ 000000018002a1b8     libucrt:lcidtoname_downlevel.obj
 0002:000071d0       ??_C@_1O@HEDBLHNP@?$AAs?$AAm?$AAa?$AA?9?$AAS?$AAE@ 000000018002a1d0     libucrt:lcidtoname_downlevel.obj
 0002:000071e0       ??_C@_1M@DAGCADIM@?$AAa?$AAr?$AA?9?$AAO?$AAM@ 000000018002a1e0     libucrt:lcidtoname_downlevel.obj
 0002:000071f0       ??_C@_1M@FODLMICG@?$AAe?$AAn?$AA?9?$AAJ?$AAM@ 000000018002a1f0     libucrt:lcidtoname_downlevel.obj
 0002:00007200       ??_C@_1M@DNMLCIHB@?$AAe?$AAs?$AA?9?$AAV?$AAE@ 000000018002a200     libucrt:lcidtoname_downlevel.obj
 0002:00007210       ??_C@_1O@EOKHMKJK@?$AAs?$AAm?$AAs?$AA?9?$AAF?$AAI@ 000000018002a210     libucrt:lcidtoname_downlevel.obj
 0002:00007220       ??_C@_1M@CAFJMKOF@?$AAa?$AAr?$AA?9?$AAY?$AAE@ 000000018002a220     libucrt:lcidtoname_downlevel.obj
 0002:00007230       ??_C@_1M@CBFHIJLI@?$AAe?$AAn?$AA?9?$AAC?$AAB@ 000000018002a230     libucrt:lcidtoname_downlevel.obj
 0002:00007240       ??_C@_1M@BGNFLDN@?$AAe?$AAs?$AA?9?$AAC?$AAO@ 000000018002a240     libucrt:lcidtoname_downlevel.obj
 0002:00007250       ??_C@_1O@JMPHMAMC@?$AAs?$AAm?$AAn?$AA?9?$AAF?$AAI@ 000000018002a250     libucrt:lcidtoname_downlevel.obj
 0002:00007260       ??_C@_1M@JLANABKE@?$AAa?$AAr?$AA?9?$AAS?$AAY@ 000000018002a260     libucrt:lcidtoname_downlevel.obj
 0002:00007270       ??_C@_1M@HPKGCFGN@?$AAe?$AAn?$AA?9?$AAB?$AAZ@ 000000018002a270     libucrt:lcidtoname_downlevel.obj
 0002:00007280       ??_C@_1M@OLJCMLGM@?$AAe?$AAs?$AA?9?$AAP?$AAE@ 000000018002a280     libucrt:lcidtoname_downlevel.obj
 0002:00007290       ??_C@_1M@MKKGFKLE@?$AAa?$AAr?$AA?9?$AAJ?$AAO@ 000000018002a290     libucrt:lcidtoname_downlevel.obj
 0002:000072a0       ??_C@_1M@EKPGLDNI@?$AAe?$AAn?$AA?9?$AAT?$AAT@ 000000018002a2a0     libucrt:lcidtoname_downlevel.obj
 0002:000072b0       ??_C@_1M@OONGHFHE@?$AAe?$AAs?$AA?9?$AAA?$AAR@ 000000018002a2b0     libucrt:lcidtoname_downlevel.obj
 0002:000072c0       ??_C@_1M@OOJFGBHE@?$AAa?$AAr?$AA?9?$AAL?$AAB@ 000000018002a2c0     libucrt:lcidtoname_downlevel.obj
 0002:000072d0       ??_C@_1M@GCEJHNEG@?$AAe?$AAn?$AA?9?$AAZ?$AAW@ 000000018002a2d0     libucrt:lcidtoname_downlevel.obj
 0002:000072e0       ??_C@_1M@JNOCAHJI@?$AAe?$AAs?$AA?9?$AAE?$AAC@ 000000018002a2e0     libucrt:lcidtoname_downlevel.obj
 0002:000072f0       ??_C@_1M@JEFHPGGB@?$AAa?$AAr?$AA?9?$AAK?$AAW@ 000000018002a2f0     libucrt:lcidtoname_downlevel.obj
 0002:00007300       ??_C@_1M@MLKIBJOJ@?$AAe?$AAn?$AA?9?$AAP?$AAH@ 000000018002a300     libucrt:lcidtoname_downlevel.obj
 0002:00007310       ??_C@_1M@BDNIPEND@?$AAe?$AAs?$AA?9?$AAC?$AAL@ 000000018002a310     libucrt:lcidtoname_downlevel.obj
 0002:00007320       ??_C@_1M@MPNMEKBD@?$AAa?$AAr?$AA?9?$AAA?$AAE@ 000000018002a320     libucrt:lcidtoname_downlevel.obj
 0002:00007330       ??_C@_1M@KBJALCPI@?$AAe?$AAs?$AA?9?$AAU?$AAY@ 000000018002a330     libucrt:lcidtoname_downlevel.obj
 0002:00007340       ??_C@_1M@LLCCOAGA@?$AAa?$AAr?$AA?9?$AAB?$AAH@ 000000018002a340     libucrt:lcidtoname_downlevel.obj
 0002:00007350       ??_C@_1M@PBFNCDEL@?$AAe?$AAs?$AA?9?$AAP?$AAY@ 000000018002a350     libucrt:lcidtoname_downlevel.obj
 0002:00007360       ??_C@_1M@EDGINPNP@?$AAa?$AAr?$AA?9?$AAQ?$AAA@ 000000018002a360     libucrt:lcidtoname_downlevel.obj
 0002:00007370       ??_C@_1M@MKDBIIJI@?$AAe?$AAs?$AA?9?$AAB?$AAO@ 000000018002a370     libucrt:lcidtoname_downlevel.obj
 0002:00007380       ??_C@_1M@CPKKEBLD@?$AAe?$AAs?$AA?9?$AAS?$AAV@ 000000018002a380     libucrt:lcidtoname_downlevel.obj
 0002:00007390       ??_C@_1M@NDBGMMJL@?$AAe?$AAs?$AA?9?$AAH?$AAN@ 000000018002a390     libucrt:lcidtoname_downlevel.obj
 0002:000073a0       ??_C@_1M@JIJIBHDP@?$AAe?$AAs?$AA?9?$AAN?$AAI@ 000000018002a3a0     libucrt:lcidtoname_downlevel.obj
 0002:000073b0       ??_C@_1M@CGFMKEEK@?$AAe?$AAs?$AA?9?$AAP?$AAR@ 000000018002a3b0     libucrt:lcidtoname_downlevel.obj
 0002:000073c0       ??_C@_1O@ICJHKIIK@?$AAz?$AAh?$AA?9?$AAC?$AAH?$AAT@ 000000018002a3c0     libucrt:lcidtoname_downlevel.obj
 0002:000073d0       ??_C@_15CLNEJCE@?$AAs?$AAr@ 000000018002a3d0     libucrt:lcidtoname_downlevel.obj
 0002:00008220       ??_C@_1M@KAHEKEIG@?$AAa?$AAf?$AA?9?$AAz?$AAa@ 000000018002b220     libucrt:lcidtoname_downlevel.obj
 0002:00008230       ??_C@_1M@GIECOABL@?$AAa?$AAr?$AA?9?$AAa?$AAe@ 000000018002b230     libucrt:lcidtoname_downlevel.obj
 0002:00008240       ??_C@_1M@BMLMEKGI@?$AAa?$AAr?$AA?9?$AAb?$AAh@ 000000018002b240     libucrt:lcidtoname_downlevel.obj
 0002:00008250       ??_C@_1M@DAPFDGGB@?$AAa?$AAr?$AA?9?$AAd?$AAz@ 000000018002b250     libucrt:lcidtoname_downlevel.obj
 0002:00008260       ??_C@_1M@FJNKGKIG@?$AAa?$AAr?$AA?9?$AAe?$AAg@ 000000018002b260     libucrt:lcidtoname_downlevel.obj
 0002:00008270       ??_C@_1M@FLGKKCLO@?$AAa?$AAr?$AA?9?$AAi?$AAq@ 000000018002b270     libucrt:lcidtoname_downlevel.obj
 0002:00008280       ??_C@_1M@GNDIPALM@?$AAa?$AAr?$AA?9?$AAj?$AAo@ 000000018002b280     libucrt:lcidtoname_downlevel.obj
 0002:00008290       ??_C@_1M@DDMJFMGJ@?$AAa?$AAr?$AA?9?$AAk?$AAw@ 000000018002b290     libucrt:lcidtoname_downlevel.obj
 0002:000082a0       ??_C@_1M@EJALMLHM@?$AAa?$AAr?$AA?9?$AAl?$AAb@ 000000018002b2a0     libucrt:lcidtoname_downlevel.obj
 0002:000082b0       ??_C@_1M@MOBDBLOC@?$AAa?$AAr?$AA?9?$AAl?$AAy@ 000000018002b2b0     libucrt:lcidtoname_downlevel.obj
 0002:000082c0       ??_C@_1M@JAOCLHDH@?$AAa?$AAr?$AA?9?$AAm?$AAa@ 000000018002b2c0     libucrt:lcidtoname_downlevel.obj
 0002:000082d0       ??_C@_1M@JHPMKJIE@?$AAa?$AAr?$AA?9?$AAo?$AAm@ 000000018002b2d0     libucrt:lcidtoname_downlevel.obj
 0002:000082e0       ??_C@_1M@OEPGHFNH@?$AAa?$AAr?$AA?9?$AAq?$AAa@ 000000018002b2e0     libucrt:lcidtoname_downlevel.obj
 0002:000082f0       ??_C@_1M@KJDONENM@?$AAa?$AAr?$AA?9?$AAs?$AAa@ 000000018002b2f0     libucrt:lcidtoname_downlevel.obj
 0002:00008300       ??_C@_1M@DMJDKLKM@?$AAa?$AAr?$AA?9?$AAs?$AAy@ 000000018002b300     libucrt:lcidtoname_downlevel.obj
 0002:00008310       ??_C@_1M@OMFIPEDC@?$AAa?$AAr?$AA?9?$AAt?$AAn@ 000000018002b310     libucrt:lcidtoname_downlevel.obj
 0002:00008320       ??_C@_1M@IHMHGAON@?$AAa?$AAr?$AA?9?$AAy?$AAe@ 000000018002b320     libucrt:lcidtoname_downlevel.obj
 0002:00008330       ??_C@_1BG@KDCPGJGB@?$AAa?$AAz?$AA?9?$AAa?$AAz?$AA?9?$AAc?$AAy?$AAr?$AAl@ 000000018002b330     libucrt:lcidtoname_downlevel.obj
 0002:00008348       ??_C@_1BG@IBCKDDOE@?$AAa?$AAz?$AA?9?$AAa?$AAz?$AA?9?$AAl?$AAa?$AAt?$AAn@ 000000018002b348     libucrt:lcidtoname_downlevel.obj
 0002:00008360       ??_C@_1M@EGPFDCPD@?$AAb?$AAe?$AA?9?$AAb?$AAy@ 000000018002b360     libucrt:lcidtoname_downlevel.obj
 0002:00008370       ??_C@_1M@PCMGMCGC@?$AAb?$AAg?$AA?9?$AAb?$AAg@ 000000018002b370     libucrt:lcidtoname_downlevel.obj
 0002:00008380       ??_C@_1M@BJBMFGOB@?$AAb?$AAn?$AA?9?$AAi?$AAn@ 000000018002b380     libucrt:lcidtoname_downlevel.obj
 0002:00008390       ??_C@_1BG@EAKMMACD@?$AAb?$AAs?$AA?9?$AAb?$AAa?$AA?9?$AAl?$AAa?$AAt?$AAn@ 000000018002b390     libucrt:lcidtoname_downlevel.obj
 0002:000083a8       ??_C@_1M@KGADAODK@?$AAc?$AAa?$AA?9?$AAe?$AAs@ 000000018002b3a8     libucrt:lcidtoname_downlevel.obj
 0002:000083b8       ??_C@_1M@COAJPDHI@?$AAc?$AAs?$AA?9?$AAc?$AAz@ 000000018002b3b8     libucrt:lcidtoname_downlevel.obj
 0002:000083c8       ??_C@_1M@DHBHFONH@?$AAc?$AAy?$AA?9?$AAg?$AAb@ 000000018002b3c8     libucrt:lcidtoname_downlevel.obj
 0002:000083d8       ??_C@_1M@IMGKELGA@?$AAd?$AAa?$AA?9?$AAd?$AAk@ 000000018002b3d8     libucrt:lcidtoname_downlevel.obj
 0002:000083e8       ??_C@_1M@NNDGDNGA@?$AAd?$AAe?$AA?9?$AAa?$AAt@ 000000018002b3e8     libucrt:lcidtoname_downlevel.obj
 0002:000083f8       ??_C@_1M@IKDBHEEM@?$AAd?$AAe?$AA?9?$AAc?$AAh@ 000000018002b3f8     libucrt:lcidtoname_downlevel.obj
 0002:00008408       ??_C@_1M@GFFOJMCJ@?$AAd?$AAe?$AA?9?$AAd?$AAe@ 000000018002b408     libucrt:lcidtoname_downlevel.obj
 0002:00008418       ??_C@_1M@MDNLKBPM@?$AAd?$AAe?$AA?9?$AAl?$AAi@ 000000018002b418     libucrt:lcidtoname_downlevel.obj
 0002:00008428       ??_C@_1M@NJBEEJNL@?$AAd?$AAe?$AA?9?$AAl?$AAu@ 000000018002b428     libucrt:lcidtoname_downlevel.obj
 0002:00008438       ??_C@_1O@GNNELBAP@?$AAd?$AAi?$AAv?$AA?9?$AAm?$AAv@ 000000018002b438     libucrt:lcidtoname_downlevel.obj
 0002:00008448       ??_C@_1M@EJLEOGAE@?$AAe?$AAl?$AA?9?$AAg?$AAr@ 000000018002b448     libucrt:lcidtoname_downlevel.obj
 0002:00008458       ??_C@_1M@GMPONJN@?$AAe?$AAn?$AA?9?$AAa?$AAu@ 000000018002b458     libucrt:lcidtoname_downlevel.obj
 0002:00008468       ??_C@_1M@NIDIIPGF@?$AAe?$AAn?$AA?9?$AAb?$AAz@ 000000018002b468     libucrt:lcidtoname_downlevel.obj
 0002:00008478       ??_C@_1M@JEHMIMFO@?$AAe?$AAn?$AA?9?$AAc?$AAa@ 000000018002b478     libucrt:lcidtoname_downlevel.obj
 0002:00008488       ??_C@_1M@IGMJCDLA@?$AAe?$AAn?$AA?9?$AAc?$AAb@ 000000018002b488     libucrt:lcidtoname_downlevel.obj
 0002:00008498       ??_C@_1M@BNFIGBKG@?$AAe?$AAn?$AA?9?$AAg?$AAb@ 000000018002b498     libucrt:lcidtoname_downlevel.obj
 0002:000084a8       ??_C@_1M@LKIFDIGP@?$AAe?$AAn?$AA?9?$AAi?$AAe@ 000000018002b4a8     libucrt:lcidtoname_downlevel.obj
 0002:000084b8       ??_C@_1M@PJKFGCCO@?$AAe?$AAn?$AA?9?$AAj?$AAm@ 000000018002b4b8     libucrt:lcidtoname_downlevel.obj
 0002:000084c8       ??_C@_1M@KPPKEPBO@?$AAe?$AAn?$AA?9?$AAn?$AAz@ 000000018002b4c8     libucrt:lcidtoname_downlevel.obj
 0002:000084d8       ??_C@_1M@GMDGLDOB@?$AAe?$AAn?$AA?9?$AAp?$AAh@ 000000018002b4d8     libucrt:lcidtoname_downlevel.obj
 0002:000084e8       ??_C@_1M@ONGIBJNA@?$AAe?$AAn?$AA?9?$AAt?$AAt@ 000000018002b4e8     libucrt:lcidtoname_downlevel.obj
 0002:000084f8       ??_C@_1M@LLODPCMM@?$AAe?$AAn?$AA?9?$AAu?$AAs@ 000000018002b4f8     libucrt:lcidtoname_downlevel.obj
 0002:00008508       ??_C@_1M@LAKFNPAN@?$AAe?$AAn?$AA?9?$AAz?$AAa@ 000000018002b508     libucrt:lcidtoname_downlevel.obj
 0002:00008518       ??_C@_1M@MFNHNHEO@?$AAe?$AAn?$AA?9?$AAz?$AAw@ 000000018002b518     libucrt:lcidtoname_downlevel.obj
 0002:00008528       ??_C@_1M@EJEINPHM@?$AAe?$AAs?$AA?9?$AAa?$AAr@ 000000018002b528     libucrt:lcidtoname_downlevel.obj
 0002:00008538       ??_C@_1M@GNKPCCJA@?$AAe?$AAs?$AA?9?$AAb?$AAo@ 000000018002b538     libucrt:lcidtoname_downlevel.obj
 0002:00008548       ??_C@_1M@LEEGFONL@?$AAe?$AAs?$AA?9?$AAc?$AAl@ 000000018002b548     libucrt:lcidtoname_downlevel.obj
 0002:00008558       ??_C@_1M@KGPDPBDF@?$AAe?$AAs?$AA?9?$AAc?$AAo@ 000000018002b558     libucrt:lcidtoname_downlevel.obj
 0002:00008568       ??_C@_1M@EIAHOHH@?$AAe?$AAs?$AA?9?$AAc?$AAr@ 000000018002b568     libucrt:lcidtoname_downlevel.obj
 0002:00008578       ??_C@_1M@LLPGMBIN@?$AAe?$AAs?$AA?9?$AAd?$AAo@ 000000018002b578     libucrt:lcidtoname_downlevel.obj
 0002:00008588       ??_C@_1M@DKHMKNJA@?$AAe?$AAs?$AA?9?$AAe?$AAc@ 000000018002b588     libucrt:lcidtoname_downlevel.obj
 0002:00008598       ??_C@_1M@GKGFPKAP@?$AAe?$AAs?$AA?9?$AAe?$AAs@ 000000018002b598     libucrt:lcidtoname_downlevel.obj
 0002:000085a8       ??_C@_1M@LKHKGDLN@?$AAe?$AAs?$AA?9?$AAg?$AAt@ 000000018002b5a8     libucrt:lcidtoname_downlevel.obj
 0002:000085b8       ??_C@_1M@HEIIGGJD@?$AAe?$AAs?$AA?9?$AAh?$AAn@ 000000018002b5b8     libucrt:lcidtoname_downlevel.obj
 0002:000085c8       ??_C@_1M@FBDHPPGD@?$AAe?$AAs?$AA?9?$AAm?$AAx@ 000000018002b5c8     libucrt:lcidtoname_downlevel.obj
 0002:000085d8       ??_C@_1M@DPAGLNDH@?$AAe?$AAs?$AA?9?$AAn?$AAi@ 000000018002b5d8     libucrt:lcidtoname_downlevel.obj
 0002:000085e8       ??_C@_1M@MDGOPGDD@?$AAe?$AAs?$AA?9?$AAp?$AAa@ 000000018002b5e8     libucrt:lcidtoname_downlevel.obj
 0002:000085f8       ??_C@_1M@EMAMGBGE@?$AAe?$AAs?$AA?9?$AAp?$AAe@ 000000018002b5f8     libucrt:lcidtoname_downlevel.obj
 0002:00008608       ??_C@_1M@IBMCAOEC@?$AAe?$AAs?$AA?9?$AAp?$AAr@ 000000018002b608     libucrt:lcidtoname_downlevel.obj
 0002:00008618       ??_C@_1M@FGMDIJED@?$AAe?$AAs?$AA?9?$AAp?$AAy@ 000000018002b618     libucrt:lcidtoname_downlevel.obj
 0002:00008628       ??_C@_1M@IIDEOLLL@?$AAe?$AAs?$AA?9?$AAs?$AAv@ 000000018002b628     libucrt:lcidtoname_downlevel.obj
 0002:00008638       ??_C@_1M@GAOBIPA@?$AAe?$AAs?$AA?9?$AAu?$AAy@ 000000018002b638     libucrt:lcidtoname_downlevel.obj
 0002:00008648       ??_C@_1M@JKFFICHJ@?$AAe?$AAs?$AA?9?$AAv?$AAe@ 000000018002b648     libucrt:lcidtoname_downlevel.obj
 0002:00008658       ??_C@_1M@PNMLOJDF@?$AAe?$AAt?$AA?9?$AAe?$AAe@ 000000018002b658     libucrt:lcidtoname_downlevel.obj
 0002:00008668       ??_C@_1M@GHHLIKEI@?$AAe?$AAu?$AA?9?$AAe?$AAs@ 000000018002b668     libucrt:lcidtoname_downlevel.obj
 0002:00008678       ??_C@_1M@PBNONODE@?$AAf?$AAa?$AA?9?$AAi?$AAr@ 000000018002b678     libucrt:lcidtoname_downlevel.obj
 0002:00008688       ??_C@_1M@JEEHPMIL@?$AAf?$AAi?$AA?9?$AAf?$AAi@ 000000018002b688     libucrt:lcidtoname_downlevel.obj
 0002:00008698       ??_C@_1M@LMDCNDBA@?$AAf?$AAo?$AA?9?$AAf?$AAo@ 000000018002b698     libucrt:lcidtoname_downlevel.obj
 0002:000086a8       ??_C@_1M@JKEOHLDK@?$AAf?$AAr?$AA?9?$AAb?$AAe@ 000000018002b6a8     libucrt:lcidtoname_downlevel.obj
 0002:000086b8       ??_C@_1M@NOHADPMI@?$AAf?$AAr?$AA?9?$AAc?$AAa@ 000000018002b6b8     libucrt:lcidtoname_downlevel.obj
 0002:000086c8       ??_C@_1M@KDHIHAEC@?$AAf?$AAr?$AA?9?$AAc?$AAh@ 000000018002b6c8     libucrt:lcidtoname_downlevel.obj
 0002:000086d8       ??_C@_1M@MMBBFGAK@?$AAf?$AAr?$AA?9?$AAf?$AAr@ 000000018002b6d8     libucrt:lcidtoname_downlevel.obj
 0002:000086e8       ??_C@_1M@PAFNENNF@?$AAf?$AAr?$AA?9?$AAl?$AAu@ 000000018002b6e8     libucrt:lcidtoname_downlevel.obj
 0002:000086f8       ??_C@_1M@EOHDJGDD@?$AAf?$AAr?$AA?9?$AAm?$AAc@ 000000018002b6f8     libucrt:lcidtoname_downlevel.obj
 0002:00008708       ??_C@_1M@FAPLLOPF@?$AAg?$AAl?$AA?9?$AAe?$AAs@ 000000018002b708     libucrt:lcidtoname_downlevel.obj
 0002:00008718       ??_C@_1M@FOPBFLOO@?$AAg?$AAu?$AA?9?$AAi?$AAn@ 000000018002b718     libucrt:lcidtoname_downlevel.obj
 0002:00008728       ??_C@_1M@KBMCINPM@?$AAh?$AAe?$AA?9?$AAi?$AAl@ 000000018002b728     libucrt:lcidtoname_downlevel.obj
 0002:00008738       ??_C@_1M@BBPHKFPJ@?$AAh?$AAi?$AA?9?$AAi?$AAn@ 000000018002b738     libucrt:lcidtoname_downlevel.obj
 0002:00008748       ??_C@_1M@PMBNDPHD@?$AAh?$AAr?$AA?9?$AAb?$AAa@ 000000018002b748     libucrt:lcidtoname_downlevel.obj
 0002:00008758       ??_C@_1M@BPCKOEGE@?$AAh?$AAr?$AA?9?$AAh?$AAr@ 000000018002b758     libucrt:lcidtoname_downlevel.obj
 0002:00008768       ??_C@_1M@GACBMHKE@?$AAh?$AAu?$AA?9?$AAh?$AAu@ 000000018002b768     libucrt:lcidtoname_downlevel.obj
 0002:00008778       ??_C@_1M@MILPAJJC@?$AAh?$AAy?$AA?9?$AAa?$AAm@ 000000018002b778     libucrt:lcidtoname_downlevel.obj
 0002:00008788       ??_C@_1M@BABBICEC@?$AAi?$AAd?$AA?9?$AAi?$AAd@ 000000018002b788     libucrt:lcidtoname_downlevel.obj
 0002:00008798       ??_C@_1M@BIKNHHPF@?$AAi?$AAs?$AA?9?$AAi?$AAs@ 000000018002b798     libucrt:lcidtoname_downlevel.obj
 0002:000087a8       ??_C@_1M@NMPCJPHE@?$AAi?$AAt?$AA?9?$AAc?$AAh@ 000000018002b7a8     libucrt:lcidtoname_downlevel.obj
 0002:000087b8       ??_C@_1M@GHKGFEDF@?$AAi?$AAt?$AA?9?$AAi?$AAt@ 000000018002b7b8     libucrt:lcidtoname_downlevel.obj
 0002:000087c8       ??_C@_1M@NIEJCJJA@?$AAj?$AAa?$AA?9?$AAj?$AAp@ 000000018002b7c8     libucrt:lcidtoname_downlevel.obj
 0002:000087d8       ??_C@_1M@JILFNBIM@?$AAk?$AAa?$AA?9?$AAg?$AAe@ 000000018002b7d8     libucrt:lcidtoname_downlevel.obj
 0002:000087e8       ??_C@_1M@PACPMGPH@?$AAk?$AAk?$AA?9?$AAk?$AAz@ 000000018002b7e8     libucrt:lcidtoname_downlevel.obj
 0002:000087f8       ??_C@_1M@IELFGMHA@?$AAk?$AAn?$AA?9?$AAi?$AAn@ 000000018002b7f8     libucrt:lcidtoname_downlevel.obj
 0002:00008808       ??_C@_1O@IBBJHCH@?$AAk?$AAo?$AAk?$AA?9?$AAi?$AAn@ 000000018002b808     libucrt:lcidtoname_downlevel.obj
 0002:00008818       ??_C@_1M@DMHAEOGC@?$AAk?$AAo?$AA?9?$AAk?$AAr@ 000000018002b818     libucrt:lcidtoname_downlevel.obj
 0002:00008828       ??_C@_1M@HBAHBIGA@?$AAk?$AAy?$AA?9?$AAk?$AAg@ 000000018002b828     libucrt:lcidtoname_downlevel.obj
 0002:00008838       ??_C@_1M@KPMILCJG@?$AAl?$AAt?$AA?9?$AAl?$AAt@ 000000018002b838     libucrt:lcidtoname_downlevel.obj
 0002:00008848       ??_C@_1M@BDEKKCA@?$AAl?$AAv?$AA?9?$AAl?$AAv@ 000000018002b848     libucrt:lcidtoname_downlevel.obj
 0002:00008858       ??_C@_1M@ELCKCCJJ@?$AAm?$AAi?$AA?9?$AAn?$AAz@ 000000018002b858     libucrt:lcidtoname_downlevel.obj
 0002:00008868       ??_C@_1M@CBOOLAPA@?$AAm?$AAk?$AA?9?$AAm?$AAk@ 000000018002b868     libucrt:lcidtoname_downlevel.obj
 0002:00008878       ??_C@_1M@GPHNBJKN@?$AAm?$AAl?$AA?9?$AAi?$AAn@ 000000018002b878     libucrt:lcidtoname_downlevel.obj
 0002:00008888       ??_C@_1M@PABJILIG@?$AAm?$AAn?$AA?9?$AAm?$AAn@ 000000018002b888     libucrt:lcidtoname_downlevel.obj
 0002:00008898       ??_C@_1M@FGBKKIPG@?$AAm?$AAr?$AA?9?$AAi?$AAn@ 000000018002b898     libucrt:lcidtoname_downlevel.obj
 0002:000088a8       ??_C@_1M@NDBPDDAL@?$AAm?$AAs?$AA?9?$AAb?$AAn@ 000000018002b8a8     libucrt:lcidtoname_downlevel.obj
 0002:000088b8       ??_C@_1M@OPIHOOPI@?$AAm?$AAs?$AA?9?$AAm?$AAy@ 000000018002b8b8     libucrt:lcidtoname_downlevel.obj
 0002:000088c8       ??_C@_1M@PPDBCNFM@?$AAm?$AAt?$AA?9?$AAm?$AAt@ 000000018002b8c8     libucrt:lcidtoname_downlevel.obj
 0002:000088d8       ??_C@_1M@KDJDKMDD@?$AAn?$AAb?$AA?9?$AAn?$AAo@ 000000018002b8d8     libucrt:lcidtoname_downlevel.obj
 0002:000088e8       ??_C@_1M@KFCFLMJP@?$AAn?$AAl?$AA?9?$AAb?$AAe@ 000000018002b8e8     libucrt:lcidtoname_downlevel.obj
 0002:000088f8       ??_C@_1M@KPOPDDGO@?$AAn?$AAl?$AA?9?$AAn?$AAl@ 000000018002b8f8     libucrt:lcidtoname_downlevel.obj
 0002:00008908       ??_C@_1M@LJKPEMLN@?$AAn?$AAn?$AA?9?$AAn?$AAo@ 000000018002b908     libucrt:lcidtoname_downlevel.obj
 0002:00008918       ??_C@_1M@BDGHHBFL@?$AAn?$AAs?$AA?9?$AAz?$AAa@ 000000018002b918     libucrt:lcidtoname_downlevel.obj
 0002:00008928       ??_C@_1M@IDEHOAP@?$AAp?$AAa?$AA?9?$AAi?$AAn@ 000000018002b928     libucrt:lcidtoname_downlevel.obj
 0002:00008938       ??_C@_1M@HDBKGOGH@?$AAp?$AAl?$AA?9?$AAp?$AAl@ 000000018002b938     libucrt:lcidtoname_downlevel.obj
 0002:00008948       ??_C@_1M@LJLLCMEH@?$AAp?$AAt?$AA?9?$AAb?$AAr@ 000000018002b948     libucrt:lcidtoname_downlevel.obj
 0002:00008958       ??_C@_1M@NCMONAAL@?$AAp?$AAt?$AA?9?$AAp?$AAt@ 000000018002b958     libucrt:lcidtoname_downlevel.obj
 0002:00008968       ??_C@_1O@EAKMAJDN@?$AAq?$AAu?$AAz?$AA?9?$AAb?$AAo@ 000000018002b968     libucrt:lcidtoname_downlevel.obj
 0002:00008978       ??_C@_1O@BHHPIGDN@?$AAq?$AAu?$AAz?$AA?9?$AAe?$AAc@ 000000018002b978     libucrt:lcidtoname_downlevel.obj
 0002:00008988       ??_C@_1O@GBAPEKMJ@?$AAq?$AAu?$AAz?$AA?9?$AAp?$AAe@ 000000018002b988     libucrt:lcidtoname_downlevel.obj
 0002:00008998       ??_C@_1M@CLGLEFBO@?$AAr?$AAo?$AA?9?$AAr?$AAo@ 000000018002b998     libucrt:lcidtoname_downlevel.obj
 0002:000089a8       ??_C@_1M@CEEDODME@?$AAr?$AAu?$AA?9?$AAr?$AAu@ 000000018002b9a8     libucrt:lcidtoname_downlevel.obj
 0002:000089b8       ??_C@_1M@HPKKKMPP@?$AAs?$AAa?$AA?9?$AAi?$AAn@ 000000018002b9b8     libucrt:lcidtoname_downlevel.obj
 0002:000089c8       ??_C@_1M@BKMAIGOJ@?$AAs?$AAe?$AA?9?$AAf?$AAi@ 000000018002b9c8     libucrt:lcidtoname_downlevel.obj
 0002:000089d8       ??_C@_1M@NDPIFLFI@?$AAs?$AAe?$AA?9?$AAn?$AAo@ 000000018002b9d8     libucrt:lcidtoname_downlevel.obj
 0002:000089e8       ??_C@_1M@DANKKHJ@?$AAs?$AAe?$AA?9?$AAs?$AAe@ 000000018002b9e8     libucrt:lcidtoname_downlevel.obj
 0002:000089f8       ??_C@_1M@PNBLONPJ@?$AAs?$AAk?$AA?9?$AAs?$AAk@ 000000018002b9f8     libucrt:lcidtoname_downlevel.obj
 0002:00008a08       ??_C@_1M@LFMODOAL@?$AAs?$AAl?$AA?9?$AAs?$AAi@ 000000018002ba08     libucrt:lcidtoname_downlevel.obj
 0002:00008a18       ??_C@_1O@DFKOMPG@?$AAs?$AAm?$AAa?$AA?9?$AAn?$AAo@ 000000018002ba18     libucrt:lcidtoname_downlevel.obj
 0002:00008a28       ??_C@_1O@NDKPBNNH@?$AAs?$AAm?$AAa?$AA?9?$AAs?$AAe@ 000000018002ba28     libucrt:lcidtoname_downlevel.obj
 0002:00008a38       ??_C@_1O@PLLKBHAB@?$AAs?$AAm?$AAj?$AA?9?$AAn?$AAo@ 000000018002ba38     libucrt:lcidtoname_downlevel.obj
 0002:00008a48       ??_C@_1O@CLEPOGCA@?$AAs?$AAm?$AAj?$AA?9?$AAs?$AAe@ 000000018002ba48     libucrt:lcidtoname_downlevel.obj
 0002:00008a58       ??_C@_1O@DLGJGKMK@?$AAs?$AAm?$AAn?$AA?9?$AAf?$AAi@ 000000018002ba58     libucrt:lcidtoname_downlevel.obj
 0002:00008a68       ??_C@_1O@OJDJGAJC@?$AAs?$AAm?$AAs?$AA?9?$AAf?$AAi@ 000000018002ba68     libucrt:lcidtoname_downlevel.obj
 0002:00008a78       ??_C@_1M@BOFOGHPB@?$AAs?$AAq?$AA?9?$AAa?$AAl@ 000000018002ba78     libucrt:lcidtoname_downlevel.obj
 0002:00008a88       ??_C@_1BG@LJBBIPGB@?$AAs?$AAr?$AA?9?$AAb?$AAa?$AA?9?$AAc?$AAy?$AAr?$AAl@ 000000018002ba88     libucrt:lcidtoname_downlevel.obj
 0002:00008aa0       ??_C@_1BG@JLBENFOE@?$AAs?$AAr?$AA?9?$AAb?$AAa?$AA?9?$AAl?$AAa?$AAt?$AAn@ 000000018002baa0     libucrt:lcidtoname_downlevel.obj
 0002:00008ab8       ??_C@_1BG@KODPNHE@?$AAs?$AAr?$AA?9?$AAs?$AAp?$AA?9?$AAc?$AAy?$AAr?$AAl@ 000000018002bab8     libucrt:lcidtoname_downlevel.obj
 0002:00008ad0       ??_C@_1BG@CIOGKHPB@?$AAs?$AAr?$AA?9?$AAs?$AAp?$AA?9?$AAl?$AAa?$AAt?$AAn@ 000000018002bad0     libucrt:lcidtoname_downlevel.obj
 0002:00008ae8       ??_C@_1M@NGFJLMAC@?$AAs?$AAv?$AA?9?$AAf?$AAi@ 000000018002bae8     libucrt:lcidtoname_downlevel.obj
 0002:00008af8       ??_C@_1M@MPJEJAJC@?$AAs?$AAv?$AA?9?$AAs?$AAe@ 000000018002baf8     libucrt:lcidtoname_downlevel.obj
 0002:00008b08       ??_C@_1M@MPNDHLFK@?$AAs?$AAw?$AA?9?$AAk?$AAe@ 000000018002bb08     libucrt:lcidtoname_downlevel.obj
 0002:00008b18       ??_C@_1O@KOHBJJI@?$AAs?$AAy?$AAr?$AA?9?$AAs?$AAy@ 000000018002bb18     libucrt:lcidtoname_downlevel.obj
 0002:00008b28       ??_C@_1M@LDCEFHA@?$AAt?$AAa?$AA?9?$AAi?$AAn@ 000000018002bb28     libucrt:lcidtoname_downlevel.obj
 0002:00008b38       ??_C@_1M@CNJOFAK@?$AAt?$AAe?$AA?9?$AAi?$AAn@ 000000018002bb38     libucrt:lcidtoname_downlevel.obj
 0002:00008b48       ??_C@_1M@GNAECACD@?$AAt?$AAh?$AA?9?$AAt?$AAh@ 000000018002bb48     libucrt:lcidtoname_downlevel.obj
 0002:00008b58       ??_C@_1M@CHBIHOJO@?$AAt?$AAn?$AA?9?$AAz?$AAa@ 000000018002bb58     libucrt:lcidtoname_downlevel.obj
 0002:00008b68       ??_C@_1M@GCCMIGPJ@?$AAt?$AAr?$AA?9?$AAt?$AAr@ 000000018002bb68     libucrt:lcidtoname_downlevel.obj
 0002:00008b78       ??_C@_1M@CELMCNBK@?$AAt?$AAt?$AA?9?$AAr?$AAu@ 000000018002bb78     libucrt:lcidtoname_downlevel.obj
 0002:00008b88       ??_C@_1M@KLMCELGA@?$AAu?$AAk?$AA?9?$AAu?$AAa@ 000000018002bb88     libucrt:lcidtoname_downlevel.obj
 0002:00008b98       ??_C@_1M@EPAJJAJF@?$AAu?$AAr?$AA?9?$AAp?$AAk@ 000000018002bb98     libucrt:lcidtoname_downlevel.obj
 0002:00008ba8       ??_C@_1BG@GEGPMCDJ@?$AAu?$AAz?$AA?9?$AAu?$AAz?$AA?9?$AAc?$AAy?$AAr?$AAl@ 000000018002bba8     libucrt:lcidtoname_downlevel.obj
 0002:00008bc0       ??_C@_1BG@EGGKJILM@?$AAu?$AAz?$AA?9?$AAu?$AAz?$AA?9?$AAl?$AAa?$AAt?$AAn@ 000000018002bbc0     libucrt:lcidtoname_downlevel.obj
 0002:00008bd8       ??_C@_1M@GFOCLFF@?$AAv?$AAi?$AA?9?$AAv?$AAn@ 000000018002bbd8     libucrt:lcidtoname_downlevel.obj
 0002:00008be8       ??_C@_1M@CPAMEDFI@?$AAx?$AAh?$AA?9?$AAz?$AAa@ 000000018002bbe8     libucrt:lcidtoname_downlevel.obj
 0002:00008bf8       ??_C@_1O@EBKIFIGN@?$AAz?$AAh?$AA?9?$AAc?$AAh?$AAs@ 000000018002bbf8     libucrt:lcidtoname_downlevel.obj
 0002:00008c08       ??_C@_1O@NMHPGANE@?$AAz?$AAh?$AA?9?$AAc?$AAh?$AAt@ 000000018002bc08     libucrt:lcidtoname_downlevel.obj
 0002:00008c18       ??_C@_1M@LPINJOMC@?$AAz?$AAh?$AA?9?$AAc?$AAn@ 000000018002bc18     libucrt:lcidtoname_downlevel.obj
 0002:00008c28       ??_C@_1M@OCJEJODD@?$AAz?$AAh?$AA?9?$AAh?$AAk@ 000000018002bc28     libucrt:lcidtoname_downlevel.obj
 0002:00008c38       ??_C@_1M@DNDLJINH@?$AAz?$AAh?$AA?9?$AAm?$AAo@ 000000018002bc38     libucrt:lcidtoname_downlevel.obj
 0002:00008c48       ??_C@_1M@MBFDNDND@?$AAz?$AAh?$AA?9?$AAs?$AAg@ 000000018002bc48     libucrt:lcidtoname_downlevel.obj
 0002:00008c58       ??_C@_1M@IMEPLEPE@?$AAz?$AAh?$AA?9?$AAt?$AAw@ 000000018002bc58     libucrt:lcidtoname_downlevel.obj
 0002:00008c68       ??_C@_1M@BBGHNHJP@?$AAz?$AAu?$AA?9?$AAz?$AAa@ 000000018002bc68     libucrt:lcidtoname_downlevel.obj
 0002:00008c80       ?large_power_data@?1??multiply_by_power_of_ten@__crt_strtox@@YA_NAEAUbig_integer@2@I@Z@4QBIB 000000018002bc80     libucrt:cfout.obj
 0002:00009590       ?large_power_indices@?1??multiply_by_power_of_ten@__crt_strtox@@YA_NAEAUbig_integer@2@I@Z@4QBUunpack_index@?1??12@YA_N0I@Z@B 000000018002c590     libucrt:cfout.obj
 0002:00009628       ?small_powers_of_ten@?1??multiply_by_power_of_ten@__crt_strtox@@YA_NAEAUbig_integer@2@I@Z@4QBIB 000000018002c628     libucrt:cfout.obj
 0002:0000964c       ??_C@_01GBGANLPD@0@        000000018002c64c     libucrt:cfout.obj
 0002:00009650       ??_C@_05DNEBIAHO@1?$CDINF@ 000000018002c650     libucrt:cfout.obj
 0002:00009658       ??_C@_06IMKFLFPG@1?$CDQNAN@ 000000018002c658     libucrt:cfout.obj
 0002:00009660       ??_C@_06PGGFOGJG@1?$CDSNAN@ 000000018002c660     libucrt:cfout.obj
 0002:00009668       ??_C@_05PHHOCPM@1?$CDIND@  000000018002c668     libucrt:cfout.obj
 0002:00009670       __real@3ff0000000000000    000000018002c670     libucrt:ceil.obj
 0002:000098d0       __log10_256_lead           000000018002c8d0     libucrt:log10_256_lead_tail_table.obj
 0002:0000a0e0       __log10_256_tail           000000018002d0e0     libucrt:log10_256_lead_tail_table.obj
 0002:0000a8f0       __log_F_inv_qword          000000018002d8f0     libucrt:log_f_inv_qword_table.obj
 0002:0000b100       ??_C@_05HGHHAHAP@log10@    000000018002e100     libucrt:log_special.obj
 0002:0000b108       ??_C@_1BA@BALFACEM@?$AAC?$AAO?$AAN?$AAO?$AAU?$AAT?$AA$@ 000000018002e108     libucrt:initcon.obj
 0002:0000b190       _load_config_used          000000018002e190     LIBCMT:loadcfg.obj
 0002:0000b2c0       _tls_used                  000000018002e2c0     LIBCMT:tlssup.obj
 0002:0000b2e8       ??_R4exception@std@@6B@    000000018002e2e8     LIBCMT:throw_bad_alloc.obj
 0002:0000b310       ??_R3exception@std@@8      000000018002e310     LIBCMT:throw_bad_alloc.obj
 0002:0000b328       ??_R2exception@std@@8      000000018002e328     LIBCMT:throw_bad_alloc.obj
 0002:0000b338       ??_R1A@?0A@EA@exception@std@@8 000000018002e338     LIBCMT:throw_bad_alloc.obj
 0002:0000b360       ??_R4bad_alloc@std@@6B@    000000018002e360     LIBCMT:throw_bad_alloc.obj
 0002:0000b388       ??_R3bad_alloc@std@@8      000000018002e388     LIBCMT:throw_bad_alloc.obj
 0002:0000b3a0       ??_R2bad_alloc@std@@8      000000018002e3a0     LIBCMT:throw_bad_alloc.obj
 0002:0000b3b8       ??_R1A@?0A@EA@bad_alloc@std@@8 000000018002e3b8     LIBCMT:throw_bad_alloc.obj
 0002:0000b3e0       ??_R4bad_array_new_length@std@@6B@ 000000018002e3e0     LIBCMT:throw_bad_alloc.obj
 0002:0000b408       ??_R3bad_array_new_length@std@@8 000000018002e408     LIBCMT:throw_bad_alloc.obj
 0002:0000b420       ??_R2bad_array_new_length@std@@8 000000018002e420     LIBCMT:throw_bad_alloc.obj
 0002:0000b440       ??_R1A@?0A@EA@bad_array_new_length@std@@8 000000018002e440     LIBCMT:throw_bad_alloc.obj
 0002:0000b468       ??_R4type_info@@6B@        000000018002e468     LIBCMT:std_type_info_static.obj
 0002:0000b490       ??_R3type_info@@8          000000018002e490     LIBCMT:std_type_info_static.obj
 0002:0000b4a8       ??_R2type_info@@8          000000018002e4a8     LIBCMT:std_type_info_static.obj
 0002:0000b4b8       ??_R1A@?0A@EA@type_info@@8 000000018002e4b8     LIBCMT:std_type_info_static.obj
 0002:0000b4e0       ??_R4bad_exception@std@@6B@ 000000018002e4e0     libvcruntime:frame.obj
 0002:0000b508       ??_R3bad_exception@std@@8  000000018002e508     libvcruntime:frame.obj
 0002:0000b520       ??_R2bad_exception@std@@8  000000018002e520     libvcruntime:frame.obj
 0002:0000b538       ??_R1A@?0A@EA@bad_exception@std@@8 000000018002e538     libvcruntime:frame.obj
 0002:0000b968       __rtc_iaa                  000000018002e968     LIBCMT:initsect.obj
 0002:0000b970       __rtc_izz                  000000018002e970     LIBCMT:initsect.obj
 0002:0000b978       __rtc_taa                  000000018002e978     LIBCMT:initsect.obj
 0002:0000b980       __rtc_tzz                  000000018002e980     LIBCMT:initsect.obj
 0002:0000b988       _tls_start                 000000018002e988     LIBCMT:tlssup.obj
 0002:0000b98c       _Init_thread_epoch         000000018002e98c     LIBCMT:thread_safe_statics.obj
 0002:0000b990       _tls_end                   000000018002e990     LIBCMT:tlssup.obj
 0002:0000d080       _TI2?AVbad_alloc@std@@     0000000180030080     LIBCMT:throw_bad_alloc.obj
 0002:0000d0a0       _CTA2?AVbad_alloc@std@@    00000001800300a0     LIBCMT:throw_bad_alloc.obj
 0002:0000d0b8       _CT??_R0?AVbad_alloc@std@@@8??0bad_alloc@std@@QEAA@AEBV01@@Z24 00000001800300b8     LIBCMT:throw_bad_alloc.obj
 0002:0000d0e0       _CT??_R0?AVexception@std@@@8??0exception@std@@QEAA@AEBV01@@Z24 00000001800300e0     LIBCMT:throw_bad_alloc.obj
 0002:0000d108       _TI3?AVbad_array_new_length@std@@ 0000000180030108     LIBCMT:throw_bad_alloc.obj
 0002:0000d128       _CTA3?AVbad_array_new_length@std@@ 0000000180030128     LIBCMT:throw_bad_alloc.obj
 0002:0000d148       _CT??_R0?AVbad_array_new_length@std@@@8??0bad_array_new_length@std@@QEAA@AEBV01@@Z24 0000000180030148     LIBCMT:throw_bad_alloc.obj
 0002:0000d170       _TI2?AVbad_exception@std@@ 0000000180030170     libvcruntime:frame.obj
 0002:0000d190       _CTA2?AVbad_exception@std@@ 0000000180030190     libvcruntime:frame.obj
 0002:0000d1a8       _CT??_R0?AVbad_exception@std@@@8??0bad_exception@std@@QEAA@AEBV01@@Z24 00000001800301a8     libvcruntime:frame.obj
 0002:0000d1d0       __pobjMapEntryFirst        00000001800301d0     OposVariant.obj
 0002:0000d1d8       __pobjMapEntryLast         00000001800301d8     OposVariant.obj
 0002:0000d28c       __IMPORT_DESCRIPTOR_KERNEL32 000000018003028c     kernel32:KERNEL32.dll
 0002:0000d2a0       __IMPORT_DESCRIPTOR_USER32 00000001800302a0     user32:USER32.dll
 0002:0000d2b4       __IMPORT_DESCRIPTOR_GDI32  00000001800302b4     gdi32:GDI32.dll
 0002:0000d2c8       __IMPORT_DESCRIPTOR_ADVAPI32 00000001800302c8     advapi32:ADVAPI32.dll
 0002:0000d2dc       __IMPORT_DESCRIPTOR_ole32  00000001800302dc     ole32:ole32.dll
 0002:0000d2f0       __IMPORT_DESCRIPTOR_OLEAUT32 00000001800302f0     oleaut32:OLEAUT32.dll
 0002:0000d304       __NULL_IMPORT_DESCRIPTOR   0000000180030304     kernel32:KERNEL32.dll
 0003:00000000       ?s_Claim@?7??GetIDsOfNames@CComTypeInfoHolder@ATL@@QEAAJAEBU_GUID@@PEAPEA_WIKPEAJ@Z@4PA_WA 0000000180032000     LineDisplay.obj
 0003:00000018       ?s_Release@?7??GetIDsOfNames@CComTypeInfoHolder@ATL@@QEAAJAEBU_GUID@@PEAPEA_WIKPEAJ@Z@4PA_WA 0000000180032018     LineDisplay.obj
 0003:00000038       ?_tih@?$IDispatchImpl@UIOPOSLineDisplay@@$1?IID_IOPOSLineDisplay@@3U_GUID@@B$1?LIBID_OposLineDisplay_CCO@@3U3@B$00$0A@VCComTypeInfoHolder@ATL@@@ATL@@1VCComTypeInfoHolder@2@A 0000000180032038     LineDisplay.obj
 0003:00000070       ?_tih@?$IProvideClassInfo2Impl@$1?CLSID_OPOSLineDisplay@@3U_GUID@@B$1?DIID__IOPOSLineDisplayEvents@@3U2@B$1?LIBID_OposLineDisplay_CCO@@3U2@B$00$0A@VCComTypeInfoHolder@ATL@@@ATL@@1VCComTypeInfoHolder@2@A 0000000180032070     LineDisplay.obj
 0003:000000a8       ?vszContents@?6??Save@?$IPersistStorageImpl@VCOPOSLineDisplay@@@ATL@@UEAAJPEAUIStorage@@H@Z@4PEB_WEB 00000001800320a8     LineDisplay.obj
 0003:000000b0       ?wc@?1??GetWndClassInfo@?$CWindowImpl@VCOPOSLineDisplay@@VCWindow@ATL@@V?$CWinTraits@$0FGAAAAAA@$0A@@3@@ATL@@SAAEAU_ATL_WNDCLASSINFOW@3@XZ@4U43@A 00000001800320b0     LineDisplay.obj
 0003:000001a8       ?rcDefault@CWindow@ATL@@2UtagRECT@@A 00000001800321a8     LineDisplay.obj
 0003:00000250       ?g_WindowName@@3PA_WA      0000000180032250     LineDisplayImpl.obj
 0003:00000280       ?g_ControlDescription@@3PADA 0000000180032280     LineDisplayImpl.obj
 0003:000002cc       ?g_ControlVersion@@3JA     00000001800322cc     LineDisplayImpl.obj
 0003:000003e8       __scrt_native_dllmain_reason 00000001800323e8     LIBCMT:utility.obj
 0003:000003ec       _Init_global_epoch         00000001800323ec     LIBCMT:thread_safe_statics.obj
 0003:000003f0       __security_cookie_complement 00000001800323f0     LIBCMT:gs_cookie.obj
 0003:000003f8       __security_cookie          00000001800323f8     LIBCMT:gs_cookie.obj
 0003:00000400       __isa_available            0000000180032400     LIBCMT:cpu_disp.obj
 0003:00000404       __isa_enabled              0000000180032404     LIBCMT:cpu_disp.obj
 0003:00000408       __memcpy_nt_iters          0000000180032408     LIBCMT:cpu_disp.obj
 0003:00000410       __memset_nt_iters          0000000180032410     LIBCMT:cpu_disp.obj
 0003:00000438       __abort_behavior           0000000180032438     libucrt:abort.obj
 0003:00000450       _iob                       0000000180032450     libucrt:_file.obj
 0003:00000560       __acrt_initial_locale_data 0000000180032560     libucrt:nlsdata.obj
 0003:000006b8       __acrt_initial_locale_pointers 00000001800326b8     libucrt:nlsdata.obj
 0003:000006c8       __acrt_wide_c_locale_string 00000001800326c8     libucrt:nlsdata.obj
 0003:000006d0       __acrt_initial_multibyte_data 00000001800326d0     libucrt:mbctype.obj
 0003:00000c10       _pwctype                   0000000180032c10     libucrt:ctype.obj
 0003:00000c18       __globallocalestatus       0000000180032c18     libucrt:glstatus.obj
 0003:00000c20       __acrt_lconv_c             0000000180032c20     libucrt:localeconv.obj
 0003:00000cb8       __acrt_lconv_static_decimal 0000000180032cb8     libucrt:localeconv.obj
 0003:00000cbc       __acrt_lconv_static_W_decimal 0000000180032cbc     libucrt:localeconv.obj
 0003:00000cc0       _lookuptrailbytes          0000000180032cc0     libucrt:read.obj
 0003:00000de4       _fltused                   0000000180032de4     LIBCMT:fltused.obj
 0003:00000de8       ??_R0?AVbad_alloc@std@@@8  0000000180032de8     LIBCMT:throw_bad_alloc.obj
 0003:00000e10       ??_R0?AVexception@std@@@8  0000000180032e10     LIBCMT:throw_bad_alloc.obj
 0003:00000e38       ??_R0?AVbad_array_new_length@std@@@8 0000000180032e38     LIBCMT:throw_bad_alloc.obj
 0003:00000e68       ??_R0?AVtype_info@@@8      0000000180032e68     LIBCMT:std_type_info_static.obj
 0003:00000e88       ??_R0?AVbad_exception@std@@@8 0000000180032e88     libvcruntime:frame.obj
 0003:00000eb0       ?_pPerfRegFunc@ATL@@3P6AJPEAUHINSTANCE__@@@ZEA 0000000180032eb0     OposVariant.obj
 0003:00000eb8       ?_pPerfUnRegFunc@ATL@@3P6AJXZEA 0000000180032eb8     OposVariant.obj
 0003:00000ec0       ?_AtlRegisterPerUser@ATL@@3_NA 0000000180032ec0     OposVariant.obj
 0003:00000ec8       ?_pAtlModule@ATL@@3PEAVCAtlModule@1@EA 0000000180032ec8     OposVariant.obj
 0003:00000ed0       ?_pModule@ATL@@3PEAVCComModule@1@EA 0000000180032ed0     OposVariant.obj
 0003:00000ed8       ?m_bInitFailed@CAtlBaseModule@ATL@@2_NA 0000000180032ed8     OposVariant.obj
 0003:00000ee0       ?_AtlComModule@ATL@@3VCAtlComModule@1@A 0000000180032ee0     OposVariant.obj
 0003:00000f30       ?_AtlWinModule@ATL@@3VCAtlWinModule@1@A 0000000180032f30     OposVariant.obj
 0003:00000f78       ?m_libid@CAtlModule@ATL@@2U_GUID@@A 0000000180032f78     LineDisplay.obj
 0003:00000f88       ?_entries@?1??GetConnMap@COPOSLineDisplay@@SAPEBU_ATL_CONNMAP_ENTRY@ATL@@PEAH@Z@4QBU34@B 0000000180032f88     LineDisplay.obj
 0003:00000fa0       ?$TSS0@?1??GetConnMap@COPOSLineDisplay@@SAPEBU_ATL_CONNMAP_ENTRY@ATL@@PEAH@Z@4HA 0000000180032fa0     LineDisplay.obj
 0003:00000fa8       ?_OptionsStorage@?1??__local_stdio_printf_options@@9@4_KA 0000000180032fa8     LineDisplay.obj
 0003:00000fb0       ?pfnRegDeleteKeyEx@?1??DeleteSubKey@CRegKey@ATL@@QEAAJPEB_W@Z@4P6AJPEAUHKEY__@@0KK@ZEA 0000000180032fb0     LineDisplay.obj
 0003:00000fb8       ?bInitialized@?1??DeleteSubKey@CRegKey@ATL@@QEAAJPEB_W@Z@4_NA 0000000180032fb8     LineDisplay.obj
 0003:00000fc0       ?_Module@@3VCComModule@ATL@@A 0000000180032fc0     LineDisplay.obj
 0003:00001010       ?pConnMap@?$IConnectionPointContainerImpl@VCOPOSLineDisplay@@@ATL@@0PEBU_ATL_CONNMAP_ENTRY@2@EB 0000000180033010     LineDisplay.obj
 0003:00001018       ?s_nInstances@COPOSLineDisplay@@1HA 0000000180033018     LineDisplayImpl.obj
 0003:00001020       __scrt_current_native_startup_state 0000000180033020     LIBCMT:utility.obj
 0003:00001028       __scrt_native_startup_lock 0000000180033028     LIBCMT:utility.obj
 0003:00001620       _tls_index                 0000000180033620     LIBCMT:tlssup.obj
 0003:00001628       __favor                    0000000180033628     LIBCMT:cpu_disp.obj
 0003:0000162c       __scrt_debugger_hook_flag  000000018003362c     LIBCMT:utility_desktop.obj
 0003:00001630       ?__type_info_root_node@@3U__type_info_node@@A 0000000180033630     LIBCMT:tncleanup.obj
 0003:00001640       ?_OptionsStorage@?1??__local_stdio_scanf_options@@9@4_KA 0000000180033640     LIBCMT:default_local_stdio_options.obj
 0003:00001650       ?_AtlBaseModule@ATL@@3VCAtlBaseModule@1@A 0000000180033650     atls:atlbase.obj
 0003:000016b0       ?__AtlThunkPool@@3PEAT_SLIST_HEADER@@EA 00000001800336b0     atls:atlthunk.obj
 0003:000016dc       __@@_PchSym_@00@UzABUPdlipUGUhUrmgvinvwrzgvUexgllohUzgohOmzgrevkilqPBACIAJCBDBUlyqiUznwGEUhgwzucOlyq@4B2008FD98C1DD4 00000001800336dc     atls:stdafx.obj
 0003:000016e0       ?__WinRTOutOfMemoryExceptionCallback@@3P6APEAXXZEA 00000001800336e0     libvcruntime:ehhelpers.obj
 0003:000016e8       __pPurecall                00000001800336e8     libvcruntime:purevirt_data.obj
 0003:000017a0       ?pArgList@UnDecorator@@0PEAVReplicator@@EA 00000001800337a0     libvcruntime:undname.obj
 0003:000017a8       ?pZNameList@UnDecorator@@0PEAVReplicator@@EA 00000001800337a8     libvcruntime:undname.obj
 0003:000017b0       ?pTemplateArgList@UnDecorator@@0PEAVReplicator@@EA 00000001800337b0     libvcruntime:undname.obj
 0003:000017b8       ?gName@UnDecorator@@0PEBDEB 00000001800337b8     libvcruntime:undname.obj
 0003:000017c0       ?name@UnDecorator@@0PEBDEB 00000001800337c0     libvcruntime:undname.obj
 0003:000017c8       ?disableFlags@UnDecorator@@0KA 00000001800337c8     libvcruntime:undname.obj
 0003:000017cc       ?fExplicitTemplateParams@UnDecorator@@0_NA 00000001800337cc     libvcruntime:undname.obj
 0003:000017cd       ?fGetTemplateArgumentList@UnDecorator@@0_NA 00000001800337cd     libvcruntime:undname.obj
 0003:000017d0       ?m_pGetParameter@UnDecorator@@0P6APEADJ@ZEA 00000001800337d0     libvcruntime:undname.obj
 0003:000017d8       ?m_CHPENameOffset@UnDecorator@@0KA 00000001800337d8     libvcruntime:undname.obj
 0003:000017dc       ?m_recursionLevel@UnDecorator@@0KA 00000001800337dc     libvcruntime:undname.obj
 0003:00001860       ?c_exit_complete@?1???R<lambda_6e4b09c48022b2350581041d5f6b0c4c>@@QEBA@XZ@4_NA 0000000180033860     libucrt:exit.obj
 0003:00001978       _environ_table             0000000180033978     libucrt:environment_initialization.obj
 0003:00001980       _wenviron_table            0000000180033980     libucrt:environment_initialization.obj
 0003:00001988       __dcrt_initial_wide_environment 0000000180033988     libucrt:environment_initialization.obj
 0003:00001990       __dcrt_initial_narrow_environment 0000000180033990     libucrt:environment_initialization.obj
 0003:00001998       __acrt_atexit_table        0000000180033998     libucrt:onexit.obj
 0003:000019b0       __acrt_at_quick_exit_table 00000001800339b0     libucrt:onexit.obj
 0003:00001b88       _nstream                   0000000180033b88     libucrt:_file.obj
 0003:00001b90       __piob                     0000000180033b90     libucrt:_file.obj
 0003:00001ba0       __acrt_stdout_buffer       0000000180033ba0     libucrt:_sftbuf.obj
 0003:00001ba8       __acrt_stderr_buffer       0000000180033ba8     libucrt:_sftbuf.obj
 0003:00001bb0       __acrt_locale_changed_data 0000000180033bb0     libucrt:wsetlocale.obj
 0003:00001bb8       __acrt_current_locale_data 0000000180033bb8     libucrt:nlsdata.obj
 0003:00001bc0       __pioinfo                  0000000180033bc0     libucrt:ioinit.obj
 0003:00001fc0       _nhandle                   0000000180033fc0     libucrt:ioinit.obj
 0003:00002208       _mbctype                   0000000180034208     libucrt:mbctype.obj
 0003:00002210       _mbcasemap                 0000000180034210     libucrt:mbctype.obj
 0003:00002218       __acrt_current_multibyte_data 0000000180034218     libucrt:mbctype.obj
 0003:00002228       _pgmptr                    0000000180034228     libucrt:argv_data.obj
 0003:00002230       __argc                     0000000180034230     libucrt:argv_data.obj
 0003:00002238       __argv                     0000000180034238     libucrt:argv_data.obj
 0003:00002240       __wargv                    0000000180034240     libucrt:argv_data.obj
 0003:00002248       _acmdln                    0000000180034248     libucrt:argv_data.obj
 0003:00002250       _wcmdln                    0000000180034250     libucrt:argv_data.obj
 0003:00002258       __acrt_heap                0000000180034258     libucrt:heap_handle.obj
 0003:0000228c       __acrt_lconv_static_null   000000018003428c     libucrt:localeconv.obj
 0003:00002290       __acrt_lconv_static_W_null 0000000180034290     libucrt:localeconv.obj
 0003:000022a4       __fma3_is_available        00000001800342a4     libucrt:fma3_available.obj
 0003:000022a8       __use_fma3_lib             00000001800342a8     libucrt:fma3_available.obj
 0003:000022b0       __dyn_tls_init_callback    00000001800342b0     <common>
 0003:000022b8       __scrt_ucrt_dll_is_in_use  00000001800342b8     <common>

 entry point at        0001:0000f394

 Static symbols

 0000:fffc1000       .debug$S                   0000000180000000     OPOSLineDisplay.exp
 0000:fffc1000       .debug$S                   0000000180000000     advapi32:ADVAPI32.dll
 0000:fffc1000       .debug$S                   0000000180000000     advapi32:ADVAPI32.dll
 0000:fffc1000       .debug$S                   0000000180000000     advapi32:ADVAPI32.dll
 0000:fffc1000       .debug$S                   0000000180000000     advapi32:ADVAPI32.dll
 0000:fffc1000       .debug$S                   0000000180000000     advapi32:ADVAPI32.dll
 0000:fffc1000       .debug$S                   0000000180000000     advapi32:ADVAPI32.dll
 0000:fffc1000       .debug$S                   0000000180000000     advapi32:ADVAPI32.dll
 0000:fffc1000       .debug$S                   0000000180000000     advapi32:ADVAPI32.dll
 0000:fffc1000       .debug$S                   0000000180000000     advapi32:ADVAPI32.dll
 0000:fffc1000       .debug$S                   0000000180000000     gdi32:GDI32.dll
 0000:fffc1000       .debug$S                   0000000180000000     gdi32:GDI32.dll
 0000:fffc1000       .debug$S                   0000000180000000     gdi32:GDI32.dll
 0000:fffc1000       .debug$S                   0000000180000000     gdi32:GDI32.dll
 0000:fffc1000       .debug$S                   0000000180000000     gdi32:GDI32.dll
 0000:fffc1000       .debug$S                   0000000180000000     gdi32:GDI32.dll
 0000:fffc1000       .debug$S                   0000000180000000     gdi32:GDI32.dll
 0000:fffc1000       .debug$S                   0000000180000000     gdi32:GDI32.dll
 0000:fffc1000       .debug$S                   0000000180000000     gdi32:GDI32.dll
 0000:fffc1000       .debug$S                   0000000180000000     gdi32:GDI32.dll
 0000:fffc1000       .debug$S                   0000000180000000     gdi32:GDI32.dll
 0000:fffc1000       .debug$S                   0000000180000000     gdi32:GDI32.dll
 0000:fffc1000       .debug$S                   0000000180000000     gdi32:GDI32.dll
 0000:fffc1000       .debug$S                   0000000180000000     gdi32:GDI32.dll
 0000:fffc1000       .debug$S                   0000000180000000     gdi32:GDI32.dll
 0000:fffc1000       .debug$S                   0000000180000000     gdi32:GDI32.dll
 0000:fffc1000       .debug$S                   0000000180000000     gdi32:GDI32.dll
 0000:fffc1000       .debug$S                   0000000180000000     gdi32:GDI32.dll
 0000:fffc1000       .debug$S                   0000000180000000     gdi32:GDI32.dll
 0000:fffc1000       .debug$S                   0000000180000000     kernel32:KERNEL32.dll
 0000:fffc1000       .debug$S                   0000000180000000     kernel32:KERNEL32.dll
 0000:fffc1000       .debug$S                   0000000180000000     kernel32:KERNEL32.dll
 0000:fffc1000       .debug$S                   0000000180000000     kernel32:KERNEL32.dll
 0000:fffc1000       .debug$S                   0000000180000000     kernel32:KERNEL32.dll
 0000:fffc1000       .debug$S                   0000000180000000     kernel32:KERNEL32.dll
 0000:fffc1000       .debug$S                   0000000180000000     kernel32:KERNEL32.dll
 0000:fffc1000       .debug$S                   0000000180000000     kernel32:KERNEL32.dll
 0000:fffc1000       .debug$S                   0000000180000000     kernel32:KERNEL32.dll
 0000:fffc1000       .debug$S                   0000000180000000     kernel32:KERNEL32.dll
 0000:fffc1000       .debug$S                   0000000180000000     kernel32:KERNEL32.dll
 0000:fffc1000       .debug$S                   0000000180000000     kernel32:KERNEL32.dll
 0000:fffc1000       .debug$S                   0000000180000000     kernel32:KERNEL32.dll
 0000:fffc1000       .debug$S                   0000000180000000     kernel32:KERNEL32.dll
 0000:fffc1000       .debug$S                   0000000180000000     kernel32:KERNEL32.dll
 0000:fffc1000       .debug$S                   0000000180000000     kernel32:KERNEL32.dll
 0000:fffc1000       .debug$S                   0000000180000000     kernel32:KERNEL32.dll
 0000:fffc1000       .debug$S                   0000000180000000     kernel32:KERNEL32.dll
 0000:fffc1000       .debug$S                   0000000180000000     kernel32:KERNEL32.dll
 0000:fffc1000       .debug$S                   0000000180000000     kernel32:KERNEL32.dll
 0000:fffc1000       .debug$S                   0000000180000000     kernel32:KERNEL32.dll
 0000:fffc1000       .debug$S                   0000000180000000     kernel32:KERNEL32.dll
 0000:fffc1000       .debug$S                   0000000180000000     kernel32:KERNEL32.dll
 0000:fffc1000       .debug$S                   0000000180000000     kernel32:KERNEL32.dll
 0000:fffc1000       .debug$S                   0000000180000000     kernel32:KERNEL32.dll
 0000:fffc1000       .debug$S                   0000000180000000     kernel32:KERNEL32.dll
 0000:fffc1000       .debug$S                   0000000180000000     kernel32:KERNEL32.dll
 0000:fffc1000       .debug$S                   0000000180000000     kernel32:KERNEL32.dll
 0000:fffc1000       .debug$S                   0000000180000000     kernel32:KERNEL32.dll
 0000:fffc1000       .debug$S                   0000000180000000     kernel32:KERNEL32.dll
 0000:fffc1000       .debug$S                   0000000180000000     kernel32:KERNEL32.dll
 0000:fffc1000       .debug$S                   0000000180000000     kernel32:KERNEL32.dll
 0000:fffc1000       .debug$S                   0000000180000000     kernel32:KERNEL32.dll
 0000:fffc1000       .debug$S                   0000000180000000     kernel32:KERNEL32.dll
 0000:fffc1000       .debug$S                   0000000180000000     kernel32:KERNEL32.dll
 0000:fffc1000       .debug$S                   0000000180000000     kernel32:KERNEL32.dll
 0000:fffc1000       .debug$S                   0000000180000000     kernel32:KERNEL32.dll
 0000:fffc1000       .debug$S                   0000000180000000     kernel32:KERNEL32.dll
 0000:fffc1000       .debug$S                   0000000180000000     kernel32:KERNEL32.dll
 0000:fffc1000       .debug$S                   0000000180000000     kernel32:KERNEL32.dll
 0000:fffc1000       .debug$S                   0000000180000000     kernel32:KERNEL32.dll
 0000:fffc1000       .debug$S                   0000000180000000     kernel32:KERNEL32.dll
 0000:fffc1000       .debug$S                   0000000180000000     kernel32:KERNEL32.dll
 0000:fffc1000       .debug$S                   0000000180000000     kernel32:KERNEL32.dll
 0000:fffc1000       .debug$S                   0000000180000000     kernel32:KERNEL32.dll
 0000:fffc1000       .debug$S                   0000000180000000     kernel32:KERNEL32.dll
 0000:fffc1000       .debug$S                   0000000180000000     kernel32:KERNEL32.dll
 0000:fffc1000       .debug$S                   0000000180000000     kernel32:KERNEL32.dll
 0000:fffc1000       .debug$S                   0000000180000000     kernel32:KERNEL32.dll
 0000:fffc1000       .debug$S                   0000000180000000     kernel32:KERNEL32.dll
 0000:fffc1000       .debug$S                   0000000180000000     kernel32:KERNEL32.dll
 0000:fffc1000       .debug$S                   0000000180000000     kernel32:KERNEL32.dll
 0000:fffc1000       .debug$S                   0000000180000000     kernel32:KERNEL32.dll
 0000:fffc1000       .debug$S                   0000000180000000     kernel32:KERNEL32.dll
 0000:fffc1000       .debug$S                   0000000180000000     kernel32:KERNEL32.dll
 0000:fffc1000       .debug$S                   0000000180000000     kernel32:KERNEL32.dll
 0000:fffc1000       .debug$S                   0000000180000000     kernel32:KERNEL32.dll
 0000:fffc1000       .debug$S                   0000000180000000     kernel32:KERNEL32.dll
 0000:fffc1000       .debug$S                   0000000180000000     kernel32:KERNEL32.dll
 0000:fffc1000       .debug$S                   0000000180000000     kernel32:KERNEL32.dll
 0000:fffc1000       .debug$S                   0000000180000000     kernel32:KERNEL32.dll
 0000:fffc1000       .debug$S                   0000000180000000     kernel32:KERNEL32.dll
 0000:fffc1000       .debug$S                   0000000180000000     kernel32:KERNEL32.dll
 0000:fffc1000       .debug$S                   0000000180000000     kernel32:KERNEL32.dll
 0000:fffc1000       .debug$S                   0000000180000000     kernel32:KERNEL32.dll
 0000:fffc1000       .debug$S                   0000000180000000     kernel32:KERNEL32.dll
 0000:fffc1000       .debug$S                   0000000180000000     kernel32:KERNEL32.dll
 0000:fffc1000       .debug$S                   0000000180000000     kernel32:KERNEL32.dll
 0000:fffc1000       .debug$S                   0000000180000000     kernel32:KERNEL32.dll
 0000:fffc1000       .debug$S                   0000000180000000     kernel32:KERNEL32.dll
 0000:fffc1000       .debug$S                   0000000180000000     kernel32:KERNEL32.dll
 0000:fffc1000       .debug$S                   0000000180000000     kernel32:KERNEL32.dll
 0000:fffc1000       .debug$S                   0000000180000000     kernel32:KERNEL32.dll
 0000:fffc1000       .debug$S                   0000000180000000     kernel32:KERNEL32.dll
 0000:fffc1000       .debug$S                   0000000180000000     kernel32:KERNEL32.dll
 0000:fffc1000       .debug$S                   0000000180000000     kernel32:KERNEL32.dll
 0000:fffc1000       .debug$S                   0000000180000000     kernel32:KERNEL32.dll
 0000:fffc1000       .debug$S                   0000000180000000     kernel32:KERNEL32.dll
 0000:fffc1000       .debug$S                   0000000180000000     kernel32:KERNEL32.dll
 0000:fffc1000       .debug$S                   0000000180000000     kernel32:KERNEL32.dll
 0000:fffc1000       .debug$S                   0000000180000000     kernel32:KERNEL32.dll
 0000:fffc1000       .debug$S                   0000000180000000     kernel32:KERNEL32.dll
 0000:fffc1000       .debug$S                   0000000180000000     kernel32:KERNEL32.dll
 0000:fffc1000       .debug$S                   0000000180000000     kernel32:KERNEL32.dll
 0000:fffc1000       .debug$S                   0000000180000000     kernel32:KERNEL32.dll
 0000:fffc1000       .debug$S                   0000000180000000     kernel32:KERNEL32.dll
 0000:fffc1000       .debug$S                   0000000180000000     kernel32:KERNEL32.dll
 0000:fffc1000       .debug$S                   0000000180000000     kernel32:KERNEL32.dll
 0000:fffc1000       .debug$S                   0000000180000000     kernel32:KERNEL32.dll
 0000:fffc1000       .debug$S                   0000000180000000     kernel32:KERNEL32.dll
 0000:fffc1000       .debug$S                   0000000180000000     kernel32:KERNEL32.dll
 0000:fffc1000       .debug$S                   0000000180000000     kernel32:KERNEL32.dll
 0000:fffc1000       .debug$S                   0000000180000000     kernel32:KERNEL32.dll
 0000:fffc1000       .debug$S                   0000000180000000     kernel32:KERNEL32.dll
 0000:fffc1000       .debug$S                   0000000180000000     kernel32:KERNEL32.dll
 0000:fffc1000       .debug$S                   0000000180000000     kernel32:KERNEL32.dll
 0000:fffc1000       .debug$S                   0000000180000000     kernel32:KERNEL32.dll
 0000:fffc1000       .debug$S                   0000000180000000     kernel32:KERNEL32.dll
 0000:fffc1000       .debug$S                   0000000180000000     kernel32:KERNEL32.dll
 0000:fffc1000       .debug$S                   0000000180000000     kernel32:KERNEL32.dll
 0000:fffc1000       .debug$S                   0000000180000000     kernel32:KERNEL32.dll
 0000:fffc1000       .debug$S                   0000000180000000     kernel32:KERNEL32.dll
 0000:fffc1000       .debug$S                   0000000180000000     kernel32:KERNEL32.dll
 0000:fffc1000       .debug$S                   0000000180000000     kernel32:KERNEL32.dll
 0000:fffc1000       .debug$S                   0000000180000000     kernel32:KERNEL32.dll
 0000:fffc1000       .debug$S                   0000000180000000     kernel32:KERNEL32.dll
 0000:fffc1000       .debug$S                   0000000180000000     kernel32:KERNEL32.dll
 0000:fffc1000       .debug$S                   0000000180000000     kernel32:KERNEL32.dll
 0000:fffc1000       .debug$S                   0000000180000000     kernel32:KERNEL32.dll
 0000:fffc1000       .debug$S                   0000000180000000     kernel32:KERNEL32.dll
 0000:fffc1000       .debug$S                   0000000180000000     kernel32:KERNEL32.dll
 0000:fffc1000       .debug$S                   0000000180000000     ole32:ole32.dll
 0000:fffc1000       .debug$S                   0000000180000000     ole32:ole32.dll
 0000:fffc1000       .debug$S                   0000000180000000     ole32:ole32.dll
 0000:fffc1000       .debug$S                   0000000180000000     ole32:ole32.dll
 0000:fffc1000       .debug$S                   0000000180000000     ole32:ole32.dll
 0000:fffc1000       .debug$S                   0000000180000000     ole32:ole32.dll
 0000:fffc1000       .debug$S                   0000000180000000     ole32:ole32.dll
 0000:fffc1000       .debug$S                   0000000180000000     ole32:ole32.dll
 0000:fffc1000       .debug$S                   0000000180000000     ole32:ole32.dll
 0000:fffc1000       .debug$S                   0000000180000000     ole32:ole32.dll
 0000:fffc1000       .debug$S                   0000000180000000     ole32:ole32.dll
 0000:fffc1000       .debug$S                   0000000180000000     ole32:ole32.dll
 0000:fffc1000       .debug$S                   0000000180000000     ole32:ole32.dll
 0000:fffc1000       .debug$S                   0000000180000000     ole32:ole32.dll
 0000:fffc1000       .debug$S                   0000000180000000     oleaut32:OLEAUT32.dll
 0000:fffc1000       .debug$S                   0000000180000000     oleaut32:OLEAUT32.dll
 0000:fffc1000       .debug$S                   0000000180000000     oleaut32:OLEAUT32.dll
 0000:fffc1000       .debug$S                   0000000180000000     oleaut32:OLEAUT32.dll
 0000:fffc1000       .debug$S                   0000000180000000     oleaut32:OLEAUT32.dll
 0000:fffc1000       .debug$S                   0000000180000000     oleaut32:OLEAUT32.dll
 0000:fffc1000       .debug$S                   0000000180000000     oleaut32:OLEAUT32.dll
 0000:fffc1000       .debug$S                   0000000180000000     oleaut32:OLEAUT32.dll
 0000:fffc1000       .debug$S                   0000000180000000     oleaut32:OLEAUT32.dll
 0000:fffc1000       .debug$S                   0000000180000000     oleaut32:OLEAUT32.dll
 0000:fffc1000       .debug$S                   0000000180000000     oleaut32:OLEAUT32.dll
 0000:fffc1000       .debug$S                   0000000180000000     oleaut32:OLEAUT32.dll
 0000:fffc1000       .debug$S                   0000000180000000     oleaut32:OLEAUT32.dll
 0000:fffc1000       .debug$S                   0000000180000000     oleaut32:OLEAUT32.dll
 0000:fffc1000       .debug$S                   0000000180000000     oleaut32:OLEAUT32.dll
 0000:fffc1000       .debug$S                   0000000180000000     oleaut32:OLEAUT32.dll
 0000:fffc1000       .debug$S                   0000000180000000     user32:USER32.dll
 0000:fffc1000       .debug$S                   0000000180000000     user32:USER32.dll
 0000:fffc1000       .debug$S                   0000000180000000     user32:USER32.dll
 0000:fffc1000       .debug$S                   0000000180000000     user32:USER32.dll
 0000:fffc1000       .debug$S                   0000000180000000     user32:USER32.dll
 0000:fffc1000       .debug$S                   0000000180000000     user32:USER32.dll
 0000:fffc1000       .debug$S                   0000000180000000     user32:USER32.dll
 0000:fffc1000       .debug$S                   0000000180000000     user32:USER32.dll
 0000:fffc1000       .debug$S                   0000000180000000     user32:USER32.dll
 0000:fffc1000       .debug$S                   0000000180000000     user32:USER32.dll
 0000:fffc1000       .debug$S                   0000000180000000     user32:USER32.dll
 0000:fffc1000       .debug$S                   0000000180000000     user32:USER32.dll
 0000:fffc1000       .debug$S                   0000000180000000     user32:USER32.dll
 0000:fffc1000       .debug$S                   0000000180000000     user32:USER32.dll
 0000:fffc1000       .debug$S                   0000000180000000     user32:USER32.dll
 0000:fffc1000       .debug$S                   0000000180000000     user32:USER32.dll
 0000:fffc1000       .debug$S                   0000000180000000     user32:USER32.dll
 0000:fffc1000       .debug$S                   0000000180000000     user32:USER32.dll
 0000:fffc1000       .debug$S                   0000000180000000     user32:USER32.dll
 0000:fffc1000       .debug$S                   0000000180000000     user32:USER32.dll
 0000:fffc1000       .debug$S                   0000000180000000     user32:USER32.dll
 0000:fffc1000       .debug$S                   0000000180000000     user32:USER32.dll
 0000:fffc1000       .debug$S                   0000000180000000     user32:USER32.dll
 0000:fffc1000       .debug$S                   0000000180000000     user32:USER32.dll
 0000:fffc1000       .debug$S                   0000000180000000     user32:USER32.dll
 0000:fffc1000       .debug$S                   0000000180000000     user32:USER32.dll
 0000:fffc1000       .debug$S                   0000000180000000     user32:USER32.dll
 0000:fffc1000       .debug$S                   0000000180000000     user32:USER32.dll
 0000:fffc1000       .debug$S                   0000000180000000     user32:USER32.dll
 0000:fffc1000       .debug$S                   0000000180000000     user32:USER32.dll
 0000:fffc1000       .debug$S                   0000000180000000     user32:USER32.dll
 0000:fffc1000       .debug$S                   0000000180000000     user32:USER32.dll
 0000:fffc1000       .debug$S                   0000000180000000     user32:USER32.dll
 0000:fffc1000       .debug$S                   0000000180000000     user32:USER32.dll
 0000:fffc1000       .debug$S                   0000000180000000     user32:USER32.dll
 0001:00000000       ??__E_AtlComModule@ATL@@YAXXZ 0000000180001000 f   OposVariant.obj
 0001:00000020       ??__E_AtlWinModule@ATL@@YAXXZ 0000000180001020 f   OposVariant.obj
 0001:00000040       ??__E?pConnMap@?$IConnectionPointContainerImpl@VCOPOSLineDisplay@@@ATL@@0PEBU_ATL_CONNMAP_ENTRY@2@EB@@YAXXZ 0000000180001040 f   LineDisplay.obj
 0001:00000058       ??__E_Module@@YAXXZ        0000000180001058 f   LineDisplay.obj
 0001:00000094       ??__E_AtlBaseModule@ATL@@YAXXZ 0000000180001094 f   atls:atlbase.obj
 0001:0000e9a4       ?__scrt_initialize_thread_safe_statics@@YAHXZ 000000018000f9a4 f   LIBCMT:thread_safe_statics.obj
 0001:0000ea74       ?__scrt_uninitialize_thread_safe_statics@@YAXXZ 000000018000fa74 f   LIBCMT:thread_safe_statics.obj
 0001:0000edc4       capture_current_context    000000018000fdc4 f   LIBCMT:gs_report.obj
 0001:0000ee34       capture_previous_context   000000018000fe34 f   LIBCMT:gs_report.obj
 0001:0000efd0       $$000000                   000000018000ffd0     LIBCMT:chkstk.obj
 0001:0000f040       $$000000                   0000000180010040     LIBCMT:amdsecgs.obj
 0001:0000f074       ?dllmain_crt_dispatch@@YAHQEAUHINSTANCE__@@KQEAX@Z 0000000180010074 f   LIBCMT:dll_dllmain.obj
 0001:0000f0c4       ?dllmain_crt_process_attach@@YAHQEAUHINSTANCE__@@QEAX@Z 00000001800100c4 f   LIBCMT:dll_dllmain.obj
 0001:0000f1dc       ?dllmain_crt_process_detach@@YAH_N@Z 00000001800101dc f   LIBCMT:dll_dllmain.obj
 0001:0000f260       ?dllmain_dispatch@@YAHQEAUHINSTANCE__@@KQEAX@Z 0000000180010260 f   LIBCMT:dll_dllmain.obj
 0001:0000fb28       ??$GetProcAddressAll@P6AP6A_JPEAUHWND__@@I_K_J@ZPEAUAtlThunkData_t@@@Z@@YAP6AP6A_JPEAUHWND__@@I_K_J@ZPEAUAtlThunkData_t@@@ZPEAP6AP6A_J0I12@Z3@Z@Z 0000000180010b28 f   atls:atlthunk.obj
 0001:0000fb28       ??$GetProcAddressAll@P6APEAUAtlThunkData_t@@XZ@@YAP6APEAUAtlThunkData_t@@XZPEAP6APEAU0@XZ@Z 0000000180010b28 f   atls:atlthunk.obj
 0001:0000fb28       ??$GetProcAddressAll@P6AXPEAUAtlThunkData_t@@@Z@@YAP6AXPEAUAtlThunkData_t@@@ZPEAP6AX0@Z@Z 0000000180010b28 f   atls:atlthunk.obj
 0001:0000fb28       ??$GetProcAddressAll@P6AXPEAUAtlThunkData_t@@PEAX_K@Z@@YAP6AXPEAUAtlThunkData_t@@PEAX_K@ZPEAP6AX012@Z@Z 0000000180010b28 f   atls:atlthunk.obj
 0001:0000fd00       ?__InitializeThunkPool@@YAHXZ 0000000180010d00 f   atls:atlthunk.obj
 0001:000101a0       $$000000                   00000001800111a0     libvcruntime:memcmp.obj
 0001:00010280       $$000000                   0000000180011280     libvcruntime:memcpy.obj
 0001:00010690       $$000000                   0000000180011690     libvcruntime:memset.obj
 0001:000117a0       $$000000                   00000001800127a0     libvcruntime:notify.obj
 0001:0001190c       ??$BuildCatchObjectHelperInternal@V__FrameHandler4@@@@YAHPEAUEHExceptionRecord@@PEAXPEAUHandlerType4@FH4@@PEBU_s_CatchableType@@@Z 000000018001290c f   libvcruntime:frame.obj
 0001:00011b10       ??$BuildCatchObjectInternal@V__FrameHandler4@@@@YAXPEAUEHExceptionRecord@@PEAXPEAUHandlerType4@FH4@@PEBU_s_CatchableType@@@Z 0000000180012b10 f   libvcruntime:frame.obj
 0001:00011bd4       ??$CatchIt@V__FrameHandler4@@@@YAXPEAUEHExceptionRecord@@PEA_KPEAU_CONTEXT@@PEAU_xDISPATCHER_CONTEXT@@PEAUFuncInfo4@FH4@@PEAUHandlerType4@4@PEBU_s_CatchableType@@PEAUTryBlockMapEntry4@4@H1EE@Z 0000000180012bd4 f   libvcruntime:frame.obj
 0001:00011ca8       ??$FindHandler@V__FrameHandler4@@@@YAXPEAUEHExceptionRecord@@PEA_KPEAU_CONTEXT@@PEAU_xDISPATCHER_CONTEXT@@PEAUFuncInfo4@FH4@@EH1@Z 0000000180012ca8 f   libvcruntime:frame.obj
 0001:000121b8       ??$FindHandlerForForeignException@V__FrameHandler4@@@@YAXPEAUEHExceptionRecord@@PEA_KPEAU_CONTEXT@@PEAU_xDISPATCHER_CONTEXT@@PEAUFuncInfo4@FH4@@HH1@Z 00000001800131b8 f   libvcruntime:frame.obj
 0001:00012f48       ?ExFilterRethrow@@YAHPEAU_EXCEPTION_POINTERS@@PEAUEHExceptionRecord@@PEAH@Z 0000000180013f48 f   libvcruntime:frame.obj
 0001:00012fd0       ?ExFilterRethrowFH4@@YAHPEAU_EXCEPTION_POINTERS@@PEAUEHExceptionRecord@@HPEAH@Z 0000000180013fd0 f   libvcruntime:frame.obj
 0001:000132e8       ?IsInExceptionSpec@@YAEPEAUEHExceptionRecord@@PEBU_s_ESTypeList@@@Z 00000001800142e8 f   libvcruntime:frame.obj
 0001:000133d4       ?Is_bad_exception_allowed@@YAEPEBU_s_ESTypeList@@@Z 00000001800143d4 f   libvcruntime:frame.obj
 0001:000136b0       ?try_get_function@@YAPEAXW4function_id@?A0x5302d918@@QEBDQEBW4module_id@2@2@Z 00000001800146b0 f   libvcruntime:winapi_downlevel.obj
 0001:00013990       $$000000                   0000000180014990     libvcruntime:handlers.obj
 0001:000141a8       ??$common_vsprintf@Vformat_validation_base@__crt_stdio_output@@_W@@YAH_KQEA_W0QEB_WQEAU__crt_locale_pointers@@QEAD@Z 00000001800151a8 f   libucrt:output.obj
 0001:00015048       $LN17                      0000000180016048     libucrt:output.obj
 0001:000159ec       ??$?RV<lambda_d80eeec6fff315bfe5c115232f3240e3>@@AEAV<lambda_6e4b09c48022b2350581041d5f6b0c4c>@@V<lambda_2358e3775559c9db80273638284d5e45>@@@?$__crt_seh_guarded_call@X@@QEAAX$$QEAV<lambda_d80eeec6fff315bfe5c115232f3240e3>@@AEAV<lambda_6e4b09c48022b2350581041d5f6b0c4c>@@$$QEAV<lambda_2358e3775559c9db80273638284d5e45>@@@Z 00000001800169ec f   libucrt:exit.obj
 0001:00015a24       ??R<lambda_6e4b09c48022b2350581041d5f6b0c4c>@@QEBA@XZ 0000000180016a24 f   libucrt:exit.obj
 0001:00015ae8       ?atexit_exception_filter@@YAHK@Z 0000000180016ae8 f   libucrt:exit.obj
 0001:00015af4       ?common_exit@@YAXHW4_crt_exit_cleanup_mode@@W4_crt_exit_return_mode@@@Z 0000000180016af4 f   libucrt:exit.obj
 0001:00015bb0       ?exit_or_terminate_process@@YAXI@Z 0000000180016bb0 f   libucrt:exit.obj
 0001:00015bfc       ?try_cor_exit_process@@YAXI@Z 0000000180016bfc f   libucrt:exit.obj
 0001:00015c84       ??$parse_command_line@D@@YAXPEADPEAPEAD0PEA_K2@Z 0000000180016c84 f   libucrt:argv_parsing.obj
 0001:0001602c       ??$common_initialize_environment_nolock@D@@YAHXZ 000000018001702c f   libucrt:environment_initialization.obj
 0001:00016098       ??$create_environment@D@@YAQEAPEADQEAD@Z 0000000180017098 f   libucrt:environment_initialization.obj
 0001:000161a0       ??$free_environment@D@@YAXQEAPEAD@Z 00000001800171a0 f   libucrt:environment_initialization.obj
 0001:000161a0       ??$free_environment@_W@@YAXQEAPEA_W@Z 00000001800171a0 f   libucrt:environment_initialization.obj
 0001:000161e4       ??$uninitialize_environment_internal@D@@YAXAEAPEAPEAD@Z 00000001800171e4 f   libucrt:environment_initialization.obj
 0001:00016200       ??$uninitialize_environment_internal@_W@@YAXAEAPEAPEA_W@Z 0000000180017200 f   libucrt:environment_initialization.obj
 0001:0001625c       ??$?RV<lambda_638799b9deba96c50f710eeac98168cd>@@AEAV<lambda_22ebabd17bc4fa466a2aca6d8deb888d>@@V<lambda_a6f7d7db0129f75315ebf26d50c089f1>@@@?$__crt_seh_guarded_call@H@@QEAAH$$QEAV<lambda_638799b9deba96c50f710eeac98168cd>@@AEAV<lambda_22ebabd17bc4fa466a2aca6d8deb888d>@@$$QEAV<lambda_a6f7d7db0129f75315ebf26d50c089f1>@@@Z 000000018001725c f   libucrt:onexit.obj
 0001:00016298       ??$?RV<lambda_7777bce6b2f8c936911f934f8298dc43>@@AEAV<lambda_f03950bc5685219e0bcd2087efbe011e>@@V<lambda_3883c3dff614d5e0c5f61bb1ac94921c>@@@?$__crt_seh_guarded_call@H@@QEAAH$$QEAV<lambda_7777bce6b2f8c936911f934f8298dc43>@@AEAV<lambda_f03950bc5685219e0bcd2087efbe011e>@@$$QEAV<lambda_3883c3dff614d5e0c5f61bb1ac94921c>@@@Z 0000000180017298 f   libucrt:onexit.obj
 0001:000162d4       ??R<lambda_22ebabd17bc4fa466a2aca6d8deb888d>@@QEBAHXZ 00000001800172d4 f   libucrt:onexit.obj
 0001:00016484       ??R<lambda_f03950bc5685219e0bcd2087efbe011e>@@QEBAHXZ 0000000180017484 f   libucrt:onexit.obj
 0001:00016658       initialize_global_variables 0000000180017658 f   libucrt:initialization.obj
 0001:0001666c       initialize_c               000000018001766c f   libucrt:initialization.obj
 0001:00016690       initialize_environment     0000000180017690 f   libucrt:initialization.obj
 0001:00016690       initialize_global_state_isolation 0000000180017690 f   libucrt:initialization.obj
 0001:00016690       report_memory_leaks        0000000180017690 f   libucrt:initialization.obj
 0001:00016690       uninitialize_c             0000000180017690 f   libucrt:initialization.obj
 0001:00016690       uninitialize_global_state_isolation 0000000180017690 f   libucrt:initialization.obj
 0001:00016694       uninitialize_environment   0000000180017694 f   libucrt:initialization.obj
 0001:000166a4       initialize_pointers        00000001800176a4 f   libucrt:initialization.obj
 0001:000166e4       uninitialize_vcruntime     00000001800176e4 f   libucrt:initialization.obj
 0001:000166ec       uninitialize_allocated_memory 00000001800176ec f   libucrt:initialization.obj
 0001:0001672c       uninitialize_allocated_io_buffers 000000018001772c f   libucrt:initialization.obj
 0001:000170a0       $$000000                   00000001800180a0     libucrt:strncmp.obj
 0001:0001719c       ??$?RV<lambda_0ae27a3a962d80f24befdcbee591983d>@@AEAV<lambda_8d0ee55de4b1038c4002e0adecdf1839>@@V<lambda_dc504788e8f1664fe9b84e20bfb512f2>@@@?$__crt_seh_guarded_call@X@@QEAAX$$QEAV<lambda_0ae27a3a962d80f24befdcbee591983d>@@AEAV<lambda_8d0ee55de4b1038c4002e0adecdf1839>@@$$QEAV<lambda_dc504788e8f1664fe9b84e20bfb512f2>@@@Z 000000018001819c f   libucrt:per_thread_data.obj
 0001:000171dc       ??$?RV<lambda_2d41944a1d46af3157314b8a01080d33>@@AEAV<lambda_8f455de75cd7d7f24b4096f044d8b9e6>@@V<lambda_aa500f224e6afead328df44964fe2772>@@@?$__crt_seh_guarded_call@X@@QEAAX$$QEAV<lambda_2d41944a1d46af3157314b8a01080d33>@@AEAV<lambda_8f455de75cd7d7f24b4096f044d8b9e6>@@$$QEAV<lambda_aa500f224e6afead328df44964fe2772>@@@Z 00000001800181dc f   libucrt:per_thread_data.obj
 0001:0001721c       ??$?RV<lambda_aa87e3671a710a21b5dc78c0bdf72e11>@@AEAV<lambda_92619d2358a28f41a33ba319515a20b9>@@V<lambda_6992ecaafeb10aed2b74cb1fae11a551>@@@?$__crt_seh_guarded_call@X@@QEAAX$$QEAV<lambda_aa87e3671a710a21b5dc78c0bdf72e11>@@AEAV<lambda_92619d2358a28f41a33ba319515a20b9>@@$$QEAV<lambda_6992ecaafeb10aed2b74cb1fae11a551>@@@Z 000000018001821c f   libucrt:per_thread_data.obj
 0001:00017264       ??$?RV<lambda_f2e299630e499de9f9a165e60fcd3db5>@@AEAV<lambda_2ae9d31cdba2644fcbeaf08da7c24588>@@V<lambda_40d01ff24d0e7b3814fdbdcee8eab3c7>@@@?$__crt_seh_guarded_call@X@@QEAAX$$QEAV<lambda_f2e299630e499de9f9a165e60fcd3db5>@@AEAV<lambda_2ae9d31cdba2644fcbeaf08da7c24588>@@$$QEAV<lambda_40d01ff24d0e7b3814fdbdcee8eab3c7>@@@Z 0000000180018264 f   libucrt:per_thread_data.obj
 0001:000172c4       ?construct_ptd_array@@YAXQEAU__acrt_ptd@@@Z 00000001800182c4 f   libucrt:per_thread_data.obj
 0001:00017394       ?destroy_fls@@YAXPEAX@Z    0000000180018394 f   libucrt:per_thread_data.obj
 0001:000173b4       ?destroy_ptd_array@@YAXQEAU__acrt_ptd@@@Z 00000001800183b4 f   libucrt:per_thread_data.obj
 0001:000174ac       ?replace_current_thread_locale_nolock@@YAXQEAU__acrt_ptd@@QEAU__crt_locale_data@@@Z 00000001800184ac f   libucrt:per_thread_data.obj
 0001:00017990       ?try_get_function@@YAPEAXW4function_id@?A0x391cf84c@@QEBDQEBW4module_id@2@2@Z 0000000180018990 f   libucrt:winapi_thunks.obj
 0001:00018360       ?fp_format_a@@YAHQEBNPEAD_KQEAD2H_NIQEAU__crt_locale_pointers@@W4__acrt_rounding_mode@@@Z 0000000180019360 f   libucrt:cvt.obj
 0001:000186e0       ?fp_format_e@@YAHQEBNQEAD_K12H_NIQEAU__crt_locale_pointers@@W4__acrt_rounding_mode@@@Z 00000001800196e0 f   libucrt:cvt.obj
 0001:000187d0       ?fp_format_e_internal@@YAHQEAD_KH_NIQEAU_strflt@@2QEAU__crt_locale_pointers@@@Z 00000001800197d0 f   libucrt:cvt.obj
 0001:000189a4       ?fp_format_f_internal@@YAHQEAD_KHQEAU_strflt@@_NQEAU__crt_locale_pointers@@@Z 00000001800199a4 f   libucrt:cvt.obj
 0001:00018b0c       ?fp_format_g@@YAHQEBNQEAD_K12H_NIQEAU__crt_locale_pointers@@@Z 0000000180019b0c f   libucrt:cvt.obj
 0001:00018c4c       ?should_round_up@@YA_NQEBN_KFW4__acrt_rounding_mode@@@Z 0000000180019c4c f   libucrt:cvt.obj
 0001:00019270       ??$?RV<lambda_410d79af7f07d98d83a3f525b3859a53>@@AEAV<lambda_3e16ef9562a7dcce91392c22ab16ea36>@@V<lambda_38119f0e861e05405d8a144b9b982f0a>@@@?$__crt_seh_guarded_call@X@@QEAAX$$QEAV<lambda_410d79af7f07d98d83a3f525b3859a53>@@AEAV<lambda_3e16ef9562a7dcce91392c22ab16ea36>@@$$QEAV<lambda_38119f0e861e05405d8a144b9b982f0a>@@@Z 000000018001a270 f   libucrt:wsetlocale.obj
 0001:0001931c       ?initialize_inherited_file_handles_nolock@@YAXXZ 000000018001a31c f   libucrt:ioinit.obj
 0001:0001940c       ?initialize_stdio_handles_nolock@@YAXXZ 000000018001a40c f   libucrt:ioinit.obj
 0001:00019688       ?<lambda_invoker_cdecl>@<lambda_a1ce4c8ae42411fd470c77163914f50e>@@CAHPEBX0@Z 000000018001a688 f   libucrt:argv_wildcards.obj
 0001:000199a0       ??$common_expand_argv_wildcards@D@@YAHQEAPEADQEAPEAPEAD@Z 000000018001a9a0 f   libucrt:argv_wildcards.obj
 0001:00019bac       ??$copy_and_add_argument_to_buffer@D@@YAHQEBD0_KAEAV?$argument_list@D@?A0x5f5c8891@@@Z 000000018001abac f   libucrt:argv_wildcards.obj
 0001:00019d34       ??$expand_argument_wildcards@D@@YAHQEAD0AEAV?$argument_list@D@?A0x5f5c8891@@@Z 000000018001ad34 f   libucrt:argv_wildcards.obj
 0001:0001a280       ??$?RV<lambda_efdfa57d1f175319df784efa44bb7b81>@@AEAV<lambda_5f0a4c1567f8adc6734073e5d1e1b35c>@@V<lambda_2e8a7d3640ea6ccb4c2413664c2db6fd>@@@?$__crt_seh_guarded_call@X@@QEAAX$$QEAV<lambda_efdfa57d1f175319df784efa44bb7b81>@@AEAV<lambda_5f0a4c1567f8adc6734073e5d1e1b35c>@@$$QEAV<lambda_2e8a7d3640ea6ccb4c2413664c2db6fd>@@@Z 000000018001b280 f   libucrt:mbctype.obj
 0001:0001a43c       ?getSystemCP@@YAHH@Z       000000018001b43c f   libucrt:mbctype.obj
 0001:0001a4bc       ?setSBCS@@YAXPEAU__crt_multibyte_data@@@Z 000000018001b4bc f   libucrt:mbctype.obj
 0001:0001a54c       ?setSBUpLow@@YAXPEAU__crt_multibyte_data@@@Z 000000018001b54c f   libucrt:mbctype.obj
 0001:0001a730       ?setmbcp_internal@@YAHH_NQEAU__acrt_ptd@@QEAPEAU__crt_multibyte_data@@@Z 000000018001b730 f   libucrt:mbctype.obj
 0001:0001a8f0       ?update_thread_multibyte_data_internal@@YAPEAU__crt_multibyte_data@@QEAU__acrt_ptd@@QEAPEAU1@@Z 000000018001b8f0 f   libucrt:mbctype.obj
 0001:0001ace0       ?x_ismbbtype_l@@YAHPEAU__crt_locale_pointers@@IHH@Z 000000018001bce0 f   libucrt:ismbbyte.obj
 0001:0001b088       ??$?RV<lambda_450d765d439847d4c735a33c368b5fc0>@@AEAV<lambda_44731a7d0e6d81c3e6aa82d741081786>@@V<lambda_601a2a7da3b7a96e9554ac7215c4b07c>@@@?$__crt_seh_guarded_call@P6AXH@Z@@QEAAP6AXH@Z$$QEAV<lambda_450d765d439847d4c735a33c368b5fc0>@@AEAV<lambda_44731a7d0e6d81c3e6aa82d741081786>@@$$QEAV<lambda_601a2a7da3b7a96e9554ac7215c4b07c>@@@Z 000000018001c088 f   libucrt:signal.obj
 0001:0001b3e4       ??$?RV<lambda_842d9ff0dc9ef11c61343bbaebe7f885>@@AEAV<lambda_c5860995281e5c4ce005b3de8f5874ee>@@V<lambda_d90129c13df834fdcbf8d2b88dafcf2d>@@@?$__crt_seh_guarded_call@X@@QEAAX$$QEAV<lambda_842d9ff0dc9ef11c61343bbaebe7f885>@@AEAV<lambda_c5860995281e5c4ce005b3de8f5874ee>@@$$QEAV<lambda_d90129c13df834fdcbf8d2b88dafcf2d>@@@Z 000000018001c3e4 f   libucrt:fflush.obj
 0001:0001b480       ??$?RV<lambda_886d6c58226a84441f68b9f2b8217b83>@@AEAV<lambda_ab61a845afdef5b7c387490eaf3616ee>@@V<lambda_f7f22ab5edc0698d5f6905b0d3f44752>@@@?$__crt_seh_guarded_call@X@@QEAAX$$QEAV<lambda_886d6c58226a84441f68b9f2b8217b83>@@AEAV<lambda_ab61a845afdef5b7c387490eaf3616ee>@@$$QEAV<lambda_f7f22ab5edc0698d5f6905b0d3f44752>@@@Z 000000018001c480 f   libucrt:fflush.obj
 0001:0001b560       ?common_flush_all@@YAH_N@Z 000000018001c560 f   libucrt:fflush.obj
 0001:0001d5b0       memcpy_s                   000000018001e5b0 f   libucrt:cfout.obj
 0001:0001d918       ?free_crt_array_internal@@YAXQEAPEBX_K@Z 000000018001e918 f   libucrt:inittime.obj
 0001:0001e3a4       fallbackMethod             000000018001f3a4 f   libucrt:strpbrk.obj
 0001:0001e75c       $LN78                      000000018001f75c     libucrt:strpbrk.obj
 0001:0001e798       $LN77                      000000018001f798     libucrt:strpbrk.obj
 0001:0001e7d8       $LN76                      000000018001f7d8     libucrt:strpbrk.obj
 0001:0001e8b4       ?__acrt_LCMapStringA_stat@@YAHPEAU__crt_locale_pointers@@PEB_WKPEBDHPEADHHH@Z 000000018001f8b4 f   libucrt:lcmapstringa.obj
 0001:0001ec64       ?initialize_multibyte@@YAHXZ 000000018001fc64 f   libucrt:multibyte_initializer.obj
 0001:0001ec7c       ??$?RV<lambda_a37b2b86f63e897a80ea819b0eb08c01>@@AEAV<lambda_38ce7e780aa69e748d6df282ebc68efe>@@V<lambda_99fb1378e971ab6e7edea83e3a7a83a2>@@@?$__crt_seh_guarded_call@H@@QEAAH$$QEAV<lambda_a37b2b86f63e897a80ea819b0eb08c01>@@AEAV<lambda_38ce7e780aa69e748d6df282ebc68efe>@@$$QEAV<lambda_99fb1378e971ab6e7edea83e3a7a83a2>@@@Z 000000018001fc7c f   libucrt:commit.obj
 0001:0001ed9c       ?write_double_translated_ansi_nolock@@YA?AUwrite_result@?A0x17268360@@HQEBDI@Z 000000018001fd9c f   libucrt:write.obj
 0001:0001f288       ?write_text_ansi_nolock@@YA?AUwrite_result@?A0x17268360@@HQEBDI@Z 0000000180020288 f   libucrt:write.obj
 0001:0001f38c       ?write_text_utf16le_nolock@@YA?AUwrite_result@?A0x17268360@@HQEBDI@Z 000000018002038c f   libucrt:write.obj
 0001:0001f4a8       ?write_text_utf8_nolock@@YA?AUwrite_result@?A0x17268360@@HQEBDI@Z 00000001800204a8 f   libucrt:write.obj
 0001:0001fe00       $$000000                   0000000180020e00     libucrt:log10.obj
 0001:000206cc       ??$common_lseek_nolock@_J@@YA_JH_JH@Z 00000001800216cc f   libucrt:lseek.obj
 0001:0002092c       common_control87           000000018002192c f   libucrt:ieee.obj
 0001:00020bec       _call_matherr              0000000180021bec f   libucrt:libm_error.obj
 0001:00020c54       _exception_enabled         0000000180021c54 f   libucrt:libm_error.obj
 0001:00020ef0       _log_special_common        0000000180021ef0 f   libucrt:log_special.obj
 0001:00020f88       ??$?RV<lambda_751a882b2c74d4b022dec766aa51a29a>@@AEAV<lambda_628dfdc04ba53c8bfc02c9951375f3f5>@@V<lambda_f6c7be5f7998530c34de24c7437d6b54>@@@?$__crt_seh_guarded_call@H@@QEAAH$$QEAV<lambda_751a882b2c74d4b022dec766aa51a29a>@@AEAV<lambda_628dfdc04ba53c8bfc02c9951375f3f5>@@$$QEAV<lambda_f6c7be5f7998530c34de24c7437d6b54>@@@Z 0000000180021f88 f   libucrt:close.obj
 0001:000212b0       $$000000                   00000001800222b0     libucrt:fpsr.obj
 0001:00021950       $$000000                   0000000180022950     LIBCMT:guard_dispatch.obj
 0001:00021970       $$000000                   0000000180022970     LIBCMT:guard_xfg_dispatch.obj
 0001:00021990       ?filt$0@?0??_AtlVerifyStackAvailable@_ATL_SAFE_ALLOCA_IMPL@ATL@@YA_N_K@Z@4HA 0000000180022990 f   LineDisplay.obj
 0001:000219b1       __scrt_is_nonwritable_in_current_image$filt$0 00000001800229b1 f   LIBCMT:utility.obj
 0001:000219c9       ?catch$0@?0???2@YAPEAX_KAEBUnothrow_t@std@@@Z@4HA 00000001800229c9 f   LIBCMT:new_scalar_nothrow.obj
 0001:000219d6       __catch$??2@YAPEAX_KAEBUnothrow_t@std@@@Z$0 00000001800229d6 f   LIBCMT:new_scalar_nothrow.obj
 0001:000219e7       ?fin$0@?0??dllmain_crt_process_attach@@YAHQEAUHINSTANCE__@@QEAX@Z@4HA 00000001800229e7 f   LIBCMT:dll_dllmain.obj
 0001:000219fe       ?fin$0@?0??dllmain_crt_process_detach@@YAH_N@Z@4HA 00000001800229fe f   LIBCMT:dll_dllmain.obj
 0001:00021a17       ?fin$1@?0??dllmain_crt_process_detach@@YAH_N@Z@4HA 0000000180022a17 f   LIBCMT:dll_dllmain.obj
 0001:00021a2b       ?filt$0@?0??dllmain_dispatch@@YAHQEAUHINSTANCE__@@KQEAX@Z@4HA 0000000180022a2b f   LIBCMT:dll_dllmain.obj
 0001:00021a61       ?filt$0@?0???$_CallSETranslator@V__FrameHandler4@@@@YAHPEAUEHExceptionRecord@@PEA_KPEAU_CONTEXT@@PEAU_xDISPATCHER_CONTEXT@@PEAUFuncInfo4@FH4@@K1H@Z@4HA 0000000180022a61 f   libvcruntime:risctrnsctrl.obj
 0001:00021b00       __DestructExceptionObject$filt$0 0000000180022b00 f   libvcruntime:ehhelpers.obj
 0001:00021b96       ?filt$0@?0??CxxCallCatchBlock@__FrameHandler4@@SAPEAXPEAU_EXCEPTION_RECORD@@@Z@4HA 0000000180022b96 f   libvcruntime:frame.obj
 0001:00021bc5       ?fin$1@?0??CxxCallCatchBlock@__FrameHandler4@@SAPEAXPEAU_EXCEPTION_RECORD@@@Z@4HA 0000000180022bc5 f   libvcruntime:frame.obj
 0001:00021c48       ?filt$0@?0??FrameUnwindToState@__FrameHandler4@@SAXPEA_KPEAU_xDISPATCHER_CONTEXT@@PEAUFuncInfo4@FH4@@H@Z@4HA 0000000180022c48 f   libvcruntime:frame.obj
 0001:00021c5e       ?fin$1@?0??FrameUnwindToState@__FrameHandler4@@SAXPEA_KPEAU_xDISPATCHER_CONTEXT@@PEAUFuncInfo4@FH4@@H@Z@4HA 0000000180022c5e f   libvcruntime:frame.obj
 0001:00021c81       ?fin$0@?0???$?RV<lambda_0ae27a3a962d80f24befdcbee591983d>@@AEAV<lambda_8d0ee55de4b1038c4002e0adecdf1839>@@V<lambda_dc504788e8f1664fe9b84e20bfb512f2>@@@?$__crt_seh_guarded_call@X@@QEAAX$$QEAV<lambda_0ae27a3a962d80f24befdcbee591983d>@@AEAV<lambda_8d0ee55de4b1038c4002e0adecdf1839>@@$$QEAV<lambda_dc504788e8f1664fe9b84e20bfb512f2>@@@Z@4HA 0000000180022c81 f   libucrt:per_thread_data.obj
 0001:00021c81       ?fin$0@?0???$?RV<lambda_2d41944a1d46af3157314b8a01080d33>@@AEAV<lambda_8f455de75cd7d7f24b4096f044d8b9e6>@@V<lambda_aa500f224e6afead328df44964fe2772>@@@?$__crt_seh_guarded_call@X@@QEAAX$$QEAV<lambda_2d41944a1d46af3157314b8a01080d33>@@AEAV<lambda_8f455de75cd7d7f24b4096f044d8b9e6>@@$$QEAV<lambda_aa500f224e6afead328df44964fe2772>@@@Z@4HA 0000000180022c81 f   libucrt:per_thread_data.obj
 0001:00021c81       ?fin$0@?0???$?RV<lambda_aa87e3671a710a21b5dc78c0bdf72e11>@@AEAV<lambda_92619d2358a28f41a33ba319515a20b9>@@V<lambda_6992ecaafeb10aed2b74cb1fae11a551>@@@?$__crt_seh_guarded_call@X@@QEAAX$$QEAV<lambda_aa87e3671a710a21b5dc78c0bdf72e11>@@AEAV<lambda_92619d2358a28f41a33ba319515a20b9>@@$$QEAV<lambda_6992ecaafeb10aed2b74cb1fae11a551>@@@Z@4HA 0000000180022c81 f   libucrt:per_thread_data.obj
 0001:00021c81       ?fin$0@?0???$?RV<lambda_f2e299630e499de9f9a165e60fcd3db5>@@AEAV<lambda_2ae9d31cdba2644fcbeaf08da7c24588>@@V<lambda_40d01ff24d0e7b3814fdbdcee8eab3c7>@@@?$__crt_seh_guarded_call@X@@QEAAX$$QEAV<lambda_f2e299630e499de9f9a165e60fcd3db5>@@AEAV<lambda_2ae9d31cdba2644fcbeaf08da7c24588>@@$$QEAV<lambda_40d01ff24d0e7b3814fdbdcee8eab3c7>@@@Z@4HA 0000000180022c81 f   libucrt:per_thread_data.obj
 0001:00021c81       ?fin$0@?0???$?RV<lambda_efdfa57d1f175319df784efa44bb7b81>@@AEAV<lambda_5f0a4c1567f8adc6734073e5d1e1b35c>@@V<lambda_2e8a7d3640ea6ccb4c2413664c2db6fd>@@@?$__crt_seh_guarded_call@X@@QEAAX$$QEAV<lambda_efdfa57d1f175319df784efa44bb7b81>@@AEAV<lambda_5f0a4c1567f8adc6734073e5d1e1b35c>@@$$QEAV<lambda_2e8a7d3640ea6ccb4c2413664c2db6fd>@@@Z@4HA 0000000180022c81 f   libucrt:mbctype.obj
 0001:00021c81       ?fin$0@?0???$?RV<lambda_450d765d439847d4c735a33c368b5fc0>@@AEAV<lambda_44731a7d0e6d81c3e6aa82d741081786>@@V<lambda_601a2a7da3b7a96e9554ac7215c4b07c>@@@?$__crt_seh_guarded_call@P6AXH@Z@@QEAAP6AXH@Z$$QEAV<lambda_450d765d439847d4c735a33c368b5fc0>@@AEAV<lambda_44731a7d0e6d81c3e6aa82d741081786>@@$$QEAV<lambda_601a2a7da3b7a96e9554ac7215c4b07c>@@@Z@4HA 0000000180022c81 f   libucrt:signal.obj
 0001:00021c81       ?fin$0@?0???$?RV<lambda_d80eeec6fff315bfe5c115232f3240e3>@@AEAV<lambda_6e4b09c48022b2350581041d5f6b0c4c>@@V<lambda_2358e3775559c9db80273638284d5e45>@@@?$__crt_seh_guarded_call@X@@QEAAX$$QEAV<lambda_d80eeec6fff315bfe5c115232f3240e3>@@AEAV<lambda_6e4b09c48022b2350581041d5f6b0c4c>@@$$QEAV<lambda_2358e3775559c9db80273638284d5e45>@@@Z@4HA 0000000180022c81 f   libucrt:exit.obj
 0001:00021c81       ?fin$0@?0???$?RV<lambda_638799b9deba96c50f710eeac98168cd>@@AEAV<lambda_22ebabd17bc4fa466a2aca6d8deb888d>@@V<lambda_a6f7d7db0129f75315ebf26d50c089f1>@@@?$__crt_seh_guarded_call@H@@QEAAH$$QEAV<lambda_638799b9deba96c50f710eeac98168cd>@@AEAV<lambda_22ebabd17bc4fa466a2aca6d8deb888d>@@$$QEAV<lambda_a6f7d7db0129f75315ebf26d50c089f1>@@@Z@4HA 0000000180022c81 f   libucrt:onexit.obj
 0001:00021c81       ?fin$0@?0???$?RV<lambda_7777bce6b2f8c936911f934f8298dc43>@@AEAV<lambda_f03950bc5685219e0bcd2087efbe011e>@@V<lambda_3883c3dff614d5e0c5f61bb1ac94921c>@@@?$__crt_seh_guarded_call@H@@QEAAH$$QEAV<lambda_7777bce6b2f8c936911f934f8298dc43>@@AEAV<lambda_f03950bc5685219e0bcd2087efbe011e>@@$$QEAV<lambda_3883c3dff614d5e0c5f61bb1ac94921c>@@@Z@4HA 0000000180022c81 f   libucrt:onexit.obj
 0001:00021c9b       ?filt$0@?0???R<lambda_6e4b09c48022b2350581041d5f6b0c4c>@@QEBA@XZ@4HA 0000000180022c9b f   libucrt:exit.obj
 0001:00021cb6       _query_new_handler$fin$0   0000000180022cb6 f   libucrt:new_handler.obj
 0001:00021ccc       ?fin$0@?0???$?RV<lambda_410d79af7f07d98d83a3f525b3859a53>@@AEAV<lambda_3e16ef9562a7dcce91392c22ab16ea36>@@V<lambda_38119f0e861e05405d8a144b9b982f0a>@@@?$__crt_seh_guarded_call@X@@QEAAX$$QEAV<lambda_410d79af7f07d98d83a3f525b3859a53>@@AEAV<lambda_3e16ef9562a7dcce91392c22ab16ea36>@@$$QEAV<lambda_38119f0e861e05405d8a144b9b982f0a>@@@Z@4HA 0000000180022ccc f   libucrt:wsetlocale.obj
 0001:00021ce6       __acrt_initialize_lowio$fin$0 0000000180022ce6 f   libucrt:ioinit.obj
 0001:00021ce6       __acrt_lowio_ensure_fh_exists$fin$0 0000000180022ce6 f   libucrt:osfinfo.obj
 0001:00021cff       ?fin$0@?0??update_thread_multibyte_data_internal@@YAPEAU__crt_multibyte_data@@QEAU__acrt_ptd@@QEAPEAU1@@Z@4HA 0000000180022cff f   libucrt:mbctype.obj
 0001:00021d18       raise$fin$0                0000000180022d18 f   libucrt:signal.obj
 0001:00021d39       ?fin$0@?0???$?RV<lambda_842d9ff0dc9ef11c61343bbaebe7f885>@@AEAV<lambda_c5860995281e5c4ce005b3de8f5874ee>@@V<lambda_d90129c13df834fdcbf8d2b88dafcf2d>@@@?$__crt_seh_guarded_call@X@@QEAAX$$QEAV<lambda_842d9ff0dc9ef11c61343bbaebe7f885>@@AEAV<lambda_c5860995281e5c4ce005b3de8f5874ee>@@$$QEAV<lambda_d90129c13df834fdcbf8d2b88dafcf2d>@@@Z@4HA 0000000180022d39 f   libucrt:fflush.obj
 0001:00021d54       ?fin$0@?0???$?RV<lambda_886d6c58226a84441f68b9f2b8217b83>@@AEAV<lambda_ab61a845afdef5b7c387490eaf3616ee>@@V<lambda_f7f22ab5edc0698d5f6905b0d3f44752>@@@?$__crt_seh_guarded_call@X@@QEAAX$$QEAV<lambda_886d6c58226a84441f68b9f2b8217b83>@@AEAV<lambda_ab61a845afdef5b7c387490eaf3616ee>@@$$QEAV<lambda_f7f22ab5edc0698d5f6905b0d3f44752>@@@Z@4HA 0000000180022d54 f   libucrt:fflush.obj
 0001:00021d71       __acrt_update_thread_locale_data$fin$0 0000000180022d71 f   libucrt:locale_refcounting.obj
 0001:00021d8a       _fcloseall$fin$0           0000000180022d8a f   libucrt:closeall.obj
 0001:00021da3       ?fin$0@?0???$?RV<lambda_751a882b2c74d4b022dec766aa51a29a>@@AEAV<lambda_628dfdc04ba53c8bfc02c9951375f3f5>@@V<lambda_f6c7be5f7998530c34de24c7437d6b54>@@@?$__crt_seh_guarded_call@H@@QEAAH$$QEAV<lambda_751a882b2c74d4b022dec766aa51a29a>@@AEAV<lambda_628dfdc04ba53c8bfc02c9951375f3f5>@@$$QEAV<lambda_f6c7be5f7998530c34de24c7437d6b54>@@@Z@4HA 0000000180022da3 f   libucrt:close.obj
 0001:00021da3       ?fin$0@?0???$?RV<lambda_a37b2b86f63e897a80ea819b0eb08c01>@@AEAV<lambda_38ce7e780aa69e748d6df282ebc68efe>@@V<lambda_99fb1378e971ab6e7edea83e3a7a83a2>@@@?$__crt_seh_guarded_call@H@@QEAAH$$QEAV<lambda_a37b2b86f63e897a80ea819b0eb08c01>@@AEAV<lambda_38ce7e780aa69e748d6df282ebc68efe>@@$$QEAV<lambda_99fb1378e971ab6e7edea83e3a7a83a2>@@@Z@4HA 0000000180022da3 f   libucrt:commit.obj
 0001:00021dbd       _write$fin$0               0000000180022dbd f   libucrt:write.obj
 0001:00021dd4       fclose$fin$0               0000000180022dd4 f   libucrt:fclose.obj
 0001:00021dec       _ctrlfp$filt$0             0000000180022dec f   libucrt:fpctrl.obj
 0001:00021dec       common_control87$filt$0    0000000180022dec f   libucrt:ieee.obj
 0001:00021e20       _IsNonwritableInCurrentImage$filt$0 0000000180022e20 f   LIBCMT:pesect.obj
 0001:00021e40       ??__F_AtlComModule@ATL@@YAXXZ 0000000180022e40 f   OposVariant.obj
 0001:00021e4c       ??__F_AtlWinModule@ATL@@YAXXZ 0000000180022e4c f   OposVariant.obj
 0001:00021e90       ??__F_Module@@YAXXZ        0000000180022e90 f   LineDisplay.obj
 0001:00021eac       ??__F_AtlBaseModule@ATL@@YAXXZ 0000000180022eac f   atls:atlbase.obj
 0002:00000648       ?_AtlBaseModule$initializer$@ATL@@3P6AXXZEA 0000000180023648     atls:atlbase.obj
 0002:00000650       ?_AtlComModule$initializer$@ATL@@3P6AXXZEA 0000000180023650     OposVariant.obj
 0002:00000658       ?_AtlWinModule$initializer$@ATL@@3P6AXXZEA 0000000180023658     OposVariant.obj
 0002:00000660       ?_Module$initializer$@@3P6AXXZEA 0000000180023660     LineDisplay.obj
 0002:00000668       ??pConnMap$initializer$@?$IConnectionPointContainerImpl@VCOPOSLineDisplay@@@ATL@@0P6AXXZEA@@3P6AXXZEA 0000000180023668     LineDisplay.obj
 0002:00000680       ?__scrt_initialize_tss_var@@3P6AHXZEA 0000000180023680     LIBCMT:thread_safe_statics.obj
 0002:00002a98       GS_ExceptionPointers       0000000180025a98     LIBCMT:gs_report.obj
 0002:00002c80       ?ExceptionTemplate@?1??UnwindNestedFrames@__FrameHandler4@@SAXPEA_KPEAUEHExceptionRecord@@PEAU_CONTEXT@@0PEAXPEAUFuncInfo4@FH4@@HHPEAUHandlerType4@6@PEAU_xDISPATCHER_CONTEXT@@E@Z@4U_EXCEPTION_RECORD@@B 0000000180025c80     libvcruntime:risctrnsctrl.obj
 0002:00002d50       ?tokenTable@@3QBUStringLiteral@@B 0000000180025d50     libvcruntime:undname.obj
 0002:00002e50       ?nameTable@@3QBUStringLiteral@@B 0000000180025e50     libvcruntime:undname.obj
 0002:00003380       ?rttiTable@@3QBUStringLiteral@@B 0000000180026380     libvcruntime:undname.obj
 0002:000033d0       ?IndirectionName@@3QBUStringLiteral@@B 00000001800263d0     libvcruntime:undname.obj
 0002:00003430       ?PrefixName@@3QBUStringLiteral@@B 0000000180026430     libvcruntime:undname.obj
 0002:00003b08       ?module_names@?A0x5302d918@@3QBQEB_WB 0000000180026b08     libvcruntime:winapi_downlevel.obj
 0002:00003bc8       ?candidate_modules@?1??try_get_FlsAlloc@@YAP6AKP6AXPEAX@Z@ZXZ@4QBW4module_id@?A0x5302d918@@B 0000000180026bc8     libvcruntime:winapi_downlevel.obj
 0002:00003be0       ?candidate_modules@?1??try_get_FlsFree@@YAP6AHK@ZXZ@4QBW4module_id@?A0x5302d918@@B 0000000180026be0     libvcruntime:winapi_downlevel.obj
 0002:00003bf0       ?candidate_modules@?1??try_get_FlsGetValue@@YAP6APEAXK@ZXZ@4QBW4module_id@?A0x5302d918@@B 0000000180026bf0     libvcruntime:winapi_downlevel.obj
 0002:00003c08       ?candidate_modules@?1??try_get_FlsSetValue@@YAP6AHKPEAX@ZXZ@4QBW4module_id@?A0x5302d918@@B 0000000180026c08     libvcruntime:winapi_downlevel.obj
 0002:00003c20       ?candidate_modules@?1??try_get_InitializeCriticalSectionEx@@YAP6AHPEAU_RTL_CRITICAL_SECTION@@KK@ZXZ@4QBW4module_id@?A0x5302d918@@B 0000000180026c20     libvcruntime:winapi_downlevel.obj
 0002:00003c50       ?errtable@@3QBUerrentry@?A0x31fdb9ec@@B 0000000180026c50     libucrt:errno.obj
 0002:000042e0       __acrt_initializers        00000001800272e0     libucrt:initialization.obj
 0002:000043e0       ?module_names@?A0x391cf84c@@3QBQEB_WB 00000001800273e0     libucrt:winapi_thunks.obj
 0002:000048e8       ?candidate_modules@?1??try_get_AreFileApisANSI@@YAP6AHXZXZ@4QBW4module_id@?A0x391cf84c@@B 00000001800278e8     libucrt:winapi_thunks.obj
 0002:00004900       ?candidate_modules@?1??try_get_FlsAlloc@@YAP6AKP6AXPEAX@Z@ZXZ@4QBW4module_id@?A0x391cf84c@@B 0000000180027900     libucrt:winapi_thunks.obj
 0002:00004908       ?candidate_modules@?1??try_get_FlsFree@@YAP6AHK@ZXZ@4QBW4module_id@?A0x391cf84c@@B 0000000180027908     libucrt:winapi_thunks.obj
 0002:00004910       ?candidate_modules@?1??try_get_FlsGetValue@@YAP6APEAXK@ZXZ@4QBW4module_id@?A0x391cf84c@@B 0000000180027910     libucrt:winapi_thunks.obj
 0002:00004918       ?candidate_modules@?1??try_get_FlsSetValue@@YAP6AHKPEAX@ZXZ@4QBW4module_id@?A0x391cf84c@@B 0000000180027918     libucrt:winapi_thunks.obj
 0002:00004920       ?candidate_modules@?1??try_get_InitializeCriticalSectionEx@@YAP6AHPEAU_RTL_CRITICAL_SECTION@@KK@ZXZ@4QBW4module_id@?A0x391cf84c@@B 0000000180027920     libucrt:winapi_thunks.obj
 0002:00004928       ?candidate_modules@?1??try_get_LCMapStringEx@@YAP6AHPEB_WK0HPEA_WHPEAU_nlsversioninfo@@PEAX_J@ZXZ@4QBW4module_id@?A0x391cf84c@@B 0000000180027928     libucrt:winapi_thunks.obj
 0002:00004940       ?candidate_modules@?1??try_get_LocaleNameToLCID@@YAP6AKPEB_WK@ZXZ@4QBW4module_id@?A0x391cf84c@@B 0000000180027940     libucrt:winapi_thunks.obj
 0002:0000495c       ?candidate_modules@?1??try_get_AppPolicyGetProcessTerminationMethod@@YAP6AJPEAXPEAW4AppPolicyProcessTerminationMethod@@@ZXZ@4QBW4module_id@?A0x391cf84c@@B 000000018002795c     libucrt:winapi_thunks.obj
 0002:00004988       ?candidate_modules@?1??try_get_SetThreadStackGuarantee@@YAP6AHPEAK@ZXZ@4QBW4module_id@?A0x391cf84c@@B 0000000180027988     libucrt:winapi_thunks.obj
 0002:000049b0       ?strings@?1??fp_format_nan_or_infinity@@YAHW4__acrt_fp_class@@_NPEAD_K1@Z@4QAY03QEBDA 00000001800279b0     libucrt:cvt.obj
 0002:00005110       ?_mb_locale_names@@3QBQEB_WB 0000000180028110     libucrt:mbctype.obj
 0002:00005980       ?LcidToLocaleNameTable@?A0x881e4c05@@3QBULcidToLocaleName@1@B 0000000180028980     libucrt:lcidtoname_downlevel.obj
 0002:000073e0       ?LocaleNameToIndexTable@?A0x881e4c05@@3QBULocaleNameIndex@1@B 000000018002a3e0     libucrt:lcidtoname_downlevel.obj
 0002:00009680       __real_ninf                000000018002c680     libucrt:log10.obj
 0002:00009690       __real_inf                 000000018002c690     libucrt:log10.obj
 0002:000096a0       __real_neg_qnan            000000018002c6a0     libucrt:log10.obj
 0002:000096b0       __real_qnanbit             000000018002c6b0     libucrt:log10.obj
 0002:000096c0       __int_1023                 000000018002c6c0     libucrt:log10.obj
 0002:000096d0       __mask_001                 000000018002c6d0     libucrt:log10.obj
 0002:000096e0       __mask_mant                000000018002c6e0     libucrt:log10.obj
 0002:000096f0       __mask_mant_top8           000000018002c6f0     libucrt:log10.obj
 0002:00009700       __mask_mant9               000000018002c700     libucrt:log10.obj
 0002:00009710       __real_log10_e             000000018002c710     libucrt:log10.obj
 0002:00009720       __real_log10_e_lead        000000018002c720     libucrt:log10.obj
 0002:00009730       __real_log10_e_tail        000000018002c730     libucrt:log10.obj
 0002:00009740       __real_log10_2_lead        000000018002c740     libucrt:log10.obj
 0002:00009750       __real_log10_2_tail        000000018002c750     libucrt:log10.obj
 0002:00009760       __real_two                 000000018002c760     libucrt:log10.obj
 0002:00009770       __real_one                 000000018002c770     libucrt:log10.obj
 0002:00009780       __real_half                000000018002c780     libucrt:log10.obj
 0002:00009790       __mask_100                 000000018002c790     libucrt:log10.obj
 0002:000097a0       __real_1_over_512          000000018002c7a0     libucrt:log10.obj
 0002:000097b0       __real_1_over_2            000000018002c7b0     libucrt:log10.obj
 0002:000097c0       __real_1_over_3            000000018002c7c0     libucrt:log10.obj
 0002:000097d0       __real_1_over_4            000000018002c7d0     libucrt:log10.obj
 0002:000097e0       __real_1_over_5            000000018002c7e0     libucrt:log10.obj
 0002:000097f0       __real_1_over_6            000000018002c7f0     libucrt:log10.obj
 0002:00009800       __real_neg_1023            000000018002c800     libucrt:log10.obj
 0002:00009810       __mask_2045                000000018002c810     libucrt:log10.obj
 0002:00009820       __real_threshold           000000018002c820     libucrt:log10.obj
 0002:00009830       __real_near_one_lt         000000018002c830     libucrt:log10.obj
 0002:00009840       __real_near_one_gt         000000018002c840     libucrt:log10.obj
 0002:00009850       __real_min_norm            000000018002c850     libucrt:log10.obj
 0002:00009860       __real_notsign             000000018002c860     libucrt:log10.obj
 0002:00009870       __real_ca1                 000000018002c870     libucrt:log10.obj
 0002:00009880       __real_ca2                 000000018002c880     libucrt:log10.obj
 0002:00009890       __real_ca3                 000000018002c890     libucrt:log10.obj
 0002:000098a0       __real_ca4                 000000018002c8a0     libucrt:log10.obj
 0002:000098b0       __mask_lower               000000018002c8b0     libucrt:log10.obj
 0002:000098c0       __flag_x_zero              000000018002c8c0     libucrt:log10.obj
 0002:000098c4       __flag_x_neg               000000018002c8c4     libucrt:log10.obj
 0002:000098c8       __flag_x_nan               000000018002c8c8     libucrt:log10.obj
 0002:0000b120       __real@433fffffffffffff    000000018002e120     libucrt:fpsr.obj
 0002:0000b128       __real@c33fffffffffffff    000000018002e128     libucrt:fpsr.obj
 0002:0000b998       $unwind$?cw_memcpy@@YAHPEA_WPEBDH@Z 000000018002e998     CWString.obj
 0002:0000b998       $unwind$?ProcessWindowMessage@?$CComControl@VCOPOSLineDisplay@@V?$CWindowImpl@VCOPOSLineDisplay@@VCWindow@ATL@@V?$CWinTraits@$0FGAAAAAA@$0A@@3@@ATL@@@ATL@@UEAAHPEAUHWND__@@I_K_JAEA_JK@Z 000000018002e998     LineDisplay.obj
 0002:0000b998       $unwind$wcstol             000000018002e998     libucrt:strtox.obj
 0002:0000b998       $unwind$_invalid_parameter_noinfo 000000018002e998     libucrt:invalid_parameter.obj
 0002:0000b998       $unwind$_log10_special     000000018002e998     libucrt:log_special.obj
 0002:0000b9a0       $unwind$?cw_strcpy@@YAHPEA_WPEBD@Z 000000018002e9a0     CWString.obj
 0002:0000b9a0       $unwind$??__E?pConnMap@?$IConnectionPointContainerImpl@VCOPOSLineDisplay@@@ATL@@0PEBU_ATL_CONNMAP_ENTRY@2@EB@@YAXXZ 000000018002e9a0     LineDisplay.obj
 0002:0000b9a0       $unwind$?AddReplacement@CRegObject@ATL@@UEAAJPEB_W0@Z 000000018002e9a0     LineDisplay.obj
 0002:0000b9a0       $unwind$?AtlHresultFromLastError@ATL@@YAJXZ 000000018002e9a0     LineDisplay.obj
 0002:0000b9a0       $unwind$?AtlThrowImpl@ATL@@YAXJ@Z 000000018002e9a0     LineDisplay.obj
 0002:0000b9a0       $unwind$?CreateInstance@CComClassFactory@ATL@@UEAAJPEAUIUnknown@@AEBU_GUID@@PEAPEAX@Z 000000018002e9a0     LineDisplay.obj
 0002:0000b9a0       $unwind$?DefaultReflectionHandler@?$CWindowImplRoot@VCWindow@ATL@@@ATL@@SAHPEAUHWND__@@I_K_JAEA_J@Z 000000018002e9a0     LineDisplay.obj
 0002:0000b9a0       $unwind$?EnumAdvise@?$IOleObjectImpl@VCOPOSLineDisplay@@@ATL@@UEAAJPEAPEAUIEnumSTATDATA@@@Z 000000018002e9a0     LineDisplay.obj
 0002:0000b9a0       $unwind$?FireViewChange@CComControlBase@ATL@@QEAAJXZ 000000018002e9a0     LineDisplay.obj
 0002:0000b9a0       $unwind$?GetAdvise@?$IViewObjectExImpl@VCOPOSLineDisplay@@@ATL@@UEAAJPEAK0PEAPEAUIAdviseSink@@@Z 000000018002e9a0     LineDisplay.obj
 0002:0000b9a0       $unwind$?LockServer@CComClassFactory@ATL@@UEAAJH@Z 000000018002e9a0     LineDisplay.obj
 0002:0000b9a0       $unwind$?OnDocWindowActivate@?$IOleInPlaceActiveObjectImpl@VCOPOSLineDisplay@@@ATL@@UEAAJH@Z 000000018002e9a0     LineDisplay.obj
 0002:0000b9a0       $unwind$?Unadvise@?$IOleObjectImpl@VCOPOSLineDisplay@@@ATL@@UEAAJK@Z 000000018002e9a0     LineDisplay.obj
 0002:0000b9a0       $unwind$?_LocCPQueryInterface@?$IConnectionPointImpl@VCOPOSLineDisplay@@$1?DIID__IOPOSLineDisplayEvents@@3U_GUID@@BVCComDynamicUnkArray@ATL@@@ATL@@UEAAJAEBU_GUID@@PEAPEAX@Z 000000018002e9a0     LineDisplay.obj
 0002:0000b9a0       $unwind$?_LocCPQueryInterface@?$IConnectionPointImpl@VCOPOSLineDisplay@@$1?IID_IPropertyNotifySink@@3U_GUID@@BVCComDynamicUnkArray@ATL@@@ATL@@UEAAJAEBU_GUID@@PEAPEAX@Z 000000018002e9a0     LineDisplay.obj
 0002:0000b9a0       $unwind$?FinalConstruct@COPOSLineDisplay@@QEAAJXZ 000000018002e9a0     LineDisplayImpl.obj
 0002:0000b9a0       $unwind$?get_ResultCode@COPOSLineDisplay@@UEAAJPEAJ@Z 000000018002e9a0     LineDisplayImpl.obj
 0002:0000b9a0       $unwind$?get_State@COPOSLineDisplay@@UEAAJPEAJ@Z 000000018002e9a0     LineDisplayImpl.obj
 0002:0000b9a0       $unwind$??1OposDispParms@@QEAA@XZ 000000018002e9a0     OposVariant.obj
 0002:0000b9a0       $unwind$??__E_AtlComModule@ATL@@YAXXZ 000000018002e9a0     OposVariant.obj
 0002:0000b9a0       $unwind$??__E_AtlWinModule@ATL@@YAXXZ 000000018002e9a0     OposVariant.obj
 0002:0000b9a0       $unwind$??__F_AtlWinModule@ATL@@YAXXZ 000000018002e9a0     OposVariant.obj
 0002:0000b9a0       $unwind$?GetLONG@OposVariant@@QEAAJXZ 000000018002e9a0     OposVariant.obj
 0002:0000b9a0       $unwind$??__E_AtlBaseModule@ATL@@YAXXZ 000000018002e9a0     atls:atlbase.obj
 0002:0000b9a0       $unwind$__scrt_initialize_default_local_stdio_options 000000018002e9a0     LIBCMT:default_local_stdio_options.obj
 0002:0000b9a0       $unwind$?dllmain_crt_dispatch@@YAHQEAUHINSTANCE__@@KQEAX@Z 000000018002e9a0     LIBCMT:dll_dllmain.obj
 0002:0000b9a0       $unwind$__report_rangecheckfailure 000000018002e9a0     LIBCMT:gs_report.obj
 0002:0000b9a0       $unwind$__GSHandlerCheck   000000018002e9a0     LIBCMT:gshandler.obj
 0002:0000b9a0       $unwind$?__scrt_uninitialize_thread_safe_statics@@YAXXZ 000000018002e9a0     LIBCMT:thread_safe_statics.obj
 0002:0000b9a0       $unwind$_Init_thread_notify 000000018002e9a0     LIBCMT:thread_safe_statics.obj
 0002:0000b9a0       $unwind$__scrt_acquire_startup_lock 000000018002e9a0     LIBCMT:utility.obj
 0002:0000b9a0       $unwind$__scrt_dllmain_after_initialize_c 000000018002e9a0     LIBCMT:utility.obj
 0002:0000b9a0       $unwind$__scrt_dllmain_before_initialize_c 000000018002e9a0     LIBCMT:utility.obj
 0002:0000b9a0       $unwind$__scrt_dllmain_crt_thread_attach 000000018002e9a0     LIBCMT:utility.obj
 0002:0000b9a0       $unwind$__scrt_dllmain_crt_thread_detach 000000018002e9a0     LIBCMT:utility.obj
 0002:0000b9a0       $unwind$__scrt_dllmain_uninitialize_c 000000018002e9a0     LIBCMT:utility.obj
 0002:0000b9a0       $unwind$__scrt_dllmain_uninitialize_critical 000000018002e9a0     LIBCMT:utility.obj
 0002:0000b9a0       $unwind$atexit             000000018002e9a0     LIBCMT:utility.obj
 0002:0000b9a0       $unwind$__vcrt_initialize  000000018002e9a0     libvcruntime:initialization.obj
 0002:0000b9a0       $unwind$__vcrt_thread_attach 000000018002e9a0     libvcruntime:initialization.obj
 0002:0000b9a0       $unwind$__vcrt_thread_detach 000000018002e9a0     libvcruntime:initialization.obj
 0002:0000b9a0       $unwind$__vcrt_uninitialize 000000018002e9a0     libvcruntime:initialization.obj
 0002:0000b9a0       $unwind$__vcrt_uninitialize_critical 000000018002e9a0     libvcruntime:initialization.obj
 0002:0000b9a0       $unwind$__vcrt_initialize_locks 000000018002e9a0     libvcruntime:locks.obj
 0002:0000b9a0       $unwind$__vcrt_freefls     000000018002e9a0     libvcruntime:per_thread_data.obj
 0002:0000b9a0       $unwind$__vcrt_getptd      000000018002e9a0     libvcruntime:per_thread_data.obj
 0002:0000b9a0       $unwind$__vcrt_initialize_ptd 000000018002e9a0     libvcruntime:per_thread_data.obj
 0002:0000b9a0       $unwind$__vcrt_uninitialize_ptd 000000018002e9a0     libvcruntime:per_thread_data.obj
 0002:0000b9a0       $unwind$_purecall          000000018002e9a0     libvcruntime:purevirt.obj
 0002:0000b9a0       $unwind$?FrameUnwindToEmptyState@__FrameHandler4@@SAXPEA_KPEAU_xDISPATCHER_CONTEXT@@PEAUFuncInfo4@FH4@@@Z 000000018002e9a0     libvcruntime:risctrnsctrl.obj
 0002:0000b9a0       $unwind$_GetImageBase      000000018002e9a0     libvcruntime:risctrnsctrl.obj
 0002:0000b9a0       $unwind$_GetThrowImageBase 000000018002e9a0     libvcruntime:risctrnsctrl.obj
 0002:0000b9a0       $unwind$__dcrt_terminate_console_output 000000018002e9a0     libucrt:initcon.obj
 0002:0000b9a0       $unwind$??$uninitialize_environment_internal@D@@YAXAEAPEAPEAD@Z 000000018002e9a0     libucrt:environment_initialization.obj
 0002:0000b9a0       $unwind$??$uninitialize_environment_internal@_W@@YAXAEAPEAPEA_W@Z 000000018002e9a0     libucrt:environment_initialization.obj
 0002:0000b9a0       $unwind$__dcrt_uninitialize_environments_nolock 000000018002e9a0     libucrt:environment_initialization.obj
 0002:0000b9a0       $unwind$__acrt_initialize_heap 000000018002e9a0     libucrt:heap_handle.obj
 0002:0000b9a0       $unwind$_msize_base        000000018002e9a0     libucrt:msize.obj
 0002:0000b9a0       $unwind$?initialize_multibyte@@YAHXZ 000000018002e9a0     libucrt:multibyte_initializer.obj
 0002:0000b9a0       $unwind$__acrt_thread_attach 000000018002e9a0     libucrt:initialization.obj
 0002:0000b9a0       $unwind$__acrt_thread_detach 000000018002e9a0     libucrt:initialization.obj
 0002:0000b9a0       $unwind$__acrt_uninitialize 000000018002e9a0     libucrt:initialization.obj
 0002:0000b9a0       $unwind$__acrt_uninitialize_critical 000000018002e9a0     libucrt:initialization.obj
 0002:0000b9a0       $unwind$initialize_c       000000018002e9a0     libucrt:initialization.obj
 0002:0000b9a0       $unwind$uninitialize_allocated_io_buffers 000000018002e9a0     libucrt:initialization.obj
 0002:0000b9a0       $unwind$uninitialize_environment 000000018002e9a0     libucrt:initialization.obj
 0002:0000b9a0       $unwind$__acrt_initialize_ptd 000000018002e9a0     libucrt:per_thread_data.obj
 0002:0000b9a0       $unwind$__acrt_uninitialize_ptd 000000018002e9a0     libucrt:per_thread_data.obj
 0002:0000b9a0       $unwind$__acrt_AreFileApisANSI 000000018002e9a0     libucrt:winapi_thunks.obj
 0002:0000b9a0       $unwind$__pctype_func      000000018002e9a0     libucrt:ctype.obj
 0002:0000b9a0       $unwind$__acrt_release_locale_ref 000000018002e9a0     libucrt:locale_refcounting.obj
 0002:0000b9a0       $unwind$_isatty            000000018002e9a0     libucrt:isatty.obj
 0002:0000b9a0       $unwind$_get_osfhandle     000000018002e9a0     libucrt:osfinfo.obj
 0002:0000b9a0       $unwind$__acrt_initialize_multibyte 000000018002e9a0     libucrt:mbctype.obj
 0002:0000b9a0       $unwind$__acrt_update_thread_multibyte_data 000000018002e9a0     libucrt:mbctype.obj
 0002:0000b9a0       $unwind$__doserrno         000000018002e9a0     libucrt:errno.obj
 0002:0000b9a0       $unwind$_errno             000000018002e9a0     libucrt:errno.obj
 0002:0000b9a0       $unwind$_invoke_watson     000000018002e9a0     libucrt:invalid_parameter.obj
 0002:0000b9a0       $unwind$abort              000000018002e9a0     libucrt:abort.obj
 0002:0000b9a0       $unwind$__acrt_initialize_command_line 000000018002e9a0     libucrt:argv_data.obj
 0002:0000b9a0       $unwind$_fileno            000000018002e9a0     libucrt:fileno.obj
 0002:0000b9a0       $unwind$?state_case_size@?$output_processor@_WV?$string_output_adapter@_W@__crt_stdio_output@@V?$format_validation_base@_WV?$string_output_adapter@_W@__crt_stdio_output@@@2@@__crt_stdio_output@@AEAA_NXZ 000000018002e9a0     libucrt:output.obj
 0002:0000b9a0       $unwind$_statfp            000000018002e9a0     libucrt:fpctrl.obj
 0002:0000b9a0       $unwind$fegetround         000000018002e9a0     libucrt:fegetround.obj
 0002:0000b9a0       $unwind$_set_errno_from_matherr 000000018002e9a0     libucrt:fpexcept.obj
 0002:0000b9a8       $unwind$?cw_dup@@YAXPEBDAEAHAEAPEA_W1@Z 000000018002e9a8     CWString.obj
 0002:0000b9a8       $unwind$?DAdvise@?$IDataObjectImpl@VCOPOSLineDisplay@@@ATL@@UEAAJPEAUtagFORMATETC@@KPEAUIAdviseSink@@PEAK@Z 000000018002e9a8     LineDisplay.obj
 0002:0000b9a8       $unwind$??$__acrt_mbs_to_wcs_cp@U__crt_win32_buffer_internal_dynamic_resizing@@@@YAHQEBDAEAV?$__crt_win32_buffer@_WU__crt_win32_buffer_internal_dynamic_resizing@@@@I@Z 000000018002e9a8     libucrt:argv_wildcards.obj
 0002:0000b9c0       $unwind$?DupWide@_CW@@AEAAXXZ 000000018002e9c0     CWString.obj
 0002:0000b9c0       $unwind$??0?$CComObject@VCOPOSLineDisplay@@@ATL@@QEAA@PEAX@Z 000000018002e9c0     LineDisplay.obj
 0002:0000b9c0       $unwind$??0CAtlModule@ATL@@QEAA@XZ 000000018002e9c0     LineDisplay.obj
 0002:0000b9c0       $unwind$??1?$CComObject@VCOPOSLineDisplay@@@ATL@@UEAA@XZ 000000018002e9c0     LineDisplay.obj
 0002:0000b9c0       $unwind$??__E_Module@@YAXXZ 000000018002e9c0     LineDisplay.obj
 0002:0000b9c0       $unwind$?AddRef@?$CComObjectCached@VCComClassFactory@ATL@@@ATL@@UEAAKXZ 000000018002e9c0     LineDisplay.obj
 0002:0000b9c0       $unwind$?AllocateHeap@?$CTempBuffer@E$0BAA@VCCRTAllocator@ATL@@@ATL@@AEAAX_K@Z 000000018002e9c0     LineDisplay.obj
 0002:0000b9c0       $unwind$?AllocateHeap@?$CTempBuffer@_W$0BAA@VCCRTAllocator@ATL@@@ATL@@AEAAX_K@Z 000000018002e9c0     LineDisplay.obj
 0002:0000b9c0       $unwind$?AllocateHeap@?$CTempBuffer@_W$0EAA@VCCRTAllocator@ATL@@@ATL@@AEAAX_K@Z 000000018002e9c0     LineDisplay.obj
 0002:0000b9c0       $unwind$?GetClassInfoW@?$IProvideClassInfo2Impl@$1?CLSID_OPOSLineDisplay@@3U_GUID@@B$1?DIID__IOPOSLineDisplayEvents@@3U2@B$1?LIBID_OposLineDisplay_CCO@@3U2@B$00$0A@VCComTypeInfoHolder@ATL@@@ATL@@UEAAJPEAPEAUITypeInfo@@@Z 000000018002e9c0     LineDisplay.obj
 0002:0000b9c0       $unwind$?GetClientSite@?$IOleObjectImpl@VCOPOSLineDisplay@@@ATL@@UEAAJPEAPEAUIOleClientSite@@@Z 000000018002e9c0     LineDisplay.obj
 0002:0000b9c0       $unwind$?GetConnMap@COPOSLineDisplay@@SAPEBU_ATL_CONNMAP_ENTRY@ATL@@PEAH@Z 000000018002e9c0     LineDisplay.obj
 0002:0000b9c0       $unwind$?GetTypeInfo@?$IDispatchImpl@UIOPOSLineDisplay@@$1?IID_IOPOSLineDisplay@@3U_GUID@@B$1?LIBID_OposLineDisplay_CCO@@3U3@B$00$0A@VCComTypeInfoHolder@ATL@@@ATL@@UEAAJIKPEAPEAUITypeInfo@@@Z 000000018002e9c0     LineDisplay.obj
 0002:0000b9c0       $unwind$?IOleInPlaceObject_InPlaceDeactivate@CComControlBase@ATL@@QEAAJXZ 000000018002e9c0     LineDisplay.obj
 0002:0000b9c0       $unwind$?IOleObject_SetExtent@CComControlBase@ATL@@QEAAJKPEAUtagSIZE@@@Z 000000018002e9c0     LineDisplay.obj
 0002:0000b9c0       $unwind$?IsEqualObject@?$CComPtrBase@UIOleClientSite@@@ATL@@QEAA_NPEAUIUnknown@@@Z 000000018002e9c0     LineDisplay.obj
 0002:0000b9c0       $unwind$?QueryHitPoint@?$IViewObjectExImpl@VCOPOSLineDisplay@@@ATL@@UEAAJKPEBUtagRECT@@UtagPOINT@@JPEAK@Z 000000018002e9c0     LineDisplay.obj
 0002:0000b9c0       $unwind$?QueryInterface@?$CComAggObject@VCOPOSLineDisplay@@@ATL@@UEAAJAEBU_GUID@@PEAPEAX@Z 000000018002e9c0     LineDisplay.obj
 0002:0000b9c0       $unwind$?Release@?$CComObjectCached@VCComClassFactory@ATL@@@ATL@@UEAAKXZ 000000018002e9c0     LineDisplay.obj
 0002:0000b9c0       $unwind$?Unadvise@?$IConnectionPointImpl@VCOPOSLineDisplay@@$1?DIID__IOPOSLineDisplayEvents@@3U_GUID@@BVCComDynamicUnkArray@ATL@@@ATL@@UEAAJK@Z 000000018002e9c0     LineDisplay.obj
 0002:0000b9c0       $unwind$?Unadvise@?$IConnectionPointImpl@VCOPOSLineDisplay@@$1?IID_IPropertyNotifySink@@3U_GUID@@BVCComDynamicUnkArray@ATL@@@ATL@@UEAAJK@Z 000000018002e9c0     LineDisplay.obj
 0002:0000b9c0       $unwind$??1CComControlBase@ATL@@UEAA@XZ 000000018002e9c0     LineDisplayImpl.obj
 0002:0000b9c0       $unwind$??1COPOSLineDisplay@@UEAA@XZ 000000018002e9c0     LineDisplayImpl.obj
 0002:0000b9c0       $unwind$?EventUninit@COPOSLineDisplay@@IEAAXXZ 000000018002e9c0     LineDisplayImpl.obj
 0002:0000b9c0       $unwind$?FreezeEvents@COPOSLineDisplay@@MEAAJH@Z 000000018002e9c0     LineDisplayImpl.obj
 0002:0000b9c0       $unwind$?SOProcessID@COPOSLineDisplay@@UEAAJPEAJ@Z 000000018002e9c0     LineDisplayImpl.obj
 0002:0000b9c0       $unwind$?get_CapBitmap@COPOSLineDisplay@@UEAAJPEAF@Z 000000018002e9c0     LineDisplayImpl.obj
 0002:0000b9c0       $unwind$?get_CapBlinkRate@COPOSLineDisplay@@UEAAJPEAF@Z 000000018002e9c0     LineDisplayImpl.obj
 0002:0000b9c0       $unwind$?get_CapBrightness@COPOSLineDisplay@@UEAAJPEAF@Z 000000018002e9c0     LineDisplayImpl.obj
 0002:0000b9c0       $unwind$?get_CapCompareFirmwareVersion@COPOSLineDisplay@@UEAAJPEAF@Z 000000018002e9c0     LineDisplayImpl.obj
 0002:0000b9c0       $unwind$?get_CapCustomGlyph@COPOSLineDisplay@@UEAAJPEAF@Z 000000018002e9c0     LineDisplayImpl.obj
 0002:0000b9c0       $unwind$?get_CapDescriptors@COPOSLineDisplay@@UEAAJPEAF@Z 000000018002e9c0     LineDisplayImpl.obj
 0002:0000b9c0       $unwind$?get_CapHMarquee@COPOSLineDisplay@@UEAAJPEAF@Z 000000018002e9c0     LineDisplayImpl.obj
 0002:0000b9c0       $unwind$?get_CapICharWait@COPOSLineDisplay@@UEAAJPEAF@Z 000000018002e9c0     LineDisplayImpl.obj
 0002:0000b9c0       $unwind$?get_CapMapCharacterSet@COPOSLineDisplay@@UEAAJPEAF@Z 000000018002e9c0     LineDisplayImpl.obj
 0002:0000b9c0       $unwind$?get_CapScreenMode@COPOSLineDisplay@@UEAAJPEAF@Z 000000018002e9c0     LineDisplayImpl.obj
 0002:0000b9c0       $unwind$?get_CapStatisticsReporting@COPOSLineDisplay@@UEAAJPEAF@Z 000000018002e9c0     LineDisplayImpl.obj
 0002:0000b9c0       $unwind$?get_CapUpdateFirmware@COPOSLineDisplay@@UEAAJPEAF@Z 000000018002e9c0     LineDisplayImpl.obj
 0002:0000b9c0       $unwind$?get_CapUpdateStatistics@COPOSLineDisplay@@UEAAJPEAF@Z 000000018002e9c0     LineDisplayImpl.obj
 0002:0000b9c0       $unwind$?get_CapVMarquee@COPOSLineDisplay@@UEAAJPEAF@Z 000000018002e9c0     LineDisplayImpl.obj
 0002:0000b9c0       $unwind$?get_Claimed@COPOSLineDisplay@@UEAAJPEAF@Z 000000018002e9c0     LineDisplayImpl.obj
 0002:0000b9c0       $unwind$?get_CursorUpdate@COPOSLineDisplay@@UEAAJPEAF@Z 000000018002e9c0     LineDisplayImpl.obj
 0002:0000b9c0       $unwind$?get_DeviceEnabled@COPOSLineDisplay@@UEAAJPEAF@Z 000000018002e9c0     LineDisplayImpl.obj
 0002:0000b9c0       $unwind$?get_FreezeEvents@COPOSLineDisplay@@UEAAJPEAF@Z 000000018002e9c0     LineDisplayImpl.obj
 0002:0000b9c0       $unwind$?get_MapCharacterSet@COPOSLineDisplay@@UEAAJPEAF@Z 000000018002e9c0     LineDisplayImpl.obj
 0002:0000b9c0       $unwind$?put_FreezeEvents@COPOSLineDisplay@@UEAAJF@Z 000000018002e9c0     LineDisplayImpl.obj
 0002:0000b9c0       $unwind$??0CAtlComModule@ATL@@QEAA@XZ 000000018002e9c0     OposVariant.obj
 0002:0000b9c0       $unwind$??0CAtlWinModule@ATL@@QEAA@XZ 000000018002e9c0     OposVariant.obj
 0002:0000b9c0       $unwind$??1CAtlBaseModule@ATL@@QEAA@XZ 000000018002e9c0     atls:atlbase.obj
 0002:0000b9c0       $unwind$AtlThunk_AllocateData 000000018002e9c0     atls:atlthunk.obj
 0002:0000b9c0       $unwind$__raise_securityfailure 000000018002e9c0     LIBCMT:gs_report.obj
 0002:0000b9c0       $unwind$??2@YAPEAX_K@Z     000000018002e9c0     LIBCMT:new_scalar.obj
 0002:0000b9c0       $unwind$??_Gtype_info@@UEAAPEAXI@Z 000000018002e9c0     LIBCMT:std_type_info_static.obj
 0002:0000b9c0       $unwind$_Init_thread_footer 000000018002e9c0     LIBCMT:thread_safe_statics.obj
 0002:0000b9c0       $unwind$_Init_thread_header 000000018002e9c0     LIBCMT:thread_safe_statics.obj
 0002:0000b9c0       $unwind$_Init_thread_wait  000000018002e9c0     LIBCMT:thread_safe_statics.obj
 0002:0000b9c0       $unwind$??0bad_alloc@std@@QEAA@AEBV01@@Z 000000018002e9c0     LIBCMT:throw_bad_alloc.obj
 0002:0000b9c0       $unwind$??0bad_array_new_length@std@@QEAA@AEBV01@@Z 000000018002e9c0     LIBCMT:throw_bad_alloc.obj
 0002:0000b9c0       $unwind$??0exception@std@@QEAA@AEBV01@@Z 000000018002e9c0     LIBCMT:throw_bad_alloc.obj
 0002:0000b9c0       $unwind$__scrt_initialize_crt 000000018002e9c0     LIBCMT:utility.obj
 0002:0000b9c0       $unwind$__scrt_initialize_onexit_tables 000000018002e9c0     LIBCMT:utility.obj
 0002:0000b9c0       $unwind$__scrt_release_startup_lock 000000018002e9c0     LIBCMT:utility.obj
 0002:0000b9c0       $unwind$__scrt_uninitialize_crt 000000018002e9c0     LIBCMT:utility.obj
 0002:0000b9c0       $unwind$_onexit            000000018002e9c0     LIBCMT:utility.obj
 0002:0000b9c0       $unwind$_IsExceptionObjectToBeDestroyed 000000018002e9c0     libvcruntime:ehhelpers.obj
 0002:0000b9c0       $unwind$??0HandlerMap4@FH4@@QEAA@PEBUTryBlockMapEntry4@1@_KH@Z 000000018002e9c0     libvcruntime:frame.obj
 0002:0000b9c0       $unwind$??0bad_exception@std@@QEAA@AEBV01@@Z 000000018002e9c0     libvcruntime:frame.obj
 0002:0000b9c0       $unwind$?ExFilterRethrow@@YAHPEAU_EXCEPTION_POINTERS@@PEAUEHExceptionRecord@@PEAH@Z 000000018002e9c0     libvcruntime:frame.obj
 0002:0000b9c0       $unwind$__vcrt_uninitialize_locks 000000018002e9c0     libvcruntime:locks.obj
 0002:0000b9c0       $unwind$__vcrt_freeptd     000000018002e9c0     libvcruntime:per_thread_data.obj
 0002:0000b9c0       $unwind$_CreateFrameInfo   000000018002e9c0     libvcruntime:risctrnsctrl.obj
 0002:0000b9c0       $unwind$_SetImageBase      000000018002e9c0     libvcruntime:risctrnsctrl.obj
 0002:0000b9c0       $unwind$_SetThrowImageBase 000000018002e9c0     libvcruntime:risctrnsctrl.obj
 0002:0000b9c0       $unwind$__std_exception_destroy 000000018002e9c0     libvcruntime:std_exception.obj
 0002:0000b9c0       $unwind$__std_type_info_destroy_list 000000018002e9c0     libvcruntime:std_type_info.obj
 0002:0000b9c0       $unwind$__vcrt_FlsAlloc    000000018002e9c0     libvcruntime:winapi_downlevel.obj
 0002:0000b9c0       $unwind$__vcrt_FlsFree     000000018002e9c0     libvcruntime:winapi_downlevel.obj
 0002:0000b9c0       $unwind$__vcrt_FlsGetValue 000000018002e9c0     libvcruntime:winapi_downlevel.obj
 0002:0000b9c0       $unwind$_calloc_base       000000018002e9c0     libucrt:calloc_base.obj
 0002:0000b9c0       $unwind$_malloc_base       000000018002e9c0     libucrt:malloc_base.obj
 0002:0000b9c0       $unwind$_callnewh          000000018002e9c0     libucrt:new_handler.obj
 0002:0000b9c0       $unwind$initialize_pointers 000000018002e9c0     libucrt:initialization.obj
 0002:0000b9c0       $unwind$uninitialize_allocated_memory 000000018002e9c0     libucrt:initialization.obj
 0002:0000b9c0       $unwind$__acrt_initialize_locks 000000018002e9c0     libucrt:locks.obj
 0002:0000b9c0       $unwind$__acrt_uninitialize_locks 000000018002e9c0     libucrt:locks.obj
 0002:0000b9c0       $unwind$__acrt_freeptd     000000018002e9c0     libucrt:per_thread_data.obj
 0002:0000b9c0       $unwind$__acrt_getptd_head 000000018002e9c0     libucrt:per_thread_data.obj
 0002:0000b9c0       $unwind$__acrt_get_process_end_policy 000000018002e9c0     libucrt:win_policies.obj
 0002:0000b9c0       $unwind$__acrt_AppPolicyGetProcessTerminationMethodInternal 000000018002e9c0     libucrt:winapi_thunks.obj
 0002:0000b9c0       $unwind$__acrt_FlsAlloc    000000018002e9c0     libucrt:winapi_thunks.obj
 0002:0000b9c0       $unwind$__acrt_FlsFree     000000018002e9c0     libucrt:winapi_thunks.obj
 0002:0000b9c0       $unwind$__acrt_FlsGetValue 000000018002e9c0     libucrt:winapi_thunks.obj
 0002:0000b9c0       $unwind$__acrt_SetThreadStackGuarantee 000000018002e9c0     libucrt:winapi_thunks.obj
 0002:0000b9c0       $unwind$__acrt_uninitialize_winapi_thunks 000000018002e9c0     libucrt:winapi_thunks.obj
 0002:0000b9c0       $unwind$__acrt_update_locale_info 000000018002e9c0     libucrt:locale_update.obj
 0002:0000b9c0       $unwind$__acrt_update_multibyte_info 000000018002e9c0     libucrt:locale_update.obj
 0002:0000b9c0       $unwind$__acrt_allocate_buffer_for_argv 000000018002e9c0     libucrt:argv_parsing.obj
 0002:0000b9c0       $unwind$?exit_or_terminate_process@@YAXI@Z 000000018002e9c0     libucrt:exit.obj
 0002:0000b9c0       $unwind$?try_cor_exit_process@@YAXI@Z 000000018002e9c0     libucrt:exit.obj
 0002:0000b9c0       $unwind$__acrt_uninitialize_stdio 000000018002e9c0     libucrt:_file.obj
 0002:0000b9c0       $unwind$__acrt_stdio_free_buffer_nolock 000000018002e9c0     libucrt:_freebuf.obj
 0002:0000b9c0       $unwind$_fflush_nolock     000000018002e9c0     libucrt:fflush.obj
 0002:0000b9c0       $unwind$strcpy_s           000000018002e9c0     libucrt:strcpy_s.obj
 0002:0000b9c0       $unwind$wcscat_s           000000018002e9c0     libucrt:wcscat_s.obj
 0002:0000b9c0       $unwind$wcscpy_s           000000018002e9c0     libucrt:wcscpy_s.obj
 0002:0000b9c0       $unwind$_clrfp             000000018002e9c0     libucrt:fpctrl.obj
 0002:0000b9c0       $unwind$_set_statfp        000000018002e9c0     libucrt:fpctrl.obj
 0002:0000b9c0       $unwind$_clearfp           000000018002e9c0     libucrt:ieee.obj
 0002:0000b9c0       $unwind$_controlfp_s       000000018002e9c0     libucrt:contrlfp.obj
 0002:0000b9c0       $unwind$fegetenv           000000018002e9c0     libucrt:fegetenv.obj
 0002:0000b9c0       $unwind$feholdexcept       000000018002e9c0     libucrt:feholdexcept.obj
 0002:0000b9c0       $unwind$fesetenv           000000018002e9c0     libucrt:fesetenv.obj
 0002:0000b9c8       $unwind$?AtlWinModuleExtractCreateWndData@ATL@@YAPEAXPEAU_ATL_WIN_MODULE70@1@@Z 000000018002e9c8     LineDisplay.obj
 0002:0000b9c8       $unwind$?CreateInstance@?$CComCreator@V?$CComObject@VCOPOSLineDisplay@@@ATL@@@ATL@@SAJPEAXAEBU_GUID@@PEAPEAX@Z 000000018002e9c8     LineDisplay.obj
 0002:0000b9c8       $unwind$?DoEvent@COPOSLineDisplay@@IEAAXI_K_J@Z 000000018002e9c8     LineDisplay.obj
 0002:0000b9c8       $unwind$?DoVerb@?$IOleObjectImpl@VCOPOSLineDisplay@@@ATL@@UEAAJJPEAUtagMSG@@PEAUIOleClientSite@@JPEAUHWND__@@PEBUtagRECT@@@Z 000000018002e9c8     LineDisplay.obj
 0002:0000b9c8       $unwind$?HKeyFromString@CRegParser@ATL@@KAPEAUHKEY__@@PEA_W@Z 000000018002e9c8     LineDisplay.obj
 0002:0000b9c8       $unwind$?Next@?$CComEnumImpl@UIEnumConnectionPoints@@$1?_GUID_b196b285_bab4_101a_b69c_00aa00341d07@@3U__s_GUID@@BPEAUIConnectionPoint@@V?$_CopyInterface@UIConnectionPoint@@@ATL@@@ATL@@UEAAJKPEAPEAUIConnectionPoint@@PEAK@Z 000000018002e9c8     LineDisplay.obj
 0002:0000b9c8       $unwind$?Next@?$CComEnumImpl@UIEnumConnections@@$1?_GUID_b196b287_bab4_101a_b69c_00aa00341d07@@3U__s_GUID@@BUtagCONNECTDATA@@V?$_Copy@UtagCONNECTDATA@@@ATL@@@ATL@@UEAAJKPEAUtagCONNECTDATA@@PEAK@Z 000000018002e9c8     LineDisplay.obj
 0002:0000b9c8       $unwind$?SODirectIO@COPOSLineDisplay@@MEAAJJPEAJPEAPEA_W@Z 000000018002e9c8     LineDisplay.obj
 0002:0000b9c8       $unwind$?SetControlFocus@CComControlBase@ATL@@QEAAHH@Z 000000018002e9c8     LineDisplay.obj
 0002:0000b9c8       $unwind$?ocscpy_s@@YA_NPEA_W_KPEB_W@Z 000000018002e9c8     LineDisplay.obj
 0002:0000b9c8       $unwind$?s_EventWindowProc@COPOSLineDisplay@@KA_JPEAUHWND__@@I_K_J@Z 000000018002e9c8     LineDisplayImpl.obj
 0002:0000b9c8       $unwind$?AtlWinModuleTerm@ATL@@YAJPEAU_ATL_WIN_MODULE70@1@PEAUHINSTANCE__@@@Z 000000018002e9c8     OposVariant.obj
 0002:0000b9c8       $unwind$__scrt_dllmain_exception_filter 000000018002e9c8     LIBCMT:utility.obj
 0002:0000b9c8       $unwind$?Is_bad_exception_allowed@@YAEPEBU_s_ESTypeList@@@Z 000000018002e9c8     libvcruntime:frame.obj
 0002:0000b9c8       $unwind$_recalloc_base     000000018002e9c8     libucrt:recalloc.obj
 0002:0000b9c8       $unwind$__acrt_free_locale 000000018002e9c8     libucrt:locale_refcounting.obj
 0002:0000b9c8       $unwind$__acrt_lowio_create_handle_array 000000018002e9c8     libucrt:osfinfo.obj
 0002:0000b9c8       $unwind$?setSBCS@@YAXPEAU__crt_multibyte_data@@@Z 000000018002e9c8     libucrt:mbctype.obj
 0002:0000b9c8       $unwind$_seh_filter_exe    000000018002e9c8     libucrt:exception_filter.obj
 0002:0000b9c8       $unwind$_initterm          000000018002e9c8     libucrt:initterm.obj
 0002:0000b9c8       $unwind$??$ensure_buffer_is_big_enough@D@formatting_buffer@__crt_stdio_output@@QEAA_N_K@Z 000000018002e9c8     libucrt:output.obj
 0002:0000b9c8       $unwind$??$ensure_buffer_is_big_enough@_W@formatting_buffer@__crt_stdio_output@@QEAA_N_K@Z 000000018002e9c8     libucrt:output.obj
 0002:0000b9dc       $unwind$??_GCRegObject@ATL@@UEAAPEAXI@Z 000000018002e9dc     LineDisplay.obj
 0002:0000b9dc       $unwind$?Add@?$CSimpleArray@GV?$CSimpleArrayEqualHelper@G@ATL@@@ATL@@QEAAHAEBG@Z 000000018002e9dc     LineDisplay.obj
 0002:0000b9dc       $unwind$?Add@?$CSimpleMap@PEA_WPEA_WVCExpansionVectorEqualHelper@ATL@@@ATL@@QEAAHAEBQEA_W0@Z 000000018002e9dc     LineDisplay.obj
 0002:0000b9dc       $unwind$?Add@CComDynamicUnkArray@ATL@@QEAAKPEAUIUnknown@@@Z 000000018002e9dc     LineDisplay.obj
 0002:0000b9dc       $unwind$?Advise@?$IOleObjectImpl@VCOPOSLineDisplay@@@ATL@@UEAAJPEAUIAdviseSink@@PEAK@Z 000000018002e9dc     LineDisplay.obj
 0002:0000b9dc       $unwind$?ClearReplacements@CExpansionVector@ATL@@QEAAJXZ 000000018002e9dc     LineDisplay.obj
 0002:0000b9dc       $unwind$?CreateInstance@?$CComObject@V?$CComEnum@UIEnumConnectionPoints@@$1?_GUID_b196b285_bab4_101a_b69c_00aa00341d07@@3U__s_GUID@@BPEAUIConnectionPoint@@V?$_CopyInterface@UIConnectionPoint@@@ATL@@VCComSingleThreadModel@6@@ATL@@@ATL@@SAJPEAPEAV12@@Z 000000018002e9dc     LineDisplay.obj
 0002:0000b9dc       $unwind$?CreateInstance@?$CComObject@V?$CComEnum@UIEnumConnections@@$1?_GUID_b196b287_bab4_101a_b69c_00aa00341d07@@3U__s_GUID@@BUtagCONNECTDATA@@V?$_Copy@UtagCONNECTDATA@@@ATL@@VCComSingleThreadModel@6@@ATL@@@ATL@@SAJPEAPEAV12@@Z 000000018002e9dc     LineDisplay.obj
 0002:0000b9dc       $unwind$?RegisterServer@CComModule@ATL@@QEAAJHPEBU_GUID@@@Z 000000018002e9dc     LineDisplay.obj
 0002:0000b9dc       $unwind$?Term@CAtlModule@ATL@@QEAAXXZ 000000018002e9dc     LineDisplay.obj
 0002:0000b9dc       $unwind$?UnregisterServer@CComModule@ATL@@QEAAJHPEBU_GUID@@@Z 000000018002e9dc     LineDisplay.obj
 0002:0000b9dc       $unwind$?VTFromRegType@CRegParser@ATL@@KAHPEB_WAEAG@Z 000000018002e9dc     LineDisplay.obj
 0002:0000b9dc       $unwind$??0OposDispParms@@QEAA@PEAVOposVariant@@H@Z 000000018002e9dc     OposVariant.obj
 0002:0000b9dc       $unwind$?SetBSTR_Copy@OposVariant@@QEAAXPEA_WAEAJ@Z 000000018002e9dc     OposVariant.obj
 0002:0000b9dc       $unwind$?SetBSTR_InOutPtr@OposVariant@@QEAA_NPEAPEA_WAEAJ@Z 000000018002e9dc     OposVariant.obj
 0002:0000b9dc       $unwind$?SetDispatch_Ptr@OposVariant@@QEAAXPEAUIDispatch@@AEAJ@Z 000000018002e9dc     OposVariant.obj
 0002:0000b9dc       $unwind$?SetLONG_Ptr@OposVariant@@QEAAXPEAJAEAJ@Z 000000018002e9dc     OposVariant.obj
 0002:0000b9dc       $unwind$?SetString@OposVariant@@QEAAXPEB_WAEAJ@Z 000000018002e9dc     OposVariant.obj
 0002:0000b9dc       $unwind$?Term@CAtlComModule@ATL@@QEAAXXZ 000000018002e9dc     OposVariant.obj
 0002:0000b9dc       $unwind$_DllMainCRTStartup 000000018002e9dc     LIBCMT:dll_dllmain.obj
 0002:0000b9dc       $unwind$__vcrt_getptd_noexit 000000018002e9dc     libvcruntime:per_thread_data.obj
 0002:0000b9dc       $unwind$__vcrt_InitializeCriticalSectionEx 000000018002e9dc     libvcruntime:winapi_downlevel.obj
 0002:0000b9dc       $unwind$memcpy_s           000000018002e9dc     libucrt:cfout.obj
 0002:0000b9dc       $unwind$__acrt_getptd      000000018002e9dc     libucrt:per_thread_data.obj
 0002:0000b9dc       $unwind$__acrt_getptd_noexit 000000018002e9dc     libucrt:per_thread_data.obj
 0002:0000b9dc       $unwind$__acrt_execute_initializers 000000018002e9dc     libucrt:shared_initialization.obj
 0002:0000b9dc       $unwind$__acrt_InitializeCriticalSectionEx 000000018002e9dc     libucrt:winapi_thunks.obj
 0002:0000b9dc       $unwind$?free_crt_array_internal@@YAXQEAPEBX_K@Z 000000018002e9dc     libucrt:inittime.obj
 0002:0000b9dc       $unwind$??$common_lseek_nolock@_J@@YA_JH_JH@Z 000000018002e9dc     libucrt:lseek.obj
 0002:0000b9dc       $unwind$__acrt_stdio_flush_nolock 000000018002e9dc     libucrt:fflush.obj
 0002:0000b9dc       $unwind$??0_LocaleUpdate@@QEAA@QEAU__crt_locale_pointers@@@Z 000000018002e9dc     libucrt:output.obj
 0002:0000b9dc       $unwind$?type_case_Z@?$output_processor@_WV?$string_output_adapter@_W@__crt_stdio_output@@V?$format_validation_base@_WV?$string_output_adapter@_W@__crt_stdio_output@@@2@@__crt_stdio_output@@AEAA_NXZ 000000018002e9dc     libucrt:output.obj
 0002:0000b9dc       $unwind$?type_case_s@?$output_processor@_WV?$string_output_adapter@_W@__crt_stdio_output@@V?$format_validation_base@_WV?$string_output_adapter@_W@__crt_stdio_output@@@2@@__crt_stdio_output@@AEAA_NXZ 000000018002e9dc     libucrt:output.obj
 0002:0000b9dc       $unwind$_exception_enabled 000000018002e9dc     libucrt:libm_error.obj
 0002:0000b9ec       $unwind$?AddTermFunc@CAtlModule@ATL@@QEAAJP6AX_K@Z0@Z 000000018002e9ec     LineDisplay.obj
 0002:0000b9ec       $unwind$?AtlComModuleRegisterServer@ATL@@YAJPEAU_ATL_COM_MODULE70@1@HPEBU_GUID@@@Z 000000018002e9ec     LineDisplay.obj
 0002:0000b9ec       $unwind$?AtlComModuleUnregisterServer@ATL@@YAJPEAU_ATL_COM_MODULE70@1@HPEBU_GUID@@@Z 000000018002e9ec     LineDisplay.obj
 0002:0000b9ec       $unwind$?CreateInstance@?$CComCreator@V?$CComAggObject@VCOPOSLineDisplay@@@ATL@@@ATL@@SAJPEAXAEBU_GUID@@PEAPEAX@Z 000000018002e9ec     LineDisplay.obj
 0002:0000b9ec       $unwind$?CreateInstance@?$CComCreator@V?$CComObjectCached@VCComClassFactory@ATL@@@ATL@@@ATL@@SAJPEAXAEBU_GUID@@PEAPEAX@Z 000000018002e9ec     LineDisplay.obj
 0002:0000b9ec       $unwind$?GetPagesHelper@?$ISpecifyPropertyPagesImpl@VCOPOSLineDisplay@@@ATL@@IEAAJPEAUtagCAUUID@@PEBUATL_PROPMAP_ENTRY@2@@Z 000000018002e9ec     LineDisplay.obj
 0002:0000b9ec       $unwind$??_Estringdispid@CComTypeInfoHolder@ATL@@QEAAPEAXI@Z 000000018002e9ec     OposVariant.obj
 0002:0000b9ec       $unwind$__GSHandlerCheck_SEH 000000018002e9ec     LIBCMT:gshandlerseh.obj
 0002:0000b9ec       $unwind$??$TypeMatchHelper@V__FrameHandler3@@@@YAHPEBU_s_HandlerType@@PEBU_s_CatchableType@@PEBU_s_ThrowInfo@@@Z 000000018002e9ec     libvcruntime:frame.obj
 0002:0000b9ec       $unwind$??$TypeMatchHelper@V__FrameHandler4@@@@YAHPEAUHandlerType4@FH4@@PEBU_s_CatchableType@@PEBU_s_ThrowInfo@@@Z 000000018002e9ec     libvcruntime:frame.obj
 0002:0000b9ec       $unwind$?initialize_stdio_handles_nolock@@YAXXZ 000000018002e9ec     libucrt:ioinit.obj
 0002:0000b9ec       $unwind$__acrt_initialize_stdio 000000018002e9ec     libucrt:_file.obj
 0002:0000b9ec       $unwind$?process@?$output_processor@_WV?$string_output_adapter@_W@__crt_stdio_output@@V?$format_validation_base@_WV?$string_output_adapter@_W@__crt_stdio_output@@@2@@__crt_stdio_output@@QEAAHXZ 000000018002e9ec     libucrt:output.obj
 0002:0000b9ec       $unwind$?type_case_integer@?$output_processor@_WV?$string_output_adapter@_W@__crt_stdio_output@@V?$format_validation_base@_WV?$string_output_adapter@_W@__crt_stdio_output@@@2@@__crt_stdio_output@@AEAA_NI_N@Z 000000018002e9ec     libucrt:output.obj
 0002:0000ba04       $unwind$??0?$CComContainedObject@VCOPOSLineDisplay@@@ATL@@QEAA@PEAX@Z 000000018002ea04     LineDisplay.obj
 0002:0000ba04       $unwind$??1?$CComEnumImpl@UIEnumConnectionPoints@@$1?_GUID_b196b285_bab4_101a_b69c_00aa00341d07@@3U__s_GUID@@BPEAUIConnectionPoint@@V?$_CopyInterface@UIConnectionPoint@@@ATL@@@ATL@@UEAA@XZ 000000018002ea04     LineDisplay.obj
 0002:0000ba04       $unwind$??1?$CComEnumImpl@UIEnumConnections@@$1?_GUID_b196b287_bab4_101a_b69c_00aa00341d07@@3U__s_GUID@@BUtagCONNECTDATA@@V?$_Copy@UtagCONNECTDATA@@@ATL@@@ATL@@UEAA@XZ 000000018002ea04     LineDisplay.obj
 0002:0000ba04       $unwind$??_G?$CComAggObject@VCOPOSLineDisplay@@@ATL@@UEAAPEAXI@Z 000000018002ea04     LineDisplay.obj
 0002:0000ba04       $unwind$??_G?$CComContainedObject@VCOPOSLineDisplay@@@ATL@@UEAAPEAXI@Z 000000018002ea04     LineDisplay.obj
 0002:0000ba04       $unwind$??_G?$CComObject@V?$CComEnum@UIEnumConnectionPoints@@$1?_GUID_b196b285_bab4_101a_b69c_00aa00341d07@@3U__s_GUID@@BPEAUIConnectionPoint@@V?$_CopyInterface@UIConnectionPoint@@@ATL@@VCComSingleThreadModel@6@@ATL@@@ATL@@UEAAPEAXI@Z 000000018002ea04     LineDisplay.obj
 0002:0000ba04       $unwind$??_G?$CComObject@V?$CComEnum@UIEnumConnections@@$1?_GUID_b196b287_bab4_101a_b69c_00aa00341d07@@3U__s_GUID@@BUtagCONNECTDATA@@V?$_Copy@UtagCONNECTDATA@@@ATL@@VCComSingleThreadModel@6@@ATL@@@ATL@@UEAAPEAXI@Z 000000018002ea04     LineDisplay.obj
 0002:0000ba04       $unwind$??_G?$CComObject@VCOPOSLineDisplay@@@ATL@@UEAAPEAXI@Z 000000018002ea04     LineDisplay.obj
 0002:0000ba04       $unwind$??_G?$CComObjectCached@VCComClassFactory@ATL@@@ATL@@UEAAPEAXI@Z 000000018002ea04     LineDisplay.obj
 0002:0000ba04       $unwind$??_GCComClassFactory@ATL@@UEAAPEAXI@Z 000000018002ea04     LineDisplay.obj
 0002:0000ba04       $unwind$??_GCComModule@ATL@@UEAAPEAXI@Z 000000018002ea04     LineDisplay.obj
 0002:0000ba04       $unwind$?DeleteSubKey@CRegKey@ATL@@QEAAJPEB_W@Z 000000018002ea04     LineDisplay.obj
 0002:0000ba04       $unwind$?IOleObject_SetClientSite@CComControlBase@ATL@@QEAAJPEAUIOleClientSite@@@Z 000000018002ea04     LineDisplay.obj
 0002:0000ba04       $unwind$?InitNew@?$IPersistStorageImpl@VCOPOSLineDisplay@@@ATL@@UEAAJPEAUIStorage@@@Z 000000018002ea04     LineDisplay.obj
 0002:0000ba04       $unwind$?IsDirty@?$IPersistStorageImpl@VCOPOSLineDisplay@@@ATL@@UEAAJXZ 000000018002ea04     LineDisplay.obj
 0002:0000ba04       $unwind$?Release@?$CComAggObject@VCOPOSLineDisplay@@@ATL@@UEAAKXZ 000000018002ea04     LineDisplay.obj
 0002:0000ba04       $unwind$?Release@?$CComObject@V?$CComEnum@UIEnumConnectionPoints@@$1?_GUID_b196b285_bab4_101a_b69c_00aa00341d07@@3U__s_GUID@@BPEAUIConnectionPoint@@V?$_CopyInterface@UIConnectionPoint@@@ATL@@VCComSingleThreadModel@6@@ATL@@@ATL@@UEAAKXZ 000000018002ea04     LineDisplay.obj
 0002:0000ba04       $unwind$?Release@?$CComObject@V?$CComEnum@UIEnumConnections@@$1?_GUID_b196b287_bab4_101a_b69c_00aa00341d07@@3U__s_GUID@@BUtagCONNECTDATA@@V?$_Copy@UtagCONNECTDATA@@@ATL@@VCComSingleThreadModel@6@@ATL@@@ATL@@UEAAKXZ 000000018002ea04     LineDisplay.obj
 0002:0000ba04       $unwind$?Release@?$CComObject@VCOPOSLineDisplay@@@ATL@@UEAAKXZ 000000018002ea04     LineDisplay.obj
 0002:0000ba04       $unwind$?SOStatusUpdate@COPOSLineDisplay@@MEAAJJ@Z 000000018002ea04     LineDisplay.obj
 0002:0000ba04       $unwind$?SetAdvise@?$IViewObjectExImpl@VCOPOSLineDisplay@@@ATL@@UEAAJKKPEAUIAdviseSink@@@Z 000000018002ea04     LineDisplay.obj
 0002:0000ba04       $unwind$?Term@CComModule@ATL@@QEAAXXZ 000000018002ea04     LineDisplay.obj
 0002:0000ba04       $unwind$DllMain            000000018002ea04     LineDisplay.obj
 0002:0000ba04       $unwind$??1?$IConnectionPointImpl@VCOPOSLineDisplay@@$1?DIID__IOPOSLineDisplayEvents@@3U_GUID@@BVCComDynamicUnkArray@ATL@@@ATL@@QEAA@XZ 000000018002ea04     LineDisplayImpl.obj
 0002:0000ba04       $unwind$??1?$IConnectionPointImpl@VCOPOSLineDisplay@@$1?IID_IPropertyNotifySink@@3U_GUID@@BVCComDynamicUnkArray@ATL@@@ATL@@QEAA@XZ 000000018002ea04     LineDisplayImpl.obj
 0002:0000ba04       $unwind$?EventWindowProc@COPOSLineDisplay@@IEAA_JI_K_J@Z 000000018002ea04     LineDisplayImpl.obj
 0002:0000ba04       $unwind$?SetBSTR@OposVariant@@QEAAXPEA_WAEAJ@Z 000000018002ea04     OposVariant.obj
 0002:0000ba04       $unwind$?SetLONG@OposVariant@@QEAAXJ@Z 000000018002ea04     OposVariant.obj
 0002:0000ba04       $unwind$?SetVARIANT_BOOL@OposVariant@@QEAAXF@Z 000000018002ea04     OposVariant.obj
 0002:0000ba04       $unwind$??0CAtlBaseModule@ATL@@QEAA@XZ 000000018002ea04     atls:atlbase.obj
 0002:0000ba04       $unwind$??$GetProcAddressAll@P6AP6A_JPEAUHWND__@@I_K_J@ZPEAUAtlThunkData_t@@@Z@@YAP6AP6A_JPEAUHWND__@@I_K_J@ZPEAUAtlThunkData_t@@@ZPEAP6AP6A_J0I12@Z3@Z@Z 000000018002ea04     atls:atlthunk.obj
 0002:0000ba04       $unwind$??$GetProcAddressAll@P6APEAUAtlThunkData_t@@XZ@@YAP6APEAUAtlThunkData_t@@XZPEAP6APEAU0@XZ@Z 000000018002ea04     atls:atlthunk.obj
 0002:0000ba04       $unwind$??$GetProcAddressAll@P6AXPEAUAtlThunkData_t@@@Z@@YAP6AXPEAUAtlThunkData_t@@@ZPEAP6AX0@Z@Z 000000018002ea04     atls:atlthunk.obj
 0002:0000ba04       $unwind$??$GetProcAddressAll@P6AXPEAUAtlThunkData_t@@PEAX_K@Z@@YAP6AXPEAUAtlThunkData_t@@PEAX_K@ZPEAP6AX012@Z@Z 000000018002ea04     atls:atlthunk.obj
 0002:0000ba04       $unwind$?__AllocStdCallThunk_cmn@@YAPEAXXZ 000000018002ea04     atls:atlthunk.obj
 0002:0000ba04       $unwind$?__InitializeThunkPool@@YAHXZ 000000018002ea04     atls:atlthunk.obj
 0002:0000ba04       $unwind$AtlThunk_DataToCode 000000018002ea04     atls:atlthunk.obj
 0002:0000ba04       $unwind$_RTC_Initialize    000000018002ea04     LIBCMT:initsect.obj
 0002:0000ba04       $unwind$_RTC_Terminate     000000018002ea04     LIBCMT:initsect.obj
 0002:0000ba04       $unwind$?__scrt_initialize_thread_safe_statics@@YAHXZ 000000018002ea04     LIBCMT:thread_safe_statics.obj
 0002:0000ba04       $unwind$??_Gbad_alloc@std@@UEAAPEAXI@Z 000000018002ea04     LIBCMT:throw_bad_alloc.obj
 0002:0000ba04       $unwind$??_Gbad_array_new_length@std@@UEAAPEAXI@Z 000000018002ea04     LIBCMT:throw_bad_alloc.obj
 0002:0000ba04       $unwind$??_Gexception@std@@UEAAPEAXI@Z 000000018002ea04     LIBCMT:throw_bad_alloc.obj
 0002:0000ba04       $unwind$__FrameUnwindFilter 000000018002ea04     libvcruntime:ehhelpers.obj
 0002:0000ba04       $unwind$??_Gbad_exception@std@@UEAAPEAXI@Z 000000018002ea04     libvcruntime:frame.obj
 0002:0000ba04       $unwind$?ExFilterRethrowFH4@@YAHPEAU_EXCEPTION_POINTERS@@PEAUEHExceptionRecord@@HPEAH@Z 000000018002ea04     libvcruntime:frame.obj
 0002:0000ba04       $unwind$_FindAndUnlinkFrame 000000018002ea04     libvcruntime:risctrnsctrl.obj
 0002:0000ba04       $unwind$__vcrt_FlsSetValue 000000018002ea04     libvcruntime:winapi_downlevel.obj
 0002:0000ba04       $unwind$??$common_initialize_environment_nolock@D@@YAHXZ 000000018002ea04     libucrt:environment_initialization.obj
 0002:0000ba04       $unwind$_realloc_base      000000018002ea04     libucrt:realloc_base.obj
 0002:0000ba04       $unwind$?replace_current_thread_locale_nolock@@YAXQEAU__acrt_ptd@@QEAU__crt_locale_data@@@Z 000000018002ea04     libucrt:per_thread_data.obj
 0002:0000ba04       $unwind$__acrt_execute_uninitializers 000000018002ea04     libucrt:shared_initialization.obj
 0002:0000ba04       $unwind$__acrt_FlsSetValue 000000018002ea04     libucrt:winapi_thunks.obj
 0002:0000ba04       $unwind$__acrt_LocaleNameToLCID 000000018002ea04     libucrt:winapi_thunks.obj
 0002:0000ba04       $unwind$_updatetlocinfoEx_nolock 000000018002ea04     libucrt:locale_refcounting.obj
 0002:0000ba04       $unwind$_close_nolock      000000018002ea04     libucrt:close.obj
 0002:0000ba04       $unwind$__acrt_uninitialize_lowio 000000018002ea04     libucrt:ioinit.obj
 0002:0000ba04       $unwind$__acrt_errno_map_os_error 000000018002ea04     libucrt:errno.obj
 0002:0000ba04       $unwind$_initterm_e        000000018002ea04     libucrt:initterm.obj
 0002:0000ba04       $unwind$_fclose_nolock     000000018002ea04     libucrt:fclose.obj
 0002:0000ba04       $unwind$?type_case_n@?$output_processor@_WV?$string_output_adapter@_W@__crt_stdio_output@@V?$format_validation_base@_WV?$string_output_adapter@_W@__crt_stdio_output@@@2@@__crt_stdio_output@@AEAA_NXZ 000000018002ea04     libucrt:output.obj
 0002:0000ba04       $unwind$strncpy_s          000000018002ea04     libucrt:strncpy_s.obj
 0002:0000ba04       $unwind$wcsncpy_s          000000018002ea04     libucrt:wcsncpy_s.obj
 0002:0000ba10       $unwind$?ChangeBSTR@OposVariant@@QEAAXPEAPEA_WAEAJ@Z 000000018002ea10     OposVariant.obj
 0002:0000ba10       $unwind$?ChangeLONG@OposVariant@@QEAAXPEAJAEAJ@Z 000000018002ea10     OposVariant.obj
 0002:0000ba10       $unwind$?x_ismbbtype_l@@YAHPEAU__crt_locale_pointers@@IHH@Z 000000018002ea10     libucrt:ismbbyte.obj
 0002:0000ba20       $unwind$swprintf_s         000000018002ea20     LineDisplay.obj
 0002:0000ba30       $unwind$?_AtlVerifyStackAvailable@_ATL_SAFE_ALLOCA_IMPL@ATL@@YA_N_K@Z 000000018002ea30     LineDisplay.obj
 0002:0000ba5c       $unwind$?filt$0@?0??_AtlVerifyStackAvailable@_ATL_SAFE_ALLOCA_IMPL@ATL@@YA_N_K@Z@4HA 000000018002ea5c     LineDisplay.obj
 0002:0000ba5c       $unwind$?fin$0@?0??dllmain_crt_process_attach@@YAHQEAUHINSTANCE__@@QEAX@Z@4HA 000000018002ea5c     LIBCMT:dll_dllmain.obj
 0002:0000ba5c       $unwind$?fin$0@?0??dllmain_crt_process_detach@@YAH_N@Z@4HA 000000018002ea5c     LIBCMT:dll_dllmain.obj
 0002:0000ba5c       $unwind$?fin$1@?0??dllmain_crt_process_detach@@YAH_N@Z@4HA 000000018002ea5c     LIBCMT:dll_dllmain.obj
 0002:0000ba5c       $unwind$_IsNonwritableInCurrentImage$filt$0 000000018002ea5c     LIBCMT:pesect.obj
 0002:0000ba5c       $unwind$?filt$0@?0??CxxCallCatchBlock@__FrameHandler4@@SAPEAXPEAU_EXCEPTION_RECORD@@@Z@4HA 000000018002ea5c     libvcruntime:frame.obj
 0002:0000ba5c       $unwind$_query_new_handler$fin$0 000000018002ea5c     libucrt:new_handler.obj
 0002:0000ba5c       $unwind$?fin$0@?0???$?RV<lambda_0ae27a3a962d80f24befdcbee591983d>@@AEAV<lambda_8d0ee55de4b1038c4002e0adecdf1839>@@V<lambda_dc504788e8f1664fe9b84e20bfb512f2>@@@?$__crt_seh_guarded_call@X@@QEAAX$$QEAV<lambda_0ae27a3a962d80f24befdcbee591983d>@@AEAV<lambda_8d0ee55de4b1038c4002e0adecdf1839>@@$$QEAV<lambda_dc504788e8f1664fe9b84e20bfb512f2>@@@Z@4HA 000000018002ea5c     libucrt:per_thread_data.obj
 0002:0000ba5c       $unwind$?fin$0@?0???$?RV<lambda_2d41944a1d46af3157314b8a01080d33>@@AEAV<lambda_8f455de75cd7d7f24b4096f044d8b9e6>@@V<lambda_aa500f224e6afead328df44964fe2772>@@@?$__crt_seh_guarded_call@X@@QEAAX$$QEAV<lambda_2d41944a1d46af3157314b8a01080d33>@@AEAV<lambda_8f455de75cd7d7f24b4096f044d8b9e6>@@$$QEAV<lambda_aa500f224e6afead328df44964fe2772>@@@Z@4HA 000000018002ea5c     libucrt:per_thread_data.obj
 0002:0000ba5c       $unwind$?fin$0@?0???$?RV<lambda_aa87e3671a710a21b5dc78c0bdf72e11>@@AEAV<lambda_92619d2358a28f41a33ba319515a20b9>@@V<lambda_6992ecaafeb10aed2b74cb1fae11a551>@@@?$__crt_seh_guarded_call@X@@QEAAX$$QEAV<lambda_aa87e3671a710a21b5dc78c0bdf72e11>@@AEAV<lambda_92619d2358a28f41a33ba319515a20b9>@@$$QEAV<lambda_6992ecaafeb10aed2b74cb1fae11a551>@@@Z@4HA 000000018002ea5c     libucrt:per_thread_data.obj
 0002:0000ba5c       $unwind$?fin$0@?0???$?RV<lambda_f2e299630e499de9f9a165e60fcd3db5>@@AEAV<lambda_2ae9d31cdba2644fcbeaf08da7c24588>@@V<lambda_40d01ff24d0e7b3814fdbdcee8eab3c7>@@@?$__crt_seh_guarded_call@X@@QEAAX$$QEAV<lambda_f2e299630e499de9f9a165e60fcd3db5>@@AEAV<lambda_2ae9d31cdba2644fcbeaf08da7c24588>@@$$QEAV<lambda_40d01ff24d0e7b3814fdbdcee8eab3c7>@@@Z@4HA 000000018002ea5c     libucrt:per_thread_data.obj
 0002:0000ba5c       $unwind$__acrt_update_thread_locale_data$fin$0 000000018002ea5c     libucrt:locale_refcounting.obj
 0002:0000ba5c       $unwind$?fin$0@?0???$?RV<lambda_410d79af7f07d98d83a3f525b3859a53>@@AEAV<lambda_3e16ef9562a7dcce91392c22ab16ea36>@@V<lambda_38119f0e861e05405d8a144b9b982f0a>@@@?$__crt_seh_guarded_call@X@@QEAAX$$QEAV<lambda_410d79af7f07d98d83a3f525b3859a53>@@AEAV<lambda_3e16ef9562a7dcce91392c22ab16ea36>@@$$QEAV<lambda_38119f0e861e05405d8a144b9b982f0a>@@@Z@4HA 000000018002ea5c     libucrt:wsetlocale.obj
 0002:0000ba5c       $unwind$?fin$0@?0???$?RV<lambda_751a882b2c74d4b022dec766aa51a29a>@@AEAV<lambda_628dfdc04ba53c8bfc02c9951375f3f5>@@V<lambda_f6c7be5f7998530c34de24c7437d6b54>@@@?$__crt_seh_guarded_call@H@@QEAAH$$QEAV<lambda_751a882b2c74d4b022dec766aa51a29a>@@AEAV<lambda_628dfdc04ba53c8bfc02c9951375f3f5>@@$$QEAV<lambda_f6c7be5f7998530c34de24c7437d6b54>@@@Z@4HA 000000018002ea5c     libucrt:close.obj
 0002:0000ba5c       $unwind$?fin$0@?0???$?RV<lambda_a37b2b86f63e897a80ea819b0eb08c01>@@AEAV<lambda_38ce7e780aa69e748d6df282ebc68efe>@@V<lambda_99fb1378e971ab6e7edea83e3a7a83a2>@@@?$__crt_seh_guarded_call@H@@QEAAH$$QEAV<lambda_a37b2b86f63e897a80ea819b0eb08c01>@@AEAV<lambda_38ce7e780aa69e748d6df282ebc68efe>@@$$QEAV<lambda_99fb1378e971ab6e7edea83e3a7a83a2>@@@Z@4HA 000000018002ea5c     libucrt:commit.obj
 0002:0000ba5c       $unwind$__acrt_initialize_lowio$fin$0 000000018002ea5c     libucrt:ioinit.obj
 0002:0000ba5c       $unwind$__acrt_lowio_ensure_fh_exists$fin$0 000000018002ea5c     libucrt:osfinfo.obj
 0002:0000ba5c       $unwind$_write$fin$0       000000018002ea5c     libucrt:write.obj
 0002:0000ba5c       $unwind$?fin$0@?0???$?RV<lambda_efdfa57d1f175319df784efa44bb7b81>@@AEAV<lambda_5f0a4c1567f8adc6734073e5d1e1b35c>@@V<lambda_2e8a7d3640ea6ccb4c2413664c2db6fd>@@@?$__crt_seh_guarded_call@X@@QEAAX$$QEAV<lambda_efdfa57d1f175319df784efa44bb7b81>@@AEAV<lambda_5f0a4c1567f8adc6734073e5d1e1b35c>@@$$QEAV<lambda_2e8a7d3640ea6ccb4c2413664c2db6fd>@@@Z@4HA 000000018002ea5c     libucrt:mbctype.obj
 0002:0000ba5c       $unwind$?fin$0@?0??update_thread_multibyte_data_internal@@YAPEAU__crt_multibyte_data@@QEAU__acrt_ptd@@QEAPEAU1@@Z@4HA 000000018002ea5c     libucrt:mbctype.obj
 0002:0000ba5c       $unwind$?fin$0@?0???$?RV<lambda_450d765d439847d4c735a33c368b5fc0>@@AEAV<lambda_44731a7d0e6d81c3e6aa82d741081786>@@V<lambda_601a2a7da3b7a96e9554ac7215c4b07c>@@@?$__crt_seh_guarded_call@P6AXH@Z@@QEAAP6AXH@Z$$QEAV<lambda_450d765d439847d4c735a33c368b5fc0>@@AEAV<lambda_44731a7d0e6d81c3e6aa82d741081786>@@$$QEAV<lambda_601a2a7da3b7a96e9554ac7215c4b07c>@@@Z@4HA 000000018002ea5c     libucrt:signal.obj
 0002:0000ba5c       $unwind$raise$fin$0        000000018002ea5c     libucrt:signal.obj
 0002:0000ba5c       $unwind$?filt$0@?0???R<lambda_6e4b09c48022b2350581041d5f6b0c4c>@@QEBA@XZ@4HA 000000018002ea5c     libucrt:exit.obj
 0002:0000ba5c       $unwind$?fin$0@?0???$?RV<lambda_d80eeec6fff315bfe5c115232f3240e3>@@AEAV<lambda_6e4b09c48022b2350581041d5f6b0c4c>@@V<lambda_2358e3775559c9db80273638284d5e45>@@@?$__crt_seh_guarded_call@X@@QEAAX$$QEAV<lambda_d80eeec6fff315bfe5c115232f3240e3>@@AEAV<lambda_6e4b09c48022b2350581041d5f6b0c4c>@@$$QEAV<lambda_2358e3775559c9db80273638284d5e45>@@@Z@4HA 000000018002ea5c     libucrt:exit.obj
 0002:0000ba5c       $unwind$?fin$0@?0???$?RV<lambda_638799b9deba96c50f710eeac98168cd>@@AEAV<lambda_22ebabd17bc4fa466a2aca6d8deb888d>@@V<lambda_a6f7d7db0129f75315ebf26d50c089f1>@@@?$__crt_seh_guarded_call@H@@QEAAH$$QEAV<lambda_638799b9deba96c50f710eeac98168cd>@@AEAV<lambda_22ebabd17bc4fa466a2aca6d8deb888d>@@$$QEAV<lambda_a6f7d7db0129f75315ebf26d50c089f1>@@@Z@4HA 000000018002ea5c     libucrt:onexit.obj
 0002:0000ba5c       $unwind$?fin$0@?0???$?RV<lambda_7777bce6b2f8c936911f934f8298dc43>@@AEAV<lambda_f03950bc5685219e0bcd2087efbe011e>@@V<lambda_3883c3dff614d5e0c5f61bb1ac94921c>@@@?$__crt_seh_guarded_call@H@@QEAAH$$QEAV<lambda_7777bce6b2f8c936911f934f8298dc43>@@AEAV<lambda_f03950bc5685219e0bcd2087efbe011e>@@$$QEAV<lambda_3883c3dff614d5e0c5f61bb1ac94921c>@@@Z@4HA 000000018002ea5c     libucrt:onexit.obj
 0002:0000ba5c       $unwind$_fcloseall$fin$0   000000018002ea5c     libucrt:closeall.obj
 0002:0000ba5c       $unwind$fclose$fin$0       000000018002ea5c     libucrt:fclose.obj
 0002:0000ba5c       $unwind$?fin$0@?0???$?RV<lambda_842d9ff0dc9ef11c61343bbaebe7f885>@@AEAV<lambda_c5860995281e5c4ce005b3de8f5874ee>@@V<lambda_d90129c13df834fdcbf8d2b88dafcf2d>@@@?$__crt_seh_guarded_call@X@@QEAAX$$QEAV<lambda_842d9ff0dc9ef11c61343bbaebe7f885>@@AEAV<lambda_c5860995281e5c4ce005b3de8f5874ee>@@$$QEAV<lambda_d90129c13df834fdcbf8d2b88dafcf2d>@@@Z@4HA 000000018002ea5c     libucrt:fflush.obj
 0002:0000ba5c       $unwind$?fin$0@?0???$?RV<lambda_886d6c58226a84441f68b9f2b8217b83>@@AEAV<lambda_ab61a845afdef5b7c387490eaf3616ee>@@V<lambda_f7f22ab5edc0698d5f6905b0d3f44752>@@@?$__crt_seh_guarded_call@X@@QEAAX$$QEAV<lambda_886d6c58226a84441f68b9f2b8217b83>@@AEAV<lambda_ab61a845afdef5b7c387490eaf3616ee>@@$$QEAV<lambda_f7f22ab5edc0698d5f6905b0d3f44752>@@@Z@4HA 000000018002ea5c     libucrt:fflush.obj
 0002:0000ba5c       $unwind$_ctrlfp$filt$0     000000018002ea5c     libucrt:fpctrl.obj
 0002:0000ba5c       $unwind$common_control87$filt$0 000000018002ea5c     libucrt:ieee.obj
 0002:0000ba64       $unwind$?AtlInternalOleLoadFromStream@ATL@@YAJPEAUIStream@@AEBU_GUID@@PEAPEAXTClassesAllowedInStream@1@K@Z 000000018002ea64     LineDisplay.obj
 0002:0000ba80       $unwind$?ReadFromStream@CComBSTR@ATL@@QEAAJPEAUIStream@@@Z 000000018002ea80     LineDisplay.obj
 0002:0000ba80       $unwind$_configure_narrow_argv 000000018002ea80     libucrt:argv_parsing.obj
 0002:0000ba94       $unwind$?WriteToStream@CComVariant@ATL@@QEAAJPEAUIStream@@@Z 000000018002ea94     LineDisplay.obj
 0002:0000baa8       $unwind$?RegOpenKeyExW@CAtlTransactionManager@ATL@@QEAAJPEAUHKEY__@@PEB_WKKPEAPEAU3@@Z 000000018002eaa8     LineDisplay.obj
 0002:0000baa8       $unwind$?WriteToStream@CComVariant@ATL@@QEAAJPEAUIStream@@G@Z 000000018002eaa8     LineDisplay.obj
 0002:0000baa8       $unwind$__dcrt_write_console 000000018002eaa8     libucrt:initcon.obj
 0002:0000baa8       $unwind$??$__acrt_wcs_to_mbs_cp@U__crt_win32_buffer_no_resizing@@@@YAHQEB_WAEAV?$__crt_win32_buffer@DU__crt_win32_buffer_no_resizing@@@@I@Z 000000018002eaa8     libucrt:getmodulefilenamea.obj
 0002:0000babc       $unwind$?ReadFromStream@CComVariant@ATL@@QEAAJPEAUIStream@@GTClassesAllowedInStream@2@K@Z 000000018002eabc     LineDisplay.obj
 0002:0000bad4       $unwind$?GetSizeMax@CComVariant@ATL@@QEBAJPEAT_ULARGE_INTEGER@@@Z 000000018002ead4     LineDisplay.obj
 0002:0000baec       $unwind$?RegCreateKeyExW@CAtlTransactionManager@ATL@@QEAAJPEAUHKEY__@@PEB_WKPEA_WKKQEAU_SECURITY_ATTRIBUTES@@PEAPEAU3@PEAK@Z 000000018002eaec     LineDisplay.obj
 0002:0000bb00       $unwind$?GetGITPtr@CAtlModule@ATL@@UEAAJPEAPEAUIGlobalInterfaceTable@@@Z 000000018002eb00     LineDisplay.obj
 0002:0000bb00       $unwind$?RegDeleteKeyW@CAtlTransactionManager@ATL@@QEAAJPEAUHKEY__@@PEB_W@Z 000000018002eb00     LineDisplay.obj
 0002:0000bb00       $unwind$?getStateFromIterators@UWMap4@FH4@@SAHAEBViterator@12@H0H0@Z 000000018002eb00     libvcruntime:frame.obj
 0002:0000bb10       $unwind$?AtlHiMetricToPixel@ATL@@YAXPEBUtagSIZE@@PEAU2@@Z 000000018002eb10     LineDisplay.obj
 0002:0000bb10       $unwind$?AtlInternalQueryInterface@ATL@@YAJPEAXPEBU_ATL_INTMAP_ENTRY@1@AEBU_GUID@@PEAPEAX@Z 000000018002eb10     LineDisplay.obj
 0002:0000bb28       $unwind$?Append@CParseBuffer@CRegParser@ATL@@QEAAHPEB_WH@Z 000000018002eb28     LineDisplay.obj
 0002:0000bb28       $unwind$?AtlComModuleGetClassObject@ATL@@YAJPEAU_ATL_COM_MODULE70@1@AEBU_GUID@@1PEAPEAX@Z 000000018002eb28     LineDisplay.obj
 0002:0000bb28       $unwind$?EnumConnections@?$IConnectionPointImpl@VCOPOSLineDisplay@@$1?DIID__IOPOSLineDisplayEvents@@3U_GUID@@BVCComDynamicUnkArray@ATL@@@ATL@@UEAAJPEAPEAUIEnumConnections@@@Z 000000018002eb28     LineDisplay.obj
 0002:0000bb28       $unwind$?EnumConnections@?$IConnectionPointImpl@VCOPOSLineDisplay@@$1?IID_IPropertyNotifySink@@3U_GUID@@BVCComDynamicUnkArray@ATL@@@ATL@@UEAAJPEAPEAUIEnumConnections@@@Z 000000018002eb28     LineDisplay.obj
 0002:0000bb28       $unwind$?GetClassObject@CComModule@ATL@@QEAAJAEBU_GUID@@0PEAPEAX@Z 000000018002eb28     LineDisplay.obj
 0002:0000bb28       $unwind$?Init@?$CComEnumImpl@UIEnumConnectionPoints@@$1?_GUID_b196b285_bab4_101a_b69c_00aa00341d07@@3U__s_GUID@@BPEAUIConnectionPoint@@V?$_CopyInterface@UIConnectionPoint@@@ATL@@@ATL@@QEAAJPEAPEAUIConnectionPoint@@0PEAUIUnknown@@W4CComEnumFlags@2@@Z 000000018002eb28     LineDisplay.obj
 0002:0000bb28       $unwind$?Init@?$CComEnumImpl@UIEnumConnections@@$1?_GUID_b196b287_bab4_101a_b69c_00aa00341d07@@3U__s_GUID@@BUtagCONNECTDATA@@V?$_Copy@UtagCONNECTDATA@@@ATL@@@ATL@@QEAAJPEAUtagCONNECTDATA@@0PEAUIUnknown@@W4CComEnumFlags@2@@Z 000000018002eb28     LineDisplay.obj
 0002:0000bb28       $unwind$?NextToken@CRegParser@ATL@@IEAAJPEA_W@Z 000000018002eb28     LineDisplay.obj
 0002:0000bb28       $unwind$__acrt_fp_strflt_to_string 000000018002eb28     libucrt:_fptostr.obj
 0002:0000bb28       $unwind$__acrt_DownlevelLocaleNameToLCID 000000018002eb28     libucrt:lcidtoname_downlevel.obj
 0002:0000bb28       $unwind$??R<lambda_f03950bc5685219e0bcd2087efbe011e>@@QEBAHXZ 000000018002eb28     libucrt:onexit.obj
 0002:0000bb40       $unwind$?AtlRegisterClassCategoriesHelper@ATL@@YAJAEBU_GUID@@PEBU_ATL_CATMAP_ENTRY@1@H@Z 000000018002eb40     LineDisplay.obj
 0002:0000bb64       $unwind$?AtlLoadTypeLib@ATL@@YAJPEAUHINSTANCE__@@PEB_WPEAPEA_WPEAPEAUITypeLib@@@Z 000000018002eb64     LineDisplay.obj
 0002:0000bb84       $unwind$?AtlRegisterTypeLib@ATL@@YAJPEAUHINSTANCE__@@PEB_W@Z 000000018002eb84     LineDisplay.obj
 0002:0000bba0       $unwind$?AtlUnRegisterTypeLib@ATL@@YAJPEAUHINSTANCE__@@PEB_W@Z 000000018002eba0     LineDisplay.obj
 0002:0000bba8       $unwind$?GetTI@CComTypeInfoHolder@ATL@@QEAAJK@Z 000000018002eba8     LineDisplay.obj
 0002:0000bba8       $unwind$?RecurseDeleteKey@CRegKey@ATL@@QEAAJPEB_W@Z 000000018002eba8     LineDisplay.obj
 0002:0000bbc8       $unwind$?UpdateRegistryFromResource@CAtlModule@ATL@@QEAAJIHPEAU_ATL_REGMAP_ENTRY@2@@Z 000000018002ebc8     LineDisplay.obj
 0002:0000bbc8       $unwind$?UpdateRegistryFromResource@CAtlModule@ATL@@QEAAJPEB_WHPEAU_ATL_REGMAP_ENTRY@2@@Z 000000018002ebc8     LineDisplay.obj
 0002:0000bbe8       $unwind$?Lookup@?$CSimpleMap@PEA_WPEA_WVCExpansionVectorEqualHelper@ATL@@@ATL@@QEBAPEA_WAEBQEA_W@Z 000000018002ebe8     LineDisplay.obj
 0002:0000bbe8       $unwind$__std_exception_copy 000000018002ebe8     libvcruntime:std_exception.obj
 0002:0000bbe8       $unwind$_free_osfhnd       000000018002ebe8     libucrt:osfinfo.obj
 0002:0000bbfc       $unwind$?Add@CExpansionVector@ATL@@QEAAHPEB_W0@Z 000000018002ebfc     LineDisplay.obj
 0002:0000bc14       $unwind$?PreProcessBuffer@CRegParser@ATL@@QEAAJPEA_WPEAPEA_W@Z 000000018002ec14     LineDisplay.obj
 0002:0000bc38       $unwind$?RegisterBuffer@CRegParser@ATL@@QEAAJPEA_WH@Z 000000018002ec38     LineDisplay.obj
 0002:0000bc58       $unwind$?AddValue@CRegParser@ATL@@IEAAJAEAVCRegKey@2@PEB_WPEA_W@Z 000000018002ec58     LineDisplay.obj
 0002:0000bc78       $unwind$?RegisterSubkeys@CRegParser@ATL@@IEAAJPEA_WPEAUHKEY__@@HH@Z 000000018002ec78     LineDisplay.obj
 0002:0000bc98       $unwind$?SkipAssignment@CRegParser@ATL@@IEAAJPEA_W@Z 000000018002ec98     LineDisplay.obj
 0002:0000bcb0       $unwind$?RegisterFromResource@CRegObject@ATL@@IEAAJPEB_W00H@Z 000000018002ecb0     LineDisplay.obj
 0002:0000bcd0       $unwind$?Cleanup@CComTypeInfoHolder@ATL@@SAX_K@Z 000000018002ecd0     LineDisplay.obj
 0002:0000bcd0       $unwind$AtlThunk_FreeData  000000018002ecd0     atls:atlthunk.obj
 0002:0000bcd0       $unwind$_free_base         000000018002ecd0     libucrt:free_base.obj
 0002:0000bcd0       $unwind$?destroy_fls@@YAXPEAX@Z 000000018002ecd0     libucrt:per_thread_data.obj
 0002:0000bcd0       $unwind$__acrt_locale_free_numeric 000000018002ecd0     libucrt:initnum.obj
 0002:0000bcd0       $unwind$__acrt_locale_free_lc_time_if_unreferenced 000000018002ecd0     libucrt:locale_refcounting.obj
 0002:0000bcd8       $unwind$?GetIDsOfNames@CComTypeInfoHolder@ATL@@QEAAJAEBU_GUID@@PEAPEA_WIKPEAJ@Z 000000018002ecd8     LineDisplay.obj
 0002:0000bcf4       $unwind$?LoadNameCache@CComTypeInfoHolder@ATL@@QEAAJPEAUITypeInfo@@@Z 000000018002ecf4     LineDisplay.obj
 0002:0000bd08       $unwind$?StartWindowProc@?$CWindowImplBaseT@VCWindow@ATL@@V?$CWinTraits@$0FGAAAAAA@$0A@@2@@ATL@@SA_JPEAUHWND__@@I_K_J@Z 000000018002ed08     LineDisplay.obj
 0002:0000bd08       $unwind$?should_round_up@@YA_NQEBN_KFW4__acrt_rounding_mode@@@Z 000000018002ed08     libucrt:cvt.obj
 0002:0000bd08       $unwind$??$parse_command_line@D@@YAXPEADPEAPEAD0PEA_K2@Z 000000018002ed08     libucrt:argv_parsing.obj
 0002:0000bd24       $unwind$?WindowProc@?$CWindowImplBaseT@VCWindow@ATL@@V?$CWinTraits@$0FGAAAAAA@$0A@@2@@ATL@@SA_JPEAUHWND__@@I_K_J@Z 000000018002ed24     LineDisplay.obj
 0002:0000bd3c       $unwind$?atlCreate@?$CWindowImplBaseT@VCWindow@ATL@@V?$CWinTraits@$0FGAAAAAA@$0A@@2@@ATL@@QEAAPEAUHWND__@@PEAU3@V_U_RECT@2@PEB_WKKV_U_MENUorID@2@GPEAX@Z 000000018002ed3c     LineDisplay.obj
 0002:0000bd54       $unwind$??$AtlModuleRegisterWndClassInfoT@VAtlModuleRegisterWndClassInfoParamW@ATL@@@ATL@@YAGPEAU_ATL_BASE_MODULE70@0@PEAU_ATL_WIN_MODULE70@0@PEAU_ATL_WNDCLASSINFOW@0@PEAP6A_JPEAUHWND__@@I_K_J@ZVAtlModuleRegisterWndClassInfoParamW@0@@Z 000000018002ed54     LineDisplay.obj
 0002:0000bd74       $unwind$?GetZoomInfo@CComControlBase@ATL@@QEAAXAEAUATL_DRAWINFO@@@Z 000000018002ed74     LineDisplay.obj
 0002:0000bd74       $unwind$?OnKillFocus@CComControlBase@ATL@@QEAA_JI_K_JAEAH@Z 000000018002ed74     LineDisplay.obj
 0002:0000bd74       $unwind$iswctype           000000018002ed74     libucrt:iswctype.obj
 0002:0000bd80       $unwind$?SendOnDataChange@CComControlBase@ATL@@QEAAJK@Z 000000018002ed80     LineDisplay.obj
 0002:0000bd90       $unwind$?OnSetFocus@CComControlBase@ATL@@QEAA_JI_K_JAEAH@Z 000000018002ed90     LineDisplay.obj
 0002:0000bda0       $unwind$?OnMouseActivate@CComControlBase@ATL@@QEAA_JI_K_JAEAH@Z 000000018002eda0     LineDisplay.obj
 0002:0000bda8       $unwind$?GetAmbientLocaleID@CComControlBase@ATL@@QEAAJAEAK@Z 000000018002eda8     LineDisplay.obj
 0002:0000bda8       $unwind$?GetAmbientUserMode@CComControlBase@ATL@@QEAAJAEAH@Z 000000018002eda8     LineDisplay.obj
 0002:0000bdb8       $unwind$?IQuickActivate_QuickActivate@CComControlBase@ATL@@QEAAJPEAUtagQACONTAINER@@PEAUtagQACONTROL@@@Z 000000018002edb8     LineDisplay.obj
 0002:0000bdd0       $unwind$?DoVerbProperties@CComControlBase@ATL@@QEAAJPEBUtagRECT@@PEAUHWND__@@@Z 000000018002edd0     LineDisplay.obj
 0002:0000bde8       $unwind$?InPlaceActivate@CComControlBase@ATL@@QEAAJJPEBUtagRECT@@@Z 000000018002ede8     LineDisplay.obj
 0002:0000be08       $unwind$?IOleObject_Close@CComControlBase@ATL@@QEAAJK@Z 000000018002ee08     LineDisplay.obj
 0002:0000be08       $unwind$?type_case_c_tchar@?$output_processor@_WV?$string_output_adapter@_W@__crt_stdio_output@@V?$format_validation_base@_WV?$string_output_adapter@_W@__crt_stdio_output@@@2@@__crt_stdio_output@@AEAA_N_W@Z 000000018002ee08     libucrt:output.obj
 0002:0000be18       $unwind$?IOleInPlaceObject_UIDeactivate@CComControlBase@ATL@@QEAAJXZ 000000018002ee18     LineDisplay.obj
 0002:0000be30       $unwind$?IOleInPlaceObject_SetObjectRects@CComControlBase@ATL@@QEAAJPEBUtagRECT@@0@Z 000000018002ee30     LineDisplay.obj
 0002:0000be44       $unwind$?IViewObject_Draw@CComControlBase@ATL@@QEAAJKJPEAXPEAUtagDVTARGETDEVICE@@PEAUHDC__@@2PEBU_RECTL@@3@Z 000000018002ee44     LineDisplay.obj
 0002:0000be60       $unwind$?IDataObject_GetData@CComControlBase@ATL@@QEAAJPEAUtagFORMATETC@@PEAUtagSTGMEDIUM@@@Z 000000018002ee60     LineDisplay.obj
 0002:0000be80       $unwind$?OnPaint@CComControlBase@ATL@@QEAA_JI_K_JAEAH@Z 000000018002ee80     LineDisplay.obj
 0002:0000be9c       $unwind$?OnDrawAdvanced@CComControlBase@ATL@@UEAAJAEAUATL_DRAWINFO@@@Z 000000018002ee9c     LineDisplay.obj
 0002:0000beb8       $unwind$?Invoke@?$IDispatchImpl@UIOPOSLineDisplay@@$1?IID_IOPOSLineDisplay@@3U_GUID@@B$1?LIBID_OposLineDisplay_CCO@@3U3@B$00$0A@VCComTypeInfoHolder@ATL@@@ATL@@UEAAJJAEBU_GUID@@KGPEAUtagDISPPARAMS@@PEAUtagVARIANT@@PEAUtagEXCEPINFO@@PEAI@Z 000000018002eeb8     LineDisplay.obj
 0002:0000beb8       $unwind$?ReleaseDevice@COPOSLineDisplay@@UEAAJPEAJ@Z 000000018002eeb8     LineDisplayImpl.obj
 0002:0000beb8       $unwind$_mbsdec_l          000000018002eeb8     libucrt:mbsdec.obj
 0002:0000bec4       $unwind$?atlCreate@?$CWindowImpl@VCOPOSLineDisplay@@VCWindow@ATL@@V?$CWinTraits@$0FGAAAAAA@$0A@@3@@ATL@@QEAAPEAUHWND__@@PEAU3@V_U_RECT@2@PEB_WKKV_U_MENUorID@2@PEAX@Z 000000018002eec4     LineDisplay.obj
 0002:0000bec4       $unwind$?fp_format_e@@YAHQEBNQEAD_K12H_NIQEAU__crt_locale_pointers@@W4__acrt_rounding_mode@@@Z 000000018002eec4     libucrt:cvt.obj
 0002:0000bec4       $unwind$_mbtowc_l          000000018002eec4     libucrt:mbtowc.obj
 0002:0000bec4       $unwind$__acrt_LCMapStringEx 000000018002eec4     libucrt:winapi_thunks.obj
 0002:0000bed8       $unwind$?CreateControlWindow@?$CComControl@VCOPOSLineDisplay@@V?$CWindowImpl@VCOPOSLineDisplay@@VCWindow@ATL@@V?$CWinTraits@$0FGAAAAAA@$0A@@3@@ATL@@@ATL@@UEAAPEAUHWND__@@PEAU3@AEAUtagRECT@@@Z 000000018002eed8     LineDisplay.obj
 0002:0000bed8       $unwind$?ClearDescriptors@COPOSLineDisplay@@UEAAJPEAJ@Z 000000018002eed8     LineDisplayImpl.obj
 0002:0000bed8       $unwind$?ClearText@COPOSLineDisplay@@UEAAJPEAJ@Z 000000018002eed8     LineDisplayImpl.obj
 0002:0000bed8       $unwind$?DestroyWindow@COPOSLineDisplay@@UEAAJPEAJ@Z 000000018002eed8     LineDisplayImpl.obj
 0002:0000bed8       $unwind$?__scrt_throw_std_bad_alloc@@YAXXZ 000000018002eed8     LIBCMT:throw_bad_alloc.obj
 0002:0000bed8       $unwind$?__scrt_throw_std_bad_array_new_length@@YAXXZ 000000018002eed8     LIBCMT:throw_bad_alloc.obj
 0002:0000bed8       $unwind$_raise_exc         000000018002eed8     libucrt:fpexcept.obj
 0002:0000bee0       $unwind$?GetSizeMax@?$IPersistStreamInitImpl@VCOPOSLineDisplay@@@ATL@@UEAAJPEAT_ULARGE_INTEGER@@@Z 000000018002eee0     LineDisplay.obj
 0002:0000bef8       $unwind$?IPersistStreamInit_Load@?$IPersistStreamInitImpl@VCOPOSLineDisplay@@@ATL@@QEAAJPEAUIStream@@PEBUATL_PROPMAP_ENTRY@2@@Z 000000018002eef8     LineDisplay.obj
 0002:0000bf14       $unwind$?IPersistStreamInit_Save@?$IPersistStreamInitImpl@VCOPOSLineDisplay@@@ATL@@QEAAJPEAUIStream@@HPEBUATL_PROPMAP_ENTRY@2@@Z 000000018002ef14     LineDisplay.obj
 0002:0000bf30       $unwind$?DoVerbPrimary@?$IOleObjectImpl@VCOPOSLineDisplay@@@ATL@@QEAAJPEBUtagRECT@@PEAUHWND__@@@Z 000000018002ef30     LineDisplay.obj
 0002:0000bf30       $unwind$?ScrollText@COPOSLineDisplay@@UEAAJJJPEAJ@Z 000000018002ef30     LineDisplayImpl.obj
 0002:0000bf30       $unwind$?SetDescriptor@COPOSLineDisplay@@UEAAJJJPEAJ@Z 000000018002ef30     LineDisplayImpl.obj
 0002:0000bf48       $unwind$?TranslateAcceleratorW@?$IOleInPlaceActiveObjectImpl@VCOPOSLineDisplay@@@ATL@@UEAAJPEAUtagMSG@@@Z 000000018002ef48     LineDisplay.obj
 0002:0000bf54       $unwind$?Draw@?$IViewObjectExImpl@VCOPOSLineDisplay@@@ATL@@UEAAJKJPEAXPEAUtagDVTARGETDEVICE@@PEAUHDC__@@2PEBU_RECTL@@3P6AH_K@Z4@Z 000000018002ef54     LineDisplay.obj
 0002:0000bf5c       $unwind$?QueryHitRect@?$IViewObjectExImpl@VCOPOSLineDisplay@@@ATL@@UEAAJKPEBUtagRECT@@0JPEAK@Z 000000018002ef5c     LineDisplay.obj
 0002:0000bf6c       $unwind$?OnWindowMessage@?$IOleInPlaceObjectWindowlessImpl@VCOPOSLineDisplay@@@ATL@@UEAAJI_K_JPEA_J@Z 000000018002ef6c     LineDisplay.obj
 0002:0000bf80       $unwind$?EnumConnectionPoints@?$IConnectionPointContainerImpl@VCOPOSLineDisplay@@@ATL@@UEAAJPEAPEAUIEnumConnectionPoints@@@Z 000000018002ef80     LineDisplay.obj
 0002:0000bfa8       $unwind$?FindConnectionPoint@?$IConnectionPointContainerImpl@VCOPOSLineDisplay@@@ATL@@UEAAJAEBU_GUID@@PEAPEAUIConnectionPoint@@@Z 000000018002efa8     LineDisplay.obj
 0002:0000bfa8       $unwind$?__mbrtoc32_utf8@__crt_mbstring@@YA_KPEA_UPEBD_KPEAU_Mbstatet@@@Z 000000018002efa8     libucrt:mbrtoc32.obj
 0002:0000bfc4       $unwind$?Load@?$IPersistStorageImpl@VCOPOSLineDisplay@@@ATL@@UEAAJPEAUIStorage@@@Z 000000018002efc4     LineDisplay.obj
 0002:0000bfd4       $unwind$?Save@?$IPersistStorageImpl@VCOPOSLineDisplay@@@ATL@@UEAAJPEAUIStorage@@H@Z 000000018002efd4     LineDisplay.obj
 0002:0000bfe8       $unwind$?IPSI_GetIPersistStreamInit@?$IPersistStorageImpl@VCOPOSLineDisplay@@@ATL@@AEAAPEAUIPersistStreamInit@@XZ 000000018002efe8     LineDisplay.obj
 0002:0000bfe8       $unwind$?parse_int_from_format_string@?$output_processor@_WV?$string_output_adapter@_W@__crt_stdio_output@@V?$format_validation_base@_WV?$string_output_adapter@_W@__crt_stdio_output@@@2@@__crt_stdio_output@@AEAA_NQEAH@Z 000000018002efe8     libucrt:output.obj
 0002:0000bffc       $unwind$?GetInterfaceSafetyOptions@?$IObjectSafetyImpl@VCOPOSLineDisplay@@$02@ATL@@UEAAJAEBU_GUID@@PEAK1@Z 000000018002effc     LineDisplay.obj
 0002:0000c010       $unwind$?SetInterfaceSafetyOptions@?$IObjectSafetyImpl@VCOPOSLineDisplay@@$02@ATL@@UEAAJAEBU_GUID@@KK@Z 000000018002f010     LineDisplay.obj
 0002:0000c024       $unwind$?Advise@?$IConnectionPointImpl@VCOPOSLineDisplay@@$1?DIID__IOPOSLineDisplayEvents@@3U_GUID@@BVCComDynamicUnkArray@ATL@@@ATL@@UEAAJPEAUIUnknown@@PEAK@Z 000000018002f024     LineDisplay.obj
 0002:0000c024       $unwind$?Advise@?$IConnectionPointImpl@VCOPOSLineDisplay@@$1?IID_IPropertyNotifySink@@3U_GUID@@BVCComDynamicUnkArray@ATL@@@ATL@@UEAAJPEAUIUnknown@@PEAK@Z 000000018002f024     LineDisplay.obj
 0002:0000c038       $unwind$?Fire_DirectIOEvent@?$CProxy_IOPOSEvents@VCOPOSLineDisplay@@@@QEAAXJPEAJPEAPEA_W@Z 000000018002f038     LineDisplay.obj
 0002:0000c058       $unwind$?Fire_StatusUpdateEvent@?$CProxy_IOPOSEvents@VCOPOSLineDisplay@@@@QEAAXJ@Z 000000018002f058     LineDisplay.obj
 0002:0000c070       $unwind$?FireTheEvent@?$CProxy_IOPOSEvents@VCOPOSLineDisplay@@@@IEAAXPEAVOposVariant@@IAEAJPEB_WJ@Z 000000018002f070     LineDisplay.obj
 0002:0000c080       $unwind$?ProcessWindowMessage@COPOSLineDisplay@@UEAAHPEAUHWND__@@I_K_JAEA_JK@Z 000000018002f080     LineDisplay.obj
 0002:0000c080       $unwind$__dcrt_get_narrow_environment_from_os 000000018002f080     libucrt:get_environment_from_os.obj
 0002:0000c080       $unwind$?fp_format_f_internal@@YAHQEAD_KHQEAU_strflt@@_NQEAU__crt_locale_pointers@@@Z 000000018002f080     libucrt:cvt.obj
 0002:0000c080       $unwind$??$__acrt_wcs_to_mbs_cp@U__crt_win32_buffer_internal_dynamic_resizing@@@@YAHQEB_WAEAV?$__crt_win32_buffer@DU__crt_win32_buffer_internal_dynamic_resizing@@@@I@Z 000000018002f080     libucrt:argv_wildcards.obj
 0002:0000c098       $unwind$?Clone@?$CComEnumImpl@UIEnumConnectionPoints@@$1?_GUID_b196b285_bab4_101a_b69c_00aa00341d07@@3U__s_GUID@@BPEAUIConnectionPoint@@V?$_CopyInterface@UIConnectionPoint@@@ATL@@@ATL@@UEAAJPEAPEAUIEnumConnectionPoints@@@Z 000000018002f098     LineDisplay.obj
 0002:0000c098       $unwind$?Clone@?$CComEnumImpl@UIEnumConnections@@$1?_GUID_b196b287_bab4_101a_b69c_00aa00341d07@@3U__s_GUID@@BUtagCONNECTDATA@@V?$_Copy@UtagCONNECTDATA@@@ATL@@@ATL@@UEAAJPEAPEAUIEnumConnections@@@Z 000000018002f098     LineDisplay.obj
 0002:0000c0b0       $unwind$?GetOposProp@COPOSLineDisplay@@IEAAJJPEAJJ@Z 000000018002f0b0     LineDisplayImpl.obj
 0002:0000c0b0       $unwind$?GetOposProp@COPOSLineDisplay@@IEAAJJPEAPEA_WJ@Z 000000018002f0b0     LineDisplayImpl.obj
 0002:0000c0c8       $unwind$?SetOposProp@COPOSLineDisplay@@IEAAJJJJ@Z 000000018002f0c8     LineDisplayImpl.obj
 0002:0000c0e8       $unwind$?DoInvoke@COPOSLineDisplay@@IEAAJJPEAVOposVariant@@IHPEAJ_N@Z 000000018002f0e8     LineDisplayImpl.obj
 0002:0000c100       $unwind$?SetCOFreezeEvents@COPOSLineDisplay@@IEAAXF@Z 000000018002f100     LineDisplayImpl.obj
 0002:0000c114       $unwind$?OnDraw@COPOSLineDisplay@@MEAAJAEAUATL_DRAWINFO@@@Z 000000018002f114     LineDisplayImpl.obj
 0002:0000c12c       $unwind$?EventInit@COPOSLineDisplay@@IEAAJXZ 000000018002f12c     LineDisplayImpl.obj
 0002:0000c140       $unwind$?get_ControlObjectDescription@COPOSLineDisplay@@UEAAJPEAPEA_W@Z 000000018002f140     LineDisplayImpl.obj
 0002:0000c140       $unwind$__dcrt_lowio_ensure_console_output_initialized 000000018002f140     libucrt:initcon.obj
 0002:0000c140       $unwind$_isleadbyte_l      000000018002f140     libucrt:_wctype.obj
 0002:0000c140       $unwind$?getSystemCP@@YAHH@Z 000000018002f140     libucrt:mbctype.obj
 0002:0000c148       $unwind$?CheckHealth@COPOSLineDisplay@@UEAAJJPEAJ@Z 000000018002f148     LineDisplayImpl.obj
 0002:0000c148       $unwind$?ReadCharacterAtCursor@COPOSLineDisplay@@UEAAJPEAJ0@Z 000000018002f148     LineDisplayImpl.obj
 0002:0000c148       $unwind$?RefreshWindow@COPOSLineDisplay@@UEAAJJPEAJ@Z 000000018002f148     LineDisplayImpl.obj
 0002:0000c148       $unwind$?ResetStatistics@COPOSLineDisplay@@UEAAJPEA_WPEAJ@Z 000000018002f148     LineDisplayImpl.obj
 0002:0000c148       $unwind$?RetrieveStatistics@COPOSLineDisplay@@UEAAJPEAPEA_WPEAJ@Z 000000018002f148     LineDisplayImpl.obj
 0002:0000c148       $unwind$?UpdateFirmware@COPOSLineDisplay@@UEAAJPEA_WPEAJ@Z 000000018002f148     LineDisplayImpl.obj
 0002:0000c148       $unwind$?UpdateStatistics@COPOSLineDisplay@@UEAAJPEA_WPEAJ@Z 000000018002f148     LineDisplayImpl.obj
 0002:0000c158       $unwind$?ClaimDevice@COPOSLineDisplay@@UEAAJJPEAJ@Z 000000018002f158     LineDisplayImpl.obj
 0002:0000c168       $unwind$?Close@COPOSLineDisplay@@UEAAJPEAJ@Z 000000018002f168     LineDisplayImpl.obj
 0002:0000c174       $unwind$?DirectIO@COPOSLineDisplay@@UEAAJJPEAJPEAPEA_W0@Z 000000018002f174     LineDisplayImpl.obj
 0002:0000c190       $unwind$?Open@COPOSLineDisplay@@UEAAJPEA_WPEAJ@Z 000000018002f190     LineDisplayImpl.obj
 0002:0000c1b4       $unwind$?CreateWindow@COPOSLineDisplay@@UEAAJJJJJJJPEAJ@Z 000000018002f1b4     LineDisplayImpl.obj
 0002:0000c1d0       $unwind$?CompareFirmwareVersion@COPOSLineDisplay@@UEAAJPEA_WPEAJ1@Z 000000018002f1d0     LineDisplayImpl.obj
 0002:0000c1d0       $unwind$?DefineGlyph@COPOSLineDisplay@@UEAAJJPEA_WPEAJ@Z 000000018002f1d0     LineDisplayImpl.obj
 0002:0000c1d0       $unwind$?DisplayText@COPOSLineDisplay@@UEAAJPEA_WJPEAJ@Z 000000018002f1d0     LineDisplayImpl.obj
 0002:0000c1d0       $unwind$?initialize_inherited_file_handles_nolock@@YAXXZ 000000018002f1d0     libucrt:ioinit.obj
 0002:0000c1ec       $unwind$?DisplayBitmap@COPOSLineDisplay@@UEAAJPEA_WJJJPEAJ@Z 000000018002f1ec     LineDisplayImpl.obj
 0002:0000c1ec       $unwind$?DisplayTextAt@COPOSLineDisplay@@UEAAJJJPEA_WJPEAJ@Z 000000018002f1ec     LineDisplayImpl.obj
 0002:0000c208       $unwind$?SetBitmap@COPOSLineDisplay@@UEAAJJPEA_WJJJPEAJ@Z 000000018002f208     LineDisplayImpl.obj
 0002:0000c228       $unwind$__scrt_is_nonwritable_in_current_image 000000018002f228     LIBCMT:utility.obj
 0002:0000c248       $unwind$__scrt_is_nonwritable_in_current_image$filt$0 000000018002f248     LIBCMT:utility.obj
 0002:0000c250       $unwind$__report_securityfailure 000000018002f250     LIBCMT:gs_report.obj
 0002:0000c258       $unwind$__report_gsfailure 000000018002f258     LIBCMT:gs_report.obj
 0002:0000c260       $unwind$capture_current_context 000000018002f260     LIBCMT:gs_report.obj
 0002:0000c26c       $unwind$capture_previous_context 000000018002f26c     LIBCMT:gs_report.obj
 0002:0000c278       $unwind$??2@YAPEAX_KAEBUnothrow_t@std@@@Z 000000018002f278     LIBCMT:new_scalar_nothrow.obj
 0002:0000c288       $cppxdata$??2@YAPEAX_KAEBUnothrow_t@std@@@Z 000000018002f288     LIBCMT:new_scalar_nothrow.obj
 0002:0000c295       $stateUnwindMap$??2@YAPEAX_KAEBUnothrow_t@std@@@Z 000000018002f295     LIBCMT:new_scalar_nothrow.obj
 0002:0000c298       $tryMap$??2@YAPEAX_KAEBUnothrow_t@std@@@Z 000000018002f298     LIBCMT:new_scalar_nothrow.obj
 0002:0000c2a0       $handlerMap$??2@YAPEAX_KAEBUnothrow_t@std@@@Z 000000018002f2a0     LIBCMT:new_scalar_nothrow.obj
 0002:0000c2a8       $ip2state$??2@YAPEAX_KAEBUnothrow_t@std@@@Z 000000018002f2a8     LIBCMT:new_scalar_nothrow.obj
 0002:0000c2ac       $unwind$?catch$0@?0???2@YAPEAX_KAEBUnothrow_t@std@@@Z@4HA 000000018002f2ac     LIBCMT:new_scalar_nothrow.obj
 0002:0000c2bc       $cppxdata$?catch$0@?0???2@YAPEAX_KAEBUnothrow_t@std@@@Z@4HA 000000018002f2bc     LIBCMT:new_scalar_nothrow.obj
 0002:0000c2c6       $stateUnwindMap$?catch$0@?0???2@YAPEAX_KAEBUnothrow_t@std@@@Z@4HA 000000018002f2c6     LIBCMT:new_scalar_nothrow.obj
 0002:0000c2c8       $ip2state$?catch$0@?0???2@YAPEAX_KAEBUnothrow_t@std@@@Z@4HA 000000018002f2c8     LIBCMT:new_scalar_nothrow.obj
 0002:0000c2cc       $unwind$__GSHandlerCheckCommon 000000018002f2cc     LIBCMT:gshandler.obj
 0002:0000c2d8       $xdatasym                  000000018002f2d8     LIBCMT:chkstk.obj
 0002:0000c2e0       $xdatasym                  000000018002f2e0     LIBCMT:amdsecgs.obj
 0002:0000c2e4       $unwind$?dllmain_crt_process_attach@@YAHQEAUHINSTANCE__@@QEAX@Z 000000018002f2e4     LIBCMT:dll_dllmain.obj
 0002:0000c320       $unwind$?dllmain_crt_process_detach@@YAH_N@Z 000000018002f320     LIBCMT:dll_dllmain.obj
 0002:0000c374       $unwind$?dllmain_dispatch@@YAHQEAUHINSTANCE__@@KQEAX@Z 000000018002f374     LIBCMT:dll_dllmain.obj
 0002:0000c39c       $unwind$?filt$0@?0??dllmain_dispatch@@YAHQEAUHINSTANCE__@@KQEAX@Z@4HA 000000018002f39c     LIBCMT:dll_dllmain.obj
 0002:0000c39c       $unwind$?filt$0@?0??FrameUnwindToState@__FrameHandler4@@SAXPEA_KPEAU_xDISPATCHER_CONTEXT@@PEAUFuncInfo4@FH4@@H@Z@4HA 000000018002f39c     libvcruntime:frame.obj
 0002:0000c39c       $unwind$?fin$1@?0??FrameUnwindToState@__FrameHandler4@@SAXPEA_KPEAU_xDISPATCHER_CONTEXT@@PEAUFuncInfo4@FH4@@H@Z@4HA 000000018002f39c     libvcruntime:frame.obj
 0002:0000c3a4       $unwind$__isa_available_init 000000018002f3a4     LIBCMT:cpu_disp.obj
 0002:0000c3b4       $unwind$__scrt_fastfail    000000018002f3b4     LIBCMT:utility_desktop.obj
 0002:0000c3c4       $unwind$__security_init_cookie 000000018002f3c4     LIBCMT:gs_support.obj
 0002:0000c3d0       $xdatasym                  000000018002f3d0     LIBCMT:guard_dispatch.obj
 0002:0000c3d8       $xdatasym                  000000018002f3d8     LIBCMT:guard_xfg_dispatch.obj
 0002:0000c3dc       $unwind$AtlThunk_InitData  000000018002f3dc     atls:atlthunk.obj
 0002:0000c3f0       $unwind$wcsstr             000000018002f3f0     libvcruntime:wcsstr.obj
 0002:0000c408       $xdatasym                  000000018002f408     libvcruntime:memcmp.obj
 0002:0000c410       $xdatasym                  000000018002f410     libvcruntime:memcpy.obj
 0002:0000c420       $xdatasym                  000000018002f420     libvcruntime:memset.obj
 0002:0000c430       $unwind$__C_specific_handler 000000018002f430     libvcruntime:riscchandler.obj
 0002:0000c44c       $unwind$?DecompFuncInfo@FH4@@YA_JPEAEAEAUFuncInfo4@1@_KH_N@Z 000000018002f44c     libvcruntime:risctrnsctrl.obj
 0002:0000c464       $unwind$?UnwindNestedFrames@__FrameHandler4@@SAXPEA_KPEAUEHExceptionRecord@@PEAU_CONTEXT@@0PEAXPEAUFuncInfo4@FH4@@HHPEAUHandlerType4@5@PEAU_xDISPATCHER_CONTEXT@@E@Z 000000018002f464     libvcruntime:risctrnsctrl.obj
 0002:0000c478       $unwind$?GetRangeOfTrysToCheck@__FrameHandler4@@SA?AU?$pair@Viterator@TryBlockMap4@FH4@@V123@@std@@AEAVTryBlockMap4@FH4@@HPEAU_xDISPATCHER_CONTEXT@@PEAUFuncInfo4@5@H@Z 000000018002f478     libvcruntime:risctrnsctrl.obj
 0002:0000c494       $unwind$__CxxFrameHandler4 000000018002f494     libvcruntime:risctrnsctrl.obj
 0002:0000c4a8       $unwind$??$_CallSETranslator@V__FrameHandler4@@@@YAHPEAUEHExceptionRecord@@PEA_KPEAU_CONTEXT@@PEAU_xDISPATCHER_CONTEXT@@PEAUFuncInfo4@FH4@@K1H@Z 000000018002f4a8     libvcruntime:risctrnsctrl.obj
 0002:0000c4c8       $unwind$?filt$0@?0???$_CallSETranslator@V__FrameHandler4@@@@YAHPEAUEHExceptionRecord@@PEA_KPEAU_CONTEXT@@PEAU_xDISPATCHER_CONTEXT@@PEAUFuncInfo4@FH4@@K1H@Z@4HA 000000018002f4c8     libvcruntime:risctrnsctrl.obj
 0002:0000c4d4       $unwind$__DestructExceptionObject 000000018002f4d4     libvcruntime:ehhelpers.obj
 0002:0000c4f4       $unwind$__DestructExceptionObject$filt$0 000000018002f4f4     libvcruntime:ehhelpers.obj
 0002:0000c4f4       $unwind$?fin$1@?0??CxxCallCatchBlock@__FrameHandler4@@SAPEAXPEAU_EXCEPTION_RECORD@@@Z@4HA 000000018002f4f4     libvcruntime:frame.obj
 0002:0000c500       $unwind$_CxxThrowException 000000018002f500     libvcruntime:throw.obj
 0002:0000c510       $xdatasym                  000000018002f510     libvcruntime:notify.obj
 0002:0000c51c       $unwind$?StateFromIp@__FrameHandler4@@SAHPEAUFuncInfo4@FH4@@PEAU_xDISPATCHER_CONTEXT@@_K@Z 000000018002f51c     libvcruntime:ehstate.obj
 0002:0000c530       $unwind$?getStartStop@UWMap4@FH4@@QEAAXHHAEAViterator@12@0@Z 000000018002f530     libvcruntime:frame.obj
 0002:0000c548       $unwind$?FrameUnwindToState@__FrameHandler4@@SAXPEA_KPEAU_xDISPATCHER_CONTEXT@@PEAUFuncInfo4@FH4@@H@Z 000000018002f548     libvcruntime:frame.obj
 0002:0000c590       $unwind$?CxxCallCatchBlock@__FrameHandler4@@SAPEAXPEAU_EXCEPTION_RECORD@@@Z 000000018002f590     libvcruntime:frame.obj
 0002:0000c5ec       $unwind$?IsInExceptionSpec@@YAEPEAUEHExceptionRecord@@PEBU_s_ESTypeList@@@Z 000000018002f5ec     libvcruntime:frame.obj
 0002:0000c608       $unwind$??$__InternalCxxFrameHandler@V__FrameHandler4@@@@YA?AW4_EXCEPTION_DISPOSITION@@PEAUEHExceptionRecord@@PEA_KPEAU_CONTEXT@@PEAU_xDISPATCHER_CONTEXT@@PEAUFuncInfo4@FH4@@H1E@Z 000000018002f608     libvcruntime:frame.obj
 0002:0000c620       $unwind$??$BuildCatchObjectHelperInternal@V__FrameHandler4@@@@YAHPEAUEHExceptionRecord@@PEAXPEAUHandlerType4@FH4@@PEBU_s_CatchableType@@@Z 000000018002f620     libvcruntime:frame.obj
 0002:0000c660       $unwind$??$BuildCatchObjectInternal@V__FrameHandler4@@@@YAXPEAUEHExceptionRecord@@PEAXPEAUHandlerType4@FH4@@PEBU_s_CatchableType@@@Z 000000018002f660     libvcruntime:frame.obj
 0002:0000c68c       $unwind$??$FindHandler@V__FrameHandler4@@@@YAXPEAUEHExceptionRecord@@PEA_KPEAU_CONTEXT@@PEAU_xDISPATCHER_CONTEXT@@PEAUFuncInfo4@FH4@@EH1@Z 000000018002f68c     libvcruntime:frame.obj
 0002:0000c6ac       $unwind$??$CatchIt@V__FrameHandler4@@@@YAXPEAUEHExceptionRecord@@PEA_KPEAU_CONTEXT@@PEAU_xDISPATCHER_CONTEXT@@PEAUFuncInfo4@FH4@@PEAUHandlerType4@4@PEBU_s_CatchableType@@PEAUTryBlockMapEntry4@4@H1EE@Z 000000018002f6ac     libvcruntime:frame.obj
 0002:0000c6c4       $unwind$??$FindHandlerForForeignException@V__FrameHandler4@@@@YAXPEAUEHExceptionRecord@@PEA_KPEAU_CONTEXT@@PEAU_xDISPATCHER_CONTEXT@@PEAUFuncInfo4@FH4@@HH1@Z 000000018002f6c4     libvcruntime:frame.obj
 0002:0000c6e4       $unwind$?try_get_function@@YAPEAXW4function_id@?A0x5302d918@@QEBDQEBW4module_id@2@2@Z 000000018002f6e4     libvcruntime:winapi_downlevel.obj
 0002:0000c6e4       $unwind$?try_get_function@@YAPEAXW4function_id@?A0x391cf84c@@QEBDQEBW4module_id@2@2@Z 000000018002f6e4     libucrt:winapi_thunks.obj
 0002:0000c700       $xdatasym                  000000018002f700     libvcruntime:handlers.obj
 0002:0000c720       $unwind$__acrt_call_reportfault 000000018002f720     libucrt:invalid_parameter.obj
 0002:0000c740       $unwind$_invalid_parameter 000000018002f740     libucrt:invalid_parameter.obj
 0002:0000c754       $unwind$_resetstkoflw      000000018002f754     libucrt:resetstk.obj
 0002:0000c778       $unwind$__stdio_common_vswprintf_s 000000018002f778     libucrt:output.obj
 0002:0000c784       $unwind$?write_string@?$string_output_adapter@_W@__crt_stdio_output@@QEBAXQEB_WHQEAHAEAV__crt_deferred_errno_cache@@@Z 000000018002f784     libucrt:output.obj
 0002:0000c79c       $unwind$??$common_vsprintf@Vformat_validation_base@__crt_stdio_output@@_W@@YAH_KQEA_W0QEB_WQEAU__crt_locale_pointers@@QEAD@Z 000000018002f79c     libucrt:output.obj
 0002:0000c7bc       $unwind$??$write_multiple_characters@V?$string_output_adapter@_W@__crt_stdio_output@@D@__crt_stdio_output@@YAXAEBV?$string_output_adapter@_W@0@DHQEAH@Z 000000018002f7bc     libucrt:output.obj
 0002:0000c7c8       $unwind$?state_case_type@?$output_processor@_WV?$string_output_adapter@_W@__crt_stdio_output@@V?$format_validation_base@_WV?$string_output_adapter@_W@__crt_stdio_output@@@2@@__crt_stdio_output@@AEAA_NXZ 000000018002f7c8     libucrt:output.obj
 0002:0000c7ec       $unwind$?type_case_a@?$output_processor@_WV?$string_output_adapter@_W@__crt_stdio_output@@V?$format_validation_base@_WV?$string_output_adapter@_W@__crt_stdio_output@@@2@@__crt_stdio_output@@AEAA_NXZ 000000018002f7ec     libucrt:output.obj
 0002:0000c7fc       $unwind$?write_stored_string_tchar@?$output_processor@_WV?$string_output_adapter@_W@__crt_stdio_output@@V?$format_validation_base@_WV?$string_output_adapter@_W@__crt_stdio_output@@@2@@__crt_stdio_output@@AEAA_N_W@Z 000000018002f7fc     libucrt:output.obj
 0002:0000c810       $unwind$??$type_case_integer_parse_into_buffer@I@?$output_processor@_WV?$string_output_adapter@_W@__crt_stdio_output@@V?$format_validation_base@_WV?$string_output_adapter@_W@__crt_stdio_output@@@2@@__crt_stdio_output@@AEAAXII_N@Z 000000018002f810     libucrt:output.obj
 0002:0000c810       $unwind$??$type_case_integer_parse_into_buffer@_K@?$output_processor@_WV?$string_output_adapter@_W@__crt_stdio_output@@V?$format_validation_base@_WV?$string_output_adapter@_W@__crt_stdio_output@@@2@@__crt_stdio_output@@AEAAX_KI_N@Z 000000018002f810     libucrt:output.obj
 0002:0000c818       $unwind$?common_exit@@YAXHW4_crt_exit_cleanup_mode@@W4_crt_exit_return_mode@@@Z 000000018002f818     libucrt:exit.obj
 0002:0000c824       $unwind$??R<lambda_6e4b09c48022b2350581041d5f6b0c4c>@@QEBA@XZ 000000018002f824     libucrt:exit.obj
 0002:0000c844       $unwind$??$?RV<lambda_d80eeec6fff315bfe5c115232f3240e3>@@AEAV<lambda_6e4b09c48022b2350581041d5f6b0c4c>@@V<lambda_2358e3775559c9db80273638284d5e45>@@@?$__crt_seh_guarded_call@X@@QEAAX$$QEAV<lambda_d80eeec6fff315bfe5c115232f3240e3>@@AEAV<lambda_6e4b09c48022b2350581041d5f6b0c4c>@@$$QEAV<lambda_2358e3775559c9db80273638284d5e45>@@@Z 000000018002f844     libucrt:exit.obj
 0002:0000c868       $unwind$??$free_environment@D@@YAXQEAPEAD@Z 000000018002f868     libucrt:environment_initialization.obj
 0002:0000c868       $unwind$??$free_environment@_W@@YAXQEAPEA_W@Z 000000018002f868     libucrt:environment_initialization.obj
 0002:0000c874       $unwind$??$create_environment@D@@YAQEAPEADQEAD@Z 000000018002f874     libucrt:environment_initialization.obj
 0002:0000c88c       $unwind$_register_onexit_function 000000018002f88c     libucrt:onexit.obj
 0002:0000c894       $unwind$_execute_onexit_table 000000018002f894     libucrt:onexit.obj
 0002:0000c89c       $unwind$??R<lambda_22ebabd17bc4fa466a2aca6d8deb888d>@@QEBAHXZ 000000018002f89c     libucrt:onexit.obj
 0002:0000c8b4       $unwind$??$?RV<lambda_638799b9deba96c50f710eeac98168cd>@@AEAV<lambda_22ebabd17bc4fa466a2aca6d8deb888d>@@V<lambda_a6f7d7db0129f75315ebf26d50c089f1>@@@?$__crt_seh_guarded_call@H@@QEAAH$$QEAV<lambda_638799b9deba96c50f710eeac98168cd>@@AEAV<lambda_22ebabd17bc4fa466a2aca6d8deb888d>@@$$QEAV<lambda_a6f7d7db0129f75315ebf26d50c089f1>@@@Z 000000018002f8b4     libucrt:onexit.obj
 0002:0000c8d8       $unwind$??$?RV<lambda_7777bce6b2f8c936911f934f8298dc43>@@AEAV<lambda_f03950bc5685219e0bcd2087efbe011e>@@V<lambda_3883c3dff614d5e0c5f61bb1ac94921c>@@@?$__crt_seh_guarded_call@H@@QEAAH$$QEAV<lambda_7777bce6b2f8c936911f934f8298dc43>@@AEAV<lambda_f03950bc5685219e0bcd2087efbe011e>@@$$QEAV<lambda_3883c3dff614d5e0c5f61bb1ac94921c>@@@Z 000000018002f8d8     libucrt:onexit.obj
 0002:0000c8fc       $unwind$_query_new_handler 000000018002f8fc     libucrt:new_handler.obj
 0002:0000c91c       $unwind$terminate          000000018002f91c     libucrt:terminate.obj
 0002:0000c93c       $unwind$??$parse_integer@KV?$c_string_character_source@_W@__crt_strtox@@@__crt_strtox@@YAKQEAU__crt_locale_pointers@@V?$c_string_character_source@_W@0@H_N@Z 000000018002f93c     libucrt:atox.obj
 0002:0000c958       $xdatasym                  000000018002f958     libucrt:strncmp.obj
 0002:0000c95c       $unwind$?construct_ptd_array@@YAXQEAU__acrt_ptd@@@Z 000000018002f95c     libucrt:per_thread_data.obj
 0002:0000c964       $unwind$?destroy_ptd_array@@YAXQEAU__acrt_ptd@@@Z 000000018002f964     libucrt:per_thread_data.obj
 0002:0000c96c       $unwind$??$?RV<lambda_0ae27a3a962d80f24befdcbee591983d>@@AEAV<lambda_8d0ee55de4b1038c4002e0adecdf1839>@@V<lambda_dc504788e8f1664fe9b84e20bfb512f2>@@@?$__crt_seh_guarded_call@X@@QEAAX$$QEAV<lambda_0ae27a3a962d80f24befdcbee591983d>@@AEAV<lambda_8d0ee55de4b1038c4002e0adecdf1839>@@$$QEAV<lambda_dc504788e8f1664fe9b84e20bfb512f2>@@@Z 000000018002f96c     libucrt:per_thread_data.obj
 0002:0000c990       $unwind$??$?RV<lambda_aa87e3671a710a21b5dc78c0bdf72e11>@@AEAV<lambda_92619d2358a28f41a33ba319515a20b9>@@V<lambda_6992ecaafeb10aed2b74cb1fae11a551>@@@?$__crt_seh_guarded_call@X@@QEAAX$$QEAV<lambda_aa87e3671a710a21b5dc78c0bdf72e11>@@AEAV<lambda_92619d2358a28f41a33ba319515a20b9>@@$$QEAV<lambda_6992ecaafeb10aed2b74cb1fae11a551>@@@Z 000000018002f990     libucrt:per_thread_data.obj
 0002:0000c9b4       $unwind$??$?RV<lambda_f2e299630e499de9f9a165e60fcd3db5>@@AEAV<lambda_2ae9d31cdba2644fcbeaf08da7c24588>@@V<lambda_40d01ff24d0e7b3814fdbdcee8eab3c7>@@@?$__crt_seh_guarded_call@X@@QEAAX$$QEAV<lambda_f2e299630e499de9f9a165e60fcd3db5>@@AEAV<lambda_2ae9d31cdba2644fcbeaf08da7c24588>@@$$QEAV<lambda_40d01ff24d0e7b3814fdbdcee8eab3c7>@@@Z 000000018002f9b4     libucrt:per_thread_data.obj
 0002:0000c9d8       $unwind$??$?RV<lambda_2d41944a1d46af3157314b8a01080d33>@@AEAV<lambda_8f455de75cd7d7f24b4096f044d8b9e6>@@V<lambda_aa500f224e6afead328df44964fe2772>@@@?$__crt_seh_guarded_call@X@@QEAAX$$QEAV<lambda_2d41944a1d46af3157314b8a01080d33>@@AEAV<lambda_8f455de75cd7d7f24b4096f044d8b9e6>@@$$QEAV<lambda_aa500f224e6afead328df44964fe2772>@@@Z 000000018002f9d8     libucrt:per_thread_data.obj
 0002:0000c9fc       $unwind$__acrt_initialize_winapi_thunks 000000018002f9fc     libucrt:winapi_thunks.obj
 0002:0000ca04       $unwind$__acrt_fp_format   000000018002fa04     libucrt:cvt.obj
 0002:0000ca1c       $unwind$?fp_format_e_internal@@YAHQEAD_KH_NIQEAU_strflt@@2QEAU__crt_locale_pointers@@@Z 000000018002fa1c     libucrt:cvt.obj
 0002:0000ca34       $unwind$?fp_format_a@@YAHQEBNPEAD_KQEAD2H_NIQEAU__crt_locale_pointers@@W4__acrt_rounding_mode@@@Z 000000018002fa34     libucrt:cvt.obj
 0002:0000ca50       $unwind$?fp_format_g@@YAHQEBNQEAD_K12H_NIQEAU__crt_locale_pointers@@@Z 000000018002fa50     libucrt:cvt.obj
 0002:0000ca64       $unwind$__acrt_uninitialize_locale 000000018002fa64     libucrt:wsetlocale.obj
 0002:0000ca64       $unwind$__acrt_get_sigabrt_handler 000000018002fa64     libucrt:signal.obj
 0002:0000ca6c       $unwind$??$?RV<lambda_410d79af7f07d98d83a3f525b3859a53>@@AEAV<lambda_3e16ef9562a7dcce91392c22ab16ea36>@@V<lambda_38119f0e861e05405d8a144b9b982f0a>@@@?$__crt_seh_guarded_call@X@@QEAAX$$QEAV<lambda_410d79af7f07d98d83a3f525b3859a53>@@AEAV<lambda_3e16ef9562a7dcce91392c22ab16ea36>@@$$QEAV<lambda_38119f0e861e05405d8a144b9b982f0a>@@@Z 000000018002fa6c     libucrt:wsetlocale.obj
 0002:0000ca94       $unwind$__acrt_initialize_lowio 000000018002fa94     libucrt:ioinit.obj
 0002:0000cab4       $unwind$??$common_expand_argv_wildcards@D@@YAHQEAPEADQEAPEAPEAD@Z 000000018002fab4     libucrt:argv_wildcards.obj
 0002:0000cacc       $unwind$??$copy_and_add_argument_to_buffer@D@@YAHQEBD0_KAEAV?$argument_list@D@?A0x5f5c8891@@@Z 000000018002facc     libucrt:argv_wildcards.obj
 0002:0000cae8       $unwind$??$expand_argument_wildcards@D@@YAHQEAD0AEAV?$argument_list@D@?A0x5f5c8891@@@Z 000000018002fae8     libucrt:argv_wildcards.obj
 0002:0000cb0c       $unwind$__acrt_GetModuleFileNameA 000000018002fb0c     libucrt:getmodulefilenamea.obj
 0002:0000cb28       $unwind$_setmbcp_nolock    000000018002fb28     libucrt:mbctype.obj
 0002:0000cb48       $unwind$?update_thread_multibyte_data_internal@@YAPEAU__crt_multibyte_data@@QEAU__acrt_ptd@@QEAPEAU1@@Z 000000018002fb48     libucrt:mbctype.obj
 0002:0000cb70       $unwind$?setmbcp_internal@@YAHH_NQEAU__acrt_ptd@@QEAPEAU__crt_multibyte_data@@@Z 000000018002fb70     libucrt:mbctype.obj
 0002:0000cb80       $unwind$?setSBUpLow@@YAXPEAU__crt_multibyte_data@@@Z 000000018002fb80     libucrt:mbctype.obj
 0002:0000cb9c       $unwind$??$?RV<lambda_efdfa57d1f175319df784efa44bb7b81>@@AEAV<lambda_5f0a4c1567f8adc6734073e5d1e1b35c>@@V<lambda_2e8a7d3640ea6ccb4c2413664c2db6fd>@@@?$__crt_seh_guarded_call@X@@QEAAX$$QEAV<lambda_efdfa57d1f175319df784efa44bb7b81>@@AEAV<lambda_5f0a4c1567f8adc6734073e5d1e1b35c>@@$$QEAV<lambda_2e8a7d3640ea6ccb4c2413664c2db6fd>@@@Z 000000018002fb9c     libucrt:mbctype.obj
 0002:0000cbc0       $unwind$__acrt_WideCharToMultiByte 000000018002fbc0     libucrt:widechartomultibyte.obj
 0002:0000cbcc       $unwind$raise              000000018002fbcc     libucrt:signal.obj
 0002:0000cc08       $unwind$??$?RV<lambda_450d765d439847d4c735a33c368b5fc0>@@AEAV<lambda_44731a7d0e6d81c3e6aa82d741081786>@@V<lambda_601a2a7da3b7a96e9554ac7215c4b07c>@@@?$__crt_seh_guarded_call@P6AXH@Z@@QEAAP6AXH@Z$$QEAV<lambda_450d765d439847d4c735a33c368b5fc0>@@AEAV<lambda_44731a7d0e6d81c3e6aa82d741081786>@@$$QEAV<lambda_601a2a7da3b7a96e9554ac7215c4b07c>@@@Z 000000018002fc08     libucrt:signal.obj
 0002:0000cc2c       $unwind$?common_flush_all@@YAH_N@Z 000000018002fc2c     libucrt:fflush.obj
 0002:0000cc34       $unwind$??$?RV<lambda_842d9ff0dc9ef11c61343bbaebe7f885>@@AEAV<lambda_c5860995281e5c4ce005b3de8f5874ee>@@V<lambda_d90129c13df834fdcbf8d2b88dafcf2d>@@@?$__crt_seh_guarded_call@X@@QEAAX$$QEAV<lambda_842d9ff0dc9ef11c61343bbaebe7f885>@@AEAV<lambda_c5860995281e5c4ce005b3de8f5874ee>@@$$QEAV<lambda_d90129c13df834fdcbf8d2b88dafcf2d>@@@Z 000000018002fc34     libucrt:fflush.obj
 0002:0000cc58       $unwind$??$?RV<lambda_886d6c58226a84441f68b9f2b8217b83>@@AEAV<lambda_ab61a845afdef5b7c387490eaf3616ee>@@V<lambda_f7f22ab5edc0698d5f6905b0d3f44752>@@@?$__crt_seh_guarded_call@X@@QEAAX$$QEAV<lambda_886d6c58226a84441f68b9f2b8217b83>@@AEAV<lambda_ab61a845afdef5b7c387490eaf3616ee>@@$$QEAV<lambda_f7f22ab5edc0698d5f6905b0d3f44752>@@@Z 000000018002fc58     libucrt:fflush.obj
 0002:0000cc80       $unwind$__acrt_update_thread_locale_data 000000018002fc80     libucrt:locale_refcounting.obj
 0002:0000cca4       $unwind$?__mbrtowc_utf8@__crt_mbstring@@YA_KPEA_WPEBD_KPEAU_Mbstatet@@@Z 000000018002fca4     libucrt:mbrtowc.obj
 0002:0000ccac       $unwind$?__mbsrtowcs_utf8@__crt_mbstring@@YA_KPEA_WPEAPEBD_KPEAU_Mbstatet@@@Z 000000018002fcac     libucrt:mbrtowc.obj
 0002:0000ccc4       $unwind$__acrt_fltout      000000018002fcc4     libucrt:cfout.obj
 0002:0000cce4       $unwind$?divide@__crt_strtox@@YA_KAEAUbig_integer@1@AEBU21@@Z 000000018002fce4     libucrt:cfout.obj
 0002:0000ccfc       $chain$0$?divide@__crt_strtox@@YA_KAEAUbig_integer@1@AEBU21@@Z 000000018002fcfc     libucrt:cfout.obj
 0002:0000cd10       $chain$1$?divide@__crt_strtox@@YA_KAEAUbig_integer@1@AEBU21@@Z 000000018002fd10     libucrt:cfout.obj
 0002:0000cd20       $unwind$_fcloseall         000000018002fd20     libucrt:closeall.obj
 0002:0000cd44       $unwind$__acrt_locale_free_monetary 000000018002fd44     libucrt:initmon.obj
 0002:0000cd4c       $unwind$__acrt_locale_free_time 000000018002fd4c     libucrt:inittime.obj
 0002:0000cd5c       $unwind$__acrt_GetStringTypeA 000000018002fd5c     libucrt:getstringtypea.obj
 0002:0000cd84       $unwind$__acrt_lowio_destroy_handle_array 000000018002fd84     libucrt:osfinfo.obj
 0002:0000cd94       $unwind$__acrt_lowio_ensure_fh_exists 000000018002fd94     libucrt:osfinfo.obj
 0002:0000cdc0       $unwind$qsort              000000018002fdc0     libucrt:qsort.obj
 0002:0000cdd8       $chain$4$qsort             000000018002fdd8     libucrt:qsort.obj
 0002:0000cdfc       $chain$5$qsort             000000018002fdfc     libucrt:qsort.obj
 0002:0000ce0c       $unwind$strpbrk            000000018002fe0c     libucrt:strpbrk.obj
 0002:0000ce1c       $unwind$fallbackMethod     000000018002fe1c     libucrt:strpbrk.obj
 0002:0000ce2c       $unwind$__acrt_LCMapStringA 000000018002fe2c     libucrt:lcmapstringa.obj
 0002:0000ce3c       $unwind$?__acrt_LCMapStringA_stat@@YAHPEAU__crt_locale_pointers@@PEB_WKPEBDHPEADHHH@Z 000000018002fe3c     libucrt:lcmapstringa.obj
 0002:0000ce64       $unwind$_close             000000018002fe64     libucrt:close.obj
 0002:0000ce64       $unwind$_commit            000000018002fe64     libucrt:commit.obj
 0002:0000ce6c       $unwind$??$?RV<lambda_a37b2b86f63e897a80ea819b0eb08c01>@@AEAV<lambda_38ce7e780aa69e748d6df282ebc68efe>@@V<lambda_99fb1378e971ab6e7edea83e3a7a83a2>@@@?$__crt_seh_guarded_call@H@@QEAAH$$QEAV<lambda_a37b2b86f63e897a80ea819b0eb08c01>@@AEAV<lambda_38ce7e780aa69e748d6df282ebc68efe>@@$$QEAV<lambda_99fb1378e971ab6e7edea83e3a7a83a2>@@@Z 000000018002fe6c     libucrt:commit.obj
 0002:0000ce90       $unwind$_write             000000018002fe90     libucrt:write.obj
 0002:0000cec0       $unwind$_write_nolock      000000018002fec0     libucrt:write.obj
 0002:0000ced8       $unwind$?write_double_translated_ansi_nolock@@YA?AUwrite_result@?A0x17268360@@HQEBDI@Z 000000018002fed8     libucrt:write.obj
 0002:0000cefc       $unwind$?write_text_ansi_nolock@@YA?AUwrite_result@?A0x17268360@@HQEBDI@Z 000000018002fefc     libucrt:write.obj
 0002:0000cefc       $unwind$?write_text_utf16le_nolock@@YA?AUwrite_result@?A0x17268360@@HQEBDI@Z 000000018002fefc     libucrt:write.obj
 0002:0000cf1c       $unwind$?write_text_utf8_nolock@@YA?AUwrite_result@?A0x17268360@@HQEBDI@Z 000000018002ff1c     libucrt:write.obj
 0002:0000cf40       $xdatasym                  000000018002ff40     libucrt:log10.obj
 0002:0000cf4c       $unwind$__acrt_fenv_set_control 000000018002ff4c     libucrt:_fenvutils.obj
 0002:0000cf5c       $unwind$fclose             000000018002ff5c     libucrt:fclose.obj
 0002:0000cf80       $unwind$_putwch_nolock     000000018002ff80     libucrt:putwch.obj
 0002:0000cf88       $unwind$common_control87   000000018002ff88     libucrt:ieee.obj
 0002:0000cfb4       $unwind$_call_matherr      000000018002ffb4     libucrt:libm_error.obj
 0002:0000cfbc       $unwind$_handle_error      000000018002ffbc     libucrt:libm_error.obj
 0002:0000cfdc       $unwind$__acrt_initialize_fma3 000000018002ffdc     libucrt:fma3_available.obj
 0002:0000cfe4       $unwind$_log_special_common 000000018002ffe4     libucrt:log_special.obj
 0002:0000cff0       $unwind$??$?RV<lambda_751a882b2c74d4b022dec766aa51a29a>@@AEAV<lambda_628dfdc04ba53c8bfc02c9951375f3f5>@@V<lambda_f6c7be5f7998530c34de24c7437d6b54>@@@?$__crt_seh_guarded_call@H@@QEAAH$$QEAV<lambda_751a882b2c74d4b022dec766aa51a29a>@@AEAV<lambda_628dfdc04ba53c8bfc02c9951375f3f5>@@$$QEAV<lambda_f6c7be5f7998530c34de24c7437d6b54>@@@Z 000000018002fff0     libucrt:close.obj
 0002:0000d018       $xdatasym                  0000000180030018     libucrt:fpsr.obj
 0002:0000d020       $unwind$_raise_exc_ex      0000000180030020     libucrt:fpexcept.obj
 0002:0000d034       $unwind$_ctrlfp            0000000180030034     libucrt:fpctrl.obj
 0002:0000d05c       $unwind$_IsNonwritableInCurrentImage 000000018003005c     LIBCMT:pesect.obj
 0002:0000d1e0       .edata                     00000001800301e0     OPOSLineDisplay.exp
 0002:0000d208       rgpv                       0000000180030208     OPOSLineDisplay.exp
 0002:0000d218       rgszName                   0000000180030218     OPOSLineDisplay.exp
 0002:0000d228       rgwOrd                     0000000180030228     OPOSLineDisplay.exp
 0002:0000d230       szName                     0000000180030230     OPOSLineDisplay.exp
 0002:0000d244       $N00001                    0000000180030244     OPOSLineDisplay.exp
 0002:0000d254       $N00002                    0000000180030254     OPOSLineDisplay.exp
 0002:0000d266       $N00003                    0000000180030266     OPOSLineDisplay.exp
 0002:0000d278       $N00004                    0000000180030278     OPOSLineDisplay.exp
 0002:0000dba2       .idata$6                   0000000180030ba2     kernel32:KERNEL32.dll
 0002:0000ddba       .idata$6                   0000000180030dba     user32:USER32.dll
 0002:0000deee       .idata$6                   0000000180030eee     gdi32:GDI32.dll
 0002:0000df94       .idata$6                   0000000180030f94     advapi32:ADVAPI32.dll
 0002:0000e0b0       .idata$6                   00000001800310b0     ole32:ole32.dll
 0002:0000e0ba       .idata$6                   00000001800310ba     oleaut32:OLEAUT32.dll
 0003:000001c0       ?ObjectMap@@3PAU_ATL_OBJMAP_ENTRY30@ATL@@A 00000001800321c0     LineDisplay.obj
 0003:000002d0       ?s_SOMethodNames@@3PAPEADA 00000001800322d0     LineDisplayImpl.obj
 0003:000003c0       ?s_RequiredMethodsPerRelease@@3PAHA 00000001800323c0     LineDisplayImpl.obj
 0003:00000420       ?__vcrt_flsindex@@3KA      0000000180032420     libvcruntime:per_thread_data.obj
 0003:00000430       ?errno_no_memory@@3HA      0000000180032430     libucrt:errno.obj
 0003:00000434       ?doserrno_no_memory@@3KA   0000000180032434     libucrt:errno.obj
 0003:00000440       ?__acrt_flsindex@@3KA      0000000180032440     libucrt:per_thread_data.obj
 0003:00000900       _mbctypes                  0000000180032900     libucrt:mbctype.obj
 0003:00000a10       _mbcasemaps                0000000180032a10     libucrt:mbctype.obj
 0003:00000b10       ?__rgctypeflag@@3PADA      0000000180032b10     libucrt:mbctype.obj
 0003:00000b20       ?__rgcode_page_info@@3PAUcode_page_info@@A 0000000180032b20     libucrt:mbctype.obj
 0003:00000dc0       ?dazSupported@?1??common_control87@@9@9 0000000180032dc0     libucrt:ieee.obj
 0003:00000dd0       ?__dcrt_lowio_console_output_handle@@3PEAXEA 0000000180032dd0     libucrt:initcon.obj
 0003:00000de0       ?dazSupported@?1??_ctrlfp@@9@9 0000000180032de0     libucrt:fpctrl.obj
 0003:00001030       ?is_initialized_as_dll@@3_NA 0000000180033030     LIBCMT:utility.obj
 0003:00001031       ?module_local_atexit_table_initialized@@3_NA 0000000180033031     LIBCMT:utility.obj
 0003:00001038       ?module_local_atexit_table@@3U_onexit_table_t@@A 0000000180033038     LIBCMT:utility.obj
 0003:00001050       ?module_local_at_quick_exit_table@@3U_onexit_table_t@@A 0000000180033050     LIBCMT:utility.obj
 0003:00001068       ?g_tss_cv@@3U_RTL_CONDITION_VARIABLE@@A 0000000180033068     LIBCMT:thread_safe_statics.obj
 0003:00001070       ?g_tss_event@@3PEAXEA      0000000180033070     LIBCMT:thread_safe_statics.obj
 0003:00001078       ?g_tss_mutex@@3U_RTL_CRITICAL_SECTION@@A 0000000180033078     LIBCMT:thread_safe_statics.obj
 0003:000010a0       ?g_sleep_condition_variable_cs@@3P6AHPEAU_RTL_CONDITION_VARIABLE@@PEAU_RTL_CRITICAL_SECTION@@K@ZEA 00000001800330a0     LIBCMT:thread_safe_statics.obj
 0003:000010a8       ?g_wake_all_condition_variable@@3P6AXPEAU_RTL_CONDITION_VARIABLE@@@ZEA 00000001800330a8     LIBCMT:thread_safe_statics.obj
 0003:000010b0       GS_ExceptionRecord         00000001800330b0     LIBCMT:gs_report.obj
 0003:00001150       GS_ContextRecord           0000000180033150     LIBCMT:gs_report.obj
 0003:00001624       ?__proc_attached@@3HA      0000000180033624     LIBCMT:dll_dllmain.obj
 0003:000016b8       ?AllocateData@@3P6APEAUAtlThunkData_t@@XZEA 00000001800336b8     atls:atlthunk.obj
 0003:000016c0       ?InitData@@3P6AXPEAUAtlThunkData_t@@PEAX_K@ZEA 00000001800336c0     atls:atlthunk.obj
 0003:000016c8       ?DataToCode@@3P6AP6A_JPEAUHWND__@@I_K_J@ZPEAUAtlThunkData_t@@@ZEA 00000001800336c8     atls:atlthunk.obj
 0003:000016d0       ?FreeData@@3P6AXPEAUAtlThunkData_t@@@ZEA 00000001800336d0     atls:atlthunk.obj
 0003:000016d8       ?Initialized@@3_NA         00000001800336d8     atls:atlthunk.obj
 0003:000016f0       ?__vcrt_startup_thread_ptd@@3U__vcrt_ptd@@A 00000001800336f0     libvcruntime:per_thread_data.obj
 0003:00001770       __vcrt_lock_table          0000000180033770     libvcruntime:locks.obj
 0003:00001798       __vcrt_locks_initialized   0000000180033798     libvcruntime:locks.obj
 0003:000017e0       ?heap@@3V_HeapManager@@A   00000001800337e0     libvcruntime:undname.obj
 0003:00001808       ?module_handles@@3PAPEAUHINSTANCE__@@A 0000000180033808     libvcruntime:winapi_downlevel.obj
 0003:00001820       ?function_pointers@@3PAPEAXA 0000000180033820     libvcruntime:winapi_downlevel.obj
 0003:00001848       ?__acrt_invalid_parameter_handler@@3V?$dual_state_global@P6AXPEB_W00I_K@Z@__crt_state_management@@A 0000000180033848     libucrt:invalid_parameter.obj
 0003:00001850       ?c_termination_complete@@3JA 0000000180033850     libucrt:exit.obj
 0003:00001858       ?thread_local_exit_callback_func@@3P6AXPEAXK0@ZEA 0000000180033858     libucrt:exit.obj
 0003:00001870       ?program_name@?1???$common_configure_argv@D@@YAHW4_crt_argv_mode@@@Z@4PADA 0000000180033870     libucrt:argv_parsing.obj
 0003:000019c8       ?__acrt_new_handler@@3V?$dual_state_global@P6AH_K@Z@__crt_state_management@@A 00000001800339c8     libucrt:new_handler.obj
 0003:000019d0       ?module_handles@@3PAPEAUHINSTANCE__@@A 00000001800339d0     libucrt:winapi_thunks.obj
 0003:00001a70       ?encoded_function_pointers@@3PAPEAXA 0000000180033a70     libucrt:winapi_thunks.obj
 0003:00001b80       ?internal_state@?1??_mbtowc_l@@9@4U_Mbstatet@@A 0000000180033b80     libucrt:mbtowc.obj
 0003:00001b98       ?enable_percent_n@@3_KA    0000000180033b98     libucrt:printf_count_output.obj
 0003:00001fd0       ?__acrt_lock_table@@3PAU_RTL_CRITICAL_SECTION@@A 0000000180033fd0     libucrt:locks.obj
 0003:00002200       ?__acrt_locks_initialized@@3IA 0000000180034200     libucrt:locks.obj
 0003:00002220       ?fSystemSet@@3HA           0000000180034220     libucrt:mbctype.obj
 0003:00002224       ?initialized@?1??__acrt_initialize_multibyte@@9@4_NA 0000000180034224     libucrt:mbctype.obj
 0003:00002260       ?ctrlc_action@@3V?$dual_state_global@P6AXH@Z@__crt_state_management@@A 0000000180034260     libucrt:signal.obj
 0003:00002268       ?ctrlbreak_action@@3V?$dual_state_global@P6AXH@Z@__crt_state_management@@A 0000000180034268     libucrt:signal.obj
 0003:00002270       ?abort_action@@3V?$dual_state_global@P6AXH@Z@__crt_state_management@@A 0000000180034270     libucrt:signal.obj
 0003:00002278       ?term_action@@3V?$dual_state_global@P6AXH@Z@__crt_state_management@@A 0000000180034278     libucrt:signal.obj
 0003:00002280       ?user_matherr@@3V?$dual_state_global@P6AHPEAU_exception@@@Z@__crt_state_management@@A 0000000180034280     libucrt:matherr.obj
 0003:00002288       ?__acrt_global_new_mode@@3V?$dual_state_global@J@__crt_state_management@@A 0000000180034288     libucrt:new_mode.obj
 0003:00002298       ?internal_pst@?1??__mbrtoc32_utf8@__crt_mbstring@@YA_KPEA_UPEBD_KPEAU_Mbstatet@@@Z@4U3@A 0000000180034298     libucrt:mbrtoc32.obj
 0003:000022a0       ?__acrt_app_type@@3W4_crt_app_type@@A 00000001800342a0     libucrt:report_runtime_error.obj
 0004:00000000       $pdata$?cw_memcpy@@YAHPEA_WPEBDH@Z 0000000180035000     CWString.obj
 0004:0000000c       $pdata$?cw_strcpy@@YAHPEA_WPEBD@Z 000000018003500c     CWString.obj
 0004:00000018       $pdata$?cw_dup@@YAXPEBDAEAHAEAPEA_W1@Z 0000000180035018     CWString.obj
 0004:00000024       $pdata$?DupWide@_CW@@AEAAXXZ 0000000180035024     CWString.obj
 0004:00000030       $pdata$?AtlWinModuleTerm@ATL@@YAJPEAU_ATL_WIN_MODULE70@1@PEAUHINSTANCE__@@@Z 0000000180035030     OposVariant.obj
 0004:0000003c       $pdata$??0CAtlComModule@ATL@@QEAA@XZ 000000018003503c     OposVariant.obj
 0004:00000048       $pdata$?Term@CAtlComModule@ATL@@QEAAXXZ 0000000180035048     OposVariant.obj
 0004:00000054       $pdata$??__E_AtlComModule@ATL@@YAXXZ 0000000180035054     OposVariant.obj
 0004:00000060       $pdata$??0CAtlWinModule@ATL@@QEAA@XZ 0000000180035060     OposVariant.obj
 0004:0000006c       $pdata$??__E_AtlWinModule@ATL@@YAXXZ 000000018003506c     OposVariant.obj
 0004:00000078       $pdata$??__F_AtlWinModule@ATL@@YAXXZ 0000000180035078     OposVariant.obj
 0004:00000084       $pdata$??_Estringdispid@CComTypeInfoHolder@ATL@@QEAAPEAXI@Z 0000000180035084     OposVariant.obj
 0004:00000090       $pdata$?SetVARIANT_BOOL@OposVariant@@QEAAXF@Z 0000000180035090     OposVariant.obj
 0004:0000009c       $pdata$?GetLONG@OposVariant@@QEAAJXZ 000000018003509c     OposVariant.obj
 0004:000000a8       $pdata$?ChangeLONG@OposVariant@@QEAAXPEAJAEAJ@Z 00000001800350a8     OposVariant.obj
 0004:000000b4       $pdata$?SetLONG@OposVariant@@QEAAXJ@Z 00000001800350b4     OposVariant.obj
 0004:000000c0       $pdata$?SetLONG_Ptr@OposVariant@@QEAAXPEAJAEAJ@Z 00000001800350c0     OposVariant.obj
 0004:000000cc       $pdata$?ChangeBSTR@OposVariant@@QEAAXPEAPEA_WAEAJ@Z 00000001800350cc     OposVariant.obj
 0004:000000d8       $pdata$?SetBSTR@OposVariant@@QEAAXPEA_WAEAJ@Z 00000001800350d8     OposVariant.obj
 0004:000000e4       $pdata$?SetBSTR_Copy@OposVariant@@QEAAXPEA_WAEAJ@Z 00000001800350e4     OposVariant.obj
 0004:000000f0       $pdata$?SetBSTR_InOutPtr@OposVariant@@QEAA_NPEAPEA_WAEAJ@Z 00000001800350f0     OposVariant.obj
 0004:000000fc       $pdata$?SetString@OposVariant@@QEAAXPEB_WAEAJ@Z 00000001800350fc     OposVariant.obj
 0004:00000108       $pdata$?SetDispatch_Ptr@OposVariant@@QEAAXPEAUIDispatch@@AEAJ@Z 0000000180035108     OposVariant.obj
 0004:00000114       $pdata$??0OposDispParms@@QEAA@PEAVOposVariant@@H@Z 0000000180035114     OposVariant.obj
 0004:00000120       $pdata$??1OposDispParms@@QEAA@XZ 0000000180035120     OposVariant.obj
 0004:0000012c       $pdata$?AtlThrowImpl@ATL@@YAXJ@Z 000000018003512c     LineDisplay.obj
 0004:00000138       $pdata$swprintf_s          0000000180035138     LineDisplay.obj
 0004:00000144       $pdata$?_AtlVerifyStackAvailable@_ATL_SAFE_ALLOCA_IMPL@ATL@@YA_N_K@Z 0000000180035144     LineDisplay.obj
 0004:00000150       $pdata$?filt$0@?0??_AtlVerifyStackAvailable@_ATL_SAFE_ALLOCA_IMPL@ATL@@YA_N_K@Z@4HA 0000000180035150     LineDisplay.obj
 0004:0000015c       $pdata$?ocscpy_s@@YA_NPEA_W_KPEB_W@Z 000000018003515c     LineDisplay.obj
 0004:00000168       $pdata$?AtlHresultFromLastError@ATL@@YAJXZ 0000000180035168     LineDisplay.obj
 0004:00000174       $pdata$?AtlInternalOleLoadFromStream@ATL@@YAJPEAUIStream@@AEBU_GUID@@PEAPEAXTClassesAllowedInStream@1@K@Z 0000000180035174     LineDisplay.obj
 0004:00000180       $pdata$?ReadFromStream@CComBSTR@ATL@@QEAAJPEAUIStream@@@Z 0000000180035180     LineDisplay.obj
 0004:0000018c       $pdata$?WriteToStream@CComVariant@ATL@@QEAAJPEAUIStream@@@Z 000000018003518c     LineDisplay.obj
 0004:00000198       $pdata$?WriteToStream@CComVariant@ATL@@QEAAJPEAUIStream@@G@Z 0000000180035198     LineDisplay.obj
 0004:000001a4       $pdata$?ReadFromStream@CComVariant@ATL@@QEAAJPEAUIStream@@GTClassesAllowedInStream@2@K@Z 00000001800351a4     LineDisplay.obj
 0004:000001b0       $pdata$?GetSizeMax@CComVariant@ATL@@QEBAJPEAT_ULARGE_INTEGER@@@Z 00000001800351b0     LineDisplay.obj
 0004:000001bc       $pdata$?RegCreateKeyExW@CAtlTransactionManager@ATL@@QEAAJPEAUHKEY__@@PEB_WKPEA_WKKQEAU_SECURITY_ATTRIBUTES@@PEAPEAU3@PEAK@Z 00000001800351bc     LineDisplay.obj
 0004:000001c8       $pdata$?RegOpenKeyExW@CAtlTransactionManager@ATL@@QEAAJPEAUHKEY__@@PEB_WKKPEAPEAU3@@Z 00000001800351c8     LineDisplay.obj
 0004:000001d4       $pdata$?RegDeleteKeyW@CAtlTransactionManager@ATL@@QEAAJPEAUHKEY__@@PEB_W@Z 00000001800351d4     LineDisplay.obj
 0004:000001e0       $pdata$?Add@?$CSimpleArray@GV?$CSimpleArrayEqualHelper@G@ATL@@@ATL@@QEAAHAEBG@Z 00000001800351e0     LineDisplay.obj
 0004:000001ec       $pdata$?AtlInternalQueryInterface@ATL@@YAJPEAXPEBU_ATL_INTMAP_ENTRY@1@AEBU_GUID@@PEAPEAX@Z 00000001800351ec     LineDisplay.obj
 0004:000001f8       $pdata$?AtlComModuleGetClassObject@ATL@@YAJPEAU_ATL_COM_MODULE70@1@AEBU_GUID@@1PEAPEAX@Z 00000001800351f8     LineDisplay.obj
 0004:00000204       $pdata$?AtlRegisterClassCategoriesHelper@ATL@@YAJAEBU_GUID@@PEBU_ATL_CATMAP_ENTRY@1@H@Z 0000000180035204     LineDisplay.obj
 0004:00000210       $pdata$?AtlLoadTypeLib@ATL@@YAJPEAUHINSTANCE__@@PEB_WPEAPEA_WPEAPEAUITypeLib@@@Z 0000000180035210     LineDisplay.obj
 0004:0000021c       $pdata$?AtlRegisterTypeLib@ATL@@YAJPEAUHINSTANCE__@@PEB_W@Z 000000018003521c     LineDisplay.obj
 0004:00000228       $pdata$?AtlUnRegisterTypeLib@ATL@@YAJPEAUHINSTANCE__@@PEB_W@Z 0000000180035228     LineDisplay.obj
 0004:00000234       $pdata$?AtlComModuleRegisterServer@ATL@@YAJPEAU_ATL_COM_MODULE70@1@HPEBU_GUID@@@Z 0000000180035234     LineDisplay.obj
 0004:00000240       $pdata$?AtlComModuleUnregisterServer@ATL@@YAJPEAU_ATL_COM_MODULE70@1@HPEBU_GUID@@@Z 0000000180035240     LineDisplay.obj
 0004:0000024c       $pdata$?AtlWinModuleExtractCreateWndData@ATL@@YAPEAXPEAU_ATL_WIN_MODULE70@1@@Z 000000018003524c     LineDisplay.obj
 0004:00000258       $pdata$?DeleteSubKey@CRegKey@ATL@@QEAAJPEB_W@Z 0000000180035258     LineDisplay.obj
 0004:00000264       $pdata$?RecurseDeleteKey@CRegKey@ATL@@QEAAJPEB_W@Z 0000000180035264     LineDisplay.obj
 0004:00000270       $pdata$??0CAtlModule@ATL@@QEAA@XZ 0000000180035270     LineDisplay.obj
 0004:0000027c       $pdata$?Term@CAtlModule@ATL@@QEAAXXZ 000000018003527c     LineDisplay.obj
 0004:00000288       $pdata$?AddTermFunc@CAtlModule@ATL@@QEAAJP6AX_K@Z0@Z 0000000180035288     LineDisplay.obj
 0004:00000294       $pdata$?GetGITPtr@CAtlModule@ATL@@UEAAJPEAPEAUIGlobalInterfaceTable@@@Z 0000000180035294     LineDisplay.obj
 0004:000002a0       $pdata$?UpdateRegistryFromResource@CAtlModule@ATL@@QEAAJPEB_WHPEAU_ATL_REGMAP_ENTRY@2@@Z 00000001800352a0     LineDisplay.obj
 0004:000002ac       $pdata$?UpdateRegistryFromResource@CAtlModule@ATL@@QEAAJIHPEAU_ATL_REGMAP_ENTRY@2@@Z 00000001800352ac     LineDisplay.obj
 0004:000002b8       $pdata$?Term@CComModule@ATL@@QEAAXXZ 00000001800352b8     LineDisplay.obj
 0004:000002c4       $pdata$?GetClassObject@CComModule@ATL@@QEAAJAEBU_GUID@@0PEAPEAX@Z 00000001800352c4     LineDisplay.obj
 0004:000002d0       $pdata$?RegisterServer@CComModule@ATL@@QEAAJHPEBU_GUID@@@Z 00000001800352d0     LineDisplay.obj
 0004:000002dc       $pdata$?UnregisterServer@CComModule@ATL@@QEAAJHPEBU_GUID@@@Z 00000001800352dc     LineDisplay.obj
 0004:000002e8       $pdata$??_GCComModule@ATL@@UEAAPEAXI@Z 00000001800352e8     LineDisplay.obj
 0004:000002f4       $pdata$?Add@?$CSimpleMap@PEA_WPEA_WVCExpansionVectorEqualHelper@ATL@@@ATL@@QEAAHAEBQEA_W0@Z 00000001800352f4     LineDisplay.obj
 0004:00000300       $pdata$?Lookup@?$CSimpleMap@PEA_WPEA_WVCExpansionVectorEqualHelper@ATL@@@ATL@@QEBAPEA_WAEBQEA_W@Z 0000000180035300     LineDisplay.obj
 0004:0000030c       $pdata$?Add@CExpansionVector@ATL@@QEAAHPEB_W0@Z 000000018003530c     LineDisplay.obj
 0004:00000318       $pdata$?ClearReplacements@CExpansionVector@ATL@@QEAAJXZ 0000000180035318     LineDisplay.obj
 0004:00000324       $pdata$?PreProcessBuffer@CRegParser@ATL@@QEAAJPEA_WPEAPEA_W@Z 0000000180035324     LineDisplay.obj
 0004:00000330       $pdata$?RegisterBuffer@CRegParser@ATL@@QEAAJPEA_WH@Z 0000000180035330     LineDisplay.obj
 0004:0000033c       $pdata$?NextToken@CRegParser@ATL@@IEAAJPEA_W@Z 000000018003533c     LineDisplay.obj
 0004:00000348       $pdata$?AddValue@CRegParser@ATL@@IEAAJAEAVCRegKey@2@PEB_WPEA_W@Z 0000000180035348     LineDisplay.obj
 0004:00000354       $pdata$?RegisterSubkeys@CRegParser@ATL@@IEAAJPEA_WPEAUHKEY__@@HH@Z 0000000180035354     LineDisplay.obj
 0004:00000360       $pdata$?SkipAssignment@CRegParser@ATL@@IEAAJPEA_W@Z 0000000180035360     LineDisplay.obj
 0004:0000036c       $pdata$?HKeyFromString@CRegParser@ATL@@KAPEAUHKEY__@@PEA_W@Z 000000018003536c     LineDisplay.obj
 0004:00000378       $pdata$?VTFromRegType@CRegParser@ATL@@KAHPEB_WAEAG@Z 0000000180035378     LineDisplay.obj
 0004:00000384       $pdata$?Append@CParseBuffer@CRegParser@ATL@@QEAAHPEB_WH@Z 0000000180035384     LineDisplay.obj
 0004:00000390       $pdata$?AddReplacement@CRegObject@ATL@@UEAAJPEB_W0@Z 0000000180035390     LineDisplay.obj
 0004:0000039c       $pdata$?RegisterFromResource@CRegObject@ATL@@IEAAJPEB_W00H@Z 000000018003539c     LineDisplay.obj
 0004:000003a8       $pdata$??_GCRegObject@ATL@@UEAAPEAXI@Z 00000001800353a8     LineDisplay.obj
 0004:000003b4       $pdata$?AllocateHeap@?$CTempBuffer@E$0BAA@VCCRTAllocator@ATL@@@ATL@@AEAAX_K@Z 00000001800353b4     LineDisplay.obj
 0004:000003b4       $pdata$?AllocateHeap@?$CTempBuffer@_W$0BAA@VCCRTAllocator@ATL@@@ATL@@AEAAX_K@Z 00000001800353b4     LineDisplay.obj
 0004:000003b4       $pdata$?AllocateHeap@?$CTempBuffer@_W$0EAA@VCCRTAllocator@ATL@@@ATL@@AEAAX_K@Z 00000001800353b4     LineDisplay.obj
 0004:000003c0       $pdata$?CreateInstance@CComClassFactory@ATL@@UEAAJPEAUIUnknown@@AEBU_GUID@@PEAPEAX@Z 00000001800353c0     LineDisplay.obj
 0004:000003cc       $pdata$?LockServer@CComClassFactory@ATL@@UEAAJH@Z 00000001800353cc     LineDisplay.obj
 0004:000003d8       $pdata$??_GCComClassFactory@ATL@@UEAAPEAXI@Z 00000001800353d8     LineDisplay.obj
 0004:000003e4       $pdata$?GetTI@CComTypeInfoHolder@ATL@@QEAAJK@Z 00000001800353e4     LineDisplay.obj
 0004:000003f0       $pdata$?Cleanup@CComTypeInfoHolder@ATL@@SAX_K@Z 00000001800353f0     LineDisplay.obj
 0004:000003fc       $pdata$?GetIDsOfNames@CComTypeInfoHolder@ATL@@QEAAJAEBU_GUID@@PEAPEA_WIKPEAJ@Z 00000001800353fc     LineDisplay.obj
 0004:00000408       $pdata$?LoadNameCache@CComTypeInfoHolder@ATL@@QEAAJPEAUITypeInfo@@@Z 0000000180035408     LineDisplay.obj
 0004:00000414       $pdata$?Add@CComDynamicUnkArray@ATL@@QEAAKPEAUIUnknown@@@Z 0000000180035414     LineDisplay.obj
 0004:00000420       $pdata$?AtlHiMetricToPixel@ATL@@YAXPEBUtagSIZE@@PEAU2@@Z 0000000180035420     LineDisplay.obj
 0004:0000042c       $pdata$?DefaultReflectionHandler@?$CWindowImplRoot@VCWindow@ATL@@@ATL@@SAHPEAUHWND__@@I_K_JAEA_J@Z 000000018003542c     LineDisplay.obj
 0004:00000438       $pdata$?StartWindowProc@?$CWindowImplBaseT@VCWindow@ATL@@V?$CWinTraits@$0FGAAAAAA@$0A@@2@@ATL@@SA_JPEAUHWND__@@I_K_J@Z 0000000180035438     LineDisplay.obj
 0004:00000444       $pdata$?WindowProc@?$CWindowImplBaseT@VCWindow@ATL@@V?$CWinTraits@$0FGAAAAAA@$0A@@2@@ATL@@SA_JPEAUHWND__@@I_K_J@Z 0000000180035444     LineDisplay.obj
 0004:00000450       $pdata$?atlCreate@?$CWindowImplBaseT@VCWindow@ATL@@V?$CWinTraits@$0FGAAAAAA@$0A@@2@@ATL@@QEAAPEAUHWND__@@PEAU3@V_U_RECT@2@PEB_WKKV_U_MENUorID@2@GPEAX@Z 0000000180035450     LineDisplay.obj
 0004:0000045c       $pdata$?IsEqualObject@?$CComPtrBase@UIOleClientSite@@@ATL@@QEAA_NPEAUIUnknown@@@Z 000000018003545c     LineDisplay.obj
 0004:00000468       $pdata$??$AtlModuleRegisterWndClassInfoT@VAtlModuleRegisterWndClassInfoParamW@ATL@@@ATL@@YAGPEAU_ATL_BASE_MODULE70@0@PEAU_ATL_WIN_MODULE70@0@PEAU_ATL_WNDCLASSINFOW@0@PEAP6A_JPEAUHWND__@@I_K_J@ZVAtlModuleRegisterWndClassInfoParamW@0@@Z 0000000180035468     LineDisplay.obj
 0004:00000474       $pdata$?GetZoomInfo@CComControlBase@ATL@@QEAAXAEAUATL_DRAWINFO@@@Z 0000000180035474     LineDisplay.obj
 0004:00000480       $pdata$?SendOnDataChange@CComControlBase@ATL@@QEAAJK@Z 0000000180035480     LineDisplay.obj
 0004:0000048c       $pdata$?OnSetFocus@CComControlBase@ATL@@QEAA_JI_K_JAEAH@Z 000000018003548c     LineDisplay.obj
 0004:00000498       $pdata$?OnKillFocus@CComControlBase@ATL@@QEAA_JI_K_JAEAH@Z 0000000180035498     LineDisplay.obj
 0004:000004a4       $pdata$?OnMouseActivate@CComControlBase@ATL@@QEAA_JI_K_JAEAH@Z 00000001800354a4     LineDisplay.obj
 0004:000004b0       $pdata$?GetAmbientLocaleID@CComControlBase@ATL@@QEAAJAEAK@Z 00000001800354b0     LineDisplay.obj
 0004:000004bc       $pdata$?GetAmbientUserMode@CComControlBase@ATL@@QEAAJAEAH@Z 00000001800354bc     LineDisplay.obj
 0004:000004c8       $pdata$?SetControlFocus@CComControlBase@ATL@@QEAAHH@Z 00000001800354c8     LineDisplay.obj
 0004:000004d4       $pdata$?IQuickActivate_QuickActivate@CComControlBase@ATL@@QEAAJPEAUtagQACONTAINER@@PEAUtagQACONTROL@@@Z 00000001800354d4     LineDisplay.obj
 0004:000004e0       $pdata$?DoVerbProperties@CComControlBase@ATL@@QEAAJPEBUtagRECT@@PEAUHWND__@@@Z 00000001800354e0     LineDisplay.obj
 0004:000004ec       $pdata$?InPlaceActivate@CComControlBase@ATL@@QEAAJJPEBUtagRECT@@@Z 00000001800354ec     LineDisplay.obj
 0004:000004f8       $pdata$?IOleObject_SetClientSite@CComControlBase@ATL@@QEAAJPEAUIOleClientSite@@@Z 00000001800354f8     LineDisplay.obj
 0004:00000504       $pdata$?IOleObject_Close@CComControlBase@ATL@@QEAAJK@Z 0000000180035504     LineDisplay.obj
 0004:00000510       $pdata$?IOleObject_SetExtent@CComControlBase@ATL@@QEAAJKPEAUtagSIZE@@@Z 0000000180035510     LineDisplay.obj
 0004:0000051c       $pdata$?IOleInPlaceObject_InPlaceDeactivate@CComControlBase@ATL@@QEAAJXZ 000000018003551c     LineDisplay.obj
 0004:00000528       $pdata$?IOleInPlaceObject_UIDeactivate@CComControlBase@ATL@@QEAAJXZ 0000000180035528     LineDisplay.obj
 0004:00000534       $pdata$?IOleInPlaceObject_SetObjectRects@CComControlBase@ATL@@QEAAJPEBUtagRECT@@0@Z 0000000180035534     LineDisplay.obj
 0004:00000540       $pdata$?IViewObject_Draw@CComControlBase@ATL@@QEAAJKJPEAXPEAUtagDVTARGETDEVICE@@PEAUHDC__@@2PEBU_RECTL@@3@Z 0000000180035540     LineDisplay.obj
 0004:0000054c       $pdata$?IDataObject_GetData@CComControlBase@ATL@@QEAAJPEAUtagFORMATETC@@PEAUtagSTGMEDIUM@@@Z 000000018003554c     LineDisplay.obj
 0004:00000558       $pdata$?FireViewChange@CComControlBase@ATL@@QEAAJXZ 0000000180035558     LineDisplay.obj
 0004:00000564       $pdata$?OnPaint@CComControlBase@ATL@@QEAA_JI_K_JAEAH@Z 0000000180035564     LineDisplay.obj
 0004:00000570       $pdata$?OnDrawAdvanced@CComControlBase@ATL@@UEAAJAEAUATL_DRAWINFO@@@Z 0000000180035570     LineDisplay.obj
 0004:0000057c       $pdata$?GetTypeInfo@?$IDispatchImpl@UIOPOSLineDisplay@@$1?IID_IOPOSLineDisplay@@3U_GUID@@B$1?LIBID_OposLineDisplay_CCO@@3U3@B$00$0A@VCComTypeInfoHolder@ATL@@@ATL@@UEAAJIKPEAPEAUITypeInfo@@@Z 000000018003557c     LineDisplay.obj
 0004:00000588       $pdata$?Invoke@?$IDispatchImpl@UIOPOSLineDisplay@@$1?IID_IOPOSLineDisplay@@3U_GUID@@B$1?LIBID_OposLineDisplay_CCO@@3U3@B$00$0A@VCComTypeInfoHolder@ATL@@@ATL@@UEAAJJAEBU_GUID@@KGPEAUtagDISPPARAMS@@PEAUtagVARIANT@@PEAUtagEXCEPINFO@@PEAI@Z 0000000180035588     LineDisplay.obj
 0004:00000594       $pdata$?atlCreate@?$CWindowImpl@VCOPOSLineDisplay@@VCWindow@ATL@@V?$CWinTraits@$0FGAAAAAA@$0A@@3@@ATL@@QEAAPEAUHWND__@@PEAU3@V_U_RECT@2@PEB_WKKV_U_MENUorID@2@PEAX@Z 0000000180035594     LineDisplay.obj
 0004:000005a0       $pdata$?CreateControlWindow@?$CComControl@VCOPOSLineDisplay@@V?$CWindowImpl@VCOPOSLineDisplay@@VCWindow@ATL@@V?$CWinTraits@$0FGAAAAAA@$0A@@3@@ATL@@@ATL@@UEAAPEAUHWND__@@PEAU3@AEAUtagRECT@@@Z 00000001800355a0     LineDisplay.obj
 0004:000005ac       $pdata$?ProcessWindowMessage@?$CComControl@VCOPOSLineDisplay@@V?$CWindowImpl@VCOPOSLineDisplay@@VCWindow@ATL@@V?$CWinTraits@$0FGAAAAAA@$0A@@3@@ATL@@@ATL@@UEAAHPEAUHWND__@@I_K_JAEA_JK@Z 00000001800355ac     LineDisplay.obj
 0004:000005b8       $pdata$?GetSizeMax@?$IPersistStreamInitImpl@VCOPOSLineDisplay@@@ATL@@UEAAJPEAT_ULARGE_INTEGER@@@Z 00000001800355b8     LineDisplay.obj
 0004:000005c4       $pdata$?IPersistStreamInit_Load@?$IPersistStreamInitImpl@VCOPOSLineDisplay@@@ATL@@QEAAJPEAUIStream@@PEBUATL_PROPMAP_ENTRY@2@@Z 00000001800355c4     LineDisplay.obj
 0004:000005d0       $pdata$?IPersistStreamInit_Save@?$IPersistStreamInitImpl@VCOPOSLineDisplay@@@ATL@@QEAAJPEAUIStream@@HPEBUATL_PROPMAP_ENTRY@2@@Z 00000001800355d0     LineDisplay.obj
 0004:000005dc       $pdata$?GetClientSite@?$IOleObjectImpl@VCOPOSLineDisplay@@@ATL@@UEAAJPEAPEAUIOleClientSite@@@Z 00000001800355dc     LineDisplay.obj
 0004:000005e8       $pdata$?DoVerbPrimary@?$IOleObjectImpl@VCOPOSLineDisplay@@@ATL@@QEAAJPEBUtagRECT@@PEAUHWND__@@@Z 00000001800355e8     LineDisplay.obj
 0004:000005f4       $pdata$?DoVerb@?$IOleObjectImpl@VCOPOSLineDisplay@@@ATL@@UEAAJJPEAUtagMSG@@PEAUIOleClientSite@@JPEAUHWND__@@PEBUtagRECT@@@Z 00000001800355f4     LineDisplay.obj
 0004:00000600       $pdata$?Advise@?$IOleObjectImpl@VCOPOSLineDisplay@@@ATL@@UEAAJPEAUIAdviseSink@@PEAK@Z 0000000180035600     LineDisplay.obj
 0004:0000060c       $pdata$?Unadvise@?$IOleObjectImpl@VCOPOSLineDisplay@@@ATL@@UEAAJK@Z 000000018003560c     LineDisplay.obj
 0004:00000618       $pdata$?EnumAdvise@?$IOleObjectImpl@VCOPOSLineDisplay@@@ATL@@UEAAJPEAPEAUIEnumSTATDATA@@@Z 0000000180035618     LineDisplay.obj
 0004:00000624       $pdata$?TranslateAcceleratorW@?$IOleInPlaceActiveObjectImpl@VCOPOSLineDisplay@@@ATL@@UEAAJPEAUtagMSG@@@Z 0000000180035624     LineDisplay.obj
 0004:00000630       $pdata$?OnDocWindowActivate@?$IOleInPlaceActiveObjectImpl@VCOPOSLineDisplay@@@ATL@@UEAAJH@Z 0000000180035630     LineDisplay.obj
 0004:0000063c       $pdata$?Draw@?$IViewObjectExImpl@VCOPOSLineDisplay@@@ATL@@UEAAJKJPEAXPEAUtagDVTARGETDEVICE@@PEAUHDC__@@2PEBU_RECTL@@3P6AH_K@Z4@Z 000000018003563c     LineDisplay.obj
 0004:00000648       $pdata$?SetAdvise@?$IViewObjectExImpl@VCOPOSLineDisplay@@@ATL@@UEAAJKKPEAUIAdviseSink@@@Z 0000000180035648     LineDisplay.obj
 0004:00000654       $pdata$?GetAdvise@?$IViewObjectExImpl@VCOPOSLineDisplay@@@ATL@@UEAAJPEAK0PEAPEAUIAdviseSink@@@Z 0000000180035654     LineDisplay.obj
 0004:00000660       $pdata$?QueryHitPoint@?$IViewObjectExImpl@VCOPOSLineDisplay@@@ATL@@UEAAJKPEBUtagRECT@@UtagPOINT@@JPEAK@Z 0000000180035660     LineDisplay.obj
 0004:0000066c       $pdata$?QueryHitRect@?$IViewObjectExImpl@VCOPOSLineDisplay@@@ATL@@UEAAJKPEBUtagRECT@@0JPEAK@Z 000000018003566c     LineDisplay.obj
 0004:00000678       $pdata$?OnWindowMessage@?$IOleInPlaceObjectWindowlessImpl@VCOPOSLineDisplay@@@ATL@@UEAAJI_K_JPEA_J@Z 0000000180035678     LineDisplay.obj
 0004:00000684       $pdata$?EnumConnectionPoints@?$IConnectionPointContainerImpl@VCOPOSLineDisplay@@@ATL@@UEAAJPEAPEAUIEnumConnectionPoints@@@Z 0000000180035684     LineDisplay.obj
 0004:00000690       $pdata$?FindConnectionPoint@?$IConnectionPointContainerImpl@VCOPOSLineDisplay@@@ATL@@UEAAJAEBU_GUID@@PEAPEAUIConnectionPoint@@@Z 0000000180035690     LineDisplay.obj
 0004:0000069c       $pdata$?IsDirty@?$IPersistStorageImpl@VCOPOSLineDisplay@@@ATL@@UEAAJXZ 000000018003569c     LineDisplay.obj
 0004:000006a8       $pdata$?InitNew@?$IPersistStorageImpl@VCOPOSLineDisplay@@@ATL@@UEAAJPEAUIStorage@@@Z 00000001800356a8     LineDisplay.obj
 0004:000006b4       $pdata$?Load@?$IPersistStorageImpl@VCOPOSLineDisplay@@@ATL@@UEAAJPEAUIStorage@@@Z 00000001800356b4     LineDisplay.obj
 0004:000006c0       $pdata$?Save@?$IPersistStorageImpl@VCOPOSLineDisplay@@@ATL@@UEAAJPEAUIStorage@@H@Z 00000001800356c0     LineDisplay.obj
 0004:000006cc       $pdata$?IPSI_GetIPersistStreamInit@?$IPersistStorageImpl@VCOPOSLineDisplay@@@ATL@@AEAAPEAUIPersistStreamInit@@XZ 00000001800356cc     LineDisplay.obj
 0004:000006d8       $pdata$?GetPagesHelper@?$ISpecifyPropertyPagesImpl@VCOPOSLineDisplay@@@ATL@@IEAAJPEAUtagCAUUID@@PEBUATL_PROPMAP_ENTRY@2@@Z 00000001800356d8     LineDisplay.obj
 0004:000006e4       $pdata$?DAdvise@?$IDataObjectImpl@VCOPOSLineDisplay@@@ATL@@UEAAJPEAUtagFORMATETC@@KPEAUIAdviseSink@@PEAK@Z 00000001800356e4     LineDisplay.obj
 0004:000006f0       $pdata$?GetClassInfoW@?$IProvideClassInfo2Impl@$1?CLSID_OPOSLineDisplay@@3U_GUID@@B$1?DIID__IOPOSLineDisplayEvents@@3U2@B$1?LIBID_OposLineDisplay_CCO@@3U2@B$00$0A@VCComTypeInfoHolder@ATL@@@ATL@@UEAAJPEAPEAUITypeInfo@@@Z 00000001800356f0     LineDisplay.obj
 0004:000006fc       $pdata$?GetInterfaceSafetyOptions@?$IObjectSafetyImpl@VCOPOSLineDisplay@@$02@ATL@@UEAAJAEBU_GUID@@PEAK1@Z 00000001800356fc     LineDisplay.obj
 0004:00000708       $pdata$?SetInterfaceSafetyOptions@?$IObjectSafetyImpl@VCOPOSLineDisplay@@$02@ATL@@UEAAJAEBU_GUID@@KK@Z 0000000180035708     LineDisplay.obj
 0004:00000714       $pdata$?_LocCPQueryInterface@?$IConnectionPointImpl@VCOPOSLineDisplay@@$1?DIID__IOPOSLineDisplayEvents@@3U_GUID@@BVCComDynamicUnkArray@ATL@@@ATL@@UEAAJAEBU_GUID@@PEAPEAX@Z 0000000180035714     LineDisplay.obj
 0004:00000714       $pdata$?_LocCPQueryInterface@?$IConnectionPointImpl@VCOPOSLineDisplay@@$1?IID_IPropertyNotifySink@@3U_GUID@@BVCComDynamicUnkArray@ATL@@@ATL@@UEAAJAEBU_GUID@@PEAPEAX@Z 0000000180035714     LineDisplay.obj
 0004:00000720       $pdata$?Advise@?$IConnectionPointImpl@VCOPOSLineDisplay@@$1?DIID__IOPOSLineDisplayEvents@@3U_GUID@@BVCComDynamicUnkArray@ATL@@@ATL@@UEAAJPEAUIUnknown@@PEAK@Z 0000000180035720     LineDisplay.obj
 0004:00000720       $pdata$?Advise@?$IConnectionPointImpl@VCOPOSLineDisplay@@$1?IID_IPropertyNotifySink@@3U_GUID@@BVCComDynamicUnkArray@ATL@@@ATL@@UEAAJPEAUIUnknown@@PEAK@Z 0000000180035720     LineDisplay.obj
 0004:0000072c       $pdata$?Unadvise@?$IConnectionPointImpl@VCOPOSLineDisplay@@$1?DIID__IOPOSLineDisplayEvents@@3U_GUID@@BVCComDynamicUnkArray@ATL@@@ATL@@UEAAJK@Z 000000018003572c     LineDisplay.obj
 0004:0000072c       $pdata$?Unadvise@?$IConnectionPointImpl@VCOPOSLineDisplay@@$1?IID_IPropertyNotifySink@@3U_GUID@@BVCComDynamicUnkArray@ATL@@@ATL@@UEAAJK@Z 000000018003572c     LineDisplay.obj
 0004:00000738       $pdata$?EnumConnections@?$IConnectionPointImpl@VCOPOSLineDisplay@@$1?DIID__IOPOSLineDisplayEvents@@3U_GUID@@BVCComDynamicUnkArray@ATL@@@ATL@@UEAAJPEAPEAUIEnumConnections@@@Z 0000000180035738     LineDisplay.obj
 0004:00000738       $pdata$?EnumConnections@?$IConnectionPointImpl@VCOPOSLineDisplay@@$1?IID_IPropertyNotifySink@@3U_GUID@@BVCComDynamicUnkArray@ATL@@@ATL@@UEAAJPEAPEAUIEnumConnections@@@Z 0000000180035738     LineDisplay.obj
 0004:00000744       $pdata$?Fire_DirectIOEvent@?$CProxy_IOPOSEvents@VCOPOSLineDisplay@@@@QEAAXJPEAJPEAPEA_W@Z 0000000180035744     LineDisplay.obj
 0004:00000750       $pdata$?Fire_StatusUpdateEvent@?$CProxy_IOPOSEvents@VCOPOSLineDisplay@@@@QEAAXJ@Z 0000000180035750     LineDisplay.obj
 0004:0000075c       $pdata$?FireTheEvent@?$CProxy_IOPOSEvents@VCOPOSLineDisplay@@@@IEAAXPEAVOposVariant@@IAEAJPEB_WJ@Z 000000018003575c     LineDisplay.obj
 0004:00000768       $pdata$?GetConnMap@COPOSLineDisplay@@SAPEBU_ATL_CONNMAP_ENTRY@ATL@@PEAH@Z 0000000180035768     LineDisplay.obj
 0004:00000774       $pdata$?ProcessWindowMessage@COPOSLineDisplay@@UEAAHPEAUHWND__@@I_K_JAEA_JK@Z 0000000180035774     LineDisplay.obj
 0004:00000780       $pdata$?SODirectIO@COPOSLineDisplay@@MEAAJJPEAJPEAPEA_W@Z 0000000180035780     LineDisplay.obj
 0004:0000078c       $pdata$?SOStatusUpdate@COPOSLineDisplay@@MEAAJJ@Z 000000018003578c     LineDisplay.obj
 0004:00000798       $pdata$?DoEvent@COPOSLineDisplay@@IEAAXI_K_J@Z 0000000180035798     LineDisplay.obj
 0004:000007a4       $pdata$??__E_Module@@YAXXZ 00000001800357a4     LineDisplay.obj
 0004:000007b0       $pdata$?CreateInstance@?$CComCreator@V?$CComObjectCached@VCComClassFactory@ATL@@@ATL@@@ATL@@SAJPEAXAEBU_GUID@@PEAPEAX@Z 00000001800357b0     LineDisplay.obj
 0004:000007bc       $pdata$DllMain             00000001800357bc     LineDisplay.obj
 0004:000007c8       $pdata$?CreateInstance@?$CComCreator@V?$CComObject@VCOPOSLineDisplay@@@ATL@@@ATL@@SAJPEAXAEBU_GUID@@PEAPEAX@Z 00000001800357c8     LineDisplay.obj
 0004:000007d4       $pdata$?CreateInstance@?$CComCreator@V?$CComAggObject@VCOPOSLineDisplay@@@ATL@@@ATL@@SAJPEAXAEBU_GUID@@PEAPEAX@Z 00000001800357d4     LineDisplay.obj
 0004:000007e0       $pdata$?AddRef@?$CComObjectCached@VCComClassFactory@ATL@@@ATL@@UEAAKXZ 00000001800357e0     LineDisplay.obj
 0004:000007ec       $pdata$?Release@?$CComObjectCached@VCComClassFactory@ATL@@@ATL@@UEAAKXZ 00000001800357ec     LineDisplay.obj
 0004:000007f8       $pdata$??_G?$CComObjectCached@VCComClassFactory@ATL@@@ATL@@UEAAPEAXI@Z 00000001800357f8     LineDisplay.obj
 0004:00000804       $pdata$??1?$CComEnumImpl@UIEnumConnectionPoints@@$1?_GUID_b196b285_bab4_101a_b69c_00aa00341d07@@3U__s_GUID@@BPEAUIConnectionPoint@@V?$_CopyInterface@UIConnectionPoint@@@ATL@@@ATL@@UEAA@XZ 0000000180035804     LineDisplay.obj
 0004:00000810       $pdata$?Next@?$CComEnumImpl@UIEnumConnectionPoints@@$1?_GUID_b196b285_bab4_101a_b69c_00aa00341d07@@3U__s_GUID@@BPEAUIConnectionPoint@@V?$_CopyInterface@UIConnectionPoint@@@ATL@@@ATL@@UEAAJKPEAPEAUIConnectionPoint@@PEAK@Z 0000000180035810     LineDisplay.obj
 0004:0000081c       $pdata$?Clone@?$CComEnumImpl@UIEnumConnectionPoints@@$1?_GUID_b196b285_bab4_101a_b69c_00aa00341d07@@3U__s_GUID@@BPEAUIConnectionPoint@@V?$_CopyInterface@UIConnectionPoint@@@ATL@@@ATL@@UEAAJPEAPEAUIEnumConnectionPoints@@@Z 000000018003581c     LineDisplay.obj
 0004:00000828       $pdata$?Init@?$CComEnumImpl@UIEnumConnectionPoints@@$1?_GUID_b196b285_bab4_101a_b69c_00aa00341d07@@3U__s_GUID@@BPEAUIConnectionPoint@@V?$_CopyInterface@UIConnectionPoint@@@ATL@@@ATL@@QEAAJPEAPEAUIConnectionPoint@@0PEAUIUnknown@@W4CComEnumFlags@2@@Z 0000000180035828     LineDisplay.obj
 0004:00000834       $pdata$?Release@?$CComObject@V?$CComEnum@UIEnumConnectionPoints@@$1?_GUID_b196b285_bab4_101a_b69c_00aa00341d07@@3U__s_GUID@@BPEAUIConnectionPoint@@V?$_CopyInterface@UIConnectionPoint@@@ATL@@VCComSingleThreadModel@6@@ATL@@@ATL@@UEAAKXZ 0000000180035834     LineDisplay.obj
 0004:00000834       $pdata$?Release@?$CComObject@V?$CComEnum@UIEnumConnections@@$1?_GUID_b196b287_bab4_101a_b69c_00aa00341d07@@3U__s_GUID@@BUtagCONNECTDATA@@V?$_Copy@UtagCONNECTDATA@@@ATL@@VCComSingleThreadModel@6@@ATL@@@ATL@@UEAAKXZ 0000000180035834     LineDisplay.obj
 0004:00000840       $pdata$?CreateInstance@?$CComObject@V?$CComEnum@UIEnumConnectionPoints@@$1?_GUID_b196b285_bab4_101a_b69c_00aa00341d07@@3U__s_GUID@@BPEAUIConnectionPoint@@V?$_CopyInterface@UIConnectionPoint@@@ATL@@VCComSingleThreadModel@6@@ATL@@@ATL@@SAJPEAPEAV12@@Z 0000000180035840     LineDisplay.obj
 0004:0000084c       $pdata$??_G?$CComObject@V?$CComEnum@UIEnumConnectionPoints@@$1?_GUID_b196b285_bab4_101a_b69c_00aa00341d07@@3U__s_GUID@@BPEAUIConnectionPoint@@V?$_CopyInterface@UIConnectionPoint@@@ATL@@VCComSingleThreadModel@6@@ATL@@@ATL@@UEAAPEAXI@Z 000000018003584c     LineDisplay.obj
 0004:00000858       $pdata$?Release@?$CComAggObject@VCOPOSLineDisplay@@@ATL@@UEAAKXZ 0000000180035858     LineDisplay.obj
 0004:00000864       $pdata$?QueryInterface@?$CComAggObject@VCOPOSLineDisplay@@@ATL@@UEAAJAEBU_GUID@@PEAPEAX@Z 0000000180035864     LineDisplay.obj
 0004:00000870       $pdata$??0?$CComContainedObject@VCOPOSLineDisplay@@@ATL@@QEAA@PEAX@Z 0000000180035870     LineDisplay.obj
 0004:0000087c       $pdata$??_G?$CComContainedObject@VCOPOSLineDisplay@@@ATL@@UEAAPEAXI@Z 000000018003587c     LineDisplay.obj
 0004:00000888       $pdata$??_G?$CComAggObject@VCOPOSLineDisplay@@@ATL@@UEAAPEAXI@Z 0000000180035888     LineDisplay.obj
 0004:00000894       $pdata$??0?$CComObject@VCOPOSLineDisplay@@@ATL@@QEAA@PEAX@Z 0000000180035894     LineDisplay.obj
 0004:000008a0       $pdata$??1?$CComObject@VCOPOSLineDisplay@@@ATL@@UEAA@XZ 00000001800358a0     LineDisplay.obj
 0004:000008ac       $pdata$?Release@?$CComObject@VCOPOSLineDisplay@@@ATL@@UEAAKXZ 00000001800358ac     LineDisplay.obj
 0004:000008b8       $pdata$??_G?$CComObject@VCOPOSLineDisplay@@@ATL@@UEAAPEAXI@Z 00000001800358b8     LineDisplay.obj
 0004:000008c4       $pdata$??__E?pConnMap@?$IConnectionPointContainerImpl@VCOPOSLineDisplay@@@ATL@@0PEBU_ATL_CONNMAP_ENTRY@2@EB@@YAXXZ 00000001800358c4     LineDisplay.obj
 0004:000008d0       $pdata$??1?$CComEnumImpl@UIEnumConnections@@$1?_GUID_b196b287_bab4_101a_b69c_00aa00341d07@@3U__s_GUID@@BUtagCONNECTDATA@@V?$_Copy@UtagCONNECTDATA@@@ATL@@@ATL@@UEAA@XZ 00000001800358d0     LineDisplay.obj
 0004:000008dc       $pdata$?Next@?$CComEnumImpl@UIEnumConnections@@$1?_GUID_b196b287_bab4_101a_b69c_00aa00341d07@@3U__s_GUID@@BUtagCONNECTDATA@@V?$_Copy@UtagCONNECTDATA@@@ATL@@@ATL@@UEAAJKPEAUtagCONNECTDATA@@PEAK@Z 00000001800358dc     LineDisplay.obj
 0004:000008e8       $pdata$?Clone@?$CComEnumImpl@UIEnumConnections@@$1?_GUID_b196b287_bab4_101a_b69c_00aa00341d07@@3U__s_GUID@@BUtagCONNECTDATA@@V?$_Copy@UtagCONNECTDATA@@@ATL@@@ATL@@UEAAJPEAPEAUIEnumConnections@@@Z 00000001800358e8     LineDisplay.obj
 0004:000008f4       $pdata$?Init@?$CComEnumImpl@UIEnumConnections@@$1?_GUID_b196b287_bab4_101a_b69c_00aa00341d07@@3U__s_GUID@@BUtagCONNECTDATA@@V?$_Copy@UtagCONNECTDATA@@@ATL@@@ATL@@QEAAJPEAUtagCONNECTDATA@@0PEAUIUnknown@@W4CComEnumFlags@2@@Z 00000001800358f4     LineDisplay.obj
 0004:00000900       $pdata$?CreateInstance@?$CComObject@V?$CComEnum@UIEnumConnections@@$1?_GUID_b196b287_bab4_101a_b69c_00aa00341d07@@3U__s_GUID@@BUtagCONNECTDATA@@V?$_Copy@UtagCONNECTDATA@@@ATL@@VCComSingleThreadModel@6@@ATL@@@ATL@@SAJPEAPEAV12@@Z 0000000180035900     LineDisplay.obj
 0004:0000090c       $pdata$??_G?$CComObject@V?$CComEnum@UIEnumConnections@@$1?_GUID_b196b287_bab4_101a_b69c_00aa00341d07@@3U__s_GUID@@BUtagCONNECTDATA@@V?$_Copy@UtagCONNECTDATA@@@ATL@@VCComSingleThreadModel@6@@ATL@@@ATL@@UEAAPEAXI@Z 000000018003590c     LineDisplay.obj
 0004:00000918       $pdata$??1CComControlBase@ATL@@UEAA@XZ 0000000180035918     LineDisplayImpl.obj
 0004:00000924       $pdata$??1?$IConnectionPointImpl@VCOPOSLineDisplay@@$1?DIID__IOPOSLineDisplayEvents@@3U_GUID@@BVCComDynamicUnkArray@ATL@@@ATL@@QEAA@XZ 0000000180035924     LineDisplayImpl.obj
 0004:00000924       $pdata$??1?$IConnectionPointImpl@VCOPOSLineDisplay@@$1?IID_IPropertyNotifySink@@3U_GUID@@BVCComDynamicUnkArray@ATL@@@ATL@@QEAA@XZ 0000000180035924     LineDisplayImpl.obj
 0004:00000930       $pdata$?FinalConstruct@COPOSLineDisplay@@QEAAJXZ 0000000180035930     LineDisplayImpl.obj
 0004:0000093c       $pdata$??1COPOSLineDisplay@@UEAA@XZ 000000018003593c     LineDisplayImpl.obj
 0004:00000948       $pdata$?GetOposProp@COPOSLineDisplay@@IEAAJJPEAJJ@Z 0000000180035948     LineDisplayImpl.obj
 0004:00000954       $pdata$?SetOposProp@COPOSLineDisplay@@IEAAJJJJ@Z 0000000180035954     LineDisplayImpl.obj
 0004:00000960       $pdata$?GetOposProp@COPOSLineDisplay@@IEAAJJPEAPEA_WJ@Z 0000000180035960     LineDisplayImpl.obj
 0004:0000096c       $pdata$?DoInvoke@COPOSLineDisplay@@IEAAJJPEAVOposVariant@@IHPEAJ_N@Z 000000018003596c     LineDisplayImpl.obj
 0004:00000978       $pdata$?SetCOFreezeEvents@COPOSLineDisplay@@IEAAXF@Z 0000000180035978     LineDisplayImpl.obj
 0004:00000984       $pdata$?FreezeEvents@COPOSLineDisplay@@MEAAJH@Z 0000000180035984     LineDisplayImpl.obj
 0004:00000990       $pdata$?OnDraw@COPOSLineDisplay@@MEAAJAEAUATL_DRAWINFO@@@Z 0000000180035990     LineDisplayImpl.obj
 0004:0000099c       $pdata$?EventInit@COPOSLineDisplay@@IEAAJXZ 000000018003599c     LineDisplayImpl.obj
 0004:000009a8       $pdata$?EventUninit@COPOSLineDisplay@@IEAAXXZ 00000001800359a8     LineDisplayImpl.obj
 0004:000009b4       $pdata$?s_EventWindowProc@COPOSLineDisplay@@KA_JPEAUHWND__@@I_K_J@Z 00000001800359b4     LineDisplayImpl.obj
 0004:000009c0       $pdata$?EventWindowProc@COPOSLineDisplay@@IEAA_JI_K_J@Z 00000001800359c0     LineDisplayImpl.obj
 0004:000009cc       $pdata$?SOProcessID@COPOSLineDisplay@@UEAAJPEAJ@Z 00000001800359cc     LineDisplayImpl.obj
 0004:000009d8       $pdata$?get_Claimed@COPOSLineDisplay@@UEAAJPEAF@Z 00000001800359d8     LineDisplayImpl.obj
 0004:000009e4       $pdata$?get_DeviceEnabled@COPOSLineDisplay@@UEAAJPEAF@Z 00000001800359e4     LineDisplayImpl.obj
 0004:000009f0       $pdata$?get_FreezeEvents@COPOSLineDisplay@@UEAAJPEAF@Z 00000001800359f0     LineDisplayImpl.obj
 0004:000009fc       $pdata$?put_FreezeEvents@COPOSLineDisplay@@UEAAJF@Z 00000001800359fc     LineDisplayImpl.obj
 0004:00000a08       $pdata$?get_ResultCode@COPOSLineDisplay@@UEAAJPEAJ@Z 0000000180035a08     LineDisplayImpl.obj
 0004:00000a14       $pdata$?get_State@COPOSLineDisplay@@UEAAJPEAJ@Z 0000000180035a14     LineDisplayImpl.obj
 0004:00000a20       $pdata$?get_ControlObjectDescription@COPOSLineDisplay@@UEAAJPEAPEA_W@Z 0000000180035a20     LineDisplayImpl.obj
 0004:00000a2c       $pdata$?CheckHealth@COPOSLineDisplay@@UEAAJJPEAJ@Z 0000000180035a2c     LineDisplayImpl.obj
 0004:00000a38       $pdata$?ClaimDevice@COPOSLineDisplay@@UEAAJJPEAJ@Z 0000000180035a38     LineDisplayImpl.obj
 0004:00000a44       $pdata$?Close@COPOSLineDisplay@@UEAAJPEAJ@Z 0000000180035a44     LineDisplayImpl.obj
 0004:00000a50       $pdata$?DirectIO@COPOSLineDisplay@@UEAAJJPEAJPEAPEA_W0@Z 0000000180035a50     LineDisplayImpl.obj
 0004:00000a5c       $pdata$?Open@COPOSLineDisplay@@UEAAJPEA_WPEAJ@Z 0000000180035a5c     LineDisplayImpl.obj
 0004:00000a68       $pdata$?ReleaseDevice@COPOSLineDisplay@@UEAAJPEAJ@Z 0000000180035a68     LineDisplayImpl.obj
 0004:00000a74       $pdata$?get_CapBrightness@COPOSLineDisplay@@UEAAJPEAF@Z 0000000180035a74     LineDisplayImpl.obj
 0004:00000a80       $pdata$?get_CapDescriptors@COPOSLineDisplay@@UEAAJPEAF@Z 0000000180035a80     LineDisplayImpl.obj
 0004:00000a8c       $pdata$?get_CapHMarquee@COPOSLineDisplay@@UEAAJPEAF@Z 0000000180035a8c     LineDisplayImpl.obj
 0004:00000a98       $pdata$?get_CapICharWait@COPOSLineDisplay@@UEAAJPEAF@Z 0000000180035a98     LineDisplayImpl.obj
 0004:00000aa4       $pdata$?get_CapVMarquee@COPOSLineDisplay@@UEAAJPEAF@Z 0000000180035aa4     LineDisplayImpl.obj
 0004:00000ab0       $pdata$?get_CursorUpdate@COPOSLineDisplay@@UEAAJPEAF@Z 0000000180035ab0     LineDisplayImpl.obj
 0004:00000abc       $pdata$?ClearDescriptors@COPOSLineDisplay@@UEAAJPEAJ@Z 0000000180035abc     LineDisplayImpl.obj
 0004:00000ac8       $pdata$?ClearText@COPOSLineDisplay@@UEAAJPEAJ@Z 0000000180035ac8     LineDisplayImpl.obj
 0004:00000ad4       $pdata$?CreateWindow@COPOSLineDisplay@@UEAAJJJJJJJPEAJ@Z 0000000180035ad4     LineDisplayImpl.obj
 0004:00000ae0       $pdata$?DestroyWindow@COPOSLineDisplay@@UEAAJPEAJ@Z 0000000180035ae0     LineDisplayImpl.obj
 0004:00000aec       $pdata$?DisplayText@COPOSLineDisplay@@UEAAJPEA_WJPEAJ@Z 0000000180035aec     LineDisplayImpl.obj
 0004:00000af8       $pdata$?DisplayTextAt@COPOSLineDisplay@@UEAAJJJPEA_WJPEAJ@Z 0000000180035af8     LineDisplayImpl.obj
 0004:00000b04       $pdata$?RefreshWindow@COPOSLineDisplay@@UEAAJJPEAJ@Z 0000000180035b04     LineDisplayImpl.obj
 0004:00000b10       $pdata$?ScrollText@COPOSLineDisplay@@UEAAJJJPEAJ@Z 0000000180035b10     LineDisplayImpl.obj
 0004:00000b1c       $pdata$?SetDescriptor@COPOSLineDisplay@@UEAAJJJPEAJ@Z 0000000180035b1c     LineDisplayImpl.obj
 0004:00000b28       $pdata$?get_CapBlinkRate@COPOSLineDisplay@@UEAAJPEAF@Z 0000000180035b28     LineDisplayImpl.obj
 0004:00000b34       $pdata$?get_CapCustomGlyph@COPOSLineDisplay@@UEAAJPEAF@Z 0000000180035b34     LineDisplayImpl.obj
 0004:00000b40       $pdata$?DefineGlyph@COPOSLineDisplay@@UEAAJJPEA_WPEAJ@Z 0000000180035b40     LineDisplayImpl.obj
 0004:00000b4c       $pdata$?ReadCharacterAtCursor@COPOSLineDisplay@@UEAAJPEAJ0@Z 0000000180035b4c     LineDisplayImpl.obj
 0004:00000b58       $pdata$?get_CapBitmap@COPOSLineDisplay@@UEAAJPEAF@Z 0000000180035b58     LineDisplayImpl.obj
 0004:00000b64       $pdata$?get_CapMapCharacterSet@COPOSLineDisplay@@UEAAJPEAF@Z 0000000180035b64     LineDisplayImpl.obj
 0004:00000b70       $pdata$?get_CapScreenMode@COPOSLineDisplay@@UEAAJPEAF@Z 0000000180035b70     LineDisplayImpl.obj
 0004:00000b7c       $pdata$?get_MapCharacterSet@COPOSLineDisplay@@UEAAJPEAF@Z 0000000180035b7c     LineDisplayImpl.obj
 0004:00000b88       $pdata$?DisplayBitmap@COPOSLineDisplay@@UEAAJPEA_WJJJPEAJ@Z 0000000180035b88     LineDisplayImpl.obj
 0004:00000b94       $pdata$?SetBitmap@COPOSLineDisplay@@UEAAJJPEA_WJJJPEAJ@Z 0000000180035b94     LineDisplayImpl.obj
 0004:00000ba0       $pdata$?get_CapStatisticsReporting@COPOSLineDisplay@@UEAAJPEAF@Z 0000000180035ba0     LineDisplayImpl.obj
 0004:00000bac       $pdata$?get_CapUpdateStatistics@COPOSLineDisplay@@UEAAJPEAF@Z 0000000180035bac     LineDisplayImpl.obj
 0004:00000bb8       $pdata$?ResetStatistics@COPOSLineDisplay@@UEAAJPEA_WPEAJ@Z 0000000180035bb8     LineDisplayImpl.obj
 0004:00000bc4       $pdata$?RetrieveStatistics@COPOSLineDisplay@@UEAAJPEAPEA_WPEAJ@Z 0000000180035bc4     LineDisplayImpl.obj
 0004:00000bd0       $pdata$?UpdateStatistics@COPOSLineDisplay@@UEAAJPEA_WPEAJ@Z 0000000180035bd0     LineDisplayImpl.obj
 0004:00000bdc       $pdata$?get_CapCompareFirmwareVersion@COPOSLineDisplay@@UEAAJPEAF@Z 0000000180035bdc     LineDisplayImpl.obj
 0004:00000be8       $pdata$?get_CapUpdateFirmware@COPOSLineDisplay@@UEAAJPEAF@Z 0000000180035be8     LineDisplayImpl.obj
 0004:00000bf4       $pdata$?CompareFirmwareVersion@COPOSLineDisplay@@UEAAJPEA_WPEAJ1@Z 0000000180035bf4     LineDisplayImpl.obj
 0004:00000c00       $pdata$?UpdateFirmware@COPOSLineDisplay@@UEAAJPEA_WPEAJ@Z 0000000180035c00     LineDisplayImpl.obj
 0004:00000c0c       $pdata$atexit              0000000180035c0c     LIBCMT:utility.obj
 0004:00000c18       $pdata$_onexit             0000000180035c18     LIBCMT:utility.obj
 0004:00000c24       $pdata$__scrt_is_nonwritable_in_current_image 0000000180035c24     LIBCMT:utility.obj
 0004:00000c30       $pdata$__scrt_is_nonwritable_in_current_image$filt$0 0000000180035c30     LIBCMT:utility.obj
 0004:00000c3c       $pdata$__scrt_acquire_startup_lock 0000000180035c3c     LIBCMT:utility.obj
 0004:00000c48       $pdata$__scrt_release_startup_lock 0000000180035c48     LIBCMT:utility.obj
 0004:00000c54       $pdata$__scrt_initialize_crt 0000000180035c54     LIBCMT:utility.obj
 0004:00000c60       $pdata$__scrt_uninitialize_crt 0000000180035c60     LIBCMT:utility.obj
 0004:00000c6c       $pdata$__scrt_initialize_onexit_tables 0000000180035c6c     LIBCMT:utility.obj
 0004:00000c78       $pdata$__scrt_dllmain_exception_filter 0000000180035c78     LIBCMT:utility.obj
 0004:00000c84       $pdata$__scrt_dllmain_before_initialize_c 0000000180035c84     LIBCMT:utility.obj
 0004:00000c90       $pdata$__scrt_dllmain_after_initialize_c 0000000180035c90     LIBCMT:utility.obj
 0004:00000c9c       $pdata$__scrt_dllmain_uninitialize_c 0000000180035c9c     LIBCMT:utility.obj
 0004:00000ca8       $pdata$__scrt_dllmain_uninitialize_critical 0000000180035ca8     LIBCMT:utility.obj
 0004:00000cb4       $pdata$__scrt_dllmain_crt_thread_attach 0000000180035cb4     LIBCMT:utility.obj
 0004:00000cc0       $pdata$__scrt_dllmain_crt_thread_detach 0000000180035cc0     LIBCMT:utility.obj
 0004:00000ccc       $pdata$_Init_thread_header 0000000180035ccc     LIBCMT:thread_safe_statics.obj
 0004:00000cd8       $pdata$_Init_thread_footer 0000000180035cd8     LIBCMT:thread_safe_statics.obj
 0004:00000ce4       $pdata$_Init_thread_wait   0000000180035ce4     LIBCMT:thread_safe_statics.obj
 0004:00000cf0       $pdata$_Init_thread_notify 0000000180035cf0     LIBCMT:thread_safe_statics.obj
 0004:00000cfc       $pdata$?__scrt_uninitialize_thread_safe_statics@@YAXXZ 0000000180035cfc     LIBCMT:thread_safe_statics.obj
 0004:00000d08       $pdata$?__scrt_initialize_thread_safe_statics@@YAHXZ 0000000180035d08     LIBCMT:thread_safe_statics.obj
 0004:00000d14       $pdata$__report_securityfailure 0000000180035d14     LIBCMT:gs_report.obj
 0004:00000d20       $pdata$__report_rangecheckfailure 0000000180035d20     LIBCMT:gs_report.obj
 0004:00000d2c       $pdata$__report_gsfailure  0000000180035d2c     LIBCMT:gs_report.obj
 0004:00000d38       $pdata$capture_current_context 0000000180035d38     LIBCMT:gs_report.obj
 0004:00000d44       $pdata$capture_previous_context 0000000180035d44     LIBCMT:gs_report.obj
 0004:00000d50       $pdata$__raise_securityfailure 0000000180035d50     LIBCMT:gs_report.obj
 0004:00000d5c       $pdata$??2@YAPEAX_KAEBUnothrow_t@std@@@Z 0000000180035d5c     LIBCMT:new_scalar_nothrow.obj
 0004:00000d68       $pdata$?catch$0@?0???2@YAPEAX_KAEBUnothrow_t@std@@@Z@4HA 0000000180035d68     LIBCMT:new_scalar_nothrow.obj
 0004:00000d74       $pdata$__GSHandlerCheckCommon 0000000180035d74     LIBCMT:gshandler.obj
 0004:00000d80       $pdata$__GSHandlerCheck    0000000180035d80     LIBCMT:gshandler.obj
 0004:00000d8c       $pdata$__GSHandlerCheck_SEH 0000000180035d8c     LIBCMT:gshandlerseh.obj
 0004:00000db0       $pdata$?dllmain_crt_process_attach@@YAHQEAUHINSTANCE__@@QEAX@Z 0000000180035db0     LIBCMT:dll_dllmain.obj
 0004:00000dbc       $pdata$?fin$0@?0??dllmain_crt_process_attach@@YAHQEAUHINSTANCE__@@QEAX@Z@4HA 0000000180035dbc     LIBCMT:dll_dllmain.obj
 0004:00000dc8       $pdata$?dllmain_crt_process_detach@@YAH_N@Z 0000000180035dc8     LIBCMT:dll_dllmain.obj
 0004:00000dd4       $pdata$?fin$0@?0??dllmain_crt_process_detach@@YAH_N@Z@4HA 0000000180035dd4     LIBCMT:dll_dllmain.obj
 0004:00000de0       $pdata$?fin$1@?0??dllmain_crt_process_detach@@YAH_N@Z@4HA 0000000180035de0     LIBCMT:dll_dllmain.obj
 0004:00000dec       $pdata$?dllmain_crt_dispatch@@YAHQEAUHINSTANCE__@@KQEAX@Z 0000000180035dec     LIBCMT:dll_dllmain.obj
 0004:00000df8       $pdata$?dllmain_dispatch@@YAHQEAUHINSTANCE__@@KQEAX@Z 0000000180035df8     LIBCMT:dll_dllmain.obj
 0004:00000e04       $pdata$?filt$0@?0??dllmain_dispatch@@YAHQEAUHINSTANCE__@@KQEAX@Z@4HA 0000000180035e04     LIBCMT:dll_dllmain.obj
 0004:00000e10       $pdata$_DllMainCRTStartup  0000000180035e10     LIBCMT:dll_dllmain.obj
 0004:00000e1c       $pdata$??2@YAPEAX_K@Z      0000000180035e1c     LIBCMT:new_scalar.obj
 0004:00000e28       $pdata$__isa_available_init 0000000180035e28     LIBCMT:cpu_disp.obj
 0004:00000e34       $pdata$__scrt_fastfail     0000000180035e34     LIBCMT:utility_desktop.obj
 0004:00000e40       $pdata$__security_init_cookie 0000000180035e40     LIBCMT:gs_support.obj
 0004:00000e4c       $pdata$__scrt_initialize_default_local_stdio_options 0000000180035e4c     LIBCMT:default_local_stdio_options.obj
 0004:00000e58       $pdata$_RTC_Initialize     0000000180035e58     LIBCMT:initsect.obj
 0004:00000e64       $pdata$_RTC_Terminate      0000000180035e64     LIBCMT:initsect.obj
 0004:00000e70       $pdata$??0exception@std@@QEAA@AEBV01@@Z 0000000180035e70     LIBCMT:throw_bad_alloc.obj
 0004:00000e7c       $pdata$??_Gbad_alloc@std@@UEAAPEAXI@Z 0000000180035e7c     LIBCMT:throw_bad_alloc.obj
 0004:00000e7c       $pdata$??_Gbad_array_new_length@std@@UEAAPEAXI@Z 0000000180035e7c     LIBCMT:throw_bad_alloc.obj
 0004:00000e7c       $pdata$??_Gexception@std@@UEAAPEAXI@Z 0000000180035e7c     LIBCMT:throw_bad_alloc.obj
 0004:00000e7c       $pdata$??_Gbad_exception@std@@UEAAPEAXI@Z 0000000180035e7c     libvcruntime:frame.obj
 0004:00000e88       $pdata$??0bad_alloc@std@@QEAA@AEBV01@@Z 0000000180035e88     LIBCMT:throw_bad_alloc.obj
 0004:00000e94       $pdata$??0bad_array_new_length@std@@QEAA@AEBV01@@Z 0000000180035e94     LIBCMT:throw_bad_alloc.obj
 0004:00000ea0       $pdata$?__scrt_throw_std_bad_alloc@@YAXXZ 0000000180035ea0     LIBCMT:throw_bad_alloc.obj
 0004:00000eac       $pdata$?__scrt_throw_std_bad_array_new_length@@YAXXZ 0000000180035eac     LIBCMT:throw_bad_alloc.obj
 0004:00000ed0       $pdata$??_Gtype_info@@UEAAPEAXI@Z 0000000180035ed0     LIBCMT:std_type_info_static.obj
 0004:00000edc       $pdata$??0CAtlBaseModule@ATL@@QEAA@XZ 0000000180035edc     atls:atlbase.obj
 0004:00000ee8       $pdata$??1CAtlBaseModule@ATL@@QEAA@XZ 0000000180035ee8     atls:atlbase.obj
 0004:00000ef4       $pdata$??__E_AtlBaseModule@ATL@@YAXXZ 0000000180035ef4     atls:atlbase.obj
 0004:00000f00       $pdata$AtlThunk_AllocateData 0000000180035f00     atls:atlthunk.obj
 0004:00000f0c       $pdata$AtlThunk_InitData   0000000180035f0c     atls:atlthunk.obj
 0004:00000f18       $pdata$AtlThunk_DataToCode 0000000180035f18     atls:atlthunk.obj
 0004:00000f24       $pdata$AtlThunk_FreeData   0000000180035f24     atls:atlthunk.obj
 0004:00000f30       $pdata$?__InitializeThunkPool@@YAHXZ 0000000180035f30     atls:atlthunk.obj
 0004:00000f3c       $pdata$?__AllocStdCallThunk_cmn@@YAPEAXXZ 0000000180035f3c     atls:atlthunk.obj
 0004:00000f48       $pdata$??$GetProcAddressAll@P6AP6A_JPEAUHWND__@@I_K_J@ZPEAUAtlThunkData_t@@@Z@@YAP6AP6A_JPEAUHWND__@@I_K_J@ZPEAUAtlThunkData_t@@@ZPEAP6AP6A_J0I12@Z3@Z@Z 0000000180035f48     atls:atlthunk.obj
 0004:00000f48       $pdata$??$GetProcAddressAll@P6APEAUAtlThunkData_t@@XZ@@YAP6APEAUAtlThunkData_t@@XZPEAP6APEAU0@XZ@Z 0000000180035f48     atls:atlthunk.obj
 0004:00000f48       $pdata$??$GetProcAddressAll@P6AXPEAUAtlThunkData_t@@@Z@@YAP6AXPEAUAtlThunkData_t@@@ZPEAP6AX0@Z@Z 0000000180035f48     atls:atlthunk.obj
 0004:00000f48       $pdata$??$GetProcAddressAll@P6AXPEAUAtlThunkData_t@@PEAX_K@Z@@YAP6AXPEAUAtlThunkData_t@@PEAX_K@ZPEAP6AX012@Z@Z 0000000180035f48     atls:atlthunk.obj
 0004:00000f54       $pdata$_purecall           0000000180035f54     libvcruntime:purevirt.obj
 0004:00000f60       $pdata$wcsstr              0000000180035f60     libvcruntime:wcsstr.obj
 0004:00000fa8       $pdata$__vcrt_initialize   0000000180035fa8     libvcruntime:initialization.obj
 0004:00000fb4       $pdata$__vcrt_uninitialize 0000000180035fb4     libvcruntime:initialization.obj
 0004:00000fc0       $pdata$__vcrt_uninitialize_critical 0000000180035fc0     libvcruntime:initialization.obj
 0004:00000fcc       $pdata$__vcrt_thread_attach 0000000180035fcc     libvcruntime:initialization.obj
 0004:00000fd8       $pdata$__vcrt_thread_detach 0000000180035fd8     libvcruntime:initialization.obj
 0004:00000fe4       $pdata$__C_specific_handler 0000000180035fe4     libvcruntime:riscchandler.obj
 0004:00000ff0       $pdata$?DecompFuncInfo@FH4@@YA_JPEAEAEAUFuncInfo4@1@_KH_N@Z 0000000180035ff0     libvcruntime:risctrnsctrl.obj
 0004:00000ffc       $pdata$?FrameUnwindToEmptyState@__FrameHandler4@@SAXPEA_KPEAU_xDISPATCHER_CONTEXT@@PEAUFuncInfo4@FH4@@@Z 0000000180035ffc     libvcruntime:risctrnsctrl.obj
 0004:00001008       $pdata$?UnwindNestedFrames@__FrameHandler4@@SAXPEA_KPEAUEHExceptionRecord@@PEAU_CONTEXT@@0PEAXPEAUFuncInfo4@FH4@@HHPEAUHandlerType4@5@PEAU_xDISPATCHER_CONTEXT@@E@Z 0000000180036008     libvcruntime:risctrnsctrl.obj
 0004:00001014       $pdata$?GetRangeOfTrysToCheck@__FrameHandler4@@SA?AU?$pair@Viterator@TryBlockMap4@FH4@@V123@@std@@AEAVTryBlockMap4@FH4@@HPEAU_xDISPATCHER_CONTEXT@@PEAUFuncInfo4@5@H@Z 0000000180036014     libvcruntime:risctrnsctrl.obj
 0004:00001020       $pdata$_GetImageBase       0000000180036020     libvcruntime:risctrnsctrl.obj
 0004:0000102c       $pdata$_SetImageBase       000000018003602c     libvcruntime:risctrnsctrl.obj
 0004:00001038       $pdata$_GetThrowImageBase  0000000180036038     libvcruntime:risctrnsctrl.obj
 0004:00001044       $pdata$_SetThrowImageBase  0000000180036044     libvcruntime:risctrnsctrl.obj
 0004:00001050       $pdata$_CreateFrameInfo    0000000180036050     libvcruntime:risctrnsctrl.obj
 0004:0000105c       $pdata$_FindAndUnlinkFrame 000000018003605c     libvcruntime:risctrnsctrl.obj
 0004:00001068       $pdata$__CxxFrameHandler4  0000000180036068     libvcruntime:risctrnsctrl.obj
 0004:00001074       $pdata$??$_CallSETranslator@V__FrameHandler4@@@@YAHPEAUEHExceptionRecord@@PEA_KPEAU_CONTEXT@@PEAU_xDISPATCHER_CONTEXT@@PEAUFuncInfo4@FH4@@K1H@Z 0000000180036074     libvcruntime:risctrnsctrl.obj
 0004:00001080       $pdata$?filt$0@?0???$_CallSETranslator@V__FrameHandler4@@@@YAHPEAUEHExceptionRecord@@PEA_KPEAU_CONTEXT@@PEAU_xDISPATCHER_CONTEXT@@PEAUFuncInfo4@FH4@@K1H@Z@4HA 0000000180036080     libvcruntime:risctrnsctrl.obj
 0004:0000108c       $pdata$_IsExceptionObjectToBeDestroyed 000000018003608c     libvcruntime:ehhelpers.obj
 0004:00001098       $pdata$__FrameUnwindFilter 0000000180036098     libvcruntime:ehhelpers.obj
 0004:000010a4       $pdata$__DestructExceptionObject 00000001800360a4     libvcruntime:ehhelpers.obj
 0004:000010b0       $pdata$__DestructExceptionObject$filt$0 00000001800360b0     libvcruntime:ehhelpers.obj
 0004:000010bc       $pdata$__std_type_info_destroy_list 00000001800360bc     libvcruntime:std_type_info.obj
 0004:000010c8       $pdata$__std_exception_copy 00000001800360c8     libvcruntime:std_exception.obj
 0004:000010d4       $pdata$__std_exception_destroy 00000001800360d4     libvcruntime:std_exception.obj
 0004:000010e0       $pdata$_CxxThrowException  00000001800360e0     libvcruntime:throw.obj
 0004:000010ec       $pdata$__vcrt_initialize_ptd 00000001800360ec     libvcruntime:per_thread_data.obj
 0004:000010f8       $pdata$__vcrt_uninitialize_ptd 00000001800360f8     libvcruntime:per_thread_data.obj
 0004:00001104       $pdata$__vcrt_getptd       0000000180036104     libvcruntime:per_thread_data.obj
 0004:00001110       $pdata$__vcrt_getptd_noexit 0000000180036110     libvcruntime:per_thread_data.obj
 0004:0000111c       $pdata$__vcrt_freeptd      000000018003611c     libvcruntime:per_thread_data.obj
 0004:00001128       $pdata$__vcrt_freefls      0000000180036128     libvcruntime:per_thread_data.obj
 0004:00001134       $pdata$__vcrt_initialize_locks 0000000180036134     libvcruntime:locks.obj
 0004:00001140       $pdata$__vcrt_uninitialize_locks 0000000180036140     libvcruntime:locks.obj
 0004:00001170       $pdata$?StateFromIp@__FrameHandler4@@SAHPEAUFuncInfo4@FH4@@PEAU_xDISPATCHER_CONTEXT@@_K@Z 0000000180036170     libvcruntime:ehstate.obj
 0004:0000117c       $pdata$?getStartStop@UWMap4@FH4@@QEAAXHHAEAViterator@12@0@Z 000000018003617c     libvcruntime:frame.obj
 0004:00001188       $pdata$?getStateFromIterators@UWMap4@FH4@@SAHAEBViterator@12@H0H0@Z 0000000180036188     libvcruntime:frame.obj
 0004:00001194       $pdata$??0HandlerMap4@FH4@@QEAA@PEBUTryBlockMapEntry4@1@_KH@Z 0000000180036194     libvcruntime:frame.obj
 0004:000011a0       $pdata$?FrameUnwindToState@__FrameHandler4@@SAXPEA_KPEAU_xDISPATCHER_CONTEXT@@PEAUFuncInfo4@FH4@@H@Z 00000001800361a0     libvcruntime:frame.obj
 0004:000011ac       $pdata$?filt$0@?0??FrameUnwindToState@__FrameHandler4@@SAXPEA_KPEAU_xDISPATCHER_CONTEXT@@PEAUFuncInfo4@FH4@@H@Z@4HA 00000001800361ac     libvcruntime:frame.obj
 0004:000011b8       $pdata$?fin$1@?0??FrameUnwindToState@__FrameHandler4@@SAXPEA_KPEAU_xDISPATCHER_CONTEXT@@PEAUFuncInfo4@FH4@@H@Z@4HA 00000001800361b8     libvcruntime:frame.obj
 0004:000011c4       $pdata$?CxxCallCatchBlock@__FrameHandler4@@SAPEAXPEAU_EXCEPTION_RECORD@@@Z 00000001800361c4     libvcruntime:frame.obj
 0004:000011d0       $pdata$?filt$0@?0??CxxCallCatchBlock@__FrameHandler4@@SAPEAXPEAU_EXCEPTION_RECORD@@@Z@4HA 00000001800361d0     libvcruntime:frame.obj
 0004:000011dc       $pdata$?fin$1@?0??CxxCallCatchBlock@__FrameHandler4@@SAPEAXPEAU_EXCEPTION_RECORD@@@Z@4HA 00000001800361dc     libvcruntime:frame.obj
 0004:000011e8       $pdata$??0bad_exception@std@@QEAA@AEBV01@@Z 00000001800361e8     libvcruntime:frame.obj
 0004:000011f4       $pdata$?ExFilterRethrow@@YAHPEAU_EXCEPTION_POINTERS@@PEAUEHExceptionRecord@@PEAH@Z 00000001800361f4     libvcruntime:frame.obj
 0004:00001200       $pdata$?ExFilterRethrowFH4@@YAHPEAU_EXCEPTION_POINTERS@@PEAUEHExceptionRecord@@HPEAH@Z 0000000180036200     libvcruntime:frame.obj
 0004:0000120c       $pdata$?IsInExceptionSpec@@YAEPEAUEHExceptionRecord@@PEBU_s_ESTypeList@@@Z 000000018003620c     libvcruntime:frame.obj
 0004:00001218       $pdata$?Is_bad_exception_allowed@@YAEPEBU_s_ESTypeList@@@Z 0000000180036218     libvcruntime:frame.obj
 0004:00001224       $pdata$??$__InternalCxxFrameHandler@V__FrameHandler4@@@@YA?AW4_EXCEPTION_DISPOSITION@@PEAUEHExceptionRecord@@PEA_KPEAU_CONTEXT@@PEAU_xDISPATCHER_CONTEXT@@PEAUFuncInfo4@FH4@@H1E@Z 0000000180036224     libvcruntime:frame.obj
 0004:00001230       $pdata$??$TypeMatchHelper@V__FrameHandler3@@@@YAHPEBU_s_HandlerType@@PEBU_s_CatchableType@@PEBU_s_ThrowInfo@@@Z 0000000180036230     libvcruntime:frame.obj
 0004:0000123c       $pdata$??$TypeMatchHelper@V__FrameHandler4@@@@YAHPEAUHandlerType4@FH4@@PEBU_s_CatchableType@@PEBU_s_ThrowInfo@@@Z 000000018003623c     libvcruntime:frame.obj
 0004:00001248       $pdata$??$BuildCatchObjectHelperInternal@V__FrameHandler4@@@@YAHPEAUEHExceptionRecord@@PEAXPEAUHandlerType4@FH4@@PEBU_s_CatchableType@@@Z 0000000180036248     libvcruntime:frame.obj
 0004:00001254       $pdata$??$BuildCatchObjectInternal@V__FrameHandler4@@@@YAXPEAUEHExceptionRecord@@PEAXPEAUHandlerType4@FH4@@PEBU_s_CatchableType@@@Z 0000000180036254     libvcruntime:frame.obj
 0004:00001260       $pdata$??$FindHandler@V__FrameHandler4@@@@YAXPEAUEHExceptionRecord@@PEA_KPEAU_CONTEXT@@PEAU_xDISPATCHER_CONTEXT@@PEAUFuncInfo4@FH4@@EH1@Z 0000000180036260     libvcruntime:frame.obj
 0004:0000126c       $pdata$??$CatchIt@V__FrameHandler4@@@@YAXPEAUEHExceptionRecord@@PEA_KPEAU_CONTEXT@@PEAU_xDISPATCHER_CONTEXT@@PEAUFuncInfo4@FH4@@PEAUHandlerType4@4@PEBU_s_CatchableType@@PEAUTryBlockMapEntry4@4@H1EE@Z 000000018003626c     libvcruntime:frame.obj
 0004:00001278       $pdata$??$FindHandlerForForeignException@V__FrameHandler4@@@@YAXPEAUEHExceptionRecord@@PEA_KPEAU_CONTEXT@@PEAU_xDISPATCHER_CONTEXT@@PEAUFuncInfo4@FH4@@HH1@Z 0000000180036278     libvcruntime:frame.obj
 0004:00001284       $pdata$__vcrt_FlsAlloc     0000000180036284     libvcruntime:winapi_downlevel.obj
 0004:00001290       $pdata$__vcrt_FlsFree      0000000180036290     libvcruntime:winapi_downlevel.obj
 0004:0000129c       $pdata$__vcrt_FlsGetValue  000000018003629c     libvcruntime:winapi_downlevel.obj
 0004:000012a8       $pdata$__vcrt_FlsSetValue  00000001800362a8     libvcruntime:winapi_downlevel.obj
 0004:000012b4       $pdata$__vcrt_InitializeCriticalSectionEx 00000001800362b4     libvcruntime:winapi_downlevel.obj
 0004:000012c0       $pdata$?try_get_function@@YAPEAXW4function_id@?A0x5302d918@@QEBDQEBW4module_id@2@2@Z 00000001800362c0     libvcruntime:winapi_downlevel.obj
 0004:000012fc       $pdata$_invalid_parameter_noinfo 00000001800362fc     libucrt:invalid_parameter.obj
 0004:00001308       $pdata$_invoke_watson      0000000180036308     libucrt:invalid_parameter.obj
 0004:00001314       $pdata$__acrt_call_reportfault 0000000180036314     libucrt:invalid_parameter.obj
 0004:00001320       $pdata$_invalid_parameter  0000000180036320     libucrt:invalid_parameter.obj
 0004:0000132c       $pdata$_errno              000000018003632c     libucrt:errno.obj
 0004:00001338       $pdata$__doserrno          0000000180036338     libucrt:errno.obj
 0004:00001344       $pdata$__acrt_errno_map_os_error 0000000180036344     libucrt:errno.obj
 0004:00001350       $pdata$_recalloc_base      0000000180036350     libucrt:recalloc.obj
 0004:0000135c       $pdata$_resetstkoflw       000000018003635c     libucrt:resetstk.obj
 0004:00001368       $pdata$wcscat_s            0000000180036368     libucrt:wcscat_s.obj
 0004:00001374       $pdata$wcscpy_s            0000000180036374     libucrt:wcscpy_s.obj
 0004:00001380       $pdata$wcsncpy_s           0000000180036380     libucrt:wcsncpy_s.obj
 0004:0000138c       $pdata$??0_LocaleUpdate@@QEAA@QEAU__crt_locale_pointers@@@Z 000000018003638c     libucrt:output.obj
 0004:00001398       $pdata$__stdio_common_vswprintf_s 0000000180036398     libucrt:output.obj
 0004:000013a4       $pdata$?write_string@?$string_output_adapter@_W@__crt_stdio_output@@QEBAXQEB_WHQEAHAEAV__crt_deferred_errno_cache@@@Z 00000001800363a4     libucrt:output.obj
 0004:000013b0       $pdata$??$common_vsprintf@Vformat_validation_base@__crt_stdio_output@@_W@@YAH_KQEA_W0QEB_WQEAU__crt_locale_pointers@@QEAD@Z 00000001800363b0     libucrt:output.obj
 0004:000013bc       $pdata$??$write_multiple_characters@V?$string_output_adapter@_W@__crt_stdio_output@@D@__crt_stdio_output@@YAXAEBV?$string_output_adapter@_W@0@DHQEAH@Z 00000001800363bc     libucrt:output.obj
 0004:000013c8       $pdata$??$ensure_buffer_is_big_enough@D@formatting_buffer@__crt_stdio_output@@QEAA_N_K@Z 00000001800363c8     libucrt:output.obj
 0004:000013d4       $pdata$??$ensure_buffer_is_big_enough@_W@formatting_buffer@__crt_stdio_output@@QEAA_N_K@Z 00000001800363d4     libucrt:output.obj
 0004:000013e0       $pdata$?process@?$output_processor@_WV?$string_output_adapter@_W@__crt_stdio_output@@V?$format_validation_base@_WV?$string_output_adapter@_W@__crt_stdio_output@@@2@@__crt_stdio_output@@QEAAHXZ 00000001800363e0     libucrt:output.obj
 0004:000013ec       $pdata$?parse_int_from_format_string@?$output_processor@_WV?$string_output_adapter@_W@__crt_stdio_output@@V?$format_validation_base@_WV?$string_output_adapter@_W@__crt_stdio_output@@@2@@__crt_stdio_output@@AEAA_NQEAH@Z 00000001800363ec     libucrt:output.obj
 0004:000013f8       $pdata$?state_case_size@?$output_processor@_WV?$string_output_adapter@_W@__crt_stdio_output@@V?$format_validation_base@_WV?$string_output_adapter@_W@__crt_stdio_output@@@2@@__crt_stdio_output@@AEAA_NXZ 00000001800363f8     libucrt:output.obj
 0004:00001404       $pdata$?state_case_type@?$output_processor@_WV?$string_output_adapter@_W@__crt_stdio_output@@V?$format_validation_base@_WV?$string_output_adapter@_W@__crt_stdio_output@@@2@@__crt_stdio_output@@AEAA_NXZ 0000000180036404     libucrt:output.obj
 0004:00001410       $pdata$?type_case_c_tchar@?$output_processor@_WV?$string_output_adapter@_W@__crt_stdio_output@@V?$format_validation_base@_WV?$string_output_adapter@_W@__crt_stdio_output@@@2@@__crt_stdio_output@@AEAA_N_W@Z 0000000180036410     libucrt:output.obj
 0004:0000141c       $pdata$?type_case_Z@?$output_processor@_WV?$string_output_adapter@_W@__crt_stdio_output@@V?$format_validation_base@_WV?$string_output_adapter@_W@__crt_stdio_output@@@2@@__crt_stdio_output@@AEAA_NXZ 000000018003641c     libucrt:output.obj
 0004:00001428       $pdata$?type_case_s@?$output_processor@_WV?$string_output_adapter@_W@__crt_stdio_output@@V?$format_validation_base@_WV?$string_output_adapter@_W@__crt_stdio_output@@@2@@__crt_stdio_output@@AEAA_NXZ 0000000180036428     libucrt:output.obj
 0004:00001434       $pdata$?type_case_a@?$output_processor@_WV?$string_output_adapter@_W@__crt_stdio_output@@V?$format_validation_base@_WV?$string_output_adapter@_W@__crt_stdio_output@@@2@@__crt_stdio_output@@AEAA_NXZ 0000000180036434     libucrt:output.obj
 0004:00001440       $pdata$?type_case_integer@?$output_processor@_WV?$string_output_adapter@_W@__crt_stdio_output@@V?$format_validation_base@_WV?$string_output_adapter@_W@__crt_stdio_output@@@2@@__crt_stdio_output@@AEAA_NI_N@Z 0000000180036440     libucrt:output.obj
 0004:0000144c       $pdata$?type_case_n@?$output_processor@_WV?$string_output_adapter@_W@__crt_stdio_output@@V?$format_validation_base@_WV?$string_output_adapter@_W@__crt_stdio_output@@@2@@__crt_stdio_output@@AEAA_NXZ 000000018003644c     libucrt:output.obj
 0004:00001458       $pdata$?write_stored_string_tchar@?$output_processor@_WV?$string_output_adapter@_W@__crt_stdio_output@@V?$format_validation_base@_WV?$string_output_adapter@_W@__crt_stdio_output@@@2@@__crt_stdio_output@@AEAA_N_W@Z 0000000180036458     libucrt:output.obj
 0004:00001464       $pdata$??$type_case_integer_parse_into_buffer@_K@?$output_processor@_WV?$string_output_adapter@_W@__crt_stdio_output@@V?$format_validation_base@_WV?$string_output_adapter@_W@__crt_stdio_output@@@2@@__crt_stdio_output@@AEAAX_KI_N@Z 0000000180036464     libucrt:output.obj
 0004:00001470       $pdata$??$type_case_integer_parse_into_buffer@I@?$output_processor@_WV?$string_output_adapter@_W@__crt_stdio_output@@V?$format_validation_base@_WV?$string_output_adapter@_W@__crt_stdio_output@@@2@@__crt_stdio_output@@AEAAXII_N@Z 0000000180036470     libucrt:output.obj
 0004:0000147c       $pdata$_seh_filter_exe     000000018003647c     libucrt:exception_filter.obj
 0004:00001488       $pdata$?try_cor_exit_process@@YAXI@Z 0000000180036488     libucrt:exit.obj
 0004:00001494       $pdata$?exit_or_terminate_process@@YAXI@Z 0000000180036494     libucrt:exit.obj
 0004:000014a0       $pdata$?common_exit@@YAXHW4_crt_exit_cleanup_mode@@W4_crt_exit_return_mode@@@Z 00000001800364a0     libucrt:exit.obj
 0004:000014ac       $pdata$??R<lambda_6e4b09c48022b2350581041d5f6b0c4c>@@QEBA@XZ 00000001800364ac     libucrt:exit.obj
 0004:000014b8       $pdata$?filt$0@?0???R<lambda_6e4b09c48022b2350581041d5f6b0c4c>@@QEBA@XZ@4HA 00000001800364b8     libucrt:exit.obj
 0004:000014c4       $pdata$??$?RV<lambda_d80eeec6fff315bfe5c115232f3240e3>@@AEAV<lambda_6e4b09c48022b2350581041d5f6b0c4c>@@V<lambda_2358e3775559c9db80273638284d5e45>@@@?$__crt_seh_guarded_call@X@@QEAAX$$QEAV<lambda_d80eeec6fff315bfe5c115232f3240e3>@@AEAV<lambda_6e4b09c48022b2350581041d5f6b0c4c>@@$$QEAV<lambda_2358e3775559c9db80273638284d5e45>@@@Z 00000001800364c4     libucrt:exit.obj
 0004:000014d0       $pdata$?fin$0@?0???$?RV<lambda_0ae27a3a962d80f24befdcbee591983d>@@AEAV<lambda_8d0ee55de4b1038c4002e0adecdf1839>@@V<lambda_dc504788e8f1664fe9b84e20bfb512f2>@@@?$__crt_seh_guarded_call@X@@QEAAX$$QEAV<lambda_0ae27a3a962d80f24befdcbee591983d>@@AEAV<lambda_8d0ee55de4b1038c4002e0adecdf1839>@@$$QEAV<lambda_dc504788e8f1664fe9b84e20bfb512f2>@@@Z@4HA 00000001800364d0     libucrt:per_thread_data.obj
 0004:000014d0       $pdata$?fin$0@?0???$?RV<lambda_2d41944a1d46af3157314b8a01080d33>@@AEAV<lambda_8f455de75cd7d7f24b4096f044d8b9e6>@@V<lambda_aa500f224e6afead328df44964fe2772>@@@?$__crt_seh_guarded_call@X@@QEAAX$$QEAV<lambda_2d41944a1d46af3157314b8a01080d33>@@AEAV<lambda_8f455de75cd7d7f24b4096f044d8b9e6>@@$$QEAV<lambda_aa500f224e6afead328df44964fe2772>@@@Z@4HA 00000001800364d0     libucrt:per_thread_data.obj
 0004:000014d0       $pdata$?fin$0@?0???$?RV<lambda_aa87e3671a710a21b5dc78c0bdf72e11>@@AEAV<lambda_92619d2358a28f41a33ba319515a20b9>@@V<lambda_6992ecaafeb10aed2b74cb1fae11a551>@@@?$__crt_seh_guarded_call@X@@QEAAX$$QEAV<lambda_aa87e3671a710a21b5dc78c0bdf72e11>@@AEAV<lambda_92619d2358a28f41a33ba319515a20b9>@@$$QEAV<lambda_6992ecaafeb10aed2b74cb1fae11a551>@@@Z@4HA 00000001800364d0     libucrt:per_thread_data.obj
 0004:000014d0       $pdata$?fin$0@?0???$?RV<lambda_f2e299630e499de9f9a165e60fcd3db5>@@AEAV<lambda_2ae9d31cdba2644fcbeaf08da7c24588>@@V<lambda_40d01ff24d0e7b3814fdbdcee8eab3c7>@@@?$__crt_seh_guarded_call@X@@QEAAX$$QEAV<lambda_f2e299630e499de9f9a165e60fcd3db5>@@AEAV<lambda_2ae9d31cdba2644fcbeaf08da7c24588>@@$$QEAV<lambda_40d01ff24d0e7b3814fdbdcee8eab3c7>@@@Z@4HA 00000001800364d0     libucrt:per_thread_data.obj
 0004:000014d0       $pdata$?fin$0@?0???$?RV<lambda_efdfa57d1f175319df784efa44bb7b81>@@AEAV<lambda_5f0a4c1567f8adc6734073e5d1e1b35c>@@V<lambda_2e8a7d3640ea6ccb4c2413664c2db6fd>@@@?$__crt_seh_guarded_call@X@@QEAAX$$QEAV<lambda_efdfa57d1f175319df784efa44bb7b81>@@AEAV<lambda_5f0a4c1567f8adc6734073e5d1e1b35c>@@$$QEAV<lambda_2e8a7d3640ea6ccb4c2413664c2db6fd>@@@Z@4HA 00000001800364d0     libucrt:mbctype.obj
 0004:000014d0       $pdata$?fin$0@?0???$?RV<lambda_450d765d439847d4c735a33c368b5fc0>@@AEAV<lambda_44731a7d0e6d81c3e6aa82d741081786>@@V<lambda_601a2a7da3b7a96e9554ac7215c4b07c>@@@?$__crt_seh_guarded_call@P6AXH@Z@@QEAAP6AXH@Z$$QEAV<lambda_450d765d439847d4c735a33c368b5fc0>@@AEAV<lambda_44731a7d0e6d81c3e6aa82d741081786>@@$$QEAV<lambda_601a2a7da3b7a96e9554ac7215c4b07c>@@@Z@4HA 00000001800364d0     libucrt:signal.obj
 0004:000014d0       $pdata$?fin$0@?0???$?RV<lambda_d80eeec6fff315bfe5c115232f3240e3>@@AEAV<lambda_6e4b09c48022b2350581041d5f6b0c4c>@@V<lambda_2358e3775559c9db80273638284d5e45>@@@?$__crt_seh_guarded_call@X@@QEAAX$$QEAV<lambda_d80eeec6fff315bfe5c115232f3240e3>@@AEAV<lambda_6e4b09c48022b2350581041d5f6b0c4c>@@$$QEAV<lambda_2358e3775559c9db80273638284d5e45>@@@Z@4HA 00000001800364d0     libucrt:exit.obj
 0004:000014d0       $pdata$?fin$0@?0???$?RV<lambda_638799b9deba96c50f710eeac98168cd>@@AEAV<lambda_22ebabd17bc4fa466a2aca6d8deb888d>@@V<lambda_a6f7d7db0129f75315ebf26d50c089f1>@@@?$__crt_seh_guarded_call@H@@QEAAH$$QEAV<lambda_638799b9deba96c50f710eeac98168cd>@@AEAV<lambda_22ebabd17bc4fa466a2aca6d8deb888d>@@$$QEAV<lambda_a6f7d7db0129f75315ebf26d50c089f1>@@@Z@4HA 00000001800364d0     libucrt:onexit.obj
 0004:000014d0       $pdata$?fin$0@?0???$?RV<lambda_7777bce6b2f8c936911f934f8298dc43>@@AEAV<lambda_f03950bc5685219e0bcd2087efbe011e>@@V<lambda_3883c3dff614d5e0c5f61bb1ac94921c>@@@?$__crt_seh_guarded_call@H@@QEAAH$$QEAV<lambda_7777bce6b2f8c936911f934f8298dc43>@@AEAV<lambda_f03950bc5685219e0bcd2087efbe011e>@@$$QEAV<lambda_3883c3dff614d5e0c5f61bb1ac94921c>@@@Z@4HA 00000001800364d0     libucrt:onexit.obj
 0004:000014dc       $pdata$_configure_narrow_argv 00000001800364dc     libucrt:argv_parsing.obj
 0004:000014e8       $pdata$__acrt_allocate_buffer_for_argv 00000001800364e8     libucrt:argv_parsing.obj
 0004:000014f4       $pdata$??$parse_command_line@D@@YAXPEADPEAPEAD0PEA_K2@Z 00000001800364f4     libucrt:argv_parsing.obj
 0004:00001500       $pdata$__dcrt_uninitialize_environments_nolock 0000000180036500     libucrt:environment_initialization.obj
 0004:0000150c       $pdata$??$common_initialize_environment_nolock@D@@YAHXZ 000000018003650c     libucrt:environment_initialization.obj
 0004:00001518       $pdata$??$uninitialize_environment_internal@D@@YAXAEAPEAPEAD@Z 0000000180036518     libucrt:environment_initialization.obj
 0004:00001524       $pdata$??$uninitialize_environment_internal@_W@@YAXAEAPEAPEA_W@Z 0000000180036524     libucrt:environment_initialization.obj
 0004:00001530       $pdata$??$free_environment@D@@YAXQEAPEAD@Z 0000000180036530     libucrt:environment_initialization.obj
 0004:00001530       $pdata$??$free_environment@_W@@YAXQEAPEA_W@Z 0000000180036530     libucrt:environment_initialization.obj
 0004:0000153c       $pdata$??$create_environment@D@@YAQEAPEADQEAD@Z 000000018003653c     libucrt:environment_initialization.obj
 0004:00001548       $pdata$_register_onexit_function 0000000180036548     libucrt:onexit.obj
 0004:00001554       $pdata$_execute_onexit_table 0000000180036554     libucrt:onexit.obj
 0004:00001560       $pdata$??R<lambda_22ebabd17bc4fa466a2aca6d8deb888d>@@QEBAHXZ 0000000180036560     libucrt:onexit.obj
 0004:0000156c       $pdata$??R<lambda_f03950bc5685219e0bcd2087efbe011e>@@QEBAHXZ 000000018003656c     libucrt:onexit.obj
 0004:00001578       $pdata$??$?RV<lambda_638799b9deba96c50f710eeac98168cd>@@AEAV<lambda_22ebabd17bc4fa466a2aca6d8deb888d>@@V<lambda_a6f7d7db0129f75315ebf26d50c089f1>@@@?$__crt_seh_guarded_call@H@@QEAAH$$QEAV<lambda_638799b9deba96c50f710eeac98168cd>@@AEAV<lambda_22ebabd17bc4fa466a2aca6d8deb888d>@@$$QEAV<lambda_a6f7d7db0129f75315ebf26d50c089f1>@@@Z 0000000180036578     libucrt:onexit.obj
 0004:00001584       $pdata$??$?RV<lambda_7777bce6b2f8c936911f934f8298dc43>@@AEAV<lambda_f03950bc5685219e0bcd2087efbe011e>@@V<lambda_3883c3dff614d5e0c5f61bb1ac94921c>@@@?$__crt_seh_guarded_call@H@@QEAAH$$QEAV<lambda_7777bce6b2f8c936911f934f8298dc43>@@AEAV<lambda_f03950bc5685219e0bcd2087efbe011e>@@$$QEAV<lambda_3883c3dff614d5e0c5f61bb1ac94921c>@@@Z 0000000180036584     libucrt:onexit.obj
 0004:00001590       $pdata$__acrt_uninitialize 0000000180036590     libucrt:initialization.obj
 0004:0000159c       $pdata$__acrt_uninitialize_critical 000000018003659c     libucrt:initialization.obj
 0004:000015a8       $pdata$__acrt_thread_attach 00000001800365a8     libucrt:initialization.obj
 0004:000015b4       $pdata$__acrt_thread_detach 00000001800365b4     libucrt:initialization.obj
 0004:000015c0       $pdata$initialize_c        00000001800365c0     libucrt:initialization.obj
 0004:000015cc       $pdata$uninitialize_environment 00000001800365cc     libucrt:initialization.obj
 0004:000015d8       $pdata$initialize_pointers 00000001800365d8     libucrt:initialization.obj
 0004:000015e4       $pdata$uninitialize_allocated_memory 00000001800365e4     libucrt:initialization.obj
 0004:000015f0       $pdata$uninitialize_allocated_io_buffers 00000001800365f0     libucrt:initialization.obj
 0004:000015fc       $pdata$_initterm           00000001800365fc     libucrt:initterm.obj
 0004:00001608       $pdata$_initterm_e         0000000180036608     libucrt:initterm.obj
 0004:00001614       $pdata$_callnewh           0000000180036614     libucrt:new_handler.obj
 0004:00001620       $pdata$_query_new_handler  0000000180036620     libucrt:new_handler.obj
 0004:0000162c       $pdata$_query_new_handler$fin$0 000000018003662c     libucrt:new_handler.obj
 0004:00001638       $pdata$terminate           0000000180036638     libucrt:terminate.obj
 0004:00001644       $pdata$abort               0000000180036644     libucrt:abort.obj
 0004:00001650       $pdata$strcpy_s            0000000180036650     libucrt:strcpy_s.obj
 0004:0000165c       $pdata$??$parse_integer@KV?$c_string_character_source@_W@__crt_strtox@@@__crt_strtox@@YAKQEAU__crt_locale_pointers@@V?$c_string_character_source@_W@0@H_N@Z 000000018003665c     libucrt:atox.obj
 0004:00001674       $pdata$_free_base          0000000180036674     libucrt:free_base.obj
 0004:00001680       $pdata$__acrt_initialize_ptd 0000000180036680     libucrt:per_thread_data.obj
 0004:0000168c       $pdata$__acrt_uninitialize_ptd 000000018003668c     libucrt:per_thread_data.obj
 0004:00001698       $pdata$__acrt_getptd       0000000180036698     libucrt:per_thread_data.obj
 0004:000016a4       $pdata$__acrt_getptd_head  00000001800366a4     libucrt:per_thread_data.obj
 0004:000016b0       $pdata$__acrt_getptd_noexit 00000001800366b0     libucrt:per_thread_data.obj
 0004:000016bc       $pdata$__acrt_freeptd      00000001800366bc     libucrt:per_thread_data.obj
 0004:000016c8       $pdata$?destroy_fls@@YAXPEAX@Z 00000001800366c8     libucrt:per_thread_data.obj
 0004:000016d4       $pdata$?replace_current_thread_locale_nolock@@YAXQEAU__acrt_ptd@@QEAU__crt_locale_data@@@Z 00000001800366d4     libucrt:per_thread_data.obj
 0004:000016e0       $pdata$?construct_ptd_array@@YAXQEAU__acrt_ptd@@@Z 00000001800366e0     libucrt:per_thread_data.obj
 0004:000016ec       $pdata$?destroy_ptd_array@@YAXQEAU__acrt_ptd@@@Z 00000001800366ec     libucrt:per_thread_data.obj
 0004:000016f8       $pdata$??$?RV<lambda_0ae27a3a962d80f24befdcbee591983d>@@AEAV<lambda_8d0ee55de4b1038c4002e0adecdf1839>@@V<lambda_dc504788e8f1664fe9b84e20bfb512f2>@@@?$__crt_seh_guarded_call@X@@QEAAX$$QEAV<lambda_0ae27a3a962d80f24befdcbee591983d>@@AEAV<lambda_8d0ee55de4b1038c4002e0adecdf1839>@@$$QEAV<lambda_dc504788e8f1664fe9b84e20bfb512f2>@@@Z 00000001800366f8     libucrt:per_thread_data.obj
 0004:00001704       $pdata$??$?RV<lambda_aa87e3671a710a21b5dc78c0bdf72e11>@@AEAV<lambda_92619d2358a28f41a33ba319515a20b9>@@V<lambda_6992ecaafeb10aed2b74cb1fae11a551>@@@?$__crt_seh_guarded_call@X@@QEAAX$$QEAV<lambda_aa87e3671a710a21b5dc78c0bdf72e11>@@AEAV<lambda_92619d2358a28f41a33ba319515a20b9>@@$$QEAV<lambda_6992ecaafeb10aed2b74cb1fae11a551>@@@Z 0000000180036704     libucrt:per_thread_data.obj
 0004:00001710       $pdata$??$?RV<lambda_f2e299630e499de9f9a165e60fcd3db5>@@AEAV<lambda_2ae9d31cdba2644fcbeaf08da7c24588>@@V<lambda_40d01ff24d0e7b3814fdbdcee8eab3c7>@@@?$__crt_seh_guarded_call@X@@QEAAX$$QEAV<lambda_f2e299630e499de9f9a165e60fcd3db5>@@AEAV<lambda_2ae9d31cdba2644fcbeaf08da7c24588>@@$$QEAV<lambda_40d01ff24d0e7b3814fdbdcee8eab3c7>@@@Z 0000000180036710     libucrt:per_thread_data.obj
 0004:0000171c       $pdata$??$?RV<lambda_2d41944a1d46af3157314b8a01080d33>@@AEAV<lambda_8f455de75cd7d7f24b4096f044d8b9e6>@@V<lambda_aa500f224e6afead328df44964fe2772>@@@?$__crt_seh_guarded_call@X@@QEAAX$$QEAV<lambda_2d41944a1d46af3157314b8a01080d33>@@AEAV<lambda_8f455de75cd7d7f24b4096f044d8b9e6>@@$$QEAV<lambda_aa500f224e6afead328df44964fe2772>@@@Z 000000018003671c     libucrt:per_thread_data.obj
 0004:00001728       $pdata$_calloc_base        0000000180036728     libucrt:calloc_base.obj
 0004:00001734       $pdata$_malloc_base        0000000180036734     libucrt:malloc_base.obj
 0004:00001740       $pdata$_msize_base         0000000180036740     libucrt:msize.obj
 0004:0000174c       $pdata$_realloc_base       000000018003674c     libucrt:realloc_base.obj
 0004:00001758       $pdata$__acrt_initialize_winapi_thunks 0000000180036758     libucrt:winapi_thunks.obj
 0004:00001764       $pdata$__acrt_uninitialize_winapi_thunks 0000000180036764     libucrt:winapi_thunks.obj
 0004:00001770       $pdata$__acrt_AreFileApisANSI 0000000180036770     libucrt:winapi_thunks.obj
 0004:0000177c       $pdata$__acrt_FlsAlloc     000000018003677c     libucrt:winapi_thunks.obj
 0004:00001788       $pdata$__acrt_FlsFree      0000000180036788     libucrt:winapi_thunks.obj
 0004:00001794       $pdata$__acrt_FlsGetValue  0000000180036794     libucrt:winapi_thunks.obj
 0004:000017a0       $pdata$__acrt_FlsSetValue  00000001800367a0     libucrt:winapi_thunks.obj
 0004:000017ac       $pdata$__acrt_InitializeCriticalSectionEx 00000001800367ac     libucrt:winapi_thunks.obj
 0004:000017b8       $pdata$__acrt_LCMapStringEx 00000001800367b8     libucrt:winapi_thunks.obj
 0004:000017c4       $pdata$__acrt_LocaleNameToLCID 00000001800367c4     libucrt:winapi_thunks.obj
 0004:000017d0       $pdata$__acrt_AppPolicyGetProcessTerminationMethodInternal 00000001800367d0     libucrt:winapi_thunks.obj
 0004:000017dc       $pdata$__acrt_SetThreadStackGuarantee 00000001800367dc     libucrt:winapi_thunks.obj
 0004:000017e8       $pdata$?try_get_function@@YAPEAXW4function_id@?A0x391cf84c@@QEBDQEBW4module_id@2@2@Z 00000001800367e8     libucrt:winapi_thunks.obj
 0004:000017f4       $pdata$wcstol              00000001800367f4     libucrt:strtox.obj
 0004:00001800       $pdata$_mbtowc_l           0000000180036800     libucrt:mbtowc.obj
 0004:0000180c       $pdata$__acrt_update_locale_info 000000018003680c     libucrt:locale_update.obj
 0004:00001818       $pdata$__acrt_update_multibyte_info 0000000180036818     libucrt:locale_update.obj
 0004:00001824       $pdata$__acrt_fp_format    0000000180036824     libucrt:cvt.obj
 0004:00001830       $pdata$?fp_format_e_internal@@YAHQEAD_KH_NIQEAU_strflt@@2QEAU__crt_locale_pointers@@@Z 0000000180036830     libucrt:cvt.obj
 0004:0000183c       $pdata$?fp_format_e@@YAHQEBNQEAD_K12H_NIQEAU__crt_locale_pointers@@W4__acrt_rounding_mode@@@Z 000000018003683c     libucrt:cvt.obj
 0004:00001848       $pdata$?should_round_up@@YA_NQEBN_KFW4__acrt_rounding_mode@@@Z 0000000180036848     libucrt:cvt.obj
 0004:00001854       $pdata$?fp_format_a@@YAHQEBNPEAD_KQEAD2H_NIQEAU__crt_locale_pointers@@W4__acrt_rounding_mode@@@Z 0000000180036854     libucrt:cvt.obj
 0004:00001860       $pdata$?fp_format_f_internal@@YAHQEAD_KHQEAU_strflt@@_NQEAU__crt_locale_pointers@@@Z 0000000180036860     libucrt:cvt.obj
 0004:0000186c       $pdata$?fp_format_g@@YAHQEBNQEAD_K12H_NIQEAU__crt_locale_pointers@@@Z 000000018003686c     libucrt:cvt.obj
 0004:00001878       $pdata$_fileno             0000000180036878     libucrt:fileno.obj
 0004:00001884       $pdata$__acrt_initialize_stdio 0000000180036884     libucrt:_file.obj
 0004:00001890       $pdata$__acrt_uninitialize_stdio 0000000180036890     libucrt:_file.obj
 0004:0000189c       $pdata$__acrt_uninitialize_locale 000000018003689c     libucrt:wsetlocale.obj
 0004:000018a8       $pdata$??$?RV<lambda_410d79af7f07d98d83a3f525b3859a53>@@AEAV<lambda_3e16ef9562a7dcce91392c22ab16ea36>@@V<lambda_38119f0e861e05405d8a144b9b982f0a>@@@?$__crt_seh_guarded_call@X@@QEAAX$$QEAV<lambda_410d79af7f07d98d83a3f525b3859a53>@@AEAV<lambda_3e16ef9562a7dcce91392c22ab16ea36>@@$$QEAV<lambda_38119f0e861e05405d8a144b9b982f0a>@@@Z 00000001800368a8     libucrt:wsetlocale.obj
 0004:000018b4       $pdata$?fin$0@?0???$?RV<lambda_410d79af7f07d98d83a3f525b3859a53>@@AEAV<lambda_3e16ef9562a7dcce91392c22ab16ea36>@@V<lambda_38119f0e861e05405d8a144b9b982f0a>@@@?$__crt_seh_guarded_call@X@@QEAAX$$QEAV<lambda_410d79af7f07d98d83a3f525b3859a53>@@AEAV<lambda_3e16ef9562a7dcce91392c22ab16ea36>@@$$QEAV<lambda_38119f0e861e05405d8a144b9b982f0a>@@@Z@4HA 00000001800368b4     libucrt:wsetlocale.obj
 0004:000018c0       $pdata$__acrt_initialize_lowio 00000001800368c0     libucrt:ioinit.obj
 0004:000018cc       $pdata$__acrt_initialize_lowio$fin$0 00000001800368cc     libucrt:ioinit.obj
 0004:000018cc       $pdata$__acrt_lowio_ensure_fh_exists$fin$0 00000001800368cc     libucrt:osfinfo.obj
 0004:000018d8       $pdata$__acrt_uninitialize_lowio 00000001800368d8     libucrt:ioinit.obj
 0004:000018e4       $pdata$?initialize_inherited_file_handles_nolock@@YAXXZ 00000001800368e4     libucrt:ioinit.obj
 0004:000018f0       $pdata$?initialize_stdio_handles_nolock@@YAXXZ 00000001800368f0     libucrt:ioinit.obj
 0004:000018fc       $pdata$__acrt_initialize_locks 00000001800368fc     libucrt:locks.obj
 0004:00001908       $pdata$__acrt_uninitialize_locks 0000000180036908     libucrt:locks.obj
 0004:00001914       $pdata$__acrt_get_process_end_policy 0000000180036914     libucrt:win_policies.obj
 0004:00001920       $pdata$??$__acrt_mbs_to_wcs_cp@U__crt_win32_buffer_internal_dynamic_resizing@@@@YAHQEBDAEAV?$__crt_win32_buffer@_WU__crt_win32_buffer_internal_dynamic_resizing@@@@I@Z 0000000180036920     libucrt:argv_wildcards.obj
 0004:0000192c       $pdata$??$__acrt_wcs_to_mbs_cp@U__crt_win32_buffer_internal_dynamic_resizing@@@@YAHQEB_WAEAV?$__crt_win32_buffer@DU__crt_win32_buffer_internal_dynamic_resizing@@@@I@Z 000000018003692c     libucrt:argv_wildcards.obj
 0004:00001938       $pdata$??$common_expand_argv_wildcards@D@@YAHQEAPEADQEAPEAPEAD@Z 0000000180036938     libucrt:argv_wildcards.obj
 0004:00001944       $pdata$??$copy_and_add_argument_to_buffer@D@@YAHQEBD0_KAEAV?$argument_list@D@?A0x5f5c8891@@@Z 0000000180036944     libucrt:argv_wildcards.obj
 0004:00001950       $pdata$??$expand_argument_wildcards@D@@YAHQEAD0AEAV?$argument_list@D@?A0x5f5c8891@@@Z 0000000180036950     libucrt:argv_wildcards.obj
 0004:0000195c       $pdata$__acrt_GetModuleFileNameA 000000018003695c     libucrt:getmodulefilenamea.obj
 0004:00001968       $pdata$??$__acrt_wcs_to_mbs_cp@U__crt_win32_buffer_no_resizing@@@@YAHQEB_WAEAV?$__crt_win32_buffer@DU__crt_win32_buffer_no_resizing@@@@I@Z 0000000180036968     libucrt:getmodulefilenamea.obj
 0004:00001974       $pdata$__acrt_update_thread_multibyte_data 0000000180036974     libucrt:mbctype.obj
 0004:00001980       $pdata$__acrt_initialize_multibyte 0000000180036980     libucrt:mbctype.obj
 0004:0000198c       $pdata$_setmbcp_nolock     000000018003698c     libucrt:mbctype.obj
 0004:00001998       $pdata$?getSystemCP@@YAHH@Z 0000000180036998     libucrt:mbctype.obj
 0004:000019a4       $pdata$?setSBCS@@YAXPEAU__crt_multibyte_data@@@Z 00000001800369a4     libucrt:mbctype.obj
 0004:000019b0       $pdata$?update_thread_multibyte_data_internal@@YAPEAU__crt_multibyte_data@@QEAU__acrt_ptd@@QEAPEAU1@@Z 00000001800369b0     libucrt:mbctype.obj
 0004:000019bc       $pdata$?fin$0@?0??update_thread_multibyte_data_internal@@YAPEAU__crt_multibyte_data@@QEAU__acrt_ptd@@QEAPEAU1@@Z@4HA 00000001800369bc     libucrt:mbctype.obj
 0004:000019c8       $pdata$?setmbcp_internal@@YAHH_NQEAU__acrt_ptd@@QEAPEAU__crt_multibyte_data@@@Z 00000001800369c8     libucrt:mbctype.obj
 0004:000019d4       $pdata$?setSBUpLow@@YAXPEAU__crt_multibyte_data@@@Z 00000001800369d4     libucrt:mbctype.obj
 0004:000019e0       $pdata$??$?RV<lambda_efdfa57d1f175319df784efa44bb7b81>@@AEAV<lambda_5f0a4c1567f8adc6734073e5d1e1b35c>@@V<lambda_2e8a7d3640ea6ccb4c2413664c2db6fd>@@@?$__crt_seh_guarded_call@X@@QEAAX$$QEAV<lambda_efdfa57d1f175319df784efa44bb7b81>@@AEAV<lambda_5f0a4c1567f8adc6734073e5d1e1b35c>@@$$QEAV<lambda_2e8a7d3640ea6ccb4c2413664c2db6fd>@@@Z 00000001800369e0     libucrt:mbctype.obj
 0004:000019ec       $pdata$?x_ismbbtype_l@@YAHPEAU__crt_locale_pointers@@IHH@Z 00000001800369ec     libucrt:ismbbyte.obj
 0004:000019f8       $pdata$__acrt_initialize_command_line 00000001800369f8     libucrt:argv_data.obj
 0004:00001a04       $pdata$__acrt_WideCharToMultiByte 0000000180036a04     libucrt:widechartomultibyte.obj
 0004:00001a10       $pdata$__dcrt_get_narrow_environment_from_os 0000000180036a10     libucrt:get_environment_from_os.obj
 0004:00001a1c       $pdata$__acrt_initialize_heap 0000000180036a1c     libucrt:heap_handle.obj
 0004:00001a28       $pdata$__acrt_execute_initializers 0000000180036a28     libucrt:shared_initialization.obj
 0004:00001a34       $pdata$__acrt_execute_uninitializers 0000000180036a34     libucrt:shared_initialization.obj
 0004:00001a40       $pdata$__acrt_get_sigabrt_handler 0000000180036a40     libucrt:signal.obj
 0004:00001a4c       $pdata$raise               0000000180036a4c     libucrt:signal.obj
 0004:00001a58       $pdata$raise$fin$0         0000000180036a58     libucrt:signal.obj
 0004:00001a64       $pdata$??$?RV<lambda_450d765d439847d4c735a33c368b5fc0>@@AEAV<lambda_44731a7d0e6d81c3e6aa82d741081786>@@V<lambda_601a2a7da3b7a96e9554ac7215c4b07c>@@@?$__crt_seh_guarded_call@P6AXH@Z@@QEAAP6AXH@Z$$QEAV<lambda_450d765d439847d4c735a33c368b5fc0>@@AEAV<lambda_44731a7d0e6d81c3e6aa82d741081786>@@$$QEAV<lambda_601a2a7da3b7a96e9554ac7215c4b07c>@@@Z 0000000180036a64     libucrt:signal.obj
 0004:00001a70       $pdata$_fflush_nolock      0000000180036a70     libucrt:fflush.obj
 0004:00001a7c       $pdata$__acrt_stdio_flush_nolock 0000000180036a7c     libucrt:fflush.obj
 0004:00001a88       $pdata$?common_flush_all@@YAH_N@Z 0000000180036a88     libucrt:fflush.obj
 0004:00001a94       $pdata$??$?RV<lambda_842d9ff0dc9ef11c61343bbaebe7f885>@@AEAV<lambda_c5860995281e5c4ce005b3de8f5874ee>@@V<lambda_d90129c13df834fdcbf8d2b88dafcf2d>@@@?$__crt_seh_guarded_call@X@@QEAAX$$QEAV<lambda_842d9ff0dc9ef11c61343bbaebe7f885>@@AEAV<lambda_c5860995281e5c4ce005b3de8f5874ee>@@$$QEAV<lambda_d90129c13df834fdcbf8d2b88dafcf2d>@@@Z 0000000180036a94     libucrt:fflush.obj
 0004:00001aa0       $pdata$?fin$0@?0???$?RV<lambda_842d9ff0dc9ef11c61343bbaebe7f885>@@AEAV<lambda_c5860995281e5c4ce005b3de8f5874ee>@@V<lambda_d90129c13df834fdcbf8d2b88dafcf2d>@@@?$__crt_seh_guarded_call@X@@QEAAX$$QEAV<lambda_842d9ff0dc9ef11c61343bbaebe7f885>@@AEAV<lambda_c5860995281e5c4ce005b3de8f5874ee>@@$$QEAV<lambda_d90129c13df834fdcbf8d2b88dafcf2d>@@@Z@4HA 0000000180036aa0     libucrt:fflush.obj
 0004:00001aac       $pdata$??$?RV<lambda_886d6c58226a84441f68b9f2b8217b83>@@AEAV<lambda_ab61a845afdef5b7c387490eaf3616ee>@@V<lambda_f7f22ab5edc0698d5f6905b0d3f44752>@@@?$__crt_seh_guarded_call@X@@QEAAX$$QEAV<lambda_886d6c58226a84441f68b9f2b8217b83>@@AEAV<lambda_ab61a845afdef5b7c387490eaf3616ee>@@$$QEAV<lambda_f7f22ab5edc0698d5f6905b0d3f44752>@@@Z 0000000180036aac     libucrt:fflush.obj
 0004:00001ab8       $pdata$?fin$0@?0???$?RV<lambda_886d6c58226a84441f68b9f2b8217b83>@@AEAV<lambda_ab61a845afdef5b7c387490eaf3616ee>@@V<lambda_f7f22ab5edc0698d5f6905b0d3f44752>@@@?$__crt_seh_guarded_call@X@@QEAAX$$QEAV<lambda_886d6c58226a84441f68b9f2b8217b83>@@AEAV<lambda_ab61a845afdef5b7c387490eaf3616ee>@@$$QEAV<lambda_f7f22ab5edc0698d5f6905b0d3f44752>@@@Z@4HA 0000000180036ab8     libucrt:fflush.obj
 0004:00001ac4       $pdata$__pctype_func       0000000180036ac4     libucrt:ctype.obj
 0004:00001ad0       $pdata$iswctype            0000000180036ad0     libucrt:iswctype.obj
 0004:00001adc       $pdata$__acrt_release_locale_ref 0000000180036adc     libucrt:locale_refcounting.obj
 0004:00001ae8       $pdata$__acrt_free_locale  0000000180036ae8     libucrt:locale_refcounting.obj
 0004:00001af4       $pdata$__acrt_locale_free_lc_time_if_unreferenced 0000000180036af4     libucrt:locale_refcounting.obj
 0004:00001b00       $pdata$__acrt_update_thread_locale_data 0000000180036b00     libucrt:locale_refcounting.obj
 0004:00001b0c       $pdata$__acrt_update_thread_locale_data$fin$0 0000000180036b0c     libucrt:locale_refcounting.obj
 0004:00001b18       $pdata$_updatetlocinfoEx_nolock 0000000180036b18     libucrt:locale_refcounting.obj
 0004:00001b24       $pdata$__acrt_DownlevelLocaleNameToLCID 0000000180036b24     libucrt:lcidtoname_downlevel.obj
 0004:00001b30       $pdata$_isleadbyte_l       0000000180036b30     libucrt:_wctype.obj
 0004:00001b3c       $pdata$?__mbrtowc_utf8@__crt_mbstring@@YA_KPEA_WPEBD_KPEAU_Mbstatet@@@Z 0000000180036b3c     libucrt:mbrtowc.obj
 0004:00001b48       $pdata$?__mbsrtowcs_utf8@__crt_mbstring@@YA_KPEA_WPEAPEBD_KPEAU_Mbstatet@@@Z 0000000180036b48     libucrt:mbrtowc.obj
 0004:00001b54       $pdata$__acrt_fp_strflt_to_string 0000000180036b54     libucrt:_fptostr.obj
 0004:00001b60       $pdata$memcpy_s            0000000180036b60     libucrt:cfout.obj
 0004:00001b6c       $pdata$__acrt_fltout       0000000180036b6c     libucrt:cfout.obj
 0004:00001b78       $pdata$?divide@__crt_strtox@@YA_KAEAUbig_integer@1@AEBU21@@Z 0000000180036b78     libucrt:cfout.obj
 0004:00001b84       $pdata$0$?divide@__crt_strtox@@YA_KAEAUbig_integer@1@AEBU21@@Z 0000000180036b84     libucrt:cfout.obj
 0004:00001b90       $pdata$1$?divide@__crt_strtox@@YA_KAEAUbig_integer@1@AEBU21@@Z 0000000180036b90     libucrt:cfout.obj
 0004:00001b9c       $pdata$fegetround          0000000180036b9c     libucrt:fegetround.obj
 0004:00001ba8       $pdata$_fcloseall          0000000180036ba8     libucrt:closeall.obj
 0004:00001bb4       $pdata$_fcloseall$fin$0    0000000180036bb4     libucrt:closeall.obj
 0004:00001bc0       $pdata$__acrt_stdio_free_buffer_nolock 0000000180036bc0     libucrt:_freebuf.obj
 0004:00001bcc       $pdata$_isatty             0000000180036bcc     libucrt:isatty.obj
 0004:00001bd8       $pdata$__acrt_locale_free_monetary 0000000180036bd8     libucrt:initmon.obj
 0004:00001be4       $pdata$__acrt_locale_free_numeric 0000000180036be4     libucrt:initnum.obj
 0004:00001bf0       $pdata$__acrt_locale_free_time 0000000180036bf0     libucrt:inittime.obj
 0004:00001bfc       $pdata$?free_crt_array_internal@@YAXQEAPEBX_K@Z 0000000180036bfc     libucrt:inittime.obj
 0004:00001c08       $pdata$__acrt_GetStringTypeA 0000000180036c08     libucrt:getstringtypea.obj
 0004:00001c14       $pdata$_get_osfhandle      0000000180036c14     libucrt:osfinfo.obj
 0004:00001c20       $pdata$_free_osfhnd        0000000180036c20     libucrt:osfinfo.obj
 0004:00001c2c       $pdata$__acrt_lowio_create_handle_array 0000000180036c2c     libucrt:osfinfo.obj
 0004:00001c38       $pdata$__acrt_lowio_destroy_handle_array 0000000180036c38     libucrt:osfinfo.obj
 0004:00001c44       $pdata$__acrt_lowio_ensure_fh_exists 0000000180036c44     libucrt:osfinfo.obj
 0004:00001c50       $pdata$qsort               0000000180036c50     libucrt:qsort.obj
 0004:00001c5c       $pdata$4$qsort             0000000180036c5c     libucrt:qsort.obj
 0004:00001c68       $pdata$5$qsort             0000000180036c68     libucrt:qsort.obj
 0004:00001c74       $pdata$strncpy_s           0000000180036c74     libucrt:strncpy_s.obj
 0004:00001c80       $pdata$strpbrk             0000000180036c80     libucrt:strpbrk.obj
 0004:00001c8c       $pdata$fallbackMethod      0000000180036c8c     libucrt:strpbrk.obj
 0004:00001c98       $pdata$_mbsdec_l           0000000180036c98     libucrt:mbsdec.obj
 0004:00001ca4       $pdata$__acrt_LCMapStringA 0000000180036ca4     libucrt:lcmapstringa.obj
 0004:00001cb0       $pdata$?__acrt_LCMapStringA_stat@@YAHPEAU__crt_locale_pointers@@PEB_WKPEBDHPEADHHH@Z 0000000180036cb0     libucrt:lcmapstringa.obj
 0004:00001cbc       $pdata$?initialize_multibyte@@YAHXZ 0000000180036cbc     libucrt:multibyte_initializer.obj
 0004:00001cc8       $pdata$_commit             0000000180036cc8     libucrt:commit.obj
 0004:00001cd4       $pdata$??$?RV<lambda_a37b2b86f63e897a80ea819b0eb08c01>@@AEAV<lambda_38ce7e780aa69e748d6df282ebc68efe>@@V<lambda_99fb1378e971ab6e7edea83e3a7a83a2>@@@?$__crt_seh_guarded_call@H@@QEAAH$$QEAV<lambda_a37b2b86f63e897a80ea819b0eb08c01>@@AEAV<lambda_38ce7e780aa69e748d6df282ebc68efe>@@$$QEAV<lambda_99fb1378e971ab6e7edea83e3a7a83a2>@@@Z 0000000180036cd4     libucrt:commit.obj
 0004:00001ce0       $pdata$?fin$0@?0???$?RV<lambda_751a882b2c74d4b022dec766aa51a29a>@@AEAV<lambda_628dfdc04ba53c8bfc02c9951375f3f5>@@V<lambda_f6c7be5f7998530c34de24c7437d6b54>@@@?$__crt_seh_guarded_call@H@@QEAAH$$QEAV<lambda_751a882b2c74d4b022dec766aa51a29a>@@AEAV<lambda_628dfdc04ba53c8bfc02c9951375f3f5>@@$$QEAV<lambda_f6c7be5f7998530c34de24c7437d6b54>@@@Z@4HA 0000000180036ce0     libucrt:close.obj
 0004:00001ce0       $pdata$?fin$0@?0???$?RV<lambda_a37b2b86f63e897a80ea819b0eb08c01>@@AEAV<lambda_38ce7e780aa69e748d6df282ebc68efe>@@V<lambda_99fb1378e971ab6e7edea83e3a7a83a2>@@@?$__crt_seh_guarded_call@H@@QEAAH$$QEAV<lambda_a37b2b86f63e897a80ea819b0eb08c01>@@AEAV<lambda_38ce7e780aa69e748d6df282ebc68efe>@@$$QEAV<lambda_99fb1378e971ab6e7edea83e3a7a83a2>@@@Z@4HA 0000000180036ce0     libucrt:commit.obj
