 OPOSPOSPrinter

 Timestamp is 61a7582f (Wed Dec  1 20:10:39 2021)

 Preferred load address is 0000000180000000

 Start         Length     Name                   Class
 0001:00000000 000000c0H .text$di                CODE
 0001:000000c0 00025ba0H .text$mn                CODE
 0001:00025c60 00000040H .text$mn$00             CODE
 0001:00025ca0 00000660H .text$x                 CODE
 0001:00026300 00000078H .text$yd                CODE
 0002:00000000 00000638H .idata$5                DATA
 0002:00000638 00000030H .00cfg                  DATA
 0002:00000668 00000008H .CRT$XCA                DATA
 0002:00000670 00000008H .CRT$XCL                DATA
 0002:00000678 00000020H .CRT$XCU                DATA
 0002:00000698 00000008H .CRT$XCZ                DATA
 0002:000006a0 00000008H .CRT$XIA                DATA
 0002:000006a8 00000020H .CRT$XIC                DATA
 0002:000006c8 00000008H .CRT$XIZ                DATA
 0002:000006d0 00000008H .CRT$XLA                DATA
 0002:000006d8 00000008H .CRT$XLZ                DATA
 0002:000006e0 00000008H .CRT$XPA                DATA
 0002:000006e8 00000010H .CRT$XPX                DATA
 0002:000006f8 00000008H .CRT$XPXA               DATA
 0002:00000700 00000008H .CRT$XPZ                DATA
 0002:00000708 00000008H .CRT$XTA                DATA
 0002:00000710 00000010H .CRT$XTZ                DATA
 0002:00000718 00000000H .gehcont$y              DATA
 0002:00000718 00000000H .gfids$y                DATA
 0002:00000720 0000b060H .rdata                  DATA
 0002:0000b780 00000000H .rdata$CastGuardVftablesA DATA
 0002:0000b780 00000000H .rdata$CastGuardVftablesC DATA
 0002:0000b780 00000028H .rdata$T                DATA
 0002:0000b7a8 00000274H .rdata$r                DATA
 0002:0000ba1c 00000048H .rdata$voltmd           DATA
 0002:0000ba64 00000434H .rdata$zzzdbg           DATA
 0002:0000be98 00000008H .rtc$IAA                DATA
 0002:0000bea0 00000008H .rtc$IZZ                DATA
 0002:0000bea8 00000008H .rtc$TAA                DATA
 0002:0000beb0 00000008H .rtc$TZZ                DATA
 0002:0000beb8 00000004H .tls                    DATA
 0002:0000bebc 00000004H .tls$                   DATA
 0002:0000bec0 00000008H .tls$ZZZ                DATA
 0002:0000bec8 000019b8H .xdata                  DATA
 0002:0000d880 00000150H .xdata$x                DATA
 0002:0000d9d0 00000008H ATL$__a                 DATA
 0002:0000d9d8 00000008H ATL$__z                 DATA
 0002:0000d9e0 000000acH .edata                  DATA
 0002:0000da8c 00000078H .idata$2                DATA
 0002:0000db04 00000014H .idata$3                DATA
 0002:0000db18 00000638H .idata$4                DATA
 0002:0000e150 00000c5cH .idata$6                DATA
 0003:00000000 00000e48H .data                   DATA
 0003:00000e48 000000a8H .data$r                 DATA
 0003:00000ef0 00000020H .data$rs                DATA
 0003:00000f10 000013ecH .bss                    DATA
 0004:00000000 000023d0H .pdata                  DATA
 0005:00000000 000000f4H _RDATA                  DATA
 0006:00000000 00000220H .rsrc$01                DATA
 0006:00000220 000091c0H .rsrc$02                DATA

  Address         Publics by Value              Rva+Base               Lib:Object

 0000:00000000       ___safe_se_handler_table   0000000000000000     <absolute>
 0000:00000000       __x64_code_ranges_to_entry_points 0000000000000000     <absolute>
 0000:00000000       __x64_code_ranges_to_entry_points_count 0000000000000000     <absolute>
 0000:00000000       __guard_fids_count         0000000000000000     <absolute>
 0000:00000000       __arm64x_redirection_metadata 0000000000000000     <absolute>
 0000:00000000       __arm64x_extra_rfe_table   0000000000000000     <absolute>
 0000:00000000       __guard_iat_table          0000000000000000     <absolute>
 0000:00000000       __hybrid_code_map          0000000000000000     <absolute>
 0000:00000000       __guard_iat_count          0000000000000000     <absolute>
 0000:00000000       __arm64x_extra_rfe_table_size 0000000000000000     <absolute>
 0000:00000000       __guard_longjmp_count      0000000000000000     <absolute>
 0000:00000000       ___safe_se_handler_count   0000000000000000     <absolute>
 0000:00000000       __guard_longjmp_table      0000000000000000     <absolute>
 0000:00000000       __dynamic_value_reloc_table 0000000000000000     <absolute>
 0000:00000000       __hybrid_auxiliary_iat     0000000000000000     <absolute>
 0000:00000000       __hybrid_auxiliary_iat_copy 0000000000000000     <absolute>
 0000:00000000       __AbsoluteZero             0000000000000000     <absolute>
 0000:00000000       __guard_eh_cont_count      0000000000000000     <absolute>
 0000:00000000       __guard_check_icall_a64n_fptr 0000000000000000     <absolute>
 0000:00000000       __guard_fids_table         0000000000000000     <absolute>
 0000:00000000       __arm64x_redirection_metadata_count 0000000000000000     <absolute>
 0000:00000000       __enclave_config           0000000000000000     <absolute>
 0000:00000000       __guard_eh_cont_table      0000000000000000     <absolute>
 0000:00000000       __arm64x_native_entrypoint 0000000000000000     <absolute>
 0000:00000000       __hybrid_code_map_count    0000000000000000     <absolute>
 0000:00000100       __guard_flags              0000000000000100     <absolute>
 0000:00000000       __ImageBase                0000000180000000     <linker-defined>
 0001:000000c0       ?DupWide@_CW@@AEAAXXZ      00000001800010c0 f   CWString.obj
 0001:000000e8       ?cw_dup@@YAXPEBDAEAHAEAPEA_W1@Z 00000001800010e8 f   CWString.obj
 0001:000001c8       ?cw_memcpy@@YAHPEA_WPEBDH@Z 00000001800011c8 f   CWString.obj
 0001:00000214       ?cw_strcpy@@YAHPEA_WPEBD@Z 0000000180001214 f   CWString.obj
 0001:00000228       ??0CAtlComModule@ATL@@QEAA@XZ 0000000180001228 f i OposVariant.obj
 0001:000002a8       ??0CAtlWinModule@ATL@@QEAA@XZ 00000001800012a8 f i OposVariant.obj
 0001:00000314       ??0OposDispParms@@QEAA@PEAVOposVariant@@H@Z 0000000180001314 f   OposVariant.obj
 0001:000003bc       ??1OposDispParms@@QEAA@XZ  00000001800013bc f   OposVariant.obj
 0001:000003d4       ??_Estringdispid@CComTypeInfoHolder@ATL@@QEAAPEAXI@Z 00000001800013d4 f i OposVariant.obj
 0001:00000478       ?AtlWinModuleTerm@ATL@@YAJPEAU_ATL_WIN_MODULE70@1@PEAUHINSTANCE__@@@Z 0000000180001478 f i OposVariant.obj
 0001:00000528       ?ChangeBSTR@OposVariant@@QEAAXPEAPEA_WAEAJ@Z 0000000180001528 f   OposVariant.obj
 0001:00000588       ?ChangeLONG@OposVariant@@QEAAXPEAJAEAJ@Z 0000000180001588 f   OposVariant.obj
 0001:000005e4       ?GetLONG@OposVariant@@QEAAJXZ 00000001800015e4 f   OposVariant.obj
 0001:00000608       ?SetBSTR@OposVariant@@QEAAXPEA_WAEAJ@Z 0000000180001608 f   OposVariant.obj
 0001:00000648       ?SetBSTR_Copy@OposVariant@@QEAAXPEA_WAEAJ@Z 0000000180001648 f   OposVariant.obj
 0001:000006b8       ?SetBSTR_InOutPtr@OposVariant@@QEAA_NPEAPEA_WAEAJ@Z 00000001800016b8 f   OposVariant.obj
 0001:00000708       ?SetDispatch_Ptr@OposVariant@@QEAAXPEAUIDispatch@@AEAJ@Z 0000000180001708 f   OposVariant.obj
 0001:00000760       ?SetLONG@OposVariant@@QEAAXJ@Z 0000000180001760 f   OposVariant.obj
 0001:00000790       ?SetLONG_Ptr@OposVariant@@QEAAXPEAJAEAJ@Z 0000000180001790 f   OposVariant.obj
 0001:000007dc       ?SetString@OposVariant@@QEAAXPEB_WAEAJ@Z 00000001800017dc f   OposVariant.obj
 0001:00000840       ?SetVARIANT_BOOL@OposVariant@@QEAAXF@Z 0000000180001840 f   OposVariant.obj
 0001:00000878       ?Term@CAtlComModule@ATL@@QEAAXXZ 0000000180001878 f i OposVariant.obj
 0001:000008e8       ?_AtlInitializeCriticalSectionEx@ATL@@YAHPEAU_RTL_CRITICAL_SECTION@@KK@Z 00000001800018e8 f i OposVariant.obj
 0001:000008f0       ?_AtlRaiseException@ATL@@YAXKK@Z 00000001800018f0 f i OposVariant.obj
 0001:00000900       ?ObjectMain@CComObjectRootBase@ATL@@SAX_N@Z 0000000180001900 f i POSPrinter.obj
 0001:00000900       _guard_check_icall_nop     0000000180001900 f i LIBCMT:guard_support.obj
 0001:00000900       ?OnFinalMessage@?$CWindowImplBaseT@VCWindow@ATL@@V?$CWinTraits@$0FGAAAAAA@$0A@@2@@ATL@@UEAAXPEAUHWND__@@@Z 0000000180001900 f i POSPrinter.obj
 0001:00000904       ?GetCategoryMap@CComObjectRootBase@ATL@@SAPEBU_ATL_CATMAP_ENTRY@2@XZ 0000000180001904 f i POSPrinter.obj
 0001:00000904       ?Release@CRegObject@ATL@@UEAAKXZ 0000000180001904 f i POSPrinter.obj
 0001:00000904       ?Update@?$IOleObjectImpl@VCOPOSPOSPrinter@@@ATL@@UEAAJXZ 0000000180001904 f i POSPrinter.obj
 0001:00000904       ?GetObjectDescription@?$CComCoClass@VCOPOSPOSPrinter@@$1?CLSID_OPOSPOSPrinter@@3U_GUID@@B@ATL@@SAPEB_WXZ 0000000180001904 f i POSPrinter.obj
 0001:00000904       ?IsUpToDate@?$IOleObjectImpl@VCOPOSPOSPrinter@@@ATL@@UEAAJXZ 0000000180001904 f i POSPrinter.obj
 0001:00000904       ?SetHostNames@?$IOleObjectImpl@VCOPOSPOSPrinter@@@ATL@@UEAAJPEB_W0@Z 0000000180001904 f i POSPrinter.obj
 0001:00000904       ?OnFrameWindowActivate@?$IOleInPlaceActiveObjectImpl@VCOPOSPOSPrinter@@@ATL@@UEAAJH@Z 0000000180001904 f i POSPrinter.obj
 0001:00000904       ?EnableModeless@?$IOleInPlaceActiveObjectImpl@VCOPOSPOSPrinter@@@ATL@@UEAAJH@Z 0000000180001904 f i POSPrinter.obj
 0001:00000904       ?HandsOffStorage@?$IPersistStorageImpl@VCOPOSPOSPrinter@@@ATL@@UEAAJXZ 0000000180001904 f i POSPrinter.obj
 0001:00000904       ?OnAmbientPropertyChange@?$IOleControlImpl@VCOPOSPOSPrinter@@@ATL@@UEAAJJ@Z 0000000180001904 f i POSPrinter.obj
 0001:00000904       ?SaveCompleted@?$IPersistStorageImpl@VCOPOSPOSPrinter@@@ATL@@UEAAJPEAUIStorage@@@Z 0000000180001904 f i POSPrinter.obj
 0001:00000904       ?ResizeBorder@?$IOleInPlaceActiveObjectImpl@VCOPOSPOSPrinter@@@ATL@@UEAAJPEBUtagRECT@@PEAUIOleInPlaceUIWindow@@H@Z 0000000180001904 f i POSPrinter.obj
 0001:00000908       ?CreateInstance@CComClassFactory@ATL@@UEAAJPEAUIUnknown@@AEBU_GUID@@PEAPEAX@Z 0000000180001908 f i POSPrinter.obj
 0001:00000968       ?LockServer@CComClassFactory@ATL@@UEAAJH@Z 0000000180001968 f i POSPrinter.obj
 0001:0000098c       ??_ECComClassFactory@ATL@@UEAAPEAXI@Z 000000018000198c f i POSPrinter.obj
 0001:0000098c       ??_GCComClassFactory@ATL@@UEAAPEAXI@Z 000000018000198c f i POSPrinter.obj
 0001:000009dc       ?Next@?$CComEnumImpl@UIEnumConnections@@$1?_GUID_b196b287_bab4_101a_b69c_00aa00341d07@@3U__s_GUID@@BUtagCONNECTDATA@@V?$_Copy@UtagCONNECTDATA@@@ATL@@@ATL@@UEAAJKPEAUtagCONNECTDATA@@PEAK@Z 00000001800019dc f i POSPrinter.obj
 0001:00000aa4       ?Skip@?$CComEnumImpl@UIEnumConnections@@$1?_GUID_b196b287_bab4_101a_b69c_00aa00341d07@@3U__s_GUID@@BUtagCONNECTDATA@@V?$_Copy@UtagCONNECTDATA@@@ATL@@@ATL@@UEAAJK@Z 0000000180001aa4 f i POSPrinter.obj
 0001:00000ad0       ?Reset@?$CComEnumImpl@UIEnumConnectionPoints@@$1?_GUID_b196b285_bab4_101a_b69c_00aa00341d07@@3U__s_GUID@@BPEAUIConnectionPoint@@V?$_CopyInterface@UIConnectionPoint@@@ATL@@@ATL@@UEAAJXZ 0000000180001ad0 f i POSPrinter.obj
 0001:00000ad0       ?Reset@?$CComEnumImpl@UIEnumConnections@@$1?_GUID_b196b287_bab4_101a_b69c_00aa00341d07@@3U__s_GUID@@BUtagCONNECTDATA@@V?$_Copy@UtagCONNECTDATA@@@ATL@@@ATL@@UEAAJXZ 0000000180001ad0 f i POSPrinter.obj
 0001:00000adc       ?Clone@?$CComEnumImpl@UIEnumConnections@@$1?_GUID_b196b287_bab4_101a_b69c_00aa00341d07@@3U__s_GUID@@BUtagCONNECTDATA@@V?$_Copy@UtagCONNECTDATA@@@ATL@@@ATL@@UEAAJPEAPEAUIEnumConnections@@@Z 0000000180001adc f i POSPrinter.obj
 0001:00000c08       ?AddRef@?$CComObject@V?$CComEnum@UIEnumConnectionPoints@@$1?_GUID_b196b285_bab4_101a_b69c_00aa00341d07@@3U__s_GUID@@BPEAUIConnectionPoint@@V?$_CopyInterface@UIConnectionPoint@@@ATL@@VCComSingleThreadModel@6@@ATL@@@ATL@@UEAAKXZ 0000000180001c08 f i POSPrinter.obj
 0001:00000c08       ?AddRef@?$CComObject@V?$CComEnum@UIEnumConnections@@$1?_GUID_b196b287_bab4_101a_b69c_00aa00341d07@@3U__s_GUID@@BUtagCONNECTDATA@@V?$_Copy@UtagCONNECTDATA@@@ATL@@VCComSingleThreadModel@6@@ATL@@@ATL@@UEAAKXZ 0000000180001c08 f i POSPrinter.obj
 0001:00000c14       ?Release@?$CComObject@V?$CComEnum@UIEnumConnectionPoints@@$1?_GUID_b196b285_bab4_101a_b69c_00aa00341d07@@3U__s_GUID@@BPEAUIConnectionPoint@@V?$_CopyInterface@UIConnectionPoint@@@ATL@@VCComSingleThreadModel@6@@ATL@@@ATL@@UEAAKXZ 0000000180001c14 f i POSPrinter.obj
 0001:00000c14       ?Release@?$CComObject@V?$CComEnum@UIEnumConnections@@$1?_GUID_b196b287_bab4_101a_b69c_00aa00341d07@@3U__s_GUID@@BUtagCONNECTDATA@@V?$_Copy@UtagCONNECTDATA@@@ATL@@VCComSingleThreadModel@6@@ATL@@@ATL@@UEAAKXZ 0000000180001c14 f i POSPrinter.obj
 0001:00000c68       ?QueryInterface@?$CComObject@V?$CComEnum@UIEnumConnections@@$1?_GUID_b196b287_bab4_101a_b69c_00aa00341d07@@3U__s_GUID@@BUtagCONNECTDATA@@V?$_Copy@UtagCONNECTDATA@@@ATL@@VCComSingleThreadModel@6@@ATL@@@ATL@@UEAAJAEBU_GUID@@PEAPEAX@Z 0000000180001c68 f i POSPrinter.obj
 0001:00000c7c       ??_E?$CComObject@V?$CComEnum@UIEnumConnections@@$1?_GUID_b196b287_bab4_101a_b69c_00aa00341d07@@3U__s_GUID@@BUtagCONNECTDATA@@V?$_Copy@UtagCONNECTDATA@@@ATL@@VCComSingleThreadModel@6@@ATL@@@ATL@@UEAAPEAXI@Z 0000000180001c7c f i POSPrinter.obj
 0001:00000c7c       ??_G?$CComObject@V?$CComEnum@UIEnumConnections@@$1?_GUID_b196b287_bab4_101a_b69c_00aa00341d07@@3U__s_GUID@@BUtagCONNECTDATA@@V?$_Copy@UtagCONNECTDATA@@@ATL@@VCComSingleThreadModel@6@@ATL@@@ATL@@UEAAPEAXI@Z 0000000180001c7c f i POSPrinter.obj
 0001:00000cd4       ?GetWindowProc@?$CWindowImplBaseT@VCWindow@ATL@@V?$CWinTraits@$0FGAAAAAA@$0A@@2@@ATL@@UEAAP6A_JPEAUHWND__@@I_K_J@ZXZ 0000000180001cd4 f i POSPrinter.obj
 0001:00000cdc       ?StartWindowProc@?$CWindowImplBaseT@VCWindow@ATL@@V?$CWinTraits@$0FGAAAAAA@$0A@@2@@ATL@@SA_JPEAUHWND__@@I_K_J@Z 0000000180001cdc f i POSPrinter.obj
 0001:00000d90       ??_E?$CComObject@VCOPOSPOSPrinter@@@ATL@@W7EAAPEAXI@Z 0000000180001d90 f i POSPrinter.obj
 0001:00000d9c       ??_E?$CComObject@VCOPOSPOSPrinter@@@ATL@@WHA@EAAPEAXI@Z 0000000180001d9c f i POSPrinter.obj
 0001:00000da8       ?QueryInterface@?$CComObject@VCOPOSPOSPrinter@@@ATL@@WLI@EAAJAEBU_GUID@@PEAPEAX@Z 0000000180001da8 f i POSPrinter.obj
 0001:00000db4       ?AddRef@?$CComObject@VCOPOSPOSPrinter@@@ATL@@WLI@EAAKXZ 0000000180001db4 f i POSPrinter.obj
 0001:00000dc0       ?Release@?$CComObject@VCOPOSPOSPrinter@@@ATL@@WLI@EAAKXZ 0000000180001dc0 f i POSPrinter.obj
 0001:00000dcc       ?QueryInterface@?$CComObject@VCOPOSPOSPrinter@@@ATL@@WMA@EAAJAEBU_GUID@@PEAPEAX@Z 0000000180001dcc f i POSPrinter.obj
 0001:00000dd8       ?AddRef@?$CComObject@VCOPOSPOSPrinter@@@ATL@@WMA@EAAKXZ 0000000180001dd8 f i POSPrinter.obj
 0001:00000de4       ?Release@?$CComObject@VCOPOSPOSPrinter@@@ATL@@WMA@EAAKXZ 0000000180001de4 f i POSPrinter.obj
 0001:00000df0       ?QueryInterface@?$CComObject@VCOPOSPOSPrinter@@@ATL@@WMI@EAAJAEBU_GUID@@PEAPEAX@Z 0000000180001df0 f i POSPrinter.obj
 0001:00000dfc       ?AddRef@?$CComObject@VCOPOSPOSPrinter@@@ATL@@WMI@EAAKXZ 0000000180001dfc f i POSPrinter.obj
 0001:00000e08       ?Release@?$CComObject@VCOPOSPOSPrinter@@@ATL@@WMI@EAAKXZ 0000000180001e08 f i POSPrinter.obj
 0001:00000e14       ?QueryInterface@?$CComObject@VCOPOSPOSPrinter@@@ATL@@WNA@EAAJAEBU_GUID@@PEAPEAX@Z 0000000180001e14 f i POSPrinter.obj
 0001:00000e20       ?AddRef@?$CComObject@VCOPOSPOSPrinter@@@ATL@@WNA@EAAKXZ 0000000180001e20 f i POSPrinter.obj
 0001:00000e2c       ?Release@?$CComObject@VCOPOSPOSPrinter@@@ATL@@WNA@EAAKXZ 0000000180001e2c f i POSPrinter.obj
 0001:00000e38       ?QueryInterface@?$CComObject@VCOPOSPOSPrinter@@@ATL@@WNI@EAAJAEBU_GUID@@PEAPEAX@Z 0000000180001e38 f i POSPrinter.obj
 0001:00000e44       ?AddRef@?$CComObject@VCOPOSPOSPrinter@@@ATL@@WNI@EAAKXZ 0000000180001e44 f i POSPrinter.obj
 0001:00000e50       ?Release@?$CComObject@VCOPOSPOSPrinter@@@ATL@@WNI@EAAKXZ 0000000180001e50 f i POSPrinter.obj
 0001:00000e5c       ?QueryInterface@?$CComObject@VCOPOSPOSPrinter@@@ATL@@WOA@EAAJAEBU_GUID@@PEAPEAX@Z 0000000180001e5c f i POSPrinter.obj
 0001:00000e68       ?AddRef@?$CComObject@VCOPOSPOSPrinter@@@ATL@@WOA@EAAKXZ 0000000180001e68 f i POSPrinter.obj
 0001:00000e74       ?Release@?$CComObject@VCOPOSPOSPrinter@@@ATL@@WOA@EAAKXZ 0000000180001e74 f i POSPrinter.obj
 0001:00000e80       ?QueryInterface@?$CComObject@VCOPOSPOSPrinter@@@ATL@@WOI@EAAJAEBU_GUID@@PEAPEAX@Z 0000000180001e80 f i POSPrinter.obj
 0001:00000e8c       ?AddRef@?$CComObject@VCOPOSPOSPrinter@@@ATL@@WOI@EAAKXZ 0000000180001e8c f i POSPrinter.obj
 0001:00000e98       ?Release@?$CComObject@VCOPOSPOSPrinter@@@ATL@@WOI@EAAKXZ 0000000180001e98 f i POSPrinter.obj
 0001:00000ea4       ?QueryInterface@?$CComObject@VCOPOSPOSPrinter@@@ATL@@WPA@EAAJAEBU_GUID@@PEAPEAX@Z 0000000180001ea4 f i POSPrinter.obj
 0001:00000eb0       ?AddRef@?$CComObject@VCOPOSPOSPrinter@@@ATL@@WPA@EAAKXZ 0000000180001eb0 f i POSPrinter.obj
 0001:00000ebc       ?Release@?$CComObject@VCOPOSPOSPrinter@@@ATL@@WPA@EAAKXZ 0000000180001ebc f i POSPrinter.obj
 0001:00000ec8       ?QueryInterface@?$CComObject@VCOPOSPOSPrinter@@@ATL@@WPI@EAAJAEBU_GUID@@PEAPEAX@Z 0000000180001ec8 f i POSPrinter.obj
 0001:00000ed4       ?AddRef@?$CComObject@VCOPOSPOSPrinter@@@ATL@@WPI@EAAKXZ 0000000180001ed4 f i POSPrinter.obj
 0001:00000ee0       ?Release@?$CComObject@VCOPOSPOSPrinter@@@ATL@@WPI@EAAKXZ 0000000180001ee0 f i POSPrinter.obj
 0001:00000eec       ?QueryInterface@?$CComObject@VCOPOSPOSPrinter@@@ATL@@WBAA@EAAJAEBU_GUID@@PEAPEAX@Z 0000000180001eec f i POSPrinter.obj
 0001:00000ef8       ?AddRef@?$CComObject@VCOPOSPOSPrinter@@@ATL@@WBAA@EAAKXZ 0000000180001ef8 f i POSPrinter.obj
 0001:00000f04       ?Release@?$CComObject@VCOPOSPOSPrinter@@@ATL@@WBAA@EAAKXZ 0000000180001f04 f i POSPrinter.obj
 0001:00000f10       ?QueryInterface@?$CComObject@VCOPOSPOSPrinter@@@ATL@@WBAI@EAAJAEBU_GUID@@PEAPEAX@Z 0000000180001f10 f i POSPrinter.obj
 0001:00000f1c       ?AddRef@?$CComObject@VCOPOSPOSPrinter@@@ATL@@WBAI@EAAKXZ 0000000180001f1c f i POSPrinter.obj
 0001:00000f28       ?Release@?$CComObject@VCOPOSPOSPrinter@@@ATL@@WBAI@EAAKXZ 0000000180001f28 f i POSPrinter.obj
 0001:00000f34       ?QueryInterface@?$CComObject@VCOPOSPOSPrinter@@@ATL@@WBBA@EAAJAEBU_GUID@@PEAPEAX@Z 0000000180001f34 f i POSPrinter.obj
 0001:00000f40       ?AddRef@?$CComObject@VCOPOSPOSPrinter@@@ATL@@WBBA@EAAKXZ 0000000180001f40 f i POSPrinter.obj
 0001:00000f4c       ?Release@?$CComObject@VCOPOSPOSPrinter@@@ATL@@WBBA@EAAKXZ 0000000180001f4c f i POSPrinter.obj
 0001:00000f58       ?QueryInterface@?$CComObject@VCOPOSPOSPrinter@@@ATL@@WBBI@EAAJAEBU_GUID@@PEAPEAX@Z 0000000180001f58 f i POSPrinter.obj
 0001:00000f64       ?AddRef@?$CComObject@VCOPOSPOSPrinter@@@ATL@@WBBI@EAAKXZ 0000000180001f64 f i POSPrinter.obj
 0001:00000f70       ?Release@?$CComObject@VCOPOSPOSPrinter@@@ATL@@WBBI@EAAKXZ 0000000180001f70 f i POSPrinter.obj
 0001:00000f7c       ?AddRef@?$CComObject@VCOPOSPOSPrinter@@@ATL@@WBCI@EAAKXZ 0000000180001f7c f i POSPrinter.obj
 0001:00000f88       ?Release@?$CComObject@VCOPOSPOSPrinter@@@ATL@@WBCI@EAAKXZ 0000000180001f88 f i POSPrinter.obj
 0001:00000f94       ?AddRef@?$CComObject@VCOPOSPOSPrinter@@@ATL@@WBEA@EAAKXZ 0000000180001f94 f i POSPrinter.obj
 0001:00000fa0       ?Release@?$CComObject@VCOPOSPOSPrinter@@@ATL@@WBEA@EAAKXZ 0000000180001fa0 f i POSPrinter.obj
 0001:00000fac       ??_E?$CComContainedObject@VCOPOSPOSPrinter@@@ATL@@W7EAAPEAXI@Z 0000000180001fac f i POSPrinter.obj
 0001:00000fb8       ??_E?$CComContainedObject@VCOPOSPOSPrinter@@@ATL@@WHA@EAAPEAXI@Z 0000000180001fb8 f i POSPrinter.obj
 0001:00000fc4       ?QueryInterface@?$CComContainedObject@VCOPOSPOSPrinter@@@ATL@@WLI@EAAJAEBU_GUID@@PEAPEAX@Z 0000000180001fc4 f i POSPrinter.obj
 0001:00000fd0       ?AddRef@?$CComContainedObject@VCOPOSPOSPrinter@@@ATL@@WLI@EAAKXZ 0000000180001fd0 f i POSPrinter.obj
 0001:00000fdc       ?Release@?$CComContainedObject@VCOPOSPOSPrinter@@@ATL@@WLI@EAAKXZ 0000000180001fdc f i POSPrinter.obj
 0001:00000fe8       ?QueryInterface@?$CComContainedObject@VCOPOSPOSPrinter@@@ATL@@WMA@EAAJAEBU_GUID@@PEAPEAX@Z 0000000180001fe8 f i POSPrinter.obj
 0001:00000ff4       ?AddRef@?$CComContainedObject@VCOPOSPOSPrinter@@@ATL@@WMA@EAAKXZ 0000000180001ff4 f i POSPrinter.obj
 0001:00001000       ?Release@?$CComContainedObject@VCOPOSPOSPrinter@@@ATL@@WMA@EAAKXZ 0000000180002000 f i POSPrinter.obj
 0001:0000100c       ?QueryInterface@?$CComContainedObject@VCOPOSPOSPrinter@@@ATL@@WMI@EAAJAEBU_GUID@@PEAPEAX@Z 000000018000200c f i POSPrinter.obj
 0001:00001018       ?AddRef@?$CComContainedObject@VCOPOSPOSPrinter@@@ATL@@WMI@EAAKXZ 0000000180002018 f i POSPrinter.obj
 0001:00001024       ?Release@?$CComContainedObject@VCOPOSPOSPrinter@@@ATL@@WMI@EAAKXZ 0000000180002024 f i POSPrinter.obj
 0001:00001030       ?QueryInterface@?$CComContainedObject@VCOPOSPOSPrinter@@@ATL@@WNA@EAAJAEBU_GUID@@PEAPEAX@Z 0000000180002030 f i POSPrinter.obj
 0001:0000103c       ?AddRef@?$CComContainedObject@VCOPOSPOSPrinter@@@ATL@@WNA@EAAKXZ 000000018000203c f i POSPrinter.obj
 0001:00001048       ?Release@?$CComContainedObject@VCOPOSPOSPrinter@@@ATL@@WNA@EAAKXZ 0000000180002048 f i POSPrinter.obj
 0001:00001054       ?QueryInterface@?$CComContainedObject@VCOPOSPOSPrinter@@@ATL@@WNI@EAAJAEBU_GUID@@PEAPEAX@Z 0000000180002054 f i POSPrinter.obj
 0001:00001060       ?AddRef@?$CComContainedObject@VCOPOSPOSPrinter@@@ATL@@WNI@EAAKXZ 0000000180002060 f i POSPrinter.obj
 0001:0000106c       ?Release@?$CComContainedObject@VCOPOSPOSPrinter@@@ATL@@WNI@EAAKXZ 000000018000206c f i POSPrinter.obj
 0001:00001078       ?QueryInterface@?$CComContainedObject@VCOPOSPOSPrinter@@@ATL@@WOA@EAAJAEBU_GUID@@PEAPEAX@Z 0000000180002078 f i POSPrinter.obj
 0001:00001084       ?AddRef@?$CComContainedObject@VCOPOSPOSPrinter@@@ATL@@WOA@EAAKXZ 0000000180002084 f i POSPrinter.obj
 0001:00001090       ?Release@?$CComContainedObject@VCOPOSPOSPrinter@@@ATL@@WOA@EAAKXZ 0000000180002090 f i POSPrinter.obj
 0001:0000109c       ?QueryInterface@?$CComContainedObject@VCOPOSPOSPrinter@@@ATL@@WOI@EAAJAEBU_GUID@@PEAPEAX@Z 000000018000209c f i POSPrinter.obj
 0001:000010a8       ?AddRef@?$CComContainedObject@VCOPOSPOSPrinter@@@ATL@@WOI@EAAKXZ 00000001800020a8 f i POSPrinter.obj
 0001:000010b4       ?Release@?$CComContainedObject@VCOPOSPOSPrinter@@@ATL@@WOI@EAAKXZ 00000001800020b4 f i POSPrinter.obj
 0001:000010c0       ?QueryInterface@?$CComContainedObject@VCOPOSPOSPrinter@@@ATL@@WPA@EAAJAEBU_GUID@@PEAPEAX@Z 00000001800020c0 f i POSPrinter.obj
 0001:000010cc       ?AddRef@?$CComContainedObject@VCOPOSPOSPrinter@@@ATL@@WPA@EAAKXZ 00000001800020cc f i POSPrinter.obj
 0001:000010d8       ?Release@?$CComContainedObject@VCOPOSPOSPrinter@@@ATL@@WPA@EAAKXZ 00000001800020d8 f i POSPrinter.obj
 0001:000010e4       ?QueryInterface@?$CComContainedObject@VCOPOSPOSPrinter@@@ATL@@WPI@EAAJAEBU_GUID@@PEAPEAX@Z 00000001800020e4 f i POSPrinter.obj
 0001:000010f0       ?AddRef@?$CComContainedObject@VCOPOSPOSPrinter@@@ATL@@WPI@EAAKXZ 00000001800020f0 f i POSPrinter.obj
 0001:000010fc       ?Release@?$CComContainedObject@VCOPOSPOSPrinter@@@ATL@@WPI@EAAKXZ 00000001800020fc f i POSPrinter.obj
 0001:00001108       ?QueryInterface@?$CComContainedObject@VCOPOSPOSPrinter@@@ATL@@WBAA@EAAJAEBU_GUID@@PEAPEAX@Z 0000000180002108 f i POSPrinter.obj
 0001:00001114       ?AddRef@?$CComContainedObject@VCOPOSPOSPrinter@@@ATL@@WBAA@EAAKXZ 0000000180002114 f i POSPrinter.obj
 0001:00001120       ?Release@?$CComContainedObject@VCOPOSPOSPrinter@@@ATL@@WBAA@EAAKXZ 0000000180002120 f i POSPrinter.obj
 0001:0000112c       ?QueryInterface@?$CComContainedObject@VCOPOSPOSPrinter@@@ATL@@WBAI@EAAJAEBU_GUID@@PEAPEAX@Z 000000018000212c f i POSPrinter.obj
 0001:00001138       ?AddRef@?$CComContainedObject@VCOPOSPOSPrinter@@@ATL@@WBAI@EAAKXZ 0000000180002138 f i POSPrinter.obj
 0001:00001144       ?Release@?$CComContainedObject@VCOPOSPOSPrinter@@@ATL@@WBAI@EAAKXZ 0000000180002144 f i POSPrinter.obj
 0001:00001150       ?QueryInterface@?$CComContainedObject@VCOPOSPOSPrinter@@@ATL@@WBBA@EAAJAEBU_GUID@@PEAPEAX@Z 0000000180002150 f i POSPrinter.obj
 0001:0000115c       ?AddRef@?$CComContainedObject@VCOPOSPOSPrinter@@@ATL@@WBBA@EAAKXZ 000000018000215c f i POSPrinter.obj
 0001:00001168       ?Release@?$CComContainedObject@VCOPOSPOSPrinter@@@ATL@@WBBA@EAAKXZ 0000000180002168 f i POSPrinter.obj
 0001:00001174       ?QueryInterface@?$CComContainedObject@VCOPOSPOSPrinter@@@ATL@@WBBI@EAAJAEBU_GUID@@PEAPEAX@Z 0000000180002174 f i POSPrinter.obj
 0001:00001180       ?AddRef@?$CComContainedObject@VCOPOSPOSPrinter@@@ATL@@WBBI@EAAKXZ 0000000180002180 f i POSPrinter.obj
 0001:0000118c       ?Release@?$CComContainedObject@VCOPOSPOSPrinter@@@ATL@@WBBI@EAAKXZ 000000018000218c f i POSPrinter.obj
 0001:00001198       ?AddRef@?$CComContainedObject@VCOPOSPOSPrinter@@@ATL@@WBCI@EAAKXZ 0000000180002198 f i POSPrinter.obj
 0001:000011a4       ?Release@?$CComContainedObject@VCOPOSPOSPrinter@@@ATL@@WBCI@EAAKXZ 00000001800021a4 f i POSPrinter.obj
 0001:000011b0       ?AddRef@?$CComContainedObject@VCOPOSPOSPrinter@@@ATL@@WBEA@EAAKXZ 00000001800021b0 f i POSPrinter.obj
 0001:000011bc       ?Release@?$CComContainedObject@VCOPOSPOSPrinter@@@ATL@@WBEA@EAAKXZ 00000001800021bc f i POSPrinter.obj
 0001:000011c8       ?Lock@CAtlModule@ATL@@UEAAJXZ 00000001800021c8 f i POSPrinter.obj
 0001:000011d8       ?Unlock@CAtlModule@ATL@@UEAAJXZ 00000001800021d8 f i POSPrinter.obj
 0001:000011e4       ?GetLockCount@CAtlModule@ATL@@UEAAJXZ 00000001800021e4 f i POSPrinter.obj
 0001:000011e8       ?GetGITPtr@CAtlModule@ATL@@UEAAJPEAPEAUIGlobalInterfaceTable@@@Z 00000001800021e8 f i POSPrinter.obj
 0001:00001258       ?AddCommonRGSReplacements@?$CAtlModuleT@VCComModule@ATL@@@ATL@@UEAAJPEAUIRegistrarBase@@@Z 0000000180002258 f i POSPrinter.obj
 0001:00001270       ?UpdateRegistryFromResourceD@CComModule@ATL@@UEAAJPEB_WHPEAU_ATL_REGMAP_ENTRY@2@@Z 0000000180002270 f i POSPrinter.obj
 0001:00001270       ?UpdateRegistryFromResourceD@CComModule@ATL@@UEAAJIHPEAU_ATL_REGMAP_ENTRY@2@@Z 0000000180002270 f i POSPrinter.obj
 0001:00001278       ?UpdateRegistryFromResource@CComModule@ATL@@UEAAJPEB_WHPEAU_ATL_REGMAP_ENTRY@2@@Z 0000000180002278 f i POSPrinter.obj
 0001:00001280       ?UpdateRegistryFromResource@CComModule@ATL@@UEAAJIHPEAU_ATL_REGMAP_ENTRY@2@@Z 0000000180002280 f i POSPrinter.obj
 0001:00001288       ?GetTypeInfoCount@?$IDispatchImpl@UIOPOSPOSPrinter@@$1?IID_IOPOSPOSPrinter@@3U_GUID@@B$1?LIBID_OposPOSPrinter_CCO@@3U3@B$00$0A@VCComTypeInfoHolder@ATL@@@ATL@@UEAAJPEAI@Z 0000000180002288 f i POSPrinter.obj
 0001:0000129c       ?GetTypeInfo@?$IDispatchImpl@UIOPOSPOSPrinter@@$1?IID_IOPOSPOSPrinter@@3U_GUID@@B$1?LIBID_OposPOSPrinter_CCO@@3U3@B$00$0A@VCComTypeInfoHolder@ATL@@@ATL@@UEAAJIKPEAPEAUITypeInfo@@@Z 000000018000229c f i POSPrinter.obj
 0001:00001300       ?GetIDsOfNames@?$IDispatchImpl@UIOPOSPOSPrinter@@$1?IID_IOPOSPOSPrinter@@3U_GUID@@B$1?LIBID_OposPOSPrinter_CCO@@3U3@B$00$0A@VCComTypeInfoHolder@ATL@@@ATL@@UEAAJAEBU_GUID@@PEAPEA_WIKPEAJ@Z 0000000180002300 f i POSPrinter.obj
 0001:0000130c       ?Invoke@?$IDispatchImpl@UIOPOSPOSPrinter@@$1?IID_IOPOSPOSPrinter@@3U_GUID@@B$1?LIBID_OposPOSPrinter_CCO@@3U3@B$00$0A@VCComTypeInfoHolder@ATL@@@ATL@@UEAAJJAEBU_GUID@@KGPEAUtagDISPPARAMS@@PEAUtagVARIANT@@PEAUtagEXCEPINFO@@PEAI@Z 000000018000230c f i POSPrinter.obj
 0001:0000139c       ??_ECComModule@ATL@@UEAAPEAXI@Z 000000018000239c f i POSPrinter.obj
 0001:0000139c       ??_GCComModule@ATL@@UEAAPEAXI@Z 000000018000239c f i POSPrinter.obj
 0001:000013dc       ?CreateControlWindow@?$CComControl@VCOPOSPOSPrinter@@V?$CWindowImpl@VCOPOSPOSPrinter@@VCWindow@ATL@@V?$CWinTraits@$0FGAAAAAA@$0A@@3@@ATL@@@ATL@@UEAAPEAUHWND__@@PEAU3@AEAUtagRECT@@@Z 00000001800023dc f i POSPrinter.obj
 0001:00001414       ?ControlQueryInterface@?$CComControl@VCOPOSPOSPrinter@@V?$CWindowImpl@VCOPOSPOSPrinter@@VCWindow@ATL@@V?$CWinTraits@$0FGAAAAAA@$0A@@3@@ATL@@@ATL@@UEAAJAEBU_GUID@@PEAPEAX@Z 0000000180002414 f i POSPrinter.obj
 0001:00001428       ?GetClassID@?$IPersistStorageImpl@VCOPOSPOSPrinter@@@ATL@@UEAAJPEAU_GUID@@@Z 0000000180002428 f i POSPrinter.obj
 0001:00001428       ?GetClassID@?$IPersistStreamInitImpl@VCOPOSPOSPrinter@@@ATL@@UEAAJPEAU_GUID@@@Z 0000000180002428 f i POSPrinter.obj
 0001:00001428       ?GetUserClassID@?$IOleObjectImpl@VCOPOSPOSPrinter@@@ATL@@UEAAJPEAU_GUID@@@Z 0000000180002428 f i POSPrinter.obj
 0001:00001444       ?IsDirty@?$IPersistStreamInitImpl@VCOPOSPOSPrinter@@@ATL@@UEAAJXZ 0000000180002444 f i POSPrinter.obj
 0001:00001460       ?Load@?$IPersistStreamInitImpl@VCOPOSPOSPrinter@@@ATL@@UEAAJPEAUIStream@@@Z 0000000180002460 f i POSPrinter.obj
 0001:00001478       ?Save@?$IPersistStreamInitImpl@VCOPOSPOSPrinter@@@ATL@@UEAAJPEAUIStream@@H@Z 0000000180002478 f i POSPrinter.obj
 0001:00001490       ?GetSizeMax@?$IPersistStreamInitImpl@VCOPOSPOSPrinter@@@ATL@@UEAAJPEAT_ULARGE_INTEGER@@@Z 0000000180002490 f i POSPrinter.obj
 0001:000016b4       ?InitNew@?$IPersistStreamInitImpl@VCOPOSPOSPrinter@@@ATL@@UEAAJXZ 00000001800026b4 f i POSPrinter.obj
 0001:000016cc       ?EnumFormatEtc@?$IDataObjectImpl@VCOPOSPOSPrinter@@@ATL@@UEAAJKPEAPEAUIEnumFORMATETC@@@Z 00000001800026cc f i POSPrinter.obj
 0001:000016cc       ?SetColorScheme@?$IOleObjectImpl@VCOPOSPOSPrinter@@@ATL@@UEAAJPEAUtagLOGPALETTE@@@Z 00000001800026cc f i POSPrinter.obj
 0001:000016cc       ?GetColorSet@?$IViewObjectExImpl@VCOPOSPOSPrinter@@@ATL@@UEAAJKJPEAXPEAUtagDVTARGETDEVICE@@PEAUHDC__@@PEAPEAUtagLOGPALETTE@@@Z 00000001800026cc f i POSPrinter.obj
 0001:000016cc       ?SetMoniker@?$IOleObjectImpl@VCOPOSPOSPrinter@@@ATL@@UEAAJKPEAUIMoniker@@@Z 00000001800026cc f i POSPrinter.obj
 0001:000016cc       ?GetDropTarget@?$IOleInPlaceObjectWindowlessImpl@VCOPOSPOSPrinter@@@ATL@@UEAAJPEAPEAUIDropTarget@@@Z 00000001800026cc f i POSPrinter.obj
 0001:000016cc       ?GetCanonicalFormatEtc@?$IDataObjectImpl@VCOPOSPOSPrinter@@@ATL@@UEAAJPEAUtagFORMATETC@@0@Z 00000001800026cc f i POSPrinter.obj
 0001:000016cc       ?GetControlInfo@?$IOleControlImpl@VCOPOSPOSPrinter@@@ATL@@UEAAJPEAUtagCONTROLINFO@@@Z 00000001800026cc f i POSPrinter.obj
 0001:000016cc       ?GetDataHere@?$IDataObjectImpl@VCOPOSPOSPrinter@@@ATL@@UEAAJPEAUtagFORMATETC@@PEAUtagSTGMEDIUM@@@Z 00000001800026cc f i POSPrinter.obj
 0001:000016cc       ?SODataDummy@COPOSPOSPrinter@@MEAAJJ@Z 00000001800026cc f i POSPrinter.obj
 0001:000016cc       ?ReactivateAndUndo@?$IOleInPlaceObjectWindowlessImpl@VCOPOSPOSPrinter@@@ATL@@UEAAJXZ 00000001800026cc f i POSPrinter.obj
 0001:000016cc       ?GetRect@?$IViewObjectExImpl@VCOPOSPOSPrinter@@@ATL@@UEAAJKPEAU_RECTL@@@Z 00000001800026cc f i POSPrinter.obj
 0001:000016cc       ?Unfreeze@?$IViewObjectExImpl@VCOPOSPOSPrinter@@@ATL@@UEAAJK@Z 00000001800026cc f i POSPrinter.obj
 0001:000016cc       ?QueryInterface@CRegObject@ATL@@UEAAJAEBU_GUID@@PEAPEAX@Z 00000001800026cc f i POSPrinter.obj
 0001:000016cc       ?QueryGetData@?$IDataObjectImpl@VCOPOSPOSPrinter@@@ATL@@UEAAJPEAUtagFORMATETC@@@Z 00000001800026cc f i POSPrinter.obj
 0001:000016cc       ?ContextSensitiveHelp@?$IOleInPlaceObjectWindowlessImpl@VCOPOSPOSPrinter@@@ATL@@UEAAJH@Z 00000001800026cc f i POSPrinter.obj
 0001:000016cc       ?Freeze@?$IViewObjectExImpl@VCOPOSPOSPrinter@@@ATL@@UEAAJKJPEAXPEAK@Z 00000001800026cc f i POSPrinter.obj
 0001:000016cc       ?GetClipboardData@?$IOleObjectImpl@VCOPOSPOSPrinter@@@ATL@@UEAAJKPEAPEAUIDataObject@@@Z 00000001800026cc f i POSPrinter.obj
 0001:000016cc       ?OnMnemonic@?$IOleControlImpl@VCOPOSPOSPrinter@@@ATL@@UEAAJPEAUtagMSG@@@Z 00000001800026cc f i POSPrinter.obj
 0001:000016cc       ?SetData@?$IDataObjectImpl@VCOPOSPOSPrinter@@@ATL@@UEAAJPEAUtagFORMATETC@@PEAUtagSTGMEDIUM@@H@Z 00000001800026cc f i POSPrinter.obj
 0001:000016cc       ?GetMoniker@?$IOleObjectImpl@VCOPOSPOSPrinter@@@ATL@@UEAAJKKPEAPEAUIMoniker@@@Z 00000001800026cc f i POSPrinter.obj
 0001:000016cc       ?InitFromData@?$IOleObjectImpl@VCOPOSPOSPrinter@@@ATL@@UEAAJPEAUIDataObject@@HK@Z 00000001800026cc f i POSPrinter.obj
 0001:000016cc       ?ContextSensitiveHelp@?$IOleInPlaceActiveObjectImpl@VCOPOSPOSPrinter@@@ATL@@UEAAJH@Z 00000001800026cc f i POSPrinter.obj
 0001:000016d4       ?SetClientSite@?$IOleObjectImpl@VCOPOSPOSPrinter@@@ATL@@UEAAJPEAUIOleClientSite@@@Z 00000001800026d4 f i POSPrinter.obj
 0001:000016f0       ?GetClientSite@?$IOleObjectImpl@VCOPOSPOSPrinter@@@ATL@@UEAAJPEAPEAUIOleClientSite@@@Z 00000001800026f0 f i POSPrinter.obj
 0001:00001738       ?Close@?$IOleObjectImpl@VCOPOSPOSPrinter@@@ATL@@UEAAJK@Z 0000000180002738 f i POSPrinter.obj
 0001:00001754       ?DoVerb@?$IOleObjectImpl@VCOPOSPOSPrinter@@@ATL@@UEAAJJPEAUtagMSG@@PEAUIOleClientSite@@JPEAUHWND__@@PEBUtagRECT@@@Z 0000000180002754 f i POSPrinter.obj
 0001:000018f8       ?EnumVerbs@?$IOleObjectImpl@VCOPOSPOSPrinter@@@ATL@@UEAAJPEAPEAUIEnumOLEVERB@@@Z 00000001800028f8 f i POSPrinter.obj
 0001:00001914       ?GetUserType@?$IOleObjectImpl@VCOPOSPOSPrinter@@@ATL@@UEAAJKPEAPEA_W@Z 0000000180002914 f i POSPrinter.obj
 0001:00001924       ?SetExtent@?$IOleObjectImpl@VCOPOSPOSPrinter@@@ATL@@UEAAJKPEAUtagSIZE@@@Z 0000000180002924 f i POSPrinter.obj
 0001:00001940       ?GetExtent@?$IOleObjectImpl@VCOPOSPOSPrinter@@@ATL@@UEAAJKPEAUtagSIZE@@@Z 0000000180002940 f i POSPrinter.obj
 0001:00001970       ?Advise@?$IOleObjectImpl@VCOPOSPOSPrinter@@@ATL@@UEAAJPEAUIAdviseSink@@PEAK@Z 0000000180002970 f i POSPrinter.obj
 0001:000019cc       ?Unadvise@?$IOleObjectImpl@VCOPOSPOSPrinter@@@ATL@@UEAAJK@Z 00000001800029cc f i POSPrinter.obj
 0001:00001a04       ?EnumAdvise@?$IOleObjectImpl@VCOPOSPOSPrinter@@@ATL@@UEAAJPEAPEAUIEnumSTATDATA@@@Z 0000000180002a04 f i POSPrinter.obj
 0001:00001a4c       ?GetMiscStatus@?$IOleObjectImpl@VCOPOSPOSPrinter@@@ATL@@UEAAJKPEAK@Z 0000000180002a4c f i POSPrinter.obj
 0001:00001a5c       ?GetWindow@?$IOleInPlaceActiveObjectImpl@VCOPOSPOSPrinter@@@ATL@@UEAAJPEAPEAUHWND__@@@Z 0000000180002a5c f i POSPrinter.obj
 0001:00001ab0       ?TranslateAcceleratorW@?$IOleInPlaceActiveObjectImpl@VCOPOSPOSPrinter@@@ATL@@UEAAJPEAUtagMSG@@@Z 0000000180002ab0 f i POSPrinter.obj
 0001:00001ba4       ?OnDocWindowActivate@?$IOleInPlaceActiveObjectImpl@VCOPOSPOSPrinter@@@ATL@@UEAAJH@Z 0000000180002ba4 f i POSPrinter.obj
 0001:00001bd0       ?Draw@?$IViewObjectExImpl@VCOPOSPOSPrinter@@@ATL@@UEAAJKJPEAXPEAUtagDVTARGETDEVICE@@PEAUHDC__@@2PEBU_RECTL@@3P6AH_K@Z4@Z 0000000180002bd0 f i POSPrinter.obj
 0001:00001c34       ?SetAdvise@?$IViewObjectExImpl@VCOPOSPOSPrinter@@@ATL@@UEAAJKKPEAUIAdviseSink@@@Z 0000000180002c34 f i POSPrinter.obj
 0001:00001c88       ?GetAdvise@?$IViewObjectExImpl@VCOPOSPOSPrinter@@@ATL@@UEAAJPEAK0PEAPEAUIAdviseSink@@@Z 0000000180002c88 f i POSPrinter.obj
 0001:00001cc4       ?GetExtent@?$IViewObjectExImpl@VCOPOSPOSPrinter@@@ATL@@UEAAJKJPEAUtagDVTARGETDEVICE@@PEAUtagSIZE@@@Z 0000000180002cc4 f i POSPrinter.obj
 0001:00001cf4       ?GetViewStatus@?$IViewObjectExImpl@VCOPOSPOSPrinter@@@ATL@@UEAAJPEAK@Z 0000000180002cf4 f i POSPrinter.obj
 0001:00001d08       ?QueryHitPoint@?$IViewObjectExImpl@VCOPOSPOSPrinter@@@ATL@@UEAAJKPEBUtagRECT@@UtagPOINT@@JPEAK@Z 0000000180002d08 f i POSPrinter.obj
 0001:00001d4c       ?QueryHitRect@?$IViewObjectExImpl@VCOPOSPOSPrinter@@@ATL@@UEAAJKPEBUtagRECT@@0JPEAK@Z 0000000180002d4c f i POSPrinter.obj
 0001:00001db4       ?GetNaturalExtent@?$IViewObjectExImpl@VCOPOSPOSPrinter@@@ATL@@UEAAJKJPEAUtagDVTARGETDEVICE@@PEAUHDC__@@PEAUtagExtentInfo@@PEAUtagSIZE@@@Z 0000000180002db4 f i POSPrinter.obj
 0001:00001dfc       ?GetWindow@?$IOleInPlaceObjectWindowlessImpl@VCOPOSPOSPrinter@@@ATL@@UEAAJPEAPEAUHWND__@@@Z 0000000180002dfc f i POSPrinter.obj
 0001:00001e50       ?InPlaceDeactivate@?$IOleInPlaceObjectWindowlessImpl@VCOPOSPOSPrinter@@@ATL@@UEAAJXZ 0000000180002e50 f i POSPrinter.obj
 0001:00001e6c       ?UIDeactivate@?$IOleInPlaceObjectWindowlessImpl@VCOPOSPOSPrinter@@@ATL@@UEAAJXZ 0000000180002e6c f i POSPrinter.obj
 0001:00001e88       ?SetObjectRects@?$IOleInPlaceObjectWindowlessImpl@VCOPOSPOSPrinter@@@ATL@@UEAAJPEBUtagRECT@@0@Z 0000000180002e88 f i POSPrinter.obj
 0001:00001ea4       ?OnWindowMessage@?$IOleInPlaceObjectWindowlessImpl@VCOPOSPOSPrinter@@@ATL@@UEAAJI_K_JPEA_J@Z 0000000180002ea4 f i POSPrinter.obj
 0001:00001f6c       ?EnumConnectionPoints@?$IConnectionPointContainerImpl@VCOPOSPOSPrinter@@@ATL@@UEAAJPEAPEAUIEnumConnectionPoints@@@Z 0000000180002f6c f i POSPrinter.obj
 0001:000021b4       ?FindConnectionPoint@?$IConnectionPointContainerImpl@VCOPOSPOSPrinter@@@ATL@@UEAAJAEBU_GUID@@PEAPEAUIConnectionPoint@@@Z 00000001800031b4 f i POSPrinter.obj
 0001:00002284       ?IsDirty@?$IPersistStorageImpl@VCOPOSPOSPrinter@@@ATL@@UEAAJXZ 0000000180003284 f i POSPrinter.obj
 0001:000022c4       ?InitNew@?$IPersistStorageImpl@VCOPOSPOSPrinter@@@ATL@@UEAAJPEAUIStorage@@@Z 00000001800032c4 f i POSPrinter.obj
 0001:00002304       ?Load@?$IPersistStorageImpl@VCOPOSPOSPrinter@@@ATL@@UEAAJPEAUIStorage@@@Z 0000000180003304 f i POSPrinter.obj
 0001:000023a4       ?Save@?$IPersistStorageImpl@VCOPOSPOSPrinter@@@ATL@@UEAAJPEAUIStorage@@H@Z 00000001800033a4 f i POSPrinter.obj
 0001:00002454       ?GetPages@?$ISpecifyPropertyPagesImpl@VCOPOSPOSPrinter@@@ATL@@UEAAJPEAUtagCAUUID@@@Z 0000000180003454 f i POSPrinter.obj
 0001:00002460       ?QuickActivate@?$IQuickActivateImpl@VCOPOSPOSPrinter@@@ATL@@UEAAJPEAUtagQACONTAINER@@PEAUtagQACONTROL@@@Z 0000000180003460 f i POSPrinter.obj
 0001:0000247c       ?SetContentExtent@?$IQuickActivateImpl@VCOPOSPOSPrinter@@@ATL@@UEAAJPEAUtagSIZE@@@Z 000000018000347c f i POSPrinter.obj
 0001:000024b0       ?GetContentExtent@?$IQuickActivateImpl@VCOPOSPOSPrinter@@@ATL@@UEAAJPEAUtagSIZE@@@Z 00000001800034b0 f i POSPrinter.obj
 0001:000024e8       ?GetData@?$IDataObjectImpl@VCOPOSPOSPrinter@@@ATL@@UEAAJPEAUtagFORMATETC@@PEAUtagSTGMEDIUM@@@Z 00000001800034e8 f i POSPrinter.obj
 0001:00002504       ?DAdvise@?$IDataObjectImpl@VCOPOSPOSPrinter@@@ATL@@UEAAJPEAUtagFORMATETC@@KPEAUIAdviseSink@@PEAK@Z 0000000180003504 f i POSPrinter.obj
 0001:0000258c       ?DUnadvise@?$IDataObjectImpl@VCOPOSPOSPrinter@@@ATL@@UEAAJK@Z 000000018000358c f i POSPrinter.obj
 0001:000025b8       ?EnumDAdvise@?$IDataObjectImpl@VCOPOSPOSPrinter@@@ATL@@UEAAJPEAPEAUIEnumSTATDATA@@@Z 00000001800035b8 f i POSPrinter.obj
 0001:000025f4       ?GetClassInfoW@?$IProvideClassInfo2Impl@$1?CLSID_OPOSPOSPrinter@@3U_GUID@@B$1?DIID__IOPOSPOSPrinterEvents@@3U2@B$1?LIBID_OposPOSPrinter_CCO@@3U2@B$00$0A@VCComTypeInfoHolder@ATL@@@ATL@@UEAAJPEAPEAUITypeInfo@@@Z 00000001800035f4 f i POSPrinter.obj
 0001:0000264c       ?GetGUID@?$IProvideClassInfo2Impl@$1?CLSID_OPOSPOSPrinter@@3U_GUID@@B$1?DIID__IOPOSPOSPrinterEvents@@3U2@B$1?LIBID_OposPOSPrinter_CCO@@3U2@B$00$0A@VCComTypeInfoHolder@ATL@@@ATL@@UEAAJKPEAU_GUID@@@Z 000000018000364c f i POSPrinter.obj
 0001:00002680       ?FAccessAllowed@?$IObjectSafetyImpl@VCOPOSPOSPrinter@@$02@ATL@@MEAAHXZ 0000000180003680 f i POSPrinter.obj
 0001:00002680       ?AddRef@CRegObject@ATL@@UEAAKXZ 0000000180003680 f i POSPrinter.obj
 0001:00002680       _get_startup_argv_mode     0000000180003680 f i LIBCMT:argv_mode.obj
 0001:00002688       ?GetInterfaceSafetyOptions@?$IObjectSafetyImpl@VCOPOSPOSPrinter@@$02@ATL@@UEAAJAEBU_GUID@@PEAK1@Z 0000000180003688 f i POSPrinter.obj
 0001:0000271c       ?SetInterfaceSafetyOptions@?$IObjectSafetyImpl@VCOPOSPOSPrinter@@$02@ATL@@UEAAJAEBU_GUID@@KK@Z 000000018000371c f i POSPrinter.obj
 0001:000027c0       ?_LocCPQueryInterface@?$IConnectionPointImpl@VCOPOSPOSPrinter@@$1?IID_IPropertyNotifySink@@3U_GUID@@BVCComDynamicUnkArray@ATL@@@ATL@@UEAAJAEBU_GUID@@PEAPEAX@Z 00000001800037c0 f i POSPrinter.obj
 0001:000027c0       ?_LocCPQueryInterface@?$IConnectionPointImpl@VCOPOSPOSPrinter@@$1?DIID__IOPOSPOSPrinterEvents@@3U_GUID@@BVCComDynamicUnkArray@ATL@@@ATL@@UEAAJAEBU_GUID@@PEAPEAX@Z 00000001800037c0 f i POSPrinter.obj
 0001:00002834       ?GetConnectionInterface@?$IConnectionPointImpl@VCOPOSPOSPrinter@@$1?IID_IPropertyNotifySink@@3U_GUID@@BVCComDynamicUnkArray@ATL@@@ATL@@UEAAJPEAU_GUID@@@Z 0000000180003834 f i POSPrinter.obj
 0001:00002850       ?GetConnectionPointContainer@?$IConnectionPointImpl@VCOPOSPOSPrinter@@$1?IID_IPropertyNotifySink@@3U_GUID@@BVCComDynamicUnkArray@ATL@@@ATL@@UEAAJPEAPEAUIConnectionPointContainer@@@Z 0000000180003850 f i POSPrinter.obj
 0001:00002870       ?Advise@?$IConnectionPointImpl@VCOPOSPOSPrinter@@$1?IID_IPropertyNotifySink@@3U_GUID@@BVCComDynamicUnkArray@ATL@@@ATL@@UEAAJPEAUIUnknown@@PEAK@Z 0000000180003870 f i POSPrinter.obj
 0001:00002870       ?Advise@?$IConnectionPointImpl@VCOPOSPOSPrinter@@$1?DIID__IOPOSPOSPrinterEvents@@3U_GUID@@BVCComDynamicUnkArray@ATL@@@ATL@@UEAAJPEAUIUnknown@@PEAK@Z 0000000180003870 f i POSPrinter.obj
 0001:0000292c       ?Unadvise@?$IConnectionPointImpl@VCOPOSPOSPrinter@@$1?DIID__IOPOSPOSPrinterEvents@@3U_GUID@@BVCComDynamicUnkArray@ATL@@@ATL@@UEAAJK@Z 000000018000392c f i POSPrinter.obj
 0001:0000292c       ?Unadvise@?$IConnectionPointImpl@VCOPOSPOSPrinter@@$1?IID_IPropertyNotifySink@@3U_GUID@@BVCComDynamicUnkArray@ATL@@@ATL@@UEAAJK@Z 000000018000392c f i POSPrinter.obj
 0001:00002994       ?EnumConnections@?$IConnectionPointImpl@VCOPOSPOSPrinter@@$1?DIID__IOPOSPOSPrinterEvents@@3U_GUID@@BVCComDynamicUnkArray@ATL@@@ATL@@UEAAJPEAPEAUIEnumConnections@@@Z 0000000180003994 f i POSPrinter.obj
 0001:00002994       ?EnumConnections@?$IConnectionPointImpl@VCOPOSPOSPrinter@@$1?IID_IPropertyNotifySink@@3U_GUID@@BVCComDynamicUnkArray@ATL@@@ATL@@UEAAJPEAPEAUIEnumConnections@@@Z 0000000180003994 f i POSPrinter.obj
 0001:00002b28       ?GetConnectionInterface@?$IConnectionPointImpl@VCOPOSPOSPrinter@@$1?DIID__IOPOSPOSPrinterEvents@@3U_GUID@@BVCComDynamicUnkArray@ATL@@@ATL@@UEAAJPEAU_GUID@@@Z 0000000180003b28 f i POSPrinter.obj
 0001:00002b44       ?GetConnectionPointContainer@?$IConnectionPointImpl@VCOPOSPOSPrinter@@$1?DIID__IOPOSPOSPrinterEvents@@3U_GUID@@BVCComDynamicUnkArray@ATL@@@ATL@@UEAAJPEAPEAUIConnectionPointContainer@@@Z 0000000180003b44 f i POSPrinter.obj
 0001:00002b64       ?UpdateRegistry@COPOSPOSPrinter@@SAJH@Z 0000000180003b64 f i POSPrinter.obj
 0001:00002b7c       ?ProcessWindowMessage@COPOSPOSPrinter@@UEAAHPEAUHWND__@@I_K_JAEA_JK@Z 0000000180003b7c f i POSPrinter.obj
 0001:00002c0c       ?SODirectIO@COPOSPOSPrinter@@MEAAJJPEAJPEAPEA_W@Z 0000000180003c0c f i POSPrinter.obj
 0001:00002c84       ?SOError@COPOSPOSPrinter@@MEAAJJJJPEAJ@Z 0000000180003c84 f i POSPrinter.obj
 0001:00002d0c       ?SOOutputComplete@COPOSPOSPrinter@@MEAAJJ@Z 0000000180003d0c f i POSPrinter.obj
 0001:00002d5c       ?SOStatusUpdate@COPOSPOSPrinter@@MEAAJJ@Z 0000000180003d5c f i POSPrinter.obj
 0001:00002dac       ?AddReplacement@CRegObject@ATL@@UEAAJPEB_W0@Z 0000000180003dac f i POSPrinter.obj
 0001:00002ddc       ?ClearReplacements@CRegObject@ATL@@UEAAJXZ 0000000180003ddc f i POSPrinter.obj
 0001:00002de8       ??_GCRegObject@ATL@@UEAAPEAXI@Z 0000000180003de8 f i POSPrinter.obj
 0001:00002de8       ??_ECRegObject@ATL@@UEAAPEAXI@Z 0000000180003de8 f i POSPrinter.obj
 0001:00002e68       ?CreateInstance@?$CComCreator@V?$CComObjectCached@VCComClassFactory@ATL@@@ATL@@@ATL@@SAJPEAXAEBU_GUID@@PEAPEAX@Z 0000000180003e68 f i POSPrinter.obj
 0001:00002f8c       ?CreateInstance@?$CComCreator2@V?$CComCreator@V?$CComObject@VCOPOSPOSPrinter@@@ATL@@@ATL@@V?$CComCreator@V?$CComAggObject@VCOPOSPOSPrinter@@@ATL@@@2@@ATL@@SAJPEAXAEBU_GUID@@PEAPEAX@Z 0000000180003f8c f i POSPrinter.obj
 0001:00002f9c       ?AddRef@?$CComObjectCached@VCComClassFactory@ATL@@@ATL@@UEAAKXZ 0000000180003f9c f i POSPrinter.obj
 0001:00002fc8       ?Release@?$CComObjectCached@VCComClassFactory@ATL@@@ATL@@UEAAKXZ 0000000180003fc8 f i POSPrinter.obj
 0001:00003008       ?QueryInterface@?$CComObjectCached@VCComClassFactory@ATL@@@ATL@@UEAAJAEBU_GUID@@PEAPEAX@Z 0000000180004008 f i POSPrinter.obj
 0001:0000301c       ??_G?$CComObjectCached@VCComClassFactory@ATL@@@ATL@@UEAAPEAXI@Z 000000018000401c f i POSPrinter.obj
 0001:0000301c       ??_E?$CComObjectCached@VCComClassFactory@ATL@@@ATL@@UEAAPEAXI@Z 000000018000401c f i POSPrinter.obj
 0001:00003074       ?Next@?$CComEnumImpl@UIEnumConnectionPoints@@$1?_GUID_b196b285_bab4_101a_b69c_00aa00341d07@@3U__s_GUID@@BPEAUIConnectionPoint@@V?$_CopyInterface@UIConnectionPoint@@@ATL@@@ATL@@UEAAJKPEAPEAUIConnectionPoint@@PEAK@Z 0000000180004074 f i POSPrinter.obj
 0001:00003138       ?Skip@?$CComEnumImpl@UIEnumConnectionPoints@@$1?_GUID_b196b285_bab4_101a_b69c_00aa00341d07@@3U__s_GUID@@BPEAUIConnectionPoint@@V?$_CopyInterface@UIConnectionPoint@@@ATL@@@ATL@@UEAAJK@Z 0000000180004138 f i POSPrinter.obj
 0001:00003164       ?Clone@?$CComEnumImpl@UIEnumConnectionPoints@@$1?_GUID_b196b285_bab4_101a_b69c_00aa00341d07@@3U__s_GUID@@BPEAUIConnectionPoint@@V?$_CopyInterface@UIConnectionPoint@@@ATL@@@ATL@@UEAAJPEAPEAUIEnumConnectionPoints@@@Z 0000000180004164 f i POSPrinter.obj
 0001:00003290       ?QueryInterface@?$CComObject@V?$CComEnum@UIEnumConnectionPoints@@$1?_GUID_b196b285_bab4_101a_b69c_00aa00341d07@@3U__s_GUID@@BPEAUIConnectionPoint@@V?$_CopyInterface@UIConnectionPoint@@@ATL@@VCComSingleThreadModel@6@@ATL@@@ATL@@UEAAJAEBU_GUID@@PEAPEAX@Z 0000000180004290 f i POSPrinter.obj
 0001:000032a4       ??_E?$CComObject@V?$CComEnum@UIEnumConnectionPoints@@$1?_GUID_b196b285_bab4_101a_b69c_00aa00341d07@@3U__s_GUID@@BPEAUIConnectionPoint@@V?$_CopyInterface@UIConnectionPoint@@@ATL@@VCComSingleThreadModel@6@@ATL@@@ATL@@UEAAPEAXI@Z 00000001800042a4 f i POSPrinter.obj
 0001:000032a4       ??_G?$CComObject@V?$CComEnum@UIEnumConnectionPoints@@$1?_GUID_b196b285_bab4_101a_b69c_00aa00341d07@@3U__s_GUID@@BPEAUIConnectionPoint@@V?$_CopyInterface@UIConnectionPoint@@@ATL@@VCComSingleThreadModel@6@@ATL@@@ATL@@UEAAPEAXI@Z 00000001800042a4 f i POSPrinter.obj
 0001:000032fc       ?OnDrawAdvanced@CComControlBase@ATL@@UEAAJAEAUATL_DRAWINFO@@@Z 00000001800042fc f i POSPrinter.obj
 0001:00003488       ?AddRef@?$CComAggObject@VCOPOSPOSPrinter@@@ATL@@UEAAKXZ 0000000180004488 f i POSPrinter.obj
 0001:00003494       ?Release@?$CComAggObject@VCOPOSPOSPrinter@@@ATL@@UEAAKXZ 0000000180004494 f i POSPrinter.obj
 0001:000034e8       ?QueryInterface@?$CComAggObject@VCOPOSPOSPrinter@@@ATL@@UEAAJAEBU_GUID@@PEAPEAX@Z 00000001800044e8 f i POSPrinter.obj
 0001:00003548       ?AddRef@?$CComContainedObject@VCOPOSPOSPrinter@@@ATL@@UEAAKXZ 0000000180004548 f i POSPrinter.obj
 0001:00003558       ?Release@?$CComContainedObject@VCOPOSPOSPrinter@@@ATL@@UEAAKXZ 0000000180004558 f i POSPrinter.obj
 0001:00003568       ?QueryInterface@?$CComContainedObject@VCOPOSPOSPrinter@@@ATL@@UEAAJAEBU_GUID@@PEAPEAX@Z 0000000180004568 f i POSPrinter.obj
 0001:00003578       ??_E?$CComAggObject@VCOPOSPOSPrinter@@@ATL@@UEAAPEAXI@Z 0000000180004578 f i POSPrinter.obj
 0001:00003578       ??_G?$CComAggObject@VCOPOSPOSPrinter@@@ATL@@UEAAPEAXI@Z 0000000180004578 f i POSPrinter.obj
 0001:000035d0       ?AddRef@?$CComObject@VCOPOSPOSPrinter@@@ATL@@UEAAKXZ 00000001800045d0 f i POSPrinter.obj
 0001:000035e0       ?Release@?$CComObject@VCOPOSPOSPrinter@@@ATL@@UEAAKXZ 00000001800045e0 f i POSPrinter.obj
 0001:00003638       ?QueryInterface@?$CComObject@VCOPOSPOSPrinter@@@ATL@@UEAAJAEBU_GUID@@PEAPEAX@Z 0000000180004638 f i POSPrinter.obj
 0001:0000364c       ??$AtlModuleRegisterWndClassInfoT@VAtlModuleRegisterWndClassInfoParamW@ATL@@@ATL@@YAGPEAU_ATL_BASE_MODULE70@0@PEAU_ATL_WIN_MODULE70@0@PEAU_ATL_WNDCLASSINFOW@0@PEAP6A_JPEAUHWND__@@I_K_J@ZVAtlModuleRegisterWndClassInfoParamW@0@@Z 000000018000464c f i POSPrinter.obj
 0001:0000384c       ??0?$CComContainedObject@VCOPOSPOSPrinter@@@ATL@@QEAA@PEAX@Z 000000018000484c f i POSPrinter.obj
 0001:00003968       ??0?$CComObject@VCOPOSPOSPrinter@@@ATL@@QEAA@PEAX@Z 0000000180004968 f i POSPrinter.obj
 0001:00003a80       ??0CAtlModule@ATL@@QEAA@XZ 0000000180004a80 f i POSPrinter.obj
 0001:00003af4       ??1?$CComEnumImpl@UIEnumConnectionPoints@@$1?_GUID_b196b285_bab4_101a_b69c_00aa00341d07@@3U__s_GUID@@BPEAUIConnectionPoint@@V?$_CopyInterface@UIConnectionPoint@@@ATL@@@ATL@@UEAA@XZ 0000000180004af4 f i POSPrinter.obj
 0001:00003b4c       ??1?$CComEnumImpl@UIEnumConnections@@$1?_GUID_b196b287_bab4_101a_b69c_00aa00341d07@@3U__s_GUID@@BUtagCONNECTDATA@@V?$_Copy@UtagCONNECTDATA@@@ATL@@@ATL@@UEAA@XZ 0000000180004b4c f i POSPrinter.obj
 0001:00003ba4       ??1?$CComObject@VCOPOSPOSPrinter@@@ATL@@UEAA@XZ 0000000180004ba4 f i POSPrinter.obj
 0001:00003cc4       ??_E?$CComContainedObject@VCOPOSPOSPrinter@@@ATL@@UEAAPEAXI@Z 0000000180004cc4 f i POSPrinter.obj
 0001:00003cc4       ??_G?$CComContainedObject@VCOPOSPOSPrinter@@@ATL@@UEAAPEAXI@Z 0000000180004cc4 f i POSPrinter.obj
 0001:00003cf8       ??_G?$CComObject@VCOPOSPOSPrinter@@@ATL@@UEAAPEAXI@Z 0000000180004cf8 f i POSPrinter.obj
 0001:00003cf8       ??_E?$CComObject@VCOPOSPOSPrinter@@@ATL@@UEAAPEAXI@Z 0000000180004cf8 f i POSPrinter.obj
 0001:00003d2c       ?Add@?$CSimpleArray@GV?$CSimpleArrayEqualHelper@G@ATL@@@ATL@@QEAAHAEBG@Z 0000000180004d2c f i POSPrinter.obj
 0001:00003dcc       ?Add@?$CSimpleMap@PEA_WPEA_WVCExpansionVectorEqualHelper@ATL@@@ATL@@QEAAHAEBQEA_W0@Z 0000000180004dcc f i POSPrinter.obj
 0001:00003e68       ?Add@CComDynamicUnkArray@ATL@@QEAAKPEAUIUnknown@@@Z 0000000180004e68 f i POSPrinter.obj
 0001:00003f4c       ?Add@CExpansionVector@ATL@@QEAAHPEB_W0@Z 0000000180004f4c f i POSPrinter.obj
 0001:00004080       ?AddTermFunc@CAtlModule@ATL@@QEAAJP6AX_K@Z0@Z 0000000180005080 f i POSPrinter.obj
 0001:0000411c       ?AddValue@CRegParser@ATL@@IEAAJAEAVCRegKey@2@PEB_WPEA_W@Z 000000018000511c f i POSPrinter.obj
 0001:0000452c       ?AllocateHeap@?$CTempBuffer@_W$0BAA@VCCRTAllocator@ATL@@@ATL@@AEAAX_K@Z 000000018000552c f i POSPrinter.obj
 0001:0000452c       ?AllocateHeap@?$CTempBuffer@_W$0EAA@VCCRTAllocator@ATL@@@ATL@@AEAAX_K@Z 000000018000552c f i POSPrinter.obj
 0001:0000452c       ?AllocateHeap@?$CTempBuffer@E$0BAA@VCCRTAllocator@ATL@@@ATL@@AEAAX_K@Z 000000018000552c f i POSPrinter.obj
 0001:00004558       ?Append@CParseBuffer@CRegParser@ATL@@QEAAHPEB_WH@Z 0000000180005558 f i POSPrinter.obj
 0001:0000468c       ?AtlComModuleGetClassObject@ATL@@YAJPEAU_ATL_COM_MODULE70@1@AEBU_GUID@@1PEAPEAX@Z 000000018000568c f i POSPrinter.obj
 0001:000047c8       ?AtlComModuleRegisterServer@ATL@@YAJPEAU_ATL_COM_MODULE70@1@HPEBU_GUID@@@Z 00000001800057c8 f i POSPrinter.obj
 0001:00004888       ?AtlComModuleUnregisterServer@ATL@@YAJPEAU_ATL_COM_MODULE70@1@HPEBU_GUID@@@Z 0000000180005888 f i POSPrinter.obj
 0001:00004944       ?AtlHiMetricToPixel@ATL@@YAXPEBUtagSIZE@@PEAU2@@Z 0000000180005944 f i POSPrinter.obj
 0001:000049f4       ?AtlHresultFromLastError@ATL@@YAJXZ 00000001800059f4 f i POSPrinter.obj
 0001:00004a14       ?AtlHresultFromWin32@ATL@@YAJK@Z 0000000180005a14 f i POSPrinter.obj
 0001:00004a24       ?AtlInternalOleLoadFromStream@ATL@@YAJPEAUIStream@@AEBU_GUID@@PEAPEAXTClassesAllowedInStream@1@K@Z 0000000180005a24 f i POSPrinter.obj
 0001:00004b74       ?AtlInternalQueryInterface@ATL@@YAJPEAXPEBU_ATL_INTMAP_ENTRY@1@AEBU_GUID@@PEAPEAX@Z 0000000180005b74 f i POSPrinter.obj
 0001:00004c7c       ?AtlLoadTypeLib@ATL@@YAJPEAUHINSTANCE__@@PEB_WPEAPEA_WPEAPEAUITypeLib@@@Z 0000000180005c7c f i POSPrinter.obj
 0001:00004ed8       ?AtlRegisterClassCategoriesHelper@ATL@@YAJAEBU_GUID@@PEBU_ATL_CATMAP_ENTRY@1@H@Z 0000000180005ed8 f i POSPrinter.obj
 0001:0000535c       ?AtlRegisterTypeLib@ATL@@YAJPEAUHINSTANCE__@@PEB_W@Z 000000018000635c f i POSPrinter.obj
 0001:00005558       ?AtlThrowImpl@ATL@@YAXJ@Z  0000000180006558 f i POSPrinter.obj
 0001:0000557c       ?AtlUnRegisterTypeLib@ATL@@YAJPEAUHINSTANCE__@@PEB_W@Z 000000018000657c f i POSPrinter.obj
 0001:00005644       ?AtlWinModuleExtractCreateWndData@ATL@@YAPEAXPEAU_ATL_WIN_MODULE70@1@@Z 0000000180006644 f i POSPrinter.obj
 0001:000056d0       ?ChToByte@CRegParser@ATL@@KAE_W@Z 00000001800066d0 f i POSPrinter.obj
 0001:0000575c       ?Cleanup@CComTypeInfoHolder@ATL@@SAX_K@Z 000000018000675c f i POSPrinter.obj
 0001:0000579c       ?ClearReplacements@CExpansionVector@ATL@@QEAAJXZ 000000018000679c f i POSPrinter.obj
 0001:00005838       ?CreateInstance@?$CComCreator@V?$CComAggObject@VCOPOSPOSPrinter@@@ATL@@@ATL@@SAJPEAXAEBU_GUID@@PEAPEAX@Z 0000000180006838 f i POSPrinter.obj
 0001:0000591c       ?CreateInstance@?$CComCreator@V?$CComObject@VCOPOSPOSPrinter@@@ATL@@@ATL@@SAJPEAXAEBU_GUID@@PEAPEAX@Z 000000018000691c f i POSPrinter.obj
 0001:000059dc       ?CreateInstance@?$CComObject@V?$CComEnum@UIEnumConnectionPoints@@$1?_GUID_b196b285_bab4_101a_b69c_00aa00341d07@@3U__s_GUID@@BPEAUIConnectionPoint@@V?$_CopyInterface@UIConnectionPoint@@@ATL@@VCComSingleThreadModel@6@@ATL@@@ATL@@SAJPEAPEAV12@@Z 00000001800069dc f i POSPrinter.obj
 0001:00005a6c       ?CreateInstance@?$CComObject@V?$CComEnum@UIEnumConnections@@$1?_GUID_b196b287_bab4_101a_b69c_00aa00341d07@@3U__s_GUID@@BUtagCONNECTDATA@@V?$_Copy@UtagCONNECTDATA@@@ATL@@VCComSingleThreadModel@6@@ATL@@@ATL@@SAJPEAPEAV12@@Z 0000000180006a6c f i POSPrinter.obj
 0001:00005afc       ?DefaultReflectionHandler@?$CWindowImplRoot@VCWindow@ATL@@@ATL@@SAHPEAUHWND__@@I_K_JAEA_J@Z 0000000180006afc f i POSPrinter.obj
 0001:00005b90       ?DeleteSubKey@CRegKey@ATL@@QEAAJPEB_W@Z 0000000180006b90 f i POSPrinter.obj
 0001:00005c28       ?DoEvent@COPOSPOSPrinter@@IEAAXI_K_J@Z 0000000180006c28 f i POSPrinter.obj
 0001:00005cdc       ?DoVerbPrimary@?$IOleObjectImpl@VCOPOSPOSPrinter@@@ATL@@QEAAJPEBUtagRECT@@PEAUHWND__@@@Z 0000000180006cdc f i POSPrinter.obj
 0001:00005e08       ?DoVerbProperties@CComControlBase@ATL@@QEAAJPEBUtagRECT@@PEAUHWND__@@@Z 0000000180006e08 f i POSPrinter.obj
 0001:00006030       ?FireTheEvent@?$CProxy_IOPOSEvents@VCOPOSPOSPrinter@@@@IEAAXPEAVOposVariant@@IAEAJPEB_WJ@Z 0000000180007030 f i POSPrinter.obj
 0001:0000611c       ?FireViewChange@CComControlBase@ATL@@QEAAJXZ 000000018000711c f i POSPrinter.obj
 0001:00006180       ?Fire_DirectIOEvent@?$CProxy_IOPOSEvents@VCOPOSPOSPrinter@@@@QEAAXJPEAJPEAPEA_W@Z 0000000180007180 f i POSPrinter.obj
 0001:000062e0       ?Fire_ErrorEvent@?$CProxy_IOPOSEvents@VCOPOSPOSPrinter@@@@QEAAXJJJPEAJ@Z 00000001800072e0 f i POSPrinter.obj
 0001:00006454       ?Fire_OutputCompleteEvent@?$CProxy_IOPOSEvents@VCOPOSPOSPrinter@@@@QEAAXJ@Z 0000000180007454 f i POSPrinter.obj
 0001:00006540       ?Fire_StatusUpdateEvent@?$CProxy_IOPOSEvents@VCOPOSPOSPrinter@@@@QEAAXJ@Z 0000000180007540 f i POSPrinter.obj
 0001:0000662c       ?FreeHeap@?$CTempBuffer@_W$0EAA@VCCRTAllocator@ATL@@@ATL@@AEAAXXZ 000000018000762c f i POSPrinter.obj
 0001:0000662c       ?FreeHeap@?$CTempBuffer@E$0BAA@VCCRTAllocator@ATL@@@ATL@@AEAAXXZ 000000018000762c f i POSPrinter.obj
 0001:0000662c       ?FreeHeap@?$CTempBuffer@_W$0BAA@VCCRTAllocator@ATL@@@ATL@@AEAAXXZ 000000018000762c f i POSPrinter.obj
 0001:00006634       ?GetAmbientLocaleID@CComControlBase@ATL@@QEAAJAEAK@Z 0000000180007634 f i POSPrinter.obj
 0001:000066f4       ?GetAmbientUserMode@CComControlBase@ATL@@QEAAJAEAH@Z 00000001800076f4 f i POSPrinter.obj
 0001:000067c4       ?GetClassObject@CComModule@ATL@@QEAAJAEBU_GUID@@0PEAPEAX@Z 00000001800077c4 f i POSPrinter.obj
 0001:000068b8       ?GetConnMap@COPOSPOSPrinter@@SAPEBU_ATL_CONNMAP_ENTRY@ATL@@PEAH@Z 00000001800078b8 f i POSPrinter.obj
 0001:00006940       ?GetIDsOfNames@CComTypeInfoHolder@ATL@@QEAAJAEBU_GUID@@PEAPEA_WIKPEAJ@Z 0000000180007940 f i POSPrinter.obj
 0001:00006ab0       ?GetPagesHelper@?$ISpecifyPropertyPagesImpl@VCOPOSPOSPrinter@@@ATL@@IEAAJPEAUtagCAUUID@@PEBUATL_PROPMAP_ENTRY@2@@Z 0000000180007ab0 f i POSPrinter.obj
 0001:00006c50       ?GetSizeMax@CComVariant@ATL@@QEBAJPEAT_ULARGE_INTEGER@@@Z 0000000180007c50 f i POSPrinter.obj
 0001:00006e80       ?GetTI@CComTypeInfoHolder@ATL@@QEAAJK@Z 0000000180007e80 f i POSPrinter.obj
 0001:00007164       ?GetZoomInfo@CComControlBase@ATL@@QEAAXAEAUATL_DRAWINFO@@@Z 0000000180008164 f i POSPrinter.obj
 0001:00007208       ?HKeyFromString@CRegParser@ATL@@KAPEAUHKEY__@@PEA_W@Z 0000000180008208 f i POSPrinter.obj
 0001:0000726c       ?IDataObject_GetData@CComControlBase@ATL@@QEAAJPEAUtagFORMATETC@@PEAUtagSTGMEDIUM@@@Z 000000018000826c f i POSPrinter.obj
 0001:00007460       ?IOleInPlaceObject_InPlaceDeactivate@CComControlBase@ATL@@QEAAJXZ 0000000180008460 f i POSPrinter.obj
 0001:00007500       ?IOleInPlaceObject_SetObjectRects@CComControlBase@ATL@@QEAAJPEBUtagRECT@@0@Z 0000000180008500 f i POSPrinter.obj
 0001:000075f0       ?IOleInPlaceObject_UIDeactivate@CComControlBase@ATL@@QEAAJXZ 00000001800085f0 f i POSPrinter.obj
 0001:000076fc       ?IOleObject_Close@CComControlBase@ATL@@QEAAJK@Z 00000001800086fc f i POSPrinter.obj
 0001:00007814       ?IOleObject_SetClientSite@CComControlBase@ATL@@QEAAJPEAUIOleClientSite@@@Z 0000000180008814 f i POSPrinter.obj
 0001:00007888       ?IOleObject_SetExtent@CComControlBase@ATL@@QEAAJKPEAUtagSIZE@@@Z 0000000180008888 f i POSPrinter.obj
 0001:00007920       ?IPSI_GetIPersistStreamInit@?$IPersistStorageImpl@VCOPOSPOSPrinter@@@ATL@@AEAAPEAUIPersistStreamInit@@XZ 0000000180008920 f i POSPrinter.obj
 0001:00007a08       ?IPersistStreamInit_Load@?$IPersistStreamInitImpl@VCOPOSPOSPrinter@@@ATL@@QEAAJPEAUIStream@@PEBUATL_PROPMAP_ENTRY@2@@Z 0000000180008a08 f i POSPrinter.obj
 0001:00007d30       ?IPersistStreamInit_Save@?$IPersistStreamInitImpl@VCOPOSPOSPrinter@@@ATL@@QEAAJPEAUIStream@@HPEBUATL_PROPMAP_ENTRY@2@@Z 0000000180008d30 f i POSPrinter.obj
 0001:00007fcc       ?IQuickActivate_QuickActivate@CComControlBase@ATL@@QEAAJPEAUtagQACONTAINER@@PEAUtagQACONTROL@@@Z 0000000180008fcc f i POSPrinter.obj
 0001:00008290       ?IViewObject_Draw@CComControlBase@ATL@@QEAAJKJPEAXPEAUtagDVTARGETDEVICE@@PEAUHDC__@@2PEBU_RECTL@@3@Z 0000000180009290 f i POSPrinter.obj
 0001:000083a4       ?InPlaceActivate@CComControlBase@ATL@@QEAAJJPEBUtagRECT@@@Z 00000001800093a4 f i POSPrinter.obj
 0001:000086d4       ?Init@?$CComEnumImpl@UIEnumConnectionPoints@@$1?_GUID_b196b285_bab4_101a_b69c_00aa00341d07@@3U__s_GUID@@BPEAUIConnectionPoint@@V?$_CopyInterface@UIConnectionPoint@@@ATL@@@ATL@@QEAAJPEAPEAUIConnectionPoint@@0PEAUIUnknown@@W4CComEnumFlags@2@@Z 00000001800096d4 f i POSPrinter.obj
 0001:000087f0       ?Init@?$CComEnumImpl@UIEnumConnections@@$1?_GUID_b196b287_bab4_101a_b69c_00aa00341d07@@3U__s_GUID@@BUtagCONNECTDATA@@V?$_Copy@UtagCONNECTDATA@@@ATL@@@ATL@@QEAAJPEAUtagCONNECTDATA@@0PEAUIUnknown@@W4CComEnumFlags@2@@Z 00000001800097f0 f i POSPrinter.obj
 0001:00008910       ?IsEqualObject@?$CComPtrBase@UIOleClientSite@@@ATL@@QEAA_NPEAUIUnknown@@@Z 0000000180009910 f i POSPrinter.obj
 0001:0000899c       ?LoadNameCache@CComTypeInfoHolder@ATL@@QEAAJPEAUITypeInfo@@@Z 000000018000999c f i POSPrinter.obj
 0001:00008b2c       ?Lookup@?$CSimpleMap@PEA_WPEA_WVCExpansionVectorEqualHelper@ATL@@@ATL@@QEBAPEA_WAEBQEA_W@Z 0000000180009b2c f i POSPrinter.obj
 0001:00008bb4       ?NextToken@CRegParser@ATL@@IEAAJPEA_W@Z 0000000180009bb4 f i POSPrinter.obj
 0001:00008d50       ?OnKillFocus@CComControlBase@ATL@@QEAA_JI_K_JAEAH@Z 0000000180009d50 f i POSPrinter.obj
 0001:00008dec       ?OnMouseActivate@CComControlBase@ATL@@QEAA_JI_K_JAEAH@Z 0000000180009dec f i POSPrinter.obj
 0001:00008e8c       ?OnPaint@CComControlBase@ATL@@QEAA_JI_K_JAEAH@Z 0000000180009e8c f i POSPrinter.obj
 0001:00008f78       ?OnSetFocus@CComControlBase@ATL@@QEAA_JI_K_JAEAH@Z 0000000180009f78 f i POSPrinter.obj
 0001:00009080       ?PreProcessBuffer@CRegParser@ATL@@QEAAJPEA_WPEAPEA_W@Z 000000018000a080 f i POSPrinter.obj
 0001:00009408       ?ProcessWindowMessage@?$CComControl@VCOPOSPOSPrinter@@V?$CWindowImpl@VCOPOSPOSPrinter@@VCWindow@ATL@@V?$CWinTraits@$0FGAAAAAA@$0A@@3@@ATL@@@ATL@@UEAAHPEAUHWND__@@I_K_JAEA_JK@Z 000000018000a408 f i POSPrinter.obj
 0001:000094f4       ?ReadFromStream@CComBSTR@ATL@@QEAAJPEAUIStream@@@Z 000000018000a4f4 f i POSPrinter.obj
 0001:00009644       ?ReadFromStream@CComVariant@ATL@@QEAAJPEAUIStream@@GTClassesAllowedInStream@2@K@Z 000000018000a644 f i POSPrinter.obj
 0001:00009888       ?RecurseDeleteKey@CRegKey@ATL@@QEAAJPEB_W@Z 000000018000a888 f i POSPrinter.obj
 0001:000099e0       ?RegCreateKeyExW@CAtlTransactionManager@ATL@@QEAAJPEAUHKEY__@@PEB_WKPEA_WKKQEAU_SECURITY_ATTRIBUTES@@PEAPEAU3@PEAK@Z 000000018000a9e0 f i POSPrinter.obj
 0001:00009b14       ?RegDeleteKeyW@CAtlTransactionManager@ATL@@QEAAJPEAUHKEY__@@PEB_W@Z 000000018000ab14 f i POSPrinter.obj
 0001:00009ba0       ?RegOpenKeyExW@CAtlTransactionManager@ATL@@QEAAJPEAUHKEY__@@PEB_WKKPEAPEAU3@@Z 000000018000aba0 f i POSPrinter.obj
 0001:00009c58       ?RegisterBuffer@CRegParser@ATL@@QEAAJPEA_WH@Z 000000018000ac58 f i POSPrinter.obj
 0001:00009dc4       ?RegisterFromResource@CRegObject@ATL@@IEAAJPEB_W00H@Z 000000018000adc4 f i POSPrinter.obj
 0001:00009f80       ?RegisterServer@CComModule@ATL@@QEAAJHPEBU_GUID@@@Z 000000018000af80 f i POSPrinter.obj
 0001:0000a03c       ?RegisterSubkeys@CRegParser@ATL@@IEAAJPEA_WPEAUHKEY__@@HH@Z 000000018000b03c f i POSPrinter.obj
 0001:0000a8bc       ?SendOnDataChange@CComControlBase@ATL@@QEAAJK@Z 000000018000b8bc f i POSPrinter.obj
 0001:0000a92c       ?SetControlFocus@CComControlBase@ATL@@QEAAHH@Z 000000018000b92c f i POSPrinter.obj
 0001:0000a9fc       ?SkipAssignment@CRegParser@ATL@@IEAAJPEA_W@Z 000000018000b9fc f i POSPrinter.obj
 0001:0000aab4       ?Term@CAtlModule@ATL@@QEAAXXZ 000000018000bab4 f i POSPrinter.obj
 0001:0000ab6c       ?Term@CComModule@ATL@@QEAAXXZ 000000018000bb6c f i POSPrinter.obj
 0001:0000abe8       ?UnregisterServer@CComModule@ATL@@QEAAJHPEBU_GUID@@@Z 000000018000bbe8 f i POSPrinter.obj
 0001:0000ac98       ?UpdateRegistryFromResource@CAtlModule@ATL@@QEAAJIHPEAU_ATL_REGMAP_ENTRY@2@@Z 000000018000bc98 f i POSPrinter.obj
 0001:0000afa4       ?UpdateRegistryFromResource@CAtlModule@ATL@@QEAAJPEB_WHPEAU_ATL_REGMAP_ENTRY@2@@Z 000000018000bfa4 f i POSPrinter.obj
 0001:0000b2c8       ?VTFromRegType@CRegParser@ATL@@KAHPEB_WAEAG@Z 000000018000c2c8 f i POSPrinter.obj
 0001:0000b364       ?WindowProc@?$CWindowImplBaseT@VCWindow@ATL@@V?$CWinTraits@$0FGAAAAAA@$0A@@2@@ATL@@SA_JPEAUHWND__@@I_K_J@Z 000000018000c364 f i POSPrinter.obj
 0001:0000b4d0       ?WriteToStream@CComVariant@ATL@@QEAAJPEAUIStream@@@Z 000000018000c4d0 f i POSPrinter.obj
 0001:0000b73c       ?WriteToStream@CComVariant@ATL@@QEAAJPEAUIStream@@G@Z 000000018000c73c f i POSPrinter.obj
 0001:0000b7d4       ?_AtlVerifyStackAvailable@_ATL_SAFE_ALLOCA_IMPL@ATL@@YA_N_K@Z 000000018000c7d4 f i POSPrinter.obj
 0001:0000b858       ?atlCreate@?$CWindowImpl@VCOPOSPOSPrinter@@VCWindow@ATL@@V?$CWinTraits@$0FGAAAAAA@$0A@@3@@ATL@@QEAAPEAUHWND__@@PEAU3@V_U_RECT@2@PEB_WKKV_U_MENUorID@2@PEAX@Z 000000018000c858 f i POSPrinter.obj
 0001:0000b914       ?atlCreate@?$CWindowImplBaseT@VCWindow@ATL@@V?$CWinTraits@$0FGAAAAAA@$0A@@2@@ATL@@QEAAPEAUHWND__@@PEAU3@V_U_RECT@2@PEB_WKKV_U_MENUorID@2@GPEAX@Z 000000018000c914 f i POSPrinter.obj
 0001:0000ba84       ?ocscpy_s@@YA_NPEA_W_KPEB_W@Z 000000018000ca84 f i POSPrinter.obj
 0001:0000bb34       DllCanUnloadNow            000000018000cb34 f   POSPrinter.obj
 0001:0000bb40       DllGetClassObject          000000018000cb40 f   POSPrinter.obj
 0001:0000bb58       DllMain                    000000018000cb58 f   POSPrinter.obj
 0001:0000bc00       DllRegisterServer          000000018000cc00 f   POSPrinter.obj
 0001:0000bc14       DllUnregisterServer        000000018000cc14 f   POSPrinter.obj
 0001:0000bc28       __local_stdio_printf_options 000000018000cc28 f i POSPrinter.obj
 0001:0000bc30       swprintf_s                 000000018000cc30 f i POSPrinter.obj
 0001:0000bc84       ??0COPOSPOSPrinter@@QEAA@XZ 000000018000cc84 f   POSPrinterImpl.obj
 0001:0000bd4c       ??1?$IConnectionPointImpl@VCOPOSPOSPrinter@@$1?DIID__IOPOSPOSPrinterEvents@@3U_GUID@@BVCComDynamicUnkArray@ATL@@@ATL@@QEAA@XZ 000000018000cd4c f i POSPrinterImpl.obj
 0001:0000bd4c       ??1?$IConnectionPointImpl@VCOPOSPOSPrinter@@$1?IID_IPropertyNotifySink@@3U_GUID@@BVCComDynamicUnkArray@ATL@@@ATL@@QEAA@XZ 000000018000cd4c f i POSPrinterImpl.obj
 0001:0000bda8       ??1CComControlBase@ATL@@UEAA@XZ 000000018000cda8 f i POSPrinterImpl.obj
 0001:0000be24       ??1COPOSPOSPrinter@@UEAA@XZ 000000018000ce24 f   POSPrinterImpl.obj
 0001:0000be88       ?BeginInsertion@COPOSPOSPrinter@@UEAAJJPEAJ@Z 000000018000ce88 f   POSPrinterImpl.obj
 0001:0000bf04       ?BeginRemoval@COPOSPOSPrinter@@UEAAJJPEAJ@Z 000000018000cf04 f   POSPrinterImpl.obj
 0001:0000bf80       ?ChangePrintSide@COPOSPOSPrinter@@UEAAJJPEAJ@Z 000000018000cf80 f   POSPrinterImpl.obj
 0001:0000bffc       ?CheckHealth@COPOSPOSPrinter@@UEAAJJPEAJ@Z 000000018000cffc f   POSPrinterImpl.obj
 0001:0000c078       ?ClaimDevice@COPOSPOSPrinter@@UEAAJJPEAJ@Z 000000018000d078 f   POSPrinterImpl.obj
 0001:0000c118       ?ClearOutput@COPOSPOSPrinter@@UEAAJPEAJ@Z 000000018000d118 f   POSPrinterImpl.obj
 0001:0000c140       ?ClearPrintArea@COPOSPOSPrinter@@UEAAJPEAJ@Z 000000018000d140 f   POSPrinterImpl.obj
 0001:0000c168       ?Close@COPOSPOSPrinter@@UEAAJPEAJ@Z 000000018000d168 f   POSPrinterImpl.obj
 0001:0000c220       ?CompareFirmwareVersion@COPOSPOSPrinter@@UEAAJPEA_WPEAJ1@Z 000000018000d220 f   POSPrinterImpl.obj
 0001:0000c2fc       ?CutPaper@COPOSPOSPrinter@@UEAAJJPEAJ@Z 000000018000d2fc f   POSPrinterImpl.obj
 0001:0000c378       ?DirectIO@COPOSPOSPrinter@@UEAAJJPEAJPEAPEA_W0@Z 000000018000d378 f   POSPrinterImpl.obj
 0001:0000c474       ?DoInvoke@COPOSPOSPrinter@@IEAAJJPEAVOposVariant@@IHPEAJ_N@Z 000000018000d474 f   POSPrinterImpl.obj
 0001:0000c5a8       ?DrawRuledLine@COPOSPOSPrinter@@UEAAJJPEA_WJJJJPEAJ@Z 000000018000d5a8 f   POSPrinterImpl.obj
 0001:0000c6c4       ?EndInsertion@COPOSPOSPrinter@@UEAAJPEAJ@Z 000000018000d6c4 f   POSPrinterImpl.obj
 0001:0000c6ec       ?EndRemoval@COPOSPOSPrinter@@UEAAJPEAJ@Z 000000018000d6ec f   POSPrinterImpl.obj
 0001:0000c714       ?EventInit@COPOSPOSPrinter@@IEAAJXZ 000000018000d714 f i POSPrinterImpl.obj
 0001:0000c864       ?EventUninit@COPOSPOSPrinter@@IEAAXXZ 000000018000d864 f i POSPrinterImpl.obj
 0001:0000c8c8       ?EventWindowProc@COPOSPOSPrinter@@IEAA_JI_K_J@Z 000000018000d8c8 f i POSPrinterImpl.obj
 0001:0000ca44       ?FinalConstruct@COPOSPOSPrinter@@QEAAJXZ 000000018000da44 f   POSPrinterImpl.obj
 0001:0000ca80       ?FreezeEvents@COPOSPOSPrinter@@MEAAJH@Z 000000018000da80 f   POSPrinterImpl.obj
 0001:0000caec       ?GetOposProp@COPOSPOSPrinter@@IEAAJJPEAJJ@Z 000000018000daec f   POSPrinterImpl.obj
 0001:0000cc08       ?GetOposProp@COPOSPOSPrinter@@IEAAJJPEAPEA_WJ@Z 000000018000dc08 f   POSPrinterImpl.obj
 0001:0000cd34       ?MarkFeed@COPOSPOSPrinter@@UEAAJJPEAJ@Z 000000018000dd34 f   POSPrinterImpl.obj
 0001:0000cdb0       ?OnDraw@COPOSPOSPrinter@@MEAAJAEAUATL_DRAWINFO@@@Z 000000018000ddb0 f   POSPrinterImpl.obj
 0001:0000ce9c       ?Open@COPOSPOSPrinter@@UEAAJPEA_WPEAJ@Z 000000018000de9c f   POSPrinterImpl.obj
 0001:0000d710       ?PageModePrint@COPOSPOSPrinter@@UEAAJJPEAJ@Z 000000018000e710 f   POSPrinterImpl.obj
 0001:0000d78c       ?PrintBarCode@COPOSPOSPrinter@@UEAAJJPEA_WJJJJJPEAJ@Z 000000018000e78c f   POSPrinterImpl.obj
 0001:0000d8b8       ?PrintBitmap@COPOSPOSPrinter@@UEAAJJPEA_WJJPEAJ@Z 000000018000e8b8 f   POSPrinterImpl.obj
 0001:0000d9c4       ?PrintImmediate@COPOSPOSPrinter@@UEAAJJPEA_WPEAJ@Z 000000018000e9c4 f   POSPrinterImpl.obj
 0001:0000da9c       ?PrintMemoryBitmap@COPOSPOSPrinter@@UEAAJJPEA_WJJJPEAJ@Z 000000018000ea9c f   POSPrinterImpl.obj
 0001:0000dba0       ?PrintNormal@COPOSPOSPrinter@@UEAAJJPEA_WPEAJ@Z 000000018000eba0 f   POSPrinterImpl.obj
 0001:0000dc78       ?PrintTwoNormal@COPOSPOSPrinter@@UEAAJJPEA_W0PEAJ@Z 000000018000ec78 f   POSPrinterImpl.obj
 0001:0000dd74       ?ReleaseDevice@COPOSPOSPrinter@@UEAAJPEAJ@Z 000000018000ed74 f   POSPrinterImpl.obj
 0001:0000dde0       ?ResetStatistics@COPOSPOSPrinter@@UEAAJPEA_WPEAJ@Z 000000018000ede0 f   POSPrinterImpl.obj
 0001:0000de68       ?RetrieveStatistics@COPOSPOSPrinter@@UEAAJPEAPEA_WPEAJ@Z 000000018000ee68 f   POSPrinterImpl.obj
 0001:0000def0       ?RotatePrint@COPOSPOSPrinter@@UEAAJJJPEAJ@Z 000000018000eef0 f   POSPrinterImpl.obj
 0001:0000dfbc       ?SOProcessID@COPOSPOSPrinter@@UEAAJPEAJ@Z 000000018000efbc f   POSPrinterImpl.obj
 0001:0000dfd8       ?SetBitmap@COPOSPOSPrinter@@UEAAJJJPEA_WJJPEAJ@Z 000000018000efd8 f   POSPrinterImpl.obj
 0001:0000e0dc       ?SetCOFreezeEvents@COPOSPOSPrinter@@IEAAXF@Z 000000018000f0dc f   POSPrinterImpl.obj
 0001:0000e1c0       ?SetLogo@COPOSPOSPrinter@@UEAAJJPEA_WPEAJ@Z 000000018000f1c0 f   POSPrinterImpl.obj
 0001:0000e298       ?SetOposProp@COPOSPOSPrinter@@IEAAJJJJ@Z 000000018000f298 f   POSPrinterImpl.obj
 0001:0000e3f8       ?SetOposProp@COPOSPOSPrinter@@IEAAJJPEA_WJ@Z 000000018000f3f8 f   POSPrinterImpl.obj
 0001:0000e550       ?TransactionPrint@COPOSPOSPrinter@@UEAAJJJPEAJ@Z 000000018000f550 f   POSPrinterImpl.obj
 0001:0000e61c       ?UpdateFirmware@COPOSPOSPrinter@@UEAAJPEA_WPEAJ@Z 000000018000f61c f   POSPrinterImpl.obj
 0001:0000e6a4       ?UpdateStatistics@COPOSPOSPrinter@@UEAAJPEA_WPEAJ@Z 000000018000f6a4 f   POSPrinterImpl.obj
 0001:0000e72c       ?ValidateData@COPOSPOSPrinter@@UEAAJJPEA_WPEAJ@Z 000000018000f72c f   POSPrinterImpl.obj
 0001:0000e804       ?get_AsyncMode@COPOSPOSPrinter@@UEAAJPEAF@Z 000000018000f804 f   POSPrinterImpl.obj
 0001:0000e834       ?get_BinaryConversion@COPOSPOSPrinter@@UEAAJPEAJ@Z 000000018000f834 f   POSPrinterImpl.obj
 0001:0000e848       ?get_CapCharacterSet@COPOSPOSPrinter@@UEAAJPEAJ@Z 000000018000f848 f   POSPrinterImpl.obj
 0001:0000e85c       ?get_CapCompareFirmwareVersion@COPOSPOSPrinter@@UEAAJPEAF@Z 000000018000f85c f   POSPrinterImpl.obj
 0001:0000e890       ?get_CapConcurrentJrnRec@COPOSPOSPrinter@@UEAAJPEAF@Z 000000018000f890 f   POSPrinterImpl.obj
 0001:0000e8c0       ?get_CapConcurrentJrnSlp@COPOSPOSPrinter@@UEAAJPEAF@Z 000000018000f8c0 f   POSPrinterImpl.obj
 0001:0000e8f0       ?get_CapConcurrentPageMode@COPOSPOSPrinter@@UEAAJPEAF@Z 000000018000f8f0 f   POSPrinterImpl.obj
 0001:0000e924       ?get_CapConcurrentRecSlp@COPOSPOSPrinter@@UEAAJPEAF@Z 000000018000f924 f   POSPrinterImpl.obj
 0001:0000e954       ?get_CapCoverSensor@COPOSPOSPrinter@@UEAAJPEAF@Z 000000018000f954 f   POSPrinterImpl.obj
 0001:0000e984       ?get_CapJrn2Color@COPOSPOSPrinter@@UEAAJPEAF@Z 000000018000f984 f   POSPrinterImpl.obj
 0001:0000e9b4       ?get_CapJrnBold@COPOSPOSPrinter@@UEAAJPEAF@Z 000000018000f9b4 f   POSPrinterImpl.obj
 0001:0000e9e4       ?get_CapJrnCartridgeSensor@COPOSPOSPrinter@@UEAAJPEAJ@Z 000000018000f9e4 f   POSPrinterImpl.obj
 0001:0000e9f8       ?get_CapJrnColor@COPOSPOSPrinter@@UEAAJPEAJ@Z 000000018000f9f8 f   POSPrinterImpl.obj
 0001:0000ea0c       ?get_CapJrnDhigh@COPOSPOSPrinter@@UEAAJPEAF@Z 000000018000fa0c f   POSPrinterImpl.obj
 0001:0000ea3c       ?get_CapJrnDwide@COPOSPOSPrinter@@UEAAJPEAF@Z 000000018000fa3c f   POSPrinterImpl.obj
 0001:0000ea6c       ?get_CapJrnDwideDhigh@COPOSPOSPrinter@@UEAAJPEAF@Z 000000018000fa6c f   POSPrinterImpl.obj
 0001:0000ea9c       ?get_CapJrnEmptySensor@COPOSPOSPrinter@@UEAAJPEAF@Z 000000018000fa9c f   POSPrinterImpl.obj
 0001:0000eacc       ?get_CapJrnItalic@COPOSPOSPrinter@@UEAAJPEAF@Z 000000018000facc f   POSPrinterImpl.obj
 0001:0000eafc       ?get_CapJrnNearEndSensor@COPOSPOSPrinter@@UEAAJPEAF@Z 000000018000fafc f   POSPrinterImpl.obj
 0001:0000eb2c       ?get_CapJrnPresent@COPOSPOSPrinter@@UEAAJPEAF@Z 000000018000fb2c f   POSPrinterImpl.obj
 0001:0000eb5c       ?get_CapJrnUnderline@COPOSPOSPrinter@@UEAAJPEAF@Z 000000018000fb5c f   POSPrinterImpl.obj
 0001:0000eb8c       ?get_CapMapCharacterSet@COPOSPOSPrinter@@UEAAJPEAF@Z 000000018000fb8c f   POSPrinterImpl.obj
 0001:0000ebc0       ?get_CapPowerReporting@COPOSPOSPrinter@@UEAAJPEAJ@Z 000000018000fbc0 f   POSPrinterImpl.obj
 0001:0000ebd4       ?get_CapRec2Color@COPOSPOSPrinter@@UEAAJPEAF@Z 000000018000fbd4 f   POSPrinterImpl.obj
 0001:0000ec04       ?get_CapRecBarCode@COPOSPOSPrinter@@UEAAJPEAF@Z 000000018000fc04 f   POSPrinterImpl.obj
 0001:0000ec34       ?get_CapRecBitmap@COPOSPOSPrinter@@UEAAJPEAF@Z 000000018000fc34 f   POSPrinterImpl.obj
 0001:0000ec64       ?get_CapRecBold@COPOSPOSPrinter@@UEAAJPEAF@Z 000000018000fc64 f   POSPrinterImpl.obj
 0001:0000ec94       ?get_CapRecCartridgeSensor@COPOSPOSPrinter@@UEAAJPEAJ@Z 000000018000fc94 f   POSPrinterImpl.obj
 0001:0000eca8       ?get_CapRecColor@COPOSPOSPrinter@@UEAAJPEAJ@Z 000000018000fca8 f   POSPrinterImpl.obj
 0001:0000ecbc       ?get_CapRecDhigh@COPOSPOSPrinter@@UEAAJPEAF@Z 000000018000fcbc f   POSPrinterImpl.obj
 0001:0000ecec       ?get_CapRecDwide@COPOSPOSPrinter@@UEAAJPEAF@Z 000000018000fcec f   POSPrinterImpl.obj
 0001:0000ed1c       ?get_CapRecDwideDhigh@COPOSPOSPrinter@@UEAAJPEAF@Z 000000018000fd1c f   POSPrinterImpl.obj
 0001:0000ed4c       ?get_CapRecEmptySensor@COPOSPOSPrinter@@UEAAJPEAF@Z 000000018000fd4c f   POSPrinterImpl.obj
 0001:0000ed7c       ?get_CapRecItalic@COPOSPOSPrinter@@UEAAJPEAF@Z 000000018000fd7c f   POSPrinterImpl.obj
 0001:0000edac       ?get_CapRecLeft90@COPOSPOSPrinter@@UEAAJPEAF@Z 000000018000fdac f   POSPrinterImpl.obj
 0001:0000eddc       ?get_CapRecMarkFeed@COPOSPOSPrinter@@UEAAJPEAJ@Z 000000018000fddc f   POSPrinterImpl.obj
 0001:0000edf0       ?get_CapRecNearEndSensor@COPOSPOSPrinter@@UEAAJPEAF@Z 000000018000fdf0 f   POSPrinterImpl.obj
 0001:0000ee20       ?get_CapRecPageMode@COPOSPOSPrinter@@UEAAJPEAF@Z 000000018000fe20 f   POSPrinterImpl.obj
 0001:0000ee54       ?get_CapRecPapercut@COPOSPOSPrinter@@UEAAJPEAF@Z 000000018000fe54 f   POSPrinterImpl.obj
 0001:0000ee84       ?get_CapRecPresent@COPOSPOSPrinter@@UEAAJPEAF@Z 000000018000fe84 f   POSPrinterImpl.obj
 0001:0000eeb4       ?get_CapRecRight90@COPOSPOSPrinter@@UEAAJPEAF@Z 000000018000feb4 f   POSPrinterImpl.obj
 0001:0000eee4       ?get_CapRecRotate180@COPOSPOSPrinter@@UEAAJPEAF@Z 000000018000fee4 f   POSPrinterImpl.obj
 0001:0000ef14       ?get_CapRecRuledLine@COPOSPOSPrinter@@UEAAJPEAJ@Z 000000018000ff14 f   POSPrinterImpl.obj
 0001:0000ef28       ?get_CapRecStamp@COPOSPOSPrinter@@UEAAJPEAF@Z 000000018000ff28 f   POSPrinterImpl.obj
 0001:0000ef58       ?get_CapRecUnderline@COPOSPOSPrinter@@UEAAJPEAF@Z 000000018000ff58 f   POSPrinterImpl.obj
 0001:0000ef88       ?get_CapSlp2Color@COPOSPOSPrinter@@UEAAJPEAF@Z 000000018000ff88 f   POSPrinterImpl.obj
 0001:0000efb8       ?get_CapSlpBarCode@COPOSPOSPrinter@@UEAAJPEAF@Z 000000018000ffb8 f   POSPrinterImpl.obj
 0001:0000efe8       ?get_CapSlpBitmap@COPOSPOSPrinter@@UEAAJPEAF@Z 000000018000ffe8 f   POSPrinterImpl.obj
 0001:0000f018       ?get_CapSlpBold@COPOSPOSPrinter@@UEAAJPEAF@Z 0000000180010018 f   POSPrinterImpl.obj
 0001:0000f048       ?get_CapSlpBothSidesPrint@COPOSPOSPrinter@@UEAAJPEAF@Z 0000000180010048 f   POSPrinterImpl.obj
 0001:0000f07c       ?get_CapSlpCartridgeSensor@COPOSPOSPrinter@@UEAAJPEAJ@Z 000000018001007c f   POSPrinterImpl.obj
 0001:0000f090       ?get_CapSlpColor@COPOSPOSPrinter@@UEAAJPEAJ@Z 0000000180010090 f   POSPrinterImpl.obj
 0001:0000f0a4       ?get_CapSlpDhigh@COPOSPOSPrinter@@UEAAJPEAF@Z 00000001800100a4 f   POSPrinterImpl.obj
 0001:0000f0d4       ?get_CapSlpDwide@COPOSPOSPrinter@@UEAAJPEAF@Z 00000001800100d4 f   POSPrinterImpl.obj
 0001:0000f104       ?get_CapSlpDwideDhigh@COPOSPOSPrinter@@UEAAJPEAF@Z 0000000180010104 f   POSPrinterImpl.obj
 0001:0000f134       ?get_CapSlpEmptySensor@COPOSPOSPrinter@@UEAAJPEAF@Z 0000000180010134 f   POSPrinterImpl.obj
 0001:0000f164       ?get_CapSlpFullslip@COPOSPOSPrinter@@UEAAJPEAF@Z 0000000180010164 f   POSPrinterImpl.obj
 0001:0000f194       ?get_CapSlpItalic@COPOSPOSPrinter@@UEAAJPEAF@Z 0000000180010194 f   POSPrinterImpl.obj
 0001:0000f1c4       ?get_CapSlpLeft90@COPOSPOSPrinter@@UEAAJPEAF@Z 00000001800101c4 f   POSPrinterImpl.obj
 0001:0000f1f4       ?get_CapSlpNearEndSensor@COPOSPOSPrinter@@UEAAJPEAF@Z 00000001800101f4 f   POSPrinterImpl.obj
 0001:0000f224       ?get_CapSlpPageMode@COPOSPOSPrinter@@UEAAJPEAF@Z 0000000180010224 f   POSPrinterImpl.obj
 0001:0000f258       ?get_CapSlpPresent@COPOSPOSPrinter@@UEAAJPEAF@Z 0000000180010258 f   POSPrinterImpl.obj
 0001:0000f288       ?get_CapSlpRight90@COPOSPOSPrinter@@UEAAJPEAF@Z 0000000180010288 f   POSPrinterImpl.obj
 0001:0000f2b8       ?get_CapSlpRotate180@COPOSPOSPrinter@@UEAAJPEAF@Z 00000001800102b8 f   POSPrinterImpl.obj
 0001:0000f2e8       ?get_CapSlpRuledLine@COPOSPOSPrinter@@UEAAJPEAJ@Z 00000001800102e8 f   POSPrinterImpl.obj
 0001:0000f2fc       ?get_CapSlpUnderline@COPOSPOSPrinter@@UEAAJPEAF@Z 00000001800102fc f   POSPrinterImpl.obj
 0001:0000f32c       ?get_CapStatisticsReporting@COPOSPOSPrinter@@UEAAJPEAF@Z 000000018001032c f   POSPrinterImpl.obj
 0001:0000f360       ?get_CapTransaction@COPOSPOSPrinter@@UEAAJPEAF@Z 0000000180010360 f   POSPrinterImpl.obj
 0001:0000f394       ?get_CapUpdateFirmware@COPOSPOSPrinter@@UEAAJPEAF@Z 0000000180010394 f   POSPrinterImpl.obj
 0001:0000f3c8       ?get_CapUpdateStatistics@COPOSPOSPrinter@@UEAAJPEAF@Z 00000001800103c8 f   POSPrinterImpl.obj
 0001:0000f3fc       ?get_CartridgeNotify@COPOSPOSPrinter@@UEAAJPEAJ@Z 00000001800103fc f   POSPrinterImpl.obj
 0001:0000f410       ?get_CharacterSet@COPOSPOSPrinter@@UEAAJPEAJ@Z 0000000180010410 f   POSPrinterImpl.obj
 0001:0000f420       ?get_CharacterSetList@COPOSPOSPrinter@@UEAAJPEAPEA_W@Z 0000000180010420 f   POSPrinterImpl.obj
 0001:0000f430       ?get_CheckHealthText@COPOSPOSPrinter@@UEAAJPEAPEA_W@Z 0000000180010430 f   POSPrinterImpl.obj
 0001:0000f440       ?get_Claimed@COPOSPOSPrinter@@UEAAJPEAF@Z 0000000180010440 f   POSPrinterImpl.obj
 0001:0000f470       ?get_ControlObjectDescription@COPOSPOSPrinter@@UEAAJPEAPEA_W@Z 0000000180010470 f   POSPrinterImpl.obj
 0001:0000f4d4       ?get_ControlObjectVersion@COPOSPOSPrinter@@UEAAJPEAJ@Z 00000001800104d4 f   POSPrinterImpl.obj
 0001:0000f4e0       ?get_CoverOpen@COPOSPOSPrinter@@UEAAJPEAF@Z 00000001800104e0 f   POSPrinterImpl.obj
 0001:0000f510       ?get_DeviceDescription@COPOSPOSPrinter@@UEAAJPEAPEA_W@Z 0000000180010510 f   POSPrinterImpl.obj
 0001:0000f520       ?get_DeviceEnabled@COPOSPOSPrinter@@UEAAJPEAF@Z 0000000180010520 f   POSPrinterImpl.obj
 0001:0000f550       ?get_DeviceName@COPOSPOSPrinter@@UEAAJPEAPEA_W@Z 0000000180010550 f   POSPrinterImpl.obj
 0001:0000f560       ?get_ErrorLevel@COPOSPOSPrinter@@UEAAJPEAJ@Z 0000000180010560 f   POSPrinterImpl.obj
 0001:0000f574       ?get_ErrorStation@COPOSPOSPrinter@@UEAAJPEAJ@Z 0000000180010574 f   POSPrinterImpl.obj
 0001:0000f584       ?get_ErrorString@COPOSPOSPrinter@@UEAAJPEAPEA_W@Z 0000000180010584 f   POSPrinterImpl.obj
 0001:0000f598       ?get_FlagWhenIdle@COPOSPOSPrinter@@UEAAJPEAF@Z 0000000180010598 f   POSPrinterImpl.obj
 0001:0000f5c8       ?get_FontTypefaceList@COPOSPOSPrinter@@UEAAJPEAPEA_W@Z 00000001800105c8 f   POSPrinterImpl.obj
 0001:0000f5dc       ?get_FreezeEvents@COPOSPOSPrinter@@UEAAJPEAF@Z 00000001800105dc f   POSPrinterImpl.obj
 0001:0000f60c       ?get_JrnCartridgeState@COPOSPOSPrinter@@UEAAJPEAJ@Z 000000018001060c f   POSPrinterImpl.obj
 0001:0000f620       ?get_JrnCurrentCartridge@COPOSPOSPrinter@@UEAAJPEAJ@Z 0000000180010620 f   POSPrinterImpl.obj
 0001:0000f634       ?get_JrnEmpty@COPOSPOSPrinter@@UEAAJPEAF@Z 0000000180010634 f   POSPrinterImpl.obj
 0001:0000f664       ?get_JrnLetterQuality@COPOSPOSPrinter@@UEAAJPEAF@Z 0000000180010664 f   POSPrinterImpl.obj
 0001:0000f694       ?get_JrnLineChars@COPOSPOSPrinter@@UEAAJPEAJ@Z 0000000180010694 f   POSPrinterImpl.obj
 0001:0000f6a4       ?get_JrnLineCharsList@COPOSPOSPrinter@@UEAAJPEAPEA_W@Z 00000001800106a4 f   POSPrinterImpl.obj
 0001:0000f6b4       ?get_JrnLineHeight@COPOSPOSPrinter@@UEAAJPEAJ@Z 00000001800106b4 f   POSPrinterImpl.obj
 0001:0000f6c4       ?get_JrnLineSpacing@COPOSPOSPrinter@@UEAAJPEAJ@Z 00000001800106c4 f   POSPrinterImpl.obj
 0001:0000f6d4       ?get_JrnLineWidth@COPOSPOSPrinter@@UEAAJPEAJ@Z 00000001800106d4 f   POSPrinterImpl.obj
 0001:0000f6e4       ?get_JrnNearEnd@COPOSPOSPrinter@@UEAAJPEAF@Z 00000001800106e4 f   POSPrinterImpl.obj
 0001:0000f714       ?get_MapCharacterSet@COPOSPOSPrinter@@UEAAJPEAF@Z 0000000180010714 f   POSPrinterImpl.obj
 0001:0000f748       ?get_MapMode@COPOSPOSPrinter@@UEAAJPEAJ@Z 0000000180010748 f   POSPrinterImpl.obj
 0001:0000f758       ?get_OpenResult@COPOSPOSPrinter@@UEAAJPEAJ@Z 0000000180010758 f   POSPrinterImpl.obj
 0001:0000f764       ?get_OutputID@COPOSPOSPrinter@@UEAAJPEAJ@Z 0000000180010764 f   POSPrinterImpl.obj
 0001:0000f774       ?get_PageModeArea@COPOSPOSPrinter@@UEAAJPEAPEA_W@Z 0000000180010774 f   POSPrinterImpl.obj
 0001:0000f788       ?get_PageModeDescriptor@COPOSPOSPrinter@@UEAAJPEAJ@Z 0000000180010788 f   POSPrinterImpl.obj
 0001:0000f79c       ?get_PageModeHorizontalPosition@COPOSPOSPrinter@@UEAAJPEAJ@Z 000000018001079c f   POSPrinterImpl.obj
 0001:0000f7b0       ?get_PageModePrintArea@COPOSPOSPrinter@@UEAAJPEAPEA_W@Z 00000001800107b0 f   POSPrinterImpl.obj
 0001:0000f7c4       ?get_PageModePrintDirection@COPOSPOSPrinter@@UEAAJPEAJ@Z 00000001800107c4 f   POSPrinterImpl.obj
 0001:0000f7d8       ?get_PageModeStation@COPOSPOSPrinter@@UEAAJPEAJ@Z 00000001800107d8 f   POSPrinterImpl.obj
 0001:0000f7ec       ?get_PageModeVerticalPosition@COPOSPOSPrinter@@UEAAJPEAJ@Z 00000001800107ec f   POSPrinterImpl.obj
 0001:0000f800       ?get_PowerNotify@COPOSPOSPrinter@@UEAAJPEAJ@Z 0000000180010800 f   POSPrinterImpl.obj
 0001:0000f814       ?get_PowerState@COPOSPOSPrinter@@UEAAJPEAJ@Z 0000000180010814 f   POSPrinterImpl.obj
 0001:0000f828       ?get_RecBarCodeRotationList@COPOSPOSPrinter@@UEAAJPEAPEA_W@Z 0000000180010828 f   POSPrinterImpl.obj
 0001:0000f83c       ?get_RecBitmapRotationList@COPOSPOSPrinter@@UEAAJPEAPEA_W@Z 000000018001083c f   POSPrinterImpl.obj
 0001:0000f850       ?get_RecCartridgeState@COPOSPOSPrinter@@UEAAJPEAJ@Z 0000000180010850 f   POSPrinterImpl.obj
 0001:0000f864       ?get_RecCurrentCartridge@COPOSPOSPrinter@@UEAAJPEAJ@Z 0000000180010864 f   POSPrinterImpl.obj
 0001:0000f878       ?get_RecEmpty@COPOSPOSPrinter@@UEAAJPEAF@Z 0000000180010878 f   POSPrinterImpl.obj
 0001:0000f8a8       ?get_RecLetterQuality@COPOSPOSPrinter@@UEAAJPEAF@Z 00000001800108a8 f   POSPrinterImpl.obj
 0001:0000f8d8       ?get_RecLineChars@COPOSPOSPrinter@@UEAAJPEAJ@Z 00000001800108d8 f   POSPrinterImpl.obj
 0001:0000f8e8       ?get_RecLineCharsList@COPOSPOSPrinter@@UEAAJPEAPEA_W@Z 00000001800108e8 f   POSPrinterImpl.obj
 0001:0000f8f8       ?get_RecLineHeight@COPOSPOSPrinter@@UEAAJPEAJ@Z 00000001800108f8 f   POSPrinterImpl.obj
 0001:0000f908       ?get_RecLineSpacing@COPOSPOSPrinter@@UEAAJPEAJ@Z 0000000180010908 f   POSPrinterImpl.obj
 0001:0000f918       ?get_RecLineWidth@COPOSPOSPrinter@@UEAAJPEAJ@Z 0000000180010918 f   POSPrinterImpl.obj
 0001:0000f928       ?get_RecLinesToPaperCut@COPOSPOSPrinter@@UEAAJPEAJ@Z 0000000180010928 f   POSPrinterImpl.obj
 0001:0000f938       ?get_RecNearEnd@COPOSPOSPrinter@@UEAAJPEAF@Z 0000000180010938 f   POSPrinterImpl.obj
 0001:0000f968       ?get_RecSidewaysMaxChars@COPOSPOSPrinter@@UEAAJPEAJ@Z 0000000180010968 f   POSPrinterImpl.obj
 0001:0000f978       ?get_RecSidewaysMaxLines@COPOSPOSPrinter@@UEAAJPEAJ@Z 0000000180010978 f   POSPrinterImpl.obj
 0001:0000f988       ?get_ResultCode@COPOSPOSPrinter@@UEAAJPEAJ@Z 0000000180010988 f   POSPrinterImpl.obj
 0001:0000f9c4       ?get_ResultCodeExtended@COPOSPOSPrinter@@UEAAJPEAJ@Z 00000001800109c4 f   POSPrinterImpl.obj
 0001:0000f9d4       ?get_RotateSpecial@COPOSPOSPrinter@@UEAAJPEAJ@Z 00000001800109d4 f   POSPrinterImpl.obj
 0001:0000f9e8       ?get_ServiceObjectDescription@COPOSPOSPrinter@@UEAAJPEAPEA_W@Z 00000001800109e8 f   POSPrinterImpl.obj
 0001:0000f9f8       ?get_ServiceObjectVersion@COPOSPOSPrinter@@UEAAJPEAJ@Z 00000001800109f8 f   POSPrinterImpl.obj
 0001:0000fa08       ?get_SlpBarCodeRotationList@COPOSPOSPrinter@@UEAAJPEAPEA_W@Z 0000000180010a08 f   POSPrinterImpl.obj
 0001:0000fa1c       ?get_SlpBitmapRotationList@COPOSPOSPrinter@@UEAAJPEAPEA_W@Z 0000000180010a1c f   POSPrinterImpl.obj
 0001:0000fa30       ?get_SlpCartridgeState@COPOSPOSPrinter@@UEAAJPEAJ@Z 0000000180010a30 f   POSPrinterImpl.obj
 0001:0000fa44       ?get_SlpCurrentCartridge@COPOSPOSPrinter@@UEAAJPEAJ@Z 0000000180010a44 f   POSPrinterImpl.obj
 0001:0000fa58       ?get_SlpEmpty@COPOSPOSPrinter@@UEAAJPEAF@Z 0000000180010a58 f   POSPrinterImpl.obj
 0001:0000fa88       ?get_SlpLetterQuality@COPOSPOSPrinter@@UEAAJPEAF@Z 0000000180010a88 f   POSPrinterImpl.obj
 0001:0000fab8       ?get_SlpLineChars@COPOSPOSPrinter@@UEAAJPEAJ@Z 0000000180010ab8 f   POSPrinterImpl.obj
 0001:0000fac8       ?get_SlpLineCharsList@COPOSPOSPrinter@@UEAAJPEAPEA_W@Z 0000000180010ac8 f   POSPrinterImpl.obj
 0001:0000fad8       ?get_SlpLineHeight@COPOSPOSPrinter@@UEAAJPEAJ@Z 0000000180010ad8 f   POSPrinterImpl.obj
 0001:0000fae8       ?get_SlpLineSpacing@COPOSPOSPrinter@@UEAAJPEAJ@Z 0000000180010ae8 f   POSPrinterImpl.obj
 0001:0000faf8       ?get_SlpLineWidth@COPOSPOSPrinter@@UEAAJPEAJ@Z 0000000180010af8 f   POSPrinterImpl.obj
 0001:0000fb08       ?get_SlpLinesNearEndToEnd@COPOSPOSPrinter@@UEAAJPEAJ@Z 0000000180010b08 f   POSPrinterImpl.obj
 0001:0000fb18       ?get_SlpMaxLines@COPOSPOSPrinter@@UEAAJPEAJ@Z 0000000180010b18 f   POSPrinterImpl.obj
 0001:0000fb28       ?get_SlpNearEnd@COPOSPOSPrinter@@UEAAJPEAF@Z 0000000180010b28 f   POSPrinterImpl.obj
 0001:0000fb58       ?get_SlpPrintSide@COPOSPOSPrinter@@UEAAJPEAJ@Z 0000000180010b58 f   POSPrinterImpl.obj
 0001:0000fb6c       ?get_SlpSidewaysMaxChars@COPOSPOSPrinter@@UEAAJPEAJ@Z 0000000180010b6c f   POSPrinterImpl.obj
 0001:0000fb7c       ?get_SlpSidewaysMaxLines@COPOSPOSPrinter@@UEAAJPEAJ@Z 0000000180010b7c f   POSPrinterImpl.obj
 0001:0000fb8c       ?get_State@COPOSPOSPrinter@@UEAAJPEAJ@Z 0000000180010b8c f   POSPrinterImpl.obj
 0001:0000fbb8       ?put_AsyncMode@COPOSPOSPrinter@@UEAAJF@Z 0000000180010bb8 f   POSPrinterImpl.obj
 0001:0000fbd0       ?put_BinaryConversion@COPOSPOSPrinter@@UEAAJJ@Z 0000000180010bd0 f   POSPrinterImpl.obj
 0001:0000fbe4       ?put_CartridgeNotify@COPOSPOSPrinter@@UEAAJJ@Z 0000000180010be4 f   POSPrinterImpl.obj
 0001:0000fbf8       ?put_CharacterSet@COPOSPOSPrinter@@UEAAJJ@Z 0000000180010bf8 f   POSPrinterImpl.obj
 0001:0000fc08       ?put_DeviceEnabled@COPOSPOSPrinter@@UEAAJF@Z 0000000180010c08 f   POSPrinterImpl.obj
 0001:0000fc20       ?put_FlagWhenIdle@COPOSPOSPrinter@@UEAAJF@Z 0000000180010c20 f   POSPrinterImpl.obj
 0001:0000fc38       ?put_FreezeEvents@COPOSPOSPrinter@@UEAAJF@Z 0000000180010c38 f   POSPrinterImpl.obj
 0001:0000fc88       ?put_JrnCurrentCartridge@COPOSPOSPrinter@@UEAAJJ@Z 0000000180010c88 f   POSPrinterImpl.obj
 0001:0000fc9c       ?put_JrnLetterQuality@COPOSPOSPrinter@@UEAAJF@Z 0000000180010c9c f   POSPrinterImpl.obj
 0001:0000fcb4       ?put_JrnLineChars@COPOSPOSPrinter@@UEAAJJ@Z 0000000180010cb4 f   POSPrinterImpl.obj
 0001:0000fcc4       ?put_JrnLineHeight@COPOSPOSPrinter@@UEAAJJ@Z 0000000180010cc4 f   POSPrinterImpl.obj
 0001:0000fcd4       ?put_JrnLineSpacing@COPOSPOSPrinter@@UEAAJJ@Z 0000000180010cd4 f   POSPrinterImpl.obj
 0001:0000fce4       ?put_MapCharacterSet@COPOSPOSPrinter@@UEAAJF@Z 0000000180010ce4 f   POSPrinterImpl.obj
 0001:0000fd00       ?put_MapMode@COPOSPOSPrinter@@UEAAJJ@Z 0000000180010d00 f   POSPrinterImpl.obj
 0001:0000fd10       ?put_PageModeHorizontalPosition@COPOSPOSPrinter@@UEAAJJ@Z 0000000180010d10 f   POSPrinterImpl.obj
 0001:0000fd24       ?put_PageModePrintArea@COPOSPOSPrinter@@UEAAJPEA_W@Z 0000000180010d24 f   POSPrinterImpl.obj
 0001:0000fd38       ?put_PageModePrintDirection@COPOSPOSPrinter@@UEAAJJ@Z 0000000180010d38 f   POSPrinterImpl.obj
 0001:0000fd4c       ?put_PageModeStation@COPOSPOSPrinter@@UEAAJJ@Z 0000000180010d4c f   POSPrinterImpl.obj
 0001:0000fd60       ?put_PageModeVerticalPosition@COPOSPOSPrinter@@UEAAJJ@Z 0000000180010d60 f   POSPrinterImpl.obj
 0001:0000fd74       ?put_PowerNotify@COPOSPOSPrinter@@UEAAJJ@Z 0000000180010d74 f   POSPrinterImpl.obj
 0001:0000fd88       ?put_RecCurrentCartridge@COPOSPOSPrinter@@UEAAJJ@Z 0000000180010d88 f   POSPrinterImpl.obj
 0001:0000fd9c       ?put_RecLetterQuality@COPOSPOSPrinter@@UEAAJF@Z 0000000180010d9c f   POSPrinterImpl.obj
 0001:0000fdb4       ?put_RecLineChars@COPOSPOSPrinter@@UEAAJJ@Z 0000000180010db4 f   POSPrinterImpl.obj
 0001:0000fdc4       ?put_RecLineHeight@COPOSPOSPrinter@@UEAAJJ@Z 0000000180010dc4 f   POSPrinterImpl.obj
 0001:0000fdd4       ?put_RecLineSpacing@COPOSPOSPrinter@@UEAAJJ@Z 0000000180010dd4 f   POSPrinterImpl.obj
 0001:0000fde4       ?put_RotateSpecial@COPOSPOSPrinter@@UEAAJJ@Z 0000000180010de4 f   POSPrinterImpl.obj
 0001:0000fdf8       ?put_SlpCurrentCartridge@COPOSPOSPrinter@@UEAAJJ@Z 0000000180010df8 f   POSPrinterImpl.obj
 0001:0000fe0c       ?put_SlpLetterQuality@COPOSPOSPrinter@@UEAAJF@Z 0000000180010e0c f   POSPrinterImpl.obj
 0001:0000fe24       ?put_SlpLineChars@COPOSPOSPrinter@@UEAAJJ@Z 0000000180010e24 f   POSPrinterImpl.obj
 0001:0000fe34       ?put_SlpLineHeight@COPOSPOSPrinter@@UEAAJJ@Z 0000000180010e34 f   POSPrinterImpl.obj
 0001:0000fe44       ?put_SlpLineSpacing@COPOSPOSPrinter@@UEAAJJ@Z 0000000180010e44 f   POSPrinterImpl.obj
 0001:0000fe54       ?s_EventWindowProc@COPOSPOSPrinter@@KA_JPEAUHWND__@@I_K_J@Z 0000000180010e54 f i POSPrinterImpl.obj
 0001:0000fed0       ??_U@YAPEAX_K@Z            0000000180010ed0 f   LIBCMT:new_array.obj
 0001:0000fed8       ??3@YAXPEAX_K@Z            0000000180010ed8 f   LIBCMT:delete_scalar_size.obj
 0001:0000fed8       ??_V@YAXPEAX@Z             0000000180010ed8 f   LIBCMT:delete_array.obj
 0001:0000fee0       ??_V@YAXPEAX_K@Z           0000000180010ee0 f   LIBCMT:delete_array_size.obj
 0001:0000fee8       __scrt_acquire_startup_lock 0000000180010ee8 f   LIBCMT:utility.obj
 0001:0000ff24       __scrt_dllmain_after_initialize_c 0000000180010f24 f   LIBCMT:utility.obj
 0001:0000ff58       __scrt_dllmain_before_initialize_c 0000000180010f58 f   LIBCMT:utility.obj
 0001:0000ff70       __scrt_dllmain_crt_thread_attach 0000000180010f70 f   LIBCMT:utility.obj
 0001:0000ff98       __scrt_dllmain_crt_thread_detach 0000000180010f98 f   LIBCMT:utility.obj
 0001:0000ffb0       __scrt_dllmain_exception_filter 0000000180010fb0 f   LIBCMT:utility.obj
 0001:00010010       __scrt_dllmain_uninitialize_c 0000000180011010 f   LIBCMT:utility.obj
 0001:00010040       __scrt_dllmain_uninitialize_critical 0000000180011040 f   LIBCMT:utility.obj
 0001:00010054       __scrt_initialize_crt      0000000180011054 f   LIBCMT:utility.obj
 0001:000100a0       __scrt_initialize_onexit_tables 00000001800110a0 f   LIBCMT:utility.obj
 0001:0001012c       __scrt_is_nonwritable_in_current_image 000000018001112c f   LIBCMT:utility.obj
 0001:000101c4       __scrt_release_startup_lock 00000001800111c4 f   LIBCMT:utility.obj
 0001:000101e8       __scrt_uninitialize_crt    00000001800111e8 f   LIBCMT:utility.obj
 0001:00010214       _onexit                    0000000180011214 f   LIBCMT:utility.obj
 0001:00010250       atexit                     0000000180011250 f   LIBCMT:utility.obj
 0001:00010268       ??3@YAXPEAX@Z              0000000180011268 f   LIBCMT:delete_scalar.obj
 0001:00010368       _Init_thread_footer        0000000180011368 f   LIBCMT:thread_safe_statics.obj
 0001:000103c8       _Init_thread_header        00000001800113c8 f   LIBCMT:thread_safe_statics.obj
 0001:00010430       _Init_thread_notify        0000000180011430 f   LIBCMT:thread_safe_statics.obj
 0001:00010474       _Init_thread_wait          0000000180011474 f   LIBCMT:thread_safe_statics.obj
 0001:000104d8       __raise_securityfailure    00000001800114d8 f   LIBCMT:gs_report.obj
 0001:0001050c       __report_gsfailure         000000018001150c f   LIBCMT:gs_report.obj
 0001:000105e0       __report_rangecheckfailure 00000001800115e0 f   LIBCMT:gs_report.obj
 0001:000105f4       __report_securityfailure   00000001800115f4 f   LIBCMT:gs_report.obj
 0001:00010774       ??2@YAPEAX_KAEBUnothrow_t@std@@@Z 0000000180011774 f   LIBCMT:new_scalar_nothrow.obj
 0001:00010788       ??_U@YAPEAX_KAEBUnothrow_t@std@@@Z 0000000180011788 f   LIBCMT:new_array_nothrow.obj
 0001:00010790       __GSHandlerCheck           0000000180011790 f   LIBCMT:gshandler.obj
 0001:000107b0       __GSHandlerCheckCommon     00000001800117b0 f   LIBCMT:gshandler.obj
 0001:0001080c       __GSHandlerCheck_SEH       000000018001180c f   LIBCMT:gshandlerseh.obj
 0001:000108b0       __chkstk                   00000001800118b0 f   LIBCMT:chkstk.obj
 0001:000108b0       _alloca_probe              00000001800118b0 f   LIBCMT:chkstk.obj
 0001:00010910       __security_check_cookie    0000000180011910 f   LIBCMT:amdsecgs.obj
 0001:00010c50       _DllMainCRTStartup         0000000180011c50 f   LIBCMT:dll_dllmain.obj
 0001:00010c90       ??2@YAPEAX_K@Z             0000000180011c90 f   LIBCMT:new_scalar.obj
 0001:00010ccc       __isa_available_init       0000000180011ccc f   LIBCMT:cpu_disp.obj
 0001:00010e70       __scrt_is_ucrt_dll_in_use  0000000180011e70 f   LIBCMT:ucrt_detection.obj
 0001:00010e7c       __crt_debugger_hook        0000000180011e7c f   LIBCMT:utility_desktop.obj
 0001:00010e84       __scrt_fastfail            0000000180011e84 f   LIBCMT:utility_desktop.obj
 0001:00010fd0       __security_init_cookie     0000000180011fd0 f   LIBCMT:gs_support.obj
 0001:0001107c       ?__scrt_initialize_type_info@@YAXXZ 000000018001207c f   LIBCMT:tncleanup.obj
 0001:0001108c       ?__scrt_uninitialize_type_info@@YAXXZ 000000018001208c f   LIBCMT:tncleanup.obj
 0001:00011098       __local_stdio_scanf_options 0000000180012098 f i LIBCMT:default_local_stdio_options.obj
 0001:000110a0       __scrt_initialize_default_local_stdio_options 00000001800120a0 f   LIBCMT:default_local_stdio_options.obj
 0001:000110bc       __scrt_get_dyn_tls_init_callback 00000001800120bc f   LIBCMT:dyn_tls_init.obj
 0001:000110c4       _RTC_Initialize            00000001800120c4 f   LIBCMT:initsect.obj
 0001:00011100       _RTC_Terminate             0000000180012100 f   LIBCMT:initsect.obj
 0001:0001113c       ??0bad_alloc@std@@QEAA@AEBV01@@Z 000000018001213c f i LIBCMT:throw_bad_alloc.obj
 0001:00011178       ??0bad_alloc@std@@QEAA@XZ  0000000180012178 f i LIBCMT:throw_bad_alloc.obj
 0001:00011198       ??0bad_array_new_length@std@@QEAA@AEBV01@@Z 0000000180012198 f i LIBCMT:throw_bad_alloc.obj
 0001:000111d4       ??0bad_array_new_length@std@@QEAA@XZ 00000001800121d4 f i LIBCMT:throw_bad_alloc.obj
 0001:000111f4       ??0exception@std@@QEAA@AEBV01@@Z 00000001800121f4 f i LIBCMT:throw_bad_alloc.obj
 0001:00011228       ??1bad_exception@std@@UEAA@XZ 0000000180012228 f i libvcruntime:frame.obj
 0001:00011228       ??1bad_array_new_length@std@@UEAA@XZ 0000000180012228 f i LIBCMT:throw_bad_alloc.obj
 0001:00011228       ??1bad_alloc@std@@UEAA@XZ  0000000180012228 f i LIBCMT:throw_bad_alloc.obj
 0001:0001123c       ??_Ebad_exception@std@@UEAAPEAXI@Z 000000018001223c f i libvcruntime:frame.obj
 0001:0001123c       ??_Ebad_array_new_length@std@@UEAAPEAXI@Z 000000018001223c f i LIBCMT:throw_bad_alloc.obj
 0001:0001123c       ??_Eexception@std@@UEAAPEAXI@Z 000000018001223c f i LIBCMT:throw_bad_alloc.obj
 0001:0001123c       ??_Gbad_alloc@std@@UEAAPEAXI@Z 000000018001223c f i LIBCMT:throw_bad_alloc.obj
 0001:0001123c       ??_Gexception@std@@UEAAPEAXI@Z 000000018001223c f i LIBCMT:throw_bad_alloc.obj
 0001:0001123c       ??_Gbad_array_new_length@std@@UEAAPEAXI@Z 000000018001223c f i LIBCMT:throw_bad_alloc.obj
 0001:0001123c       ??_Ebad_alloc@std@@UEAAPEAXI@Z 000000018001223c f i LIBCMT:throw_bad_alloc.obj
 0001:0001123c       ??_Gbad_exception@std@@UEAAPEAXI@Z 000000018001223c f i libvcruntime:frame.obj
 0001:00011280       ?__scrt_throw_std_bad_alloc@@YAXXZ 0000000180012280 f   LIBCMT:throw_bad_alloc.obj
 0001:000112a0       ?__scrt_throw_std_bad_array_new_length@@YAXXZ 00000001800122a0 f   LIBCMT:throw_bad_alloc.obj
 0001:000112c0       ?what@exception@std@@UEBAPEBDXZ 00000001800122c0 f i LIBCMT:throw_bad_alloc.obj
 0001:000112e0       ??_Etype_info@@UEAAPEAXI@Z 00000001800122e0 f i LIBCMT:std_type_info_static.obj
 0001:000112e0       ??_Gtype_info@@UEAAPEAXI@Z 00000001800122e0 f i LIBCMT:std_type_info_static.obj
 0001:0001130c       ??0CAtlBaseModule@ATL@@QEAA@XZ 000000018001230c f   atls:atlbase.obj
 0001:000113b4       ??1CAtlBaseModule@ATL@@QEAA@XZ 00000001800123b4 f   atls:atlbase.obj
 0001:000114e8       ?__AllocStdCallThunk_cmn@@YAPEAXXZ 00000001800124e8 f   atls:atlthunk.obj
 0001:00011640       AtlThunk_AllocateData      0000000180012640 f   atls:atlthunk.obj
 0001:000116bc       AtlThunk_DataToCode        00000001800126bc f   atls:atlthunk.obj
 0001:00011710       AtlThunk_FreeData          0000000180012710 f   atls:atlthunk.obj
 0001:00011770       AtlThunk_InitData          0000000180012770 f   atls:atlthunk.obj
 0001:00011818       _get_purecall_handler      0000000180012818 f   libvcruntime:purevirt.obj
 0001:00011824       _purecall                  0000000180012824 f   libvcruntime:purevirt.obj
 0001:00011840       wcsstr                     0000000180012840 f   libvcruntime:wcsstr.obj
 0001:00011a70       memcmp                     0000000180012a70 f   libvcruntime:memcmp.obj
 0001:00011b50       memcpy_repmovs             0000000180012b50 f   libvcruntime:memcpy.obj
 0001:00011b70       memcpy                     0000000180012b70 f   libvcruntime:memcpy.obj
 0001:00011b70       memmove                    0000000180012b70 f   libvcruntime:memcpy.obj
 0001:00012200       memset_repmovs             0000000180013200 f   libvcruntime:memset.obj
 0001:00012220       memset                     0000000180013220 f   libvcruntime:memset.obj
 0001:000123b0       __vcrt_initialize          00000001800133b0 f   libvcruntime:initialization.obj
 0001:000123d8       __vcrt_thread_attach       00000001800133d8 f   libvcruntime:initialization.obj
 0001:000123ec       __vcrt_thread_detach       00000001800133ec f   libvcruntime:initialization.obj
 0001:00012400       __vcrt_uninitialize        0000000180013400 f   libvcruntime:initialization.obj
 0001:0001241c       __vcrt_uninitialize_critical 000000018001341c f   libvcruntime:initialization.obj
 0001:0001242c       __C_specific_handler       000000018001342c f   libvcruntime:riscchandler.obj
 0001:00012624       ??$_CallSETranslator@V__FrameHandler3@@@@YAHPEAUEHExceptionRecord@@PEA_KPEAU_CONTEXT@@PEAU_xDISPATCHER_CONTEXT@@PEBU_s_FuncInfo@@K1H@Z 0000000180013624 f i libvcruntime:risctrnsctrl.obj
 0001:00012678       ??$_CallSETranslator@V__FrameHandler4@@@@YAHPEAUEHExceptionRecord@@PEA_KPEAU_CONTEXT@@PEAU_xDISPATCHER_CONTEXT@@PEAUFuncInfo4@FH4@@K1H@Z 0000000180013678 f i libvcruntime:risctrnsctrl.obj
 0001:000126cc       ?CatchTryBlock@__FrameHandler3@@SAPEBU_s_TryBlockMapEntry@@PEBU_s_FuncInfo@@H@Z 00000001800136cc f   libvcruntime:risctrnsctrl.obj
 0001:00012730       ?DecompFuncInfo@FH4@@YA_JPEAEAEAUFuncInfo4@1@_KH_N@Z 0000000180013730 f i libvcruntime:risctrnsctrl.obj
 0001:00012854       ?ExecutionInCatch@__FrameHandler3@@SA_NPEAU_xDISPATCHER_CONTEXT@@PEBU_s_FuncInfo@@@Z 0000000180013854 f   libvcruntime:risctrnsctrl.obj
 0001:00012880       ?ExecutionInCatch@__FrameHandler4@@SA_NPEAU_xDISPATCHER_CONTEXT@@PEAUFuncInfo4@FH4@@@Z 0000000180013880 f   libvcruntime:risctrnsctrl.obj
 0001:00012888       ?FrameUnwindToEmptyState@__FrameHandler3@@SAXPEA_KPEAU_xDISPATCHER_CONTEXT@@PEBU_s_FuncInfo@@@Z 0000000180013888 f   libvcruntime:risctrnsctrl.obj
 0001:000128ec       ?FrameUnwindToEmptyState@__FrameHandler4@@SAXPEA_KPEAU_xDISPATCHER_CONTEXT@@PEAUFuncInfo4@FH4@@@Z 00000001800138ec f   libvcruntime:risctrnsctrl.obj
 0001:00012920       ?GetEstablisherFrame@__FrameHandler3@@SAPEA_KPEA_KPEAU_xDISPATCHER_CONTEXT@@PEBU_s_FuncInfo@@0@Z 0000000180013920 f   libvcruntime:risctrnsctrl.obj
 0001:000129ec       ?GetEstablisherFrame@__FrameHandler4@@SAPEA_KPEA_KPEAU_xDISPATCHER_CONTEXT@@PEAUFuncInfo4@FH4@@0@Z 00000001800139ec f   libvcruntime:risctrnsctrl.obj
 0001:00012a10       ?GetRangeOfTrysToCheck@__FrameHandler3@@SA?AU?$pair@Viterator@TryBlockMap@__FrameHandler3@@V123@@std@@AEAVTryBlockMap@1@HPEAU_xDISPATCHER_CONTEXT@@PEBU_s_FuncInfo@@H@Z 0000000180013a10 f   libvcruntime:risctrnsctrl.obj
 0001:00012b50       ?GetRangeOfTrysToCheck@__FrameHandler4@@SA?AU?$pair@Viterator@TryBlockMap4@FH4@@V123@@std@@AEAVTryBlockMap4@FH4@@HPEAU_xDISPATCHER_CONTEXT@@PEAUFuncInfo4@5@H@Z 0000000180013b50 f   libvcruntime:risctrnsctrl.obj
 0001:00012cbc       ?UnwindNestedFrames@__FrameHandler3@@SAXPEA_KPEAUEHExceptionRecord@@PEAU_CONTEXT@@0PEAXPEBU_s_FuncInfo@@HHPEBU_s_HandlerType@@PEAU_xDISPATCHER_CONTEXT@@E@Z 0000000180013cbc f   libvcruntime:risctrnsctrl.obj
 0001:00012dc0       ?UnwindNestedFrames@__FrameHandler4@@SAXPEA_KPEAUEHExceptionRecord@@PEAU_CONTEXT@@0PEAXPEAUFuncInfo4@FH4@@HHPEAUHandlerType4@5@PEAU_xDISPATCHER_CONTEXT@@E@Z 0000000180013dc0 f   libvcruntime:risctrnsctrl.obj
 0001:00012ee0       ?setBuffer@TryBlockMap4@FH4@@QEAAXViterator@12@@Z 0000000180013ee0 f i libvcruntime:risctrnsctrl.obj
 0001:000130a4       _CreateFrameInfo           00000001800140a4 f   libvcruntime:risctrnsctrl.obj
 0001:000130e0       _FindAndUnlinkFrame        00000001800140e0 f   libvcruntime:risctrnsctrl.obj
 0001:00013134       _GetImageBase              0000000180014134 f   libvcruntime:risctrnsctrl.obj
 0001:00013148       _GetThrowImageBase         0000000180014148 f   libvcruntime:risctrnsctrl.obj
 0001:0001315c       _SetImageBase              000000018001415c f   libvcruntime:risctrnsctrl.obj
 0001:00013174       _SetThrowImageBase         0000000180014174 f   libvcruntime:risctrnsctrl.obj
 0001:0001318c       __CxxFrameHandler3         000000018001418c f   libvcruntime:risctrnsctrl.obj
 0001:00013214       __CxxFrameHandler4         0000000180014214 f   libvcruntime:risctrnsctrl.obj
 0001:000132d4       __DestructExceptionObject  00000001800142d4 f   libvcruntime:ehhelpers.obj
 0001:00013344       ?_CallMemberFunction0@@YAXQEAX0@Z 0000000180014344 f i libvcruntime:ehhelpers.obj
 0001:00013348       _IsExceptionObjectToBeDestroyed 0000000180014348 f   libvcruntime:ehhelpers.obj
 0001:00013378       __AdjustPointer            0000000180014378 f   libvcruntime:ehhelpers.obj
 0001:0001339c       __FrameUnwindFilter        000000018001439c f   libvcruntime:ehhelpers.obj
 0001:00013404       __std_terminate            0000000180014404 f   libvcruntime:ehhelpers.obj
 0001:00013410       __std_type_info_compare    0000000180014410 f   libvcruntime:std_type_info.obj
 0001:00013438       __std_type_info_destroy_list 0000000180014438 f   libvcruntime:std_type_info.obj
 0001:00013464       __std_exception_copy       0000000180014464 f   libvcruntime:std_exception.obj
 0001:000134f4       __std_exception_destroy    00000001800144f4 f   libvcruntime:std_exception.obj
 0001:0001351c       _CxxThrowException         000000018001451c f   libvcruntime:throw.obj
 0001:000135bc       __vcrt_freefls             00000001800145bc f   libvcruntime:per_thread_data.obj
 0001:000135dc       __vcrt_freeptd             00000001800145dc f   libvcruntime:per_thread_data.obj
 0001:0001362c       __vcrt_getptd              000000018001462c f   libvcruntime:per_thread_data.obj
 0001:00013648       __vcrt_getptd_noexit       0000000180014648 f   libvcruntime:per_thread_data.obj
 0001:00013708       __vcrt_initialize_ptd      0000000180014708 f   libvcruntime:per_thread_data.obj
 0001:00013750       __vcrt_uninitialize_ptd    0000000180014750 f   libvcruntime:per_thread_data.obj
 0001:00013774       __vcrt_initialize_locks    0000000180014774 f   libvcruntime:locks.obj
 0001:000137bc       __vcrt_uninitialize_locks  00000001800147bc f   libvcruntime:locks.obj
 0001:00013810       _NLG_Notify                0000000180014810 f   libvcruntime:notify.obj
 0001:00013830       __NLG_Dispatch2            0000000180014830 f   libvcruntime:notify.obj
 0001:00013840       __NLG_Return2              0000000180014840 f   libvcruntime:notify.obj
 0001:00013844       __except_validate_context_record 0000000180014844 f   libvcruntime:jbcxrval.obj
 0001:0001387c       ?GetCurrentState@__FrameHandler3@@SAHPEA_KPEAU_xDISPATCHER_CONTEXT@@PEBU_s_FuncInfo@@@Z 000000018001487c f   libvcruntime:ehstate.obj
 0001:000138a4       ?GetUnwindTryBlock@__FrameHandler3@@SAHPEA_KPEAU_xDISPATCHER_CONTEXT@@PEBU_s_FuncInfo@@@Z 00000001800148a4 f   libvcruntime:ehstate.obj
 0001:000138d0       ?SetState@__FrameHandler3@@SAXPEA_KPEBU_s_FuncInfo@@H@Z 00000001800148d0 f   libvcruntime:ehstate.obj
 0001:000138dc       ?SetUnwindTryBlock@__FrameHandler3@@SAXPEA_KPEAU_xDISPATCHER_CONTEXT@@PEBU_s_FuncInfo@@H@Z 00000001800148dc f   libvcruntime:ehstate.obj
 0001:00013918       ?StateFromControlPc@__FrameHandler3@@SAHPEBU_s_FuncInfo@@PEAU_xDISPATCHER_CONTEXT@@@Z 0000000180014918 f   libvcruntime:ehstate.obj
 0001:00013920       ?StateFromControlPc@__FrameHandler4@@SAHPEAUFuncInfo4@FH4@@PEAU_xDISPATCHER_CONTEXT@@@Z 0000000180014920 f   libvcruntime:ehstate.obj
 0001:00013928       ?StateFromIp@__FrameHandler3@@SAHPEBU_s_FuncInfo@@PEAU_xDISPATCHER_CONTEXT@@_K@Z 0000000180014928 f   libvcruntime:ehstate.obj
 0001:00013990       ?StateFromIp@__FrameHandler4@@SAHPEAUFuncInfo4@FH4@@PEAU_xDISPATCHER_CONTEXT@@_K@Z 0000000180014990 f   libvcruntime:ehstate.obj
 0001:00015090       ??$TypeMatchHelper@V__FrameHandler3@@@@YAHPEBU_s_HandlerType@@PEBU_s_CatchableType@@PEBU_s_ThrowInfo@@@Z 0000000180016090 f i libvcruntime:frame.obj
 0001:000151d0       ??$TypeMatchHelper@V__FrameHandler4@@@@YAHPEAUHandlerType4@FH4@@PEBU_s_CatchableType@@PEBU_s_ThrowInfo@@@Z 00000001800161d0 f i libvcruntime:frame.obj
 0001:00015314       ??$__InternalCxxFrameHandler@V__FrameHandler3@@@@YA?AW4_EXCEPTION_DISPOSITION@@PEAUEHExceptionRecord@@PEA_KPEAU_CONTEXT@@PEAU_xDISPATCHER_CONTEXT@@PEBU_s_FuncInfo@@H1E@Z 0000000180016314 f i libvcruntime:frame.obj
 0001:0001554c       ??$__InternalCxxFrameHandler@V__FrameHandler4@@@@YA?AW4_EXCEPTION_DISPOSITION@@PEAUEHExceptionRecord@@PEA_KPEAU_CONTEXT@@PEAU_xDISPATCHER_CONTEXT@@PEAUFuncInfo4@FH4@@H1E@Z 000000018001654c f i libvcruntime:frame.obj
 0001:000157e0       ??0HandlerMap4@FH4@@QEAA@PEBUTryBlockMapEntry4@1@_KH@Z 00000001800167e0 f i libvcruntime:frame.obj
 0001:0001585c       ??0TryBlockMap4@FH4@@QEAA@PEBUFuncInfo4@1@_K@Z 000000018001685c f i libvcruntime:frame.obj
 0001:00015934       ??0bad_exception@std@@QEAA@AEBV01@@Z 0000000180016934 f i libvcruntime:frame.obj
 0001:00015970       ??0bad_exception@std@@QEAA@XZ 0000000180016970 f i libvcruntime:frame.obj
 0001:00015990       ?CxxCallCatchBlock@__FrameHandler3@@SAPEAXPEAU_EXCEPTION_RECORD@@@Z 0000000180016990 f   libvcruntime:frame.obj
 0001:00015b7c       ?CxxCallCatchBlock@__FrameHandler4@@SAPEAXPEAU_EXCEPTION_RECORD@@@Z 0000000180016b7c f   libvcruntime:frame.obj
 0001:00015dcc       ?DecompHandler@HandlerMap4@FH4@@AEAAXXZ 0000000180016dcc f i libvcruntime:frame.obj
 0001:00016018       ?FrameUnwindToState@__FrameHandler3@@SAXPEA_KPEAU_xDISPATCHER_CONTEXT@@PEBU_s_FuncInfo@@H@Z 0000000180017018 f   libvcruntime:frame.obj
 0001:000161a4       ?FrameUnwindToState@__FrameHandler4@@SAXPEA_KPEAU_xDISPATCHER_CONTEXT@@PEAUFuncInfo4@FH4@@H@Z 00000001800171a4 f   libvcruntime:frame.obj
 0001:000164a0       ?GetHandlerSearchState@__FrameHandler3@@SAHPEA_KPEAU_xDISPATCHER_CONTEXT@@PEBU_s_FuncInfo@@@Z 00000001800174a0 f i libvcruntime:frame.obj
 0001:000166b0       ?ReadEntry@UWMap4@FH4@@AEAAXPEAPEAE@Z 00000001800176b0 f i libvcruntime:frame.obj
 0001:0001674c       ?_CallMemberFunction1@@YAXQEAX00@Z 000000018001774c f i libvcruntime:frame.obj
 0001:00016758       ?_CallMemberFunction2@@YAXQEAX00H@Z 0000000180017758 f i libvcruntime:frame.obj
 0001:00016768       ?getStartStop@UWMap4@FH4@@QEAAXHHAEAViterator@12@0@Z 0000000180017768 f i libvcruntime:frame.obj
 0001:00016838       ?getStateFromIterators@UWMap4@FH4@@SAHAEBViterator@12@H0H0@Z 0000000180017838 f i libvcruntime:frame.obj
 0001:00016a54       __vcrt_FlsAlloc            0000000180017a54 f   libvcruntime:winapi_downlevel.obj
 0001:00016a9c       __vcrt_FlsFree             0000000180017a9c f   libvcruntime:winapi_downlevel.obj
 0001:00016ae4       __vcrt_FlsGetValue         0000000180017ae4 f   libvcruntime:winapi_downlevel.obj
 0001:00016b2c       __vcrt_FlsSetValue         0000000180017b2c f   libvcruntime:winapi_downlevel.obj
 0001:00016b80       __vcrt_InitializeCriticalSectionEx 0000000180017b80 f   libvcruntime:winapi_downlevel.obj
 0001:00016c00       _CallSettingFrame          0000000180017c00 f   libvcruntime:handlers.obj
 0001:00016c50       _CallSettingFrame_LookupContinuationIndex 0000000180017c50 f   libvcruntime:handlers.obj
 0001:00016c80       _CallSettingFrame_NotifyContinuationAddr 0000000180017c80 f   libvcruntime:handlers.obj
 0001:00016cb0       _CallSettingFrameEncoded   0000000180017cb0 f   libvcruntime:handlers.obj
 0001:00016cf8       free                       0000000180017cf8 f   libucrt:free.obj
 0001:00016d0c       ?get_raw_ptd@__crt_cached_ptd_host@@QEAAPEAU__acrt_ptd@@XZ 0000000180017d0c f i libucrt:invalid_parameter.obj
 0001:00016d74       ?get_raw_ptd_noexit@__crt_cached_ptd_host@@QEAAPEAU__acrt_ptd@@XZ 0000000180017d74 f i libucrt:invalid_parameter.obj
 0001:00016de0       ?value@?$dual_state_global@P6AXPEB_W00I_K@Z@__crt_state_management@@QEAAAEAP6AXPEB_W00I_K@ZAEAV__crt_cached_ptd_host@@@Z 0000000180017de0 f i libucrt:invalid_parameter.obj
 0001:00016e2c       __acrt_call_reportfault    0000000180017e2c f   libucrt:invalid_parameter.obj
 0001:00016f88       __acrt_initialize_invalid_parameter_handler 0000000180017f88 f   libucrt:invalid_parameter.obj
 0001:00016f90       _invalid_parameter         0000000180017f90 f   libucrt:invalid_parameter.obj
 0001:0001702c       _invalid_parameter_internal 000000018001802c f   libucrt:invalid_parameter.obj
 0001:000170fc       _invalid_parameter_noinfo  00000001800180fc f   libucrt:invalid_parameter.obj
 0001:0001711c       _invoke_watson             000000018001811c f   libucrt:invalid_parameter.obj
 0001:00017164       __acrt_errno_from_os_error 0000000180018164 f   libucrt:errno.obj
 0001:000171ac       __acrt_errno_map_os_error  00000001800181ac f   libucrt:errno.obj
 0001:000171f4       __acrt_errno_map_os_error_ptd 00000001800181f4 f   libucrt:errno.obj
 0001:00017218       __doserrno                 0000000180018218 f   libucrt:errno.obj
 0001:00017238       _errno                     0000000180018238 f   libucrt:errno.obj
 0001:00017258       calloc                     0000000180018258 f   libucrt:calloc.obj
 0001:00017260       malloc                     0000000180018260 f   libucrt:malloc.obj
 0001:00017268       _recalloc                  0000000180018268 f   libucrt:recalloc.obj
 0001:00017270       _recalloc_base             0000000180018270 f   libucrt:recalloc.obj
 0001:00017308       _resetstkoflw              0000000180018308 f   libucrt:resetstk.obj
 0001:00017434       wcscat_s                   0000000180018434 f   libucrt:wcscat_s.obj
 0001:000174b8       wcscpy_s                   00000001800184b8 f   libucrt:wcscpy_s.obj
 0001:00017520       wcsncpy_s                  0000000180018520 f   libucrt:wcsncpy_s.obj
 0001:000177d4       ??$ensure_buffer_is_big_enough@D@formatting_buffer@__crt_stdio_output@@QEAA_N_KAEAV__crt_cached_ptd_host@@@Z 00000001800187d4 f i libucrt:output.obj
 0001:0001787c       ??$ensure_buffer_is_big_enough@_W@formatting_buffer@__crt_stdio_output@@QEAA_N_KAEAV__crt_cached_ptd_host@@@Z 000000018001887c f i libucrt:output.obj
 0001:00017928       ??$is_wide_character_specifier@_W@__crt_stdio_output@@YA_N_K_WW4length_modifier@0@@Z 0000000180018928 f i libucrt:output.obj
 0001:00017968       ??$parse_integer@KV?$c_string_character_source@_W@__crt_strtox@@$0A@@__crt_strtox@@YAKAEAV__crt_cached_ptd_host@@V?$c_string_character_source@_W@0@H_N@Z 0000000180018968 f i libucrt:output.obj
 0001:000180c0       ??$type_case_integer@$07@?$output_processor@_WV?$string_output_adapter@_W@__crt_stdio_output@@V?$format_validation_base@_WV?$string_output_adapter@_W@__crt_stdio_output@@@2@@__crt_stdio_output@@AEAA_N_N@Z 00000001800190c0 f i libucrt:output.obj
 0001:000182ac       ??$type_case_integer@$09@?$output_processor@_WV?$string_output_adapter@_W@__crt_stdio_output@@V?$format_validation_base@_WV?$string_output_adapter@_W@__crt_stdio_output@@@2@@__crt_stdio_output@@AEAA_N_N@Z 00000001800192ac f i libucrt:output.obj
 0001:00018498       ??$type_case_integer@$0BA@@?$output_processor@_WV?$string_output_adapter@_W@__crt_stdio_output@@V?$format_validation_base@_WV?$string_output_adapter@_W@__crt_stdio_output@@@2@@__crt_stdio_output@@AEAA_N_N@Z 0000000180019498 f i libucrt:output.obj
 0001:00018684       ??$type_case_integer_parse_into_buffer@I$07@?$output_processor@_WV?$string_output_adapter@_W@__crt_stdio_output@@V?$format_validation_base@_WV?$string_output_adapter@_W@__crt_stdio_output@@@2@@__crt_stdio_output@@AEAAXI_N@Z 0000000180019684 f i libucrt:output.obj
 0001:0001870c       ??$type_case_integer_parse_into_buffer@I$09@?$output_processor@_WV?$string_output_adapter@_W@__crt_stdio_output@@V?$format_validation_base@_WV?$string_output_adapter@_W@__crt_stdio_output@@@2@@__crt_stdio_output@@AEAAXI_N@Z 000000018001970c f i libucrt:output.obj
 0001:000187c4       ??$type_case_integer_parse_into_buffer@I$0BA@@?$output_processor@_WV?$string_output_adapter@_W@__crt_stdio_output@@V?$format_validation_base@_WV?$string_output_adapter@_W@__crt_stdio_output@@@2@@__crt_stdio_output@@AEAAXI_N@Z 00000001800197c4 f i libucrt:output.obj
 0001:00018868       ??$type_case_integer_parse_into_buffer@_K$07@?$output_processor@_WV?$string_output_adapter@_W@__crt_stdio_output@@V?$format_validation_base@_WV?$string_output_adapter@_W@__crt_stdio_output@@@2@@__crt_stdio_output@@AEAAX_K_N@Z 0000000180019868 f i libucrt:output.obj
 0001:000188f0       ??$type_case_integer_parse_into_buffer@_K$09@?$output_processor@_WV?$string_output_adapter@_W@__crt_stdio_output@@V?$format_validation_base@_WV?$string_output_adapter@_W@__crt_stdio_output@@@2@@__crt_stdio_output@@AEAAX_K_N@Z 00000001800198f0 f i libucrt:output.obj
 0001:000189b0       ??$type_case_integer_parse_into_buffer@_K$0BA@@?$output_processor@_WV?$string_output_adapter@_W@__crt_stdio_output@@V?$format_validation_base@_WV?$string_output_adapter@_W@__crt_stdio_output@@@2@@__crt_stdio_output@@AEAAX_K_N@Z 00000001800199b0 f i libucrt:output.obj
 0001:00018a54       ?crop_zeroes@__crt_stdio_output@@YAXPEADQEAU__crt_locale_pointers@@@Z 0000000180019a54 f i libucrt:output.obj
 0001:00018ac0       ?parse_int_from_format_string@?$output_processor@_WV?$string_output_adapter@_W@__crt_stdio_output@@V?$format_validation_base@_WV?$string_output_adapter@_W@__crt_stdio_output@@@2@@__crt_stdio_output@@AEAA_NQEAH@Z 0000000180019ac0 f i libucrt:output.obj
 0001:00018b50       ?process@?$output_processor@_WV?$string_output_adapter@_W@__crt_stdio_output@@V?$format_validation_base@_WV?$string_output_adapter@_W@__crt_stdio_output@@@2@@__crt_stdio_output@@QEAAHXZ 0000000180019b50 f i libucrt:output.obj
 0001:00018e2c       ?state_case_size@?$output_processor@_WV?$string_output_adapter@_W@__crt_stdio_output@@V?$format_validation_base@_WV?$string_output_adapter@_W@__crt_stdio_output@@@2@@__crt_stdio_output@@AEAA_NXZ 0000000180019e2c f i libucrt:output.obj
 0001:00018fd8       ?state_case_type@?$output_processor@_WV?$string_output_adapter@_W@__crt_stdio_output@@V?$format_validation_base@_WV?$string_output_adapter@_W@__crt_stdio_output@@@2@@__crt_stdio_output@@AEAA_NXZ 0000000180019fd8 f i libucrt:output.obj
 0001:00019434       ?type_case_Z@?$output_processor@_WV?$string_output_adapter@_W@__crt_stdio_output@@V?$format_validation_base@_WV?$string_output_adapter@_W@__crt_stdio_output@@@2@@__crt_stdio_output@@AEAA_NXZ 000000018001a434 f i libucrt:output.obj
 0001:000194b0       ?type_case_a@?$output_processor@_WV?$string_output_adapter@_W@__crt_stdio_output@@V?$format_validation_base@_WV?$string_output_adapter@_W@__crt_stdio_output@@@2@@__crt_stdio_output@@AEAA_NXZ 000000018001a4b0 f i libucrt:output.obj
 0001:00019710       ?type_case_c_tchar@?$output_processor@_WV?$string_output_adapter@_W@__crt_stdio_output@@V?$format_validation_base@_WV?$string_output_adapter@_W@__crt_stdio_output@@@2@@__crt_stdio_output@@AEAA_N_W@Z 000000018001a710 f i libucrt:output.obj
 0001:000197d4       ?type_case_n@?$output_processor@_WV?$string_output_adapter@_W@__crt_stdio_output@@V?$format_validation_base@_WV?$string_output_adapter@_W@__crt_stdio_output@@@2@@__crt_stdio_output@@AEAA_NXZ 000000018001a7d4 f i libucrt:output.obj
 0001:00019888       ?type_case_s@?$output_processor@_WV?$string_output_adapter@_W@__crt_stdio_output@@V?$format_validation_base@_WV?$string_output_adapter@_W@__crt_stdio_output@@@2@@__crt_stdio_output@@AEAA_NXZ 000000018001a888 f i libucrt:output.obj
 0001:00019920       ?type_case_s_compute_narrow_string_length@?$output_processor@_WV?$string_output_adapter@_W@__crt_stdio_output@@V?$format_validation_base@_WV?$string_output_adapter@_W@__crt_stdio_output@@@2@@__crt_stdio_output@@AEAAHH_W@Z 000000018001a920 f i libucrt:output.obj
 0001:000199a0       ?update_locale_slow@__crt_cached_ptd_host@@AEAAXXZ 000000018001a9a0 f i libucrt:output.obj
 0001:00019a18       ?write_string@?$string_output_adapter@_W@__crt_stdio_output@@QEBAXQEB_WHQEAHAEAV__crt_cached_ptd_host@@@Z 000000018001aa18 f i libucrt:output.obj
 0001:00019ac0       __stdio_common_vswprintf_s 000000018001aac0 f   libucrt:output.obj
 0001:00019bd4       _seh_filter_dll            000000018001abd4 f   libucrt:exception_filter.obj
 0001:00019be8       _seh_filter_exe            000000018001abe8 f   libucrt:exception_filter.obj
 0001:0001a00c       __acrt_initialize_thread_local_exit_callback 000000018001b00c f   libucrt:exit.obj
 0001:0001a014       _cexit                     000000018001b014 f   libucrt:exit.obj
 0001:0001a024       _exit                      000000018001b024 f   libucrt:exit.obj
 0001:0001a030       _is_c_termination_complete 000000018001b030 f   libucrt:exit.obj
 0001:0001a1f8       __acrt_allocate_buffer_for_argv 000000018001b1f8 f   libucrt:argv_parsing.obj
 0001:0001a258       _configure_narrow_argv     000000018001b258 f   libucrt:argv_parsing.obj
 0001:0001a5e0       __dcrt_uninitialize_environments_nolock 000000018001b5e0 f   libucrt:environment_initialization.obj
 0001:0001a624       _initialize_narrow_environment 000000018001b624 f   libucrt:environment_initialization.obj
 0001:0001a974       _crt_atexit                000000018001b974 f   libucrt:onexit.obj
 0001:0001a984       _execute_onexit_table      000000018001b984 f   libucrt:onexit.obj
 0001:0001a9c8       _initialize_onexit_table   000000018001b9c8 f   libucrt:onexit.obj
 0001:0001a9f0       _register_onexit_function  000000018001b9f0 f   libucrt:onexit.obj
 0001:0001aa70       __acrt_uninitialize_command_line 000000018001ba70 f   libucrt:argv_data.obj
 0001:0001ab68       __acrt_initialize          000000018001bb68 f   libucrt:initialization.obj
 0001:0001ab7c       __acrt_thread_attach       000000018001bb7c f   libucrt:initialization.obj
 0001:0001ab90       __acrt_thread_detach       000000018001bb90 f   libucrt:initialization.obj
 0001:0001aba0       __acrt_uninitialize        000000018001bba0 f   libucrt:initialization.obj
 0001:0001abd8       __acrt_uninitialize_critical 000000018001bbd8 f   libucrt:initialization.obj
 0001:0001abe8       _initterm                  000000018001bbe8 f   libucrt:initterm.obj
 0001:0001ac2c       _initterm_e                000000018001bc2c f   libucrt:initterm.obj
 0001:0001ac74       __acrt_initialize_new_handler 000000018001bc74 f   libucrt:new_handler.obj
 0001:0001ac7c       _callnewh                  000000018001bc7c f   libucrt:new_handler.obj
 0001:0001acb8       _query_new_handler         000000018001bcb8 f   libucrt:new_handler.obj
 0001:0001acec       terminate                  000000018001bcec f   libucrt:terminate.obj
 0001:0001ad18       abort                      000000018001bd18 f   libucrt:abort.obj
 0001:0001ad70       strcpy_s                   000000018001bd70 f   libucrt:strcpy_s.obj
 0001:0001ade0       strncmp                    000000018001bde0 f   libucrt:strncmp.obj
 0001:0001ae60       wcsncmp                    000000018001be60 f   libucrt:wcsncmp.obj
 0001:0001ae8c       _free_base                 000000018001be8c f   libucrt:free_base.obj
 0001:0001b240       __acrt_freeptd             000000018001c240 f   libucrt:per_thread_data.obj
 0001:0001b284       __acrt_getptd              000000018001c284 f   libucrt:per_thread_data.obj
 0001:0001b358       __acrt_getptd_head         000000018001c358 f   libucrt:per_thread_data.obj
 0001:0001b3fc       __acrt_getptd_noexit       000000018001c3fc f   libucrt:per_thread_data.obj
 0001:0001b4c4       __acrt_getptd_noexit_explicit 000000018001c4c4 f   libucrt:per_thread_data.obj
 0001:0001b584       __acrt_initialize_ptd      000000018001c584 f   libucrt:per_thread_data.obj
 0001:0001b5c0       __acrt_uninitialize_ptd    000000018001c5c0 f   libucrt:per_thread_data.obj
 0001:0001b654       __acrt_set_locale_changed  000000018001c654 f   libucrt:wsetlocale.obj
 0001:0001b660       __acrt_uninitialize_locale 000000018001c660 f   libucrt:wsetlocale.obj
 0001:0001b690       _calloc_base               000000018001c690 f   libucrt:calloc_base.obj
 0001:0001b708       _malloc_base               000000018001c708 f   libucrt:malloc_base.obj
 0001:0001b768       _msize_base                000000018001c768 f   libucrt:msize.obj
 0001:0001b7a4       _realloc_base              000000018001c7a4 f   libucrt:realloc_base.obj
 0001:0001b9e0       __acrt_AppPolicyGetProcessTerminationMethodInternal 000000018001c9e0 f   libucrt:winapi_thunks.obj
 0001:0001ba38       __acrt_AreFileApisANSI     000000018001ca38 f   libucrt:winapi_thunks.obj
 0001:0001ba7c       __acrt_FlsAlloc            000000018001ca7c f   libucrt:winapi_thunks.obj
 0001:0001ba84       __acrt_FlsFree             000000018001ca84 f   libucrt:winapi_thunks.obj
 0001:0001ba8c       __acrt_FlsGetValue         000000018001ca8c f   libucrt:winapi_thunks.obj
 0001:0001ba94       __acrt_FlsSetValue         000000018001ca94 f   libucrt:winapi_thunks.obj
 0001:0001ba9c       __acrt_InitializeCriticalSectionEx 000000018001ca9c f   libucrt:winapi_thunks.obj
 0001:0001bb0c       __acrt_LCMapStringEx       000000018001cb0c f   libucrt:winapi_thunks.obj
 0001:0001bbf8       __acrt_LocaleNameToLCID    000000018001cbf8 f   libucrt:winapi_thunks.obj
 0001:0001bc58       __acrt_SetThreadStackGuarantee 000000018001cc58 f   libucrt:winapi_thunks.obj
 0001:0001bca4       __acrt_initialize_winapi_thunks 000000018001cca4 f   libucrt:winapi_thunks.obj
 0001:0001bcc8       __acrt_uninitialize_winapi_thunks 000000018001ccc8 f   libucrt:winapi_thunks.obj
 0001:0001bd0c       wcsnlen                    000000018001cd0c f   libucrt:strnlen.obj
 0001:0001bee4       __acrt_update_locale_info  000000018001cee4 f   libucrt:locale_update.obj
 0001:0001bf18       __acrt_update_locale_info_explicit 000000018001cf18 f   libucrt:locale_update.obj
 0001:0001bf50       __acrt_update_multibyte_info 000000018001cf50 f   libucrt:locale_update.obj
 0001:0001bf84       __acrt_update_multibyte_info_explicit 000000018001cf84 f   libucrt:locale_update.obj
 0001:0001caec       __acrt_fp_format           000000018001daec f   libucrt:cvt.obj
 0001:0001cdd4       _mbtowc_internal           000000018001ddd4 f   libucrt:mbtowc.obj
 0001:0001cf4c       _fileno                    000000018001df4c f   libucrt:fileno.obj
 0001:0001cf74       __acrt_initialize_stdio    000000018001df74 f   libucrt:_file.obj
 0001:0001d094       __acrt_uninitialize_stdio  000000018001e094 f   libucrt:_file.obj
 0001:0001d0f0       _lock_file                 000000018001e0f0 f   libucrt:_file.obj
 0001:0001d0fc       _unlock_file               000000018001e0fc f   libucrt:_file.obj
 0001:0001d108       _get_printf_count_output   000000018001e108 f   libucrt:printf_count_output.obj
 0001:0001d318       __acrt_initialize_lowio    000000018001e318 f   libucrt:ioinit.obj
 0001:0001d354       __acrt_uninitialize_lowio  000000018001e354 f   libucrt:ioinit.obj
 0001:0001d394       __acrt_initialize_locks    000000018001e394 f   libucrt:locks.obj
 0001:0001d3dc       __acrt_lock                000000018001e3dc f   libucrt:locks.obj
 0001:0001d3f8       __acrt_uninitialize_locks  000000018001e3f8 f   libucrt:locks.obj
 0001:0001d430       __acrt_unlock              000000018001e430 f   libucrt:locks.obj
 0001:0001d44c       __acrt_get_process_end_policy 000000018001e44c f   libucrt:win_policies.obj
 0001:0001d49c       ??$__acrt_convert_wcs_mbs_cp@D_WV<lambda_7c9dea7b4ca7285d2cdb541a38da6275>@@U__crt_win32_buffer_internal_dynamic_resizing@@@@YAHQEBDAEAV?$__crt_win32_buffer@_WU__crt_win32_buffer_internal_dynamic_resizing@@@@AEBV<lambda_7c9dea7b4ca7285d2cdb541a38da6275>@@I@Z 000000018001e49c f i libucrt:argv_wildcards.obj
 0001:0001d618       ??$__acrt_convert_wcs_mbs_cp@_WDV<lambda_d8593a27d1aa8c02be35c86a17d324c4>@@U__crt_win32_buffer_internal_dynamic_resizing@@@@YAHQEB_WAEAV?$__crt_win32_buffer@DU__crt_win32_buffer_internal_dynamic_resizing@@@@AEBV<lambda_d8593a27d1aa8c02be35c86a17d324c4>@@I@Z 000000018001e618 f i libucrt:argv_wildcards.obj
 0001:0001dec0       ??0_LocaleUpdate@@QEAA@QEAU__crt_locale_pointers@@@Z 000000018001eec0 f i libucrt:argv_wildcards.obj
 0001:0001df5c       __acrt_expand_narrow_argv_wildcards 000000018001ef5c f   libucrt:argv_wildcards.obj
 0001:0001df64       ??$__acrt_convert_wcs_mbs_cp@_WDV<lambda_f788ae46380686e8b737efdd8c720d07>@@U__crt_win32_buffer_no_resizing@@@@YAHQEB_WAEAV?$__crt_win32_buffer@DU__crt_win32_buffer_no_resizing@@@@AEBV<lambda_f788ae46380686e8b737efdd8c720d07>@@I@Z 000000018001ef64 f i libucrt:getmodulefilenamea.obj
 0001:0001e080       __acrt_GetModuleFileNameA  000000018001f080 f   libucrt:getmodulefilenamea.obj
 0001:0001e99c       __acrt_initialize_multibyte 000000018001f99c f   libucrt:mbctype.obj
 0001:0001e9fc       __acrt_update_thread_multibyte_data 000000018001f9fc f   libucrt:mbctype.obj
 0001:0001ea18       _setmbcp_nolock            000000018001fa18 f   libucrt:mbctype.obj
 0001:0001ed4c       _ismbblead                 000000018001fd4c f   libucrt:ismbbyte.obj
 0001:0001ed60       __acrt_initialize_command_line 000000018001fd60 f   libucrt:argv_data.obj
 0001:0001ed88       __acrt_MultiByteToWideChar 000000018001fd88 f   libucrt:multibytetowidechar.obj
 0001:0001ede4       __acrt_WideCharToMultiByte 000000018001fde4 f   libucrt:widechartomultibyte.obj
 0001:0001ee94       __dcrt_get_narrow_environment_from_os 000000018001fe94 f   libucrt:get_environment_from_os.obj
 0001:0001efa4       __acrt_initialize_heap     000000018001ffa4 f   libucrt:heap_handle.obj
 0001:0001efc0       __acrt_uninitialize_heap   000000018001ffc0 f   libucrt:heap_handle.obj
 0001:0001efcc       __acrt_execute_initializers 000000018001ffcc f   libucrt:shared_initialization.obj
 0001:0001f060       __acrt_execute_uninitializers 0000000180020060 f   libucrt:shared_initialization.obj
 0001:0001f0f0       __acrt_get_sigabrt_handler 00000001800200f0 f   libucrt:signal.obj
 0001:0001f120       __acrt_initialize_signal_handlers 0000000180020120 f   libucrt:signal.obj
 0001:0001f140       raise                      0000000180020140 f   libucrt:signal.obj
 0001:0001f3c0       __acrt_has_user_matherr    00000001800203c0 f   libucrt:matherr.obj
 0001:0001f3e0       __acrt_initialize_user_matherr 00000001800203e0 f   libucrt:matherr.obj
 0001:0001f3e8       __acrt_invoke_user_matherr 00000001800203e8 f   libucrt:matherr.obj
 0001:0001f5fc       __acrt_stdio_flush_nolock  00000001800205fc f   libucrt:fflush.obj
 0001:0001f688       _fflush_nolock             0000000180020688 f   libucrt:fflush.obj
 0001:0001f75c       _flushall                  000000018002075c f   libucrt:fflush.obj
 0001:0001f764       __acrt_add_locale_ref      0000000180020764 f   libucrt:locale_refcounting.obj
 0001:0001f7f0       __acrt_free_locale         00000001800207f0 f   libucrt:locale_refcounting.obj
 0001:0001f968       __acrt_locale_add_lc_time_reference 0000000180020968 f   libucrt:locale_refcounting.obj
 0001:0001f990       __acrt_locale_free_lc_time_if_unreferenced 0000000180020990 f   libucrt:locale_refcounting.obj
 0001:0001f9c8       __acrt_locale_release_lc_time_reference 00000001800209c8 f   libucrt:locale_refcounting.obj
 0001:0001f9f0       __acrt_release_locale_ref  00000001800209f0 f   libucrt:locale_refcounting.obj
 0001:0001fa98       __acrt_update_thread_locale_data 0000000180020a98 f   libucrt:locale_refcounting.obj
 0001:0001fb08       _updatetlocinfoEx_nolock   0000000180020b08 f   libucrt:locale_refcounting.obj
 0001:0001fb70       __acrt_locale_free_monetary 0000000180020b70 f   libucrt:initmon.obj
 0001:0001fc7c       __acrt_locale_free_numeric 0000000180020c7c f   libucrt:initnum.obj
 0001:0001fd1c       __acrt_locale_free_time    0000000180020d1c f   libucrt:inittime.obj
 0001:0001fe24       __acrt_GetStringTypeA      0000000180020e24 f   libucrt:getstringtypea.obj
 0001:0001ffc0       _query_new_mode            0000000180020fc0 f   libucrt:new_mode.obj
 0001:0001ffc8       __acrt_DownlevelLocaleNameToLCID 0000000180020fc8 f   libucrt:lcidtoname_downlevel.obj
 0001:00020070       __acrt_fp_strflt_to_string 0000000180021070 f   libucrt:_fptostr.obj
 0001:00020200       ?divide@__crt_strtox@@YA_KAEAUbig_integer@1@AEBU21@@Z 0000000180021200 f i libucrt:cfout.obj
 0001:0002068c       __acrt_fltout              000000018002168c f   libucrt:cfout.obj
 0001:00021954       fegetround                 0000000180022954 f   libucrt:fegetround.obj
 0001:00021968       ?__mbrtowc_utf8@__crt_mbstring@@YA_KPEA_WPEBD_KPEAU_Mbstatet@@AEAV__crt_cached_ptd_host@@@Z 0000000180022968 f   libucrt:mbrtowc.obj
 0001:000219ac       ?__mbsrtowcs_utf8@__crt_mbstring@@YA_KPEA_WPEAPEBD_KPEAU_Mbstatet@@AEAV__crt_cached_ptd_host@@@Z 00000001800229ac f   libucrt:mbrtowc.obj
 0001:00021b50       _fcloseall                 0000000180022b50 f   libucrt:closeall.obj
 0001:00021c04       __acrt_stdio_free_buffer_nolock 0000000180022c04 f   libucrt:_freebuf.obj
 0001:00021c44       _isatty                    0000000180022c44 f   libucrt:isatty.obj
 0001:00021ca4       __acrt_lowio_create_handle_array 0000000180022ca4 f   libucrt:osfinfo.obj
 0001:00021d4c       __acrt_lowio_destroy_handle_array 0000000180022d4c f   libucrt:osfinfo.obj
 0001:00021d9c       __acrt_lowio_ensure_fh_exists 0000000180022d9c f   libucrt:osfinfo.obj
 0001:00021e44       __acrt_lowio_lock_fh       0000000180022e44 f   libucrt:osfinfo.obj
 0001:00021e6c       __acrt_lowio_unlock_fh     0000000180022e6c f   libucrt:osfinfo.obj
 0001:00021e94       _free_osfhnd               0000000180022e94 f   libucrt:osfinfo.obj
 0001:00021f50       _get_osfhandle             0000000180022f50 f   libucrt:osfinfo.obj
 0001:00021fd0       qsort                      0000000180022fd0 f   libucrt:qsort.obj
 0001:000223e0       strncpy_s                  00000001800233e0 f   libucrt:strncpy_s.obj
 0001:00022570       strpbrk                    0000000180023570 f   libucrt:strpbrk.obj
 0001:00022938       _mbsdec                    0000000180023938 f   libucrt:mbsdec.obj
 0001:00022940       _mbsdec_l                  0000000180023940 f   libucrt:mbsdec.obj
 0001:00022cf4       __acrt_LCMapStringA        0000000180023cf4 f   libucrt:lcmapstringa.obj
 0001:00022e30       _commit                    0000000180023e30 f   libucrt:commit.obj
 0001:000236e0       _write_internal            00000001800246e0 f   libucrt:write.obj
 0001:00023808       _write_nolock              0000000180024808 f   libucrt:write.obj
 0001:00023b18       __ascii_wcsnicmp           0000000180024b18 f   libucrt:wcsnicmp.obj
 0001:00023b64       _controlfp_s               0000000180024b64 f   libucrt:contrlfp.obj
 0001:00023bc8       fegetenv                   0000000180024bc8 f   libucrt:fegetenv.obj
 0001:00023be8       fesetenv                   0000000180024be8 f   libucrt:fesetenv.obj
 0001:00023c34       feholdexcept               0000000180024c34 f   libucrt:feholdexcept.obj
 0001:00023c84       ceil                       0000000180024c84 f   libucrt:ceil.obj
 0001:00023d50       log10                      0000000180024d50 f   libucrt:log10.obj
 0001:000242fc       __acrt_fenv_get_common_round_control 00000001800252fc f   libucrt:_fenvutils.obj
 0001:00024308       __acrt_fenv_get_control    0000000180025308 f   libucrt:_fenvutils.obj
 0001:000243ec       __acrt_fenv_get_status     00000001800253ec f   libucrt:_fenvutils.obj
 0001:00024444       __acrt_fenv_set_control    0000000180025444 f   libucrt:_fenvutils.obj
 0001:00024580       __acrt_fenv_set_status     0000000180025580 f   libucrt:_fenvutils.obj
 0001:000245f4       ?reset_and_return@__crt_mbstring@@YA_K_KPEAU_Mbstatet@@@Z 00000001800255f4 f   libucrt:common_utf8.obj
 0001:000245fc       ?return_illegal_sequence@__crt_mbstring@@YA_KPEAU_Mbstatet@@AEAV__crt_cached_ptd_host@@@Z 00000001800255fc f   libucrt:common_utf8.obj
 0001:00024610       ?__mbrtoc32_utf8@__crt_mbstring@@YA_KPEA_UPEBD_KPEAU_Mbstatet@@AEAV__crt_cached_ptd_host@@@Z 0000000180025610 f   libucrt:mbrtoc32.obj
 0001:0002490c       fclose                     000000018002590c f   libucrt:fclose.obj
 0001:00024a50       _lseeki64_nolock_internal  0000000180025a50 f   libucrt:lseek.obj
 0001:00024a58       _query_app_type            0000000180025a58 f   libucrt:report_runtime_error.obj
 0001:00024a60       __strncnt                  0000000180025a60 f   libucrt:strncnt.obj
 0001:00024a78       _putwch_nolock             0000000180025a78 f   libucrt:putwch.obj
 0001:00024ab4       _clearfp                   0000000180025ab4 f   libucrt:ieee.obj
 0001:00024b24       _control87                 0000000180025b24 f   libucrt:ieee.obj
 0001:00024f10       _handle_error              0000000180025f10 f   libucrt:libm_error.obj
 0001:00025038       _handle_nan                0000000180026038 f   libucrt:libm_error.obj
 0001:00025060       __acrt_initialize_fma3     0000000180026060 f   libucrt:fma3_available.obj
 0001:000250d0       _log10_special             00000001800260d0 f   libucrt:log_special.obj
 0001:00025200       _close_internal            0000000180026200 f   libucrt:close.obj
 0001:000252c4       _close_nolock_internal     00000001800262c4 f   libucrt:close.obj
 0001:00025394       ?__acrt_stdio_free_stream@@YAXV__crt_stdio_stream@@@Z 0000000180026394 f   libucrt:stream.obj
 0001:000253b0       __dcrt_lowio_ensure_console_output_initialized 00000001800263b0 f   libucrt:initcon.obj
 0001:00025404       __dcrt_terminate_console_output 0000000180026404 f   libucrt:initcon.obj
 0001:00025420       __dcrt_write_console       0000000180026420 f   libucrt:initcon.obj
 0001:000254f0       _get_fpsr                  00000001800264f0 f   libucrt:fpsr.obj
 0001:00025500       _set_fpsr                  0000000180026500 f   libucrt:fpsr.obj
 0001:0002550a       _fclrf                     000000018002650a f   libucrt:fpsr.obj
 0001:0002551e       _frnd                      000000018002651e f   libucrt:fpsr.obj
 0001:00025540       _raise_exc                 0000000180026540 f   libucrt:fpexcept.obj
 0001:00025568       _raise_exc_ex              0000000180026568 f   libucrt:fpexcept.obj
 0001:00025878       _set_errno_from_matherr    0000000180026878 f   libucrt:fpexcept.obj
 0001:000258a8       _clrfp                     00000001800268a8 f   libucrt:fpctrl.obj
 0001:000258c8       _ctrlfp                    00000001800268c8 f   libucrt:fpctrl.obj
 0001:00025944       _set_statfp                0000000180026944 f   libucrt:fpctrl.obj
 0001:00025964       _statfp                    0000000180026964 f   libucrt:fpctrl.obj
 0001:00025980       _FindPESection             0000000180026980 f   LIBCMT:pesect.obj
 0001:000259d0       _IsNonwritableInCurrentImage 00000001800269d0 f   LIBCMT:pesect.obj
 0001:00025a20       _ValidateImageBase         0000000180026a20 f   LIBCMT:pesect.obj
 0001:00025a4c       __GSHandlerCheck_EH        0000000180026a4c f   LIBCMT:gshandlereh.obj
 0001:00025acc       __C_specific_handler_noexcept 0000000180026acc f   libvcruntime:chandler_noexcept.obj
 0001:00025b18       strrchr                    0000000180026b18 f   libvcruntime:strrchr.obj
 0001:00025c70       _guard_dispatch_icall_nop  0000000180026c70 f   LIBCMT:guard_dispatch.obj
 0001:00025c90       _guard_xfg_dispatch_icall_nop 0000000180026c90 f   LIBCMT:guard_xfg_dispatch.obj
 0002:00000000       __imp_RegQueryValueExW     0000000180028000     advapi32:ADVAPI32.dll
 0002:00000008       __imp_RegSetValueExW       0000000180028008     advapi32:ADVAPI32.dll
 0002:00000010       __imp_RegQueryInfoKeyW     0000000180028010     advapi32:ADVAPI32.dll
 0002:00000018       __imp_RegOpenKeyExW        0000000180028018     advapi32:ADVAPI32.dll
 0002:00000020       __imp_RegEnumKeyExW        0000000180028020     advapi32:ADVAPI32.dll
 0002:00000028       __imp_RegDeleteValueW      0000000180028028     advapi32:ADVAPI32.dll
 0002:00000030       __imp_RegDeleteKeyW        0000000180028030     advapi32:ADVAPI32.dll
 0002:00000038       __imp_RegCreateKeyExW      0000000180028038     advapi32:ADVAPI32.dll
 0002:00000040       __imp_RegCloseKey          0000000180028040     advapi32:ADVAPI32.dll
 0002:00000048       \177ADVAPI32_NULL_THUNK_DATA 0000000180028048     advapi32:ADVAPI32.dll
 0002:00000050       __imp_GetObjectW           0000000180028050     gdi32:GDI32.dll
 0002:00000058       __imp_SelectObject         0000000180028058     gdi32:GDI32.dll
 0002:00000060       __imp_DeleteObject         0000000180028060     gdi32:GDI32.dll
 0002:00000068       __imp_CreateCompatibleDC   0000000180028068     gdi32:GDI32.dll
 0002:00000070       __imp_BitBlt               0000000180028070     gdi32:GDI32.dll
 0002:00000078       __imp_SetWindowOrgEx       0000000180028078     gdi32:GDI32.dll
 0002:00000080       __imp_SetWindowExtEx       0000000180028080     gdi32:GDI32.dll
 0002:00000088       __imp_SetViewportOrgEx     0000000180028088     gdi32:GDI32.dll
 0002:00000090       __imp_LPtoDP               0000000180028090     gdi32:GDI32.dll
 0002:00000098       __imp_SetMapMode           0000000180028098     gdi32:GDI32.dll
 0002:000000a0       __imp_SaveDC               00000001800280a0     gdi32:GDI32.dll
 0002:000000a8       __imp_RestoreDC            00000001800280a8     gdi32:GDI32.dll
 0002:000000b0       __imp_GetDeviceCaps        00000001800280b0     gdi32:GDI32.dll
 0002:000000b8       __imp_DeleteMetaFile       00000001800280b8     gdi32:GDI32.dll
 0002:000000c0       __imp_DeleteDC             00000001800280c0     gdi32:GDI32.dll
 0002:000000c8       __imp_CreateRectRgnIndirect 00000001800280c8     gdi32:GDI32.dll
 0002:000000d0       __imp_CreateMetaFileW      00000001800280d0     gdi32:GDI32.dll
 0002:000000d8       __imp_CreateDCW            00000001800280d8     gdi32:GDI32.dll
 0002:000000e0       __imp_CloseMetaFile        00000001800280e0     gdi32:GDI32.dll
 0002:000000e8       \177GDI32_NULL_THUNK_DATA  00000001800280e8     gdi32:GDI32.dll
 0002:000000f0       __imp_CloseHandle          00000001800280f0     kernel32:KERNEL32.dll
 0002:000000f8       __imp_SetEvent             00000001800280f8     kernel32:KERNEL32.dll
 0002:00000100       __imp_CreateMutexW         0000000180028100     kernel32:KERNEL32.dll
 0002:00000108       __imp_CreateEventW         0000000180028108     kernel32:KERNEL32.dll
 0002:00000110       __imp_GetCurrentProcessId  0000000180028110     kernel32:KERNEL32.dll
 0002:00000118       __imp_WriteConsoleW        0000000180028118     kernel32:KERNEL32.dll
 0002:00000120       __imp_CreateFileW          0000000180028120     kernel32:KERNEL32.dll
 0002:00000128       __imp_GetConsoleMode       0000000180028128     kernel32:KERNEL32.dll
 0002:00000130       __imp_GetConsoleOutputCP   0000000180028130     kernel32:KERNEL32.dll
 0002:00000138       __imp_WriteFile            0000000180028138     kernel32:KERNEL32.dll
 0002:00000140       __imp_FlushFileBuffers     0000000180028140     kernel32:KERNEL32.dll
 0002:00000148       __imp_SetStdHandle         0000000180028148     kernel32:KERNEL32.dll
 0002:00000150       __imp_SetFilePointerEx     0000000180028150     kernel32:KERNEL32.dll
 0002:00000158       __imp_GetStringTypeW       0000000180028158     kernel32:KERNEL32.dll
 0002:00000160       __imp_FreeEnvironmentStringsW 0000000180028160     kernel32:KERNEL32.dll
 0002:00000168       __imp_lstrcmpiW            0000000180028168     kernel32:KERNEL32.dll
 0002:00000170       __imp_GetCommandLineW      0000000180028170     kernel32:KERNEL32.dll
 0002:00000178       __imp_GetCommandLineA      0000000180028178     kernel32:KERNEL32.dll
 0002:00000180       __imp_GetCPInfo            0000000180028180     kernel32:KERNEL32.dll
 0002:00000188       __imp_GetOEMCP             0000000180028188     kernel32:KERNEL32.dll
 0002:00000190       __imp_GetACP               0000000180028190     kernel32:KERNEL32.dll
 0002:00000198       __imp_IsValidCodePage      0000000180028198     kernel32:KERNEL32.dll
 0002:000001a0       __imp_FindNextFileW        00000001800281a0     kernel32:KERNEL32.dll
 0002:000001a8       __imp_FindFirstFileExW     00000001800281a8     kernel32:KERNEL32.dll
 0002:000001b0       __imp_FindClose            00000001800281b0     kernel32:KERNEL32.dll
 0002:000001b8       __imp_GetFileType          00000001800281b8     kernel32:KERNEL32.dll
 0002:000001c0       __imp_GetStdHandle         00000001800281c0     kernel32:KERNEL32.dll
 0002:000001c8       __imp_LCMapStringW         00000001800281c8     kernel32:KERNEL32.dll
 0002:000001d0       __imp_FlsFree              00000001800281d0     kernel32:KERNEL32.dll
 0002:000001d8       __imp_FlsSetValue          00000001800281d8     kernel32:KERNEL32.dll
 0002:000001e0       __imp_MulDiv               00000001800281e0     kernel32:KERNEL32.dll
 0002:000001e8       __imp_GlobalLock           00000001800281e8     kernel32:KERNEL32.dll
 0002:000001f0       __imp_GlobalUnlock         00000001800281f0     kernel32:KERNEL32.dll
 0002:000001f8       __imp_GlobalAlloc          00000001800281f8     kernel32:KERNEL32.dll
 0002:00000200       __imp_FindResourceW        0000000180028200     kernel32:KERNEL32.dll
 0002:00000208       __imp_SizeofResource       0000000180028208     kernel32:KERNEL32.dll
 0002:00000210       __imp_LoadResource         0000000180028210     kernel32:KERNEL32.dll
 0002:00000218       __imp_LoadLibraryExW       0000000180028218     kernel32:KERNEL32.dll
 0002:00000220       __imp_GetProcAddress       0000000180028220     kernel32:KERNEL32.dll
 0002:00000228       __imp_GetModuleHandleW     0000000180028228     kernel32:KERNEL32.dll
 0002:00000230       __imp_GetModuleFileNameW   0000000180028230     kernel32:KERNEL32.dll
 0002:00000238       __imp_FreeLibrary          0000000180028238     kernel32:KERNEL32.dll
 0002:00000240       __imp_DisableThreadLibraryCalls 0000000180028240     kernel32:KERNEL32.dll
 0002:00000248       __imp_GetCurrentThreadId   0000000180028248     kernel32:KERNEL32.dll
 0002:00000250       __imp_Sleep                0000000180028250     kernel32:KERNEL32.dll
 0002:00000258       __imp_WaitForSingleObject  0000000180028258     kernel32:KERNEL32.dll
 0002:00000260       __imp_ReleaseMutex         0000000180028260     kernel32:KERNEL32.dll
 0002:00000268       __imp_ResetEvent           0000000180028268     kernel32:KERNEL32.dll
 0002:00000270       __imp_EnterCriticalSection 0000000180028270     kernel32:KERNEL32.dll
 0002:00000278       __imp_LeaveCriticalSection 0000000180028278     kernel32:KERNEL32.dll
 0002:00000280       __imp_SetLastError         0000000180028280     kernel32:KERNEL32.dll
 0002:00000288       __imp_EncodePointer        0000000180028288     kernel32:KERNEL32.dll
 0002:00000290       __imp_DeleteCriticalSection 0000000180028290     kernel32:KERNEL32.dll
 0002:00000298       __imp_InitializeCriticalSectionEx 0000000180028298     kernel32:KERNEL32.dll
 0002:000002a0       __imp_GetLastError         00000001800282a0     kernel32:KERNEL32.dll
 0002:000002a8       __imp_RaiseException       00000001800282a8     kernel32:KERNEL32.dll
 0002:000002b0       __imp_DecodePointer        00000001800282b0     kernel32:KERNEL32.dll
 0002:000002b8       __imp_WideCharToMultiByte  00000001800282b8     kernel32:KERNEL32.dll
 0002:000002c0       __imp_GetEnvironmentStringsW 00000001800282c0     kernel32:KERNEL32.dll
 0002:000002c8       __imp_MultiByteToWideChar  00000001800282c8     kernel32:KERNEL32.dll
 0002:000002d0       __imp_FlsGetValue          00000001800282d0     kernel32:KERNEL32.dll
 0002:000002d8       __imp_FlsAlloc             00000001800282d8     kernel32:KERNEL32.dll
 0002:000002e0       __imp_HeapReAlloc          00000001800282e0     kernel32:KERNEL32.dll
 0002:000002e8       __imp_HeapSize             00000001800282e8     kernel32:KERNEL32.dll
 0002:000002f0       __imp_GetModuleHandleExW   00000001800282f0     kernel32:KERNEL32.dll
 0002:000002f8       __imp_ExitProcess          00000001800282f8     kernel32:KERNEL32.dll
 0002:00000300       __imp_VirtualQuery         0000000180028300     kernel32:KERNEL32.dll
 0002:00000308       __imp_VirtualProtect       0000000180028308     kernel32:KERNEL32.dll
 0002:00000310       __imp_GetSystemInfo        0000000180028310     kernel32:KERNEL32.dll
 0002:00000318       __imp_TlsFree              0000000180028318     kernel32:KERNEL32.dll
 0002:00000320       __imp_TlsSetValue          0000000180028320     kernel32:KERNEL32.dll
 0002:00000328       __imp_TlsGetValue          0000000180028328     kernel32:KERNEL32.dll
 0002:00000330       __imp_TlsAlloc             0000000180028330     kernel32:KERNEL32.dll
 0002:00000338       __imp_RtlPcToFileHeader    0000000180028338     kernel32:KERNEL32.dll
 0002:00000340       __imp_InterlockedFlushSList 0000000180028340     kernel32:KERNEL32.dll
 0002:00000348       __imp_RtlUnwindEx          0000000180028348     kernel32:KERNEL32.dll
 0002:00000350       __imp_LoadLibraryExA       0000000180028350     kernel32:KERNEL32.dll
 0002:00000358       __imp_VirtualFree          0000000180028358     kernel32:KERNEL32.dll
 0002:00000360       __imp_VirtualAlloc         0000000180028360     kernel32:KERNEL32.dll
 0002:00000368       __imp_FlushInstructionCache 0000000180028368     kernel32:KERNEL32.dll
 0002:00000370       __imp_InterlockedPushEntrySList 0000000180028370     kernel32:KERNEL32.dll
 0002:00000378       __imp_InterlockedPopEntrySList 0000000180028378     kernel32:KERNEL32.dll
 0002:00000380       __imp_GetProcessHeap       0000000180028380     kernel32:KERNEL32.dll
 0002:00000388       __imp_HeapFree             0000000180028388     kernel32:KERNEL32.dll
 0002:00000390       __imp_HeapAlloc            0000000180028390     kernel32:KERNEL32.dll
 0002:00000398       __imp_OutputDebugStringW   0000000180028398     kernel32:KERNEL32.dll
 0002:000003a0       __imp_InitializeSListHead  00000001800283a0     kernel32:KERNEL32.dll
 0002:000003a8       __imp_GetSystemTimeAsFileTime 00000001800283a8     kernel32:KERNEL32.dll
 0002:000003b0       __imp_QueryPerformanceCounter 00000001800283b0     kernel32:KERNEL32.dll
 0002:000003b8       __imp_GetStartupInfoW      00000001800283b8     kernel32:KERNEL32.dll
 0002:000003c0       __imp_InitializeCriticalSectionAndSpinCount 00000001800283c0     kernel32:KERNEL32.dll
 0002:000003c8       __imp_WaitForSingleObjectEx 00000001800283c8     kernel32:KERNEL32.dll
 0002:000003d0       __imp_RtlCaptureContext    00000001800283d0     kernel32:KERNEL32.dll
 0002:000003d8       __imp_RtlLookupFunctionEntry 00000001800283d8     kernel32:KERNEL32.dll
 0002:000003e0       __imp_RtlVirtualUnwind     00000001800283e0     kernel32:KERNEL32.dll
 0002:000003e8       __imp_UnhandledExceptionFilter 00000001800283e8     kernel32:KERNEL32.dll
 0002:000003f0       __imp_SetUnhandledExceptionFilter 00000001800283f0     kernel32:KERNEL32.dll
 0002:000003f8       __imp_GetCurrentProcess    00000001800283f8     kernel32:KERNEL32.dll
 0002:00000400       __imp_TerminateProcess     0000000180028400     kernel32:KERNEL32.dll
 0002:00000408       __imp_IsProcessorFeaturePresent 0000000180028408     kernel32:KERNEL32.dll
 0002:00000410       __imp_IsDebuggerPresent    0000000180028410     kernel32:KERNEL32.dll
 0002:00000418       \177KERNEL32_NULL_THUNK_DATA 0000000180028418     kernel32:KERNEL32.dll
 0002:00000420       __imp_OleCreatePropertyFrame 0000000180028420     oleaut32:OLEAUT32.dll
 0002:00000428       __imp_UnRegisterTypeLib    0000000180028428     oleaut32:OLEAUT32.dll
 0002:00000430       __imp_RegisterTypeLib      0000000180028430     oleaut32:OLEAUT32.dll
 0002:00000438       __imp_LoadRegTypeLib       0000000180028438     oleaut32:OLEAUT32.dll
 0002:00000440       __imp_LoadTypeLib          0000000180028440     oleaut32:OLEAUT32.dll
 0002:00000448       __imp_VarUI4FromStr        0000000180028448     oleaut32:OLEAUT32.dll
 0002:00000450       __imp_VariantInit          0000000180028450     oleaut32:OLEAUT32.dll
 0002:00000458       __imp_SysAllocStringByteLen 0000000180028458     oleaut32:OLEAUT32.dll
 0002:00000460       __imp_SysStringByteLen     0000000180028460     oleaut32:OLEAUT32.dll
 0002:00000468       __imp_VariantChangeType    0000000180028468     oleaut32:OLEAUT32.dll
 0002:00000470       __imp_VariantClear         0000000180028470     oleaut32:OLEAUT32.dll
 0002:00000478       __imp_SysStringLen         0000000180028478     oleaut32:OLEAUT32.dll
 0002:00000480       __imp_SysFreeString        0000000180028480     oleaut32:OLEAUT32.dll
 0002:00000488       __imp_SysAllocStringLen    0000000180028488     oleaut32:OLEAUT32.dll
 0002:00000490       __imp_SysAllocString       0000000180028490     oleaut32:OLEAUT32.dll
 0002:00000498       \177OLEAUT32_NULL_THUNK_DATA 0000000180028498     oleaut32:OLEAUT32.dll
 0002:000004a0       __imp_UnregisterClassW     00000001800284a0     user32:USER32.dll
 0002:000004a8       __imp_PostMessageW         00000001800284a8     user32:USER32.dll
 0002:000004b0       __imp_DefWindowProcW       00000001800284b0     user32:USER32.dll
 0002:000004b8       __imp_CallWindowProcW      00000001800284b8     user32:USER32.dll
 0002:000004c0       __imp_RegisterClassExW     00000001800284c0     user32:USER32.dll
 0002:000004c8       __imp_GetClassInfoExW      00000001800284c8     user32:USER32.dll
 0002:000004d0       __imp_CreateWindowExW      00000001800284d0     user32:USER32.dll
 0002:000004d8       __imp_IsWindow             00000001800284d8     user32:USER32.dll
 0002:000004e0       __imp_IsChild              00000001800284e0     user32:USER32.dll
 0002:000004e8       __imp_DestroyWindow        00000001800284e8     user32:USER32.dll
 0002:000004f0       __imp_ShowWindow           00000001800284f0     user32:USER32.dll
 0002:000004f8       __imp_SetWindowPos         00000001800284f8     user32:USER32.dll
 0002:00000500       __imp_CharNextW            0000000180028500     user32:USER32.dll
 0002:00000508       __imp_SetFocus             0000000180028508     user32:USER32.dll
 0002:00000510       __imp_LoadBitmapW          0000000180028510     user32:USER32.dll
 0002:00000518       __imp_RegisterClassW       0000000180028518     user32:USER32.dll
 0002:00000520       __imp_PeekMessageW         0000000180028520     user32:USER32.dll
 0002:00000528       __imp_LoadCursorW          0000000180028528     user32:USER32.dll
 0002:00000530       __imp_GetParent            0000000180028530     user32:USER32.dll
 0002:00000538       __imp_SetWindowLongPtrW    0000000180028538     user32:USER32.dll
 0002:00000540       __imp_GetWindowLongPtrW    0000000180028540     user32:USER32.dll
 0002:00000548       __imp_PtInRect             0000000180028548     user32:USER32.dll
 0002:00000550       __imp_EqualRect            0000000180028550     user32:USER32.dll
 0002:00000558       __imp_OffsetRect           0000000180028558     user32:USER32.dll
 0002:00000560       __imp_UnionRect            0000000180028560     user32:USER32.dll
 0002:00000568       __imp_IntersectRect        0000000180028568     user32:USER32.dll
 0002:00000570       __imp_GetClientRect        0000000180028570     user32:USER32.dll
 0002:00000578       __imp_InvalidateRect       0000000180028578     user32:USER32.dll
 0002:00000580       __imp_SetWindowRgn         0000000180028580     user32:USER32.dll
 0002:00000588       __imp_EndPaint             0000000180028588     user32:USER32.dll
 0002:00000590       __imp_BeginPaint           0000000180028590     user32:USER32.dll
 0002:00000598       __imp_ReleaseDC            0000000180028598     user32:USER32.dll
 0002:000005a0       __imp_GetDC                00000001800285a0     user32:USER32.dll
 0002:000005a8       __imp_GetKeyState          00000001800285a8     user32:USER32.dll
 0002:000005b0       __imp_GetFocus             00000001800285b0     user32:USER32.dll
 0002:000005b8       \177USER32_NULL_THUNK_DATA 00000001800285b8     user32:USER32.dll
 0002:000005c0       __imp_CoCreateInstance     00000001800285c0     ole32:ole32.dll
 0002:000005c8       __imp_StringFromGUID2      00000001800285c8     ole32:ole32.dll
 0002:000005d0       __imp_CoTaskMemAlloc       00000001800285d0     ole32:ole32.dll
 0002:000005d8       __imp_CoTaskMemRealloc     00000001800285d8     ole32:ole32.dll
 0002:000005e0       __imp_CoTaskMemFree        00000001800285e0     ole32:ole32.dll
 0002:000005e8       __imp_WriteClassStm        00000001800285e8     ole32:ole32.dll
 0002:000005f0       __imp_CreateDataAdviseHolder 00000001800285f0     ole32:ole32.dll
 0002:000005f8       __imp_OleSaveToStream      00000001800285f8     ole32:ole32.dll
 0002:00000600       __imp_CreateOleAdviseHolder 0000000180028600     ole32:ole32.dll
 0002:00000608       __imp_OleRegGetUserType    0000000180028608     ole32:ole32.dll
 0002:00000610       __imp_OleRegGetMiscStatus  0000000180028610     ole32:ole32.dll
 0002:00000618       __imp_OleRegEnumVerbs      0000000180028618     ole32:ole32.dll
 0002:00000620       __imp_CLSIDFromProgID      0000000180028620     ole32:ole32.dll
 0002:00000628       __imp_ReadClassStm         0000000180028628     ole32:ole32.dll
 0002:00000630       \177ole32_NULL_THUNK_DATA  0000000180028630     ole32:ole32.dll
 0002:00000638       __guard_check_icall_fptr   0000000180028638     LIBCMT:guard_support.obj
 0002:00000640       __guard_xfg_check_icall_fptr 0000000180028640     LIBCMT:guard_support.obj
 0002:00000648       __guard_dispatch_icall_fptr 0000000180028648     LIBCMT:guard_support.obj
 0002:00000650       __guard_xfg_dispatch_icall_fptr 0000000180028650     LIBCMT:guard_support.obj
 0002:00000658       __guard_xfg_table_dispatch_icall_fptr 0000000180028658     LIBCMT:guard_support.obj
 0002:00000660       __castguard_check_failure_os_handled_fptr 0000000180028660     LIBCMT:guard_support.obj
 0002:00000668       __xc_a                     0000000180028668     LIBCMT:initializers.obj
 0002:00000698       __xc_z                     0000000180028698     LIBCMT:initializers.obj
 0002:000006a0       __xi_a                     00000001800286a0     LIBCMT:initializers.obj
 0002:000006b0       __acrt_stdio_initializer   00000001800286b0     libucrt:stdio_initializer.obj
 0002:000006b8       __acrt_multibyte_initializer 00000001800286b8     libucrt:multibyte_initializer.obj
 0002:000006c0       __acrt_tran_fma3_initializer 00000001800286c0     libucrt:fma3_initializer.obj
 0002:000006c8       __xi_z                     00000001800286c8     LIBCMT:initializers.obj
 0002:000006d0       __xl_a                     00000001800286d0     LIBCMT:tlssup.obj
 0002:000006d8       __xl_z                     00000001800286d8     LIBCMT:tlssup.obj
 0002:000006e0       __xp_a                     00000001800286e0     LIBCMT:initializers.obj
 0002:000006e8       __acrt_locale_terminator   00000001800286e8     libucrt:locale_initializer.obj
 0002:000006f0       __dcrt_console_output_terminator 00000001800286f0     libucrt:console_output_initializer.obj
 0002:000006f8       __acrt_stdio_terminator    00000001800286f8     libucrt:stdio_initializer.obj
 0002:00000700       __xp_z                     0000000180028700     LIBCMT:initializers.obj
 0002:00000708       __xt_a                     0000000180028708     LIBCMT:initializers.obj
 0002:00000710       __xt_z                     0000000180028710     LIBCMT:initializers.obj
 0002:00000720       ??_C@_13HADIAKP@?$AAS@     0000000180028720     OposVariant.obj
 0002:00000724       ??_C@_13LHMFKAAD@?$AAM@    0000000180028724     OposVariant.obj
 0002:00000728       ??_C@_13MKMNOPIJ@?$AAD@    0000000180028728     OposVariant.obj
 0002:0000072c       ??_C@_13OPKGLAFF@?$AAB@    000000018002872c     OposVariant.obj
 0002:00000730       ??_C@_17LLMMEOJD@?$AAV?$AAa?$AAl@ 0000000180028730     OposVariant.obj
 0002:00000738       ??_C@_1BI@JFAIJMHL@?$AAF?$AAo?$AAr?$AAc?$AAe?$AAR?$AAe?$AAm?$AAo?$AAv?$AAe@ 0000000180028738     OposVariant.obj
 0002:00000750       ??_C@_1BC@GCKHIPE@?$AAN?$AAo?$AAR?$AAe?$AAm?$AAo?$AAv?$AAe@ 0000000180028750     OposVariant.obj
 0002:00000768       ??_C@_1O@JDLOHAN@?$AAD?$AAe?$AAl?$AAe?$AAt?$AAe@ 0000000180028768     OposVariant.obj
 0002:00000778       ??_C@_11LOCGONAA@@         0000000180028778     OposVariant.obj
 0002:00000780       _GUID_55980ba0_35aa_11cf_b671_00aa004cd6d8 0000000180028780     POSPrinter.obj
 0002:00000790       _GUID_b196b28b_bab4_101a_b69c_00aa00341d07 0000000180028790     POSPrinter.obj
 0002:000007a0       ?_entries@?1??_GetEntries@?$CComEnum@UIEnumConnectionPoints@@$1?_GUID_b196b285_bab4_101a_b69c_00aa00341d07@@3U__s_GUID@@BPEAUIConnectionPoint@@V?$_CopyInterface@UIConnectionPoint@@@ATL@@VCComSingleThreadModel@6@@ATL@@SAPEBU_ATL_INTMAP_ENTRY@3@XZ@4QBU43@B 00000001800287a0     POSPrinter.obj
 0002:000007d0       _GUID_00020412_0000_0000_c000_000000000046 00000001800287d0     POSPrinter.obj
 0002:000007e0       _GUID_00020401_0000_0000_c000_000000000046 00000001800287e0     POSPrinter.obj
 0002:000007f0       ??_7CComClassFactory@ATL@@6B@ 00000001800287f0     POSPrinter.obj
 0002:00000820       ?_entries@?1??_GetEntries@CComClassFactory@ATL@@SAPEBU_ATL_INTMAP_ENTRY@3@XZ@4QBU43@B 0000000180028820     POSPrinter.obj
 0002:00000850       _GUID_00000001_0000_0000_c000_000000000046 0000000180028850     POSPrinter.obj
 0002:00000860       ??_7?$CComObject@V?$CComEnum@UIEnumConnections@@$1?_GUID_b196b287_bab4_101a_b69c_00aa00341d07@@3U__s_GUID@@BUtagCONNECTDATA@@V?$_Copy@UtagCONNECTDATA@@@ATL@@VCComSingleThreadModel@6@@ATL@@@ATL@@6B@ 0000000180028860     POSPrinter.obj
 0002:000008a0       IID_IOPOSPOSPrinter_1_5    00000001800288a0     POSPrinter.obj
 0002:000008b0       ??_C@_1BK@BIGILECK@?$AAA?$AAd?$AAv?$AAa?$AAp?$AAi?$AA3?$AA2?$AA?4?$AAd?$AAl?$AAl@ 00000001800288b0     POSPrinter.obj
 0002:000008d0       ?_entries@?1??_GetEntries@?$CComEnum@UIEnumConnections@@$1?_GUID_b196b287_bab4_101a_b69c_00aa00341d07@@3U__s_GUID@@BUtagCONNECTDATA@@V?$_Copy@UtagCONNECTDATA@@@ATL@@VCComSingleThreadModel@6@@ATL@@SAPEBU_ATL_INTMAP_ENTRY@3@XZ@4QBU43@B 00000001800288d0     POSPrinter.obj
 0002:00000900       ??_C@_0BI@MNCFCPFK@RegCreateKeyTransactedW@ 0000000180028900     POSPrinter.obj
 0002:00000918       _GUID_00000114_0000_0000_c000_000000000046 0000000180028918     POSPrinter.obj
 0002:00000928       _GUID_b196b287_bab4_101a_b69c_00aa00341d07 0000000180028928     POSPrinter.obj
 0002:00000938       _GUID_b196b285_bab4_101a_b69c_00aa00341d07 0000000180028938     POSPrinter.obj
 0002:00000948       IID_IOPOSPOSPrinter_1_7    0000000180028948     POSPrinter.obj
 0002:00000958       IID_IOPOSPOSPrinter_1_8    0000000180028958     POSPrinter.obj
 0002:00000968       IID_IOPOSPOSPrinter_1_9    0000000180028968     POSPrinter.obj
 0002:00000978       _GUID_a6bc3ac0_dbaa_11ce_9de3_00aa004bb851 0000000180028978     POSPrinter.obj
 0002:00000988       _GUID_0000010c_0000_0000_c000_000000000046 0000000180028988     POSPrinter.obj
 0002:00000998       _GUID_00000146_0000_0000_c000_000000000046 0000000180028998     POSPrinter.obj
 0002:000009a8       IID_IOPOSPOSPrinter_1_10   00000001800289a8     POSPrinter.obj
 0002:000009b8       IID_IOPOSPOSPrinter_1_10_zz 00000001800289b8     POSPrinter.obj
 0002:000009c8       IID_IOPOSPOSPrinter_1_13   00000001800289c8     POSPrinter.obj
 0002:000009d8       IID_IOPOSPOSPrinter        00000001800289d8     POSPrinter.obj
 0002:000009e8       LIBID_OposPOSPrinter_CCO   00000001800289e8     POSPrinter.obj
 0002:000009f8       DIID__IOPOSPOSPrinterEvents 00000001800289f8     POSPrinter.obj
 0002:00000a08       CLSID_OPOSPOSPrinter       0000000180028a08     POSPrinter.obj
 0002:00000a18       ??_7CComModule@ATL@@6B@    0000000180028a18     POSPrinter.obj
 0002:00000a68       _GUID_00000000_0000_0000_c000_000000000046 0000000180028a68     POSPrinter.obj
 0002:00000a78       _GUID_00020400_0000_0000_c000_000000000046 0000000180028a78     POSPrinter.obj
 0002:00000a88       _GUID_922eada0_3424_11cf_b670_00aa004cd6d8 0000000180028a88     POSPrinter.obj
 0002:00000a98       _GUID_9c2cad80_3424_11cf_b670_00aa004cd6d8 0000000180028a98     POSPrinter.obj
 0002:00000aa8       _GUID_00000119_0000_0000_c000_000000000046 0000000180028aa8     POSPrinter.obj
 0002:00000ab8       _GUID_b196b289_bab4_101a_b69c_00aa00341d07 0000000180028ab8     POSPrinter.obj
 0002:00000ac8       _GUID_00000117_0000_0000_c000_000000000046 0000000180028ac8     POSPrinter.obj
 0002:00000ad8       ??_C@_1M@KANJNLFF@?$AAC?$AAL?$AAS?$AAI?$AAD@ 0000000180028ad8     POSPrinter.obj
 0002:00000ae8       ??_C@_1M@EJNEECMJ@?$AAA?$AAp?$AAp?$AAI?$AAD@ 0000000180028ae8     POSPrinter.obj
 0002:00000af8       _GUID_0000010e_0000_0000_c000_000000000046 0000000180028af8     POSPrinter.obj
 0002:00000b10       ?rgszNeverDelete@CRegParser@ATL@@1QBQEB_WB 0000000180028b10     POSPrinter.obj
 0002:00000b70       _GUID_b196b288_bab4_101a_b69c_00aa00341d07 0000000180028b70     POSPrinter.obj
 0002:00000b80       ??_7CRegObject@ATL@@6B@    0000000180028b80     POSPrinter.obj
 0002:00000bb0       ?_entries@?1??_GetEntries@COPOSPOSPrinter@@SAPEBU_ATL_INTMAP_ENTRY@ATL@@XZ@4QBU34@B 0000000180028bb0     POSPrinter.obj
 0002:00000e80       _GUID_cf51ed10_62fe_11cf_bf86_00a0c9034836 0000000180028e80     POSPrinter.obj
 0002:00000e90       _GUID_0000010a_0000_0000_c000_000000000046 0000000180028e90     POSPrinter.obj
 0002:00000ea0       _GUID_b196b283_bab4_101a_b69c_00aa00341d07 0000000180028ea0     POSPrinter.obj
 0002:00000eb0       _GUID_cb5bdc81_93c1_11cf_8f20_00805f2cd064 0000000180028eb0     POSPrinter.obj
 0002:00000ec0       _GUID_00000113_0000_0000_c000_000000000046 0000000180028ec0     POSPrinter.obj
 0002:00000ed0       ?pPropMap@?1??GetPropertyMap@COPOSPOSPrinter@@SAPEBUATL_PROPMAP_ENTRY@ATL@@XZ@4QBU34@B 0000000180028ed0     POSPrinter.obj
 0002:00000f78       ??_C@_17DGDADEHL@?$AA_?$AAc?$AAx@ 0000000180028f78     POSPrinter.obj
 0002:00000f80       ??_C@_17IOIMFDBO@?$AA_?$AAc?$AAy@ 0000000180028f80     POSPrinter.obj
 0002:00000f88       ??_C@_1CK@OEKPKBNA@?$AAC?$AAo?$AAm?$AAp?$AAo?$AAn?$AAe?$AAn?$AAt?$AA?5?$AAC?$AAa?$AAt?$AAe?$AAg@ 0000000180028f88     POSPrinter.obj
 0002:00000fb8       ??_C@_1BC@NKMMNMGL@?$AAF?$AAi?$AAl?$AAe?$AAT?$AAy?$AAp?$AAe@ 0000000180028fb8     POSPrinter.obj
 0002:00000fd0       ??_C@_1BE@EKPAFMCP@?$AAI?$AAn?$AAt?$AAe?$AAr?$AAf?$AAa?$AAc?$AAe@ 0000000180028fd0     POSPrinter.obj
 0002:00000fe8       ??_C@_1BC@MAICEHGI@?$AAH?$AAa?$AAr?$AAd?$AAw?$AAa?$AAr?$AAe@ 0000000180028fe8     POSPrinter.obj
 0002:00001000       ??_C@_19HLLLM@?$AAM?$AAi?$AAm?$AAe@ 0000000180029000     POSPrinter.obj
 0002:00001010       ??_C@_17OMAOINJK@?$AAS?$AAA?$AAM@ 0000000180029010     POSPrinter.obj
 0002:00001018       ??_C@_1BC@IBECJAAI@?$AAS?$AAE?$AAC?$AAU?$AAR?$AAI?$AAT?$AAY@ 0000000180029018     POSPrinter.obj
 0002:00001030       ??_C@_1O@GBFINDKL@?$AAS?$AAY?$AAS?$AAT?$AAE?$AAM@ 0000000180029030     POSPrinter.obj
 0002:00001040       ??_C@_1BC@EAHCMADO@?$AAS?$AAo?$AAf?$AAt?$AAw?$AAa?$AAr?$AAe@ 0000000180029040     POSPrinter.obj
 0002:00001058       ??_C@_1BA@JIHHIEDE@?$AAT?$AAy?$AAp?$AAe?$AAL?$AAi?$AAb@ 0000000180029058     POSPrinter.obj
 0002:00001068       _GUID_1c2056cc_5ef4_101b_8bc8_00aa003e3b29 0000000180029068     POSPrinter.obj
 0002:00001080       ?map@?1??HKeyFromString@CRegParser@ATL@@KAPEAUHKEY__@@PEA_W@Z@4QBUkeymap@?1??123@KAPEAU4@0@Z@B 0000000180029080     POSPrinter.obj
 0002:00001160       ??_C@_19NCHLBIN@?$AAH?$AAK?$AAC?$AAR@ 0000000180029160     POSPrinter.obj
 0002:00001170       ??_C@_19JAPAIJDE@?$AAH?$AAK?$AAC?$AAU@ 0000000180029170     POSPrinter.obj
 0002:00001180       ??_C@_19PEALEEJB@?$AAH?$AAK?$AAL?$AAM@ 0000000180029180     POSPrinter.obj
 0002:00001190       ??_C@_17PJOJPMPB@?$AAH?$AAK?$AAU@ 0000000180029190     POSPrinter.obj
 0002:00001198       ??_C@_19PNBHMJPL@?$AAH?$AAK?$AAP?$AAD@ 0000000180029198     POSPrinter.obj
 0002:000011a8       ??_C@_19GFFAIJHG@?$AAH?$AAK?$AAD?$AAD@ 00000001800291a8     POSPrinter.obj
 0002:000011b8       ??_C@_19OFICIBHH@?$AAH?$AAK?$AAC?$AAC@ 00000001800291b8     POSPrinter.obj
 0002:000011c8       ??_C@_1CE@PACHPJFI@?$AAH?$AAK?$AAE?$AAY?$AA_?$AAC?$AAL?$AAA?$AAS?$AAS?$AAE?$AAS?$AA_?$AAR?$AAO@ 00000001800291c8     POSPrinter.obj
 0002:000011f0       ??_C@_1CE@HLHNCBPM@?$AAH?$AAK?$AAE?$AAY?$AA_?$AAC?$AAU?$AAR?$AAR?$AAE?$AAN?$AAT?$AA_?$AAU?$AAS@ 00000001800291f0     POSPrinter.obj
 0002:00001218       ??_C@_1CG@GFBEANJL@?$AAH?$AAK?$AAE?$AAY?$AA_?$AAL?$AAO?$AAC?$AAA?$AAL?$AA_?$AAM?$AAA?$AAC?$AAH@ 0000000180029218     POSPrinter.obj
 0002:00001240       ??_C@_1BG@BGODANIO@?$AAH?$AAK?$AAE?$AAY?$AA_?$AAU?$AAS?$AAE?$AAR?$AAS@ 0000000180029240     POSPrinter.obj
 0002:00001258       ??_C@_1CM@KHNNAOIC@?$AAH?$AAK?$AAE?$AAY?$AA_?$AAP?$AAE?$AAR?$AAF?$AAO?$AAR?$AAM?$AAA?$AAN?$AAC@ 0000000180029258     POSPrinter.obj
 0002:00001288       ??_C@_1BM@HAGMMHIA@?$AAH?$AAK?$AAE?$AAY?$AA_?$AAD?$AAY?$AAN?$AA_?$AAD?$AAA?$AAT?$AAA@ 0000000180029288     POSPrinter.obj
 0002:000012a8       ??_C@_1CI@BBJOACGG@?$AAH?$AAK?$AAE?$AAY?$AA_?$AAC?$AAU?$AAR?$AAR?$AAE?$AAN?$AAT?$AA_?$AAC?$AAO@ 00000001800292a8     POSPrinter.obj
 0002:000012d0       _GUID_00000109_0000_0000_c000_000000000046 00000001800292d0     POSPrinter.obj
 0002:000012e0       _GUID_7fd52380_4e07_101b_ae2d_08002b2ec713 00000001800292e0     POSPrinter.obj
 0002:000012f0       ??_7?$CComObjectCached@VCComClassFactory@ATL@@@ATL@@6B@ 00000001800292f0     POSPrinter.obj
 0002:00001320       ??_C@_1CE@PGFMOFKI@?$AAS?$AAt?$AAa?$AAt?$AAu?$AAs?$AAU?$AAp?$AAd?$AAa?$AAt?$AAe?$AAE?$AAv?$AAe@ 0000000180029320     POSPrinter.obj
 0002:00001348       ??_C@_1CI@HLBJDONE@?$AAO?$AAu?$AAt?$AAp?$AAu?$AAt?$AAC?$AAo?$AAm?$AAp?$AAl?$AAe?$AAt?$AAe?$AAE@ 0000000180029348     POSPrinter.obj
 0002:00001370       ??_C@_1BG@LODEBHDD@?$AAE?$AAr?$AAr?$AAo?$AAr?$AAE?$AAv?$AAe?$AAn?$AAt@ 0000000180029370     POSPrinter.obj
 0002:00001388       ??_C@_1BM@CBGEBBBJ@?$AAD?$AAi?$AAr?$AAe?$AAc?$AAt?$AAI?$AAO?$AAE?$AAv?$AAe?$AAn?$AAt@ 0000000180029388     POSPrinter.obj
 0002:000013a8       _GUID_b196b286_bab4_101a_b69c_00aa00341d07 00000001800293a8     POSPrinter.obj
 0002:000013b8       _GUID_00000112_0000_0000_c000_000000000046 00000001800293b8     POSPrinter.obj
 0002:000013d0       ??_C@_1EA@NHKLICFA@?$AAH?$AAK?$AAC?$AAU?$AA?$AN?$AA?6?$AA?$HL?$AA?7?$AAS?$AAo?$AAf?$AAt?$AAw?$AAa?$AAr@ 00000001800293d0     POSPrinter.obj
 0002:00001410       ??_C@_1BE@LJOLIMEM@?$AA?$AN?$AA?6?$AA?7?$AA?$HN?$AA?$AN?$AA?6?$AA?$HN?$AA?$AN?$AA?6@ 0000000180029410     POSPrinter.obj
 0002:00001428       _GUID_3af24292_0c96_11ce_a0cf_00aa00600ab8 0000000180029428     POSPrinter.obj
 0002:00001438       _GUID_00000127_0000_0000_c000_000000000046 0000000180029438     POSPrinter.obj
 0002:00001448       ??_C@_1BC@ENICKDH@?$AAC?$AAo?$AAn?$AAt?$AAe?$AAn?$AAt?$AAs@ 0000000180029448     POSPrinter.obj
 0002:00001460       _GUID_0000010d_0000_0000_c000_000000000046 0000000180029460     POSPrinter.obj
 0002:00001470       ??_7?$CComObject@V?$CComEnum@UIEnumConnectionPoints@@$1?_GUID_b196b285_bab4_101a_b69c_00aa00341d07@@3U__s_GUID@@BPEAUIConnectionPoint@@V?$_CopyInterface@UIConnectionPoint@@@ATL@@VCComSingleThreadModel@6@@ATL@@@ATL@@6B@ 0000000180029470     POSPrinter.obj
 0002:000014b0       ??_C@_1O@MNLDABAF@?$AAM?$AAo?$AAd?$AAu?$AAl?$AAe@ 00000001800294b0     POSPrinter.obj
 0002:000014c0       ??_C@_1BG@JBACFMF@?$AAM?$AAo?$AAd?$AAu?$AAl?$AAe?$AA_?$AAR?$AAa?$AAw@ 00000001800294c0     POSPrinter.obj
 0002:000014d8       ??_C@_1BC@KAILKFFG@?$AAR?$AAE?$AAG?$AAI?$AAS?$AAT?$AAR?$AAY@ 00000001800294d8     POSPrinter.obj
 0002:000014f0       ??_C@_1O@GBFKGNEO@?$AAA?$AAT?$AAL?$AA?3?$AA?$CF?$AAp@ 00000001800294f0     POSPrinter.obj
 0002:00001500       ??_C@_1BA@PICGEGJB@?$AAD?$AAI?$AAS?$AAP?$AAL?$AAA?$AAY@ 0000000180029500     POSPrinter.obj
 0002:00001510       _GUID_b196b284_bab4_101a_b69c_00aa00341d07 0000000180029510     POSPrinter.obj
 0002:00001520       _GUID_9bfbbc02_eff1_101a_84ed_00aa00341d07 0000000180029520     POSPrinter.obj
 0002:00001530       ??_C@_1M@PPPPCDEP@?$AAA?$AAP?$AAP?$AAI?$AAD@ 0000000180029530     POSPrinter.obj
 0002:00001540       ??_7?$CComContainedObject@VCOPOSPOSPrinter@@@ATL@@6B?$IDispatchImpl@UIOPOSPOSPrinter@@$1?IID_IOPOSPOSPrinter@@3U_GUID@@B$1?LIBID_OposPOSPrinter_CCO@@3U3@B$00$0A@VCComTypeInfoHolder@ATL@@@1@@ 0000000180029540     POSPrinter.obj
 0002:00001c48       ??_7?$CComContainedObject@VCOPOSPOSPrinter@@@ATL@@6BCComControlBase@1@@ 0000000180029c48     POSPrinter.obj
 0002:00001c70       ??_7?$CComContainedObject@VCOPOSPOSPrinter@@@ATL@@6B?$CWindowImpl@VCOPOSPOSPrinter@@VCWindow@ATL@@V?$CWinTraits@$0FGAAAAAA@$0A@@3@@1@@ 0000000180029c70     POSPrinter.obj
 0002:00001c90       ??_7?$CComContainedObject@VCOPOSPOSPrinter@@@ATL@@6B?$IPersistStreamInitImpl@VCOPOSPOSPrinter@@@1@@ 0000000180029c90     POSPrinter.obj
 0002:00001cd8       ??_7?$CComContainedObject@VCOPOSPOSPrinter@@@ATL@@6B?$IOleControlImpl@VCOPOSPOSPrinter@@@1@@ 0000000180029cd8     POSPrinter.obj
 0002:00001d10       ??_7?$CComContainedObject@VCOPOSPOSPrinter@@@ATL@@6B?$IOleObjectImpl@VCOPOSPOSPrinter@@@1@@ 0000000180029d10     POSPrinter.obj
 0002:00001dd0       ??_7?$CComContainedObject@VCOPOSPOSPrinter@@@ATL@@6B?$IOleInPlaceActiveObjectImpl@VCOPOSPOSPrinter@@@1@@ 0000000180029dd0     POSPrinter.obj
 0002:00001e20       ??_7?$CComContainedObject@VCOPOSPOSPrinter@@@ATL@@6B?$IViewObjectExImpl@VCOPOSPOSPrinter@@@1@@ 0000000180029e20     POSPrinter.obj
 0002:00001e98       ??_7?$CComContainedObject@VCOPOSPOSPrinter@@@ATL@@6B?$IOleInPlaceObjectWindowlessImpl@VCOPOSPOSPrinter@@@1@@ 0000000180029e98     POSPrinter.obj
 0002:00001ef0       ??_7?$CComContainedObject@VCOPOSPOSPrinter@@@ATL@@6B?$IConnectionPointContainerImpl@VCOPOSPOSPrinter@@@1@@ 0000000180029ef0     POSPrinter.obj
 0002:00001f18       ??_7?$CComContainedObject@VCOPOSPOSPrinter@@@ATL@@6B?$IPersistStorageImpl@VCOPOSPOSPrinter@@@1@@ 0000000180029f18     POSPrinter.obj
 0002:00001f68       ??_7?$CComContainedObject@VCOPOSPOSPrinter@@@ATL@@6B?$ISpecifyPropertyPagesImpl@VCOPOSPOSPrinter@@@1@@ 0000000180029f68     POSPrinter.obj
 0002:00001f88       ??_7?$CComContainedObject@VCOPOSPOSPrinter@@@ATL@@6B?$IQuickActivateImpl@VCOPOSPOSPrinter@@@1@@ 0000000180029f88     POSPrinter.obj
 0002:00001fb8       ??_7?$CComContainedObject@VCOPOSPOSPrinter@@@ATL@@6B?$IDataObjectImpl@VCOPOSPOSPrinter@@@1@@ 0000000180029fb8     POSPrinter.obj
 0002:00002018       ??_7?$CComContainedObject@VCOPOSPOSPrinter@@@ATL@@6B?$IProvideClassInfo2Impl@$1?CLSID_OPOSPOSPrinter@@3U_GUID@@B$1?DIID__IOPOSPOSPrinterEvents@@3U2@B$1?LIBID_OposPOSPrinter_CCO@@3U2@B$00$0A@VCComTypeInfoHolder@ATL@@@1@@ 000000018002a018     POSPrinter.obj
 0002:00002040       ??_7?$CComContainedObject@VCOPOSPOSPrinter@@@ATL@@6B?$IObjectSafetyImpl@VCOPOSPOSPrinter@@$02@1@@ 000000018002a040     POSPrinter.obj
 0002:00002070       ??_7?$CComContainedObject@VCOPOSPOSPrinter@@@ATL@@6B?$IPropertyNotifySinkCP@VCOPOSPOSPrinter@@VCComDynamicUnkArray@ATL@@@1@@ 000000018002a070     POSPrinter.obj
 0002:000020b0       ??_7?$CComContainedObject@VCOPOSPOSPrinter@@@ATL@@6B?$CProxy_IOPOSEvents@VCOPOSPOSPrinter@@@@@ 000000018002a0b0     POSPrinter.obj
 0002:000020f0       ??_7?$CComAggObject@VCOPOSPOSPrinter@@@ATL@@6B@ 000000018002a0f0     POSPrinter.obj
 0002:00002110       ??_7?$CComObject@VCOPOSPOSPrinter@@@ATL@@6B?$IDispatchImpl@UIOPOSPOSPrinter@@$1?IID_IOPOSPOSPrinter@@3U_GUID@@B$1?LIBID_OposPOSPrinter_CCO@@3U3@B$00$0A@VCComTypeInfoHolder@ATL@@@1@@ 000000018002a110     POSPrinter.obj
 0002:00002818       ??_7?$CComObject@VCOPOSPOSPrinter@@@ATL@@6BCComControlBase@1@@ 000000018002a818     POSPrinter.obj
 0002:00002840       ??_7?$CComObject@VCOPOSPOSPrinter@@@ATL@@6B?$CWindowImpl@VCOPOSPOSPrinter@@VCWindow@ATL@@V?$CWinTraits@$0FGAAAAAA@$0A@@3@@1@@ 000000018002a840     POSPrinter.obj
 0002:00002860       ??_7?$CComObject@VCOPOSPOSPrinter@@@ATL@@6B?$IPersistStreamInitImpl@VCOPOSPOSPrinter@@@1@@ 000000018002a860     POSPrinter.obj
 0002:000028a8       ??_7?$CComObject@VCOPOSPOSPrinter@@@ATL@@6B?$IOleControlImpl@VCOPOSPOSPrinter@@@1@@ 000000018002a8a8     POSPrinter.obj
 0002:000028e0       ??_7?$CComObject@VCOPOSPOSPrinter@@@ATL@@6B?$IOleObjectImpl@VCOPOSPOSPrinter@@@1@@ 000000018002a8e0     POSPrinter.obj
 0002:000029a0       ??_7?$CComObject@VCOPOSPOSPrinter@@@ATL@@6B?$IOleInPlaceActiveObjectImpl@VCOPOSPOSPrinter@@@1@@ 000000018002a9a0     POSPrinter.obj
 0002:000029f0       ??_7?$CComObject@VCOPOSPOSPrinter@@@ATL@@6B?$IViewObjectExImpl@VCOPOSPOSPrinter@@@1@@ 000000018002a9f0     POSPrinter.obj
 0002:00002a68       ??_7?$CComObject@VCOPOSPOSPrinter@@@ATL@@6B?$IOleInPlaceObjectWindowlessImpl@VCOPOSPOSPrinter@@@1@@ 000000018002aa68     POSPrinter.obj
 0002:00002ac0       ??_7?$CComObject@VCOPOSPOSPrinter@@@ATL@@6B?$IConnectionPointContainerImpl@VCOPOSPOSPrinter@@@1@@ 000000018002aac0     POSPrinter.obj
 0002:00002ae8       ??_7?$CComObject@VCOPOSPOSPrinter@@@ATL@@6B?$IPersistStorageImpl@VCOPOSPOSPrinter@@@1@@ 000000018002aae8     POSPrinter.obj
 0002:00002b38       ??_7?$CComObject@VCOPOSPOSPrinter@@@ATL@@6B?$ISpecifyPropertyPagesImpl@VCOPOSPOSPrinter@@@1@@ 000000018002ab38     POSPrinter.obj
 0002:00002b58       ??_7?$CComObject@VCOPOSPOSPrinter@@@ATL@@6B?$IQuickActivateImpl@VCOPOSPOSPrinter@@@1@@ 000000018002ab58     POSPrinter.obj
 0002:00002b88       ??_7?$CComObject@VCOPOSPOSPrinter@@@ATL@@6B?$IDataObjectImpl@VCOPOSPOSPrinter@@@1@@ 000000018002ab88     POSPrinter.obj
 0002:00002be8       ??_7?$CComObject@VCOPOSPOSPrinter@@@ATL@@6B?$IProvideClassInfo2Impl@$1?CLSID_OPOSPOSPrinter@@3U_GUID@@B$1?DIID__IOPOSPOSPrinterEvents@@3U2@B$1?LIBID_OposPOSPrinter_CCO@@3U2@B$00$0A@VCComTypeInfoHolder@ATL@@@1@@ 000000018002abe8     POSPrinter.obj
 0002:00002c10       ??_7?$CComObject@VCOPOSPOSPrinter@@@ATL@@6B?$IObjectSafetyImpl@VCOPOSPOSPrinter@@$02@1@@ 000000018002ac10     POSPrinter.obj
 0002:00002c40       ??_7?$CComObject@VCOPOSPOSPrinter@@@ATL@@6B?$IPropertyNotifySinkCP@VCOPOSPOSPrinter@@VCComDynamicUnkArray@ATL@@@1@@ 000000018002ac40     POSPrinter.obj
 0002:00002c80       ??_7?$CComObject@VCOPOSPOSPrinter@@@ATL@@6B?$CProxy_IOPOSEvents@VCOPOSPOSPrinter@@@@@ 000000018002ac80     POSPrinter.obj
 0002:00002cc0       ??_C@_0BG@EKFFMJIO@RegOpenKeyTransactedW@ 000000018002acc0     POSPrinter.obj
 0002:00002cd8       ??_C@_0BI@HAKLOOGP@RegDeleteKeyTransactedW@ 000000018002acd8     POSPrinter.obj
 0002:00002cf0       ??_C@_0BA@LILAPHGE@RegDeleteKeyExW@ 000000018002acf0     POSPrinter.obj
 0002:00002d00       ??_C@_19ILOCMLCJ@?$AA?4?$AAt?$AAl?$AAb@ 000000018002ad00     POSPrinter.obj
 0002:00002d10       _GUID_0002e012_0000_0000_c000_000000000046 000000018002ad10     POSPrinter.obj
 0002:00002d20       ??_C@_1O@FHBGLCIO@?$AAC?$AAL?$AAS?$AAI?$AAD?$AA?2@ 000000018002ad20     POSPrinter.obj
 0002:00002d30       ??_C@_1CK@IFBKBFAA@?$AA?2?$AAR?$AAe?$AAq?$AAu?$AAi?$AAr?$AAe?$AAd?$AA?5?$AAC?$AAa?$AAt?$AAe?$AAg@ 000000018002ad30     POSPrinter.obj
 0002:00002d60       ??_C@_1DA@BIHALFED@?$AA?2?$AAI?$AAm?$AAp?$AAl?$AAe?$AAm?$AAe?$AAn?$AAt?$AAe?$AAd?$AA?5?$AAC?$AAa@ 000000018002ad60     POSPrinter.obj
 0002:00002d90       ??_C@_1BK@EDKOLFBJ@?$AAO?$AAL?$AAE?$AAA?$AAU?$AAT?$AA3?$AA2?$AA?4?$AAD?$AAL?$AAL@ 000000018002ad90     POSPrinter.obj
 0002:00002db0       ??_C@_0BJ@CNLFOMHB@UnRegisterTypeLibForUser@ 000000018002adb0     POSPrinter.obj
 0002:00002dd0       ??_C@_0BH@LBOMMKPJ@RegisterTypeLibForUser@ 000000018002add0     POSPrinter.obj
 0002:00002de8       ??_C@_0P@MMNMMLGK@COFreezeEvents@ 000000018002ade8     POSPrinterImpl.obj
 0002:00002df8       ??_C@_0BC@OGCGGIMP@GetPropertyNumber@ 000000018002adf8     POSPrinterImpl.obj
 0002:00002e10       ??_C@_0BC@MDCNODNB@SetPropertyNumber@ 000000018002ae10     POSPrinterImpl.obj
 0002:00002e28       ??_C@_0BC@CFCCMIMD@GetPropertyString@ 000000018002ae28     POSPrinterImpl.obj
 0002:00002e40       ??_C@_0BC@CJEDNN@SetPropertyString@ 000000018002ae40     POSPrinterImpl.obj
 0002:00002e58       ??_C@_0M@LNPKKKDA@OpenService@ 000000018002ae58     POSPrinterImpl.obj
 0002:00002e68       ??_C@_0M@PCMCHHMH@CheckHealth@ 000000018002ae68     POSPrinterImpl.obj
 0002:00002e78       ??_C@_0M@JGMIDNEK@ClaimDevice@ 000000018002ae78     POSPrinterImpl.obj
 0002:00002e88       ??_C@_0M@JMBCPNGJ@ClearOutput@ 000000018002ae88     POSPrinterImpl.obj
 0002:00002e98       ??_C@_0N@DDFIIBMP@CloseService@ 000000018002ae98     POSPrinterImpl.obj
 0002:00002ea8       ??_C@_08EEIHICPC@DirectIO@ 000000018002aea8     POSPrinterImpl.obj
 0002:00002eb8       ??_C@_0O@BCPMENMJ@ReleaseDevice@ 000000018002aeb8     POSPrinterImpl.obj
 0002:00002ec8       ??_C@_0P@DPMKPLAE@BeginInsertion@ 000000018002aec8     POSPrinterImpl.obj
 0002:00002ed8       ??_C@_0N@PCJLGBKP@BeginRemoval@ 000000018002aed8     POSPrinterImpl.obj
 0002:00002ee8       ??_C@_08JCIIFLHG@CutPaper@ 000000018002aee8     POSPrinterImpl.obj
 0002:00002ef8       ??_C@_0N@MIHLNKHM@EndInsertion@ 000000018002aef8     POSPrinterImpl.obj
 0002:00002f08       ??_C@_0L@FCEKAOMI@EndRemoval@ 000000018002af08     POSPrinterImpl.obj
 0002:00002f18       ??_C@_0N@FDFJIIBJ@PrintBarCode@ 000000018002af18     POSPrinterImpl.obj
 0002:00002f28       ??_C@_0M@NAANOJLK@PrintBitmap@ 000000018002af28     POSPrinterImpl.obj
 0002:00002f38       ??_C@_0P@DJAGCKNK@PrintImmediate@ 000000018002af38     POSPrinterImpl.obj
 0002:00002f48       ??_C@_0M@KIMDMICO@PrintNormal@ 000000018002af48     POSPrinterImpl.obj
 0002:00002f58       ??_C@_0P@KBCJLBEM@PrintTwoNormal@ 000000018002af58     POSPrinterImpl.obj
 0002:00002f68       ??_C@_0M@BCMAIKNJ@RotatePrint@ 000000018002af68     POSPrinterImpl.obj
 0002:00002f78       ??_C@_09CPODHKLB@SetBitmap@ 000000018002af78     POSPrinterImpl.obj
 0002:00002f88       ??_C@_07FJPCAAPG@SetLogo@  000000018002af88     POSPrinterImpl.obj
 0002:00002f90       ??_C@_0BB@ILDNAJHD@TransactionPrint@ 000000018002af90     POSPrinterImpl.obj
 0002:00002fa8       ??_C@_0N@MBAILECK@ValidateData@ 000000018002afa8     POSPrinterImpl.obj
 0002:00002fb8       ??_C@_0BA@IMNNCHOC@ChangePrintSide@ 000000018002afb8     POSPrinterImpl.obj
 0002:00002fc8       ??_C@_08KHGIJMAP@MarkFeed@ 000000018002afc8     POSPrinterImpl.obj
 0002:00002fd8       ??_C@_0BA@GFABKEEE@ResetStatistics@ 000000018002afd8     POSPrinterImpl.obj
 0002:00002fe8       ??_C@_0BD@DPALHJGC@RetrieveStatistics@ 000000018002afe8     POSPrinterImpl.obj
 0002:00003000       ??_C@_0BB@KOHIKNFC@UpdateStatistics@ 000000018002b000     POSPrinterImpl.obj
 0002:00003018       ??_C@_0BH@PBKBNMGB@CompareFirmwareVersion@ 000000018002b018     POSPrinterImpl.obj
 0002:00003030       ??_C@_0P@FBPDPIPA@UpdateFirmware@ 000000018002b030     POSPrinterImpl.obj
 0002:00003040       ??_C@_0P@CGGHLFCH@ClearPrintArea@ 000000018002b040     POSPrinterImpl.obj
 0002:00003050       ??_C@_0O@CHKKHOM@PageModePrint@ 000000018002b050     POSPrinterImpl.obj
 0002:00003060       ??_C@_0BC@MHBLCEPK@PrintMemoryBitmap@ 000000018002b060     POSPrinterImpl.obj
 0002:00003078       ??_C@_0O@IDIDGPBG@DrawRuledLine@ 000000018002b078     POSPrinterImpl.obj
 0002:00003088       ??_7?$CProxy_IOPOSEvents@VCOPOSPOSPrinter@@@@6B@ 000000018002b088     POSPrinterImpl.obj
 0002:000030c8       ??_C@_1BA@IFHENID@?$AA?$FL?$AAE?$AAr?$AAr?$AAo?$AAr?$AA?$FN@ 000000018002b0c8     POSPrinterImpl.obj
 0002:000030d8       ??_C@_0CN@NINACFLC@SOFTWARE?2OLEforRetail?2ServiceOP@ 000000018002b0d8     POSPrinterImpl.obj
 0002:00003108       ??_C@_1M@IAIJHCCH@?$AAC?$AAl?$AAo?$AAs?$AAe@ 000000018002b108     POSPrinterImpl.obj
 0002:00003118       ??_C@_1M@PCPKGJAH@?$AAC?$AAl?$AAa?$AAi?$AAm@ 000000018002b118     POSPrinterImpl.obj
 0002:00003128       ??_C@_1BA@NDFKIOCP@?$AAR?$AAe?$AAl?$AAe?$AAa?$AAs?$AAe@ 000000018002b128     POSPrinterImpl.obj
 0002:00003138       ??_C@_0L@FIMIDCKH@POSPrinter@ 000000018002b138     POSPrinterImpl.obj
 0002:00003148       ??_C@_1BM@IJMNMBPK@?$AAG?$AAe?$AAt?$AAO?$AAp?$AAe?$AAn?$AAR?$AAe?$AAs?$AAu?$AAl?$AAt@ 000000018002b148     POSPrinterImpl.obj
 0002:00003168       IID_IDispatch              000000018002b168     uuid:oaidl_i.obj
 0002:00003178       IID_IPropertyNotifySink    000000018002b178     uuid:ocidl_i.obj
 0002:00003188       GUID_NULL                  000000018002b188     uuid:cguid_i.obj
 0002:00003198       CLSID_StdGlobalInterfaceTable 000000018002b198     uuid:cguid_i.obj
 0002:000031a8       CLSID_StdComponentCategoriesMgr 000000018002b1a8     uuid:ieguids.obj
 0002:000031b8       IID_IUnknown               000000018002b1b8     uuid:unknwn_i.obj
 0002:000031d0       __xmm@ffffffffffffffffffffffffffffffff 000000018002b1d0     LIBCMT:utility.obj
 0002:000031e0       ??_C@_1EC@JIJBPKFM@?$AAa?$AAp?$AAi?$AA?9?$AAm?$AAs?$AA?9?$AAw?$AAi?$AAn?$AA?9?$AAc?$AAo?$AAr?$AAe@ 000000018002b1e0     LIBCMT:thread_safe_statics.obj
 0002:00003228       ??_C@_1BK@MGMFAEKH@?$AAk?$AAe?$AAr?$AAn?$AAe?$AAl?$AA3?$AA2?$AA?4?$AAd?$AAl?$AAl@ 000000018002b228     LIBCMT:thread_safe_statics.obj
 0002:00003248       ??_C@_0BJ@JEBJOJFJ@SleepConditionVariableCS@ 000000018002b248     LIBCMT:thread_safe_statics.obj
 0002:00003268       ??_C@_0BJ@PGPPEPCC@WakeAllConditionVariable@ 000000018002b268     LIBCMT:thread_safe_statics.obj
 0002:00003281       ?nothrow@std@@3Unothrow_t@1@B 000000018002b281     LIBCMT:std_nothrow.obj
 0002:00003298       _pRawDllMain               000000018002b298     LIBCMT:dll_dllmain.obj
 0002:00003298       _pDefaultRawDllMain        000000018002b298     LIBCMT:dll_dllmain.obj
 0002:000032a8       ??_7exception@std@@6B@     000000018002b2a8     LIBCMT:throw_bad_alloc.obj
 0002:000032b8       ??_C@_0BC@EOODALEL@Unknown?5exception@ 000000018002b2b8     LIBCMT:throw_bad_alloc.obj
 0002:000032d8       ??_7bad_alloc@std@@6B@     000000018002b2d8     LIBCMT:throw_bad_alloc.obj
 0002:000032e8       ??_C@_0P@GHFPNOJB@bad?5allocation@ 000000018002b2e8     LIBCMT:throw_bad_alloc.obj
 0002:00003300       ??_7bad_array_new_length@std@@6B@ 000000018002b300     LIBCMT:throw_bad_alloc.obj
 0002:00003310       ??_C@_0BF@KINCDENJ@bad?5array?5new?5length@ 000000018002b310     LIBCMT:throw_bad_alloc.obj
 0002:00003330       ??_7type_info@@6B@         000000018002b330     LIBCMT:std_type_info_static.obj
 0002:00003338       GUID_ATLVer110             000000018002b338     atls:atlbase.obj
 0002:00003350       ??_C@_1IC@ONKHOIDK@?$AAE?$AAR?$AAR?$AAO?$AAR?$AA?5?$AA?3?$AA?5?$AAU?$AAn?$AAa?$AAb?$AAl?$AAe?$AA?5@ 000000018002b350     atls:atlbase.obj
 0002:000033d8       ??_C@_0N@FJEPLCIH@atlthunk?4dll@ 000000018002b3d8     atls:atlthunk.obj
 0002:000033e8       ??_C@_0BG@GAKFHCBM@AtlThunk_AllocateData@ 000000018002b3e8     atls:atlthunk.obj
 0002:00003400       ??_C@_0BC@JKONFIAH@AtlThunk_InitData@ 000000018002b400     atls:atlthunk.obj
 0002:00003418       ??_C@_0BE@IAOEELAK@AtlThunk_DataToCode@ 000000018002b418     atls:atlthunk.obj
 0002:00003430       ??_C@_0BC@GBGKAIPI@AtlThunk_FreeData@ 000000018002b430     atls:atlthunk.obj
 0002:00003448       ?s_negLengthTab@FH4@@3QBCB 000000018002b448     libvcruntime:risctrnsctrl.obj
 0002:00003458       ?s_shiftTab@FH4@@3QBEB     000000018002b458     libvcruntime:risctrnsctrl.obj
 0002:000035a8       _pDestructExceptionObject  000000018002b5a8     libvcruntime:ehhelpers.obj
 0002:000035b8       ??_7bad_exception@std@@6B@ 000000018002b5b8     libvcruntime:frame.obj
 0002:000035c8       ??_C@_0O@DPKOEFFH@bad?5exception@ 000000018002b5c8     libvcruntime:frame.obj
 0002:00003cf0       ??_C@_08EHJDFFNH@__based?$CI@ 000000018002bcf0     libvcruntime:undname.obj
 0002:00003d00       ??_C@_07KOLFKCDI@__cdecl@  000000018002bd00     libvcruntime:undname.obj
 0002:00003d08       ??_C@_08GHMPAG@__pascal@   000000018002bd08     libvcruntime:undname.obj
 0002:00003d18       ??_C@_09IFJBGAPI@__stdcall@ 000000018002bd18     libvcruntime:undname.obj
 0002:00003d28       ??_C@_0L@NPHFGOKO@__thiscall@ 000000018002bd28     libvcruntime:undname.obj
 0002:00003d38       ??_C@_0L@JMKHOMEK@__fastcall@ 000000018002bd38     libvcruntime:undname.obj
 0002:00003d48       ??_C@_0N@BCKKPABJ@__vectorcall@ 000000018002bd48     libvcruntime:undname.obj
 0002:00003d58       ??_C@_09HIJEGCPM@__clrcall@ 000000018002bd58     libvcruntime:undname.obj
 0002:00003d64       ??_C@_06GHPCKEAG@__eabi@   000000018002bd64     libvcruntime:undname.obj
 0002:00003d70       ??_C@_09IOPIDJLG@__swift_1@ 000000018002bd70     libvcruntime:undname.obj
 0002:00003d80       ??_C@_09KFNFGKHF@__swift_2@ 000000018002bd80     libvcruntime:undname.obj
 0002:00003d90       ??_C@_09LMMOFLDE@__swift_3@ 000000018002bd90     libvcruntime:undname.obj
 0002:00003da0       ??_C@_07JOMMBBKO@__ptr64@  000000018002bda0     libvcruntime:undname.obj
 0002:00003da8       ??_C@_0L@PILCLIHE@__restrict@ 000000018002bda8     libvcruntime:undname.obj
 0002:00003db8       ??_C@_0M@GFIIJFMG@__unaligned@ 000000018002bdb8     libvcruntime:undname.obj
 0002:00003dc8       ??_C@_09DHDLOLLB@restrict?$CI@ 000000018002bdc8     libvcruntime:undname.obj
 0002:00003dd2       ??_C@_00CNPNBAHC@@         000000018002bdd2     libvcruntime:undname.obj
 0002:00003dd4       ??_C@_04NIHEBCM@?5new@     000000018002bdd4     libvcruntime:undname.obj
 0002:00003de0       ??_C@_07FPCDHGMM@?5delete@ 000000018002bde0     libvcruntime:undname.obj
 0002:00003de8       ??_C@_01NEMOKFLO@?$DN@     000000018002bde8     libvcruntime:undname.obj
 0002:00003dec       ??_C@_02GPIOPFAK@?$DO?$DO@ 000000018002bdec     libvcruntime:undname.obj
 0002:00003df0       ??_C@_02FODMEDOG@?$DM?$DM@ 000000018002bdf0     libvcruntime:undname.obj
 0002:00003df4       ??_C@_01DCLJPIOD@?$CB@     000000018002bdf4     libvcruntime:undname.obj
 0002:00003df8       ??_C@_02EGOFBIJA@?$DN?$DN@ 000000018002bdf8     libvcruntime:undname.obj
 0002:00003dfc       ??_C@_02FDNJECIE@?$CB?$DN@ 000000018002bdfc     libvcruntime:undname.obj
 0002:00003e00       ??_C@_02GPECMEKF@?$FL?$FN@ 000000018002be00     libvcruntime:undname.obj
 0002:00003e08       ??_C@_08LHJFAFGD@operator@ 000000018002be08     libvcruntime:undname.obj
 0002:00003e14       ??_C@_02HBOOOICD@?9?$DO@   000000018002be14     libvcruntime:undname.obj
 0002:00003e18       ??_C@_01NBENCBCI@?$CK@     000000018002be18     libvcruntime:undname.obj
 0002:00003e1c       ??_C@_02ECNGHCIF@?$CL?$CL@ 000000018002be1c     libvcruntime:undname.obj
 0002:00003e20       ??_C@_02BAABKJLB@?9?9@     000000018002be20     libvcruntime:undname.obj
 0002:00003e24       ??_C@_01JOAMLHOP@?9@       000000018002be24     libvcruntime:undname.obj
 0002:00003e28       ??_C@_01MIFGBAGJ@?$CL@     000000018002be28     libvcruntime:undname.obj
 0002:00003e2c       ??_C@_01HNPIGOCE@?$CG@     000000018002be2c     libvcruntime:undname.obj
 0002:00003e30       ??_C@_03MNHNFDLC@?9?$DO?$CK@ 000000018002be30     libvcruntime:undname.obj
 0002:00003e34       ??_C@_01KMDKNFGN@?1@       000000018002be34     libvcruntime:undname.obj
 0002:00003e38       ??_C@_01FGNFDNOH@?$CF@     000000018002be38     libvcruntime:undname.obj
 0002:00003e3c       ??_C@_01MNNFJEPP@?$DM@     000000018002be3c     libvcruntime:undname.obj
 0002:00003e40       ??_C@_02EHCHHCKH@?$DM?$DN@ 000000018002be40     libvcruntime:undname.obj
 0002:00003e44       ??_C@_01PPODPGHN@?$DO@     000000018002be44     libvcruntime:undname.obj
 0002:00003e48       ??_C@_02EEKDKGMJ@?$DO?$DN@ 000000018002be48     libvcruntime:undname.obj
 0002:00003e4c       ??_C@_01IHBHIGKO@?0@       000000018002be4c     libvcruntime:undname.obj
 0002:00003e50       ??_C@_02HCKGKOFO@?$CI?$CJ@ 000000018002be50     libvcruntime:undname.obj
 0002:00003e54       ??_C@_01PJKLJHI@?$HO@      000000018002be54     libvcruntime:undname.obj
 0002:00003e58       ??_C@_01JKBOJNNK@?$FO@     000000018002be58     libvcruntime:undname.obj
 0002:00003e5c       ??_C@_01DNKMNLPK@?$HM@     000000018002be5c     libvcruntime:undname.obj
 0002:00003e60       ??_C@_02PPKAJPJL@?$CG?$CG@ 000000018002be60     libvcruntime:undname.obj
 0002:00003e64       ??_C@_02NONPIBCD@?$HM?$HM@ 000000018002be64     libvcruntime:undname.obj
 0002:00003e68       ??_C@_02FPIMKNGF@?$CK?$DN@ 000000018002be68     libvcruntime:undname.obj
 0002:00003e6c       ??_C@_02FOEOMHFC@?$CL?$DN@ 000000018002be6c     libvcruntime:undname.obj
 0002:00003e70       ??_C@_02FKMDLLOA@?9?$DN@   000000018002be70     libvcruntime:undname.obj
 0002:00003e74       ??_C@_02FJEHGPIO@?1?$DN@   000000018002be74     libvcruntime:undname.obj
 0002:00003e78       ??_C@_02FENAOKFI@?$CF?$DN@ 000000018002be78     libvcruntime:undname.obj
 0002:00003e7c       ??_C@_03IKFCCPFF@?$DO?$DO?$DN@ 000000018002be7c     libvcruntime:undname.obj
 0002:00003e80       ??_C@_03CDNPDDLA@?$DM?$DM?$DN@ 000000018002be80     libvcruntime:undname.obj
 0002:00003e84       ??_C@_02FGJGFEAB@?$CG?$DN@ 000000018002be84     libvcruntime:undname.obj
 0002:00003e88       ??_C@_02DHLNPPGH@?$HM?$DN@ 000000018002be88     libvcruntime:undname.obj
 0002:00003e8c       ??_C@_02MHEGNOJ@?$FO?$DN@  000000018002be8c     libvcruntime:undname.obj
 0002:00003e90       ??_C@_09IFPLHPGF@?$GAvftable?8@ 000000018002be90     libvcruntime:undname.obj
 0002:00003ea0       ??_C@_09BLBHBJP@?$GAvbtable?8@ 000000018002bea0     libvcruntime:undname.obj
 0002:00003eb0       ??_C@_07FEEIOKP@?$GAvcall?8@ 000000018002beb0     libvcruntime:undname.obj
 0002:00003eb8       ??_C@_08LLFFHHDJ@?$GAtypeof?8@ 000000018002beb8     libvcruntime:undname.obj
 0002:00003ec8       ??_C@_0BF@KDPPACIK@?$GAlocal?5static?5guard?8@ 000000018002bec8     libvcruntime:undname.obj
 0002:00003ee0       ??_C@_08OBABFOLI@?$GAstring?8@ 000000018002bee0     libvcruntime:undname.obj
 0002:00003ef0       ??_C@_0BD@JDLKDPAB@?$GAvbase?5destructor?8@ 000000018002bef0     libvcruntime:undname.obj
 0002:00003f08       ??_C@_0BN@DEGPLNFK@?$GAvector?5deleting?5destructor?8@ 000000018002bf08     libvcruntime:undname.obj
 0002:00003f28       ??_C@_0BO@OBMKPJIG@?$GAdefault?5constructor?5closure?8@ 000000018002bf28     libvcruntime:undname.obj
 0002:00003f48       ??_C@_0BN@IMDCHIKM@?$GAscalar?5deleting?5destructor?8@ 000000018002bf48     libvcruntime:undname.obj
 0002:00003f68       ??_C@_0BO@PFGOCPJJ@?$GAvector?5constructor?5iterator?8@ 000000018002bf68     libvcruntime:undname.obj
 0002:00003f88       ??_C@_0BN@LFPFMEDL@?$GAvector?5destructor?5iterator?8@ 000000018002bf88     libvcruntime:undname.obj
 0002:00003fa8       ??_C@_0CE@IKBNEHA@?$GAvector?5vbase?5constructor?5itera@ 000000018002bfa8     libvcruntime:undname.obj
 0002:00003fd0       ??_C@_0BL@NILFHHPC@?$GAvirtual?5displacement?5map?8@ 000000018002bfd0     libvcruntime:undname.obj
 0002:00003ff0       ??_C@_0CB@JONCMFFK@?$GAeh?5vector?5constructor?5iterator@ 000000018002bff0     libvcruntime:undname.obj
 0002:00004018       ??_C@_0CA@GCEOPDGL@?$GAeh?5vector?5destructor?5iterator?8@ 000000018002c018     libvcruntime:undname.obj
 0002:00004038       ??_C@_0CH@OOJPLCPH@?$GAeh?5vector?5vbase?5constructor?5it@ 000000018002c038     libvcruntime:undname.obj
 0002:00004060       ??_C@_0BL@LLKPOHJI@?$GAcopy?5constructor?5closure?8@ 000000018002c060     libvcruntime:undname.obj
 0002:00004080       ??_C@_0BA@KBCDOMBN@?$GAudt?5returning?8@ 000000018002c080     libvcruntime:undname.obj
 0002:00004090       ??_C@_03KLGMFNMG@?$GAEH@   000000018002c090     libvcruntime:undname.obj
 0002:00004094       ??_C@_05KHLCHHI@?$GARTTI@  000000018002c094     libvcruntime:undname.obj
 0002:000040a0       ??_C@_0BA@KKLDJDLB@?$GAlocal?5vftable?8@ 000000018002c0a0     libvcruntime:undname.obj
 0002:000040b0       ??_C@_0CE@IIHCMGGL@?$GAlocal?5vftable?5constructor?5clos@ 000000018002c0b0     libvcruntime:undname.obj
 0002:000040d4       ??_C@_06FHBGPFGH@?5new?$FL?$FN@ 000000018002c0d4     libvcruntime:undname.obj
 0002:000040e0       ??_C@_09LBNFPBCA@?5delete?$FL?$FN@ 000000018002c0e0     libvcruntime:undname.obj
 0002:000040f0       ??_C@_0P@HJKNJFNN@?$GAomni?5callsig?8@ 000000018002c0f0     libvcruntime:undname.obj
 0002:00004100       ??_C@_0BL@CNOONJFP@?$GAplacement?5delete?5closure?8@ 000000018002c100     libvcruntime:undname.obj
 0002:00004120       ??_C@_0BN@CKNJLHMB@?$GAplacement?5delete?$FL?$FN?5closure?8@ 000000018002c120     libvcruntime:undname.obj
 0002:00004140       ??_C@_0CG@CFDHKGGD@?$GAmanaged?5vector?5constructor?5ite@ 000000018002c140     libvcruntime:undname.obj
 0002:00004168       ??_C@_0CF@IMGKMJNO@?$GAmanaged?5vector?5destructor?5iter@ 000000018002c168     libvcruntime:undname.obj
 0002:00004190       ??_C@_0CG@HLDDJMAG@?$GAeh?5vector?5copy?5constructor?5ite@ 000000018002c190     libvcruntime:undname.obj
 0002:000041b8       ??_C@_0CM@FCBBDIGB@?$GAeh?5vector?5vbase?5copy?5construct@ 000000018002c1b8     libvcruntime:undname.obj
 0002:000041e8       ??_C@_0BL@CLIPGLGB@?$GAdynamic?5initializer?5for?5?8@ 000000018002c1e8     libvcruntime:undname.obj
 0002:00004208       ??_C@_0CB@PDBIFEP@?$GAdynamic?5atexit?5destructor?5for?5@ 000000018002c208     libvcruntime:undname.obj
 0002:00004230       ??_C@_0CD@CGAJBKEJ@?$GAvector?5copy?5constructor?5iterat@ 000000018002c230     libvcruntime:undname.obj
 0002:00004258       ??_C@_0CJ@GJELGAMM@?$GAvector?5vbase?5copy?5constructor?5@ 000000018002c258     libvcruntime:undname.obj
 0002:00004288       ??_C@_0CL@FGIJHLCE@?$GAmanaged?5vector?5copy?5constructo@ 000000018002c288     libvcruntime:undname.obj
 0002:000042b8       ??_C@_0BM@PMGGMLDN@?$GAlocal?5static?5thread?5guard?8@ 000000018002c2b8     libvcruntime:undname.obj
 0002:000042d8       ??_C@_0N@BDNMDMOL@operator?5?$CC?$CC?5@ 000000018002c2d8     libvcruntime:undname.obj
 0002:000042e8       ??_C@_0BC@GGEBGALA@operator?5co_await@ 000000018002c2e8     libvcruntime:undname.obj
 0002:00004300       ??_C@_0M@GAAIMMOH@operator?$DM?$DN?$DO@ 000000018002c300     libvcruntime:undname.obj
 0002:00004310       ??_C@_0BC@DAFEJGAK@?5Type?5Descriptor?8@ 000000018002c310     libvcruntime:undname.obj
 0002:00004328       ??_C@_0BM@LDKODKLH@?5Base?5Class?5Descriptor?5at?5?$CI@ 000000018002c328     libvcruntime:undname.obj
 0002:00004348       ??_C@_0BD@LGICGFMM@?5Base?5Class?5Array?8@ 000000018002c348     libvcruntime:undname.obj
 0002:00004360       ??_C@_0BN@MECKDCOJ@?5Class?5Hierarchy?5Descriptor?8@ 000000018002c360     libvcruntime:undname.obj
 0002:00004380       ??_C@_0BK@CFCOFLF@?5Complete?5Object?5Locator?8@ 000000018002c380     libvcruntime:undname.obj
 0002:000043a0       ??_C@_0BG@JNJLAMPM@?$GAanonymous?5namespace?8@ 000000018002c3a0     libvcruntime:undname.obj
 0002:000043d0       ??_C@_1DM@KHCHBNEB@?$AAa?$AAp?$AAi?$AA?9?$AAm?$AAs?$AA?9?$AAw?$AAi?$AAn?$AA?9?$AAc?$AAo?$AAr?$AAe@ 000000018002c3d0     libvcruntime:winapi_downlevel.obj
 0002:00004410       ??_C@_1DK@LPPGFMPP@?$AAa?$AAp?$AAi?$AA?9?$AAm?$AAs?$AA?9?$AAw?$AAi?$AAn?$AA?9?$AAc?$AAo?$AAr?$AAe@ 000000018002c410     libvcruntime:winapi_downlevel.obj
 0002:00004450       ??_C@_1BC@GDMECMAK@?$AAk?$AAe?$AAr?$AAn?$AAe?$AAl?$AA3?$AA2@ 000000018002c450     libvcruntime:winapi_downlevel.obj
 0002:00004468       ??_C@_1BA@PFFKHIOG@?$AAa?$AAp?$AAi?$AA?9?$AAm?$AAs?$AA?9@ 000000018002c468     libvcruntime:winapi_downlevel.obj
 0002:00004480       ??_C@_08KNHFBNJ@FlsAlloc@  000000018002c480     libvcruntime:winapi_downlevel.obj
 0002:00004498       ??_C@_07PEJMOBNF@FlsFree@  000000018002c498     libvcruntime:winapi_downlevel.obj
 0002:000044a8       ??_C@_0M@GDNOONDI@FlsGetValue@ 000000018002c4a8     libvcruntime:winapi_downlevel.obj
 0002:000044c0       ??_C@_0M@JCPCPOEF@FlsSetValue@ 000000018002c4c0     libvcruntime:winapi_downlevel.obj
 0002:000044d8       ??_C@_0BM@HCFOFFN@InitializeCriticalSectionEx@ 000000018002c4d8     libvcruntime:winapi_downlevel.obj
 0002:00004670       ?format_validation_lookup_table_spectre@__crt_stdio_output@@3V?$spectre_mitigated_lookup_table@Ustate_transition_pair@__crt_stdio_output@@$0IA@@1@B 000000018002c670     libucrt:output.obj
 0002:00004770       ??_C@_1O@CEDCILHN@?$AA?$CI?$AAn?$AAu?$AAl?$AAl?$AA?$CJ@ 000000018002c770     libucrt:output.obj
 0002:00004780       ??_C@_06OJHGLDPL@?$CInull?$CJ@ 000000018002c780     libucrt:output.obj
 0002:00004790       __acrt_exception_action_table 000000018002c790     libucrt:exception_filter.obj
 0002:00004850       __acrt_signal_action_table_count 000000018002c850     libucrt:exception_filter.obj
 0002:00004858       __acrt_signal_action_first_fpe_index 000000018002c858     libucrt:exception_filter.obj
 0002:00004860       __acrt_signal_action_fpe_count 000000018002c860     libucrt:exception_filter.obj
 0002:000048b8       ??_C@_1BI@BGOHAHKC@?$AAm?$AAs?$AAc?$AAo?$AAr?$AAe?$AAe?$AA?4?$AAd?$AAl?$AAl@ 000000018002c8b8     libucrt:exit.obj
 0002:000048d0       ??_C@_0P@MIGLKIOC@CorExitProcess@ 000000018002c8d0     libucrt:exit.obj
 0002:00004a30       __lc_time_c                000000018002ca30     libucrt:nlsdata.obj
 0002:00004cf0       ??_C@_03KOEHGMDN@Sun@      000000018002ccf0     libucrt:nlsdata.obj
 0002:00004cf4       ??_C@_03PDAGKDH@Mon@       000000018002ccf4     libucrt:nlsdata.obj
 0002:00004cf8       ??_C@_03NAGEINEP@Tue@      000000018002ccf8     libucrt:nlsdata.obj
 0002:00004cfc       ??_C@_03MHOMLAJA@Wed@      000000018002ccfc     libucrt:nlsdata.obj
 0002:00004d00       ??_C@_03IOFIKPDN@Thu@      000000018002cd00     libucrt:nlsdata.obj
 0002:00004d04       ??_C@_03IDIOELNC@Fri@      000000018002cd04     libucrt:nlsdata.obj
 0002:00004d08       ??_C@_03FEFJNEK@Sat@       000000018002cd08     libucrt:nlsdata.obj
 0002:00004d0c       ??_C@_06OOPIFAJ@Sunday@    000000018002cd0c     libucrt:nlsdata.obj
 0002:00004d14       ??_C@_06JLEDEDGH@Monday@   000000018002cd14     libucrt:nlsdata.obj
 0002:00004d20       ??_C@_07BAAGCFCM@Tuesday@  000000018002cd20     libucrt:nlsdata.obj
 0002:00004d28       ??_C@_09DLIGFAKA@Wednesday@ 000000018002cd28     libucrt:nlsdata.obj
 0002:00004d38       ??_C@_08HACCIKIA@Thursday@ 000000018002cd38     libucrt:nlsdata.obj
 0002:00004d44       ??_C@_06JECMNKMI@Friday@   000000018002cd44     libucrt:nlsdata.obj
 0002:00004d50       ??_C@_08INBOOONO@Saturday@ 000000018002cd50     libucrt:nlsdata.obj
 0002:00004d5c       ??_C@_03JIHJHPIE@Jan@      000000018002cd5c     libucrt:nlsdata.obj
 0002:00004d60       ??_C@_03HJBDCHOM@Feb@      000000018002cd60     libucrt:nlsdata.obj
 0002:00004d64       ??_C@_03ODNJBKGA@Mar@      000000018002cd64     libucrt:nlsdata.obj
 0002:00004d68       ??_C@_03LEOLGMJP@Apr@      000000018002cd68     libucrt:nlsdata.obj
 0002:00004d6c       ??_C@_03CNMDKL@May@        000000018002cd6c     libucrt:nlsdata.obj
 0002:00004d70       ??_C@_03IDFGHECI@Jun@      000000018002cd70     libucrt:nlsdata.obj
 0002:00004d74       ??_C@_03LBGABGKK@Jul@      000000018002cd74     libucrt:nlsdata.obj
 0002:00004d78       ??_C@_03IFJFEIGA@Aug@      000000018002cd78     libucrt:nlsdata.obj
 0002:00004d7c       ??_C@_03GGCAPAJC@Sep@      000000018002cd7c     libucrt:nlsdata.obj
 0002:00004d80       ??_C@_03BMAOKBAD@Oct@      000000018002cd80     libucrt:nlsdata.obj
 0002:00004d84       ??_C@_03JPJOFNIA@Nov@      000000018002cd84     libucrt:nlsdata.obj
 0002:00004d88       ??_C@_03MKABNOCG@Dec@      000000018002cd88     libucrt:nlsdata.obj
 0002:00004d90       ??_C@_07CGJPFGJA@January@  000000018002cd90     libucrt:nlsdata.obj
 0002:00004d98       ??_C@_08GNJGEPFN@February@ 000000018002cd98     libucrt:nlsdata.obj
 0002:00004da4       ??_C@_05HPCKOFNC@March@    000000018002cda4     libucrt:nlsdata.obj
 0002:00004dac       ??_C@_05DMJDNLEJ@April@    000000018002cdac     libucrt:nlsdata.obj
 0002:00004db4       ??_C@_04CNLMGBGM@June@     000000018002cdb4     libucrt:nlsdata.obj
 0002:00004dbc       ??_C@_04MIEPOIFP@July@     000000018002cdbc     libucrt:nlsdata.obj
 0002:00004dc4       ??_C@_06LBBHFDDG@August@   000000018002cdc4     libucrt:nlsdata.obj
 0002:00004dd0       ??_C@_09BHHEALKD@September@ 000000018002cdd0     libucrt:nlsdata.obj
 0002:00004de0       ??_C@_07JJNFCEND@October@  000000018002cde0     libucrt:nlsdata.obj
 0002:00004de8       ??_C@_08HCHEGEOA@November@ 000000018002cde8     libucrt:nlsdata.obj
 0002:00004df8       ??_C@_08EDHMEBNP@December@ 000000018002cdf8     libucrt:nlsdata.obj
 0002:00004e04       ??_C@_02DEDBPAFC@AM@       000000018002ce04     libucrt:nlsdata.obj
 0002:00004e08       ??_C@_02CJNFDJBF@PM@       000000018002ce08     libucrt:nlsdata.obj
 0002:00004e10       ??_C@_08BPBNCDIB@MM?1dd?1yy@ 000000018002ce10     libucrt:nlsdata.obj
 0002:00004e20       ??_C@_0BE@CKGJFCPC@dddd?0?5MMMM?5dd?0?5yyyy@ 000000018002ce20     libucrt:nlsdata.obj
 0002:00004e38       ??_C@_08JCCMCCIL@HH?3mm?3ss@ 000000018002ce38     libucrt:nlsdata.obj
 0002:00004e48       ??_C@_17MBGCMIPB@?$AAS?$AAu?$AAn@ 000000018002ce48     libucrt:nlsdata.obj
 0002:00004e50       ??_C@_17KBOMKBF@?$AAM?$AAo?$AAn@ 000000018002ce50     libucrt:nlsdata.obj
 0002:00004e58       ??_C@_17BMKGEGOJ@?$AAT?$AAu?$AAe@ 000000018002ce58     libucrt:nlsdata.obj
 0002:00004e60       ??_C@_17CJEDCEPE@?$AAW?$AAe?$AAd@ 000000018002ce60     libucrt:nlsdata.obj
 0002:00004e68       ??_C@_17PDPHAADD@?$AAT?$AAh?$AAu@ 000000018002ce68     libucrt:nlsdata.obj
 0002:00004e70       ??_C@_17HFOLPPLP@?$AAF?$AAr?$AAi@ 000000018002ce70     libucrt:nlsdata.obj
 0002:00004e78       ??_C@_17GGIBDPIH@?$AAS?$AAa?$AAt@ 000000018002ce78     libucrt:nlsdata.obj
 0002:00004e80       ??_C@_1O@IHNHDHPB@?$AAS?$AAu?$AAn?$AAd?$AAa?$AAy@ 000000018002ce80     libucrt:nlsdata.obj
 0002:00004e90       ??_C@_1O@MMNBFLIA@?$AAM?$AAo?$AAn?$AAd?$AAa?$AAy@ 000000018002ce90     libucrt:nlsdata.obj
 0002:00004ea0       ??_C@_1BA@ENFBFFEK@?$AAT?$AAu?$AAe?$AAs?$AAd?$AAa?$AAy@ 000000018002cea0     libucrt:nlsdata.obj
 0002:00004eb0       ??_C@_1BE@EBOGMDOH@?$AAW?$AAe?$AAd?$AAn?$AAe?$AAs?$AAd?$AAa?$AAy@ 000000018002ceb0     libucrt:nlsdata.obj
 0002:00004ec8       ??_C@_1BC@HHMNLIHE@?$AAT?$AAh?$AAu?$AAr?$AAs?$AAd?$AAa?$AAy@ 000000018002cec8     libucrt:nlsdata.obj
 0002:00004ee0       ??_C@_1O@PDICJHAG@?$AAF?$AAr?$AAi?$AAd?$AAa?$AAy@ 000000018002cee0     libucrt:nlsdata.obj
 0002:00004ef0       ??_C@_1BC@ENMNNPAJ@?$AAS?$AAa?$AAt?$AAu?$AAr?$AAd?$AAa?$AAy@ 000000018002cef0     libucrt:nlsdata.obj
 0002:00004f08       ??_C@_17DKNBKCHM@?$AAJ?$AAa?$AAn@ 000000018002cf08     libucrt:nlsdata.obj
 0002:00004f10       ??_C@_17LMDJEKJN@?$AAF?$AAe?$AAb@ 000000018002cf10     libucrt:nlsdata.obj
 0002:00004f18       ??_C@_17CKNLEDEC@?$AAM?$AAa?$AAr@ 000000018002cf18     libucrt:nlsdata.obj
 0002:00004f20       ??_C@_17LFPOIHDD@?$AAA?$AAp?$AAr@ 000000018002cf20     libucrt:nlsdata.obj
 0002:00004f28       ??_C@_17PNNKMEED@?$AAM?$AAa?$AAy@ 000000018002cf28     libucrt:nlsdata.obj
 0002:00004f30       ??_C@_17KCJGOCPB@?$AAJ?$AAu?$AAn@ 000000018002cf30     libucrt:nlsdata.obj
 0002:00004f38       ??_C@_17IJPCKHK@?$AAJ?$AAu?$AAl@ 000000018002cf38     libucrt:nlsdata.obj
 0002:00004f40       ??_C@_17ICPELBCN@?$AAA?$AAu?$AAg@ 000000018002cf40     libucrt:nlsdata.obj
 0002:00004f48       ??_C@_17HCHCOKMG@?$AAS?$AAe?$AAp@ 000000018002cf48     libucrt:nlsdata.obj
 0002:00004f50       ??_C@_17FNLKOI@?$AAO?$AAc?$AAt@ 000000018002cf50     libucrt:nlsdata.obj
 0002:00004f58       ??_C@_17BBDMLCIG@?$AAN?$AAo?$AAv@ 000000018002cf58     libucrt:nlsdata.obj
 0002:00004f60       ??_C@_17EGKACKIF@?$AAD?$AAe?$AAc@ 000000018002cf60     libucrt:nlsdata.obj
 0002:00004f68       ??_C@_1BA@EFMEIEBA@?$AAJ?$AAa?$AAn?$AAu?$AAa?$AAr?$AAy@ 000000018002cf68     libucrt:nlsdata.obj
 0002:00004f78       ??_C@_1BC@JGDDFFAM@?$AAF?$AAe?$AAb?$AAr?$AAu?$AAa?$AAr?$AAy@ 000000018002cf78     libucrt:nlsdata.obj
 0002:00004f90       ??_C@_1M@IKEENEDF@?$AAM?$AAa?$AAr?$AAc?$AAh@ 000000018002cf90     libucrt:nlsdata.obj
 0002:00004fa0       ??_C@_1M@GJNLMHFD@?$AAA?$AAp?$AAr?$AAi?$AAl@ 000000018002cfa0     libucrt:nlsdata.obj
 0002:00004fb0       ??_C@_19EPFLPGAP@?$AAJ?$AAu?$AAn?$AAe@ 000000018002cfb0     libucrt:nlsdata.obj
 0002:00004fc0       ??_C@_19BIFMLPCD@?$AAJ?$AAu?$AAl?$AAy@ 000000018002cfc0     libucrt:nlsdata.obj
 0002:00004fd0       ??_C@_1O@PAHLKOAC@?$AAA?$AAu?$AAg?$AAu?$AAs?$AAt@ 000000018002cfd0     libucrt:nlsdata.obj
 0002:00004fe0       ??_C@_1BE@DKAAMBJL@?$AAS?$AAe?$AAp?$AAt?$AAe?$AAm?$AAb?$AAe?$AAr@ 000000018002cfe0     libucrt:nlsdata.obj
 0002:00004ff8       ??_C@_1BA@EPANDLNG@?$AAO?$AAc?$AAt?$AAo?$AAb?$AAe?$AAr@ 000000018002cff8     libucrt:nlsdata.obj
 0002:00005008       ??_C@_1BC@BGLIFPF@?$AAN?$AAo?$AAv?$AAe?$AAm?$AAb?$AAe?$AAr@ 000000018002d008     libucrt:nlsdata.obj
 0002:00005020       ??_C@_1BC@FEMKIFH@?$AAD?$AAe?$AAc?$AAe?$AAm?$AAb?$AAe?$AAr@ 000000018002d020     libucrt:nlsdata.obj
 0002:00005034       ??_C@_15ODEHAHHF@?$AAA?$AAM@ 000000018002d034     libucrt:nlsdata.obj
 0002:0000503c       ??_C@_15CLMNNGEL@?$AAP?$AAM@ 000000018002d03c     libucrt:nlsdata.obj
 0002:00005048       ??_C@_1BC@IEBCMHCM@?$AAM?$AAM?$AA?1?$AAd?$AAd?$AA?1?$AAy?$AAy@ 000000018002d048     libucrt:nlsdata.obj
 0002:00005060       ??_C@_1CI@KNAKOEBC@?$AAd?$AAd?$AAd?$AAd?$AA?0?$AA?5?$AAM?$AAM?$AAM?$AAM?$AA?5?$AAd?$AAd?$AA?0?$AA?5@ 000000018002d060     libucrt:nlsdata.obj
 0002:00005088       ??_C@_1BC@GDGBMEMK@?$AAH?$AAH?$AA?3?$AAm?$AAm?$AA?3?$AAs?$AAs@ 000000018002d088     libucrt:nlsdata.obj
 0002:000050a0       ??_C@_1M@BMHNFIME@?$AAe?$AAn?$AA?9?$AAU?$AAS@ 000000018002d0a0     libucrt:nlsdata.obj
 0002:00005150       ??_C@_1EA@JGEFHKEI@?$AAa?$AAp?$AAi?$AA?9?$AAm?$AAs?$AA?9?$AAw?$AAi?$AAn?$AA?9?$AAc?$AAo?$AAr?$AAe@ 000000018002d150     libucrt:winapi_thunks.obj
 0002:00005190       ??_C@_1DI@IJCEHOCB@?$AAa?$AAp?$AAi?$AA?9?$AAm?$AAs?$AA?9?$AAw?$AAi?$AAn?$AA?9?$AAc?$AAo?$AAr?$AAe@ 000000018002d190     libucrt:winapi_thunks.obj
 0002:000051d0       ??_C@_1EI@MPIAOHOC@?$AAa?$AAp?$AAi?$AA?9?$AAm?$AAs?$AA?9?$AAw?$AAi?$AAn?$AA?9?$AAc?$AAo?$AAr?$AAe@ 000000018002d1d0     libucrt:winapi_thunks.obj
 0002:00005220       ??_C@_1FK@FPHCKFIE@?$AAa?$AAp?$AAi?$AA?9?$AAm?$AAs?$AA?9?$AAw?$AAi?$AAn?$AA?9?$AAc?$AAo?$AAr?$AAe@ 000000018002d220     libucrt:winapi_thunks.obj
 0002:00005280       ??_C@_1EM@DILCGIIO@?$AAa?$AAp?$AAi?$AA?9?$AAm?$AAs?$AA?9?$AAw?$AAi?$AAn?$AA?9?$AAc?$AAo?$AAr?$AAe@ 000000018002d280     libucrt:winapi_thunks.obj
 0002:000052d0       ??_C@_1DM@LNCGDDPN@?$AAa?$AAp?$AAi?$AA?9?$AAm?$AAs?$AA?9?$AAw?$AAi?$AAn?$AA?9?$AAc?$AAo?$AAr?$AAe@ 000000018002d2d0     libucrt:winapi_thunks.obj
 0002:00005310       ??_C@_1DO@FPAPJEMD@?$AAa?$AAp?$AAi?$AA?9?$AAm?$AAs?$AA?9?$AAw?$AAi?$AAn?$AA?9?$AAc?$AAo?$AAr?$AAe@ 000000018002d310     libucrt:winapi_thunks.obj
 0002:00005350       ??_C@_1DK@NDHNAHIO@?$AAa?$AAp?$AAi?$AA?9?$AAm?$AAs?$AA?9?$AAw?$AAi?$AAn?$AA?9?$AAc?$AAo?$AAr?$AAe@ 000000018002d350     libucrt:winapi_thunks.obj
 0002:00005390       ??_C@_1DM@KGHDGBCM@?$AAa?$AAp?$AAi?$AA?9?$AAm?$AAs?$AA?9?$AAw?$AAi?$AAn?$AA?9?$AAc?$AAo?$AAr?$AAe@ 000000018002d390     libucrt:winapi_thunks.obj
 0002:000053d0       ??_C@_1EO@IJIOEFOH@?$AAa?$AAp?$AAi?$AA?9?$AAm?$AAs?$AA?9?$AAw?$AAi?$AAn?$AA?9?$AAr?$AAt?$AAc?$AAo@ 000000018002d3d0     libucrt:winapi_thunks.obj
 0002:00005420       ??_C@_1FG@HHGEKANL@?$AAa?$AAp?$AAi?$AA?9?$AAm?$AAs?$AA?9?$AAw?$AAi?$AAn?$AA?9?$AAs?$AAe?$AAc?$AAu@ 000000018002d420     libucrt:winapi_thunks.obj
 0002:00005480       ??_C@_1EG@DBIOJECG@?$AAe?$AAx?$AAt?$AA?9?$AAm?$AAs?$AA?9?$AAw?$AAi?$AAn?$AA?9?$AAn?$AAt?$AAu?$AAs@ 000000018002d480     libucrt:winapi_thunks.obj
 0002:000054d0       ??_C@_1EO@FIHMJCLF@?$AAe?$AAx?$AAt?$AA?9?$AAm?$AAs?$AA?9?$AAw?$AAi?$AAn?$AA?9?$AAn?$AAt?$AAu?$AAs@ 000000018002d4d0     libucrt:winapi_thunks.obj
 0002:00005520       ??_C@_1BC@DNHGCMLG@?$AAa?$AAd?$AAv?$AAa?$AAp?$AAi?$AA3?$AA2@ 000000018002d520     libucrt:winapi_thunks.obj
 0002:00005538       ??_C@_1M@OAIMIKLP@?$AAn?$AAt?$AAd?$AAl?$AAl@ 000000018002d538     libucrt:winapi_thunks.obj
 0002:00005550       ??_C@_1EG@DPGNFKGC@?$AAa?$AAp?$AAi?$AA?9?$AAm?$AAs?$AA?9?$AAw?$AAi?$AAn?$AA?9?$AAa?$AAp?$AAp?$AAm@ 000000018002d550     libucrt:winapi_thunks.obj
 0002:00005598       ??_C@_1O@BCCLBEOE@?$AAu?$AAs?$AAe?$AAr?$AA3?$AA2@ 000000018002d598     libucrt:winapi_thunks.obj
 0002:000055a8       ??_C@_1BA@IAIFMGEF@?$AAe?$AAx?$AAt?$AA?9?$AAm?$AAs?$AA?9@ 000000018002d5a8     libucrt:winapi_thunks.obj
 0002:000055c0       ??_C@_0BA@FHFNEAED@AreFileApisANSI@ 000000018002d5c0     libucrt:winapi_thunks.obj
 0002:000055e0       ??_C@_0O@KKBNKAPF@LCMapStringEx@ 000000018002d5e0     libucrt:winapi_thunks.obj
 0002:000055f8       ??_C@_0BB@HBDEELFH@LocaleNameToLCID@ 000000018002d5f8     libucrt:winapi_thunks.obj
 0002:00005610       ??_C@_0CF@OJOFEIGO@AppPolicyGetProcessTerminationM@ 000000018002d610     libucrt:winapi_thunks.obj
 0002:00005640       ??_C@_0BI@BKLFFAPO@SetThreadStackGuarantee@ 000000018002d640     libucrt:winapi_thunks.obj
 0002:000056e0       ??_C@_03OEIAHPBN@INF@      000000018002d6e0     libucrt:cvt.obj
 0002:000056e4       ??_C@_03OJHLLCGB@inf@      000000018002d6e4     libucrt:cvt.obj
 0002:000056e8       ??_C@_03LKNCIKJB@NAN@      000000018002d6e8     libucrt:cvt.obj
 0002:000056ec       ??_C@_03LHCJEHON@nan@      000000018002d6ec     libucrt:cvt.obj
 0002:000056f0       ??_C@_09OFJJIMPC@NAN?$CISNAN?$CJ@ 000000018002d6f0     libucrt:cvt.obj
 0002:00005700       ??_C@_09IPFBKMDL@nan?$CIsnan?$CJ@ 000000018002d700     libucrt:cvt.obj
 0002:00005710       ??_C@_08IKHNHAJ@NAN?$CIIND?$CJ@ 000000018002d710     libucrt:cvt.obj
 0002:00005720       ??_C@_08OFCDMILK@nan?$CIind?$CJ@ 000000018002d720     libucrt:cvt.obj
 0002:0000572c       ??_C@_05KLBDPFGC@e?$CL000@ 000000018002d72c     libucrt:cvt.obj
 0002:00005758       ??_C@_1M@HPNHIDJI@?$AAj?$AAa?$AA?9?$AAJ?$AAP@ 000000018002d758     libucrt:mbctype.obj
 0002:00005768       ??_C@_1M@BIBDDEMK@?$AAz?$AAh?$AA?9?$AAC?$AAN@ 000000018002d768     libucrt:mbctype.obj
 0002:00005778       ??_C@_1M@JLOOOEGK@?$AAk?$AAo?$AA?9?$AAK?$AAR@ 000000018002d778     libucrt:mbctype.obj
 0002:00005788       ??_C@_1M@CLNBBOPM@?$AAz?$AAh?$AA?9?$AAT?$AAW@ 000000018002d788     libucrt:mbctype.obj
 0002:000057a0       __newctype                 000000018002d7a0     libucrt:ctype.obj
 0002:00005aa0       __newclmap                 000000018002daa0     libucrt:ctype.obj
 0002:00005c20       __newcumap                 000000018002dc20     libucrt:ctype.obj
 0002:00005da0       ??_C@_15PJPFLCCM@?$AAu?$AAk@ 000000018002dda0     libucrt:get_qualified_locale.obj
 0002:00006bf0       ??_C@_15EMKDOKLE@?$AAa?$AAr@ 000000018002ebf0     libucrt:lcidtoname_downlevel.obj
 0002:00006bf8       ??_C@_15KNPADPLH@?$AAb?$AAg@ 000000018002ebf8     libucrt:lcidtoname_downlevel.obj
 0002:00006c00       ??_C@_15EDMHLDMO@?$AAc?$AAa@ 000000018002ec00     libucrt:lcidtoname_downlevel.obj
 0002:00006c08       ??_C@_1O@BPEAJADD@?$AAz?$AAh?$AA?9?$AAC?$AAH?$AAS@ 000000018002ec08     libucrt:lcidtoname_downlevel.obj
 0002:00006c18       ??_C@_15LJNHCMNK@?$AAc?$AAs@ 000000018002ec18     libucrt:lcidtoname_downlevel.obj
 0002:00006c20       ??_C@_15FOMCIDHG@?$AAd?$AAa@ 000000018002ec20     libucrt:lcidtoname_downlevel.obj
 0002:00006c28       ??_C@_15NBKABECB@?$AAd?$AAe@ 000000018002ec28     libucrt:lcidtoname_downlevel.obj
 0002:00006c30       ??_C@_15GHPEIIAO@?$AAe?$AAl@ 000000018002ec30     libucrt:lcidtoname_downlevel.obj
 0002:00006c38       ??_C@_15MNPNEAIF@?$AAe?$AAn@ 000000018002ec38     libucrt:lcidtoname_downlevel.obj
 0002:00006c40       ??_C@_15GPIOMPMH@?$AAe?$AAs@ 000000018002ec40     libucrt:lcidtoname_downlevel.obj
 0002:00006c48       ??_C@_15NGLOAKJC@?$AAf?$AAi@ 000000018002ec48     libucrt:lcidtoname_downlevel.obj
 0002:00006c50       ??_C@_15FBKGNKAM@?$AAf?$AAr@ 000000018002ec50     libucrt:lcidtoname_downlevel.obj
 0002:00006c58       ??_C@_15KGGCNEFK@?$AAh?$AAe@ 000000018002ec58     libucrt:lcidtoname_downlevel.obj
 0002:00006c60       ??_C@_15PGHLIDMF@?$AAh?$AAu@ 000000018002ec60     libucrt:lcidtoname_downlevel.obj
 0002:00006c68       ??_C@_15BIEMAPLM@?$AAi?$AAs@ 000000018002ec68     libucrt:lcidtoname_downlevel.obj
 0002:00006c70       ??_C@_15IFJLDHAF@?$AAi?$AAt@ 000000018002ec70     libucrt:lcidtoname_downlevel.obj
 0002:00006c78       ??_C@_15GEMIOCAG@?$AAj?$AAa@ 000000018002ec78     libucrt:lcidtoname_downlevel.obj
 0002:00006c80       ??_C@_15EPELEGJA@?$AAk?$AAo@ 000000018002ec80     libucrt:lcidtoname_downlevel.obj
 0002:00006c88       ??_C@_15NDDHIMN@?$AAn?$AAl@ 000000018002ec88     libucrt:lcidtoname_downlevel.obj
 0002:00006c90       ??_C@_15BPIGNHCD@?$AAn?$AAo@ 000000018002ec90     libucrt:lcidtoname_downlevel.obj
 0002:00006c98       ??_C@_15DEOPBLCG@?$AAp?$AAl@ 000000018002ec98     libucrt:lcidtoname_downlevel.obj
 0002:00006ca0       ??_C@_15KBECGEFG@?$AAp?$AAt@ 000000018002eca0     libucrt:lcidtoname_downlevel.obj
 0002:00006ca8       ??_C@_15GLJCBFMD@?$AAr?$AAo@ 000000018002eca8     libucrt:lcidtoname_downlevel.obj
 0002:00006cb0       ??_C@_15FEDGKCDI@?$AAr?$AAu@ 000000018002ecb0     libucrt:lcidtoname_downlevel.obj
 0002:00006cb8       ??_C@_15GLKMLLHM@?$AAh?$AAr@ 000000018002ecb8     libucrt:lcidtoname_downlevel.obj
 0002:00006cc0       ??_C@_15CPKMFBDB@?$AAs?$AAk@ 000000018002ecc0     libucrt:lcidtoname_downlevel.obj
 0002:00006cc8       ??_C@_15BAAIOGMK@?$AAs?$AAq@ 000000018002ecc8     libucrt:lcidtoname_downlevel.obj
 0002:00006cd0       ??_C@_15INNPNOHD@?$AAs?$AAv@ 000000018002ecd0     libucrt:lcidtoname_downlevel.obj
 0002:00006cd8       ??_C@_15CABMMOGH@?$AAt?$AAh@ 000000018002ecd8     libucrt:lcidtoname_downlevel.obj
 0002:00006ce0       ??_C@_15BPLIHJJM@?$AAt?$AAr@ 000000018002ece0     libucrt:lcidtoname_downlevel.obj
 0002:00006ce8       ??_C@_15NEOEKKDJ@?$AAu?$AAr@ 000000018002ece8     libucrt:lcidtoname_downlevel.obj
 0002:00006cf0       ??_C@_15NFICGAJK@?$AAi?$AAd@ 000000018002ecf0     libucrt:lcidtoname_downlevel.obj
 0002:00006cf8       ??_C@_15HPJPHDM@?$AAb?$AAe@ 000000018002ecf8     libucrt:lcidtoname_downlevel.obj
 0002:00006d00       ??_C@_15LCHLGJII@?$AAs?$AAl@ 000000018002ed00     libucrt:lcidtoname_downlevel.obj
 0002:00006d08       ??_C@_15PCFJPHHO@?$AAe?$AAt@ 000000018002ed08     libucrt:lcidtoname_downlevel.obj
 0002:00006d10       ??_C@_15HPFPGODN@?$AAl?$AAv@ 000000018002ed10     libucrt:lcidtoname_downlevel.obj
 0002:00006d18       ??_C@_15NFFGKGLG@?$AAl?$AAt@ 000000018002ed18     libucrt:lcidtoname_downlevel.obj
 0002:00006d20       ??_C@_15BDAKCCHN@?$AAf?$AAa@ 000000018002ed20     libucrt:lcidtoname_downlevel.obj
 0002:00006d28       ??_C@_15NFGIAIAJ@?$AAv?$AAi@ 000000018002ed28     libucrt:lcidtoname_downlevel.obj
 0002:00006d30       ??_C@_15LMKNDMHN@?$AAh?$AAy@ 000000018002ed30     libucrt:lcidtoname_downlevel.obj
 0002:00006d38       ??_C@_15IJBHMCFL@?$AAa?$AAz@ 000000018002ed38     libucrt:lcidtoname_downlevel.obj
 0002:00006d40       ??_C@_15EKOFJABL@?$AAe?$AAu@ 000000018002ed40     libucrt:lcidtoname_downlevel.obj
 0002:00006d48       ??_C@_15BGHADCNK@?$AAm?$AAk@ 000000018002ed48     libucrt:lcidtoname_downlevel.obj
 0002:00006d50       ??_C@_15JDNICKHM@?$AAa?$AAf@ 000000018002ed50     libucrt:lcidtoname_downlevel.obj
 0002:00006d58       ??_C@_15KPJEDBKD@?$AAk?$AAa@ 000000018002ed58     libucrt:lcidtoname_downlevel.obj
 0002:00006d60       ??_C@_15PDNFFFEO@?$AAf?$AAo@ 000000018002ed60     libucrt:lcidtoname_downlevel.obj
 0002:00006d68       ??_C@_15OMLEGLOC@?$AAh?$AAi@ 000000018002ed68     libucrt:lcidtoname_downlevel.obj
 0002:00006d70       ??_C@_15IDNNENKK@?$AAm?$AAs@ 000000018002ed70     libucrt:lcidtoname_downlevel.obj
 0002:00006d78       ??_C@_15MACJNBMH@?$AAk?$AAk@ 000000018002ed78     libucrt:lcidtoname_downlevel.obj
 0002:00006d80       ??_C@_15DKDJEOND@?$AAk?$AAy@ 000000018002ed80     libucrt:lcidtoname_downlevel.obj
 0002:00006d88       ??_C@_15DFGDLJBG@?$AAs?$AAw@ 000000018002ed88     libucrt:lcidtoname_downlevel.obj
 0002:00006d90       ??_C@_15BBFAICNG@?$AAu?$AAz@ 000000018002ed90     libucrt:lcidtoname_downlevel.obj
 0002:00006d98       ??_C@_15DKNDCGEA@?$AAt?$AAt@ 000000018002ed98     libucrt:lcidtoname_downlevel.obj
 0002:00006da0       ??_C@_15MGIFMDPL@?$AAp?$AAa@ 000000018002eda0     libucrt:lcidtoname_downlevel.obj
 0002:00006da8       ??_C@_15HCNDBBA@?$AAg?$AAu@ 000000018002eda8     libucrt:lcidtoname_downlevel.obj
 0002:00006db0       ??_C@_15FNBEIBON@?$AAt?$AAa@ 000000018002edb0     libucrt:lcidtoname_downlevel.obj
 0002:00006db8       ??_C@_15NCHGBGLK@?$AAt?$AAe@ 000000018002edb8     libucrt:lcidtoname_downlevel.obj
 0002:00006dc0       ??_C@_15PHPHCBPF@?$AAk?$AAn@ 000000018002edc0     libucrt:lcidtoname_downlevel.obj
 0002:00006dc8       ??_C@_15DLGBCKMP@?$AAm?$AAr@ 000000018002edc8     libucrt:lcidtoname_downlevel.obj
 0002:00006dd0       ??_C@_15EABBLBFF@?$AAs?$AAa@ 000000018002edd0     libucrt:lcidtoname_downlevel.obj
 0002:00006dd8       ??_C@_15CBKOMCOI@?$AAm?$AAn@ 000000018002edd8     libucrt:lcidtoname_downlevel.obj
 0002:00006de0       ??_C@_15CKDMCJAF@?$AAg?$AAl@ 000000018002ede0     libucrt:lcidtoname_downlevel.obj
 0002:00006de8       ??_C@_17CNJFBPG@?$AAk?$AAo?$AAk@ 000000018002ede8     libucrt:lcidtoname_downlevel.obj
 0002:00006df0       ??_C@_17FFBJICPL@?$AAs?$AAy?$AAr@ 000000018002edf0     libucrt:lcidtoname_downlevel.obj
 0002:00006df8       ??_C@_17KPNDCPAF@?$AAd?$AAi?$AAv@ 000000018002edf8     libucrt:lcidtoname_downlevel.obj
 0002:00006e00       ??_C@_1M@OKAHONE@?$AAa?$AAr?$AA?9?$AAS?$AAA@ 000000018002ee00     libucrt:lcidtoname_downlevel.obj
 0002:00006e10       ??_C@_1M@FFFIGIGK@?$AAb?$AAg?$AA?9?$AAB?$AAG@ 000000018002ee10     libucrt:lcidtoname_downlevel.obj
 0002:00006e20       ??_C@_1M@BJNKEDC@?$AAc?$AAa?$AA?9?$AAE?$AAS@ 000000018002ee20     libucrt:lcidtoname_downlevel.obj
 0002:00006e30       ??_C@_1M@IJJHFJHA@?$AAc?$AAs?$AA?9?$AAC?$AAZ@ 000000018002ee30     libucrt:lcidtoname_downlevel.obj
 0002:00006e40       ??_C@_1M@CLPEOBGI@?$AAd?$AAa?$AA?9?$AAD?$AAK@ 000000018002ee40     libucrt:lcidtoname_downlevel.obj
 0002:00006e50       ??_C@_1M@MCMADGCB@?$AAd?$AAe?$AA?9?$AAD?$AAE@ 000000018002ee50     libucrt:lcidtoname_downlevel.obj
 0002:00006e60       ??_C@_1M@OOCKEMAM@?$AAe?$AAl?$AA?9?$AAG?$AAR@ 000000018002ee60     libucrt:lcidtoname_downlevel.obj
 0002:00006e70       ??_C@_1M@DDNJFGID@?$AAf?$AAi?$AA?9?$AAF?$AAI@ 000000018002ee70     libucrt:lcidtoname_downlevel.obj
 0002:00006e80       ??_C@_1M@GLIPPMAC@?$AAf?$AAr?$AA?9?$AAF?$AAR@ 000000018002ee80     libucrt:lcidtoname_downlevel.obj
 0002:00006e90       ??_C@_1M@GFMCHPE@?$AAh?$AAe?$AA?9?$AAI?$AAL@ 000000018002ee90     libucrt:lcidtoname_downlevel.obj
 0002:00006ea0       ??_C@_1M@MHLPGNKM@?$AAh?$AAu?$AA?9?$AAH?$AAU@ 000000018002eea0     libucrt:lcidtoname_downlevel.obj
 0002:00006eb0       ??_C@_1M@LPDDNNPN@?$AAi?$AAs?$AA?9?$AAI?$AAS@ 000000018002eeb0     libucrt:lcidtoname_downlevel.obj
 0002:00006ec0       ??_C@_1M@MADIPODN@?$AAi?$AAt?$AA?9?$AAI?$AAT@ 000000018002eec0     libucrt:lcidtoname_downlevel.obj
 0002:00006ed0       ??_C@_1M@IHBJJGG@?$AAn?$AAl?$AA?9?$AAN?$AAL@ 000000018002eed0     libucrt:lcidtoname_downlevel.obj
 0002:00006ee0       ??_C@_1M@EANAGDL@?$AAn?$AAb?$AA?9?$AAN?$AAO@ 000000018002eee0     libucrt:lcidtoname_downlevel.obj
 0002:00006ef0       ??_C@_1M@NEIEMEGP@?$AAp?$AAl?$AA?9?$AAP?$AAL@ 000000018002eef0     libucrt:lcidtoname_downlevel.obj
 0002:00006f00       ??_C@_1M@BOCFIGEP@?$AAp?$AAt?$AA?9?$AAB?$AAR@ 000000018002ef00     libucrt:lcidtoname_downlevel.obj
 0002:00006f10       ??_C@_1M@IMPFOPBG@?$AAr?$AAo?$AA?9?$AAR?$AAO@ 000000018002ef10     libucrt:lcidtoname_downlevel.obj
 0002:00006f20       ??_C@_1M@IDNNEJMM@?$AAr?$AAu?$AA?9?$AAR?$AAU@ 000000018002ef20     libucrt:lcidtoname_downlevel.obj
 0002:00006f30       ??_C@_1M@LILEEOGM@?$AAh?$AAr?$AA?9?$AAH?$AAR@ 000000018002ef30     libucrt:lcidtoname_downlevel.obj
 0002:00006f40       ??_C@_1M@FKIFEHPB@?$AAs?$AAk?$AA?9?$AAS?$AAK@ 000000018002ef40     libucrt:lcidtoname_downlevel.obj
 0002:00006f50       ??_C@_1M@LJMAMNPJ@?$AAs?$AAq?$AA?9?$AAA?$AAL@ 000000018002ef50     libucrt:lcidtoname_downlevel.obj
 0002:00006f60       ??_C@_1M@GIAKDKJK@?$AAs?$AAv?$AA?9?$AAS?$AAE@ 000000018002ef60     libucrt:lcidtoname_downlevel.obj
 0002:00006f70       ??_C@_1M@MKJKIKCL@?$AAt?$AAh?$AA?9?$AAT?$AAH@ 000000018002ef70     libucrt:lcidtoname_downlevel.obj
 0002:00006f80       ??_C@_1M@MFLCCMPB@?$AAt?$AAr?$AA?9?$AAT?$AAR@ 000000018002ef80     libucrt:lcidtoname_downlevel.obj
 0002:00006f90       ??_C@_1M@OIJHDKJN@?$AAu?$AAr?$AA?9?$AAP?$AAK@ 000000018002ef90     libucrt:lcidtoname_downlevel.obj
 0002:00006fa0       ??_C@_1M@LHIPCIEK@?$AAi?$AAd?$AA?9?$AAI?$AAD@ 000000018002efa0     libucrt:lcidtoname_downlevel.obj
 0002:00006fb0       ??_C@_1M@MFMOBGI@?$AAu?$AAk?$AA?9?$AAU?$AAA@ 000000018002efb0     libucrt:lcidtoname_downlevel.obj
 0002:00006fc0       ??_C@_1M@OBGLJIPL@?$AAb?$AAe?$AA?9?$AAB?$AAY@ 000000018002efc0     libucrt:lcidtoname_downlevel.obj
 0002:00006fd0       ??_C@_1M@BCFAJEAD@?$AAs?$AAl?$AA?9?$AAS?$AAI@ 000000018002efd0     libucrt:lcidtoname_downlevel.obj
 0002:00006fe0       ??_C@_1M@FKFFEDDN@?$AAe?$AAt?$AA?9?$AAE?$AAE@ 000000018002efe0     libucrt:lcidtoname_downlevel.obj
 0002:00006ff0       ??_C@_1M@KGKKAACI@?$AAl?$AAv?$AA?9?$AAL?$AAV@ 000000018002eff0     libucrt:lcidtoname_downlevel.obj
 0002:00007000       ??_C@_1M@IFGBIJO@?$AAl?$AAt?$AA?9?$AAL?$AAT@ 000000018002f000     libucrt:lcidtoname_downlevel.obj
 0002:00007010       ??_C@_1M@FGEAHEDM@?$AAf?$AAa?$AA?9?$AAI?$AAR@ 000000018002f010     libucrt:lcidtoname_downlevel.obj
 0002:00007020       ??_C@_1M@KBMAIBFN@?$AAv?$AAi?$AA?9?$AAV?$AAN@ 000000018002f020     libucrt:lcidtoname_downlevel.obj
 0002:00007030       ??_C@_1M@GPCBKDJK@?$AAh?$AAy?$AA?9?$AAA?$AAM@ 000000018002f030     libucrt:lcidtoname_downlevel.obj
 0002:00007040       ??_C@_1BG@BECMDDJB@?$AAa?$AAz?$AA?9?$AAA?$AAZ?$AA?9?$AAL?$AAa?$AAt?$AAn@ 000000018002f040     libucrt:lcidtoname_downlevel.obj
 0002:00007058       ??_C@_1M@MAOFCAEA@?$AAe?$AAu?$AA?9?$AAE?$AAS@ 000000018002f058     libucrt:lcidtoname_downlevel.obj
 0002:00007068       ??_C@_1M@IGHABKPI@?$AAm?$AAk?$AA?9?$AAM?$AAK@ 000000018002f068     libucrt:lcidtoname_downlevel.obj
 0002:00007078       ??_C@_1M@IAIGNEJG@?$AAt?$AAn?$AA?9?$AAZ?$AAA@ 000000018002f078     libucrt:lcidtoname_downlevel.obj
 0002:00007088       ??_C@_1M@IIJCOJFA@?$AAx?$AAh?$AA?9?$AAZ?$AAA@ 000000018002f088     libucrt:lcidtoname_downlevel.obj
 0002:00007098       ??_C@_1M@LGPJHNJH@?$AAz?$AAu?$AA?9?$AAZ?$AAA@ 000000018002f098     libucrt:lcidtoname_downlevel.obj
 0002:000070a8       ??_C@_1M@HOKAOIO@?$AAa?$AAf?$AA?9?$AAZ?$AAA@ 000000018002f0a8     libucrt:lcidtoname_downlevel.obj
 0002:000070b8       ??_C@_1M@DPCLHLIE@?$AAk?$AAa?$AA?9?$AAG?$AAE@ 000000018002f0b8     libucrt:lcidtoname_downlevel.obj
 0002:000070c8       ??_C@_1M@BLKMHJBI@?$AAf?$AAo?$AA?9?$AAF?$AAO@ 000000018002f0c8     libucrt:lcidtoname_downlevel.obj
 0002:000070d8       ??_C@_1M@LGGJAPPB@?$AAh?$AAi?$AA?9?$AAI?$AAN@ 000000018002f0d8     libucrt:lcidtoname_downlevel.obj
 0002:000070e8       ??_C@_1M@FIKPIHFE@?$AAm?$AAt?$AA?9?$AAM?$AAT@ 000000018002f0e8     libucrt:lcidtoname_downlevel.obj
 0002:000070f8       ??_C@_1M@HEGGPBFA@?$AAs?$AAe?$AA?9?$AAN?$AAO@ 000000018002f0f8     libucrt:lcidtoname_downlevel.obj
 0002:00007108       ??_C@_1M@EIBJEEPA@?$AAm?$AAs?$AA?9?$AAM?$AAY@ 000000018002f108     libucrt:lcidtoname_downlevel.obj
 0002:00007118       ??_C@_1M@FHLBGMPP@?$AAk?$AAk?$AA?9?$AAK?$AAZ@ 000000018002f118     libucrt:lcidtoname_downlevel.obj
 0002:00007128       ??_C@_1M@NGJJLCGI@?$AAk?$AAy?$AA?9?$AAK?$AAG@ 000000018002f128     libucrt:lcidtoname_downlevel.obj
 0002:00007138       ??_C@_1M@GIENNBFC@?$AAs?$AAw?$AA?9?$AAK?$AAE@ 000000018002f138     libucrt:lcidtoname_downlevel.obj
 0002:00007148       ??_C@_1BG@NDGMJIMJ@?$AAu?$AAz?$AA?9?$AAU?$AAZ?$AA?9?$AAL?$AAa?$AAt?$AAn@ 000000018002f148     libucrt:lcidtoname_downlevel.obj
 0002:00007160       ??_C@_1M@IDCCIHBC@?$AAt?$AAt?$AA?9?$AAR?$AAU@ 000000018002f160     libucrt:lcidtoname_downlevel.obj
 0002:00007170       ??_C@_1M@LOICPMOJ@?$AAb?$AAn?$AA?9?$AAI?$AAN@ 000000018002f170     libucrt:lcidtoname_downlevel.obj
 0002:00007180       ??_C@_1M@KPKKNEAH@?$AAp?$AAa?$AA?9?$AAI?$AAN@ 000000018002f180     libucrt:lcidtoname_downlevel.obj
 0002:00007190       ??_C@_1M@PJGPPBOG@?$AAg?$AAu?$AA?9?$AAI?$AAN@ 000000018002f190     libucrt:lcidtoname_downlevel.obj
 0002:000071a0       ??_C@_1M@KMKMOPHI@?$AAt?$AAa?$AA?9?$AAI?$AAN@ 000000018002f1a0     libucrt:lcidtoname_downlevel.obj
 0002:000071b0       ??_C@_1M@KFEHEPAC@?$AAt?$AAe?$AA?9?$AAI?$AAN@ 000000018002f1b0     libucrt:lcidtoname_downlevel.obj
 0002:000071c0       ??_C@_1M@CDCLMGHI@?$AAk?$AAn?$AA?9?$AAI?$AAN@ 000000018002f1c0     libucrt:lcidtoname_downlevel.obj
 0002:000071d0       ??_C@_1M@MIODLDKF@?$AAm?$AAl?$AA?9?$AAI?$AAN@ 000000018002f1d0     libucrt:lcidtoname_downlevel.obj
 0002:000071e0       ??_C@_1M@PBIEACPO@?$AAm?$AAr?$AA?9?$AAI?$AAN@ 000000018002f1e0     libucrt:lcidtoname_downlevel.obj
 0002:000071f0       ??_C@_1M@NIDEAGPH@?$AAs?$AAa?$AA?9?$AAI?$AAN@ 000000018002f1f0     libucrt:lcidtoname_downlevel.obj
 0002:00007200       ??_C@_1M@FHIHCBIO@?$AAm?$AAn?$AA?9?$AAM?$AAN@ 000000018002f200     libucrt:lcidtoname_downlevel.obj
 0002:00007210       ??_C@_1M@JAIJPENP@?$AAc?$AAy?$AA?9?$AAG?$AAB@ 000000018002f210     libucrt:lcidtoname_downlevel.obj
 0002:00007220       ??_C@_1M@PHGFBEPN@?$AAg?$AAl?$AA?9?$AAE?$AAS@ 000000018002f220     libucrt:lcidtoname_downlevel.obj
 0002:00007230       ??_C@_1O@KPIPDNCP@?$AAk?$AAo?$AAk?$AA?9?$AAI?$AAN@ 000000018002f230     libucrt:lcidtoname_downlevel.obj
 0002:00007240       ??_C@_1O@KNHJLDJA@?$AAs?$AAy?$AAr?$AA?9?$AAS?$AAY@ 000000018002f240     libucrt:lcidtoname_downlevel.obj
 0002:00007250       ??_C@_1O@MKEKBLAH@?$AAd?$AAi?$AAv?$AA?9?$AAM?$AAV@ 000000018002f250     libucrt:lcidtoname_downlevel.obj
 0002:00007260       ??_C@_1O@OHDCKDDF@?$AAq?$AAu?$AAz?$AA?9?$AAB?$AAO@ 000000018002f260     libucrt:lcidtoname_downlevel.obj
 0002:00007270       ??_C@_1M@LEPJNLFD@?$AAn?$AAs?$AA?9?$AAZ?$AAA@ 000000018002f270     libucrt:lcidtoname_downlevel.obj
 0002:00007280       ??_C@_1M@OMLEIIJB@?$AAm?$AAi?$AA?9?$AAN?$AAZ@ 000000018002f280     libucrt:lcidtoname_downlevel.obj
 0002:00007290       ??_C@_1M@PMPEAILG@?$AAa?$AAr?$AA?9?$AAI?$AAQ@ 000000018002f290     libucrt:lcidtoname_downlevel.obj
 0002:000072a0       ??_C@_1M@CNKPNOEE@?$AAd?$AAe?$AA?9?$AAC?$AAH@ 000000018002f2a0     libucrt:lcidtoname_downlevel.obj
 0002:000072b0       ??_C@_1M@LKMGMLKO@?$AAe?$AAn?$AA?9?$AAG?$AAB@ 000000018002f2b0     libucrt:lcidtoname_downlevel.obj
 0002:000072c0       ??_C@_1M@PGKJFFGL@?$AAe?$AAs?$AA?9?$AAM?$AAX@ 000000018002f2c0     libucrt:lcidtoname_downlevel.obj
 0002:000072d0       ??_C@_1M@DNNANBDC@?$AAf?$AAr?$AA?9?$AAB?$AAE@ 000000018002f2d0     libucrt:lcidtoname_downlevel.obj
 0002:000072e0       ??_C@_1M@HLGMDFHM@?$AAi?$AAt?$AA?9?$AAC?$AAH@ 000000018002f2e0     libucrt:lcidtoname_downlevel.obj
 0002:000072f0       ??_C@_1M@CLLBGJH@?$AAn?$AAl?$AA?9?$AAB?$AAE@ 000000018002f2f0     libucrt:lcidtoname_downlevel.obj
 0002:00007300       ??_C@_1M@BODBOGLF@?$AAn?$AAn?$AA?9?$AAN?$AAO@ 000000018002f300     libucrt:lcidtoname_downlevel.obj
 0002:00007310       ??_C@_1M@HFFAHKAD@?$AAp?$AAt?$AA?9?$AAP?$AAT@ 000000018002f310     libucrt:lcidtoname_downlevel.obj
 0002:00007320       ??_C@_1BG@LNOAKHIE@?$AAs?$AAr?$AA?9?$AAS?$AAP?$AA?9?$AAL?$AAa?$AAt?$AAn@ 000000018002f320     libucrt:lcidtoname_downlevel.obj
 0002:00007338       ??_C@_1M@HBMHBGAK@?$AAs?$AAv?$AA?9?$AAF?$AAI@ 000000018002f338     libucrt:lcidtoname_downlevel.obj
 0002:00007348       ??_C@_1BG@DGCJGJBE@?$AAa?$AAz?$AA?9?$AAA?$AAZ?$AA?9?$AAC?$AAy?$AAr?$AAl@ 000000018002f348     libucrt:lcidtoname_downlevel.obj
 0002:00007360       ??_C@_1M@KEJDAAHB@?$AAs?$AAe?$AA?9?$AAS?$AAE@ 000000018002f360     libucrt:lcidtoname_downlevel.obj
 0002:00007370       ??_C@_1M@HEIBJJAD@?$AAm?$AAs?$AA?9?$AAB?$AAN@ 000000018002f370     libucrt:lcidtoname_downlevel.obj
 0002:00007380       ??_C@_1BG@PBGJMCEM@?$AAu?$AAz?$AA?9?$AAU?$AAZ?$AA?9?$AAC?$AAy?$AAr?$AAl@ 000000018002f380     libucrt:lcidtoname_downlevel.obj
 0002:00007398       ??_C@_1O@LAOBCMDF@?$AAq?$AAu?$AAz?$AA?9?$AAE?$AAC@ 000000018002f398     libucrt:lcidtoname_downlevel.obj
 0002:000073a8       ??_C@_1M@POEEMAIO@?$AAa?$AAr?$AA?9?$AAE?$AAG@ 000000018002f3a8     libucrt:lcidtoname_downlevel.obj
 0002:000073b8       ??_C@_1M@EFAKDEDL@?$AAz?$AAh?$AA?9?$AAH?$AAK@ 000000018002f3b8     libucrt:lcidtoname_downlevel.obj
 0002:000073c8       ??_C@_1M@HKKIJHGI@?$AAd?$AAe?$AA?9?$AAA?$AAT@ 000000018002f3c8     libucrt:lcidtoname_downlevel.obj
 0002:000073d8       ??_C@_1M@KBFBEHJF@?$AAe?$AAn?$AA?9?$AAA?$AAU@ 000000018002f3d8     libucrt:lcidtoname_downlevel.obj
 0002:000073e8       ??_C@_1M@MNPLFAAH@?$AAe?$AAs?$AA?9?$AAE?$AAS@ 000000018002f3e8     libucrt:lcidtoname_downlevel.obj
 0002:000073f8       ??_C@_1M@HJOOJFMA@?$AAf?$AAr?$AA?9?$AAC?$AAA@ 000000018002f3f8     libucrt:lcidtoname_downlevel.obj
 0002:00007408       ??_C@_1BG@JPOFPNAB@?$AAs?$AAr?$AA?9?$AAS?$AAP?$AA?9?$AAC?$AAy?$AAr?$AAl@ 000000018002f408     libucrt:lcidtoname_downlevel.obj
 0002:00007420       ??_C@_1M@LNFOCMOB@?$AAs?$AAe?$AA?9?$AAF?$AAI@ 000000018002f420     libucrt:lcidtoname_downlevel.obj
 0002:00007430       ??_C@_1O@MGJBOAMB@?$AAq?$AAu?$AAz?$AA?9?$AAP?$AAE@ 000000018002f430     libucrt:lcidtoname_downlevel.obj
 0002:00007440       ??_C@_1M@GJINLBOK@?$AAa?$AAr?$AA?9?$AAL?$AAY@ 000000018002f440     libucrt:lcidtoname_downlevel.obj
 0002:00007450       ??_C@_1M@GGMNHJNL@?$AAz?$AAh?$AA?9?$AAS?$AAG@ 000000018002f450     libucrt:lcidtoname_downlevel.obj
 0002:00007460       ??_C@_1M@HOIKODND@?$AAd?$AAe?$AA?9?$AAL?$AAU@ 000000018002f460     libucrt:lcidtoname_downlevel.obj
 0002:00007470       ??_C@_1M@DDOCCGFG@?$AAe?$AAn?$AA?9?$AAC?$AAA@ 000000018002f470     libucrt:lcidtoname_downlevel.obj
 0002:00007480       ??_C@_1M@BNOEMJLF@?$AAe?$AAs?$AA?9?$AAG?$AAT@ 000000018002f480     libucrt:lcidtoname_downlevel.obj
 0002:00007490       ??_C@_1M@EOGNKEK@?$AAf?$AAr?$AA?9?$AAC?$AAH@ 000000018002f490     libucrt:lcidtoname_downlevel.obj
 0002:000074a0       ??_C@_1M@FLIDJFHL@?$AAh?$AAr?$AA?9?$AAB?$AAA@ 000000018002f4a0     libucrt:lcidtoname_downlevel.obj
 0002:000074b0       ??_C@_1O@FMCELNAJ@?$AAs?$AAm?$AAj?$AA?9?$AAN?$AAO@ 000000018002f4b0     libucrt:lcidtoname_downlevel.obj
 0002:000074c0       ??_C@_1M@JHGLJMGJ@?$AAa?$AAr?$AA?9?$AAD?$AAZ@ 000000018002f4c0     libucrt:lcidtoname_downlevel.obj
 0002:000074d0       ??_C@_1M@JKKFDCNP@?$AAz?$AAh?$AA?9?$AAM?$AAO@ 000000018002f4d0     libucrt:lcidtoname_downlevel.obj
 0002:000074e0       ??_C@_1M@GEEFALPE@?$AAd?$AAe?$AA?9?$AAL?$AAI@ 000000018002f4e0     libucrt:lcidtoname_downlevel.obj
 0002:000074f0       ??_C@_1M@IGEOFBG@?$AAe?$AAn?$AA?9?$AAN?$AAZ@ 000000018002f4f0     libucrt:lcidtoname_downlevel.obj
 0002:00007500       ??_C@_1M@KDBONEHP@?$AAe?$AAs?$AA?9?$AAC?$AAR@ 000000018002f500     libucrt:lcidtoname_downlevel.obj
 0002:00007510       ??_C@_1M@FHMDOHNN@?$AAf?$AAr?$AA?9?$AAL?$AAU@ 000000018002f510     libucrt:lcidtoname_downlevel.obj
 0002:00007520       ??_C@_1BG@NFKKMAFG@?$AAb?$AAs?$AA?9?$AAB?$AAA?$AA?9?$AAL?$AAa?$AAt?$AAn@ 000000018002f520     libucrt:lcidtoname_downlevel.obj
 0002:00007538       ??_C@_1O@IMNBEMCI@?$AAs?$AAm?$AAj?$AA?9?$AAS?$AAE@ 000000018002f538     libucrt:lcidtoname_downlevel.obj
 0002:00007548       ??_C@_1M@DHHMBNDP@?$AAa?$AAr?$AA?9?$AAM?$AAA@ 000000018002f548     libucrt:lcidtoname_downlevel.obj
 0002:00007558       ??_C@_1M@BNBLJCGH@?$AAe?$AAn?$AA?9?$AAI?$AAE@ 000000018002f558     libucrt:lcidtoname_downlevel.obj
 0002:00007568       ??_C@_1M@GEPAFMDL@?$AAe?$AAs?$AA?9?$AAP?$AAA@ 000000018002f568     libucrt:lcidtoname_downlevel.obj
 0002:00007578       ??_C@_1M@OJONDMDL@?$AAf?$AAr?$AA?9?$AAM?$AAC@ 000000018002f578     libucrt:lcidtoname_downlevel.obj
 0002:00007588       ??_C@_1BG@OBCNFJB@?$AAs?$AAr?$AA?9?$AAB?$AAA?$AA?9?$AAL?$AAa?$AAt?$AAn@ 000000018002f588     libucrt:lcidtoname_downlevel.obj
 0002:000075a0       ??_C@_1O@KEMEEGPO@?$AAs?$AAm?$AAa?$AA?9?$AAN?$AAO@ 000000018002f5a0     libucrt:lcidtoname_downlevel.obj
 0002:000075b0       ??_C@_1M@ELMGFODK@?$AAa?$AAr?$AA?9?$AAT?$AAN@ 000000018002f5b0     libucrt:lcidtoname_downlevel.obj
 0002:000075c0       ??_C@_1M@BHDLHFAF@?$AAe?$AAn?$AA?9?$AAZ?$AAA@ 000000018002f5c0     libucrt:lcidtoname_downlevel.obj
 0002:000075d0       ??_C@_1M@BMGIGLIF@?$AAe?$AAs?$AA?9?$AAD?$AAO@ 000000018002f5d0     libucrt:lcidtoname_downlevel.obj
 0002:000075e0       ??_C@_1BG@CMBHIPBE@?$AAs?$AAr?$AA?9?$AAB?$AAA?$AA?9?$AAC?$AAy?$AAr?$AAl@ 000000018002f5e0     libucrt:lcidtoname_downlevel.obj
 0002:000075f8       ??_C@_1O@HEDBLHNP@?$AAs?$AAm?$AAa?$AA?9?$AAS?$AAE@ 000000018002f5f8     libucrt:lcidtoname_downlevel.obj
 0002:00007608       ??_C@_1M@DAGCADIM@?$AAa?$AAr?$AA?9?$AAO?$AAM@ 000000018002f608     libucrt:lcidtoname_downlevel.obj
 0002:00007618       ??_C@_1M@FODLMICG@?$AAe?$AAn?$AA?9?$AAJ?$AAM@ 000000018002f618     libucrt:lcidtoname_downlevel.obj
 0002:00007628       ??_C@_1M@DNMLCIHB@?$AAe?$AAs?$AA?9?$AAV?$AAE@ 000000018002f628     libucrt:lcidtoname_downlevel.obj
 0002:00007638       ??_C@_1O@EOKHMKJK@?$AAs?$AAm?$AAs?$AA?9?$AAF?$AAI@ 000000018002f638     libucrt:lcidtoname_downlevel.obj
 0002:00007648       ??_C@_1M@CAFJMKOF@?$AAa?$AAr?$AA?9?$AAY?$AAE@ 000000018002f648     libucrt:lcidtoname_downlevel.obj
 0002:00007658       ??_C@_1M@CBFHIJLI@?$AAe?$AAn?$AA?9?$AAC?$AAB@ 000000018002f658     libucrt:lcidtoname_downlevel.obj
 0002:00007668       ??_C@_1M@BGNFLDN@?$AAe?$AAs?$AA?9?$AAC?$AAO@ 000000018002f668     libucrt:lcidtoname_downlevel.obj
 0002:00007678       ??_C@_1O@JMPHMAMC@?$AAs?$AAm?$AAn?$AA?9?$AAF?$AAI@ 000000018002f678     libucrt:lcidtoname_downlevel.obj
 0002:00007688       ??_C@_1M@JLANABKE@?$AAa?$AAr?$AA?9?$AAS?$AAY@ 000000018002f688     libucrt:lcidtoname_downlevel.obj
 0002:00007698       ??_C@_1M@HPKGCFGN@?$AAe?$AAn?$AA?9?$AAB?$AAZ@ 000000018002f698     libucrt:lcidtoname_downlevel.obj
 0002:000076a8       ??_C@_1M@OLJCMLGM@?$AAe?$AAs?$AA?9?$AAP?$AAE@ 000000018002f6a8     libucrt:lcidtoname_downlevel.obj
 0002:000076b8       ??_C@_1M@MKKGFKLE@?$AAa?$AAr?$AA?9?$AAJ?$AAO@ 000000018002f6b8     libucrt:lcidtoname_downlevel.obj
 0002:000076c8       ??_C@_1M@EKPGLDNI@?$AAe?$AAn?$AA?9?$AAT?$AAT@ 000000018002f6c8     libucrt:lcidtoname_downlevel.obj
 0002:000076d8       ??_C@_1M@OONGHFHE@?$AAe?$AAs?$AA?9?$AAA?$AAR@ 000000018002f6d8     libucrt:lcidtoname_downlevel.obj
 0002:000076e8       ??_C@_1M@OOJFGBHE@?$AAa?$AAr?$AA?9?$AAL?$AAB@ 000000018002f6e8     libucrt:lcidtoname_downlevel.obj
 0002:000076f8       ??_C@_1M@GCEJHNEG@?$AAe?$AAn?$AA?9?$AAZ?$AAW@ 000000018002f6f8     libucrt:lcidtoname_downlevel.obj
 0002:00007708       ??_C@_1M@JNOCAHJI@?$AAe?$AAs?$AA?9?$AAE?$AAC@ 000000018002f708     libucrt:lcidtoname_downlevel.obj
 0002:00007718       ??_C@_1M@JEFHPGGB@?$AAa?$AAr?$AA?9?$AAK?$AAW@ 000000018002f718     libucrt:lcidtoname_downlevel.obj
 0002:00007728       ??_C@_1M@MLKIBJOJ@?$AAe?$AAn?$AA?9?$AAP?$AAH@ 000000018002f728     libucrt:lcidtoname_downlevel.obj
 0002:00007738       ??_C@_1M@BDNIPEND@?$AAe?$AAs?$AA?9?$AAC?$AAL@ 000000018002f738     libucrt:lcidtoname_downlevel.obj
 0002:00007748       ??_C@_1M@MPNMEKBD@?$AAa?$AAr?$AA?9?$AAA?$AAE@ 000000018002f748     libucrt:lcidtoname_downlevel.obj
 0002:00007758       ??_C@_1M@KBJALCPI@?$AAe?$AAs?$AA?9?$AAU?$AAY@ 000000018002f758     libucrt:lcidtoname_downlevel.obj
 0002:00007768       ??_C@_1M@LLCCOAGA@?$AAa?$AAr?$AA?9?$AAB?$AAH@ 000000018002f768     libucrt:lcidtoname_downlevel.obj
 0002:00007778       ??_C@_1M@PBFNCDEL@?$AAe?$AAs?$AA?9?$AAP?$AAY@ 000000018002f778     libucrt:lcidtoname_downlevel.obj
 0002:00007788       ??_C@_1M@EDGINPNP@?$AAa?$AAr?$AA?9?$AAQ?$AAA@ 000000018002f788     libucrt:lcidtoname_downlevel.obj
 0002:00007798       ??_C@_1M@MKDBIIJI@?$AAe?$AAs?$AA?9?$AAB?$AAO@ 000000018002f798     libucrt:lcidtoname_downlevel.obj
 0002:000077a8       ??_C@_1M@CPKKEBLD@?$AAe?$AAs?$AA?9?$AAS?$AAV@ 000000018002f7a8     libucrt:lcidtoname_downlevel.obj
 0002:000077b8       ??_C@_1M@NDBGMMJL@?$AAe?$AAs?$AA?9?$AAH?$AAN@ 000000018002f7b8     libucrt:lcidtoname_downlevel.obj
 0002:000077c8       ??_C@_1M@JIJIBHDP@?$AAe?$AAs?$AA?9?$AAN?$AAI@ 000000018002f7c8     libucrt:lcidtoname_downlevel.obj
 0002:000077d8       ??_C@_1M@CGFMKEEK@?$AAe?$AAs?$AA?9?$AAP?$AAR@ 000000018002f7d8     libucrt:lcidtoname_downlevel.obj
 0002:000077e8       ??_C@_1O@ICJHKIIK@?$AAz?$AAh?$AA?9?$AAC?$AAH?$AAT@ 000000018002f7e8     libucrt:lcidtoname_downlevel.obj
 0002:000077f8       ??_C@_15CLNEJCE@?$AAs?$AAr@ 000000018002f7f8     libucrt:lcidtoname_downlevel.obj
 0002:00008640       ??_C@_1M@KAHEKEIG@?$AAa?$AAf?$AA?9?$AAz?$AAa@ 0000000180030640     libucrt:lcidtoname_downlevel.obj
 0002:00008650       ??_C@_1M@GIECOABL@?$AAa?$AAr?$AA?9?$AAa?$AAe@ 0000000180030650     libucrt:lcidtoname_downlevel.obj
 0002:00008660       ??_C@_1M@BMLMEKGI@?$AAa?$AAr?$AA?9?$AAb?$AAh@ 0000000180030660     libucrt:lcidtoname_downlevel.obj
 0002:00008670       ??_C@_1M@DAPFDGGB@?$AAa?$AAr?$AA?9?$AAd?$AAz@ 0000000180030670     libucrt:lcidtoname_downlevel.obj
 0002:00008680       ??_C@_1M@FJNKGKIG@?$AAa?$AAr?$AA?9?$AAe?$AAg@ 0000000180030680     libucrt:lcidtoname_downlevel.obj
 0002:00008690       ??_C@_1M@FLGKKCLO@?$AAa?$AAr?$AA?9?$AAi?$AAq@ 0000000180030690     libucrt:lcidtoname_downlevel.obj
 0002:000086a0       ??_C@_1M@GNDIPALM@?$AAa?$AAr?$AA?9?$AAj?$AAo@ 00000001800306a0     libucrt:lcidtoname_downlevel.obj
 0002:000086b0       ??_C@_1M@DDMJFMGJ@?$AAa?$AAr?$AA?9?$AAk?$AAw@ 00000001800306b0     libucrt:lcidtoname_downlevel.obj
 0002:000086c0       ??_C@_1M@EJALMLHM@?$AAa?$AAr?$AA?9?$AAl?$AAb@ 00000001800306c0     libucrt:lcidtoname_downlevel.obj
 0002:000086d0       ??_C@_1M@MOBDBLOC@?$AAa?$AAr?$AA?9?$AAl?$AAy@ 00000001800306d0     libucrt:lcidtoname_downlevel.obj
 0002:000086e0       ??_C@_1M@JAOCLHDH@?$AAa?$AAr?$AA?9?$AAm?$AAa@ 00000001800306e0     libucrt:lcidtoname_downlevel.obj
 0002:000086f0       ??_C@_1M@JHPMKJIE@?$AAa?$AAr?$AA?9?$AAo?$AAm@ 00000001800306f0     libucrt:lcidtoname_downlevel.obj
 0002:00008700       ??_C@_1M@OEPGHFNH@?$AAa?$AAr?$AA?9?$AAq?$AAa@ 0000000180030700     libucrt:lcidtoname_downlevel.obj
 0002:00008710       ??_C@_1M@KJDONENM@?$AAa?$AAr?$AA?9?$AAs?$AAa@ 0000000180030710     libucrt:lcidtoname_downlevel.obj
 0002:00008720       ??_C@_1M@DMJDKLKM@?$AAa?$AAr?$AA?9?$AAs?$AAy@ 0000000180030720     libucrt:lcidtoname_downlevel.obj
 0002:00008730       ??_C@_1M@OMFIPEDC@?$AAa?$AAr?$AA?9?$AAt?$AAn@ 0000000180030730     libucrt:lcidtoname_downlevel.obj
 0002:00008740       ??_C@_1M@IHMHGAON@?$AAa?$AAr?$AA?9?$AAy?$AAe@ 0000000180030740     libucrt:lcidtoname_downlevel.obj
 0002:00008750       ??_C@_1BG@KDCPGJGB@?$AAa?$AAz?$AA?9?$AAa?$AAz?$AA?9?$AAc?$AAy?$AAr?$AAl@ 0000000180030750     libucrt:lcidtoname_downlevel.obj
 0002:00008768       ??_C@_1BG@IBCKDDOE@?$AAa?$AAz?$AA?9?$AAa?$AAz?$AA?9?$AAl?$AAa?$AAt?$AAn@ 0000000180030768     libucrt:lcidtoname_downlevel.obj
 0002:00008780       ??_C@_1M@EGPFDCPD@?$AAb?$AAe?$AA?9?$AAb?$AAy@ 0000000180030780     libucrt:lcidtoname_downlevel.obj
 0002:00008790       ??_C@_1M@PCMGMCGC@?$AAb?$AAg?$AA?9?$AAb?$AAg@ 0000000180030790     libucrt:lcidtoname_downlevel.obj
 0002:000087a0       ??_C@_1M@BJBMFGOB@?$AAb?$AAn?$AA?9?$AAi?$AAn@ 00000001800307a0     libucrt:lcidtoname_downlevel.obj
 0002:000087b0       ??_C@_1BG@EAKMMACD@?$AAb?$AAs?$AA?9?$AAb?$AAa?$AA?9?$AAl?$AAa?$AAt?$AAn@ 00000001800307b0     libucrt:lcidtoname_downlevel.obj
 0002:000087c8       ??_C@_1M@KGADAODK@?$AAc?$AAa?$AA?9?$AAe?$AAs@ 00000001800307c8     libucrt:lcidtoname_downlevel.obj
 0002:000087d8       ??_C@_1M@COAJPDHI@?$AAc?$AAs?$AA?9?$AAc?$AAz@ 00000001800307d8     libucrt:lcidtoname_downlevel.obj
 0002:000087e8       ??_C@_1M@DHBHFONH@?$AAc?$AAy?$AA?9?$AAg?$AAb@ 00000001800307e8     libucrt:lcidtoname_downlevel.obj
 0002:000087f8       ??_C@_1M@IMGKELGA@?$AAd?$AAa?$AA?9?$AAd?$AAk@ 00000001800307f8     libucrt:lcidtoname_downlevel.obj
 0002:00008808       ??_C@_1M@NNDGDNGA@?$AAd?$AAe?$AA?9?$AAa?$AAt@ 0000000180030808     libucrt:lcidtoname_downlevel.obj
 0002:00008818       ??_C@_1M@IKDBHEEM@?$AAd?$AAe?$AA?9?$AAc?$AAh@ 0000000180030818     libucrt:lcidtoname_downlevel.obj
 0002:00008828       ??_C@_1M@GFFOJMCJ@?$AAd?$AAe?$AA?9?$AAd?$AAe@ 0000000180030828     libucrt:lcidtoname_downlevel.obj
 0002:00008838       ??_C@_1M@MDNLKBPM@?$AAd?$AAe?$AA?9?$AAl?$AAi@ 0000000180030838     libucrt:lcidtoname_downlevel.obj
 0002:00008848       ??_C@_1M@NJBEEJNL@?$AAd?$AAe?$AA?9?$AAl?$AAu@ 0000000180030848     libucrt:lcidtoname_downlevel.obj
 0002:00008858       ??_C@_1O@GNNELBAP@?$AAd?$AAi?$AAv?$AA?9?$AAm?$AAv@ 0000000180030858     libucrt:lcidtoname_downlevel.obj
 0002:00008868       ??_C@_1M@EJLEOGAE@?$AAe?$AAl?$AA?9?$AAg?$AAr@ 0000000180030868     libucrt:lcidtoname_downlevel.obj
 0002:00008878       ??_C@_1M@GMPONJN@?$AAe?$AAn?$AA?9?$AAa?$AAu@ 0000000180030878     libucrt:lcidtoname_downlevel.obj
 0002:00008888       ??_C@_1M@NIDIIPGF@?$AAe?$AAn?$AA?9?$AAb?$AAz@ 0000000180030888     libucrt:lcidtoname_downlevel.obj
 0002:00008898       ??_C@_1M@JEHMIMFO@?$AAe?$AAn?$AA?9?$AAc?$AAa@ 0000000180030898     libucrt:lcidtoname_downlevel.obj
 0002:000088a8       ??_C@_1M@IGMJCDLA@?$AAe?$AAn?$AA?9?$AAc?$AAb@ 00000001800308a8     libucrt:lcidtoname_downlevel.obj
 0002:000088b8       ??_C@_1M@BNFIGBKG@?$AAe?$AAn?$AA?9?$AAg?$AAb@ 00000001800308b8     libucrt:lcidtoname_downlevel.obj
 0002:000088c8       ??_C@_1M@LKIFDIGP@?$AAe?$AAn?$AA?9?$AAi?$AAe@ 00000001800308c8     libucrt:lcidtoname_downlevel.obj
 0002:000088d8       ??_C@_1M@PJKFGCCO@?$AAe?$AAn?$AA?9?$AAj?$AAm@ 00000001800308d8     libucrt:lcidtoname_downlevel.obj
 0002:000088e8       ??_C@_1M@KPPKEPBO@?$AAe?$AAn?$AA?9?$AAn?$AAz@ 00000001800308e8     libucrt:lcidtoname_downlevel.obj
 0002:000088f8       ??_C@_1M@GMDGLDOB@?$AAe?$AAn?$AA?9?$AAp?$AAh@ 00000001800308f8     libucrt:lcidtoname_downlevel.obj
 0002:00008908       ??_C@_1M@ONGIBJNA@?$AAe?$AAn?$AA?9?$AAt?$AAt@ 0000000180030908     libucrt:lcidtoname_downlevel.obj
 0002:00008918       ??_C@_1M@LLODPCMM@?$AAe?$AAn?$AA?9?$AAu?$AAs@ 0000000180030918     libucrt:lcidtoname_downlevel.obj
 0002:00008928       ??_C@_1M@LAKFNPAN@?$AAe?$AAn?$AA?9?$AAz?$AAa@ 0000000180030928     libucrt:lcidtoname_downlevel.obj
 0002:00008938       ??_C@_1M@MFNHNHEO@?$AAe?$AAn?$AA?9?$AAz?$AAw@ 0000000180030938     libucrt:lcidtoname_downlevel.obj
 0002:00008948       ??_C@_1M@EJEINPHM@?$AAe?$AAs?$AA?9?$AAa?$AAr@ 0000000180030948     libucrt:lcidtoname_downlevel.obj
 0002:00008958       ??_C@_1M@GNKPCCJA@?$AAe?$AAs?$AA?9?$AAb?$AAo@ 0000000180030958     libucrt:lcidtoname_downlevel.obj
 0002:00008968       ??_C@_1M@LEEGFONL@?$AAe?$AAs?$AA?9?$AAc?$AAl@ 0000000180030968     libucrt:lcidtoname_downlevel.obj
 0002:00008978       ??_C@_1M@KGPDPBDF@?$AAe?$AAs?$AA?9?$AAc?$AAo@ 0000000180030978     libucrt:lcidtoname_downlevel.obj
 0002:00008988       ??_C@_1M@EIAHOHH@?$AAe?$AAs?$AA?9?$AAc?$AAr@ 0000000180030988     libucrt:lcidtoname_downlevel.obj
 0002:00008998       ??_C@_1M@LLPGMBIN@?$AAe?$AAs?$AA?9?$AAd?$AAo@ 0000000180030998     libucrt:lcidtoname_downlevel.obj
 0002:000089a8       ??_C@_1M@DKHMKNJA@?$AAe?$AAs?$AA?9?$AAe?$AAc@ 00000001800309a8     libucrt:lcidtoname_downlevel.obj
 0002:000089b8       ??_C@_1M@GKGFPKAP@?$AAe?$AAs?$AA?9?$AAe?$AAs@ 00000001800309b8     libucrt:lcidtoname_downlevel.obj
 0002:000089c8       ??_C@_1M@LKHKGDLN@?$AAe?$AAs?$AA?9?$AAg?$AAt@ 00000001800309c8     libucrt:lcidtoname_downlevel.obj
 0002:000089d8       ??_C@_1M@HEIIGGJD@?$AAe?$AAs?$AA?9?$AAh?$AAn@ 00000001800309d8     libucrt:lcidtoname_downlevel.obj
 0002:000089e8       ??_C@_1M@FBDHPPGD@?$AAe?$AAs?$AA?9?$AAm?$AAx@ 00000001800309e8     libucrt:lcidtoname_downlevel.obj
 0002:000089f8       ??_C@_1M@DPAGLNDH@?$AAe?$AAs?$AA?9?$AAn?$AAi@ 00000001800309f8     libucrt:lcidtoname_downlevel.obj
 0002:00008a08       ??_C@_1M@MDGOPGDD@?$AAe?$AAs?$AA?9?$AAp?$AAa@ 0000000180030a08     libucrt:lcidtoname_downlevel.obj
 0002:00008a18       ??_C@_1M@EMAMGBGE@?$AAe?$AAs?$AA?9?$AAp?$AAe@ 0000000180030a18     libucrt:lcidtoname_downlevel.obj
 0002:00008a28       ??_C@_1M@IBMCAOEC@?$AAe?$AAs?$AA?9?$AAp?$AAr@ 0000000180030a28     libucrt:lcidtoname_downlevel.obj
 0002:00008a38       ??_C@_1M@FGMDIJED@?$AAe?$AAs?$AA?9?$AAp?$AAy@ 0000000180030a38     libucrt:lcidtoname_downlevel.obj
 0002:00008a48       ??_C@_1M@IIDEOLLL@?$AAe?$AAs?$AA?9?$AAs?$AAv@ 0000000180030a48     libucrt:lcidtoname_downlevel.obj
 0002:00008a58       ??_C@_1M@GAOBIPA@?$AAe?$AAs?$AA?9?$AAu?$AAy@ 0000000180030a58     libucrt:lcidtoname_downlevel.obj
 0002:00008a68       ??_C@_1M@JKFFICHJ@?$AAe?$AAs?$AA?9?$AAv?$AAe@ 0000000180030a68     libucrt:lcidtoname_downlevel.obj
 0002:00008a78       ??_C@_1M@PNMLOJDF@?$AAe?$AAt?$AA?9?$AAe?$AAe@ 0000000180030a78     libucrt:lcidtoname_downlevel.obj
 0002:00008a88       ??_C@_1M@GHHLIKEI@?$AAe?$AAu?$AA?9?$AAe?$AAs@ 0000000180030a88     libucrt:lcidtoname_downlevel.obj
 0002:00008a98       ??_C@_1M@PBNONODE@?$AAf?$AAa?$AA?9?$AAi?$AAr@ 0000000180030a98     libucrt:lcidtoname_downlevel.obj
 0002:00008aa8       ??_C@_1M@JEEHPMIL@?$AAf?$AAi?$AA?9?$AAf?$AAi@ 0000000180030aa8     libucrt:lcidtoname_downlevel.obj
 0002:00008ab8       ??_C@_1M@LMDCNDBA@?$AAf?$AAo?$AA?9?$AAf?$AAo@ 0000000180030ab8     libucrt:lcidtoname_downlevel.obj
 0002:00008ac8       ??_C@_1M@JKEOHLDK@?$AAf?$AAr?$AA?9?$AAb?$AAe@ 0000000180030ac8     libucrt:lcidtoname_downlevel.obj
 0002:00008ad8       ??_C@_1M@NOHADPMI@?$AAf?$AAr?$AA?9?$AAc?$AAa@ 0000000180030ad8     libucrt:lcidtoname_downlevel.obj
 0002:00008ae8       ??_C@_1M@KDHIHAEC@?$AAf?$AAr?$AA?9?$AAc?$AAh@ 0000000180030ae8     libucrt:lcidtoname_downlevel.obj
 0002:00008af8       ??_C@_1M@MMBBFGAK@?$AAf?$AAr?$AA?9?$AAf?$AAr@ 0000000180030af8     libucrt:lcidtoname_downlevel.obj
 0002:00008b08       ??_C@_1M@PAFNENNF@?$AAf?$AAr?$AA?9?$AAl?$AAu@ 0000000180030b08     libucrt:lcidtoname_downlevel.obj
 0002:00008b18       ??_C@_1M@EOHDJGDD@?$AAf?$AAr?$AA?9?$AAm?$AAc@ 0000000180030b18     libucrt:lcidtoname_downlevel.obj
 0002:00008b28       ??_C@_1M@FAPLLOPF@?$AAg?$AAl?$AA?9?$AAe?$AAs@ 0000000180030b28     libucrt:lcidtoname_downlevel.obj
 0002:00008b38       ??_C@_1M@FOPBFLOO@?$AAg?$AAu?$AA?9?$AAi?$AAn@ 0000000180030b38     libucrt:lcidtoname_downlevel.obj
 0002:00008b48       ??_C@_1M@KBMCINPM@?$AAh?$AAe?$AA?9?$AAi?$AAl@ 0000000180030b48     libucrt:lcidtoname_downlevel.obj
 0002:00008b58       ??_C@_1M@BBPHKFPJ@?$AAh?$AAi?$AA?9?$AAi?$AAn@ 0000000180030b58     libucrt:lcidtoname_downlevel.obj
 0002:00008b68       ??_C@_1M@PMBNDPHD@?$AAh?$AAr?$AA?9?$AAb?$AAa@ 0000000180030b68     libucrt:lcidtoname_downlevel.obj
 0002:00008b78       ??_C@_1M@BPCKOEGE@?$AAh?$AAr?$AA?9?$AAh?$AAr@ 0000000180030b78     libucrt:lcidtoname_downlevel.obj
 0002:00008b88       ??_C@_1M@GACBMHKE@?$AAh?$AAu?$AA?9?$AAh?$AAu@ 0000000180030b88     libucrt:lcidtoname_downlevel.obj
 0002:00008b98       ??_C@_1M@MILPAJJC@?$AAh?$AAy?$AA?9?$AAa?$AAm@ 0000000180030b98     libucrt:lcidtoname_downlevel.obj
 0002:00008ba8       ??_C@_1M@BABBICEC@?$AAi?$AAd?$AA?9?$AAi?$AAd@ 0000000180030ba8     libucrt:lcidtoname_downlevel.obj
 0002:00008bb8       ??_C@_1M@BIKNHHPF@?$AAi?$AAs?$AA?9?$AAi?$AAs@ 0000000180030bb8     libucrt:lcidtoname_downlevel.obj
 0002:00008bc8       ??_C@_1M@NMPCJPHE@?$AAi?$AAt?$AA?9?$AAc?$AAh@ 0000000180030bc8     libucrt:lcidtoname_downlevel.obj
 0002:00008bd8       ??_C@_1M@GHKGFEDF@?$AAi?$AAt?$AA?9?$AAi?$AAt@ 0000000180030bd8     libucrt:lcidtoname_downlevel.obj
 0002:00008be8       ??_C@_1M@NIEJCJJA@?$AAj?$AAa?$AA?9?$AAj?$AAp@ 0000000180030be8     libucrt:lcidtoname_downlevel.obj
 0002:00008bf8       ??_C@_1M@JILFNBIM@?$AAk?$AAa?$AA?9?$AAg?$AAe@ 0000000180030bf8     libucrt:lcidtoname_downlevel.obj
 0002:00008c08       ??_C@_1M@PACPMGPH@?$AAk?$AAk?$AA?9?$AAk?$AAz@ 0000000180030c08     libucrt:lcidtoname_downlevel.obj
 0002:00008c18       ??_C@_1M@IELFGMHA@?$AAk?$AAn?$AA?9?$AAi?$AAn@ 0000000180030c18     libucrt:lcidtoname_downlevel.obj
 0002:00008c28       ??_C@_1O@IBBJHCH@?$AAk?$AAo?$AAk?$AA?9?$AAi?$AAn@ 0000000180030c28     libucrt:lcidtoname_downlevel.obj
 0002:00008c38       ??_C@_1M@DMHAEOGC@?$AAk?$AAo?$AA?9?$AAk?$AAr@ 0000000180030c38     libucrt:lcidtoname_downlevel.obj
 0002:00008c48       ??_C@_1M@HBAHBIGA@?$AAk?$AAy?$AA?9?$AAk?$AAg@ 0000000180030c48     libucrt:lcidtoname_downlevel.obj
 0002:00008c58       ??_C@_1M@KPMILCJG@?$AAl?$AAt?$AA?9?$AAl?$AAt@ 0000000180030c58     libucrt:lcidtoname_downlevel.obj
 0002:00008c68       ??_C@_1M@BDEKKCA@?$AAl?$AAv?$AA?9?$AAl?$AAv@ 0000000180030c68     libucrt:lcidtoname_downlevel.obj
 0002:00008c78       ??_C@_1M@ELCKCCJJ@?$AAm?$AAi?$AA?9?$AAn?$AAz@ 0000000180030c78     libucrt:lcidtoname_downlevel.obj
 0002:00008c88       ??_C@_1M@CBOOLAPA@?$AAm?$AAk?$AA?9?$AAm?$AAk@ 0000000180030c88     libucrt:lcidtoname_downlevel.obj
 0002:00008c98       ??_C@_1M@GPHNBJKN@?$AAm?$AAl?$AA?9?$AAi?$AAn@ 0000000180030c98     libucrt:lcidtoname_downlevel.obj
 0002:00008ca8       ??_C@_1M@PABJILIG@?$AAm?$AAn?$AA?9?$AAm?$AAn@ 0000000180030ca8     libucrt:lcidtoname_downlevel.obj
 0002:00008cb8       ??_C@_1M@FGBKKIPG@?$AAm?$AAr?$AA?9?$AAi?$AAn@ 0000000180030cb8     libucrt:lcidtoname_downlevel.obj
 0002:00008cc8       ??_C@_1M@NDBPDDAL@?$AAm?$AAs?$AA?9?$AAb?$AAn@ 0000000180030cc8     libucrt:lcidtoname_downlevel.obj
 0002:00008cd8       ??_C@_1M@OPIHOOPI@?$AAm?$AAs?$AA?9?$AAm?$AAy@ 0000000180030cd8     libucrt:lcidtoname_downlevel.obj
 0002:00008ce8       ??_C@_1M@PPDBCNFM@?$AAm?$AAt?$AA?9?$AAm?$AAt@ 0000000180030ce8     libucrt:lcidtoname_downlevel.obj
 0002:00008cf8       ??_C@_1M@KDJDKMDD@?$AAn?$AAb?$AA?9?$AAn?$AAo@ 0000000180030cf8     libucrt:lcidtoname_downlevel.obj
 0002:00008d08       ??_C@_1M@KFCFLMJP@?$AAn?$AAl?$AA?9?$AAb?$AAe@ 0000000180030d08     libucrt:lcidtoname_downlevel.obj
 0002:00008d18       ??_C@_1M@KPOPDDGO@?$AAn?$AAl?$AA?9?$AAn?$AAl@ 0000000180030d18     libucrt:lcidtoname_downlevel.obj
 0002:00008d28       ??_C@_1M@LJKPEMLN@?$AAn?$AAn?$AA?9?$AAn?$AAo@ 0000000180030d28     libucrt:lcidtoname_downlevel.obj
 0002:00008d38       ??_C@_1M@BDGHHBFL@?$AAn?$AAs?$AA?9?$AAz?$AAa@ 0000000180030d38     libucrt:lcidtoname_downlevel.obj
 0002:00008d48       ??_C@_1M@IDEHOAP@?$AAp?$AAa?$AA?9?$AAi?$AAn@ 0000000180030d48     libucrt:lcidtoname_downlevel.obj
 0002:00008d58       ??_C@_1M@HDBKGOGH@?$AAp?$AAl?$AA?9?$AAp?$AAl@ 0000000180030d58     libucrt:lcidtoname_downlevel.obj
 0002:00008d68       ??_C@_1M@LJLLCMEH@?$AAp?$AAt?$AA?9?$AAb?$AAr@ 0000000180030d68     libucrt:lcidtoname_downlevel.obj
 0002:00008d78       ??_C@_1M@NCMONAAL@?$AAp?$AAt?$AA?9?$AAp?$AAt@ 0000000180030d78     libucrt:lcidtoname_downlevel.obj
 0002:00008d88       ??_C@_1O@EAKMAJDN@?$AAq?$AAu?$AAz?$AA?9?$AAb?$AAo@ 0000000180030d88     libucrt:lcidtoname_downlevel.obj
 0002:00008d98       ??_C@_1O@BHHPIGDN@?$AAq?$AAu?$AAz?$AA?9?$AAe?$AAc@ 0000000180030d98     libucrt:lcidtoname_downlevel.obj
 0002:00008da8       ??_C@_1O@GBAPEKMJ@?$AAq?$AAu?$AAz?$AA?9?$AAp?$AAe@ 0000000180030da8     libucrt:lcidtoname_downlevel.obj
 0002:00008db8       ??_C@_1M@CLGLEFBO@?$AAr?$AAo?$AA?9?$AAr?$AAo@ 0000000180030db8     libucrt:lcidtoname_downlevel.obj
 0002:00008dc8       ??_C@_1M@CEEDODME@?$AAr?$AAu?$AA?9?$AAr?$AAu@ 0000000180030dc8     libucrt:lcidtoname_downlevel.obj
 0002:00008dd8       ??_C@_1M@HPKKKMPP@?$AAs?$AAa?$AA?9?$AAi?$AAn@ 0000000180030dd8     libucrt:lcidtoname_downlevel.obj
 0002:00008de8       ??_C@_1M@BKMAIGOJ@?$AAs?$AAe?$AA?9?$AAf?$AAi@ 0000000180030de8     libucrt:lcidtoname_downlevel.obj
 0002:00008df8       ??_C@_1M@NDPIFLFI@?$AAs?$AAe?$AA?9?$AAn?$AAo@ 0000000180030df8     libucrt:lcidtoname_downlevel.obj
 0002:00008e08       ??_C@_1M@DANKKHJ@?$AAs?$AAe?$AA?9?$AAs?$AAe@ 0000000180030e08     libucrt:lcidtoname_downlevel.obj
 0002:00008e18       ??_C@_1M@PNBLONPJ@?$AAs?$AAk?$AA?9?$AAs?$AAk@ 0000000180030e18     libucrt:lcidtoname_downlevel.obj
 0002:00008e28       ??_C@_1M@LFMODOAL@?$AAs?$AAl?$AA?9?$AAs?$AAi@ 0000000180030e28     libucrt:lcidtoname_downlevel.obj
 0002:00008e38       ??_C@_1O@DFKOMPG@?$AAs?$AAm?$AAa?$AA?9?$AAn?$AAo@ 0000000180030e38     libucrt:lcidtoname_downlevel.obj
 0002:00008e48       ??_C@_1O@NDKPBNNH@?$AAs?$AAm?$AAa?$AA?9?$AAs?$AAe@ 0000000180030e48     libucrt:lcidtoname_downlevel.obj
 0002:00008e58       ??_C@_1O@PLLKBHAB@?$AAs?$AAm?$AAj?$AA?9?$AAn?$AAo@ 0000000180030e58     libucrt:lcidtoname_downlevel.obj
 0002:00008e68       ??_C@_1O@CLEPOGCA@?$AAs?$AAm?$AAj?$AA?9?$AAs?$AAe@ 0000000180030e68     libucrt:lcidtoname_downlevel.obj
 0002:00008e78       ??_C@_1O@DLGJGKMK@?$AAs?$AAm?$AAn?$AA?9?$AAf?$AAi@ 0000000180030e78     libucrt:lcidtoname_downlevel.obj
 0002:00008e88       ??_C@_1O@OJDJGAJC@?$AAs?$AAm?$AAs?$AA?9?$AAf?$AAi@ 0000000180030e88     libucrt:lcidtoname_downlevel.obj
 0002:00008e98       ??_C@_1M@BOFOGHPB@?$AAs?$AAq?$AA?9?$AAa?$AAl@ 0000000180030e98     libucrt:lcidtoname_downlevel.obj
 0002:00008ea8       ??_C@_1BG@LJBBIPGB@?$AAs?$AAr?$AA?9?$AAb?$AAa?$AA?9?$AAc?$AAy?$AAr?$AAl@ 0000000180030ea8     libucrt:lcidtoname_downlevel.obj
 0002:00008ec0       ??_C@_1BG@JLBENFOE@?$AAs?$AAr?$AA?9?$AAb?$AAa?$AA?9?$AAl?$AAa?$AAt?$AAn@ 0000000180030ec0     libucrt:lcidtoname_downlevel.obj
 0002:00008ed8       ??_C@_1BG@KODPNHE@?$AAs?$AAr?$AA?9?$AAs?$AAp?$AA?9?$AAc?$AAy?$AAr?$AAl@ 0000000180030ed8     libucrt:lcidtoname_downlevel.obj
 0002:00008ef0       ??_C@_1BG@CIOGKHPB@?$AAs?$AAr?$AA?9?$AAs?$AAp?$AA?9?$AAl?$AAa?$AAt?$AAn@ 0000000180030ef0     libucrt:lcidtoname_downlevel.obj
 0002:00008f08       ??_C@_1M@NGFJLMAC@?$AAs?$AAv?$AA?9?$AAf?$AAi@ 0000000180030f08     libucrt:lcidtoname_downlevel.obj
 0002:00008f18       ??_C@_1M@MPJEJAJC@?$AAs?$AAv?$AA?9?$AAs?$AAe@ 0000000180030f18     libucrt:lcidtoname_downlevel.obj
 0002:00008f28       ??_C@_1M@MPNDHLFK@?$AAs?$AAw?$AA?9?$AAk?$AAe@ 0000000180030f28     libucrt:lcidtoname_downlevel.obj
 0002:00008f38       ??_C@_1O@KOHBJJI@?$AAs?$AAy?$AAr?$AA?9?$AAs?$AAy@ 0000000180030f38     libucrt:lcidtoname_downlevel.obj
 0002:00008f48       ??_C@_1M@LDCEFHA@?$AAt?$AAa?$AA?9?$AAi?$AAn@ 0000000180030f48     libucrt:lcidtoname_downlevel.obj
 0002:00008f58       ??_C@_1M@CNJOFAK@?$AAt?$AAe?$AA?9?$AAi?$AAn@ 0000000180030f58     libucrt:lcidtoname_downlevel.obj
 0002:00008f68       ??_C@_1M@GNAECACD@?$AAt?$AAh?$AA?9?$AAt?$AAh@ 0000000180030f68     libucrt:lcidtoname_downlevel.obj
 0002:00008f78       ??_C@_1M@CHBIHOJO@?$AAt?$AAn?$AA?9?$AAz?$AAa@ 0000000180030f78     libucrt:lcidtoname_downlevel.obj
 0002:00008f88       ??_C@_1M@GCCMIGPJ@?$AAt?$AAr?$AA?9?$AAt?$AAr@ 0000000180030f88     libucrt:lcidtoname_downlevel.obj
 0002:00008f98       ??_C@_1M@CELMCNBK@?$AAt?$AAt?$AA?9?$AAr?$AAu@ 0000000180030f98     libucrt:lcidtoname_downlevel.obj
 0002:00008fa8       ??_C@_1M@KLMCELGA@?$AAu?$AAk?$AA?9?$AAu?$AAa@ 0000000180030fa8     libucrt:lcidtoname_downlevel.obj
 0002:00008fb8       ??_C@_1M@EPAJJAJF@?$AAu?$AAr?$AA?9?$AAp?$AAk@ 0000000180030fb8     libucrt:lcidtoname_downlevel.obj
 0002:00008fc8       ??_C@_1BG@GEGPMCDJ@?$AAu?$AAz?$AA?9?$AAu?$AAz?$AA?9?$AAc?$AAy?$AAr?$AAl@ 0000000180030fc8     libucrt:lcidtoname_downlevel.obj
 0002:00008fe0       ??_C@_1BG@EGGKJILM@?$AAu?$AAz?$AA?9?$AAu?$AAz?$AA?9?$AAl?$AAa?$AAt?$AAn@ 0000000180030fe0     libucrt:lcidtoname_downlevel.obj
 0002:00008ff8       ??_C@_1M@GFOCLFF@?$AAv?$AAi?$AA?9?$AAv?$AAn@ 0000000180030ff8     libucrt:lcidtoname_downlevel.obj
 0002:00009008       ??_C@_1M@CPAMEDFI@?$AAx?$AAh?$AA?9?$AAz?$AAa@ 0000000180031008     libucrt:lcidtoname_downlevel.obj
 0002:00009018       ??_C@_1O@EBKIFIGN@?$AAz?$AAh?$AA?9?$AAc?$AAh?$AAs@ 0000000180031018     libucrt:lcidtoname_downlevel.obj
 0002:00009028       ??_C@_1O@NMHPGANE@?$AAz?$AAh?$AA?9?$AAc?$AAh?$AAt@ 0000000180031028     libucrt:lcidtoname_downlevel.obj
 0002:00009038       ??_C@_1M@LPINJOMC@?$AAz?$AAh?$AA?9?$AAc?$AAn@ 0000000180031038     libucrt:lcidtoname_downlevel.obj
 0002:00009048       ??_C@_1M@OCJEJODD@?$AAz?$AAh?$AA?9?$AAh?$AAk@ 0000000180031048     libucrt:lcidtoname_downlevel.obj
 0002:00009058       ??_C@_1M@DNDLJINH@?$AAz?$AAh?$AA?9?$AAm?$AAo@ 0000000180031058     libucrt:lcidtoname_downlevel.obj
 0002:00009068       ??_C@_1M@MBFDNDND@?$AAz?$AAh?$AA?9?$AAs?$AAg@ 0000000180031068     libucrt:lcidtoname_downlevel.obj
 0002:00009078       ??_C@_1M@IMEPLEPE@?$AAz?$AAh?$AA?9?$AAt?$AAw@ 0000000180031078     libucrt:lcidtoname_downlevel.obj
 0002:00009088       ??_C@_1M@BBGHNHJP@?$AAz?$AAu?$AA?9?$AAz?$AAa@ 0000000180031088     libucrt:lcidtoname_downlevel.obj
 0002:000090a0       ?large_power_data@?1??multiply_by_power_of_ten@__crt_strtox@@YA_NAEAUbig_integer@2@I@Z@4QBIB 00000001800310a0     libucrt:cfout.obj
 0002:000099b0       ?large_power_indices@?1??multiply_by_power_of_ten@__crt_strtox@@YA_NAEAUbig_integer@2@I@Z@4QBUunpack_index@?1??12@YA_N0I@Z@B 00000001800319b0     libucrt:cfout.obj
 0002:00009a48       ?small_powers_of_ten@?1??multiply_by_power_of_ten@__crt_strtox@@YA_NAEAUbig_integer@2@I@Z@4QBIB 0000000180031a48     libucrt:cfout.obj
 0002:00009a6c       ??_C@_01GBGANLPD@0@        0000000180031a6c     libucrt:cfout.obj
 0002:00009a70       ??_C@_05DNEBIAHO@1?$CDINF@ 0000000180031a70     libucrt:cfout.obj
 0002:00009a78       ??_C@_06IMKFLFPG@1?$CDQNAN@ 0000000180031a78     libucrt:cfout.obj
 0002:00009a80       ??_C@_06PGGFOGJG@1?$CDSNAN@ 0000000180031a80     libucrt:cfout.obj
 0002:00009a88       ??_C@_05PHHOCPM@1?$CDIND@  0000000180031a88     libucrt:cfout.obj
 0002:00009ab8       __real@3ff0000000000000    0000000180031ab8     libucrt:ceil.obj
 0002:00009d10       __log10_256_lead           0000000180031d10     libucrt:log10_256_lead_tail_table.obj
 0002:0000a520       __log10_256_tail           0000000180032520     libucrt:log10_256_lead_tail_table.obj
 0002:0000ad30       __log_F_inv_qword          0000000180032d30     libucrt:log_f_inv_qword_table.obj
 0002:0000b540       ??_C@_05HGHHAHAP@log10@    0000000180033540     libucrt:log_special.obj
 0002:0000b548       ??_C@_1BA@BALFACEM@?$AAC?$AAO?$AAN?$AAO?$AAU?$AAT?$AA$@ 0000000180033548     libucrt:initcon.obj
 0002:0000b5d0       _load_config_used          00000001800335d0     LIBCMT:loadcfg.obj
 0002:0000b780       _tls_used                  0000000180033780     LIBCMT:tlssup.obj
 0002:0000b7a8       ??_R4exception@std@@6B@    00000001800337a8     LIBCMT:throw_bad_alloc.obj
 0002:0000b7d0       ??_R3exception@std@@8      00000001800337d0     LIBCMT:throw_bad_alloc.obj
 0002:0000b7e8       ??_R2exception@std@@8      00000001800337e8     LIBCMT:throw_bad_alloc.obj
 0002:0000b7f8       ??_R1A@?0A@EA@exception@std@@8 00000001800337f8     LIBCMT:throw_bad_alloc.obj
 0002:0000b820       ??_R4bad_alloc@std@@6B@    0000000180033820     LIBCMT:throw_bad_alloc.obj
 0002:0000b848       ??_R3bad_alloc@std@@8      0000000180033848     LIBCMT:throw_bad_alloc.obj
 0002:0000b860       ??_R2bad_alloc@std@@8      0000000180033860     LIBCMT:throw_bad_alloc.obj
 0002:0000b878       ??_R1A@?0A@EA@bad_alloc@std@@8 0000000180033878     LIBCMT:throw_bad_alloc.obj
 0002:0000b8a0       ??_R4bad_array_new_length@std@@6B@ 00000001800338a0     LIBCMT:throw_bad_alloc.obj
 0002:0000b8c8       ??_R3bad_array_new_length@std@@8 00000001800338c8     LIBCMT:throw_bad_alloc.obj
 0002:0000b8e0       ??_R2bad_array_new_length@std@@8 00000001800338e0     LIBCMT:throw_bad_alloc.obj
 0002:0000b900       ??_R1A@?0A@EA@bad_array_new_length@std@@8 0000000180033900     LIBCMT:throw_bad_alloc.obj
 0002:0000b928       ??_R4type_info@@6B@        0000000180033928     LIBCMT:std_type_info_static.obj
 0002:0000b950       ??_R3type_info@@8          0000000180033950     LIBCMT:std_type_info_static.obj
 0002:0000b968       ??_R2type_info@@8          0000000180033968     LIBCMT:std_type_info_static.obj
 0002:0000b978       ??_R1A@?0A@EA@type_info@@8 0000000180033978     LIBCMT:std_type_info_static.obj
 0002:0000b9a0       ??_R4bad_exception@std@@6B@ 00000001800339a0     libvcruntime:frame.obj
 0002:0000b9c8       ??_R3bad_exception@std@@8  00000001800339c8     libvcruntime:frame.obj
 0002:0000b9e0       ??_R2bad_exception@std@@8  00000001800339e0     libvcruntime:frame.obj
 0002:0000b9f8       ??_R1A@?0A@EA@bad_exception@std@@8 00000001800339f8     libvcruntime:frame.obj
 0002:0000ba1c       __volatile_metadata        0000000180033a1c     <linker-defined>
 0002:0000be98       __rtc_iaa                  0000000180033e98     LIBCMT:initsect.obj
 0002:0000bea0       __rtc_izz                  0000000180033ea0     LIBCMT:initsect.obj
 0002:0000bea8       __rtc_taa                  0000000180033ea8     LIBCMT:initsect.obj
 0002:0000beb0       __rtc_tzz                  0000000180033eb0     LIBCMT:initsect.obj
 0002:0000beb8       _tls_start                 0000000180033eb8     LIBCMT:tlssup.obj
 0002:0000bebc       _Init_thread_epoch         0000000180033ebc     LIBCMT:thread_safe_statics.obj
 0002:0000bec0       _tls_end                   0000000180033ec0     LIBCMT:tlssup.obj
 0002:0000d880       _TI2?AVbad_alloc@std@@     0000000180035880     LIBCMT:throw_bad_alloc.obj
 0002:0000d8a0       _CTA2?AVbad_alloc@std@@    00000001800358a0     LIBCMT:throw_bad_alloc.obj
 0002:0000d8b8       _CT??_R0?AVbad_alloc@std@@@8??0bad_alloc@std@@QEAA@AEBV01@@Z24 00000001800358b8     LIBCMT:throw_bad_alloc.obj
 0002:0000d8e0       _CT??_R0?AVexception@std@@@8??0exception@std@@QEAA@AEBV01@@Z24 00000001800358e0     LIBCMT:throw_bad_alloc.obj
 0002:0000d908       _TI3?AVbad_array_new_length@std@@ 0000000180035908     LIBCMT:throw_bad_alloc.obj
 0002:0000d928       _CTA3?AVbad_array_new_length@std@@ 0000000180035928     LIBCMT:throw_bad_alloc.obj
 0002:0000d948       _CT??_R0?AVbad_array_new_length@std@@@8??0bad_array_new_length@std@@QEAA@AEBV01@@Z24 0000000180035948     LIBCMT:throw_bad_alloc.obj
 0002:0000d970       _TI2?AVbad_exception@std@@ 0000000180035970     libvcruntime:frame.obj
 0002:0000d990       _CTA2?AVbad_exception@std@@ 0000000180035990     libvcruntime:frame.obj
 0002:0000d9a8       _CT??_R0?AVbad_exception@std@@@8??0bad_exception@std@@QEAA@AEBV01@@Z24 00000001800359a8     libvcruntime:frame.obj
 0002:0000d9d0       __pobjMapEntryFirst        00000001800359d0     OposVariant.obj
 0002:0000d9d8       __pobjMapEntryLast         00000001800359d8     OposVariant.obj
 0002:0000da8c       __IMPORT_DESCRIPTOR_KERNEL32 0000000180035a8c     kernel32:KERNEL32.dll
 0002:0000daa0       __IMPORT_DESCRIPTOR_USER32 0000000180035aa0     user32:USER32.dll
 0002:0000dab4       __IMPORT_DESCRIPTOR_GDI32  0000000180035ab4     gdi32:GDI32.dll
 0002:0000dac8       __IMPORT_DESCRIPTOR_ADVAPI32 0000000180035ac8     advapi32:ADVAPI32.dll
 0002:0000dadc       __IMPORT_DESCRIPTOR_ole32  0000000180035adc     ole32:ole32.dll
 0002:0000daf0       __IMPORT_DESCRIPTOR_OLEAUT32 0000000180035af0     oleaut32:OLEAUT32.dll
 0002:0000db04       __NULL_IMPORT_DESCRIPTOR   0000000180035b04     kernel32:KERNEL32.dll
 0003:00000000       ?rcDefault@CWindow@ATL@@2UtagRECT@@A 0000000180037000     POSPrinter.obj
 0003:00000010       ?wc@?1??GetWndClassInfo@?$CWindowImpl@VCOPOSPOSPrinter@@VCWindow@ATL@@V?$CWinTraits@$0FGAAAAAA@$0A@@3@@ATL@@SAAEAU_ATL_WNDCLASSINFOW@3@XZ@4U43@A 0000000180037010     POSPrinter.obj
 0003:00000108       ?s_Claim@?7??GetIDsOfNames@CComTypeInfoHolder@ATL@@QEAAJAEBU_GUID@@PEAPEA_WIKPEAJ@Z@4PA_WA 0000000180037108     POSPrinter.obj
 0003:00000120       ?s_Release@?7??GetIDsOfNames@CComTypeInfoHolder@ATL@@QEAAJAEBU_GUID@@PEAPEA_WIKPEAJ@Z@4PA_WA 0000000180037120     POSPrinter.obj
 0003:00000140       ?_tih@?$IDispatchImpl@UIOPOSPOSPrinter@@$1?IID_IOPOSPOSPrinter@@3U_GUID@@B$1?LIBID_OposPOSPrinter_CCO@@3U3@B$00$0A@VCComTypeInfoHolder@ATL@@@ATL@@1VCComTypeInfoHolder@2@A 0000000180037140     POSPrinter.obj
 0003:00000178       ?_tih@?$IProvideClassInfo2Impl@$1?CLSID_OPOSPOSPrinter@@3U_GUID@@B$1?DIID__IOPOSPOSPrinterEvents@@3U2@B$1?LIBID_OposPOSPrinter_CCO@@3U2@B$00$0A@VCComTypeInfoHolder@ATL@@@ATL@@1VCComTypeInfoHolder@2@A 0000000180037178     POSPrinter.obj
 0003:000001b0       ?vszContents@?6??Save@?$IPersistStorageImpl@VCOPOSPOSPrinter@@@ATL@@UEAAJPEAUIStorage@@H@Z@4PEB_WEB 00000001800371b0     POSPrinter.obj
 0003:00000250       ?g_WindowName@@3PA_WA      0000000180037250     POSPrinterImpl.obj
 0003:00000274       ?g_ControlVersion@@3JA     0000000180037274     POSPrinterImpl.obj
 0003:00000280       ?g_ControlDescription@@3PADA 0000000180037280     POSPrinterImpl.obj
 0003:00000440       __scrt_native_dllmain_reason 0000000180037440     LIBCMT:utility.obj
 0003:00000444       _Init_global_epoch         0000000180037444     LIBCMT:thread_safe_statics.obj
 0003:00000450       __security_cookie          0000000180037450     LIBCMT:gs_cookie.obj
 0003:00000458       __security_cookie_complement 0000000180037458     LIBCMT:gs_cookie.obj
 0003:00000460       __isa_available            0000000180037460     LIBCMT:cpu_disp.obj
 0003:00000464       __isa_enabled              0000000180037464     LIBCMT:cpu_disp.obj
 0003:00000468       __memcpy_nt_iters          0000000180037468     LIBCMT:cpu_disp.obj
 0003:00000470       __memset_nt_iters          0000000180037470     LIBCMT:cpu_disp.obj
 0003:00000498       __abort_behavior           0000000180037498     libucrt:abort.obj
 0003:000004b0       __acrt_initial_locale_data 00000001800374b0     libucrt:nlsdata.obj
 0003:00000608       __acrt_initial_locale_pointers 0000000180037608     libucrt:nlsdata.obj
 0003:00000618       __acrt_wide_c_locale_string 0000000180037618     libucrt:nlsdata.obj
 0003:00000620       _iob                       0000000180037620     libucrt:_file.obj
 0003:00000730       __acrt_initial_multibyte_data 0000000180037730     libucrt:mbctype.obj
 0003:00000c70       __acrt_lconv_c             0000000180037c70     libucrt:localeconv.obj
 0003:00000d08       __acrt_lconv_static_decimal 0000000180037d08     libucrt:localeconv.obj
 0003:00000d0c       __acrt_lconv_static_W_decimal 0000000180037d0c     libucrt:localeconv.obj
 0003:00000d10       __globallocalestatus       0000000180037d10     libucrt:glstatus.obj
 0003:00000d20       _lookuptrailbytes          0000000180037d20     libucrt:read.obj
 0003:00000e44       _fltused                   0000000180037e44     LIBCMT:fltused.obj
 0003:00000e48       ??_R0?AVbad_alloc@std@@@8  0000000180037e48     LIBCMT:throw_bad_alloc.obj
 0003:00000e70       ??_R0?AVexception@std@@@8  0000000180037e70     LIBCMT:throw_bad_alloc.obj
 0003:00000e98       ??_R0?AVbad_array_new_length@std@@@8 0000000180037e98     LIBCMT:throw_bad_alloc.obj
 0003:00000ec8       ??_R0?AVbad_exception@std@@@8 0000000180037ec8     libvcruntime:frame.obj
 0003:00000ef0       ??_R0?AVtype_info@@@8      0000000180037ef0     LIBCMT:std_type_info_static.obj
 0003:00000f10       ?m_bInitFailed@CAtlBaseModule@ATL@@2_NA 0000000180037f10     OposVariant.obj
 0003:00000f18       ?_pPerfRegFunc@ATL@@3P6AJPEAUHINSTANCE__@@@ZEA 0000000180037f18     OposVariant.obj
 0003:00000f20       ?_pPerfUnRegFunc@ATL@@3P6AJXZEA 0000000180037f20     OposVariant.obj
 0003:00000f28       ?_AtlRegisterPerUser@ATL@@3_NA 0000000180037f28     OposVariant.obj
 0003:00000f30       ?_pAtlModule@ATL@@3PEAVCAtlModule@1@EA 0000000180037f30     OposVariant.obj
 0003:00000f38       ?_pModule@ATL@@3PEAVCComModule@1@EA 0000000180037f38     OposVariant.obj
 0003:00000f40       ?_AtlComModule@ATL@@3VCAtlComModule@1@A 0000000180037f40     OposVariant.obj
 0003:00000f90       ?_AtlWinModule@ATL@@3VCAtlWinModule@1@A 0000000180037f90     OposVariant.obj
 0003:00000fd8       ?m_libid@CAtlModule@ATL@@2U_GUID@@A 0000000180037fd8     POSPrinter.obj
 0003:00000fe8       ?_entries@?1??GetConnMap@COPOSPOSPrinter@@SAPEBU_ATL_CONNMAP_ENTRY@ATL@@PEAH@Z@4QBU34@B 0000000180037fe8     POSPrinter.obj
 0003:00001000       ?$TSS0@?1??GetConnMap@COPOSPOSPrinter@@SAPEBU_ATL_CONNMAP_ENTRY@ATL@@PEAH@Z@4HA 0000000180038000     POSPrinter.obj
 0003:00001008       ?_OptionsStorage@?1??__local_stdio_printf_options@@9@4_KA 0000000180038008     POSPrinter.obj
 0003:00001010       ?pfnRegDeleteKeyEx@?1??DeleteSubKey@CRegKey@ATL@@QEAAJPEB_W@Z@4P6AJPEAUHKEY__@@0KK@ZEA 0000000180038010     POSPrinter.obj
 0003:00001018       ?bInitialized@?1??DeleteSubKey@CRegKey@ATL@@QEAAJPEB_W@Z@4_NA 0000000180038018     POSPrinter.obj
 0003:00001020       ?_Module@@3VCComModule@ATL@@A 0000000180038020     POSPrinter.obj
 0003:00001070       ?pConnMap@?$IConnectionPointContainerImpl@VCOPOSPOSPrinter@@@ATL@@0PEBU_ATL_CONNMAP_ENTRY@2@EB 0000000180038070     POSPrinter.obj
 0003:00001078       ?s_nInstances@COPOSPOSPrinter@@1HA 0000000180038078     POSPrinterImpl.obj
 0003:00001080       __scrt_current_native_startup_state 0000000180038080     LIBCMT:utility.obj
 0003:00001088       __scrt_native_startup_lock 0000000180038088     LIBCMT:utility.obj
 0003:00001680       _tls_index                 0000000180038680     LIBCMT:tlssup.obj
 0003:00001688       __favor                    0000000180038688     LIBCMT:cpu_disp.obj
 0003:0000168c       __scrt_debugger_hook_flag  000000018003868c     LIBCMT:utility_desktop.obj
 0003:00001690       ?__type_info_root_node@@3U__type_info_node@@A 0000000180038690     LIBCMT:tncleanup.obj
 0003:000016a0       ?_OptionsStorage@?1??__local_stdio_scanf_options@@9@4_KA 00000001800386a0     LIBCMT:default_local_stdio_options.obj
 0003:000016b0       ?_AtlBaseModule@ATL@@3VCAtlBaseModule@1@A 00000001800386b0     atls:atlbase.obj
 0003:00001710       ?__AtlThunkPool@@3PEAT_SLIST_HEADER@@EA 0000000180038710     atls:atlthunk.obj
 0003:0000173c       __@@_PchSym_@00@UzABUPdlipUCAUhUrmgvinvwrzgvUexgllohUzgohOmzgrevkilqPBACIAJCBDBUlyqiUznwGEUhgwzucOlyq@4B2008FD98C1DD4 000000018003873c     atls:stdafx.obj
 0003:00001740       ?__WinRTOutOfMemoryExceptionCallback@@3P6APEAXXZEA 0000000180038740     libvcruntime:ehhelpers.obj
 0003:00001748       __pPurecall                0000000180038748     libvcruntime:purevirt_data.obj
 0003:00001800       ?pArgList@UnDecorator@@0PEAVReplicator@@EA 0000000180038800     libvcruntime:undname.obj
 0003:00001808       ?pZNameList@UnDecorator@@0PEAVReplicator@@EA 0000000180038808     libvcruntime:undname.obj
 0003:00001810       ?pTemplateArgList@UnDecorator@@0PEAVReplicator@@EA 0000000180038810     libvcruntime:undname.obj
 0003:00001818       ?gName@UnDecorator@@0PEBDEB 0000000180038818     libvcruntime:undname.obj
 0003:00001820       ?name@UnDecorator@@0PEBDEB 0000000180038820     libvcruntime:undname.obj
 0003:00001828       ?disableFlags@UnDecorator@@0KA 0000000180038828     libvcruntime:undname.obj
 0003:0000182c       ?fExplicitTemplateParams@UnDecorator@@0_NA 000000018003882c     libvcruntime:undname.obj
 0003:0000182d       ?fGetTemplateArgumentList@UnDecorator@@0_NA 000000018003882d     libvcruntime:undname.obj
 0003:00001830       ?m_pGetParameter@UnDecorator@@0P6APEADJ@ZEA 0000000180038830     libvcruntime:undname.obj
 0003:00001838       ?m_CHPENameOffset@UnDecorator@@0KA 0000000180038838     libvcruntime:undname.obj
 0003:0000183c       ?m_recursionLevel@UnDecorator@@0KA 000000018003883c     libvcruntime:undname.obj
 0003:000018c0       ?c_exit_complete@?1???R<lambda_6e4b09c48022b2350581041d5f6b0c4c>@@QEBA@XZ@4_NA 00000001800388c0     libucrt:exit.obj
 0003:000019d8       _environ_table             00000001800389d8     libucrt:environment_initialization.obj
 0003:000019e0       _wenviron_table            00000001800389e0     libucrt:environment_initialization.obj
 0003:000019e8       __dcrt_initial_wide_environment 00000001800389e8     libucrt:environment_initialization.obj
 0003:000019f0       __dcrt_initial_narrow_environment 00000001800389f0     libucrt:environment_initialization.obj
 0003:000019f8       __acrt_atexit_table        00000001800389f8     libucrt:onexit.obj
 0003:00001a10       __acrt_at_quick_exit_table 0000000180038a10     libucrt:onexit.obj
 0003:00001a30       __acrt_locale_changed_data 0000000180038a30     libucrt:wsetlocale.obj
 0003:00001a38       __acrt_current_locale_data 0000000180038a38     libucrt:nlsdata.obj
 0003:00001bd8       _nstream                   0000000180038bd8     libucrt:_file.obj
 0003:00001be0       __piob                     0000000180038be0     libucrt:_file.obj
 0003:00001bf0       __acrt_stdout_buffer       0000000180038bf0     libucrt:_sftbuf.obj
 0003:00001bf8       __acrt_stderr_buffer       0000000180038bf8     libucrt:_sftbuf.obj
 0003:00001c00       __pioinfo                  0000000180038c00     libucrt:ioinit.obj
 0003:00002000       _nhandle                   0000000180039000     libucrt:ioinit.obj
 0003:00002248       _mbctype                   0000000180039248     libucrt:mbctype.obj
 0003:00002250       _mbcasemap                 0000000180039250     libucrt:mbctype.obj
 0003:00002258       __acrt_current_multibyte_data 0000000180039258     libucrt:mbctype.obj
 0003:00002268       _pgmptr                    0000000180039268     libucrt:argv_data.obj
 0003:00002270       __argc                     0000000180039270     libucrt:argv_data.obj
 0003:00002278       __argv                     0000000180039278     libucrt:argv_data.obj
 0003:00002280       __wargv                    0000000180039280     libucrt:argv_data.obj
 0003:00002288       _acmdln                    0000000180039288     libucrt:argv_data.obj
 0003:00002290       _wcmdln                    0000000180039290     libucrt:argv_data.obj
 0003:00002298       __acrt_heap                0000000180039298     libucrt:heap_handle.obj
 0003:000022c8       __acrt_lconv_static_null   00000001800392c8     libucrt:localeconv.obj
 0003:000022cc       __acrt_lconv_static_W_null 00000001800392cc     libucrt:localeconv.obj
 0003:000022e4       __fma3_is_available        00000001800392e4     libucrt:fma3_available.obj
 0003:000022e8       __use_fma3_lib             00000001800392e8     libucrt:fma3_available.obj
 0003:000022f0       __dyn_tls_init_callback    00000001800392f0     <common>
 0003:000022f8       __scrt_ucrt_dll_is_in_use  00000001800392f8     <common>

 entry point at        0001:00010c50

 Static symbols

 0000:fffb6000       .debug$S                   0000000180000000     OPOSPOSPrinter.exp
 0000:fffb6000       .debug$S                   0000000180000000     advapi32:ADVAPI32.dll
 0000:fffb6000       .debug$S                   0000000180000000     advapi32:ADVAPI32.dll
 0000:fffb6000       .debug$S                   0000000180000000     advapi32:ADVAPI32.dll
 0000:fffb6000       .debug$S                   0000000180000000     advapi32:ADVAPI32.dll
 0000:fffb6000       .debug$S                   0000000180000000     advapi32:ADVAPI32.dll
 0000:fffb6000       .debug$S                   0000000180000000     advapi32:ADVAPI32.dll
 0000:fffb6000       .debug$S                   0000000180000000     advapi32:ADVAPI32.dll
 0000:fffb6000       .debug$S                   0000000180000000     advapi32:ADVAPI32.dll
 0000:fffb6000       .debug$S                   0000000180000000     advapi32:ADVAPI32.dll
 0000:fffb6000       .debug$S                   0000000180000000     gdi32:GDI32.dll
 0000:fffb6000       .debug$S                   0000000180000000     gdi32:GDI32.dll
 0000:fffb6000       .debug$S                   0000000180000000     gdi32:GDI32.dll
 0000:fffb6000       .debug$S                   0000000180000000     gdi32:GDI32.dll
 0000:fffb6000       .debug$S                   0000000180000000     gdi32:GDI32.dll
 0000:fffb6000       .debug$S                   0000000180000000     gdi32:GDI32.dll
 0000:fffb6000       .debug$S                   0000000180000000     gdi32:GDI32.dll
 0000:fffb6000       .debug$S                   0000000180000000     gdi32:GDI32.dll
 0000:fffb6000       .debug$S                   0000000180000000     gdi32:GDI32.dll
 0000:fffb6000       .debug$S                   0000000180000000     gdi32:GDI32.dll
 0000:fffb6000       .debug$S                   0000000180000000     gdi32:GDI32.dll
 0000:fffb6000       .debug$S                   0000000180000000     gdi32:GDI32.dll
 0000:fffb6000       .debug$S                   0000000180000000     gdi32:GDI32.dll
 0000:fffb6000       .debug$S                   0000000180000000     gdi32:GDI32.dll
 0000:fffb6000       .debug$S                   0000000180000000     gdi32:GDI32.dll
 0000:fffb6000       .debug$S                   0000000180000000     gdi32:GDI32.dll
 0000:fffb6000       .debug$S                   0000000180000000     gdi32:GDI32.dll
 0000:fffb6000       .debug$S                   0000000180000000     gdi32:GDI32.dll
 0000:fffb6000       .debug$S                   0000000180000000     gdi32:GDI32.dll
 0000:fffb6000       .debug$S                   0000000180000000     kernel32:KERNEL32.dll
 0000:fffb6000       .debug$S                   0000000180000000     kernel32:KERNEL32.dll
 0000:fffb6000       .debug$S                   0000000180000000     kernel32:KERNEL32.dll
 0000:fffb6000       .debug$S                   0000000180000000     kernel32:KERNEL32.dll
 0000:fffb6000       .debug$S                   0000000180000000     kernel32:KERNEL32.dll
 0000:fffb6000       .debug$S                   0000000180000000     kernel32:KERNEL32.dll
 0000:fffb6000       .debug$S                   0000000180000000     kernel32:KERNEL32.dll
 0000:fffb6000       .debug$S                   0000000180000000     kernel32:KERNEL32.dll
 0000:fffb6000       .debug$S                   0000000180000000     kernel32:KERNEL32.dll
 0000:fffb6000       .debug$S                   0000000180000000     kernel32:KERNEL32.dll
 0000:fffb6000       .debug$S                   0000000180000000     kernel32:KERNEL32.dll
 0000:fffb6000       .debug$S                   0000000180000000     kernel32:KERNEL32.dll
 0000:fffb6000       .debug$S                   0000000180000000     kernel32:KERNEL32.dll
 0000:fffb6000       .debug$S                   0000000180000000     kernel32:KERNEL32.dll
 0000:fffb6000       .debug$S                   0000000180000000     kernel32:KERNEL32.dll
 0000:fffb6000       .debug$S                   0000000180000000     kernel32:KERNEL32.dll
 0000:fffb6000       .debug$S                   0000000180000000     kernel32:KERNEL32.dll
 0000:fffb6000       .debug$S                   0000000180000000     kernel32:KERNEL32.dll
 0000:fffb6000       .debug$S                   0000000180000000     kernel32:KERNEL32.dll
 0000:fffb6000       .debug$S                   0000000180000000     kernel32:KERNEL32.dll
 0000:fffb6000       .debug$S                   0000000180000000     kernel32:KERNEL32.dll
 0000:fffb6000       .debug$S                   0000000180000000     kernel32:KERNEL32.dll
 0000:fffb6000       .debug$S                   0000000180000000     kernel32:KERNEL32.dll
 0000:fffb6000       .debug$S                   0000000180000000     kernel32:KERNEL32.dll
 0000:fffb6000       .debug$S                   0000000180000000     kernel32:KERNEL32.dll
 0000:fffb6000       .debug$S                   0000000180000000     kernel32:KERNEL32.dll
 0000:fffb6000       .debug$S                   0000000180000000     kernel32:KERNEL32.dll
 0000:fffb6000       .debug$S                   0000000180000000     kernel32:KERNEL32.dll
 0000:fffb6000       .debug$S                   0000000180000000     kernel32:KERNEL32.dll
 0000:fffb6000       .debug$S                   0000000180000000     kernel32:KERNEL32.dll
 0000:fffb6000       .debug$S                   0000000180000000     kernel32:KERNEL32.dll
 0000:fffb6000       .debug$S                   0000000180000000     kernel32:KERNEL32.dll
 0000:fffb6000       .debug$S                   0000000180000000     kernel32:KERNEL32.dll
 0000:fffb6000       .debug$S                   0000000180000000     kernel32:KERNEL32.dll
 0000:fffb6000       .debug$S                   0000000180000000     kernel32:KERNEL32.dll
 0000:fffb6000       .debug$S                   0000000180000000     kernel32:KERNEL32.dll
 0000:fffb6000       .debug$S                   0000000180000000     kernel32:KERNEL32.dll
 0000:fffb6000       .debug$S                   0000000180000000     kernel32:KERNEL32.dll
 0000:fffb6000       .debug$S                   0000000180000000     kernel32:KERNEL32.dll
 0000:fffb6000       .debug$S                   0000000180000000     kernel32:KERNEL32.dll
 0000:fffb6000       .debug$S                   0000000180000000     kernel32:KERNEL32.dll
 0000:fffb6000       .debug$S                   0000000180000000     kernel32:KERNEL32.dll
 0000:fffb6000       .debug$S                   0000000180000000     kernel32:KERNEL32.dll
 0000:fffb6000       .debug$S                   0000000180000000     kernel32:KERNEL32.dll
 0000:fffb6000       .debug$S                   0000000180000000     kernel32:KERNEL32.dll
 0000:fffb6000       .debug$S                   0000000180000000     kernel32:KERNEL32.dll
 0000:fffb6000       .debug$S                   0000000180000000     kernel32:KERNEL32.dll
 0000:fffb6000       .debug$S                   0000000180000000     kernel32:KERNEL32.dll
 0000:fffb6000       .debug$S                   0000000180000000     kernel32:KERNEL32.dll
 0000:fffb6000       .debug$S                   0000000180000000     kernel32:KERNEL32.dll
 0000:fffb6000       .debug$S                   0000000180000000     kernel32:KERNEL32.dll
 0000:fffb6000       .debug$S                   0000000180000000     kernel32:KERNEL32.dll
 0000:fffb6000       .debug$S                   0000000180000000     kernel32:KERNEL32.dll
 0000:fffb6000       .debug$S                   0000000180000000     kernel32:KERNEL32.dll
 0000:fffb6000       .debug$S                   0000000180000000     kernel32:KERNEL32.dll
 0000:fffb6000       .debug$S                   0000000180000000     kernel32:KERNEL32.dll
 0000:fffb6000       .debug$S                   0000000180000000     kernel32:KERNEL32.dll
 0000:fffb6000       .debug$S                   0000000180000000     kernel32:KERNEL32.dll
 0000:fffb6000       .debug$S                   0000000180000000     kernel32:KERNEL32.dll
 0000:fffb6000       .debug$S                   0000000180000000     kernel32:KERNEL32.dll
 0000:fffb6000       .debug$S                   0000000180000000     kernel32:KERNEL32.dll
 0000:fffb6000       .debug$S                   0000000180000000     kernel32:KERNEL32.dll
 0000:fffb6000       .debug$S                   0000000180000000     kernel32:KERNEL32.dll
 0000:fffb6000       .debug$S                   0000000180000000     kernel32:KERNEL32.dll
 0000:fffb6000       .debug$S                   0000000180000000     kernel32:KERNEL32.dll
 0000:fffb6000       .debug$S                   0000000180000000     kernel32:KERNEL32.dll
 0000:fffb6000       .debug$S                   0000000180000000     kernel32:KERNEL32.dll
 0000:fffb6000       .debug$S                   0000000180000000     kernel32:KERNEL32.dll
 0000:fffb6000       .debug$S                   0000000180000000     kernel32:KERNEL32.dll
 0000:fffb6000       .debug$S                   0000000180000000     kernel32:KERNEL32.dll
 0000:fffb6000       .debug$S                   0000000180000000     kernel32:KERNEL32.dll
 0000:fffb6000       .debug$S                   0000000180000000     kernel32:KERNEL32.dll
 0000:fffb6000       .debug$S                   0000000180000000     kernel32:KERNEL32.dll
 0000:fffb6000       .debug$S                   0000000180000000     kernel32:KERNEL32.dll
 0000:fffb6000       .debug$S                   0000000180000000     kernel32:KERNEL32.dll
 0000:fffb6000       .debug$S                   0000000180000000     kernel32:KERNEL32.dll
 0000:fffb6000       .debug$S                   0000000180000000     kernel32:KERNEL32.dll
 0000:fffb6000       .debug$S                   0000000180000000     kernel32:KERNEL32.dll
 0000:fffb6000       .debug$S                   0000000180000000     kernel32:KERNEL32.dll
 0000:fffb6000       .debug$S                   0000000180000000     kernel32:KERNEL32.dll
 0000:fffb6000       .debug$S                   0000000180000000     kernel32:KERNEL32.dll
 0000:fffb6000       .debug$S                   0000000180000000     kernel32:KERNEL32.dll
 0000:fffb6000       .debug$S                   0000000180000000     kernel32:KERNEL32.dll
 0000:fffb6000       .debug$S                   0000000180000000     kernel32:KERNEL32.dll
 0000:fffb6000       .debug$S                   0000000180000000     kernel32:KERNEL32.dll
 0000:fffb6000       .debug$S                   0000000180000000     kernel32:KERNEL32.dll
 0000:fffb6000       .debug$S                   0000000180000000     kernel32:KERNEL32.dll
 0000:fffb6000       .debug$S                   0000000180000000     kernel32:KERNEL32.dll
 0000:fffb6000       .debug$S                   0000000180000000     kernel32:KERNEL32.dll
 0000:fffb6000       .debug$S                   0000000180000000     kernel32:KERNEL32.dll
 0000:fffb6000       .debug$S                   0000000180000000     kernel32:KERNEL32.dll
 0000:fffb6000       .debug$S                   0000000180000000     kernel32:KERNEL32.dll
 0000:fffb6000       .debug$S                   0000000180000000     kernel32:KERNEL32.dll
 0000:fffb6000       .debug$S                   0000000180000000     kernel32:KERNEL32.dll
 0000:fffb6000       .debug$S                   0000000180000000     kernel32:KERNEL32.dll
 0000:fffb6000       .debug$S                   0000000180000000     kernel32:KERNEL32.dll
 0000:fffb6000       .debug$S                   0000000180000000     kernel32:KERNEL32.dll
 0000:fffb6000       .debug$S                   0000000180000000     kernel32:KERNEL32.dll
 0000:fffb6000       .debug$S                   0000000180000000     kernel32:KERNEL32.dll
 0000:fffb6000       .debug$S                   0000000180000000     kernel32:KERNEL32.dll
 0000:fffb6000       .debug$S                   0000000180000000     kernel32:KERNEL32.dll
 0000:fffb6000       .debug$S                   0000000180000000     kernel32:KERNEL32.dll
 0000:fffb6000       .debug$S                   0000000180000000     kernel32:KERNEL32.dll
 0000:fffb6000       .debug$S                   0000000180000000     kernel32:KERNEL32.dll
 0000:fffb6000       .debug$S                   0000000180000000     kernel32:KERNEL32.dll
 0000:fffb6000       .debug$S                   0000000180000000     kernel32:KERNEL32.dll
 0000:fffb6000       .debug$S                   0000000180000000     kernel32:KERNEL32.dll
 0000:fffb6000       .debug$S                   0000000180000000     kernel32:KERNEL32.dll
 0000:fffb6000       .debug$S                   0000000180000000     kernel32:KERNEL32.dll
 0000:fffb6000       .debug$S                   0000000180000000     kernel32:KERNEL32.dll
 0000:fffb6000       .debug$S                   0000000180000000     kernel32:KERNEL32.dll
 0000:fffb6000       .debug$S                   0000000180000000     kernel32:KERNEL32.dll
 0000:fffb6000       .debug$S                   0000000180000000     kernel32:KERNEL32.dll
 0000:fffb6000       .debug$S                   0000000180000000     kernel32:KERNEL32.dll
 0000:fffb6000       .debug$S                   0000000180000000     kernel32:KERNEL32.dll
 0000:fffb6000       .debug$S                   0000000180000000     ole32:ole32.dll
 0000:fffb6000       .debug$S                   0000000180000000     ole32:ole32.dll
 0000:fffb6000       .debug$S                   0000000180000000     ole32:ole32.dll
 0000:fffb6000       .debug$S                   0000000180000000     ole32:ole32.dll
 0000:fffb6000       .debug$S                   0000000180000000     ole32:ole32.dll
 0000:fffb6000       .debug$S                   0000000180000000     ole32:ole32.dll
 0000:fffb6000       .debug$S                   0000000180000000     ole32:ole32.dll
 0000:fffb6000       .debug$S                   0000000180000000     ole32:ole32.dll
 0000:fffb6000       .debug$S                   0000000180000000     ole32:ole32.dll
 0000:fffb6000       .debug$S                   0000000180000000     ole32:ole32.dll
 0000:fffb6000       .debug$S                   0000000180000000     ole32:ole32.dll
 0000:fffb6000       .debug$S                   0000000180000000     ole32:ole32.dll
 0000:fffb6000       .debug$S                   0000000180000000     ole32:ole32.dll
 0000:fffb6000       .debug$S                   0000000180000000     ole32:ole32.dll
 0000:fffb6000       .debug$S                   0000000180000000     oleaut32:OLEAUT32.dll
 0000:fffb6000       .debug$S                   0000000180000000     oleaut32:OLEAUT32.dll
 0000:fffb6000       .debug$S                   0000000180000000     oleaut32:OLEAUT32.dll
 0000:fffb6000       .debug$S                   0000000180000000     oleaut32:OLEAUT32.dll
 0000:fffb6000       .debug$S                   0000000180000000     oleaut32:OLEAUT32.dll
 0000:fffb6000       .debug$S                   0000000180000000     oleaut32:OLEAUT32.dll
 0000:fffb6000       .debug$S                   0000000180000000     oleaut32:OLEAUT32.dll
 0000:fffb6000       .debug$S                   0000000180000000     oleaut32:OLEAUT32.dll
 0000:fffb6000       .debug$S                   0000000180000000     oleaut32:OLEAUT32.dll
 0000:fffb6000       .debug$S                   0000000180000000     oleaut32:OLEAUT32.dll
 0000:fffb6000       .debug$S                   0000000180000000     oleaut32:OLEAUT32.dll
 0000:fffb6000       .debug$S                   0000000180000000     oleaut32:OLEAUT32.dll
 0000:fffb6000       .debug$S                   0000000180000000     oleaut32:OLEAUT32.dll
 0000:fffb6000       .debug$S                   0000000180000000     oleaut32:OLEAUT32.dll
 0000:fffb6000       .debug$S                   0000000180000000     oleaut32:OLEAUT32.dll
 0000:fffb6000       .debug$S                   0000000180000000     oleaut32:OLEAUT32.dll
 0000:fffb6000       .debug$S                   0000000180000000     user32:USER32.dll
 0000:fffb6000       .debug$S                   0000000180000000     user32:USER32.dll
 0000:fffb6000       .debug$S                   0000000180000000     user32:USER32.dll
 0000:fffb6000       .debug$S                   0000000180000000     user32:USER32.dll
 0000:fffb6000       .debug$S                   0000000180000000     user32:USER32.dll
 0000:fffb6000       .debug$S                   0000000180000000     user32:USER32.dll
 0000:fffb6000       .debug$S                   0000000180000000     user32:USER32.dll
 0000:fffb6000       .debug$S                   0000000180000000     user32:USER32.dll
 0000:fffb6000       .debug$S                   0000000180000000     user32:USER32.dll
 0000:fffb6000       .debug$S                   0000000180000000     user32:USER32.dll
 0000:fffb6000       .debug$S                   0000000180000000     user32:USER32.dll
 0000:fffb6000       .debug$S                   0000000180000000     user32:USER32.dll
 0000:fffb6000       .debug$S                   0000000180000000     user32:USER32.dll
 0000:fffb6000       .debug$S                   0000000180000000     user32:USER32.dll
 0000:fffb6000       .debug$S                   0000000180000000     user32:USER32.dll
 0000:fffb6000       .debug$S                   0000000180000000     user32:USER32.dll
 0000:fffb6000       .debug$S                   0000000180000000     user32:USER32.dll
 0000:fffb6000       .debug$S                   0000000180000000     user32:USER32.dll
 0000:fffb6000       .debug$S                   0000000180000000     user32:USER32.dll
 0000:fffb6000       .debug$S                   0000000180000000     user32:USER32.dll
 0000:fffb6000       .debug$S                   0000000180000000     user32:USER32.dll
 0000:fffb6000       .debug$S                   0000000180000000     user32:USER32.dll
 0000:fffb6000       .debug$S                   0000000180000000     user32:USER32.dll
 0000:fffb6000       .debug$S                   0000000180000000     user32:USER32.dll
 0000:fffb6000       .debug$S                   0000000180000000     user32:USER32.dll
 0000:fffb6000       .debug$S                   0000000180000000     user32:USER32.dll
 0000:fffb6000       .debug$S                   0000000180000000     user32:USER32.dll
 0000:fffb6000       .debug$S                   0000000180000000     user32:USER32.dll
 0000:fffb6000       .debug$S                   0000000180000000     user32:USER32.dll
 0000:fffb6000       .debug$S                   0000000180000000     user32:USER32.dll
 0000:fffb6000       .debug$S                   0000000180000000     user32:USER32.dll
 0000:fffb6000       .debug$S                   0000000180000000     user32:USER32.dll
 0000:fffb6000       .debug$S                   0000000180000000     user32:USER32.dll
 0000:fffb6000       .debug$S                   0000000180000000     user32:USER32.dll
 0000:fffb6000       .debug$S                   0000000180000000     user32:USER32.dll
 0001:00000000       ??__E_AtlComModule@ATL@@YAXXZ 0000000180001000 f   OposVariant.obj
 0001:00000020       ??__E_AtlWinModule@ATL@@YAXXZ 0000000180001020 f   OposVariant.obj
 0001:00000040       ??__E?pConnMap@?$IConnectionPointContainerImpl@VCOPOSPOSPrinter@@@ATL@@0PEBU_ATL_CONNMAP_ENTRY@2@EB@@YAXXZ 0000000180001040 f   POSPrinter.obj
 0001:00000058       ??__E_Module@@YAXXZ        0000000180001058 f   POSPrinter.obj
 0001:00000094       ??__E_AtlBaseModule@ATL@@YAXXZ 0000000180001094 f   atls:atlbase.obj
 0001:00010270       ?__scrt_initialize_thread_safe_statics@@YAHXZ 0000000180011270 f   LIBCMT:thread_safe_statics.obj
 0001:00010340       ?__scrt_uninitialize_thread_safe_statics@@YAXXZ 0000000180011340 f   LIBCMT:thread_safe_statics.obj
 0001:00010690       capture_current_context    0000000180011690 f   LIBCMT:gs_report.obj
 0001:00010700       capture_previous_context   0000000180011700 f   LIBCMT:gs_report.obj
 0001:000108a0       $$000000                   00000001800118a0     LIBCMT:chkstk.obj
 0001:00010900       $$000000                   0000000180011900     LIBCMT:amdsecgs.obj
 0001:00010930       ?dllmain_crt_dispatch@@YAHQEAUHINSTANCE__@@KQEAX@Z 0000000180011930 f   LIBCMT:dll_dllmain.obj
 0001:00010980       ?dllmain_crt_process_attach@@YAHQEAUHINSTANCE__@@QEAX@Z 0000000180011980 f   LIBCMT:dll_dllmain.obj
 0001:00010a98       ?dllmain_crt_process_detach@@YAH_N@Z 0000000180011a98 f   LIBCMT:dll_dllmain.obj
 0001:00010b1c       ?dllmain_dispatch@@YAHQEAUHINSTANCE__@@KQEAX@Z 0000000180011b1c f   LIBCMT:dll_dllmain.obj
 0001:000113e8       ??$GetProcAddressAll@P6AP6A_JPEAUHWND__@@I_K_J@ZPEAUAtlThunkData_t@@@Z@@YAP6AP6A_JPEAUHWND__@@I_K_J@ZPEAUAtlThunkData_t@@@ZPEAP6AP6A_J0I12@Z3@Z@Z 00000001800123e8 f   atls:atlthunk.obj
 0001:000113e8       ??$GetProcAddressAll@P6APEAUAtlThunkData_t@@XZ@@YAP6APEAUAtlThunkData_t@@XZPEAP6APEAU0@XZ@Z 00000001800123e8 f   atls:atlthunk.obj
 0001:000113e8       ??$GetProcAddressAll@P6AXPEAUAtlThunkData_t@@@Z@@YAP6AXPEAUAtlThunkData_t@@@ZPEAP6AX0@Z@Z 00000001800123e8 f   atls:atlthunk.obj
 0001:000113e8       ??$GetProcAddressAll@P6AXPEAUAtlThunkData_t@@PEAX_K@Z@@YAP6AXPEAUAtlThunkData_t@@PEAX_K@ZPEAP6AX012@Z@Z 00000001800123e8 f   atls:atlthunk.obj
 0001:000115c0       ?__InitializeThunkPool@@YAHXZ 00000001800125c0 f   atls:atlthunk.obj
 0001:00011a60       $$000000                   0000000180012a60     libvcruntime:memcmp.obj
 0001:00011b40       $$000000                   0000000180012b40     libvcruntime:memcpy.obj
 0001:000121f0       $$000000                   00000001800131f0     libvcruntime:memset.obj
 0001:00013800       $$000000                   0000000180014800     libvcruntime:notify.obj
 0001:00013a80       ??$BuildCatchObjectHelperInternal@V__FrameHandler3@@@@YAHPEAUEHExceptionRecord@@PEAXPEBU_s_HandlerType@@PEBU_s_CatchableType@@@Z 0000000180014a80 f   libvcruntime:frame.obj
 0001:00013c80       ??$BuildCatchObjectHelperInternal@V__FrameHandler4@@@@YAHPEAUEHExceptionRecord@@PEAXPEAUHandlerType4@FH4@@PEBU_s_CatchableType@@@Z 0000000180014c80 f   libvcruntime:frame.obj
 0001:00013e84       ??$BuildCatchObjectInternal@V__FrameHandler3@@@@YAXPEAUEHExceptionRecord@@PEAXPEBU_s_HandlerType@@PEBU_s_CatchableType@@@Z 0000000180014e84 f   libvcruntime:frame.obj
 0001:00013f44       ??$BuildCatchObjectInternal@V__FrameHandler4@@@@YAXPEAUEHExceptionRecord@@PEAXPEAUHandlerType4@FH4@@PEBU_s_CatchableType@@@Z 0000000180014f44 f   libvcruntime:frame.obj
 0001:00014008       ??$CatchIt@V__FrameHandler3@@@@YAXPEAUEHExceptionRecord@@PEA_KPEAU_CONTEXT@@PEAU_xDISPATCHER_CONTEXT@@PEBU_s_FuncInfo@@PEBU_s_HandlerType@@PEBU_s_CatchableType@@PEBU_s_TryBlockMapEntry@@H1EE@Z 0000000180015008 f   libvcruntime:frame.obj
 0001:000140dc       ??$CatchIt@V__FrameHandler4@@@@YAXPEAUEHExceptionRecord@@PEA_KPEAU_CONTEXT@@PEAU_xDISPATCHER_CONTEXT@@PEAUFuncInfo4@FH4@@PEAUHandlerType4@4@PEBU_s_CatchableType@@PEAUTryBlockMapEntry4@4@H1EE@Z 00000001800150dc f   libvcruntime:frame.obj
 0001:000141b0       ??$FindHandler@V__FrameHandler3@@@@YAXPEAUEHExceptionRecord@@PEA_KPEAU_CONTEXT@@PEAU_xDISPATCHER_CONTEXT@@PEBU_s_FuncInfo@@EH1@Z 00000001800151b0 f   libvcruntime:frame.obj
 0001:00014688       ??$FindHandler@V__FrameHandler4@@@@YAXPEAUEHExceptionRecord@@PEA_KPEAU_CONTEXT@@PEAU_xDISPATCHER_CONTEXT@@PEAUFuncInfo4@FH4@@EH1@Z 0000000180015688 f   libvcruntime:frame.obj
 0001:00014b84       ??$FindHandlerForForeignException@V__FrameHandler3@@@@YAXPEAUEHExceptionRecord@@PEA_KPEAU_CONTEXT@@PEAU_xDISPATCHER_CONTEXT@@PEBU_s_FuncInfo@@HH1@Z 0000000180015b84 f   libvcruntime:frame.obj
 0001:00014da0       ??$FindHandlerForForeignException@V__FrameHandler4@@@@YAXPEAUEHExceptionRecord@@PEA_KPEAU_CONTEXT@@PEAU_xDISPATCHER_CONTEXT@@PEAUFuncInfo4@FH4@@HH1@Z 0000000180015da0 f   libvcruntime:frame.obj
 0001:00015f60       ?ExFilterRethrow@@YAHPEAU_EXCEPTION_POINTERS@@PEAUEHExceptionRecord@@PEAH@Z 0000000180016f60 f   libvcruntime:frame.obj
 0001:00015fe8       ?ExFilterRethrowFH4@@YAHPEAU_EXCEPTION_POINTERS@@PEAUEHExceptionRecord@@HPEAH@Z 0000000180016fe8 f   libvcruntime:frame.obj
 0001:00016538       ?IsInExceptionSpec@@YAEPEAUEHExceptionRecord@@PEBU_s_ESTypeList@@@Z 0000000180017538 f   libvcruntime:frame.obj
 0001:00016628       ?Is_bad_exception_allowed@@YAEPEBU_s_ESTypeList@@@Z 0000000180017628 f   libvcruntime:frame.obj
 0001:00016904       ?try_get_function@@YAPEAXW4function_id@?A0xbc0cc709@@QEBDQEBW4module_id@2@2@Z 0000000180017904 f   libvcruntime:winapi_downlevel.obj
 0001:00016bf0       $$000000                   0000000180017bf0     libvcruntime:handlers.obj
 0001:0001761c       ??$common_vsprintf@Vformat_validation_base@__crt_stdio_output@@_W@@YAH_KQEA_W0QEB_WAEAV__crt_cached_ptd_host@@QEAD@Z 000000018001861c f   libucrt:output.obj
 0001:00019d6c       ??$?RV<lambda_d80eeec6fff315bfe5c115232f3240e3>@@AEAV<lambda_6e4b09c48022b2350581041d5f6b0c4c>@@V<lambda_2358e3775559c9db80273638284d5e45>@@@?$__crt_seh_guarded_call@X@@QEAAX$$QEAV<lambda_d80eeec6fff315bfe5c115232f3240e3>@@AEAV<lambda_6e4b09c48022b2350581041d5f6b0c4c>@@$$QEAV<lambda_2358e3775559c9db80273638284d5e45>@@@Z 000000018001ad6c f   libucrt:exit.obj
 0001:00019da4       ??R<lambda_6e4b09c48022b2350581041d5f6b0c4c>@@QEBA@XZ 000000018001ada4 f   libucrt:exit.obj
 0001:00019e70       ?common_exit@@YAXHW4_crt_exit_cleanup_mode@@W4_crt_exit_return_mode@@@Z 000000018001ae70 f   libucrt:exit.obj
 0001:00019f38       ?exit_or_terminate_process@@YAXI@Z 000000018001af38 f   libucrt:exit.obj
 0001:00019f6c       ?should_call_terminate_process@@YA_NXZ 000000018001af6c f   libucrt:exit.obj
 0001:00019f9c       ?try_cor_exit_process@@YAXI@Z 000000018001af9c f   libucrt:exit.obj
 0001:0001a038       ??$parse_command_line@D@@YAXPEADPEAPEAD0PEA_K2@Z 000000018001b038 f   libucrt:argv_parsing.obj
 0001:0001a3e0       ??$common_initialize_environment_nolock@D@@YAHXZ 000000018001b3e0 f   libucrt:environment_initialization.obj
 0001:0001a454       ??$create_environment@D@@YAQEAPEADQEAD@Z 000000018001b454 f   libucrt:environment_initialization.obj
 0001:0001a564       ??$free_environment@D@@YAXQEAPEAD@Z 000000018001b564 f   libucrt:environment_initialization.obj
 0001:0001a564       ??$free_environment@_W@@YAXQEAPEA_W@Z 000000018001b564 f   libucrt:environment_initialization.obj
 0001:0001a5a8       ??$uninitialize_environment_internal@D@@YAXAEAPEAPEAD@Z 000000018001b5a8 f   libucrt:environment_initialization.obj
 0001:0001a5c4       ??$uninitialize_environment_internal@_W@@YAXAEAPEAPEA_W@Z 000000018001b5c4 f   libucrt:environment_initialization.obj
 0001:0001a62c       ??$?RV<lambda_638799b9deba96c50f710eeac98168cd>@@AEAV<lambda_22ebabd17bc4fa466a2aca6d8deb888d>@@V<lambda_a6f7d7db0129f75315ebf26d50c089f1>@@@?$__crt_seh_guarded_call@H@@QEAAH$$QEAV<lambda_638799b9deba96c50f710eeac98168cd>@@AEAV<lambda_22ebabd17bc4fa466a2aca6d8deb888d>@@$$QEAV<lambda_a6f7d7db0129f75315ebf26d50c089f1>@@@Z 000000018001b62c f   libucrt:onexit.obj
 0001:0001a668       ??$?RV<lambda_7777bce6b2f8c936911f934f8298dc43>@@AEAV<lambda_f03950bc5685219e0bcd2087efbe011e>@@V<lambda_3883c3dff614d5e0c5f61bb1ac94921c>@@@?$__crt_seh_guarded_call@H@@QEAAH$$QEAV<lambda_7777bce6b2f8c936911f934f8298dc43>@@AEAV<lambda_f03950bc5685219e0bcd2087efbe011e>@@$$QEAV<lambda_3883c3dff614d5e0c5f61bb1ac94921c>@@@Z 000000018001b668 f   libucrt:onexit.obj
 0001:0001a6a4       ??R<lambda_22ebabd17bc4fa466a2aca6d8deb888d>@@QEBAHXZ 000000018001b6a4 f   libucrt:onexit.obj
 0001:0001a854       ??R<lambda_f03950bc5685219e0bcd2087efbe011e>@@QEBAHXZ 000000018001b854 f   libucrt:onexit.obj
 0001:0001aa38       initialize_global_variables 000000018001ba38 f   libucrt:initialization.obj
 0001:0001aa4c       initialize_c               000000018001ba4c f   libucrt:initialization.obj
 0001:0001aa70       initialize_environment     000000018001ba70 f   libucrt:initialization.obj
 0001:0001aa70       initialize_global_state_isolation 000000018001ba70 f   libucrt:initialization.obj
 0001:0001aa70       report_memory_leaks        000000018001ba70 f   libucrt:initialization.obj
 0001:0001aa70       uninitialize_c             000000018001ba70 f   libucrt:initialization.obj
 0001:0001aa70       uninitialize_global_state_isolation 000000018001ba70 f   libucrt:initialization.obj
 0001:0001aa74       uninitialize_environment   000000018001ba74 f   libucrt:initialization.obj
 0001:0001aa84       initialize_pointers        000000018001ba84 f   libucrt:initialization.obj
 0001:0001aac4       uninitialize_vcruntime     000000018001bac4 f   libucrt:initialization.obj
 0001:0001aacc       uninitialize_allocated_memory 000000018001bacc f   libucrt:initialization.obj
 0001:0001ab0c       uninitialize_allocated_io_buffers 000000018001bb0c f   libucrt:initialization.obj
 0001:0001add0       $$000000                   000000018001bdd0     libucrt:strncmp.obj
 0001:0001aec8       ??$?RV<lambda_0ae27a3a962d80f24befdcbee591983d>@@AEAV<lambda_8d0ee55de4b1038c4002e0adecdf1839>@@V<lambda_dc504788e8f1664fe9b84e20bfb512f2>@@@?$__crt_seh_guarded_call@X@@QEAAX$$QEAV<lambda_0ae27a3a962d80f24befdcbee591983d>@@AEAV<lambda_8d0ee55de4b1038c4002e0adecdf1839>@@$$QEAV<lambda_dc504788e8f1664fe9b84e20bfb512f2>@@@Z 000000018001bec8 f   libucrt:per_thread_data.obj
 0001:0001af08       ??$?RV<lambda_2d41944a1d46af3157314b8a01080d33>@@AEAV<lambda_8f455de75cd7d7f24b4096f044d8b9e6>@@V<lambda_aa500f224e6afead328df44964fe2772>@@@?$__crt_seh_guarded_call@X@@QEAAX$$QEAV<lambda_2d41944a1d46af3157314b8a01080d33>@@AEAV<lambda_8f455de75cd7d7f24b4096f044d8b9e6>@@$$QEAV<lambda_aa500f224e6afead328df44964fe2772>@@@Z 000000018001bf08 f   libucrt:per_thread_data.obj
 0001:0001af48       ??$?RV<lambda_aa87e3671a710a21b5dc78c0bdf72e11>@@AEAV<lambda_92619d2358a28f41a33ba319515a20b9>@@V<lambda_6992ecaafeb10aed2b74cb1fae11a551>@@@?$__crt_seh_guarded_call@X@@QEAAX$$QEAV<lambda_aa87e3671a710a21b5dc78c0bdf72e11>@@AEAV<lambda_92619d2358a28f41a33ba319515a20b9>@@$$QEAV<lambda_6992ecaafeb10aed2b74cb1fae11a551>@@@Z 000000018001bf48 f   libucrt:per_thread_data.obj
 0001:0001af90       ??$?RV<lambda_f2e299630e499de9f9a165e60fcd3db5>@@AEAV<lambda_2ae9d31cdba2644fcbeaf08da7c24588>@@V<lambda_40d01ff24d0e7b3814fdbdcee8eab3c7>@@@?$__crt_seh_guarded_call@X@@QEAAX$$QEAV<lambda_f2e299630e499de9f9a165e60fcd3db5>@@AEAV<lambda_2ae9d31cdba2644fcbeaf08da7c24588>@@$$QEAV<lambda_40d01ff24d0e7b3814fdbdcee8eab3c7>@@@Z 000000018001bf90 f   libucrt:per_thread_data.obj
 0001:0001aff0       ?construct_ptd_array@@YAXQEAU__acrt_ptd@@@Z 000000018001bff0 f   libucrt:per_thread_data.obj
 0001:0001b0c0       ?destroy_fls@@YAXPEAX@Z    000000018001c0c0 f   libucrt:per_thread_data.obj
 0001:0001b0e0       ?destroy_ptd_array@@YAXQEAU__acrt_ptd@@@Z 000000018001c0e0 f   libucrt:per_thread_data.obj
 0001:0001b1d8       ?replace_current_thread_locale_nolock@@YAXQEAU__acrt_ptd@@QEAU__crt_locale_data@@@Z 000000018001c1d8 f   libucrt:per_thread_data.obj
 0001:0001b5e4       ??$?RV<lambda_410d79af7f07d98d83a3f525b3859a53>@@AEAV<lambda_3e16ef9562a7dcce91392c22ab16ea36>@@V<lambda_38119f0e861e05405d8a144b9b982f0a>@@@?$__crt_seh_guarded_call@X@@QEAAX$$QEAV<lambda_410d79af7f07d98d83a3f525b3859a53>@@AEAV<lambda_3e16ef9562a7dcce91392c22ab16ea36>@@$$QEAV<lambda_38119f0e861e05405d8a144b9b982f0a>@@@Z 000000018001c5e4 f   libucrt:wsetlocale.obj
 0001:0001b820       ?try_get_function@@YAPEAXW4function_id@?A0x391cf84c@@QEBDQEBW4module_id@2@2@Z 000000018001c820 f   libucrt:winapi_thunks.obj
 0001:0001bfbc       ?fp_format_a@@YAHQEBNPEAD_KQEAD2H_NIW4__acrt_rounding_mode@@AEAV__crt_cached_ptd_host@@@Z 000000018001cfbc f   libucrt:cvt.obj
 0001:0001c370       ?fp_format_e@@YAHQEBNQEAD_K12H_NIW4__acrt_rounding_mode@@AEAV__crt_cached_ptd_host@@@Z 000000018001d370 f   libucrt:cvt.obj
 0001:0001c46c       ?fp_format_e_internal@@YAHQEAD_KH_NIQEAU_strflt@@2AEAV__crt_cached_ptd_host@@@Z 000000018001d46c f   libucrt:cvt.obj
 0001:0001c650       ?fp_format_f@@YAHQEBNQEAD_K12HW4__acrt_rounding_mode@@AEAV__crt_cached_ptd_host@@@Z 000000018001d650 f   libucrt:cvt.obj
 0001:0001c728       ?fp_format_f_internal@@YAHQEAD_KHQEAU_strflt@@_NAEAV__crt_cached_ptd_host@@@Z 000000018001d728 f   libucrt:cvt.obj
 0001:0001c880       ?fp_format_g@@YAHQEBNQEAD_K12H_NIW4__acrt_rounding_mode@@AEAV__crt_cached_ptd_host@@@Z 000000018001d880 f   libucrt:cvt.obj
 0001:0001c9d4       ?should_round_up@@YA_NQEBN_KFW4__acrt_rounding_mode@@@Z 000000018001d9d4 f   libucrt:cvt.obj
 0001:0001d120       ?initialize_inherited_file_handles_nolock@@YAXXZ 000000018001e120 f   libucrt:ioinit.obj
 0001:0001d210       ?initialize_stdio_handles_nolock@@YAXXZ 000000018001e210 f   libucrt:ioinit.obj
 0001:0001d488       ?<lambda_invoker_cdecl>@<lambda_a1ce4c8ae42411fd470c77163914f50e>@@CAHPEBX0@Z 000000018001e488 f   libucrt:argv_wildcards.obj
 0001:0001d7a4       ??$common_expand_argv_wildcards@D@@YAHQEAPEADQEAPEAPEAD@Z 000000018001e7a4 f   libucrt:argv_wildcards.obj
 0001:0001d9e8       ??$copy_and_add_argument_to_buffer@D@@YAHQEBD0_KAEAV?$argument_list@D@?A0x5f5c8891@@@Z 000000018001e9e8 f   libucrt:argv_wildcards.obj
 0001:0001db70       ??$expand_argument_wildcards@D@@YAHQEAD0AEAV?$argument_list@D@?A0x5f5c8891@@@Z 000000018001eb70 f   libucrt:argv_wildcards.obj
 0001:0001e1a4       ??$?RV<lambda_efdfa57d1f175319df784efa44bb7b81>@@AEAV<lambda_5f0a4c1567f8adc6734073e5d1e1b35c>@@V<lambda_2e8a7d3640ea6ccb4c2413664c2db6fd>@@@?$__crt_seh_guarded_call@X@@QEAAX$$QEAV<lambda_efdfa57d1f175319df784efa44bb7b81>@@AEAV<lambda_5f0a4c1567f8adc6734073e5d1e1b35c>@@$$QEAV<lambda_2e8a7d3640ea6ccb4c2413664c2db6fd>@@@Z 000000018001f1a4 f   libucrt:mbctype.obj
 0001:0001e374       ?getSystemCP@@YAHH@Z       000000018001f374 f   libucrt:mbctype.obj
 0001:0001e3f4       ?setSBCS@@YAXPEAU__crt_multibyte_data@@@Z 000000018001f3f4 f   libucrt:mbctype.obj
 0001:0001e48c       ?setSBUpLow@@YAXPEAU__crt_multibyte_data@@@Z 000000018001f48c f   libucrt:mbctype.obj
 0001:0001e674       ?setmbcp_internal@@YAHH_NQEAU__acrt_ptd@@QEAPEAU__crt_multibyte_data@@@Z 000000018001f674 f   libucrt:mbctype.obj
 0001:0001e8e4       ?update_thread_multibyte_data_internal@@YAPEAU__crt_multibyte_data@@QEAU__acrt_ptd@@QEAPEAU1@@Z 000000018001f8e4 f   libucrt:mbctype.obj
 0001:0001ecd8       ?x_ismbbtype_l@@YAHPEAU__crt_locale_pointers@@IHH@Z 000000018001fcd8 f   libucrt:ismbbyte.obj
 0001:0001f0a8       ??$?RV<lambda_450d765d439847d4c735a33c368b5fc0>@@AEAV<lambda_44731a7d0e6d81c3e6aa82d741081786>@@V<lambda_601a2a7da3b7a96e9554ac7215c4b07c>@@@?$__crt_seh_guarded_call@P6AXH@Z@@QEAAP6AXH@Z$$QEAV<lambda_450d765d439847d4c735a33c368b5fc0>@@AEAV<lambda_44731a7d0e6d81c3e6aa82d741081786>@@$$QEAV<lambda_601a2a7da3b7a96e9554ac7215c4b07c>@@@Z 00000001800200a8 f   libucrt:signal.obj
 0001:0001f420       ??$?RV<lambda_842d9ff0dc9ef11c61343bbaebe7f885>@@AEAV<lambda_c5860995281e5c4ce005b3de8f5874ee>@@V<lambda_d90129c13df834fdcbf8d2b88dafcf2d>@@@?$__crt_seh_guarded_call@X@@QEAAX$$QEAV<lambda_842d9ff0dc9ef11c61343bbaebe7f885>@@AEAV<lambda_c5860995281e5c4ce005b3de8f5874ee>@@$$QEAV<lambda_d90129c13df834fdcbf8d2b88dafcf2d>@@@Z 0000000180020420 f   libucrt:fflush.obj
 0001:0001f4bc       ??$?RV<lambda_886d6c58226a84441f68b9f2b8217b83>@@AEAV<lambda_ab61a845afdef5b7c387490eaf3616ee>@@V<lambda_f7f22ab5edc0698d5f6905b0d3f44752>@@@?$__crt_seh_guarded_call@X@@QEAAX$$QEAV<lambda_886d6c58226a84441f68b9f2b8217b83>@@AEAV<lambda_ab61a845afdef5b7c387490eaf3616ee>@@$$QEAV<lambda_f7f22ab5edc0698d5f6905b0d3f44752>@@@Z 00000001800204bc f   libucrt:fflush.obj
 0001:0001f59c       ?common_flush_all@@YAH_N@Z 000000018002059c f   libucrt:fflush.obj
 0001:0001fce8       ?free_crt_array_internal@@YAXQEAPEBX_K@Z 0000000180020ce8 f   libucrt:inittime.obj
 0001:000218cc       memcpy_s                   00000001800228cc f   libucrt:cfout.obj
 0001:000224d0       fallbackMethod             00000001800234d0 f   libucrt:strpbrk.obj
 0001:0002287c       $LN78                      000000018002387c     libucrt:strpbrk.obj
 0001:000228b8       $LN77                      00000001800238b8     libucrt:strpbrk.obj
 0001:000228f8       $LN76                      00000001800238f8     libucrt:strpbrk.obj
 0001:000229d4       ?__acrt_LCMapStringA_stat@@YAHPEAU__crt_locale_pointers@@PEB_WKPEBDHPEADHHH@Z 00000001800239d4 f   libucrt:lcmapstringa.obj
 0001:00022d8c       ?initialize_multibyte@@YAHXZ 0000000180023d8c f   libucrt:multibyte_initializer.obj
 0001:00022da4       ??$?RV<lambda_a37b2b86f63e897a80ea819b0eb08c01>@@AEAV<lambda_38ce7e780aa69e748d6df282ebc68efe>@@V<lambda_99fb1378e971ab6e7edea83e3a7a83a2>@@@?$__crt_seh_guarded_call@H@@QEAAH$$QEAV<lambda_a37b2b86f63e897a80ea819b0eb08c01>@@AEAV<lambda_38ce7e780aa69e748d6df282ebc68efe>@@$$QEAV<lambda_99fb1378e971ab6e7edea83e3a7a83a2>@@@Z 0000000180023da4 f   libucrt:commit.obj
 0001:00022ec4       ?write_double_translated_ansi_nolock@@YA?AUwrite_result@?A0x17268360@@HQEBDIAEAV__crt_cached_ptd_host@@@Z 0000000180023ec4 f   libucrt:write.obj
 0001:00023350       ?write_text_ansi_nolock@@YA?AUwrite_result@?A0x17268360@@HQEBDI@Z 0000000180024350 f   libucrt:write.obj
 0001:00023454       ?write_text_utf16le_nolock@@YA?AUwrite_result@?A0x17268360@@HQEBDI@Z 0000000180024454 f   libucrt:write.obj
 0001:00023570       ?write_text_utf8_nolock@@YA?AUwrite_result@?A0x17268360@@HQEBDI@Z 0000000180024570 f   libucrt:write.obj
 0001:00023d50       $$000000                   0000000180024d50     libucrt:log10.obj
 0001:000247ec       ?_fclose_internal@@YAHQEAU_iobuf@@AEAV__crt_cached_ptd_host@@@Z 00000001800257ec f   libucrt:fclose.obj
 0001:00024868       ?_fclose_nolock_internal@@YAHQEAU_iobuf@@AEAV__crt_cached_ptd_host@@@Z 0000000180025868 f   libucrt:fclose.obj
 0001:000249a4       ??$common_lseek_nolock@_J@@YA_JH_JHAEAV__crt_cached_ptd_host@@@Z 00000001800259a4 f   libucrt:lseek.obj
 0001:00024b2c       common_control87           0000000180025b2c f   libucrt:ieee.obj
 0001:00024dec       _call_matherr              0000000180025dec f   libucrt:libm_error.obj
 0001:00024e54       _exception_enabled         0000000180025e54 f   libucrt:libm_error.obj
 0001:000250f0       _log_special_common        00000001800260f0 f   libucrt:log_special.obj
 0001:00025188       ??$?RV<lambda_ad8af0d99a0adf03d037d7dffe354bb5>@@AEAV<lambda_c9ba49e555ba839a7b07aa3fbecb7617>@@V<lambda_2f1ebd5d68526518146ae959c9e734c8>@@@?$__crt_seh_guarded_call@H@@QEAAH$$QEAV<lambda_ad8af0d99a0adf03d037d7dffe354bb5>@@AEAV<lambda_c9ba49e555ba839a7b07aa3fbecb7617>@@$$QEAV<lambda_2f1ebd5d68526518146ae959c9e734c8>@@@Z 0000000180026188 f   libucrt:close.obj
 0001:000254e0       $$000000                   00000001800264e0     libucrt:fpsr.obj
 0001:00025c60       $$000000                   0000000180026c60     LIBCMT:guard_dispatch.obj
 0001:00025c80       $$000000                   0000000180026c80     LIBCMT:guard_xfg_dispatch.obj
 0001:00025ca0       ?filt$0@?0??_AtlVerifyStackAvailable@_ATL_SAFE_ALLOCA_IMPL@ATL@@YA_N_K@Z@4HA 0000000180026ca0 f   POSPrinter.obj
 0001:00025cc1       __scrt_is_nonwritable_in_current_image$filt$0 0000000180026cc1 f   LIBCMT:utility.obj
 0001:00025cd9       ?catch$0@?0???2@YAPEAX_KAEBUnothrow_t@std@@@Z@4HA 0000000180026cd9 f   LIBCMT:new_scalar_nothrow.obj
 0001:00025ce6       __catch$??2@YAPEAX_KAEBUnothrow_t@std@@@Z$0 0000000180026ce6 f   LIBCMT:new_scalar_nothrow.obj
 0001:00025cf7       ?fin$0@?0??dllmain_crt_process_attach@@YAHQEAUHINSTANCE__@@QEAX@Z@4HA 0000000180026cf7 f   LIBCMT:dll_dllmain.obj
 0001:00025d0e       ?fin$0@?0??dllmain_crt_process_detach@@YAH_N@Z@4HA 0000000180026d0e f   LIBCMT:dll_dllmain.obj
 0001:00025d27       ?fin$1@?0??dllmain_crt_process_detach@@YAH_N@Z@4HA 0000000180026d27 f   LIBCMT:dll_dllmain.obj
 0001:00025d3b       ?filt$0@?0??dllmain_dispatch@@YAHQEAUHINSTANCE__@@KQEAX@Z@4HA 0000000180026d3b f   LIBCMT:dll_dllmain.obj
 0001:00025d71       ?filt$0@?0???$_CallSETranslator@V__FrameHandler3@@@@YAHPEAUEHExceptionRecord@@PEA_KPEAU_CONTEXT@@PEAU_xDISPATCHER_CONTEXT@@PEBU_s_FuncInfo@@K1H@Z@4HA 0000000180026d71 f   libvcruntime:risctrnsctrl.obj
 0001:00025e02       ?filt$0@?0???$_CallSETranslator@V__FrameHandler4@@@@YAHPEAUEHExceptionRecord@@PEA_KPEAU_CONTEXT@@PEAU_xDISPATCHER_CONTEXT@@PEAUFuncInfo4@FH4@@K1H@Z@4HA 0000000180026e02 f   libvcruntime:risctrnsctrl.obj
 0001:00025ea1       __DestructExceptionObject$filt$0 0000000180026ea1 f   libvcruntime:ehhelpers.obj
 0001:00025f37       ?filt$0@?0??CxxCallCatchBlock@__FrameHandler3@@SAPEAXPEAU_EXCEPTION_RECORD@@@Z@4HA 0000000180026f37 f   libvcruntime:frame.obj
 0001:00025f5c       ?fin$1@?0??CxxCallCatchBlock@__FrameHandler3@@SAPEAXPEAU_EXCEPTION_RECORD@@@Z@4HA 0000000180026f5c f   libvcruntime:frame.obj
 0001:00025fe2       ?filt$0@?0??CxxCallCatchBlock@__FrameHandler4@@SAPEAXPEAU_EXCEPTION_RECORD@@@Z@4HA 0000000180026fe2 f   libvcruntime:frame.obj
 0001:00026011       ?fin$1@?0??CxxCallCatchBlock@__FrameHandler4@@SAPEAXPEAU_EXCEPTION_RECORD@@@Z@4HA 0000000180027011 f   libvcruntime:frame.obj
 0001:000260a2       ?filt$0@?0??FrameUnwindToState@__FrameHandler3@@SAXPEA_KPEAU_xDISPATCHER_CONTEXT@@PEBU_s_FuncInfo@@H@Z@4HA 00000001800270a2 f   libvcruntime:frame.obj
 0001:000260b8       ?fin$1@?0??FrameUnwindToState@__FrameHandler3@@SAXPEA_KPEAU_xDISPATCHER_CONTEXT@@PEBU_s_FuncInfo@@H@Z@4HA 00000001800270b8 f   libvcruntime:frame.obj
 0001:000260db       ?filt$0@?0??FrameUnwindToState@__FrameHandler4@@SAXPEA_KPEAU_xDISPATCHER_CONTEXT@@PEAUFuncInfo4@FH4@@H@Z@4HA 00000001800270db f   libvcruntime:frame.obj
 0001:000260f1       ?fin$1@?0??FrameUnwindToState@__FrameHandler4@@SAXPEA_KPEAU_xDISPATCHER_CONTEXT@@PEAUFuncInfo4@FH4@@H@Z@4HA 00000001800270f1 f   libvcruntime:frame.obj
 0001:00026114       ?fin$0@?0???$?RV<lambda_0ae27a3a962d80f24befdcbee591983d>@@AEAV<lambda_8d0ee55de4b1038c4002e0adecdf1839>@@V<lambda_dc504788e8f1664fe9b84e20bfb512f2>@@@?$__crt_seh_guarded_call@X@@QEAAX$$QEAV<lambda_0ae27a3a962d80f24befdcbee591983d>@@AEAV<lambda_8d0ee55de4b1038c4002e0adecdf1839>@@$$QEAV<lambda_dc504788e8f1664fe9b84e20bfb512f2>@@@Z@4HA 0000000180027114 f   libucrt:per_thread_data.obj
 0001:00026114       ?fin$0@?0???$?RV<lambda_2d41944a1d46af3157314b8a01080d33>@@AEAV<lambda_8f455de75cd7d7f24b4096f044d8b9e6>@@V<lambda_aa500f224e6afead328df44964fe2772>@@@?$__crt_seh_guarded_call@X@@QEAAX$$QEAV<lambda_2d41944a1d46af3157314b8a01080d33>@@AEAV<lambda_8f455de75cd7d7f24b4096f044d8b9e6>@@$$QEAV<lambda_aa500f224e6afead328df44964fe2772>@@@Z@4HA 0000000180027114 f   libucrt:per_thread_data.obj
 0001:00026114       ?fin$0@?0???$?RV<lambda_aa87e3671a710a21b5dc78c0bdf72e11>@@AEAV<lambda_92619d2358a28f41a33ba319515a20b9>@@V<lambda_6992ecaafeb10aed2b74cb1fae11a551>@@@?$__crt_seh_guarded_call@X@@QEAAX$$QEAV<lambda_aa87e3671a710a21b5dc78c0bdf72e11>@@AEAV<lambda_92619d2358a28f41a33ba319515a20b9>@@$$QEAV<lambda_6992ecaafeb10aed2b74cb1fae11a551>@@@Z@4HA 0000000180027114 f   libucrt:per_thread_data.obj
 0001:00026114       ?fin$0@?0???$?RV<lambda_f2e299630e499de9f9a165e60fcd3db5>@@AEAV<lambda_2ae9d31cdba2644fcbeaf08da7c24588>@@V<lambda_40d01ff24d0e7b3814fdbdcee8eab3c7>@@@?$__crt_seh_guarded_call@X@@QEAAX$$QEAV<lambda_f2e299630e499de9f9a165e60fcd3db5>@@AEAV<lambda_2ae9d31cdba2644fcbeaf08da7c24588>@@$$QEAV<lambda_40d01ff24d0e7b3814fdbdcee8eab3c7>@@@Z@4HA 0000000180027114 f   libucrt:per_thread_data.obj
 0001:00026114       ?fin$0@?0???$?RV<lambda_450d765d439847d4c735a33c368b5fc0>@@AEAV<lambda_44731a7d0e6d81c3e6aa82d741081786>@@V<lambda_601a2a7da3b7a96e9554ac7215c4b07c>@@@?$__crt_seh_guarded_call@P6AXH@Z@@QEAAP6AXH@Z$$QEAV<lambda_450d765d439847d4c735a33c368b5fc0>@@AEAV<lambda_44731a7d0e6d81c3e6aa82d741081786>@@$$QEAV<lambda_601a2a7da3b7a96e9554ac7215c4b07c>@@@Z@4HA 0000000180027114 f   libucrt:signal.obj
 0001:00026114       ?fin$0@?0???$?RV<lambda_d80eeec6fff315bfe5c115232f3240e3>@@AEAV<lambda_6e4b09c48022b2350581041d5f6b0c4c>@@V<lambda_2358e3775559c9db80273638284d5e45>@@@?$__crt_seh_guarded_call@X@@QEAAX$$QEAV<lambda_d80eeec6fff315bfe5c115232f3240e3>@@AEAV<lambda_6e4b09c48022b2350581041d5f6b0c4c>@@$$QEAV<lambda_2358e3775559c9db80273638284d5e45>@@@Z@4HA 0000000180027114 f   libucrt:exit.obj
 0001:00026114       ?fin$0@?0???$?RV<lambda_638799b9deba96c50f710eeac98168cd>@@AEAV<lambda_22ebabd17bc4fa466a2aca6d8deb888d>@@V<lambda_a6f7d7db0129f75315ebf26d50c089f1>@@@?$__crt_seh_guarded_call@H@@QEAAH$$QEAV<lambda_638799b9deba96c50f710eeac98168cd>@@AEAV<lambda_22ebabd17bc4fa466a2aca6d8deb888d>@@$$QEAV<lambda_a6f7d7db0129f75315ebf26d50c089f1>@@@Z@4HA 0000000180027114 f   libucrt:onexit.obj
 0001:00026114       ?fin$0@?0???$?RV<lambda_7777bce6b2f8c936911f934f8298dc43>@@AEAV<lambda_f03950bc5685219e0bcd2087efbe011e>@@V<lambda_3883c3dff614d5e0c5f61bb1ac94921c>@@@?$__crt_seh_guarded_call@H@@QEAAH$$QEAV<lambda_7777bce6b2f8c936911f934f8298dc43>@@AEAV<lambda_f03950bc5685219e0bcd2087efbe011e>@@$$QEAV<lambda_3883c3dff614d5e0c5f61bb1ac94921c>@@@Z@4HA 0000000180027114 f   libucrt:onexit.obj
 0001:0002612e       ?filt$0@?0???R<lambda_6e4b09c48022b2350581041d5f6b0c4c>@@QEBA@XZ@4HA 000000018002712e f   libucrt:exit.obj
 0001:0002615b       _query_new_handler$fin$0   000000018002715b f   libucrt:new_handler.obj
 0001:00026171       ?fin$0@?0???$?RV<lambda_410d79af7f07d98d83a3f525b3859a53>@@AEAV<lambda_3e16ef9562a7dcce91392c22ab16ea36>@@V<lambda_38119f0e861e05405d8a144b9b982f0a>@@@?$__crt_seh_guarded_call@X@@QEAAX$$QEAV<lambda_410d79af7f07d98d83a3f525b3859a53>@@AEAV<lambda_3e16ef9562a7dcce91392c22ab16ea36>@@$$QEAV<lambda_38119f0e861e05405d8a144b9b982f0a>@@@Z@4HA 0000000180027171 f   libucrt:wsetlocale.obj
 0001:0002618b       __acrt_initialize_lowio$fin$0 000000018002718b f   libucrt:ioinit.obj
 0001:0002618b       __acrt_lowio_ensure_fh_exists$fin$0 000000018002718b f   libucrt:osfinfo.obj
 0001:000261a4       ?fin$0@?0???$?RV<lambda_efdfa57d1f175319df784efa44bb7b81>@@AEAV<lambda_5f0a4c1567f8adc6734073e5d1e1b35c>@@V<lambda_2e8a7d3640ea6ccb4c2413664c2db6fd>@@@?$__crt_seh_guarded_call@X@@QEAAX$$QEAV<lambda_efdfa57d1f175319df784efa44bb7b81>@@AEAV<lambda_5f0a4c1567f8adc6734073e5d1e1b35c>@@$$QEAV<lambda_2e8a7d3640ea6ccb4c2413664c2db6fd>@@@Z@4HA 00000001800271a4 f   libucrt:mbctype.obj
 0001:000261be       ?fin$0@?0??update_thread_multibyte_data_internal@@YAPEAU__crt_multibyte_data@@QEAU__acrt_ptd@@QEAPEAU1@@Z@4HA 00000001800271be f   libucrt:mbctype.obj
 0001:000261d7       raise$fin$0                00000001800271d7 f   libucrt:signal.obj
 0001:000261f8       ?fin$0@?0???$?RV<lambda_842d9ff0dc9ef11c61343bbaebe7f885>@@AEAV<lambda_c5860995281e5c4ce005b3de8f5874ee>@@V<lambda_d90129c13df834fdcbf8d2b88dafcf2d>@@@?$__crt_seh_guarded_call@X@@QEAAX$$QEAV<lambda_842d9ff0dc9ef11c61343bbaebe7f885>@@AEAV<lambda_c5860995281e5c4ce005b3de8f5874ee>@@$$QEAV<lambda_d90129c13df834fdcbf8d2b88dafcf2d>@@@Z@4HA 00000001800271f8 f   libucrt:fflush.obj
 0001:00026213       ?fin$0@?0???$?RV<lambda_886d6c58226a84441f68b9f2b8217b83>@@AEAV<lambda_ab61a845afdef5b7c387490eaf3616ee>@@V<lambda_f7f22ab5edc0698d5f6905b0d3f44752>@@@?$__crt_seh_guarded_call@X@@QEAAX$$QEAV<lambda_886d6c58226a84441f68b9f2b8217b83>@@AEAV<lambda_ab61a845afdef5b7c387490eaf3616ee>@@$$QEAV<lambda_f7f22ab5edc0698d5f6905b0d3f44752>@@@Z@4HA 0000000180027213 f   libucrt:fflush.obj
 0001:00026230       __acrt_update_thread_locale_data$fin$0 0000000180027230 f   libucrt:locale_refcounting.obj
 0001:00026249       _fcloseall$fin$0           0000000180027249 f   libucrt:closeall.obj
 0001:00026262       ?fin$0@?0???$?RV<lambda_ad8af0d99a0adf03d037d7dffe354bb5>@@AEAV<lambda_c9ba49e555ba839a7b07aa3fbecb7617>@@V<lambda_2f1ebd5d68526518146ae959c9e734c8>@@@?$__crt_seh_guarded_call@H@@QEAAH$$QEAV<lambda_ad8af0d99a0adf03d037d7dffe354bb5>@@AEAV<lambda_c9ba49e555ba839a7b07aa3fbecb7617>@@$$QEAV<lambda_2f1ebd5d68526518146ae959c9e734c8>@@@Z@4HA 0000000180027262 f   libucrt:close.obj
 0001:00026262       ?fin$0@?0???$?RV<lambda_a37b2b86f63e897a80ea819b0eb08c01>@@AEAV<lambda_38ce7e780aa69e748d6df282ebc68efe>@@V<lambda_99fb1378e971ab6e7edea83e3a7a83a2>@@@?$__crt_seh_guarded_call@H@@QEAAH$$QEAV<lambda_a37b2b86f63e897a80ea819b0eb08c01>@@AEAV<lambda_38ce7e780aa69e748d6df282ebc68efe>@@$$QEAV<lambda_99fb1378e971ab6e7edea83e3a7a83a2>@@@Z@4HA 0000000180027262 f   libucrt:commit.obj
 0001:0002627c       _write_internal$fin$0      000000018002727c f   libucrt:write.obj
 0001:00026293       ?fin$0@?0??_fclose_internal@@YAHQEAU_iobuf@@AEAV__crt_cached_ptd_host@@@Z@4HA 0000000180027293 f   libucrt:fclose.obj
 0001:000262ab       _ctrlfp$filt$0             00000001800272ab f   libucrt:fpctrl.obj
 0001:000262ab       common_control87$filt$0    00000001800272ab f   libucrt:ieee.obj
 0001:000262e0       _IsNonwritableInCurrentImage$filt$0 00000001800272e0 f   LIBCMT:pesect.obj
 0001:00026300       ??__F_AtlComModule@ATL@@YAXXZ 0000000180027300 f   OposVariant.obj
 0001:0002630c       ??__F_AtlWinModule@ATL@@YAXXZ 000000018002730c f   OposVariant.obj
 0001:00026350       ??__F_Module@@YAXXZ        0000000180027350 f   POSPrinter.obj
 0001:0002636c       ??__F_AtlBaseModule@ATL@@YAXXZ 000000018002736c f   atls:atlbase.obj
 0002:00000670       ?_AtlBaseModule$initializer$@ATL@@3P6AXXZEA 0000000180028670     atls:atlbase.obj
 0002:00000678       ?_AtlComModule$initializer$@ATL@@3P6AXXZEA 0000000180028678     OposVariant.obj
 0002:00000680       ?_AtlWinModule$initializer$@ATL@@3P6AXXZEA 0000000180028680     OposVariant.obj
 0002:00000688       ?_Module$initializer$@@3P6AXXZEA 0000000180028688     POSPrinter.obj
 0002:00000690       ??pConnMap$initializer$@?$IConnectionPointContainerImpl@VCOPOSPOSPrinter@@@ATL@@0P6AXXZEA@@3P6AXXZEA 0000000180028690     POSPrinter.obj
 0002:000006a8       ?__scrt_initialize_tss_var@@3P6AHXZEA 00000001800286a8     LIBCMT:thread_safe_statics.obj
 0002:00003288       GS_ExceptionPointers       000000018002b288     LIBCMT:gs_report.obj
 0002:00003470       ?ExceptionTemplate@?1??UnwindNestedFrames@__FrameHandler4@@SAXPEA_KPEAUEHExceptionRecord@@PEAU_CONTEXT@@0PEAXPEAUFuncInfo4@FH4@@HHPEAUHandlerType4@6@PEAU_xDISPATCHER_CONTEXT@@E@Z@4U_EXCEPTION_RECORD@@B 000000018002b470     libvcruntime:risctrnsctrl.obj
 0002:00003510       ?ExceptionTemplate@?1??UnwindNestedFrames@__FrameHandler3@@SAXPEA_KPEAUEHExceptionRecord@@PEAU_CONTEXT@@0PEAXPEBU_s_FuncInfo@@HHPEBU_s_HandlerType@@PEAU_xDISPATCHER_CONTEXT@@E@Z@4U_EXCEPTION_RECORD@@B 000000018002b510     libvcruntime:risctrnsctrl.obj
 0002:000035e0       ?tokenTable@@3QBUStringLiteral@@B 000000018002b5e0     libvcruntime:undname.obj
 0002:000036f0       ?nameTable@@3QBUStringLiteral@@B 000000018002b6f0     libvcruntime:undname.obj
 0002:00003c20       ?rttiTable@@3QBUStringLiteral@@B 000000018002bc20     libvcruntime:undname.obj
 0002:00003c70       ?IndirectionName@@3QBUStringLiteral@@B 000000018002bc70     libvcruntime:undname.obj
 0002:00003cd0       ?PrefixName@@3QBUStringLiteral@@B 000000018002bcd0     libvcruntime:undname.obj
 0002:000043b8       ?module_names@?A0xbc0cc709@@3QBQEB_WB 000000018002c3b8     libvcruntime:winapi_downlevel.obj
 0002:00004478       ?candidate_modules@?1??try_get_FlsAlloc@@YAP6AKP6AXPEAX@Z@ZXZ@4QBW4module_id@?A0xbc0cc709@@B 000000018002c478     libvcruntime:winapi_downlevel.obj
 0002:00004490       ?candidate_modules@?1??try_get_FlsFree@@YAP6AHK@ZXZ@4QBW4module_id@?A0xbc0cc709@@B 000000018002c490     libvcruntime:winapi_downlevel.obj
 0002:000044a0       ?candidate_modules@?1??try_get_FlsGetValue@@YAP6APEAXK@ZXZ@4QBW4module_id@?A0xbc0cc709@@B 000000018002c4a0     libvcruntime:winapi_downlevel.obj
 0002:000044b8       ?candidate_modules@?1??try_get_FlsSetValue@@YAP6AHKPEAX@ZXZ@4QBW4module_id@?A0xbc0cc709@@B 000000018002c4b8     libvcruntime:winapi_downlevel.obj
 0002:000044d0       ?candidate_modules@?1??try_get_InitializeCriticalSectionEx@@YAP6AHPEAU_RTL_CRITICAL_SECTION@@KK@ZXZ@4QBW4module_id@?A0xbc0cc709@@B 000000018002c4d0     libvcruntime:winapi_downlevel.obj
 0002:00004500       ?errtable@@3QBUerrentry@?A0x31fdb9ec@@B 000000018002c500     libucrt:errno.obj
 0002:00004868       $cppxdata$?try_cor_exit_process@@YAXI@Z 000000018002c868     libucrt:exit.obj
 0002:00004890       $cppxdata$?common_exit@@YAXHW4_crt_exit_cleanup_mode@@W4_crt_exit_return_mode@@@Z 000000018002c890     libucrt:exit.obj
 0002:000048e0       $cppxdata$__dcrt_uninitialize_environments_nolock 000000018002c8e0     libucrt:environment_initialization.obj
 0002:00004908       $cppxdata$_execute_onexit_table 000000018002c908     libucrt:onexit.obj
 0002:00004930       __acrt_initializers        000000018002c930     libucrt:initialization.obj
 0002:000050b0       ?module_names@?A0x391cf84c@@3QBQEB_WB 000000018002d0b0     libucrt:winapi_thunks.obj
 0002:000055b8       ?candidate_modules@?1??try_get_AreFileApisANSI@@YAP6AHXZXZ@4QBW4module_id@?A0x391cf84c@@B 000000018002d5b8     libucrt:winapi_thunks.obj
 0002:000055d0       ?candidate_modules@?1??try_get_InitializeCriticalSectionEx@@YAP6AHPEAU_RTL_CRITICAL_SECTION@@KK@ZXZ@4QBW4module_id@?A0x391cf84c@@B 000000018002d5d0     libucrt:winapi_thunks.obj
 0002:000055d8       ?candidate_modules@?1??try_get_LCMapStringEx@@YAP6AHPEB_WK0HPEA_WHPEAU_nlsversioninfo@@PEAX_J@ZXZ@4QBW4module_id@?A0x391cf84c@@B 000000018002d5d8     libucrt:winapi_thunks.obj
 0002:000055f0       ?candidate_modules@?1??try_get_LocaleNameToLCID@@YAP6AKPEB_WK@ZXZ@4QBW4module_id@?A0x391cf84c@@B 000000018002d5f0     libucrt:winapi_thunks.obj
 0002:0000560c       ?candidate_modules@?1??try_get_AppPolicyGetProcessTerminationMethod@@YAP6AJPEAXPEAW4AppPolicyProcessTerminationMethod@@@ZXZ@4QBW4module_id@?A0x391cf84c@@B 000000018002d60c     libucrt:winapi_thunks.obj
 0002:00005638       ?candidate_modules@?1??try_get_SetThreadStackGuarantee@@YAP6AHPEAK@ZXZ@4QBW4module_id@?A0x391cf84c@@B 000000018002d638     libucrt:winapi_thunks.obj
 0002:00005660       ?strings@?1??fp_format_nan_or_infinity@@YAHW4__acrt_fp_class@@_NPEAD_K1@Z@4QAY03QEBDA 000000018002d660     libucrt:cvt.obj
 0002:00005738       ?_mb_locale_names@@3QBQEB_WB 000000018002d738     libucrt:mbctype.obj
 0002:00005db0       ?LcidToLocaleNameTable@?A0x881e4c05@@3QBULcidToLocaleName@1@B 000000018002ddb0     libucrt:lcidtoname_downlevel.obj
 0002:00007800       ?LocaleNameToIndexTable@?A0x881e4c05@@3QBULocaleNameIndex@1@B 000000018002f800     libucrt:lcidtoname_downlevel.obj
 0002:00009a90       $cppxdata$?write_double_translated_ansi_nolock@@YA?AUwrite_result@?A0x17268360@@HQEBDIAEAV__crt_cached_ptd_host@@@Z 0000000180031a90     libucrt:write.obj
 0002:00009ac0       __real_ninf                0000000180031ac0     libucrt:log10.obj
 0002:00009ad0       __real_inf                 0000000180031ad0     libucrt:log10.obj
 0002:00009ae0       __real_neg_qnan            0000000180031ae0     libucrt:log10.obj
 0002:00009af0       __real_qnanbit             0000000180031af0     libucrt:log10.obj
 0002:00009b00       __int_1023                 0000000180031b00     libucrt:log10.obj
 0002:00009b10       __mask_001                 0000000180031b10     libucrt:log10.obj
 0002:00009b20       __mask_mant                0000000180031b20     libucrt:log10.obj
 0002:00009b30       __mask_mant_top8           0000000180031b30     libucrt:log10.obj
 0002:00009b40       __mask_mant9               0000000180031b40     libucrt:log10.obj
 0002:00009b50       __real_log10_e             0000000180031b50     libucrt:log10.obj
 0002:00009b60       __real_log10_e_lead        0000000180031b60     libucrt:log10.obj
 0002:00009b70       __real_log10_e_tail        0000000180031b70     libucrt:log10.obj
 0002:00009b80       __real_log10_2_lead        0000000180031b80     libucrt:log10.obj
 0002:00009b90       __real_log10_2_tail        0000000180031b90     libucrt:log10.obj
 0002:00009ba0       __real_two                 0000000180031ba0     libucrt:log10.obj
 0002:00009bb0       __real_one                 0000000180031bb0     libucrt:log10.obj
 0002:00009bc0       __real_half                0000000180031bc0     libucrt:log10.obj
 0002:00009bd0       __mask_100                 0000000180031bd0     libucrt:log10.obj
 0002:00009be0       __real_1_over_512          0000000180031be0     libucrt:log10.obj
 0002:00009bf0       __real_1_over_2            0000000180031bf0     libucrt:log10.obj
 0002:00009c00       __real_1_over_3            0000000180031c00     libucrt:log10.obj
 0002:00009c10       __real_1_over_4            0000000180031c10     libucrt:log10.obj
 0002:00009c20       __real_1_over_5            0000000180031c20     libucrt:log10.obj
 0002:00009c30       __real_1_over_6            0000000180031c30     libucrt:log10.obj
 0002:00009c40       __real_neg_1023            0000000180031c40     libucrt:log10.obj
 0002:00009c50       __mask_2045                0000000180031c50     libucrt:log10.obj
 0002:00009c60       __real_threshold           0000000180031c60     libucrt:log10.obj
 0002:00009c70       __real_near_one_lt         0000000180031c70     libucrt:log10.obj
 0002:00009c80       __real_near_one_gt         0000000180031c80     libucrt:log10.obj
 0002:00009c90       __real_min_norm            0000000180031c90     libucrt:log10.obj
 0002:00009ca0       __real_notsign             0000000180031ca0     libucrt:log10.obj
 0002:00009cb0       __real_ca1                 0000000180031cb0     libucrt:log10.obj
 0002:00009cc0       __real_ca2                 0000000180031cc0     libucrt:log10.obj
 0002:00009cd0       __real_ca3                 0000000180031cd0     libucrt:log10.obj
 0002:00009ce0       __real_ca4                 0000000180031ce0     libucrt:log10.obj
 0002:00009cf0       __mask_lower               0000000180031cf0     libucrt:log10.obj
 0002:00009d00       __flag_x_zero              0000000180031d00     libucrt:log10.obj
 0002:00009d04       __flag_x_neg               0000000180031d04     libucrt:log10.obj
 0002:00009d08       __flag_x_nan               0000000180031d08     libucrt:log10.obj
 0002:0000b560       __real@433fffffffffffff    0000000180033560     libucrt:fpsr.obj
 0002:0000b568       __real@c33fffffffffffff    0000000180033568     libucrt:fpsr.obj
 0002:0000bec8       $unwind$?cw_memcpy@@YAHPEA_WPEBDH@Z 0000000180033ec8     CWString.obj
 0002:0000bec8       $unwind$_invalid_parameter_noinfo 0000000180033ec8     libucrt:invalid_parameter.obj
 0002:0000bec8       $unwind$?state_case_size@?$output_processor@_WV?$string_output_adapter@_W@__crt_stdio_output@@V?$format_validation_base@_WV?$string_output_adapter@_W@__crt_stdio_output@@@2@@__crt_stdio_output@@AEAA_NXZ 0000000180033ec8     libucrt:output.obj
 0002:0000bec8       $unwind$_log10_special     0000000180033ec8     libucrt:log_special.obj
 0002:0000bed0       $unwind$?cw_strcpy@@YAHPEA_WPEBD@Z 0000000180033ed0     CWString.obj
 0002:0000bed0       $unwind$??1OposDispParms@@QEAA@XZ 0000000180033ed0     OposVariant.obj
 0002:0000bed0       $unwind$??__E_AtlComModule@ATL@@YAXXZ 0000000180033ed0     OposVariant.obj
 0002:0000bed0       $unwind$??__E_AtlWinModule@ATL@@YAXXZ 0000000180033ed0     OposVariant.obj
 0002:0000bed0       $unwind$??__F_AtlWinModule@ATL@@YAXXZ 0000000180033ed0     OposVariant.obj
 0002:0000bed0       $unwind$?GetLONG@OposVariant@@QEAAJXZ 0000000180033ed0     OposVariant.obj
 0002:0000bed0       $unwind$??__E?pConnMap@?$IConnectionPointContainerImpl@VCOPOSPOSPrinter@@@ATL@@0PEBU_ATL_CONNMAP_ENTRY@2@EB@@YAXXZ 0000000180033ed0     POSPrinter.obj
 0002:0000bed0       $unwind$?AddReplacement@CRegObject@ATL@@UEAAJPEB_W0@Z 0000000180033ed0     POSPrinter.obj
 0002:0000bed0       $unwind$?AtlHresultFromLastError@ATL@@YAJXZ 0000000180033ed0     POSPrinter.obj
 0002:0000bed0       $unwind$?AtlThrowImpl@ATL@@YAXJ@Z 0000000180033ed0     POSPrinter.obj
 0002:0000bed0       $unwind$?CreateInstance@CComClassFactory@ATL@@UEAAJPEAUIUnknown@@AEBU_GUID@@PEAPEAX@Z 0000000180033ed0     POSPrinter.obj
 0002:0000bed0       $unwind$?DefaultReflectionHandler@?$CWindowImplRoot@VCWindow@ATL@@@ATL@@SAHPEAUHWND__@@I_K_JAEA_J@Z 0000000180033ed0     POSPrinter.obj
 0002:0000bed0       $unwind$?EnumAdvise@?$IOleObjectImpl@VCOPOSPOSPrinter@@@ATL@@UEAAJPEAPEAUIEnumSTATDATA@@@Z 0000000180033ed0     POSPrinter.obj
 0002:0000bed0       $unwind$?FireViewChange@CComControlBase@ATL@@QEAAJXZ 0000000180033ed0     POSPrinter.obj
 0002:0000bed0       $unwind$?GetAdvise@?$IViewObjectExImpl@VCOPOSPOSPrinter@@@ATL@@UEAAJPEAK0PEAPEAUIAdviseSink@@@Z 0000000180033ed0     POSPrinter.obj
 0002:0000bed0       $unwind$?LockServer@CComClassFactory@ATL@@UEAAJH@Z 0000000180033ed0     POSPrinter.obj
 0002:0000bed0       $unwind$?OnDocWindowActivate@?$IOleInPlaceActiveObjectImpl@VCOPOSPOSPrinter@@@ATL@@UEAAJH@Z 0000000180033ed0     POSPrinter.obj
 0002:0000bed0       $unwind$?Unadvise@?$IOleObjectImpl@VCOPOSPOSPrinter@@@ATL@@UEAAJK@Z 0000000180033ed0     POSPrinter.obj
 0002:0000bed0       $unwind$?_LocCPQueryInterface@?$IConnectionPointImpl@VCOPOSPOSPrinter@@$1?DIID__IOPOSPOSPrinterEvents@@3U_GUID@@BVCComDynamicUnkArray@ATL@@@ATL@@UEAAJAEBU_GUID@@PEAPEAX@Z 0000000180033ed0     POSPrinter.obj
 0002:0000bed0       $unwind$?_LocCPQueryInterface@?$IConnectionPointImpl@VCOPOSPOSPrinter@@$1?IID_IPropertyNotifySink@@3U_GUID@@BVCComDynamicUnkArray@ATL@@@ATL@@UEAAJAEBU_GUID@@PEAPEAX@Z 0000000180033ed0     POSPrinter.obj
 0002:0000bed0       $unwind$?FinalConstruct@COPOSPOSPrinter@@QEAAJXZ 0000000180033ed0     POSPrinterImpl.obj
 0002:0000bed0       $unwind$?get_ResultCode@COPOSPOSPrinter@@UEAAJPEAJ@Z 0000000180033ed0     POSPrinterImpl.obj
 0002:0000bed0       $unwind$?get_State@COPOSPOSPrinter@@UEAAJPEAJ@Z 0000000180033ed0     POSPrinterImpl.obj
 0002:0000bed0       $unwind$__dcrt_terminate_console_output 0000000180033ed0     libucrt:initcon.obj
 0002:0000bed0       $unwind$??$uninitialize_environment_internal@D@@YAXAEAPEAPEAD@Z 0000000180033ed0     libucrt:environment_initialization.obj
 0002:0000bed0       $unwind$??$uninitialize_environment_internal@_W@@YAXAEAPEAPEA_W@Z 0000000180033ed0     libucrt:environment_initialization.obj
 0002:0000bed0       $unwind$__acrt_initialize_heap 0000000180033ed0     libucrt:heap_handle.obj
 0002:0000bed0       $unwind$_msize_base        0000000180033ed0     libucrt:msize.obj
 0002:0000bed0       $unwind$?initialize_multibyte@@YAHXZ 0000000180033ed0     libucrt:multibyte_initializer.obj
 0002:0000bed0       $unwind$__acrt_thread_attach 0000000180033ed0     libucrt:initialization.obj
 0002:0000bed0       $unwind$__acrt_thread_detach 0000000180033ed0     libucrt:initialization.obj
 0002:0000bed0       $unwind$__acrt_uninitialize 0000000180033ed0     libucrt:initialization.obj
 0002:0000bed0       $unwind$__acrt_uninitialize_critical 0000000180033ed0     libucrt:initialization.obj
 0002:0000bed0       $unwind$initialize_c       0000000180033ed0     libucrt:initialization.obj
 0002:0000bed0       $unwind$uninitialize_allocated_io_buffers 0000000180033ed0     libucrt:initialization.obj
 0002:0000bed0       $unwind$uninitialize_environment 0000000180033ed0     libucrt:initialization.obj
 0002:0000bed0       $unwind$__acrt_initialize_ptd 0000000180033ed0     libucrt:per_thread_data.obj
 0002:0000bed0       $unwind$__acrt_uninitialize_ptd 0000000180033ed0     libucrt:per_thread_data.obj
 0002:0000bed0       $unwind$__acrt_AreFileApisANSI 0000000180033ed0     libucrt:winapi_thunks.obj
 0002:0000bed0       $unwind$__acrt_release_locale_ref 0000000180033ed0     libucrt:locale_refcounting.obj
 0002:0000bed0       $unwind$_isatty            0000000180033ed0     libucrt:isatty.obj
 0002:0000bed0       $unwind$_get_osfhandle     0000000180033ed0     libucrt:osfinfo.obj
 0002:0000bed0       $unwind$__acrt_initialize_multibyte 0000000180033ed0     libucrt:mbctype.obj
 0002:0000bed0       $unwind$__acrt_update_thread_multibyte_data 0000000180033ed0     libucrt:mbctype.obj
 0002:0000bed0       $unwind$__doserrno         0000000180033ed0     libucrt:errno.obj
 0002:0000bed0       $unwind$_errno             0000000180033ed0     libucrt:errno.obj
 0002:0000bed0       $unwind$_invoke_watson     0000000180033ed0     libucrt:invalid_parameter.obj
 0002:0000bed0       $unwind$abort              0000000180033ed0     libucrt:abort.obj
 0002:0000bed0       $unwind$__acrt_initialize_command_line 0000000180033ed0     libucrt:argv_data.obj
 0002:0000bed0       $unwind$?should_call_terminate_process@@YA_NXZ 0000000180033ed0     libucrt:exit.obj
 0002:0000bed0       $unwind$_fileno            0000000180033ed0     libucrt:fileno.obj
 0002:0000bed0       $unwind$_statfp            0000000180033ed0     libucrt:fpctrl.obj
 0002:0000bed0       $unwind$fegetround         0000000180033ed0     libucrt:fegetround.obj
 0002:0000bed0       $unwind$_set_errno_from_matherr 0000000180033ed0     libucrt:fpexcept.obj
 0002:0000bed0       $unwind$??__E_AtlBaseModule@ATL@@YAXXZ 0000000180033ed0     atls:atlbase.obj
 0002:0000bed0       $unwind$__scrt_initialize_default_local_stdio_options 0000000180033ed0     LIBCMT:default_local_stdio_options.obj
 0002:0000bed0       $unwind$?dllmain_crt_dispatch@@YAHQEAUHINSTANCE__@@KQEAX@Z 0000000180033ed0     LIBCMT:dll_dllmain.obj
 0002:0000bed0       $unwind$__report_rangecheckfailure 0000000180033ed0     LIBCMT:gs_report.obj
 0002:0000bed0       $unwind$__GSHandlerCheck   0000000180033ed0     LIBCMT:gshandler.obj
 0002:0000bed0       $unwind$?__scrt_uninitialize_thread_safe_statics@@YAXXZ 0000000180033ed0     LIBCMT:thread_safe_statics.obj
 0002:0000bed0       $unwind$_Init_thread_notify 0000000180033ed0     LIBCMT:thread_safe_statics.obj
 0002:0000bed0       $unwind$__scrt_acquire_startup_lock 0000000180033ed0     LIBCMT:utility.obj
 0002:0000bed0       $unwind$__scrt_dllmain_after_initialize_c 0000000180033ed0     LIBCMT:utility.obj
 0002:0000bed0       $unwind$__scrt_dllmain_before_initialize_c 0000000180033ed0     LIBCMT:utility.obj
 0002:0000bed0       $unwind$__scrt_dllmain_crt_thread_attach 0000000180033ed0     LIBCMT:utility.obj
 0002:0000bed0       $unwind$__scrt_dllmain_crt_thread_detach 0000000180033ed0     LIBCMT:utility.obj
 0002:0000bed0       $unwind$__scrt_dllmain_uninitialize_c 0000000180033ed0     LIBCMT:utility.obj
 0002:0000bed0       $unwind$__scrt_dllmain_uninitialize_critical 0000000180033ed0     LIBCMT:utility.obj
 0002:0000bed0       $unwind$atexit             0000000180033ed0     LIBCMT:utility.obj
 0002:0000bed0       $unwind$__std_terminate    0000000180033ed0     libvcruntime:ehhelpers.obj
 0002:0000bed0       $unwind$?GetCurrentState@__FrameHandler3@@SAHPEA_KPEAU_xDISPATCHER_CONTEXT@@PEBU_s_FuncInfo@@@Z 0000000180033ed0     libvcruntime:ehstate.obj
 0002:0000bed0       $unwind$__vcrt_initialize  0000000180033ed0     libvcruntime:initialization.obj
 0002:0000bed0       $unwind$__vcrt_thread_attach 0000000180033ed0     libvcruntime:initialization.obj
 0002:0000bed0       $unwind$__vcrt_thread_detach 0000000180033ed0     libvcruntime:initialization.obj
 0002:0000bed0       $unwind$__vcrt_uninitialize 0000000180033ed0     libvcruntime:initialization.obj
 0002:0000bed0       $unwind$__vcrt_uninitialize_critical 0000000180033ed0     libvcruntime:initialization.obj
 0002:0000bed0       $unwind$__vcrt_freefls     0000000180033ed0     libvcruntime:per_thread_data.obj
 0002:0000bed0       $unwind$__vcrt_getptd      0000000180033ed0     libvcruntime:per_thread_data.obj
 0002:0000bed0       $unwind$__vcrt_initialize_ptd 0000000180033ed0     libvcruntime:per_thread_data.obj
 0002:0000bed0       $unwind$__vcrt_uninitialize_ptd 0000000180033ed0     libvcruntime:per_thread_data.obj
 0002:0000bed0       $unwind$_purecall          0000000180033ed0     libvcruntime:purevirt.obj
 0002:0000bed0       $unwind$?FrameUnwindToEmptyState@__FrameHandler4@@SAXPEA_KPEAU_xDISPATCHER_CONTEXT@@PEAUFuncInfo4@FH4@@@Z 0000000180033ed0     libvcruntime:risctrnsctrl.obj
 0002:0000bed0       $unwind$_GetImageBase      0000000180033ed0     libvcruntime:risctrnsctrl.obj
 0002:0000bed0       $unwind$_GetThrowImageBase 0000000180033ed0     libvcruntime:risctrnsctrl.obj
 0002:0000bed8       $unwind$?cw_dup@@YAXPEBDAEAHAEAPEA_W1@Z 0000000180033ed8     CWString.obj
 0002:0000bed8       $unwind$?DAdvise@?$IDataObjectImpl@VCOPOSPOSPrinter@@@ATL@@UEAAJPEAUtagFORMATETC@@KPEAUIAdviseSink@@PEAK@Z 0000000180033ed8     POSPrinter.obj
 0002:0000bed8       $unwind$??$create_environment@D@@YAQEAPEADQEAD@Z 0000000180033ed8     libucrt:environment_initialization.obj
 0002:0000bed8       $unwind$_mbtowc_internal   0000000180033ed8     libucrt:mbtowc.obj
 0002:0000bed8       $unwind$??$__acrt_convert_wcs_mbs_cp@D_WV<lambda_7c9dea7b4ca7285d2cdb541a38da6275>@@U__crt_win32_buffer_internal_dynamic_resizing@@@@YAHQEBDAEAV?$__crt_win32_buffer@_WU__crt_win32_buffer_internal_dynamic_resizing@@@@AEBV<lambda_7c9dea7b4ca7285d2cdb541a38da6275>@@I@Z 0000000180033ed8     libucrt:argv_wildcards.obj
 0002:0000bed8       $unwind$?process@?$output_processor@_WV?$string_output_adapter@_W@__crt_stdio_output@@V?$format_validation_base@_WV?$string_output_adapter@_W@__crt_stdio_output@@@2@@__crt_stdio_output@@QEAAHXZ 0000000180033ed8     libucrt:output.obj
 0002:0000bef0       $unwind$?DupWide@_CW@@AEAAXXZ 0000000180033ef0     CWString.obj
 0002:0000bef0       $unwind$??0CAtlComModule@ATL@@QEAA@XZ 0000000180033ef0     OposVariant.obj
 0002:0000bef0       $unwind$??0CAtlWinModule@ATL@@QEAA@XZ 0000000180033ef0     OposVariant.obj
 0002:0000bef0       $unwind$??0?$CComObject@VCOPOSPOSPrinter@@@ATL@@QEAA@PEAX@Z 0000000180033ef0     POSPrinter.obj
 0002:0000bef0       $unwind$??0CAtlModule@ATL@@QEAA@XZ 0000000180033ef0     POSPrinter.obj
 0002:0000bef0       $unwind$??1?$CComObject@VCOPOSPOSPrinter@@@ATL@@UEAA@XZ 0000000180033ef0     POSPrinter.obj
 0002:0000bef0       $unwind$??__E_Module@@YAXXZ 0000000180033ef0     POSPrinter.obj
 0002:0000bef0       $unwind$?AddRef@?$CComObjectCached@VCComClassFactory@ATL@@@ATL@@UEAAKXZ 0000000180033ef0     POSPrinter.obj
 0002:0000bef0       $unwind$?AllocateHeap@?$CTempBuffer@E$0BAA@VCCRTAllocator@ATL@@@ATL@@AEAAX_K@Z 0000000180033ef0     POSPrinter.obj
 0002:0000bef0       $unwind$?AllocateHeap@?$CTempBuffer@_W$0BAA@VCCRTAllocator@ATL@@@ATL@@AEAAX_K@Z 0000000180033ef0     POSPrinter.obj
 0002:0000bef0       $unwind$?AllocateHeap@?$CTempBuffer@_W$0EAA@VCCRTAllocator@ATL@@@ATL@@AEAAX_K@Z 0000000180033ef0     POSPrinter.obj
 0002:0000bef0       $unwind$?GetClassInfoW@?$IProvideClassInfo2Impl@$1?CLSID_OPOSPOSPrinter@@3U_GUID@@B$1?DIID__IOPOSPOSPrinterEvents@@3U2@B$1?LIBID_OposPOSPrinter_CCO@@3U2@B$00$0A@VCComTypeInfoHolder@ATL@@@ATL@@UEAAJPEAPEAUITypeInfo@@@Z 0000000180033ef0     POSPrinter.obj
 0002:0000bef0       $unwind$?GetClientSite@?$IOleObjectImpl@VCOPOSPOSPrinter@@@ATL@@UEAAJPEAPEAUIOleClientSite@@@Z 0000000180033ef0     POSPrinter.obj
 0002:0000bef0       $unwind$?GetConnMap@COPOSPOSPrinter@@SAPEBU_ATL_CONNMAP_ENTRY@ATL@@PEAH@Z 0000000180033ef0     POSPrinter.obj
 0002:0000bef0       $unwind$?GetTypeInfo@?$IDispatchImpl@UIOPOSPOSPrinter@@$1?IID_IOPOSPOSPrinter@@3U_GUID@@B$1?LIBID_OposPOSPrinter_CCO@@3U3@B$00$0A@VCComTypeInfoHolder@ATL@@@ATL@@UEAAJIKPEAPEAUITypeInfo@@@Z 0000000180033ef0     POSPrinter.obj
 0002:0000bef0       $unwind$?IOleInPlaceObject_InPlaceDeactivate@CComControlBase@ATL@@QEAAJXZ 0000000180033ef0     POSPrinter.obj
 0002:0000bef0       $unwind$?IOleObject_SetExtent@CComControlBase@ATL@@QEAAJKPEAUtagSIZE@@@Z 0000000180033ef0     POSPrinter.obj
 0002:0000bef0       $unwind$?IsEqualObject@?$CComPtrBase@UIOleClientSite@@@ATL@@QEAA_NPEAUIUnknown@@@Z 0000000180033ef0     POSPrinter.obj
 0002:0000bef0       $unwind$?QueryHitPoint@?$IViewObjectExImpl@VCOPOSPOSPrinter@@@ATL@@UEAAJKPEBUtagRECT@@UtagPOINT@@JPEAK@Z 0000000180033ef0     POSPrinter.obj
 0002:0000bef0       $unwind$?QueryInterface@?$CComAggObject@VCOPOSPOSPrinter@@@ATL@@UEAAJAEBU_GUID@@PEAPEAX@Z 0000000180033ef0     POSPrinter.obj
 0002:0000bef0       $unwind$?Release@?$CComObjectCached@VCComClassFactory@ATL@@@ATL@@UEAAKXZ 0000000180033ef0     POSPrinter.obj
 0002:0000bef0       $unwind$?Unadvise@?$IConnectionPointImpl@VCOPOSPOSPrinter@@$1?DIID__IOPOSPOSPrinterEvents@@3U_GUID@@BVCComDynamicUnkArray@ATL@@@ATL@@UEAAJK@Z 0000000180033ef0     POSPrinter.obj
 0002:0000bef0       $unwind$?Unadvise@?$IConnectionPointImpl@VCOPOSPOSPrinter@@$1?IID_IPropertyNotifySink@@3U_GUID@@BVCComDynamicUnkArray@ATL@@@ATL@@UEAAJK@Z 0000000180033ef0     POSPrinter.obj
 0002:0000bef0       $unwind$??1CComControlBase@ATL@@UEAA@XZ 0000000180033ef0     POSPrinterImpl.obj
 0002:0000bef0       $unwind$??1COPOSPOSPrinter@@UEAA@XZ 0000000180033ef0     POSPrinterImpl.obj
 0002:0000bef0       $unwind$?EventUninit@COPOSPOSPrinter@@IEAAXXZ 0000000180033ef0     POSPrinterImpl.obj
 0002:0000bef0       $unwind$?FreezeEvents@COPOSPOSPrinter@@MEAAJH@Z 0000000180033ef0     POSPrinterImpl.obj
 0002:0000bef0       $unwind$?SOProcessID@COPOSPOSPrinter@@UEAAJPEAJ@Z 0000000180033ef0     POSPrinterImpl.obj
 0002:0000bef0       $unwind$?get_AsyncMode@COPOSPOSPrinter@@UEAAJPEAF@Z 0000000180033ef0     POSPrinterImpl.obj
 0002:0000bef0       $unwind$?get_CapCompareFirmwareVersion@COPOSPOSPrinter@@UEAAJPEAF@Z 0000000180033ef0     POSPrinterImpl.obj
 0002:0000bef0       $unwind$?get_CapConcurrentJrnRec@COPOSPOSPrinter@@UEAAJPEAF@Z 0000000180033ef0     POSPrinterImpl.obj
 0002:0000bef0       $unwind$?get_CapConcurrentJrnSlp@COPOSPOSPrinter@@UEAAJPEAF@Z 0000000180033ef0     POSPrinterImpl.obj
 0002:0000bef0       $unwind$?get_CapConcurrentPageMode@COPOSPOSPrinter@@UEAAJPEAF@Z 0000000180033ef0     POSPrinterImpl.obj
 0002:0000bef0       $unwind$?get_CapConcurrentRecSlp@COPOSPOSPrinter@@UEAAJPEAF@Z 0000000180033ef0     POSPrinterImpl.obj
 0002:0000bef0       $unwind$?get_CapCoverSensor@COPOSPOSPrinter@@UEAAJPEAF@Z 0000000180033ef0     POSPrinterImpl.obj
 0002:0000bef0       $unwind$?get_CapJrn2Color@COPOSPOSPrinter@@UEAAJPEAF@Z 0000000180033ef0     POSPrinterImpl.obj
 0002:0000bef0       $unwind$?get_CapJrnBold@COPOSPOSPrinter@@UEAAJPEAF@Z 0000000180033ef0     POSPrinterImpl.obj
 0002:0000bef0       $unwind$?get_CapJrnDhigh@COPOSPOSPrinter@@UEAAJPEAF@Z 0000000180033ef0     POSPrinterImpl.obj
 0002:0000bef0       $unwind$?get_CapJrnDwide@COPOSPOSPrinter@@UEAAJPEAF@Z 0000000180033ef0     POSPrinterImpl.obj
 0002:0000bef0       $unwind$?get_CapJrnDwideDhigh@COPOSPOSPrinter@@UEAAJPEAF@Z 0000000180033ef0     POSPrinterImpl.obj
 0002:0000bef0       $unwind$?get_CapJrnEmptySensor@COPOSPOSPrinter@@UEAAJPEAF@Z 0000000180033ef0     POSPrinterImpl.obj
 0002:0000bef0       $unwind$?get_CapJrnItalic@COPOSPOSPrinter@@UEAAJPEAF@Z 0000000180033ef0     POSPrinterImpl.obj
 0002:0000bef0       $unwind$?get_CapJrnNearEndSensor@COPOSPOSPrinter@@UEAAJPEAF@Z 0000000180033ef0     POSPrinterImpl.obj
 0002:0000bef0       $unwind$?get_CapJrnPresent@COPOSPOSPrinter@@UEAAJPEAF@Z 0000000180033ef0     POSPrinterImpl.obj
 0002:0000bef0       $unwind$?get_CapJrnUnderline@COPOSPOSPrinter@@UEAAJPEAF@Z 0000000180033ef0     POSPrinterImpl.obj
 0002:0000bef0       $unwind$?get_CapMapCharacterSet@COPOSPOSPrinter@@UEAAJPEAF@Z 0000000180033ef0     POSPrinterImpl.obj
 0002:0000bef0       $unwind$?get_CapRec2Color@COPOSPOSPrinter@@UEAAJPEAF@Z 0000000180033ef0     POSPrinterImpl.obj
 0002:0000bef0       $unwind$?get_CapRecBarCode@COPOSPOSPrinter@@UEAAJPEAF@Z 0000000180033ef0     POSPrinterImpl.obj
 0002:0000bef0       $unwind$?get_CapRecBitmap@COPOSPOSPrinter@@UEAAJPEAF@Z 0000000180033ef0     POSPrinterImpl.obj
 0002:0000bef0       $unwind$?get_CapRecBold@COPOSPOSPrinter@@UEAAJPEAF@Z 0000000180033ef0     POSPrinterImpl.obj
 0002:0000bef0       $unwind$?get_CapRecDhigh@COPOSPOSPrinter@@UEAAJPEAF@Z 0000000180033ef0     POSPrinterImpl.obj
 0002:0000bef0       $unwind$?get_CapRecDwide@COPOSPOSPrinter@@UEAAJPEAF@Z 0000000180033ef0     POSPrinterImpl.obj
 0002:0000bef0       $unwind$?get_CapRecDwideDhigh@COPOSPOSPrinter@@UEAAJPEAF@Z 0000000180033ef0     POSPrinterImpl.obj
 0002:0000bef0       $unwind$?get_CapRecEmptySensor@COPOSPOSPrinter@@UEAAJPEAF@Z 0000000180033ef0     POSPrinterImpl.obj
 0002:0000bef0       $unwind$?get_CapRecItalic@COPOSPOSPrinter@@UEAAJPEAF@Z 0000000180033ef0     POSPrinterImpl.obj
 0002:0000bef0       $unwind$?get_CapRecLeft90@COPOSPOSPrinter@@UEAAJPEAF@Z 0000000180033ef0     POSPrinterImpl.obj
 0002:0000bef0       $unwind$?get_CapRecNearEndSensor@COPOSPOSPrinter@@UEAAJPEAF@Z 0000000180033ef0     POSPrinterImpl.obj
 0002:0000bef0       $unwind$?get_CapRecPageMode@COPOSPOSPrinter@@UEAAJPEAF@Z 0000000180033ef0     POSPrinterImpl.obj
 0002:0000bef0       $unwind$?get_CapRecPapercut@COPOSPOSPrinter@@UEAAJPEAF@Z 0000000180033ef0     POSPrinterImpl.obj
 0002:0000bef0       $unwind$?get_CapRecPresent@COPOSPOSPrinter@@UEAAJPEAF@Z 0000000180033ef0     POSPrinterImpl.obj
 0002:0000bef0       $unwind$?get_CapRecRight90@COPOSPOSPrinter@@UEAAJPEAF@Z 0000000180033ef0     POSPrinterImpl.obj
 0002:0000bef0       $unwind$?get_CapRecRotate180@COPOSPOSPrinter@@UEAAJPEAF@Z 0000000180033ef0     POSPrinterImpl.obj
 0002:0000bef0       $unwind$?get_CapRecStamp@COPOSPOSPrinter@@UEAAJPEAF@Z 0000000180033ef0     POSPrinterImpl.obj
 0002:0000bef0       $unwind$?get_CapRecUnderline@COPOSPOSPrinter@@UEAAJPEAF@Z 0000000180033ef0     POSPrinterImpl.obj
 0002:0000bef0       $unwind$?get_CapSlp2Color@COPOSPOSPrinter@@UEAAJPEAF@Z 0000000180033ef0     POSPrinterImpl.obj
 0002:0000bef0       $unwind$?get_CapSlpBarCode@COPOSPOSPrinter@@UEAAJPEAF@Z 0000000180033ef0     POSPrinterImpl.obj
 0002:0000bef0       $unwind$?get_CapSlpBitmap@COPOSPOSPrinter@@UEAAJPEAF@Z 0000000180033ef0     POSPrinterImpl.obj
 0002:0000bef0       $unwind$?get_CapSlpBold@COPOSPOSPrinter@@UEAAJPEAF@Z 0000000180033ef0     POSPrinterImpl.obj
 0002:0000bef0       $unwind$?get_CapSlpBothSidesPrint@COPOSPOSPrinter@@UEAAJPEAF@Z 0000000180033ef0     POSPrinterImpl.obj
 0002:0000bef0       $unwind$?get_CapSlpDhigh@COPOSPOSPrinter@@UEAAJPEAF@Z 0000000180033ef0     POSPrinterImpl.obj
 0002:0000bef0       $unwind$?get_CapSlpDwide@COPOSPOSPrinter@@UEAAJPEAF@Z 0000000180033ef0     POSPrinterImpl.obj
 0002:0000bef0       $unwind$?get_CapSlpDwideDhigh@COPOSPOSPrinter@@UEAAJPEAF@Z 0000000180033ef0     POSPrinterImpl.obj
 0002:0000bef0       $unwind$?get_CapSlpEmptySensor@COPOSPOSPrinter@@UEAAJPEAF@Z 0000000180033ef0     POSPrinterImpl.obj
 0002:0000bef0       $unwind$?get_CapSlpFullslip@COPOSPOSPrinter@@UEAAJPEAF@Z 0000000180033ef0     POSPrinterImpl.obj
 0002:0000bef0       $unwind$?get_CapSlpItalic@COPOSPOSPrinter@@UEAAJPEAF@Z 0000000180033ef0     POSPrinterImpl.obj
 0002:0000bef0       $unwind$?get_CapSlpLeft90@COPOSPOSPrinter@@UEAAJPEAF@Z 0000000180033ef0     POSPrinterImpl.obj
 0002:0000bef0       $unwind$?get_CapSlpNearEndSensor@COPOSPOSPrinter@@UEAAJPEAF@Z 0000000180033ef0     POSPrinterImpl.obj
 0002:0000bef0       $unwind$?get_CapSlpPageMode@COPOSPOSPrinter@@UEAAJPEAF@Z 0000000180033ef0     POSPrinterImpl.obj
 0002:0000bef0       $unwind$?get_CapSlpPresent@COPOSPOSPrinter@@UEAAJPEAF@Z 0000000180033ef0     POSPrinterImpl.obj
 0002:0000bef0       $unwind$?get_CapSlpRight90@COPOSPOSPrinter@@UEAAJPEAF@Z 0000000180033ef0     POSPrinterImpl.obj
 0002:0000bef0       $unwind$?get_CapSlpRotate180@COPOSPOSPrinter@@UEAAJPEAF@Z 0000000180033ef0     POSPrinterImpl.obj
 0002:0000bef0       $unwind$?get_CapSlpUnderline@COPOSPOSPrinter@@UEAAJPEAF@Z 0000000180033ef0     POSPrinterImpl.obj
 0002:0000bef0       $unwind$?get_CapStatisticsReporting@COPOSPOSPrinter@@UEAAJPEAF@Z 0000000180033ef0     POSPrinterImpl.obj
 0002:0000bef0       $unwind$?get_CapTransaction@COPOSPOSPrinter@@UEAAJPEAF@Z 0000000180033ef0     POSPrinterImpl.obj
 0002:0000bef0       $unwind$?get_CapUpdateFirmware@COPOSPOSPrinter@@UEAAJPEAF@Z 0000000180033ef0     POSPrinterImpl.obj
 0002:0000bef0       $unwind$?get_CapUpdateStatistics@COPOSPOSPrinter@@UEAAJPEAF@Z 0000000180033ef0     POSPrinterImpl.obj
 0002:0000bef0       $unwind$?get_Claimed@COPOSPOSPrinter@@UEAAJPEAF@Z 0000000180033ef0     POSPrinterImpl.obj
 0002:0000bef0       $unwind$?get_CoverOpen@COPOSPOSPrinter@@UEAAJPEAF@Z 0000000180033ef0     POSPrinterImpl.obj
 0002:0000bef0       $unwind$?get_DeviceEnabled@COPOSPOSPrinter@@UEAAJPEAF@Z 0000000180033ef0     POSPrinterImpl.obj
 0002:0000bef0       $unwind$?get_FlagWhenIdle@COPOSPOSPrinter@@UEAAJPEAF@Z 0000000180033ef0     POSPrinterImpl.obj
 0002:0000bef0       $unwind$?get_FreezeEvents@COPOSPOSPrinter@@UEAAJPEAF@Z 0000000180033ef0     POSPrinterImpl.obj
 0002:0000bef0       $unwind$?get_JrnEmpty@COPOSPOSPrinter@@UEAAJPEAF@Z 0000000180033ef0     POSPrinterImpl.obj
 0002:0000bef0       $unwind$?get_JrnLetterQuality@COPOSPOSPrinter@@UEAAJPEAF@Z 0000000180033ef0     POSPrinterImpl.obj
 0002:0000bef0       $unwind$?get_JrnNearEnd@COPOSPOSPrinter@@UEAAJPEAF@Z 0000000180033ef0     POSPrinterImpl.obj
 0002:0000bef0       $unwind$?get_MapCharacterSet@COPOSPOSPrinter@@UEAAJPEAF@Z 0000000180033ef0     POSPrinterImpl.obj
 0002:0000bef0       $unwind$?get_RecEmpty@COPOSPOSPrinter@@UEAAJPEAF@Z 0000000180033ef0     POSPrinterImpl.obj
 0002:0000bef0       $unwind$?get_RecLetterQuality@COPOSPOSPrinter@@UEAAJPEAF@Z 0000000180033ef0     POSPrinterImpl.obj
 0002:0000bef0       $unwind$?get_RecNearEnd@COPOSPOSPrinter@@UEAAJPEAF@Z 0000000180033ef0     POSPrinterImpl.obj
 0002:0000bef0       $unwind$?get_SlpEmpty@COPOSPOSPrinter@@UEAAJPEAF@Z 0000000180033ef0     POSPrinterImpl.obj
 0002:0000bef0       $unwind$?get_SlpLetterQuality@COPOSPOSPrinter@@UEAAJPEAF@Z 0000000180033ef0     POSPrinterImpl.obj
 0002:0000bef0       $unwind$?get_SlpNearEnd@COPOSPOSPrinter@@UEAAJPEAF@Z 0000000180033ef0     POSPrinterImpl.obj
 0002:0000bef0       $unwind$?put_FreezeEvents@COPOSPOSPrinter@@UEAAJF@Z 0000000180033ef0     POSPrinterImpl.obj
 0002:0000bef0       $unwind$_calloc_base       0000000180033ef0     libucrt:calloc_base.obj
 0002:0000bef0       $unwind$_malloc_base       0000000180033ef0     libucrt:malloc_base.obj
 0002:0000bef0       $unwind$_callnewh          0000000180033ef0     libucrt:new_handler.obj
 0002:0000bef0       $unwind$initialize_pointers 0000000180033ef0     libucrt:initialization.obj
 0002:0000bef0       $unwind$uninitialize_allocated_memory 0000000180033ef0     libucrt:initialization.obj
 0002:0000bef0       $unwind$__acrt_initialize_locks 0000000180033ef0     libucrt:locks.obj
 0002:0000bef0       $unwind$__acrt_uninitialize_locks 0000000180033ef0     libucrt:locks.obj
 0002:0000bef0       $unwind$__acrt_freeptd     0000000180033ef0     libucrt:per_thread_data.obj
 0002:0000bef0       $unwind$__acrt_getptd_head 0000000180033ef0     libucrt:per_thread_data.obj
 0002:0000bef0       $unwind$__acrt_get_process_end_policy 0000000180033ef0     libucrt:win_policies.obj
 0002:0000bef0       $unwind$__acrt_AppPolicyGetProcessTerminationMethodInternal 0000000180033ef0     libucrt:winapi_thunks.obj
 0002:0000bef0       $unwind$__acrt_SetThreadStackGuarantee 0000000180033ef0     libucrt:winapi_thunks.obj
 0002:0000bef0       $unwind$__acrt_uninitialize_winapi_thunks 0000000180033ef0     libucrt:winapi_thunks.obj
 0002:0000bef0       $unwind$__acrt_update_locale_info 0000000180033ef0     libucrt:locale_update.obj
 0002:0000bef0       $unwind$__acrt_update_locale_info_explicit 0000000180033ef0     libucrt:locale_update.obj
 0002:0000bef0       $unwind$__acrt_update_multibyte_info 0000000180033ef0     libucrt:locale_update.obj
 0002:0000bef0       $unwind$__acrt_update_multibyte_info_explicit 0000000180033ef0     libucrt:locale_update.obj
 0002:0000bef0       $unwind$__acrt_errno_map_os_error 0000000180033ef0     libucrt:errno.obj
 0002:0000bef0       $unwind$__acrt_errno_map_os_error_ptd 0000000180033ef0     libucrt:errno.obj
 0002:0000bef0       $unwind$__acrt_allocate_buffer_for_argv 0000000180033ef0     libucrt:argv_parsing.obj
 0002:0000bef0       $unwind$?exit_or_terminate_process@@YAXI@Z 0000000180033ef0     libucrt:exit.obj
 0002:0000bef0       $unwind$__acrt_uninitialize_stdio 0000000180033ef0     libucrt:_file.obj
 0002:0000bef0       $unwind$__acrt_stdio_free_buffer_nolock 0000000180033ef0     libucrt:_freebuf.obj
 0002:0000bef0       $unwind$strcpy_s           0000000180033ef0     libucrt:strcpy_s.obj
 0002:0000bef0       $unwind$wcscat_s           0000000180033ef0     libucrt:wcscat_s.obj
 0002:0000bef0       $unwind$wcscpy_s           0000000180033ef0     libucrt:wcscpy_s.obj
 0002:0000bef0       $unwind$_clrfp             0000000180033ef0     libucrt:fpctrl.obj
 0002:0000bef0       $unwind$_set_statfp        0000000180033ef0     libucrt:fpctrl.obj
 0002:0000bef0       $unwind$_clearfp           0000000180033ef0     libucrt:ieee.obj
 0002:0000bef0       $unwind$_controlfp_s       0000000180033ef0     libucrt:contrlfp.obj
 0002:0000bef0       $unwind$fegetenv           0000000180033ef0     libucrt:fegetenv.obj
 0002:0000bef0       $unwind$feholdexcept       0000000180033ef0     libucrt:feholdexcept.obj
 0002:0000bef0       $unwind$fesetenv           0000000180033ef0     libucrt:fesetenv.obj
 0002:0000bef0       $unwind$??1CAtlBaseModule@ATL@@QEAA@XZ 0000000180033ef0     atls:atlbase.obj
 0002:0000bef0       $unwind$AtlThunk_AllocateData 0000000180033ef0     atls:atlthunk.obj
 0002:0000bef0       $unwind$__raise_securityfailure 0000000180033ef0     LIBCMT:gs_report.obj
 0002:0000bef0       $unwind$??2@YAPEAX_K@Z     0000000180033ef0     LIBCMT:new_scalar.obj
 0002:0000bef0       $unwind$??_Gtype_info@@UEAAPEAXI@Z 0000000180033ef0     LIBCMT:std_type_info_static.obj
 0002:0000bef0       $unwind$_Init_thread_footer 0000000180033ef0     LIBCMT:thread_safe_statics.obj
 0002:0000bef0       $unwind$_Init_thread_header 0000000180033ef0     LIBCMT:thread_safe_statics.obj
 0002:0000bef0       $unwind$_Init_thread_wait  0000000180033ef0     LIBCMT:thread_safe_statics.obj
 0002:0000bef0       $unwind$??0bad_alloc@std@@QEAA@AEBV01@@Z 0000000180033ef0     LIBCMT:throw_bad_alloc.obj
 0002:0000bef0       $unwind$??0bad_array_new_length@std@@QEAA@AEBV01@@Z 0000000180033ef0     LIBCMT:throw_bad_alloc.obj
 0002:0000bef0       $unwind$??0exception@std@@QEAA@AEBV01@@Z 0000000180033ef0     LIBCMT:throw_bad_alloc.obj
 0002:0000bef0       $unwind$__scrt_initialize_crt 0000000180033ef0     LIBCMT:utility.obj
 0002:0000bef0       $unwind$__scrt_initialize_onexit_tables 0000000180033ef0     LIBCMT:utility.obj
 0002:0000bef0       $unwind$__scrt_release_startup_lock 0000000180033ef0     LIBCMT:utility.obj
 0002:0000bef0       $unwind$__scrt_uninitialize_crt 0000000180033ef0     LIBCMT:utility.obj
 0002:0000bef0       $unwind$_onexit            0000000180033ef0     LIBCMT:utility.obj
 0002:0000bef0       $unwind$_IsExceptionObjectToBeDestroyed 0000000180033ef0     libvcruntime:ehhelpers.obj
 0002:0000bef0       $unwind$?GetUnwindTryBlock@__FrameHandler3@@SAHPEA_KPEAU_xDISPATCHER_CONTEXT@@PEBU_s_FuncInfo@@@Z 0000000180033ef0     libvcruntime:ehstate.obj
 0002:0000bef0       $unwind$?StateFromIp@__FrameHandler3@@SAHPEBU_s_FuncInfo@@PEAU_xDISPATCHER_CONTEXT@@_K@Z 0000000180033ef0     libvcruntime:ehstate.obj
 0002:0000bef0       $unwind$??0HandlerMap4@FH4@@QEAA@PEBUTryBlockMapEntry4@1@_KH@Z 0000000180033ef0     libvcruntime:frame.obj
 0002:0000bef0       $unwind$??0bad_exception@std@@QEAA@AEBV01@@Z 0000000180033ef0     libvcruntime:frame.obj
 0002:0000bef0       $unwind$__vcrt_initialize_locks 0000000180033ef0     libvcruntime:locks.obj
 0002:0000bef0       $unwind$__vcrt_uninitialize_locks 0000000180033ef0     libvcruntime:locks.obj
 0002:0000bef0       $unwind$__vcrt_freeptd     0000000180033ef0     libvcruntime:per_thread_data.obj
 0002:0000bef0       $unwind$?ExecutionInCatch@__FrameHandler3@@SA_NPEAU_xDISPATCHER_CONTEXT@@PEBU_s_FuncInfo@@@Z 0000000180033ef0     libvcruntime:risctrnsctrl.obj
 0002:0000bef0       $unwind$_CreateFrameInfo   0000000180033ef0     libvcruntime:risctrnsctrl.obj
 0002:0000bef0       $unwind$_SetImageBase      0000000180033ef0     libvcruntime:risctrnsctrl.obj
 0002:0000bef0       $unwind$_SetThrowImageBase 0000000180033ef0     libvcruntime:risctrnsctrl.obj
 0002:0000bef0       $unwind$__std_exception_destroy 0000000180033ef0     libvcruntime:std_exception.obj
 0002:0000bef0       $unwind$__std_type_info_destroy_list 0000000180033ef0     libvcruntime:std_type_info.obj
 0002:0000bef0       $unwind$__vcrt_FlsAlloc    0000000180033ef0     libvcruntime:winapi_downlevel.obj
 0002:0000bef0       $unwind$__vcrt_FlsFree     0000000180033ef0     libvcruntime:winapi_downlevel.obj
 0002:0000bef0       $unwind$__vcrt_FlsGetValue 0000000180033ef0     libvcruntime:winapi_downlevel.obj
 0002:0000bef8       $unwind$?AtlWinModuleTerm@ATL@@YAJPEAU_ATL_WIN_MODULE70@1@PEAUHINSTANCE__@@@Z 0000000180033ef8     OposVariant.obj
 0002:0000bef8       $unwind$?AtlWinModuleExtractCreateWndData@ATL@@YAPEAXPEAU_ATL_WIN_MODULE70@1@@Z 0000000180033ef8     POSPrinter.obj
 0002:0000bef8       $unwind$?CreateInstance@?$CComCreator@V?$CComObject@VCOPOSPOSPrinter@@@ATL@@@ATL@@SAJPEAXAEBU_GUID@@PEAPEAX@Z 0000000180033ef8     POSPrinter.obj
 0002:0000bef8       $unwind$?DoEvent@COPOSPOSPrinter@@IEAAXI_K_J@Z 0000000180033ef8     POSPrinter.obj
 0002:0000bef8       $unwind$?DoVerb@?$IOleObjectImpl@VCOPOSPOSPrinter@@@ATL@@UEAAJJPEAUtagMSG@@PEAUIOleClientSite@@JPEAUHWND__@@PEBUtagRECT@@@Z 0000000180033ef8     POSPrinter.obj
 0002:0000bef8       $unwind$?HKeyFromString@CRegParser@ATL@@KAPEAUHKEY__@@PEA_W@Z 0000000180033ef8     POSPrinter.obj
 0002:0000bef8       $unwind$?Next@?$CComEnumImpl@UIEnumConnectionPoints@@$1?_GUID_b196b285_bab4_101a_b69c_00aa00341d07@@3U__s_GUID@@BPEAUIConnectionPoint@@V?$_CopyInterface@UIConnectionPoint@@@ATL@@@ATL@@UEAAJKPEAPEAUIConnectionPoint@@PEAK@Z 0000000180033ef8     POSPrinter.obj
 0002:0000bef8       $unwind$?Next@?$CComEnumImpl@UIEnumConnections@@$1?_GUID_b196b287_bab4_101a_b69c_00aa00341d07@@3U__s_GUID@@BUtagCONNECTDATA@@V?$_Copy@UtagCONNECTDATA@@@ATL@@@ATL@@UEAAJKPEAUtagCONNECTDATA@@PEAK@Z 0000000180033ef8     POSPrinter.obj
 0002:0000bef8       $unwind$?SODirectIO@COPOSPOSPrinter@@MEAAJJPEAJPEAPEA_W@Z 0000000180033ef8     POSPrinter.obj
 0002:0000bef8       $unwind$?SetControlFocus@CComControlBase@ATL@@QEAAHH@Z 0000000180033ef8     POSPrinter.obj
 0002:0000bef8       $unwind$?ocscpy_s@@YA_NPEA_W_KPEB_W@Z 0000000180033ef8     POSPrinter.obj
 0002:0000bef8       $unwind$?s_EventWindowProc@COPOSPOSPrinter@@KA_JPEAUHWND__@@I_K_J@Z 0000000180033ef8     POSPrinterImpl.obj
 0002:0000bef8       $unwind$_recalloc_base     0000000180033ef8     libucrt:recalloc.obj
 0002:0000bef8       $unwind$__acrt_free_locale 0000000180033ef8     libucrt:locale_refcounting.obj
 0002:0000bef8       $unwind$__acrt_lowio_create_handle_array 0000000180033ef8     libucrt:osfinfo.obj
 0002:0000bef8       $unwind$_seh_filter_exe    0000000180033ef8     libucrt:exception_filter.obj
 0002:0000bef8       $unwind$__acrt_stdio_flush_nolock 0000000180033ef8     libucrt:fflush.obj
 0002:0000bef8       $unwind$??$ensure_buffer_is_big_enough@D@formatting_buffer@__crt_stdio_output@@QEAA_N_KAEAV__crt_cached_ptd_host@@@Z 0000000180033ef8     libucrt:output.obj
 0002:0000bef8       $unwind$??$ensure_buffer_is_big_enough@_W@formatting_buffer@__crt_stdio_output@@QEAA_N_KAEAV__crt_cached_ptd_host@@@Z 0000000180033ef8     libucrt:output.obj
 0002:0000bef8       $unwind$__scrt_dllmain_exception_filter 0000000180033ef8     LIBCMT:utility.obj
 0002:0000bef8       $unwind$?GetHandlerSearchState@__FrameHandler3@@SAHPEA_KPEAU_xDISPATCHER_CONTEXT@@PEBU_s_FuncInfo@@@Z 0000000180033ef8     libvcruntime:frame.obj
 0002:0000bef8       $unwind$?Is_bad_exception_allowed@@YAEPEBU_s_ESTypeList@@@Z 0000000180033ef8     libvcruntime:frame.obj
 0002:0000bef8       $unwind$?CatchTryBlock@__FrameHandler3@@SAPEBU_s_TryBlockMapEntry@@PEBU_s_FuncInfo@@H@Z 0000000180033ef8     libvcruntime:risctrnsctrl.obj
 0002:0000bf0c       $unwind$??0OposDispParms@@QEAA@PEAVOposVariant@@H@Z 0000000180033f0c     OposVariant.obj
 0002:0000bf0c       $unwind$?SetBSTR_Copy@OposVariant@@QEAAXPEA_WAEAJ@Z 0000000180033f0c     OposVariant.obj
 0002:0000bf0c       $unwind$?SetBSTR_InOutPtr@OposVariant@@QEAA_NPEAPEA_WAEAJ@Z 0000000180033f0c     OposVariant.obj
 0002:0000bf0c       $unwind$?SetDispatch_Ptr@OposVariant@@QEAAXPEAUIDispatch@@AEAJ@Z 0000000180033f0c     OposVariant.obj
 0002:0000bf0c       $unwind$?SetLONG_Ptr@OposVariant@@QEAAXPEAJAEAJ@Z 0000000180033f0c     OposVariant.obj
 0002:0000bf0c       $unwind$?SetString@OposVariant@@QEAAXPEB_WAEAJ@Z 0000000180033f0c     OposVariant.obj
 0002:0000bf0c       $unwind$?Term@CAtlComModule@ATL@@QEAAXXZ 0000000180033f0c     OposVariant.obj
 0002:0000bf0c       $unwind$??_GCRegObject@ATL@@UEAAPEAXI@Z 0000000180033f0c     POSPrinter.obj
 0002:0000bf0c       $unwind$?Add@?$CSimpleArray@GV?$CSimpleArrayEqualHelper@G@ATL@@@ATL@@QEAAHAEBG@Z 0000000180033f0c     POSPrinter.obj
 0002:0000bf0c       $unwind$?Add@?$CSimpleMap@PEA_WPEA_WVCExpansionVectorEqualHelper@ATL@@@ATL@@QEAAHAEBQEA_W0@Z 0000000180033f0c     POSPrinter.obj
 0002:0000bf0c       $unwind$?Add@CComDynamicUnkArray@ATL@@QEAAKPEAUIUnknown@@@Z 0000000180033f0c     POSPrinter.obj
 0002:0000bf0c       $unwind$?Advise@?$IOleObjectImpl@VCOPOSPOSPrinter@@@ATL@@UEAAJPEAUIAdviseSink@@PEAK@Z 0000000180033f0c     POSPrinter.obj
 0002:0000bf0c       $unwind$?ClearReplacements@CExpansionVector@ATL@@QEAAJXZ 0000000180033f0c     POSPrinter.obj
 0002:0000bf0c       $unwind$?CreateInstance@?$CComObject@V?$CComEnum@UIEnumConnectionPoints@@$1?_GUID_b196b285_bab4_101a_b69c_00aa00341d07@@3U__s_GUID@@BPEAUIConnectionPoint@@V?$_CopyInterface@UIConnectionPoint@@@ATL@@VCComSingleThreadModel@6@@ATL@@@ATL@@SAJPEAPEAV12@@Z 0000000180033f0c     POSPrinter.obj
 0002:0000bf0c       $unwind$?CreateInstance@?$CComObject@V?$CComEnum@UIEnumConnections@@$1?_GUID_b196b287_bab4_101a_b69c_00aa00341d07@@3U__s_GUID@@BUtagCONNECTDATA@@V?$_Copy@UtagCONNECTDATA@@@ATL@@VCComSingleThreadModel@6@@ATL@@@ATL@@SAJPEAPEAV12@@Z 0000000180033f0c     POSPrinter.obj
 0002:0000bf0c       $unwind$?RegisterServer@CComModule@ATL@@QEAAJHPEBU_GUID@@@Z 0000000180033f0c     POSPrinter.obj
 0002:0000bf0c       $unwind$?UnregisterServer@CComModule@ATL@@QEAAJHPEBU_GUID@@@Z 0000000180033f0c     POSPrinter.obj
 0002:0000bf0c       $unwind$?VTFromRegType@CRegParser@ATL@@KAHPEB_WAEAG@Z 0000000180033f0c     POSPrinter.obj
 0002:0000bf0c       $unwind$memcpy_s           0000000180033f0c     libucrt:cfout.obj
 0002:0000bf0c       $unwind$__acrt_getptd      0000000180033f0c     libucrt:per_thread_data.obj
 0002:0000bf0c       $unwind$__acrt_getptd_noexit 0000000180033f0c     libucrt:per_thread_data.obj
 0002:0000bf0c       $unwind$__acrt_getptd_noexit_explicit 0000000180033f0c     libucrt:per_thread_data.obj
 0002:0000bf0c       $unwind$__acrt_execute_initializers 0000000180033f0c     libucrt:shared_initialization.obj
 0002:0000bf0c       $unwind$__acrt_InitializeCriticalSectionEx 0000000180033f0c     libucrt:winapi_thunks.obj
 0002:0000bf0c       $unwind$_close_nolock_internal 0000000180033f0c     libucrt:close.obj
 0002:0000bf0c       $unwind$?value@?$dual_state_global@P6AXPEB_W00I_K@Z@__crt_state_management@@QEAAAEAP6AXPEB_W00I_K@ZAEAV__crt_cached_ptd_host@@@Z 0000000180033f0c     libucrt:invalid_parameter.obj
 0002:0000bf0c       $unwind$??0_LocaleUpdate@@QEAA@QEAU__crt_locale_pointers@@@Z 0000000180033f0c     libucrt:argv_wildcards.obj
 0002:0000bf0c       $unwind$?type_case_Z@?$output_processor@_WV?$string_output_adapter@_W@__crt_stdio_output@@V?$format_validation_base@_WV?$string_output_adapter@_W@__crt_stdio_output@@@2@@__crt_stdio_output@@AEAA_NXZ 0000000180033f0c     libucrt:output.obj
 0002:0000bf0c       $unwind$?type_case_s@?$output_processor@_WV?$string_output_adapter@_W@__crt_stdio_output@@V?$format_validation_base@_WV?$string_output_adapter@_W@__crt_stdio_output@@@2@@__crt_stdio_output@@AEAA_NXZ 0000000180033f0c     libucrt:output.obj
 0002:0000bf0c       $unwind$?type_case_s_compute_narrow_string_length@?$output_processor@_WV?$string_output_adapter@_W@__crt_stdio_output@@V?$format_validation_base@_WV?$string_output_adapter@_W@__crt_stdio_output@@@2@@__crt_stdio_output@@AEAAHH_W@Z 0000000180033f0c     libucrt:output.obj
 0002:0000bf0c       $unwind$?update_locale_slow@__crt_cached_ptd_host@@AEAAXXZ 0000000180033f0c     libucrt:output.obj
 0002:0000bf0c       $unwind$strncpy_s          0000000180033f0c     libucrt:strncpy_s.obj
 0002:0000bf0c       $unwind$wcsncpy_s          0000000180033f0c     libucrt:wcsncpy_s.obj
 0002:0000bf0c       $unwind$_exception_enabled 0000000180033f0c     libucrt:libm_error.obj
 0002:0000bf0c       $unwind$_DllMainCRTStartup 0000000180033f0c     LIBCMT:dll_dllmain.obj
 0002:0000bf0c       $unwind$__vcrt_getptd_noexit 0000000180033f0c     libvcruntime:per_thread_data.obj
 0002:0000bf0c       $unwind$?FrameUnwindToEmptyState@__FrameHandler3@@SAXPEA_KPEAU_xDISPATCHER_CONTEXT@@PEBU_s_FuncInfo@@@Z 0000000180033f0c     libvcruntime:risctrnsctrl.obj
 0002:0000bf0c       $unwind$__vcrt_InitializeCriticalSectionEx 0000000180033f0c     libvcruntime:winapi_downlevel.obj
 0002:0000bf1c       $unwind$??_Estringdispid@CComTypeInfoHolder@ATL@@QEAAPEAXI@Z 0000000180033f1c     OposVariant.obj
 0002:0000bf1c       $unwind$?AddTermFunc@CAtlModule@ATL@@QEAAJP6AX_K@Z0@Z 0000000180033f1c     POSPrinter.obj
 0002:0000bf1c       $unwind$?AtlComModuleRegisterServer@ATL@@YAJPEAU_ATL_COM_MODULE70@1@HPEBU_GUID@@@Z 0000000180033f1c     POSPrinter.obj
 0002:0000bf1c       $unwind$?AtlComModuleUnregisterServer@ATL@@YAJPEAU_ATL_COM_MODULE70@1@HPEBU_GUID@@@Z 0000000180033f1c     POSPrinter.obj
 0002:0000bf1c       $unwind$?CreateInstance@?$CComCreator@V?$CComAggObject@VCOPOSPOSPrinter@@@ATL@@@ATL@@SAJPEAXAEBU_GUID@@PEAPEAX@Z 0000000180033f1c     POSPrinter.obj
 0002:0000bf1c       $unwind$?CreateInstance@?$CComCreator@V?$CComObjectCached@VCComClassFactory@ATL@@@ATL@@@ATL@@SAJPEAXAEBU_GUID@@PEAPEAX@Z 0000000180033f1c     POSPrinter.obj
 0002:0000bf1c       $unwind$?GetPagesHelper@?$ISpecifyPropertyPagesImpl@VCOPOSPOSPrinter@@@ATL@@IEAAJPEAUtagCAUUID@@PEBUATL_PROPMAP_ENTRY@2@@Z 0000000180033f1c     POSPrinter.obj
 0002:0000bf1c       $unwind$?Term@CAtlModule@ATL@@QEAAXXZ 0000000180033f1c     POSPrinter.obj
 0002:0000bf1c       $unwind$?initialize_stdio_handles_nolock@@YAXXZ 0000000180033f1c     libucrt:ioinit.obj
 0002:0000bf1c       $unwind$__acrt_initialize_stdio 0000000180033f1c     libucrt:_file.obj
 0002:0000bf1c       $unwind$__GSHandlerCheck_EH 0000000180033f1c     LIBCMT:gshandlereh.obj
 0002:0000bf1c       $unwind$__GSHandlerCheck_SEH 0000000180033f1c     LIBCMT:gshandlerseh.obj
 0002:0000bf1c       $unwind$??$TypeMatchHelper@V__FrameHandler3@@@@YAHPEBU_s_HandlerType@@PEBU_s_CatchableType@@PEBU_s_ThrowInfo@@@Z 0000000180033f1c     libvcruntime:frame.obj
 0002:0000bf1c       $unwind$??$TypeMatchHelper@V__FrameHandler4@@@@YAHPEAUHandlerType4@FH4@@PEBU_s_CatchableType@@PEBU_s_ThrowInfo@@@Z 0000000180033f1c     libvcruntime:frame.obj
 0002:0000bf34       $unwind$?SetBSTR@OposVariant@@QEAAXPEA_WAEAJ@Z 0000000180033f34     OposVariant.obj
 0002:0000bf34       $unwind$?SetLONG@OposVariant@@QEAAXJ@Z 0000000180033f34     OposVariant.obj
 0002:0000bf34       $unwind$?SetVARIANT_BOOL@OposVariant@@QEAAXF@Z 0000000180033f34     OposVariant.obj
 0002:0000bf34       $unwind$??0?$CComContainedObject@VCOPOSPOSPrinter@@@ATL@@QEAA@PEAX@Z 0000000180033f34     POSPrinter.obj
 0002:0000bf34       $unwind$??1?$CComEnumImpl@UIEnumConnectionPoints@@$1?_GUID_b196b285_bab4_101a_b69c_00aa00341d07@@3U__s_GUID@@BPEAUIConnectionPoint@@V?$_CopyInterface@UIConnectionPoint@@@ATL@@@ATL@@UEAA@XZ 0000000180033f34     POSPrinter.obj
 0002:0000bf34       $unwind$??1?$CComEnumImpl@UIEnumConnections@@$1?_GUID_b196b287_bab4_101a_b69c_00aa00341d07@@3U__s_GUID@@BUtagCONNECTDATA@@V?$_Copy@UtagCONNECTDATA@@@ATL@@@ATL@@UEAA@XZ 0000000180033f34     POSPrinter.obj
 0002:0000bf34       $unwind$??_G?$CComAggObject@VCOPOSPOSPrinter@@@ATL@@UEAAPEAXI@Z 0000000180033f34     POSPrinter.obj
 0002:0000bf34       $unwind$??_G?$CComContainedObject@VCOPOSPOSPrinter@@@ATL@@UEAAPEAXI@Z 0000000180033f34     POSPrinter.obj
 0002:0000bf34       $unwind$??_G?$CComObject@V?$CComEnum@UIEnumConnectionPoints@@$1?_GUID_b196b285_bab4_101a_b69c_00aa00341d07@@3U__s_GUID@@BPEAUIConnectionPoint@@V?$_CopyInterface@UIConnectionPoint@@@ATL@@VCComSingleThreadModel@6@@ATL@@@ATL@@UEAAPEAXI@Z 0000000180033f34     POSPrinter.obj
 0002:0000bf34       $unwind$??_G?$CComObject@V?$CComEnum@UIEnumConnections@@$1?_GUID_b196b287_bab4_101a_b69c_00aa00341d07@@3U__s_GUID@@BUtagCONNECTDATA@@V?$_Copy@UtagCONNECTDATA@@@ATL@@VCComSingleThreadModel@6@@ATL@@@ATL@@UEAAPEAXI@Z 0000000180033f34     POSPrinter.obj
 0002:0000bf34       $unwind$??_G?$CComObject@VCOPOSPOSPrinter@@@ATL@@UEAAPEAXI@Z 0000000180033f34     POSPrinter.obj
 0002:0000bf34       $unwind$??_G?$CComObjectCached@VCComClassFactory@ATL@@@ATL@@UEAAPEAXI@Z 0000000180033f34     POSPrinter.obj
 0002:0000bf34       $unwind$??_GCComClassFactory@ATL@@UEAAPEAXI@Z 0000000180033f34     POSPrinter.obj
 0002:0000bf34       $unwind$??_GCComModule@ATL@@UEAAPEAXI@Z 0000000180033f34     POSPrinter.obj
 0002:0000bf34       $unwind$?DeleteSubKey@CRegKey@ATL@@QEAAJPEB_W@Z 0000000180033f34     POSPrinter.obj
 0002:0000bf34       $unwind$?IOleObject_SetClientSite@CComControlBase@ATL@@QEAAJPEAUIOleClientSite@@@Z 0000000180033f34     POSPrinter.obj
 0002:0000bf34       $unwind$?InitNew@?$IPersistStorageImpl@VCOPOSPOSPrinter@@@ATL@@UEAAJPEAUIStorage@@@Z 0000000180033f34     POSPrinter.obj
 0002:0000bf34       $unwind$?IsDirty@?$IPersistStorageImpl@VCOPOSPOSPrinter@@@ATL@@UEAAJXZ 0000000180033f34     POSPrinter.obj
 0002:0000bf34       $unwind$?Release@?$CComAggObject@VCOPOSPOSPrinter@@@ATL@@UEAAKXZ 0000000180033f34     POSPrinter.obj
 0002:0000bf34       $unwind$?Release@?$CComObject@V?$CComEnum@UIEnumConnectionPoints@@$1?_GUID_b196b285_bab4_101a_b69c_00aa00341d07@@3U__s_GUID@@BPEAUIConnectionPoint@@V?$_CopyInterface@UIConnectionPoint@@@ATL@@VCComSingleThreadModel@6@@ATL@@@ATL@@UEAAKXZ 0000000180033f34     POSPrinter.obj
 0002:0000bf34       $unwind$?Release@?$CComObject@V?$CComEnum@UIEnumConnections@@$1?_GUID_b196b287_bab4_101a_b69c_00aa00341d07@@3U__s_GUID@@BUtagCONNECTDATA@@V?$_Copy@UtagCONNECTDATA@@@ATL@@VCComSingleThreadModel@6@@ATL@@@ATL@@UEAAKXZ 0000000180033f34     POSPrinter.obj
 0002:0000bf34       $unwind$?Release@?$CComObject@VCOPOSPOSPrinter@@@ATL@@UEAAKXZ 0000000180033f34     POSPrinter.obj
 0002:0000bf34       $unwind$?SOOutputComplete@COPOSPOSPrinter@@MEAAJJ@Z 0000000180033f34     POSPrinter.obj
 0002:0000bf34       $unwind$?SOStatusUpdate@COPOSPOSPrinter@@MEAAJJ@Z 0000000180033f34     POSPrinter.obj
 0002:0000bf34       $unwind$?SetAdvise@?$IViewObjectExImpl@VCOPOSPOSPrinter@@@ATL@@UEAAJKKPEAUIAdviseSink@@@Z 0000000180033f34     POSPrinter.obj
 0002:0000bf34       $unwind$?Term@CComModule@ATL@@QEAAXXZ 0000000180033f34     POSPrinter.obj
 0002:0000bf34       $unwind$DllMain            0000000180033f34     POSPrinter.obj
 0002:0000bf34       $unwind$??1?$IConnectionPointImpl@VCOPOSPOSPrinter@@$1?DIID__IOPOSPOSPrinterEvents@@3U_GUID@@BVCComDynamicUnkArray@ATL@@@ATL@@QEAA@XZ 0000000180033f34     POSPrinterImpl.obj
 0002:0000bf34       $unwind$??1?$IConnectionPointImpl@VCOPOSPOSPrinter@@$1?IID_IPropertyNotifySink@@3U_GUID@@BVCComDynamicUnkArray@ATL@@@ATL@@QEAA@XZ 0000000180033f34     POSPrinterImpl.obj
 0002:0000bf34       $unwind$??$common_initialize_environment_nolock@D@@YAHXZ 0000000180033f34     libucrt:environment_initialization.obj
 0002:0000bf34       $unwind$_realloc_base      0000000180033f34     libucrt:realloc_base.obj
 0002:0000bf34       $unwind$?replace_current_thread_locale_nolock@@YAXQEAU__acrt_ptd@@QEAU__crt_locale_data@@@Z 0000000180033f34     libucrt:per_thread_data.obj
 0002:0000bf34       $unwind$__acrt_execute_uninitializers 0000000180033f34     libucrt:shared_initialization.obj
 0002:0000bf34       $unwind$__acrt_LocaleNameToLCID 0000000180033f34     libucrt:winapi_thunks.obj
 0002:0000bf34       $unwind$?free_crt_array_internal@@YAXQEAPEBX_K@Z 0000000180033f34     libucrt:inittime.obj
 0002:0000bf34       $unwind$_updatetlocinfoEx_nolock 0000000180033f34     libucrt:locale_refcounting.obj
 0002:0000bf34       $unwind$__acrt_uninitialize_lowio 0000000180033f34     libucrt:ioinit.obj
 0002:0000bf34       $unwind$?setSBCS@@YAXPEAU__crt_multibyte_data@@@Z 0000000180033f34     libucrt:mbctype.obj
 0002:0000bf34       $unwind$_initterm_e        0000000180033f34     libucrt:initterm.obj
 0002:0000bf34       $unwind$??0CAtlBaseModule@ATL@@QEAA@XZ 0000000180033f34     atls:atlbase.obj
 0002:0000bf34       $unwind$??$GetProcAddressAll@P6AP6A_JPEAUHWND__@@I_K_J@ZPEAUAtlThunkData_t@@@Z@@YAP6AP6A_JPEAUHWND__@@I_K_J@ZPEAUAtlThunkData_t@@@ZPEAP6AP6A_J0I12@Z3@Z@Z 0000000180033f34     atls:atlthunk.obj
 0002:0000bf34       $unwind$??$GetProcAddressAll@P6APEAUAtlThunkData_t@@XZ@@YAP6APEAUAtlThunkData_t@@XZPEAP6APEAU0@XZ@Z 0000000180033f34     atls:atlthunk.obj
 0002:0000bf34       $unwind$??$GetProcAddressAll@P6AXPEAUAtlThunkData_t@@@Z@@YAP6AXPEAUAtlThunkData_t@@@ZPEAP6AX0@Z@Z 0000000180033f34     atls:atlthunk.obj
 0002:0000bf34       $unwind$??$GetProcAddressAll@P6AXPEAUAtlThunkData_t@@PEAX_K@Z@@YAP6AXPEAUAtlThunkData_t@@PEAX_K@ZPEAP6AX012@Z@Z 0000000180033f34     atls:atlthunk.obj
 0002:0000bf34       $unwind$?__AllocStdCallThunk_cmn@@YAPEAXXZ 0000000180033f34     atls:atlthunk.obj
 0002:0000bf34       $unwind$?__InitializeThunkPool@@YAHXZ 0000000180033f34     atls:atlthunk.obj
 0002:0000bf34       $unwind$AtlThunk_DataToCode 0000000180033f34     atls:atlthunk.obj
 0002:0000bf34       $unwind$_RTC_Initialize    0000000180033f34     LIBCMT:initsect.obj
 0002:0000bf34       $unwind$_RTC_Terminate     0000000180033f34     LIBCMT:initsect.obj
 0002:0000bf34       $unwind$?__scrt_initialize_thread_safe_statics@@YAHXZ 0000000180033f34     LIBCMT:thread_safe_statics.obj
 0002:0000bf34       $unwind$??_Gbad_alloc@std@@UEAAPEAXI@Z 0000000180033f34     LIBCMT:throw_bad_alloc.obj
 0002:0000bf34       $unwind$??_Gbad_array_new_length@std@@UEAAPEAXI@Z 0000000180033f34     LIBCMT:throw_bad_alloc.obj
 0002:0000bf34       $unwind$??_Gexception@std@@UEAAPEAXI@Z 0000000180033f34     LIBCMT:throw_bad_alloc.obj
 0002:0000bf34       $unwind$__C_specific_handler_noexcept 0000000180033f34     libvcruntime:chandler_noexcept.obj
 0002:0000bf34       $unwind$__FrameUnwindFilter 0000000180033f34     libvcruntime:ehhelpers.obj
 0002:0000bf34       $unwind$?SetUnwindTryBlock@__FrameHandler3@@SAXPEA_KPEAU_xDISPATCHER_CONTEXT@@PEBU_s_FuncInfo@@H@Z 0000000180033f34     libvcruntime:ehstate.obj
 0002:0000bf34       $unwind$??_Gbad_exception@std@@UEAAPEAXI@Z 0000000180033f34     libvcruntime:frame.obj
 0002:0000bf34       $unwind$?ExFilterRethrow@@YAHPEAU_EXCEPTION_POINTERS@@PEAUEHExceptionRecord@@PEAH@Z 0000000180033f34     libvcruntime:frame.obj
 0002:0000bf34       $unwind$?ExFilterRethrowFH4@@YAHPEAU_EXCEPTION_POINTERS@@PEAUEHExceptionRecord@@HPEAH@Z 0000000180033f34     libvcruntime:frame.obj
 0002:0000bf34       $unwind$_FindAndUnlinkFrame 0000000180033f34     libvcruntime:risctrnsctrl.obj
 0002:0000bf34       $unwind$__vcrt_FlsSetValue 0000000180033f34     libvcruntime:winapi_downlevel.obj
 0002:0000bf40       $unwind$?ChangeBSTR@OposVariant@@QEAAXPEAPEA_WAEAJ@Z 0000000180033f40     OposVariant.obj
 0002:0000bf40       $unwind$?ChangeLONG@OposVariant@@QEAAXPEAJAEAJ@Z 0000000180033f40     OposVariant.obj
 0002:0000bf40       $unwind$?x_ismbbtype_l@@YAHPEAU__crt_locale_pointers@@IHH@Z 0000000180033f40     libucrt:ismbbyte.obj
 0002:0000bf50       $unwind$swprintf_s         0000000180033f50     POSPrinter.obj
 0002:0000bf60       $unwind$?_AtlVerifyStackAvailable@_ATL_SAFE_ALLOCA_IMPL@ATL@@YA_N_K@Z 0000000180033f60     POSPrinter.obj
 0002:0000bf8c       $unwind$?filt$0@?0??_AtlVerifyStackAvailable@_ATL_SAFE_ALLOCA_IMPL@ATL@@YA_N_K@Z@4HA 0000000180033f8c     POSPrinter.obj
 0002:0000bf8c       $unwind$_query_new_handler$fin$0 0000000180033f8c     libucrt:new_handler.obj
 0002:0000bf8c       $unwind$?fin$0@?0???$?RV<lambda_0ae27a3a962d80f24befdcbee591983d>@@AEAV<lambda_8d0ee55de4b1038c4002e0adecdf1839>@@V<lambda_dc504788e8f1664fe9b84e20bfb512f2>@@@?$__crt_seh_guarded_call@X@@QEAAX$$QEAV<lambda_0ae27a3a962d80f24befdcbee591983d>@@AEAV<lambda_8d0ee55de4b1038c4002e0adecdf1839>@@$$QEAV<lambda_dc504788e8f1664fe9b84e20bfb512f2>@@@Z@4HA 0000000180033f8c     libucrt:per_thread_data.obj
 0002:0000bf8c       $unwind$?fin$0@?0???$?RV<lambda_2d41944a1d46af3157314b8a01080d33>@@AEAV<lambda_8f455de75cd7d7f24b4096f044d8b9e6>@@V<lambda_aa500f224e6afead328df44964fe2772>@@@?$__crt_seh_guarded_call@X@@QEAAX$$QEAV<lambda_2d41944a1d46af3157314b8a01080d33>@@AEAV<lambda_8f455de75cd7d7f24b4096f044d8b9e6>@@$$QEAV<lambda_aa500f224e6afead328df44964fe2772>@@@Z@4HA 0000000180033f8c     libucrt:per_thread_data.obj
 0002:0000bf8c       $unwind$?fin$0@?0???$?RV<lambda_aa87e3671a710a21b5dc78c0bdf72e11>@@AEAV<lambda_92619d2358a28f41a33ba319515a20b9>@@V<lambda_6992ecaafeb10aed2b74cb1fae11a551>@@@?$__crt_seh_guarded_call@X@@QEAAX$$QEAV<lambda_aa87e3671a710a21b5dc78c0bdf72e11>@@AEAV<lambda_92619d2358a28f41a33ba319515a20b9>@@$$QEAV<lambda_6992ecaafeb10aed2b74cb1fae11a551>@@@Z@4HA 0000000180033f8c     libucrt:per_thread_data.obj
 0002:0000bf8c       $unwind$?fin$0@?0???$?RV<lambda_f2e299630e499de9f9a165e60fcd3db5>@@AEAV<lambda_2ae9d31cdba2644fcbeaf08da7c24588>@@V<lambda_40d01ff24d0e7b3814fdbdcee8eab3c7>@@@?$__crt_seh_guarded_call@X@@QEAAX$$QEAV<lambda_f2e299630e499de9f9a165e60fcd3db5>@@AEAV<lambda_2ae9d31cdba2644fcbeaf08da7c24588>@@$$QEAV<lambda_40d01ff24d0e7b3814fdbdcee8eab3c7>@@@Z@4HA 0000000180033f8c     libucrt:per_thread_data.obj
 0002:0000bf8c       $unwind$__acrt_update_thread_locale_data$fin$0 0000000180033f8c     libucrt:locale_refcounting.obj
 0002:0000bf8c       $unwind$?fin$0@?0???$?RV<lambda_410d79af7f07d98d83a3f525b3859a53>@@AEAV<lambda_3e16ef9562a7dcce91392c22ab16ea36>@@V<lambda_38119f0e861e05405d8a144b9b982f0a>@@@?$__crt_seh_guarded_call@X@@QEAAX$$QEAV<lambda_410d79af7f07d98d83a3f525b3859a53>@@AEAV<lambda_3e16ef9562a7dcce91392c22ab16ea36>@@$$QEAV<lambda_38119f0e861e05405d8a144b9b982f0a>@@@Z@4HA 0000000180033f8c     libucrt:wsetlocale.obj
 0002:0000bf8c       $unwind$?fin$0@?0???$?RV<lambda_ad8af0d99a0adf03d037d7dffe354bb5>@@AEAV<lambda_c9ba49e555ba839a7b07aa3fbecb7617>@@V<lambda_2f1ebd5d68526518146ae959c9e734c8>@@@?$__crt_seh_guarded_call@H@@QEAAH$$QEAV<lambda_ad8af0d99a0adf03d037d7dffe354bb5>@@AEAV<lambda_c9ba49e555ba839a7b07aa3fbecb7617>@@$$QEAV<lambda_2f1ebd5d68526518146ae959c9e734c8>@@@Z@4HA 0000000180033f8c     libucrt:close.obj
 0002:0000bf8c       $unwind$?fin$0@?0???$?RV<lambda_a37b2b86f63e897a80ea819b0eb08c01>@@AEAV<lambda_38ce7e780aa69e748d6df282ebc68efe>@@V<lambda_99fb1378e971ab6e7edea83e3a7a83a2>@@@?$__crt_seh_guarded_call@H@@QEAAH$$QEAV<lambda_a37b2b86f63e897a80ea819b0eb08c01>@@AEAV<lambda_38ce7e780aa69e748d6df282ebc68efe>@@$$QEAV<lambda_99fb1378e971ab6e7edea83e3a7a83a2>@@@Z@4HA 0000000180033f8c     libucrt:commit.obj
 0002:0000bf8c       $unwind$__acrt_initialize_lowio$fin$0 0000000180033f8c     libucrt:ioinit.obj
 0002:0000bf8c       $unwind$__acrt_lowio_ensure_fh_exists$fin$0 0000000180033f8c     libucrt:osfinfo.obj
 0002:0000bf8c       $unwind$?fin$0@?0???$?RV<lambda_efdfa57d1f175319df784efa44bb7b81>@@AEAV<lambda_5f0a4c1567f8adc6734073e5d1e1b35c>@@V<lambda_2e8a7d3640ea6ccb4c2413664c2db6fd>@@@?$__crt_seh_guarded_call@X@@QEAAX$$QEAV<lambda_efdfa57d1f175319df784efa44bb7b81>@@AEAV<lambda_5f0a4c1567f8adc6734073e5d1e1b35c>@@$$QEAV<lambda_2e8a7d3640ea6ccb4c2413664c2db6fd>@@@Z@4HA 0000000180033f8c     libucrt:mbctype.obj
 0002:0000bf8c       $unwind$?fin$0@?0??update_thread_multibyte_data_internal@@YAPEAU__crt_multibyte_data@@QEAU__acrt_ptd@@QEAPEAU1@@Z@4HA 0000000180033f8c     libucrt:mbctype.obj
 0002:0000bf8c       $unwind$?fin$0@?0???$?RV<lambda_450d765d439847d4c735a33c368b5fc0>@@AEAV<lambda_44731a7d0e6d81c3e6aa82d741081786>@@V<lambda_601a2a7da3b7a96e9554ac7215c4b07c>@@@?$__crt_seh_guarded_call@P6AXH@Z@@QEAAP6AXH@Z$$QEAV<lambda_450d765d439847d4c735a33c368b5fc0>@@AEAV<lambda_44731a7d0e6d81c3e6aa82d741081786>@@$$QEAV<lambda_601a2a7da3b7a96e9554ac7215c4b07c>@@@Z@4HA 0000000180033f8c     libucrt:signal.obj
 0002:0000bf8c       $unwind$raise$fin$0        0000000180033f8c     libucrt:signal.obj
 0002:0000bf8c       $unwind$?filt$0@?0???R<lambda_6e4b09c48022b2350581041d5f6b0c4c>@@QEBA@XZ@4HA 0000000180033f8c     libucrt:exit.obj
 0002:0000bf8c       $unwind$?fin$0@?0???$?RV<lambda_d80eeec6fff315bfe5c115232f3240e3>@@AEAV<lambda_6e4b09c48022b2350581041d5f6b0c4c>@@V<lambda_2358e3775559c9db80273638284d5e45>@@@?$__crt_seh_guarded_call@X@@QEAAX$$QEAV<lambda_d80eeec6fff315bfe5c115232f3240e3>@@AEAV<lambda_6e4b09c48022b2350581041d5f6b0c4c>@@$$QEAV<lambda_2358e3775559c9db80273638284d5e45>@@@Z@4HA 0000000180033f8c     libucrt:exit.obj
 0002:0000bf8c       $unwind$?fin$0@?0???$?RV<lambda_638799b9deba96c50f710eeac98168cd>@@AEAV<lambda_22ebabd17bc4fa466a2aca6d8deb888d>@@V<lambda_a6f7d7db0129f75315ebf26d50c089f1>@@@?$__crt_seh_guarded_call@H@@QEAAH$$QEAV<lambda_638799b9deba96c50f710eeac98168cd>@@AEAV<lambda_22ebabd17bc4fa466a2aca6d8deb888d>@@$$QEAV<lambda_a6f7d7db0129f75315ebf26d50c089f1>@@@Z@4HA 0000000180033f8c     libucrt:onexit.obj
 0002:0000bf8c       $unwind$?fin$0@?0???$?RV<lambda_7777bce6b2f8c936911f934f8298dc43>@@AEAV<lambda_f03950bc5685219e0bcd2087efbe011e>@@V<lambda_3883c3dff614d5e0c5f61bb1ac94921c>@@@?$__crt_seh_guarded_call@H@@QEAAH$$QEAV<lambda_7777bce6b2f8c936911f934f8298dc43>@@AEAV<lambda_f03950bc5685219e0bcd2087efbe011e>@@$$QEAV<lambda_3883c3dff614d5e0c5f61bb1ac94921c>@@@Z@4HA 0000000180033f8c     libucrt:onexit.obj
 0002:0000bf8c       $unwind$_fcloseall$fin$0   0000000180033f8c     libucrt:closeall.obj
 0002:0000bf8c       $unwind$?fin$0@?0???$?RV<lambda_842d9ff0dc9ef11c61343bbaebe7f885>@@AEAV<lambda_c5860995281e5c4ce005b3de8f5874ee>@@V<lambda_d90129c13df834fdcbf8d2b88dafcf2d>@@@?$__crt_seh_guarded_call@X@@QEAAX$$QEAV<lambda_842d9ff0dc9ef11c61343bbaebe7f885>@@AEAV<lambda_c5860995281e5c4ce005b3de8f5874ee>@@$$QEAV<lambda_d90129c13df834fdcbf8d2b88dafcf2d>@@@Z@4HA 0000000180033f8c     libucrt:fflush.obj
 0002:0000bf8c       $unwind$?fin$0@?0???$?RV<lambda_886d6c58226a84441f68b9f2b8217b83>@@AEAV<lambda_ab61a845afdef5b7c387490eaf3616ee>@@V<lambda_f7f22ab5edc0698d5f6905b0d3f44752>@@@?$__crt_seh_guarded_call@X@@QEAAX$$QEAV<lambda_886d6c58226a84441f68b9f2b8217b83>@@AEAV<lambda_ab61a845afdef5b7c387490eaf3616ee>@@$$QEAV<lambda_f7f22ab5edc0698d5f6905b0d3f44752>@@@Z@4HA 0000000180033f8c     libucrt:fflush.obj
 0002:0000bf8c       $unwind$_ctrlfp$filt$0     0000000180033f8c     libucrt:fpctrl.obj
 0002:0000bf8c       $unwind$common_control87$filt$0 0000000180033f8c     libucrt:ieee.obj
 0002:0000bf8c       $unwind$?fin$0@?0??dllmain_crt_process_attach@@YAHQEAUHINSTANCE__@@QEAX@Z@4HA 0000000180033f8c     LIBCMT:dll_dllmain.obj
 0002:0000bf8c       $unwind$?fin$0@?0??dllmain_crt_process_detach@@YAH_N@Z@4HA 0000000180033f8c     LIBCMT:dll_dllmain.obj
 0002:0000bf8c       $unwind$?fin$1@?0??dllmain_crt_process_detach@@YAH_N@Z@4HA 0000000180033f8c     LIBCMT:dll_dllmain.obj
 0002:0000bf8c       $unwind$_IsNonwritableInCurrentImage$filt$0 0000000180033f8c     LIBCMT:pesect.obj
 0002:0000bf8c       $unwind$?filt$0@?0??CxxCallCatchBlock@__FrameHandler3@@SAPEAXPEAU_EXCEPTION_RECORD@@@Z@4HA 0000000180033f8c     libvcruntime:frame.obj
 0002:0000bf8c       $unwind$?filt$0@?0??CxxCallCatchBlock@__FrameHandler4@@SAPEAXPEAU_EXCEPTION_RECORD@@@Z@4HA 0000000180033f8c     libvcruntime:frame.obj
 0002:0000bf8c       $unwind$?filt$0@?0??FrameUnwindToState@__FrameHandler3@@SAXPEA_KPEAU_xDISPATCHER_CONTEXT@@PEBU_s_FuncInfo@@H@Z@4HA 0000000180033f8c     libvcruntime:frame.obj
 0002:0000bf8c       $unwind$?fin$1@?0??FrameUnwindToState@__FrameHandler3@@SAXPEA_KPEAU_xDISPATCHER_CONTEXT@@PEBU_s_FuncInfo@@H@Z@4HA 0000000180033f8c     libvcruntime:frame.obj
 0002:0000bf94       $unwind$?AtlInternalOleLoadFromStream@ATL@@YAJPEAUIStream@@AEBU_GUID@@PEAPEAXTClassesAllowedInStream@1@K@Z 0000000180033f94     POSPrinter.obj
 0002:0000bfb0       $unwind$?ReadFromStream@CComBSTR@ATL@@QEAAJPEAUIStream@@@Z 0000000180033fb0     POSPrinter.obj
 0002:0000bfb0       $unwind$_configure_narrow_argv 0000000180033fb0     libucrt:argv_parsing.obj
 0002:0000bfc4       $unwind$?WriteToStream@CComVariant@ATL@@QEAAJPEAUIStream@@@Z 0000000180033fc4     POSPrinter.obj
 0002:0000bfd8       $unwind$?RegOpenKeyExW@CAtlTransactionManager@ATL@@QEAAJPEAUHKEY__@@PEB_WKKPEAPEAU3@@Z 0000000180033fd8     POSPrinter.obj
 0002:0000bfd8       $unwind$?WriteToStream@CComVariant@ATL@@QEAAJPEAUIStream@@G@Z 0000000180033fd8     POSPrinter.obj
 0002:0000bfd8       $unwind$__dcrt_write_console 0000000180033fd8     libucrt:initcon.obj
 0002:0000bfd8       $unwind$??$__acrt_convert_wcs_mbs_cp@_WDV<lambda_f788ae46380686e8b737efdd8c720d07>@@U__crt_win32_buffer_no_resizing@@@@YAHQEB_WAEAV?$__crt_win32_buffer@DU__crt_win32_buffer_no_resizing@@@@AEBV<lambda_f788ae46380686e8b737efdd8c720d07>@@I@Z 0000000180033fd8     libucrt:getmodulefilenamea.obj
 0002:0000bfec       $unwind$?ReadFromStream@CComVariant@ATL@@QEAAJPEAUIStream@@GTClassesAllowedInStream@2@K@Z 0000000180033fec     POSPrinter.obj
 0002:0000c004       $unwind$?GetSizeMax@CComVariant@ATL@@QEBAJPEAT_ULARGE_INTEGER@@@Z 0000000180034004     POSPrinter.obj
 0002:0000c018       $unwind$?RegCreateKeyExW@CAtlTransactionManager@ATL@@QEAAJPEAUHKEY__@@PEB_WKPEA_WKKQEAU_SECURITY_ATTRIBUTES@@PEAPEAU3@PEAK@Z 0000000180034018     POSPrinter.obj
 0002:0000c02c       $unwind$?GetGITPtr@CAtlModule@ATL@@UEAAJPEAPEAUIGlobalInterfaceTable@@@Z 000000018003402c     POSPrinter.obj
 0002:0000c02c       $unwind$?RegDeleteKeyW@CAtlTransactionManager@ATL@@QEAAJPEAUHKEY__@@PEB_W@Z 000000018003402c     POSPrinter.obj
 0002:0000c02c       $unwind$?getStateFromIterators@UWMap4@FH4@@SAHAEBViterator@12@H0H0@Z 000000018003402c     libvcruntime:frame.obj
 0002:0000c03c       $unwind$?AtlHiMetricToPixel@ATL@@YAXPEBUtagSIZE@@PEAU2@@Z 000000018003403c     POSPrinter.obj
 0002:0000c03c       $unwind$?AtlInternalQueryInterface@ATL@@YAJPEAXPEBU_ATL_INTMAP_ENTRY@1@AEBU_GUID@@PEAPEAX@Z 000000018003403c     POSPrinter.obj
 0002:0000c054       $unwind$?Append@CParseBuffer@CRegParser@ATL@@QEAAHPEB_WH@Z 0000000180034054     POSPrinter.obj
 0002:0000c054       $unwind$?AtlComModuleGetClassObject@ATL@@YAJPEAU_ATL_COM_MODULE70@1@AEBU_GUID@@1PEAPEAX@Z 0000000180034054     POSPrinter.obj
 0002:0000c054       $unwind$?GetClassObject@CComModule@ATL@@QEAAJAEBU_GUID@@0PEAPEAX@Z 0000000180034054     POSPrinter.obj
 0002:0000c054       $unwind$?NextToken@CRegParser@ATL@@IEAAJPEA_W@Z 0000000180034054     POSPrinter.obj
 0002:0000c054       $unwind$?StartWindowProc@?$CWindowImplBaseT@VCWindow@ATL@@V?$CWinTraits@$0FGAAAAAA@$0A@@2@@ATL@@SA_JPEAUHWND__@@I_K_J@Z 0000000180034054     POSPrinter.obj
 0002:0000c054       $unwind$?fp_format_f_internal@@YAHQEAD_KHQEAU_strflt@@_NAEAV__crt_cached_ptd_host@@@Z 0000000180034054     libucrt:cvt.obj
 0002:0000c054       $unwind$__acrt_DownlevelLocaleNameToLCID 0000000180034054     libucrt:lcidtoname_downlevel.obj
 0002:0000c054       $unwind$??R<lambda_f03950bc5685219e0bcd2087efbe011e>@@QEBAHXZ 0000000180034054     libucrt:onexit.obj
 0002:0000c06c       $unwind$?AtlRegisterClassCategoriesHelper@ATL@@YAJAEBU_GUID@@PEBU_ATL_CATMAP_ENTRY@1@H@Z 000000018003406c     POSPrinter.obj
 0002:0000c090       $unwind$?AtlLoadTypeLib@ATL@@YAJPEAUHINSTANCE__@@PEB_WPEAPEA_WPEAPEAUITypeLib@@@Z 0000000180034090     POSPrinter.obj
 0002:0000c0b0       $unwind$?AtlRegisterTypeLib@ATL@@YAJPEAUHINSTANCE__@@PEB_W@Z 00000001800340b0     POSPrinter.obj
 0002:0000c0cc       $unwind$?AtlUnRegisterTypeLib@ATL@@YAJPEAUHINSTANCE__@@PEB_W@Z 00000001800340cc     POSPrinter.obj
 0002:0000c0d4       $unwind$?GetTI@CComTypeInfoHolder@ATL@@QEAAJK@Z 00000001800340d4     POSPrinter.obj
 0002:0000c0d4       $unwind$?RecurseDeleteKey@CRegKey@ATL@@QEAAJPEB_W@Z 00000001800340d4     POSPrinter.obj
 0002:0000c0f4       $unwind$?UpdateRegistryFromResource@CAtlModule@ATL@@QEAAJIHPEAU_ATL_REGMAP_ENTRY@2@@Z 00000001800340f4     POSPrinter.obj
 0002:0000c0f4       $unwind$?UpdateRegistryFromResource@CAtlModule@ATL@@QEAAJPEB_WHPEAU_ATL_REGMAP_ENTRY@2@@Z 00000001800340f4     POSPrinter.obj
 0002:0000c114       $unwind$?Lookup@?$CSimpleMap@PEA_WPEA_WVCExpansionVectorEqualHelper@ATL@@@ATL@@QEBAPEA_WAEBQEA_W@Z 0000000180034114     POSPrinter.obj
 0002:0000c114       $unwind$_free_osfhnd       0000000180034114     libucrt:osfinfo.obj
 0002:0000c114       $unwind$__std_exception_copy 0000000180034114     libvcruntime:std_exception.obj
 0002:0000c128       $unwind$?Add@CExpansionVector@ATL@@QEAAHPEB_W0@Z 0000000180034128     POSPrinter.obj
 0002:0000c140       $unwind$?PreProcessBuffer@CRegParser@ATL@@QEAAJPEA_WPEAPEA_W@Z 0000000180034140     POSPrinter.obj
 0002:0000c164       $unwind$?RegisterBuffer@CRegParser@ATL@@QEAAJPEA_WH@Z 0000000180034164     POSPrinter.obj
 0002:0000c184       $unwind$?AddValue@CRegParser@ATL@@IEAAJAEAVCRegKey@2@PEB_WPEA_W@Z 0000000180034184     POSPrinter.obj
 0002:0000c1a4       $unwind$?RegisterSubkeys@CRegParser@ATL@@IEAAJPEA_WPEAUHKEY__@@HH@Z 00000001800341a4     POSPrinter.obj
 0002:0000c1c4       $unwind$?SkipAssignment@CRegParser@ATL@@IEAAJPEA_W@Z 00000001800341c4     POSPrinter.obj
 0002:0000c1e0       $unwind$?RegisterFromResource@CRegObject@ATL@@IEAAJPEB_W00H@Z 00000001800341e0     POSPrinter.obj
 0002:0000c200       $unwind$?Cleanup@CComTypeInfoHolder@ATL@@SAX_K@Z 0000000180034200     POSPrinter.obj
 0002:0000c200       $unwind$_free_base         0000000180034200     libucrt:free_base.obj
 0002:0000c200       $unwind$?destroy_fls@@YAXPEAX@Z 0000000180034200     libucrt:per_thread_data.obj
 0002:0000c200       $unwind$__acrt_locale_free_numeric 0000000180034200     libucrt:initnum.obj
 0002:0000c200       $unwind$__acrt_locale_free_lc_time_if_unreferenced 0000000180034200     libucrt:locale_refcounting.obj
 0002:0000c200       $unwind$AtlThunk_FreeData  0000000180034200     atls:atlthunk.obj
 0002:0000c208       $unwind$?GetIDsOfNames@CComTypeInfoHolder@ATL@@QEAAJAEBU_GUID@@PEAPEA_WIKPEAJ@Z 0000000180034208     POSPrinter.obj
 0002:0000c224       $unwind$?LoadNameCache@CComTypeInfoHolder@ATL@@QEAAJPEAUITypeInfo@@@Z 0000000180034224     POSPrinter.obj
 0002:0000c23c       $unwind$?WindowProc@?$CWindowImplBaseT@VCWindow@ATL@@V?$CWinTraits@$0FGAAAAAA@$0A@@2@@ATL@@SA_JPEAUHWND__@@I_K_J@Z 000000018003423c     POSPrinter.obj
 0002:0000c254       $unwind$?atlCreate@?$CWindowImplBaseT@VCWindow@ATL@@V?$CWinTraits@$0FGAAAAAA@$0A@@2@@ATL@@QEAAPEAUHWND__@@PEAU3@V_U_RECT@2@PEB_WKKV_U_MENUorID@2@GPEAX@Z 0000000180034254     POSPrinter.obj
 0002:0000c26c       $unwind$??$AtlModuleRegisterWndClassInfoT@VAtlModuleRegisterWndClassInfoParamW@ATL@@@ATL@@YAGPEAU_ATL_BASE_MODULE70@0@PEAU_ATL_WIN_MODULE70@0@PEAU_ATL_WNDCLASSINFOW@0@PEAP6A_JPEAUHWND__@@I_K_J@ZVAtlModuleRegisterWndClassInfoParamW@0@@Z 000000018003426c     POSPrinter.obj
 0002:0000c28c       $unwind$?GetZoomInfo@CComControlBase@ATL@@QEAAXAEAUATL_DRAWINFO@@@Z 000000018003428c     POSPrinter.obj
 0002:0000c28c       $unwind$?OnKillFocus@CComControlBase@ATL@@QEAA_JI_K_JAEAH@Z 000000018003428c     POSPrinter.obj
 0002:0000c28c       $unwind$?get_raw_ptd@__crt_cached_ptd_host@@QEAAPEAU__acrt_ptd@@XZ 000000018003428c     libucrt:invalid_parameter.obj
 0002:0000c298       $unwind$?SendOnDataChange@CComControlBase@ATL@@QEAAJK@Z 0000000180034298     POSPrinter.obj
 0002:0000c2a8       $unwind$?OnSetFocus@CComControlBase@ATL@@QEAA_JI_K_JAEAH@Z 00000001800342a8     POSPrinter.obj
 0002:0000c2bc       $unwind$?OnMouseActivate@CComControlBase@ATL@@QEAA_JI_K_JAEAH@Z 00000001800342bc     POSPrinter.obj
 0002:0000c2c4       $unwind$?GetAmbientLocaleID@CComControlBase@ATL@@QEAAJAEAK@Z 00000001800342c4     POSPrinter.obj
 0002:0000c2c4       $unwind$?GetAmbientUserMode@CComControlBase@ATL@@QEAAJAEAH@Z 00000001800342c4     POSPrinter.obj
 0002:0000c2d4       $unwind$?IQuickActivate_QuickActivate@CComControlBase@ATL@@QEAAJPEAUtagQACONTAINER@@PEAUtagQACONTROL@@@Z 00000001800342d4     POSPrinter.obj
 0002:0000c2ec       $unwind$?DoVerbProperties@CComControlBase@ATL@@QEAAJPEBUtagRECT@@PEAUHWND__@@@Z 00000001800342ec     POSPrinter.obj
 0002:0000c304       $unwind$?InPlaceActivate@CComControlBase@ATL@@QEAAJJPEBUtagRECT@@@Z 0000000180034304     POSPrinter.obj
 0002:0000c324       $unwind$?IOleObject_Close@CComControlBase@ATL@@QEAAJK@Z 0000000180034324     POSPrinter.obj
 0002:0000c324       $unwind$?get_raw_ptd_noexit@__crt_cached_ptd_host@@QEAAPEAU__acrt_ptd@@XZ 0000000180034324     libucrt:invalid_parameter.obj
 0002:0000c324       $unwind$?type_case_c_tchar@?$output_processor@_WV?$string_output_adapter@_W@__crt_stdio_output@@V?$format_validation_base@_WV?$string_output_adapter@_W@__crt_stdio_output@@@2@@__crt_stdio_output@@AEAA_N_W@Z 0000000180034324     libucrt:output.obj
 0002:0000c334       $unwind$?IOleInPlaceObject_UIDeactivate@CComControlBase@ATL@@QEAAJXZ 0000000180034334     POSPrinter.obj
 0002:0000c34c       $unwind$?IOleInPlaceObject_SetObjectRects@CComControlBase@ATL@@QEAAJPEBUtagRECT@@0@Z 000000018003434c     POSPrinter.obj
 0002:0000c360       $unwind$?IViewObject_Draw@CComControlBase@ATL@@QEAAJKJPEAXPEAUtagDVTARGETDEVICE@@PEAUHDC__@@2PEBU_RECTL@@3@Z 0000000180034360     POSPrinter.obj
 0002:0000c37c       $unwind$?IDataObject_GetData@CComControlBase@ATL@@QEAAJPEAUtagFORMATETC@@PEAUtagSTGMEDIUM@@@Z 000000018003437c     POSPrinter.obj
 0002:0000c39c       $unwind$?OnPaint@CComControlBase@ATL@@QEAA_JI_K_JAEAH@Z 000000018003439c     POSPrinter.obj
 0002:0000c3b8       $unwind$?OnDrawAdvanced@CComControlBase@ATL@@UEAAJAEAUATL_DRAWINFO@@@Z 00000001800343b8     POSPrinter.obj
 0002:0000c3d4       $unwind$?Invoke@?$IDispatchImpl@UIOPOSPOSPrinter@@$1?IID_IOPOSPOSPrinter@@3U_GUID@@B$1?LIBID_OposPOSPrinter_CCO@@3U3@B$00$0A@VCComTypeInfoHolder@ATL@@@ATL@@UEAAJJAEBU_GUID@@KGPEAUtagDISPPARAMS@@PEAUtagVARIANT@@PEAUtagEXCEPINFO@@PEAI@Z 00000001800343d4     POSPrinter.obj
 0002:0000c3d4       $unwind$?ReleaseDevice@COPOSPOSPrinter@@UEAAJPEAJ@Z 00000001800343d4     POSPrinterImpl.obj
 0002:0000c3d4       $unwind$_mbsdec_l          00000001800343d4     libucrt:mbsdec.obj
 0002:0000c3e0       $unwind$?atlCreate@?$CWindowImpl@VCOPOSPOSPrinter@@VCWindow@ATL@@V?$CWinTraits@$0FGAAAAAA@$0A@@3@@ATL@@QEAAPEAUHWND__@@PEAU3@V_U_RECT@2@PEB_WKKV_U_MENUorID@2@PEAX@Z 00000001800343e0     POSPrinter.obj
 0002:0000c3e0       $unwind$?fp_format_f@@YAHQEBNQEAD_K12HW4__acrt_rounding_mode@@AEAV__crt_cached_ptd_host@@@Z 00000001800343e0     libucrt:cvt.obj
 0002:0000c3e0       $unwind$__acrt_LCMapStringEx 00000001800343e0     libucrt:winapi_thunks.obj
 0002:0000c3f4       $unwind$?CreateControlWindow@?$CComControl@VCOPOSPOSPrinter@@V?$CWindowImpl@VCOPOSPOSPrinter@@VCWindow@ATL@@V?$CWinTraits@$0FGAAAAAA@$0A@@3@@ATL@@@ATL@@UEAAPEAUHWND__@@PEAU3@AEAUtagRECT@@@Z 00000001800343f4     POSPrinter.obj
 0002:0000c3f4       $unwind$?ClearOutput@COPOSPOSPrinter@@UEAAJPEAJ@Z 00000001800343f4     POSPrinterImpl.obj
 0002:0000c3f4       $unwind$?ClearPrintArea@COPOSPOSPrinter@@UEAAJPEAJ@Z 00000001800343f4     POSPrinterImpl.obj
 0002:0000c3f4       $unwind$?EndInsertion@COPOSPOSPrinter@@UEAAJPEAJ@Z 00000001800343f4     POSPrinterImpl.obj
 0002:0000c3f4       $unwind$?EndRemoval@COPOSPOSPrinter@@UEAAJPEAJ@Z 00000001800343f4     POSPrinterImpl.obj
 0002:0000c3f4       $unwind$_raise_exc         00000001800343f4     libucrt:fpexcept.obj
 0002:0000c3f4       $unwind$?__scrt_throw_std_bad_alloc@@YAXXZ 00000001800343f4     LIBCMT:throw_bad_alloc.obj
 0002:0000c3f4       $unwind$?__scrt_throw_std_bad_array_new_length@@YAXXZ 00000001800343f4     LIBCMT:throw_bad_alloc.obj
 0002:0000c3fc       $unwind$?ProcessWindowMessage@?$CComControl@VCOPOSPOSPrinter@@V?$CWindowImpl@VCOPOSPOSPrinter@@VCWindow@ATL@@V?$CWinTraits@$0FGAAAAAA@$0A@@3@@ATL@@@ATL@@UEAAHPEAUHWND__@@I_K_JAEA_JK@Z 00000001800343fc     POSPrinter.obj
 0002:0000c404       $unwind$?GetSizeMax@?$IPersistStreamInitImpl@VCOPOSPOSPrinter@@@ATL@@UEAAJPEAT_ULARGE_INTEGER@@@Z 0000000180034404     POSPrinter.obj
 0002:0000c41c       $unwind$?IPersistStreamInit_Load@?$IPersistStreamInitImpl@VCOPOSPOSPrinter@@@ATL@@QEAAJPEAUIStream@@PEBUATL_PROPMAP_ENTRY@2@@Z 000000018003441c     POSPrinter.obj
 0002:0000c438       $unwind$?IPersistStreamInit_Save@?$IPersistStreamInitImpl@VCOPOSPOSPrinter@@@ATL@@QEAAJPEAUIStream@@HPEBUATL_PROPMAP_ENTRY@2@@Z 0000000180034438     POSPrinter.obj
 0002:0000c454       $unwind$?DoVerbPrimary@?$IOleObjectImpl@VCOPOSPOSPrinter@@@ATL@@QEAAJPEBUtagRECT@@PEAUHWND__@@@Z 0000000180034454     POSPrinter.obj
 0002:0000c454       $unwind$?RotatePrint@COPOSPOSPrinter@@UEAAJJJPEAJ@Z 0000000180034454     POSPrinterImpl.obj
 0002:0000c454       $unwind$?TransactionPrint@COPOSPOSPrinter@@UEAAJJJPEAJ@Z 0000000180034454     POSPrinterImpl.obj
 0002:0000c46c       $unwind$?TranslateAcceleratorW@?$IOleInPlaceActiveObjectImpl@VCOPOSPOSPrinter@@@ATL@@UEAAJPEAUtagMSG@@@Z 000000018003446c     POSPrinter.obj
 0002:0000c478       $unwind$?Draw@?$IViewObjectExImpl@VCOPOSPOSPrinter@@@ATL@@UEAAJKJPEAXPEAUtagDVTARGETDEVICE@@PEAUHDC__@@2PEBU_RECTL@@3P6AH_K@Z4@Z 0000000180034478     POSPrinter.obj
 0002:0000c480       $unwind$?QueryHitRect@?$IViewObjectExImpl@VCOPOSPOSPrinter@@@ATL@@UEAAJKPEBUtagRECT@@0JPEAK@Z 0000000180034480     POSPrinter.obj
 0002:0000c490       $unwind$?OnWindowMessage@?$IOleInPlaceObjectWindowlessImpl@VCOPOSPOSPrinter@@@ATL@@UEAAJI_K_JPEA_J@Z 0000000180034490     POSPrinter.obj
 0002:0000c4a4       $unwind$?EnumConnectionPoints@?$IConnectionPointContainerImpl@VCOPOSPOSPrinter@@@ATL@@UEAAJPEAPEAUIEnumConnectionPoints@@@Z 00000001800344a4     POSPrinter.obj
 0002:0000c4cc       $unwind$?FindConnectionPoint@?$IConnectionPointContainerImpl@VCOPOSPOSPrinter@@@ATL@@UEAAJAEBU_GUID@@PEAPEAUIConnectionPoint@@@Z 00000001800344cc     POSPrinter.obj
 0002:0000c4e8       $unwind$?Load@?$IPersistStorageImpl@VCOPOSPOSPrinter@@@ATL@@UEAAJPEAUIStorage@@@Z 00000001800344e8     POSPrinter.obj
 0002:0000c4f8       $unwind$?Save@?$IPersistStorageImpl@VCOPOSPOSPrinter@@@ATL@@UEAAJPEAUIStorage@@H@Z 00000001800344f8     POSPrinter.obj
 0002:0000c50c       $unwind$?IPSI_GetIPersistStreamInit@?$IPersistStorageImpl@VCOPOSPOSPrinter@@@ATL@@AEAAPEAUIPersistStreamInit@@XZ 000000018003450c     POSPrinter.obj
 0002:0000c520       $unwind$?GetInterfaceSafetyOptions@?$IObjectSafetyImpl@VCOPOSPOSPrinter@@$02@ATL@@UEAAJAEBU_GUID@@PEAK1@Z 0000000180034520     POSPrinter.obj
 0002:0000c534       $unwind$?SetInterfaceSafetyOptions@?$IObjectSafetyImpl@VCOPOSPOSPrinter@@$02@ATL@@UEAAJAEBU_GUID@@KK@Z 0000000180034534     POSPrinter.obj
 0002:0000c548       $unwind$?Advise@?$IConnectionPointImpl@VCOPOSPOSPrinter@@$1?DIID__IOPOSPOSPrinterEvents@@3U_GUID@@BVCComDynamicUnkArray@ATL@@@ATL@@UEAAJPEAUIUnknown@@PEAK@Z 0000000180034548     POSPrinter.obj
 0002:0000c548       $unwind$?Advise@?$IConnectionPointImpl@VCOPOSPOSPrinter@@$1?IID_IPropertyNotifySink@@3U_GUID@@BVCComDynamicUnkArray@ATL@@@ATL@@UEAAJPEAUIUnknown@@PEAK@Z 0000000180034548     POSPrinter.obj
 0002:0000c55c       $unwind$?EnumConnections@?$IConnectionPointImpl@VCOPOSPOSPrinter@@$1?DIID__IOPOSPOSPrinterEvents@@3U_GUID@@BVCComDynamicUnkArray@ATL@@@ATL@@UEAAJPEAPEAUIEnumConnections@@@Z 000000018003455c     POSPrinter.obj
 0002:0000c55c       $unwind$?EnumConnections@?$IConnectionPointImpl@VCOPOSPOSPrinter@@$1?IID_IPropertyNotifySink@@3U_GUID@@BVCComDynamicUnkArray@ATL@@@ATL@@UEAAJPEAPEAUIEnumConnections@@@Z 000000018003455c     POSPrinter.obj
 0002:0000c574       $unwind$?Fire_DirectIOEvent@?$CProxy_IOPOSEvents@VCOPOSPOSPrinter@@@@QEAAXJPEAJPEAPEA_W@Z 0000000180034574     POSPrinter.obj
 0002:0000c594       $unwind$?Fire_ErrorEvent@?$CProxy_IOPOSEvents@VCOPOSPOSPrinter@@@@QEAAXJJJPEAJ@Z 0000000180034594     POSPrinter.obj
 0002:0000c5b4       $unwind$?Fire_OutputCompleteEvent@?$CProxy_IOPOSEvents@VCOPOSPOSPrinter@@@@QEAAXJ@Z 00000001800345b4     POSPrinter.obj
 0002:0000c5b4       $unwind$?Fire_StatusUpdateEvent@?$CProxy_IOPOSEvents@VCOPOSPOSPrinter@@@@QEAAXJ@Z 00000001800345b4     POSPrinter.obj
 0002:0000c5b4       $unwind$?fp_format_e@@YAHQEBNQEAD_K12H_NIW4__acrt_rounding_mode@@AEAV__crt_cached_ptd_host@@@Z 00000001800345b4     libucrt:cvt.obj
 0002:0000c5b4       $unwind$??$__InternalCxxFrameHandler@V__FrameHandler3@@@@YA?AW4_EXCEPTION_DISPOSITION@@PEAUEHExceptionRecord@@PEA_KPEAU_CONTEXT@@PEAU_xDISPATCHER_CONTEXT@@PEBU_s_FuncInfo@@H1E@Z 00000001800345b4     libvcruntime:frame.obj
 0002:0000c5cc       $unwind$?FireTheEvent@?$CProxy_IOPOSEvents@VCOPOSPOSPrinter@@@@IEAAXPEAVOposVariant@@IAEAJPEB_WJ@Z 00000001800345cc     POSPrinter.obj
 0002:0000c5dc       $unwind$?ProcessWindowMessage@COPOSPOSPrinter@@UEAAHPEAUHWND__@@I_K_JAEA_JK@Z 00000001800345dc     POSPrinter.obj
 0002:0000c5f4       $unwind$?SOError@COPOSPOSPrinter@@MEAAJJJJPEAJ@Z 00000001800345f4     POSPrinter.obj
 0002:0000c5f4       $unwind$??$common_lseek_nolock@_J@@YA_JH_JHAEAV__crt_cached_ptd_host@@@Z 00000001800345f4     libucrt:lseek.obj
 0002:0000c5f4       $unwind$_invalid_parameter_internal 00000001800345f4     libucrt:invalid_parameter.obj
 0002:0000c5f4       $unwind$??$type_case_integer@$07@?$output_processor@_WV?$string_output_adapter@_W@__crt_stdio_output@@V?$format_validation_base@_WV?$string_output_adapter@_W@__crt_stdio_output@@@2@@__crt_stdio_output@@AEAA_N_N@Z 00000001800345f4     libucrt:output.obj
 0002:0000c5f4       $unwind$??$type_case_integer@$09@?$output_processor@_WV?$string_output_adapter@_W@__crt_stdio_output@@V?$format_validation_base@_WV?$string_output_adapter@_W@__crt_stdio_output@@@2@@__crt_stdio_output@@AEAA_N_N@Z 00000001800345f4     libucrt:output.obj
 0002:0000c5f4       $unwind$??$type_case_integer@$0BA@@?$output_processor@_WV?$string_output_adapter@_W@__crt_stdio_output@@V?$format_validation_base@_WV?$string_output_adapter@_W@__crt_stdio_output@@@2@@__crt_stdio_output@@AEAA_N_N@Z 00000001800345f4     libucrt:output.obj
 0002:0000c608       $unwind$?Clone@?$CComEnumImpl@UIEnumConnectionPoints@@$1?_GUID_b196b285_bab4_101a_b69c_00aa00341d07@@3U__s_GUID@@BPEAUIConnectionPoint@@V?$_CopyInterface@UIConnectionPoint@@@ATL@@@ATL@@UEAAJPEAPEAUIEnumConnectionPoints@@@Z 0000000180034608     POSPrinter.obj
 0002:0000c608       $unwind$?Clone@?$CComEnumImpl@UIEnumConnections@@$1?_GUID_b196b287_bab4_101a_b69c_00aa00341d07@@3U__s_GUID@@BUtagCONNECTDATA@@V?$_Copy@UtagCONNECTDATA@@@ATL@@@ATL@@UEAAJPEAPEAUIEnumConnections@@@Z 0000000180034608     POSPrinter.obj
 0002:0000c620       $unwind$?Init@?$CComEnumImpl@UIEnumConnectionPoints@@$1?_GUID_b196b285_bab4_101a_b69c_00aa00341d07@@3U__s_GUID@@BPEAUIConnectionPoint@@V?$_CopyInterface@UIConnectionPoint@@@ATL@@@ATL@@QEAAJPEAPEAUIConnectionPoint@@0PEAUIUnknown@@W4CComEnumFlags@2@@Z 0000000180034620     POSPrinter.obj
 0002:0000c620       $unwind$?Init@?$CComEnumImpl@UIEnumConnections@@$1?_GUID_b196b287_bab4_101a_b69c_00aa00341d07@@3U__s_GUID@@BUtagCONNECTDATA@@V?$_Copy@UtagCONNECTDATA@@@ATL@@@ATL@@QEAAJPEAUtagCONNECTDATA@@0PEAUIUnknown@@W4CComEnumFlags@2@@Z 0000000180034620     POSPrinter.obj
 0002:0000c620       $unwind$?should_round_up@@YA_NQEBN_KFW4__acrt_rounding_mode@@@Z 0000000180034620     libucrt:cvt.obj
 0002:0000c620       $unwind$??$parse_command_line@D@@YAXPEADPEAPEAD0PEA_K2@Z 0000000180034620     libucrt:argv_parsing.obj
 0002:0000c63c       $unwind$?GetOposProp@COPOSPOSPrinter@@IEAAJJPEAJJ@Z 000000018003463c     POSPrinterImpl.obj
 0002:0000c63c       $unwind$?GetOposProp@COPOSPOSPrinter@@IEAAJJPEAPEA_WJ@Z 000000018003463c     POSPrinterImpl.obj
 0002:0000c654       $unwind$?SetOposProp@COPOSPOSPrinter@@IEAAJJJJ@Z 0000000180034654     POSPrinterImpl.obj
 0002:0000c674       $unwind$?SetOposProp@COPOSPOSPrinter@@IEAAJJPEA_WJ@Z 0000000180034674     POSPrinterImpl.obj
 0002:0000c690       $unwind$?DoInvoke@COPOSPOSPrinter@@IEAAJJPEAVOposVariant@@IHPEAJ_N@Z 0000000180034690     POSPrinterImpl.obj
 0002:0000c6a8       $unwind$?SetCOFreezeEvents@COPOSPOSPrinter@@IEAAXF@Z 00000001800346a8     POSPrinterImpl.obj
 0002:0000c6bc       $unwind$?OnDraw@COPOSPOSPrinter@@MEAAJAEAUATL_DRAWINFO@@@Z 00000001800346bc     POSPrinterImpl.obj
 0002:0000c6d4       $unwind$?EventInit@COPOSPOSPrinter@@IEAAJXZ 00000001800346d4     POSPrinterImpl.obj
 0002:0000c6e8       $unwind$?EventWindowProc@COPOSPOSPrinter@@IEAA_JI_K_J@Z 00000001800346e8     POSPrinterImpl.obj
 0002:0000c6e8       $unwind$?type_case_n@?$output_processor@_WV?$string_output_adapter@_W@__crt_stdio_output@@V?$format_validation_base@_WV?$string_output_adapter@_W@__crt_stdio_output@@@2@@__crt_stdio_output@@AEAA_NXZ 00000001800346e8     libucrt:output.obj
 0002:0000c6f4       $unwind$?get_ControlObjectDescription@COPOSPOSPrinter@@UEAAJPEAPEA_W@Z 00000001800346f4     POSPrinterImpl.obj
 0002:0000c6f4       $unwind$__dcrt_lowio_ensure_console_output_initialized 00000001800346f4     libucrt:initcon.obj
 0002:0000c6f4       $unwind$?__mbrtowc_utf8@__crt_mbstring@@YA_KPEA_WPEBD_KPEAU_Mbstatet@@AEAV__crt_cached_ptd_host@@@Z 00000001800346f4     libucrt:mbrtowc.obj
 0002:0000c6f4       $unwind$?getSystemCP@@YAHH@Z 00000001800346f4     libucrt:mbctype.obj
 0002:0000c6fc       $unwind$?BeginInsertion@COPOSPOSPrinter@@UEAAJJPEAJ@Z 00000001800346fc     POSPrinterImpl.obj
 0002:0000c6fc       $unwind$?BeginRemoval@COPOSPOSPrinter@@UEAAJJPEAJ@Z 00000001800346fc     POSPrinterImpl.obj
 0002:0000c6fc       $unwind$?ChangePrintSide@COPOSPOSPrinter@@UEAAJJPEAJ@Z 00000001800346fc     POSPrinterImpl.obj
 0002:0000c6fc       $unwind$?CheckHealth@COPOSPOSPrinter@@UEAAJJPEAJ@Z 00000001800346fc     POSPrinterImpl.obj
 0002:0000c6fc       $unwind$?CutPaper@COPOSPOSPrinter@@UEAAJJPEAJ@Z 00000001800346fc     POSPrinterImpl.obj
 0002:0000c6fc       $unwind$?MarkFeed@COPOSPOSPrinter@@UEAAJJPEAJ@Z 00000001800346fc     POSPrinterImpl.obj
 0002:0000c6fc       $unwind$?PageModePrint@COPOSPOSPrinter@@UEAAJJPEAJ@Z 00000001800346fc     POSPrinterImpl.obj
 0002:0000c6fc       $unwind$?ResetStatistics@COPOSPOSPrinter@@UEAAJPEA_WPEAJ@Z 00000001800346fc     POSPrinterImpl.obj
 0002:0000c6fc       $unwind$?RetrieveStatistics@COPOSPOSPrinter@@UEAAJPEAPEA_WPEAJ@Z 00000001800346fc     POSPrinterImpl.obj
 0002:0000c6fc       $unwind$?UpdateFirmware@COPOSPOSPrinter@@UEAAJPEA_WPEAJ@Z 00000001800346fc     POSPrinterImpl.obj
 0002:0000c6fc       $unwind$?UpdateStatistics@COPOSPOSPrinter@@UEAAJPEA_WPEAJ@Z 00000001800346fc     POSPrinterImpl.obj
 0002:0000c70c       $unwind$?ClaimDevice@COPOSPOSPrinter@@UEAAJJPEAJ@Z 000000018003470c     POSPrinterImpl.obj
 0002:0000c71c       $unwind$?Close@COPOSPOSPrinter@@UEAAJPEAJ@Z 000000018003471c     POSPrinterImpl.obj
 0002:0000c728       $unwind$?DirectIO@COPOSPOSPrinter@@UEAAJJPEAJPEAPEA_W0@Z 0000000180034728     POSPrinterImpl.obj
 0002:0000c728       $unwind$?PrintTwoNormal@COPOSPOSPrinter@@UEAAJJPEA_W0PEAJ@Z 0000000180034728     POSPrinterImpl.obj
 0002:0000c744       $unwind$?Open@COPOSPOSPrinter@@UEAAJPEA_WPEAJ@Z 0000000180034744     POSPrinterImpl.obj
 0002:0000c768       $unwind$?PrintBarCode@COPOSPOSPrinter@@UEAAJJPEA_WJJJJJPEAJ@Z 0000000180034768     POSPrinterImpl.obj
 0002:0000c788       $unwind$?PrintBitmap@COPOSPOSPrinter@@UEAAJJPEA_WJJPEAJ@Z 0000000180034788     POSPrinterImpl.obj
 0002:0000c7a4       $unwind$?CompareFirmwareVersion@COPOSPOSPrinter@@UEAAJPEA_WPEAJ1@Z 00000001800347a4     POSPrinterImpl.obj
 0002:0000c7a4       $unwind$?PrintImmediate@COPOSPOSPrinter@@UEAAJJPEA_WPEAJ@Z 00000001800347a4     POSPrinterImpl.obj
 0002:0000c7a4       $unwind$?PrintNormal@COPOSPOSPrinter@@UEAAJJPEA_WPEAJ@Z 00000001800347a4     POSPrinterImpl.obj
 0002:0000c7a4       $unwind$?SetLogo@COPOSPOSPrinter@@UEAAJJPEA_WPEAJ@Z 00000001800347a4     POSPrinterImpl.obj
 0002:0000c7a4       $unwind$?ValidateData@COPOSPOSPrinter@@UEAAJJPEA_WPEAJ@Z 00000001800347a4     POSPrinterImpl.obj
 0002:0000c7a4       $unwind$?initialize_inherited_file_handles_nolock@@YAXXZ 00000001800347a4     libucrt:ioinit.obj
 0002:0000c7c0       $unwind$?PrintMemoryBitmap@COPOSPOSPrinter@@UEAAJJPEA_WJJJPEAJ@Z 00000001800347c0     POSPrinterImpl.obj
 0002:0000c7c0       $unwind$?SetBitmap@COPOSPOSPrinter@@UEAAJJJPEA_WJJPEAJ@Z 00000001800347c0     POSPrinterImpl.obj
 0002:0000c7e0       $unwind$?DrawRuledLine@COPOSPOSPrinter@@UEAAJJPEA_WJJJJPEAJ@Z 00000001800347e0     POSPrinterImpl.obj
 0002:0000c800       $unwind$__scrt_is_nonwritable_in_current_image 0000000180034800     LIBCMT:utility.obj
 0002:0000c820       $unwind$__scrt_is_nonwritable_in_current_image$filt$0 0000000180034820     LIBCMT:utility.obj
 0002:0000c828       $unwind$__report_securityfailure 0000000180034828     LIBCMT:gs_report.obj
 0002:0000c830       $unwind$__report_gsfailure 0000000180034830     LIBCMT:gs_report.obj
 0002:0000c838       $unwind$capture_current_context 0000000180034838     LIBCMT:gs_report.obj
 0002:0000c844       $unwind$capture_previous_context 0000000180034844     LIBCMT:gs_report.obj
 0002:0000c850       $unwind$??2@YAPEAX_KAEBUnothrow_t@std@@@Z 0000000180034850     LIBCMT:new_scalar_nothrow.obj
 0002:0000c860       $cppxdata$??2@YAPEAX_KAEBUnothrow_t@std@@@Z 0000000180034860     LIBCMT:new_scalar_nothrow.obj
 0002:0000c86d       $stateUnwindMap$??2@YAPEAX_KAEBUnothrow_t@std@@@Z 000000018003486d     LIBCMT:new_scalar_nothrow.obj
 0002:0000c870       $tryMap$??2@YAPEAX_KAEBUnothrow_t@std@@@Z 0000000180034870     LIBCMT:new_scalar_nothrow.obj
 0002:0000c878       $handlerMap$??2@YAPEAX_KAEBUnothrow_t@std@@@Z 0000000180034878     LIBCMT:new_scalar_nothrow.obj
 0002:0000c880       $ip2state$??2@YAPEAX_KAEBUnothrow_t@std@@@Z 0000000180034880     LIBCMT:new_scalar_nothrow.obj
 0002:0000c884       $unwind$?catch$0@?0???2@YAPEAX_KAEBUnothrow_t@std@@@Z@4HA 0000000180034884     LIBCMT:new_scalar_nothrow.obj
 0002:0000c894       $cppxdata$?catch$0@?0???2@YAPEAX_KAEBUnothrow_t@std@@@Z@4HA 0000000180034894     LIBCMT:new_scalar_nothrow.obj
 0002:0000c89e       $stateUnwindMap$?catch$0@?0???2@YAPEAX_KAEBUnothrow_t@std@@@Z@4HA 000000018003489e     LIBCMT:new_scalar_nothrow.obj
 0002:0000c8a0       $ip2state$?catch$0@?0???2@YAPEAX_KAEBUnothrow_t@std@@@Z@4HA 00000001800348a0     LIBCMT:new_scalar_nothrow.obj
 0002:0000c8a4       $unwind$__GSHandlerCheckCommon 00000001800348a4     LIBCMT:gshandler.obj
 0002:0000c8b0       $xdatasym                  00000001800348b0     LIBCMT:chkstk.obj
 0002:0000c8b8       $xdatasym                  00000001800348b8     LIBCMT:amdsecgs.obj
 0002:0000c8bc       $unwind$?dllmain_crt_process_attach@@YAHQEAUHINSTANCE__@@QEAX@Z 00000001800348bc     LIBCMT:dll_dllmain.obj
 0002:0000c8f8       $unwind$?dllmain_crt_process_detach@@YAH_N@Z 00000001800348f8     LIBCMT:dll_dllmain.obj
 0002:0000c94c       $unwind$?dllmain_dispatch@@YAHQEAUHINSTANCE__@@KQEAX@Z 000000018003494c     LIBCMT:dll_dllmain.obj
 0002:0000c974       $unwind$_write_internal$fin$0 0000000180034974     libucrt:write.obj
 0002:0000c974       $unwind$?fin$0@?0??_fclose_internal@@YAHQEAU_iobuf@@AEAV__crt_cached_ptd_host@@@Z@4HA 0000000180034974     libucrt:fclose.obj
 0002:0000c974       $unwind$?filt$0@?0??dllmain_dispatch@@YAHQEAUHINSTANCE__@@KQEAX@Z@4HA 0000000180034974     LIBCMT:dll_dllmain.obj
 0002:0000c974       $unwind$?filt$0@?0??FrameUnwindToState@__FrameHandler4@@SAXPEA_KPEAU_xDISPATCHER_CONTEXT@@PEAUFuncInfo4@FH4@@H@Z@4HA 0000000180034974     libvcruntime:frame.obj
 0002:0000c974       $unwind$?fin$1@?0??FrameUnwindToState@__FrameHandler4@@SAXPEA_KPEAU_xDISPATCHER_CONTEXT@@PEAUFuncInfo4@FH4@@H@Z@4HA 0000000180034974     libvcruntime:frame.obj
 0002:0000c97c       $unwind$__isa_available_init 000000018003497c     LIBCMT:cpu_disp.obj
 0002:0000c98c       $unwind$__scrt_fastfail    000000018003498c     LIBCMT:utility_desktop.obj
 0002:0000c99c       $unwind$__security_init_cookie 000000018003499c     LIBCMT:gs_support.obj
 0002:0000c9a8       $xdatasym                  00000001800349a8     LIBCMT:guard_dispatch.obj
 0002:0000c9b0       $xdatasym                  00000001800349b0     LIBCMT:guard_xfg_dispatch.obj
 0002:0000c9b4       $unwind$AtlThunk_InitData  00000001800349b4     atls:atlthunk.obj
 0002:0000c9c8       $unwind$wcsstr             00000001800349c8     libvcruntime:wcsstr.obj
 0002:0000c9e0       $xdatasym                  00000001800349e0     libvcruntime:memcmp.obj
 0002:0000c9e8       $xdatasym                  00000001800349e8     libvcruntime:memcpy.obj
 0002:0000c9f8       $xdatasym                  00000001800349f8     libvcruntime:memset.obj
 0002:0000ca08       $unwind$__C_specific_handler 0000000180034a08     libvcruntime:riscchandler.obj
 0002:0000ca08       $unwind$?GetRangeOfTrysToCheck@__FrameHandler3@@SA?AU?$pair@Viterator@TryBlockMap@__FrameHandler3@@V123@@std@@AEAVTryBlockMap@1@HPEAU_xDISPATCHER_CONTEXT@@PEBU_s_FuncInfo@@H@Z 0000000180034a08     libvcruntime:risctrnsctrl.obj
 0002:0000ca24       $unwind$?StateFromIp@__FrameHandler4@@SAHPEAUFuncInfo4@FH4@@PEAU_xDISPATCHER_CONTEXT@@_K@Z 0000000180034a24     libvcruntime:ehstate.obj
 0002:0000ca24       $unwind$?DecompFuncInfo@FH4@@YA_JPEAEAEAUFuncInfo4@1@_KH_N@Z 0000000180034a24     libvcruntime:risctrnsctrl.obj
 0002:0000ca3c       $unwind$?GetEstablisherFrame@__FrameHandler3@@SAPEA_KPEA_KPEAU_xDISPATCHER_CONTEXT@@PEBU_s_FuncInfo@@0@Z 0000000180034a3c     libvcruntime:risctrnsctrl.obj
 0002:0000ca54       $unwind$?UnwindNestedFrames@__FrameHandler3@@SAXPEA_KPEAUEHExceptionRecord@@PEAU_CONTEXT@@0PEAXPEBU_s_FuncInfo@@HHPEBU_s_HandlerType@@PEAU_xDISPATCHER_CONTEXT@@E@Z 0000000180034a54     libvcruntime:risctrnsctrl.obj
 0002:0000ca54       $unwind$?UnwindNestedFrames@__FrameHandler4@@SAXPEA_KPEAUEHExceptionRecord@@PEAU_CONTEXT@@0PEAXPEAUFuncInfo4@FH4@@HHPEAUHandlerType4@5@PEAU_xDISPATCHER_CONTEXT@@E@Z 0000000180034a54     libvcruntime:risctrnsctrl.obj
 0002:0000ca68       $unwind$?GetRangeOfTrysToCheck@__FrameHandler4@@SA?AU?$pair@Viterator@TryBlockMap4@FH4@@V123@@std@@AEAVTryBlockMap4@FH4@@HPEAU_xDISPATCHER_CONTEXT@@PEAUFuncInfo4@5@H@Z 0000000180034a68     libvcruntime:risctrnsctrl.obj
 0002:0000ca84       $unwind$__CxxFrameHandler3 0000000180034a84     libvcruntime:risctrnsctrl.obj
 0002:0000ca98       $unwind$__CxxFrameHandler4 0000000180034a98     libvcruntime:risctrnsctrl.obj
 0002:0000caac       $unwind$??$_CallSETranslator@V__FrameHandler4@@@@YAHPEAUEHExceptionRecord@@PEA_KPEAU_CONTEXT@@PEAU_xDISPATCHER_CONTEXT@@PEAUFuncInfo4@FH4@@K1H@Z 0000000180034aac     libvcruntime:risctrnsctrl.obj
 0002:0000cacc       $unwind$?filt$0@?0???$_CallSETranslator@V__FrameHandler3@@@@YAHPEAUEHExceptionRecord@@PEA_KPEAU_CONTEXT@@PEAU_xDISPATCHER_CONTEXT@@PEBU_s_FuncInfo@@K1H@Z@4HA 0000000180034acc     libvcruntime:risctrnsctrl.obj
 0002:0000cacc       $unwind$?filt$0@?0???$_CallSETranslator@V__FrameHandler4@@@@YAHPEAUEHExceptionRecord@@PEA_KPEAU_CONTEXT@@PEAU_xDISPATCHER_CONTEXT@@PEAUFuncInfo4@FH4@@K1H@Z@4HA 0000000180034acc     libvcruntime:risctrnsctrl.obj
 0002:0000cad8       $unwind$??$_CallSETranslator@V__FrameHandler3@@@@YAHPEAUEHExceptionRecord@@PEA_KPEAU_CONTEXT@@PEAU_xDISPATCHER_CONTEXT@@PEBU_s_FuncInfo@@K1H@Z 0000000180034ad8     libvcruntime:risctrnsctrl.obj
 0002:0000caf8       $unwind$__DestructExceptionObject 0000000180034af8     libvcruntime:ehhelpers.obj
 0002:0000cb18       $unwind$__DestructExceptionObject$filt$0 0000000180034b18     libvcruntime:ehhelpers.obj
 0002:0000cb18       $unwind$?fin$1@?0??CxxCallCatchBlock@__FrameHandler3@@SAPEAXPEAU_EXCEPTION_RECORD@@@Z@4HA 0000000180034b18     libvcruntime:frame.obj
 0002:0000cb18       $unwind$?fin$1@?0??CxxCallCatchBlock@__FrameHandler4@@SAPEAXPEAU_EXCEPTION_RECORD@@@Z@4HA 0000000180034b18     libvcruntime:frame.obj
 0002:0000cb24       $unwind$_CxxThrowException 0000000180034b24     libvcruntime:throw.obj
 0002:0000cb38       $xdatasym                  0000000180034b38     libvcruntime:notify.obj
 0002:0000cb44       $unwind$?getStartStop@UWMap4@FH4@@QEAAXHHAEAViterator@12@0@Z 0000000180034b44     libvcruntime:frame.obj
 0002:0000cb5c       $unwind$?FrameUnwindToState@__FrameHandler3@@SAXPEA_KPEAU_xDISPATCHER_CONTEXT@@PEBU_s_FuncInfo@@H@Z 0000000180034b5c     libvcruntime:frame.obj
 0002:0000cba8       $unwind$?CxxCallCatchBlock@__FrameHandler3@@SAPEAXPEAU_EXCEPTION_RECORD@@@Z 0000000180034ba8     libvcruntime:frame.obj
 0002:0000cbe4       $unwind$?FrameUnwindToState@__FrameHandler4@@SAXPEA_KPEAU_xDISPATCHER_CONTEXT@@PEAUFuncInfo4@FH4@@H@Z 0000000180034be4     libvcruntime:frame.obj
 0002:0000cc2c       $unwind$?CxxCallCatchBlock@__FrameHandler4@@SAPEAXPEAU_EXCEPTION_RECORD@@@Z 0000000180034c2c     libvcruntime:frame.obj
 0002:0000cc88       $unwind$?IsInExceptionSpec@@YAEPEAUEHExceptionRecord@@PEBU_s_ESTypeList@@@Z 0000000180034c88     libvcruntime:frame.obj
 0002:0000cca4       $unwind$??$__InternalCxxFrameHandler@V__FrameHandler4@@@@YA?AW4_EXCEPTION_DISPOSITION@@PEAUEHExceptionRecord@@PEA_KPEAU_CONTEXT@@PEAU_xDISPATCHER_CONTEXT@@PEAUFuncInfo4@FH4@@H1E@Z 0000000180034ca4     libvcruntime:frame.obj
 0002:0000ccbc       $unwind$??$BuildCatchObjectHelperInternal@V__FrameHandler3@@@@YAHPEAUEHExceptionRecord@@PEAXPEBU_s_HandlerType@@PEBU_s_CatchableType@@@Z 0000000180034cbc     libvcruntime:frame.obj
 0002:0000ccfc       $unwind$??$BuildCatchObjectHelperInternal@V__FrameHandler4@@@@YAHPEAUEHExceptionRecord@@PEAXPEAUHandlerType4@FH4@@PEBU_s_CatchableType@@@Z 0000000180034cfc     libvcruntime:frame.obj
 0002:0000cd3c       $unwind$??$BuildCatchObjectInternal@V__FrameHandler3@@@@YAXPEAUEHExceptionRecord@@PEAXPEBU_s_HandlerType@@PEBU_s_CatchableType@@@Z 0000000180034d3c     libvcruntime:frame.obj
 0002:0000cd68       $unwind$??$BuildCatchObjectInternal@V__FrameHandler4@@@@YAXPEAUEHExceptionRecord@@PEAXPEAUHandlerType4@FH4@@PEBU_s_CatchableType@@@Z 0000000180034d68     libvcruntime:frame.obj
 0002:0000cd94       $unwind$??$FindHandler@V__FrameHandler3@@@@YAXPEAUEHExceptionRecord@@PEA_KPEAU_CONTEXT@@PEAU_xDISPATCHER_CONTEXT@@PEBU_s_FuncInfo@@EH1@Z 0000000180034d94     libvcruntime:frame.obj
 0002:0000cdb4       $unwind$??$FindHandler@V__FrameHandler4@@@@YAXPEAUEHExceptionRecord@@PEA_KPEAU_CONTEXT@@PEAU_xDISPATCHER_CONTEXT@@PEAUFuncInfo4@FH4@@EH1@Z 0000000180034db4     libvcruntime:frame.obj
 0002:0000cdd4       $unwind$??$CatchIt@V__FrameHandler3@@@@YAXPEAUEHExceptionRecord@@PEA_KPEAU_CONTEXT@@PEAU_xDISPATCHER_CONTEXT@@PEBU_s_FuncInfo@@PEBU_s_HandlerType@@PEBU_s_CatchableType@@PEBU_s_TryBlockMapEntry@@H1EE@Z 0000000180034dd4     libvcruntime:frame.obj
 0002:0000cdd4       $unwind$??$CatchIt@V__FrameHandler4@@@@YAXPEAUEHExceptionRecord@@PEA_KPEAU_CONTEXT@@PEAU_xDISPATCHER_CONTEXT@@PEAUFuncInfo4@FH4@@PEAUHandlerType4@4@PEBU_s_CatchableType@@PEAUTryBlockMapEntry4@4@H1EE@Z 0000000180034dd4     libvcruntime:frame.obj
 0002:0000cdec       $unwind$??$FindHandlerForForeignException@V__FrameHandler3@@@@YAXPEAUEHExceptionRecord@@PEA_KPEAU_CONTEXT@@PEAU_xDISPATCHER_CONTEXT@@PEBU_s_FuncInfo@@HH1@Z 0000000180034dec     libvcruntime:frame.obj
 0002:0000ce08       $unwind$??$FindHandlerForForeignException@V__FrameHandler4@@@@YAXPEAUEHExceptionRecord@@PEA_KPEAU_CONTEXT@@PEAU_xDISPATCHER_CONTEXT@@PEAUFuncInfo4@FH4@@HH1@Z 0000000180034e08     libvcruntime:frame.obj
 0002:0000ce28       $unwind$?try_get_function@@YAPEAXW4function_id@?A0x391cf84c@@QEBDQEBW4module_id@2@2@Z 0000000180034e28     libucrt:winapi_thunks.obj
 0002:0000ce28       $unwind$?try_get_function@@YAPEAXW4function_id@?A0xbc0cc709@@QEBDQEBW4module_id@2@2@Z 0000000180034e28     libvcruntime:winapi_downlevel.obj
 0002:0000ce48       $xdatasym                  0000000180034e48     libvcruntime:handlers.obj
 0002:0000ce68       $unwind$__acrt_call_reportfault 0000000180034e68     libucrt:invalid_parameter.obj
 0002:0000ce88       $unwind$_invalid_parameter 0000000180034e88     libucrt:invalid_parameter.obj
 0002:0000ce94       $unwind$_resetstkoflw      0000000180034e94     libucrt:resetstk.obj
 0002:0000ceb8       $unwind$__stdio_common_vswprintf_s 0000000180034eb8     libucrt:output.obj
 0002:0000cecc       $unwind$?write_string@?$string_output_adapter@_W@__crt_stdio_output@@QEBAXQEB_WHQEAHAEAV__crt_cached_ptd_host@@@Z 0000000180034ecc     libucrt:output.obj
 0002:0000cee4       $unwind$??$common_vsprintf@Vformat_validation_base@__crt_stdio_output@@_W@@YAH_KQEA_W0QEB_WAEAV__crt_cached_ptd_host@@QEAD@Z 0000000180034ee4     libucrt:output.obj
 0002:0000cf04       $unwind$?parse_int_from_format_string@?$output_processor@_WV?$string_output_adapter@_W@__crt_stdio_output@@V?$format_validation_base@_WV?$string_output_adapter@_W@__crt_stdio_output@@@2@@__crt_stdio_output@@AEAA_NQEAH@Z 0000000180034f04     libucrt:output.obj
 0002:0000cf18       $unwind$?state_case_type@?$output_processor@_WV?$string_output_adapter@_W@__crt_stdio_output@@V?$format_validation_base@_WV?$string_output_adapter@_W@__crt_stdio_output@@@2@@__crt_stdio_output@@AEAA_NXZ 0000000180034f18     libucrt:output.obj
 0002:0000cf3c       $unwind$?type_case_a@?$output_processor@_WV?$string_output_adapter@_W@__crt_stdio_output@@V?$format_validation_base@_WV?$string_output_adapter@_W@__crt_stdio_output@@@2@@__crt_stdio_output@@AEAA_NXZ 0000000180034f3c     libucrt:output.obj
 0002:0000cf50       $unwind$??$parse_integer@KV?$c_string_character_source@_W@__crt_strtox@@$0A@@__crt_strtox@@YAKAEAV__crt_cached_ptd_host@@V?$c_string_character_source@_W@0@H_N@Z 0000000180034f50     libucrt:output.obj
 0002:0000cf6c       $unwind$?try_cor_exit_process@@YAXI@Z 0000000180034f6c     libucrt:exit.obj
 0002:0000cf80       $ip2state$?try_cor_exit_process@@YAXI@Z 0000000180034f80     libucrt:exit.obj
 0002:0000cf88       $unwind$?common_exit@@YAXHW4_crt_exit_cleanup_mode@@W4_crt_exit_return_mode@@@Z 0000000180034f88     libucrt:exit.obj
 0002:0000cf9c       $stateUnwindMap$__dcrt_uninitialize_environments_nolock 0000000180034f9c     libucrt:environment_initialization.obj
 0002:0000cf9c       $stateUnwindMap$?common_exit@@YAXHW4_crt_exit_cleanup_mode@@W4_crt_exit_return_mode@@@Z 0000000180034f9c     libucrt:exit.obj
 0002:0000cf9c       $stateUnwindMap$_execute_onexit_table 0000000180034f9c     libucrt:onexit.obj
 0002:0000cfa8       $ip2state$?common_exit@@YAXHW4_crt_exit_cleanup_mode@@W4_crt_exit_return_mode@@@Z 0000000180034fa8     libucrt:exit.obj
 0002:0000cfb0       $unwind$??R<lambda_6e4b09c48022b2350581041d5f6b0c4c>@@QEBA@XZ 0000000180034fb0     libucrt:exit.obj
 0002:0000cfd0       $unwind$??$?RV<lambda_d80eeec6fff315bfe5c115232f3240e3>@@AEAV<lambda_6e4b09c48022b2350581041d5f6b0c4c>@@V<lambda_2358e3775559c9db80273638284d5e45>@@@?$__crt_seh_guarded_call@X@@QEAAX$$QEAV<lambda_d80eeec6fff315bfe5c115232f3240e3>@@AEAV<lambda_6e4b09c48022b2350581041d5f6b0c4c>@@$$QEAV<lambda_2358e3775559c9db80273638284d5e45>@@@Z 0000000180034fd0     libucrt:exit.obj
 0002:0000cff4       $unwind$__dcrt_uninitialize_environments_nolock 0000000180034ff4     libucrt:environment_initialization.obj
 0002:0000d004       $unwind$??$free_environment@D@@YAXQEAPEAD@Z 0000000180035004     libucrt:environment_initialization.obj
 0002:0000d004       $unwind$??$free_environment@_W@@YAXQEAPEA_W@Z 0000000180035004     libucrt:environment_initialization.obj
 0002:0000d004       $unwind$_initterm          0000000180035004     libucrt:initterm.obj
 0002:0000d010       $unwind$_register_onexit_function 0000000180035010     libucrt:onexit.obj
 0002:0000d018       $unwind$_execute_onexit_table 0000000180035018     libucrt:onexit.obj
 0002:0000d028       $ip2state$_execute_onexit_table 0000000180035028     libucrt:onexit.obj
 0002:0000d030       $unwind$??R<lambda_22ebabd17bc4fa466a2aca6d8deb888d>@@QEBAHXZ 0000000180035030     libucrt:onexit.obj
 0002:0000d048       $unwind$??$?RV<lambda_638799b9deba96c50f710eeac98168cd>@@AEAV<lambda_22ebabd17bc4fa466a2aca6d8deb888d>@@V<lambda_a6f7d7db0129f75315ebf26d50c089f1>@@@?$__crt_seh_guarded_call@H@@QEAAH$$QEAV<lambda_638799b9deba96c50f710eeac98168cd>@@AEAV<lambda_22ebabd17bc4fa466a2aca6d8deb888d>@@$$QEAV<lambda_a6f7d7db0129f75315ebf26d50c089f1>@@@Z 0000000180035048     libucrt:onexit.obj
 0002:0000d06c       $unwind$??$?RV<lambda_7777bce6b2f8c936911f934f8298dc43>@@AEAV<lambda_f03950bc5685219e0bcd2087efbe011e>@@V<lambda_3883c3dff614d5e0c5f61bb1ac94921c>@@@?$__crt_seh_guarded_call@H@@QEAAH$$QEAV<lambda_7777bce6b2f8c936911f934f8298dc43>@@AEAV<lambda_f03950bc5685219e0bcd2087efbe011e>@@$$QEAV<lambda_3883c3dff614d5e0c5f61bb1ac94921c>@@@Z 000000018003506c     libucrt:onexit.obj
 0002:0000d090       $unwind$_query_new_handler 0000000180035090     libucrt:new_handler.obj
 0002:0000d0b0       $unwind$terminate          00000001800350b0     libucrt:terminate.obj
 0002:0000d0d0       $xdatasym                  00000001800350d0     libucrt:strncmp.obj
 0002:0000d0d4       $unwind$?construct_ptd_array@@YAXQEAU__acrt_ptd@@@Z 00000001800350d4     libucrt:per_thread_data.obj
 0002:0000d0dc       $unwind$?destroy_ptd_array@@YAXQEAU__acrt_ptd@@@Z 00000001800350dc     libucrt:per_thread_data.obj
 0002:0000d0e4       $unwind$??$?RV<lambda_0ae27a3a962d80f24befdcbee591983d>@@AEAV<lambda_8d0ee55de4b1038c4002e0adecdf1839>@@V<lambda_dc504788e8f1664fe9b84e20bfb512f2>@@@?$__crt_seh_guarded_call@X@@QEAAX$$QEAV<lambda_0ae27a3a962d80f24befdcbee591983d>@@AEAV<lambda_8d0ee55de4b1038c4002e0adecdf1839>@@$$QEAV<lambda_dc504788e8f1664fe9b84e20bfb512f2>@@@Z 00000001800350e4     libucrt:per_thread_data.obj
 0002:0000d108       $unwind$??$?RV<lambda_aa87e3671a710a21b5dc78c0bdf72e11>@@AEAV<lambda_92619d2358a28f41a33ba319515a20b9>@@V<lambda_6992ecaafeb10aed2b74cb1fae11a551>@@@?$__crt_seh_guarded_call@X@@QEAAX$$QEAV<lambda_aa87e3671a710a21b5dc78c0bdf72e11>@@AEAV<lambda_92619d2358a28f41a33ba319515a20b9>@@$$QEAV<lambda_6992ecaafeb10aed2b74cb1fae11a551>@@@Z 0000000180035108     libucrt:per_thread_data.obj
 0002:0000d12c       $unwind$??$?RV<lambda_f2e299630e499de9f9a165e60fcd3db5>@@AEAV<lambda_2ae9d31cdba2644fcbeaf08da7c24588>@@V<lambda_40d01ff24d0e7b3814fdbdcee8eab3c7>@@@?$__crt_seh_guarded_call@X@@QEAAX$$QEAV<lambda_f2e299630e499de9f9a165e60fcd3db5>@@AEAV<lambda_2ae9d31cdba2644fcbeaf08da7c24588>@@$$QEAV<lambda_40d01ff24d0e7b3814fdbdcee8eab3c7>@@@Z 000000018003512c     libucrt:per_thread_data.obj
 0002:0000d150       $unwind$??$?RV<lambda_2d41944a1d46af3157314b8a01080d33>@@AEAV<lambda_8f455de75cd7d7f24b4096f044d8b9e6>@@V<lambda_aa500f224e6afead328df44964fe2772>@@@?$__crt_seh_guarded_call@X@@QEAAX$$QEAV<lambda_2d41944a1d46af3157314b8a01080d33>@@AEAV<lambda_8f455de75cd7d7f24b4096f044d8b9e6>@@$$QEAV<lambda_aa500f224e6afead328df44964fe2772>@@@Z 0000000180035150     libucrt:per_thread_data.obj
 0002:0000d174       $unwind$__acrt_uninitialize_locale 0000000180035174     libucrt:wsetlocale.obj
 0002:0000d174       $unwind$__acrt_get_sigabrt_handler 0000000180035174     libucrt:signal.obj
 0002:0000d17c       $unwind$??$?RV<lambda_410d79af7f07d98d83a3f525b3859a53>@@AEAV<lambda_3e16ef9562a7dcce91392c22ab16ea36>@@V<lambda_38119f0e861e05405d8a144b9b982f0a>@@@?$__crt_seh_guarded_call@X@@QEAAX$$QEAV<lambda_410d79af7f07d98d83a3f525b3859a53>@@AEAV<lambda_3e16ef9562a7dcce91392c22ab16ea36>@@$$QEAV<lambda_38119f0e861e05405d8a144b9b982f0a>@@@Z 000000018003517c     libucrt:wsetlocale.obj
 0002:0000d1a4       $unwind$__acrt_initialize_winapi_thunks 00000001800351a4     libucrt:winapi_thunks.obj
 0002:0000d1a4       $unwind$__acrt_fenv_get_control 00000001800351a4     libucrt:_fenvutils.obj
 0002:0000d1ac       $unwind$__acrt_fp_format   00000001800351ac     libucrt:cvt.obj
 0002:0000d1bc       $unwind$?fp_format_e_internal@@YAHQEAD_KH_NIQEAU_strflt@@2AEAV__crt_cached_ptd_host@@@Z 00000001800351bc     libucrt:cvt.obj
 0002:0000d1d8       $unwind$?fp_format_a@@YAHQEBNPEAD_KQEAD2H_NIW4__acrt_rounding_mode@@AEAV__crt_cached_ptd_host@@@Z 00000001800351d8     libucrt:cvt.obj
 0002:0000d1f4       $unwind$?fp_format_g@@YAHQEBNQEAD_K12H_NIW4__acrt_rounding_mode@@AEAV__crt_cached_ptd_host@@@Z 00000001800351f4     libucrt:cvt.obj
 0002:0000d20c       $unwind$__acrt_initialize_lowio 000000018003520c     libucrt:ioinit.obj
 0002:0000d22c       $unwind$??$common_expand_argv_wildcards@D@@YAHQEAPEADQEAPEAPEAD@Z 000000018003522c     libucrt:argv_wildcards.obj
 0002:0000d244       $unwind$__dcrt_get_narrow_environment_from_os 0000000180035244     libucrt:get_environment_from_os.obj
 0002:0000d244       $unwind$??$__acrt_convert_wcs_mbs_cp@_WDV<lambda_d8593a27d1aa8c02be35c86a17d324c4>@@U__crt_win32_buffer_internal_dynamic_resizing@@@@YAHQEB_WAEAV?$__crt_win32_buffer@DU__crt_win32_buffer_internal_dynamic_resizing@@@@AEBV<lambda_d8593a27d1aa8c02be35c86a17d324c4>@@I@Z 0000000180035244     libucrt:argv_wildcards.obj
 0002:0000d25c       $unwind$??$copy_and_add_argument_to_buffer@D@@YAHQEBD0_KAEAV?$argument_list@D@?A0x5f5c8891@@@Z 000000018003525c     libucrt:argv_wildcards.obj
 0002:0000d278       $unwind$??$expand_argument_wildcards@D@@YAHQEAD0AEAV?$argument_list@D@?A0x5f5c8891@@@Z 0000000180035278     libucrt:argv_wildcards.obj
 0002:0000d298       $unwind$__acrt_GetModuleFileNameA 0000000180035298     libucrt:getmodulefilenamea.obj
 0002:0000d2b4       $unwind$_setmbcp_nolock    00000001800352b4     libucrt:mbctype.obj
 0002:0000d2d4       $unwind$?update_thread_multibyte_data_internal@@YAPEAU__crt_multibyte_data@@QEAU__acrt_ptd@@QEAPEAU1@@Z 00000001800352d4     libucrt:mbctype.obj
 0002:0000d2fc       $unwind$?setmbcp_internal@@YAHH_NQEAU__acrt_ptd@@QEAPEAU__crt_multibyte_data@@@Z 00000001800352fc     libucrt:mbctype.obj
 0002:0000d314       $unwind$?setSBUpLow@@YAXPEAU__crt_multibyte_data@@@Z 0000000180035314     libucrt:mbctype.obj
 0002:0000d330       $unwind$??$?RV<lambda_efdfa57d1f175319df784efa44bb7b81>@@AEAV<lambda_5f0a4c1567f8adc6734073e5d1e1b35c>@@V<lambda_2e8a7d3640ea6ccb4c2413664c2db6fd>@@@?$__crt_seh_guarded_call@X@@QEAAX$$QEAV<lambda_efdfa57d1f175319df784efa44bb7b81>@@AEAV<lambda_5f0a4c1567f8adc6734073e5d1e1b35c>@@$$QEAV<lambda_2e8a7d3640ea6ccb4c2413664c2db6fd>@@@Z 0000000180035330     libucrt:mbctype.obj
 0002:0000d354       $unwind$__acrt_WideCharToMultiByte 0000000180035354     libucrt:widechartomultibyte.obj
 0002:0000d360       $unwind$raise              0000000180035360     libucrt:signal.obj
 0002:0000d39c       $unwind$??$?RV<lambda_450d765d439847d4c735a33c368b5fc0>@@AEAV<lambda_44731a7d0e6d81c3e6aa82d741081786>@@V<lambda_601a2a7da3b7a96e9554ac7215c4b07c>@@@?$__crt_seh_guarded_call@P6AXH@Z@@QEAAP6AXH@Z$$QEAV<lambda_450d765d439847d4c735a33c368b5fc0>@@AEAV<lambda_44731a7d0e6d81c3e6aa82d741081786>@@$$QEAV<lambda_601a2a7da3b7a96e9554ac7215c4b07c>@@@Z 000000018003539c     libucrt:signal.obj
 0002:0000d3c0       $unwind$fclose             00000001800353c0     libucrt:fclose.obj
 0002:0000d3c0       $unwind$_fflush_nolock     00000001800353c0     libucrt:fflush.obj
 0002:0000d3d0       $unwind$?common_flush_all@@YAH_N@Z 00000001800353d0     libucrt:fflush.obj
 0002:0000d3d8       $unwind$??$?RV<lambda_842d9ff0dc9ef11c61343bbaebe7f885>@@AEAV<lambda_c5860995281e5c4ce005b3de8f5874ee>@@V<lambda_d90129c13df834fdcbf8d2b88dafcf2d>@@@?$__crt_seh_guarded_call@X@@QEAAX$$QEAV<lambda_842d9ff0dc9ef11c61343bbaebe7f885>@@AEAV<lambda_c5860995281e5c4ce005b3de8f5874ee>@@$$QEAV<lambda_d90129c13df834fdcbf8d2b88dafcf2d>@@@Z 00000001800353d8     libucrt:fflush.obj
 0002:0000d3fc       $unwind$??$?RV<lambda_886d6c58226a84441f68b9f2b8217b83>@@AEAV<lambda_ab61a845afdef5b7c387490eaf3616ee>@@V<lambda_f7f22ab5edc0698d5f6905b0d3f44752>@@@?$__crt_seh_guarded_call@X@@QEAAX$$QEAV<lambda_886d6c58226a84441f68b9f2b8217b83>@@AEAV<lambda_ab61a845afdef5b7c387490eaf3616ee>@@$$QEAV<lambda_f7f22ab5edc0698d5f6905b0d3f44752>@@@Z 00000001800353fc     libucrt:fflush.obj
 0002:0000d424       $unwind$__acrt_update_thread_locale_data 0000000180035424     libucrt:locale_refcounting.obj
 0002:0000d448       $unwind$__acrt_locale_free_monetary 0000000180035448     libucrt:initmon.obj
 0002:0000d450       $unwind$__acrt_locale_free_time 0000000180035450     libucrt:inittime.obj
 0002:0000d460       $unwind$__acrt_GetStringTypeA 0000000180035460     libucrt:getstringtypea.obj
 0002:0000d488       $unwind$__acrt_fp_strflt_to_string 0000000180035488     libucrt:_fptostr.obj
 0002:0000d4a4       $unwind$__acrt_fltout      00000001800354a4     libucrt:cfout.obj
 0002:0000d4c4       $unwind$?divide@__crt_strtox@@YA_KAEAUbig_integer@1@AEBU21@@Z 00000001800354c4     libucrt:cfout.obj
 0002:0000d4dc       $chain$0$?divide@__crt_strtox@@YA_KAEAUbig_integer@1@AEBU21@@Z 00000001800354dc     libucrt:cfout.obj
 0002:0000d4f0       $chain$1$?divide@__crt_strtox@@YA_KAEAUbig_integer@1@AEBU21@@Z 00000001800354f0     libucrt:cfout.obj
 0002:0000d500       $unwind$?__mbsrtowcs_utf8@__crt_mbstring@@YA_KPEA_WPEAPEBD_KPEAU_Mbstatet@@AEAV__crt_cached_ptd_host@@@Z 0000000180035500     libucrt:mbrtowc.obj
 0002:0000d518       $unwind$_fcloseall         0000000180035518     libucrt:closeall.obj
 0002:0000d53c       $unwind$__acrt_lowio_destroy_handle_array 000000018003553c     libucrt:osfinfo.obj
 0002:0000d54c       $unwind$__acrt_lowio_ensure_fh_exists 000000018003554c     libucrt:osfinfo.obj
 0002:0000d578       $unwind$qsort              0000000180035578     libucrt:qsort.obj
 0002:0000d590       $chain$4$qsort             0000000180035590     libucrt:qsort.obj
 0002:0000d5b4       $chain$5$qsort             00000001800355b4     libucrt:qsort.obj
 0002:0000d5c4       $unwind$strpbrk            00000001800355c4     libucrt:strpbrk.obj
 0002:0000d5d4       $unwind$fallbackMethod     00000001800355d4     libucrt:strpbrk.obj
 0002:0000d5e4       $unwind$__acrt_LCMapStringA 00000001800355e4     libucrt:lcmapstringa.obj
 0002:0000d5f4       $unwind$?__acrt_LCMapStringA_stat@@YAHPEAU__crt_locale_pointers@@PEB_WKPEBDHPEADHHH@Z 00000001800355f4     libucrt:lcmapstringa.obj
 0002:0000d61c       $unwind$_commit            000000018003561c     libucrt:commit.obj
 0002:0000d624       $unwind$??$?RV<lambda_a37b2b86f63e897a80ea819b0eb08c01>@@AEAV<lambda_38ce7e780aa69e748d6df282ebc68efe>@@V<lambda_99fb1378e971ab6e7edea83e3a7a83a2>@@@?$__crt_seh_guarded_call@H@@QEAAH$$QEAV<lambda_a37b2b86f63e897a80ea819b0eb08c01>@@AEAV<lambda_38ce7e780aa69e748d6df282ebc68efe>@@$$QEAV<lambda_99fb1378e971ab6e7edea83e3a7a83a2>@@@Z 0000000180035624     libucrt:commit.obj
 0002:0000d648       $unwind$_write_nolock      0000000180035648     libucrt:write.obj
 0002:0000d660       $unwind$_write_internal    0000000180035660     libucrt:write.obj
 0002:0000d690       $unwind$?write_double_translated_ansi_nolock@@YA?AUwrite_result@?A0x17268360@@HQEBDIAEAV__crt_cached_ptd_host@@@Z 0000000180035690     libucrt:write.obj
 0002:0000d6b8       $ip2state$?write_double_translated_ansi_nolock@@YA?AUwrite_result@?A0x17268360@@HQEBDIAEAV__crt_cached_ptd_host@@@Z 00000001800356b8     libucrt:write.obj
 0002:0000d6c0       $unwind$?write_text_ansi_nolock@@YA?AUwrite_result@?A0x17268360@@HQEBDI@Z 00000001800356c0     libucrt:write.obj
 0002:0000d6c0       $unwind$?write_text_utf16le_nolock@@YA?AUwrite_result@?A0x17268360@@HQEBDI@Z 00000001800356c0     libucrt:write.obj
 0002:0000d6e0       $unwind$?write_text_utf8_nolock@@YA?AUwrite_result@?A0x17268360@@HQEBDI@Z 00000001800356e0     libucrt:write.obj
 0002:0000d708       $xdatasym                  0000000180035708     libucrt:log10.obj
 0002:0000d714       $unwind$__acrt_fenv_set_control 0000000180035714     libucrt:_fenvutils.obj
 0002:0000d724       $unwind$?__mbrtoc32_utf8@__crt_mbstring@@YA_KPEA_UPEBD_KPEAU_Mbstatet@@AEAV__crt_cached_ptd_host@@@Z 0000000180035724     libucrt:mbrtoc32.obj
 0002:0000d740       $unwind$?_fclose_nolock_internal@@YAHQEAU_iobuf@@AEAV__crt_cached_ptd_host@@@Z 0000000180035740     libucrt:fclose.obj
 0002:0000d750       $unwind$?_fclose_internal@@YAHQEAU_iobuf@@AEAV__crt_cached_ptd_host@@@Z 0000000180035750     libucrt:fclose.obj
 0002:0000d774       $unwind$_putwch_nolock     0000000180035774     libucrt:putwch.obj
 0002:0000d77c       $unwind$common_control87   000000018003577c     libucrt:ieee.obj
 0002:0000d7a8       $unwind$_call_matherr      00000001800357a8     libucrt:libm_error.obj
 0002:0000d7b0       $unwind$_handle_error      00000001800357b0     libucrt:libm_error.obj
 0002:0000d7d0       $unwind$__acrt_initialize_fma3 00000001800357d0     libucrt:fma3_available.obj
 0002:0000d7d8       $unwind$_log_special_common 00000001800357d8     libucrt:log_special.obj
 0002:0000d7e4       $unwind$_close_internal    00000001800357e4     libucrt:close.obj
 0002:0000d7ec       $unwind$??$?RV<lambda_ad8af0d99a0adf03d037d7dffe354bb5>@@AEAV<lambda_c9ba49e555ba839a7b07aa3fbecb7617>@@V<lambda_2f1ebd5d68526518146ae959c9e734c8>@@@?$__crt_seh_guarded_call@H@@QEAAH$$QEAV<lambda_ad8af0d99a0adf03d037d7dffe354bb5>@@AEAV<lambda_c9ba49e555ba839a7b07aa3fbecb7617>@@$$QEAV<lambda_2f1ebd5d68526518146ae959c9e734c8>@@@Z 00000001800357ec     libucrt:close.obj
 0002:0000d810       $xdatasym                  0000000180035810     libucrt:fpsr.obj
 0002:0000d818       $unwind$_raise_exc_ex      0000000180035818     libucrt:fpexcept.obj
 0002:0000d82c       $unwind$_ctrlfp            000000018003582c     libucrt:fpctrl.obj
 0002:0000d854       $unwind$_IsNonwritableInCurrentImage 0000000180035854     LIBCMT:pesect.obj
 0002:0000d878       $unwind$strrchr            0000000180035878     libvcruntime:strrchr.obj
 0002:0000d9e0       .edata                     00000001800359e0     OPOSPOSPrinter.exp
 0002:0000da08       rgpv                       0000000180035a08     OPOSPOSPrinter.exp
 0002:0000da18       rgszName                   0000000180035a18     OPOSPOSPrinter.exp
 0002:0000da28       rgwOrd                     0000000180035a28     OPOSPOSPrinter.exp
 0002:0000da30       szName                     0000000180035a30     OPOSPOSPrinter.exp
 0002:0000da43       $N00001                    0000000180035a43     OPOSPOSPrinter.exp
 0002:0000da53       $N00002                    0000000180035a53     OPOSPOSPrinter.exp
 0002:0000da65       $N00003                    0000000180035a65     OPOSPOSPrinter.exp
 0002:0000da77       $N00004                    0000000180035a77     OPOSPOSPrinter.exp
 0002:0000e3c2       .idata$6                   00000001800363c2     kernel32:KERNEL32.dll
 0002:0000e5da       .idata$6                   00000001800365da     user32:USER32.dll
 0002:0000e70e       .idata$6                   000000018003670e     gdi32:GDI32.dll
 0002:0000e7b4       .idata$6                   00000001800367b4     advapi32:ADVAPI32.dll
 0002:0000e8d0       .idata$6                   00000001800368d0     ole32:ole32.dll
 0002:0000e8da       .idata$6                   00000001800368da     oleaut32:OLEAUT32.dll
 0003:000001c0       ?ObjectMap@@3PAU_ATL_OBJMAP_ENTRY30@ATL@@A 00000001800371c0     POSPrinter.obj
 0003:000002d0       ?s_SOMethodNames@@3PAPEADA 00000001800372d0     POSPrinterImpl.obj
 0003:00000408       ?s_RequiredMethodsPerRelease@@3PAHA 0000000180037408     POSPrinterImpl.obj
 0003:00000480       ?__vcrt_flsindex@@3KA      0000000180037480     libvcruntime:per_thread_data.obj
 0003:00000490       ?errno_no_memory@@3HA      0000000180037490     libucrt:errno.obj
 0003:00000494       ?doserrno_no_memory@@3KA   0000000180037494     libucrt:errno.obj
 0003:000004a0       ?__acrt_flsindex@@3KA      00000001800374a0     libucrt:per_thread_data.obj
 0003:00000960       _mbctypes                  0000000180037960     libucrt:mbctype.obj
 0003:00000a70       _mbcasemaps                0000000180037a70     libucrt:mbctype.obj
 0003:00000b70       ?__rgctypeflag@@3PADA      0000000180037b70     libucrt:mbctype.obj
 0003:00000b80       ?__rgcode_page_info@@3PAUcode_page_info@@A 0000000180037b80     libucrt:mbctype.obj
 0003:00000e20       ?dazSupported@?1??common_control87@@9@9 0000000180037e20     libucrt:ieee.obj
 0003:00000e30       ?__dcrt_lowio_console_output_handle@@3PEAXEA 0000000180037e30     libucrt:initcon.obj
 0003:00000e40       ?dazSupported@?1??_ctrlfp@@9@9 0000000180037e40     libucrt:fpctrl.obj
 0003:00001090       ?is_initialized_as_dll@@3_NA 0000000180038090     LIBCMT:utility.obj
 0003:00001091       ?module_local_atexit_table_initialized@@3_NA 0000000180038091     LIBCMT:utility.obj
 0003:00001098       ?module_local_atexit_table@@3U_onexit_table_t@@A 0000000180038098     LIBCMT:utility.obj
 0003:000010b0       ?module_local_at_quick_exit_table@@3U_onexit_table_t@@A 00000001800380b0     LIBCMT:utility.obj
 0003:000010c8       ?g_tss_cv@@3U_RTL_CONDITION_VARIABLE@@A 00000001800380c8     LIBCMT:thread_safe_statics.obj
 0003:000010d0       ?g_tss_event@@3PEAXEA      00000001800380d0     LIBCMT:thread_safe_statics.obj
 0003:000010d8       ?g_tss_mutex@@3U_RTL_CRITICAL_SECTION@@A 00000001800380d8     LIBCMT:thread_safe_statics.obj
 0003:00001100       ?g_sleep_condition_variable_cs@@3P6AHPEAU_RTL_CONDITION_VARIABLE@@PEAU_RTL_CRITICAL_SECTION@@K@ZEA 0000000180038100     LIBCMT:thread_safe_statics.obj
 0003:00001108       ?g_wake_all_condition_variable@@3P6AXPEAU_RTL_CONDITION_VARIABLE@@@ZEA 0000000180038108     LIBCMT:thread_safe_statics.obj
 0003:00001110       GS_ExceptionRecord         0000000180038110     LIBCMT:gs_report.obj
 0003:000011b0       GS_ContextRecord           00000001800381b0     LIBCMT:gs_report.obj
 0003:00001684       ?__proc_attached@@3HA      0000000180038684     LIBCMT:dll_dllmain.obj
 0003:00001718       ?AllocateData@@3P6APEAUAtlThunkData_t@@XZEA 0000000180038718     atls:atlthunk.obj
 0003:00001720       ?InitData@@3P6AXPEAUAtlThunkData_t@@PEAX_K@ZEA 0000000180038720     atls:atlthunk.obj
 0003:00001728       ?DataToCode@@3P6AP6A_JPEAUHWND__@@I_K_J@ZPEAUAtlThunkData_t@@@ZEA 0000000180038728     atls:atlthunk.obj
 0003:00001730       ?FreeData@@3P6AXPEAUAtlThunkData_t@@@ZEA 0000000180038730     atls:atlthunk.obj
 0003:00001738       ?Initialized@@3_NA         0000000180038738     atls:atlthunk.obj
 0003:00001750       ?__vcrt_startup_thread_ptd@@3U__vcrt_ptd@@A 0000000180038750     libvcruntime:per_thread_data.obj
 0003:000017d0       __vcrt_lock_table          00000001800387d0     libvcruntime:locks.obj
 0003:000017f8       __vcrt_locks_initialized   00000001800387f8     libvcruntime:locks.obj
 0003:00001840       ?heap@@3V_HeapManager@@A   0000000180038840     libvcruntime:undname.obj
 0003:00001868       ?module_handles@@3PAPEAUHINSTANCE__@@A 0000000180038868     libvcruntime:winapi_downlevel.obj
 0003:00001880       ?function_pointers@@3PAPEAXA 0000000180038880     libvcruntime:winapi_downlevel.obj
 0003:000018a8       ?__acrt_invalid_parameter_handler@@3V?$dual_state_global@P6AXPEB_W00I_K@Z@__crt_state_management@@A 00000001800388a8     libucrt:invalid_parameter.obj
 0003:000018b0       ?c_termination_complete@@3JA 00000001800388b0     libucrt:exit.obj
 0003:000018b8       ?thread_local_exit_callback_func@@3P6AXPEAXK0@ZEA 00000001800388b8     libucrt:exit.obj
 0003:000018d0       ?program_name@?1???$common_configure_argv@D@@YAHW4_crt_argv_mode@@@Z@4PADA 00000001800388d0     libucrt:argv_parsing.obj
 0003:00001a28       ?__acrt_new_handler@@3V?$dual_state_global@P6AH_K@Z@__crt_state_management@@A 0000000180038a28     libucrt:new_handler.obj
 0003:00001a40       ?module_handles@@3PAPEAUHINSTANCE__@@A 0000000180038a40     libucrt:winapi_thunks.obj
 0003:00001ae0       ?encoded_function_pointers@@3PAPEAXA 0000000180038ae0     libucrt:winapi_thunks.obj
 0003:00001bd0       ?internal_state@?1??_mbtowc_internal@@9@4U_Mbstatet@@A 0000000180038bd0     libucrt:mbtowc.obj
 0003:00001be8       ?enable_percent_n@@3_KA    0000000180038be8     libucrt:printf_count_output.obj
 0003:00002010       ?__acrt_lock_table@@3PAU_RTL_CRITICAL_SECTION@@A 0000000180039010     libucrt:locks.obj
 0003:00002240       ?__acrt_locks_initialized@@3IA 0000000180039240     libucrt:locks.obj
 0003:00002260       ?fSystemSet@@3HA           0000000180039260     libucrt:mbctype.obj
 0003:00002264       ?initialized@?1??__acrt_initialize_multibyte@@9@4_NA 0000000180039264     libucrt:mbctype.obj
 0003:000022a0       ?ctrlc_action@@3V?$dual_state_global@P6AXH@Z@__crt_state_management@@A 00000001800392a0     libucrt:signal.obj
 0003:000022a8       ?ctrlbreak_action@@3V?$dual_state_global@P6AXH@Z@__crt_state_management@@A 00000001800392a8     libucrt:signal.obj
 0003:000022b0       ?abort_action@@3V?$dual_state_global@P6AXH@Z@__crt_state_management@@A 00000001800392b0     libucrt:signal.obj
 0003:000022b8       ?term_action@@3V?$dual_state_global@P6AXH@Z@__crt_state_management@@A 00000001800392b8     libucrt:signal.obj
 0003:000022c0       ?user_matherr@@3V?$dual_state_global@P6AHPEAU_exception@@@Z@__crt_state_management@@A 00000001800392c0     libucrt:matherr.obj
 0003:000022d0       ?__acrt_global_new_mode@@3V?$dual_state_global@J@__crt_state_management@@A 00000001800392d0     libucrt:new_mode.obj
 0003:000022d8       ?internal_pst@?1??__mbrtoc32_utf8@__crt_mbstring@@YA_KPEA_UPEBD_KPEAU_Mbstatet@@AEAV__crt_cached_ptd_host@@@Z@4U3@A 00000001800392d8     libucrt:mbrtoc32.obj
 0003:000022e0       ?__acrt_app_type@@3W4_crt_app_type@@A 00000001800392e0     libucrt:report_runtime_error.obj
 0005:00000000       MoveSmall                  000000018003d000     libvcruntime:memcpy.obj
 0005:00000040       MoveSmallYmm               000000018003d040     libvcruntime:memcpy.obj
 0005:00000064       MoveSmallYmmNT             000000018003d064     libvcruntime:memcpy.obj
 0005:00000088       MoveSmallXmm               000000018003d088     libvcruntime:memcpy.obj
 0005:000000b0       MsetTab                    000000018003d0b0     libvcruntime:memset.obj
 0006:00000220       $R000000                   000000018003e220     POSPrinter.res
 0006:00000bb8       $R000998                   000000018003ebb8     POSPrinter.res
 0006:00000ca0       $R000A80                   000000018003eca0     POSPrinter.res
 0006:00000f08       $R000CE8                   000000018003ef08     POSPrinter.res
 0006:00001470       $R001250                   000000018003f470     POSPrinter.res
 0006:00009228       $R009008                   0000000180047228     POSPrinter.res
 0006:00009260       $R009040                   0000000180047260     POSPrinter.res
