 OPOSToneIndicator

 Timestamp is 600f7ad8 (Tue Jan 26 11:13:44 2021)

 Preferred load address is 0000000180000000

 Start         Length     Name                   Class
 0001:00000000 000000c0H .text$di                CODE
 0001:000000c0 00021150H .text$mn                CODE
 0001:00021210 00000040H .text$mn$00             CODE
 0001:00021250 000004b0H .text$x                 CODE
 0001:00021700 00000078H .text$yd                CODE
 0002:00000000 00000618H .idata$5                DATA
 0002:00000618 00000028H .00cfg                  DATA
 0002:00000640 00000008H .CRT$XCA                DATA
 0002:00000648 00000008H .CRT$XCL                DATA
 0002:00000650 00000020H .CRT$XCU                DATA
 0002:00000670 00000008H .CRT$XCZ                DATA
 0002:00000678 00000008H .CRT$XIA                DATA
 0002:00000680 00000020H .CRT$XIC                DATA
 0002:000006a0 00000008H .CRT$XIZ                DATA
 0002:000006a8 00000008H .CRT$XLA                DATA
 0002:000006b0 00000008H .CRT$XLZ                DATA
 0002:000006b8 00000008H .CRT$XPA                DATA
 0002:000006c0 00000010H .CRT$XPX                DATA
 0002:000006d0 00000008H .CRT$XPXA               DATA
 0002:000006d8 00000008H .CRT$XPZ                DATA
 0002:000006e0 00000008H .CRT$XTA                DATA
 0002:000006e8 00000008H .CRT$XTZ                DATA
 0002:000006f0 00000000H .gehcont$y              DATA
 0002:000006f0 00000000H .gfids$y                DATA
 0002:000006f0 0000a910H .rdata                  DATA
 0002:0000b000 00000000H .rdata$CastGuardVftablesA DATA
 0002:0000b000 00000000H .rdata$CastGuardVftablesC DATA
 0002:0000b000 00000028H .rdata$T                DATA
 0002:0000b028 00000274H .rdata$r                DATA
 0002:0000b29c 0000040cH .rdata$zzzdbg           DATA
 0002:0000b6a8 00000008H .rtc$IAA                DATA
 0002:0000b6b0 00000008H .rtc$IZZ                DATA
 0002:0000b6b8 00000008H .rtc$TAA                DATA
 0002:0000b6c0 00000008H .rtc$TZZ                DATA
 0002:0000b6c8 00000004H .tls                    DATA
 0002:0000b6cc 00000004H .tls$                   DATA
 0002:0000b6d0 00000008H .tls$ZZZ                DATA
 0002:0000b6d8 000016b0H .xdata                  DATA
 0002:0000cd88 00000150H .xdata$x                DATA
 0002:0000ced8 00000008H ATL$__a                 DATA
 0002:0000cee0 00000010H ATL$__z                 DATA
 0002:0000cef0 000000b0H .edata                  DATA
 0002:0000cfa0 00000078H .idata$2                DATA
 0002:0000d018 00000018H .idata$3                DATA
 0002:0000d030 00000618H .idata$4                DATA
 0002:0000d648 00000c2aH .idata$6                DATA
 0003:00000000 00000db8H .data                   DATA
 0003:00000db8 000000c8H .data$r                 DATA
 0003:00000e80 0000141cH .bss                    DATA
 0004:00000000 00001e48H .pdata                  DATA
 0005:00000000 00000094H _RDATA                  DATA
 0006:00000000 00000220H .rsrc$01                DATA
 0006:00000220 00004358H .rsrc$02                DATA

  Address         Publics by Value              Rva+Base               Lib:Object

 0000:00000000       ___safe_se_handler_table   0000000000000000     <absolute>
 0000:00000000       __x64_code_ranges_to_entry_points_count 0000000000000000     <absolute>
 0000:00000000       __arm64x_extra_rfe_table   0000000000000000     <absolute>
 0000:00000000       __arm64x_redirection_metadata 0000000000000000     <absolute>
 0000:00000000       __guard_iat_table          0000000000000000     <absolute>
 0000:00000000       __hybrid_code_map          0000000000000000     <absolute>
 0000:00000000       __volatile_metadata        0000000000000000     <absolute>
 0000:00000000       __arm64x_extra_rfe_table_size 0000000000000000     <absolute>
 0000:00000000       ___safe_se_handler_count   0000000000000000     <absolute>
 0000:00000000       __x64_code_ranges_to_entry_points 0000000000000000     <absolute>
 0000:00000000       __guard_iat_count          0000000000000000     <absolute>
 0000:00000000       __guard_longjmp_count      0000000000000000     <absolute>
 0000:00000000       __dynamic_value_reloc_table 0000000000000000     <absolute>
 0000:00000000       __guard_fids_count         0000000000000000     <absolute>
 0000:00000000       __hybrid_auxiliary_iat     0000000000000000     <absolute>
 0000:00000000       __guard_eh_cont_count      0000000000000000     <absolute>
 0000:00000000       __AbsoluteZero             0000000000000000     <absolute>
 0000:00000000       __guard_longjmp_table      0000000000000000     <absolute>
 0000:00000000       __guard_fids_table         0000000000000000     <absolute>
 0000:00000000       __arm64x_redirection_metadata_count 0000000000000000     <absolute>
 0000:00000000       __enclave_config           0000000000000000     <absolute>
 0000:00000000       __guard_eh_cont_table      0000000000000000     <absolute>
 0000:00000000       __arm64x_native_entrypoint 0000000000000000     <absolute>
 0000:00000000       __hybrid_code_map_count    0000000000000000     <absolute>
 0000:00000100       __guard_flags              0000000000000100     <absolute>
 0000:00000000       __ImageBase                0000000180000000     <linker-defined>
 0001:000000c0       ?DupWide@_CW@@AEAAXXZ      00000001800010c0 f   CWString.obj
 0001:000000e8       ?cw_dup@@YAXPEBDAEAHAEAPEA_W1@Z 00000001800010e8 f   CWString.obj
 0001:000001c8       ?cw_memcpy@@YAHPEA_WPEBDH@Z 00000001800011c8 f   CWString.obj
 0001:00000214       ?cw_strcpy@@YAHPEA_WPEBD@Z 0000000180001214 f   CWString.obj
 0001:00000228       ??0CAtlComModule@ATL@@QEAA@XZ 0000000180001228 f i OposVariant.obj
 0001:000002a8       ??0CAtlWinModule@ATL@@QEAA@XZ 00000001800012a8 f i OposVariant.obj
 0001:00000314       ??0OposDispParms@@QEAA@PEAVOposVariant@@H@Z 0000000180001314 f   OposVariant.obj
 0001:000003bc       ??1OposDispParms@@QEAA@XZ  00000001800013bc f   OposVariant.obj
 0001:000003d4       ??_Estringdispid@CComTypeInfoHolder@ATL@@QEAAPEAXI@Z 00000001800013d4 f i OposVariant.obj
 0001:00000478       ?AtlWinModuleTerm@ATL@@YAJPEAU_ATL_WIN_MODULE70@1@PEAUHINSTANCE__@@@Z 0000000180001478 f i OposVariant.obj
 0001:00000528       ?ChangeBSTR@OposVariant@@QEAAXPEAPEA_WAEAJ@Z 0000000180001528 f   OposVariant.obj
 0001:00000588       ?ChangeLONG@OposVariant@@QEAAXPEAJAEAJ@Z 0000000180001588 f   OposVariant.obj
 0001:000005e4       ?GetLONG@OposVariant@@QEAAJXZ 00000001800015e4 f   OposVariant.obj
 0001:00000608       ?SetBSTR@OposVariant@@QEAAXPEA_WAEAJ@Z 0000000180001608 f   OposVariant.obj
 0001:00000648       ?SetBSTR_Copy@OposVariant@@QEAAXPEA_WAEAJ@Z 0000000180001648 f   OposVariant.obj
 0001:000006b8       ?SetBSTR_InOutPtr@OposVariant@@QEAA_NPEAPEA_WAEAJ@Z 00000001800016b8 f   OposVariant.obj
 0001:00000708       ?SetDispatch_Ptr@OposVariant@@QEAAXPEAUIDispatch@@AEAJ@Z 0000000180001708 f   OposVariant.obj
 0001:00000760       ?SetLONG@OposVariant@@QEAAXJ@Z 0000000180001760 f   OposVariant.obj
 0001:00000790       ?SetLONG_Ptr@OposVariant@@QEAAXPEAJAEAJ@Z 0000000180001790 f   OposVariant.obj
 0001:000007dc       ?SetString@OposVariant@@QEAAXPEB_WAEAJ@Z 00000001800017dc f   OposVariant.obj
 0001:00000840       ?SetVARIANT_BOOL@OposVariant@@QEAAXF@Z 0000000180001840 f   OposVariant.obj
 0001:00000878       ?Term@CAtlComModule@ATL@@QEAAXXZ 0000000180001878 f i OposVariant.obj
 0001:000008e8       ?_AtlInitializeCriticalSectionEx@ATL@@YAHPEAU_RTL_CRITICAL_SECTION@@KK@Z 00000001800018e8 f i OposVariant.obj
 0001:000008f0       ?_AtlRaiseException@ATL@@YAXKK@Z 00000001800018f0 f i OposVariant.obj
 0001:00000900       ?GetWindowProc@?$CWindowImplBaseT@VCWindow@ATL@@V?$CWinTraits@$0FGAAAAAA@$0A@@2@@ATL@@UEAAP6A_JPEAUHWND__@@I_K_J@ZXZ 0000000180001900 f i ToneIndicator.obj
 0001:00000908       ?StartWindowProc@?$CWindowImplBaseT@VCWindow@ATL@@V?$CWinTraits@$0FGAAAAAA@$0A@@2@@ATL@@SA_JPEAUHWND__@@I_K_J@Z 0000000180001908 f i ToneIndicator.obj
 0001:000009cc       ?OnFinalMessage@?$CWindowImplBaseT@VCWindow@ATL@@V?$CWinTraits@$0FGAAAAAA@$0A@@2@@ATL@@UEAAXPEAUHWND__@@@Z 00000001800019cc f i ToneIndicator.obj
 0001:000009cc       _guard_check_icall_nop     00000001800019cc f i LIBCMT:guard_support.obj
 0001:000009cc       ?ObjectMain@CComObjectRootBase@ATL@@SAX_N@Z 00000001800019cc f i ToneIndicator.obj
 0001:000009d0       ?GetTypeInfoCount@?$IDispatchImpl@UIOPOSToneIndicator@@$1?IID_IOPOSToneIndicator@@3U_GUID@@B$1?LIBID_OposToneIndicator_CCO@@3U3@B$00$0A@VCComTypeInfoHolder@ATL@@@ATL@@UEAAJPEAI@Z 00000001800019d0 f i ToneIndicator.obj
 0001:000009e4       ?GetTypeInfo@?$IDispatchImpl@UIOPOSToneIndicator@@$1?IID_IOPOSToneIndicator@@3U_GUID@@B$1?LIBID_OposToneIndicator_CCO@@3U3@B$00$0A@VCComTypeInfoHolder@ATL@@@ATL@@UEAAJIKPEAPEAUITypeInfo@@@Z 00000001800019e4 f i ToneIndicator.obj
 0001:00000a48       ?GetIDsOfNames@?$IDispatchImpl@UIOPOSToneIndicator@@$1?IID_IOPOSToneIndicator@@3U_GUID@@B$1?LIBID_OposToneIndicator_CCO@@3U3@B$00$0A@VCComTypeInfoHolder@ATL@@@ATL@@UEAAJAEBU_GUID@@PEAPEA_WIKPEAJ@Z 0000000180001a48 f i ToneIndicator.obj
 0001:00000a54       ?Invoke@?$IDispatchImpl@UIOPOSToneIndicator@@$1?IID_IOPOSToneIndicator@@3U_GUID@@B$1?LIBID_OposToneIndicator_CCO@@3U3@B$00$0A@VCComTypeInfoHolder@ATL@@@ATL@@UEAAJJAEBU_GUID@@KGPEAUtagDISPPARAMS@@PEAUtagVARIANT@@PEAUtagEXCEPINFO@@PEAI@Z 0000000180001a54 f i ToneIndicator.obj
 0001:00000ae4       ?CreateControlWindow@?$CComControl@VCOPOSToneIndicator@@V?$CWindowImpl@VCOPOSToneIndicator@@VCWindow@ATL@@V?$CWinTraits@$0FGAAAAAA@$0A@@3@@ATL@@@ATL@@UEAAPEAUHWND__@@PEAU3@AEAUtagRECT@@@Z 0000000180001ae4 f i ToneIndicator.obj
 0001:00000b1c       ?ControlQueryInterface@?$CComControl@VCOPOSToneIndicator@@V?$CWindowImpl@VCOPOSToneIndicator@@VCWindow@ATL@@V?$CWinTraits@$0FGAAAAAA@$0A@@3@@ATL@@@ATL@@UEAAJAEBU_GUID@@PEAPEAX@Z 0000000180001b1c f i ToneIndicator.obj
 0001:00000b30       ?GetUserClassID@?$IOleObjectImpl@VCOPOSToneIndicator@@@ATL@@UEAAJPEAU_GUID@@@Z 0000000180001b30 f i ToneIndicator.obj
 0001:00000b30       ?GetClassID@?$IPersistStreamInitImpl@VCOPOSToneIndicator@@@ATL@@UEAAJPEAU_GUID@@@Z 0000000180001b30 f i ToneIndicator.obj
 0001:00000b30       ?GetClassID@?$IPersistStorageImpl@VCOPOSToneIndicator@@@ATL@@UEAAJPEAU_GUID@@@Z 0000000180001b30 f i ToneIndicator.obj
 0001:00000b4c       ?IsDirty@?$IPersistStreamInitImpl@VCOPOSToneIndicator@@@ATL@@UEAAJXZ 0000000180001b4c f i ToneIndicator.obj
 0001:00000b68       ?Load@?$IPersistStreamInitImpl@VCOPOSToneIndicator@@@ATL@@UEAAJPEAUIStream@@@Z 0000000180001b68 f i ToneIndicator.obj
 0001:00000b80       ?Save@?$IPersistStreamInitImpl@VCOPOSToneIndicator@@@ATL@@UEAAJPEAUIStream@@H@Z 0000000180001b80 f i ToneIndicator.obj
 0001:00000b98       ?GetSizeMax@?$IPersistStreamInitImpl@VCOPOSToneIndicator@@@ATL@@UEAAJPEAT_ULARGE_INTEGER@@@Z 0000000180001b98 f i ToneIndicator.obj
 0001:00000dc4       ?InitNew@?$IPersistStreamInitImpl@VCOPOSToneIndicator@@@ATL@@UEAAJXZ 0000000180001dc4 f i ToneIndicator.obj
 0001:00000ddc       ?QueryGetData@?$IDataObjectImpl@VCOPOSToneIndicator@@@ATL@@UEAAJPEAUtagFORMATETC@@@Z 0000000180001ddc f i ToneIndicator.obj
 0001:00000ddc       ?GetMoniker@?$IOleObjectImpl@VCOPOSToneIndicator@@@ATL@@UEAAJKKPEAPEAUIMoniker@@@Z 0000000180001ddc f i ToneIndicator.obj
 0001:00000ddc       ?Unfreeze@?$IViewObjectExImpl@VCOPOSToneIndicator@@@ATL@@UEAAJK@Z 0000000180001ddc f i ToneIndicator.obj
 0001:00000ddc       ?SetColorScheme@?$IOleObjectImpl@VCOPOSToneIndicator@@@ATL@@UEAAJPEAUtagLOGPALETTE@@@Z 0000000180001ddc f i ToneIndicator.obj
 0001:00000ddc       ?ContextSensitiveHelp@?$IOleInPlaceActiveObjectImpl@VCOPOSToneIndicator@@@ATL@@UEAAJH@Z 0000000180001ddc f i ToneIndicator.obj
 0001:00000ddc       ?ContextSensitiveHelp@?$IOleInPlaceObjectWindowlessImpl@VCOPOSToneIndicator@@@ATL@@UEAAJH@Z 0000000180001ddc f i ToneIndicator.obj
 0001:00000ddc       ?GetDropTarget@?$IOleInPlaceObjectWindowlessImpl@VCOPOSToneIndicator@@@ATL@@UEAAJPEAPEAUIDropTarget@@@Z 0000000180001ddc f i ToneIndicator.obj
 0001:00000ddc       ?GetControlInfo@?$IOleControlImpl@VCOPOSToneIndicator@@@ATL@@UEAAJPEAUtagCONTROLINFO@@@Z 0000000180001ddc f i ToneIndicator.obj
 0001:00000ddc       ?GetDataHere@?$IDataObjectImpl@VCOPOSToneIndicator@@@ATL@@UEAAJPEAUtagFORMATETC@@PEAUtagSTGMEDIUM@@@Z 0000000180001ddc f i ToneIndicator.obj
 0001:00000ddc       ?GetCanonicalFormatEtc@?$IDataObjectImpl@VCOPOSToneIndicator@@@ATL@@UEAAJPEAUtagFORMATETC@@0@Z 0000000180001ddc f i ToneIndicator.obj
 0001:00000ddc       ?InitFromData@?$IOleObjectImpl@VCOPOSToneIndicator@@@ATL@@UEAAJPEAUIDataObject@@HK@Z 0000000180001ddc f i ToneIndicator.obj
 0001:00000ddc       ?SetData@?$IDataObjectImpl@VCOPOSToneIndicator@@@ATL@@UEAAJPEAUtagFORMATETC@@PEAUtagSTGMEDIUM@@H@Z 0000000180001ddc f i ToneIndicator.obj
 0001:00000ddc       ?SODataDummy@COPOSToneIndicator@@MEAAJJ@Z 0000000180001ddc f i ToneIndicator.obj
 0001:00000ddc       ?SetMoniker@?$IOleObjectImpl@VCOPOSToneIndicator@@@ATL@@UEAAJKPEAUIMoniker@@@Z 0000000180001ddc f i ToneIndicator.obj
 0001:00000ddc       ?Freeze@?$IViewObjectExImpl@VCOPOSToneIndicator@@@ATL@@UEAAJKJPEAXPEAK@Z 0000000180001ddc f i ToneIndicator.obj
 0001:00000ddc       ?GetRect@?$IViewObjectExImpl@VCOPOSToneIndicator@@@ATL@@UEAAJKPEAU_RECTL@@@Z 0000000180001ddc f i ToneIndicator.obj
 0001:00000ddc       ?EnumFormatEtc@?$IDataObjectImpl@VCOPOSToneIndicator@@@ATL@@UEAAJKPEAPEAUIEnumFORMATETC@@@Z 0000000180001ddc f i ToneIndicator.obj
 0001:00000ddc       ?OnMnemonic@?$IOleControlImpl@VCOPOSToneIndicator@@@ATL@@UEAAJPEAUtagMSG@@@Z 0000000180001ddc f i ToneIndicator.obj
 0001:00000ddc       ?GetClipboardData@?$IOleObjectImpl@VCOPOSToneIndicator@@@ATL@@UEAAJKPEAPEAUIDataObject@@@Z 0000000180001ddc f i ToneIndicator.obj
 0001:00000ddc       ?QueryInterface@CRegObject@ATL@@UEAAJAEBU_GUID@@PEAPEAX@Z 0000000180001ddc f i ToneIndicator.obj
 0001:00000ddc       ?ReactivateAndUndo@?$IOleInPlaceObjectWindowlessImpl@VCOPOSToneIndicator@@@ATL@@UEAAJXZ 0000000180001ddc f i ToneIndicator.obj
 0001:00000ddc       ?GetColorSet@?$IViewObjectExImpl@VCOPOSToneIndicator@@@ATL@@UEAAJKJPEAXPEAUtagDVTARGETDEVICE@@PEAUHDC__@@PEAPEAUtagLOGPALETTE@@@Z 0000000180001ddc f i ToneIndicator.obj
 0001:00000de4       ?GetCategoryMap@CComObjectRootBase@ATL@@SAPEBU_ATL_CATMAP_ENTRY@2@XZ 0000000180001de4 f i ToneIndicator.obj
 0001:00000de4       ?EnableModeless@?$IOleInPlaceActiveObjectImpl@VCOPOSToneIndicator@@@ATL@@UEAAJH@Z 0000000180001de4 f i ToneIndicator.obj
 0001:00000de4       ?ResizeBorder@?$IOleInPlaceActiveObjectImpl@VCOPOSToneIndicator@@@ATL@@UEAAJPEBUtagRECT@@PEAUIOleInPlaceUIWindow@@H@Z 0000000180001de4 f i ToneIndicator.obj
 0001:00000de4       ?GetObjectDescription@?$CComCoClass@VCOPOSToneIndicator@@$1?CLSID_OPOSToneIndicator@@3U_GUID@@B@ATL@@SAPEB_WXZ 0000000180001de4 f i ToneIndicator.obj
 0001:00000de4       ?SetHostNames@?$IOleObjectImpl@VCOPOSToneIndicator@@@ATL@@UEAAJPEB_W0@Z 0000000180001de4 f i ToneIndicator.obj
 0001:00000de4       ?SaveCompleted@?$IPersistStorageImpl@VCOPOSToneIndicator@@@ATL@@UEAAJPEAUIStorage@@@Z 0000000180001de4 f i ToneIndicator.obj
 0001:00000de4       ?OnAmbientPropertyChange@?$IOleControlImpl@VCOPOSToneIndicator@@@ATL@@UEAAJJ@Z 0000000180001de4 f i ToneIndicator.obj
 0001:00000de4       ?Update@?$IOleObjectImpl@VCOPOSToneIndicator@@@ATL@@UEAAJXZ 0000000180001de4 f i ToneIndicator.obj
 0001:00000de4       ?OnFrameWindowActivate@?$IOleInPlaceActiveObjectImpl@VCOPOSToneIndicator@@@ATL@@UEAAJH@Z 0000000180001de4 f i ToneIndicator.obj
 0001:00000de4       ?IsUpToDate@?$IOleObjectImpl@VCOPOSToneIndicator@@@ATL@@UEAAJXZ 0000000180001de4 f i ToneIndicator.obj
 0001:00000de4       ?HandsOffStorage@?$IPersistStorageImpl@VCOPOSToneIndicator@@@ATL@@UEAAJXZ 0000000180001de4 f i ToneIndicator.obj
 0001:00000de4       ?Release@CRegObject@ATL@@UEAAKXZ 0000000180001de4 f i ToneIndicator.obj
 0001:00000de8       ?SetClientSite@?$IOleObjectImpl@VCOPOSToneIndicator@@@ATL@@UEAAJPEAUIOleClientSite@@@Z 0000000180001de8 f i ToneIndicator.obj
 0001:00000e04       ?GetClientSite@?$IOleObjectImpl@VCOPOSToneIndicator@@@ATL@@UEAAJPEAPEAUIOleClientSite@@@Z 0000000180001e04 f i ToneIndicator.obj
 0001:00000e4c       ?Close@?$IOleObjectImpl@VCOPOSToneIndicator@@@ATL@@UEAAJK@Z 0000000180001e4c f i ToneIndicator.obj
 0001:00000e68       ?DoVerb@?$IOleObjectImpl@VCOPOSToneIndicator@@@ATL@@UEAAJJPEAUtagMSG@@PEAUIOleClientSite@@JPEAUHWND__@@PEBUtagRECT@@@Z 0000000180001e68 f i ToneIndicator.obj
 0001:0000100c       ?EnumVerbs@?$IOleObjectImpl@VCOPOSToneIndicator@@@ATL@@UEAAJPEAPEAUIEnumOLEVERB@@@Z 000000018000200c f i ToneIndicator.obj
 0001:00001028       ?GetUserType@?$IOleObjectImpl@VCOPOSToneIndicator@@@ATL@@UEAAJKPEAPEA_W@Z 0000000180002028 f i ToneIndicator.obj
 0001:00001038       ?SetExtent@?$IOleObjectImpl@VCOPOSToneIndicator@@@ATL@@UEAAJKPEAUtagSIZE@@@Z 0000000180002038 f i ToneIndicator.obj
 0001:00001054       ?GetExtent@?$IOleObjectImpl@VCOPOSToneIndicator@@@ATL@@UEAAJKPEAUtagSIZE@@@Z 0000000180002054 f i ToneIndicator.obj
 0001:00001084       ?Advise@?$IOleObjectImpl@VCOPOSToneIndicator@@@ATL@@UEAAJPEAUIAdviseSink@@PEAK@Z 0000000180002084 f i ToneIndicator.obj
 0001:000010e0       ?Unadvise@?$IOleObjectImpl@VCOPOSToneIndicator@@@ATL@@UEAAJK@Z 00000001800020e0 f i ToneIndicator.obj
 0001:00001118       ?EnumAdvise@?$IOleObjectImpl@VCOPOSToneIndicator@@@ATL@@UEAAJPEAPEAUIEnumSTATDATA@@@Z 0000000180002118 f i ToneIndicator.obj
 0001:00001160       ?GetMiscStatus@?$IOleObjectImpl@VCOPOSToneIndicator@@@ATL@@UEAAJKPEAK@Z 0000000180002160 f i ToneIndicator.obj
 0001:00001170       ?GetWindow@?$IOleInPlaceActiveObjectImpl@VCOPOSToneIndicator@@@ATL@@UEAAJPEAPEAUHWND__@@@Z 0000000180002170 f i ToneIndicator.obj
 0001:000011c4       ?TranslateAcceleratorW@?$IOleInPlaceActiveObjectImpl@VCOPOSToneIndicator@@@ATL@@UEAAJPEAUtagMSG@@@Z 00000001800021c4 f i ToneIndicator.obj
 0001:000012b8       ?OnDocWindowActivate@?$IOleInPlaceActiveObjectImpl@VCOPOSToneIndicator@@@ATL@@UEAAJH@Z 00000001800022b8 f i ToneIndicator.obj
 0001:000012e4       ?Draw@?$IViewObjectExImpl@VCOPOSToneIndicator@@@ATL@@UEAAJKJPEAXPEAUtagDVTARGETDEVICE@@PEAUHDC__@@2PEBU_RECTL@@3P6AH_K@Z4@Z 00000001800022e4 f i ToneIndicator.obj
 0001:00001348       ?SetAdvise@?$IViewObjectExImpl@VCOPOSToneIndicator@@@ATL@@UEAAJKKPEAUIAdviseSink@@@Z 0000000180002348 f i ToneIndicator.obj
 0001:0000139c       ?GetAdvise@?$IViewObjectExImpl@VCOPOSToneIndicator@@@ATL@@UEAAJPEAK0PEAPEAUIAdviseSink@@@Z 000000018000239c f i ToneIndicator.obj
 0001:000013d8       ?GetExtent@?$IViewObjectExImpl@VCOPOSToneIndicator@@@ATL@@UEAAJKJPEAUtagDVTARGETDEVICE@@PEAUtagSIZE@@@Z 00000001800023d8 f i ToneIndicator.obj
 0001:00001408       ?GetViewStatus@?$IViewObjectExImpl@VCOPOSToneIndicator@@@ATL@@UEAAJPEAK@Z 0000000180002408 f i ToneIndicator.obj
 0001:0000141c       ?QueryHitPoint@?$IViewObjectExImpl@VCOPOSToneIndicator@@@ATL@@UEAAJKPEBUtagRECT@@UtagPOINT@@JPEAK@Z 000000018000241c f i ToneIndicator.obj
 0001:00001460       ?QueryHitRect@?$IViewObjectExImpl@VCOPOSToneIndicator@@@ATL@@UEAAJKPEBUtagRECT@@0JPEAK@Z 0000000180002460 f i ToneIndicator.obj
 0001:000014c8       ?GetNaturalExtent@?$IViewObjectExImpl@VCOPOSToneIndicator@@@ATL@@UEAAJKJPEAUtagDVTARGETDEVICE@@PEAUHDC__@@PEAUtagExtentInfo@@PEAUtagSIZE@@@Z 00000001800024c8 f i ToneIndicator.obj
 0001:00001510       ?GetWindow@?$IOleInPlaceObjectWindowlessImpl@VCOPOSToneIndicator@@@ATL@@UEAAJPEAPEAUHWND__@@@Z 0000000180002510 f i ToneIndicator.obj
 0001:00001564       ?InPlaceDeactivate@?$IOleInPlaceObjectWindowlessImpl@VCOPOSToneIndicator@@@ATL@@UEAAJXZ 0000000180002564 f i ToneIndicator.obj
 0001:00001580       ?UIDeactivate@?$IOleInPlaceObjectWindowlessImpl@VCOPOSToneIndicator@@@ATL@@UEAAJXZ 0000000180002580 f i ToneIndicator.obj
 0001:0000159c       ?SetObjectRects@?$IOleInPlaceObjectWindowlessImpl@VCOPOSToneIndicator@@@ATL@@UEAAJPEBUtagRECT@@0@Z 000000018000259c f i ToneIndicator.obj
 0001:000015b8       ?OnWindowMessage@?$IOleInPlaceObjectWindowlessImpl@VCOPOSToneIndicator@@@ATL@@UEAAJI_K_JPEA_J@Z 00000001800025b8 f i ToneIndicator.obj
 0001:00001680       ?EnumConnectionPoints@?$IConnectionPointContainerImpl@VCOPOSToneIndicator@@@ATL@@UEAAJPEAPEAUIEnumConnectionPoints@@@Z 0000000180002680 f i ToneIndicator.obj
 0001:000018cc       ?FindConnectionPoint@?$IConnectionPointContainerImpl@VCOPOSToneIndicator@@@ATL@@UEAAJAEBU_GUID@@PEAPEAUIConnectionPoint@@@Z 00000001800028cc f i ToneIndicator.obj
 0001:0000199c       ?IsDirty@?$IPersistStorageImpl@VCOPOSToneIndicator@@@ATL@@UEAAJXZ 000000018000299c f i ToneIndicator.obj
 0001:000019dc       ?InitNew@?$IPersistStorageImpl@VCOPOSToneIndicator@@@ATL@@UEAAJPEAUIStorage@@@Z 00000001800029dc f i ToneIndicator.obj
 0001:00001a1c       ?Load@?$IPersistStorageImpl@VCOPOSToneIndicator@@@ATL@@UEAAJPEAUIStorage@@@Z 0000000180002a1c f i ToneIndicator.obj
 0001:00001abc       ?Save@?$IPersistStorageImpl@VCOPOSToneIndicator@@@ATL@@UEAAJPEAUIStorage@@H@Z 0000000180002abc f i ToneIndicator.obj
 0001:00001b6c       ?GetPages@?$ISpecifyPropertyPagesImpl@VCOPOSToneIndicator@@@ATL@@UEAAJPEAUtagCAUUID@@@Z 0000000180002b6c f i ToneIndicator.obj
 0001:00001b78       ?QuickActivate@?$IQuickActivateImpl@VCOPOSToneIndicator@@@ATL@@UEAAJPEAUtagQACONTAINER@@PEAUtagQACONTROL@@@Z 0000000180002b78 f i ToneIndicator.obj
 0001:00001b94       ?SetContentExtent@?$IQuickActivateImpl@VCOPOSToneIndicator@@@ATL@@UEAAJPEAUtagSIZE@@@Z 0000000180002b94 f i ToneIndicator.obj
 0001:00001bc8       ?GetContentExtent@?$IQuickActivateImpl@VCOPOSToneIndicator@@@ATL@@UEAAJPEAUtagSIZE@@@Z 0000000180002bc8 f i ToneIndicator.obj
 0001:00001c00       ?GetData@?$IDataObjectImpl@VCOPOSToneIndicator@@@ATL@@UEAAJPEAUtagFORMATETC@@PEAUtagSTGMEDIUM@@@Z 0000000180002c00 f i ToneIndicator.obj
 0001:00001c1c       ?DAdvise@?$IDataObjectImpl@VCOPOSToneIndicator@@@ATL@@UEAAJPEAUtagFORMATETC@@KPEAUIAdviseSink@@PEAK@Z 0000000180002c1c f i ToneIndicator.obj
 0001:00001ca4       ?DUnadvise@?$IDataObjectImpl@VCOPOSToneIndicator@@@ATL@@UEAAJK@Z 0000000180002ca4 f i ToneIndicator.obj
 0001:00001cd0       ?EnumDAdvise@?$IDataObjectImpl@VCOPOSToneIndicator@@@ATL@@UEAAJPEAPEAUIEnumSTATDATA@@@Z 0000000180002cd0 f i ToneIndicator.obj
 0001:00001d0c       ?GetClassInfoW@?$IProvideClassInfo2Impl@$1?CLSID_OPOSToneIndicator@@3U_GUID@@B$1?DIID__IOPOSToneIndicatorEvents@@3U2@B$1?LIBID_OposToneIndicator_CCO@@3U2@B$00$0A@VCComTypeInfoHolder@ATL@@@ATL@@UEAAJPEAPEAUITypeInfo@@@Z 0000000180002d0c f i ToneIndicator.obj
 0001:00001d64       ?GetGUID@?$IProvideClassInfo2Impl@$1?CLSID_OPOSToneIndicator@@3U_GUID@@B$1?DIID__IOPOSToneIndicatorEvents@@3U2@B$1?LIBID_OposToneIndicator_CCO@@3U2@B$00$0A@VCComTypeInfoHolder@ATL@@@ATL@@UEAAJKPEAU_GUID@@@Z 0000000180002d64 f i ToneIndicator.obj
 0001:00001d98       ?AddRef@CRegObject@ATL@@UEAAKXZ 0000000180002d98 f i ToneIndicator.obj
 0001:00001d98       ?FAccessAllowed@?$IObjectSafetyImpl@VCOPOSToneIndicator@@$02@ATL@@MEAAHXZ 0000000180002d98 f i ToneIndicator.obj
 0001:00001d98       _get_startup_argv_mode     0000000180002d98 f i LIBCMT:argv_mode.obj
 0001:00001da0       ?GetInterfaceSafetyOptions@?$IObjectSafetyImpl@VCOPOSToneIndicator@@$02@ATL@@UEAAJAEBU_GUID@@PEAK1@Z 0000000180002da0 f i ToneIndicator.obj
 0001:00001e34       ?SetInterfaceSafetyOptions@?$IObjectSafetyImpl@VCOPOSToneIndicator@@$02@ATL@@UEAAJAEBU_GUID@@KK@Z 0000000180002e34 f i ToneIndicator.obj
 0001:00001ed8       ?_LocCPQueryInterface@?$IConnectionPointImpl@VCOPOSToneIndicator@@$1?IID_IPropertyNotifySink@@3U_GUID@@BVCComDynamicUnkArray@ATL@@@ATL@@UEAAJAEBU_GUID@@PEAPEAX@Z 0000000180002ed8 f i ToneIndicator.obj
 0001:00001ed8       ?_LocCPQueryInterface@?$IConnectionPointImpl@VCOPOSToneIndicator@@$1?DIID__IOPOSToneIndicatorEvents@@3U_GUID@@BVCComDynamicUnkArray@ATL@@@ATL@@UEAAJAEBU_GUID@@PEAPEAX@Z 0000000180002ed8 f i ToneIndicator.obj
 0001:00001f48       ?GetConnectionInterface@?$IConnectionPointImpl@VCOPOSToneIndicator@@$1?IID_IPropertyNotifySink@@3U_GUID@@BVCComDynamicUnkArray@ATL@@@ATL@@UEAAJPEAU_GUID@@@Z 0000000180002f48 f i ToneIndicator.obj
 0001:00001f64       ?GetConnectionPointContainer@?$IConnectionPointImpl@VCOPOSToneIndicator@@$1?IID_IPropertyNotifySink@@3U_GUID@@BVCComDynamicUnkArray@ATL@@@ATL@@UEAAJPEAPEAUIConnectionPointContainer@@@Z 0000000180002f64 f i ToneIndicator.obj
 0001:00001f84       ?Advise@?$IConnectionPointImpl@VCOPOSToneIndicator@@$1?DIID__IOPOSToneIndicatorEvents@@3U_GUID@@BVCComDynamicUnkArray@ATL@@@ATL@@UEAAJPEAUIUnknown@@PEAK@Z 0000000180002f84 f i ToneIndicator.obj
 0001:00001f84       ?Advise@?$IConnectionPointImpl@VCOPOSToneIndicator@@$1?IID_IPropertyNotifySink@@3U_GUID@@BVCComDynamicUnkArray@ATL@@@ATL@@UEAAJPEAUIUnknown@@PEAK@Z 0000000180002f84 f i ToneIndicator.obj
 0001:00002040       ?Unadvise@?$IConnectionPointImpl@VCOPOSToneIndicator@@$1?IID_IPropertyNotifySink@@3U_GUID@@BVCComDynamicUnkArray@ATL@@@ATL@@UEAAJK@Z 0000000180003040 f i ToneIndicator.obj
 0001:00002040       ?Unadvise@?$IConnectionPointImpl@VCOPOSToneIndicator@@$1?DIID__IOPOSToneIndicatorEvents@@3U_GUID@@BVCComDynamicUnkArray@ATL@@@ATL@@UEAAJK@Z 0000000180003040 f i ToneIndicator.obj
 0001:000020a8       ?EnumConnections@?$IConnectionPointImpl@VCOPOSToneIndicator@@$1?DIID__IOPOSToneIndicatorEvents@@3U_GUID@@BVCComDynamicUnkArray@ATL@@@ATL@@UEAAJPEAPEAUIEnumConnections@@@Z 00000001800030a8 f i ToneIndicator.obj
 0001:000020a8       ?EnumConnections@?$IConnectionPointImpl@VCOPOSToneIndicator@@$1?IID_IPropertyNotifySink@@3U_GUID@@BVCComDynamicUnkArray@ATL@@@ATL@@UEAAJPEAPEAUIEnumConnections@@@Z 00000001800030a8 f i ToneIndicator.obj
 0001:00002254       ?GetConnectionInterface@?$IConnectionPointImpl@VCOPOSToneIndicator@@$1?DIID__IOPOSToneIndicatorEvents@@3U_GUID@@BVCComDynamicUnkArray@ATL@@@ATL@@UEAAJPEAU_GUID@@@Z 0000000180003254 f i ToneIndicator.obj
 0001:00002270       ?GetConnectionPointContainer@?$IConnectionPointImpl@VCOPOSToneIndicator@@$1?DIID__IOPOSToneIndicatorEvents@@3U_GUID@@BVCComDynamicUnkArray@ATL@@@ATL@@UEAAJPEAPEAUIConnectionPointContainer@@@Z 0000000180003270 f i ToneIndicator.obj
 0001:00002290       ?UpdateRegistry@COPOSToneIndicator@@SAJH@Z 0000000180003290 f i ToneIndicator.obj
 0001:000022a8       ?ProcessWindowMessage@COPOSToneIndicator@@UEAAHPEAUHWND__@@I_K_JAEA_JK@Z 00000001800032a8 f i ToneIndicator.obj
 0001:00002330       ?SODirectIO@COPOSToneIndicator@@MEAAJJPEAJPEAPEA_W@Z 0000000180003330 f i ToneIndicator.obj
 0001:000023a8       ?SOError@COPOSToneIndicator@@MEAAJJJJPEAJ@Z 00000001800033a8 f i ToneIndicator.obj
 0001:00002430       ?SOOutputComplete@COPOSToneIndicator@@MEAAJJ@Z 0000000180003430 f i ToneIndicator.obj
 0001:00002480       ?SOStatusUpdate@COPOSToneIndicator@@MEAAJJ@Z 0000000180003480 f i ToneIndicator.obj
 0001:000024d0       ?Lock@CAtlModule@ATL@@UEAAJXZ 00000001800034d0 f i ToneIndicator.obj
 0001:000024e0       ?Unlock@CAtlModule@ATL@@UEAAJXZ 00000001800034e0 f i ToneIndicator.obj
 0001:000024ec       ?GetLockCount@CAtlModule@ATL@@UEAAJXZ 00000001800034ec f i ToneIndicator.obj
 0001:000024f0       ?GetGITPtr@CAtlModule@ATL@@UEAAJPEAPEAUIGlobalInterfaceTable@@@Z 00000001800034f0 f i ToneIndicator.obj
 0001:00002560       ?AddCommonRGSReplacements@?$CAtlModuleT@VCComModule@ATL@@@ATL@@UEAAJPEAUIRegistrarBase@@@Z 0000000180003560 f i ToneIndicator.obj
 0001:00002578       ?CreateInstance@?$CComCreator@V?$CComObjectCached@VCComClassFactory@ATL@@@ATL@@@ATL@@SAJPEAXAEBU_GUID@@PEAPEAX@Z 0000000180003578 f i ToneIndicator.obj
 0001:0000269c       ?UpdateRegistryFromResourceD@CComModule@ATL@@UEAAJIHPEAU_ATL_REGMAP_ENTRY@2@@Z 000000018000369c f i ToneIndicator.obj
 0001:0000269c       ?UpdateRegistryFromResourceD@CComModule@ATL@@UEAAJPEB_WHPEAU_ATL_REGMAP_ENTRY@2@@Z 000000018000369c f i ToneIndicator.obj
 0001:000026a4       ?CreateInstance@?$CComCreator2@V?$CComCreator@V?$CComObject@VCOPOSToneIndicator@@@ATL@@@ATL@@V?$CComCreator@V?$CComAggObject@VCOPOSToneIndicator@@@ATL@@@2@@ATL@@SAJPEAXAEBU_GUID@@PEAPEAX@Z 00000001800036a4 f i ToneIndicator.obj
 0001:000026b4       ?UpdateRegistryFromResource@CComModule@ATL@@UEAAJPEB_WHPEAU_ATL_REGMAP_ENTRY@2@@Z 00000001800036b4 f i ToneIndicator.obj
 0001:000026bc       ?UpdateRegistryFromResource@CComModule@ATL@@UEAAJIHPEAU_ATL_REGMAP_ENTRY@2@@Z 00000001800036bc f i ToneIndicator.obj
 0001:000026c4       ?AddRef@?$CComObjectCached@VCComClassFactory@ATL@@@ATL@@UEAAKXZ 00000001800036c4 f i ToneIndicator.obj
 0001:000026f0       ?Release@?$CComObjectCached@VCComClassFactory@ATL@@@ATL@@UEAAKXZ 00000001800036f0 f i ToneIndicator.obj
 0001:00002730       ?QueryInterface@?$CComObjectCached@VCComClassFactory@ATL@@@ATL@@UEAAJAEBU_GUID@@PEAPEAX@Z 0000000180003730 f i ToneIndicator.obj
 0001:00002744       ??_GCComModule@ATL@@UEAAPEAXI@Z 0000000180003744 f i ToneIndicator.obj
 0001:00002744       ??_ECComModule@ATL@@UEAAPEAXI@Z 0000000180003744 f i ToneIndicator.obj
 0001:00002784       ??_E?$CComObjectCached@VCComClassFactory@ATL@@@ATL@@UEAAPEAXI@Z 0000000180003784 f i ToneIndicator.obj
 0001:00002784       ??_G?$CComObjectCached@VCComClassFactory@ATL@@@ATL@@UEAAPEAXI@Z 0000000180003784 f i ToneIndicator.obj
 0001:000027dc       ?Next@?$CComEnumImpl@UIEnumConnectionPoints@@$1?_GUID_b196b285_bab4_101a_b69c_00aa00341d07@@3U__s_GUID@@BPEAUIConnectionPoint@@V?$_CopyInterface@UIConnectionPoint@@@ATL@@@ATL@@UEAAJKPEAPEAUIConnectionPoint@@PEAK@Z 00000001800037dc f i ToneIndicator.obj
 0001:000028a8       ?Skip@?$CComEnumImpl@UIEnumConnectionPoints@@$1?_GUID_b196b285_bab4_101a_b69c_00aa00341d07@@3U__s_GUID@@BPEAUIConnectionPoint@@V?$_CopyInterface@UIConnectionPoint@@@ATL@@@ATL@@UEAAJK@Z 00000001800038a8 f i ToneIndicator.obj
 0001:000028d4       ?Reset@?$CComEnumImpl@UIEnumConnections@@$1?_GUID_b196b287_bab4_101a_b69c_00aa00341d07@@3U__s_GUID@@BUtagCONNECTDATA@@V?$_Copy@UtagCONNECTDATA@@@ATL@@@ATL@@UEAAJXZ 00000001800038d4 f i ToneIndicator.obj
 0001:000028d4       ?Reset@?$CComEnumImpl@UIEnumConnectionPoints@@$1?_GUID_b196b285_bab4_101a_b69c_00aa00341d07@@3U__s_GUID@@BPEAUIConnectionPoint@@V?$_CopyInterface@UIConnectionPoint@@@ATL@@@ATL@@UEAAJXZ 00000001800038d4 f i ToneIndicator.obj
 0001:000028e0       ?Clone@?$CComEnumImpl@UIEnumConnectionPoints@@$1?_GUID_b196b285_bab4_101a_b69c_00aa00341d07@@3U__s_GUID@@BPEAUIConnectionPoint@@V?$_CopyInterface@UIConnectionPoint@@@ATL@@@ATL@@UEAAJPEAPEAUIEnumConnectionPoints@@@Z 00000001800038e0 f i ToneIndicator.obj
 0001:00002a0c       ?AddRef@?$CComObject@V?$CComEnum@UIEnumConnections@@$1?_GUID_b196b287_bab4_101a_b69c_00aa00341d07@@3U__s_GUID@@BUtagCONNECTDATA@@V?$_Copy@UtagCONNECTDATA@@@ATL@@VCComSingleThreadModel@6@@ATL@@@ATL@@UEAAKXZ 0000000180003a0c f i ToneIndicator.obj
 0001:00002a0c       ?AddRef@?$CComObject@V?$CComEnum@UIEnumConnectionPoints@@$1?_GUID_b196b285_bab4_101a_b69c_00aa00341d07@@3U__s_GUID@@BPEAUIConnectionPoint@@V?$_CopyInterface@UIConnectionPoint@@@ATL@@VCComSingleThreadModel@6@@ATL@@@ATL@@UEAAKXZ 0000000180003a0c f i ToneIndicator.obj
 0001:00002a18       ?Release@?$CComObject@V?$CComEnum@UIEnumConnectionPoints@@$1?_GUID_b196b285_bab4_101a_b69c_00aa00341d07@@3U__s_GUID@@BPEAUIConnectionPoint@@V?$_CopyInterface@UIConnectionPoint@@@ATL@@VCComSingleThreadModel@6@@ATL@@@ATL@@UEAAKXZ 0000000180003a18 f i ToneIndicator.obj
 0001:00002a18       ?Release@?$CComObject@V?$CComEnum@UIEnumConnections@@$1?_GUID_b196b287_bab4_101a_b69c_00aa00341d07@@3U__s_GUID@@BUtagCONNECTDATA@@V?$_Copy@UtagCONNECTDATA@@@ATL@@VCComSingleThreadModel@6@@ATL@@@ATL@@UEAAKXZ 0000000180003a18 f i ToneIndicator.obj
 0001:00002a6c       ?QueryInterface@?$CComObject@V?$CComEnum@UIEnumConnectionPoints@@$1?_GUID_b196b285_bab4_101a_b69c_00aa00341d07@@3U__s_GUID@@BPEAUIConnectionPoint@@V?$_CopyInterface@UIConnectionPoint@@@ATL@@VCComSingleThreadModel@6@@ATL@@@ATL@@UEAAJAEBU_GUID@@PEAPEAX@Z 0000000180003a6c f i ToneIndicator.obj
 0001:00002a80       ??_E?$CComObject@V?$CComEnum@UIEnumConnectionPoints@@$1?_GUID_b196b285_bab4_101a_b69c_00aa00341d07@@3U__s_GUID@@BPEAUIConnectionPoint@@V?$_CopyInterface@UIConnectionPoint@@@ATL@@VCComSingleThreadModel@6@@ATL@@@ATL@@UEAAPEAXI@Z 0000000180003a80 f i ToneIndicator.obj
 0001:00002a80       ??_G?$CComObject@V?$CComEnum@UIEnumConnectionPoints@@$1?_GUID_b196b285_bab4_101a_b69c_00aa00341d07@@3U__s_GUID@@BPEAUIConnectionPoint@@V?$_CopyInterface@UIConnectionPoint@@@ATL@@VCComSingleThreadModel@6@@ATL@@@ATL@@UEAAPEAXI@Z 0000000180003a80 f i ToneIndicator.obj
 0001:00002ad8       ?AddReplacement@CRegObject@ATL@@UEAAJPEB_W0@Z 0000000180003ad8 f i ToneIndicator.obj
 0001:00002b08       ?ClearReplacements@CRegObject@ATL@@UEAAJXZ 0000000180003b08 f i ToneIndicator.obj
 0001:00002b14       ??_GCRegObject@ATL@@UEAAPEAXI@Z 0000000180003b14 f i ToneIndicator.obj
 0001:00002b14       ??_ECRegObject@ATL@@UEAAPEAXI@Z 0000000180003b14 f i ToneIndicator.obj
 0001:00002b94       ?AddRef@?$CComAggObject@VCOPOSToneIndicator@@@ATL@@UEAAKXZ 0000000180003b94 f i ToneIndicator.obj
 0001:00002ba0       ?Release@?$CComAggObject@VCOPOSToneIndicator@@@ATL@@UEAAKXZ 0000000180003ba0 f i ToneIndicator.obj
 0001:00002bf4       ?QueryInterface@?$CComAggObject@VCOPOSToneIndicator@@@ATL@@UEAAJAEBU_GUID@@PEAPEAX@Z 0000000180003bf4 f i ToneIndicator.obj
 0001:00002c54       ?AddRef@?$CComContainedObject@VCOPOSToneIndicator@@@ATL@@UEAAKXZ 0000000180003c54 f i ToneIndicator.obj
 0001:00002c64       ?Release@?$CComContainedObject@VCOPOSToneIndicator@@@ATL@@UEAAKXZ 0000000180003c64 f i ToneIndicator.obj
 0001:00002c74       ?QueryInterface@?$CComContainedObject@VCOPOSToneIndicator@@@ATL@@UEAAJAEBU_GUID@@PEAPEAX@Z 0000000180003c74 f i ToneIndicator.obj
 0001:00002c84       ??_E?$CComAggObject@VCOPOSToneIndicator@@@ATL@@UEAAPEAXI@Z 0000000180003c84 f i ToneIndicator.obj
 0001:00002c84       ??_G?$CComAggObject@VCOPOSToneIndicator@@@ATL@@UEAAPEAXI@Z 0000000180003c84 f i ToneIndicator.obj
 0001:00002cdc       ?AddRef@?$CComObject@VCOPOSToneIndicator@@@ATL@@UEAAKXZ 0000000180003cdc f i ToneIndicator.obj
 0001:00002cec       ?Release@?$CComObject@VCOPOSToneIndicator@@@ATL@@UEAAKXZ 0000000180003cec f i ToneIndicator.obj
 0001:00002d44       ?QueryInterface@?$CComObject@VCOPOSToneIndicator@@@ATL@@UEAAJAEBU_GUID@@PEAPEAX@Z 0000000180003d44 f i ToneIndicator.obj
 0001:00002d58       ?OnDrawAdvanced@CComControlBase@ATL@@UEAAJAEAUATL_DRAWINFO@@@Z 0000000180003d58 f i ToneIndicator.obj
 0001:00002ee4       ?Next@?$CComEnumImpl@UIEnumConnections@@$1?_GUID_b196b287_bab4_101a_b69c_00aa00341d07@@3U__s_GUID@@BUtagCONNECTDATA@@V?$_Copy@UtagCONNECTDATA@@@ATL@@@ATL@@UEAAJKPEAUtagCONNECTDATA@@PEAK@Z 0000000180003ee4 f i ToneIndicator.obj
 0001:00002fb8       ?Skip@?$CComEnumImpl@UIEnumConnections@@$1?_GUID_b196b287_bab4_101a_b69c_00aa00341d07@@3U__s_GUID@@BUtagCONNECTDATA@@V?$_Copy@UtagCONNECTDATA@@@ATL@@@ATL@@UEAAJK@Z 0000000180003fb8 f i ToneIndicator.obj
 0001:00002fe4       ?Clone@?$CComEnumImpl@UIEnumConnections@@$1?_GUID_b196b287_bab4_101a_b69c_00aa00341d07@@3U__s_GUID@@BUtagCONNECTDATA@@V?$_Copy@UtagCONNECTDATA@@@ATL@@@ATL@@UEAAJPEAPEAUIEnumConnections@@@Z 0000000180003fe4 f i ToneIndicator.obj
 0001:00003110       ?QueryInterface@?$CComObject@V?$CComEnum@UIEnumConnections@@$1?_GUID_b196b287_bab4_101a_b69c_00aa00341d07@@3U__s_GUID@@BUtagCONNECTDATA@@V?$_Copy@UtagCONNECTDATA@@@ATL@@VCComSingleThreadModel@6@@ATL@@@ATL@@UEAAJAEBU_GUID@@PEAPEAX@Z 0000000180004110 f i ToneIndicator.obj
 0001:00003124       ??_E?$CComObject@V?$CComEnum@UIEnumConnections@@$1?_GUID_b196b287_bab4_101a_b69c_00aa00341d07@@3U__s_GUID@@BUtagCONNECTDATA@@V?$_Copy@UtagCONNECTDATA@@@ATL@@VCComSingleThreadModel@6@@ATL@@@ATL@@UEAAPEAXI@Z 0000000180004124 f i ToneIndicator.obj
 0001:00003124       ??_G?$CComObject@V?$CComEnum@UIEnumConnections@@$1?_GUID_b196b287_bab4_101a_b69c_00aa00341d07@@3U__s_GUID@@BUtagCONNECTDATA@@V?$_Copy@UtagCONNECTDATA@@@ATL@@VCComSingleThreadModel@6@@ATL@@@ATL@@UEAAPEAXI@Z 0000000180004124 f i ToneIndicator.obj
 0001:0000317c       ??_E?$CComObject@VCOPOSToneIndicator@@@ATL@@W7EAAPEAXI@Z 000000018000417c f i ToneIndicator.obj
 0001:00003188       ??_E?$CComObject@VCOPOSToneIndicator@@@ATL@@WHA@EAAPEAXI@Z 0000000180004188 f i ToneIndicator.obj
 0001:00003194       ?QueryInterface@?$CComObject@VCOPOSToneIndicator@@@ATL@@WLI@EAAJAEBU_GUID@@PEAPEAX@Z 0000000180004194 f i ToneIndicator.obj
 0001:000031a0       ?AddRef@?$CComObject@VCOPOSToneIndicator@@@ATL@@WLI@EAAKXZ 00000001800041a0 f i ToneIndicator.obj
 0001:000031ac       ?Release@?$CComObject@VCOPOSToneIndicator@@@ATL@@WLI@EAAKXZ 00000001800041ac f i ToneIndicator.obj
 0001:000031b8       ?QueryInterface@?$CComObject@VCOPOSToneIndicator@@@ATL@@WMA@EAAJAEBU_GUID@@PEAPEAX@Z 00000001800041b8 f i ToneIndicator.obj
 0001:000031c4       ?AddRef@?$CComObject@VCOPOSToneIndicator@@@ATL@@WMA@EAAKXZ 00000001800041c4 f i ToneIndicator.obj
 0001:000031d0       ?Release@?$CComObject@VCOPOSToneIndicator@@@ATL@@WMA@EAAKXZ 00000001800041d0 f i ToneIndicator.obj
 0001:000031dc       ?QueryInterface@?$CComObject@VCOPOSToneIndicator@@@ATL@@WMI@EAAJAEBU_GUID@@PEAPEAX@Z 00000001800041dc f i ToneIndicator.obj
 0001:000031e8       ?AddRef@?$CComObject@VCOPOSToneIndicator@@@ATL@@WMI@EAAKXZ 00000001800041e8 f i ToneIndicator.obj
 0001:000031f4       ?Release@?$CComObject@VCOPOSToneIndicator@@@ATL@@WMI@EAAKXZ 00000001800041f4 f i ToneIndicator.obj
 0001:00003200       ?QueryInterface@?$CComObject@VCOPOSToneIndicator@@@ATL@@WNA@EAAJAEBU_GUID@@PEAPEAX@Z 0000000180004200 f i ToneIndicator.obj
 0001:0000320c       ?AddRef@?$CComObject@VCOPOSToneIndicator@@@ATL@@WNA@EAAKXZ 000000018000420c f i ToneIndicator.obj
 0001:00003218       ?Release@?$CComObject@VCOPOSToneIndicator@@@ATL@@WNA@EAAKXZ 0000000180004218 f i ToneIndicator.obj
 0001:00003224       ?QueryInterface@?$CComObject@VCOPOSToneIndicator@@@ATL@@WNI@EAAJAEBU_GUID@@PEAPEAX@Z 0000000180004224 f i ToneIndicator.obj
 0001:00003230       ?AddRef@?$CComObject@VCOPOSToneIndicator@@@ATL@@WNI@EAAKXZ 0000000180004230 f i ToneIndicator.obj
 0001:0000323c       ?Release@?$CComObject@VCOPOSToneIndicator@@@ATL@@WNI@EAAKXZ 000000018000423c f i ToneIndicator.obj
 0001:00003248       ?QueryInterface@?$CComObject@VCOPOSToneIndicator@@@ATL@@WOA@EAAJAEBU_GUID@@PEAPEAX@Z 0000000180004248 f i ToneIndicator.obj
 0001:00003254       ?AddRef@?$CComObject@VCOPOSToneIndicator@@@ATL@@WOA@EAAKXZ 0000000180004254 f i ToneIndicator.obj
 0001:00003260       ?Release@?$CComObject@VCOPOSToneIndicator@@@ATL@@WOA@EAAKXZ 0000000180004260 f i ToneIndicator.obj
 0001:0000326c       ?QueryInterface@?$CComObject@VCOPOSToneIndicator@@@ATL@@WOI@EAAJAEBU_GUID@@PEAPEAX@Z 000000018000426c f i ToneIndicator.obj
 0001:00003278       ?AddRef@?$CComObject@VCOPOSToneIndicator@@@ATL@@WOI@EAAKXZ 0000000180004278 f i ToneIndicator.obj
 0001:00003284       ?Release@?$CComObject@VCOPOSToneIndicator@@@ATL@@WOI@EAAKXZ 0000000180004284 f i ToneIndicator.obj
 0001:00003290       ?QueryInterface@?$CComObject@VCOPOSToneIndicator@@@ATL@@WPA@EAAJAEBU_GUID@@PEAPEAX@Z 0000000180004290 f i ToneIndicator.obj
 0001:0000329c       ?AddRef@?$CComObject@VCOPOSToneIndicator@@@ATL@@WPA@EAAKXZ 000000018000429c f i ToneIndicator.obj
 0001:000032a8       ?Release@?$CComObject@VCOPOSToneIndicator@@@ATL@@WPA@EAAKXZ 00000001800042a8 f i ToneIndicator.obj
 0001:000032b4       ?QueryInterface@?$CComObject@VCOPOSToneIndicator@@@ATL@@WPI@EAAJAEBU_GUID@@PEAPEAX@Z 00000001800042b4 f i ToneIndicator.obj
 0001:000032c0       ?AddRef@?$CComObject@VCOPOSToneIndicator@@@ATL@@WPI@EAAKXZ 00000001800042c0 f i ToneIndicator.obj
 0001:000032cc       ?Release@?$CComObject@VCOPOSToneIndicator@@@ATL@@WPI@EAAKXZ 00000001800042cc f i ToneIndicator.obj
 0001:000032d8       ?QueryInterface@?$CComObject@VCOPOSToneIndicator@@@ATL@@WBAA@EAAJAEBU_GUID@@PEAPEAX@Z 00000001800042d8 f i ToneIndicator.obj
 0001:000032e4       ?AddRef@?$CComObject@VCOPOSToneIndicator@@@ATL@@WBAA@EAAKXZ 00000001800042e4 f i ToneIndicator.obj
 0001:000032f0       ?Release@?$CComObject@VCOPOSToneIndicator@@@ATL@@WBAA@EAAKXZ 00000001800042f0 f i ToneIndicator.obj
 0001:000032fc       ?QueryInterface@?$CComObject@VCOPOSToneIndicator@@@ATL@@WBAI@EAAJAEBU_GUID@@PEAPEAX@Z 00000001800042fc f i ToneIndicator.obj
 0001:00003308       ?AddRef@?$CComObject@VCOPOSToneIndicator@@@ATL@@WBAI@EAAKXZ 0000000180004308 f i ToneIndicator.obj
 0001:00003314       ?Release@?$CComObject@VCOPOSToneIndicator@@@ATL@@WBAI@EAAKXZ 0000000180004314 f i ToneIndicator.obj
 0001:00003320       ?QueryInterface@?$CComObject@VCOPOSToneIndicator@@@ATL@@WBBA@EAAJAEBU_GUID@@PEAPEAX@Z 0000000180004320 f i ToneIndicator.obj
 0001:0000332c       ?AddRef@?$CComObject@VCOPOSToneIndicator@@@ATL@@WBBA@EAAKXZ 000000018000432c f i ToneIndicator.obj
 0001:00003338       ?Release@?$CComObject@VCOPOSToneIndicator@@@ATL@@WBBA@EAAKXZ 0000000180004338 f i ToneIndicator.obj
 0001:00003344       ?QueryInterface@?$CComObject@VCOPOSToneIndicator@@@ATL@@WBBI@EAAJAEBU_GUID@@PEAPEAX@Z 0000000180004344 f i ToneIndicator.obj
 0001:00003350       ?AddRef@?$CComObject@VCOPOSToneIndicator@@@ATL@@WBBI@EAAKXZ 0000000180004350 f i ToneIndicator.obj
 0001:0000335c       ?Release@?$CComObject@VCOPOSToneIndicator@@@ATL@@WBBI@EAAKXZ 000000018000435c f i ToneIndicator.obj
 0001:00003368       ?AddRef@?$CComObject@VCOPOSToneIndicator@@@ATL@@WBCI@EAAKXZ 0000000180004368 f i ToneIndicator.obj
 0001:00003374       ?Release@?$CComObject@VCOPOSToneIndicator@@@ATL@@WBCI@EAAKXZ 0000000180004374 f i ToneIndicator.obj
 0001:00003380       ?AddRef@?$CComObject@VCOPOSToneIndicator@@@ATL@@WBEA@EAAKXZ 0000000180004380 f i ToneIndicator.obj
 0001:0000338c       ?Release@?$CComObject@VCOPOSToneIndicator@@@ATL@@WBEA@EAAKXZ 000000018000438c f i ToneIndicator.obj
 0001:00003398       ??_E?$CComContainedObject@VCOPOSToneIndicator@@@ATL@@W7EAAPEAXI@Z 0000000180004398 f i ToneIndicator.obj
 0001:000033a4       ??_E?$CComContainedObject@VCOPOSToneIndicator@@@ATL@@WHA@EAAPEAXI@Z 00000001800043a4 f i ToneIndicator.obj
 0001:000033b0       ?QueryInterface@?$CComContainedObject@VCOPOSToneIndicator@@@ATL@@WLI@EAAJAEBU_GUID@@PEAPEAX@Z 00000001800043b0 f i ToneIndicator.obj
 0001:000033bc       ?AddRef@?$CComContainedObject@VCOPOSToneIndicator@@@ATL@@WLI@EAAKXZ 00000001800043bc f i ToneIndicator.obj
 0001:000033c8       ?Release@?$CComContainedObject@VCOPOSToneIndicator@@@ATL@@WLI@EAAKXZ 00000001800043c8 f i ToneIndicator.obj
 0001:000033d4       ?QueryInterface@?$CComContainedObject@VCOPOSToneIndicator@@@ATL@@WMA@EAAJAEBU_GUID@@PEAPEAX@Z 00000001800043d4 f i ToneIndicator.obj
 0001:000033e0       ?AddRef@?$CComContainedObject@VCOPOSToneIndicator@@@ATL@@WMA@EAAKXZ 00000001800043e0 f i ToneIndicator.obj
 0001:000033ec       ?Release@?$CComContainedObject@VCOPOSToneIndicator@@@ATL@@WMA@EAAKXZ 00000001800043ec f i ToneIndicator.obj
 0001:000033f8       ?QueryInterface@?$CComContainedObject@VCOPOSToneIndicator@@@ATL@@WMI@EAAJAEBU_GUID@@PEAPEAX@Z 00000001800043f8 f i ToneIndicator.obj
 0001:00003404       ?AddRef@?$CComContainedObject@VCOPOSToneIndicator@@@ATL@@WMI@EAAKXZ 0000000180004404 f i ToneIndicator.obj
 0001:00003410       ?Release@?$CComContainedObject@VCOPOSToneIndicator@@@ATL@@WMI@EAAKXZ 0000000180004410 f i ToneIndicator.obj
 0001:0000341c       ?QueryInterface@?$CComContainedObject@VCOPOSToneIndicator@@@ATL@@WNA@EAAJAEBU_GUID@@PEAPEAX@Z 000000018000441c f i ToneIndicator.obj
 0001:00003428       ?AddRef@?$CComContainedObject@VCOPOSToneIndicator@@@ATL@@WNA@EAAKXZ 0000000180004428 f i ToneIndicator.obj
 0001:00003434       ?Release@?$CComContainedObject@VCOPOSToneIndicator@@@ATL@@WNA@EAAKXZ 0000000180004434 f i ToneIndicator.obj
 0001:00003440       ?QueryInterface@?$CComContainedObject@VCOPOSToneIndicator@@@ATL@@WNI@EAAJAEBU_GUID@@PEAPEAX@Z 0000000180004440 f i ToneIndicator.obj
 0001:0000344c       ?AddRef@?$CComContainedObject@VCOPOSToneIndicator@@@ATL@@WNI@EAAKXZ 000000018000444c f i ToneIndicator.obj
 0001:00003458       ?Release@?$CComContainedObject@VCOPOSToneIndicator@@@ATL@@WNI@EAAKXZ 0000000180004458 f i ToneIndicator.obj
 0001:00003464       ?QueryInterface@?$CComContainedObject@VCOPOSToneIndicator@@@ATL@@WOA@EAAJAEBU_GUID@@PEAPEAX@Z 0000000180004464 f i ToneIndicator.obj
 0001:00003470       ?AddRef@?$CComContainedObject@VCOPOSToneIndicator@@@ATL@@WOA@EAAKXZ 0000000180004470 f i ToneIndicator.obj
 0001:0000347c       ?Release@?$CComContainedObject@VCOPOSToneIndicator@@@ATL@@WOA@EAAKXZ 000000018000447c f i ToneIndicator.obj
 0001:00003488       ?QueryInterface@?$CComContainedObject@VCOPOSToneIndicator@@@ATL@@WOI@EAAJAEBU_GUID@@PEAPEAX@Z 0000000180004488 f i ToneIndicator.obj
 0001:00003494       ?AddRef@?$CComContainedObject@VCOPOSToneIndicator@@@ATL@@WOI@EAAKXZ 0000000180004494 f i ToneIndicator.obj
 0001:000034a0       ?Release@?$CComContainedObject@VCOPOSToneIndicator@@@ATL@@WOI@EAAKXZ 00000001800044a0 f i ToneIndicator.obj
 0001:000034ac       ?QueryInterface@?$CComContainedObject@VCOPOSToneIndicator@@@ATL@@WPA@EAAJAEBU_GUID@@PEAPEAX@Z 00000001800044ac f i ToneIndicator.obj
 0001:000034b8       ?AddRef@?$CComContainedObject@VCOPOSToneIndicator@@@ATL@@WPA@EAAKXZ 00000001800044b8 f i ToneIndicator.obj
 0001:000034c4       ?Release@?$CComContainedObject@VCOPOSToneIndicator@@@ATL@@WPA@EAAKXZ 00000001800044c4 f i ToneIndicator.obj
 0001:000034d0       ?QueryInterface@?$CComContainedObject@VCOPOSToneIndicator@@@ATL@@WPI@EAAJAEBU_GUID@@PEAPEAX@Z 00000001800044d0 f i ToneIndicator.obj
 0001:000034dc       ?AddRef@?$CComContainedObject@VCOPOSToneIndicator@@@ATL@@WPI@EAAKXZ 00000001800044dc f i ToneIndicator.obj
 0001:000034e8       ?Release@?$CComContainedObject@VCOPOSToneIndicator@@@ATL@@WPI@EAAKXZ 00000001800044e8 f i ToneIndicator.obj
 0001:000034f4       ?QueryInterface@?$CComContainedObject@VCOPOSToneIndicator@@@ATL@@WBAA@EAAJAEBU_GUID@@PEAPEAX@Z 00000001800044f4 f i ToneIndicator.obj
 0001:00003500       ?AddRef@?$CComContainedObject@VCOPOSToneIndicator@@@ATL@@WBAA@EAAKXZ 0000000180004500 f i ToneIndicator.obj
 0001:0000350c       ?Release@?$CComContainedObject@VCOPOSToneIndicator@@@ATL@@WBAA@EAAKXZ 000000018000450c f i ToneIndicator.obj
 0001:00003518       ?QueryInterface@?$CComContainedObject@VCOPOSToneIndicator@@@ATL@@WBAI@EAAJAEBU_GUID@@PEAPEAX@Z 0000000180004518 f i ToneIndicator.obj
 0001:00003524       ?AddRef@?$CComContainedObject@VCOPOSToneIndicator@@@ATL@@WBAI@EAAKXZ 0000000180004524 f i ToneIndicator.obj
 0001:00003530       ?Release@?$CComContainedObject@VCOPOSToneIndicator@@@ATL@@WBAI@EAAKXZ 0000000180004530 f i ToneIndicator.obj
 0001:0000353c       ?QueryInterface@?$CComContainedObject@VCOPOSToneIndicator@@@ATL@@WBBA@EAAJAEBU_GUID@@PEAPEAX@Z 000000018000453c f i ToneIndicator.obj
 0001:00003548       ?AddRef@?$CComContainedObject@VCOPOSToneIndicator@@@ATL@@WBBA@EAAKXZ 0000000180004548 f i ToneIndicator.obj
 0001:00003554       ?Release@?$CComContainedObject@VCOPOSToneIndicator@@@ATL@@WBBA@EAAKXZ 0000000180004554 f i ToneIndicator.obj
 0001:00003560       ?QueryInterface@?$CComContainedObject@VCOPOSToneIndicator@@@ATL@@WBBI@EAAJAEBU_GUID@@PEAPEAX@Z 0000000180004560 f i ToneIndicator.obj
 0001:0000356c       ?AddRef@?$CComContainedObject@VCOPOSToneIndicator@@@ATL@@WBBI@EAAKXZ 000000018000456c f i ToneIndicator.obj
 0001:00003578       ?Release@?$CComContainedObject@VCOPOSToneIndicator@@@ATL@@WBBI@EAAKXZ 0000000180004578 f i ToneIndicator.obj
 0001:00003584       ?AddRef@?$CComContainedObject@VCOPOSToneIndicator@@@ATL@@WBCI@EAAKXZ 0000000180004584 f i ToneIndicator.obj
 0001:00003590       ?Release@?$CComContainedObject@VCOPOSToneIndicator@@@ATL@@WBCI@EAAKXZ 0000000180004590 f i ToneIndicator.obj
 0001:0000359c       ?AddRef@?$CComContainedObject@VCOPOSToneIndicator@@@ATL@@WBEA@EAAKXZ 000000018000459c f i ToneIndicator.obj
 0001:000035a8       ?Release@?$CComContainedObject@VCOPOSToneIndicator@@@ATL@@WBEA@EAAKXZ 00000001800045a8 f i ToneIndicator.obj
 0001:000035b4       ?CreateInstance@CComClassFactory@ATL@@UEAAJPEAUIUnknown@@AEBU_GUID@@PEAPEAX@Z 00000001800045b4 f i ToneIndicator.obj
 0001:00003614       ?LockServer@CComClassFactory@ATL@@UEAAJH@Z 0000000180004614 f i ToneIndicator.obj
 0001:00003638       ??_GCComClassFactory@ATL@@UEAAPEAXI@Z 0000000180004638 f i ToneIndicator.obj
 0001:00003638       ??_ECComClassFactory@ATL@@UEAAPEAXI@Z 0000000180004638 f i ToneIndicator.obj
 0001:00003688       ??$AtlModuleRegisterWndClassInfoT@VAtlModuleRegisterWndClassInfoParamW@ATL@@@ATL@@YAGPEAU_ATL_BASE_MODULE70@0@PEAU_ATL_WIN_MODULE70@0@PEAU_ATL_WNDCLASSINFOW@0@PEAP6A_JPEAUHWND__@@I_K_J@ZVAtlModuleRegisterWndClassInfoParamW@0@@Z 0000000180004688 f i ToneIndicator.obj
 0001:00003888       ??0?$CComContainedObject@VCOPOSToneIndicator@@@ATL@@QEAA@PEAX@Z 0000000180004888 f i ToneIndicator.obj
 0001:000039a4       ??0?$CComObject@VCOPOSToneIndicator@@@ATL@@QEAA@PEAX@Z 00000001800049a4 f i ToneIndicator.obj
 0001:00003abc       ??0CAtlModule@ATL@@QEAA@XZ 0000000180004abc f i ToneIndicator.obj
 0001:00003b30       ??1?$CComEnumImpl@UIEnumConnectionPoints@@$1?_GUID_b196b285_bab4_101a_b69c_00aa00341d07@@3U__s_GUID@@BPEAUIConnectionPoint@@V?$_CopyInterface@UIConnectionPoint@@@ATL@@@ATL@@UEAA@XZ 0000000180004b30 f i ToneIndicator.obj
 0001:00003b8c       ??1?$CComEnumImpl@UIEnumConnections@@$1?_GUID_b196b287_bab4_101a_b69c_00aa00341d07@@3U__s_GUID@@BUtagCONNECTDATA@@V?$_Copy@UtagCONNECTDATA@@@ATL@@@ATL@@UEAA@XZ 0000000180004b8c f i ToneIndicator.obj
 0001:00003be8       ??1?$CComObject@VCOPOSToneIndicator@@@ATL@@UEAA@XZ 0000000180004be8 f i ToneIndicator.obj
 0001:00003d08       ??_G?$CComContainedObject@VCOPOSToneIndicator@@@ATL@@UEAAPEAXI@Z 0000000180004d08 f i ToneIndicator.obj
 0001:00003d08       ??_E?$CComContainedObject@VCOPOSToneIndicator@@@ATL@@UEAAPEAXI@Z 0000000180004d08 f i ToneIndicator.obj
 0001:00003d3c       ??_E?$CComObject@VCOPOSToneIndicator@@@ATL@@UEAAPEAXI@Z 0000000180004d3c f i ToneIndicator.obj
 0001:00003d3c       ??_G?$CComObject@VCOPOSToneIndicator@@@ATL@@UEAAPEAXI@Z 0000000180004d3c f i ToneIndicator.obj
 0001:00003d70       ?Add@?$CSimpleArray@GV?$CSimpleArrayEqualHelper@G@ATL@@@ATL@@QEAAHAEBG@Z 0000000180004d70 f i ToneIndicator.obj
 0001:00003e24       ?Add@?$CSimpleMap@PEA_WPEA_WVCExpansionVectorEqualHelper@ATL@@@ATL@@QEAAHAEBQEA_W0@Z 0000000180004e24 f i ToneIndicator.obj
 0001:00003ec4       ?Add@CComDynamicUnkArray@ATL@@QEAAKPEAUIUnknown@@@Z 0000000180004ec4 f i ToneIndicator.obj
 0001:00003fb0       ?Add@CExpansionVector@ATL@@QEAAHPEB_W0@Z 0000000180004fb0 f i ToneIndicator.obj
 0001:000040e4       ?AddTermFunc@CAtlModule@ATL@@QEAAJP6AX_K@Z0@Z 00000001800050e4 f i ToneIndicator.obj
 0001:00004180       ?AddValue@CRegParser@ATL@@IEAAJAEAVCRegKey@2@PEB_WPEA_W@Z 0000000180005180 f i ToneIndicator.obj
 0001:000045c8       ?AllocateHeap@?$CTempBuffer@_W$0BAA@VCCRTAllocator@ATL@@@ATL@@AEAAX_K@Z 00000001800055c8 f i ToneIndicator.obj
 0001:000045c8       ?AllocateHeap@?$CTempBuffer@_W$0EAA@VCCRTAllocator@ATL@@@ATL@@AEAAX_K@Z 00000001800055c8 f i ToneIndicator.obj
 0001:000045c8       ?AllocateHeap@?$CTempBuffer@E$0BAA@VCCRTAllocator@ATL@@@ATL@@AEAAX_K@Z 00000001800055c8 f i ToneIndicator.obj
 0001:000045f4       ?Append@CParseBuffer@CRegParser@ATL@@QEAAHPEB_WH@Z 00000001800055f4 f i ToneIndicator.obj
 0001:0000473c       ?AtlComModuleGetClassObject@ATL@@YAJPEAU_ATL_COM_MODULE70@1@AEBU_GUID@@1PEAPEAX@Z 000000018000573c f i ToneIndicator.obj
 0001:0000487c       ?AtlComModuleRegisterServer@ATL@@YAJPEAU_ATL_COM_MODULE70@1@HPEBU_GUID@@@Z 000000018000587c f i ToneIndicator.obj
 0001:0000493c       ?AtlComModuleUnregisterServer@ATL@@YAJPEAU_ATL_COM_MODULE70@1@HPEBU_GUID@@@Z 000000018000593c f i ToneIndicator.obj
 0001:000049f8       ?AtlHiMetricToPixel@ATL@@YAXPEBUtagSIZE@@PEAU2@@Z 00000001800059f8 f i ToneIndicator.obj
 0001:00004aa8       ?AtlHresultFromLastError@ATL@@YAJXZ 0000000180005aa8 f i ToneIndicator.obj
 0001:00004ac8       ?AtlHresultFromWin32@ATL@@YAJK@Z 0000000180005ac8 f i ToneIndicator.obj
 0001:00004ad8       ?AtlInternalOleLoadFromStream@ATL@@YAJPEAUIStream@@AEBU_GUID@@PEAPEAXTClassesAllowedInStream@1@K@Z 0000000180005ad8 f i ToneIndicator.obj
 0001:00004c1c       ?AtlInternalQueryInterface@ATL@@YAJPEAXPEBU_ATL_INTMAP_ENTRY@1@AEBU_GUID@@PEAPEAX@Z 0000000180005c1c f i ToneIndicator.obj
 0001:00004d24       ?AtlLoadTypeLib@ATL@@YAJPEAUHINSTANCE__@@PEB_WPEAPEA_WPEAPEAUITypeLib@@@Z 0000000180005d24 f i ToneIndicator.obj
 0001:00004f80       ?AtlRegisterClassCategoriesHelper@ATL@@YAJAEBU_GUID@@PEBU_ATL_CATMAP_ENTRY@1@H@Z 0000000180005f80 f i ToneIndicator.obj
 0001:00005404       ?AtlRegisterTypeLib@ATL@@YAJPEAUHINSTANCE__@@PEB_W@Z 0000000180006404 f i ToneIndicator.obj
 0001:00005600       ?AtlThrowImpl@ATL@@YAXJ@Z  0000000180006600 f i ToneIndicator.obj
 0001:00005624       ?AtlUnRegisterTypeLib@ATL@@YAJPEAUHINSTANCE__@@PEB_W@Z 0000000180006624 f i ToneIndicator.obj
 0001:000056ec       ?AtlWinModuleExtractCreateWndData@ATL@@YAPEAXPEAU_ATL_WIN_MODULE70@1@@Z 00000001800066ec f i ToneIndicator.obj
 0001:00005778       ?Cleanup@CComTypeInfoHolder@ATL@@SAX_K@Z 0000000180006778 f i ToneIndicator.obj
 0001:000057b8       ?ClearReplacements@CExpansionVector@ATL@@QEAAJXZ 00000001800067b8 f i ToneIndicator.obj
 0001:00005854       ?CreateInstance@?$CComCreator@V?$CComAggObject@VCOPOSToneIndicator@@@ATL@@@ATL@@SAJPEAXAEBU_GUID@@PEAPEAX@Z 0000000180006854 f i ToneIndicator.obj
 0001:00005938       ?CreateInstance@?$CComCreator@V?$CComObject@VCOPOSToneIndicator@@@ATL@@@ATL@@SAJPEAXAEBU_GUID@@PEAPEAX@Z 0000000180006938 f i ToneIndicator.obj
 0001:000059ec       ?CreateInstance@?$CComObject@V?$CComEnum@UIEnumConnectionPoints@@$1?_GUID_b196b285_bab4_101a_b69c_00aa00341d07@@3U__s_GUID@@BPEAUIConnectionPoint@@V?$_CopyInterface@UIConnectionPoint@@@ATL@@VCComSingleThreadModel@6@@ATL@@@ATL@@SAJPEAPEAV12@@Z 00000001800069ec f i ToneIndicator.obj
 0001:00005a7c       ?CreateInstance@?$CComObject@V?$CComEnum@UIEnumConnections@@$1?_GUID_b196b287_bab4_101a_b69c_00aa00341d07@@3U__s_GUID@@BUtagCONNECTDATA@@V?$_Copy@UtagCONNECTDATA@@@ATL@@VCComSingleThreadModel@6@@ATL@@@ATL@@SAJPEAPEAV12@@Z 0000000180006a7c f i ToneIndicator.obj
 0001:00005b0c       ?DefaultReflectionHandler@?$CWindowImplRoot@VCWindow@ATL@@@ATL@@SAHPEAUHWND__@@I_K_JAEA_J@Z 0000000180006b0c f i ToneIndicator.obj
 0001:00005b70       ?DeleteSubKey@CRegKey@ATL@@QEAAJPEB_W@Z 0000000180006b70 f i ToneIndicator.obj
 0001:00005c08       ?DoEvent@COPOSToneIndicator@@IEAAXI_K_J@Z 0000000180006c08 f i ToneIndicator.obj
 0001:00005cbc       ?DoVerbPrimary@?$IOleObjectImpl@VCOPOSToneIndicator@@@ATL@@QEAAJPEBUtagRECT@@PEAUHWND__@@@Z 0000000180006cbc f i ToneIndicator.obj
 0001:00005de8       ?DoVerbProperties@CComControlBase@ATL@@QEAAJPEBUtagRECT@@PEAUHWND__@@@Z 0000000180006de8 f i ToneIndicator.obj
 0001:00006010       ?FireTheEvent@?$CProxy_IOPOSEvents@VCOPOSToneIndicator@@@@IEAAXPEAVOposVariant@@IAEAJPEB_WJ@Z 0000000180007010 f i ToneIndicator.obj
 0001:000060fc       ?FireViewChange@CComControlBase@ATL@@QEAAJXZ 00000001800070fc f i ToneIndicator.obj
 0001:00006160       ?Fire_DirectIOEvent@?$CProxy_IOPOSEvents@VCOPOSToneIndicator@@@@QEAAXJPEAJPEAPEA_W@Z 0000000180007160 f i ToneIndicator.obj
 0001:000062c0       ?Fire_ErrorEvent@?$CProxy_IOPOSEvents@VCOPOSToneIndicator@@@@QEAAXJJJPEAJ@Z 00000001800072c0 f i ToneIndicator.obj
 0001:00006434       ?Fire_OutputCompleteEvent@?$CProxy_IOPOSEvents@VCOPOSToneIndicator@@@@QEAAXJ@Z 0000000180007434 f i ToneIndicator.obj
 0001:00006520       ?Fire_StatusUpdateEvent@?$CProxy_IOPOSEvents@VCOPOSToneIndicator@@@@QEAAXJ@Z 0000000180007520 f i ToneIndicator.obj
 0001:0000660c       ?FreeHeap@?$CTempBuffer@_W$0EAA@VCCRTAllocator@ATL@@@ATL@@AEAAXXZ 000000018000760c f i ToneIndicator.obj
 0001:0000660c       ?FreeHeap@?$CTempBuffer@E$0BAA@VCCRTAllocator@ATL@@@ATL@@AEAAXXZ 000000018000760c f i ToneIndicator.obj
 0001:0000660c       ?FreeHeap@?$CTempBuffer@_W$0BAA@VCCRTAllocator@ATL@@@ATL@@AEAAXXZ 000000018000760c f i ToneIndicator.obj
 0001:00006614       ?GetAmbientLocaleID@CComControlBase@ATL@@QEAAJAEAK@Z 0000000180007614 f i ToneIndicator.obj
 0001:000066d4       ?GetAmbientUserMode@CComControlBase@ATL@@QEAAJAEAH@Z 00000001800076d4 f i ToneIndicator.obj
 0001:000067a4       ?GetClassObject@CComModule@ATL@@QEAAJAEBU_GUID@@0PEAPEAX@Z 00000001800077a4 f i ToneIndicator.obj
 0001:00006898       ?GetConnMap@COPOSToneIndicator@@SAPEBU_ATL_CONNMAP_ENTRY@ATL@@PEAH@Z 0000000180007898 f i ToneIndicator.obj
 0001:00006920       ?GetIDsOfNames@CComTypeInfoHolder@ATL@@QEAAJAEBU_GUID@@PEAPEA_WIKPEAJ@Z 0000000180007920 f i ToneIndicator.obj
 0001:00006a98       ?GetPagesHelper@?$ISpecifyPropertyPagesImpl@VCOPOSToneIndicator@@@ATL@@IEAAJPEAUtagCAUUID@@PEBUATL_PROPMAP_ENTRY@2@@Z 0000000180007a98 f i ToneIndicator.obj
 0001:00006c38       ?GetSizeMax@CComVariant@ATL@@QEBAJPEAT_ULARGE_INTEGER@@@Z 0000000180007c38 f i ToneIndicator.obj
 0001:00006e68       ?GetTI@CComTypeInfoHolder@ATL@@QEAAJK@Z 0000000180007e68 f i ToneIndicator.obj
 0001:00007150       ?GetZoomInfo@CComControlBase@ATL@@QEAAXAEAUATL_DRAWINFO@@@Z 0000000180008150 f i ToneIndicator.obj
 0001:000071f4       ?HKeyFromString@CRegParser@ATL@@KAPEAUHKEY__@@PEA_W@Z 00000001800081f4 f i ToneIndicator.obj
 0001:00007258       ?IDataObject_GetData@CComControlBase@ATL@@QEAAJPEAUtagFORMATETC@@PEAUtagSTGMEDIUM@@@Z 0000000180008258 f i ToneIndicator.obj
 0001:0000744c       ?IOleInPlaceObject_InPlaceDeactivate@CComControlBase@ATL@@QEAAJXZ 000000018000844c f i ToneIndicator.obj
 0001:000074ec       ?IOleInPlaceObject_SetObjectRects@CComControlBase@ATL@@QEAAJPEBUtagRECT@@0@Z 00000001800084ec f i ToneIndicator.obj
 0001:000075dc       ?IOleInPlaceObject_UIDeactivate@CComControlBase@ATL@@QEAAJXZ 00000001800085dc f i ToneIndicator.obj
 0001:000076e8       ?IOleObject_Close@CComControlBase@ATL@@QEAAJK@Z 00000001800086e8 f i ToneIndicator.obj
 0001:00007800       ?IOleObject_SetClientSite@CComControlBase@ATL@@QEAAJPEAUIOleClientSite@@@Z 0000000180008800 f i ToneIndicator.obj
 0001:00007878       ?IOleObject_SetExtent@CComControlBase@ATL@@QEAAJKPEAUtagSIZE@@@Z 0000000180008878 f i ToneIndicator.obj
 0001:00007910       ?IPSI_GetIPersistStreamInit@?$IPersistStorageImpl@VCOPOSToneIndicator@@@ATL@@AEAAPEAUIPersistStreamInit@@XZ 0000000180008910 f i ToneIndicator.obj
 0001:000079f8       ?IPersistStreamInit_Load@?$IPersistStreamInitImpl@VCOPOSToneIndicator@@@ATL@@QEAAJPEAUIStream@@PEBUATL_PROPMAP_ENTRY@2@@Z 00000001800089f8 f i ToneIndicator.obj
 0001:00007d24       ?IPersistStreamInit_Save@?$IPersistStreamInitImpl@VCOPOSToneIndicator@@@ATL@@QEAAJPEAUIStream@@HPEBUATL_PROPMAP_ENTRY@2@@Z 0000000180008d24 f i ToneIndicator.obj
 0001:00007fc4       ?IQuickActivate_QuickActivate@CComControlBase@ATL@@QEAAJPEAUtagQACONTAINER@@PEAUtagQACONTROL@@@Z 0000000180008fc4 f i ToneIndicator.obj
 0001:00008288       ?IViewObject_Draw@CComControlBase@ATL@@QEAAJKJPEAXPEAUtagDVTARGETDEVICE@@PEAUHDC__@@2PEBU_RECTL@@3@Z 0000000180009288 f i ToneIndicator.obj
 0001:0000839c       ?InPlaceActivate@CComControlBase@ATL@@QEAAJJPEBUtagRECT@@@Z 000000018000939c f i ToneIndicator.obj
 0001:000086d0       ?Init@?$CComEnumImpl@UIEnumConnectionPoints@@$1?_GUID_b196b285_bab4_101a_b69c_00aa00341d07@@3U__s_GUID@@BPEAUIConnectionPoint@@V?$_CopyInterface@UIConnectionPoint@@@ATL@@@ATL@@QEAAJPEAPEAUIConnectionPoint@@0PEAUIUnknown@@W4CComEnumFlags@2@@Z 00000001800096d0 f i ToneIndicator.obj
 0001:000087f0       ?Init@?$CComEnumImpl@UIEnumConnections@@$1?_GUID_b196b287_bab4_101a_b69c_00aa00341d07@@3U__s_GUID@@BUtagCONNECTDATA@@V?$_Copy@UtagCONNECTDATA@@@ATL@@@ATL@@QEAAJPEAUtagCONNECTDATA@@0PEAUIUnknown@@W4CComEnumFlags@2@@Z 00000001800097f0 f i ToneIndicator.obj
 0001:00008914       ?IsEqualObject@?$CComPtrBase@UIOleClientSite@@@ATL@@QEAA_NPEAUIUnknown@@@Z 0000000180009914 f i ToneIndicator.obj
 0001:000089a0       ?LoadNameCache@CComTypeInfoHolder@ATL@@QEAAJPEAUITypeInfo@@@Z 00000001800099a0 f i ToneIndicator.obj
 0001:00008b20       ?Lookup@?$CSimpleMap@PEA_WPEA_WVCExpansionVectorEqualHelper@ATL@@@ATL@@QEBAPEA_WAEBQEA_W@Z 0000000180009b20 f i ToneIndicator.obj
 0001:00008ba8       ?NextToken@CRegParser@ATL@@IEAAJPEA_W@Z 0000000180009ba8 f i ToneIndicator.obj
 0001:00008d60       ?OnKillFocus@CComControlBase@ATL@@QEAA_JI_K_JAEAH@Z 0000000180009d60 f i ToneIndicator.obj
 0001:00008dfc       ?OnMouseActivate@CComControlBase@ATL@@QEAA_JI_K_JAEAH@Z 0000000180009dfc f i ToneIndicator.obj
 0001:00008e9c       ?OnPaint@CComControlBase@ATL@@QEAA_JI_K_JAEAH@Z 0000000180009e9c f i ToneIndicator.obj
 0001:00008f88       ?OnSetFocus@CComControlBase@ATL@@QEAA_JI_K_JAEAH@Z 0000000180009f88 f i ToneIndicator.obj
 0001:00009084       ?PreProcessBuffer@CRegParser@ATL@@QEAAJPEA_WPEAPEA_W@Z 000000018000a084 f i ToneIndicator.obj
 0001:00009410       ?ProcessWindowMessage@?$CComControl@VCOPOSToneIndicator@@V?$CWindowImpl@VCOPOSToneIndicator@@VCWindow@ATL@@V?$CWinTraits@$0FGAAAAAA@$0A@@3@@ATL@@@ATL@@UEAAHPEAUHWND__@@I_K_JAEA_JK@Z 000000018000a410 f i ToneIndicator.obj
 0001:000094f4       ?ReadFromStream@CComBSTR@ATL@@QEAAJPEAUIStream@@@Z 000000018000a4f4 f i ToneIndicator.obj
 0001:00009644       ?ReadFromStream@CComVariant@ATL@@QEAAJPEAUIStream@@GTClassesAllowedInStream@2@K@Z 000000018000a644 f i ToneIndicator.obj
 0001:00009868       ?RecurseDeleteKey@CRegKey@ATL@@QEAAJPEB_W@Z 000000018000a868 f i ToneIndicator.obj
 0001:000099c0       ?RegCreateKeyExW@CAtlTransactionManager@ATL@@QEAAJPEAUHKEY__@@PEB_WKPEA_WKKQEAU_SECURITY_ATTRIBUTES@@PEAPEAU3@PEAK@Z 000000018000a9c0 f i ToneIndicator.obj
 0001:00009af4       ?RegDeleteKeyW@CAtlTransactionManager@ATL@@QEAAJPEAUHKEY__@@PEB_W@Z 000000018000aaf4 f i ToneIndicator.obj
 0001:00009b80       ?RegOpenKeyExW@CAtlTransactionManager@ATL@@QEAAJPEAUHKEY__@@PEB_WKKPEAPEAU3@@Z 000000018000ab80 f i ToneIndicator.obj
 0001:00009c38       ?RegisterBuffer@CRegParser@ATL@@QEAAJPEA_WH@Z 000000018000ac38 f i ToneIndicator.obj
 0001:00009da0       ?RegisterFromResource@CRegObject@ATL@@IEAAJPEB_W00H@Z 000000018000ada0 f i ToneIndicator.obj
 0001:00009f5c       ?RegisterServer@CComModule@ATL@@QEAAJHPEBU_GUID@@@Z 000000018000af5c f i ToneIndicator.obj
 0001:0000a01c       ?RegisterSubkeys@CRegParser@ATL@@IEAAJPEA_WPEAUHKEY__@@HH@Z 000000018000b01c f i ToneIndicator.obj
 0001:0000a888       ?SendOnDataChange@CComControlBase@ATL@@QEAAJK@Z 000000018000b888 f i ToneIndicator.obj
 0001:0000a8f8       ?SetControlFocus@CComControlBase@ATL@@QEAAHH@Z 000000018000b8f8 f i ToneIndicator.obj
 0001:0000a9d4       ?SkipAssignment@CRegParser@ATL@@IEAAJPEA_W@Z 000000018000b9d4 f i ToneIndicator.obj
 0001:0000aa78       ?Term@CAtlModule@ATL@@QEAAXXZ 000000018000ba78 f i ToneIndicator.obj
 0001:0000aaf8       ?Term@CComModule@ATL@@QEAAXXZ 000000018000baf8 f i ToneIndicator.obj
 0001:0000ab74       ?UnregisterServer@CComModule@ATL@@QEAAJHPEBU_GUID@@@Z 000000018000bb74 f i ToneIndicator.obj
 0001:0000ac24       ?UpdateRegistryFromResource@CAtlModule@ATL@@QEAAJIHPEAU_ATL_REGMAP_ENTRY@2@@Z 000000018000bc24 f i ToneIndicator.obj
 0001:0000af30       ?UpdateRegistryFromResource@CAtlModule@ATL@@QEAAJPEB_WHPEAU_ATL_REGMAP_ENTRY@2@@Z 000000018000bf30 f i ToneIndicator.obj
 0001:0000b254       ?VTFromRegType@CRegParser@ATL@@KAHPEB_WAEAG@Z 000000018000c254 f i ToneIndicator.obj
 0001:0000b2f0       ?WindowProc@?$CWindowImplBaseT@VCWindow@ATL@@V?$CWinTraits@$0FGAAAAAA@$0A@@2@@ATL@@SA_JPEAUHWND__@@I_K_J@Z 000000018000c2f0 f i ToneIndicator.obj
 0001:0000b45c       ?WriteToStream@CComVariant@ATL@@QEAAJPEAUIStream@@@Z 000000018000c45c f i ToneIndicator.obj
 0001:0000b6d8       ?WriteToStream@CComVariant@ATL@@QEAAJPEAUIStream@@G@Z 000000018000c6d8 f i ToneIndicator.obj
 0001:0000b770       ?_AtlVerifyStackAvailable@_ATL_SAFE_ALLOCA_IMPL@ATL@@YA_N_K@Z 000000018000c770 f i ToneIndicator.obj
 0001:0000b7f4       ?atlCreate@?$CWindowImpl@VCOPOSToneIndicator@@VCWindow@ATL@@V?$CWinTraits@$0FGAAAAAA@$0A@@3@@ATL@@QEAAPEAUHWND__@@PEAU3@V_U_RECT@2@PEB_WKKV_U_MENUorID@2@PEAX@Z 000000018000c7f4 f i ToneIndicator.obj
 0001:0000b8a8       ?atlCreate@?$CWindowImplBaseT@VCWindow@ATL@@V?$CWinTraits@$0FGAAAAAA@$0A@@2@@ATL@@QEAAPEAUHWND__@@PEAU3@V_U_RECT@2@PEB_WKKV_U_MENUorID@2@GPEAX@Z 000000018000c8a8 f i ToneIndicator.obj
 0001:0000ba18       ?ocscpy_s@@YA_NPEA_W_KPEB_W@Z 000000018000ca18 f i ToneIndicator.obj
 0001:0000bac8       DllCanUnloadNow            000000018000cac8 f   ToneIndicator.obj
 0001:0000bad4       DllGetClassObject          000000018000cad4 f   ToneIndicator.obj
 0001:0000baec       DllMain                    000000018000caec f   ToneIndicator.obj
 0001:0000bb94       DllRegisterServer          000000018000cb94 f   ToneIndicator.obj
 0001:0000bba8       DllUnregisterServer        000000018000cba8 f   ToneIndicator.obj
 0001:0000bbbc       __local_stdio_printf_options 000000018000cbbc f i ToneIndicator.obj
 0001:0000bbc4       swprintf_s                 000000018000cbc4 f i ToneIndicator.obj
 0001:0000bc18       ??0COPOSToneIndicator@@QEAA@XZ 000000018000cc18 f   ToneIndicatorImpl.obj
 0001:0000bce0       ??1?$IConnectionPointImpl@VCOPOSToneIndicator@@$1?IID_IPropertyNotifySink@@3U_GUID@@BVCComDynamicUnkArray@ATL@@@ATL@@QEAA@XZ 000000018000cce0 f i ToneIndicatorImpl.obj
 0001:0000bce0       ??1?$IConnectionPointImpl@VCOPOSToneIndicator@@$1?DIID__IOPOSToneIndicatorEvents@@3U_GUID@@BVCComDynamicUnkArray@ATL@@@ATL@@QEAA@XZ 000000018000cce0 f i ToneIndicatorImpl.obj
 0001:0000bd3c       ??1CComControlBase@ATL@@UEAA@XZ 000000018000cd3c f i ToneIndicatorImpl.obj
 0001:0000bdb8       ??1COPOSToneIndicator@@UEAA@XZ 000000018000cdb8 f   ToneIndicatorImpl.obj
 0001:0000be1c       ?CheckHealth@COPOSToneIndicator@@UEAAJJPEAJ@Z 000000018000ce1c f   ToneIndicatorImpl.obj
 0001:0000be98       ?ClaimDevice@COPOSToneIndicator@@UEAAJJPEAJ@Z 000000018000ce98 f   ToneIndicatorImpl.obj
 0001:0000bf30       ?ClearOutput@COPOSToneIndicator@@UEAAJPEAJ@Z 000000018000cf30 f   ToneIndicatorImpl.obj
 0001:0000bf58       ?Close@COPOSToneIndicator@@UEAAJPEAJ@Z 000000018000cf58 f   ToneIndicatorImpl.obj
 0001:0000c010       ?CompareFirmwareVersion@COPOSToneIndicator@@UEAAJPEA_WPEAJ1@Z 000000018000d010 f   ToneIndicatorImpl.obj
 0001:0000c0ec       ?DirectIO@COPOSToneIndicator@@UEAAJJPEAJPEAPEA_W0@Z 000000018000d0ec f   ToneIndicatorImpl.obj
 0001:0000c1e8       ?DoInvoke@COPOSToneIndicator@@IEAAJJPEAVOposVariant@@IHPEAJ_N@Z 000000018000d1e8 f   ToneIndicatorImpl.obj
 0001:0000c31c       ?EventInit@COPOSToneIndicator@@IEAAJXZ 000000018000d31c f i ToneIndicatorImpl.obj
 0001:0000c464       ?EventUninit@COPOSToneIndicator@@IEAAXXZ 000000018000d464 f i ToneIndicatorImpl.obj
 0001:0000c4c8       ?EventWindowProc@COPOSToneIndicator@@IEAA_JI_K_J@Z 000000018000d4c8 f i ToneIndicatorImpl.obj
 0001:0000c644       ?FinalConstruct@COPOSToneIndicator@@QEAAJXZ 000000018000d644 f   ToneIndicatorImpl.obj
 0001:0000c680       ?FreezeEvents@COPOSToneIndicator@@MEAAJH@Z 000000018000d680 f   ToneIndicatorImpl.obj
 0001:0000c6f4       ?GetOposProp@COPOSToneIndicator@@IEAAJJPEAJJ@Z 000000018000d6f4 f   ToneIndicatorImpl.obj
 0001:0000c810       ?GetOposProp@COPOSToneIndicator@@IEAAJJPEAPEA_WJ@Z 000000018000d810 f   ToneIndicatorImpl.obj
 0001:0000c93c       ?OnDraw@COPOSToneIndicator@@MEAAJAEAUATL_DRAWINFO@@@Z 000000018000d93c f   ToneIndicatorImpl.obj
 0001:0000ca28       ?Open@COPOSToneIndicator@@UEAAJPEA_WPEAJ@Z 000000018000da28 f   ToneIndicatorImpl.obj
 0001:0000d2a8       ?ReleaseDevice@COPOSToneIndicator@@UEAAJPEAJ@Z 000000018000e2a8 f   ToneIndicatorImpl.obj
 0001:0000d2ec       ?ResetStatistics@COPOSToneIndicator@@UEAAJPEA_WPEAJ@Z 000000018000e2ec f   ToneIndicatorImpl.obj
 0001:0000d374       ?RetrieveStatistics@COPOSToneIndicator@@UEAAJPEAPEA_WPEAJ@Z 000000018000e374 f   ToneIndicatorImpl.obj
 0001:0000d3fc       ?SOProcessID@COPOSToneIndicator@@UEAAJPEAJ@Z 000000018000e3fc f   ToneIndicatorImpl.obj
 0001:0000d418       ?SetCOFreezeEvents@COPOSToneIndicator@@IEAAXF@Z 000000018000e418 f   ToneIndicatorImpl.obj
 0001:0000d4fc       ?SetOposProp@COPOSToneIndicator@@IEAAJJJJ@Z 000000018000e4fc f   ToneIndicatorImpl.obj
 0001:0000d65c       ?Sound@COPOSToneIndicator@@UEAAJJJPEAJ@Z 000000018000e65c f   ToneIndicatorImpl.obj
 0001:0000d728       ?SoundImmediate@COPOSToneIndicator@@UEAAJPEAJ@Z 000000018000e728 f   ToneIndicatorImpl.obj
 0001:0000d750       ?UpdateFirmware@COPOSToneIndicator@@UEAAJPEA_WPEAJ@Z 000000018000e750 f   ToneIndicatorImpl.obj
 0001:0000d7d8       ?UpdateStatistics@COPOSToneIndicator@@UEAAJPEA_WPEAJ@Z 000000018000e7d8 f   ToneIndicatorImpl.obj
 0001:0000d860       ?get_AsyncMode@COPOSToneIndicator@@UEAAJPEAF@Z 000000018000e860 f   ToneIndicatorImpl.obj
 0001:0000d894       ?get_BinaryConversion@COPOSToneIndicator@@UEAAJPEAJ@Z 000000018000e894 f   ToneIndicatorImpl.obj
 0001:0000d8a8       ?get_CapCompareFirmwareVersion@COPOSToneIndicator@@UEAAJPEAF@Z 000000018000e8a8 f   ToneIndicatorImpl.obj
 0001:0000d8dc       ?get_CapMelody@COPOSToneIndicator@@UEAAJPEAJ@Z 000000018000e8dc f   ToneIndicatorImpl.obj
 0001:0000d8f0       ?get_CapPitch@COPOSToneIndicator@@UEAAJPEAF@Z 000000018000e8f0 f   ToneIndicatorImpl.obj
 0001:0000d924       ?get_CapPowerReporting@COPOSToneIndicator@@UEAAJPEAJ@Z 000000018000e924 f   ToneIndicatorImpl.obj
 0001:0000d938       ?get_CapStatisticsReporting@COPOSToneIndicator@@UEAAJPEAF@Z 000000018000e938 f   ToneIndicatorImpl.obj
 0001:0000d96c       ?get_CapUpdateFirmware@COPOSToneIndicator@@UEAAJPEAF@Z 000000018000e96c f   ToneIndicatorImpl.obj
 0001:0000d9a0       ?get_CapUpdateStatistics@COPOSToneIndicator@@UEAAJPEAF@Z 000000018000e9a0 f   ToneIndicatorImpl.obj
 0001:0000d9d4       ?get_CapVolume@COPOSToneIndicator@@UEAAJPEAF@Z 000000018000e9d4 f   ToneIndicatorImpl.obj
 0001:0000da08       ?get_CheckHealthText@COPOSToneIndicator@@UEAAJPEAPEA_W@Z 000000018000ea08 f   ToneIndicatorImpl.obj
 0001:0000da1c       ?get_Claimed@COPOSToneIndicator@@UEAAJPEAF@Z 000000018000ea1c f   ToneIndicatorImpl.obj
 0001:0000da50       ?get_ControlObjectDescription@COPOSToneIndicator@@UEAAJPEAPEA_W@Z 000000018000ea50 f   ToneIndicatorImpl.obj
 0001:0000dab4       ?get_ControlObjectVersion@COPOSToneIndicator@@UEAAJPEAJ@Z 000000018000eab4 f   ToneIndicatorImpl.obj
 0001:0000dac0       ?get_DeviceDescription@COPOSToneIndicator@@UEAAJPEAPEA_W@Z 000000018000eac0 f   ToneIndicatorImpl.obj
 0001:0000dad4       ?get_DeviceEnabled@COPOSToneIndicator@@UEAAJPEAF@Z 000000018000ead4 f   ToneIndicatorImpl.obj
 0001:0000db08       ?get_DeviceName@COPOSToneIndicator@@UEAAJPEAPEA_W@Z 000000018000eb08 f   ToneIndicatorImpl.obj
 0001:0000db1c       ?get_FreezeEvents@COPOSToneIndicator@@UEAAJPEAF@Z 000000018000eb1c f   ToneIndicatorImpl.obj
 0001:0000db4c       ?get_InterToneWait@COPOSToneIndicator@@UEAAJPEAJ@Z 000000018000eb4c f   ToneIndicatorImpl.obj
 0001:0000db60       ?get_MelodyType@COPOSToneIndicator@@UEAAJPEAJ@Z 000000018000eb60 f   ToneIndicatorImpl.obj
 0001:0000db74       ?get_MelodyVolume@COPOSToneIndicator@@UEAAJPEAJ@Z 000000018000eb74 f   ToneIndicatorImpl.obj
 0001:0000db88       ?get_OpenResult@COPOSToneIndicator@@UEAAJPEAJ@Z 000000018000eb88 f   ToneIndicatorImpl.obj
 0001:0000db94       ?get_OutputID@COPOSToneIndicator@@UEAAJPEAJ@Z 000000018000eb94 f   ToneIndicatorImpl.obj
 0001:0000dba8       ?get_PowerNotify@COPOSToneIndicator@@UEAAJPEAJ@Z 000000018000eba8 f   ToneIndicatorImpl.obj
 0001:0000dbbc       ?get_PowerState@COPOSToneIndicator@@UEAAJPEAJ@Z 000000018000ebbc f   ToneIndicatorImpl.obj
 0001:0000dbd0       ?get_ResultCode@COPOSToneIndicator@@UEAAJPEAJ@Z 000000018000ebd0 f   ToneIndicatorImpl.obj
 0001:0000dc0c       ?get_ResultCodeExtended@COPOSToneIndicator@@UEAAJPEAJ@Z 000000018000ec0c f   ToneIndicatorImpl.obj
 0001:0000dc20       ?get_ServiceObjectDescription@COPOSToneIndicator@@UEAAJPEAPEA_W@Z 000000018000ec20 f   ToneIndicatorImpl.obj
 0001:0000dc34       ?get_ServiceObjectVersion@COPOSToneIndicator@@UEAAJPEAJ@Z 000000018000ec34 f   ToneIndicatorImpl.obj
 0001:0000dc48       ?get_State@COPOSToneIndicator@@UEAAJPEAJ@Z 000000018000ec48 f   ToneIndicatorImpl.obj
 0001:0000dc74       ?get_Tone1Duration@COPOSToneIndicator@@UEAAJPEAJ@Z 000000018000ec74 f   ToneIndicatorImpl.obj
 0001:0000dc88       ?get_Tone1Pitch@COPOSToneIndicator@@UEAAJPEAJ@Z 000000018000ec88 f   ToneIndicatorImpl.obj
 0001:0000dc9c       ?get_Tone1Volume@COPOSToneIndicator@@UEAAJPEAJ@Z 000000018000ec9c f   ToneIndicatorImpl.obj
 0001:0000dcb0       ?get_Tone2Duration@COPOSToneIndicator@@UEAAJPEAJ@Z 000000018000ecb0 f   ToneIndicatorImpl.obj
 0001:0000dcc4       ?get_Tone2Pitch@COPOSToneIndicator@@UEAAJPEAJ@Z 000000018000ecc4 f   ToneIndicatorImpl.obj
 0001:0000dcd8       ?get_Tone2Volume@COPOSToneIndicator@@UEAAJPEAJ@Z 000000018000ecd8 f   ToneIndicatorImpl.obj
 0001:0000dcec       ?put_AsyncMode@COPOSToneIndicator@@UEAAJF@Z 000000018000ecec f   ToneIndicatorImpl.obj
 0001:0000dd08       ?put_BinaryConversion@COPOSToneIndicator@@UEAAJJ@Z 000000018000ed08 f   ToneIndicatorImpl.obj
 0001:0000dd1c       ?put_DeviceEnabled@COPOSToneIndicator@@UEAAJF@Z 000000018000ed1c f   ToneIndicatorImpl.obj
 0001:0000dd34       ?put_FreezeEvents@COPOSToneIndicator@@UEAAJF@Z 000000018000ed34 f   ToneIndicatorImpl.obj
 0001:0000dd84       ?put_InterToneWait@COPOSToneIndicator@@UEAAJJ@Z 000000018000ed84 f   ToneIndicatorImpl.obj
 0001:0000dd98       ?put_MelodyType@COPOSToneIndicator@@UEAAJJ@Z 000000018000ed98 f   ToneIndicatorImpl.obj
 0001:0000ddac       ?put_MelodyVolume@COPOSToneIndicator@@UEAAJJ@Z 000000018000edac f   ToneIndicatorImpl.obj
 0001:0000ddc0       ?put_PowerNotify@COPOSToneIndicator@@UEAAJJ@Z 000000018000edc0 f   ToneIndicatorImpl.obj
 0001:0000ddd4       ?put_Tone1Duration@COPOSToneIndicator@@UEAAJJ@Z 000000018000edd4 f   ToneIndicatorImpl.obj
 0001:0000dde8       ?put_Tone1Pitch@COPOSToneIndicator@@UEAAJJ@Z 000000018000ede8 f   ToneIndicatorImpl.obj
 0001:0000ddfc       ?put_Tone1Volume@COPOSToneIndicator@@UEAAJJ@Z 000000018000edfc f   ToneIndicatorImpl.obj
 0001:0000de10       ?put_Tone2Duration@COPOSToneIndicator@@UEAAJJ@Z 000000018000ee10 f   ToneIndicatorImpl.obj
 0001:0000de24       ?put_Tone2Pitch@COPOSToneIndicator@@UEAAJJ@Z 000000018000ee24 f   ToneIndicatorImpl.obj
 0001:0000de38       ?put_Tone2Volume@COPOSToneIndicator@@UEAAJJ@Z 000000018000ee38 f   ToneIndicatorImpl.obj
 0001:0000de4c       ?s_EventWindowProc@COPOSToneIndicator@@KA_JPEAUHWND__@@I_K_J@Z 000000018000ee4c f i ToneIndicatorImpl.obj
 0001:0000dec8       ??_U@YAPEAX_K@Z            000000018000eec8 f   LIBCMT:new_array.obj
 0001:0000ded0       ??_V@YAXPEAX@Z             000000018000eed0 f   LIBCMT:delete_array.obj
 0001:0000ded0       ??3@YAXPEAX_K@Z            000000018000eed0 f   LIBCMT:delete_scalar_size.obj
 0001:0000ded8       ??_V@YAXPEAX_K@Z           000000018000eed8 f   LIBCMT:delete_array_size.obj
 0001:0000dee0       __scrt_acquire_startup_lock 000000018000eee0 f   LIBCMT:utility.obj
 0001:0000df1c       __scrt_dllmain_after_initialize_c 000000018000ef1c f   LIBCMT:utility.obj
 0001:0000df50       __scrt_dllmain_before_initialize_c 000000018000ef50 f   LIBCMT:utility.obj
 0001:0000df68       __scrt_dllmain_crt_thread_attach 000000018000ef68 f   LIBCMT:utility.obj
 0001:0000df90       __scrt_dllmain_crt_thread_detach 000000018000ef90 f   LIBCMT:utility.obj
 0001:0000dfa8       __scrt_dllmain_exception_filter 000000018000efa8 f   LIBCMT:utility.obj
 0001:0000e008       __scrt_dllmain_uninitialize_c 000000018000f008 f   LIBCMT:utility.obj
 0001:0000e038       __scrt_dllmain_uninitialize_critical 000000018000f038 f   LIBCMT:utility.obj
 0001:0000e04c       __scrt_initialize_crt      000000018000f04c f   LIBCMT:utility.obj
 0001:0000e098       __scrt_initialize_onexit_tables 000000018000f098 f   LIBCMT:utility.obj
 0001:0000e124       __scrt_is_nonwritable_in_current_image 000000018000f124 f   LIBCMT:utility.obj
 0001:0000e1bc       __scrt_release_startup_lock 000000018000f1bc f   LIBCMT:utility.obj
 0001:0000e1e0       __scrt_uninitialize_crt    000000018000f1e0 f   LIBCMT:utility.obj
 0001:0000e20c       _onexit                    000000018000f20c f   LIBCMT:utility.obj
 0001:0000e248       atexit                     000000018000f248 f   LIBCMT:utility.obj
 0001:0000e260       ??3@YAXPEAX@Z              000000018000f260 f   LIBCMT:delete_scalar.obj
 0001:0000e360       _Init_thread_footer        000000018000f360 f   LIBCMT:thread_safe_statics.obj
 0001:0000e3c0       _Init_thread_header        000000018000f3c0 f   LIBCMT:thread_safe_statics.obj
 0001:0000e428       _Init_thread_notify        000000018000f428 f   LIBCMT:thread_safe_statics.obj
 0001:0000e46c       _Init_thread_wait          000000018000f46c f   LIBCMT:thread_safe_statics.obj
 0001:0000e4d0       __raise_securityfailure    000000018000f4d0 f   LIBCMT:gs_report.obj
 0001:0000e504       __report_gsfailure         000000018000f504 f   LIBCMT:gs_report.obj
 0001:0000e5d8       __report_rangecheckfailure 000000018000f5d8 f   LIBCMT:gs_report.obj
 0001:0000e5ec       __report_securityfailure   000000018000f5ec f   LIBCMT:gs_report.obj
 0001:0000e76c       ??2@YAPEAX_KAEBUnothrow_t@std@@@Z 000000018000f76c f   LIBCMT:new_scalar_nothrow.obj
 0001:0000e780       ??_U@YAPEAX_KAEBUnothrow_t@std@@@Z 000000018000f780 f   LIBCMT:new_array_nothrow.obj
 0001:0000e788       __GSHandlerCheck           000000018000f788 f   LIBCMT:gshandler.obj
 0001:0000e7a8       __GSHandlerCheckCommon     000000018000f7a8 f   LIBCMT:gshandler.obj
 0001:0000e804       __GSHandlerCheck_SEH       000000018000f804 f   LIBCMT:gshandlerseh.obj
 0001:0000e8a0       __chkstk                   000000018000f8a0 f   LIBCMT:chkstk.obj
 0001:0000e8a0       _alloca_probe              000000018000f8a0 f   LIBCMT:chkstk.obj
 0001:0000e910       __security_check_cookie    000000018000f910 f   LIBCMT:amdsecgs.obj
 0001:0000ec54       _DllMainCRTStartup         000000018000fc54 f   LIBCMT:dll_dllmain.obj
 0001:0000ec94       ??2@YAPEAX_K@Z             000000018000fc94 f   LIBCMT:new_scalar.obj
 0001:0000ecd0       __isa_available_init       000000018000fcd0 f   LIBCMT:cpu_disp.obj
 0001:0000ee74       __scrt_is_ucrt_dll_in_use  000000018000fe74 f   LIBCMT:ucrt_detection.obj
 0001:0000ee80       __crt_debugger_hook        000000018000fe80 f   LIBCMT:utility_desktop.obj
 0001:0000ee88       __scrt_fastfail            000000018000fe88 f   LIBCMT:utility_desktop.obj
 0001:0000efd4       __security_init_cookie     000000018000ffd4 f   LIBCMT:gs_support.obj
 0001:0000f080       ?__scrt_initialize_type_info@@YAXXZ 0000000180010080 f   LIBCMT:tncleanup.obj
 0001:0000f090       ?__scrt_uninitialize_type_info@@YAXXZ 0000000180010090 f   LIBCMT:tncleanup.obj
 0001:0000f09c       __local_stdio_scanf_options 000000018001009c f i LIBCMT:default_local_stdio_options.obj
 0001:0000f0a4       __scrt_initialize_default_local_stdio_options 00000001800100a4 f   LIBCMT:default_local_stdio_options.obj
 0001:0000f0c0       __scrt_get_dyn_tls_init_callback 00000001800100c0 f   LIBCMT:dyn_tls_init.obj
 0001:0000f0c8       _RTC_Initialize            00000001800100c8 f   LIBCMT:initsect.obj
 0001:0000f104       _RTC_Terminate             0000000180010104 f   LIBCMT:initsect.obj
 0001:0000f140       ??0bad_alloc@std@@QEAA@AEBV01@@Z 0000000180010140 f i LIBCMT:throw_bad_alloc.obj
 0001:0000f17c       ??0bad_alloc@std@@QEAA@XZ  000000018001017c f i LIBCMT:throw_bad_alloc.obj
 0001:0000f19c       ??0bad_array_new_length@std@@QEAA@AEBV01@@Z 000000018001019c f i LIBCMT:throw_bad_alloc.obj
 0001:0000f1d8       ??0bad_array_new_length@std@@QEAA@XZ 00000001800101d8 f i LIBCMT:throw_bad_alloc.obj
 0001:0000f1f8       ??0exception@std@@QEAA@AEBV01@@Z 00000001800101f8 f i LIBCMT:throw_bad_alloc.obj
 0001:0000f22c       ??1bad_exception@std@@UEAA@XZ 000000018001022c f i libvcruntime:frame.obj
 0001:0000f22c       ??1bad_alloc@std@@UEAA@XZ  000000018001022c f i LIBCMT:throw_bad_alloc.obj
 0001:0000f22c       ??1bad_array_new_length@std@@UEAA@XZ 000000018001022c f i LIBCMT:throw_bad_alloc.obj
 0001:0000f240       ??_Gexception@std@@UEAAPEAXI@Z 0000000180010240 f i LIBCMT:throw_bad_alloc.obj
 0001:0000f240       ??_Ebad_exception@std@@UEAAPEAXI@Z 0000000180010240 f i libvcruntime:frame.obj
 0001:0000f240       ??_Ebad_array_new_length@std@@UEAAPEAXI@Z 0000000180010240 f i LIBCMT:throw_bad_alloc.obj
 0001:0000f240       ??_Ebad_alloc@std@@UEAAPEAXI@Z 0000000180010240 f i LIBCMT:throw_bad_alloc.obj
 0001:0000f240       ??_Gbad_exception@std@@UEAAPEAXI@Z 0000000180010240 f i libvcruntime:frame.obj
 0001:0000f240       ??_Eexception@std@@UEAAPEAXI@Z 0000000180010240 f i LIBCMT:throw_bad_alloc.obj
 0001:0000f240       ??_Gbad_alloc@std@@UEAAPEAXI@Z 0000000180010240 f i LIBCMT:throw_bad_alloc.obj
 0001:0000f240       ??_Gbad_array_new_length@std@@UEAAPEAXI@Z 0000000180010240 f i LIBCMT:throw_bad_alloc.obj
 0001:0000f284       ?__scrt_throw_std_bad_alloc@@YAXXZ 0000000180010284 f   LIBCMT:throw_bad_alloc.obj
 0001:0000f2a4       ?__scrt_throw_std_bad_array_new_length@@YAXXZ 00000001800102a4 f   LIBCMT:throw_bad_alloc.obj
 0001:0000f2c4       ?what@exception@std@@UEBAPEBDXZ 00000001800102c4 f i LIBCMT:throw_bad_alloc.obj
 0001:0000f2e0       ??_Gtype_info@@UEAAPEAXI@Z 00000001800102e0 f i LIBCMT:std_type_info_static.obj
 0001:0000f2e0       ??_Etype_info@@UEAAPEAXI@Z 00000001800102e0 f i LIBCMT:std_type_info_static.obj
 0001:0000f30c       ??0CAtlBaseModule@ATL@@QEAA@XZ 000000018001030c f   atls:atlbase.obj
 0001:0000f3b4       ??1CAtlBaseModule@ATL@@QEAA@XZ 00000001800103b4 f   atls:atlbase.obj
 0001:0000f4e8       ?__AllocStdCallThunk_cmn@@YAPEAXXZ 00000001800104e8 f   atls:atlthunk.obj
 0001:0000f640       AtlThunk_AllocateData      0000000180010640 f   atls:atlthunk.obj
 0001:0000f6bc       AtlThunk_DataToCode        00000001800106bc f   atls:atlthunk.obj
 0001:0000f710       AtlThunk_FreeData          0000000180010710 f   atls:atlthunk.obj
 0001:0000f770       AtlThunk_InitData          0000000180010770 f   atls:atlthunk.obj
 0001:0000f818       _get_purecall_handler      0000000180010818 f   libvcruntime:purevirt.obj
 0001:0000f820       _purecall                  0000000180010820 f   libvcruntime:purevirt.obj
 0001:0000f83c       wcsstr                     000000018001083c f   libvcruntime:wcsstr.obj
 0001:0000fa70       memcmp                     0000000180010a70 f   libvcruntime:memcmp.obj
 0001:0000fb50       memcpy_repmovs             0000000180010b50 f   libvcruntime:memcpy.obj
 0001:0000fb70       memcpy                     0000000180010b70 f   libvcruntime:memcpy.obj
 0001:0000fb70       memmove                    0000000180010b70 f   libvcruntime:memcpy.obj
 0001:0000ff60       memset_repmovs             0000000180010f60 f   libvcruntime:memset.obj
 0001:0000ff80       memset                     0000000180010f80 f   libvcruntime:memset.obj
 0001:00010110       __vcrt_initialize          0000000180011110 f   libvcruntime:initialization.obj
 0001:00010138       __vcrt_thread_attach       0000000180011138 f   libvcruntime:initialization.obj
 0001:0001014c       __vcrt_thread_detach       000000018001114c f   libvcruntime:initialization.obj
 0001:00010160       __vcrt_uninitialize        0000000180011160 f   libvcruntime:initialization.obj
 0001:0001017c       __vcrt_uninitialize_critical 000000018001117c f   libvcruntime:initialization.obj
 0001:0001018c       __C_specific_handler       000000018001118c f   libvcruntime:riscchandler.obj
 0001:00010398       ??$_CallSETranslator@V__FrameHandler4@@@@YAHPEAUEHExceptionRecord@@PEA_KPEAU_CONTEXT@@PEAU_xDISPATCHER_CONTEXT@@PEAUFuncInfo4@FH4@@K1H@Z 0000000180011398 f i libvcruntime:risctrnsctrl.obj
 0001:000103ec       ?DecompFuncInfo@FH4@@YA_JPEAEAEAUFuncInfo4@1@_KH_N@Z 00000001800113ec f i libvcruntime:risctrnsctrl.obj
 0001:00010510       ?ExecutionInCatch@__FrameHandler4@@SA_NPEAU_xDISPATCHER_CONTEXT@@PEAUFuncInfo4@FH4@@@Z 0000000180011510 f   libvcruntime:risctrnsctrl.obj
 0001:00010518       ?FrameUnwindToEmptyState@__FrameHandler4@@SAXPEA_KPEAU_xDISPATCHER_CONTEXT@@PEAUFuncInfo4@FH4@@@Z 0000000180011518 f   libvcruntime:risctrnsctrl.obj
 0001:0001054c       ?GetEstablisherFrame@__FrameHandler4@@SAPEA_KPEA_KPEAU_xDISPATCHER_CONTEXT@@PEAUFuncInfo4@FH4@@0@Z 000000018001154c f   libvcruntime:risctrnsctrl.obj
 0001:00010570       ?GetRangeOfTrysToCheck@__FrameHandler4@@SA?AU?$pair@Viterator@TryBlockMap4@FH4@@V123@@std@@AEAVTryBlockMap4@FH4@@HPEAU_xDISPATCHER_CONTEXT@@PEAUFuncInfo4@5@H@Z 0000000180011570 f   libvcruntime:risctrnsctrl.obj
 0001:000106d8       ?UnwindNestedFrames@__FrameHandler4@@SAXPEA_KPEAUEHExceptionRecord@@PEAU_CONTEXT@@0PEAXPEAUFuncInfo4@FH4@@HHPEAUHandlerType4@5@PEAU_xDISPATCHER_CONTEXT@@E@Z 00000001800116d8 f   libvcruntime:risctrnsctrl.obj
 0001:000107f8       ?setBuffer@TryBlockMap4@FH4@@QEAAXViterator@12@@Z 00000001800117f8 f i libvcruntime:risctrnsctrl.obj
 0001:000109b8       _CreateFrameInfo           00000001800119b8 f   libvcruntime:risctrnsctrl.obj
 0001:000109f4       _FindAndUnlinkFrame        00000001800119f4 f   libvcruntime:risctrnsctrl.obj
 0001:00010a48       _GetImageBase              0000000180011a48 f   libvcruntime:risctrnsctrl.obj
 0001:00010a5c       _GetThrowImageBase         0000000180011a5c f   libvcruntime:risctrnsctrl.obj
 0001:00010a70       _SetImageBase              0000000180011a70 f   libvcruntime:risctrnsctrl.obj
 0001:00010a88       _SetThrowImageBase         0000000180011a88 f   libvcruntime:risctrnsctrl.obj
 0001:00010aa0       __CxxFrameHandler4         0000000180011aa0 f   libvcruntime:risctrnsctrl.obj
 0001:00010b60       __DestructExceptionObject  0000000180011b60 f   libvcruntime:ehhelpers.obj
 0001:00010bd0       ?_CallMemberFunction0@@YAXQEAX0@Z 0000000180011bd0 f i libvcruntime:ehhelpers.obj
 0001:00010bd4       _IsExceptionObjectToBeDestroyed 0000000180011bd4 f   libvcruntime:ehhelpers.obj
 0001:00010c04       __AdjustPointer            0000000180011c04 f   libvcruntime:ehhelpers.obj
 0001:00010c28       __FrameUnwindFilter        0000000180011c28 f   libvcruntime:ehhelpers.obj
 0001:00010c90       __std_type_info_compare    0000000180011c90 f   libvcruntime:std_type_info.obj
 0001:00010cb8       __std_type_info_destroy_list 0000000180011cb8 f   libvcruntime:std_type_info.obj
 0001:00010ce4       __std_exception_copy       0000000180011ce4 f   libvcruntime:std_exception.obj
 0001:00010d74       __std_exception_destroy    0000000180011d74 f   libvcruntime:std_exception.obj
 0001:00010d9c       _CxxThrowException         0000000180011d9c f   libvcruntime:throw.obj
 0001:00010e3c       __vcrt_freefls             0000000180011e3c f   libvcruntime:per_thread_data.obj
 0001:00010e5c       __vcrt_freeptd             0000000180011e5c f   libvcruntime:per_thread_data.obj
 0001:00010eac       __vcrt_getptd              0000000180011eac f   libvcruntime:per_thread_data.obj
 0001:00010ec8       __vcrt_getptd_noexit       0000000180011ec8 f   libvcruntime:per_thread_data.obj
 0001:00010f88       __vcrt_initialize_ptd      0000000180011f88 f   libvcruntime:per_thread_data.obj
 0001:00010fd0       __vcrt_uninitialize_ptd    0000000180011fd0 f   libvcruntime:per_thread_data.obj
 0001:00010ff4       __vcrt_initialize_locks    0000000180011ff4 f   libvcruntime:locks.obj
 0001:00011028       __vcrt_uninitialize_locks  0000000180012028 f   libvcruntime:locks.obj
 0001:00011070       _NLG_Notify                0000000180012070 f   libvcruntime:notify.obj
 0001:00011090       __NLG_Dispatch2            0000000180012090 f   libvcruntime:notify.obj
 0001:000110a0       __NLG_Return2              00000001800120a0 f   libvcruntime:notify.obj
 0001:000110a4       __except_validate_context_record 00000001800120a4 f   libvcruntime:jbcxrval.obj
 0001:000110dc       ?StateFromControlPc@__FrameHandler4@@SAHPEAUFuncInfo4@FH4@@PEAU_xDISPATCHER_CONTEXT@@@Z 00000001800120dc f   libvcruntime:ehstate.obj
 0001:000110e4       ?StateFromIp@__FrameHandler4@@SAHPEAUFuncInfo4@FH4@@PEAU_xDISPATCHER_CONTEXT@@_K@Z 00000001800120e4 f   libvcruntime:ehstate.obj
 0001:00011d68       ??$TypeMatchHelper@V__FrameHandler3@@@@YAHPEBU_s_HandlerType@@PEBU_s_CatchableType@@PEBU_s_ThrowInfo@@@Z 0000000180012d68 f i libvcruntime:frame.obj
 0001:00011ea8       ??$TypeMatchHelper@V__FrameHandler4@@@@YAHPEAUHandlerType4@FH4@@PEBU_s_CatchableType@@PEBU_s_ThrowInfo@@@Z 0000000180012ea8 f i libvcruntime:frame.obj
 0001:00011fec       ??$__InternalCxxFrameHandler@V__FrameHandler4@@@@YA?AW4_EXCEPTION_DISPOSITION@@PEAUEHExceptionRecord@@PEA_KPEAU_CONTEXT@@PEAU_xDISPATCHER_CONTEXT@@PEAUFuncInfo4@FH4@@H1E@Z 0000000180012fec f i libvcruntime:frame.obj
 0001:00012280       ??0HandlerMap4@FH4@@QEAA@PEBUTryBlockMapEntry4@1@_KH@Z 0000000180013280 f i libvcruntime:frame.obj
 0001:000122fc       ??0TryBlockMap4@FH4@@QEAA@PEBUFuncInfo4@1@_K@Z 00000001800132fc f i libvcruntime:frame.obj
 0001:000123d4       ??0bad_exception@std@@QEAA@AEBV01@@Z 00000001800133d4 f i libvcruntime:frame.obj
 0001:00012410       ??0bad_exception@std@@QEAA@XZ 0000000180013410 f i libvcruntime:frame.obj
 0001:00012430       ?CxxCallCatchBlock@__FrameHandler4@@SAPEAXPEAU_EXCEPTION_RECORD@@@Z 0000000180013430 f   libvcruntime:frame.obj
 0001:00012680       ?DecompHandler@HandlerMap4@FH4@@AEAAXXZ 0000000180013680 f i libvcruntime:frame.obj
 0001:000128c0       ?FrameUnwindToState@__FrameHandler4@@SAXPEA_KPEAU_xDISPATCHER_CONTEXT@@PEAUFuncInfo4@FH4@@H@Z 00000001800138c0 f   libvcruntime:frame.obj
 0001:00012d20       ?ReadEntry@UWMap4@FH4@@AEAAXPEAPEAE@Z 0000000180013d20 f i libvcruntime:frame.obj
 0001:00012dc0       ?_CallMemberFunction1@@YAXQEAX00@Z 0000000180013dc0 f i libvcruntime:frame.obj
 0001:00012dcc       ?_CallMemberFunction2@@YAXQEAX00H@Z 0000000180013dcc f i libvcruntime:frame.obj
 0001:00012ddc       ?getStartStop@UWMap4@FH4@@QEAAXHHAEAViterator@12@0@Z 0000000180013ddc f i libvcruntime:frame.obj
 0001:00012eac       ?getStateFromIterators@UWMap4@FH4@@SAHAEBViterator@12@H0H0@Z 0000000180013eac f i libvcruntime:frame.obj
 0001:000130c0       __vcrt_FlsAlloc            00000001800140c0 f   libvcruntime:winapi_downlevel.obj
 0001:00013108       __vcrt_FlsFree             0000000180014108 f   libvcruntime:winapi_downlevel.obj
 0001:00013150       __vcrt_FlsGetValue         0000000180014150 f   libvcruntime:winapi_downlevel.obj
 0001:00013198       __vcrt_FlsSetValue         0000000180014198 f   libvcruntime:winapi_downlevel.obj
 0001:000131ec       __vcrt_InitializeCriticalSectionEx 00000001800141ec f   libvcruntime:winapi_downlevel.obj
 0001:00013260       _CallSettingFrame          0000000180014260 f   libvcruntime:handlers.obj
 0001:000132b0       _CallSettingFrame_LookupContinuationIndex 00000001800142b0 f   libvcruntime:handlers.obj
 0001:000132e0       _CallSettingFrame_NotifyContinuationAddr 00000001800142e0 f   libvcruntime:handlers.obj
 0001:00013310       _CallSettingFrameEncoded   0000000180014310 f   libvcruntime:handlers.obj
 0001:00013358       free                       0000000180014358 f   libucrt:free.obj
 0001:0001336c       __acrt_call_reportfault    000000018001436c f   libucrt:invalid_parameter.obj
 0001:000134c8       __acrt_initialize_invalid_parameter_handler 00000001800144c8 f   libucrt:invalid_parameter.obj
 0001:000134d0       _invalid_parameter         00000001800144d0 f   libucrt:invalid_parameter.obj
 0001:00013580       _invalid_parameter_noinfo  0000000180014580 f   libucrt:invalid_parameter.obj
 0001:000135a0       _invoke_watson             00000001800145a0 f   libucrt:invalid_parameter.obj
 0001:000135e8       __acrt_errno_from_os_error 00000001800145e8 f   libucrt:errno.obj
 0001:00013630       __acrt_errno_map_os_error  0000000180014630 f   libucrt:errno.obj
 0001:00013680       __doserrno                 0000000180014680 f   libucrt:errno.obj
 0001:000136a0       _errno                     00000001800146a0 f   libucrt:errno.obj
 0001:000136c0       calloc                     00000001800146c0 f   libucrt:calloc.obj
 0001:000136c8       malloc                     00000001800146c8 f   libucrt:malloc.obj
 0001:000136d0       _recalloc                  00000001800146d0 f   libucrt:recalloc.obj
 0001:000136d8       _recalloc_base             00000001800146d8 f   libucrt:recalloc.obj
 0001:00013770       _resetstkoflw              0000000180014770 f   libucrt:resetstk.obj
 0001:0001389c       wcscat_s                   000000018001489c f   libucrt:wcscat_s.obj
 0001:0001391c       wcscpy_s                   000000018001491c f   libucrt:wcscpy_s.obj
 0001:00013984       wcsncpy_s                  0000000180014984 f   libucrt:wcsncpy_s.obj
 0001:00013c3c       ??$ensure_buffer_is_big_enough@D@formatting_buffer@__crt_stdio_output@@QEAA_N_K@Z 0000000180014c3c f i libucrt:output.obj
 0001:00013ce4       ??$ensure_buffer_is_big_enough@_W@formatting_buffer@__crt_stdio_output@@QEAA_N_K@Z 0000000180014ce4 f i libucrt:output.obj
 0001:00013d90       ??$is_wide_character_specifier@_W@__crt_stdio_output@@YA_N_K_WW4length_modifier@0@@Z 0000000180014d90 f i libucrt:output.obj
 0001:00013dd0       ??$type_case_integer_parse_into_buffer@I@?$output_processor@_WV?$string_output_adapter@_W@__crt_stdio_output@@V?$format_validation_base@_WV?$string_output_adapter@_W@__crt_stdio_output@@@2@@__crt_stdio_output@@AEAAXII_N@Z 0000000180014dd0 f i libucrt:output.obj
 0001:00013e74       ??$type_case_integer_parse_into_buffer@_K@?$output_processor@_WV?$string_output_adapter@_W@__crt_stdio_output@@V?$format_validation_base@_WV?$string_output_adapter@_W@__crt_stdio_output@@@2@@__crt_stdio_output@@AEAAX_KI_N@Z 0000000180014e74 f i libucrt:output.obj
 0001:00013f18       ??$write_multiple_characters@V?$string_output_adapter@_W@__crt_stdio_output@@D@__crt_stdio_output@@YAXAEBV?$string_output_adapter@_W@0@DHQEAH@Z 0000000180014f18 f i libucrt:output.obj
 0001:00013f90       ??0_LocaleUpdate@@QEAA@QEAU__crt_locale_pointers@@@Z 0000000180014f90 f i libucrt:output.obj
 0001:00014030       ?crop_zeroes@__crt_stdio_output@@YAXPEADQEAU__crt_locale_pointers@@@Z 0000000180015030 f i libucrt:output.obj
 0001:000140d0       ?force_decimal_point@__crt_stdio_output@@YAXPEADQEAU__crt_locale_pointers@@@Z 00000001800150d0 f i libucrt:output.obj
 0001:00014148       ?parse_int_from_format_string@?$output_processor@_WV?$string_output_adapter@_W@__crt_stdio_output@@V?$format_validation_base@_WV?$string_output_adapter@_W@__crt_stdio_output@@@2@@__crt_stdio_output@@AEAA_NQEAH@Z 0000000180015148 f i libucrt:output.obj
 0001:000141ec       ?process@?$output_processor@_WV?$string_output_adapter@_W@__crt_stdio_output@@V?$format_validation_base@_WV?$string_output_adapter@_W@__crt_stdio_output@@@2@@__crt_stdio_output@@QEAAHXZ 00000001800151ec f i libucrt:output.obj
 0001:00014464       ?state_case_size@?$output_processor@_WV?$string_output_adapter@_W@__crt_stdio_output@@V?$format_validation_base@_WV?$string_output_adapter@_W@__crt_stdio_output@@@2@@__crt_stdio_output@@AEAA_NXZ 0000000180015464 f i libucrt:output.obj
 0001:000145f8       ?state_case_type@?$output_processor@_WV?$string_output_adapter@_W@__crt_stdio_output@@V?$format_validation_base@_WV?$string_output_adapter@_W@__crt_stdio_output@@@2@@__crt_stdio_output@@AEAA_NXZ 00000001800155f8 f i libucrt:output.obj
 0001:000148d0       ?to_integer_size@__crt_stdio_output@@YA_KW4length_modifier@1@@Z 00000001800158d0 f i libucrt:output.obj
 0001:00014938       ?type_case_Z@?$output_processor@_WV?$string_output_adapter@_W@__crt_stdio_output@@V?$format_validation_base@_WV?$string_output_adapter@_W@__crt_stdio_output@@@2@@__crt_stdio_output@@AEAA_NXZ 0000000180015938 f i libucrt:output.obj
 0001:000149b4       ?type_case_a@?$output_processor@_WV?$string_output_adapter@_W@__crt_stdio_output@@V?$format_validation_base@_WV?$string_output_adapter@_W@__crt_stdio_output@@@2@@__crt_stdio_output@@AEAA_NXZ 00000001800159b4 f i libucrt:output.obj
 0001:00014b94       ?type_case_c_tchar@?$output_processor@_WV?$string_output_adapter@_W@__crt_stdio_output@@V?$format_validation_base@_WV?$string_output_adapter@_W@__crt_stdio_output@@@2@@__crt_stdio_output@@AEAA_N_W@Z 0000000180015b94 f i libucrt:output.obj
 0001:00014c3c       ?type_case_integer@?$output_processor@_WV?$string_output_adapter@_W@__crt_stdio_output@@V?$format_validation_base@_WV?$string_output_adapter@_W@__crt_stdio_output@@@2@@__crt_stdio_output@@AEAA_NI_N@Z 0000000180015c3c f i libucrt:output.obj
 0001:00014dc4       ?type_case_n@?$output_processor@_WV?$string_output_adapter@_W@__crt_stdio_output@@V?$format_validation_base@_WV?$string_output_adapter@_W@__crt_stdio_output@@@2@@__crt_stdio_output@@AEAA_NXZ 0000000180015dc4 f i libucrt:output.obj
 0001:00014e4c       ?type_case_s@?$output_processor@_WV?$string_output_adapter@_W@__crt_stdio_output@@V?$format_validation_base@_WV?$string_output_adapter@_W@__crt_stdio_output@@@2@@__crt_stdio_output@@AEAA_NXZ 0000000180015e4c f i libucrt:output.obj
 0001:00014f14       ?write_stored_string_tchar@?$output_processor@_WV?$string_output_adapter@_W@__crt_stdio_output@@V?$format_validation_base@_WV?$string_output_adapter@_W@__crt_stdio_output@@@2@@__crt_stdio_output@@AEAA_N_W@Z 0000000180015f14 f i libucrt:output.obj
 0001:00014ffc       ?write_string@?$string_output_adapter@_W@__crt_stdio_output@@QEBAXQEB_WHQEAHAEAV__crt_deferred_errno_cache@@@Z 0000000180015ffc f i libucrt:output.obj
 0001:000150a4       __stdio_common_vswprintf_s 00000001800160a4 f   libucrt:output.obj
 0001:00015114       _seh_filter_dll            0000000180016114 f   libucrt:exception_filter.obj
 0001:00015128       _seh_filter_exe            0000000180016128 f   libucrt:exception_filter.obj
 0001:00015518       __acrt_initialize_thread_local_exit_callback 0000000180016518 f   libucrt:exit.obj
 0001:00015520       _cexit                     0000000180016520 f   libucrt:exit.obj
 0001:00015530       _exit                      0000000180016530 f   libucrt:exit.obj
 0001:0001553c       _is_c_termination_complete 000000018001653c f   libucrt:exit.obj
 0001:00015704       __acrt_allocate_buffer_for_argv 0000000180016704 f   libucrt:argv_parsing.obj
 0001:00015764       _configure_narrow_argv     0000000180016764 f   libucrt:argv_parsing.obj
 0001:00015adc       __dcrt_uninitialize_environments_nolock 0000000180016adc f   libucrt:environment_initialization.obj
 0001:00015b14       _initialize_narrow_environment 0000000180016b14 f   libucrt:environment_initialization.obj
 0001:00015e5c       _crt_atexit                0000000180016e5c f   libucrt:onexit.obj
 0001:00015e6c       _execute_onexit_table      0000000180016e6c f   libucrt:onexit.obj
 0001:00015ea8       _initialize_onexit_table   0000000180016ea8 f   libucrt:onexit.obj
 0001:00015ed0       _register_onexit_function  0000000180016ed0 f   libucrt:onexit.obj
 0001:00015f50       __acrt_uninitialize_command_line 0000000180016f50 f   libucrt:argv_data.obj
 0001:00016048       __acrt_initialize          0000000180017048 f   libucrt:initialization.obj
 0001:0001605c       __acrt_thread_attach       000000018001705c f   libucrt:initialization.obj
 0001:00016070       __acrt_thread_detach       0000000180017070 f   libucrt:initialization.obj
 0001:00016080       __acrt_uninitialize        0000000180017080 f   libucrt:initialization.obj
 0001:000160b8       __acrt_uninitialize_critical 00000001800170b8 f   libucrt:initialization.obj
 0001:000160c8       _initterm                  00000001800170c8 f   libucrt:initterm.obj
 0001:0001612c       _initterm_e                000000018001712c f   libucrt:initterm.obj
 0001:0001616c       __acrt_initialize_new_handler 000000018001716c f   libucrt:new_handler.obj
 0001:00016174       _callnewh                  0000000180017174 f   libucrt:new_handler.obj
 0001:000161a4       _query_new_handler         00000001800171a4 f   libucrt:new_handler.obj
 0001:000161d8       terminate                  00000001800171d8 f   libucrt:terminate.obj
 0001:000161f8       abort                      00000001800171f8 f   libucrt:abort.obj
 0001:00016250       strcpy_s                   0000000180017250 f   libucrt:strcpy_s.obj
 0001:000162b0       ??$parse_integer@KV?$c_string_character_source@_W@__crt_strtox@@@__crt_strtox@@YAKQEAU__crt_locale_pointers@@V?$c_string_character_source@_W@0@H_N@Z 00000001800172b0 f i libucrt:atox.obj
 0001:00016970       strncmp                    0000000180017970 f   libucrt:strncmp.obj
 0001:000169f0       wcsncmp                    00000001800179f0 f   libucrt:wcsncmp.obj
 0001:00016a1c       _free_base                 0000000180017a1c f   libucrt:free_base.obj
 0001:00016dd4       __acrt_freeptd             0000000180017dd4 f   libucrt:per_thread_data.obj
 0001:00016e18       __acrt_getptd              0000000180017e18 f   libucrt:per_thread_data.obj
 0001:00016eec       __acrt_getptd_head         0000000180017eec f   libucrt:per_thread_data.obj
 0001:00016f94       __acrt_getptd_noexit       0000000180017f94 f   libucrt:per_thread_data.obj
 0001:00017060       __acrt_initialize_ptd      0000000180018060 f   libucrt:per_thread_data.obj
 0001:0001709c       __acrt_uninitialize_ptd    000000018001809c f   libucrt:per_thread_data.obj
 0001:000170c0       _calloc_base               00000001800180c0 f   libucrt:calloc_base.obj
 0001:00017138       _malloc_base               0000000180018138 f   libucrt:malloc_base.obj
 0001:00017198       _msize_base                0000000180018198 f   libucrt:msize.obj
 0001:000171d4       _realloc_base              00000001800181d4 f   libucrt:realloc_base.obj
 0001:00017428       __acrt_AppPolicyGetProcessTerminationMethodInternal 0000000180018428 f   libucrt:winapi_thunks.obj
 0001:00017478       __acrt_AreFileApisANSI     0000000180018478 f   libucrt:winapi_thunks.obj
 0001:000174b4       __acrt_FlsAlloc            00000001800184b4 f   libucrt:winapi_thunks.obj
 0001:000174fc       __acrt_FlsFree             00000001800184fc f   libucrt:winapi_thunks.obj
 0001:00017544       __acrt_FlsGetValue         0000000180018544 f   libucrt:winapi_thunks.obj
 0001:0001758c       __acrt_FlsSetValue         000000018001858c f   libucrt:winapi_thunks.obj
 0001:000175e0       __acrt_InitializeCriticalSectionEx 00000001800185e0 f   libucrt:winapi_thunks.obj
 0001:00017644       __acrt_LCMapStringEx       0000000180018644 f   libucrt:winapi_thunks.obj
 0001:00017720       __acrt_LocaleNameToLCID    0000000180018720 f   libucrt:winapi_thunks.obj
 0001:00017770       __acrt_SetThreadStackGuarantee 0000000180018770 f   libucrt:winapi_thunks.obj
 0001:000177b4       __acrt_initialize_winapi_thunks 00000001800187b4 f   libucrt:winapi_thunks.obj
 0001:000177e8       __acrt_uninitialize_winapi_thunks 00000001800187e8 f   libucrt:winapi_thunks.obj
 0001:0001782c       wcstol                     000000018001882c f   libucrt:strtox.obj
 0001:00017858       _mbtowc_l                  0000000180018858 f   libucrt:mbtowc.obj
 0001:000179d8       mbtowc                     00000001800189d8 f   libucrt:mbtowc.obj
 0001:000179e0       wcsnlen                    00000001800189e0 f   libucrt:strnlen.obj
 0001:00017bb8       __acrt_update_locale_info  0000000180018bb8 f   libucrt:locale_update.obj
 0001:00017bec       __acrt_update_multibyte_info 0000000180018bec f   libucrt:locale_update.obj
 0001:00018624       __acrt_fp_format           0000000180019624 f   libucrt:cvt.obj
 0001:0001895c       _fileno                    000000018001995c f   libucrt:fileno.obj
 0001:00018984       __acrt_initialize_stdio    0000000180019984 f   libucrt:_file.obj
 0001:00018aa4       __acrt_uninitialize_stdio  0000000180019aa4 f   libucrt:_file.obj
 0001:00018b00       _lock_file                 0000000180019b00 f   libucrt:_file.obj
 0001:00018b0c       _unlock_file               0000000180019b0c f   libucrt:_file.obj
 0001:00018b18       _get_printf_count_output   0000000180019b18 f   libucrt:printf_count_output.obj
 0001:00018ba0       __acrt_set_locale_changed  0000000180019ba0 f   libucrt:wsetlocale.obj
 0001:00018bac       __acrt_uninitialize_locale 0000000180019bac f   libucrt:wsetlocale.obj
 0001:00018dd8       __acrt_initialize_lowio    0000000180019dd8 f   libucrt:ioinit.obj
 0001:00018e14       __acrt_uninitialize_lowio  0000000180019e14 f   libucrt:ioinit.obj
 0001:00018e54       __acrt_initialize_locks    0000000180019e54 f   libucrt:locks.obj
 0001:00018e9c       __acrt_lock                0000000180019e9c f   libucrt:locks.obj
 0001:00018eb8       __acrt_uninitialize_locks  0000000180019eb8 f   libucrt:locks.obj
 0001:00018ef0       __acrt_unlock              0000000180019ef0 f   libucrt:locks.obj
 0001:00018f0c       __acrt_get_process_end_policy 0000000180019f0c f   libucrt:win_policies.obj
 0001:00018f5c       ??$__acrt_mbs_to_wcs_cp@U__crt_win32_buffer_internal_dynamic_resizing@@@@YAHQEBDAEAV?$__crt_win32_buffer@_WU__crt_win32_buffer_internal_dynamic_resizing@@@@I@Z 0000000180019f5c f i libucrt:argv_wildcards.obj
 0001:000190d4       ??$__acrt_wcs_to_mbs_cp@U__crt_win32_buffer_internal_dynamic_resizing@@@@YAHQEB_WAEAV?$__crt_win32_buffer@DU__crt_win32_buffer_internal_dynamic_resizing@@@@I@Z 000000018001a0d4 f i libucrt:argv_wildcards.obj
 0001:00019904       __acrt_expand_narrow_argv_wildcards 000000018001a904 f   libucrt:argv_wildcards.obj
 0001:0001990c       ??$__acrt_wcs_to_mbs_cp@U__crt_win32_buffer_no_resizing@@@@YAHQEB_WAEAV?$__crt_win32_buffer@DU__crt_win32_buffer_no_resizing@@@@I@Z 000000018001a90c f i libucrt:getmodulefilenamea.obj
 0001:00019a20       __acrt_GetModuleFileNameA  000000018001aa20 f   libucrt:getmodulefilenamea.obj
 0001:0001a268       __acrt_initialize_multibyte 000000018001b268 f   libucrt:mbctype.obj
 0001:0001a2c8       __acrt_update_thread_multibyte_data 000000018001b2c8 f   libucrt:mbctype.obj
 0001:0001a2e4       _setmbcp_nolock            000000018001b2e4 f   libucrt:mbctype.obj
 0001:0001a618       _ismbblead                 000000018001b618 f   libucrt:ismbbyte.obj
 0001:0001a62c       __acrt_initialize_command_line 000000018001b62c f   libucrt:argv_data.obj
 0001:0001a654       __acrt_MultiByteToWideChar 000000018001b654 f   libucrt:multibytetowidechar.obj
 0001:0001a6b0       __acrt_WideCharToMultiByte 000000018001b6b0 f   libucrt:widechartomultibyte.obj
 0001:0001a760       __dcrt_get_narrow_environment_from_os 000000018001b760 f   libucrt:get_environment_from_os.obj
 0001:0001a864       __acrt_initialize_heap     000000018001b864 f   libucrt:heap_handle.obj
 0001:0001a880       __acrt_uninitialize_heap   000000018001b880 f   libucrt:heap_handle.obj
 0001:0001a88c       __acrt_execute_initializers 000000018001b88c f   libucrt:shared_initialization.obj
 0001:0001a90c       __acrt_execute_uninitializers 000000018001b90c f   libucrt:shared_initialization.obj
 0001:0001a990       __acrt_get_sigabrt_handler 000000018001b990 f   libucrt:signal.obj
 0001:0001a9c0       __acrt_initialize_signal_handlers 000000018001b9c0 f   libucrt:signal.obj
 0001:0001a9e0       raise                      000000018001b9e0 f   libucrt:signal.obj
 0001:0001ac4c       __acrt_has_user_matherr    000000018001bc4c f   libucrt:matherr.obj
 0001:0001ac6c       __acrt_initialize_user_matherr 000000018001bc6c f   libucrt:matherr.obj
 0001:0001ac74       __acrt_invoke_user_matherr 000000018001bc74 f   libucrt:matherr.obj
 0001:0001ae80       __acrt_stdio_flush_nolock  000000018001be80 f   libucrt:fflush.obj
 0001:0001aefc       _fflush_nolock             000000018001befc f   libucrt:fflush.obj
 0001:0001af48       _flushall                  000000018001bf48 f   libucrt:fflush.obj
 0001:0001af50       __pctype_func              000000018001bf50 f   libucrt:ctype.obj
 0001:0001af80       iswctype                   000000018001bf80 f   libucrt:iswctype.obj
 0001:0001afec       __acrt_add_locale_ref      000000018001bfec f   libucrt:locale_refcounting.obj
 0001:0001b078       __acrt_free_locale         000000018001c078 f   libucrt:locale_refcounting.obj
 0001:0001b1f0       __acrt_locale_add_lc_time_reference 000000018001c1f0 f   libucrt:locale_refcounting.obj
 0001:0001b218       __acrt_locale_free_lc_time_if_unreferenced 000000018001c218 f   libucrt:locale_refcounting.obj
 0001:0001b250       __acrt_locale_release_lc_time_reference 000000018001c250 f   libucrt:locale_refcounting.obj
 0001:0001b278       __acrt_release_locale_ref  000000018001c278 f   libucrt:locale_refcounting.obj
 0001:0001b320       __acrt_update_thread_locale_data 000000018001c320 f   libucrt:locale_refcounting.obj
 0001:0001b390       _updatetlocinfoEx_nolock   000000018001c390 f   libucrt:locale_refcounting.obj
 0001:0001b3f8       _query_new_mode            000000018001c3f8 f   libucrt:new_mode.obj
 0001:0001b400       __acrt_DownlevelLocaleNameToLCID 000000018001c400 f   libucrt:lcidtoname_downlevel.obj
 0001:0001b4b0       _isleadbyte_l              000000018001c4b0 f i libucrt:_wctype.obj
 0001:0001b4fc       ?__mbrtowc_utf8@__crt_mbstring@@YA_KPEA_WPEBD_KPEAU_Mbstatet@@@Z 000000018001c4fc f   libucrt:mbrtowc.obj
 0001:0001b538       ?__mbsrtowcs_utf8@__crt_mbstring@@YA_KPEA_WPEAPEBD_KPEAU_Mbstatet@@@Z 000000018001c538 f   libucrt:mbrtowc.obj
 0001:0001b6b0       __acrt_fp_strflt_to_string 000000018001c6b0 f   libucrt:_fptostr.obj
 0001:0001b800       ?divide@__crt_strtox@@YA_KAEAUbig_integer@1@AEBU21@@Z 000000018001c800 f i libucrt:cfout.obj
 0001:0001bc2c       __acrt_fltout              000000018001cc2c f   libucrt:cfout.obj
 0001:0001cef8       fegetround                 000000018001def8 f   libucrt:fegetround.obj
 0001:0001cf0c       _fcloseall                 000000018001df0c f   libucrt:closeall.obj
 0001:0001cfc0       __acrt_stdio_free_buffer_nolock 000000018001dfc0 f   libucrt:_freebuf.obj
 0001:0001d000       _isatty                    000000018001e000 f   libucrt:isatty.obj
 0001:0001d060       __acrt_locale_free_monetary 000000018001e060 f   libucrt:initmon.obj
 0001:0001d16c       __acrt_locale_free_numeric 000000018001e16c f   libucrt:initnum.obj
 0001:0001d230       __acrt_locale_free_time    000000018001e230 f   libucrt:inittime.obj
 0001:0001d338       __acrt_GetStringTypeA      000000018001e338 f   libucrt:getstringtypea.obj
 0001:0001d4c8       __acrt_lowio_create_handle_array 000000018001e4c8 f   libucrt:osfinfo.obj
 0001:0001d570       __acrt_lowio_destroy_handle_array 000000018001e570 f   libucrt:osfinfo.obj
 0001:0001d5c0       __acrt_lowio_ensure_fh_exists 000000018001e5c0 f   libucrt:osfinfo.obj
 0001:0001d668       __acrt_lowio_lock_fh       000000018001e668 f   libucrt:osfinfo.obj
 0001:0001d690       __acrt_lowio_unlock_fh     000000018001e690 f   libucrt:osfinfo.obj
 0001:0001d6b8       _free_osfhnd               000000018001e6b8 f   libucrt:osfinfo.obj
 0001:0001d774       _get_osfhandle             000000018001e774 f   libucrt:osfinfo.obj
 0001:0001d7f0       qsort                      000000018001e7f0 f   libucrt:qsort.obj
 0001:0001db90       strncpy_s                  000000018001eb90 f   libucrt:strncpy_s.obj
 0001:0001dd10       strpbrk                    000000018001ed10 f   libucrt:strpbrk.obj
 0001:0001e0d8       _mbsdec                    000000018001f0d8 f   libucrt:mbsdec.obj
 0001:0001e0e0       _mbsdec_l                  000000018001f0e0 f   libucrt:mbsdec.obj
 0001:0001e48c       __acrt_LCMapStringA        000000018001f48c f   libucrt:lcmapstringa.obj
 0001:0001e5c8       _commit                    000000018001f5c8 f   libucrt:commit.obj
 0001:0001eed8       _write                     000000018001fed8 f   libucrt:write.obj
 0001:0001efc4       _write_nolock              000000018001ffc4 f   libucrt:write.obj
 0001:0001f2a8       __acrt_GetStringTypeW      00000001800202a8 f   libucrt:getstringtypew.obj
 0001:0001f2b0       __ascii_wcsnicmp           00000001800202b0 f   libucrt:wcsnicmp.obj
 0001:0001f2fc       ?__mbrtoc32_utf8@__crt_mbstring@@YA_KPEA_UPEBD_KPEAU_Mbstatet@@@Z 00000001800202fc f   libucrt:mbrtoc32.obj
 0001:0001f4d4       _controlfp_s               00000001800204d4 f   libucrt:contrlfp.obj
 0001:0001f538       fegetenv                   0000000180020538 f   libucrt:fegetenv.obj
 0001:0001f558       fesetenv                   0000000180020558 f   libucrt:fesetenv.obj
 0001:0001f5a4       feholdexcept               00000001800205a4 f   libucrt:feholdexcept.obj
 0001:0001f5f4       ceil                       00000001800205f4 f   libucrt:ceil.obj
 0001:0001f6c0       log10                      00000001800206c0 f   libucrt:log10.obj
 0001:0001fc6c       __acrt_fenv_get_common_round_control 0000000180020c6c f   libucrt:_fenvutils.obj
 0001:0001fc78       __acrt_fenv_get_control    0000000180020c78 f   libucrt:_fenvutils.obj
 0001:0001fd6c       __acrt_fenv_get_status     0000000180020d6c f   libucrt:_fenvutils.obj
 0001:0001fdc0       __acrt_fenv_set_control    0000000180020dc0 f   libucrt:_fenvutils.obj
 0001:0001ff08       __acrt_fenv_set_status     0000000180020f08 f   libucrt:_fenvutils.obj
 0001:00020028       _lseeki64_nolock           0000000180021028 f   libucrt:lseek.obj
 0001:00020030       _fclose_nolock             0000000180021030 f   libucrt:fclose.obj
 0001:000200b4       fclose                     00000001800210b4 f   libucrt:fclose.obj
 0001:00020118       _query_app_type            0000000180021118 f   libucrt:report_runtime_error.obj
 0001:00020120       __strncnt                  0000000180021120 f   libucrt:strncnt.obj
 0001:00020138       _putwch_nolock             0000000180021138 f   libucrt:putwch.obj
 0001:00020174       _clearfp                   0000000180021174 f   libucrt:ieee.obj
 0001:000201e4       _control87                 00000001800211e4 f   libucrt:ieee.obj
 0001:000205d0       _handle_error              00000001800215d0 f   libucrt:libm_error.obj
 0001:000206f8       _handle_nan                00000001800216f8 f   libucrt:libm_error.obj
 0001:00020720       __acrt_initialize_fma3     0000000180021720 f   libucrt:fma3_available.obj
 0001:00020790       _log10_special             0000000180021790 f   libucrt:log_special.obj
 0001:000208bc       _close                     00000001800218bc f   libucrt:close.obj
 0001:00020960       _close_nolock              0000000180021960 f   libucrt:close.obj
 0001:00020a20       ?__acrt_stdio_free_stream@@YAXV__crt_stdio_stream@@@Z 0000000180021a20 f   libucrt:stream.obj
 0001:00020a3c       __dcrt_lowio_ensure_console_output_initialized 0000000180021a3c f   libucrt:initcon.obj
 0001:00020a90       __dcrt_terminate_console_output 0000000180021a90 f   libucrt:initcon.obj
 0001:00020aac       __dcrt_write_console       0000000180021aac f   libucrt:initcon.obj
 0001:00020b80       _get_fpsr                  0000000180021b80 f   libucrt:fpsr.obj
 0001:00020b90       _set_fpsr                  0000000180021b90 f   libucrt:fpsr.obj
 0001:00020b9a       _fclrf                     0000000180021b9a f   libucrt:fpsr.obj
 0001:00020bae       _frnd                      0000000180021bae f   libucrt:fpsr.obj
 0001:00020bd0       _raise_exc                 0000000180021bd0 f   libucrt:fpexcept.obj
 0001:00020bf8       _raise_exc_ex              0000000180021bf8 f   libucrt:fpexcept.obj
 0001:00020f08       _set_errno_from_matherr    0000000180021f08 f   libucrt:fpexcept.obj
 0001:00020f38       _clrfp                     0000000180021f38 f   libucrt:fpctrl.obj
 0001:00020f58       _ctrlfp                    0000000180021f58 f   libucrt:fpctrl.obj
 0001:00020fd4       _set_statfp                0000000180021fd4 f   libucrt:fpctrl.obj
 0001:00020ff4       _statfp                    0000000180021ff4 f   libucrt:fpctrl.obj
 0001:00021005       IsProcessorFeaturePresent  0000000180022005 f   kernel32:KERNEL32.dll
 0001:00021010       _FindPESection             0000000180022010 f   LIBCMT:pesect.obj
 0001:00021060       _IsNonwritableInCurrentImage 0000000180022060 f   LIBCMT:pesect.obj
 0001:000210b0       _ValidateImageBase         00000001800220b0 f   LIBCMT:pesect.obj
 0001:000210e0       strrchr                    00000001800220e0 f   libvcruntime:strrchr.obj
 0001:00021220       _guard_dispatch_icall_nop  0000000180022220 f   LIBCMT:guard_dispatch.obj
 0001:00021240       _guard_xfg_dispatch_icall_nop 0000000180022240 f   LIBCMT:guard_xfg_dispatch.obj
 0002:00000000       __imp_RegQueryValueExW     0000000180023000     advapi32:ADVAPI32.dll
 0002:00000008       __imp_RegSetValueExW       0000000180023008     advapi32:ADVAPI32.dll
 0002:00000010       __imp_RegQueryInfoKeyW     0000000180023010     advapi32:ADVAPI32.dll
 0002:00000018       __imp_RegOpenKeyExW        0000000180023018     advapi32:ADVAPI32.dll
 0002:00000020       __imp_RegEnumKeyExW        0000000180023020     advapi32:ADVAPI32.dll
 0002:00000028       __imp_RegDeleteValueW      0000000180023028     advapi32:ADVAPI32.dll
 0002:00000030       __imp_RegDeleteKeyW        0000000180023030     advapi32:ADVAPI32.dll
 0002:00000038       __imp_RegCreateKeyExW      0000000180023038     advapi32:ADVAPI32.dll
 0002:00000040       __imp_RegCloseKey          0000000180023040     advapi32:ADVAPI32.dll
 0002:00000048       \177ADVAPI32_NULL_THUNK_DATA 0000000180023048     advapi32:ADVAPI32.dll
 0002:00000050       __imp_GetObjectW           0000000180023050     gdi32:GDI32.dll
 0002:00000058       __imp_SelectObject         0000000180023058     gdi32:GDI32.dll
 0002:00000060       __imp_DeleteObject         0000000180023060     gdi32:GDI32.dll
 0002:00000068       __imp_CreateCompatibleDC   0000000180023068     gdi32:GDI32.dll
 0002:00000070       __imp_BitBlt               0000000180023070     gdi32:GDI32.dll
 0002:00000078       __imp_SetWindowOrgEx       0000000180023078     gdi32:GDI32.dll
 0002:00000080       __imp_SetWindowExtEx       0000000180023080     gdi32:GDI32.dll
 0002:00000088       __imp_SetViewportOrgEx     0000000180023088     gdi32:GDI32.dll
 0002:00000090       __imp_LPtoDP               0000000180023090     gdi32:GDI32.dll
 0002:00000098       __imp_SetMapMode           0000000180023098     gdi32:GDI32.dll
 0002:000000a0       __imp_SaveDC               00000001800230a0     gdi32:GDI32.dll
 0002:000000a8       __imp_RestoreDC            00000001800230a8     gdi32:GDI32.dll
 0002:000000b0       __imp_GetDeviceCaps        00000001800230b0     gdi32:GDI32.dll
 0002:000000b8       __imp_DeleteMetaFile       00000001800230b8     gdi32:GDI32.dll
 0002:000000c0       __imp_DeleteDC             00000001800230c0     gdi32:GDI32.dll
 0002:000000c8       __imp_CreateRectRgnIndirect 00000001800230c8     gdi32:GDI32.dll
 0002:000000d0       __imp_CreateMetaFileW      00000001800230d0     gdi32:GDI32.dll
 0002:000000d8       __imp_CreateDCW            00000001800230d8     gdi32:GDI32.dll
 0002:000000e0       __imp_CloseMetaFile        00000001800230e0     gdi32:GDI32.dll
 0002:000000e8       \177GDI32_NULL_THUNK_DATA  00000001800230e8     gdi32:GDI32.dll
 0002:000000f0       __imp_CloseHandle          00000001800230f0     kernel32:KERNEL32.dll
 0002:000000f8       __imp_SetEvent             00000001800230f8     kernel32:KERNEL32.dll
 0002:00000100       __imp_CreateMutexW         0000000180023100     kernel32:KERNEL32.dll
 0002:00000108       __imp_CreateEventW         0000000180023108     kernel32:KERNEL32.dll
 0002:00000110       __imp_GetCurrentProcessId  0000000180023110     kernel32:KERNEL32.dll
 0002:00000118       __imp_WriteConsoleW        0000000180023118     kernel32:KERNEL32.dll
 0002:00000120       __imp_CreateFileW          0000000180023120     kernel32:KERNEL32.dll
 0002:00000128       __imp_GetConsoleMode       0000000180023128     kernel32:KERNEL32.dll
 0002:00000130       __imp_GetConsoleOutputCP   0000000180023130     kernel32:KERNEL32.dll
 0002:00000138       __imp_WriteFile            0000000180023138     kernel32:KERNEL32.dll
 0002:00000140       __imp_FlushFileBuffers     0000000180023140     kernel32:KERNEL32.dll
 0002:00000148       __imp_SetStdHandle         0000000180023148     kernel32:KERNEL32.dll
 0002:00000150       __imp_GetStringTypeW       0000000180023150     kernel32:KERNEL32.dll
 0002:00000158       __imp_SetFilePointerEx     0000000180023158     kernel32:KERNEL32.dll
 0002:00000160       __imp_FreeEnvironmentStringsW 0000000180023160     kernel32:KERNEL32.dll
 0002:00000168       __imp_lstrcmpiW            0000000180023168     kernel32:KERNEL32.dll
 0002:00000170       __imp_GetCommandLineW      0000000180023170     kernel32:KERNEL32.dll
 0002:00000178       __imp_GetCommandLineA      0000000180023178     kernel32:KERNEL32.dll
 0002:00000180       __imp_GetCPInfo            0000000180023180     kernel32:KERNEL32.dll
 0002:00000188       __imp_GetOEMCP             0000000180023188     kernel32:KERNEL32.dll
 0002:00000190       __imp_GetACP               0000000180023190     kernel32:KERNEL32.dll
 0002:00000198       __imp_IsValidCodePage      0000000180023198     kernel32:KERNEL32.dll
 0002:000001a0       __imp_FindNextFileW        00000001800231a0     kernel32:KERNEL32.dll
 0002:000001a8       __imp_FindFirstFileExW     00000001800231a8     kernel32:KERNEL32.dll
 0002:000001b0       __imp_FindClose            00000001800231b0     kernel32:KERNEL32.dll
 0002:000001b8       __imp_GetFileType          00000001800231b8     kernel32:KERNEL32.dll
 0002:000001c0       __imp_GetStdHandle         00000001800231c0     kernel32:KERNEL32.dll
 0002:000001c8       __imp_LCMapStringW         00000001800231c8     kernel32:KERNEL32.dll
 0002:000001d0       __imp_HeapReAlloc          00000001800231d0     kernel32:KERNEL32.dll
 0002:000001d8       __imp_HeapSize             00000001800231d8     kernel32:KERNEL32.dll
 0002:000001e0       __imp_MulDiv               00000001800231e0     kernel32:KERNEL32.dll
 0002:000001e8       __imp_GlobalLock           00000001800231e8     kernel32:KERNEL32.dll
 0002:000001f0       __imp_GlobalUnlock         00000001800231f0     kernel32:KERNEL32.dll
 0002:000001f8       __imp_GlobalAlloc          00000001800231f8     kernel32:KERNEL32.dll
 0002:00000200       __imp_FindResourceW        0000000180023200     kernel32:KERNEL32.dll
 0002:00000208       __imp_SizeofResource       0000000180023208     kernel32:KERNEL32.dll
 0002:00000210       __imp_LoadResource         0000000180023210     kernel32:KERNEL32.dll
 0002:00000218       __imp_LoadLibraryExW       0000000180023218     kernel32:KERNEL32.dll
 0002:00000220       __imp_GetProcAddress       0000000180023220     kernel32:KERNEL32.dll
 0002:00000228       __imp_GetModuleHandleW     0000000180023228     kernel32:KERNEL32.dll
 0002:00000230       __imp_GetModuleFileNameW   0000000180023230     kernel32:KERNEL32.dll
 0002:00000238       __imp_FreeLibrary          0000000180023238     kernel32:KERNEL32.dll
 0002:00000240       __imp_DisableThreadLibraryCalls 0000000180023240     kernel32:KERNEL32.dll
 0002:00000248       __imp_GetCurrentThreadId   0000000180023248     kernel32:KERNEL32.dll
 0002:00000250       __imp_Sleep                0000000180023250     kernel32:KERNEL32.dll
 0002:00000258       __imp_WaitForSingleObject  0000000180023258     kernel32:KERNEL32.dll
 0002:00000260       __imp_ReleaseMutex         0000000180023260     kernel32:KERNEL32.dll
 0002:00000268       __imp_ResetEvent           0000000180023268     kernel32:KERNEL32.dll
 0002:00000270       __imp_EnterCriticalSection 0000000180023270     kernel32:KERNEL32.dll
 0002:00000278       __imp_LeaveCriticalSection 0000000180023278     kernel32:KERNEL32.dll
 0002:00000280       __imp_SetLastError         0000000180023280     kernel32:KERNEL32.dll
 0002:00000288       __imp_EncodePointer        0000000180023288     kernel32:KERNEL32.dll
 0002:00000290       __imp_DeleteCriticalSection 0000000180023290     kernel32:KERNEL32.dll
 0002:00000298       __imp_InitializeCriticalSectionEx 0000000180023298     kernel32:KERNEL32.dll
 0002:000002a0       __imp_GetLastError         00000001800232a0     kernel32:KERNEL32.dll
 0002:000002a8       __imp_RaiseException       00000001800232a8     kernel32:KERNEL32.dll
 0002:000002b0       __imp_DecodePointer        00000001800232b0     kernel32:KERNEL32.dll
 0002:000002b8       __imp_WideCharToMultiByte  00000001800232b8     kernel32:KERNEL32.dll
 0002:000002c0       __imp_GetEnvironmentStringsW 00000001800232c0     kernel32:KERNEL32.dll
 0002:000002c8       __imp_MultiByteToWideChar  00000001800232c8     kernel32:KERNEL32.dll
 0002:000002d0       __imp_GetModuleHandleExW   00000001800232d0     kernel32:KERNEL32.dll
 0002:000002d8       __imp_ExitProcess          00000001800232d8     kernel32:KERNEL32.dll
 0002:000002e0       __imp_VirtualQuery         00000001800232e0     kernel32:KERNEL32.dll
 0002:000002e8       __imp_VirtualProtect       00000001800232e8     kernel32:KERNEL32.dll
 0002:000002f0       __imp_GetSystemInfo        00000001800232f0     kernel32:KERNEL32.dll
 0002:000002f8       __imp_TlsFree              00000001800232f8     kernel32:KERNEL32.dll
 0002:00000300       __imp_TlsSetValue          0000000180023300     kernel32:KERNEL32.dll
 0002:00000308       __imp_TlsGetValue          0000000180023308     kernel32:KERNEL32.dll
 0002:00000310       __imp_TlsAlloc             0000000180023310     kernel32:KERNEL32.dll
 0002:00000318       __imp_RtlPcToFileHeader    0000000180023318     kernel32:KERNEL32.dll
 0002:00000320       __imp_InterlockedFlushSList 0000000180023320     kernel32:KERNEL32.dll
 0002:00000328       __imp_RtlUnwindEx          0000000180023328     kernel32:KERNEL32.dll
 0002:00000330       __imp_LoadLibraryExA       0000000180023330     kernel32:KERNEL32.dll
 0002:00000338       __imp_VirtualFree          0000000180023338     kernel32:KERNEL32.dll
 0002:00000340       __imp_VirtualAlloc         0000000180023340     kernel32:KERNEL32.dll
 0002:00000348       __imp_FlushInstructionCache 0000000180023348     kernel32:KERNEL32.dll
 0002:00000350       __imp_InterlockedPushEntrySList 0000000180023350     kernel32:KERNEL32.dll
 0002:00000358       __imp_InterlockedPopEntrySList 0000000180023358     kernel32:KERNEL32.dll
 0002:00000360       __imp_GetProcessHeap       0000000180023360     kernel32:KERNEL32.dll
 0002:00000368       __imp_HeapFree             0000000180023368     kernel32:KERNEL32.dll
 0002:00000370       __imp_HeapAlloc            0000000180023370     kernel32:KERNEL32.dll
 0002:00000378       __imp_OutputDebugStringW   0000000180023378     kernel32:KERNEL32.dll
 0002:00000380       __imp_InitializeSListHead  0000000180023380     kernel32:KERNEL32.dll
 0002:00000388       __imp_GetSystemTimeAsFileTime 0000000180023388     kernel32:KERNEL32.dll
 0002:00000390       __imp_QueryPerformanceCounter 0000000180023390     kernel32:KERNEL32.dll
 0002:00000398       __imp_GetStartupInfoW      0000000180023398     kernel32:KERNEL32.dll
 0002:000003a0       __imp_IsDebuggerPresent    00000001800233a0     kernel32:KERNEL32.dll
 0002:000003a8       __imp_IsProcessorFeaturePresent 00000001800233a8     kernel32:KERNEL32.dll
 0002:000003b0       __imp_TerminateProcess     00000001800233b0     kernel32:KERNEL32.dll
 0002:000003b8       __imp_GetCurrentProcess    00000001800233b8     kernel32:KERNEL32.dll
 0002:000003c0       __imp_InitializeCriticalSectionAndSpinCount 00000001800233c0     kernel32:KERNEL32.dll
 0002:000003c8       __imp_WaitForSingleObjectEx 00000001800233c8     kernel32:KERNEL32.dll
 0002:000003d0       __imp_RtlCaptureContext    00000001800233d0     kernel32:KERNEL32.dll
 0002:000003d8       __imp_RtlLookupFunctionEntry 00000001800233d8     kernel32:KERNEL32.dll
 0002:000003e0       __imp_RtlVirtualUnwind     00000001800233e0     kernel32:KERNEL32.dll
 0002:000003e8       __imp_UnhandledExceptionFilter 00000001800233e8     kernel32:KERNEL32.dll
 0002:000003f0       __imp_SetUnhandledExceptionFilter 00000001800233f0     kernel32:KERNEL32.dll
 0002:000003f8       \177KERNEL32_NULL_THUNK_DATA 00000001800233f8     kernel32:KERNEL32.dll
 0002:00000400       __imp_OleCreatePropertyFrame 0000000180023400     oleaut32:OLEAUT32.dll
 0002:00000408       __imp_UnRegisterTypeLib    0000000180023408     oleaut32:OLEAUT32.dll
 0002:00000410       __imp_RegisterTypeLib      0000000180023410     oleaut32:OLEAUT32.dll
 0002:00000418       __imp_LoadRegTypeLib       0000000180023418     oleaut32:OLEAUT32.dll
 0002:00000420       __imp_LoadTypeLib          0000000180023420     oleaut32:OLEAUT32.dll
 0002:00000428       __imp_VarUI4FromStr        0000000180023428     oleaut32:OLEAUT32.dll
 0002:00000430       __imp_VariantInit          0000000180023430     oleaut32:OLEAUT32.dll
 0002:00000438       __imp_SysAllocStringByteLen 0000000180023438     oleaut32:OLEAUT32.dll
 0002:00000440       __imp_SysStringByteLen     0000000180023440     oleaut32:OLEAUT32.dll
 0002:00000448       __imp_VariantChangeType    0000000180023448     oleaut32:OLEAUT32.dll
 0002:00000450       __imp_VariantClear         0000000180023450     oleaut32:OLEAUT32.dll
 0002:00000458       __imp_SysStringLen         0000000180023458     oleaut32:OLEAUT32.dll
 0002:00000460       __imp_SysFreeString        0000000180023460     oleaut32:OLEAUT32.dll
 0002:00000468       __imp_SysAllocStringLen    0000000180023468     oleaut32:OLEAUT32.dll
 0002:00000470       __imp_SysAllocString       0000000180023470     oleaut32:OLEAUT32.dll
 0002:00000478       \177OLEAUT32_NULL_THUNK_DATA 0000000180023478     oleaut32:OLEAUT32.dll
 0002:00000480       __imp_UnregisterClassW     0000000180023480     user32:USER32.dll
 0002:00000488       __imp_PostMessageW         0000000180023488     user32:USER32.dll
 0002:00000490       __imp_DefWindowProcW       0000000180023490     user32:USER32.dll
 0002:00000498       __imp_CallWindowProcW      0000000180023498     user32:USER32.dll
 0002:000004a0       __imp_RegisterClassExW     00000001800234a0     user32:USER32.dll
 0002:000004a8       __imp_GetClassInfoExW      00000001800234a8     user32:USER32.dll
 0002:000004b0       __imp_CreateWindowExW      00000001800234b0     user32:USER32.dll
 0002:000004b8       __imp_IsWindow             00000001800234b8     user32:USER32.dll
 0002:000004c0       __imp_IsChild              00000001800234c0     user32:USER32.dll
 0002:000004c8       __imp_DestroyWindow        00000001800234c8     user32:USER32.dll
 0002:000004d0       __imp_ShowWindow           00000001800234d0     user32:USER32.dll
 0002:000004d8       __imp_SetWindowPos         00000001800234d8     user32:USER32.dll
 0002:000004e0       __imp_CharNextW            00000001800234e0     user32:USER32.dll
 0002:000004e8       __imp_SetFocus             00000001800234e8     user32:USER32.dll
 0002:000004f0       __imp_LoadBitmapW          00000001800234f0     user32:USER32.dll
 0002:000004f8       __imp_RegisterClassW       00000001800234f8     user32:USER32.dll
 0002:00000500       __imp_PeekMessageW         0000000180023500     user32:USER32.dll
 0002:00000508       __imp_LoadCursorW          0000000180023508     user32:USER32.dll
 0002:00000510       __imp_GetParent            0000000180023510     user32:USER32.dll
 0002:00000518       __imp_SetWindowLongPtrW    0000000180023518     user32:USER32.dll
 0002:00000520       __imp_GetWindowLongPtrW    0000000180023520     user32:USER32.dll
 0002:00000528       __imp_PtInRect             0000000180023528     user32:USER32.dll
 0002:00000530       __imp_EqualRect            0000000180023530     user32:USER32.dll
 0002:00000538       __imp_OffsetRect           0000000180023538     user32:USER32.dll
 0002:00000540       __imp_UnionRect            0000000180023540     user32:USER32.dll
 0002:00000548       __imp_IntersectRect        0000000180023548     user32:USER32.dll
 0002:00000550       __imp_GetClientRect        0000000180023550     user32:USER32.dll
 0002:00000558       __imp_InvalidateRect       0000000180023558     user32:USER32.dll
 0002:00000560       __imp_SetWindowRgn         0000000180023560     user32:USER32.dll
 0002:00000568       __imp_EndPaint             0000000180023568     user32:USER32.dll
 0002:00000570       __imp_BeginPaint           0000000180023570     user32:USER32.dll
 0002:00000578       __imp_ReleaseDC            0000000180023578     user32:USER32.dll
 0002:00000580       __imp_GetDC                0000000180023580     user32:USER32.dll
 0002:00000588       __imp_GetKeyState          0000000180023588     user32:USER32.dll
 0002:00000590       __imp_GetFocus             0000000180023590     user32:USER32.dll
 0002:00000598       \177USER32_NULL_THUNK_DATA 0000000180023598     user32:USER32.dll
 0002:000005a0       __imp_CoCreateInstance     00000001800235a0     ole32:ole32.dll
 0002:000005a8       __imp_StringFromGUID2      00000001800235a8     ole32:ole32.dll
 0002:000005b0       __imp_CoTaskMemAlloc       00000001800235b0     ole32:ole32.dll
 0002:000005b8       __imp_CoTaskMemFree        00000001800235b8     ole32:ole32.dll
 0002:000005c0       __imp_ReadClassStm         00000001800235c0     ole32:ole32.dll
 0002:000005c8       __imp_WriteClassStm        00000001800235c8     ole32:ole32.dll
 0002:000005d0       __imp_CreateDataAdviseHolder 00000001800235d0     ole32:ole32.dll
 0002:000005d8       __imp_OleSaveToStream      00000001800235d8     ole32:ole32.dll
 0002:000005e0       __imp_CreateOleAdviseHolder 00000001800235e0     ole32:ole32.dll
 0002:000005e8       __imp_OleRegGetUserType    00000001800235e8     ole32:ole32.dll
 0002:000005f0       __imp_OleRegGetMiscStatus  00000001800235f0     ole32:ole32.dll
 0002:000005f8       __imp_OleRegEnumVerbs      00000001800235f8     ole32:ole32.dll
 0002:00000600       __imp_CLSIDFromProgID      0000000180023600     ole32:ole32.dll
 0002:00000608       __imp_CoTaskMemRealloc     0000000180023608     ole32:ole32.dll
 0002:00000610       \177ole32_NULL_THUNK_DATA  0000000180023610     ole32:ole32.dll
 0002:00000618       __guard_check_icall_fptr   0000000180023618     LIBCMT:guard_support.obj
 0002:00000620       __guard_xfg_check_icall_fptr 0000000180023620     LIBCMT:guard_support.obj
 0002:00000628       __guard_dispatch_icall_fptr 0000000180023628     LIBCMT:guard_support.obj
 0002:00000630       __guard_xfg_dispatch_icall_fptr 0000000180023630     LIBCMT:guard_support.obj
 0002:00000638       __guard_xfg_table_dispatch_icall_fptr 0000000180023638     LIBCMT:guard_support.obj
 0002:00000640       __xc_a                     0000000180023640     LIBCMT:initializers.obj
 0002:00000670       __xc_z                     0000000180023670     LIBCMT:initializers.obj
 0002:00000678       __xi_a                     0000000180023678     LIBCMT:initializers.obj
 0002:00000688       __acrt_stdio_initializer   0000000180023688     libucrt:stdio_initializer.obj
 0002:00000690       __acrt_multibyte_initializer 0000000180023690     libucrt:multibyte_initializer.obj
 0002:00000698       __acrt_tran_fma3_initializer 0000000180023698     libucrt:fma3_initializer.obj
 0002:000006a0       __xi_z                     00000001800236a0     LIBCMT:initializers.obj
 0002:000006a8       __xl_a                     00000001800236a8     LIBCMT:tlssup.obj
 0002:000006b0       __xl_z                     00000001800236b0     LIBCMT:tlssup.obj
 0002:000006b8       __xp_a                     00000001800236b8     LIBCMT:initializers.obj
 0002:000006c0       __acrt_locale_terminator   00000001800236c0     libucrt:locale_initializer.obj
 0002:000006c8       __dcrt_console_output_terminator 00000001800236c8     libucrt:console_output_initializer.obj
 0002:000006d0       __acrt_stdio_terminator    00000001800236d0     libucrt:stdio_initializer.obj
 0002:000006d8       __xp_z                     00000001800236d8     LIBCMT:initializers.obj
 0002:000006e0       __xt_a                     00000001800236e0     LIBCMT:initializers.obj
 0002:000006e8       __xt_z                     00000001800236e8     LIBCMT:initializers.obj
 0002:000006f0       ??_C@_13HADIAKP@?$AAS@     00000001800236f0     OposVariant.obj
 0002:000006f4       ??_C@_13LHMFKAAD@?$AAM@    00000001800236f4     OposVariant.obj
 0002:000006f8       ??_C@_13MKMNOPIJ@?$AAD@    00000001800236f8     OposVariant.obj
 0002:000006fc       ??_C@_13OPKGLAFF@?$AAB@    00000001800236fc     OposVariant.obj
 0002:00000700       ??_C@_17LLMMEOJD@?$AAV?$AAa?$AAl@ 0000000180023700     OposVariant.obj
 0002:00000708       ??_C@_1BI@JFAIJMHL@?$AAF?$AAo?$AAr?$AAc?$AAe?$AAR?$AAe?$AAm?$AAo?$AAv?$AAe@ 0000000180023708     OposVariant.obj
 0002:00000720       ??_C@_1BC@GCKHIPE@?$AAN?$AAo?$AAR?$AAe?$AAm?$AAo?$AAv?$AAe@ 0000000180023720     OposVariant.obj
 0002:00000738       ??_C@_1O@JDLOHAN@?$AAD?$AAe?$AAl?$AAe?$AAt?$AAe@ 0000000180023738     OposVariant.obj
 0002:00000748       ??_C@_11LOCGONAA@@         0000000180023748     OposVariant.obj
 0002:00000750       IID_IOPOSToneIndicator_1_5 0000000180023750     ToneIndicator.obj
 0002:00000760       IID_IOPOSToneIndicator_1_8 0000000180023760     ToneIndicator.obj
 0002:00000770       IID_IOPOSToneIndicator_1_9 0000000180023770     ToneIndicator.obj
 0002:00000780       IID_IOPOSToneIndicator_1_9_zz 0000000180023780     ToneIndicator.obj
 0002:00000790       IID_IOPOSToneIndicator_1_13 0000000180023790     ToneIndicator.obj
 0002:000007a0       IID_IOPOSToneIndicator     00000001800237a0     ToneIndicator.obj
 0002:000007b0       LIBID_OposToneIndicator_CCO 00000001800237b0     ToneIndicator.obj
 0002:000007c0       DIID__IOPOSToneIndicatorEvents 00000001800237c0     ToneIndicator.obj
 0002:000007d0       CLSID_OPOSToneIndicator    00000001800237d0     ToneIndicator.obj
 0002:000007e0       _GUID_00000114_0000_0000_c000_000000000046 00000001800237e0     ToneIndicator.obj
 0002:000007f0       ??_C@_1BK@BIGILECK@?$AAA?$AAd?$AAv?$AAa?$AAp?$AAi?$AA3?$AA2?$AA?4?$AAd?$AAl?$AAl@ 00000001800237f0     ToneIndicator.obj
 0002:00000810       ??_C@_0BI@MNCFCPFK@RegCreateKeyTransactedW@ 0000000180023810     ToneIndicator.obj
 0002:00000828       _GUID_b196b287_bab4_101a_b69c_00aa00341d07 0000000180023828     ToneIndicator.obj
 0002:00000838       _GUID_b196b285_bab4_101a_b69c_00aa00341d07 0000000180023838     ToneIndicator.obj
 0002:00000848       _GUID_a6bc3ac0_dbaa_11ce_9de3_00aa004bb851 0000000180023848     ToneIndicator.obj
 0002:00000858       _GUID_0000010c_0000_0000_c000_000000000046 0000000180023858     ToneIndicator.obj
 0002:00000870       ?_entries@?1??_GetEntries@COPOSToneIndicator@@SAPEBU_ATL_INTMAP_ENTRY@ATL@@XZ@4QBU34@B 0000000180023870     ToneIndicator.obj
 0002:00000b10       _GUID_00000146_0000_0000_c000_000000000046 0000000180023b10     ToneIndicator.obj
 0002:00000b20       _GUID_cf51ed10_62fe_11cf_bf86_00a0c9034836 0000000180023b20     ToneIndicator.obj
 0002:00000b30       _GUID_0000010a_0000_0000_c000_000000000046 0000000180023b30     ToneIndicator.obj
 0002:00000b40       _GUID_b196b283_bab4_101a_b69c_00aa00341d07 0000000180023b40     ToneIndicator.obj
 0002:00000b50       _GUID_cb5bdc81_93c1_11cf_8f20_00805f2cd064 0000000180023b50     ToneIndicator.obj
 0002:00000b60       ?pPropMap@?1??GetPropertyMap@COPOSToneIndicator@@SAPEBUATL_PROPMAP_ENTRY@ATL@@XZ@4QBU34@B 0000000180023b60     ToneIndicator.obj
 0002:00000c08       ??_C@_17DGDADEHL@?$AA_?$AAc?$AAx@ 0000000180023c08     ToneIndicator.obj
 0002:00000c10       ??_C@_17IOIMFDBO@?$AA_?$AAc?$AAy@ 0000000180023c10     ToneIndicator.obj
 0002:00000c18       _GUID_922eada0_3424_11cf_b670_00aa004cd6d8 0000000180023c18     ToneIndicator.obj
 0002:00000c28       _GUID_9c2cad80_3424_11cf_b670_00aa004cd6d8 0000000180023c28     ToneIndicator.obj
 0002:00000c38       _GUID_00000119_0000_0000_c000_000000000046 0000000180023c38     ToneIndicator.obj
 0002:00000c48       _GUID_b196b289_bab4_101a_b69c_00aa00341d07 0000000180023c48     ToneIndicator.obj
 0002:00000c58       ??_7CComModule@ATL@@6B@    0000000180023c58     ToneIndicator.obj
 0002:00000ca8       ??_7?$CComObjectCached@VCComClassFactory@ATL@@@ATL@@6B@ 0000000180023ca8     ToneIndicator.obj
 0002:00000cd8       ??_C@_1CE@PGFMOFKI@?$AAS?$AAt?$AAa?$AAt?$AAu?$AAs?$AAU?$AAp?$AAd?$AAa?$AAt?$AAe?$AAE?$AAv?$AAe@ 0000000180023cd8     ToneIndicator.obj
 0002:00000d00       ??_C@_1CI@HLBJDONE@?$AAO?$AAu?$AAt?$AAp?$AAu?$AAt?$AAC?$AAo?$AAm?$AAp?$AAl?$AAe?$AAt?$AAe?$AAE@ 0000000180023d00     ToneIndicator.obj
 0002:00000d28       _GUID_00000117_0000_0000_c000_000000000046 0000000180023d28     ToneIndicator.obj
 0002:00000d38       ??_C@_1BG@LODEBHDD@?$AAE?$AAr?$AAr?$AAo?$AAr?$AAE?$AAv?$AAe?$AAn?$AAt@ 0000000180023d38     ToneIndicator.obj
 0002:00000d50       ??_C@_1BM@CBGEBBBJ@?$AAD?$AAi?$AAr?$AAe?$AAc?$AAt?$AAI?$AAO?$AAE?$AAv?$AAe?$AAn?$AAt@ 0000000180023d50     ToneIndicator.obj
 0002:00000d70       _GUID_b196b286_bab4_101a_b69c_00aa00341d07 0000000180023d70     ToneIndicator.obj
 0002:00000d80       _GUID_00000000_0000_0000_c000_000000000046 0000000180023d80     ToneIndicator.obj
 0002:00000d90       _GUID_00020400_0000_0000_c000_000000000046 0000000180023d90     ToneIndicator.obj
 0002:00000da0       ??_C@_1BC@ENICKDH@?$AAC?$AAo?$AAn?$AAt?$AAe?$AAn?$AAt?$AAs@ 0000000180023da0     ToneIndicator.obj
 0002:00000db8       ??_7?$CComObject@V?$CComEnum@UIEnumConnectionPoints@@$1?_GUID_b196b285_bab4_101a_b69c_00aa00341d07@@3U__s_GUID@@BPEAUIConnectionPoint@@V?$_CopyInterface@UIConnectionPoint@@@ATL@@VCComSingleThreadModel@6@@ATL@@@ATL@@6B@ 0000000180023db8     ToneIndicator.obj
 0002:00000df8       ??_C@_1M@KANJNLFF@?$AAC?$AAL?$AAS?$AAI?$AAD@ 0000000180023df8     ToneIndicator.obj
 0002:00000e08       _GUID_0000010e_0000_0000_c000_000000000046 0000000180023e08     ToneIndicator.obj
 0002:00000e18       _GUID_b196b288_bab4_101a_b69c_00aa00341d07 0000000180023e18     ToneIndicator.obj
 0002:00000e28       ??_C@_1M@EJNEECMJ@?$AAA?$AAp?$AAp?$AAI?$AAD@ 0000000180023e28     ToneIndicator.obj
 0002:00000e40       ?rgszNeverDelete@CRegParser@ATL@@1QBQEB_WB 0000000180023e40     ToneIndicator.obj
 0002:00000ea0       _GUID_00000113_0000_0000_c000_000000000046 0000000180023ea0     ToneIndicator.obj
 0002:00000eb0       ??_7CRegObject@ATL@@6B@    0000000180023eb0     ToneIndicator.obj
 0002:00000ee0       _GUID_1c2056cc_5ef4_101b_8bc8_00aa003e3b29 0000000180023ee0     ToneIndicator.obj
 0002:00000ef0       ??_C@_1CK@OEKPKBNA@?$AAC?$AAo?$AAm?$AAp?$AAo?$AAn?$AAe?$AAn?$AAt?$AA?5?$AAC?$AAa?$AAt?$AAe?$AAg@ 0000000180023ef0     ToneIndicator.obj
 0002:00000f20       ??_C@_1BC@NKMMNMGL@?$AAF?$AAi?$AAl?$AAe?$AAT?$AAy?$AAp?$AAe@ 0000000180023f20     ToneIndicator.obj
 0002:00000f38       ??_C@_1BE@EKPAFMCP@?$AAI?$AAn?$AAt?$AAe?$AAr?$AAf?$AAa?$AAc?$AAe@ 0000000180023f38     ToneIndicator.obj
 0002:00000f50       ??_C@_1BC@MAICEHGI@?$AAH?$AAa?$AAr?$AAd?$AAw?$AAa?$AAr?$AAe@ 0000000180023f50     ToneIndicator.obj
 0002:00000f68       ??_C@_19HLLLM@?$AAM?$AAi?$AAm?$AAe@ 0000000180023f68     ToneIndicator.obj
 0002:00000f78       ??_C@_17OMAOINJK@?$AAS?$AAA?$AAM@ 0000000180023f78     ToneIndicator.obj
 0002:00000f80       ??_C@_1BC@IBECJAAI@?$AAS?$AAE?$AAC?$AAU?$AAR?$AAI?$AAT?$AAY@ 0000000180023f80     ToneIndicator.obj
 0002:00000f98       ??_C@_1O@GBFINDKL@?$AAS?$AAY?$AAS?$AAT?$AAE?$AAM@ 0000000180023f98     ToneIndicator.obj
 0002:00000fa8       ??_C@_1BC@EAHCMADO@?$AAS?$AAo?$AAf?$AAt?$AAw?$AAa?$AAr?$AAe@ 0000000180023fa8     ToneIndicator.obj
 0002:00000fc0       ??_C@_1BA@JIHHIEDE@?$AAT?$AAy?$AAp?$AAe?$AAL?$AAi?$AAb@ 0000000180023fc0     ToneIndicator.obj
 0002:00000fd0       _GUID_00000112_0000_0000_c000_000000000046 0000000180023fd0     ToneIndicator.obj
 0002:00000fe0       ?map@?1??HKeyFromString@CRegParser@ATL@@KAPEAUHKEY__@@PEA_W@Z@4QBUkeymap@?1??123@KAPEAU4@0@Z@B 0000000180023fe0     ToneIndicator.obj
 0002:000010c0       ??_C@_19NCHLBIN@?$AAH?$AAK?$AAC?$AAR@ 00000001800240c0     ToneIndicator.obj
 0002:000010d0       ??_C@_19JAPAIJDE@?$AAH?$AAK?$AAC?$AAU@ 00000001800240d0     ToneIndicator.obj
 0002:000010e0       ??_C@_19PEALEEJB@?$AAH?$AAK?$AAL?$AAM@ 00000001800240e0     ToneIndicator.obj
 0002:000010f0       ??_C@_17PJOJPMPB@?$AAH?$AAK?$AAU@ 00000001800240f0     ToneIndicator.obj
 0002:000010f8       ??_C@_19PNBHMJPL@?$AAH?$AAK?$AAP?$AAD@ 00000001800240f8     ToneIndicator.obj
 0002:00001108       ??_C@_19GFFAIJHG@?$AAH?$AAK?$AAD?$AAD@ 0000000180024108     ToneIndicator.obj
 0002:00001118       ??_C@_19OFICIBHH@?$AAH?$AAK?$AAC?$AAC@ 0000000180024118     ToneIndicator.obj
 0002:00001128       ??_C@_1CE@PACHPJFI@?$AAH?$AAK?$AAE?$AAY?$AA_?$AAC?$AAL?$AAA?$AAS?$AAS?$AAE?$AAS?$AA_?$AAR?$AAO@ 0000000180024128     ToneIndicator.obj
 0002:00001150       ??_C@_1CE@HLHNCBPM@?$AAH?$AAK?$AAE?$AAY?$AA_?$AAC?$AAU?$AAR?$AAR?$AAE?$AAN?$AAT?$AA_?$AAU?$AAS@ 0000000180024150     ToneIndicator.obj
 0002:00001178       ??_C@_1CG@GFBEANJL@?$AAH?$AAK?$AAE?$AAY?$AA_?$AAL?$AAO?$AAC?$AAA?$AAL?$AA_?$AAM?$AAA?$AAC?$AAH@ 0000000180024178     ToneIndicator.obj
 0002:000011a0       ??_C@_1BG@BGODANIO@?$AAH?$AAK?$AAE?$AAY?$AA_?$AAU?$AAS?$AAE?$AAR?$AAS@ 00000001800241a0     ToneIndicator.obj
 0002:000011b8       ??_C@_1CM@KHNNAOIC@?$AAH?$AAK?$AAE?$AAY?$AA_?$AAP?$AAE?$AAR?$AAF?$AAO?$AAR?$AAM?$AAA?$AAN?$AAC@ 00000001800241b8     ToneIndicator.obj
 0002:000011e8       _GUID_3af24292_0c96_11ce_a0cf_00aa00600ab8 00000001800241e8     ToneIndicator.obj
 0002:000011f8       ??_C@_1BM@HAGMMHIA@?$AAH?$AAK?$AAE?$AAY?$AA_?$AAD?$AAY?$AAN?$AA_?$AAD?$AAA?$AAT?$AAA@ 00000001800241f8     ToneIndicator.obj
 0002:00001218       ??_C@_1CI@BBJOACGG@?$AAH?$AAK?$AAE?$AAY?$AA_?$AAC?$AAU?$AAR?$AAR?$AAE?$AAN?$AAT?$AA_?$AAC?$AAO@ 0000000180024218     ToneIndicator.obj
 0002:00001240       _GUID_00000127_0000_0000_c000_000000000046 0000000180024240     ToneIndicator.obj
 0002:00001250       _GUID_0000010d_0000_0000_c000_000000000046 0000000180024250     ToneIndicator.obj
 0002:00001260       _GUID_00000109_0000_0000_c000_000000000046 0000000180024260     ToneIndicator.obj
 0002:00001270       _GUID_7fd52380_4e07_101b_ae2d_08002b2ec713 0000000180024270     ToneIndicator.obj
 0002:00001280       ??_C@_1M@PPPPCDEP@?$AAA?$AAP?$AAP?$AAI?$AAD@ 0000000180024280     ToneIndicator.obj
 0002:00001290       ??_C@_1EA@NHKLICFA@?$AAH?$AAK?$AAC?$AAU?$AA?$AN?$AA?6?$AA?$HL?$AA?7?$AAS?$AAo?$AAf?$AAt?$AAw?$AAa?$AAr@ 0000000180024290     ToneIndicator.obj
 0002:000012d0       ??_C@_1BE@LJOLIMEM@?$AA?$AN?$AA?6?$AA?7?$AA?$HN?$AA?$AN?$AA?6?$AA?$HN?$AA?$AN?$AA?6@ 00000001800242d0     ToneIndicator.obj
 0002:000012e8       ??_C@_1O@MNLDABAF@?$AAM?$AAo?$AAd?$AAu?$AAl?$AAe@ 00000001800242e8     ToneIndicator.obj
 0002:000012f8       ??_C@_1BG@JBACFMF@?$AAM?$AAo?$AAd?$AAu?$AAl?$AAe?$AA_?$AAR?$AAa?$AAw@ 00000001800242f8     ToneIndicator.obj
 0002:00001310       ??_C@_1BC@KAILKFFG@?$AAR?$AAE?$AAG?$AAI?$AAS?$AAT?$AAR?$AAY@ 0000000180024310     ToneIndicator.obj
 0002:00001328       ??_7?$CComContainedObject@VCOPOSToneIndicator@@@ATL@@6B?$IDispatchImpl@UIOPOSToneIndicator@@$1?IID_IOPOSToneIndicator@@3U_GUID@@B$1?LIBID_OposToneIndicator_CCO@@3U3@B$00$0A@VCComTypeInfoHolder@ATL@@@1@@ 0000000180024328     ToneIndicator.obj
 0002:00001590       ??_7?$CComContainedObject@VCOPOSToneIndicator@@@ATL@@6BCComControlBase@1@@ 0000000180024590     ToneIndicator.obj
 0002:000015b8       ??_7?$CComContainedObject@VCOPOSToneIndicator@@@ATL@@6B?$CWindowImpl@VCOPOSToneIndicator@@VCWindow@ATL@@V?$CWinTraits@$0FGAAAAAA@$0A@@3@@1@@ 00000001800245b8     ToneIndicator.obj
 0002:000015d8       ??_7?$CComContainedObject@VCOPOSToneIndicator@@@ATL@@6B?$IPersistStreamInitImpl@VCOPOSToneIndicator@@@1@@ 00000001800245d8     ToneIndicator.obj
 0002:00001620       ??_7?$CComContainedObject@VCOPOSToneIndicator@@@ATL@@6B?$IOleControlImpl@VCOPOSToneIndicator@@@1@@ 0000000180024620     ToneIndicator.obj
 0002:00001658       ??_7?$CComContainedObject@VCOPOSToneIndicator@@@ATL@@6B?$IOleObjectImpl@VCOPOSToneIndicator@@@1@@ 0000000180024658     ToneIndicator.obj
 0002:00001718       ??_7?$CComContainedObject@VCOPOSToneIndicator@@@ATL@@6B?$IOleInPlaceActiveObjectImpl@VCOPOSToneIndicator@@@1@@ 0000000180024718     ToneIndicator.obj
 0002:00001768       ??_7?$CComContainedObject@VCOPOSToneIndicator@@@ATL@@6B?$IViewObjectExImpl@VCOPOSToneIndicator@@@1@@ 0000000180024768     ToneIndicator.obj
 0002:000017e0       ??_7?$CComContainedObject@VCOPOSToneIndicator@@@ATL@@6B?$IOleInPlaceObjectWindowlessImpl@VCOPOSToneIndicator@@@1@@ 00000001800247e0     ToneIndicator.obj
 0002:00001838       ??_7?$CComContainedObject@VCOPOSToneIndicator@@@ATL@@6B?$IConnectionPointContainerImpl@VCOPOSToneIndicator@@@1@@ 0000000180024838     ToneIndicator.obj
 0002:00001860       ??_7?$CComContainedObject@VCOPOSToneIndicator@@@ATL@@6B?$IPersistStorageImpl@VCOPOSToneIndicator@@@1@@ 0000000180024860     ToneIndicator.obj
 0002:000018b0       ??_7?$CComContainedObject@VCOPOSToneIndicator@@@ATL@@6B?$ISpecifyPropertyPagesImpl@VCOPOSToneIndicator@@@1@@ 00000001800248b0     ToneIndicator.obj
 0002:000018d0       ??_7?$CComContainedObject@VCOPOSToneIndicator@@@ATL@@6B?$IQuickActivateImpl@VCOPOSToneIndicator@@@1@@ 00000001800248d0     ToneIndicator.obj
 0002:00001900       ??_7?$CComContainedObject@VCOPOSToneIndicator@@@ATL@@6B?$IDataObjectImpl@VCOPOSToneIndicator@@@1@@ 0000000180024900     ToneIndicator.obj
 0002:00001960       ??_7?$CComContainedObject@VCOPOSToneIndicator@@@ATL@@6B?$IProvideClassInfo2Impl@$1?CLSID_OPOSToneIndicator@@3U_GUID@@B$1?DIID__IOPOSToneIndicatorEvents@@3U2@B$1?LIBID_OposToneIndicator_CCO@@3U2@B$00$0A@VCComTypeInfoHolder@ATL@@@1@@ 0000000180024960     ToneIndicator.obj
 0002:00001988       ??_7?$CComContainedObject@VCOPOSToneIndicator@@@ATL@@6B?$IObjectSafetyImpl@VCOPOSToneIndicator@@$02@1@@ 0000000180024988     ToneIndicator.obj
 0002:000019b8       ??_7?$CComContainedObject@VCOPOSToneIndicator@@@ATL@@6B?$IPropertyNotifySinkCP@VCOPOSToneIndicator@@VCComDynamicUnkArray@ATL@@@1@@ 00000001800249b8     ToneIndicator.obj
 0002:000019f8       ??_7?$CComContainedObject@VCOPOSToneIndicator@@@ATL@@6B?$CProxy_IOPOSEvents@VCOPOSToneIndicator@@@@@ 00000001800249f8     ToneIndicator.obj
 0002:00001a38       ??_7?$CComAggObject@VCOPOSToneIndicator@@@ATL@@6B@ 0000000180024a38     ToneIndicator.obj
 0002:00001a58       ??_7?$CComObject@VCOPOSToneIndicator@@@ATL@@6B?$IDispatchImpl@UIOPOSToneIndicator@@$1?IID_IOPOSToneIndicator@@3U_GUID@@B$1?LIBID_OposToneIndicator_CCO@@3U3@B$00$0A@VCComTypeInfoHolder@ATL@@@1@@ 0000000180024a58     ToneIndicator.obj
 0002:00001cc0       ??_7?$CComObject@VCOPOSToneIndicator@@@ATL@@6BCComControlBase@1@@ 0000000180024cc0     ToneIndicator.obj
 0002:00001ce8       ??_7?$CComObject@VCOPOSToneIndicator@@@ATL@@6B?$CWindowImpl@VCOPOSToneIndicator@@VCWindow@ATL@@V?$CWinTraits@$0FGAAAAAA@$0A@@3@@1@@ 0000000180024ce8     ToneIndicator.obj
 0002:00001d08       ??_7?$CComObject@VCOPOSToneIndicator@@@ATL@@6B?$IPersistStreamInitImpl@VCOPOSToneIndicator@@@1@@ 0000000180024d08     ToneIndicator.obj
 0002:00001d50       ??_7?$CComObject@VCOPOSToneIndicator@@@ATL@@6B?$IOleControlImpl@VCOPOSToneIndicator@@@1@@ 0000000180024d50     ToneIndicator.obj
 0002:00001d88       ??_7?$CComObject@VCOPOSToneIndicator@@@ATL@@6B?$IOleObjectImpl@VCOPOSToneIndicator@@@1@@ 0000000180024d88     ToneIndicator.obj
 0002:00001e48       ??_7?$CComObject@VCOPOSToneIndicator@@@ATL@@6B?$IOleInPlaceActiveObjectImpl@VCOPOSToneIndicator@@@1@@ 0000000180024e48     ToneIndicator.obj
 0002:00001e98       ??_7?$CComObject@VCOPOSToneIndicator@@@ATL@@6B?$IViewObjectExImpl@VCOPOSToneIndicator@@@1@@ 0000000180024e98     ToneIndicator.obj
 0002:00001f10       ??_7?$CComObject@VCOPOSToneIndicator@@@ATL@@6B?$IOleInPlaceObjectWindowlessImpl@VCOPOSToneIndicator@@@1@@ 0000000180024f10     ToneIndicator.obj
 0002:00001f68       ??_7?$CComObject@VCOPOSToneIndicator@@@ATL@@6B?$IConnectionPointContainerImpl@VCOPOSToneIndicator@@@1@@ 0000000180024f68     ToneIndicator.obj
 0002:00001f90       ??_7?$CComObject@VCOPOSToneIndicator@@@ATL@@6B?$IPersistStorageImpl@VCOPOSToneIndicator@@@1@@ 0000000180024f90     ToneIndicator.obj
 0002:00001fe0       ??_7?$CComObject@VCOPOSToneIndicator@@@ATL@@6B?$ISpecifyPropertyPagesImpl@VCOPOSToneIndicator@@@1@@ 0000000180024fe0     ToneIndicator.obj
 0002:00002000       ??_7?$CComObject@VCOPOSToneIndicator@@@ATL@@6B?$IQuickActivateImpl@VCOPOSToneIndicator@@@1@@ 0000000180025000     ToneIndicator.obj
 0002:00002030       ??_7?$CComObject@VCOPOSToneIndicator@@@ATL@@6B?$IDataObjectImpl@VCOPOSToneIndicator@@@1@@ 0000000180025030     ToneIndicator.obj
 0002:00002090       ??_7?$CComObject@VCOPOSToneIndicator@@@ATL@@6B?$IProvideClassInfo2Impl@$1?CLSID_OPOSToneIndicator@@3U_GUID@@B$1?DIID__IOPOSToneIndicatorEvents@@3U2@B$1?LIBID_OposToneIndicator_CCO@@3U2@B$00$0A@VCComTypeInfoHolder@ATL@@@1@@ 0000000180025090     ToneIndicator.obj
 0002:000020b8       ??_7?$CComObject@VCOPOSToneIndicator@@@ATL@@6B?$IObjectSafetyImpl@VCOPOSToneIndicator@@$02@1@@ 00000001800250b8     ToneIndicator.obj
 0002:000020e8       ??_7?$CComObject@VCOPOSToneIndicator@@@ATL@@6B?$IPropertyNotifySinkCP@VCOPOSToneIndicator@@VCComDynamicUnkArray@ATL@@@1@@ 00000001800250e8     ToneIndicator.obj
 0002:00002128       ??_7?$CComObject@VCOPOSToneIndicator@@@ATL@@6B?$CProxy_IOPOSEvents@VCOPOSToneIndicator@@@@@ 0000000180025128     ToneIndicator.obj
 0002:00002168       ??_C@_1O@GBFKGNEO@?$AAA?$AAT?$AAL?$AA?3?$AA?$CF?$AAp@ 0000000180025168     ToneIndicator.obj
 0002:00002178       ??_C@_1BA@PICGEGJB@?$AAD?$AAI?$AAS?$AAP?$AAL?$AAA?$AAY@ 0000000180025178     ToneIndicator.obj
 0002:00002188       _GUID_9bfbbc02_eff1_101a_84ed_00aa00341d07 0000000180025188     ToneIndicator.obj
 0002:00002198       ?_entries@?1??_GetEntries@?$CComEnum@UIEnumConnectionPoints@@$1?_GUID_b196b285_bab4_101a_b69c_00aa00341d07@@3U__s_GUID@@BPEAUIConnectionPoint@@V?$_CopyInterface@UIConnectionPoint@@@ATL@@VCComSingleThreadModel@6@@ATL@@SAPEBU_ATL_INTMAP_ENTRY@3@XZ@4QBU43@B 0000000180025198     ToneIndicator.obj
 0002:000021c8       _GUID_b196b284_bab4_101a_b69c_00aa00341d07 00000001800251c8     ToneIndicator.obj
 0002:000021d8       _GUID_00020412_0000_0000_c000_000000000046 00000001800251d8     ToneIndicator.obj
 0002:000021e8       _GUID_00020401_0000_0000_c000_000000000046 00000001800251e8     ToneIndicator.obj
 0002:000021f8       ??_7?$CComObject@V?$CComEnum@UIEnumConnections@@$1?_GUID_b196b287_bab4_101a_b69c_00aa00341d07@@3U__s_GUID@@BUtagCONNECTDATA@@V?$_Copy@UtagCONNECTDATA@@@ATL@@VCComSingleThreadModel@6@@ATL@@@ATL@@6B@ 00000001800251f8     ToneIndicator.obj
 0002:00002238       _GUID_55980ba0_35aa_11cf_b671_00aa004cd6d8 0000000180025238     ToneIndicator.obj
 0002:00002248       _GUID_b196b28b_bab4_101a_b69c_00aa00341d07 0000000180025248     ToneIndicator.obj
 0002:00002258       ?_entries@?1??_GetEntries@?$CComEnum@UIEnumConnections@@$1?_GUID_b196b287_bab4_101a_b69c_00aa00341d07@@3U__s_GUID@@BUtagCONNECTDATA@@V?$_Copy@UtagCONNECTDATA@@@ATL@@VCComSingleThreadModel@6@@ATL@@SAPEBU_ATL_INTMAP_ENTRY@3@XZ@4QBU43@B 0000000180025258     ToneIndicator.obj
 0002:00002288       ??_7CComClassFactory@ATL@@6B@ 0000000180025288     ToneIndicator.obj
 0002:000022b8       ?_entries@?1??_GetEntries@CComClassFactory@ATL@@SAPEBU_ATL_INTMAP_ENTRY@3@XZ@4QBU43@B 00000001800252b8     ToneIndicator.obj
 0002:000022e8       _GUID_00000001_0000_0000_c000_000000000046 00000001800252e8     ToneIndicator.obj
 0002:000022f8       ??_C@_0BG@EKFFMJIO@RegOpenKeyTransactedW@ 00000001800252f8     ToneIndicator.obj
 0002:00002310       ??_C@_0BI@HAKLOOGP@RegDeleteKeyTransactedW@ 0000000180025310     ToneIndicator.obj
 0002:00002328       ??_C@_0BA@LILAPHGE@RegDeleteKeyExW@ 0000000180025328     ToneIndicator.obj
 0002:00002338       ??_C@_19ILOCMLCJ@?$AA?4?$AAt?$AAl?$AAb@ 0000000180025338     ToneIndicator.obj
 0002:00002348       _GUID_0002e012_0000_0000_c000_000000000046 0000000180025348     ToneIndicator.obj
 0002:00002358       ??_C@_1O@FHBGLCIO@?$AAC?$AAL?$AAS?$AAI?$AAD?$AA?2@ 0000000180025358     ToneIndicator.obj
 0002:00002368       ??_C@_1CK@IFBKBFAA@?$AA?2?$AAR?$AAe?$AAq?$AAu?$AAi?$AAr?$AAe?$AAd?$AA?5?$AAC?$AAa?$AAt?$AAe?$AAg@ 0000000180025368     ToneIndicator.obj
 0002:00002398       ??_C@_1DA@BIHALFED@?$AA?2?$AAI?$AAm?$AAp?$AAl?$AAe?$AAm?$AAe?$AAn?$AAt?$AAe?$AAd?$AA?5?$AAC?$AAa@ 0000000180025398     ToneIndicator.obj
 0002:000023c8       ??_C@_1BK@EDKOLFBJ@?$AAO?$AAL?$AAE?$AAA?$AAU?$AAT?$AA3?$AA2?$AA?4?$AAD?$AAL?$AAL@ 00000001800253c8     ToneIndicator.obj
 0002:000023e8       ??_C@_0BJ@CNLFOMHB@UnRegisterTypeLibForUser@ 00000001800253e8     ToneIndicator.obj
 0002:00002408       ??_C@_0BH@LBOMMKPJ@RegisterTypeLibForUser@ 0000000180025408     ToneIndicator.obj
 0002:00002420       ??_C@_0P@MMNMMLGK@COFreezeEvents@ 0000000180025420     ToneIndicatorImpl.obj
 0002:00002430       ??_C@_0BC@OGCGGIMP@GetPropertyNumber@ 0000000180025430     ToneIndicatorImpl.obj
 0002:00002448       ??_C@_0BC@MDCNODNB@SetPropertyNumber@ 0000000180025448     ToneIndicatorImpl.obj
 0002:00002460       ??_C@_0BC@CFCCMIMD@GetPropertyString@ 0000000180025460     ToneIndicatorImpl.obj
 0002:00002478       ??_C@_0BC@CJEDNN@SetPropertyString@ 0000000180025478     ToneIndicatorImpl.obj
 0002:00002490       ??_C@_0M@LNPKKKDA@OpenService@ 0000000180025490     ToneIndicatorImpl.obj
 0002:000024a0       ??_C@_0M@PCMCHHMH@CheckHealth@ 00000001800254a0     ToneIndicatorImpl.obj
 0002:000024b0       ??_C@_0M@JGMIDNEK@ClaimDevice@ 00000001800254b0     ToneIndicatorImpl.obj
 0002:000024c0       ??_C@_0M@JMBCPNGJ@ClearOutput@ 00000001800254c0     ToneIndicatorImpl.obj
 0002:000024d0       ??_C@_0N@DDFIIBMP@CloseService@ 00000001800254d0     ToneIndicatorImpl.obj
 0002:000024e0       ??_C@_08EEIHICPC@DirectIO@ 00000001800254e0     ToneIndicatorImpl.obj
 0002:000024f0       ??_C@_0O@BCPMENMJ@ReleaseDevice@ 00000001800254f0     ToneIndicatorImpl.obj
 0002:00002500       ??_C@_05MAHMNMLO@Sound@    0000000180025500     ToneIndicatorImpl.obj
 0002:00002508       ??_C@_0P@HJHINHHO@SoundImmediate@ 0000000180025508     ToneIndicatorImpl.obj
 0002:00002518       ??_C@_0BA@GFABKEEE@ResetStatistics@ 0000000180025518     ToneIndicatorImpl.obj
 0002:00002528       ??_C@_0BD@DPALHJGC@RetrieveStatistics@ 0000000180025528     ToneIndicatorImpl.obj
 0002:00002540       ??_C@_0BB@KOHIKNFC@UpdateStatistics@ 0000000180025540     ToneIndicatorImpl.obj
 0002:00002558       ??_C@_0BH@PBKBNMGB@CompareFirmwareVersion@ 0000000180025558     ToneIndicatorImpl.obj
 0002:00002570       ??_C@_0P@FBPDPIPA@UpdateFirmware@ 0000000180025570     ToneIndicatorImpl.obj
 0002:00002580       ??_7?$CProxy_IOPOSEvents@VCOPOSToneIndicator@@@@6B@ 0000000180025580     ToneIndicatorImpl.obj
 0002:000025c0       ??_C@_1BA@IFHENID@?$AA?$FL?$AAE?$AAr?$AAr?$AAo?$AAr?$AA?$FN@ 00000001800255c0     ToneIndicatorImpl.obj
 0002:000025d0       ??_C@_0DA@PJOOGHOC@SOFTWARE?2OLEforRetail?2ServiceOP@ 00000001800255d0     ToneIndicatorImpl.obj
 0002:00002600       ??_C@_1M@IAIJHCCH@?$AAC?$AAl?$AAo?$AAs?$AAe@ 0000000180025600     ToneIndicatorImpl.obj
 0002:00002610       ??_C@_1M@PCPKGJAH@?$AAC?$AAl?$AAa?$AAi?$AAm@ 0000000180025610     ToneIndicatorImpl.obj
 0002:00002620       ??_C@_1BA@NDFKIOCP@?$AAR?$AAe?$AAl?$AAe?$AAa?$AAs?$AAe@ 0000000180025620     ToneIndicatorImpl.obj
 0002:00002630       ??_C@_0O@PFOMBKDJ@ToneIndicator@ 0000000180025630     ToneIndicatorImpl.obj
 0002:00002640       ??_C@_1BM@IJMNMBPK@?$AAG?$AAe?$AAt?$AAO?$AAp?$AAe?$AAn?$AAR?$AAe?$AAs?$AAu?$AAl?$AAt@ 0000000180025640     ToneIndicatorImpl.obj
 0002:00002660       IID_IDispatch              0000000180025660     uuid:oaidl_i.obj
 0002:00002670       IID_IPropertyNotifySink    0000000180025670     uuid:ocidl_i.obj
 0002:00002680       GUID_NULL                  0000000180025680     uuid:cguid_i.obj
 0002:00002690       CLSID_StdGlobalInterfaceTable 0000000180025690     uuid:cguid_i.obj
 0002:000026a0       CLSID_StdComponentCategoriesMgr 00000001800256a0     uuid:ieguids.obj
 0002:000026b0       IID_IUnknown               00000001800256b0     uuid:unknwn_i.obj
 0002:000026c0       __xmm@ffffffffffffffffffffffffffffffff 00000001800256c0     LIBCMT:utility.obj
 0002:000026d0       ??_C@_1EC@JIJBPKFM@?$AAa?$AAp?$AAi?$AA?9?$AAm?$AAs?$AA?9?$AAw?$AAi?$AAn?$AA?9?$AAc?$AAo?$AAr?$AAe@ 00000001800256d0     LIBCMT:thread_safe_statics.obj
 0002:00002718       ??_C@_1BK@MGMFAEKH@?$AAk?$AAe?$AAr?$AAn?$AAe?$AAl?$AA3?$AA2?$AA?4?$AAd?$AAl?$AAl@ 0000000180025718     LIBCMT:thread_safe_statics.obj
 0002:00002738       ??_C@_0BJ@JEBJOJFJ@SleepConditionVariableCS@ 0000000180025738     LIBCMT:thread_safe_statics.obj
 0002:00002758       ??_C@_0BJ@PGPPEPCC@WakeAllConditionVariable@ 0000000180025758     LIBCMT:thread_safe_statics.obj
 0002:00002771       ?nothrow@std@@3Unothrow_t@1@B 0000000180025771     LIBCMT:std_nothrow.obj
 0002:00002788       _pDefaultRawDllMain        0000000180025788     LIBCMT:dll_dllmain.obj
 0002:00002788       _pRawDllMain               0000000180025788     LIBCMT:dll_dllmain.obj
 0002:00002798       ??_7exception@std@@6B@     0000000180025798     LIBCMT:throw_bad_alloc.obj
 0002:000027a8       ??_C@_0BC@EOODALEL@Unknown?5exception@ 00000001800257a8     LIBCMT:throw_bad_alloc.obj
 0002:000027c8       ??_7bad_alloc@std@@6B@     00000001800257c8     LIBCMT:throw_bad_alloc.obj
 0002:000027d8       ??_C@_0P@GHFPNOJB@bad?5allocation@ 00000001800257d8     LIBCMT:throw_bad_alloc.obj
 0002:000027f0       ??_7bad_array_new_length@std@@6B@ 00000001800257f0     LIBCMT:throw_bad_alloc.obj
 0002:00002800       ??_C@_0BF@KINCDENJ@bad?5array?5new?5length@ 0000000180025800     LIBCMT:throw_bad_alloc.obj
 0002:00002820       ??_7type_info@@6B@         0000000180025820     LIBCMT:std_type_info_static.obj
 0002:00002828       GUID_ATLVer110             0000000180025828     atls:atlbase.obj
 0002:00002840       ??_C@_1IC@ONKHOIDK@?$AAE?$AAR?$AAR?$AAO?$AAR?$AA?5?$AA?3?$AA?5?$AAU?$AAn?$AAa?$AAb?$AAl?$AAe?$AA?5@ 0000000180025840     atls:atlbase.obj
 0002:000028c8       ??_C@_0N@FJEPLCIH@atlthunk?4dll@ 00000001800258c8     atls:atlthunk.obj
 0002:000028d8       ??_C@_0BG@GAKFHCBM@AtlThunk_AllocateData@ 00000001800258d8     atls:atlthunk.obj
 0002:000028f0       ??_C@_0BC@JKONFIAH@AtlThunk_InitData@ 00000001800258f0     atls:atlthunk.obj
 0002:00002908       ??_C@_0BE@IAOEELAK@AtlThunk_DataToCode@ 0000000180025908     atls:atlthunk.obj
 0002:00002920       ??_C@_0BC@GBGKAIPI@AtlThunk_FreeData@ 0000000180025920     atls:atlthunk.obj
 0002:00002938       ?s_negLengthTab@FH4@@3QBCB 0000000180025938     libvcruntime:risctrnsctrl.obj
 0002:00002948       ?s_shiftTab@FH4@@3QBEB     0000000180025948     libvcruntime:risctrnsctrl.obj
 0002:000029f8       _pDestructExceptionObject  00000001800259f8     libvcruntime:ehhelpers.obj
 0002:00002a08       ??_7bad_exception@std@@6B@ 0000000180025a08     libvcruntime:frame.obj
 0002:00002a18       ??_C@_0O@DPKOEFFH@bad?5exception@ 0000000180025a18     libvcruntime:frame.obj
 0002:00003130       ??_C@_08EHJDFFNH@__based?$CI@ 0000000180026130     libvcruntime:undname.obj
 0002:00003140       ??_C@_07KOLFKCDI@__cdecl@  0000000180026140     libvcruntime:undname.obj
 0002:00003148       ??_C@_08GHMPAG@__pascal@   0000000180026148     libvcruntime:undname.obj
 0002:00003158       ??_C@_09IFJBGAPI@__stdcall@ 0000000180026158     libvcruntime:undname.obj
 0002:00003168       ??_C@_0L@NPHFGOKO@__thiscall@ 0000000180026168     libvcruntime:undname.obj
 0002:00003178       ??_C@_0L@JMKHOMEK@__fastcall@ 0000000180026178     libvcruntime:undname.obj
 0002:00003188       ??_C@_0N@BCKKPABJ@__vectorcall@ 0000000180026188     libvcruntime:undname.obj
 0002:00003198       ??_C@_09HIJEGCPM@__clrcall@ 0000000180026198     libvcruntime:undname.obj
 0002:000031a4       ??_C@_06GHPCKEAG@__eabi@   00000001800261a4     libvcruntime:undname.obj
 0002:000031b0       ??_C@_09IOPIDJLG@__swift_1@ 00000001800261b0     libvcruntime:undname.obj
 0002:000031c0       ??_C@_09KFNFGKHF@__swift_2@ 00000001800261c0     libvcruntime:undname.obj
 0002:000031d0       ??_C@_07JOMMBBKO@__ptr64@  00000001800261d0     libvcruntime:undname.obj
 0002:000031d8       ??_C@_0L@PILCLIHE@__restrict@ 00000001800261d8     libvcruntime:undname.obj
 0002:000031e8       ??_C@_0M@GFIIJFMG@__unaligned@ 00000001800261e8     libvcruntime:undname.obj
 0002:000031f8       ??_C@_09DHDLOLLB@restrict?$CI@ 00000001800261f8     libvcruntime:undname.obj
 0002:00003202       ??_C@_00CNPNBAHC@@         0000000180026202     libvcruntime:undname.obj
 0002:00003204       ??_C@_04NIHEBCM@?5new@     0000000180026204     libvcruntime:undname.obj
 0002:00003210       ??_C@_07FPCDHGMM@?5delete@ 0000000180026210     libvcruntime:undname.obj
 0002:00003218       ??_C@_01NEMOKFLO@?$DN@     0000000180026218     libvcruntime:undname.obj
 0002:0000321c       ??_C@_02GPIOPFAK@?$DO?$DO@ 000000018002621c     libvcruntime:undname.obj
 0002:00003220       ??_C@_02FODMEDOG@?$DM?$DM@ 0000000180026220     libvcruntime:undname.obj
 0002:00003224       ??_C@_01DCLJPIOD@?$CB@     0000000180026224     libvcruntime:undname.obj
 0002:00003228       ??_C@_02EGOFBIJA@?$DN?$DN@ 0000000180026228     libvcruntime:undname.obj
 0002:0000322c       ??_C@_02FDNJECIE@?$CB?$DN@ 000000018002622c     libvcruntime:undname.obj
 0002:00003230       ??_C@_02GPECMEKF@?$FL?$FN@ 0000000180026230     libvcruntime:undname.obj
 0002:00003238       ??_C@_08LHJFAFGD@operator@ 0000000180026238     libvcruntime:undname.obj
 0002:00003244       ??_C@_02HBOOOICD@?9?$DO@   0000000180026244     libvcruntime:undname.obj
 0002:00003248       ??_C@_01NBENCBCI@?$CK@     0000000180026248     libvcruntime:undname.obj
 0002:0000324c       ??_C@_02ECNGHCIF@?$CL?$CL@ 000000018002624c     libvcruntime:undname.obj
 0002:00003250       ??_C@_02BAABKJLB@?9?9@     0000000180026250     libvcruntime:undname.obj
 0002:00003254       ??_C@_01JOAMLHOP@?9@       0000000180026254     libvcruntime:undname.obj
 0002:00003258       ??_C@_01MIFGBAGJ@?$CL@     0000000180026258     libvcruntime:undname.obj
 0002:0000325c       ??_C@_01HNPIGOCE@?$CG@     000000018002625c     libvcruntime:undname.obj
 0002:00003260       ??_C@_03MNHNFDLC@?9?$DO?$CK@ 0000000180026260     libvcruntime:undname.obj
 0002:00003264       ??_C@_01KMDKNFGN@?1@       0000000180026264     libvcruntime:undname.obj
 0002:00003268       ??_C@_01FGNFDNOH@?$CF@     0000000180026268     libvcruntime:undname.obj
 0002:0000326c       ??_C@_01MNNFJEPP@?$DM@     000000018002626c     libvcruntime:undname.obj
 0002:00003270       ??_C@_02EHCHHCKH@?$DM?$DN@ 0000000180026270     libvcruntime:undname.obj
 0002:00003274       ??_C@_01PPODPGHN@?$DO@     0000000180026274     libvcruntime:undname.obj
 0002:00003278       ??_C@_02EEKDKGMJ@?$DO?$DN@ 0000000180026278     libvcruntime:undname.obj
 0002:0000327c       ??_C@_01IHBHIGKO@?0@       000000018002627c     libvcruntime:undname.obj
 0002:00003280       ??_C@_02HCKGKOFO@?$CI?$CJ@ 0000000180026280     libvcruntime:undname.obj
 0002:00003284       ??_C@_01PJKLJHI@?$HO@      0000000180026284     libvcruntime:undname.obj
 0002:00003288       ??_C@_01JKBOJNNK@?$FO@     0000000180026288     libvcruntime:undname.obj
 0002:0000328c       ??_C@_01DNKMNLPK@?$HM@     000000018002628c     libvcruntime:undname.obj
 0002:00003290       ??_C@_02PPKAJPJL@?$CG?$CG@ 0000000180026290     libvcruntime:undname.obj
 0002:00003294       ??_C@_02NONPIBCD@?$HM?$HM@ 0000000180026294     libvcruntime:undname.obj
 0002:00003298       ??_C@_02FPIMKNGF@?$CK?$DN@ 0000000180026298     libvcruntime:undname.obj
 0002:0000329c       ??_C@_02FOEOMHFC@?$CL?$DN@ 000000018002629c     libvcruntime:undname.obj
 0002:000032a0       ??_C@_02FKMDLLOA@?9?$DN@   00000001800262a0     libvcruntime:undname.obj
 0002:000032a4       ??_C@_02FJEHGPIO@?1?$DN@   00000001800262a4     libvcruntime:undname.obj
 0002:000032a8       ??_C@_02FENAOKFI@?$CF?$DN@ 00000001800262a8     libvcruntime:undname.obj
 0002:000032ac       ??_C@_03IKFCCPFF@?$DO?$DO?$DN@ 00000001800262ac     libvcruntime:undname.obj
 0002:000032b0       ??_C@_03CDNPDDLA@?$DM?$DM?$DN@ 00000001800262b0     libvcruntime:undname.obj
 0002:000032b4       ??_C@_02FGJGFEAB@?$CG?$DN@ 00000001800262b4     libvcruntime:undname.obj
 0002:000032b8       ??_C@_02DHLNPPGH@?$HM?$DN@ 00000001800262b8     libvcruntime:undname.obj
 0002:000032bc       ??_C@_02MHEGNOJ@?$FO?$DN@  00000001800262bc     libvcruntime:undname.obj
 0002:000032c0       ??_C@_09IFPLHPGF@?$GAvftable?8@ 00000001800262c0     libvcruntime:undname.obj
 0002:000032d0       ??_C@_09BLBHBJP@?$GAvbtable?8@ 00000001800262d0     libvcruntime:undname.obj
 0002:000032e0       ??_C@_07FEEIOKP@?$GAvcall?8@ 00000001800262e0     libvcruntime:undname.obj
 0002:000032e8       ??_C@_08LLFFHHDJ@?$GAtypeof?8@ 00000001800262e8     libvcruntime:undname.obj
 0002:000032f8       ??_C@_0BF@KDPPACIK@?$GAlocal?5static?5guard?8@ 00000001800262f8     libvcruntime:undname.obj
 0002:00003310       ??_C@_08OBABFOLI@?$GAstring?8@ 0000000180026310     libvcruntime:undname.obj
 0002:00003320       ??_C@_0BD@JDLKDPAB@?$GAvbase?5destructor?8@ 0000000180026320     libvcruntime:undname.obj
 0002:00003338       ??_C@_0BN@DEGPLNFK@?$GAvector?5deleting?5destructor?8@ 0000000180026338     libvcruntime:undname.obj
 0002:00003358       ??_C@_0BO@OBMKPJIG@?$GAdefault?5constructor?5closure?8@ 0000000180026358     libvcruntime:undname.obj
 0002:00003378       ??_C@_0BN@IMDCHIKM@?$GAscalar?5deleting?5destructor?8@ 0000000180026378     libvcruntime:undname.obj
 0002:00003398       ??_C@_0BO@PFGOCPJJ@?$GAvector?5constructor?5iterator?8@ 0000000180026398     libvcruntime:undname.obj
 0002:000033b8       ??_C@_0BN@LFPFMEDL@?$GAvector?5destructor?5iterator?8@ 00000001800263b8     libvcruntime:undname.obj
 0002:000033d8       ??_C@_0CE@IKBNEHA@?$GAvector?5vbase?5constructor?5itera@ 00000001800263d8     libvcruntime:undname.obj
 0002:00003400       ??_C@_0BL@NILFHHPC@?$GAvirtual?5displacement?5map?8@ 0000000180026400     libvcruntime:undname.obj
 0002:00003420       ??_C@_0CB@JONCMFFK@?$GAeh?5vector?5constructor?5iterator@ 0000000180026420     libvcruntime:undname.obj
 0002:00003448       ??_C@_0CA@GCEOPDGL@?$GAeh?5vector?5destructor?5iterator?8@ 0000000180026448     libvcruntime:undname.obj
 0002:00003468       ??_C@_0CH@OOJPLCPH@?$GAeh?5vector?5vbase?5constructor?5it@ 0000000180026468     libvcruntime:undname.obj
 0002:00003490       ??_C@_0BL@LLKPOHJI@?$GAcopy?5constructor?5closure?8@ 0000000180026490     libvcruntime:undname.obj
 0002:000034b0       ??_C@_0BA@KBCDOMBN@?$GAudt?5returning?8@ 00000001800264b0     libvcruntime:undname.obj
 0002:000034c0       ??_C@_03KLGMFNMG@?$GAEH@   00000001800264c0     libvcruntime:undname.obj
 0002:000034c4       ??_C@_05KHLCHHI@?$GARTTI@  00000001800264c4     libvcruntime:undname.obj
 0002:000034d0       ??_C@_0BA@KKLDJDLB@?$GAlocal?5vftable?8@ 00000001800264d0     libvcruntime:undname.obj
 0002:000034e0       ??_C@_0CE@IIHCMGGL@?$GAlocal?5vftable?5constructor?5clos@ 00000001800264e0     libvcruntime:undname.obj
 0002:00003504       ??_C@_06FHBGPFGH@?5new?$FL?$FN@ 0000000180026504     libvcruntime:undname.obj
 0002:00003510       ??_C@_09LBNFPBCA@?5delete?$FL?$FN@ 0000000180026510     libvcruntime:undname.obj
 0002:00003520       ??_C@_0P@HJKNJFNN@?$GAomni?5callsig?8@ 0000000180026520     libvcruntime:undname.obj
 0002:00003530       ??_C@_0BL@CNOONJFP@?$GAplacement?5delete?5closure?8@ 0000000180026530     libvcruntime:undname.obj
 0002:00003550       ??_C@_0BN@CKNJLHMB@?$GAplacement?5delete?$FL?$FN?5closure?8@ 0000000180026550     libvcruntime:undname.obj
 0002:00003570       ??_C@_0CG@CFDHKGGD@?$GAmanaged?5vector?5constructor?5ite@ 0000000180026570     libvcruntime:undname.obj
 0002:00003598       ??_C@_0CF@IMGKMJNO@?$GAmanaged?5vector?5destructor?5iter@ 0000000180026598     libvcruntime:undname.obj
 0002:000035c0       ??_C@_0CG@HLDDJMAG@?$GAeh?5vector?5copy?5constructor?5ite@ 00000001800265c0     libvcruntime:undname.obj
 0002:000035e8       ??_C@_0CM@FCBBDIGB@?$GAeh?5vector?5vbase?5copy?5construct@ 00000001800265e8     libvcruntime:undname.obj
 0002:00003618       ??_C@_0BL@CLIPGLGB@?$GAdynamic?5initializer?5for?5?8@ 0000000180026618     libvcruntime:undname.obj
 0002:00003638       ??_C@_0CB@PDBIFEP@?$GAdynamic?5atexit?5destructor?5for?5@ 0000000180026638     libvcruntime:undname.obj
 0002:00003660       ??_C@_0CD@CGAJBKEJ@?$GAvector?5copy?5constructor?5iterat@ 0000000180026660     libvcruntime:undname.obj
 0002:00003688       ??_C@_0CJ@GJELGAMM@?$GAvector?5vbase?5copy?5constructor?5@ 0000000180026688     libvcruntime:undname.obj
 0002:000036b8       ??_C@_0CL@FGIJHLCE@?$GAmanaged?5vector?5copy?5constructo@ 00000001800266b8     libvcruntime:undname.obj
 0002:000036e8       ??_C@_0BM@PMGGMLDN@?$GAlocal?5static?5thread?5guard?8@ 00000001800266e8     libvcruntime:undname.obj
 0002:00003708       ??_C@_0N@BDNMDMOL@operator?5?$CC?$CC?5@ 0000000180026708     libvcruntime:undname.obj
 0002:00003718       ??_C@_0BC@GGEBGALA@operator?5co_await@ 0000000180026718     libvcruntime:undname.obj
 0002:00003730       ??_C@_0M@GAAIMMOH@operator?$DM?$DN?$DO@ 0000000180026730     libvcruntime:undname.obj
 0002:00003740       ??_C@_0BC@DAFEJGAK@?5Type?5Descriptor?8@ 0000000180026740     libvcruntime:undname.obj
 0002:00003758       ??_C@_0BM@LDKODKLH@?5Base?5Class?5Descriptor?5at?5?$CI@ 0000000180026758     libvcruntime:undname.obj
 0002:00003778       ??_C@_0BD@LGICGFMM@?5Base?5Class?5Array?8@ 0000000180026778     libvcruntime:undname.obj
 0002:00003790       ??_C@_0BN@MECKDCOJ@?5Class?5Hierarchy?5Descriptor?8@ 0000000180026790     libvcruntime:undname.obj
 0002:000037b0       ??_C@_0BK@CFCOFLF@?5Complete?5Object?5Locator?8@ 00000001800267b0     libvcruntime:undname.obj
 0002:000037d0       ??_C@_0BG@JNJLAMPM@?$GAanonymous?5namespace?8@ 00000001800267d0     libvcruntime:undname.obj
 0002:00003800       ??_C@_1DM@KHCHBNEB@?$AAa?$AAp?$AAi?$AA?9?$AAm?$AAs?$AA?9?$AAw?$AAi?$AAn?$AA?9?$AAc?$AAo?$AAr?$AAe@ 0000000180026800     libvcruntime:winapi_downlevel.obj
 0002:00003840       ??_C@_1DK@LPPGFMPP@?$AAa?$AAp?$AAi?$AA?9?$AAm?$AAs?$AA?9?$AAw?$AAi?$AAn?$AA?9?$AAc?$AAo?$AAr?$AAe@ 0000000180026840     libvcruntime:winapi_downlevel.obj
 0002:00003880       ??_C@_1BC@GDMECMAK@?$AAk?$AAe?$AAr?$AAn?$AAe?$AAl?$AA3?$AA2@ 0000000180026880     libvcruntime:winapi_downlevel.obj
 0002:00003898       ??_C@_1BA@PFFKHIOG@?$AAa?$AAp?$AAi?$AA?9?$AAm?$AAs?$AA?9@ 0000000180026898     libvcruntime:winapi_downlevel.obj
 0002:000038b0       ??_C@_08KNHFBNJ@FlsAlloc@  00000001800268b0     libvcruntime:winapi_downlevel.obj
 0002:000038c8       ??_C@_07PEJMOBNF@FlsFree@  00000001800268c8     libvcruntime:winapi_downlevel.obj
 0002:000038d8       ??_C@_0M@GDNOONDI@FlsGetValue@ 00000001800268d8     libvcruntime:winapi_downlevel.obj
 0002:000038f0       ??_C@_0M@JCPCPOEF@FlsSetValue@ 00000001800268f0     libvcruntime:winapi_downlevel.obj
 0002:00003908       ??_C@_0BM@HCFOFFN@InitializeCriticalSectionEx@ 0000000180026908     libvcruntime:winapi_downlevel.obj
 0002:00003aa0       ?format_validation_lookup_table_spectre@__crt_stdio_output@@3V?$spectre_mitigated_lookup_table@Ustate_transition_pair@__crt_stdio_output@@$0IA@@1@B 0000000180026aa0     libucrt:output.obj
 0002:00003ea0       ??_C@_1O@CEDCILHN@?$AA?$CI?$AAn?$AAu?$AAl?$AAl?$AA?$CJ@ 0000000180026ea0     libucrt:output.obj
 0002:00003eb0       ??_C@_06OJHGLDPL@?$CInull?$CJ@ 0000000180026eb0     libucrt:output.obj
 0002:00003ec0       __acrt_exception_action_table 0000000180026ec0     libucrt:exception_filter.obj
 0002:00003f80       __acrt_signal_action_table_count 0000000180026f80     libucrt:exception_filter.obj
 0002:00003f88       __acrt_signal_action_first_fpe_index 0000000180026f88     libucrt:exception_filter.obj
 0002:00003f90       __acrt_signal_action_fpe_count 0000000180026f90     libucrt:exception_filter.obj
 0002:00003f98       ??_C@_1BI@BGOHAHKC@?$AAm?$AAs?$AAc?$AAo?$AAr?$AAe?$AAe?$AA?4?$AAd?$AAl?$AAl@ 0000000180026f98     libucrt:exit.obj
 0002:00003fb0       ??_C@_0P@MIGLKIOC@CorExitProcess@ 0000000180026fb0     libucrt:exit.obj
 0002:00004160       ??_C@_1EA@JGEFHKEI@?$AAa?$AAp?$AAi?$AA?9?$AAm?$AAs?$AA?9?$AAw?$AAi?$AAn?$AA?9?$AAc?$AAo?$AAr?$AAe@ 0000000180027160     libucrt:winapi_thunks.obj
 0002:000041a0       ??_C@_1DI@IJCEHOCB@?$AAa?$AAp?$AAi?$AA?9?$AAm?$AAs?$AA?9?$AAw?$AAi?$AAn?$AA?9?$AAc?$AAo?$AAr?$AAe@ 00000001800271a0     libucrt:winapi_thunks.obj
 0002:000041e0       ??_C@_1EI@MPIAOHOC@?$AAa?$AAp?$AAi?$AA?9?$AAm?$AAs?$AA?9?$AAw?$AAi?$AAn?$AA?9?$AAc?$AAo?$AAr?$AAe@ 00000001800271e0     libucrt:winapi_thunks.obj
 0002:00004230       ??_C@_1FK@FPHCKFIE@?$AAa?$AAp?$AAi?$AA?9?$AAm?$AAs?$AA?9?$AAw?$AAi?$AAn?$AA?9?$AAc?$AAo?$AAr?$AAe@ 0000000180027230     libucrt:winapi_thunks.obj
 0002:00004290       ??_C@_1EM@DILCGIIO@?$AAa?$AAp?$AAi?$AA?9?$AAm?$AAs?$AA?9?$AAw?$AAi?$AAn?$AA?9?$AAc?$AAo?$AAr?$AAe@ 0000000180027290     libucrt:winapi_thunks.obj
 0002:000042e0       ??_C@_1DM@LNCGDDPN@?$AAa?$AAp?$AAi?$AA?9?$AAm?$AAs?$AA?9?$AAw?$AAi?$AAn?$AA?9?$AAc?$AAo?$AAr?$AAe@ 00000001800272e0     libucrt:winapi_thunks.obj
 0002:00004320       ??_C@_1DO@FPAPJEMD@?$AAa?$AAp?$AAi?$AA?9?$AAm?$AAs?$AA?9?$AAw?$AAi?$AAn?$AA?9?$AAc?$AAo?$AAr?$AAe@ 0000000180027320     libucrt:winapi_thunks.obj
 0002:00004360       ??_C@_1DK@NDHNAHIO@?$AAa?$AAp?$AAi?$AA?9?$AAm?$AAs?$AA?9?$AAw?$AAi?$AAn?$AA?9?$AAc?$AAo?$AAr?$AAe@ 0000000180027360     libucrt:winapi_thunks.obj
 0002:000043a0       ??_C@_1DM@KGHDGBCM@?$AAa?$AAp?$AAi?$AA?9?$AAm?$AAs?$AA?9?$AAw?$AAi?$AAn?$AA?9?$AAc?$AAo?$AAr?$AAe@ 00000001800273a0     libucrt:winapi_thunks.obj
 0002:000043e0       ??_C@_1EO@IJIOEFOH@?$AAa?$AAp?$AAi?$AA?9?$AAm?$AAs?$AA?9?$AAw?$AAi?$AAn?$AA?9?$AAr?$AAt?$AAc?$AAo@ 00000001800273e0     libucrt:winapi_thunks.obj
 0002:00004430       ??_C@_1FG@HHGEKANL@?$AAa?$AAp?$AAi?$AA?9?$AAm?$AAs?$AA?9?$AAw?$AAi?$AAn?$AA?9?$AAs?$AAe?$AAc?$AAu@ 0000000180027430     libucrt:winapi_thunks.obj
 0002:00004490       ??_C@_1EG@DBIOJECG@?$AAe?$AAx?$AAt?$AA?9?$AAm?$AAs?$AA?9?$AAw?$AAi?$AAn?$AA?9?$AAn?$AAt?$AAu?$AAs@ 0000000180027490     libucrt:winapi_thunks.obj
 0002:000044e0       ??_C@_1EO@FIHMJCLF@?$AAe?$AAx?$AAt?$AA?9?$AAm?$AAs?$AA?9?$AAw?$AAi?$AAn?$AA?9?$AAn?$AAt?$AAu?$AAs@ 00000001800274e0     libucrt:winapi_thunks.obj
 0002:00004530       ??_C@_1BC@DNHGCMLG@?$AAa?$AAd?$AAv?$AAa?$AAp?$AAi?$AA3?$AA2@ 0000000180027530     libucrt:winapi_thunks.obj
 0002:00004548       ??_C@_1M@OAIMIKLP@?$AAn?$AAt?$AAd?$AAl?$AAl@ 0000000180027548     libucrt:winapi_thunks.obj
 0002:00004560       ??_C@_1EG@DPGNFKGC@?$AAa?$AAp?$AAi?$AA?9?$AAm?$AAs?$AA?9?$AAw?$AAi?$AAn?$AA?9?$AAa?$AAp?$AAp?$AAm@ 0000000180027560     libucrt:winapi_thunks.obj
 0002:000045a8       ??_C@_1O@BCCLBEOE@?$AAu?$AAs?$AAe?$AAr?$AA3?$AA2@ 00000001800275a8     libucrt:winapi_thunks.obj
 0002:000045b8       ??_C@_1BA@IAIFMGEF@?$AAe?$AAx?$AAt?$AA?9?$AAm?$AAs?$AA?9@ 00000001800275b8     libucrt:winapi_thunks.obj
 0002:000045d0       ??_C@_0BA@FHFNEAED@AreFileApisANSI@ 00000001800275d0     libucrt:winapi_thunks.obj
 0002:00004610       ??_C@_0O@KKBNKAPF@LCMapStringEx@ 0000000180027610     libucrt:winapi_thunks.obj
 0002:00004628       ??_C@_0BB@HBDEELFH@LocaleNameToLCID@ 0000000180027628     libucrt:winapi_thunks.obj
 0002:00004640       ??_C@_0CF@OJOFEIGO@AppPolicyGetProcessTerminationM@ 0000000180027640     libucrt:winapi_thunks.obj
 0002:00004670       ??_C@_0BI@BKLFFAPO@SetThreadStackGuarantee@ 0000000180027670     libucrt:winapi_thunks.obj
 0002:00004710       ??_C@_03OEIAHPBN@INF@      0000000180027710     libucrt:cvt.obj
 0002:00004714       ??_C@_03OJHLLCGB@inf@      0000000180027714     libucrt:cvt.obj
 0002:00004718       ??_C@_03LKNCIKJB@NAN@      0000000180027718     libucrt:cvt.obj
 0002:0000471c       ??_C@_03LHCJEHON@nan@      000000018002771c     libucrt:cvt.obj
 0002:00004720       ??_C@_09OFJJIMPC@NAN?$CISNAN?$CJ@ 0000000180027720     libucrt:cvt.obj
 0002:00004730       ??_C@_09IPFBKMDL@nan?$CIsnan?$CJ@ 0000000180027730     libucrt:cvt.obj
 0002:00004740       ??_C@_08IKHNHAJ@NAN?$CIIND?$CJ@ 0000000180027740     libucrt:cvt.obj
 0002:00004750       ??_C@_08OFCDMILK@nan?$CIind?$CJ@ 0000000180027750     libucrt:cvt.obj
 0002:0000475c       ??_C@_05KLBDPFGC@e?$CL000@ 000000018002775c     libucrt:cvt.obj
 0002:00004770       __lc_time_c                0000000180027770     libucrt:nlsdata.obj
 0002:00004a30       ??_C@_03KOEHGMDN@Sun@      0000000180027a30     libucrt:nlsdata.obj
 0002:00004a34       ??_C@_03PDAGKDH@Mon@       0000000180027a34     libucrt:nlsdata.obj
 0002:00004a38       ??_C@_03NAGEINEP@Tue@      0000000180027a38     libucrt:nlsdata.obj
 0002:00004a3c       ??_C@_03MHOMLAJA@Wed@      0000000180027a3c     libucrt:nlsdata.obj
 0002:00004a40       ??_C@_03IOFIKPDN@Thu@      0000000180027a40     libucrt:nlsdata.obj
 0002:00004a44       ??_C@_03IDIOELNC@Fri@      0000000180027a44     libucrt:nlsdata.obj
 0002:00004a48       ??_C@_03FEFJNEK@Sat@       0000000180027a48     libucrt:nlsdata.obj
 0002:00004a4c       ??_C@_06OOPIFAJ@Sunday@    0000000180027a4c     libucrt:nlsdata.obj
 0002:00004a54       ??_C@_06JLEDEDGH@Monday@   0000000180027a54     libucrt:nlsdata.obj
 0002:00004a60       ??_C@_07BAAGCFCM@Tuesday@  0000000180027a60     libucrt:nlsdata.obj
 0002:00004a68       ??_C@_09DLIGFAKA@Wednesday@ 0000000180027a68     libucrt:nlsdata.obj
 0002:00004a78       ??_C@_08HACCIKIA@Thursday@ 0000000180027a78     libucrt:nlsdata.obj
 0002:00004a84       ??_C@_06JECMNKMI@Friday@   0000000180027a84     libucrt:nlsdata.obj
 0002:00004a90       ??_C@_08INBOOONO@Saturday@ 0000000180027a90     libucrt:nlsdata.obj
 0002:00004a9c       ??_C@_03JIHJHPIE@Jan@      0000000180027a9c     libucrt:nlsdata.obj
 0002:00004aa0       ??_C@_03HJBDCHOM@Feb@      0000000180027aa0     libucrt:nlsdata.obj
 0002:00004aa4       ??_C@_03ODNJBKGA@Mar@      0000000180027aa4     libucrt:nlsdata.obj
 0002:00004aa8       ??_C@_03LEOLGMJP@Apr@      0000000180027aa8     libucrt:nlsdata.obj
 0002:00004aac       ??_C@_03CNMDKL@May@        0000000180027aac     libucrt:nlsdata.obj
 0002:00004ab0       ??_C@_03IDFGHECI@Jun@      0000000180027ab0     libucrt:nlsdata.obj
 0002:00004ab4       ??_C@_03LBGABGKK@Jul@      0000000180027ab4     libucrt:nlsdata.obj
 0002:00004ab8       ??_C@_03IFJFEIGA@Aug@      0000000180027ab8     libucrt:nlsdata.obj
 0002:00004abc       ??_C@_03GGCAPAJC@Sep@      0000000180027abc     libucrt:nlsdata.obj
 0002:00004ac0       ??_C@_03BMAOKBAD@Oct@      0000000180027ac0     libucrt:nlsdata.obj
 0002:00004ac4       ??_C@_03JPJOFNIA@Nov@      0000000180027ac4     libucrt:nlsdata.obj
 0002:00004ac8       ??_C@_03MKABNOCG@Dec@      0000000180027ac8     libucrt:nlsdata.obj
 0002:00004ad0       ??_C@_07CGJPFGJA@January@  0000000180027ad0     libucrt:nlsdata.obj
 0002:00004ad8       ??_C@_08GNJGEPFN@February@ 0000000180027ad8     libucrt:nlsdata.obj
 0002:00004ae4       ??_C@_05HPCKOFNC@March@    0000000180027ae4     libucrt:nlsdata.obj
 0002:00004aec       ??_C@_05DMJDNLEJ@April@    0000000180027aec     libucrt:nlsdata.obj
 0002:00004af4       ??_C@_04CNLMGBGM@June@     0000000180027af4     libucrt:nlsdata.obj
 0002:00004afc       ??_C@_04MIEPOIFP@July@     0000000180027afc     libucrt:nlsdata.obj
 0002:00004b04       ??_C@_06LBBHFDDG@August@   0000000180027b04     libucrt:nlsdata.obj
 0002:00004b10       ??_C@_09BHHEALKD@September@ 0000000180027b10     libucrt:nlsdata.obj
 0002:00004b20       ??_C@_07JJNFCEND@October@  0000000180027b20     libucrt:nlsdata.obj
 0002:00004b28       ??_C@_08HCHEGEOA@November@ 0000000180027b28     libucrt:nlsdata.obj
 0002:00004b38       ??_C@_08EDHMEBNP@December@ 0000000180027b38     libucrt:nlsdata.obj
 0002:00004b44       ??_C@_02DEDBPAFC@AM@       0000000180027b44     libucrt:nlsdata.obj
 0002:00004b48       ??_C@_02CJNFDJBF@PM@       0000000180027b48     libucrt:nlsdata.obj
 0002:00004b50       ??_C@_08BPBNCDIB@MM?1dd?1yy@ 0000000180027b50     libucrt:nlsdata.obj
 0002:00004b60       ??_C@_0BE@CKGJFCPC@dddd?0?5MMMM?5dd?0?5yyyy@ 0000000180027b60     libucrt:nlsdata.obj
 0002:00004b78       ??_C@_08JCCMCCIL@HH?3mm?3ss@ 0000000180027b78     libucrt:nlsdata.obj
 0002:00004b88       ??_C@_17MBGCMIPB@?$AAS?$AAu?$AAn@ 0000000180027b88     libucrt:nlsdata.obj
 0002:00004b90       ??_C@_17KBOMKBF@?$AAM?$AAo?$AAn@ 0000000180027b90     libucrt:nlsdata.obj
 0002:00004b98       ??_C@_17BMKGEGOJ@?$AAT?$AAu?$AAe@ 0000000180027b98     libucrt:nlsdata.obj
 0002:00004ba0       ??_C@_17CJEDCEPE@?$AAW?$AAe?$AAd@ 0000000180027ba0     libucrt:nlsdata.obj
 0002:00004ba8       ??_C@_17PDPHAADD@?$AAT?$AAh?$AAu@ 0000000180027ba8     libucrt:nlsdata.obj
 0002:00004bb0       ??_C@_17HFOLPPLP@?$AAF?$AAr?$AAi@ 0000000180027bb0     libucrt:nlsdata.obj
 0002:00004bb8       ??_C@_17GGIBDPIH@?$AAS?$AAa?$AAt@ 0000000180027bb8     libucrt:nlsdata.obj
 0002:00004bc0       ??_C@_1O@IHNHDHPB@?$AAS?$AAu?$AAn?$AAd?$AAa?$AAy@ 0000000180027bc0     libucrt:nlsdata.obj
 0002:00004bd0       ??_C@_1O@MMNBFLIA@?$AAM?$AAo?$AAn?$AAd?$AAa?$AAy@ 0000000180027bd0     libucrt:nlsdata.obj
 0002:00004be0       ??_C@_1BA@ENFBFFEK@?$AAT?$AAu?$AAe?$AAs?$AAd?$AAa?$AAy@ 0000000180027be0     libucrt:nlsdata.obj
 0002:00004bf0       ??_C@_1BE@EBOGMDOH@?$AAW?$AAe?$AAd?$AAn?$AAe?$AAs?$AAd?$AAa?$AAy@ 0000000180027bf0     libucrt:nlsdata.obj
 0002:00004c08       ??_C@_1BC@HHMNLIHE@?$AAT?$AAh?$AAu?$AAr?$AAs?$AAd?$AAa?$AAy@ 0000000180027c08     libucrt:nlsdata.obj
 0002:00004c20       ??_C@_1O@PDICJHAG@?$AAF?$AAr?$AAi?$AAd?$AAa?$AAy@ 0000000180027c20     libucrt:nlsdata.obj
 0002:00004c30       ??_C@_1BC@ENMNNPAJ@?$AAS?$AAa?$AAt?$AAu?$AAr?$AAd?$AAa?$AAy@ 0000000180027c30     libucrt:nlsdata.obj
 0002:00004c48       ??_C@_17DKNBKCHM@?$AAJ?$AAa?$AAn@ 0000000180027c48     libucrt:nlsdata.obj
 0002:00004c50       ??_C@_17LMDJEKJN@?$AAF?$AAe?$AAb@ 0000000180027c50     libucrt:nlsdata.obj
 0002:00004c58       ??_C@_17CKNLEDEC@?$AAM?$AAa?$AAr@ 0000000180027c58     libucrt:nlsdata.obj
 0002:00004c60       ??_C@_17LFPOIHDD@?$AAA?$AAp?$AAr@ 0000000180027c60     libucrt:nlsdata.obj
 0002:00004c68       ??_C@_17PNNKMEED@?$AAM?$AAa?$AAy@ 0000000180027c68     libucrt:nlsdata.obj
 0002:00004c70       ??_C@_17KCJGOCPB@?$AAJ?$AAu?$AAn@ 0000000180027c70     libucrt:nlsdata.obj
 0002:00004c78       ??_C@_17IJPCKHK@?$AAJ?$AAu?$AAl@ 0000000180027c78     libucrt:nlsdata.obj
 0002:00004c80       ??_C@_17ICPELBCN@?$AAA?$AAu?$AAg@ 0000000180027c80     libucrt:nlsdata.obj
 0002:00004c88       ??_C@_17HCHCOKMG@?$AAS?$AAe?$AAp@ 0000000180027c88     libucrt:nlsdata.obj
 0002:00004c90       ??_C@_17FNLKOI@?$AAO?$AAc?$AAt@ 0000000180027c90     libucrt:nlsdata.obj
 0002:00004c98       ??_C@_17BBDMLCIG@?$AAN?$AAo?$AAv@ 0000000180027c98     libucrt:nlsdata.obj
 0002:00004ca0       ??_C@_17EGKACKIF@?$AAD?$AAe?$AAc@ 0000000180027ca0     libucrt:nlsdata.obj
 0002:00004ca8       ??_C@_1BA@EFMEIEBA@?$AAJ?$AAa?$AAn?$AAu?$AAa?$AAr?$AAy@ 0000000180027ca8     libucrt:nlsdata.obj
 0002:00004cb8       ??_C@_1BC@JGDDFFAM@?$AAF?$AAe?$AAb?$AAr?$AAu?$AAa?$AAr?$AAy@ 0000000180027cb8     libucrt:nlsdata.obj
 0002:00004cd0       ??_C@_1M@IKEENEDF@?$AAM?$AAa?$AAr?$AAc?$AAh@ 0000000180027cd0     libucrt:nlsdata.obj
 0002:00004ce0       ??_C@_1M@GJNLMHFD@?$AAA?$AAp?$AAr?$AAi?$AAl@ 0000000180027ce0     libucrt:nlsdata.obj
 0002:00004cf0       ??_C@_19EPFLPGAP@?$AAJ?$AAu?$AAn?$AAe@ 0000000180027cf0     libucrt:nlsdata.obj
 0002:00004d00       ??_C@_19BIFMLPCD@?$AAJ?$AAu?$AAl?$AAy@ 0000000180027d00     libucrt:nlsdata.obj
 0002:00004d10       ??_C@_1O@PAHLKOAC@?$AAA?$AAu?$AAg?$AAu?$AAs?$AAt@ 0000000180027d10     libucrt:nlsdata.obj
 0002:00004d20       ??_C@_1BE@DKAAMBJL@?$AAS?$AAe?$AAp?$AAt?$AAe?$AAm?$AAb?$AAe?$AAr@ 0000000180027d20     libucrt:nlsdata.obj
 0002:00004d38       ??_C@_1BA@EPANDLNG@?$AAO?$AAc?$AAt?$AAo?$AAb?$AAe?$AAr@ 0000000180027d38     libucrt:nlsdata.obj
 0002:00004d48       ??_C@_1BC@BGLIFPF@?$AAN?$AAo?$AAv?$AAe?$AAm?$AAb?$AAe?$AAr@ 0000000180027d48     libucrt:nlsdata.obj
 0002:00004d60       ??_C@_1BC@FEMKIFH@?$AAD?$AAe?$AAc?$AAe?$AAm?$AAb?$AAe?$AAr@ 0000000180027d60     libucrt:nlsdata.obj
 0002:00004d74       ??_C@_15ODEHAHHF@?$AAA?$AAM@ 0000000180027d74     libucrt:nlsdata.obj
 0002:00004d7c       ??_C@_15CLMNNGEL@?$AAP?$AAM@ 0000000180027d7c     libucrt:nlsdata.obj
 0002:00004d88       ??_C@_1BC@IEBCMHCM@?$AAM?$AAM?$AA?1?$AAd?$AAd?$AA?1?$AAy?$AAy@ 0000000180027d88     libucrt:nlsdata.obj
 0002:00004da0       ??_C@_1CI@KNAKOEBC@?$AAd?$AAd?$AAd?$AAd?$AA?0?$AA?5?$AAM?$AAM?$AAM?$AAM?$AA?5?$AAd?$AAd?$AA?0?$AA?5@ 0000000180027da0     libucrt:nlsdata.obj
 0002:00004dc8       ??_C@_1BC@GDGBMEMK@?$AAH?$AAH?$AA?3?$AAm?$AAm?$AA?3?$AAs?$AAs@ 0000000180027dc8     libucrt:nlsdata.obj
 0002:00004de0       ??_C@_1M@BMHNFIME@?$AAe?$AAn?$AA?9?$AAU?$AAS@ 0000000180027de0     libucrt:nlsdata.obj
 0002:00004e10       ??_C@_1M@HPNHIDJI@?$AAj?$AAa?$AA?9?$AAJ?$AAP@ 0000000180027e10     libucrt:mbctype.obj
 0002:00004e20       ??_C@_1M@BIBDDEMK@?$AAz?$AAh?$AA?9?$AAC?$AAN@ 0000000180027e20     libucrt:mbctype.obj
 0002:00004e30       ??_C@_1M@JLOOOEGK@?$AAk?$AAo?$AA?9?$AAK?$AAR@ 0000000180027e30     libucrt:mbctype.obj
 0002:00004e40       ??_C@_1M@CLNBBOPM@?$AAz?$AAh?$AA?9?$AAT?$AAW@ 0000000180027e40     libucrt:mbctype.obj
 0002:00004e50       __newctype                 0000000180027e50     libucrt:ctype.obj
 0002:00005150       __newclmap                 0000000180028150     libucrt:ctype.obj
 0002:000052d0       __newcumap                 00000001800282d0     libucrt:ctype.obj
 0002:00005450       _wctype                    0000000180028450     libucrt:ctype.obj
 0002:000064a0       ??_C@_15EMKDOKLE@?$AAa?$AAr@ 00000001800294a0     libucrt:lcidtoname_downlevel.obj
 0002:000064a8       ??_C@_15KNPADPLH@?$AAb?$AAg@ 00000001800294a8     libucrt:lcidtoname_downlevel.obj
 0002:000064b0       ??_C@_15EDMHLDMO@?$AAc?$AAa@ 00000001800294b0     libucrt:lcidtoname_downlevel.obj
 0002:000064b8       ??_C@_1O@BPEAJADD@?$AAz?$AAh?$AA?9?$AAC?$AAH?$AAS@ 00000001800294b8     libucrt:lcidtoname_downlevel.obj
 0002:000064c8       ??_C@_15LJNHCMNK@?$AAc?$AAs@ 00000001800294c8     libucrt:lcidtoname_downlevel.obj
 0002:000064d0       ??_C@_15FOMCIDHG@?$AAd?$AAa@ 00000001800294d0     libucrt:lcidtoname_downlevel.obj
 0002:000064d8       ??_C@_15NBKABECB@?$AAd?$AAe@ 00000001800294d8     libucrt:lcidtoname_downlevel.obj
 0002:000064e0       ??_C@_15GHPEIIAO@?$AAe?$AAl@ 00000001800294e0     libucrt:lcidtoname_downlevel.obj
 0002:000064e8       ??_C@_15MNPNEAIF@?$AAe?$AAn@ 00000001800294e8     libucrt:lcidtoname_downlevel.obj
 0002:000064f0       ??_C@_15GPIOMPMH@?$AAe?$AAs@ 00000001800294f0     libucrt:lcidtoname_downlevel.obj
 0002:000064f8       ??_C@_15NGLOAKJC@?$AAf?$AAi@ 00000001800294f8     libucrt:lcidtoname_downlevel.obj
 0002:00006500       ??_C@_15FBKGNKAM@?$AAf?$AAr@ 0000000180029500     libucrt:lcidtoname_downlevel.obj
 0002:00006508       ??_C@_15KGGCNEFK@?$AAh?$AAe@ 0000000180029508     libucrt:lcidtoname_downlevel.obj
 0002:00006510       ??_C@_15PGHLIDMF@?$AAh?$AAu@ 0000000180029510     libucrt:lcidtoname_downlevel.obj
 0002:00006518       ??_C@_15BIEMAPLM@?$AAi?$AAs@ 0000000180029518     libucrt:lcidtoname_downlevel.obj
 0002:00006520       ??_C@_15IFJLDHAF@?$AAi?$AAt@ 0000000180029520     libucrt:lcidtoname_downlevel.obj
 0002:00006528       ??_C@_15GEMIOCAG@?$AAj?$AAa@ 0000000180029528     libucrt:lcidtoname_downlevel.obj
 0002:00006530       ??_C@_15EPELEGJA@?$AAk?$AAo@ 0000000180029530     libucrt:lcidtoname_downlevel.obj
 0002:00006538       ??_C@_15NDDHIMN@?$AAn?$AAl@ 0000000180029538     libucrt:lcidtoname_downlevel.obj
 0002:00006540       ??_C@_15BPIGNHCD@?$AAn?$AAo@ 0000000180029540     libucrt:lcidtoname_downlevel.obj
 0002:00006548       ??_C@_15DEOPBLCG@?$AAp?$AAl@ 0000000180029548     libucrt:lcidtoname_downlevel.obj
 0002:00006550       ??_C@_15KBECGEFG@?$AAp?$AAt@ 0000000180029550     libucrt:lcidtoname_downlevel.obj
 0002:00006558       ??_C@_15GLJCBFMD@?$AAr?$AAo@ 0000000180029558     libucrt:lcidtoname_downlevel.obj
 0002:00006560       ??_C@_15FEDGKCDI@?$AAr?$AAu@ 0000000180029560     libucrt:lcidtoname_downlevel.obj
 0002:00006568       ??_C@_15GLKMLLHM@?$AAh?$AAr@ 0000000180029568     libucrt:lcidtoname_downlevel.obj
 0002:00006570       ??_C@_15CPKMFBDB@?$AAs?$AAk@ 0000000180029570     libucrt:lcidtoname_downlevel.obj
 0002:00006578       ??_C@_15BAAIOGMK@?$AAs?$AAq@ 0000000180029578     libucrt:lcidtoname_downlevel.obj
 0002:00006580       ??_C@_15INNPNOHD@?$AAs?$AAv@ 0000000180029580     libucrt:lcidtoname_downlevel.obj
 0002:00006588       ??_C@_15CABMMOGH@?$AAt?$AAh@ 0000000180029588     libucrt:lcidtoname_downlevel.obj
 0002:00006590       ??_C@_15BPLIHJJM@?$AAt?$AAr@ 0000000180029590     libucrt:lcidtoname_downlevel.obj
 0002:00006598       ??_C@_15NEOEKKDJ@?$AAu?$AAr@ 0000000180029598     libucrt:lcidtoname_downlevel.obj
 0002:000065a0       ??_C@_15NFICGAJK@?$AAi?$AAd@ 00000001800295a0     libucrt:lcidtoname_downlevel.obj
 0002:000065a8       ??_C@_15PJPFLCCM@?$AAu?$AAk@ 00000001800295a8     libucrt:lcidtoname_downlevel.obj
 0002:000065b0       ??_C@_15HPJPHDM@?$AAb?$AAe@ 00000001800295b0     libucrt:lcidtoname_downlevel.obj
 0002:000065b8       ??_C@_15LCHLGJII@?$AAs?$AAl@ 00000001800295b8     libucrt:lcidtoname_downlevel.obj
 0002:000065c0       ??_C@_15PCFJPHHO@?$AAe?$AAt@ 00000001800295c0     libucrt:lcidtoname_downlevel.obj
 0002:000065c8       ??_C@_15HPFPGODN@?$AAl?$AAv@ 00000001800295c8     libucrt:lcidtoname_downlevel.obj
 0002:000065d0       ??_C@_15NFFGKGLG@?$AAl?$AAt@ 00000001800295d0     libucrt:lcidtoname_downlevel.obj
 0002:000065d8       ??_C@_15BDAKCCHN@?$AAf?$AAa@ 00000001800295d8     libucrt:lcidtoname_downlevel.obj
 0002:000065e0       ??_C@_15NFGIAIAJ@?$AAv?$AAi@ 00000001800295e0     libucrt:lcidtoname_downlevel.obj
 0002:000065e8       ??_C@_15LMKNDMHN@?$AAh?$AAy@ 00000001800295e8     libucrt:lcidtoname_downlevel.obj
 0002:000065f0       ??_C@_15IJBHMCFL@?$AAa?$AAz@ 00000001800295f0     libucrt:lcidtoname_downlevel.obj
 0002:000065f8       ??_C@_15EKOFJABL@?$AAe?$AAu@ 00000001800295f8     libucrt:lcidtoname_downlevel.obj
 0002:00006600       ??_C@_15BGHADCNK@?$AAm?$AAk@ 0000000180029600     libucrt:lcidtoname_downlevel.obj
 0002:00006608       ??_C@_15JDNICKHM@?$AAa?$AAf@ 0000000180029608     libucrt:lcidtoname_downlevel.obj
 0002:00006610       ??_C@_15KPJEDBKD@?$AAk?$AAa@ 0000000180029610     libucrt:lcidtoname_downlevel.obj
 0002:00006618       ??_C@_15PDNFFFEO@?$AAf?$AAo@ 0000000180029618     libucrt:lcidtoname_downlevel.obj
 0002:00006620       ??_C@_15OMLEGLOC@?$AAh?$AAi@ 0000000180029620     libucrt:lcidtoname_downlevel.obj
 0002:00006628       ??_C@_15IDNNENKK@?$AAm?$AAs@ 0000000180029628     libucrt:lcidtoname_downlevel.obj
 0002:00006630       ??_C@_15MACJNBMH@?$AAk?$AAk@ 0000000180029630     libucrt:lcidtoname_downlevel.obj
 0002:00006638       ??_C@_15DKDJEOND@?$AAk?$AAy@ 0000000180029638     libucrt:lcidtoname_downlevel.obj
 0002:00006640       ??_C@_15DFGDLJBG@?$AAs?$AAw@ 0000000180029640     libucrt:lcidtoname_downlevel.obj
 0002:00006648       ??_C@_15BBFAICNG@?$AAu?$AAz@ 0000000180029648     libucrt:lcidtoname_downlevel.obj
 0002:00006650       ??_C@_15DKNDCGEA@?$AAt?$AAt@ 0000000180029650     libucrt:lcidtoname_downlevel.obj
 0002:00006658       ??_C@_15MGIFMDPL@?$AAp?$AAa@ 0000000180029658     libucrt:lcidtoname_downlevel.obj
 0002:00006660       ??_C@_15HCNDBBA@?$AAg?$AAu@ 0000000180029660     libucrt:lcidtoname_downlevel.obj
 0002:00006668       ??_C@_15FNBEIBON@?$AAt?$AAa@ 0000000180029668     libucrt:lcidtoname_downlevel.obj
 0002:00006670       ??_C@_15NCHGBGLK@?$AAt?$AAe@ 0000000180029670     libucrt:lcidtoname_downlevel.obj
 0002:00006678       ??_C@_15PHPHCBPF@?$AAk?$AAn@ 0000000180029678     libucrt:lcidtoname_downlevel.obj
 0002:00006680       ??_C@_15DLGBCKMP@?$AAm?$AAr@ 0000000180029680     libucrt:lcidtoname_downlevel.obj
 0002:00006688       ??_C@_15EABBLBFF@?$AAs?$AAa@ 0000000180029688     libucrt:lcidtoname_downlevel.obj
 0002:00006690       ??_C@_15CBKOMCOI@?$AAm?$AAn@ 0000000180029690     libucrt:lcidtoname_downlevel.obj
 0002:00006698       ??_C@_15CKDMCJAF@?$AAg?$AAl@ 0000000180029698     libucrt:lcidtoname_downlevel.obj
 0002:000066a0       ??_C@_17CNJFBPG@?$AAk?$AAo?$AAk@ 00000001800296a0     libucrt:lcidtoname_downlevel.obj
 0002:000066a8       ??_C@_17FFBJICPL@?$AAs?$AAy?$AAr@ 00000001800296a8     libucrt:lcidtoname_downlevel.obj
 0002:000066b0       ??_C@_17KPNDCPAF@?$AAd?$AAi?$AAv@ 00000001800296b0     libucrt:lcidtoname_downlevel.obj
 0002:000066b8       ??_C@_1M@OKAHONE@?$AAa?$AAr?$AA?9?$AAS?$AAA@ 00000001800296b8     libucrt:lcidtoname_downlevel.obj
 0002:000066c8       ??_C@_1M@FFFIGIGK@?$AAb?$AAg?$AA?9?$AAB?$AAG@ 00000001800296c8     libucrt:lcidtoname_downlevel.obj
 0002:000066d8       ??_C@_1M@BJNKEDC@?$AAc?$AAa?$AA?9?$AAE?$AAS@ 00000001800296d8     libucrt:lcidtoname_downlevel.obj
 0002:000066e8       ??_C@_1M@IJJHFJHA@?$AAc?$AAs?$AA?9?$AAC?$AAZ@ 00000001800296e8     libucrt:lcidtoname_downlevel.obj
 0002:000066f8       ??_C@_1M@CLPEOBGI@?$AAd?$AAa?$AA?9?$AAD?$AAK@ 00000001800296f8     libucrt:lcidtoname_downlevel.obj
 0002:00006708       ??_C@_1M@MCMADGCB@?$AAd?$AAe?$AA?9?$AAD?$AAE@ 0000000180029708     libucrt:lcidtoname_downlevel.obj
 0002:00006718       ??_C@_1M@OOCKEMAM@?$AAe?$AAl?$AA?9?$AAG?$AAR@ 0000000180029718     libucrt:lcidtoname_downlevel.obj
 0002:00006728       ??_C@_1M@DDNJFGID@?$AAf?$AAi?$AA?9?$AAF?$AAI@ 0000000180029728     libucrt:lcidtoname_downlevel.obj
 0002:00006738       ??_C@_1M@GLIPPMAC@?$AAf?$AAr?$AA?9?$AAF?$AAR@ 0000000180029738     libucrt:lcidtoname_downlevel.obj
 0002:00006748       ??_C@_1M@GFMCHPE@?$AAh?$AAe?$AA?9?$AAI?$AAL@ 0000000180029748     libucrt:lcidtoname_downlevel.obj
 0002:00006758       ??_C@_1M@MHLPGNKM@?$AAh?$AAu?$AA?9?$AAH?$AAU@ 0000000180029758     libucrt:lcidtoname_downlevel.obj
 0002:00006768       ??_C@_1M@LPDDNNPN@?$AAi?$AAs?$AA?9?$AAI?$AAS@ 0000000180029768     libucrt:lcidtoname_downlevel.obj
 0002:00006778       ??_C@_1M@MADIPODN@?$AAi?$AAt?$AA?9?$AAI?$AAT@ 0000000180029778     libucrt:lcidtoname_downlevel.obj
 0002:00006788       ??_C@_1M@IHBJJGG@?$AAn?$AAl?$AA?9?$AAN?$AAL@ 0000000180029788     libucrt:lcidtoname_downlevel.obj
 0002:00006798       ??_C@_1M@EANAGDL@?$AAn?$AAb?$AA?9?$AAN?$AAO@ 0000000180029798     libucrt:lcidtoname_downlevel.obj
 0002:000067a8       ??_C@_1M@NEIEMEGP@?$AAp?$AAl?$AA?9?$AAP?$AAL@ 00000001800297a8     libucrt:lcidtoname_downlevel.obj
 0002:000067b8       ??_C@_1M@BOCFIGEP@?$AAp?$AAt?$AA?9?$AAB?$AAR@ 00000001800297b8     libucrt:lcidtoname_downlevel.obj
 0002:000067c8       ??_C@_1M@IMPFOPBG@?$AAr?$AAo?$AA?9?$AAR?$AAO@ 00000001800297c8     libucrt:lcidtoname_downlevel.obj
 0002:000067d8       ??_C@_1M@IDNNEJMM@?$AAr?$AAu?$AA?9?$AAR?$AAU@ 00000001800297d8     libucrt:lcidtoname_downlevel.obj
 0002:000067e8       ??_C@_1M@LILEEOGM@?$AAh?$AAr?$AA?9?$AAH?$AAR@ 00000001800297e8     libucrt:lcidtoname_downlevel.obj
 0002:000067f8       ??_C@_1M@FKIFEHPB@?$AAs?$AAk?$AA?9?$AAS?$AAK@ 00000001800297f8     libucrt:lcidtoname_downlevel.obj
 0002:00006808       ??_C@_1M@LJMAMNPJ@?$AAs?$AAq?$AA?9?$AAA?$AAL@ 0000000180029808     libucrt:lcidtoname_downlevel.obj
 0002:00006818       ??_C@_1M@GIAKDKJK@?$AAs?$AAv?$AA?9?$AAS?$AAE@ 0000000180029818     libucrt:lcidtoname_downlevel.obj
 0002:00006828       ??_C@_1M@MKJKIKCL@?$AAt?$AAh?$AA?9?$AAT?$AAH@ 0000000180029828     libucrt:lcidtoname_downlevel.obj
 0002:00006838       ??_C@_1M@MFLCCMPB@?$AAt?$AAr?$AA?9?$AAT?$AAR@ 0000000180029838     libucrt:lcidtoname_downlevel.obj
 0002:00006848       ??_C@_1M@OIJHDKJN@?$AAu?$AAr?$AA?9?$AAP?$AAK@ 0000000180029848     libucrt:lcidtoname_downlevel.obj
 0002:00006858       ??_C@_1M@LHIPCIEK@?$AAi?$AAd?$AA?9?$AAI?$AAD@ 0000000180029858     libucrt:lcidtoname_downlevel.obj
 0002:00006868       ??_C@_1M@MFMOBGI@?$AAu?$AAk?$AA?9?$AAU?$AAA@ 0000000180029868     libucrt:lcidtoname_downlevel.obj
 0002:00006878       ??_C@_1M@OBGLJIPL@?$AAb?$AAe?$AA?9?$AAB?$AAY@ 0000000180029878     libucrt:lcidtoname_downlevel.obj
 0002:00006888       ??_C@_1M@BCFAJEAD@?$AAs?$AAl?$AA?9?$AAS?$AAI@ 0000000180029888     libucrt:lcidtoname_downlevel.obj
 0002:00006898       ??_C@_1M@FKFFEDDN@?$AAe?$AAt?$AA?9?$AAE?$AAE@ 0000000180029898     libucrt:lcidtoname_downlevel.obj
 0002:000068a8       ??_C@_1M@KGKKAACI@?$AAl?$AAv?$AA?9?$AAL?$AAV@ 00000001800298a8     libucrt:lcidtoname_downlevel.obj
 0002:000068b8       ??_C@_1M@IFGBIJO@?$AAl?$AAt?$AA?9?$AAL?$AAT@ 00000001800298b8     libucrt:lcidtoname_downlevel.obj
 0002:000068c8       ??_C@_1M@FGEAHEDM@?$AAf?$AAa?$AA?9?$AAI?$AAR@ 00000001800298c8     libucrt:lcidtoname_downlevel.obj
 0002:000068d8       ??_C@_1M@KBMAIBFN@?$AAv?$AAi?$AA?9?$AAV?$AAN@ 00000001800298d8     libucrt:lcidtoname_downlevel.obj
 0002:000068e8       ??_C@_1M@GPCBKDJK@?$AAh?$AAy?$AA?9?$AAA?$AAM@ 00000001800298e8     libucrt:lcidtoname_downlevel.obj
 0002:000068f8       ??_C@_1BG@BECMDDJB@?$AAa?$AAz?$AA?9?$AAA?$AAZ?$AA?9?$AAL?$AAa?$AAt?$AAn@ 00000001800298f8     libucrt:lcidtoname_downlevel.obj
 0002:00006910       ??_C@_1M@MAOFCAEA@?$AAe?$AAu?$AA?9?$AAE?$AAS@ 0000000180029910     libucrt:lcidtoname_downlevel.obj
 0002:00006920       ??_C@_1M@IGHABKPI@?$AAm?$AAk?$AA?9?$AAM?$AAK@ 0000000180029920     libucrt:lcidtoname_downlevel.obj
 0002:00006930       ??_C@_1M@IAIGNEJG@?$AAt?$AAn?$AA?9?$AAZ?$AAA@ 0000000180029930     libucrt:lcidtoname_downlevel.obj
 0002:00006940       ??_C@_1M@IIJCOJFA@?$AAx?$AAh?$AA?9?$AAZ?$AAA@ 0000000180029940     libucrt:lcidtoname_downlevel.obj
 0002:00006950       ??_C@_1M@LGPJHNJH@?$AAz?$AAu?$AA?9?$AAZ?$AAA@ 0000000180029950     libucrt:lcidtoname_downlevel.obj
 0002:00006960       ??_C@_1M@HOKAOIO@?$AAa?$AAf?$AA?9?$AAZ?$AAA@ 0000000180029960     libucrt:lcidtoname_downlevel.obj
 0002:00006970       ??_C@_1M@DPCLHLIE@?$AAk?$AAa?$AA?9?$AAG?$AAE@ 0000000180029970     libucrt:lcidtoname_downlevel.obj
 0002:00006980       ??_C@_1M@BLKMHJBI@?$AAf?$AAo?$AA?9?$AAF?$AAO@ 0000000180029980     libucrt:lcidtoname_downlevel.obj
 0002:00006990       ??_C@_1M@LGGJAPPB@?$AAh?$AAi?$AA?9?$AAI?$AAN@ 0000000180029990     libucrt:lcidtoname_downlevel.obj
 0002:000069a0       ??_C@_1M@FIKPIHFE@?$AAm?$AAt?$AA?9?$AAM?$AAT@ 00000001800299a0     libucrt:lcidtoname_downlevel.obj
 0002:000069b0       ??_C@_1M@HEGGPBFA@?$AAs?$AAe?$AA?9?$AAN?$AAO@ 00000001800299b0     libucrt:lcidtoname_downlevel.obj
 0002:000069c0       ??_C@_1M@EIBJEEPA@?$AAm?$AAs?$AA?9?$AAM?$AAY@ 00000001800299c0     libucrt:lcidtoname_downlevel.obj
 0002:000069d0       ??_C@_1M@FHLBGMPP@?$AAk?$AAk?$AA?9?$AAK?$AAZ@ 00000001800299d0     libucrt:lcidtoname_downlevel.obj
 0002:000069e0       ??_C@_1M@NGJJLCGI@?$AAk?$AAy?$AA?9?$AAK?$AAG@ 00000001800299e0     libucrt:lcidtoname_downlevel.obj
 0002:000069f0       ??_C@_1M@GIENNBFC@?$AAs?$AAw?$AA?9?$AAK?$AAE@ 00000001800299f0     libucrt:lcidtoname_downlevel.obj
 0002:00006a00       ??_C@_1BG@NDGMJIMJ@?$AAu?$AAz?$AA?9?$AAU?$AAZ?$AA?9?$AAL?$AAa?$AAt?$AAn@ 0000000180029a00     libucrt:lcidtoname_downlevel.obj
 0002:00006a18       ??_C@_1M@IDCCIHBC@?$AAt?$AAt?$AA?9?$AAR?$AAU@ 0000000180029a18     libucrt:lcidtoname_downlevel.obj
 0002:00006a28       ??_C@_1M@LOICPMOJ@?$AAb?$AAn?$AA?9?$AAI?$AAN@ 0000000180029a28     libucrt:lcidtoname_downlevel.obj
 0002:00006a38       ??_C@_1M@KPKKNEAH@?$AAp?$AAa?$AA?9?$AAI?$AAN@ 0000000180029a38     libucrt:lcidtoname_downlevel.obj
 0002:00006a48       ??_C@_1M@PJGPPBOG@?$AAg?$AAu?$AA?9?$AAI?$AAN@ 0000000180029a48     libucrt:lcidtoname_downlevel.obj
 0002:00006a58       ??_C@_1M@KMKMOPHI@?$AAt?$AAa?$AA?9?$AAI?$AAN@ 0000000180029a58     libucrt:lcidtoname_downlevel.obj
 0002:00006a68       ??_C@_1M@KFEHEPAC@?$AAt?$AAe?$AA?9?$AAI?$AAN@ 0000000180029a68     libucrt:lcidtoname_downlevel.obj
 0002:00006a78       ??_C@_1M@CDCLMGHI@?$AAk?$AAn?$AA?9?$AAI?$AAN@ 0000000180029a78     libucrt:lcidtoname_downlevel.obj
 0002:00006a88       ??_C@_1M@MIODLDKF@?$AAm?$AAl?$AA?9?$AAI?$AAN@ 0000000180029a88     libucrt:lcidtoname_downlevel.obj
 0002:00006a98       ??_C@_1M@PBIEACPO@?$AAm?$AAr?$AA?9?$AAI?$AAN@ 0000000180029a98     libucrt:lcidtoname_downlevel.obj
 0002:00006aa8       ??_C@_1M@NIDEAGPH@?$AAs?$AAa?$AA?9?$AAI?$AAN@ 0000000180029aa8     libucrt:lcidtoname_downlevel.obj
 0002:00006ab8       ??_C@_1M@FHIHCBIO@?$AAm?$AAn?$AA?9?$AAM?$AAN@ 0000000180029ab8     libucrt:lcidtoname_downlevel.obj
 0002:00006ac8       ??_C@_1M@JAIJPENP@?$AAc?$AAy?$AA?9?$AAG?$AAB@ 0000000180029ac8     libucrt:lcidtoname_downlevel.obj
 0002:00006ad8       ??_C@_1M@PHGFBEPN@?$AAg?$AAl?$AA?9?$AAE?$AAS@ 0000000180029ad8     libucrt:lcidtoname_downlevel.obj
 0002:00006ae8       ??_C@_1O@KPIPDNCP@?$AAk?$AAo?$AAk?$AA?9?$AAI?$AAN@ 0000000180029ae8     libucrt:lcidtoname_downlevel.obj
 0002:00006af8       ??_C@_1O@KNHJLDJA@?$AAs?$AAy?$AAr?$AA?9?$AAS?$AAY@ 0000000180029af8     libucrt:lcidtoname_downlevel.obj
 0002:00006b08       ??_C@_1O@MKEKBLAH@?$AAd?$AAi?$AAv?$AA?9?$AAM?$AAV@ 0000000180029b08     libucrt:lcidtoname_downlevel.obj
 0002:00006b18       ??_C@_1O@OHDCKDDF@?$AAq?$AAu?$AAz?$AA?9?$AAB?$AAO@ 0000000180029b18     libucrt:lcidtoname_downlevel.obj
 0002:00006b28       ??_C@_1M@LEPJNLFD@?$AAn?$AAs?$AA?9?$AAZ?$AAA@ 0000000180029b28     libucrt:lcidtoname_downlevel.obj
 0002:00006b38       ??_C@_1M@OMLEIIJB@?$AAm?$AAi?$AA?9?$AAN?$AAZ@ 0000000180029b38     libucrt:lcidtoname_downlevel.obj
 0002:00006b48       ??_C@_1M@PMPEAILG@?$AAa?$AAr?$AA?9?$AAI?$AAQ@ 0000000180029b48     libucrt:lcidtoname_downlevel.obj
 0002:00006b58       ??_C@_1M@CNKPNOEE@?$AAd?$AAe?$AA?9?$AAC?$AAH@ 0000000180029b58     libucrt:lcidtoname_downlevel.obj
 0002:00006b68       ??_C@_1M@LKMGMLKO@?$AAe?$AAn?$AA?9?$AAG?$AAB@ 0000000180029b68     libucrt:lcidtoname_downlevel.obj
 0002:00006b78       ??_C@_1M@PGKJFFGL@?$AAe?$AAs?$AA?9?$AAM?$AAX@ 0000000180029b78     libucrt:lcidtoname_downlevel.obj
 0002:00006b88       ??_C@_1M@DNNANBDC@?$AAf?$AAr?$AA?9?$AAB?$AAE@ 0000000180029b88     libucrt:lcidtoname_downlevel.obj
 0002:00006b98       ??_C@_1M@HLGMDFHM@?$AAi?$AAt?$AA?9?$AAC?$AAH@ 0000000180029b98     libucrt:lcidtoname_downlevel.obj
 0002:00006ba8       ??_C@_1M@CLLBGJH@?$AAn?$AAl?$AA?9?$AAB?$AAE@ 0000000180029ba8     libucrt:lcidtoname_downlevel.obj
 0002:00006bb8       ??_C@_1M@BODBOGLF@?$AAn?$AAn?$AA?9?$AAN?$AAO@ 0000000180029bb8     libucrt:lcidtoname_downlevel.obj
 0002:00006bc8       ??_C@_1M@HFFAHKAD@?$AAp?$AAt?$AA?9?$AAP?$AAT@ 0000000180029bc8     libucrt:lcidtoname_downlevel.obj
 0002:00006bd8       ??_C@_1BG@LNOAKHIE@?$AAs?$AAr?$AA?9?$AAS?$AAP?$AA?9?$AAL?$AAa?$AAt?$AAn@ 0000000180029bd8     libucrt:lcidtoname_downlevel.obj
 0002:00006bf0       ??_C@_1M@HBMHBGAK@?$AAs?$AAv?$AA?9?$AAF?$AAI@ 0000000180029bf0     libucrt:lcidtoname_downlevel.obj
 0002:00006c00       ??_C@_1BG@DGCJGJBE@?$AAa?$AAz?$AA?9?$AAA?$AAZ?$AA?9?$AAC?$AAy?$AAr?$AAl@ 0000000180029c00     libucrt:lcidtoname_downlevel.obj
 0002:00006c18       ??_C@_1M@KEJDAAHB@?$AAs?$AAe?$AA?9?$AAS?$AAE@ 0000000180029c18     libucrt:lcidtoname_downlevel.obj
 0002:00006c28       ??_C@_1M@HEIBJJAD@?$AAm?$AAs?$AA?9?$AAB?$AAN@ 0000000180029c28     libucrt:lcidtoname_downlevel.obj
 0002:00006c38       ??_C@_1BG@PBGJMCEM@?$AAu?$AAz?$AA?9?$AAU?$AAZ?$AA?9?$AAC?$AAy?$AAr?$AAl@ 0000000180029c38     libucrt:lcidtoname_downlevel.obj
 0002:00006c50       ??_C@_1O@LAOBCMDF@?$AAq?$AAu?$AAz?$AA?9?$AAE?$AAC@ 0000000180029c50     libucrt:lcidtoname_downlevel.obj
 0002:00006c60       ??_C@_1M@POEEMAIO@?$AAa?$AAr?$AA?9?$AAE?$AAG@ 0000000180029c60     libucrt:lcidtoname_downlevel.obj
 0002:00006c70       ??_C@_1M@EFAKDEDL@?$AAz?$AAh?$AA?9?$AAH?$AAK@ 0000000180029c70     libucrt:lcidtoname_downlevel.obj
 0002:00006c80       ??_C@_1M@HKKIJHGI@?$AAd?$AAe?$AA?9?$AAA?$AAT@ 0000000180029c80     libucrt:lcidtoname_downlevel.obj
 0002:00006c90       ??_C@_1M@KBFBEHJF@?$AAe?$AAn?$AA?9?$AAA?$AAU@ 0000000180029c90     libucrt:lcidtoname_downlevel.obj
 0002:00006ca0       ??_C@_1M@MNPLFAAH@?$AAe?$AAs?$AA?9?$AAE?$AAS@ 0000000180029ca0     libucrt:lcidtoname_downlevel.obj
 0002:00006cb0       ??_C@_1M@HJOOJFMA@?$AAf?$AAr?$AA?9?$AAC?$AAA@ 0000000180029cb0     libucrt:lcidtoname_downlevel.obj
 0002:00006cc0       ??_C@_1BG@JPOFPNAB@?$AAs?$AAr?$AA?9?$AAS?$AAP?$AA?9?$AAC?$AAy?$AAr?$AAl@ 0000000180029cc0     libucrt:lcidtoname_downlevel.obj
 0002:00006cd8       ??_C@_1M@LNFOCMOB@?$AAs?$AAe?$AA?9?$AAF?$AAI@ 0000000180029cd8     libucrt:lcidtoname_downlevel.obj
 0002:00006ce8       ??_C@_1O@MGJBOAMB@?$AAq?$AAu?$AAz?$AA?9?$AAP?$AAE@ 0000000180029ce8     libucrt:lcidtoname_downlevel.obj
 0002:00006cf8       ??_C@_1M@GJINLBOK@?$AAa?$AAr?$AA?9?$AAL?$AAY@ 0000000180029cf8     libucrt:lcidtoname_downlevel.obj
 0002:00006d08       ??_C@_1M@GGMNHJNL@?$AAz?$AAh?$AA?9?$AAS?$AAG@ 0000000180029d08     libucrt:lcidtoname_downlevel.obj
 0002:00006d18       ??_C@_1M@HOIKODND@?$AAd?$AAe?$AA?9?$AAL?$AAU@ 0000000180029d18     libucrt:lcidtoname_downlevel.obj
 0002:00006d28       ??_C@_1M@DDOCCGFG@?$AAe?$AAn?$AA?9?$AAC?$AAA@ 0000000180029d28     libucrt:lcidtoname_downlevel.obj
 0002:00006d38       ??_C@_1M@BNOEMJLF@?$AAe?$AAs?$AA?9?$AAG?$AAT@ 0000000180029d38     libucrt:lcidtoname_downlevel.obj
 0002:00006d48       ??_C@_1M@EOGNKEK@?$AAf?$AAr?$AA?9?$AAC?$AAH@ 0000000180029d48     libucrt:lcidtoname_downlevel.obj
 0002:00006d58       ??_C@_1M@FLIDJFHL@?$AAh?$AAr?$AA?9?$AAB?$AAA@ 0000000180029d58     libucrt:lcidtoname_downlevel.obj
 0002:00006d68       ??_C@_1O@FMCELNAJ@?$AAs?$AAm?$AAj?$AA?9?$AAN?$AAO@ 0000000180029d68     libucrt:lcidtoname_downlevel.obj
 0002:00006d78       ??_C@_1M@JHGLJMGJ@?$AAa?$AAr?$AA?9?$AAD?$AAZ@ 0000000180029d78     libucrt:lcidtoname_downlevel.obj
 0002:00006d88       ??_C@_1M@JKKFDCNP@?$AAz?$AAh?$AA?9?$AAM?$AAO@ 0000000180029d88     libucrt:lcidtoname_downlevel.obj
 0002:00006d98       ??_C@_1M@GEEFALPE@?$AAd?$AAe?$AA?9?$AAL?$AAI@ 0000000180029d98     libucrt:lcidtoname_downlevel.obj
 0002:00006da8       ??_C@_1M@IGEOFBG@?$AAe?$AAn?$AA?9?$AAN?$AAZ@ 0000000180029da8     libucrt:lcidtoname_downlevel.obj
 0002:00006db8       ??_C@_1M@KDBONEHP@?$AAe?$AAs?$AA?9?$AAC?$AAR@ 0000000180029db8     libucrt:lcidtoname_downlevel.obj
 0002:00006dc8       ??_C@_1M@FHMDOHNN@?$AAf?$AAr?$AA?9?$AAL?$AAU@ 0000000180029dc8     libucrt:lcidtoname_downlevel.obj
 0002:00006dd8       ??_C@_1BG@NFKKMAFG@?$AAb?$AAs?$AA?9?$AAB?$AAA?$AA?9?$AAL?$AAa?$AAt?$AAn@ 0000000180029dd8     libucrt:lcidtoname_downlevel.obj
 0002:00006df0       ??_C@_1O@IMNBEMCI@?$AAs?$AAm?$AAj?$AA?9?$AAS?$AAE@ 0000000180029df0     libucrt:lcidtoname_downlevel.obj
 0002:00006e00       ??_C@_1M@DHHMBNDP@?$AAa?$AAr?$AA?9?$AAM?$AAA@ 0000000180029e00     libucrt:lcidtoname_downlevel.obj
 0002:00006e10       ??_C@_1M@BNBLJCGH@?$AAe?$AAn?$AA?9?$AAI?$AAE@ 0000000180029e10     libucrt:lcidtoname_downlevel.obj
 0002:00006e20       ??_C@_1M@GEPAFMDL@?$AAe?$AAs?$AA?9?$AAP?$AAA@ 0000000180029e20     libucrt:lcidtoname_downlevel.obj
 0002:00006e30       ??_C@_1M@OJONDMDL@?$AAf?$AAr?$AA?9?$AAM?$AAC@ 0000000180029e30     libucrt:lcidtoname_downlevel.obj
 0002:00006e40       ??_C@_1BG@OBCNFJB@?$AAs?$AAr?$AA?9?$AAB?$AAA?$AA?9?$AAL?$AAa?$AAt?$AAn@ 0000000180029e40     libucrt:lcidtoname_downlevel.obj
 0002:00006e58       ??_C@_1O@KEMEEGPO@?$AAs?$AAm?$AAa?$AA?9?$AAN?$AAO@ 0000000180029e58     libucrt:lcidtoname_downlevel.obj
 0002:00006e68       ??_C@_1M@ELMGFODK@?$AAa?$AAr?$AA?9?$AAT?$AAN@ 0000000180029e68     libucrt:lcidtoname_downlevel.obj
 0002:00006e78       ??_C@_1M@BHDLHFAF@?$AAe?$AAn?$AA?9?$AAZ?$AAA@ 0000000180029e78     libucrt:lcidtoname_downlevel.obj
 0002:00006e88       ??_C@_1M@BMGIGLIF@?$AAe?$AAs?$AA?9?$AAD?$AAO@ 0000000180029e88     libucrt:lcidtoname_downlevel.obj
 0002:00006e98       ??_C@_1BG@CMBHIPBE@?$AAs?$AAr?$AA?9?$AAB?$AAA?$AA?9?$AAC?$AAy?$AAr?$AAl@ 0000000180029e98     libucrt:lcidtoname_downlevel.obj
 0002:00006eb0       ??_C@_1O@HEDBLHNP@?$AAs?$AAm?$AAa?$AA?9?$AAS?$AAE@ 0000000180029eb0     libucrt:lcidtoname_downlevel.obj
 0002:00006ec0       ??_C@_1M@DAGCADIM@?$AAa?$AAr?$AA?9?$AAO?$AAM@ 0000000180029ec0     libucrt:lcidtoname_downlevel.obj
 0002:00006ed0       ??_C@_1M@FODLMICG@?$AAe?$AAn?$AA?9?$AAJ?$AAM@ 0000000180029ed0     libucrt:lcidtoname_downlevel.obj
 0002:00006ee0       ??_C@_1M@DNMLCIHB@?$AAe?$AAs?$AA?9?$AAV?$AAE@ 0000000180029ee0     libucrt:lcidtoname_downlevel.obj
 0002:00006ef0       ??_C@_1O@EOKHMKJK@?$AAs?$AAm?$AAs?$AA?9?$AAF?$AAI@ 0000000180029ef0     libucrt:lcidtoname_downlevel.obj
 0002:00006f00       ??_C@_1M@CAFJMKOF@?$AAa?$AAr?$AA?9?$AAY?$AAE@ 0000000180029f00     libucrt:lcidtoname_downlevel.obj
 0002:00006f10       ??_C@_1M@CBFHIJLI@?$AAe?$AAn?$AA?9?$AAC?$AAB@ 0000000180029f10     libucrt:lcidtoname_downlevel.obj
 0002:00006f20       ??_C@_1M@BGNFLDN@?$AAe?$AAs?$AA?9?$AAC?$AAO@ 0000000180029f20     libucrt:lcidtoname_downlevel.obj
 0002:00006f30       ??_C@_1O@JMPHMAMC@?$AAs?$AAm?$AAn?$AA?9?$AAF?$AAI@ 0000000180029f30     libucrt:lcidtoname_downlevel.obj
 0002:00006f40       ??_C@_1M@JLANABKE@?$AAa?$AAr?$AA?9?$AAS?$AAY@ 0000000180029f40     libucrt:lcidtoname_downlevel.obj
 0002:00006f50       ??_C@_1M@HPKGCFGN@?$AAe?$AAn?$AA?9?$AAB?$AAZ@ 0000000180029f50     libucrt:lcidtoname_downlevel.obj
 0002:00006f60       ??_C@_1M@OLJCMLGM@?$AAe?$AAs?$AA?9?$AAP?$AAE@ 0000000180029f60     libucrt:lcidtoname_downlevel.obj
 0002:00006f70       ??_C@_1M@MKKGFKLE@?$AAa?$AAr?$AA?9?$AAJ?$AAO@ 0000000180029f70     libucrt:lcidtoname_downlevel.obj
 0002:00006f80       ??_C@_1M@EKPGLDNI@?$AAe?$AAn?$AA?9?$AAT?$AAT@ 0000000180029f80     libucrt:lcidtoname_downlevel.obj
 0002:00006f90       ??_C@_1M@OONGHFHE@?$AAe?$AAs?$AA?9?$AAA?$AAR@ 0000000180029f90     libucrt:lcidtoname_downlevel.obj
 0002:00006fa0       ??_C@_1M@OOJFGBHE@?$AAa?$AAr?$AA?9?$AAL?$AAB@ 0000000180029fa0     libucrt:lcidtoname_downlevel.obj
 0002:00006fb0       ??_C@_1M@GCEJHNEG@?$AAe?$AAn?$AA?9?$AAZ?$AAW@ 0000000180029fb0     libucrt:lcidtoname_downlevel.obj
 0002:00006fc0       ??_C@_1M@JNOCAHJI@?$AAe?$AAs?$AA?9?$AAE?$AAC@ 0000000180029fc0     libucrt:lcidtoname_downlevel.obj
 0002:00006fd0       ??_C@_1M@JEFHPGGB@?$AAa?$AAr?$AA?9?$AAK?$AAW@ 0000000180029fd0     libucrt:lcidtoname_downlevel.obj
 0002:00006fe0       ??_C@_1M@MLKIBJOJ@?$AAe?$AAn?$AA?9?$AAP?$AAH@ 0000000180029fe0     libucrt:lcidtoname_downlevel.obj
 0002:00006ff0       ??_C@_1M@BDNIPEND@?$AAe?$AAs?$AA?9?$AAC?$AAL@ 0000000180029ff0     libucrt:lcidtoname_downlevel.obj
 0002:00007000       ??_C@_1M@MPNMEKBD@?$AAa?$AAr?$AA?9?$AAA?$AAE@ 000000018002a000     libucrt:lcidtoname_downlevel.obj
 0002:00007010       ??_C@_1M@KBJALCPI@?$AAe?$AAs?$AA?9?$AAU?$AAY@ 000000018002a010     libucrt:lcidtoname_downlevel.obj
 0002:00007020       ??_C@_1M@LLCCOAGA@?$AAa?$AAr?$AA?9?$AAB?$AAH@ 000000018002a020     libucrt:lcidtoname_downlevel.obj
 0002:00007030       ??_C@_1M@PBFNCDEL@?$AAe?$AAs?$AA?9?$AAP?$AAY@ 000000018002a030     libucrt:lcidtoname_downlevel.obj
 0002:00007040       ??_C@_1M@EDGINPNP@?$AAa?$AAr?$AA?9?$AAQ?$AAA@ 000000018002a040     libucrt:lcidtoname_downlevel.obj
 0002:00007050       ??_C@_1M@MKDBIIJI@?$AAe?$AAs?$AA?9?$AAB?$AAO@ 000000018002a050     libucrt:lcidtoname_downlevel.obj
 0002:00007060       ??_C@_1M@CPKKEBLD@?$AAe?$AAs?$AA?9?$AAS?$AAV@ 000000018002a060     libucrt:lcidtoname_downlevel.obj
 0002:00007070       ??_C@_1M@NDBGMMJL@?$AAe?$AAs?$AA?9?$AAH?$AAN@ 000000018002a070     libucrt:lcidtoname_downlevel.obj
 0002:00007080       ??_C@_1M@JIJIBHDP@?$AAe?$AAs?$AA?9?$AAN?$AAI@ 000000018002a080     libucrt:lcidtoname_downlevel.obj
 0002:00007090       ??_C@_1M@CGFMKEEK@?$AAe?$AAs?$AA?9?$AAP?$AAR@ 000000018002a090     libucrt:lcidtoname_downlevel.obj
 0002:000070a0       ??_C@_1O@ICJHKIIK@?$AAz?$AAh?$AA?9?$AAC?$AAH?$AAT@ 000000018002a0a0     libucrt:lcidtoname_downlevel.obj
 0002:000070b0       ??_C@_15CLNEJCE@?$AAs?$AAr@ 000000018002a0b0     libucrt:lcidtoname_downlevel.obj
 0002:00007f00       ??_C@_1M@KAHEKEIG@?$AAa?$AAf?$AA?9?$AAz?$AAa@ 000000018002af00     libucrt:lcidtoname_downlevel.obj
 0002:00007f10       ??_C@_1M@GIECOABL@?$AAa?$AAr?$AA?9?$AAa?$AAe@ 000000018002af10     libucrt:lcidtoname_downlevel.obj
 0002:00007f20       ??_C@_1M@BMLMEKGI@?$AAa?$AAr?$AA?9?$AAb?$AAh@ 000000018002af20     libucrt:lcidtoname_downlevel.obj
 0002:00007f30       ??_C@_1M@DAPFDGGB@?$AAa?$AAr?$AA?9?$AAd?$AAz@ 000000018002af30     libucrt:lcidtoname_downlevel.obj
 0002:00007f40       ??_C@_1M@FJNKGKIG@?$AAa?$AAr?$AA?9?$AAe?$AAg@ 000000018002af40     libucrt:lcidtoname_downlevel.obj
 0002:00007f50       ??_C@_1M@FLGKKCLO@?$AAa?$AAr?$AA?9?$AAi?$AAq@ 000000018002af50     libucrt:lcidtoname_downlevel.obj
 0002:00007f60       ??_C@_1M@GNDIPALM@?$AAa?$AAr?$AA?9?$AAj?$AAo@ 000000018002af60     libucrt:lcidtoname_downlevel.obj
 0002:00007f70       ??_C@_1M@DDMJFMGJ@?$AAa?$AAr?$AA?9?$AAk?$AAw@ 000000018002af70     libucrt:lcidtoname_downlevel.obj
 0002:00007f80       ??_C@_1M@EJALMLHM@?$AAa?$AAr?$AA?9?$AAl?$AAb@ 000000018002af80     libucrt:lcidtoname_downlevel.obj
 0002:00007f90       ??_C@_1M@MOBDBLOC@?$AAa?$AAr?$AA?9?$AAl?$AAy@ 000000018002af90     libucrt:lcidtoname_downlevel.obj
 0002:00007fa0       ??_C@_1M@JAOCLHDH@?$AAa?$AAr?$AA?9?$AAm?$AAa@ 000000018002afa0     libucrt:lcidtoname_downlevel.obj
 0002:00007fb0       ??_C@_1M@JHPMKJIE@?$AAa?$AAr?$AA?9?$AAo?$AAm@ 000000018002afb0     libucrt:lcidtoname_downlevel.obj
 0002:00007fc0       ??_C@_1M@OEPGHFNH@?$AAa?$AAr?$AA?9?$AAq?$AAa@ 000000018002afc0     libucrt:lcidtoname_downlevel.obj
 0002:00007fd0       ??_C@_1M@KJDONENM@?$AAa?$AAr?$AA?9?$AAs?$AAa@ 000000018002afd0     libucrt:lcidtoname_downlevel.obj
 0002:00007fe0       ??_C@_1M@DMJDKLKM@?$AAa?$AAr?$AA?9?$AAs?$AAy@ 000000018002afe0     libucrt:lcidtoname_downlevel.obj
 0002:00007ff0       ??_C@_1M@OMFIPEDC@?$AAa?$AAr?$AA?9?$AAt?$AAn@ 000000018002aff0     libucrt:lcidtoname_downlevel.obj
 0002:00008000       ??_C@_1M@IHMHGAON@?$AAa?$AAr?$AA?9?$AAy?$AAe@ 000000018002b000     libucrt:lcidtoname_downlevel.obj
 0002:00008010       ??_C@_1BG@KDCPGJGB@?$AAa?$AAz?$AA?9?$AAa?$AAz?$AA?9?$AAc?$AAy?$AAr?$AAl@ 000000018002b010     libucrt:lcidtoname_downlevel.obj
 0002:00008028       ??_C@_1BG@IBCKDDOE@?$AAa?$AAz?$AA?9?$AAa?$AAz?$AA?9?$AAl?$AAa?$AAt?$AAn@ 000000018002b028     libucrt:lcidtoname_downlevel.obj
 0002:00008040       ??_C@_1M@EGPFDCPD@?$AAb?$AAe?$AA?9?$AAb?$AAy@ 000000018002b040     libucrt:lcidtoname_downlevel.obj
 0002:00008050       ??_C@_1M@PCMGMCGC@?$AAb?$AAg?$AA?9?$AAb?$AAg@ 000000018002b050     libucrt:lcidtoname_downlevel.obj
 0002:00008060       ??_C@_1M@BJBMFGOB@?$AAb?$AAn?$AA?9?$AAi?$AAn@ 000000018002b060     libucrt:lcidtoname_downlevel.obj
 0002:00008070       ??_C@_1BG@EAKMMACD@?$AAb?$AAs?$AA?9?$AAb?$AAa?$AA?9?$AAl?$AAa?$AAt?$AAn@ 000000018002b070     libucrt:lcidtoname_downlevel.obj
 0002:00008088       ??_C@_1M@KGADAODK@?$AAc?$AAa?$AA?9?$AAe?$AAs@ 000000018002b088     libucrt:lcidtoname_downlevel.obj
 0002:00008098       ??_C@_1M@COAJPDHI@?$AAc?$AAs?$AA?9?$AAc?$AAz@ 000000018002b098     libucrt:lcidtoname_downlevel.obj
 0002:000080a8       ??_C@_1M@DHBHFONH@?$AAc?$AAy?$AA?9?$AAg?$AAb@ 000000018002b0a8     libucrt:lcidtoname_downlevel.obj
 0002:000080b8       ??_C@_1M@IMGKELGA@?$AAd?$AAa?$AA?9?$AAd?$AAk@ 000000018002b0b8     libucrt:lcidtoname_downlevel.obj
 0002:000080c8       ??_C@_1M@NNDGDNGA@?$AAd?$AAe?$AA?9?$AAa?$AAt@ 000000018002b0c8     libucrt:lcidtoname_downlevel.obj
 0002:000080d8       ??_C@_1M@IKDBHEEM@?$AAd?$AAe?$AA?9?$AAc?$AAh@ 000000018002b0d8     libucrt:lcidtoname_downlevel.obj
 0002:000080e8       ??_C@_1M@GFFOJMCJ@?$AAd?$AAe?$AA?9?$AAd?$AAe@ 000000018002b0e8     libucrt:lcidtoname_downlevel.obj
 0002:000080f8       ??_C@_1M@MDNLKBPM@?$AAd?$AAe?$AA?9?$AAl?$AAi@ 000000018002b0f8     libucrt:lcidtoname_downlevel.obj
 0002:00008108       ??_C@_1M@NJBEEJNL@?$AAd?$AAe?$AA?9?$AAl?$AAu@ 000000018002b108     libucrt:lcidtoname_downlevel.obj
 0002:00008118       ??_C@_1O@GNNELBAP@?$AAd?$AAi?$AAv?$AA?9?$AAm?$AAv@ 000000018002b118     libucrt:lcidtoname_downlevel.obj
 0002:00008128       ??_C@_1M@EJLEOGAE@?$AAe?$AAl?$AA?9?$AAg?$AAr@ 000000018002b128     libucrt:lcidtoname_downlevel.obj
 0002:00008138       ??_C@_1M@GMPONJN@?$AAe?$AAn?$AA?9?$AAa?$AAu@ 000000018002b138     libucrt:lcidtoname_downlevel.obj
 0002:00008148       ??_C@_1M@NIDIIPGF@?$AAe?$AAn?$AA?9?$AAb?$AAz@ 000000018002b148     libucrt:lcidtoname_downlevel.obj
 0002:00008158       ??_C@_1M@JEHMIMFO@?$AAe?$AAn?$AA?9?$AAc?$AAa@ 000000018002b158     libucrt:lcidtoname_downlevel.obj
 0002:00008168       ??_C@_1M@IGMJCDLA@?$AAe?$AAn?$AA?9?$AAc?$AAb@ 000000018002b168     libucrt:lcidtoname_downlevel.obj
 0002:00008178       ??_C@_1M@BNFIGBKG@?$AAe?$AAn?$AA?9?$AAg?$AAb@ 000000018002b178     libucrt:lcidtoname_downlevel.obj
 0002:00008188       ??_C@_1M@LKIFDIGP@?$AAe?$AAn?$AA?9?$AAi?$AAe@ 000000018002b188     libucrt:lcidtoname_downlevel.obj
 0002:00008198       ??_C@_1M@PJKFGCCO@?$AAe?$AAn?$AA?9?$AAj?$AAm@ 000000018002b198     libucrt:lcidtoname_downlevel.obj
 0002:000081a8       ??_C@_1M@KPPKEPBO@?$AAe?$AAn?$AA?9?$AAn?$AAz@ 000000018002b1a8     libucrt:lcidtoname_downlevel.obj
 0002:000081b8       ??_C@_1M@GMDGLDOB@?$AAe?$AAn?$AA?9?$AAp?$AAh@ 000000018002b1b8     libucrt:lcidtoname_downlevel.obj
 0002:000081c8       ??_C@_1M@ONGIBJNA@?$AAe?$AAn?$AA?9?$AAt?$AAt@ 000000018002b1c8     libucrt:lcidtoname_downlevel.obj
 0002:000081d8       ??_C@_1M@LLODPCMM@?$AAe?$AAn?$AA?9?$AAu?$AAs@ 000000018002b1d8     libucrt:lcidtoname_downlevel.obj
 0002:000081e8       ??_C@_1M@LAKFNPAN@?$AAe?$AAn?$AA?9?$AAz?$AAa@ 000000018002b1e8     libucrt:lcidtoname_downlevel.obj
 0002:000081f8       ??_C@_1M@MFNHNHEO@?$AAe?$AAn?$AA?9?$AAz?$AAw@ 000000018002b1f8     libucrt:lcidtoname_downlevel.obj
 0002:00008208       ??_C@_1M@EJEINPHM@?$AAe?$AAs?$AA?9?$AAa?$AAr@ 000000018002b208     libucrt:lcidtoname_downlevel.obj
 0002:00008218       ??_C@_1M@GNKPCCJA@?$AAe?$AAs?$AA?9?$AAb?$AAo@ 000000018002b218     libucrt:lcidtoname_downlevel.obj
 0002:00008228       ??_C@_1M@LEEGFONL@?$AAe?$AAs?$AA?9?$AAc?$AAl@ 000000018002b228     libucrt:lcidtoname_downlevel.obj
 0002:00008238       ??_C@_1M@KGPDPBDF@?$AAe?$AAs?$AA?9?$AAc?$AAo@ 000000018002b238     libucrt:lcidtoname_downlevel.obj
 0002:00008248       ??_C@_1M@EIAHOHH@?$AAe?$AAs?$AA?9?$AAc?$AAr@ 000000018002b248     libucrt:lcidtoname_downlevel.obj
 0002:00008258       ??_C@_1M@LLPGMBIN@?$AAe?$AAs?$AA?9?$AAd?$AAo@ 000000018002b258     libucrt:lcidtoname_downlevel.obj
 0002:00008268       ??_C@_1M@DKHMKNJA@?$AAe?$AAs?$AA?9?$AAe?$AAc@ 000000018002b268     libucrt:lcidtoname_downlevel.obj
 0002:00008278       ??_C@_1M@GKGFPKAP@?$AAe?$AAs?$AA?9?$AAe?$AAs@ 000000018002b278     libucrt:lcidtoname_downlevel.obj
 0002:00008288       ??_C@_1M@LKHKGDLN@?$AAe?$AAs?$AA?9?$AAg?$AAt@ 000000018002b288     libucrt:lcidtoname_downlevel.obj
 0002:00008298       ??_C@_1M@HEIIGGJD@?$AAe?$AAs?$AA?9?$AAh?$AAn@ 000000018002b298     libucrt:lcidtoname_downlevel.obj
 0002:000082a8       ??_C@_1M@FBDHPPGD@?$AAe?$AAs?$AA?9?$AAm?$AAx@ 000000018002b2a8     libucrt:lcidtoname_downlevel.obj
 0002:000082b8       ??_C@_1M@DPAGLNDH@?$AAe?$AAs?$AA?9?$AAn?$AAi@ 000000018002b2b8     libucrt:lcidtoname_downlevel.obj
 0002:000082c8       ??_C@_1M@MDGOPGDD@?$AAe?$AAs?$AA?9?$AAp?$AAa@ 000000018002b2c8     libucrt:lcidtoname_downlevel.obj
 0002:000082d8       ??_C@_1M@EMAMGBGE@?$AAe?$AAs?$AA?9?$AAp?$AAe@ 000000018002b2d8     libucrt:lcidtoname_downlevel.obj
 0002:000082e8       ??_C@_1M@IBMCAOEC@?$AAe?$AAs?$AA?9?$AAp?$AAr@ 000000018002b2e8     libucrt:lcidtoname_downlevel.obj
 0002:000082f8       ??_C@_1M@FGMDIJED@?$AAe?$AAs?$AA?9?$AAp?$AAy@ 000000018002b2f8     libucrt:lcidtoname_downlevel.obj
 0002:00008308       ??_C@_1M@IIDEOLLL@?$AAe?$AAs?$AA?9?$AAs?$AAv@ 000000018002b308     libucrt:lcidtoname_downlevel.obj
 0002:00008318       ??_C@_1M@GAOBIPA@?$AAe?$AAs?$AA?9?$AAu?$AAy@ 000000018002b318     libucrt:lcidtoname_downlevel.obj
 0002:00008328       ??_C@_1M@JKFFICHJ@?$AAe?$AAs?$AA?9?$AAv?$AAe@ 000000018002b328     libucrt:lcidtoname_downlevel.obj
 0002:00008338       ??_C@_1M@PNMLOJDF@?$AAe?$AAt?$AA?9?$AAe?$AAe@ 000000018002b338     libucrt:lcidtoname_downlevel.obj
 0002:00008348       ??_C@_1M@GHHLIKEI@?$AAe?$AAu?$AA?9?$AAe?$AAs@ 000000018002b348     libucrt:lcidtoname_downlevel.obj
 0002:00008358       ??_C@_1M@PBNONODE@?$AAf?$AAa?$AA?9?$AAi?$AAr@ 000000018002b358     libucrt:lcidtoname_downlevel.obj
 0002:00008368       ??_C@_1M@JEEHPMIL@?$AAf?$AAi?$AA?9?$AAf?$AAi@ 000000018002b368     libucrt:lcidtoname_downlevel.obj
 0002:00008378       ??_C@_1M@LMDCNDBA@?$AAf?$AAo?$AA?9?$AAf?$AAo@ 000000018002b378     libucrt:lcidtoname_downlevel.obj
 0002:00008388       ??_C@_1M@JKEOHLDK@?$AAf?$AAr?$AA?9?$AAb?$AAe@ 000000018002b388     libucrt:lcidtoname_downlevel.obj
 0002:00008398       ??_C@_1M@NOHADPMI@?$AAf?$AAr?$AA?9?$AAc?$AAa@ 000000018002b398     libucrt:lcidtoname_downlevel.obj
 0002:000083a8       ??_C@_1M@KDHIHAEC@?$AAf?$AAr?$AA?9?$AAc?$AAh@ 000000018002b3a8     libucrt:lcidtoname_downlevel.obj
 0002:000083b8       ??_C@_1M@MMBBFGAK@?$AAf?$AAr?$AA?9?$AAf?$AAr@ 000000018002b3b8     libucrt:lcidtoname_downlevel.obj
 0002:000083c8       ??_C@_1M@PAFNENNF@?$AAf?$AAr?$AA?9?$AAl?$AAu@ 000000018002b3c8     libucrt:lcidtoname_downlevel.obj
 0002:000083d8       ??_C@_1M@EOHDJGDD@?$AAf?$AAr?$AA?9?$AAm?$AAc@ 000000018002b3d8     libucrt:lcidtoname_downlevel.obj
 0002:000083e8       ??_C@_1M@FAPLLOPF@?$AAg?$AAl?$AA?9?$AAe?$AAs@ 000000018002b3e8     libucrt:lcidtoname_downlevel.obj
 0002:000083f8       ??_C@_1M@FOPBFLOO@?$AAg?$AAu?$AA?9?$AAi?$AAn@ 000000018002b3f8     libucrt:lcidtoname_downlevel.obj
 0002:00008408       ??_C@_1M@KBMCINPM@?$AAh?$AAe?$AA?9?$AAi?$AAl@ 000000018002b408     libucrt:lcidtoname_downlevel.obj
 0002:00008418       ??_C@_1M@BBPHKFPJ@?$AAh?$AAi?$AA?9?$AAi?$AAn@ 000000018002b418     libucrt:lcidtoname_downlevel.obj
 0002:00008428       ??_C@_1M@PMBNDPHD@?$AAh?$AAr?$AA?9?$AAb?$AAa@ 000000018002b428     libucrt:lcidtoname_downlevel.obj
 0002:00008438       ??_C@_1M@BPCKOEGE@?$AAh?$AAr?$AA?9?$AAh?$AAr@ 000000018002b438     libucrt:lcidtoname_downlevel.obj
 0002:00008448       ??_C@_1M@GACBMHKE@?$AAh?$AAu?$AA?9?$AAh?$AAu@ 000000018002b448     libucrt:lcidtoname_downlevel.obj
 0002:00008458       ??_C@_1M@MILPAJJC@?$AAh?$AAy?$AA?9?$AAa?$AAm@ 000000018002b458     libucrt:lcidtoname_downlevel.obj
 0002:00008468       ??_C@_1M@BABBICEC@?$AAi?$AAd?$AA?9?$AAi?$AAd@ 000000018002b468     libucrt:lcidtoname_downlevel.obj
 0002:00008478       ??_C@_1M@BIKNHHPF@?$AAi?$AAs?$AA?9?$AAi?$AAs@ 000000018002b478     libucrt:lcidtoname_downlevel.obj
 0002:00008488       ??_C@_1M@NMPCJPHE@?$AAi?$AAt?$AA?9?$AAc?$AAh@ 000000018002b488     libucrt:lcidtoname_downlevel.obj
 0002:00008498       ??_C@_1M@GHKGFEDF@?$AAi?$AAt?$AA?9?$AAi?$AAt@ 000000018002b498     libucrt:lcidtoname_downlevel.obj
 0002:000084a8       ??_C@_1M@NIEJCJJA@?$AAj?$AAa?$AA?9?$AAj?$AAp@ 000000018002b4a8     libucrt:lcidtoname_downlevel.obj
 0002:000084b8       ??_C@_1M@JILFNBIM@?$AAk?$AAa?$AA?9?$AAg?$AAe@ 000000018002b4b8     libucrt:lcidtoname_downlevel.obj
 0002:000084c8       ??_C@_1M@PACPMGPH@?$AAk?$AAk?$AA?9?$AAk?$AAz@ 000000018002b4c8     libucrt:lcidtoname_downlevel.obj
 0002:000084d8       ??_C@_1M@IELFGMHA@?$AAk?$AAn?$AA?9?$AAi?$AAn@ 000000018002b4d8     libucrt:lcidtoname_downlevel.obj
 0002:000084e8       ??_C@_1O@IBBJHCH@?$AAk?$AAo?$AAk?$AA?9?$AAi?$AAn@ 000000018002b4e8     libucrt:lcidtoname_downlevel.obj
 0002:000084f8       ??_C@_1M@DMHAEOGC@?$AAk?$AAo?$AA?9?$AAk?$AAr@ 000000018002b4f8     libucrt:lcidtoname_downlevel.obj
 0002:00008508       ??_C@_1M@HBAHBIGA@?$AAk?$AAy?$AA?9?$AAk?$AAg@ 000000018002b508     libucrt:lcidtoname_downlevel.obj
 0002:00008518       ??_C@_1M@KPMILCJG@?$AAl?$AAt?$AA?9?$AAl?$AAt@ 000000018002b518     libucrt:lcidtoname_downlevel.obj
 0002:00008528       ??_C@_1M@BDEKKCA@?$AAl?$AAv?$AA?9?$AAl?$AAv@ 000000018002b528     libucrt:lcidtoname_downlevel.obj
 0002:00008538       ??_C@_1M@ELCKCCJJ@?$AAm?$AAi?$AA?9?$AAn?$AAz@ 000000018002b538     libucrt:lcidtoname_downlevel.obj
 0002:00008548       ??_C@_1M@CBOOLAPA@?$AAm?$AAk?$AA?9?$AAm?$AAk@ 000000018002b548     libucrt:lcidtoname_downlevel.obj
 0002:00008558       ??_C@_1M@GPHNBJKN@?$AAm?$AAl?$AA?9?$AAi?$AAn@ 000000018002b558     libucrt:lcidtoname_downlevel.obj
 0002:00008568       ??_C@_1M@PABJILIG@?$AAm?$AAn?$AA?9?$AAm?$AAn@ 000000018002b568     libucrt:lcidtoname_downlevel.obj
 0002:00008578       ??_C@_1M@FGBKKIPG@?$AAm?$AAr?$AA?9?$AAi?$AAn@ 000000018002b578     libucrt:lcidtoname_downlevel.obj
 0002:00008588       ??_C@_1M@NDBPDDAL@?$AAm?$AAs?$AA?9?$AAb?$AAn@ 000000018002b588     libucrt:lcidtoname_downlevel.obj
 0002:00008598       ??_C@_1M@OPIHOOPI@?$AAm?$AAs?$AA?9?$AAm?$AAy@ 000000018002b598     libucrt:lcidtoname_downlevel.obj
 0002:000085a8       ??_C@_1M@PPDBCNFM@?$AAm?$AAt?$AA?9?$AAm?$AAt@ 000000018002b5a8     libucrt:lcidtoname_downlevel.obj
 0002:000085b8       ??_C@_1M@KDJDKMDD@?$AAn?$AAb?$AA?9?$AAn?$AAo@ 000000018002b5b8     libucrt:lcidtoname_downlevel.obj
 0002:000085c8       ??_C@_1M@KFCFLMJP@?$AAn?$AAl?$AA?9?$AAb?$AAe@ 000000018002b5c8     libucrt:lcidtoname_downlevel.obj
 0002:000085d8       ??_C@_1M@KPOPDDGO@?$AAn?$AAl?$AA?9?$AAn?$AAl@ 000000018002b5d8     libucrt:lcidtoname_downlevel.obj
 0002:000085e8       ??_C@_1M@LJKPEMLN@?$AAn?$AAn?$AA?9?$AAn?$AAo@ 000000018002b5e8     libucrt:lcidtoname_downlevel.obj
 0002:000085f8       ??_C@_1M@BDGHHBFL@?$AAn?$AAs?$AA?9?$AAz?$AAa@ 000000018002b5f8     libucrt:lcidtoname_downlevel.obj
 0002:00008608       ??_C@_1M@IDEHOAP@?$AAp?$AAa?$AA?9?$AAi?$AAn@ 000000018002b608     libucrt:lcidtoname_downlevel.obj
 0002:00008618       ??_C@_1M@HDBKGOGH@?$AAp?$AAl?$AA?9?$AAp?$AAl@ 000000018002b618     libucrt:lcidtoname_downlevel.obj
 0002:00008628       ??_C@_1M@LJLLCMEH@?$AAp?$AAt?$AA?9?$AAb?$AAr@ 000000018002b628     libucrt:lcidtoname_downlevel.obj
 0002:00008638       ??_C@_1M@NCMONAAL@?$AAp?$AAt?$AA?9?$AAp?$AAt@ 000000018002b638     libucrt:lcidtoname_downlevel.obj
 0002:00008648       ??_C@_1O@EAKMAJDN@?$AAq?$AAu?$AAz?$AA?9?$AAb?$AAo@ 000000018002b648     libucrt:lcidtoname_downlevel.obj
 0002:00008658       ??_C@_1O@BHHPIGDN@?$AAq?$AAu?$AAz?$AA?9?$AAe?$AAc@ 000000018002b658     libucrt:lcidtoname_downlevel.obj
 0002:00008668       ??_C@_1O@GBAPEKMJ@?$AAq?$AAu?$AAz?$AA?9?$AAp?$AAe@ 000000018002b668     libucrt:lcidtoname_downlevel.obj
 0002:00008678       ??_C@_1M@CLGLEFBO@?$AAr?$AAo?$AA?9?$AAr?$AAo@ 000000018002b678     libucrt:lcidtoname_downlevel.obj
 0002:00008688       ??_C@_1M@CEEDODME@?$AAr?$AAu?$AA?9?$AAr?$AAu@ 000000018002b688     libucrt:lcidtoname_downlevel.obj
 0002:00008698       ??_C@_1M@HPKKKMPP@?$AAs?$AAa?$AA?9?$AAi?$AAn@ 000000018002b698     libucrt:lcidtoname_downlevel.obj
 0002:000086a8       ??_C@_1M@BKMAIGOJ@?$AAs?$AAe?$AA?9?$AAf?$AAi@ 000000018002b6a8     libucrt:lcidtoname_downlevel.obj
 0002:000086b8       ??_C@_1M@NDPIFLFI@?$AAs?$AAe?$AA?9?$AAn?$AAo@ 000000018002b6b8     libucrt:lcidtoname_downlevel.obj
 0002:000086c8       ??_C@_1M@DANKKHJ@?$AAs?$AAe?$AA?9?$AAs?$AAe@ 000000018002b6c8     libucrt:lcidtoname_downlevel.obj
 0002:000086d8       ??_C@_1M@PNBLONPJ@?$AAs?$AAk?$AA?9?$AAs?$AAk@ 000000018002b6d8     libucrt:lcidtoname_downlevel.obj
 0002:000086e8       ??_C@_1M@LFMODOAL@?$AAs?$AAl?$AA?9?$AAs?$AAi@ 000000018002b6e8     libucrt:lcidtoname_downlevel.obj
 0002:000086f8       ??_C@_1O@DFKOMPG@?$AAs?$AAm?$AAa?$AA?9?$AAn?$AAo@ 000000018002b6f8     libucrt:lcidtoname_downlevel.obj
 0002:00008708       ??_C@_1O@NDKPBNNH@?$AAs?$AAm?$AAa?$AA?9?$AAs?$AAe@ 000000018002b708     libucrt:lcidtoname_downlevel.obj
 0002:00008718       ??_C@_1O@PLLKBHAB@?$AAs?$AAm?$AAj?$AA?9?$AAn?$AAo@ 000000018002b718     libucrt:lcidtoname_downlevel.obj
 0002:00008728       ??_C@_1O@CLEPOGCA@?$AAs?$AAm?$AAj?$AA?9?$AAs?$AAe@ 000000018002b728     libucrt:lcidtoname_downlevel.obj
 0002:00008738       ??_C@_1O@DLGJGKMK@?$AAs?$AAm?$AAn?$AA?9?$AAf?$AAi@ 000000018002b738     libucrt:lcidtoname_downlevel.obj
 0002:00008748       ??_C@_1O@OJDJGAJC@?$AAs?$AAm?$AAs?$AA?9?$AAf?$AAi@ 000000018002b748     libucrt:lcidtoname_downlevel.obj
 0002:00008758       ??_C@_1M@BOFOGHPB@?$AAs?$AAq?$AA?9?$AAa?$AAl@ 000000018002b758     libucrt:lcidtoname_downlevel.obj
 0002:00008768       ??_C@_1BG@LJBBIPGB@?$AAs?$AAr?$AA?9?$AAb?$AAa?$AA?9?$AAc?$AAy?$AAr?$AAl@ 000000018002b768     libucrt:lcidtoname_downlevel.obj
 0002:00008780       ??_C@_1BG@JLBENFOE@?$AAs?$AAr?$AA?9?$AAb?$AAa?$AA?9?$AAl?$AAa?$AAt?$AAn@ 000000018002b780     libucrt:lcidtoname_downlevel.obj
 0002:00008798       ??_C@_1BG@KODPNHE@?$AAs?$AAr?$AA?9?$AAs?$AAp?$AA?9?$AAc?$AAy?$AAr?$AAl@ 000000018002b798     libucrt:lcidtoname_downlevel.obj
 0002:000087b0       ??_C@_1BG@CIOGKHPB@?$AAs?$AAr?$AA?9?$AAs?$AAp?$AA?9?$AAl?$AAa?$AAt?$AAn@ 000000018002b7b0     libucrt:lcidtoname_downlevel.obj
 0002:000087c8       ??_C@_1M@NGFJLMAC@?$AAs?$AAv?$AA?9?$AAf?$AAi@ 000000018002b7c8     libucrt:lcidtoname_downlevel.obj
 0002:000087d8       ??_C@_1M@MPJEJAJC@?$AAs?$AAv?$AA?9?$AAs?$AAe@ 000000018002b7d8     libucrt:lcidtoname_downlevel.obj
 0002:000087e8       ??_C@_1M@MPNDHLFK@?$AAs?$AAw?$AA?9?$AAk?$AAe@ 000000018002b7e8     libucrt:lcidtoname_downlevel.obj
 0002:000087f8       ??_C@_1O@KOHBJJI@?$AAs?$AAy?$AAr?$AA?9?$AAs?$AAy@ 000000018002b7f8     libucrt:lcidtoname_downlevel.obj
 0002:00008808       ??_C@_1M@LDCEFHA@?$AAt?$AAa?$AA?9?$AAi?$AAn@ 000000018002b808     libucrt:lcidtoname_downlevel.obj
 0002:00008818       ??_C@_1M@CNJOFAK@?$AAt?$AAe?$AA?9?$AAi?$AAn@ 000000018002b818     libucrt:lcidtoname_downlevel.obj
 0002:00008828       ??_C@_1M@GNAECACD@?$AAt?$AAh?$AA?9?$AAt?$AAh@ 000000018002b828     libucrt:lcidtoname_downlevel.obj
 0002:00008838       ??_C@_1M@CHBIHOJO@?$AAt?$AAn?$AA?9?$AAz?$AAa@ 000000018002b838     libucrt:lcidtoname_downlevel.obj
 0002:00008848       ??_C@_1M@GCCMIGPJ@?$AAt?$AAr?$AA?9?$AAt?$AAr@ 000000018002b848     libucrt:lcidtoname_downlevel.obj
 0002:00008858       ??_C@_1M@CELMCNBK@?$AAt?$AAt?$AA?9?$AAr?$AAu@ 000000018002b858     libucrt:lcidtoname_downlevel.obj
 0002:00008868       ??_C@_1M@KLMCELGA@?$AAu?$AAk?$AA?9?$AAu?$AAa@ 000000018002b868     libucrt:lcidtoname_downlevel.obj
 0002:00008878       ??_C@_1M@EPAJJAJF@?$AAu?$AAr?$AA?9?$AAp?$AAk@ 000000018002b878     libucrt:lcidtoname_downlevel.obj
 0002:00008888       ??_C@_1BG@GEGPMCDJ@?$AAu?$AAz?$AA?9?$AAu?$AAz?$AA?9?$AAc?$AAy?$AAr?$AAl@ 000000018002b888     libucrt:lcidtoname_downlevel.obj
 0002:000088a0       ??_C@_1BG@EGGKJILM@?$AAu?$AAz?$AA?9?$AAu?$AAz?$AA?9?$AAl?$AAa?$AAt?$AAn@ 000000018002b8a0     libucrt:lcidtoname_downlevel.obj
 0002:000088b8       ??_C@_1M@GFOCLFF@?$AAv?$AAi?$AA?9?$AAv?$AAn@ 000000018002b8b8     libucrt:lcidtoname_downlevel.obj
 0002:000088c8       ??_C@_1M@CPAMEDFI@?$AAx?$AAh?$AA?9?$AAz?$AAa@ 000000018002b8c8     libucrt:lcidtoname_downlevel.obj
 0002:000088d8       ??_C@_1O@EBKIFIGN@?$AAz?$AAh?$AA?9?$AAc?$AAh?$AAs@ 000000018002b8d8     libucrt:lcidtoname_downlevel.obj
 0002:000088e8       ??_C@_1O@NMHPGANE@?$AAz?$AAh?$AA?9?$AAc?$AAh?$AAt@ 000000018002b8e8     libucrt:lcidtoname_downlevel.obj
 0002:000088f8       ??_C@_1M@LPINJOMC@?$AAz?$AAh?$AA?9?$AAc?$AAn@ 000000018002b8f8     libucrt:lcidtoname_downlevel.obj
 0002:00008908       ??_C@_1M@OCJEJODD@?$AAz?$AAh?$AA?9?$AAh?$AAk@ 000000018002b908     libucrt:lcidtoname_downlevel.obj
 0002:00008918       ??_C@_1M@DNDLJINH@?$AAz?$AAh?$AA?9?$AAm?$AAo@ 000000018002b918     libucrt:lcidtoname_downlevel.obj
 0002:00008928       ??_C@_1M@MBFDNDND@?$AAz?$AAh?$AA?9?$AAs?$AAg@ 000000018002b928     libucrt:lcidtoname_downlevel.obj
 0002:00008938       ??_C@_1M@IMEPLEPE@?$AAz?$AAh?$AA?9?$AAt?$AAw@ 000000018002b938     libucrt:lcidtoname_downlevel.obj
 0002:00008948       ??_C@_1M@BBGHNHJP@?$AAz?$AAu?$AA?9?$AAz?$AAa@ 000000018002b948     libucrt:lcidtoname_downlevel.obj
 0002:00008960       ?large_power_data@?1??multiply_by_power_of_ten@__crt_strtox@@YA_NAEAUbig_integer@2@I@Z@4QBIB 000000018002b960     libucrt:cfout.obj
 0002:00009270       ?large_power_indices@?1??multiply_by_power_of_ten@__crt_strtox@@YA_NAEAUbig_integer@2@I@Z@4QBUunpack_index@?1??12@YA_N0I@Z@B 000000018002c270     libucrt:cfout.obj
 0002:00009308       ?small_powers_of_ten@?1??multiply_by_power_of_ten@__crt_strtox@@YA_NAEAUbig_integer@2@I@Z@4QBIB 000000018002c308     libucrt:cfout.obj
 0002:0000932c       ??_C@_01GBGANLPD@0@        000000018002c32c     libucrt:cfout.obj
 0002:00009330       ??_C@_05DNEBIAHO@1?$CDINF@ 000000018002c330     libucrt:cfout.obj
 0002:00009338       ??_C@_06IMKFLFPG@1?$CDQNAN@ 000000018002c338     libucrt:cfout.obj
 0002:00009340       ??_C@_06PGGFOGJG@1?$CDSNAN@ 000000018002c340     libucrt:cfout.obj
 0002:00009348       ??_C@_05PHHOCPM@1?$CDIND@  000000018002c348     libucrt:cfout.obj
 0002:00009350       __real@3ff0000000000000    000000018002c350     libucrt:ceil.obj
 0002:000095b0       __log10_256_lead           000000018002c5b0     libucrt:log10_256_lead_tail_table.obj
 0002:00009dc0       __log10_256_tail           000000018002cdc0     libucrt:log10_256_lead_tail_table.obj
 0002:0000a5d0       __log_F_inv_qword          000000018002d5d0     libucrt:log_f_inv_qword_table.obj
 0002:0000ade0       ??_C@_05HGHHAHAP@log10@    000000018002dde0     libucrt:log_special.obj
 0002:0000ade8       ??_C@_1BA@BALFACEM@?$AAC?$AAO?$AAN?$AAO?$AAU?$AAT?$AA$@ 000000018002dde8     libucrt:initcon.obj
 0002:0000ae70       _load_config_used          000000018002de70     LIBCMT:loadcfg.obj
 0002:0000b000       _tls_used                  000000018002e000     LIBCMT:tlssup.obj
 0002:0000b028       ??_R4exception@std@@6B@    000000018002e028     LIBCMT:throw_bad_alloc.obj
 0002:0000b050       ??_R3exception@std@@8      000000018002e050     LIBCMT:throw_bad_alloc.obj
 0002:0000b068       ??_R2exception@std@@8      000000018002e068     LIBCMT:throw_bad_alloc.obj
 0002:0000b078       ??_R1A@?0A@EA@exception@std@@8 000000018002e078     LIBCMT:throw_bad_alloc.obj
 0002:0000b0a0       ??_R4bad_alloc@std@@6B@    000000018002e0a0     LIBCMT:throw_bad_alloc.obj
 0002:0000b0c8       ??_R3bad_alloc@std@@8      000000018002e0c8     LIBCMT:throw_bad_alloc.obj
 0002:0000b0e0       ??_R2bad_alloc@std@@8      000000018002e0e0     LIBCMT:throw_bad_alloc.obj
 0002:0000b0f8       ??_R1A@?0A@EA@bad_alloc@std@@8 000000018002e0f8     LIBCMT:throw_bad_alloc.obj
 0002:0000b120       ??_R4bad_array_new_length@std@@6B@ 000000018002e120     LIBCMT:throw_bad_alloc.obj
 0002:0000b148       ??_R3bad_array_new_length@std@@8 000000018002e148     LIBCMT:throw_bad_alloc.obj
 0002:0000b160       ??_R2bad_array_new_length@std@@8 000000018002e160     LIBCMT:throw_bad_alloc.obj
 0002:0000b180       ??_R1A@?0A@EA@bad_array_new_length@std@@8 000000018002e180     LIBCMT:throw_bad_alloc.obj
 0002:0000b1a8       ??_R4type_info@@6B@        000000018002e1a8     LIBCMT:std_type_info_static.obj
 0002:0000b1d0       ??_R3type_info@@8          000000018002e1d0     LIBCMT:std_type_info_static.obj
 0002:0000b1e8       ??_R2type_info@@8          000000018002e1e8     LIBCMT:std_type_info_static.obj
 0002:0000b1f8       ??_R1A@?0A@EA@type_info@@8 000000018002e1f8     LIBCMT:std_type_info_static.obj
 0002:0000b220       ??_R4bad_exception@std@@6B@ 000000018002e220     libvcruntime:frame.obj
 0002:0000b248       ??_R3bad_exception@std@@8  000000018002e248     libvcruntime:frame.obj
 0002:0000b260       ??_R2bad_exception@std@@8  000000018002e260     libvcruntime:frame.obj
 0002:0000b278       ??_R1A@?0A@EA@bad_exception@std@@8 000000018002e278     libvcruntime:frame.obj
 0002:0000b6a8       __rtc_iaa                  000000018002e6a8     LIBCMT:initsect.obj
 0002:0000b6b0       __rtc_izz                  000000018002e6b0     LIBCMT:initsect.obj
 0002:0000b6b8       __rtc_taa                  000000018002e6b8     LIBCMT:initsect.obj
 0002:0000b6c0       __rtc_tzz                  000000018002e6c0     LIBCMT:initsect.obj
 0002:0000b6c8       _tls_start                 000000018002e6c8     LIBCMT:tlssup.obj
 0002:0000b6cc       _Init_thread_epoch         000000018002e6cc     LIBCMT:thread_safe_statics.obj
 0002:0000b6d0       _tls_end                   000000018002e6d0     LIBCMT:tlssup.obj
 0002:0000cd88       _TI2?AVbad_alloc@std@@     000000018002fd88     LIBCMT:throw_bad_alloc.obj
 0002:0000cda8       _CTA2?AVbad_alloc@std@@    000000018002fda8     LIBCMT:throw_bad_alloc.obj
 0002:0000cdc0       _CT??_R0?AVbad_alloc@std@@@8??0bad_alloc@std@@QEAA@AEBV01@@Z24 000000018002fdc0     LIBCMT:throw_bad_alloc.obj
 0002:0000cde8       _CT??_R0?AVexception@std@@@8??0exception@std@@QEAA@AEBV01@@Z24 000000018002fde8     LIBCMT:throw_bad_alloc.obj
 0002:0000ce10       _TI3?AVbad_array_new_length@std@@ 000000018002fe10     LIBCMT:throw_bad_alloc.obj
 0002:0000ce30       _CTA3?AVbad_array_new_length@std@@ 000000018002fe30     LIBCMT:throw_bad_alloc.obj
 0002:0000ce50       _CT??_R0?AVbad_array_new_length@std@@@8??0bad_array_new_length@std@@QEAA@AEBV01@@Z24 000000018002fe50     LIBCMT:throw_bad_alloc.obj
 0002:0000ce78       _TI2?AVbad_exception@std@@ 000000018002fe78     libvcruntime:frame.obj
 0002:0000ce98       _CTA2?AVbad_exception@std@@ 000000018002fe98     libvcruntime:frame.obj
 0002:0000ceb0       _CT??_R0?AVbad_exception@std@@@8??0bad_exception@std@@QEAA@AEBV01@@Z24 000000018002feb0     libvcruntime:frame.obj
 0002:0000ced8       __pobjMapEntryFirst        000000018002fed8     OposVariant.obj
 0002:0000cee0       __pobjMapEntryLast         000000018002fee0     OposVariant.obj
 0002:0000cfa0       __IMPORT_DESCRIPTOR_KERNEL32 000000018002ffa0     kernel32:KERNEL32.dll
 0002:0000cfb4       __IMPORT_DESCRIPTOR_USER32 000000018002ffb4     user32:USER32.dll
 0002:0000cfc8       __IMPORT_DESCRIPTOR_GDI32  000000018002ffc8     gdi32:GDI32.dll
 0002:0000cfdc       __IMPORT_DESCRIPTOR_ADVAPI32 000000018002ffdc     advapi32:ADVAPI32.dll
 0002:0000cff0       __IMPORT_DESCRIPTOR_ole32  000000018002fff0     ole32:ole32.dll
 0002:0000d004       __IMPORT_DESCRIPTOR_OLEAUT32 0000000180030004     oleaut32:OLEAUT32.dll
 0002:0000d018       __NULL_IMPORT_DESCRIPTOR   0000000180030018     kernel32:KERNEL32.dll
 0003:00000000       ?s_Claim@?7??GetIDsOfNames@CComTypeInfoHolder@ATL@@QEAAJAEBU_GUID@@PEAPEA_WIKPEAJ@Z@4PA_WA 0000000180032000     ToneIndicator.obj
 0003:00000018       ?s_Release@?7??GetIDsOfNames@CComTypeInfoHolder@ATL@@QEAAJAEBU_GUID@@PEAPEA_WIKPEAJ@Z@4PA_WA 0000000180032018     ToneIndicator.obj
 0003:00000038       ?_tih@?$IDispatchImpl@UIOPOSToneIndicator@@$1?IID_IOPOSToneIndicator@@3U_GUID@@B$1?LIBID_OposToneIndicator_CCO@@3U3@B$00$0A@VCComTypeInfoHolder@ATL@@@ATL@@1VCComTypeInfoHolder@2@A 0000000180032038     ToneIndicator.obj
 0003:00000070       ?_tih@?$IProvideClassInfo2Impl@$1?CLSID_OPOSToneIndicator@@3U_GUID@@B$1?DIID__IOPOSToneIndicatorEvents@@3U2@B$1?LIBID_OposToneIndicator_CCO@@3U2@B$00$0A@VCComTypeInfoHolder@ATL@@@ATL@@1VCComTypeInfoHolder@2@A 0000000180032070     ToneIndicator.obj
 0003:000000a8       ?vszContents@?6??Save@?$IPersistStorageImpl@VCOPOSToneIndicator@@@ATL@@UEAAJPEAUIStorage@@H@Z@4PEB_WEB 00000001800320a8     ToneIndicator.obj
 0003:000000b0       ?wc@?1??GetWndClassInfo@?$CWindowImpl@VCOPOSToneIndicator@@VCWindow@ATL@@V?$CWinTraits@$0FGAAAAAA@$0A@@3@@ATL@@SAAEAU_ATL_WNDCLASSINFOW@3@XZ@4U43@A 00000001800320b0     ToneIndicator.obj
 0003:000001a8       ?rcDefault@CWindow@ATL@@2UtagRECT@@A 00000001800321a8     ToneIndicator.obj
 0003:00000250       ?g_WindowName@@3PA_WA      0000000180032250     ToneIndicatorImpl.obj
 0003:00000280       ?g_ControlDescription@@3PADA 0000000180032280     ToneIndicatorImpl.obj
 0003:000002d0       ?g_ControlVersion@@3JA     00000001800322d0     ToneIndicatorImpl.obj
 0003:000003b0       __scrt_native_dllmain_reason 00000001800323b0     LIBCMT:utility.obj
 0003:000003b4       _Init_global_epoch         00000001800323b4     LIBCMT:thread_safe_statics.obj
 0003:000003c0       __security_cookie_complement 00000001800323c0     LIBCMT:gs_cookie.obj
 0003:000003c8       __security_cookie          00000001800323c8     LIBCMT:gs_cookie.obj
 0003:000003d0       __isa_available            00000001800323d0     LIBCMT:cpu_disp.obj
 0003:000003d4       __isa_enabled              00000001800323d4     LIBCMT:cpu_disp.obj
 0003:000003d8       __memcpy_nt_iters          00000001800323d8     LIBCMT:cpu_disp.obj
 0003:000003e0       __memset_nt_iters          00000001800323e0     LIBCMT:cpu_disp.obj
 0003:00000408       __abort_behavior           0000000180032408     libucrt:abort.obj
 0003:00000420       _iob                       0000000180032420     libucrt:_file.obj
 0003:00000530       __acrt_initial_locale_data 0000000180032530     libucrt:nlsdata.obj
 0003:00000688       __acrt_initial_locale_pointers 0000000180032688     libucrt:nlsdata.obj
 0003:00000698       __acrt_wide_c_locale_string 0000000180032698     libucrt:nlsdata.obj
 0003:000006a0       __acrt_initial_multibyte_data 00000001800326a0     libucrt:mbctype.obj
 0003:00000be0       _pwctype                   0000000180032be0     libucrt:ctype.obj
 0003:00000be8       __globallocalestatus       0000000180032be8     libucrt:glstatus.obj
 0003:00000bf0       __acrt_lconv_c             0000000180032bf0     libucrt:localeconv.obj
 0003:00000c88       __acrt_lconv_static_decimal 0000000180032c88     libucrt:localeconv.obj
 0003:00000c8c       __acrt_lconv_static_W_decimal 0000000180032c8c     libucrt:localeconv.obj
 0003:00000c90       _lookuptrailbytes          0000000180032c90     libucrt:read.obj
 0003:00000db4       _fltused                   0000000180032db4     LIBCMT:fltused.obj
 0003:00000db8       ??_R0?AVbad_alloc@std@@@8  0000000180032db8     LIBCMT:throw_bad_alloc.obj
 0003:00000de0       ??_R0?AVexception@std@@@8  0000000180032de0     LIBCMT:throw_bad_alloc.obj
 0003:00000e08       ??_R0?AVbad_array_new_length@std@@@8 0000000180032e08     LIBCMT:throw_bad_alloc.obj
 0003:00000e38       ??_R0?AVtype_info@@@8      0000000180032e38     LIBCMT:std_type_info_static.obj
 0003:00000e58       ??_R0?AVbad_exception@std@@@8 0000000180032e58     libvcruntime:frame.obj
 0003:00000e80       ?_pPerfRegFunc@ATL@@3P6AJPEAUHINSTANCE__@@@ZEA 0000000180032e80     OposVariant.obj
 0003:00000e88       ?_pPerfUnRegFunc@ATL@@3P6AJXZEA 0000000180032e88     OposVariant.obj
 0003:00000e90       ?_AtlRegisterPerUser@ATL@@3_NA 0000000180032e90     OposVariant.obj
 0003:00000e98       ?_pAtlModule@ATL@@3PEAVCAtlModule@1@EA 0000000180032e98     OposVariant.obj
 0003:00000ea0       ?_pModule@ATL@@3PEAVCComModule@1@EA 0000000180032ea0     OposVariant.obj
 0003:00000ea8       ?m_bInitFailed@CAtlBaseModule@ATL@@2_NA 0000000180032ea8     OposVariant.obj
 0003:00000eb0       ?_AtlComModule@ATL@@3VCAtlComModule@1@A 0000000180032eb0     OposVariant.obj
 0003:00000f00       ?_AtlWinModule@ATL@@3VCAtlWinModule@1@A 0000000180032f00     OposVariant.obj
 0003:00000f48       ?m_libid@CAtlModule@ATL@@2U_GUID@@A 0000000180032f48     ToneIndicator.obj
 0003:00000f58       ?_entries@?1??GetConnMap@COPOSToneIndicator@@SAPEBU_ATL_CONNMAP_ENTRY@ATL@@PEAH@Z@4QBU34@B 0000000180032f58     ToneIndicator.obj
 0003:00000f70       ?$TSS0@?1??GetConnMap@COPOSToneIndicator@@SAPEBU_ATL_CONNMAP_ENTRY@ATL@@PEAH@Z@4HA 0000000180032f70     ToneIndicator.obj
 0003:00000f78       ?_OptionsStorage@?1??__local_stdio_printf_options@@9@4_KA 0000000180032f78     ToneIndicator.obj
 0003:00000f80       ?pfnRegDeleteKeyEx@?1??DeleteSubKey@CRegKey@ATL@@QEAAJPEB_W@Z@4P6AJPEAUHKEY__@@0KK@ZEA 0000000180032f80     ToneIndicator.obj
 0003:00000f88       ?bInitialized@?1??DeleteSubKey@CRegKey@ATL@@QEAAJPEB_W@Z@4_NA 0000000180032f88     ToneIndicator.obj
 0003:00000f90       ?_Module@@3VCComModule@ATL@@A 0000000180032f90     ToneIndicator.obj
 0003:00000fe0       ?pConnMap@?$IConnectionPointContainerImpl@VCOPOSToneIndicator@@@ATL@@0PEBU_ATL_CONNMAP_ENTRY@2@EB 0000000180032fe0     ToneIndicator.obj
 0003:00000fe8       ?s_nInstances@COPOSToneIndicator@@1HA 0000000180032fe8     ToneIndicatorImpl.obj
 0003:00000ff0       __scrt_current_native_startup_state 0000000180032ff0     LIBCMT:utility.obj
 0003:00000ff8       __scrt_native_startup_lock 0000000180032ff8     LIBCMT:utility.obj
 0003:000015f0       _tls_index                 00000001800335f0     LIBCMT:tlssup.obj
 0003:000015f8       __favor                    00000001800335f8     LIBCMT:cpu_disp.obj
 0003:000015fc       __scrt_debugger_hook_flag  00000001800335fc     LIBCMT:utility_desktop.obj
 0003:00001600       __castguard_check_failure_os_handled_fptr 0000000180033600     LIBCMT:guard_support.obj
 0003:00001610       ?__type_info_root_node@@3U__type_info_node@@A 0000000180033610     LIBCMT:tncleanup.obj
 0003:00001620       ?_OptionsStorage@?1??__local_stdio_scanf_options@@9@4_KA 0000000180033620     LIBCMT:default_local_stdio_options.obj
 0003:00001630       ?_AtlBaseModule@ATL@@3VCAtlBaseModule@1@A 0000000180033630     atls:atlbase.obj
 0003:00001690       ?__AtlThunkPool@@3PEAT_SLIST_HEADER@@EA 0000000180033690     atls:atlthunk.obj
 0003:000016bc       __@@_PchSym_@00@UztvmgUPdlipUGDUhUrmgvinvwrzgvUexgllohUzgohOmzgrevkilqPBACIAJCBDBUlyqiUznwGEUhgwzucOlyq@4B2008FD98C1DD4 00000001800336bc     atls:stdafx.obj
 0003:000016c0       ?__WinRTOutOfMemoryExceptionCallback@@3P6APEAXXZEA 00000001800336c0     libvcruntime:ehhelpers.obj
 0003:000016c8       __pPurecall                00000001800336c8     libvcruntime:purevirt_data.obj
 0003:00001780       ?pArgList@UnDecorator@@0PEAVReplicator@@EA 0000000180033780     libvcruntime:undname.obj
 0003:00001788       ?pZNameList@UnDecorator@@0PEAVReplicator@@EA 0000000180033788     libvcruntime:undname.obj
 0003:00001790       ?pTemplateArgList@UnDecorator@@0PEAVReplicator@@EA 0000000180033790     libvcruntime:undname.obj
 0003:00001798       ?gName@UnDecorator@@0PEBDEB 0000000180033798     libvcruntime:undname.obj
 0003:000017a0       ?name@UnDecorator@@0PEBDEB 00000001800337a0     libvcruntime:undname.obj
 0003:000017a8       ?disableFlags@UnDecorator@@0KA 00000001800337a8     libvcruntime:undname.obj
 0003:000017ac       ?fExplicitTemplateParams@UnDecorator@@0_NA 00000001800337ac     libvcruntime:undname.obj
 0003:000017ad       ?fGetTemplateArgumentList@UnDecorator@@0_NA 00000001800337ad     libvcruntime:undname.obj
 0003:000017b0       ?m_pGetParameter@UnDecorator@@0P6APEADJ@ZEA 00000001800337b0     libvcruntime:undname.obj
 0003:000017b8       ?m_CHPENameOffset@UnDecorator@@0KA 00000001800337b8     libvcruntime:undname.obj
 0003:000017bc       ?m_recursionLevel@UnDecorator@@0KA 00000001800337bc     libvcruntime:undname.obj
 0003:00001840       ?c_exit_complete@?1???R<lambda_6e4b09c48022b2350581041d5f6b0c4c>@@QEBA@XZ@4_NA 0000000180033840     libucrt:exit.obj
 0003:00001958       _environ_table             0000000180033958     libucrt:environment_initialization.obj
 0003:00001960       _wenviron_table            0000000180033960     libucrt:environment_initialization.obj
 0003:00001968       __dcrt_initial_wide_environment 0000000180033968     libucrt:environment_initialization.obj
 0003:00001970       __dcrt_initial_narrow_environment 0000000180033970     libucrt:environment_initialization.obj
 0003:00001978       __acrt_atexit_table        0000000180033978     libucrt:onexit.obj
 0003:00001990       __acrt_at_quick_exit_table 0000000180033990     libucrt:onexit.obj
 0003:00001b68       _nstream                   0000000180033b68     libucrt:_file.obj
 0003:00001b70       __piob                     0000000180033b70     libucrt:_file.obj
 0003:00001b80       __acrt_stdout_buffer       0000000180033b80     libucrt:_sftbuf.obj
 0003:00001b88       __acrt_stderr_buffer       0000000180033b88     libucrt:_sftbuf.obj
 0003:00001b90       __acrt_locale_changed_data 0000000180033b90     libucrt:wsetlocale.obj
 0003:00001b98       __acrt_current_locale_data 0000000180033b98     libucrt:nlsdata.obj
 0003:00001ba0       __pioinfo                  0000000180033ba0     libucrt:ioinit.obj
 0003:00001fa0       _nhandle                   0000000180033fa0     libucrt:ioinit.obj
 0003:000021e8       _mbctype                   00000001800341e8     libucrt:mbctype.obj
 0003:000021f0       _mbcasemap                 00000001800341f0     libucrt:mbctype.obj
 0003:000021f8       __acrt_current_multibyte_data 00000001800341f8     libucrt:mbctype.obj
 0003:00002208       _pgmptr                    0000000180034208     libucrt:argv_data.obj
 0003:00002210       __argc                     0000000180034210     libucrt:argv_data.obj
 0003:00002218       __argv                     0000000180034218     libucrt:argv_data.obj
 0003:00002220       __wargv                    0000000180034220     libucrt:argv_data.obj
 0003:00002228       _acmdln                    0000000180034228     libucrt:argv_data.obj
 0003:00002230       _wcmdln                    0000000180034230     libucrt:argv_data.obj
 0003:00002238       __acrt_heap                0000000180034238     libucrt:heap_handle.obj
 0003:0000226c       __acrt_lconv_static_null   000000018003426c     libucrt:localeconv.obj
 0003:00002270       __acrt_lconv_static_W_null 0000000180034270     libucrt:localeconv.obj
 0003:00002284       __fma3_is_available        0000000180034284     libucrt:fma3_available.obj
 0003:00002288       __use_fma3_lib             0000000180034288     libucrt:fma3_available.obj
 0003:00002290       __dyn_tls_init_callback    0000000180034290     <common>
 0003:00002298       __scrt_ucrt_dll_is_in_use  0000000180034298     <common>

 entry point at        0001:0000ec54

 Static symbols

 0000:fffc2000       .debug$S                   0000000180000000     OPOSToneIndicator.exp
 0000:fffc2000       .debug$S                   0000000180000000     advapi32:ADVAPI32.dll
 0000:fffc2000       .debug$S                   0000000180000000     advapi32:ADVAPI32.dll
 0000:fffc2000       .debug$S                   0000000180000000     advapi32:ADVAPI32.dll
 0000:fffc2000       .debug$S                   0000000180000000     advapi32:ADVAPI32.dll
 0000:fffc2000       .debug$S                   0000000180000000     advapi32:ADVAPI32.dll
 0000:fffc2000       .debug$S                   0000000180000000     advapi32:ADVAPI32.dll
 0000:fffc2000       .debug$S                   0000000180000000     advapi32:ADVAPI32.dll
 0000:fffc2000       .debug$S                   0000000180000000     advapi32:ADVAPI32.dll
 0000:fffc2000       .debug$S                   0000000180000000     advapi32:ADVAPI32.dll
 0000:fffc2000       .debug$S                   0000000180000000     gdi32:GDI32.dll
 0000:fffc2000       .debug$S                   0000000180000000     gdi32:GDI32.dll
 0000:fffc2000       .debug$S                   0000000180000000     gdi32:GDI32.dll
 0000:fffc2000       .debug$S                   0000000180000000     gdi32:GDI32.dll
 0000:fffc2000       .debug$S                   0000000180000000     gdi32:GDI32.dll
 0000:fffc2000       .debug$S                   0000000180000000     gdi32:GDI32.dll
 0000:fffc2000       .debug$S                   0000000180000000     gdi32:GDI32.dll
 0000:fffc2000       .debug$S                   0000000180000000     gdi32:GDI32.dll
 0000:fffc2000       .debug$S                   0000000180000000     gdi32:GDI32.dll
 0000:fffc2000       .debug$S                   0000000180000000     gdi32:GDI32.dll
 0000:fffc2000       .debug$S                   0000000180000000     gdi32:GDI32.dll
 0000:fffc2000       .debug$S                   0000000180000000     gdi32:GDI32.dll
 0000:fffc2000       .debug$S                   0000000180000000     gdi32:GDI32.dll
 0000:fffc2000       .debug$S                   0000000180000000     gdi32:GDI32.dll
 0000:fffc2000       .debug$S                   0000000180000000     gdi32:GDI32.dll
 0000:fffc2000       .debug$S                   0000000180000000     gdi32:GDI32.dll
 0000:fffc2000       .debug$S                   0000000180000000     gdi32:GDI32.dll
 0000:fffc2000       .debug$S                   0000000180000000     gdi32:GDI32.dll
 0000:fffc2000       .debug$S                   0000000180000000     gdi32:GDI32.dll
 0000:fffc2000       .debug$S                   0000000180000000     kernel32:KERNEL32.dll
 0000:fffc2000       .debug$S                   0000000180000000     kernel32:KERNEL32.dll
 0000:fffc2000       .debug$S                   0000000180000000     kernel32:KERNEL32.dll
 0000:fffc2000       .debug$S                   0000000180000000     kernel32:KERNEL32.dll
 0000:fffc2000       .debug$S                   0000000180000000     kernel32:KERNEL32.dll
 0000:fffc2000       .debug$S                   0000000180000000     kernel32:KERNEL32.dll
 0000:fffc2000       .debug$S                   0000000180000000     kernel32:KERNEL32.dll
 0000:fffc2000       .debug$S                   0000000180000000     kernel32:KERNEL32.dll
 0000:fffc2000       .debug$S                   0000000180000000     kernel32:KERNEL32.dll
 0000:fffc2000       .debug$S                   0000000180000000     kernel32:KERNEL32.dll
 0000:fffc2000       .debug$S                   0000000180000000     kernel32:KERNEL32.dll
 0000:fffc2000       .debug$S                   0000000180000000     kernel32:KERNEL32.dll
 0000:fffc2000       .debug$S                   0000000180000000     kernel32:KERNEL32.dll
 0000:fffc2000       .debug$S                   0000000180000000     kernel32:KERNEL32.dll
 0000:fffc2000       .debug$S                   0000000180000000     kernel32:KERNEL32.dll
 0000:fffc2000       .debug$S                   0000000180000000     kernel32:KERNEL32.dll
 0000:fffc2000       .debug$S                   0000000180000000     kernel32:KERNEL32.dll
 0000:fffc2000       .debug$S                   0000000180000000     kernel32:KERNEL32.dll
 0000:fffc2000       .debug$S                   0000000180000000     kernel32:KERNEL32.dll
 0000:fffc2000       .debug$S                   0000000180000000     kernel32:KERNEL32.dll
 0000:fffc2000       .debug$S                   0000000180000000     kernel32:KERNEL32.dll
 0000:fffc2000       .debug$S                   0000000180000000     kernel32:KERNEL32.dll
 0000:fffc2000       .debug$S                   0000000180000000     kernel32:KERNEL32.dll
 0000:fffc2000       .debug$S                   0000000180000000     kernel32:KERNEL32.dll
 0000:fffc2000       .debug$S                   0000000180000000     kernel32:KERNEL32.dll
 0000:fffc2000       .debug$S                   0000000180000000     kernel32:KERNEL32.dll
 0000:fffc2000       .debug$S                   0000000180000000     kernel32:KERNEL32.dll
 0000:fffc2000       .debug$S                   0000000180000000     kernel32:KERNEL32.dll
 0000:fffc2000       .debug$S                   0000000180000000     kernel32:KERNEL32.dll
 0000:fffc2000       .debug$S                   0000000180000000     kernel32:KERNEL32.dll
 0000:fffc2000       .debug$S                   0000000180000000     kernel32:KERNEL32.dll
 0000:fffc2000       .debug$S                   0000000180000000     kernel32:KERNEL32.dll
 0000:fffc2000       .debug$S                   0000000180000000     kernel32:KERNEL32.dll
 0000:fffc2000       .debug$S                   0000000180000000     kernel32:KERNEL32.dll
 0000:fffc2000       .debug$S                   0000000180000000     kernel32:KERNEL32.dll
 0000:fffc2000       .debug$S                   0000000180000000     kernel32:KERNEL32.dll
 0000:fffc2000       .debug$S                   0000000180000000     kernel32:KERNEL32.dll
 0000:fffc2000       .debug$S                   0000000180000000     kernel32:KERNEL32.dll
 0000:fffc2000       .debug$S                   0000000180000000     kernel32:KERNEL32.dll
 0000:fffc2000       .debug$S                   0000000180000000     kernel32:KERNEL32.dll
 0000:fffc2000       .debug$S                   0000000180000000     kernel32:KERNEL32.dll
 0000:fffc2000       .debug$S                   0000000180000000     kernel32:KERNEL32.dll
 0000:fffc2000       .debug$S                   0000000180000000     kernel32:KERNEL32.dll
 0000:fffc2000       .debug$S                   0000000180000000     kernel32:KERNEL32.dll
 0000:fffc2000       .debug$S                   0000000180000000     kernel32:KERNEL32.dll
 0000:fffc2000       .debug$S                   0000000180000000     kernel32:KERNEL32.dll
 0000:fffc2000       .debug$S                   0000000180000000     kernel32:KERNEL32.dll
 0000:fffc2000       .debug$S                   0000000180000000     kernel32:KERNEL32.dll
 0000:fffc2000       .debug$S                   0000000180000000     kernel32:KERNEL32.dll
 0000:fffc2000       .debug$S                   0000000180000000     kernel32:KERNEL32.dll
 0000:fffc2000       .debug$S                   0000000180000000     kernel32:KERNEL32.dll
 0000:fffc2000       .debug$S                   0000000180000000     kernel32:KERNEL32.dll
 0000:fffc2000       .debug$S                   0000000180000000     kernel32:KERNEL32.dll
 0000:fffc2000       .debug$S                   0000000180000000     kernel32:KERNEL32.dll
 0000:fffc2000       .debug$S                   0000000180000000     kernel32:KERNEL32.dll
 0000:fffc2000       .debug$S                   0000000180000000     kernel32:KERNEL32.dll
 0000:fffc2000       .debug$S                   0000000180000000     kernel32:KERNEL32.dll
 0000:fffc2000       .debug$S                   0000000180000000     kernel32:KERNEL32.dll
 0000:fffc2000       .debug$S                   0000000180000000     kernel32:KERNEL32.dll
 0000:fffc2000       .debug$S                   0000000180000000     kernel32:KERNEL32.dll
 0000:fffc2000       .debug$S                   0000000180000000     kernel32:KERNEL32.dll
 0000:fffc2000       .debug$S                   0000000180000000     kernel32:KERNEL32.dll
 0000:fffc2000       .debug$S                   0000000180000000     kernel32:KERNEL32.dll
 0000:fffc2000       .debug$S                   0000000180000000     kernel32:KERNEL32.dll
 0000:fffc2000       .debug$S                   0000000180000000     kernel32:KERNEL32.dll
 0000:fffc2000       .debug$S                   0000000180000000     kernel32:KERNEL32.dll
 0000:fffc2000       .debug$S                   0000000180000000     kernel32:KERNEL32.dll
 0000:fffc2000       .debug$S                   0000000180000000     kernel32:KERNEL32.dll
 0000:fffc2000       .debug$S                   0000000180000000     kernel32:KERNEL32.dll
 0000:fffc2000       .debug$S                   0000000180000000     kernel32:KERNEL32.dll
 0000:fffc2000       .debug$S                   0000000180000000     kernel32:KERNEL32.dll
 0000:fffc2000       .debug$S                   0000000180000000     kernel32:KERNEL32.dll
 0000:fffc2000       .debug$S                   0000000180000000     kernel32:KERNEL32.dll
 0000:fffc2000       .debug$S                   0000000180000000     kernel32:KERNEL32.dll
 0000:fffc2000       .debug$S                   0000000180000000     kernel32:KERNEL32.dll
 0000:fffc2000       .debug$S                   0000000180000000     kernel32:KERNEL32.dll
 0000:fffc2000       .debug$S                   0000000180000000     kernel32:KERNEL32.dll
 0000:fffc2000       .debug$S                   0000000180000000     kernel32:KERNEL32.dll
 0000:fffc2000       .debug$S                   0000000180000000     kernel32:KERNEL32.dll
 0000:fffc2000       .debug$S                   0000000180000000     kernel32:KERNEL32.dll
 0000:fffc2000       .debug$S                   0000000180000000     kernel32:KERNEL32.dll
 0000:fffc2000       .debug$S                   0000000180000000     kernel32:KERNEL32.dll
 0000:fffc2000       .debug$S                   0000000180000000     kernel32:KERNEL32.dll
 0000:fffc2000       .debug$S                   0000000180000000     kernel32:KERNEL32.dll
 0000:fffc2000       .debug$S                   0000000180000000     kernel32:KERNEL32.dll
 0000:fffc2000       .debug$S                   0000000180000000     kernel32:KERNEL32.dll
 0000:fffc2000       .debug$S                   0000000180000000     kernel32:KERNEL32.dll
 0000:fffc2000       .debug$S                   0000000180000000     kernel32:KERNEL32.dll
 0000:fffc2000       .debug$S                   0000000180000000     kernel32:KERNEL32.dll
 0000:fffc2000       .debug$S                   0000000180000000     kernel32:KERNEL32.dll
 0000:fffc2000       .debug$S                   0000000180000000     kernel32:KERNEL32.dll
 0000:fffc2000       .debug$S                   0000000180000000     kernel32:KERNEL32.dll
 0000:fffc2000       .debug$S                   0000000180000000     kernel32:KERNEL32.dll
 0000:fffc2000       .debug$S                   0000000180000000     kernel32:KERNEL32.dll
 0000:fffc2000       .debug$S                   0000000180000000     kernel32:KERNEL32.dll
 0000:fffc2000       .debug$S                   0000000180000000     kernel32:KERNEL32.dll
 0000:fffc2000       .debug$S                   0000000180000000     kernel32:KERNEL32.dll
 0000:fffc2000       .debug$S                   0000000180000000     kernel32:KERNEL32.dll
 0000:fffc2000       .debug$S                   0000000180000000     kernel32:KERNEL32.dll
 0000:fffc2000       .debug$S                   0000000180000000     kernel32:KERNEL32.dll
 0000:fffc2000       .debug$S                   0000000180000000     kernel32:KERNEL32.dll
 0000:fffc2000       .debug$S                   0000000180000000     kernel32:KERNEL32.dll
 0000:fffc2000       .debug$S                   0000000180000000     kernel32:KERNEL32.dll
 0000:fffc2000       .debug$S                   0000000180000000     kernel32:KERNEL32.dll
 0000:fffc2000       .debug$S                   0000000180000000     kernel32:KERNEL32.dll
 0000:fffc2000       .debug$S                   0000000180000000     kernel32:KERNEL32.dll
 0000:fffc2000       .debug$S                   0000000180000000     kernel32:KERNEL32.dll
 0000:fffc2000       .debug$S                   0000000180000000     kernel32:KERNEL32.dll
 0000:fffc2000       .debug$S                   0000000180000000     kernel32:KERNEL32.dll
 0000:fffc2000       .debug$S                   0000000180000000     kernel32:KERNEL32.dll
 0000:fffc2000       .debug$S                   0000000180000000     kernel32:KERNEL32.dll
 0000:fffc2000       .debug$S                   0000000180000000     ole32:ole32.dll
 0000:fffc2000       .debug$S                   0000000180000000     ole32:ole32.dll
 0000:fffc2000       .debug$S                   0000000180000000     ole32:ole32.dll
 0000:fffc2000       .debug$S                   0000000180000000     ole32:ole32.dll
 0000:fffc2000       .debug$S                   0000000180000000     ole32:ole32.dll
 0000:fffc2000       .debug$S                   0000000180000000     ole32:ole32.dll
 0000:fffc2000       .debug$S                   0000000180000000     ole32:ole32.dll
 0000:fffc2000       .debug$S                   0000000180000000     ole32:ole32.dll
 0000:fffc2000       .debug$S                   0000000180000000     ole32:ole32.dll
 0000:fffc2000       .debug$S                   0000000180000000     ole32:ole32.dll
 0000:fffc2000       .debug$S                   0000000180000000     ole32:ole32.dll
 0000:fffc2000       .debug$S                   0000000180000000     ole32:ole32.dll
 0000:fffc2000       .debug$S                   0000000180000000     ole32:ole32.dll
 0000:fffc2000       .debug$S                   0000000180000000     ole32:ole32.dll
 0000:fffc2000       .debug$S                   0000000180000000     oleaut32:OLEAUT32.dll
 0000:fffc2000       .debug$S                   0000000180000000     oleaut32:OLEAUT32.dll
 0000:fffc2000       .debug$S                   0000000180000000     oleaut32:OLEAUT32.dll
 0000:fffc2000       .debug$S                   0000000180000000     oleaut32:OLEAUT32.dll
 0000:fffc2000       .debug$S                   0000000180000000     oleaut32:OLEAUT32.dll
 0000:fffc2000       .debug$S                   0000000180000000     oleaut32:OLEAUT32.dll
 0000:fffc2000       .debug$S                   0000000180000000     oleaut32:OLEAUT32.dll
 0000:fffc2000       .debug$S                   0000000180000000     oleaut32:OLEAUT32.dll
 0000:fffc2000       .debug$S                   0000000180000000     oleaut32:OLEAUT32.dll
 0000:fffc2000       .debug$S                   0000000180000000     oleaut32:OLEAUT32.dll
 0000:fffc2000       .debug$S                   0000000180000000     oleaut32:OLEAUT32.dll
 0000:fffc2000       .debug$S                   0000000180000000     oleaut32:OLEAUT32.dll
 0000:fffc2000       .debug$S                   0000000180000000     oleaut32:OLEAUT32.dll
 0000:fffc2000       .debug$S                   0000000180000000     oleaut32:OLEAUT32.dll
 0000:fffc2000       .debug$S                   0000000180000000     oleaut32:OLEAUT32.dll
 0000:fffc2000       .debug$S                   0000000180000000     oleaut32:OLEAUT32.dll
 0000:fffc2000       .debug$S                   0000000180000000     user32:USER32.dll
 0000:fffc2000       .debug$S                   0000000180000000     user32:USER32.dll
 0000:fffc2000       .debug$S                   0000000180000000     user32:USER32.dll
 0000:fffc2000       .debug$S                   0000000180000000     user32:USER32.dll
 0000:fffc2000       .debug$S                   0000000180000000     user32:USER32.dll
 0000:fffc2000       .debug$S                   0000000180000000     user32:USER32.dll
 0000:fffc2000       .debug$S                   0000000180000000     user32:USER32.dll
 0000:fffc2000       .debug$S                   0000000180000000     user32:USER32.dll
 0000:fffc2000       .debug$S                   0000000180000000     user32:USER32.dll
 0000:fffc2000       .debug$S                   0000000180000000     user32:USER32.dll
 0000:fffc2000       .debug$S                   0000000180000000     user32:USER32.dll
 0000:fffc2000       .debug$S                   0000000180000000     user32:USER32.dll
 0000:fffc2000       .debug$S                   0000000180000000     user32:USER32.dll
 0000:fffc2000       .debug$S                   0000000180000000     user32:USER32.dll
 0000:fffc2000       .debug$S                   0000000180000000     user32:USER32.dll
 0000:fffc2000       .debug$S                   0000000180000000     user32:USER32.dll
 0000:fffc2000       .debug$S                   0000000180000000     user32:USER32.dll
 0000:fffc2000       .debug$S                   0000000180000000     user32:USER32.dll
 0000:fffc2000       .debug$S                   0000000180000000     user32:USER32.dll
 0000:fffc2000       .debug$S                   0000000180000000     user32:USER32.dll
 0000:fffc2000       .debug$S                   0000000180000000     user32:USER32.dll
 0000:fffc2000       .debug$S                   0000000180000000     user32:USER32.dll
 0000:fffc2000       .debug$S                   0000000180000000     user32:USER32.dll
 0000:fffc2000       .debug$S                   0000000180000000     user32:USER32.dll
 0000:fffc2000       .debug$S                   0000000180000000     user32:USER32.dll
 0000:fffc2000       .debug$S                   0000000180000000     user32:USER32.dll
 0000:fffc2000       .debug$S                   0000000180000000     user32:USER32.dll
 0000:fffc2000       .debug$S                   0000000180000000     user32:USER32.dll
 0000:fffc2000       .debug$S                   0000000180000000     user32:USER32.dll
 0000:fffc2000       .debug$S                   0000000180000000     user32:USER32.dll
 0000:fffc2000       .debug$S                   0000000180000000     user32:USER32.dll
 0000:fffc2000       .debug$S                   0000000180000000     user32:USER32.dll
 0000:fffc2000       .debug$S                   0000000180000000     user32:USER32.dll
 0000:fffc2000       .debug$S                   0000000180000000     user32:USER32.dll
 0000:fffc2000       .debug$S                   0000000180000000     user32:USER32.dll
 0001:00000000       ??__E_AtlComModule@ATL@@YAXXZ 0000000180001000 f   OposVariant.obj
 0001:00000020       ??__E_AtlWinModule@ATL@@YAXXZ 0000000180001020 f   OposVariant.obj
 0001:00000040       ??__E?pConnMap@?$IConnectionPointContainerImpl@VCOPOSToneIndicator@@@ATL@@0PEBU_ATL_CONNMAP_ENTRY@2@EB@@YAXXZ 0000000180001040 f   ToneIndicator.obj
 0001:00000058       ??__E_Module@@YAXXZ        0000000180001058 f   ToneIndicator.obj
 0001:00000094       ??__E_AtlBaseModule@ATL@@YAXXZ 0000000180001094 f   atls:atlbase.obj
 0001:0000e268       ?__scrt_initialize_thread_safe_statics@@YAHXZ 000000018000f268 f   LIBCMT:thread_safe_statics.obj
 0001:0000e338       ?__scrt_uninitialize_thread_safe_statics@@YAXXZ 000000018000f338 f   LIBCMT:thread_safe_statics.obj
 0001:0000e688       capture_current_context    000000018000f688 f   LIBCMT:gs_report.obj
 0001:0000e6f8       capture_previous_context   000000018000f6f8 f   LIBCMT:gs_report.obj
 0001:0000e890       $$000000                   000000018000f890     LIBCMT:chkstk.obj
 0001:0000e900       $$000000                   000000018000f900     LIBCMT:amdsecgs.obj
 0001:0000e934       ?dllmain_crt_dispatch@@YAHQEAUHINSTANCE__@@KQEAX@Z 000000018000f934 f   LIBCMT:dll_dllmain.obj
 0001:0000e984       ?dllmain_crt_process_attach@@YAHQEAUHINSTANCE__@@QEAX@Z 000000018000f984 f   LIBCMT:dll_dllmain.obj
 0001:0000ea9c       ?dllmain_crt_process_detach@@YAH_N@Z 000000018000fa9c f   LIBCMT:dll_dllmain.obj
 0001:0000eb20       ?dllmain_dispatch@@YAHQEAUHINSTANCE__@@KQEAX@Z 000000018000fb20 f   LIBCMT:dll_dllmain.obj
 0001:0000f3e8       ??$GetProcAddressAll@P6AP6A_JPEAUHWND__@@I_K_J@ZPEAUAtlThunkData_t@@@Z@@YAP6AP6A_JPEAUHWND__@@I_K_J@ZPEAUAtlThunkData_t@@@ZPEAP6AP6A_J0I12@Z3@Z@Z 00000001800103e8 f   atls:atlthunk.obj
 0001:0000f3e8       ??$GetProcAddressAll@P6APEAUAtlThunkData_t@@XZ@@YAP6APEAUAtlThunkData_t@@XZPEAP6APEAU0@XZ@Z 00000001800103e8 f   atls:atlthunk.obj
 0001:0000f3e8       ??$GetProcAddressAll@P6AXPEAUAtlThunkData_t@@@Z@@YAP6AXPEAUAtlThunkData_t@@@ZPEAP6AX0@Z@Z 00000001800103e8 f   atls:atlthunk.obj
 0001:0000f3e8       ??$GetProcAddressAll@P6AXPEAUAtlThunkData_t@@PEAX_K@Z@@YAP6AXPEAUAtlThunkData_t@@PEAX_K@ZPEAP6AX012@Z@Z 00000001800103e8 f   atls:atlthunk.obj
 0001:0000f5c0       ?__InitializeThunkPool@@YAHXZ 00000001800105c0 f   atls:atlthunk.obj
 0001:0000fa60       $$000000                   0000000180010a60     libvcruntime:memcmp.obj
 0001:0000fb40       $$000000                   0000000180010b40     libvcruntime:memcpy.obj
 0001:0000ff50       $$000000                   0000000180010f50     libvcruntime:memset.obj
 0001:00011060       $$000000                   0000000180012060     libvcruntime:notify.obj
 0001:000111cc       ??$BuildCatchObjectHelperInternal@V__FrameHandler4@@@@YAHPEAUEHExceptionRecord@@PEAXPEAUHandlerType4@FH4@@PEBU_s_CatchableType@@@Z 00000001800121cc f   libvcruntime:frame.obj
 0001:000113d0       ??$BuildCatchObjectInternal@V__FrameHandler4@@@@YAXPEAUEHExceptionRecord@@PEAXPEAUHandlerType4@FH4@@PEBU_s_CatchableType@@@Z 00000001800123d0 f   libvcruntime:frame.obj
 0001:00011494       ??$CatchIt@V__FrameHandler4@@@@YAXPEAUEHExceptionRecord@@PEA_KPEAU_CONTEXT@@PEAU_xDISPATCHER_CONTEXT@@PEAUFuncInfo4@FH4@@PEAUHandlerType4@4@PEBU_s_CatchableType@@PEAUTryBlockMapEntry4@4@H1EE@Z 0000000180012494 f   libvcruntime:frame.obj
 0001:00011568       ??$FindHandler@V__FrameHandler4@@@@YAXPEAUEHExceptionRecord@@PEA_KPEAU_CONTEXT@@PEAU_xDISPATCHER_CONTEXT@@PEAUFuncInfo4@FH4@@EH1@Z 0000000180012568 f   libvcruntime:frame.obj
 0001:00011a78       ??$FindHandlerForForeignException@V__FrameHandler4@@@@YAXPEAUEHExceptionRecord@@PEA_KPEAU_CONTEXT@@PEAU_xDISPATCHER_CONTEXT@@PEAUFuncInfo4@FH4@@HH1@Z 0000000180012a78 f   libvcruntime:frame.obj
 0001:00012808       ?ExFilterRethrow@@YAHPEAU_EXCEPTION_POINTERS@@PEAUEHExceptionRecord@@PEAH@Z 0000000180013808 f   libvcruntime:frame.obj
 0001:00012890       ?ExFilterRethrowFH4@@YAHPEAU_EXCEPTION_POINTERS@@PEAUEHExceptionRecord@@HPEAH@Z 0000000180013890 f   libvcruntime:frame.obj
 0001:00012ba8       ?IsInExceptionSpec@@YAEPEAUEHExceptionRecord@@PEBU_s_ESTypeList@@@Z 0000000180013ba8 f   libvcruntime:frame.obj
 0001:00012c98       ?Is_bad_exception_allowed@@YAEPEBU_s_ESTypeList@@@Z 0000000180013c98 f   libvcruntime:frame.obj
 0001:00012f74       ?try_get_function@@YAPEAXW4function_id@?A0x84e3c32f@@QEBDQEBW4module_id@2@2@Z 0000000180013f74 f   libvcruntime:winapi_downlevel.obj
 0001:00013250       $$000000                   0000000180014250     libvcruntime:handlers.obj
 0001:00013a68       ??$common_vsprintf@Vformat_validation_base@__crt_stdio_output@@_W@@YAH_KQEA_W0QEB_WQEAU__crt_locale_pointers@@QEAD@Z 0000000180014a68 f   libucrt:output.obj
 0001:00014908       $LN17                      0000000180015908     libucrt:output.obj
 0001:000152ac       ??$?RV<lambda_d80eeec6fff315bfe5c115232f3240e3>@@AEAV<lambda_6e4b09c48022b2350581041d5f6b0c4c>@@V<lambda_2358e3775559c9db80273638284d5e45>@@@?$__crt_seh_guarded_call@X@@QEAAX$$QEAV<lambda_d80eeec6fff315bfe5c115232f3240e3>@@AEAV<lambda_6e4b09c48022b2350581041d5f6b0c4c>@@$$QEAV<lambda_2358e3775559c9db80273638284d5e45>@@@Z 00000001800162ac f   libucrt:exit.obj
 0001:000152e4       ??R<lambda_6e4b09c48022b2350581041d5f6b0c4c>@@QEBA@XZ 00000001800162e4 f   libucrt:exit.obj
 0001:000153a8       ?atexit_exception_filter@@YAHK@Z 00000001800163a8 f   libucrt:exit.obj
 0001:000153b4       ?common_exit@@YAXHW4_crt_exit_cleanup_mode@@W4_crt_exit_return_mode@@@Z 00000001800163b4 f   libucrt:exit.obj
 0001:00015470       ?exit_or_terminate_process@@YAXI@Z 0000000180016470 f   libucrt:exit.obj
 0001:000154bc       ?try_cor_exit_process@@YAXI@Z 00000001800164bc f   libucrt:exit.obj
 0001:00015544       ??$parse_command_line@D@@YAXPEADPEAPEAD0PEA_K2@Z 0000000180016544 f   libucrt:argv_parsing.obj
 0001:000158ec       ??$common_initialize_environment_nolock@D@@YAHXZ 00000001800168ec f   libucrt:environment_initialization.obj
 0001:00015958       ??$create_environment@D@@YAQEAPEADQEAD@Z 0000000180016958 f   libucrt:environment_initialization.obj
 0001:00015a60       ??$free_environment@D@@YAXQEAPEAD@Z 0000000180016a60 f   libucrt:environment_initialization.obj
 0001:00015a60       ??$free_environment@_W@@YAXQEAPEA_W@Z 0000000180016a60 f   libucrt:environment_initialization.obj
 0001:00015aa4       ??$uninitialize_environment_internal@D@@YAXAEAPEAPEAD@Z 0000000180016aa4 f   libucrt:environment_initialization.obj
 0001:00015ac0       ??$uninitialize_environment_internal@_W@@YAXAEAPEAPEA_W@Z 0000000180016ac0 f   libucrt:environment_initialization.obj
 0001:00015b1c       ??$?RV<lambda_638799b9deba96c50f710eeac98168cd>@@AEAV<lambda_22ebabd17bc4fa466a2aca6d8deb888d>@@V<lambda_a6f7d7db0129f75315ebf26d50c089f1>@@@?$__crt_seh_guarded_call@H@@QEAAH$$QEAV<lambda_638799b9deba96c50f710eeac98168cd>@@AEAV<lambda_22ebabd17bc4fa466a2aca6d8deb888d>@@$$QEAV<lambda_a6f7d7db0129f75315ebf26d50c089f1>@@@Z 0000000180016b1c f   libucrt:onexit.obj
 0001:00015b58       ??$?RV<lambda_7777bce6b2f8c936911f934f8298dc43>@@AEAV<lambda_f03950bc5685219e0bcd2087efbe011e>@@V<lambda_3883c3dff614d5e0c5f61bb1ac94921c>@@@?$__crt_seh_guarded_call@H@@QEAAH$$QEAV<lambda_7777bce6b2f8c936911f934f8298dc43>@@AEAV<lambda_f03950bc5685219e0bcd2087efbe011e>@@$$QEAV<lambda_3883c3dff614d5e0c5f61bb1ac94921c>@@@Z 0000000180016b58 f   libucrt:onexit.obj
 0001:00015b94       ??R<lambda_22ebabd17bc4fa466a2aca6d8deb888d>@@QEBAHXZ 0000000180016b94 f   libucrt:onexit.obj
 0001:00015d44       ??R<lambda_f03950bc5685219e0bcd2087efbe011e>@@QEBAHXZ 0000000180016d44 f   libucrt:onexit.obj
 0001:00015f18       initialize_global_variables 0000000180016f18 f   libucrt:initialization.obj
 0001:00015f2c       initialize_c               0000000180016f2c f   libucrt:initialization.obj
 0001:00015f50       initialize_environment     0000000180016f50 f   libucrt:initialization.obj
 0001:00015f50       initialize_global_state_isolation 0000000180016f50 f   libucrt:initialization.obj
 0001:00015f50       report_memory_leaks        0000000180016f50 f   libucrt:initialization.obj
 0001:00015f50       uninitialize_c             0000000180016f50 f   libucrt:initialization.obj
 0001:00015f50       uninitialize_global_state_isolation 0000000180016f50 f   libucrt:initialization.obj
 0001:00015f54       uninitialize_environment   0000000180016f54 f   libucrt:initialization.obj
 0001:00015f64       initialize_pointers        0000000180016f64 f   libucrt:initialization.obj
 0001:00015fa4       uninitialize_vcruntime     0000000180016fa4 f   libucrt:initialization.obj
 0001:00015fac       uninitialize_allocated_memory 0000000180016fac f   libucrt:initialization.obj
 0001:00015fec       uninitialize_allocated_io_buffers 0000000180016fec f   libucrt:initialization.obj
 0001:00016960       $$000000                   0000000180017960     libucrt:strncmp.obj
 0001:00016a5c       ??$?RV<lambda_0ae27a3a962d80f24befdcbee591983d>@@AEAV<lambda_8d0ee55de4b1038c4002e0adecdf1839>@@V<lambda_dc504788e8f1664fe9b84e20bfb512f2>@@@?$__crt_seh_guarded_call@X@@QEAAX$$QEAV<lambda_0ae27a3a962d80f24befdcbee591983d>@@AEAV<lambda_8d0ee55de4b1038c4002e0adecdf1839>@@$$QEAV<lambda_dc504788e8f1664fe9b84e20bfb512f2>@@@Z 0000000180017a5c f   libucrt:per_thread_data.obj
 0001:00016a9c       ??$?RV<lambda_2d41944a1d46af3157314b8a01080d33>@@AEAV<lambda_8f455de75cd7d7f24b4096f044d8b9e6>@@V<lambda_aa500f224e6afead328df44964fe2772>@@@?$__crt_seh_guarded_call@X@@QEAAX$$QEAV<lambda_2d41944a1d46af3157314b8a01080d33>@@AEAV<lambda_8f455de75cd7d7f24b4096f044d8b9e6>@@$$QEAV<lambda_aa500f224e6afead328df44964fe2772>@@@Z 0000000180017a9c f   libucrt:per_thread_data.obj
 0001:00016adc       ??$?RV<lambda_aa87e3671a710a21b5dc78c0bdf72e11>@@AEAV<lambda_92619d2358a28f41a33ba319515a20b9>@@V<lambda_6992ecaafeb10aed2b74cb1fae11a551>@@@?$__crt_seh_guarded_call@X@@QEAAX$$QEAV<lambda_aa87e3671a710a21b5dc78c0bdf72e11>@@AEAV<lambda_92619d2358a28f41a33ba319515a20b9>@@$$QEAV<lambda_6992ecaafeb10aed2b74cb1fae11a551>@@@Z 0000000180017adc f   libucrt:per_thread_data.obj
 0001:00016b24       ??$?RV<lambda_f2e299630e499de9f9a165e60fcd3db5>@@AEAV<lambda_2ae9d31cdba2644fcbeaf08da7c24588>@@V<lambda_40d01ff24d0e7b3814fdbdcee8eab3c7>@@@?$__crt_seh_guarded_call@X@@QEAAX$$QEAV<lambda_f2e299630e499de9f9a165e60fcd3db5>@@AEAV<lambda_2ae9d31cdba2644fcbeaf08da7c24588>@@$$QEAV<lambda_40d01ff24d0e7b3814fdbdcee8eab3c7>@@@Z 0000000180017b24 f   libucrt:per_thread_data.obj
 0001:00016b84       ?construct_ptd_array@@YAXQEAU__acrt_ptd@@@Z 0000000180017b84 f   libucrt:per_thread_data.obj
 0001:00016c54       ?destroy_fls@@YAXPEAX@Z    0000000180017c54 f   libucrt:per_thread_data.obj
 0001:00016c74       ?destroy_ptd_array@@YAXQEAU__acrt_ptd@@@Z 0000000180017c74 f   libucrt:per_thread_data.obj
 0001:00016d6c       ?replace_current_thread_locale_nolock@@YAXQEAU__acrt_ptd@@QEAU__crt_locale_data@@@Z 0000000180017d6c f   libucrt:per_thread_data.obj
 0001:00017250       ?try_get_function@@YAPEAXW4function_id@?A0x391cf84c@@QEBDQEBW4module_id@2@2@Z 0000000180018250 f   libucrt:winapi_thunks.obj
 0001:00017c20       ?fp_format_a@@YAHQEBNPEAD_KQEAD2H_NIQEAU__crt_locale_pointers@@W4__acrt_rounding_mode@@@Z 0000000180018c20 f   libucrt:cvt.obj
 0001:00017fa0       ?fp_format_e@@YAHQEBNQEAD_K12H_NIQEAU__crt_locale_pointers@@W4__acrt_rounding_mode@@@Z 0000000180018fa0 f   libucrt:cvt.obj
 0001:00018090       ?fp_format_e_internal@@YAHQEAD_KH_NIQEAU_strflt@@2QEAU__crt_locale_pointers@@@Z 0000000180019090 f   libucrt:cvt.obj
 0001:00018264       ?fp_format_f_internal@@YAHQEAD_KHQEAU_strflt@@_NQEAU__crt_locale_pointers@@@Z 0000000180019264 f   libucrt:cvt.obj
 0001:000183cc       ?fp_format_g@@YAHQEBNQEAD_K12H_NIQEAU__crt_locale_pointers@@@Z 00000001800193cc f   libucrt:cvt.obj
 0001:0001850c       ?should_round_up@@YA_NQEBN_KFW4__acrt_rounding_mode@@@Z 000000018001950c f   libucrt:cvt.obj
 0001:00018b30       ??$?RV<lambda_410d79af7f07d98d83a3f525b3859a53>@@AEAV<lambda_3e16ef9562a7dcce91392c22ab16ea36>@@V<lambda_38119f0e861e05405d8a144b9b982f0a>@@@?$__crt_seh_guarded_call@X@@QEAAX$$QEAV<lambda_410d79af7f07d98d83a3f525b3859a53>@@AEAV<lambda_3e16ef9562a7dcce91392c22ab16ea36>@@$$QEAV<lambda_38119f0e861e05405d8a144b9b982f0a>@@@Z 0000000180019b30 f   libucrt:wsetlocale.obj
 0001:00018bdc       ?initialize_inherited_file_handles_nolock@@YAXXZ 0000000180019bdc f   libucrt:ioinit.obj
 0001:00018ccc       ?initialize_stdio_handles_nolock@@YAXXZ 0000000180019ccc f   libucrt:ioinit.obj
 0001:00018f48       ?<lambda_invoker_cdecl>@<lambda_a1ce4c8ae42411fd470c77163914f50e>@@CAHPEBX0@Z 0000000180019f48 f   libucrt:argv_wildcards.obj
 0001:00019260       ??$common_expand_argv_wildcards@D@@YAHQEAPEADQEAPEAPEAD@Z 000000018001a260 f   libucrt:argv_wildcards.obj
 0001:0001946c       ??$copy_and_add_argument_to_buffer@D@@YAHQEBD0_KAEAV?$argument_list@D@?A0x5f5c8891@@@Z 000000018001a46c f   libucrt:argv_wildcards.obj
 0001:000195f4       ??$expand_argument_wildcards@D@@YAHQEAD0AEAV?$argument_list@D@?A0x5f5c8891@@@Z 000000018001a5f4 f   libucrt:argv_wildcards.obj
 0001:00019b40       ??$?RV<lambda_efdfa57d1f175319df784efa44bb7b81>@@AEAV<lambda_5f0a4c1567f8adc6734073e5d1e1b35c>@@V<lambda_2e8a7d3640ea6ccb4c2413664c2db6fd>@@@?$__crt_seh_guarded_call@X@@QEAAX$$QEAV<lambda_efdfa57d1f175319df784efa44bb7b81>@@AEAV<lambda_5f0a4c1567f8adc6734073e5d1e1b35c>@@$$QEAV<lambda_2e8a7d3640ea6ccb4c2413664c2db6fd>@@@Z 000000018001ab40 f   libucrt:mbctype.obj
 0001:00019cfc       ?getSystemCP@@YAHH@Z       000000018001acfc f   libucrt:mbctype.obj
 0001:00019d7c       ?setSBCS@@YAXPEAU__crt_multibyte_data@@@Z 000000018001ad7c f   libucrt:mbctype.obj
 0001:00019e0c       ?setSBUpLow@@YAXPEAU__crt_multibyte_data@@@Z 000000018001ae0c f   libucrt:mbctype.obj
 0001:00019ff0       ?setmbcp_internal@@YAHH_NQEAU__acrt_ptd@@QEAPEAU__crt_multibyte_data@@@Z 000000018001aff0 f   libucrt:mbctype.obj
 0001:0001a1b0       ?update_thread_multibyte_data_internal@@YAPEAU__crt_multibyte_data@@QEAU__acrt_ptd@@QEAPEAU1@@Z 000000018001b1b0 f   libucrt:mbctype.obj
 0001:0001a5a0       ?x_ismbbtype_l@@YAHPEAU__crt_locale_pointers@@IHH@Z 000000018001b5a0 f   libucrt:ismbbyte.obj
 0001:0001a948       ??$?RV<lambda_450d765d439847d4c735a33c368b5fc0>@@AEAV<lambda_44731a7d0e6d81c3e6aa82d741081786>@@V<lambda_601a2a7da3b7a96e9554ac7215c4b07c>@@@?$__crt_seh_guarded_call@P6AXH@Z@@QEAAP6AXH@Z$$QEAV<lambda_450d765d439847d4c735a33c368b5fc0>@@AEAV<lambda_44731a7d0e6d81c3e6aa82d741081786>@@$$QEAV<lambda_601a2a7da3b7a96e9554ac7215c4b07c>@@@Z 000000018001b948 f   libucrt:signal.obj
 0001:0001aca4       ??$?RV<lambda_842d9ff0dc9ef11c61343bbaebe7f885>@@AEAV<lambda_c5860995281e5c4ce005b3de8f5874ee>@@V<lambda_d90129c13df834fdcbf8d2b88dafcf2d>@@@?$__crt_seh_guarded_call@X@@QEAAX$$QEAV<lambda_842d9ff0dc9ef11c61343bbaebe7f885>@@AEAV<lambda_c5860995281e5c4ce005b3de8f5874ee>@@$$QEAV<lambda_d90129c13df834fdcbf8d2b88dafcf2d>@@@Z 000000018001bca4 f   libucrt:fflush.obj
 0001:0001ad40       ??$?RV<lambda_886d6c58226a84441f68b9f2b8217b83>@@AEAV<lambda_ab61a845afdef5b7c387490eaf3616ee>@@V<lambda_f7f22ab5edc0698d5f6905b0d3f44752>@@@?$__crt_seh_guarded_call@X@@QEAAX$$QEAV<lambda_886d6c58226a84441f68b9f2b8217b83>@@AEAV<lambda_ab61a845afdef5b7c387490eaf3616ee>@@$$QEAV<lambda_f7f22ab5edc0698d5f6905b0d3f44752>@@@Z 000000018001bd40 f   libucrt:fflush.obj
 0001:0001ae20       ?common_flush_all@@YAH_N@Z 000000018001be20 f   libucrt:fflush.obj
 0001:0001ce70       memcpy_s                   000000018001de70 f   libucrt:cfout.obj
 0001:0001d1d8       ?free_crt_array_internal@@YAXQEAPEBX_K@Z 000000018001e1d8 f   libucrt:inittime.obj
 0001:0001dc64       fallbackMethod             000000018001ec64 f   libucrt:strpbrk.obj
 0001:0001e01c       $LN78                      000000018001f01c     libucrt:strpbrk.obj
 0001:0001e058       $LN77                      000000018001f058     libucrt:strpbrk.obj
 0001:0001e098       $LN76                      000000018001f098     libucrt:strpbrk.obj
 0001:0001e174       ?__acrt_LCMapStringA_stat@@YAHPEAU__crt_locale_pointers@@PEB_WKPEBDHPEADHHH@Z 000000018001f174 f   libucrt:lcmapstringa.obj
 0001:0001e524       ?initialize_multibyte@@YAHXZ 000000018001f524 f   libucrt:multibyte_initializer.obj
 0001:0001e53c       ??$?RV<lambda_a37b2b86f63e897a80ea819b0eb08c01>@@AEAV<lambda_38ce7e780aa69e748d6df282ebc68efe>@@V<lambda_99fb1378e971ab6e7edea83e3a7a83a2>@@@?$__crt_seh_guarded_call@H@@QEAAH$$QEAV<lambda_a37b2b86f63e897a80ea819b0eb08c01>@@AEAV<lambda_38ce7e780aa69e748d6df282ebc68efe>@@$$QEAV<lambda_99fb1378e971ab6e7edea83e3a7a83a2>@@@Z 000000018001f53c f   libucrt:commit.obj
 0001:0001e65c       ?write_double_translated_ansi_nolock@@YA?AUwrite_result@?A0x17268360@@HQEBDI@Z 000000018001f65c f   libucrt:write.obj
 0001:0001eb48       ?write_text_ansi_nolock@@YA?AUwrite_result@?A0x17268360@@HQEBDI@Z 000000018001fb48 f   libucrt:write.obj
 0001:0001ec4c       ?write_text_utf16le_nolock@@YA?AUwrite_result@?A0x17268360@@HQEBDI@Z 000000018001fc4c f   libucrt:write.obj
 0001:0001ed68       ?write_text_utf8_nolock@@YA?AUwrite_result@?A0x17268360@@HQEBDI@Z 000000018001fd68 f   libucrt:write.obj
 0001:0001f6c0       $$000000                   00000001800206c0     libucrt:log10.obj
 0001:0001ff8c       ??$common_lseek_nolock@_J@@YA_JH_JH@Z 0000000180020f8c f   libucrt:lseek.obj
 0001:000201ec       common_control87           00000001800211ec f   libucrt:ieee.obj
 0001:000204ac       _call_matherr              00000001800214ac f   libucrt:libm_error.obj
 0001:00020514       _exception_enabled         0000000180021514 f   libucrt:libm_error.obj
 0001:000207b0       _log_special_common        00000001800217b0 f   libucrt:log_special.obj
 0001:00020848       ??$?RV<lambda_751a882b2c74d4b022dec766aa51a29a>@@AEAV<lambda_628dfdc04ba53c8bfc02c9951375f3f5>@@V<lambda_f6c7be5f7998530c34de24c7437d6b54>@@@?$__crt_seh_guarded_call@H@@QEAAH$$QEAV<lambda_751a882b2c74d4b022dec766aa51a29a>@@AEAV<lambda_628dfdc04ba53c8bfc02c9951375f3f5>@@$$QEAV<lambda_f6c7be5f7998530c34de24c7437d6b54>@@@Z 0000000180021848 f   libucrt:close.obj
 0001:00020b70       $$000000                   0000000180021b70     libucrt:fpsr.obj
 0001:00021210       $$000000                   0000000180022210     LIBCMT:guard_dispatch.obj
 0001:00021230       $$000000                   0000000180022230     LIBCMT:guard_xfg_dispatch.obj
 0001:00021250       ?filt$0@?0??_AtlVerifyStackAvailable@_ATL_SAFE_ALLOCA_IMPL@ATL@@YA_N_K@Z@4HA 0000000180022250 f   ToneIndicator.obj
 0001:00021271       __scrt_is_nonwritable_in_current_image$filt$0 0000000180022271 f   LIBCMT:utility.obj
 0001:00021289       ?catch$0@?0???2@YAPEAX_KAEBUnothrow_t@std@@@Z@4HA 0000000180022289 f   LIBCMT:new_scalar_nothrow.obj
 0001:00021296       __catch$??2@YAPEAX_KAEBUnothrow_t@std@@@Z$0 0000000180022296 f   LIBCMT:new_scalar_nothrow.obj
 0001:000212a7       ?fin$0@?0??dllmain_crt_process_attach@@YAHQEAUHINSTANCE__@@QEAX@Z@4HA 00000001800222a7 f   LIBCMT:dll_dllmain.obj
 0001:000212be       ?fin$0@?0??dllmain_crt_process_detach@@YAH_N@Z@4HA 00000001800222be f   LIBCMT:dll_dllmain.obj
 0001:000212d7       ?fin$1@?0??dllmain_crt_process_detach@@YAH_N@Z@4HA 00000001800222d7 f   LIBCMT:dll_dllmain.obj
 0001:000212eb       ?filt$0@?0??dllmain_dispatch@@YAHQEAUHINSTANCE__@@KQEAX@Z@4HA 00000001800222eb f   LIBCMT:dll_dllmain.obj
 0001:00021321       ?filt$0@?0???$_CallSETranslator@V__FrameHandler4@@@@YAHPEAUEHExceptionRecord@@PEA_KPEAU_CONTEXT@@PEAU_xDISPATCHER_CONTEXT@@PEAUFuncInfo4@FH4@@K1H@Z@4HA 0000000180022321 f   libvcruntime:risctrnsctrl.obj
 0001:000213c0       __DestructExceptionObject$filt$0 00000001800223c0 f   libvcruntime:ehhelpers.obj
 0001:00021456       ?filt$0@?0??CxxCallCatchBlock@__FrameHandler4@@SAPEAXPEAU_EXCEPTION_RECORD@@@Z@4HA 0000000180022456 f   libvcruntime:frame.obj
 0001:00021485       ?fin$1@?0??CxxCallCatchBlock@__FrameHandler4@@SAPEAXPEAU_EXCEPTION_RECORD@@@Z@4HA 0000000180022485 f   libvcruntime:frame.obj
 0001:00021508       ?filt$0@?0??FrameUnwindToState@__FrameHandler4@@SAXPEA_KPEAU_xDISPATCHER_CONTEXT@@PEAUFuncInfo4@FH4@@H@Z@4HA 0000000180022508 f   libvcruntime:frame.obj
 0001:0002151e       ?fin$1@?0??FrameUnwindToState@__FrameHandler4@@SAXPEA_KPEAU_xDISPATCHER_CONTEXT@@PEAUFuncInfo4@FH4@@H@Z@4HA 000000018002251e f   libvcruntime:frame.obj
 0001:00021541       ?fin$0@?0???$?RV<lambda_0ae27a3a962d80f24befdcbee591983d>@@AEAV<lambda_8d0ee55de4b1038c4002e0adecdf1839>@@V<lambda_dc504788e8f1664fe9b84e20bfb512f2>@@@?$__crt_seh_guarded_call@X@@QEAAX$$QEAV<lambda_0ae27a3a962d80f24befdcbee591983d>@@AEAV<lambda_8d0ee55de4b1038c4002e0adecdf1839>@@$$QEAV<lambda_dc504788e8f1664fe9b84e20bfb512f2>@@@Z@4HA 0000000180022541 f   libucrt:per_thread_data.obj
 0001:00021541       ?fin$0@?0???$?RV<lambda_2d41944a1d46af3157314b8a01080d33>@@AEAV<lambda_8f455de75cd7d7f24b4096f044d8b9e6>@@V<lambda_aa500f224e6afead328df44964fe2772>@@@?$__crt_seh_guarded_call@X@@QEAAX$$QEAV<lambda_2d41944a1d46af3157314b8a01080d33>@@AEAV<lambda_8f455de75cd7d7f24b4096f044d8b9e6>@@$$QEAV<lambda_aa500f224e6afead328df44964fe2772>@@@Z@4HA 0000000180022541 f   libucrt:per_thread_data.obj
 0001:00021541       ?fin$0@?0???$?RV<lambda_aa87e3671a710a21b5dc78c0bdf72e11>@@AEAV<lambda_92619d2358a28f41a33ba319515a20b9>@@V<lambda_6992ecaafeb10aed2b74cb1fae11a551>@@@?$__crt_seh_guarded_call@X@@QEAAX$$QEAV<lambda_aa87e3671a710a21b5dc78c0bdf72e11>@@AEAV<lambda_92619d2358a28f41a33ba319515a20b9>@@$$QEAV<lambda_6992ecaafeb10aed2b74cb1fae11a551>@@@Z@4HA 0000000180022541 f   libucrt:per_thread_data.obj
 0001:00021541       ?fin$0@?0???$?RV<lambda_f2e299630e499de9f9a165e60fcd3db5>@@AEAV<lambda_2ae9d31cdba2644fcbeaf08da7c24588>@@V<lambda_40d01ff24d0e7b3814fdbdcee8eab3c7>@@@?$__crt_seh_guarded_call@X@@QEAAX$$QEAV<lambda_f2e299630e499de9f9a165e60fcd3db5>@@AEAV<lambda_2ae9d31cdba2644fcbeaf08da7c24588>@@$$QEAV<lambda_40d01ff24d0e7b3814fdbdcee8eab3c7>@@@Z@4HA 0000000180022541 f   libucrt:per_thread_data.obj
 0001:00021541       ?fin$0@?0???$?RV<lambda_efdfa57d1f175319df784efa44bb7b81>@@AEAV<lambda_5f0a4c1567f8adc6734073e5d1e1b35c>@@V<lambda_2e8a7d3640ea6ccb4c2413664c2db6fd>@@@?$__crt_seh_guarded_call@X@@QEAAX$$QEAV<lambda_efdfa57d1f175319df784efa44bb7b81>@@AEAV<lambda_5f0a4c1567f8adc6734073e5d1e1b35c>@@$$QEAV<lambda_2e8a7d3640ea6ccb4c2413664c2db6fd>@@@Z@4HA 0000000180022541 f   libucrt:mbctype.obj
 0001:00021541       ?fin$0@?0???$?RV<lambda_450d765d439847d4c735a33c368b5fc0>@@AEAV<lambda_44731a7d0e6d81c3e6aa82d741081786>@@V<lambda_601a2a7da3b7a96e9554ac7215c4b07c>@@@?$__crt_seh_guarded_call@P6AXH@Z@@QEAAP6AXH@Z$$QEAV<lambda_450d765d439847d4c735a33c368b5fc0>@@AEAV<lambda_44731a7d0e6d81c3e6aa82d741081786>@@$$QEAV<lambda_601a2a7da3b7a96e9554ac7215c4b07c>@@@Z@4HA 0000000180022541 f   libucrt:signal.obj
 0001:00021541       ?fin$0@?0???$?RV<lambda_d80eeec6fff315bfe5c115232f3240e3>@@AEAV<lambda_6e4b09c48022b2350581041d5f6b0c4c>@@V<lambda_2358e3775559c9db80273638284d5e45>@@@?$__crt_seh_guarded_call@X@@QEAAX$$QEAV<lambda_d80eeec6fff315bfe5c115232f3240e3>@@AEAV<lambda_6e4b09c48022b2350581041d5f6b0c4c>@@$$QEAV<lambda_2358e3775559c9db80273638284d5e45>@@@Z@4HA 0000000180022541 f   libucrt:exit.obj
 0001:00021541       ?fin$0@?0???$?RV<lambda_638799b9deba96c50f710eeac98168cd>@@AEAV<lambda_22ebabd17bc4fa466a2aca6d8deb888d>@@V<lambda_a6f7d7db0129f75315ebf26d50c089f1>@@@?$__crt_seh_guarded_call@H@@QEAAH$$QEAV<lambda_638799b9deba96c50f710eeac98168cd>@@AEAV<lambda_22ebabd17bc4fa466a2aca6d8deb888d>@@$$QEAV<lambda_a6f7d7db0129f75315ebf26d50c089f1>@@@Z@4HA 0000000180022541 f   libucrt:onexit.obj
 0001:00021541       ?fin$0@?0???$?RV<lambda_7777bce6b2f8c936911f934f8298dc43>@@AEAV<lambda_f03950bc5685219e0bcd2087efbe011e>@@V<lambda_3883c3dff614d5e0c5f61bb1ac94921c>@@@?$__crt_seh_guarded_call@H@@QEAAH$$QEAV<lambda_7777bce6b2f8c936911f934f8298dc43>@@AEAV<lambda_f03950bc5685219e0bcd2087efbe011e>@@$$QEAV<lambda_3883c3dff614d5e0c5f61bb1ac94921c>@@@Z@4HA 0000000180022541 f   libucrt:onexit.obj
 0001:0002155b       ?filt$0@?0???R<lambda_6e4b09c48022b2350581041d5f6b0c4c>@@QEBA@XZ@4HA 000000018002255b f   libucrt:exit.obj
 0001:00021576       _query_new_handler$fin$0   0000000180022576 f   libucrt:new_handler.obj
 0001:0002158c       ?fin$0@?0???$?RV<lambda_410d79af7f07d98d83a3f525b3859a53>@@AEAV<lambda_3e16ef9562a7dcce91392c22ab16ea36>@@V<lambda_38119f0e861e05405d8a144b9b982f0a>@@@?$__crt_seh_guarded_call@X@@QEAAX$$QEAV<lambda_410d79af7f07d98d83a3f525b3859a53>@@AEAV<lambda_3e16ef9562a7dcce91392c22ab16ea36>@@$$QEAV<lambda_38119f0e861e05405d8a144b9b982f0a>@@@Z@4HA 000000018002258c f   libucrt:wsetlocale.obj
 0001:000215a6       __acrt_initialize_lowio$fin$0 00000001800225a6 f   libucrt:ioinit.obj
 0001:000215a6       __acrt_lowio_ensure_fh_exists$fin$0 00000001800225a6 f   libucrt:osfinfo.obj
 0001:000215bf       ?fin$0@?0??update_thread_multibyte_data_internal@@YAPEAU__crt_multibyte_data@@QEAU__acrt_ptd@@QEAPEAU1@@Z@4HA 00000001800225bf f   libucrt:mbctype.obj
 0001:000215d8       raise$fin$0                00000001800225d8 f   libucrt:signal.obj
 0001:000215f9       ?fin$0@?0???$?RV<lambda_842d9ff0dc9ef11c61343bbaebe7f885>@@AEAV<lambda_c5860995281e5c4ce005b3de8f5874ee>@@V<lambda_d90129c13df834fdcbf8d2b88dafcf2d>@@@?$__crt_seh_guarded_call@X@@QEAAX$$QEAV<lambda_842d9ff0dc9ef11c61343bbaebe7f885>@@AEAV<lambda_c5860995281e5c4ce005b3de8f5874ee>@@$$QEAV<lambda_d90129c13df834fdcbf8d2b88dafcf2d>@@@Z@4HA 00000001800225f9 f   libucrt:fflush.obj
 0001:00021614       ?fin$0@?0???$?RV<lambda_886d6c58226a84441f68b9f2b8217b83>@@AEAV<lambda_ab61a845afdef5b7c387490eaf3616ee>@@V<lambda_f7f22ab5edc0698d5f6905b0d3f44752>@@@?$__crt_seh_guarded_call@X@@QEAAX$$QEAV<lambda_886d6c58226a84441f68b9f2b8217b83>@@AEAV<lambda_ab61a845afdef5b7c387490eaf3616ee>@@$$QEAV<lambda_f7f22ab5edc0698d5f6905b0d3f44752>@@@Z@4HA 0000000180022614 f   libucrt:fflush.obj
 0001:00021631       __acrt_update_thread_locale_data$fin$0 0000000180022631 f   libucrt:locale_refcounting.obj
 0001:0002164a       _fcloseall$fin$0           000000018002264a f   libucrt:closeall.obj
 0001:00021663       ?fin$0@?0???$?RV<lambda_751a882b2c74d4b022dec766aa51a29a>@@AEAV<lambda_628dfdc04ba53c8bfc02c9951375f3f5>@@V<lambda_f6c7be5f7998530c34de24c7437d6b54>@@@?$__crt_seh_guarded_call@H@@QEAAH$$QEAV<lambda_751a882b2c74d4b022dec766aa51a29a>@@AEAV<lambda_628dfdc04ba53c8bfc02c9951375f3f5>@@$$QEAV<lambda_f6c7be5f7998530c34de24c7437d6b54>@@@Z@4HA 0000000180022663 f   libucrt:close.obj
 0001:00021663       ?fin$0@?0???$?RV<lambda_a37b2b86f63e897a80ea819b0eb08c01>@@AEAV<lambda_38ce7e780aa69e748d6df282ebc68efe>@@V<lambda_99fb1378e971ab6e7edea83e3a7a83a2>@@@?$__crt_seh_guarded_call@H@@QEAAH$$QEAV<lambda_a37b2b86f63e897a80ea819b0eb08c01>@@AEAV<lambda_38ce7e780aa69e748d6df282ebc68efe>@@$$QEAV<lambda_99fb1378e971ab6e7edea83e3a7a83a2>@@@Z@4HA 0000000180022663 f   libucrt:commit.obj
 0001:0002167d       _write$fin$0               000000018002267d f   libucrt:write.obj
 0001:00021694       fclose$fin$0               0000000180022694 f   libucrt:fclose.obj
 0001:000216ac       _ctrlfp$filt$0             00000001800226ac f   libucrt:fpctrl.obj
 0001:000216ac       common_control87$filt$0    00000001800226ac f   libucrt:ieee.obj
 0001:000216e0       _IsNonwritableInCurrentImage$filt$0 00000001800226e0 f   LIBCMT:pesect.obj
 0001:00021700       ??__F_AtlComModule@ATL@@YAXXZ 0000000180022700 f   OposVariant.obj
 0001:0002170c       ??__F_AtlWinModule@ATL@@YAXXZ 000000018002270c f   OposVariant.obj
 0001:00021750       ??__F_Module@@YAXXZ        0000000180022750 f   ToneIndicator.obj
 0001:0002176c       ??__F_AtlBaseModule@ATL@@YAXXZ 000000018002276c f   atls:atlbase.obj
 0002:00000648       ?_AtlBaseModule$initializer$@ATL@@3P6AXXZEA 0000000180023648     atls:atlbase.obj
 0002:00000650       ?_AtlComModule$initializer$@ATL@@3P6AXXZEA 0000000180023650     OposVariant.obj
 0002:00000658       ?_AtlWinModule$initializer$@ATL@@3P6AXXZEA 0000000180023658     OposVariant.obj
 0002:00000660       ?_Module$initializer$@@3P6AXXZEA 0000000180023660     ToneIndicator.obj
 0002:00000668       ??pConnMap$initializer$@?$IConnectionPointContainerImpl@VCOPOSToneIndicator@@@ATL@@0P6AXXZEA@@3P6AXXZEA 0000000180023668     ToneIndicator.obj
 0002:00000680       ?__scrt_initialize_tss_var@@3P6AHXZEA 0000000180023680     LIBCMT:thread_safe_statics.obj
 0002:00002778       GS_ExceptionPointers       0000000180025778     LIBCMT:gs_report.obj
 0002:00002960       ?ExceptionTemplate@?1??UnwindNestedFrames@__FrameHandler4@@SAXPEA_KPEAUEHExceptionRecord@@PEAU_CONTEXT@@0PEAXPEAUFuncInfo4@FH4@@HHPEAUHandlerType4@6@PEAU_xDISPATCHER_CONTEXT@@E@Z@4U_EXCEPTION_RECORD@@B 0000000180025960     libvcruntime:risctrnsctrl.obj
 0002:00002a30       ?tokenTable@@3QBUStringLiteral@@B 0000000180025a30     libvcruntime:undname.obj
 0002:00002b30       ?nameTable@@3QBUStringLiteral@@B 0000000180025b30     libvcruntime:undname.obj
 0002:00003060       ?rttiTable@@3QBUStringLiteral@@B 0000000180026060     libvcruntime:undname.obj
 0002:000030b0       ?IndirectionName@@3QBUStringLiteral@@B 00000001800260b0     libvcruntime:undname.obj
 0002:00003110       ?PrefixName@@3QBUStringLiteral@@B 0000000180026110     libvcruntime:undname.obj
 0002:000037e8       ?module_names@?A0x84e3c32f@@3QBQEB_WB 00000001800267e8     libvcruntime:winapi_downlevel.obj
 0002:000038a8       ?candidate_modules@?1??try_get_FlsAlloc@@YAP6AKP6AXPEAX@Z@ZXZ@4QBW4module_id@?A0x84e3c32f@@B 00000001800268a8     libvcruntime:winapi_downlevel.obj
 0002:000038c0       ?candidate_modules@?1??try_get_FlsFree@@YAP6AHK@ZXZ@4QBW4module_id@?A0x84e3c32f@@B 00000001800268c0     libvcruntime:winapi_downlevel.obj
 0002:000038d0       ?candidate_modules@?1??try_get_FlsGetValue@@YAP6APEAXK@ZXZ@4QBW4module_id@?A0x84e3c32f@@B 00000001800268d0     libvcruntime:winapi_downlevel.obj
 0002:000038e8       ?candidate_modules@?1??try_get_FlsSetValue@@YAP6AHKPEAX@ZXZ@4QBW4module_id@?A0x84e3c32f@@B 00000001800268e8     libvcruntime:winapi_downlevel.obj
 0002:00003900       ?candidate_modules@?1??try_get_InitializeCriticalSectionEx@@YAP6AHPEAU_RTL_CRITICAL_SECTION@@KK@ZXZ@4QBW4module_id@?A0x84e3c32f@@B 0000000180026900     libvcruntime:winapi_downlevel.obj
 0002:00003930       ?errtable@@3QBUerrentry@?A0x31fdb9ec@@B 0000000180026930     libucrt:errno.obj
 0002:00003fc0       __acrt_initializers        0000000180026fc0     libucrt:initialization.obj
 0002:000040c0       ?module_names@?A0x391cf84c@@3QBQEB_WB 00000001800270c0     libucrt:winapi_thunks.obj
 0002:000045c8       ?candidate_modules@?1??try_get_AreFileApisANSI@@YAP6AHXZXZ@4QBW4module_id@?A0x391cf84c@@B 00000001800275c8     libucrt:winapi_thunks.obj
 0002:000045e0       ?candidate_modules@?1??try_get_FlsAlloc@@YAP6AKP6AXPEAX@Z@ZXZ@4QBW4module_id@?A0x391cf84c@@B 00000001800275e0     libucrt:winapi_thunks.obj
 0002:000045e8       ?candidate_modules@?1??try_get_FlsFree@@YAP6AHK@ZXZ@4QBW4module_id@?A0x391cf84c@@B 00000001800275e8     libucrt:winapi_thunks.obj
 0002:000045f0       ?candidate_modules@?1??try_get_FlsGetValue@@YAP6APEAXK@ZXZ@4QBW4module_id@?A0x391cf84c@@B 00000001800275f0     libucrt:winapi_thunks.obj
 0002:000045f8       ?candidate_modules@?1??try_get_FlsSetValue@@YAP6AHKPEAX@ZXZ@4QBW4module_id@?A0x391cf84c@@B 00000001800275f8     libucrt:winapi_thunks.obj
 0002:00004600       ?candidate_modules@?1??try_get_InitializeCriticalSectionEx@@YAP6AHPEAU_RTL_CRITICAL_SECTION@@KK@ZXZ@4QBW4module_id@?A0x391cf84c@@B 0000000180027600     libucrt:winapi_thunks.obj
 0002:00004608       ?candidate_modules@?1??try_get_LCMapStringEx@@YAP6AHPEB_WK0HPEA_WHPEAU_nlsversioninfo@@PEAX_J@ZXZ@4QBW4module_id@?A0x391cf84c@@B 0000000180027608     libucrt:winapi_thunks.obj
 0002:00004620       ?candidate_modules@?1??try_get_LocaleNameToLCID@@YAP6AKPEB_WK@ZXZ@4QBW4module_id@?A0x391cf84c@@B 0000000180027620     libucrt:winapi_thunks.obj
 0002:0000463c       ?candidate_modules@?1??try_get_AppPolicyGetProcessTerminationMethod@@YAP6AJPEAXPEAW4AppPolicyProcessTerminationMethod@@@ZXZ@4QBW4module_id@?A0x391cf84c@@B 000000018002763c     libucrt:winapi_thunks.obj
 0002:00004668       ?candidate_modules@?1??try_get_SetThreadStackGuarantee@@YAP6AHPEAK@ZXZ@4QBW4module_id@?A0x391cf84c@@B 0000000180027668     libucrt:winapi_thunks.obj
 0002:00004690       ?strings@?1??fp_format_nan_or_infinity@@YAHW4__acrt_fp_class@@_NPEAD_K1@Z@4QAY03QEBDA 0000000180027690     libucrt:cvt.obj
 0002:00004df0       ?_mb_locale_names@@3QBQEB_WB 0000000180027df0     libucrt:mbctype.obj
 0002:00005660       ?LcidToLocaleNameTable@?A0x881e4c05@@3QBULcidToLocaleName@1@B 0000000180028660     libucrt:lcidtoname_downlevel.obj
 0002:000070c0       ?LocaleNameToIndexTable@?A0x881e4c05@@3QBULocaleNameIndex@1@B 000000018002a0c0     libucrt:lcidtoname_downlevel.obj
 0002:00009360       __real_ninf                000000018002c360     libucrt:log10.obj
 0002:00009370       __real_inf                 000000018002c370     libucrt:log10.obj
 0002:00009380       __real_neg_qnan            000000018002c380     libucrt:log10.obj
 0002:00009390       __real_qnanbit             000000018002c390     libucrt:log10.obj
 0002:000093a0       __int_1023                 000000018002c3a0     libucrt:log10.obj
 0002:000093b0       __mask_001                 000000018002c3b0     libucrt:log10.obj
 0002:000093c0       __mask_mant                000000018002c3c0     libucrt:log10.obj
 0002:000093d0       __mask_mant_top8           000000018002c3d0     libucrt:log10.obj
 0002:000093e0       __mask_mant9               000000018002c3e0     libucrt:log10.obj
 0002:000093f0       __real_log10_e             000000018002c3f0     libucrt:log10.obj
 0002:00009400       __real_log10_e_lead        000000018002c400     libucrt:log10.obj
 0002:00009410       __real_log10_e_tail        000000018002c410     libucrt:log10.obj
 0002:00009420       __real_log10_2_lead        000000018002c420     libucrt:log10.obj
 0002:00009430       __real_log10_2_tail        000000018002c430     libucrt:log10.obj
 0002:00009440       __real_two                 000000018002c440     libucrt:log10.obj
 0002:00009450       __real_one                 000000018002c450     libucrt:log10.obj
 0002:00009460       __real_half                000000018002c460     libucrt:log10.obj
 0002:00009470       __mask_100                 000000018002c470     libucrt:log10.obj
 0002:00009480       __real_1_over_512          000000018002c480     libucrt:log10.obj
 0002:00009490       __real_1_over_2            000000018002c490     libucrt:log10.obj
 0002:000094a0       __real_1_over_3            000000018002c4a0     libucrt:log10.obj
 0002:000094b0       __real_1_over_4            000000018002c4b0     libucrt:log10.obj
 0002:000094c0       __real_1_over_5            000000018002c4c0     libucrt:log10.obj
 0002:000094d0       __real_1_over_6            000000018002c4d0     libucrt:log10.obj
 0002:000094e0       __real_neg_1023            000000018002c4e0     libucrt:log10.obj
 0002:000094f0       __mask_2045                000000018002c4f0     libucrt:log10.obj
 0002:00009500       __real_threshold           000000018002c500     libucrt:log10.obj
 0002:00009510       __real_near_one_lt         000000018002c510     libucrt:log10.obj
 0002:00009520       __real_near_one_gt         000000018002c520     libucrt:log10.obj
 0002:00009530       __real_min_norm            000000018002c530     libucrt:log10.obj
 0002:00009540       __real_notsign             000000018002c540     libucrt:log10.obj
 0002:00009550       __real_ca1                 000000018002c550     libucrt:log10.obj
 0002:00009560       __real_ca2                 000000018002c560     libucrt:log10.obj
 0002:00009570       __real_ca3                 000000018002c570     libucrt:log10.obj
 0002:00009580       __real_ca4                 000000018002c580     libucrt:log10.obj
 0002:00009590       __mask_lower               000000018002c590     libucrt:log10.obj
 0002:000095a0       __flag_x_zero              000000018002c5a0     libucrt:log10.obj
 0002:000095a4       __flag_x_neg               000000018002c5a4     libucrt:log10.obj
 0002:000095a8       __flag_x_nan               000000018002c5a8     libucrt:log10.obj
 0002:0000ae00       __real@433fffffffffffff    000000018002de00     libucrt:fpsr.obj
 0002:0000ae08       __real@c33fffffffffffff    000000018002de08     libucrt:fpsr.obj
 0002:0000b6d8       $unwind$?cw_memcpy@@YAHPEA_WPEBDH@Z 000000018002e6d8     CWString.obj
 0002:0000b6d8       $unwind$?ProcessWindowMessage@?$CComControl@VCOPOSToneIndicator@@V?$CWindowImpl@VCOPOSToneIndicator@@VCWindow@ATL@@V?$CWinTraits@$0FGAAAAAA@$0A@@3@@ATL@@@ATL@@UEAAHPEAUHWND__@@I_K_JAEA_JK@Z 000000018002e6d8     ToneIndicator.obj
 0002:0000b6d8       $unwind$wcstol             000000018002e6d8     libucrt:strtox.obj
 0002:0000b6d8       $unwind$_invalid_parameter_noinfo 000000018002e6d8     libucrt:invalid_parameter.obj
 0002:0000b6d8       $unwind$_log10_special     000000018002e6d8     libucrt:log_special.obj
 0002:0000b6e0       $unwind$?cw_strcpy@@YAHPEA_WPEBD@Z 000000018002e6e0     CWString.obj
 0002:0000b6e0       $unwind$??1OposDispParms@@QEAA@XZ 000000018002e6e0     OposVariant.obj
 0002:0000b6e0       $unwind$??__E_AtlComModule@ATL@@YAXXZ 000000018002e6e0     OposVariant.obj
 0002:0000b6e0       $unwind$??__E_AtlWinModule@ATL@@YAXXZ 000000018002e6e0     OposVariant.obj
 0002:0000b6e0       $unwind$??__F_AtlWinModule@ATL@@YAXXZ 000000018002e6e0     OposVariant.obj
 0002:0000b6e0       $unwind$?GetLONG@OposVariant@@QEAAJXZ 000000018002e6e0     OposVariant.obj
 0002:0000b6e0       $unwind$??__E?pConnMap@?$IConnectionPointContainerImpl@VCOPOSToneIndicator@@@ATL@@0PEBU_ATL_CONNMAP_ENTRY@2@EB@@YAXXZ 000000018002e6e0     ToneIndicator.obj
 0002:0000b6e0       $unwind$?AddReplacement@CRegObject@ATL@@UEAAJPEB_W0@Z 000000018002e6e0     ToneIndicator.obj
 0002:0000b6e0       $unwind$?AtlHresultFromLastError@ATL@@YAJXZ 000000018002e6e0     ToneIndicator.obj
 0002:0000b6e0       $unwind$?AtlThrowImpl@ATL@@YAXJ@Z 000000018002e6e0     ToneIndicator.obj
 0002:0000b6e0       $unwind$?CreateInstance@CComClassFactory@ATL@@UEAAJPEAUIUnknown@@AEBU_GUID@@PEAPEAX@Z 000000018002e6e0     ToneIndicator.obj
 0002:0000b6e0       $unwind$?DefaultReflectionHandler@?$CWindowImplRoot@VCWindow@ATL@@@ATL@@SAHPEAUHWND__@@I_K_JAEA_J@Z 000000018002e6e0     ToneIndicator.obj
 0002:0000b6e0       $unwind$?EnumAdvise@?$IOleObjectImpl@VCOPOSToneIndicator@@@ATL@@UEAAJPEAPEAUIEnumSTATDATA@@@Z 000000018002e6e0     ToneIndicator.obj
 0002:0000b6e0       $unwind$?FireViewChange@CComControlBase@ATL@@QEAAJXZ 000000018002e6e0     ToneIndicator.obj
 0002:0000b6e0       $unwind$?GetAdvise@?$IViewObjectExImpl@VCOPOSToneIndicator@@@ATL@@UEAAJPEAK0PEAPEAUIAdviseSink@@@Z 000000018002e6e0     ToneIndicator.obj
 0002:0000b6e0       $unwind$?LockServer@CComClassFactory@ATL@@UEAAJH@Z 000000018002e6e0     ToneIndicator.obj
 0002:0000b6e0       $unwind$?OnDocWindowActivate@?$IOleInPlaceActiveObjectImpl@VCOPOSToneIndicator@@@ATL@@UEAAJH@Z 000000018002e6e0     ToneIndicator.obj
 0002:0000b6e0       $unwind$?Unadvise@?$IOleObjectImpl@VCOPOSToneIndicator@@@ATL@@UEAAJK@Z 000000018002e6e0     ToneIndicator.obj
 0002:0000b6e0       $unwind$?_LocCPQueryInterface@?$IConnectionPointImpl@VCOPOSToneIndicator@@$1?DIID__IOPOSToneIndicatorEvents@@3U_GUID@@BVCComDynamicUnkArray@ATL@@@ATL@@UEAAJAEBU_GUID@@PEAPEAX@Z 000000018002e6e0     ToneIndicator.obj
 0002:0000b6e0       $unwind$?_LocCPQueryInterface@?$IConnectionPointImpl@VCOPOSToneIndicator@@$1?IID_IPropertyNotifySink@@3U_GUID@@BVCComDynamicUnkArray@ATL@@@ATL@@UEAAJAEBU_GUID@@PEAPEAX@Z 000000018002e6e0     ToneIndicator.obj
 0002:0000b6e0       $unwind$?FinalConstruct@COPOSToneIndicator@@QEAAJXZ 000000018002e6e0     ToneIndicatorImpl.obj
 0002:0000b6e0       $unwind$?get_ResultCode@COPOSToneIndicator@@UEAAJPEAJ@Z 000000018002e6e0     ToneIndicatorImpl.obj
 0002:0000b6e0       $unwind$?get_State@COPOSToneIndicator@@UEAAJPEAJ@Z 000000018002e6e0     ToneIndicatorImpl.obj
 0002:0000b6e0       $unwind$??__E_AtlBaseModule@ATL@@YAXXZ 000000018002e6e0     atls:atlbase.obj
 0002:0000b6e0       $unwind$__scrt_initialize_default_local_stdio_options 000000018002e6e0     LIBCMT:default_local_stdio_options.obj
 0002:0000b6e0       $unwind$?dllmain_crt_dispatch@@YAHQEAUHINSTANCE__@@KQEAX@Z 000000018002e6e0     LIBCMT:dll_dllmain.obj
 0002:0000b6e0       $unwind$__report_rangecheckfailure 000000018002e6e0     LIBCMT:gs_report.obj
 0002:0000b6e0       $unwind$__GSHandlerCheck   000000018002e6e0     LIBCMT:gshandler.obj
 0002:0000b6e0       $unwind$?__scrt_uninitialize_thread_safe_statics@@YAXXZ 000000018002e6e0     LIBCMT:thread_safe_statics.obj
 0002:0000b6e0       $unwind$_Init_thread_notify 000000018002e6e0     LIBCMT:thread_safe_statics.obj
 0002:0000b6e0       $unwind$__scrt_acquire_startup_lock 000000018002e6e0     LIBCMT:utility.obj
 0002:0000b6e0       $unwind$__scrt_dllmain_after_initialize_c 000000018002e6e0     LIBCMT:utility.obj
 0002:0000b6e0       $unwind$__scrt_dllmain_before_initialize_c 000000018002e6e0     LIBCMT:utility.obj
 0002:0000b6e0       $unwind$__scrt_dllmain_crt_thread_attach 000000018002e6e0     LIBCMT:utility.obj
 0002:0000b6e0       $unwind$__scrt_dllmain_crt_thread_detach 000000018002e6e0     LIBCMT:utility.obj
 0002:0000b6e0       $unwind$__scrt_dllmain_uninitialize_c 000000018002e6e0     LIBCMT:utility.obj
 0002:0000b6e0       $unwind$__scrt_dllmain_uninitialize_critical 000000018002e6e0     LIBCMT:utility.obj
 0002:0000b6e0       $unwind$atexit             000000018002e6e0     LIBCMT:utility.obj
 0002:0000b6e0       $unwind$__vcrt_initialize  000000018002e6e0     libvcruntime:initialization.obj
 0002:0000b6e0       $unwind$__vcrt_thread_attach 000000018002e6e0     libvcruntime:initialization.obj
 0002:0000b6e0       $unwind$__vcrt_thread_detach 000000018002e6e0     libvcruntime:initialization.obj
 0002:0000b6e0       $unwind$__vcrt_uninitialize 000000018002e6e0     libvcruntime:initialization.obj
 0002:0000b6e0       $unwind$__vcrt_uninitialize_critical 000000018002e6e0     libvcruntime:initialization.obj
 0002:0000b6e0       $unwind$__vcrt_initialize_locks 000000018002e6e0     libvcruntime:locks.obj
 0002:0000b6e0       $unwind$__vcrt_freefls     000000018002e6e0     libvcruntime:per_thread_data.obj
 0002:0000b6e0       $unwind$__vcrt_getptd      000000018002e6e0     libvcruntime:per_thread_data.obj
 0002:0000b6e0       $unwind$__vcrt_initialize_ptd 000000018002e6e0     libvcruntime:per_thread_data.obj
 0002:0000b6e0       $unwind$__vcrt_uninitialize_ptd 000000018002e6e0     libvcruntime:per_thread_data.obj
 0002:0000b6e0       $unwind$_purecall          000000018002e6e0     libvcruntime:purevirt.obj
 0002:0000b6e0       $unwind$?FrameUnwindToEmptyState@__FrameHandler4@@SAXPEA_KPEAU_xDISPATCHER_CONTEXT@@PEAUFuncInfo4@FH4@@@Z 000000018002e6e0     libvcruntime:risctrnsctrl.obj
 0002:0000b6e0       $unwind$_GetImageBase      000000018002e6e0     libvcruntime:risctrnsctrl.obj
 0002:0000b6e0       $unwind$_GetThrowImageBase 000000018002e6e0     libvcruntime:risctrnsctrl.obj
 0002:0000b6e0       $unwind$__dcrt_terminate_console_output 000000018002e6e0     libucrt:initcon.obj
 0002:0000b6e0       $unwind$??$uninitialize_environment_internal@D@@YAXAEAPEAPEAD@Z 000000018002e6e0     libucrt:environment_initialization.obj
 0002:0000b6e0       $unwind$??$uninitialize_environment_internal@_W@@YAXAEAPEAPEA_W@Z 000000018002e6e0     libucrt:environment_initialization.obj
 0002:0000b6e0       $unwind$__dcrt_uninitialize_environments_nolock 000000018002e6e0     libucrt:environment_initialization.obj
 0002:0000b6e0       $unwind$__acrt_initialize_heap 000000018002e6e0     libucrt:heap_handle.obj
 0002:0000b6e0       $unwind$_msize_base        000000018002e6e0     libucrt:msize.obj
 0002:0000b6e0       $unwind$?initialize_multibyte@@YAHXZ 000000018002e6e0     libucrt:multibyte_initializer.obj
 0002:0000b6e0       $unwind$__acrt_thread_attach 000000018002e6e0     libucrt:initialization.obj
 0002:0000b6e0       $unwind$__acrt_thread_detach 000000018002e6e0     libucrt:initialization.obj
 0002:0000b6e0       $unwind$__acrt_uninitialize 000000018002e6e0     libucrt:initialization.obj
 0002:0000b6e0       $unwind$__acrt_uninitialize_critical 000000018002e6e0     libucrt:initialization.obj
 0002:0000b6e0       $unwind$initialize_c       000000018002e6e0     libucrt:initialization.obj
 0002:0000b6e0       $unwind$uninitialize_allocated_io_buffers 000000018002e6e0     libucrt:initialization.obj
 0002:0000b6e0       $unwind$uninitialize_environment 000000018002e6e0     libucrt:initialization.obj
 0002:0000b6e0       $unwind$__acrt_initialize_ptd 000000018002e6e0     libucrt:per_thread_data.obj
 0002:0000b6e0       $unwind$__acrt_uninitialize_ptd 000000018002e6e0     libucrt:per_thread_data.obj
 0002:0000b6e0       $unwind$__acrt_AreFileApisANSI 000000018002e6e0     libucrt:winapi_thunks.obj
 0002:0000b6e0       $unwind$__pctype_func      000000018002e6e0     libucrt:ctype.obj
 0002:0000b6e0       $unwind$__acrt_release_locale_ref 000000018002e6e0     libucrt:locale_refcounting.obj
 0002:0000b6e0       $unwind$_isatty            000000018002e6e0     libucrt:isatty.obj
 0002:0000b6e0       $unwind$_get_osfhandle     000000018002e6e0     libucrt:osfinfo.obj
 0002:0000b6e0       $unwind$__acrt_initialize_multibyte 000000018002e6e0     libucrt:mbctype.obj
 0002:0000b6e0       $unwind$__acrt_update_thread_multibyte_data 000000018002e6e0     libucrt:mbctype.obj
 0002:0000b6e0       $unwind$__doserrno         000000018002e6e0     libucrt:errno.obj
 0002:0000b6e0       $unwind$_errno             000000018002e6e0     libucrt:errno.obj
 0002:0000b6e0       $unwind$_invoke_watson     000000018002e6e0     libucrt:invalid_parameter.obj
 0002:0000b6e0       $unwind$abort              000000018002e6e0     libucrt:abort.obj
 0002:0000b6e0       $unwind$__acrt_initialize_command_line 000000018002e6e0     libucrt:argv_data.obj
 0002:0000b6e0       $unwind$_fileno            000000018002e6e0     libucrt:fileno.obj
 0002:0000b6e0       $unwind$?state_case_size@?$output_processor@_WV?$string_output_adapter@_W@__crt_stdio_output@@V?$format_validation_base@_WV?$string_output_adapter@_W@__crt_stdio_output@@@2@@__crt_stdio_output@@AEAA_NXZ 000000018002e6e0     libucrt:output.obj
 0002:0000b6e0       $unwind$_statfp            000000018002e6e0     libucrt:fpctrl.obj
 0002:0000b6e0       $unwind$fegetround         000000018002e6e0     libucrt:fegetround.obj
 0002:0000b6e0       $unwind$_set_errno_from_matherr 000000018002e6e0     libucrt:fpexcept.obj
 0002:0000b6e8       $unwind$?cw_dup@@YAXPEBDAEAHAEAPEA_W1@Z 000000018002e6e8     CWString.obj
 0002:0000b6e8       $unwind$?DAdvise@?$IDataObjectImpl@VCOPOSToneIndicator@@@ATL@@UEAAJPEAUtagFORMATETC@@KPEAUIAdviseSink@@PEAK@Z 000000018002e6e8     ToneIndicator.obj
 0002:0000b6e8       $unwind$??$__acrt_mbs_to_wcs_cp@U__crt_win32_buffer_internal_dynamic_resizing@@@@YAHQEBDAEAV?$__crt_win32_buffer@_WU__crt_win32_buffer_internal_dynamic_resizing@@@@I@Z 000000018002e6e8     libucrt:argv_wildcards.obj
 0002:0000b700       $unwind$?DupWide@_CW@@AEAAXXZ 000000018002e700     CWString.obj
 0002:0000b700       $unwind$??0CAtlComModule@ATL@@QEAA@XZ 000000018002e700     OposVariant.obj
 0002:0000b700       $unwind$??0CAtlWinModule@ATL@@QEAA@XZ 000000018002e700     OposVariant.obj
 0002:0000b700       $unwind$??0?$CComObject@VCOPOSToneIndicator@@@ATL@@QEAA@PEAX@Z 000000018002e700     ToneIndicator.obj
 0002:0000b700       $unwind$??0CAtlModule@ATL@@QEAA@XZ 000000018002e700     ToneIndicator.obj
 0002:0000b700       $unwind$??1?$CComObject@VCOPOSToneIndicator@@@ATL@@UEAA@XZ 000000018002e700     ToneIndicator.obj
 0002:0000b700       $unwind$??__E_Module@@YAXXZ 000000018002e700     ToneIndicator.obj
 0002:0000b700       $unwind$?AddRef@?$CComObjectCached@VCComClassFactory@ATL@@@ATL@@UEAAKXZ 000000018002e700     ToneIndicator.obj
 0002:0000b700       $unwind$?AllocateHeap@?$CTempBuffer@E$0BAA@VCCRTAllocator@ATL@@@ATL@@AEAAX_K@Z 000000018002e700     ToneIndicator.obj
 0002:0000b700       $unwind$?AllocateHeap@?$CTempBuffer@_W$0BAA@VCCRTAllocator@ATL@@@ATL@@AEAAX_K@Z 000000018002e700     ToneIndicator.obj
 0002:0000b700       $unwind$?AllocateHeap@?$CTempBuffer@_W$0EAA@VCCRTAllocator@ATL@@@ATL@@AEAAX_K@Z 000000018002e700     ToneIndicator.obj
 0002:0000b700       $unwind$?GetClassInfoW@?$IProvideClassInfo2Impl@$1?CLSID_OPOSToneIndicator@@3U_GUID@@B$1?DIID__IOPOSToneIndicatorEvents@@3U2@B$1?LIBID_OposToneIndicator_CCO@@3U2@B$00$0A@VCComTypeInfoHolder@ATL@@@ATL@@UEAAJPEAPEAUITypeInfo@@@Z 000000018002e700     ToneIndicator.obj
 0002:0000b700       $unwind$?GetClientSite@?$IOleObjectImpl@VCOPOSToneIndicator@@@ATL@@UEAAJPEAPEAUIOleClientSite@@@Z 000000018002e700     ToneIndicator.obj
 0002:0000b700       $unwind$?GetConnMap@COPOSToneIndicator@@SAPEBU_ATL_CONNMAP_ENTRY@ATL@@PEAH@Z 000000018002e700     ToneIndicator.obj
 0002:0000b700       $unwind$?GetTypeInfo@?$IDispatchImpl@UIOPOSToneIndicator@@$1?IID_IOPOSToneIndicator@@3U_GUID@@B$1?LIBID_OposToneIndicator_CCO@@3U3@B$00$0A@VCComTypeInfoHolder@ATL@@@ATL@@UEAAJIKPEAPEAUITypeInfo@@@Z 000000018002e700     ToneIndicator.obj
 0002:0000b700       $unwind$?IOleInPlaceObject_InPlaceDeactivate@CComControlBase@ATL@@QEAAJXZ 000000018002e700     ToneIndicator.obj
 0002:0000b700       $unwind$?IOleObject_SetExtent@CComControlBase@ATL@@QEAAJKPEAUtagSIZE@@@Z 000000018002e700     ToneIndicator.obj
 0002:0000b700       $unwind$?IsEqualObject@?$CComPtrBase@UIOleClientSite@@@ATL@@QEAA_NPEAUIUnknown@@@Z 000000018002e700     ToneIndicator.obj
 0002:0000b700       $unwind$?QueryHitPoint@?$IViewObjectExImpl@VCOPOSToneIndicator@@@ATL@@UEAAJKPEBUtagRECT@@UtagPOINT@@JPEAK@Z 000000018002e700     ToneIndicator.obj
 0002:0000b700       $unwind$?QueryInterface@?$CComAggObject@VCOPOSToneIndicator@@@ATL@@UEAAJAEBU_GUID@@PEAPEAX@Z 000000018002e700     ToneIndicator.obj
 0002:0000b700       $unwind$?Release@?$CComObjectCached@VCComClassFactory@ATL@@@ATL@@UEAAKXZ 000000018002e700     ToneIndicator.obj
 0002:0000b700       $unwind$?Unadvise@?$IConnectionPointImpl@VCOPOSToneIndicator@@$1?DIID__IOPOSToneIndicatorEvents@@3U_GUID@@BVCComDynamicUnkArray@ATL@@@ATL@@UEAAJK@Z 000000018002e700     ToneIndicator.obj
 0002:0000b700       $unwind$?Unadvise@?$IConnectionPointImpl@VCOPOSToneIndicator@@$1?IID_IPropertyNotifySink@@3U_GUID@@BVCComDynamicUnkArray@ATL@@@ATL@@UEAAJK@Z 000000018002e700     ToneIndicator.obj
 0002:0000b700       $unwind$??1CComControlBase@ATL@@UEAA@XZ 000000018002e700     ToneIndicatorImpl.obj
 0002:0000b700       $unwind$??1COPOSToneIndicator@@UEAA@XZ 000000018002e700     ToneIndicatorImpl.obj
 0002:0000b700       $unwind$?EventUninit@COPOSToneIndicator@@IEAAXXZ 000000018002e700     ToneIndicatorImpl.obj
 0002:0000b700       $unwind$?FreezeEvents@COPOSToneIndicator@@MEAAJH@Z 000000018002e700     ToneIndicatorImpl.obj
 0002:0000b700       $unwind$?SOProcessID@COPOSToneIndicator@@UEAAJPEAJ@Z 000000018002e700     ToneIndicatorImpl.obj
 0002:0000b700       $unwind$?get_AsyncMode@COPOSToneIndicator@@UEAAJPEAF@Z 000000018002e700     ToneIndicatorImpl.obj
 0002:0000b700       $unwind$?get_CapCompareFirmwareVersion@COPOSToneIndicator@@UEAAJPEAF@Z 000000018002e700     ToneIndicatorImpl.obj
 0002:0000b700       $unwind$?get_CapPitch@COPOSToneIndicator@@UEAAJPEAF@Z 000000018002e700     ToneIndicatorImpl.obj
 0002:0000b700       $unwind$?get_CapStatisticsReporting@COPOSToneIndicator@@UEAAJPEAF@Z 000000018002e700     ToneIndicatorImpl.obj
 0002:0000b700       $unwind$?get_CapUpdateFirmware@COPOSToneIndicator@@UEAAJPEAF@Z 000000018002e700     ToneIndicatorImpl.obj
 0002:0000b700       $unwind$?get_CapUpdateStatistics@COPOSToneIndicator@@UEAAJPEAF@Z 000000018002e700     ToneIndicatorImpl.obj
 0002:0000b700       $unwind$?get_CapVolume@COPOSToneIndicator@@UEAAJPEAF@Z 000000018002e700     ToneIndicatorImpl.obj
 0002:0000b700       $unwind$?get_Claimed@COPOSToneIndicator@@UEAAJPEAF@Z 000000018002e700     ToneIndicatorImpl.obj
 0002:0000b700       $unwind$?get_DeviceEnabled@COPOSToneIndicator@@UEAAJPEAF@Z 000000018002e700     ToneIndicatorImpl.obj
 0002:0000b700       $unwind$?get_FreezeEvents@COPOSToneIndicator@@UEAAJPEAF@Z 000000018002e700     ToneIndicatorImpl.obj
 0002:0000b700       $unwind$?put_FreezeEvents@COPOSToneIndicator@@UEAAJF@Z 000000018002e700     ToneIndicatorImpl.obj
 0002:0000b700       $unwind$??1CAtlBaseModule@ATL@@QEAA@XZ 000000018002e700     atls:atlbase.obj
 0002:0000b700       $unwind$AtlThunk_AllocateData 000000018002e700     atls:atlthunk.obj
 0002:0000b700       $unwind$__raise_securityfailure 000000018002e700     LIBCMT:gs_report.obj
 0002:0000b700       $unwind$??2@YAPEAX_K@Z     000000018002e700     LIBCMT:new_scalar.obj
 0002:0000b700       $unwind$??_Gtype_info@@UEAAPEAXI@Z 000000018002e700     LIBCMT:std_type_info_static.obj
 0002:0000b700       $unwind$_Init_thread_footer 000000018002e700     LIBCMT:thread_safe_statics.obj
 0002:0000b700       $unwind$_Init_thread_header 000000018002e700     LIBCMT:thread_safe_statics.obj
 0002:0000b700       $unwind$_Init_thread_wait  000000018002e700     LIBCMT:thread_safe_statics.obj
 0002:0000b700       $unwind$??0bad_alloc@std@@QEAA@AEBV01@@Z 000000018002e700     LIBCMT:throw_bad_alloc.obj
 0002:0000b700       $unwind$??0bad_array_new_length@std@@QEAA@AEBV01@@Z 000000018002e700     LIBCMT:throw_bad_alloc.obj
 0002:0000b700       $unwind$??0exception@std@@QEAA@AEBV01@@Z 000000018002e700     LIBCMT:throw_bad_alloc.obj
 0002:0000b700       $unwind$__scrt_initialize_crt 000000018002e700     LIBCMT:utility.obj
 0002:0000b700       $unwind$__scrt_initialize_onexit_tables 000000018002e700     LIBCMT:utility.obj
 0002:0000b700       $unwind$__scrt_release_startup_lock 000000018002e700     LIBCMT:utility.obj
 0002:0000b700       $unwind$__scrt_uninitialize_crt 000000018002e700     LIBCMT:utility.obj
 0002:0000b700       $unwind$_onexit            000000018002e700     LIBCMT:utility.obj
 0002:0000b700       $unwind$_IsExceptionObjectToBeDestroyed 000000018002e700     libvcruntime:ehhelpers.obj
 0002:0000b700       $unwind$??0HandlerMap4@FH4@@QEAA@PEBUTryBlockMapEntry4@1@_KH@Z 000000018002e700     libvcruntime:frame.obj
 0002:0000b700       $unwind$??0bad_exception@std@@QEAA@AEBV01@@Z 000000018002e700     libvcruntime:frame.obj
 0002:0000b700       $unwind$?ExFilterRethrow@@YAHPEAU_EXCEPTION_POINTERS@@PEAUEHExceptionRecord@@PEAH@Z 000000018002e700     libvcruntime:frame.obj
 0002:0000b700       $unwind$__vcrt_uninitialize_locks 000000018002e700     libvcruntime:locks.obj
 0002:0000b700       $unwind$__vcrt_freeptd     000000018002e700     libvcruntime:per_thread_data.obj
 0002:0000b700       $unwind$_CreateFrameInfo   000000018002e700     libvcruntime:risctrnsctrl.obj
 0002:0000b700       $unwind$_SetImageBase      000000018002e700     libvcruntime:risctrnsctrl.obj
 0002:0000b700       $unwind$_SetThrowImageBase 000000018002e700     libvcruntime:risctrnsctrl.obj
 0002:0000b700       $unwind$__std_exception_destroy 000000018002e700     libvcruntime:std_exception.obj
 0002:0000b700       $unwind$__std_type_info_destroy_list 000000018002e700     libvcruntime:std_type_info.obj
 0002:0000b700       $unwind$__vcrt_FlsAlloc    000000018002e700     libvcruntime:winapi_downlevel.obj
 0002:0000b700       $unwind$__vcrt_FlsFree     000000018002e700     libvcruntime:winapi_downlevel.obj
 0002:0000b700       $unwind$__vcrt_FlsGetValue 000000018002e700     libvcruntime:winapi_downlevel.obj
 0002:0000b700       $unwind$_calloc_base       000000018002e700     libucrt:calloc_base.obj
 0002:0000b700       $unwind$_malloc_base       000000018002e700     libucrt:malloc_base.obj
 0002:0000b700       $unwind$_callnewh          000000018002e700     libucrt:new_handler.obj
 0002:0000b700       $unwind$initialize_pointers 000000018002e700     libucrt:initialization.obj
 0002:0000b700       $unwind$uninitialize_allocated_memory 000000018002e700     libucrt:initialization.obj
 0002:0000b700       $unwind$__acrt_initialize_locks 000000018002e700     libucrt:locks.obj
 0002:0000b700       $unwind$__acrt_uninitialize_locks 000000018002e700     libucrt:locks.obj
 0002:0000b700       $unwind$__acrt_freeptd     000000018002e700     libucrt:per_thread_data.obj
 0002:0000b700       $unwind$__acrt_getptd_head 000000018002e700     libucrt:per_thread_data.obj
 0002:0000b700       $unwind$__acrt_get_process_end_policy 000000018002e700     libucrt:win_policies.obj
 0002:0000b700       $unwind$__acrt_AppPolicyGetProcessTerminationMethodInternal 000000018002e700     libucrt:winapi_thunks.obj
 0002:0000b700       $unwind$__acrt_FlsAlloc    000000018002e700     libucrt:winapi_thunks.obj
 0002:0000b700       $unwind$__acrt_FlsFree     000000018002e700     libucrt:winapi_thunks.obj
 0002:0000b700       $unwind$__acrt_FlsGetValue 000000018002e700     libucrt:winapi_thunks.obj
 0002:0000b700       $unwind$__acrt_SetThreadStackGuarantee 000000018002e700     libucrt:winapi_thunks.obj
 0002:0000b700       $unwind$__acrt_uninitialize_winapi_thunks 000000018002e700     libucrt:winapi_thunks.obj
 0002:0000b700       $unwind$__acrt_update_locale_info 000000018002e700     libucrt:locale_update.obj
 0002:0000b700       $unwind$__acrt_update_multibyte_info 000000018002e700     libucrt:locale_update.obj
 0002:0000b700       $unwind$__acrt_allocate_buffer_for_argv 000000018002e700     libucrt:argv_parsing.obj
 0002:0000b700       $unwind$?exit_or_terminate_process@@YAXI@Z 000000018002e700     libucrt:exit.obj
 0002:0000b700       $unwind$?try_cor_exit_process@@YAXI@Z 000000018002e700     libucrt:exit.obj
 0002:0000b700       $unwind$__acrt_uninitialize_stdio 000000018002e700     libucrt:_file.obj
 0002:0000b700       $unwind$__acrt_stdio_free_buffer_nolock 000000018002e700     libucrt:_freebuf.obj
 0002:0000b700       $unwind$_fflush_nolock     000000018002e700     libucrt:fflush.obj
 0002:0000b700       $unwind$strcpy_s           000000018002e700     libucrt:strcpy_s.obj
 0002:0000b700       $unwind$wcscat_s           000000018002e700     libucrt:wcscat_s.obj
 0002:0000b700       $unwind$wcscpy_s           000000018002e700     libucrt:wcscpy_s.obj
 0002:0000b700       $unwind$_clrfp             000000018002e700     libucrt:fpctrl.obj
 0002:0000b700       $unwind$_set_statfp        000000018002e700     libucrt:fpctrl.obj
 0002:0000b700       $unwind$_clearfp           000000018002e700     libucrt:ieee.obj
 0002:0000b700       $unwind$_controlfp_s       000000018002e700     libucrt:contrlfp.obj
 0002:0000b700       $unwind$fegetenv           000000018002e700     libucrt:fegetenv.obj
 0002:0000b700       $unwind$feholdexcept       000000018002e700     libucrt:feholdexcept.obj
 0002:0000b700       $unwind$fesetenv           000000018002e700     libucrt:fesetenv.obj
 0002:0000b708       $unwind$?AtlWinModuleTerm@ATL@@YAJPEAU_ATL_WIN_MODULE70@1@PEAUHINSTANCE__@@@Z 000000018002e708     OposVariant.obj
 0002:0000b708       $unwind$?AtlWinModuleExtractCreateWndData@ATL@@YAPEAXPEAU_ATL_WIN_MODULE70@1@@Z 000000018002e708     ToneIndicator.obj
 0002:0000b708       $unwind$?CreateInstance@?$CComCreator@V?$CComObject@VCOPOSToneIndicator@@@ATL@@@ATL@@SAJPEAXAEBU_GUID@@PEAPEAX@Z 000000018002e708     ToneIndicator.obj
 0002:0000b708       $unwind$?DoEvent@COPOSToneIndicator@@IEAAXI_K_J@Z 000000018002e708     ToneIndicator.obj
 0002:0000b708       $unwind$?DoVerb@?$IOleObjectImpl@VCOPOSToneIndicator@@@ATL@@UEAAJJPEAUtagMSG@@PEAUIOleClientSite@@JPEAUHWND__@@PEBUtagRECT@@@Z 000000018002e708     ToneIndicator.obj
 0002:0000b708       $unwind$?HKeyFromString@CRegParser@ATL@@KAPEAUHKEY__@@PEA_W@Z 000000018002e708     ToneIndicator.obj
 0002:0000b708       $unwind$?Next@?$CComEnumImpl@UIEnumConnectionPoints@@$1?_GUID_b196b285_bab4_101a_b69c_00aa00341d07@@3U__s_GUID@@BPEAUIConnectionPoint@@V?$_CopyInterface@UIConnectionPoint@@@ATL@@@ATL@@UEAAJKPEAPEAUIConnectionPoint@@PEAK@Z 000000018002e708     ToneIndicator.obj
 0002:0000b708       $unwind$?Next@?$CComEnumImpl@UIEnumConnections@@$1?_GUID_b196b287_bab4_101a_b69c_00aa00341d07@@3U__s_GUID@@BUtagCONNECTDATA@@V?$_Copy@UtagCONNECTDATA@@@ATL@@@ATL@@UEAAJKPEAUtagCONNECTDATA@@PEAK@Z 000000018002e708     ToneIndicator.obj
 0002:0000b708       $unwind$?SODirectIO@COPOSToneIndicator@@MEAAJJPEAJPEAPEA_W@Z 000000018002e708     ToneIndicator.obj
 0002:0000b708       $unwind$?SetControlFocus@CComControlBase@ATL@@QEAAHH@Z 000000018002e708     ToneIndicator.obj
 0002:0000b708       $unwind$?ocscpy_s@@YA_NPEA_W_KPEB_W@Z 000000018002e708     ToneIndicator.obj
 0002:0000b708       $unwind$?s_EventWindowProc@COPOSToneIndicator@@KA_JPEAUHWND__@@I_K_J@Z 000000018002e708     ToneIndicatorImpl.obj
 0002:0000b708       $unwind$__scrt_dllmain_exception_filter 000000018002e708     LIBCMT:utility.obj
 0002:0000b708       $unwind$?Is_bad_exception_allowed@@YAEPEBU_s_ESTypeList@@@Z 000000018002e708     libvcruntime:frame.obj
 0002:0000b708       $unwind$_recalloc_base     000000018002e708     libucrt:recalloc.obj
 0002:0000b708       $unwind$__acrt_free_locale 000000018002e708     libucrt:locale_refcounting.obj
 0002:0000b708       $unwind$__acrt_lowio_create_handle_array 000000018002e708     libucrt:osfinfo.obj
 0002:0000b708       $unwind$?setSBCS@@YAXPEAU__crt_multibyte_data@@@Z 000000018002e708     libucrt:mbctype.obj
 0002:0000b708       $unwind$_seh_filter_exe    000000018002e708     libucrt:exception_filter.obj
 0002:0000b708       $unwind$_initterm          000000018002e708     libucrt:initterm.obj
 0002:0000b708       $unwind$??$ensure_buffer_is_big_enough@D@formatting_buffer@__crt_stdio_output@@QEAA_N_K@Z 000000018002e708     libucrt:output.obj
 0002:0000b708       $unwind$??$ensure_buffer_is_big_enough@_W@formatting_buffer@__crt_stdio_output@@QEAA_N_K@Z 000000018002e708     libucrt:output.obj
 0002:0000b71c       $unwind$??0OposDispParms@@QEAA@PEAVOposVariant@@H@Z 000000018002e71c     OposVariant.obj
 0002:0000b71c       $unwind$?SetBSTR_Copy@OposVariant@@QEAAXPEA_WAEAJ@Z 000000018002e71c     OposVariant.obj
 0002:0000b71c       $unwind$?SetBSTR_InOutPtr@OposVariant@@QEAA_NPEAPEA_WAEAJ@Z 000000018002e71c     OposVariant.obj
 0002:0000b71c       $unwind$?SetDispatch_Ptr@OposVariant@@QEAAXPEAUIDispatch@@AEAJ@Z 000000018002e71c     OposVariant.obj
 0002:0000b71c       $unwind$?SetLONG_Ptr@OposVariant@@QEAAXPEAJAEAJ@Z 000000018002e71c     OposVariant.obj
 0002:0000b71c       $unwind$?SetString@OposVariant@@QEAAXPEB_WAEAJ@Z 000000018002e71c     OposVariant.obj
 0002:0000b71c       $unwind$?Term@CAtlComModule@ATL@@QEAAXXZ 000000018002e71c     OposVariant.obj
 0002:0000b71c       $unwind$??_GCRegObject@ATL@@UEAAPEAXI@Z 000000018002e71c     ToneIndicator.obj
 0002:0000b71c       $unwind$?Add@?$CSimpleArray@GV?$CSimpleArrayEqualHelper@G@ATL@@@ATL@@QEAAHAEBG@Z 000000018002e71c     ToneIndicator.obj
 0002:0000b71c       $unwind$?Add@?$CSimpleMap@PEA_WPEA_WVCExpansionVectorEqualHelper@ATL@@@ATL@@QEAAHAEBQEA_W0@Z 000000018002e71c     ToneIndicator.obj
 0002:0000b71c       $unwind$?Add@CComDynamicUnkArray@ATL@@QEAAKPEAUIUnknown@@@Z 000000018002e71c     ToneIndicator.obj
 0002:0000b71c       $unwind$?Advise@?$IOleObjectImpl@VCOPOSToneIndicator@@@ATL@@UEAAJPEAUIAdviseSink@@PEAK@Z 000000018002e71c     ToneIndicator.obj
 0002:0000b71c       $unwind$?ClearReplacements@CExpansionVector@ATL@@QEAAJXZ 000000018002e71c     ToneIndicator.obj
 0002:0000b71c       $unwind$?CreateInstance@?$CComObject@V?$CComEnum@UIEnumConnectionPoints@@$1?_GUID_b196b285_bab4_101a_b69c_00aa00341d07@@3U__s_GUID@@BPEAUIConnectionPoint@@V?$_CopyInterface@UIConnectionPoint@@@ATL@@VCComSingleThreadModel@6@@ATL@@@ATL@@SAJPEAPEAV12@@Z 000000018002e71c     ToneIndicator.obj
 0002:0000b71c       $unwind$?CreateInstance@?$CComObject@V?$CComEnum@UIEnumConnections@@$1?_GUID_b196b287_bab4_101a_b69c_00aa00341d07@@3U__s_GUID@@BUtagCONNECTDATA@@V?$_Copy@UtagCONNECTDATA@@@ATL@@VCComSingleThreadModel@6@@ATL@@@ATL@@SAJPEAPEAV12@@Z 000000018002e71c     ToneIndicator.obj
 0002:0000b71c       $unwind$?RegisterServer@CComModule@ATL@@QEAAJHPEBU_GUID@@@Z 000000018002e71c     ToneIndicator.obj
 0002:0000b71c       $unwind$?Term@CAtlModule@ATL@@QEAAXXZ 000000018002e71c     ToneIndicator.obj
 0002:0000b71c       $unwind$?UnregisterServer@CComModule@ATL@@QEAAJHPEBU_GUID@@@Z 000000018002e71c     ToneIndicator.obj
 0002:0000b71c       $unwind$?VTFromRegType@CRegParser@ATL@@KAHPEB_WAEAG@Z 000000018002e71c     ToneIndicator.obj
 0002:0000b71c       $unwind$_DllMainCRTStartup 000000018002e71c     LIBCMT:dll_dllmain.obj
 0002:0000b71c       $unwind$__vcrt_getptd_noexit 000000018002e71c     libvcruntime:per_thread_data.obj
 0002:0000b71c       $unwind$__vcrt_InitializeCriticalSectionEx 000000018002e71c     libvcruntime:winapi_downlevel.obj
 0002:0000b71c       $unwind$memcpy_s           000000018002e71c     libucrt:cfout.obj
 0002:0000b71c       $unwind$__acrt_getptd      000000018002e71c     libucrt:per_thread_data.obj
 0002:0000b71c       $unwind$__acrt_getptd_noexit 000000018002e71c     libucrt:per_thread_data.obj
 0002:0000b71c       $unwind$__acrt_execute_initializers 000000018002e71c     libucrt:shared_initialization.obj
 0002:0000b71c       $unwind$__acrt_InitializeCriticalSectionEx 000000018002e71c     libucrt:winapi_thunks.obj
 0002:0000b71c       $unwind$?free_crt_array_internal@@YAXQEAPEBX_K@Z 000000018002e71c     libucrt:inittime.obj
 0002:0000b71c       $unwind$??$common_lseek_nolock@_J@@YA_JH_JH@Z 000000018002e71c     libucrt:lseek.obj
 0002:0000b71c       $unwind$__acrt_stdio_flush_nolock 000000018002e71c     libucrt:fflush.obj
 0002:0000b71c       $unwind$??0_LocaleUpdate@@QEAA@QEAU__crt_locale_pointers@@@Z 000000018002e71c     libucrt:output.obj
 0002:0000b71c       $unwind$?type_case_Z@?$output_processor@_WV?$string_output_adapter@_W@__crt_stdio_output@@V?$format_validation_base@_WV?$string_output_adapter@_W@__crt_stdio_output@@@2@@__crt_stdio_output@@AEAA_NXZ 000000018002e71c     libucrt:output.obj
 0002:0000b71c       $unwind$?type_case_s@?$output_processor@_WV?$string_output_adapter@_W@__crt_stdio_output@@V?$format_validation_base@_WV?$string_output_adapter@_W@__crt_stdio_output@@@2@@__crt_stdio_output@@AEAA_NXZ 000000018002e71c     libucrt:output.obj
 0002:0000b71c       $unwind$_exception_enabled 000000018002e71c     libucrt:libm_error.obj
 0002:0000b72c       $unwind$??_Estringdispid@CComTypeInfoHolder@ATL@@QEAAPEAXI@Z 000000018002e72c     OposVariant.obj
 0002:0000b72c       $unwind$?AddTermFunc@CAtlModule@ATL@@QEAAJP6AX_K@Z0@Z 000000018002e72c     ToneIndicator.obj
 0002:0000b72c       $unwind$?AtlComModuleRegisterServer@ATL@@YAJPEAU_ATL_COM_MODULE70@1@HPEBU_GUID@@@Z 000000018002e72c     ToneIndicator.obj
 0002:0000b72c       $unwind$?AtlComModuleUnregisterServer@ATL@@YAJPEAU_ATL_COM_MODULE70@1@HPEBU_GUID@@@Z 000000018002e72c     ToneIndicator.obj
 0002:0000b72c       $unwind$?CreateInstance@?$CComCreator@V?$CComAggObject@VCOPOSToneIndicator@@@ATL@@@ATL@@SAJPEAXAEBU_GUID@@PEAPEAX@Z 000000018002e72c     ToneIndicator.obj
 0002:0000b72c       $unwind$?CreateInstance@?$CComCreator@V?$CComObjectCached@VCComClassFactory@ATL@@@ATL@@@ATL@@SAJPEAXAEBU_GUID@@PEAPEAX@Z 000000018002e72c     ToneIndicator.obj
 0002:0000b72c       $unwind$?GetPagesHelper@?$ISpecifyPropertyPagesImpl@VCOPOSToneIndicator@@@ATL@@IEAAJPEAUtagCAUUID@@PEBUATL_PROPMAP_ENTRY@2@@Z 000000018002e72c     ToneIndicator.obj
 0002:0000b72c       $unwind$__GSHandlerCheck_SEH 000000018002e72c     LIBCMT:gshandlerseh.obj
 0002:0000b72c       $unwind$??$TypeMatchHelper@V__FrameHandler3@@@@YAHPEBU_s_HandlerType@@PEBU_s_CatchableType@@PEBU_s_ThrowInfo@@@Z 000000018002e72c     libvcruntime:frame.obj
 0002:0000b72c       $unwind$??$TypeMatchHelper@V__FrameHandler4@@@@YAHPEAUHandlerType4@FH4@@PEBU_s_CatchableType@@PEBU_s_ThrowInfo@@@Z 000000018002e72c     libvcruntime:frame.obj
 0002:0000b72c       $unwind$?initialize_stdio_handles_nolock@@YAXXZ 000000018002e72c     libucrt:ioinit.obj
 0002:0000b72c       $unwind$__acrt_initialize_stdio 000000018002e72c     libucrt:_file.obj
 0002:0000b72c       $unwind$?process@?$output_processor@_WV?$string_output_adapter@_W@__crt_stdio_output@@V?$format_validation_base@_WV?$string_output_adapter@_W@__crt_stdio_output@@@2@@__crt_stdio_output@@QEAAHXZ 000000018002e72c     libucrt:output.obj
 0002:0000b72c       $unwind$?type_case_integer@?$output_processor@_WV?$string_output_adapter@_W@__crt_stdio_output@@V?$format_validation_base@_WV?$string_output_adapter@_W@__crt_stdio_output@@@2@@__crt_stdio_output@@AEAA_NI_N@Z 000000018002e72c     libucrt:output.obj
 0002:0000b744       $unwind$?SetBSTR@OposVariant@@QEAAXPEA_WAEAJ@Z 000000018002e744     OposVariant.obj
 0002:0000b744       $unwind$?SetLONG@OposVariant@@QEAAXJ@Z 000000018002e744     OposVariant.obj
 0002:0000b744       $unwind$?SetVARIANT_BOOL@OposVariant@@QEAAXF@Z 000000018002e744     OposVariant.obj
 0002:0000b744       $unwind$??0?$CComContainedObject@VCOPOSToneIndicator@@@ATL@@QEAA@PEAX@Z 000000018002e744     ToneIndicator.obj
 0002:0000b744       $unwind$??1?$CComEnumImpl@UIEnumConnectionPoints@@$1?_GUID_b196b285_bab4_101a_b69c_00aa00341d07@@3U__s_GUID@@BPEAUIConnectionPoint@@V?$_CopyInterface@UIConnectionPoint@@@ATL@@@ATL@@UEAA@XZ 000000018002e744     ToneIndicator.obj
 0002:0000b744       $unwind$??1?$CComEnumImpl@UIEnumConnections@@$1?_GUID_b196b287_bab4_101a_b69c_00aa00341d07@@3U__s_GUID@@BUtagCONNECTDATA@@V?$_Copy@UtagCONNECTDATA@@@ATL@@@ATL@@UEAA@XZ 000000018002e744     ToneIndicator.obj
 0002:0000b744       $unwind$??_G?$CComAggObject@VCOPOSToneIndicator@@@ATL@@UEAAPEAXI@Z 000000018002e744     ToneIndicator.obj
 0002:0000b744       $unwind$??_G?$CComContainedObject@VCOPOSToneIndicator@@@ATL@@UEAAPEAXI@Z 000000018002e744     ToneIndicator.obj
 0002:0000b744       $unwind$??_G?$CComObject@V?$CComEnum@UIEnumConnectionPoints@@$1?_GUID_b196b285_bab4_101a_b69c_00aa00341d07@@3U__s_GUID@@BPEAUIConnectionPoint@@V?$_CopyInterface@UIConnectionPoint@@@ATL@@VCComSingleThreadModel@6@@ATL@@@ATL@@UEAAPEAXI@Z 000000018002e744     ToneIndicator.obj
 0002:0000b744       $unwind$??_G?$CComObject@V?$CComEnum@UIEnumConnections@@$1?_GUID_b196b287_bab4_101a_b69c_00aa00341d07@@3U__s_GUID@@BUtagCONNECTDATA@@V?$_Copy@UtagCONNECTDATA@@@ATL@@VCComSingleThreadModel@6@@ATL@@@ATL@@UEAAPEAXI@Z 000000018002e744     ToneIndicator.obj
 0002:0000b744       $unwind$??_G?$CComObject@VCOPOSToneIndicator@@@ATL@@UEAAPEAXI@Z 000000018002e744     ToneIndicator.obj
 0002:0000b744       $unwind$??_G?$CComObjectCached@VCComClassFactory@ATL@@@ATL@@UEAAPEAXI@Z 000000018002e744     ToneIndicator.obj
 0002:0000b744       $unwind$??_GCComClassFactory@ATL@@UEAAPEAXI@Z 000000018002e744     ToneIndicator.obj
 0002:0000b744       $unwind$??_GCComModule@ATL@@UEAAPEAXI@Z 000000018002e744     ToneIndicator.obj
 0002:0000b744       $unwind$?DeleteSubKey@CRegKey@ATL@@QEAAJPEB_W@Z 000000018002e744     ToneIndicator.obj
 0002:0000b744       $unwind$?IOleObject_SetClientSite@CComControlBase@ATL@@QEAAJPEAUIOleClientSite@@@Z 000000018002e744     ToneIndicator.obj
 0002:0000b744       $unwind$?InitNew@?$IPersistStorageImpl@VCOPOSToneIndicator@@@ATL@@UEAAJPEAUIStorage@@@Z 000000018002e744     ToneIndicator.obj
 0002:0000b744       $unwind$?IsDirty@?$IPersistStorageImpl@VCOPOSToneIndicator@@@ATL@@UEAAJXZ 000000018002e744     ToneIndicator.obj
 0002:0000b744       $unwind$?Release@?$CComAggObject@VCOPOSToneIndicator@@@ATL@@UEAAKXZ 000000018002e744     ToneIndicator.obj
 0002:0000b744       $unwind$?Release@?$CComObject@V?$CComEnum@UIEnumConnectionPoints@@$1?_GUID_b196b285_bab4_101a_b69c_00aa00341d07@@3U__s_GUID@@BPEAUIConnectionPoint@@V?$_CopyInterface@UIConnectionPoint@@@ATL@@VCComSingleThreadModel@6@@ATL@@@ATL@@UEAAKXZ 000000018002e744     ToneIndicator.obj
 0002:0000b744       $unwind$?Release@?$CComObject@V?$CComEnum@UIEnumConnections@@$1?_GUID_b196b287_bab4_101a_b69c_00aa00341d07@@3U__s_GUID@@BUtagCONNECTDATA@@V?$_Copy@UtagCONNECTDATA@@@ATL@@VCComSingleThreadModel@6@@ATL@@@ATL@@UEAAKXZ 000000018002e744     ToneIndicator.obj
 0002:0000b744       $unwind$?Release@?$CComObject@VCOPOSToneIndicator@@@ATL@@UEAAKXZ 000000018002e744     ToneIndicator.obj
 0002:0000b744       $unwind$?SOOutputComplete@COPOSToneIndicator@@MEAAJJ@Z 000000018002e744     ToneIndicator.obj
 0002:0000b744       $unwind$?SOStatusUpdate@COPOSToneIndicator@@MEAAJJ@Z 000000018002e744     ToneIndicator.obj
 0002:0000b744       $unwind$?SetAdvise@?$IViewObjectExImpl@VCOPOSToneIndicator@@@ATL@@UEAAJKKPEAUIAdviseSink@@@Z 000000018002e744     ToneIndicator.obj
 0002:0000b744       $unwind$?Term@CComModule@ATL@@QEAAXXZ 000000018002e744     ToneIndicator.obj
 0002:0000b744       $unwind$DllMain            000000018002e744     ToneIndicator.obj
 0002:0000b744       $unwind$??1?$IConnectionPointImpl@VCOPOSToneIndicator@@$1?DIID__IOPOSToneIndicatorEvents@@3U_GUID@@BVCComDynamicUnkArray@ATL@@@ATL@@QEAA@XZ 000000018002e744     ToneIndicatorImpl.obj
 0002:0000b744       $unwind$??1?$IConnectionPointImpl@VCOPOSToneIndicator@@$1?IID_IPropertyNotifySink@@3U_GUID@@BVCComDynamicUnkArray@ATL@@@ATL@@QEAA@XZ 000000018002e744     ToneIndicatorImpl.obj
 0002:0000b744       $unwind$??0CAtlBaseModule@ATL@@QEAA@XZ 000000018002e744     atls:atlbase.obj
 0002:0000b744       $unwind$??$GetProcAddressAll@P6AP6A_JPEAUHWND__@@I_K_J@ZPEAUAtlThunkData_t@@@Z@@YAP6AP6A_JPEAUHWND__@@I_K_J@ZPEAUAtlThunkData_t@@@ZPEAP6AP6A_J0I12@Z3@Z@Z 000000018002e744     atls:atlthunk.obj
 0002:0000b744       $unwind$??$GetProcAddressAll@P6APEAUAtlThunkData_t@@XZ@@YAP6APEAUAtlThunkData_t@@XZPEAP6APEAU0@XZ@Z 000000018002e744     atls:atlthunk.obj
 0002:0000b744       $unwind$??$GetProcAddressAll@P6AXPEAUAtlThunkData_t@@@Z@@YAP6AXPEAUAtlThunkData_t@@@ZPEAP6AX0@Z@Z 000000018002e744     atls:atlthunk.obj
 0002:0000b744       $unwind$??$GetProcAddressAll@P6AXPEAUAtlThunkData_t@@PEAX_K@Z@@YAP6AXPEAUAtlThunkData_t@@PEAX_K@ZPEAP6AX012@Z@Z 000000018002e744     atls:atlthunk.obj
 0002:0000b744       $unwind$?__AllocStdCallThunk_cmn@@YAPEAXXZ 000000018002e744     atls:atlthunk.obj
 0002:0000b744       $unwind$?__InitializeThunkPool@@YAHXZ 000000018002e744     atls:atlthunk.obj
 0002:0000b744       $unwind$AtlThunk_DataToCode 000000018002e744     atls:atlthunk.obj
 0002:0000b744       $unwind$_RTC_Initialize    000000018002e744     LIBCMT:initsect.obj
 0002:0000b744       $unwind$_RTC_Terminate     000000018002e744     LIBCMT:initsect.obj
 0002:0000b744       $unwind$?__scrt_initialize_thread_safe_statics@@YAHXZ 000000018002e744     LIBCMT:thread_safe_statics.obj
 0002:0000b744       $unwind$??_Gbad_alloc@std@@UEAAPEAXI@Z 000000018002e744     LIBCMT:throw_bad_alloc.obj
 0002:0000b744       $unwind$??_Gbad_array_new_length@std@@UEAAPEAXI@Z 000000018002e744     LIBCMT:throw_bad_alloc.obj
 0002:0000b744       $unwind$??_Gexception@std@@UEAAPEAXI@Z 000000018002e744     LIBCMT:throw_bad_alloc.obj
 0002:0000b744       $unwind$__FrameUnwindFilter 000000018002e744     libvcruntime:ehhelpers.obj
 0002:0000b744       $unwind$??_Gbad_exception@std@@UEAAPEAXI@Z 000000018002e744     libvcruntime:frame.obj
 0002:0000b744       $unwind$?ExFilterRethrowFH4@@YAHPEAU_EXCEPTION_POINTERS@@PEAUEHExceptionRecord@@HPEAH@Z 000000018002e744     libvcruntime:frame.obj
 0002:0000b744       $unwind$_FindAndUnlinkFrame 000000018002e744     libvcruntime:risctrnsctrl.obj
 0002:0000b744       $unwind$__vcrt_FlsSetValue 000000018002e744     libvcruntime:winapi_downlevel.obj
 0002:0000b744       $unwind$??$common_initialize_environment_nolock@D@@YAHXZ 000000018002e744     libucrt:environment_initialization.obj
 0002:0000b744       $unwind$_realloc_base      000000018002e744     libucrt:realloc_base.obj
 0002:0000b744       $unwind$?replace_current_thread_locale_nolock@@YAXQEAU__acrt_ptd@@QEAU__crt_locale_data@@@Z 000000018002e744     libucrt:per_thread_data.obj
 0002:0000b744       $unwind$__acrt_execute_uninitializers 000000018002e744     libucrt:shared_initialization.obj
 0002:0000b744       $unwind$__acrt_FlsSetValue 000000018002e744     libucrt:winapi_thunks.obj
 0002:0000b744       $unwind$__acrt_LocaleNameToLCID 000000018002e744     libucrt:winapi_thunks.obj
 0002:0000b744       $unwind$_updatetlocinfoEx_nolock 000000018002e744     libucrt:locale_refcounting.obj
 0002:0000b744       $unwind$_close_nolock      000000018002e744     libucrt:close.obj
 0002:0000b744       $unwind$__acrt_uninitialize_lowio 000000018002e744     libucrt:ioinit.obj
 0002:0000b744       $unwind$__acrt_errno_map_os_error 000000018002e744     libucrt:errno.obj
 0002:0000b744       $unwind$_initterm_e        000000018002e744     libucrt:initterm.obj
 0002:0000b744       $unwind$_fclose_nolock     000000018002e744     libucrt:fclose.obj
 0002:0000b744       $unwind$?type_case_n@?$output_processor@_WV?$string_output_adapter@_W@__crt_stdio_output@@V?$format_validation_base@_WV?$string_output_adapter@_W@__crt_stdio_output@@@2@@__crt_stdio_output@@AEAA_NXZ 000000018002e744     libucrt:output.obj
 0002:0000b744       $unwind$strncpy_s          000000018002e744     libucrt:strncpy_s.obj
 0002:0000b744       $unwind$wcsncpy_s          000000018002e744     libucrt:wcsncpy_s.obj
 0002:0000b750       $unwind$?ChangeBSTR@OposVariant@@QEAAXPEAPEA_WAEAJ@Z 000000018002e750     OposVariant.obj
 0002:0000b750       $unwind$?ChangeLONG@OposVariant@@QEAAXPEAJAEAJ@Z 000000018002e750     OposVariant.obj
 0002:0000b750       $unwind$?x_ismbbtype_l@@YAHPEAU__crt_locale_pointers@@IHH@Z 000000018002e750     libucrt:ismbbyte.obj
 0002:0000b760       $unwind$swprintf_s         000000018002e760     ToneIndicator.obj
 0002:0000b770       $unwind$?_AtlVerifyStackAvailable@_ATL_SAFE_ALLOCA_IMPL@ATL@@YA_N_K@Z 000000018002e770     ToneIndicator.obj
 0002:0000b79c       $unwind$?filt$0@?0??_AtlVerifyStackAvailable@_ATL_SAFE_ALLOCA_IMPL@ATL@@YA_N_K@Z@4HA 000000018002e79c     ToneIndicator.obj
 0002:0000b79c       $unwind$?fin$0@?0??dllmain_crt_process_attach@@YAHQEAUHINSTANCE__@@QEAX@Z@4HA 000000018002e79c     LIBCMT:dll_dllmain.obj
 0002:0000b79c       $unwind$?fin$0@?0??dllmain_crt_process_detach@@YAH_N@Z@4HA 000000018002e79c     LIBCMT:dll_dllmain.obj
 0002:0000b79c       $unwind$?fin$1@?0??dllmain_crt_process_detach@@YAH_N@Z@4HA 000000018002e79c     LIBCMT:dll_dllmain.obj
 0002:0000b79c       $unwind$_IsNonwritableInCurrentImage$filt$0 000000018002e79c     LIBCMT:pesect.obj
 0002:0000b79c       $unwind$?filt$0@?0??CxxCallCatchBlock@__FrameHandler4@@SAPEAXPEAU_EXCEPTION_RECORD@@@Z@4HA 000000018002e79c     libvcruntime:frame.obj
 0002:0000b79c       $unwind$_query_new_handler$fin$0 000000018002e79c     libucrt:new_handler.obj
 0002:0000b79c       $unwind$?fin$0@?0???$?RV<lambda_0ae27a3a962d80f24befdcbee591983d>@@AEAV<lambda_8d0ee55de4b1038c4002e0adecdf1839>@@V<lambda_dc504788e8f1664fe9b84e20bfb512f2>@@@?$__crt_seh_guarded_call@X@@QEAAX$$QEAV<lambda_0ae27a3a962d80f24befdcbee591983d>@@AEAV<lambda_8d0ee55de4b1038c4002e0adecdf1839>@@$$QEAV<lambda_dc504788e8f1664fe9b84e20bfb512f2>@@@Z@4HA 000000018002e79c     libucrt:per_thread_data.obj
 0002:0000b79c       $unwind$?fin$0@?0???$?RV<lambda_2d41944a1d46af3157314b8a01080d33>@@AEAV<lambda_8f455de75cd7d7f24b4096f044d8b9e6>@@V<lambda_aa500f224e6afead328df44964fe2772>@@@?$__crt_seh_guarded_call@X@@QEAAX$$QEAV<lambda_2d41944a1d46af3157314b8a01080d33>@@AEAV<lambda_8f455de75cd7d7f24b4096f044d8b9e6>@@$$QEAV<lambda_aa500f224e6afead328df44964fe2772>@@@Z@4HA 000000018002e79c     libucrt:per_thread_data.obj
 0002:0000b79c       $unwind$?fin$0@?0???$?RV<lambda_aa87e3671a710a21b5dc78c0bdf72e11>@@AEAV<lambda_92619d2358a28f41a33ba319515a20b9>@@V<lambda_6992ecaafeb10aed2b74cb1fae11a551>@@@?$__crt_seh_guarded_call@X@@QEAAX$$QEAV<lambda_aa87e3671a710a21b5dc78c0bdf72e11>@@AEAV<lambda_92619d2358a28f41a33ba319515a20b9>@@$$QEAV<lambda_6992ecaafeb10aed2b74cb1fae11a551>@@@Z@4HA 000000018002e79c     libucrt:per_thread_data.obj
 0002:0000b79c       $unwind$?fin$0@?0???$?RV<lambda_f2e299630e499de9f9a165e60fcd3db5>@@AEAV<lambda_2ae9d31cdba2644fcbeaf08da7c24588>@@V<lambda_40d01ff24d0e7b3814fdbdcee8eab3c7>@@@?$__crt_seh_guarded_call@X@@QEAAX$$QEAV<lambda_f2e299630e499de9f9a165e60fcd3db5>@@AEAV<lambda_2ae9d31cdba2644fcbeaf08da7c24588>@@$$QEAV<lambda_40d01ff24d0e7b3814fdbdcee8eab3c7>@@@Z@4HA 000000018002e79c     libucrt:per_thread_data.obj
 0002:0000b79c       $unwind$__acrt_update_thread_locale_data$fin$0 000000018002e79c     libucrt:locale_refcounting.obj
 0002:0000b79c       $unwind$?fin$0@?0???$?RV<lambda_410d79af7f07d98d83a3f525b3859a53>@@AEAV<lambda_3e16ef9562a7dcce91392c22ab16ea36>@@V<lambda_38119f0e861e05405d8a144b9b982f0a>@@@?$__crt_seh_guarded_call@X@@QEAAX$$QEAV<lambda_410d79af7f07d98d83a3f525b3859a53>@@AEAV<lambda_3e16ef9562a7dcce91392c22ab16ea36>@@$$QEAV<lambda_38119f0e861e05405d8a144b9b982f0a>@@@Z@4HA 000000018002e79c     libucrt:wsetlocale.obj
 0002:0000b79c       $unwind$?fin$0@?0???$?RV<lambda_751a882b2c74d4b022dec766aa51a29a>@@AEAV<lambda_628dfdc04ba53c8bfc02c9951375f3f5>@@V<lambda_f6c7be5f7998530c34de24c7437d6b54>@@@?$__crt_seh_guarded_call@H@@QEAAH$$QEAV<lambda_751a882b2c74d4b022dec766aa51a29a>@@AEAV<lambda_628dfdc04ba53c8bfc02c9951375f3f5>@@$$QEAV<lambda_f6c7be5f7998530c34de24c7437d6b54>@@@Z@4HA 000000018002e79c     libucrt:close.obj
 0002:0000b79c       $unwind$?fin$0@?0???$?RV<lambda_a37b2b86f63e897a80ea819b0eb08c01>@@AEAV<lambda_38ce7e780aa69e748d6df282ebc68efe>@@V<lambda_99fb1378e971ab6e7edea83e3a7a83a2>@@@?$__crt_seh_guarded_call@H@@QEAAH$$QEAV<lambda_a37b2b86f63e897a80ea819b0eb08c01>@@AEAV<lambda_38ce7e780aa69e748d6df282ebc68efe>@@$$QEAV<lambda_99fb1378e971ab6e7edea83e3a7a83a2>@@@Z@4HA 000000018002e79c     libucrt:commit.obj
 0002:0000b79c       $unwind$__acrt_initialize_lowio$fin$0 000000018002e79c     libucrt:ioinit.obj
 0002:0000b79c       $unwind$__acrt_lowio_ensure_fh_exists$fin$0 000000018002e79c     libucrt:osfinfo.obj
 0002:0000b79c       $unwind$_write$fin$0       000000018002e79c     libucrt:write.obj
 0002:0000b79c       $unwind$?fin$0@?0???$?RV<lambda_efdfa57d1f175319df784efa44bb7b81>@@AEAV<lambda_5f0a4c1567f8adc6734073e5d1e1b35c>@@V<lambda_2e8a7d3640ea6ccb4c2413664c2db6fd>@@@?$__crt_seh_guarded_call@X@@QEAAX$$QEAV<lambda_efdfa57d1f175319df784efa44bb7b81>@@AEAV<lambda_5f0a4c1567f8adc6734073e5d1e1b35c>@@$$QEAV<lambda_2e8a7d3640ea6ccb4c2413664c2db6fd>@@@Z@4HA 000000018002e79c     libucrt:mbctype.obj
 0002:0000b79c       $unwind$?fin$0@?0??update_thread_multibyte_data_internal@@YAPEAU__crt_multibyte_data@@QEAU__acrt_ptd@@QEAPEAU1@@Z@4HA 000000018002e79c     libucrt:mbctype.obj
 0002:0000b79c       $unwind$?fin$0@?0???$?RV<lambda_450d765d439847d4c735a33c368b5fc0>@@AEAV<lambda_44731a7d0e6d81c3e6aa82d741081786>@@V<lambda_601a2a7da3b7a96e9554ac7215c4b07c>@@@?$__crt_seh_guarded_call@P6AXH@Z@@QEAAP6AXH@Z$$QEAV<lambda_450d765d439847d4c735a33c368b5fc0>@@AEAV<lambda_44731a7d0e6d81c3e6aa82d741081786>@@$$QEAV<lambda_601a2a7da3b7a96e9554ac7215c4b07c>@@@Z@4HA 000000018002e79c     libucrt:signal.obj
 0002:0000b79c       $unwind$raise$fin$0        000000018002e79c     libucrt:signal.obj
 0002:0000b79c       $unwind$?filt$0@?0???R<lambda_6e4b09c48022b2350581041d5f6b0c4c>@@QEBA@XZ@4HA 000000018002e79c     libucrt:exit.obj
 0002:0000b79c       $unwind$?fin$0@?0???$?RV<lambda_d80eeec6fff315bfe5c115232f3240e3>@@AEAV<lambda_6e4b09c48022b2350581041d5f6b0c4c>@@V<lambda_2358e3775559c9db80273638284d5e45>@@@?$__crt_seh_guarded_call@X@@QEAAX$$QEAV<lambda_d80eeec6fff315bfe5c115232f3240e3>@@AEAV<lambda_6e4b09c48022b2350581041d5f6b0c4c>@@$$QEAV<lambda_2358e3775559c9db80273638284d5e45>@@@Z@4HA 000000018002e79c     libucrt:exit.obj
 0002:0000b79c       $unwind$?fin$0@?0???$?RV<lambda_638799b9deba96c50f710eeac98168cd>@@AEAV<lambda_22ebabd17bc4fa466a2aca6d8deb888d>@@V<lambda_a6f7d7db0129f75315ebf26d50c089f1>@@@?$__crt_seh_guarded_call@H@@QEAAH$$QEAV<lambda_638799b9deba96c50f710eeac98168cd>@@AEAV<lambda_22ebabd17bc4fa466a2aca6d8deb888d>@@$$QEAV<lambda_a6f7d7db0129f75315ebf26d50c089f1>@@@Z@4HA 000000018002e79c     libucrt:onexit.obj
 0002:0000b79c       $unwind$?fin$0@?0???$?RV<lambda_7777bce6b2f8c936911f934f8298dc43>@@AEAV<lambda_f03950bc5685219e0bcd2087efbe011e>@@V<lambda_3883c3dff614d5e0c5f61bb1ac94921c>@@@?$__crt_seh_guarded_call@H@@QEAAH$$QEAV<lambda_7777bce6b2f8c936911f934f8298dc43>@@AEAV<lambda_f03950bc5685219e0bcd2087efbe011e>@@$$QEAV<lambda_3883c3dff614d5e0c5f61bb1ac94921c>@@@Z@4HA 000000018002e79c     libucrt:onexit.obj
 0002:0000b79c       $unwind$_fcloseall$fin$0   000000018002e79c     libucrt:closeall.obj
 0002:0000b79c       $unwind$fclose$fin$0       000000018002e79c     libucrt:fclose.obj
 0002:0000b79c       $unwind$?fin$0@?0???$?RV<lambda_842d9ff0dc9ef11c61343bbaebe7f885>@@AEAV<lambda_c5860995281e5c4ce005b3de8f5874ee>@@V<lambda_d90129c13df834fdcbf8d2b88dafcf2d>@@@?$__crt_seh_guarded_call@X@@QEAAX$$QEAV<lambda_842d9ff0dc9ef11c61343bbaebe7f885>@@AEAV<lambda_c5860995281e5c4ce005b3de8f5874ee>@@$$QEAV<lambda_d90129c13df834fdcbf8d2b88dafcf2d>@@@Z@4HA 000000018002e79c     libucrt:fflush.obj
 0002:0000b79c       $unwind$?fin$0@?0???$?RV<lambda_886d6c58226a84441f68b9f2b8217b83>@@AEAV<lambda_ab61a845afdef5b7c387490eaf3616ee>@@V<lambda_f7f22ab5edc0698d5f6905b0d3f44752>@@@?$__crt_seh_guarded_call@X@@QEAAX$$QEAV<lambda_886d6c58226a84441f68b9f2b8217b83>@@AEAV<lambda_ab61a845afdef5b7c387490eaf3616ee>@@$$QEAV<lambda_f7f22ab5edc0698d5f6905b0d3f44752>@@@Z@4HA 000000018002e79c     libucrt:fflush.obj
 0002:0000b79c       $unwind$_ctrlfp$filt$0     000000018002e79c     libucrt:fpctrl.obj
 0002:0000b79c       $unwind$common_control87$filt$0 000000018002e79c     libucrt:ieee.obj
 0002:0000b7a4       $unwind$?AtlInternalOleLoadFromStream@ATL@@YAJPEAUIStream@@AEBU_GUID@@PEAPEAXTClassesAllowedInStream@1@K@Z 000000018002e7a4     ToneIndicator.obj
 0002:0000b7c0       $unwind$?ReadFromStream@CComBSTR@ATL@@QEAAJPEAUIStream@@@Z 000000018002e7c0     ToneIndicator.obj
 0002:0000b7c0       $unwind$_configure_narrow_argv 000000018002e7c0     libucrt:argv_parsing.obj
 0002:0000b7d4       $unwind$?WriteToStream@CComVariant@ATL@@QEAAJPEAUIStream@@@Z 000000018002e7d4     ToneIndicator.obj
 0002:0000b7e8       $unwind$?RegOpenKeyExW@CAtlTransactionManager@ATL@@QEAAJPEAUHKEY__@@PEB_WKKPEAPEAU3@@Z 000000018002e7e8     ToneIndicator.obj
 0002:0000b7e8       $unwind$?WriteToStream@CComVariant@ATL@@QEAAJPEAUIStream@@G@Z 000000018002e7e8     ToneIndicator.obj
 0002:0000b7e8       $unwind$__dcrt_write_console 000000018002e7e8     libucrt:initcon.obj
 0002:0000b7e8       $unwind$??$__acrt_wcs_to_mbs_cp@U__crt_win32_buffer_no_resizing@@@@YAHQEB_WAEAV?$__crt_win32_buffer@DU__crt_win32_buffer_no_resizing@@@@I@Z 000000018002e7e8     libucrt:getmodulefilenamea.obj
 0002:0000b7fc       $unwind$?ReadFromStream@CComVariant@ATL@@QEAAJPEAUIStream@@GTClassesAllowedInStream@2@K@Z 000000018002e7fc     ToneIndicator.obj
 0002:0000b814       $unwind$?GetSizeMax@CComVariant@ATL@@QEBAJPEAT_ULARGE_INTEGER@@@Z 000000018002e814     ToneIndicator.obj
 0002:0000b82c       $unwind$?RegCreateKeyExW@CAtlTransactionManager@ATL@@QEAAJPEAUHKEY__@@PEB_WKPEA_WKKQEAU_SECURITY_ATTRIBUTES@@PEAPEAU3@PEAK@Z 000000018002e82c     ToneIndicator.obj
 0002:0000b840       $unwind$?GetGITPtr@CAtlModule@ATL@@UEAAJPEAPEAUIGlobalInterfaceTable@@@Z 000000018002e840     ToneIndicator.obj
 0002:0000b840       $unwind$?RegDeleteKeyW@CAtlTransactionManager@ATL@@QEAAJPEAUHKEY__@@PEB_W@Z 000000018002e840     ToneIndicator.obj
 0002:0000b840       $unwind$?getStateFromIterators@UWMap4@FH4@@SAHAEBViterator@12@H0H0@Z 000000018002e840     libvcruntime:frame.obj
 0002:0000b850       $unwind$?AtlHiMetricToPixel@ATL@@YAXPEBUtagSIZE@@PEAU2@@Z 000000018002e850     ToneIndicator.obj
 0002:0000b850       $unwind$?AtlInternalQueryInterface@ATL@@YAJPEAXPEBU_ATL_INTMAP_ENTRY@1@AEBU_GUID@@PEAPEAX@Z 000000018002e850     ToneIndicator.obj
 0002:0000b868       $unwind$?Append@CParseBuffer@CRegParser@ATL@@QEAAHPEB_WH@Z 000000018002e868     ToneIndicator.obj
 0002:0000b868       $unwind$?AtlComModuleGetClassObject@ATL@@YAJPEAU_ATL_COM_MODULE70@1@AEBU_GUID@@1PEAPEAX@Z 000000018002e868     ToneIndicator.obj
 0002:0000b868       $unwind$?EnumConnections@?$IConnectionPointImpl@VCOPOSToneIndicator@@$1?DIID__IOPOSToneIndicatorEvents@@3U_GUID@@BVCComDynamicUnkArray@ATL@@@ATL@@UEAAJPEAPEAUIEnumConnections@@@Z 000000018002e868     ToneIndicator.obj
 0002:0000b868       $unwind$?EnumConnections@?$IConnectionPointImpl@VCOPOSToneIndicator@@$1?IID_IPropertyNotifySink@@3U_GUID@@BVCComDynamicUnkArray@ATL@@@ATL@@UEAAJPEAPEAUIEnumConnections@@@Z 000000018002e868     ToneIndicator.obj
 0002:0000b868       $unwind$?GetClassObject@CComModule@ATL@@QEAAJAEBU_GUID@@0PEAPEAX@Z 000000018002e868     ToneIndicator.obj
 0002:0000b868       $unwind$?Init@?$CComEnumImpl@UIEnumConnectionPoints@@$1?_GUID_b196b285_bab4_101a_b69c_00aa00341d07@@3U__s_GUID@@BPEAUIConnectionPoint@@V?$_CopyInterface@UIConnectionPoint@@@ATL@@@ATL@@QEAAJPEAPEAUIConnectionPoint@@0PEAUIUnknown@@W4CComEnumFlags@2@@Z 000000018002e868     ToneIndicator.obj
 0002:0000b868       $unwind$?Init@?$CComEnumImpl@UIEnumConnections@@$1?_GUID_b196b287_bab4_101a_b69c_00aa00341d07@@3U__s_GUID@@BUtagCONNECTDATA@@V?$_Copy@UtagCONNECTDATA@@@ATL@@@ATL@@QEAAJPEAUtagCONNECTDATA@@0PEAUIUnknown@@W4CComEnumFlags@2@@Z 000000018002e868     ToneIndicator.obj
 0002:0000b868       $unwind$?NextToken@CRegParser@ATL@@IEAAJPEA_W@Z 000000018002e868     ToneIndicator.obj
 0002:0000b868       $unwind$__acrt_fp_strflt_to_string 000000018002e868     libucrt:_fptostr.obj
 0002:0000b868       $unwind$__acrt_DownlevelLocaleNameToLCID 000000018002e868     libucrt:lcidtoname_downlevel.obj
 0002:0000b868       $unwind$??R<lambda_f03950bc5685219e0bcd2087efbe011e>@@QEBAHXZ 000000018002e868     libucrt:onexit.obj
 0002:0000b880       $unwind$?AtlRegisterClassCategoriesHelper@ATL@@YAJAEBU_GUID@@PEBU_ATL_CATMAP_ENTRY@1@H@Z 000000018002e880     ToneIndicator.obj
 0002:0000b8a4       $unwind$?AtlLoadTypeLib@ATL@@YAJPEAUHINSTANCE__@@PEB_WPEAPEA_WPEAPEAUITypeLib@@@Z 000000018002e8a4     ToneIndicator.obj
 0002:0000b8c4       $unwind$?AtlRegisterTypeLib@ATL@@YAJPEAUHINSTANCE__@@PEB_W@Z 000000018002e8c4     ToneIndicator.obj
 0002:0000b8e0       $unwind$?AtlUnRegisterTypeLib@ATL@@YAJPEAUHINSTANCE__@@PEB_W@Z 000000018002e8e0     ToneIndicator.obj
 0002:0000b8e8       $unwind$?GetTI@CComTypeInfoHolder@ATL@@QEAAJK@Z 000000018002e8e8     ToneIndicator.obj
 0002:0000b8e8       $unwind$?RecurseDeleteKey@CRegKey@ATL@@QEAAJPEB_W@Z 000000018002e8e8     ToneIndicator.obj
 0002:0000b908       $unwind$?UpdateRegistryFromResource@CAtlModule@ATL@@QEAAJIHPEAU_ATL_REGMAP_ENTRY@2@@Z 000000018002e908     ToneIndicator.obj
 0002:0000b908       $unwind$?UpdateRegistryFromResource@CAtlModule@ATL@@QEAAJPEB_WHPEAU_ATL_REGMAP_ENTRY@2@@Z 000000018002e908     ToneIndicator.obj
 0002:0000b928       $unwind$?Lookup@?$CSimpleMap@PEA_WPEA_WVCExpansionVectorEqualHelper@ATL@@@ATL@@QEBAPEA_WAEBQEA_W@Z 000000018002e928     ToneIndicator.obj
 0002:0000b928       $unwind$__std_exception_copy 000000018002e928     libvcruntime:std_exception.obj
 0002:0000b928       $unwind$_free_osfhnd       000000018002e928     libucrt:osfinfo.obj
 0002:0000b93c       $unwind$?Add@CExpansionVector@ATL@@QEAAHPEB_W0@Z 000000018002e93c     ToneIndicator.obj
 0002:0000b954       $unwind$?PreProcessBuffer@CRegParser@ATL@@QEAAJPEA_WPEAPEA_W@Z 000000018002e954     ToneIndicator.obj
 0002:0000b978       $unwind$?RegisterBuffer@CRegParser@ATL@@QEAAJPEA_WH@Z 000000018002e978     ToneIndicator.obj
 0002:0000b998       $unwind$?AddValue@CRegParser@ATL@@IEAAJAEAVCRegKey@2@PEB_WPEA_W@Z 000000018002e998     ToneIndicator.obj
 0002:0000b9b8       $unwind$?RegisterSubkeys@CRegParser@ATL@@IEAAJPEA_WPEAUHKEY__@@HH@Z 000000018002e9b8     ToneIndicator.obj
 0002:0000b9d8       $unwind$?SkipAssignment@CRegParser@ATL@@IEAAJPEA_W@Z 000000018002e9d8     ToneIndicator.obj
 0002:0000b9f0       $unwind$?RegisterFromResource@CRegObject@ATL@@IEAAJPEB_W00H@Z 000000018002e9f0     ToneIndicator.obj
 0002:0000ba10       $unwind$?Cleanup@CComTypeInfoHolder@ATL@@SAX_K@Z 000000018002ea10     ToneIndicator.obj
 0002:0000ba10       $unwind$AtlThunk_FreeData  000000018002ea10     atls:atlthunk.obj
 0002:0000ba10       $unwind$_free_base         000000018002ea10     libucrt:free_base.obj
 0002:0000ba10       $unwind$?destroy_fls@@YAXPEAX@Z 000000018002ea10     libucrt:per_thread_data.obj
 0002:0000ba10       $unwind$__acrt_locale_free_numeric 000000018002ea10     libucrt:initnum.obj
 0002:0000ba10       $unwind$__acrt_locale_free_lc_time_if_unreferenced 000000018002ea10     libucrt:locale_refcounting.obj
 0002:0000ba18       $unwind$?GetIDsOfNames@CComTypeInfoHolder@ATL@@QEAAJAEBU_GUID@@PEAPEA_WIKPEAJ@Z 000000018002ea18     ToneIndicator.obj
 0002:0000ba34       $unwind$?LoadNameCache@CComTypeInfoHolder@ATL@@QEAAJPEAUITypeInfo@@@Z 000000018002ea34     ToneIndicator.obj
 0002:0000ba48       $unwind$?StartWindowProc@?$CWindowImplBaseT@VCWindow@ATL@@V?$CWinTraits@$0FGAAAAAA@$0A@@2@@ATL@@SA_JPEAUHWND__@@I_K_J@Z 000000018002ea48     ToneIndicator.obj
 0002:0000ba48       $unwind$?should_round_up@@YA_NQEBN_KFW4__acrt_rounding_mode@@@Z 000000018002ea48     libucrt:cvt.obj
 0002:0000ba48       $unwind$??$parse_command_line@D@@YAXPEADPEAPEAD0PEA_K2@Z 000000018002ea48     libucrt:argv_parsing.obj
 0002:0000ba64       $unwind$?WindowProc@?$CWindowImplBaseT@VCWindow@ATL@@V?$CWinTraits@$0FGAAAAAA@$0A@@2@@ATL@@SA_JPEAUHWND__@@I_K_J@Z 000000018002ea64     ToneIndicator.obj
 0002:0000ba7c       $unwind$?atlCreate@?$CWindowImplBaseT@VCWindow@ATL@@V?$CWinTraits@$0FGAAAAAA@$0A@@2@@ATL@@QEAAPEAUHWND__@@PEAU3@V_U_RECT@2@PEB_WKKV_U_MENUorID@2@GPEAX@Z 000000018002ea7c     ToneIndicator.obj
 0002:0000ba94       $unwind$??$AtlModuleRegisterWndClassInfoT@VAtlModuleRegisterWndClassInfoParamW@ATL@@@ATL@@YAGPEAU_ATL_BASE_MODULE70@0@PEAU_ATL_WIN_MODULE70@0@PEAU_ATL_WNDCLASSINFOW@0@PEAP6A_JPEAUHWND__@@I_K_J@ZVAtlModuleRegisterWndClassInfoParamW@0@@Z 000000018002ea94     ToneIndicator.obj
 0002:0000bab4       $unwind$?GetZoomInfo@CComControlBase@ATL@@QEAAXAEAUATL_DRAWINFO@@@Z 000000018002eab4     ToneIndicator.obj
 0002:0000bab4       $unwind$?OnKillFocus@CComControlBase@ATL@@QEAA_JI_K_JAEAH@Z 000000018002eab4     ToneIndicator.obj
 0002:0000bab4       $unwind$iswctype           000000018002eab4     libucrt:iswctype.obj
 0002:0000bac0       $unwind$?SendOnDataChange@CComControlBase@ATL@@QEAAJK@Z 000000018002eac0     ToneIndicator.obj
 0002:0000bad0       $unwind$?OnSetFocus@CComControlBase@ATL@@QEAA_JI_K_JAEAH@Z 000000018002ead0     ToneIndicator.obj
 0002:0000bae0       $unwind$?OnMouseActivate@CComControlBase@ATL@@QEAA_JI_K_JAEAH@Z 000000018002eae0     ToneIndicator.obj
 0002:0000bae8       $unwind$?GetAmbientLocaleID@CComControlBase@ATL@@QEAAJAEAK@Z 000000018002eae8     ToneIndicator.obj
 0002:0000bae8       $unwind$?GetAmbientUserMode@CComControlBase@ATL@@QEAAJAEAH@Z 000000018002eae8     ToneIndicator.obj
 0002:0000baf8       $unwind$?IQuickActivate_QuickActivate@CComControlBase@ATL@@QEAAJPEAUtagQACONTAINER@@PEAUtagQACONTROL@@@Z 000000018002eaf8     ToneIndicator.obj
 0002:0000bb10       $unwind$?DoVerbProperties@CComControlBase@ATL@@QEAAJPEBUtagRECT@@PEAUHWND__@@@Z 000000018002eb10     ToneIndicator.obj
 0002:0000bb28       $unwind$?InPlaceActivate@CComControlBase@ATL@@QEAAJJPEBUtagRECT@@@Z 000000018002eb28     ToneIndicator.obj
 0002:0000bb48       $unwind$?IOleObject_Close@CComControlBase@ATL@@QEAAJK@Z 000000018002eb48     ToneIndicator.obj
 0002:0000bb48       $unwind$?type_case_c_tchar@?$output_processor@_WV?$string_output_adapter@_W@__crt_stdio_output@@V?$format_validation_base@_WV?$string_output_adapter@_W@__crt_stdio_output@@@2@@__crt_stdio_output@@AEAA_N_W@Z 000000018002eb48     libucrt:output.obj
 0002:0000bb58       $unwind$?IOleInPlaceObject_UIDeactivate@CComControlBase@ATL@@QEAAJXZ 000000018002eb58     ToneIndicator.obj
 0002:0000bb70       $unwind$?IOleInPlaceObject_SetObjectRects@CComControlBase@ATL@@QEAAJPEBUtagRECT@@0@Z 000000018002eb70     ToneIndicator.obj
 0002:0000bb84       $unwind$?IViewObject_Draw@CComControlBase@ATL@@QEAAJKJPEAXPEAUtagDVTARGETDEVICE@@PEAUHDC__@@2PEBU_RECTL@@3@Z 000000018002eb84     ToneIndicator.obj
 0002:0000bba0       $unwind$?IDataObject_GetData@CComControlBase@ATL@@QEAAJPEAUtagFORMATETC@@PEAUtagSTGMEDIUM@@@Z 000000018002eba0     ToneIndicator.obj
 0002:0000bbc0       $unwind$?OnPaint@CComControlBase@ATL@@QEAA_JI_K_JAEAH@Z 000000018002ebc0     ToneIndicator.obj
 0002:0000bbdc       $unwind$?OnDrawAdvanced@CComControlBase@ATL@@UEAAJAEAUATL_DRAWINFO@@@Z 000000018002ebdc     ToneIndicator.obj
 0002:0000bbf8       $unwind$?Invoke@?$IDispatchImpl@UIOPOSToneIndicator@@$1?IID_IOPOSToneIndicator@@3U_GUID@@B$1?LIBID_OposToneIndicator_CCO@@3U3@B$00$0A@VCComTypeInfoHolder@ATL@@@ATL@@UEAAJJAEBU_GUID@@KGPEAUtagDISPPARAMS@@PEAUtagVARIANT@@PEAUtagEXCEPINFO@@PEAI@Z 000000018002ebf8     ToneIndicator.obj
 0002:0000bbf8       $unwind$_mbsdec_l          000000018002ebf8     libucrt:mbsdec.obj
 0002:0000bc04       $unwind$?atlCreate@?$CWindowImpl@VCOPOSToneIndicator@@VCWindow@ATL@@V?$CWinTraits@$0FGAAAAAA@$0A@@3@@ATL@@QEAAPEAUHWND__@@PEAU3@V_U_RECT@2@PEB_WKKV_U_MENUorID@2@PEAX@Z 000000018002ec04     ToneIndicator.obj
 0002:0000bc04       $unwind$?fp_format_e@@YAHQEBNQEAD_K12H_NIQEAU__crt_locale_pointers@@W4__acrt_rounding_mode@@@Z 000000018002ec04     libucrt:cvt.obj
 0002:0000bc04       $unwind$_mbtowc_l          000000018002ec04     libucrt:mbtowc.obj
 0002:0000bc04       $unwind$__acrt_LCMapStringEx 000000018002ec04     libucrt:winapi_thunks.obj
 0002:0000bc18       $unwind$?CreateControlWindow@?$CComControl@VCOPOSToneIndicator@@V?$CWindowImpl@VCOPOSToneIndicator@@VCWindow@ATL@@V?$CWinTraits@$0FGAAAAAA@$0A@@3@@ATL@@@ATL@@UEAAPEAUHWND__@@PEAU3@AEAUtagRECT@@@Z 000000018002ec18     ToneIndicator.obj
 0002:0000bc18       $unwind$?ClearOutput@COPOSToneIndicator@@UEAAJPEAJ@Z 000000018002ec18     ToneIndicatorImpl.obj
 0002:0000bc18       $unwind$?ReleaseDevice@COPOSToneIndicator@@UEAAJPEAJ@Z 000000018002ec18     ToneIndicatorImpl.obj
 0002:0000bc18       $unwind$?SoundImmediate@COPOSToneIndicator@@UEAAJPEAJ@Z 000000018002ec18     ToneIndicatorImpl.obj
 0002:0000bc18       $unwind$?__scrt_throw_std_bad_alloc@@YAXXZ 000000018002ec18     LIBCMT:throw_bad_alloc.obj
 0002:0000bc18       $unwind$?__scrt_throw_std_bad_array_new_length@@YAXXZ 000000018002ec18     LIBCMT:throw_bad_alloc.obj
 0002:0000bc18       $unwind$_raise_exc         000000018002ec18     libucrt:fpexcept.obj
 0002:0000bc20       $unwind$?GetSizeMax@?$IPersistStreamInitImpl@VCOPOSToneIndicator@@@ATL@@UEAAJPEAT_ULARGE_INTEGER@@@Z 000000018002ec20     ToneIndicator.obj
 0002:0000bc38       $unwind$?IPersistStreamInit_Load@?$IPersistStreamInitImpl@VCOPOSToneIndicator@@@ATL@@QEAAJPEAUIStream@@PEBUATL_PROPMAP_ENTRY@2@@Z 000000018002ec38     ToneIndicator.obj
 0002:0000bc54       $unwind$?IPersistStreamInit_Save@?$IPersistStreamInitImpl@VCOPOSToneIndicator@@@ATL@@QEAAJPEAUIStream@@HPEBUATL_PROPMAP_ENTRY@2@@Z 000000018002ec54     ToneIndicator.obj
 0002:0000bc70       $unwind$?DoVerbPrimary@?$IOleObjectImpl@VCOPOSToneIndicator@@@ATL@@QEAAJPEBUtagRECT@@PEAUHWND__@@@Z 000000018002ec70     ToneIndicator.obj
 0002:0000bc70       $unwind$?Sound@COPOSToneIndicator@@UEAAJJJPEAJ@Z 000000018002ec70     ToneIndicatorImpl.obj
 0002:0000bc88       $unwind$?TranslateAcceleratorW@?$IOleInPlaceActiveObjectImpl@VCOPOSToneIndicator@@@ATL@@UEAAJPEAUtagMSG@@@Z 000000018002ec88     ToneIndicator.obj
 0002:0000bc94       $unwind$?Draw@?$IViewObjectExImpl@VCOPOSToneIndicator@@@ATL@@UEAAJKJPEAXPEAUtagDVTARGETDEVICE@@PEAUHDC__@@2PEBU_RECTL@@3P6AH_K@Z4@Z 000000018002ec94     ToneIndicator.obj
 0002:0000bc9c       $unwind$?QueryHitRect@?$IViewObjectExImpl@VCOPOSToneIndicator@@@ATL@@UEAAJKPEBUtagRECT@@0JPEAK@Z 000000018002ec9c     ToneIndicator.obj
 0002:0000bcac       $unwind$?OnWindowMessage@?$IOleInPlaceObjectWindowlessImpl@VCOPOSToneIndicator@@@ATL@@UEAAJI_K_JPEA_J@Z 000000018002ecac     ToneIndicator.obj
 0002:0000bcc0       $unwind$?EnumConnectionPoints@?$IConnectionPointContainerImpl@VCOPOSToneIndicator@@@ATL@@UEAAJPEAPEAUIEnumConnectionPoints@@@Z 000000018002ecc0     ToneIndicator.obj
 0002:0000bce8       $unwind$?FindConnectionPoint@?$IConnectionPointContainerImpl@VCOPOSToneIndicator@@@ATL@@UEAAJAEBU_GUID@@PEAPEAUIConnectionPoint@@@Z 000000018002ece8     ToneIndicator.obj
 0002:0000bce8       $unwind$?__mbrtoc32_utf8@__crt_mbstring@@YA_KPEA_UPEBD_KPEAU_Mbstatet@@@Z 000000018002ece8     libucrt:mbrtoc32.obj
 0002:0000bd04       $unwind$?Load@?$IPersistStorageImpl@VCOPOSToneIndicator@@@ATL@@UEAAJPEAUIStorage@@@Z 000000018002ed04     ToneIndicator.obj
 0002:0000bd14       $unwind$?Save@?$IPersistStorageImpl@VCOPOSToneIndicator@@@ATL@@UEAAJPEAUIStorage@@H@Z 000000018002ed14     ToneIndicator.obj
 0002:0000bd28       $unwind$?IPSI_GetIPersistStreamInit@?$IPersistStorageImpl@VCOPOSToneIndicator@@@ATL@@AEAAPEAUIPersistStreamInit@@XZ 000000018002ed28     ToneIndicator.obj
 0002:0000bd28       $unwind$?parse_int_from_format_string@?$output_processor@_WV?$string_output_adapter@_W@__crt_stdio_output@@V?$format_validation_base@_WV?$string_output_adapter@_W@__crt_stdio_output@@@2@@__crt_stdio_output@@AEAA_NQEAH@Z 000000018002ed28     libucrt:output.obj
 0002:0000bd3c       $unwind$?GetInterfaceSafetyOptions@?$IObjectSafetyImpl@VCOPOSToneIndicator@@$02@ATL@@UEAAJAEBU_GUID@@PEAK1@Z 000000018002ed3c     ToneIndicator.obj
 0002:0000bd50       $unwind$?SetInterfaceSafetyOptions@?$IObjectSafetyImpl@VCOPOSToneIndicator@@$02@ATL@@UEAAJAEBU_GUID@@KK@Z 000000018002ed50     ToneIndicator.obj
 0002:0000bd64       $unwind$?Advise@?$IConnectionPointImpl@VCOPOSToneIndicator@@$1?DIID__IOPOSToneIndicatorEvents@@3U_GUID@@BVCComDynamicUnkArray@ATL@@@ATL@@UEAAJPEAUIUnknown@@PEAK@Z 000000018002ed64     ToneIndicator.obj
 0002:0000bd64       $unwind$?Advise@?$IConnectionPointImpl@VCOPOSToneIndicator@@$1?IID_IPropertyNotifySink@@3U_GUID@@BVCComDynamicUnkArray@ATL@@@ATL@@UEAAJPEAUIUnknown@@PEAK@Z 000000018002ed64     ToneIndicator.obj
 0002:0000bd78       $unwind$?Fire_DirectIOEvent@?$CProxy_IOPOSEvents@VCOPOSToneIndicator@@@@QEAAXJPEAJPEAPEA_W@Z 000000018002ed78     ToneIndicator.obj
 0002:0000bd98       $unwind$?Fire_ErrorEvent@?$CProxy_IOPOSEvents@VCOPOSToneIndicator@@@@QEAAXJJJPEAJ@Z 000000018002ed98     ToneIndicator.obj
 0002:0000bdb8       $unwind$?Fire_OutputCompleteEvent@?$CProxy_IOPOSEvents@VCOPOSToneIndicator@@@@QEAAXJ@Z 000000018002edb8     ToneIndicator.obj
 0002:0000bdb8       $unwind$?Fire_StatusUpdateEvent@?$CProxy_IOPOSEvents@VCOPOSToneIndicator@@@@QEAAXJ@Z 000000018002edb8     ToneIndicator.obj
 0002:0000bdd0       $unwind$?FireTheEvent@?$CProxy_IOPOSEvents@VCOPOSToneIndicator@@@@IEAAXPEAVOposVariant@@IAEAJPEB_WJ@Z 000000018002edd0     ToneIndicator.obj
 0002:0000bde0       $unwind$?ProcessWindowMessage@COPOSToneIndicator@@UEAAHPEAUHWND__@@I_K_JAEA_JK@Z 000000018002ede0     ToneIndicator.obj
 0002:0000bde0       $unwind$__dcrt_get_narrow_environment_from_os 000000018002ede0     libucrt:get_environment_from_os.obj
 0002:0000bde0       $unwind$?fp_format_f_internal@@YAHQEAD_KHQEAU_strflt@@_NQEAU__crt_locale_pointers@@@Z 000000018002ede0     libucrt:cvt.obj
 0002:0000bde0       $unwind$??$__acrt_wcs_to_mbs_cp@U__crt_win32_buffer_internal_dynamic_resizing@@@@YAHQEB_WAEAV?$__crt_win32_buffer@DU__crt_win32_buffer_internal_dynamic_resizing@@@@I@Z 000000018002ede0     libucrt:argv_wildcards.obj
 0002:0000bdf8       $unwind$?SOError@COPOSToneIndicator@@MEAAJJJJPEAJ@Z 000000018002edf8     ToneIndicator.obj
 0002:0000bdf8       $unwind$_invalid_parameter 000000018002edf8     libucrt:invalid_parameter.obj
 0002:0000be0c       $unwind$?Clone@?$CComEnumImpl@UIEnumConnectionPoints@@$1?_GUID_b196b285_bab4_101a_b69c_00aa00341d07@@3U__s_GUID@@BPEAUIConnectionPoint@@V?$_CopyInterface@UIConnectionPoint@@@ATL@@@ATL@@UEAAJPEAPEAUIEnumConnectionPoints@@@Z 000000018002ee0c     ToneIndicator.obj
 0002:0000be0c       $unwind$?Clone@?$CComEnumImpl@UIEnumConnections@@$1?_GUID_b196b287_bab4_101a_b69c_00aa00341d07@@3U__s_GUID@@BUtagCONNECTDATA@@V?$_Copy@UtagCONNECTDATA@@@ATL@@@ATL@@UEAAJPEAPEAUIEnumConnections@@@Z 000000018002ee0c     ToneIndicator.obj
 0002:0000be24       $unwind$?GetOposProp@COPOSToneIndicator@@IEAAJJPEAJJ@Z 000000018002ee24     ToneIndicatorImpl.obj
 0002:0000be24       $unwind$?GetOposProp@COPOSToneIndicator@@IEAAJJPEAPEA_WJ@Z 000000018002ee24     ToneIndicatorImpl.obj
 0002:0000be3c       $unwind$?SetOposProp@COPOSToneIndicator@@IEAAJJJJ@Z 000000018002ee3c     ToneIndicatorImpl.obj
 0002:0000be5c       $unwind$?DoInvoke@COPOSToneIndicator@@IEAAJJPEAVOposVariant@@IHPEAJ_N@Z 000000018002ee5c     ToneIndicatorImpl.obj
 0002:0000be74       $unwind$?SetCOFreezeEvents@COPOSToneIndicator@@IEAAXF@Z 000000018002ee74     ToneIndicatorImpl.obj
 0002:0000be88       $unwind$?OnDraw@COPOSToneIndicator@@MEAAJAEAUATL_DRAWINFO@@@Z 000000018002ee88     ToneIndicatorImpl.obj
 0002:0000bea0       $unwind$?EventInit@COPOSToneIndicator@@IEAAJXZ 000000018002eea0     ToneIndicatorImpl.obj
 0002:0000beb4       $unwind$?EventWindowProc@COPOSToneIndicator@@IEAA_JI_K_J@Z 000000018002eeb4     ToneIndicatorImpl.obj
 0002:0000beb4       $unwind$__stdio_common_vswprintf_s 000000018002eeb4     libucrt:output.obj
 0002:0000bec0       $unwind$?get_ControlObjectDescription@COPOSToneIndicator@@UEAAJPEAPEA_W@Z 000000018002eec0     ToneIndicatorImpl.obj
 0002:0000bec0       $unwind$__dcrt_lowio_ensure_console_output_initialized 000000018002eec0     libucrt:initcon.obj
 0002:0000bec0       $unwind$_isleadbyte_l      000000018002eec0     libucrt:_wctype.obj
 0002:0000bec0       $unwind$?getSystemCP@@YAHH@Z 000000018002eec0     libucrt:mbctype.obj
 0002:0000bec8       $unwind$?CheckHealth@COPOSToneIndicator@@UEAAJJPEAJ@Z 000000018002eec8     ToneIndicatorImpl.obj
 0002:0000bec8       $unwind$?ResetStatistics@COPOSToneIndicator@@UEAAJPEA_WPEAJ@Z 000000018002eec8     ToneIndicatorImpl.obj
 0002:0000bec8       $unwind$?RetrieveStatistics@COPOSToneIndicator@@UEAAJPEAPEA_WPEAJ@Z 000000018002eec8     ToneIndicatorImpl.obj
 0002:0000bec8       $unwind$?UpdateFirmware@COPOSToneIndicator@@UEAAJPEA_WPEAJ@Z 000000018002eec8     ToneIndicatorImpl.obj
 0002:0000bec8       $unwind$?UpdateStatistics@COPOSToneIndicator@@UEAAJPEA_WPEAJ@Z 000000018002eec8     ToneIndicatorImpl.obj
 0002:0000bed8       $unwind$?ClaimDevice@COPOSToneIndicator@@UEAAJJPEAJ@Z 000000018002eed8     ToneIndicatorImpl.obj
 0002:0000bee8       $unwind$?Close@COPOSToneIndicator@@UEAAJPEAJ@Z 000000018002eee8     ToneIndicatorImpl.obj
 0002:0000bef4       $unwind$?DirectIO@COPOSToneIndicator@@UEAAJJPEAJPEAPEA_W0@Z 000000018002eef4     ToneIndicatorImpl.obj
 0002:0000bf10       $unwind$?Open@COPOSToneIndicator@@UEAAJPEA_WPEAJ@Z 000000018002ef10     ToneIndicatorImpl.obj
 0002:0000bf34       $unwind$?CompareFirmwareVersion@COPOSToneIndicator@@UEAAJPEA_WPEAJ1@Z 000000018002ef34     ToneIndicatorImpl.obj
 0002:0000bf34       $unwind$?initialize_inherited_file_handles_nolock@@YAXXZ 000000018002ef34     libucrt:ioinit.obj
 0002:0000bf50       $unwind$__scrt_is_nonwritable_in_current_image 000000018002ef50     LIBCMT:utility.obj
 0002:0000bf70       $unwind$__scrt_is_nonwritable_in_current_image$filt$0 000000018002ef70     LIBCMT:utility.obj
 0002:0000bf78       $unwind$__report_securityfailure 000000018002ef78     LIBCMT:gs_report.obj
 0002:0000bf80       $unwind$__report_gsfailure 000000018002ef80     LIBCMT:gs_report.obj
 0002:0000bf88       $unwind$capture_current_context 000000018002ef88     LIBCMT:gs_report.obj
 0002:0000bf94       $unwind$capture_previous_context 000000018002ef94     LIBCMT:gs_report.obj
 0002:0000bfa0       $unwind$??2@YAPEAX_KAEBUnothrow_t@std@@@Z 000000018002efa0     LIBCMT:new_scalar_nothrow.obj
 0002:0000bfb0       $cppxdata$??2@YAPEAX_KAEBUnothrow_t@std@@@Z 000000018002efb0     LIBCMT:new_scalar_nothrow.obj
 0002:0000bfbd       $stateUnwindMap$??2@YAPEAX_KAEBUnothrow_t@std@@@Z 000000018002efbd     LIBCMT:new_scalar_nothrow.obj
 0002:0000bfc0       $tryMap$??2@YAPEAX_KAEBUnothrow_t@std@@@Z 000000018002efc0     LIBCMT:new_scalar_nothrow.obj
 0002:0000bfc8       $handlerMap$??2@YAPEAX_KAEBUnothrow_t@std@@@Z 000000018002efc8     LIBCMT:new_scalar_nothrow.obj
 0002:0000bfd0       $ip2state$??2@YAPEAX_KAEBUnothrow_t@std@@@Z 000000018002efd0     LIBCMT:new_scalar_nothrow.obj
 0002:0000bfd4       $unwind$?catch$0@?0???2@YAPEAX_KAEBUnothrow_t@std@@@Z@4HA 000000018002efd4     LIBCMT:new_scalar_nothrow.obj
 0002:0000bfe4       $cppxdata$?catch$0@?0???2@YAPEAX_KAEBUnothrow_t@std@@@Z@4HA 000000018002efe4     LIBCMT:new_scalar_nothrow.obj
 0002:0000bfee       $stateUnwindMap$?catch$0@?0???2@YAPEAX_KAEBUnothrow_t@std@@@Z@4HA 000000018002efee     LIBCMT:new_scalar_nothrow.obj
 0002:0000bff0       $ip2state$?catch$0@?0???2@YAPEAX_KAEBUnothrow_t@std@@@Z@4HA 000000018002eff0     LIBCMT:new_scalar_nothrow.obj
 0002:0000bff4       $unwind$__GSHandlerCheckCommon 000000018002eff4     LIBCMT:gshandler.obj
 0002:0000c000       $xdatasym                  000000018002f000     LIBCMT:chkstk.obj
 0002:0000c008       $xdatasym                  000000018002f008     LIBCMT:amdsecgs.obj
 0002:0000c00c       $unwind$?dllmain_crt_process_attach@@YAHQEAUHINSTANCE__@@QEAX@Z 000000018002f00c     LIBCMT:dll_dllmain.obj
 0002:0000c048       $unwind$?dllmain_crt_process_detach@@YAH_N@Z 000000018002f048     LIBCMT:dll_dllmain.obj
 0002:0000c09c       $unwind$?dllmain_dispatch@@YAHQEAUHINSTANCE__@@KQEAX@Z 000000018002f09c     LIBCMT:dll_dllmain.obj
 0002:0000c0c4       $unwind$?filt$0@?0??dllmain_dispatch@@YAHQEAUHINSTANCE__@@KQEAX@Z@4HA 000000018002f0c4     LIBCMT:dll_dllmain.obj
 0002:0000c0c4       $unwind$?filt$0@?0??FrameUnwindToState@__FrameHandler4@@SAXPEA_KPEAU_xDISPATCHER_CONTEXT@@PEAUFuncInfo4@FH4@@H@Z@4HA 000000018002f0c4     libvcruntime:frame.obj
 0002:0000c0c4       $unwind$?fin$1@?0??FrameUnwindToState@__FrameHandler4@@SAXPEA_KPEAU_xDISPATCHER_CONTEXT@@PEAUFuncInfo4@FH4@@H@Z@4HA 000000018002f0c4     libvcruntime:frame.obj
 0002:0000c0cc       $unwind$__isa_available_init 000000018002f0cc     LIBCMT:cpu_disp.obj
 0002:0000c0dc       $unwind$__scrt_fastfail    000000018002f0dc     LIBCMT:utility_desktop.obj
 0002:0000c0ec       $unwind$__security_init_cookie 000000018002f0ec     LIBCMT:gs_support.obj
 0002:0000c0f8       $xdatasym                  000000018002f0f8     LIBCMT:guard_dispatch.obj
 0002:0000c100       $xdatasym                  000000018002f100     LIBCMT:guard_xfg_dispatch.obj
 0002:0000c104       $unwind$AtlThunk_InitData  000000018002f104     atls:atlthunk.obj
 0002:0000c118       $unwind$wcsstr             000000018002f118     libvcruntime:wcsstr.obj
 0002:0000c130       $xdatasym                  000000018002f130     libvcruntime:memcmp.obj
 0002:0000c138       $xdatasym                  000000018002f138     libvcruntime:memcpy.obj
 0002:0000c148       $xdatasym                  000000018002f148     libvcruntime:memset.obj
 0002:0000c158       $unwind$__C_specific_handler 000000018002f158     libvcruntime:riscchandler.obj
 0002:0000c174       $unwind$?DecompFuncInfo@FH4@@YA_JPEAEAEAUFuncInfo4@1@_KH_N@Z 000000018002f174     libvcruntime:risctrnsctrl.obj
 0002:0000c18c       $unwind$?UnwindNestedFrames@__FrameHandler4@@SAXPEA_KPEAUEHExceptionRecord@@PEAU_CONTEXT@@0PEAXPEAUFuncInfo4@FH4@@HHPEAUHandlerType4@5@PEAU_xDISPATCHER_CONTEXT@@E@Z 000000018002f18c     libvcruntime:risctrnsctrl.obj
 0002:0000c1a0       $unwind$?GetRangeOfTrysToCheck@__FrameHandler4@@SA?AU?$pair@Viterator@TryBlockMap4@FH4@@V123@@std@@AEAVTryBlockMap4@FH4@@HPEAU_xDISPATCHER_CONTEXT@@PEAUFuncInfo4@5@H@Z 000000018002f1a0     libvcruntime:risctrnsctrl.obj
 0002:0000c1bc       $unwind$__CxxFrameHandler4 000000018002f1bc     libvcruntime:risctrnsctrl.obj
 0002:0000c1d0       $unwind$??$_CallSETranslator@V__FrameHandler4@@@@YAHPEAUEHExceptionRecord@@PEA_KPEAU_CONTEXT@@PEAU_xDISPATCHER_CONTEXT@@PEAUFuncInfo4@FH4@@K1H@Z 000000018002f1d0     libvcruntime:risctrnsctrl.obj
 0002:0000c1f0       $unwind$?filt$0@?0???$_CallSETranslator@V__FrameHandler4@@@@YAHPEAUEHExceptionRecord@@PEA_KPEAU_CONTEXT@@PEAU_xDISPATCHER_CONTEXT@@PEAUFuncInfo4@FH4@@K1H@Z@4HA 000000018002f1f0     libvcruntime:risctrnsctrl.obj
 0002:0000c1fc       $unwind$__DestructExceptionObject 000000018002f1fc     libvcruntime:ehhelpers.obj
 0002:0000c21c       $unwind$__DestructExceptionObject$filt$0 000000018002f21c     libvcruntime:ehhelpers.obj
 0002:0000c21c       $unwind$?fin$1@?0??CxxCallCatchBlock@__FrameHandler4@@SAPEAXPEAU_EXCEPTION_RECORD@@@Z@4HA 000000018002f21c     libvcruntime:frame.obj
 0002:0000c228       $unwind$_CxxThrowException 000000018002f228     libvcruntime:throw.obj
 0002:0000c238       $xdatasym                  000000018002f238     libvcruntime:notify.obj
 0002:0000c244       $unwind$?StateFromIp@__FrameHandler4@@SAHPEAUFuncInfo4@FH4@@PEAU_xDISPATCHER_CONTEXT@@_K@Z 000000018002f244     libvcruntime:ehstate.obj
 0002:0000c258       $unwind$?getStartStop@UWMap4@FH4@@QEAAXHHAEAViterator@12@0@Z 000000018002f258     libvcruntime:frame.obj
 0002:0000c270       $unwind$?FrameUnwindToState@__FrameHandler4@@SAXPEA_KPEAU_xDISPATCHER_CONTEXT@@PEAUFuncInfo4@FH4@@H@Z 000000018002f270     libvcruntime:frame.obj
 0002:0000c2b8       $unwind$?CxxCallCatchBlock@__FrameHandler4@@SAPEAXPEAU_EXCEPTION_RECORD@@@Z 000000018002f2b8     libvcruntime:frame.obj
 0002:0000c314       $unwind$?IsInExceptionSpec@@YAEPEAUEHExceptionRecord@@PEBU_s_ESTypeList@@@Z 000000018002f314     libvcruntime:frame.obj
 0002:0000c330       $unwind$??$__InternalCxxFrameHandler@V__FrameHandler4@@@@YA?AW4_EXCEPTION_DISPOSITION@@PEAUEHExceptionRecord@@PEA_KPEAU_CONTEXT@@PEAU_xDISPATCHER_CONTEXT@@PEAUFuncInfo4@FH4@@H1E@Z 000000018002f330     libvcruntime:frame.obj
 0002:0000c348       $unwind$??$BuildCatchObjectHelperInternal@V__FrameHandler4@@@@YAHPEAUEHExceptionRecord@@PEAXPEAUHandlerType4@FH4@@PEBU_s_CatchableType@@@Z 000000018002f348     libvcruntime:frame.obj
 0002:0000c388       $unwind$??$BuildCatchObjectInternal@V__FrameHandler4@@@@YAXPEAUEHExceptionRecord@@PEAXPEAUHandlerType4@FH4@@PEBU_s_CatchableType@@@Z 000000018002f388     libvcruntime:frame.obj
 0002:0000c3b4       $unwind$??$FindHandler@V__FrameHandler4@@@@YAXPEAUEHExceptionRecord@@PEA_KPEAU_CONTEXT@@PEAU_xDISPATCHER_CONTEXT@@PEAUFuncInfo4@FH4@@EH1@Z 000000018002f3b4     libvcruntime:frame.obj
 0002:0000c3d4       $unwind$??$CatchIt@V__FrameHandler4@@@@YAXPEAUEHExceptionRecord@@PEA_KPEAU_CONTEXT@@PEAU_xDISPATCHER_CONTEXT@@PEAUFuncInfo4@FH4@@PEAUHandlerType4@4@PEBU_s_CatchableType@@PEAUTryBlockMapEntry4@4@H1EE@Z 000000018002f3d4     libvcruntime:frame.obj
 0002:0000c3ec       $unwind$??$FindHandlerForForeignException@V__FrameHandler4@@@@YAXPEAUEHExceptionRecord@@PEA_KPEAU_CONTEXT@@PEAU_xDISPATCHER_CONTEXT@@PEAUFuncInfo4@FH4@@HH1@Z 000000018002f3ec     libvcruntime:frame.obj
 0002:0000c40c       $unwind$?try_get_function@@YAPEAXW4function_id@?A0x84e3c32f@@QEBDQEBW4module_id@2@2@Z 000000018002f40c     libvcruntime:winapi_downlevel.obj
 0002:0000c40c       $unwind$?try_get_function@@YAPEAXW4function_id@?A0x391cf84c@@QEBDQEBW4module_id@2@2@Z 000000018002f40c     libucrt:winapi_thunks.obj
 0002:0000c428       $xdatasym                  000000018002f428     libvcruntime:handlers.obj
 0002:0000c448       $unwind$__acrt_call_reportfault 000000018002f448     libucrt:invalid_parameter.obj
 0002:0000c468       $unwind$_resetstkoflw      000000018002f468     libucrt:resetstk.obj
 0002:0000c48c       $unwind$?write_string@?$string_output_adapter@_W@__crt_stdio_output@@QEBAXQEB_WHQEAHAEAV__crt_deferred_errno_cache@@@Z 000000018002f48c     libucrt:output.obj
 0002:0000c4a4       $unwind$??$common_vsprintf@Vformat_validation_base@__crt_stdio_output@@_W@@YAH_KQEA_W0QEB_WQEAU__crt_locale_pointers@@QEAD@Z 000000018002f4a4     libucrt:output.obj
 0002:0000c4c4       $unwind$??$write_multiple_characters@V?$string_output_adapter@_W@__crt_stdio_output@@D@__crt_stdio_output@@YAXAEBV?$string_output_adapter@_W@0@DHQEAH@Z 000000018002f4c4     libucrt:output.obj
 0002:0000c4d0       $unwind$?state_case_type@?$output_processor@_WV?$string_output_adapter@_W@__crt_stdio_output@@V?$format_validation_base@_WV?$string_output_adapter@_W@__crt_stdio_output@@@2@@__crt_stdio_output@@AEAA_NXZ 000000018002f4d0     libucrt:output.obj
 0002:0000c4f4       $unwind$?type_case_a@?$output_processor@_WV?$string_output_adapter@_W@__crt_stdio_output@@V?$format_validation_base@_WV?$string_output_adapter@_W@__crt_stdio_output@@@2@@__crt_stdio_output@@AEAA_NXZ 000000018002f4f4     libucrt:output.obj
 0002:0000c504       $unwind$?write_stored_string_tchar@?$output_processor@_WV?$string_output_adapter@_W@__crt_stdio_output@@V?$format_validation_base@_WV?$string_output_adapter@_W@__crt_stdio_output@@@2@@__crt_stdio_output@@AEAA_N_W@Z 000000018002f504     libucrt:output.obj
 0002:0000c518       $unwind$??$type_case_integer_parse_into_buffer@I@?$output_processor@_WV?$string_output_adapter@_W@__crt_stdio_output@@V?$format_validation_base@_WV?$string_output_adapter@_W@__crt_stdio_output@@@2@@__crt_stdio_output@@AEAAXII_N@Z 000000018002f518     libucrt:output.obj
 0002:0000c518       $unwind$??$type_case_integer_parse_into_buffer@_K@?$output_processor@_WV?$string_output_adapter@_W@__crt_stdio_output@@V?$format_validation_base@_WV?$string_output_adapter@_W@__crt_stdio_output@@@2@@__crt_stdio_output@@AEAAX_KI_N@Z 000000018002f518     libucrt:output.obj
 0002:0000c520       $unwind$?common_exit@@YAXHW4_crt_exit_cleanup_mode@@W4_crt_exit_return_mode@@@Z 000000018002f520     libucrt:exit.obj
 0002:0000c52c       $unwind$??R<lambda_6e4b09c48022b2350581041d5f6b0c4c>@@QEBA@XZ 000000018002f52c     libucrt:exit.obj
 0002:0000c54c       $unwind$??$?RV<lambda_d80eeec6fff315bfe5c115232f3240e3>@@AEAV<lambda_6e4b09c48022b2350581041d5f6b0c4c>@@V<lambda_2358e3775559c9db80273638284d5e45>@@@?$__crt_seh_guarded_call@X@@QEAAX$$QEAV<lambda_d80eeec6fff315bfe5c115232f3240e3>@@AEAV<lambda_6e4b09c48022b2350581041d5f6b0c4c>@@$$QEAV<lambda_2358e3775559c9db80273638284d5e45>@@@Z 000000018002f54c     libucrt:exit.obj
 0002:0000c570       $unwind$??$free_environment@D@@YAXQEAPEAD@Z 000000018002f570     libucrt:environment_initialization.obj
 0002:0000c570       $unwind$??$free_environment@_W@@YAXQEAPEA_W@Z 000000018002f570     libucrt:environment_initialization.obj
 0002:0000c57c       $unwind$??$create_environment@D@@YAQEAPEADQEAD@Z 000000018002f57c     libucrt:environment_initialization.obj
 0002:0000c594       $unwind$_register_onexit_function 000000018002f594     libucrt:onexit.obj
 0002:0000c59c       $unwind$_execute_onexit_table 000000018002f59c     libucrt:onexit.obj
 0002:0000c5a4       $unwind$??R<lambda_22ebabd17bc4fa466a2aca6d8deb888d>@@QEBAHXZ 000000018002f5a4     libucrt:onexit.obj
 0002:0000c5bc       $unwind$??$?RV<lambda_638799b9deba96c50f710eeac98168cd>@@AEAV<lambda_22ebabd17bc4fa466a2aca6d8deb888d>@@V<lambda_a6f7d7db0129f75315ebf26d50c089f1>@@@?$__crt_seh_guarded_call@H@@QEAAH$$QEAV<lambda_638799b9deba96c50f710eeac98168cd>@@AEAV<lambda_22ebabd17bc4fa466a2aca6d8deb888d>@@$$QEAV<lambda_a6f7d7db0129f75315ebf26d50c089f1>@@@Z 000000018002f5bc     libucrt:onexit.obj
 0002:0000c5e0       $unwind$??$?RV<lambda_7777bce6b2f8c936911f934f8298dc43>@@AEAV<lambda_f03950bc5685219e0bcd2087efbe011e>@@V<lambda_3883c3dff614d5e0c5f61bb1ac94921c>@@@?$__crt_seh_guarded_call@H@@QEAAH$$QEAV<lambda_7777bce6b2f8c936911f934f8298dc43>@@AEAV<lambda_f03950bc5685219e0bcd2087efbe011e>@@$$QEAV<lambda_3883c3dff614d5e0c5f61bb1ac94921c>@@@Z 000000018002f5e0     libucrt:onexit.obj
 0002:0000c604       $unwind$_query_new_handler 000000018002f604     libucrt:new_handler.obj
 0002:0000c624       $unwind$terminate          000000018002f624     libucrt:terminate.obj
 0002:0000c644       $unwind$??$parse_integer@KV?$c_string_character_source@_W@__crt_strtox@@@__crt_strtox@@YAKQEAU__crt_locale_pointers@@V?$c_string_character_source@_W@0@H_N@Z 000000018002f644     libucrt:atox.obj
 0002:0000c660       $xdatasym                  000000018002f660     libucrt:strncmp.obj
 0002:0000c664       $unwind$?construct_ptd_array@@YAXQEAU__acrt_ptd@@@Z 000000018002f664     libucrt:per_thread_data.obj
 0002:0000c66c       $unwind$?destroy_ptd_array@@YAXQEAU__acrt_ptd@@@Z 000000018002f66c     libucrt:per_thread_data.obj
 0002:0000c674       $unwind$??$?RV<lambda_0ae27a3a962d80f24befdcbee591983d>@@AEAV<lambda_8d0ee55de4b1038c4002e0adecdf1839>@@V<lambda_dc504788e8f1664fe9b84e20bfb512f2>@@@?$__crt_seh_guarded_call@X@@QEAAX$$QEAV<lambda_0ae27a3a962d80f24befdcbee591983d>@@AEAV<lambda_8d0ee55de4b1038c4002e0adecdf1839>@@$$QEAV<lambda_dc504788e8f1664fe9b84e20bfb512f2>@@@Z 000000018002f674     libucrt:per_thread_data.obj
 0002:0000c698       $unwind$??$?RV<lambda_aa87e3671a710a21b5dc78c0bdf72e11>@@AEAV<lambda_92619d2358a28f41a33ba319515a20b9>@@V<lambda_6992ecaafeb10aed2b74cb1fae11a551>@@@?$__crt_seh_guarded_call@X@@QEAAX$$QEAV<lambda_aa87e3671a710a21b5dc78c0bdf72e11>@@AEAV<lambda_92619d2358a28f41a33ba319515a20b9>@@$$QEAV<lambda_6992ecaafeb10aed2b74cb1fae11a551>@@@Z 000000018002f698     libucrt:per_thread_data.obj
 0002:0000c6bc       $unwind$??$?RV<lambda_f2e299630e499de9f9a165e60fcd3db5>@@AEAV<lambda_2ae9d31cdba2644fcbeaf08da7c24588>@@V<lambda_40d01ff24d0e7b3814fdbdcee8eab3c7>@@@?$__crt_seh_guarded_call@X@@QEAAX$$QEAV<lambda_f2e299630e499de9f9a165e60fcd3db5>@@AEAV<lambda_2ae9d31cdba2644fcbeaf08da7c24588>@@$$QEAV<lambda_40d01ff24d0e7b3814fdbdcee8eab3c7>@@@Z 000000018002f6bc     libucrt:per_thread_data.obj
 0002:0000c6e0       $unwind$??$?RV<lambda_2d41944a1d46af3157314b8a01080d33>@@AEAV<lambda_8f455de75cd7d7f24b4096f044d8b9e6>@@V<lambda_aa500f224e6afead328df44964fe2772>@@@?$__crt_seh_guarded_call@X@@QEAAX$$QEAV<lambda_2d41944a1d46af3157314b8a01080d33>@@AEAV<lambda_8f455de75cd7d7f24b4096f044d8b9e6>@@$$QEAV<lambda_aa500f224e6afead328df44964fe2772>@@@Z 000000018002f6e0     libucrt:per_thread_data.obj
 0002:0000c704       $unwind$__acrt_initialize_winapi_thunks 000000018002f704     libucrt:winapi_thunks.obj
 0002:0000c70c       $unwind$__acrt_fp_format   000000018002f70c     libucrt:cvt.obj
 0002:0000c724       $unwind$?fp_format_e_internal@@YAHQEAD_KH_NIQEAU_strflt@@2QEAU__crt_locale_pointers@@@Z 000000018002f724     libucrt:cvt.obj
 0002:0000c73c       $unwind$?fp_format_a@@YAHQEBNPEAD_KQEAD2H_NIQEAU__crt_locale_pointers@@W4__acrt_rounding_mode@@@Z 000000018002f73c     libucrt:cvt.obj
 0002:0000c758       $unwind$?fp_format_g@@YAHQEBNQEAD_K12H_NIQEAU__crt_locale_pointers@@@Z 000000018002f758     libucrt:cvt.obj
 0002:0000c76c       $unwind$__acrt_uninitialize_locale 000000018002f76c     libucrt:wsetlocale.obj
 0002:0000c76c       $unwind$__acrt_get_sigabrt_handler 000000018002f76c     libucrt:signal.obj
 0002:0000c774       $unwind$??$?RV<lambda_410d79af7f07d98d83a3f525b3859a53>@@AEAV<lambda_3e16ef9562a7dcce91392c22ab16ea36>@@V<lambda_38119f0e861e05405d8a144b9b982f0a>@@@?$__crt_seh_guarded_call@X@@QEAAX$$QEAV<lambda_410d79af7f07d98d83a3f525b3859a53>@@AEAV<lambda_3e16ef9562a7dcce91392c22ab16ea36>@@$$QEAV<lambda_38119f0e861e05405d8a144b9b982f0a>@@@Z 000000018002f774     libucrt:wsetlocale.obj
 0002:0000c79c       $unwind$__acrt_initialize_lowio 000000018002f79c     libucrt:ioinit.obj
 0002:0000c7bc       $unwind$??$common_expand_argv_wildcards@D@@YAHQEAPEADQEAPEAPEAD@Z 000000018002f7bc     libucrt:argv_wildcards.obj
 0002:0000c7d4       $unwind$??$copy_and_add_argument_to_buffer@D@@YAHQEBD0_KAEAV?$argument_list@D@?A0x5f5c8891@@@Z 000000018002f7d4     libucrt:argv_wildcards.obj
 0002:0000c7f0       $unwind$??$expand_argument_wildcards@D@@YAHQEAD0AEAV?$argument_list@D@?A0x5f5c8891@@@Z 000000018002f7f0     libucrt:argv_wildcards.obj
 0002:0000c814       $unwind$__acrt_GetModuleFileNameA 000000018002f814     libucrt:getmodulefilenamea.obj
 0002:0000c830       $unwind$_setmbcp_nolock    000000018002f830     libucrt:mbctype.obj
 0002:0000c850       $unwind$?update_thread_multibyte_data_internal@@YAPEAU__crt_multibyte_data@@QEAU__acrt_ptd@@QEAPEAU1@@Z 000000018002f850     libucrt:mbctype.obj
 0002:0000c878       $unwind$?setmbcp_internal@@YAHH_NQEAU__acrt_ptd@@QEAPEAU__crt_multibyte_data@@@Z 000000018002f878     libucrt:mbctype.obj
 0002:0000c888       $unwind$?setSBUpLow@@YAXPEAU__crt_multibyte_data@@@Z 000000018002f888     libucrt:mbctype.obj
 0002:0000c8a4       $unwind$??$?RV<lambda_efdfa57d1f175319df784efa44bb7b81>@@AEAV<lambda_5f0a4c1567f8adc6734073e5d1e1b35c>@@V<lambda_2e8a7d3640ea6ccb4c2413664c2db6fd>@@@?$__crt_seh_guarded_call@X@@QEAAX$$QEAV<lambda_efdfa57d1f175319df784efa44bb7b81>@@AEAV<lambda_5f0a4c1567f8adc6734073e5d1e1b35c>@@$$QEAV<lambda_2e8a7d3640ea6ccb4c2413664c2db6fd>@@@Z 000000018002f8a4     libucrt:mbctype.obj
 0002:0000c8c8       $unwind$__acrt_WideCharToMultiByte 000000018002f8c8     libucrt:widechartomultibyte.obj
 0002:0000c8d4       $unwind$raise              000000018002f8d4     libucrt:signal.obj
 0002:0000c910       $unwind$??$?RV<lambda_450d765d439847d4c735a33c368b5fc0>@@AEAV<lambda_44731a7d0e6d81c3e6aa82d741081786>@@V<lambda_601a2a7da3b7a96e9554ac7215c4b07c>@@@?$__crt_seh_guarded_call@P6AXH@Z@@QEAAP6AXH@Z$$QEAV<lambda_450d765d439847d4c735a33c368b5fc0>@@AEAV<lambda_44731a7d0e6d81c3e6aa82d741081786>@@$$QEAV<lambda_601a2a7da3b7a96e9554ac7215c4b07c>@@@Z 000000018002f910     libucrt:signal.obj
 0002:0000c934       $unwind$?common_flush_all@@YAH_N@Z 000000018002f934     libucrt:fflush.obj
 0002:0000c93c       $unwind$??$?RV<lambda_842d9ff0dc9ef11c61343bbaebe7f885>@@AEAV<lambda_c5860995281e5c4ce005b3de8f5874ee>@@V<lambda_d90129c13df834fdcbf8d2b88dafcf2d>@@@?$__crt_seh_guarded_call@X@@QEAAX$$QEAV<lambda_842d9ff0dc9ef11c61343bbaebe7f885>@@AEAV<lambda_c5860995281e5c4ce005b3de8f5874ee>@@$$QEAV<lambda_d90129c13df834fdcbf8d2b88dafcf2d>@@@Z 000000018002f93c     libucrt:fflush.obj
 0002:0000c960       $unwind$??$?RV<lambda_886d6c58226a84441f68b9f2b8217b83>@@AEAV<lambda_ab61a845afdef5b7c387490eaf3616ee>@@V<lambda_f7f22ab5edc0698d5f6905b0d3f44752>@@@?$__crt_seh_guarded_call@X@@QEAAX$$QEAV<lambda_886d6c58226a84441f68b9f2b8217b83>@@AEAV<lambda_ab61a845afdef5b7c387490eaf3616ee>@@$$QEAV<lambda_f7f22ab5edc0698d5f6905b0d3f44752>@@@Z 000000018002f960     libucrt:fflush.obj
 0002:0000c988       $unwind$__acrt_update_thread_locale_data 000000018002f988     libucrt:locale_refcounting.obj
 0002:0000c9ac       $unwind$?__mbrtowc_utf8@__crt_mbstring@@YA_KPEA_WPEBD_KPEAU_Mbstatet@@@Z 000000018002f9ac     libucrt:mbrtowc.obj
 0002:0000c9b4       $unwind$?__mbsrtowcs_utf8@__crt_mbstring@@YA_KPEA_WPEAPEBD_KPEAU_Mbstatet@@@Z 000000018002f9b4     libucrt:mbrtowc.obj
 0002:0000c9cc       $unwind$__acrt_fltout      000000018002f9cc     libucrt:cfout.obj
 0002:0000c9ec       $unwind$?divide@__crt_strtox@@YA_KAEAUbig_integer@1@AEBU21@@Z 000000018002f9ec     libucrt:cfout.obj
 0002:0000ca04       $chain$0$?divide@__crt_strtox@@YA_KAEAUbig_integer@1@AEBU21@@Z 000000018002fa04     libucrt:cfout.obj
 0002:0000ca18       $chain$1$?divide@__crt_strtox@@YA_KAEAUbig_integer@1@AEBU21@@Z 000000018002fa18     libucrt:cfout.obj
 0002:0000ca28       $unwind$_fcloseall         000000018002fa28     libucrt:closeall.obj
 0002:0000ca4c       $unwind$__acrt_locale_free_monetary 000000018002fa4c     libucrt:initmon.obj
 0002:0000ca54       $unwind$__acrt_locale_free_time 000000018002fa54     libucrt:inittime.obj
 0002:0000ca64       $unwind$__acrt_GetStringTypeA 000000018002fa64     libucrt:getstringtypea.obj
 0002:0000ca8c       $unwind$__acrt_lowio_destroy_handle_array 000000018002fa8c     libucrt:osfinfo.obj
 0002:0000ca9c       $unwind$__acrt_lowio_ensure_fh_exists 000000018002fa9c     libucrt:osfinfo.obj
 0002:0000cac8       $unwind$qsort              000000018002fac8     libucrt:qsort.obj
 0002:0000cae0       $chain$4$qsort             000000018002fae0     libucrt:qsort.obj
 0002:0000cb04       $chain$5$qsort             000000018002fb04     libucrt:qsort.obj
 0002:0000cb14       $unwind$strpbrk            000000018002fb14     libucrt:strpbrk.obj
 0002:0000cb24       $unwind$fallbackMethod     000000018002fb24     libucrt:strpbrk.obj
 0002:0000cb34       $unwind$__acrt_LCMapStringA 000000018002fb34     libucrt:lcmapstringa.obj
 0002:0000cb44       $unwind$?__acrt_LCMapStringA_stat@@YAHPEAU__crt_locale_pointers@@PEB_WKPEBDHPEADHHH@Z 000000018002fb44     libucrt:lcmapstringa.obj
 0002:0000cb6c       $unwind$_close             000000018002fb6c     libucrt:close.obj
 0002:0000cb6c       $unwind$_commit            000000018002fb6c     libucrt:commit.obj
 0002:0000cb74       $unwind$??$?RV<lambda_a37b2b86f63e897a80ea819b0eb08c01>@@AEAV<lambda_38ce7e780aa69e748d6df282ebc68efe>@@V<lambda_99fb1378e971ab6e7edea83e3a7a83a2>@@@?$__crt_seh_guarded_call@H@@QEAAH$$QEAV<lambda_a37b2b86f63e897a80ea819b0eb08c01>@@AEAV<lambda_38ce7e780aa69e748d6df282ebc68efe>@@$$QEAV<lambda_99fb1378e971ab6e7edea83e3a7a83a2>@@@Z 000000018002fb74     libucrt:commit.obj
 0002:0000cb98       $unwind$_write             000000018002fb98     libucrt:write.obj
 0002:0000cbc8       $unwind$_write_nolock      000000018002fbc8     libucrt:write.obj
 0002:0000cbe0       $unwind$?write_double_translated_ansi_nolock@@YA?AUwrite_result@?A0x17268360@@HQEBDI@Z 000000018002fbe0     libucrt:write.obj
 0002:0000cc04       $unwind$?write_text_ansi_nolock@@YA?AUwrite_result@?A0x17268360@@HQEBDI@Z 000000018002fc04     libucrt:write.obj
 0002:0000cc04       $unwind$?write_text_utf16le_nolock@@YA?AUwrite_result@?A0x17268360@@HQEBDI@Z 000000018002fc04     libucrt:write.obj
 0002:0000cc24       $unwind$?write_text_utf8_nolock@@YA?AUwrite_result@?A0x17268360@@HQEBDI@Z 000000018002fc24     libucrt:write.obj
 0002:0000cc48       $xdatasym                  000000018002fc48     libucrt:log10.obj
 0002:0000cc54       $unwind$__acrt_fenv_set_control 000000018002fc54     libucrt:_fenvutils.obj
 0002:0000cc64       $unwind$fclose             000000018002fc64     libucrt:fclose.obj
 0002:0000cc88       $unwind$_putwch_nolock     000000018002fc88     libucrt:putwch.obj
 0002:0000cc90       $unwind$common_control87   000000018002fc90     libucrt:ieee.obj
 0002:0000ccbc       $unwind$_call_matherr      000000018002fcbc     libucrt:libm_error.obj
 0002:0000ccc4       $unwind$_handle_error      000000018002fcc4     libucrt:libm_error.obj
 0002:0000cce4       $unwind$__acrt_initialize_fma3 000000018002fce4     libucrt:fma3_available.obj
 0002:0000ccec       $unwind$_log_special_common 000000018002fcec     libucrt:log_special.obj
 0002:0000ccf8       $unwind$??$?RV<lambda_751a882b2c74d4b022dec766aa51a29a>@@AEAV<lambda_628dfdc04ba53c8bfc02c9951375f3f5>@@V<lambda_f6c7be5f7998530c34de24c7437d6b54>@@@?$__crt_seh_guarded_call@H@@QEAAH$$QEAV<lambda_751a882b2c74d4b022dec766aa51a29a>@@AEAV<lambda_628dfdc04ba53c8bfc02c9951375f3f5>@@$$QEAV<lambda_f6c7be5f7998530c34de24c7437d6b54>@@@Z 000000018002fcf8     libucrt:close.obj
 0002:0000cd20       $xdatasym                  000000018002fd20     libucrt:fpsr.obj
 0002:0000cd28       $unwind$_raise_exc_ex      000000018002fd28     libucrt:fpexcept.obj
 0002:0000cd3c       $unwind$_ctrlfp            000000018002fd3c     libucrt:fpctrl.obj
 0002:0000cd64       $unwind$_IsNonwritableInCurrentImage 000000018002fd64     LIBCMT:pesect.obj
 0002:0000cef0       .edata                     000000018002fef0     OPOSToneIndicator.exp
 0002:0000cf18       rgpv                       000000018002ff18     OPOSToneIndicator.exp
 0002:0000cf28       rgszName                   000000018002ff28     OPOSToneIndicator.exp
 0002:0000cf38       rgwOrd                     000000018002ff38     OPOSToneIndicator.exp
 0002:0000cf40       szName                     000000018002ff40     OPOSToneIndicator.exp
 0002:0000cf56       $N00001                    000000018002ff56     OPOSToneIndicator.exp
 0002:0000cf66       $N00002                    000000018002ff66     OPOSToneIndicator.exp
 0002:0000cf78       $N00003                    000000018002ff78     OPOSToneIndicator.exp
 0002:0000cf8a       $N00004                    000000018002ff8a     OPOSToneIndicator.exp
 0002:0000d8ba       .idata$6                   00000001800308ba     kernel32:KERNEL32.dll
 0002:0000dad2       .idata$6                   0000000180030ad2     user32:USER32.dll
 0002:0000dc06       .idata$6                   0000000180030c06     gdi32:GDI32.dll
 0002:0000dcac       .idata$6                   0000000180030cac     advapi32:ADVAPI32.dll
 0002:0000ddc8       .idata$6                   0000000180030dc8     ole32:ole32.dll
 0002:0000ddd2       .idata$6                   0000000180030dd2     oleaut32:OLEAUT32.dll
 0003:000001c0       ?ObjectMap@@3PAU_ATL_OBJMAP_ENTRY30@ATL@@A 00000001800321c0     ToneIndicator.obj
 0003:000002e0       ?s_SOMethodNames@@3PAPEADA 00000001800322e0     ToneIndicatorImpl.obj
 0003:00000380       ?s_RequiredMethodsPerRelease@@3PAHA 0000000180032380     ToneIndicatorImpl.obj
 0003:000003f0       ?__vcrt_flsindex@@3KA      00000001800323f0     libvcruntime:per_thread_data.obj
 0003:00000400       ?errno_no_memory@@3HA      0000000180032400     libucrt:errno.obj
 0003:00000404       ?doserrno_no_memory@@3KA   0000000180032404     libucrt:errno.obj
 0003:00000410       ?__acrt_flsindex@@3KA      0000000180032410     libucrt:per_thread_data.obj
 0003:000008d0       _mbctypes                  00000001800328d0     libucrt:mbctype.obj
 0003:000009e0       _mbcasemaps                00000001800329e0     libucrt:mbctype.obj
 0003:00000ae0       ?__rgctypeflag@@3PADA      0000000180032ae0     libucrt:mbctype.obj
 0003:00000af0       ?__rgcode_page_info@@3PAUcode_page_info@@A 0000000180032af0     libucrt:mbctype.obj
 0003:00000d90       ?dazSupported@?1??common_control87@@9@9 0000000180032d90     libucrt:ieee.obj
 0003:00000da0       ?__dcrt_lowio_console_output_handle@@3PEAXEA 0000000180032da0     libucrt:initcon.obj
 0003:00000db0       ?dazSupported@?1??_ctrlfp@@9@9 0000000180032db0     libucrt:fpctrl.obj
 0003:00001000       ?is_initialized_as_dll@@3_NA 0000000180033000     LIBCMT:utility.obj
 0003:00001001       ?module_local_atexit_table_initialized@@3_NA 0000000180033001     LIBCMT:utility.obj
 0003:00001008       ?module_local_atexit_table@@3U_onexit_table_t@@A 0000000180033008     LIBCMT:utility.obj
 0003:00001020       ?module_local_at_quick_exit_table@@3U_onexit_table_t@@A 0000000180033020     LIBCMT:utility.obj
 0003:00001038       ?g_tss_cv@@3U_RTL_CONDITION_VARIABLE@@A 0000000180033038     LIBCMT:thread_safe_statics.obj
 0003:00001040       ?g_tss_event@@3PEAXEA      0000000180033040     LIBCMT:thread_safe_statics.obj
 0003:00001048       ?g_tss_mutex@@3U_RTL_CRITICAL_SECTION@@A 0000000180033048     LIBCMT:thread_safe_statics.obj
 0003:00001070       ?g_sleep_condition_variable_cs@@3P6AHPEAU_RTL_CONDITION_VARIABLE@@PEAU_RTL_CRITICAL_SECTION@@K@ZEA 0000000180033070     LIBCMT:thread_safe_statics.obj
 0003:00001078       ?g_wake_all_condition_variable@@3P6AXPEAU_RTL_CONDITION_VARIABLE@@@ZEA 0000000180033078     LIBCMT:thread_safe_statics.obj
 0003:00001080       GS_ExceptionRecord         0000000180033080     LIBCMT:gs_report.obj
 0003:00001120       GS_ContextRecord           0000000180033120     LIBCMT:gs_report.obj
 0003:000015f4       ?__proc_attached@@3HA      00000001800335f4     LIBCMT:dll_dllmain.obj
 0003:00001698       ?AllocateData@@3P6APEAUAtlThunkData_t@@XZEA 0000000180033698     atls:atlthunk.obj
 0003:000016a0       ?InitData@@3P6AXPEAUAtlThunkData_t@@PEAX_K@ZEA 00000001800336a0     atls:atlthunk.obj
 0003:000016a8       ?DataToCode@@3P6AP6A_JPEAUHWND__@@I_K_J@ZPEAUAtlThunkData_t@@@ZEA 00000001800336a8     atls:atlthunk.obj
 0003:000016b0       ?FreeData@@3P6AXPEAUAtlThunkData_t@@@ZEA 00000001800336b0     atls:atlthunk.obj
 0003:000016b8       ?Initialized@@3_NA         00000001800336b8     atls:atlthunk.obj
 0003:000016d0       ?__vcrt_startup_thread_ptd@@3U__vcrt_ptd@@A 00000001800336d0     libvcruntime:per_thread_data.obj
 0003:00001750       __vcrt_lock_table          0000000180033750     libvcruntime:locks.obj
 0003:00001778       __vcrt_locks_initialized   0000000180033778     libvcruntime:locks.obj
 0003:000017c0       ?heap@@3V_HeapManager@@A   00000001800337c0     libvcruntime:undname.obj
 0003:000017e8       ?module_handles@@3PAPEAUHINSTANCE__@@A 00000001800337e8     libvcruntime:winapi_downlevel.obj
 0003:00001800       ?function_pointers@@3PAPEAXA 0000000180033800     libvcruntime:winapi_downlevel.obj
 0003:00001828       ?__acrt_invalid_parameter_handler@@3V?$dual_state_global@P6AXPEB_W00I_K@Z@__crt_state_management@@A 0000000180033828     libucrt:invalid_parameter.obj
 0003:00001830       ?c_termination_complete@@3JA 0000000180033830     libucrt:exit.obj
 0003:00001838       ?thread_local_exit_callback_func@@3P6AXPEAXK0@ZEA 0000000180033838     libucrt:exit.obj
 0003:00001850       ?program_name@?1???$common_configure_argv@D@@YAHW4_crt_argv_mode@@@Z@4PADA 0000000180033850     libucrt:argv_parsing.obj
 0003:000019a8       ?__acrt_new_handler@@3V?$dual_state_global@P6AH_K@Z@__crt_state_management@@A 00000001800339a8     libucrt:new_handler.obj
 0003:000019b0       ?module_handles@@3PAPEAUHINSTANCE__@@A 00000001800339b0     libucrt:winapi_thunks.obj
 0003:00001a50       ?encoded_function_pointers@@3PAPEAXA 0000000180033a50     libucrt:winapi_thunks.obj
 0003:00001b60       ?internal_state@?1??_mbtowc_l@@9@4U_Mbstatet@@A 0000000180033b60     libucrt:mbtowc.obj
 0003:00001b78       ?enable_percent_n@@3_KA    0000000180033b78     libucrt:printf_count_output.obj
 0003:00001fb0       ?__acrt_lock_table@@3PAU_RTL_CRITICAL_SECTION@@A 0000000180033fb0     libucrt:locks.obj
 0003:000021e0       ?__acrt_locks_initialized@@3IA 00000001800341e0     libucrt:locks.obj
 0003:00002200       ?fSystemSet@@3HA           0000000180034200     libucrt:mbctype.obj
 0003:00002204       ?initialized@?1??__acrt_initialize_multibyte@@9@4_NA 0000000180034204     libucrt:mbctype.obj
 0003:00002240       ?ctrlc_action@@3V?$dual_state_global@P6AXH@Z@__crt_state_management@@A 0000000180034240     libucrt:signal.obj
 0003:00002248       ?ctrlbreak_action@@3V?$dual_state_global@P6AXH@Z@__crt_state_management@@A 0000000180034248     libucrt:signal.obj
 0003:00002250       ?abort_action@@3V?$dual_state_global@P6AXH@Z@__crt_state_management@@A 0000000180034250     libucrt:signal.obj
 0003:00002258       ?term_action@@3V?$dual_state_global@P6AXH@Z@__crt_state_management@@A 0000000180034258     libucrt:signal.obj
 0003:00002260       ?user_matherr@@3V?$dual_state_global@P6AHPEAU_exception@@@Z@__crt_state_management@@A 0000000180034260     libucrt:matherr.obj
 0003:00002268       ?__acrt_global_new_mode@@3V?$dual_state_global@J@__crt_state_management@@A 0000000180034268     libucrt:new_mode.obj
 0003:00002278       ?internal_pst@?1??__mbrtoc32_utf8@__crt_mbstring@@YA_KPEA_UPEBD_KPEAU_Mbstatet@@@Z@4U3@A 0000000180034278     libucrt:mbrtoc32.obj
 0003:00002280       ?__acrt_app_type@@3W4_crt_app_type@@A 0000000180034280     libucrt:report_runtime_error.obj
 0005:00000000       MoveSmall                  0000000180037000     libvcruntime:memcpy.obj
 0005:00000050       MsetTab                    0000000180037050     libvcruntime:memset.obj
 0006:00000220       $R000000                   0000000180038220     ToneIndicator.res
 0006:00000bc8       $R0009A8                   0000000180038bc8     ToneIndicator.res
 0006:00000cb0       $R000A90                   0000000180038cb0     ToneIndicator.res
 0006:00000f18       $R000CF8                   0000000180038f18     ToneIndicator.res
 0006:00001498       $R001278                   0000000180039498     ToneIndicator.res
 0006:000043b8       $R004198                   000000018003c3b8     ToneIndicator.res
 0006:000043f8       $R0041D8                   000000018003c3f8     ToneIndicator.res
