 OPOSMSR

 Timestamp is 600f7979 (Tue Jan 26 11:07:53 2021)

 Preferred load address is 0000000180000000

 Start         Length     Name                   Class
 0001:00000000 000000c0H .text$di                CODE
 0001:000000c0 00021a50H .text$mn                CODE
 0001:00021b10 00000040H .text$mn$00             CODE
 0001:00021b50 000004b0H .text$x                 CODE
 0001:00022000 00000078H .text$yd                CODE
 0002:00000000 00000620H .idata$5                DATA
 0002:00000620 00000028H .00cfg                  DATA
 0002:00000648 00000008H .CRT$XCA                DATA
 0002:00000650 00000008H .CRT$XCL                DATA
 0002:00000658 00000020H .CRT$XCU                DATA
 0002:00000678 00000008H .CRT$XCZ                DATA
 0002:00000680 00000008H .CRT$XIA                DATA
 0002:00000688 00000020H .CRT$XIC                DATA
 0002:000006a8 00000008H .CRT$XIZ                DATA
 0002:000006b0 00000008H .CRT$XLA                DATA
 0002:000006b8 00000008H .CRT$XLZ                DATA
 0002:000006c0 00000008H .CRT$XPA                DATA
 0002:000006c8 00000010H .CRT$XPX                DATA
 0002:000006d8 00000008H .CRT$XPXA               DATA
 0002:000006e0 00000008H .CRT$XPZ                DATA
 0002:000006e8 00000008H .CRT$XTA                DATA
 0002:000006f0 00000010H .CRT$XTZ                DATA
 0002:000006f8 00000000H .gehcont$y              DATA
 0002:000006f8 00000000H .gfids$y                DATA
 0002:00000700 0000ac00H .rdata                  DATA
 0002:0000b300 00000000H .rdata$CastGuardVftablesA DATA
 0002:0000b300 00000000H .rdata$CastGuardVftablesC DATA
 0002:0000b300 00000028H .rdata$T                DATA
 0002:0000b328 00000274H .rdata$r                DATA
 0002:0000b59c 00000404H .rdata$zzzdbg           DATA
 0002:0000b9a0 00000008H .rtc$IAA                DATA
 0002:0000b9a8 00000008H .rtc$IZZ                DATA
 0002:0000b9b0 00000008H .rtc$TAA                DATA
 0002:0000b9b8 00000008H .rtc$TZZ                DATA
 0002:0000b9c0 00000004H .tls                    DATA
 0002:0000b9c4 00000004H .tls$                   DATA
 0002:0000b9c8 00000008H .tls$ZZZ                DATA
 0002:0000b9d0 000016c8H .xdata                  DATA
 0002:0000d098 00000150H .xdata$x                DATA
 0002:0000d1e8 00000008H ATL$__a                 DATA
 0002:0000d1f0 00000010H ATL$__z                 DATA
 0002:0000d200 000000a4H .edata                  DATA
 0002:0000d2a4 00000078H .idata$2                DATA
 0002:0000d31c 00000014H .idata$3                DATA
 0002:0000d330 00000620H .idata$4                DATA
 0002:0000d950 00000c2aH .idata$6                DATA
 0003:00000000 00000db8H .data                   DATA
 0003:00000db8 000000c8H .data$r                 DATA
 0003:00000e80 0000141cH .bss                    DATA
 0004:00000000 00001f08H .pdata                  DATA
 0005:00000000 00000094H _RDATA                  DATA
 0006:00000000 00000220H .rsrc$01                DATA
 0006:00000220 00005b88H .rsrc$02                DATA

  Address         Publics by Value              Rva+Base               Lib:Object

 0000:00000000       __guard_longjmp_table      0000000000000000     <absolute>
 0000:00000000       __x64_code_ranges_to_entry_points 0000000000000000     <absolute>
 0000:00000000       __x64_code_ranges_to_entry_points_count 0000000000000000     <absolute>
 0000:00000000       __guard_fids_count         0000000000000000     <absolute>
 0000:00000000       __arm64x_redirection_metadata 0000000000000000     <absolute>
 0000:00000000       __arm64x_extra_rfe_table   0000000000000000     <absolute>
 0000:00000000       __guard_iat_table          0000000000000000     <absolute>
 0000:00000000       __hybrid_code_map          0000000000000000     <absolute>
 0000:00000000       __volatile_metadata        0000000000000000     <absolute>
 0000:00000000       __guard_iat_count          0000000000000000     <absolute>
 0000:00000000       __arm64x_extra_rfe_table_size 0000000000000000     <absolute>
 0000:00000000       __guard_longjmp_count      0000000000000000     <absolute>
 0000:00000000       ___safe_se_handler_count   0000000000000000     <absolute>
 0000:00000000       ___safe_se_handler_table   0000000000000000     <absolute>
 0000:00000000       __dynamic_value_reloc_table 0000000000000000     <absolute>
 0000:00000000       __hybrid_auxiliary_iat     0000000000000000     <absolute>
 0000:00000000       __AbsoluteZero             0000000000000000     <absolute>
 0000:00000000       __guard_eh_cont_count      0000000000000000     <absolute>
 0000:00000000       __guard_fids_table         0000000000000000     <absolute>
 0000:00000000       __arm64x_redirection_metadata_count 0000000000000000     <absolute>
 0000:00000000       __enclave_config           0000000000000000     <absolute>
 0000:00000000       __guard_eh_cont_table      0000000000000000     <absolute>
 0000:00000000       __arm64x_native_entrypoint 0000000000000000     <absolute>
 0000:00000000       __hybrid_code_map_count    0000000000000000     <absolute>
 0000:00000100       __guard_flags              0000000000000100     <absolute>
 0000:00000000       __ImageBase                0000000180000000     <linker-defined>
 0001:000000c0       ?DupWide@_CW@@AEAAXXZ      00000001800010c0 f   CWString.obj
 0001:000000e8       ?cw_dup@@YAXPEBDAEAHAEAPEA_W1@Z 00000001800010e8 f   CWString.obj
 0001:000001c8       ?cw_memcpy@@YAHPEA_WPEBDH@Z 00000001800011c8 f   CWString.obj
 0001:00000214       ?cw_strcpy@@YAHPEA_WPEBD@Z 0000000180001214 f   CWString.obj
 0001:00000228       ??0CAtlComModule@ATL@@QEAA@XZ 0000000180001228 f i OposVariant.obj
 0001:000002a8       ??0CAtlWinModule@ATL@@QEAA@XZ 00000001800012a8 f i OposVariant.obj
 0001:00000314       ??0OposDispParms@@QEAA@PEAVOposVariant@@H@Z 0000000180001314 f   OposVariant.obj
 0001:000003bc       ??1OposDispParms@@QEAA@XZ  00000001800013bc f   OposVariant.obj
 0001:000003d4       ??_Estringdispid@CComTypeInfoHolder@ATL@@QEAAPEAXI@Z 00000001800013d4 f i OposVariant.obj
 0001:00000478       ?AtlWinModuleTerm@ATL@@YAJPEAU_ATL_WIN_MODULE70@1@PEAUHINSTANCE__@@@Z 0000000180001478 f i OposVariant.obj
 0001:00000528       ?ChangeBSTR@OposVariant@@QEAAXPEAPEA_WAEAJ@Z 0000000180001528 f   OposVariant.obj
 0001:00000588       ?ChangeLONG@OposVariant@@QEAAXPEAJAEAJ@Z 0000000180001588 f   OposVariant.obj
 0001:000005e4       ?GetLONG@OposVariant@@QEAAJXZ 00000001800015e4 f   OposVariant.obj
 0001:00000608       ?SetBSTR@OposVariant@@QEAAXPEA_WAEAJ@Z 0000000180001608 f   OposVariant.obj
 0001:00000648       ?SetBSTR_Copy@OposVariant@@QEAAXPEA_WAEAJ@Z 0000000180001648 f   OposVariant.obj
 0001:000006b8       ?SetBSTR_InOutPtr@OposVariant@@QEAA_NPEAPEA_WAEAJ@Z 00000001800016b8 f   OposVariant.obj
 0001:00000708       ?SetBSTR_OutPtr@OposVariant@@QEAA_NPEAPEA_WAEAJ@Z 0000000180001708 f   OposVariant.obj
 0001:00000724       ?SetDispatch_Ptr@OposVariant@@QEAAXPEAUIDispatch@@AEAJ@Z 0000000180001724 f   OposVariant.obj
 0001:0000077c       ?SetLONG@OposVariant@@QEAAXJ@Z 000000018000177c f   OposVariant.obj
 0001:000007ac       ?SetLONG_Ptr@OposVariant@@QEAAXPEAJAEAJ@Z 00000001800017ac f   OposVariant.obj
 0001:000007f8       ?SetString@OposVariant@@QEAAXPEB_WAEAJ@Z 00000001800017f8 f   OposVariant.obj
 0001:0000085c       ?SetVARIANT@OposVariant@@QEAAXAEAUtagVARIANT@@GAEAJ@Z 000000018000185c f   OposVariant.obj
 0001:000008cc       ?SetVARIANT_BOOL@OposVariant@@QEAAXF@Z 00000001800018cc f   OposVariant.obj
 0001:00000904       ?Term@CAtlComModule@ATL@@QEAAXXZ 0000000180001904 f i OposVariant.obj
 0001:00000974       ?_AtlInitializeCriticalSectionEx@ATL@@YAHPEAU_RTL_CRITICAL_SECTION@@KK@Z 0000000180001974 f i OposVariant.obj
 0001:0000097c       ?_AtlRaiseException@ATL@@YAXKK@Z 000000018000197c f i OposVariant.obj
 0001:0000098c       ?GetWindowProc@?$CWindowImplBaseT@VCWindow@ATL@@V?$CWinTraits@$0FGAAAAAA@$0A@@2@@ATL@@UEAAP6A_JPEAUHWND__@@I_K_J@ZXZ 000000018000198c f i MSR.obj
 0001:00000994       ?StartWindowProc@?$CWindowImplBaseT@VCWindow@ATL@@V?$CWinTraits@$0FGAAAAAA@$0A@@2@@ATL@@SA_JPEAUHWND__@@I_K_J@Z 0000000180001994 f i MSR.obj
 0001:00000a58       _guard_check_icall_nop     0000000180001a58 f i LIBCMT:guard_support.obj
 0001:00000a58       ?ObjectMain@CComObjectRootBase@ATL@@SAX_N@Z 0000000180001a58 f i MSR.obj
 0001:00000a58       ?OnFinalMessage@?$CWindowImplBaseT@VCWindow@ATL@@V?$CWinTraits@$0FGAAAAAA@$0A@@2@@ATL@@UEAAXPEAUHWND__@@@Z 0000000180001a58 f i MSR.obj
 0001:00000a5c       ?GetTypeInfoCount@?$IDispatchImpl@UIOPOSMSR@@$1?IID_IOPOSMSR@@3U_GUID@@B$1?LIBID_OposMSR_CCO@@3U3@B$00$0A@VCComTypeInfoHolder@ATL@@@ATL@@UEAAJPEAI@Z 0000000180001a5c f i MSR.obj
 0001:00000a70       ?GetTypeInfo@?$IDispatchImpl@UIOPOSMSR@@$1?IID_IOPOSMSR@@3U_GUID@@B$1?LIBID_OposMSR_CCO@@3U3@B$00$0A@VCComTypeInfoHolder@ATL@@@ATL@@UEAAJIKPEAPEAUITypeInfo@@@Z 0000000180001a70 f i MSR.obj
 0001:00000ad4       ?GetIDsOfNames@?$IDispatchImpl@UIOPOSMSR@@$1?IID_IOPOSMSR@@3U_GUID@@B$1?LIBID_OposMSR_CCO@@3U3@B$00$0A@VCComTypeInfoHolder@ATL@@@ATL@@UEAAJAEBU_GUID@@PEAPEA_WIKPEAJ@Z 0000000180001ad4 f i MSR.obj
 0001:00000ae0       ?Invoke@?$IDispatchImpl@UIOPOSMSR@@$1?IID_IOPOSMSR@@3U_GUID@@B$1?LIBID_OposMSR_CCO@@3U3@B$00$0A@VCComTypeInfoHolder@ATL@@@ATL@@UEAAJJAEBU_GUID@@KGPEAUtagDISPPARAMS@@PEAUtagVARIANT@@PEAUtagEXCEPINFO@@PEAI@Z 0000000180001ae0 f i MSR.obj
 0001:00000b70       ?CreateControlWindow@?$CComControl@VCOPOSMSR@@V?$CWindowImpl@VCOPOSMSR@@VCWindow@ATL@@V?$CWinTraits@$0FGAAAAAA@$0A@@3@@ATL@@@ATL@@UEAAPEAUHWND__@@PEAU3@AEAUtagRECT@@@Z 0000000180001b70 f i MSR.obj
 0001:00000ba8       ?ControlQueryInterface@?$CComControl@VCOPOSMSR@@V?$CWindowImpl@VCOPOSMSR@@VCWindow@ATL@@V?$CWinTraits@$0FGAAAAAA@$0A@@3@@ATL@@@ATL@@UEAAJAEBU_GUID@@PEAPEAX@Z 0000000180001ba8 f i MSR.obj
 0001:00000bbc       ?GetClassID@?$IPersistStreamInitImpl@VCOPOSMSR@@@ATL@@UEAAJPEAU_GUID@@@Z 0000000180001bbc f i MSR.obj
 0001:00000bbc       ?GetClassID@?$IPersistStorageImpl@VCOPOSMSR@@@ATL@@UEAAJPEAU_GUID@@@Z 0000000180001bbc f i MSR.obj
 0001:00000bbc       ?GetUserClassID@?$IOleObjectImpl@VCOPOSMSR@@@ATL@@UEAAJPEAU_GUID@@@Z 0000000180001bbc f i MSR.obj
 0001:00000bd8       ?IsDirty@?$IPersistStreamInitImpl@VCOPOSMSR@@@ATL@@UEAAJXZ 0000000180001bd8 f i MSR.obj
 0001:00000bf4       ?Load@?$IPersistStreamInitImpl@VCOPOSMSR@@@ATL@@UEAAJPEAUIStream@@@Z 0000000180001bf4 f i MSR.obj
 0001:00000c0c       ?Save@?$IPersistStreamInitImpl@VCOPOSMSR@@@ATL@@UEAAJPEAUIStream@@H@Z 0000000180001c0c f i MSR.obj
 0001:00000c24       ?GetSizeMax@?$IPersistStreamInitImpl@VCOPOSMSR@@@ATL@@UEAAJPEAT_ULARGE_INTEGER@@@Z 0000000180001c24 f i MSR.obj
 0001:00000e50       ?InitNew@?$IPersistStreamInitImpl@VCOPOSMSR@@@ATL@@UEAAJXZ 0000000180001e50 f i MSR.obj
 0001:00000e68       ?SetData@?$IDataObjectImpl@VCOPOSMSR@@@ATL@@UEAAJPEAUtagFORMATETC@@PEAUtagSTGMEDIUM@@H@Z 0000000180001e68 f i MSR.obj
 0001:00000e68       ?ContextSensitiveHelp@?$IOleInPlaceObjectWindowlessImpl@VCOPOSMSR@@@ATL@@UEAAJH@Z 0000000180001e68 f i MSR.obj
 0001:00000e68       ?GetMoniker@?$IOleObjectImpl@VCOPOSMSR@@@ATL@@UEAAJKKPEAPEAUIMoniker@@@Z 0000000180001e68 f i MSR.obj
 0001:00000e68       ?GetDropTarget@?$IOleInPlaceObjectWindowlessImpl@VCOPOSMSR@@@ATL@@UEAAJPEAPEAUIDropTarget@@@Z 0000000180001e68 f i MSR.obj
 0001:00000e68       ?InitFromData@?$IOleObjectImpl@VCOPOSMSR@@@ATL@@UEAAJPEAUIDataObject@@HK@Z 0000000180001e68 f i MSR.obj
 0001:00000e68       ?SetColorScheme@?$IOleObjectImpl@VCOPOSMSR@@@ATL@@UEAAJPEAUtagLOGPALETTE@@@Z 0000000180001e68 f i MSR.obj
 0001:00000e68       ?Freeze@?$IViewObjectExImpl@VCOPOSMSR@@@ATL@@UEAAJKJPEAXPEAK@Z 0000000180001e68 f i MSR.obj
 0001:00000e68       ?GetCanonicalFormatEtc@?$IDataObjectImpl@VCOPOSMSR@@@ATL@@UEAAJPEAUtagFORMATETC@@0@Z 0000000180001e68 f i MSR.obj
 0001:00000e68       ?ReactivateAndUndo@?$IOleInPlaceObjectWindowlessImpl@VCOPOSMSR@@@ATL@@UEAAJXZ 0000000180001e68 f i MSR.obj
 0001:00000e68       ?EnumFormatEtc@?$IDataObjectImpl@VCOPOSMSR@@@ATL@@UEAAJKPEAPEAUIEnumFORMATETC@@@Z 0000000180001e68 f i MSR.obj
 0001:00000e68       ?ContextSensitiveHelp@?$IOleInPlaceActiveObjectImpl@VCOPOSMSR@@@ATL@@UEAAJH@Z 0000000180001e68 f i MSR.obj
 0001:00000e68       ?QueryInterface@CRegObject@ATL@@UEAAJAEBU_GUID@@PEAPEAX@Z 0000000180001e68 f i MSR.obj
 0001:00000e68       ?GetColorSet@?$IViewObjectExImpl@VCOPOSMSR@@@ATL@@UEAAJKJPEAXPEAUtagDVTARGETDEVICE@@PEAUHDC__@@PEAPEAUtagLOGPALETTE@@@Z 0000000180001e68 f i MSR.obj
 0001:00000e68       ?SOOutputCompleteDummy@COPOSMSR@@MEAAJJ@Z 0000000180001e68 f i MSR.obj
 0001:00000e68       ?QueryGetData@?$IDataObjectImpl@VCOPOSMSR@@@ATL@@UEAAJPEAUtagFORMATETC@@@Z 0000000180001e68 f i MSR.obj
 0001:00000e68       ?SetMoniker@?$IOleObjectImpl@VCOPOSMSR@@@ATL@@UEAAJKPEAUIMoniker@@@Z 0000000180001e68 f i MSR.obj
 0001:00000e68       ?OnMnemonic@?$IOleControlImpl@VCOPOSMSR@@@ATL@@UEAAJPEAUtagMSG@@@Z 0000000180001e68 f i MSR.obj
 0001:00000e68       ?GetDataHere@?$IDataObjectImpl@VCOPOSMSR@@@ATL@@UEAAJPEAUtagFORMATETC@@PEAUtagSTGMEDIUM@@@Z 0000000180001e68 f i MSR.obj
 0001:00000e68       ?GetRect@?$IViewObjectExImpl@VCOPOSMSR@@@ATL@@UEAAJKPEAU_RECTL@@@Z 0000000180001e68 f i MSR.obj
 0001:00000e68       ?Unfreeze@?$IViewObjectExImpl@VCOPOSMSR@@@ATL@@UEAAJK@Z 0000000180001e68 f i MSR.obj
 0001:00000e68       ?GetClipboardData@?$IOleObjectImpl@VCOPOSMSR@@@ATL@@UEAAJKPEAPEAUIDataObject@@@Z 0000000180001e68 f i MSR.obj
 0001:00000e68       ?GetControlInfo@?$IOleControlImpl@VCOPOSMSR@@@ATL@@UEAAJPEAUtagCONTROLINFO@@@Z 0000000180001e68 f i MSR.obj
 0001:00000e70       ?ResizeBorder@?$IOleInPlaceActiveObjectImpl@VCOPOSMSR@@@ATL@@UEAAJPEBUtagRECT@@PEAUIOleInPlaceUIWindow@@H@Z 0000000180001e70 f i MSR.obj
 0001:00000e70       ?EnableModeless@?$IOleInPlaceActiveObjectImpl@VCOPOSMSR@@@ATL@@UEAAJH@Z 0000000180001e70 f i MSR.obj
 0001:00000e70       ?SaveCompleted@?$IPersistStorageImpl@VCOPOSMSR@@@ATL@@UEAAJPEAUIStorage@@@Z 0000000180001e70 f i MSR.obj
 0001:00000e70       ?Release@CRegObject@ATL@@UEAAKXZ 0000000180001e70 f i MSR.obj
 0001:00000e70       ?SetHostNames@?$IOleObjectImpl@VCOPOSMSR@@@ATL@@UEAAJPEB_W0@Z 0000000180001e70 f i MSR.obj
 0001:00000e70       ?IsUpToDate@?$IOleObjectImpl@VCOPOSMSR@@@ATL@@UEAAJXZ 0000000180001e70 f i MSR.obj
 0001:00000e70       ?GetCategoryMap@CComObjectRootBase@ATL@@SAPEBU_ATL_CATMAP_ENTRY@2@XZ 0000000180001e70 f i MSR.obj
 0001:00000e70       ?Update@?$IOleObjectImpl@VCOPOSMSR@@@ATL@@UEAAJXZ 0000000180001e70 f i MSR.obj
 0001:00000e70       ?OnAmbientPropertyChange@?$IOleControlImpl@VCOPOSMSR@@@ATL@@UEAAJJ@Z 0000000180001e70 f i MSR.obj
 0001:00000e70       ?GetObjectDescription@?$CComCoClass@VCOPOSMSR@@$1?CLSID_OPOSMSR@@3U_GUID@@B@ATL@@SAPEB_WXZ 0000000180001e70 f i MSR.obj
 0001:00000e70       ?OnFrameWindowActivate@?$IOleInPlaceActiveObjectImpl@VCOPOSMSR@@@ATL@@UEAAJH@Z 0000000180001e70 f i MSR.obj
 0001:00000e70       ?HandsOffStorage@?$IPersistStorageImpl@VCOPOSMSR@@@ATL@@UEAAJXZ 0000000180001e70 f i MSR.obj
 0001:00000e74       ?SetClientSite@?$IOleObjectImpl@VCOPOSMSR@@@ATL@@UEAAJPEAUIOleClientSite@@@Z 0000000180001e74 f i MSR.obj
 0001:00000e90       ?GetClientSite@?$IOleObjectImpl@VCOPOSMSR@@@ATL@@UEAAJPEAPEAUIOleClientSite@@@Z 0000000180001e90 f i MSR.obj
 0001:00000ed8       ?Close@?$IOleObjectImpl@VCOPOSMSR@@@ATL@@UEAAJK@Z 0000000180001ed8 f i MSR.obj
 0001:00000ef4       ?DoVerb@?$IOleObjectImpl@VCOPOSMSR@@@ATL@@UEAAJJPEAUtagMSG@@PEAUIOleClientSite@@JPEAUHWND__@@PEBUtagRECT@@@Z 0000000180001ef4 f i MSR.obj
 0001:00001098       ?EnumVerbs@?$IOleObjectImpl@VCOPOSMSR@@@ATL@@UEAAJPEAPEAUIEnumOLEVERB@@@Z 0000000180002098 f i MSR.obj
 0001:000010b4       ?GetUserType@?$IOleObjectImpl@VCOPOSMSR@@@ATL@@UEAAJKPEAPEA_W@Z 00000001800020b4 f i MSR.obj
 0001:000010c4       ?SetExtent@?$IOleObjectImpl@VCOPOSMSR@@@ATL@@UEAAJKPEAUtagSIZE@@@Z 00000001800020c4 f i MSR.obj
 0001:000010e0       ?GetExtent@?$IOleObjectImpl@VCOPOSMSR@@@ATL@@UEAAJKPEAUtagSIZE@@@Z 00000001800020e0 f i MSR.obj
 0001:00001110       ?Advise@?$IOleObjectImpl@VCOPOSMSR@@@ATL@@UEAAJPEAUIAdviseSink@@PEAK@Z 0000000180002110 f i MSR.obj
 0001:0000116c       ?Unadvise@?$IOleObjectImpl@VCOPOSMSR@@@ATL@@UEAAJK@Z 000000018000216c f i MSR.obj
 0001:000011a4       ?EnumAdvise@?$IOleObjectImpl@VCOPOSMSR@@@ATL@@UEAAJPEAPEAUIEnumSTATDATA@@@Z 00000001800021a4 f i MSR.obj
 0001:000011ec       ?GetMiscStatus@?$IOleObjectImpl@VCOPOSMSR@@@ATL@@UEAAJKPEAK@Z 00000001800021ec f i MSR.obj
 0001:000011fc       ?GetWindow@?$IOleInPlaceActiveObjectImpl@VCOPOSMSR@@@ATL@@UEAAJPEAPEAUHWND__@@@Z 00000001800021fc f i MSR.obj
 0001:00001250       ?TranslateAcceleratorW@?$IOleInPlaceActiveObjectImpl@VCOPOSMSR@@@ATL@@UEAAJPEAUtagMSG@@@Z 0000000180002250 f i MSR.obj
 0001:00001344       ?OnDocWindowActivate@?$IOleInPlaceActiveObjectImpl@VCOPOSMSR@@@ATL@@UEAAJH@Z 0000000180002344 f i MSR.obj
 0001:00001370       ?Draw@?$IViewObjectExImpl@VCOPOSMSR@@@ATL@@UEAAJKJPEAXPEAUtagDVTARGETDEVICE@@PEAUHDC__@@2PEBU_RECTL@@3P6AH_K@Z4@Z 0000000180002370 f i MSR.obj
 0001:000013d4       ?SetAdvise@?$IViewObjectExImpl@VCOPOSMSR@@@ATL@@UEAAJKKPEAUIAdviseSink@@@Z 00000001800023d4 f i MSR.obj
 0001:00001428       ?GetAdvise@?$IViewObjectExImpl@VCOPOSMSR@@@ATL@@UEAAJPEAK0PEAPEAUIAdviseSink@@@Z 0000000180002428 f i MSR.obj
 0001:00001464       ?GetExtent@?$IViewObjectExImpl@VCOPOSMSR@@@ATL@@UEAAJKJPEAUtagDVTARGETDEVICE@@PEAUtagSIZE@@@Z 0000000180002464 f i MSR.obj
 0001:00001494       ?GetViewStatus@?$IViewObjectExImpl@VCOPOSMSR@@@ATL@@UEAAJPEAK@Z 0000000180002494 f i MSR.obj
 0001:000014a8       ?QueryHitPoint@?$IViewObjectExImpl@VCOPOSMSR@@@ATL@@UEAAJKPEBUtagRECT@@UtagPOINT@@JPEAK@Z 00000001800024a8 f i MSR.obj
 0001:000014ec       ?QueryHitRect@?$IViewObjectExImpl@VCOPOSMSR@@@ATL@@UEAAJKPEBUtagRECT@@0JPEAK@Z 00000001800024ec f i MSR.obj
 0001:00001554       ?GetNaturalExtent@?$IViewObjectExImpl@VCOPOSMSR@@@ATL@@UEAAJKJPEAUtagDVTARGETDEVICE@@PEAUHDC__@@PEAUtagExtentInfo@@PEAUtagSIZE@@@Z 0000000180002554 f i MSR.obj
 0001:0000159c       ?GetWindow@?$IOleInPlaceObjectWindowlessImpl@VCOPOSMSR@@@ATL@@UEAAJPEAPEAUHWND__@@@Z 000000018000259c f i MSR.obj
 0001:000015f0       ?InPlaceDeactivate@?$IOleInPlaceObjectWindowlessImpl@VCOPOSMSR@@@ATL@@UEAAJXZ 00000001800025f0 f i MSR.obj
 0001:0000160c       ?UIDeactivate@?$IOleInPlaceObjectWindowlessImpl@VCOPOSMSR@@@ATL@@UEAAJXZ 000000018000260c f i MSR.obj
 0001:00001628       ?SetObjectRects@?$IOleInPlaceObjectWindowlessImpl@VCOPOSMSR@@@ATL@@UEAAJPEBUtagRECT@@0@Z 0000000180002628 f i MSR.obj
 0001:00001644       ?OnWindowMessage@?$IOleInPlaceObjectWindowlessImpl@VCOPOSMSR@@@ATL@@UEAAJI_K_JPEA_J@Z 0000000180002644 f i MSR.obj
 0001:0000170c       ?EnumConnectionPoints@?$IConnectionPointContainerImpl@VCOPOSMSR@@@ATL@@UEAAJPEAPEAUIEnumConnectionPoints@@@Z 000000018000270c f i MSR.obj
 0001:00001958       ?FindConnectionPoint@?$IConnectionPointContainerImpl@VCOPOSMSR@@@ATL@@UEAAJAEBU_GUID@@PEAPEAUIConnectionPoint@@@Z 0000000180002958 f i MSR.obj
 0001:00001a28       ?IsDirty@?$IPersistStorageImpl@VCOPOSMSR@@@ATL@@UEAAJXZ 0000000180002a28 f i MSR.obj
 0001:00001a68       ?InitNew@?$IPersistStorageImpl@VCOPOSMSR@@@ATL@@UEAAJPEAUIStorage@@@Z 0000000180002a68 f i MSR.obj
 0001:00001aa8       ?Load@?$IPersistStorageImpl@VCOPOSMSR@@@ATL@@UEAAJPEAUIStorage@@@Z 0000000180002aa8 f i MSR.obj
 0001:00001b48       ?Save@?$IPersistStorageImpl@VCOPOSMSR@@@ATL@@UEAAJPEAUIStorage@@H@Z 0000000180002b48 f i MSR.obj
 0001:00001bf8       ?GetPages@?$ISpecifyPropertyPagesImpl@VCOPOSMSR@@@ATL@@UEAAJPEAUtagCAUUID@@@Z 0000000180002bf8 f i MSR.obj
 0001:00001c04       ?QuickActivate@?$IQuickActivateImpl@VCOPOSMSR@@@ATL@@UEAAJPEAUtagQACONTAINER@@PEAUtagQACONTROL@@@Z 0000000180002c04 f i MSR.obj
 0001:00001c20       ?SetContentExtent@?$IQuickActivateImpl@VCOPOSMSR@@@ATL@@UEAAJPEAUtagSIZE@@@Z 0000000180002c20 f i MSR.obj
 0001:00001c54       ?GetContentExtent@?$IQuickActivateImpl@VCOPOSMSR@@@ATL@@UEAAJPEAUtagSIZE@@@Z 0000000180002c54 f i MSR.obj
 0001:00001c8c       ?GetData@?$IDataObjectImpl@VCOPOSMSR@@@ATL@@UEAAJPEAUtagFORMATETC@@PEAUtagSTGMEDIUM@@@Z 0000000180002c8c f i MSR.obj
 0001:00001ca8       ?DAdvise@?$IDataObjectImpl@VCOPOSMSR@@@ATL@@UEAAJPEAUtagFORMATETC@@KPEAUIAdviseSink@@PEAK@Z 0000000180002ca8 f i MSR.obj
 0001:00001d30       ?DUnadvise@?$IDataObjectImpl@VCOPOSMSR@@@ATL@@UEAAJK@Z 0000000180002d30 f i MSR.obj
 0001:00001d5c       ?EnumDAdvise@?$IDataObjectImpl@VCOPOSMSR@@@ATL@@UEAAJPEAPEAUIEnumSTATDATA@@@Z 0000000180002d5c f i MSR.obj
 0001:00001d98       ?GetClassInfoW@?$IProvideClassInfo2Impl@$1?CLSID_OPOSMSR@@3U_GUID@@B$1?DIID__IOPOSMSREvents@@3U2@B$1?LIBID_OposMSR_CCO@@3U2@B$00$0A@VCComTypeInfoHolder@ATL@@@ATL@@UEAAJPEAPEAUITypeInfo@@@Z 0000000180002d98 f i MSR.obj
 0001:00001df0       ?GetGUID@?$IProvideClassInfo2Impl@$1?CLSID_OPOSMSR@@3U_GUID@@B$1?DIID__IOPOSMSREvents@@3U2@B$1?LIBID_OposMSR_CCO@@3U2@B$00$0A@VCComTypeInfoHolder@ATL@@@ATL@@UEAAJKPEAU_GUID@@@Z 0000000180002df0 f i MSR.obj
 0001:00001e24       ?FAccessAllowed@?$IObjectSafetyImpl@VCOPOSMSR@@$02@ATL@@MEAAHXZ 0000000180002e24 f i MSR.obj
 0001:00001e24       _get_startup_argv_mode     0000000180002e24 f i LIBCMT:argv_mode.obj
 0001:00001e24       ?AddRef@CRegObject@ATL@@UEAAKXZ 0000000180002e24 f i MSR.obj
 0001:00001e2c       ?GetInterfaceSafetyOptions@?$IObjectSafetyImpl@VCOPOSMSR@@$02@ATL@@UEAAJAEBU_GUID@@PEAK1@Z 0000000180002e2c f i MSR.obj
 0001:00001ec0       ?SetInterfaceSafetyOptions@?$IObjectSafetyImpl@VCOPOSMSR@@$02@ATL@@UEAAJAEBU_GUID@@KK@Z 0000000180002ec0 f i MSR.obj
 0001:00001f64       ?_LocCPQueryInterface@?$IConnectionPointImpl@VCOPOSMSR@@$1?IID_IPropertyNotifySink@@3U_GUID@@BVCComDynamicUnkArray@ATL@@@ATL@@UEAAJAEBU_GUID@@PEAPEAX@Z 0000000180002f64 f i MSR.obj
 0001:00001f64       ?_LocCPQueryInterface@?$IConnectionPointImpl@VCOPOSMSR@@$1?DIID__IOPOSMSREvents@@3U_GUID@@BVCComDynamicUnkArray@ATL@@@ATL@@UEAAJAEBU_GUID@@PEAPEAX@Z 0000000180002f64 f i MSR.obj
 0001:00001fd4       ?GetConnectionInterface@?$IConnectionPointImpl@VCOPOSMSR@@$1?IID_IPropertyNotifySink@@3U_GUID@@BVCComDynamicUnkArray@ATL@@@ATL@@UEAAJPEAU_GUID@@@Z 0000000180002fd4 f i MSR.obj
 0001:00001ff0       ?GetConnectionPointContainer@?$IConnectionPointImpl@VCOPOSMSR@@$1?IID_IPropertyNotifySink@@3U_GUID@@BVCComDynamicUnkArray@ATL@@@ATL@@UEAAJPEAPEAUIConnectionPointContainer@@@Z 0000000180002ff0 f i MSR.obj
 0001:00002010       ?Advise@?$IConnectionPointImpl@VCOPOSMSR@@$1?DIID__IOPOSMSREvents@@3U_GUID@@BVCComDynamicUnkArray@ATL@@@ATL@@UEAAJPEAUIUnknown@@PEAK@Z 0000000180003010 f i MSR.obj
 0001:00002010       ?Advise@?$IConnectionPointImpl@VCOPOSMSR@@$1?IID_IPropertyNotifySink@@3U_GUID@@BVCComDynamicUnkArray@ATL@@@ATL@@UEAAJPEAUIUnknown@@PEAK@Z 0000000180003010 f i MSR.obj
 0001:000020cc       ?Unadvise@?$IConnectionPointImpl@VCOPOSMSR@@$1?DIID__IOPOSMSREvents@@3U_GUID@@BVCComDynamicUnkArray@ATL@@@ATL@@UEAAJK@Z 00000001800030cc f i MSR.obj
 0001:000020cc       ?Unadvise@?$IConnectionPointImpl@VCOPOSMSR@@$1?IID_IPropertyNotifySink@@3U_GUID@@BVCComDynamicUnkArray@ATL@@@ATL@@UEAAJK@Z 00000001800030cc f i MSR.obj
 0001:00002134       ?EnumConnections@?$IConnectionPointImpl@VCOPOSMSR@@$1?IID_IPropertyNotifySink@@3U_GUID@@BVCComDynamicUnkArray@ATL@@@ATL@@UEAAJPEAPEAUIEnumConnections@@@Z 0000000180003134 f i MSR.obj
 0001:00002134       ?EnumConnections@?$IConnectionPointImpl@VCOPOSMSR@@$1?DIID__IOPOSMSREvents@@3U_GUID@@BVCComDynamicUnkArray@ATL@@@ATL@@UEAAJPEAPEAUIEnumConnections@@@Z 0000000180003134 f i MSR.obj
 0001:000022e0       ?GetConnectionInterface@?$IConnectionPointImpl@VCOPOSMSR@@$1?DIID__IOPOSMSREvents@@3U_GUID@@BVCComDynamicUnkArray@ATL@@@ATL@@UEAAJPEAU_GUID@@@Z 00000001800032e0 f i MSR.obj
 0001:000022fc       ?GetConnectionPointContainer@?$IConnectionPointImpl@VCOPOSMSR@@$1?DIID__IOPOSMSREvents@@3U_GUID@@BVCComDynamicUnkArray@ATL@@@ATL@@UEAAJPEAPEAUIConnectionPointContainer@@@Z 00000001800032fc f i MSR.obj
 0001:0000231c       ?UpdateRegistry@COPOSMSR@@SAJH@Z 000000018000331c f i MSR.obj
 0001:00002334       ?ProcessWindowMessage@COPOSMSR@@UEAAHPEAUHWND__@@I_K_JAEA_JK@Z 0000000180003334 f i MSR.obj
 0001:000023bc       ?SOData@COPOSMSR@@MEAAJJ@Z 00000001800033bc f i MSR.obj
 0001:0000240c       ?SODirectIO@COPOSMSR@@MEAAJJPEAJPEAPEA_W@Z 000000018000340c f i MSR.obj
 0001:00002484       ?SOError@COPOSMSR@@MEAAJJJJPEAJ@Z 0000000180003484 f i MSR.obj
 0001:0000250c       ?SOStatusUpdate@COPOSMSR@@MEAAJJ@Z 000000018000350c f i MSR.obj
 0001:0000255c       ?Lock@CAtlModule@ATL@@UEAAJXZ 000000018000355c f i MSR.obj
 0001:0000256c       ?Unlock@CAtlModule@ATL@@UEAAJXZ 000000018000356c f i MSR.obj
 0001:00002578       ?GetLockCount@CAtlModule@ATL@@UEAAJXZ 0000000180003578 f i MSR.obj
 0001:0000257c       ?GetGITPtr@CAtlModule@ATL@@UEAAJPEAPEAUIGlobalInterfaceTable@@@Z 000000018000357c f i MSR.obj
 0001:000025ec       ?AddCommonRGSReplacements@?$CAtlModuleT@VCComModule@ATL@@@ATL@@UEAAJPEAUIRegistrarBase@@@Z 00000001800035ec f i MSR.obj
 0001:00002604       ?UpdateRegistryFromResourceD@CComModule@ATL@@UEAAJIHPEAU_ATL_REGMAP_ENTRY@2@@Z 0000000180003604 f i MSR.obj
 0001:00002604       ?UpdateRegistryFromResourceD@CComModule@ATL@@UEAAJPEB_WHPEAU_ATL_REGMAP_ENTRY@2@@Z 0000000180003604 f i MSR.obj
 0001:0000260c       ?UpdateRegistryFromResource@CComModule@ATL@@UEAAJPEB_WHPEAU_ATL_REGMAP_ENTRY@2@@Z 000000018000360c f i MSR.obj
 0001:00002614       ?UpdateRegistryFromResource@CComModule@ATL@@UEAAJIHPEAU_ATL_REGMAP_ENTRY@2@@Z 0000000180003614 f i MSR.obj
 0001:0000261c       ??_ECComModule@ATL@@UEAAPEAXI@Z 000000018000361c f i MSR.obj
 0001:0000261c       ??_GCComModule@ATL@@UEAAPEAXI@Z 000000018000361c f i MSR.obj
 0001:0000265c       ?CreateInstance@?$CComCreator@V?$CComObjectCached@VCComClassFactory@ATL@@@ATL@@@ATL@@SAJPEAXAEBU_GUID@@PEAPEAX@Z 000000018000365c f i MSR.obj
 0001:00002780       ?CreateInstance@?$CComCreator2@V?$CComCreator@V?$CComObject@VCOPOSMSR@@@ATL@@@ATL@@V?$CComCreator@V?$CComAggObject@VCOPOSMSR@@@ATL@@@2@@ATL@@SAJPEAXAEBU_GUID@@PEAPEAX@Z 0000000180003780 f i MSR.obj
 0001:00002790       ?AddRef@?$CComObjectCached@VCComClassFactory@ATL@@@ATL@@UEAAKXZ 0000000180003790 f i MSR.obj
 0001:000027bc       ?Release@?$CComObjectCached@VCComClassFactory@ATL@@@ATL@@UEAAKXZ 00000001800037bc f i MSR.obj
 0001:000027fc       ?QueryInterface@?$CComObjectCached@VCComClassFactory@ATL@@@ATL@@UEAAJAEBU_GUID@@PEAPEAX@Z 00000001800037fc f i MSR.obj
 0001:00002810       ??_G?$CComObjectCached@VCComClassFactory@ATL@@@ATL@@UEAAPEAXI@Z 0000000180003810 f i MSR.obj
 0001:00002810       ??_E?$CComObjectCached@VCComClassFactory@ATL@@@ATL@@UEAAPEAXI@Z 0000000180003810 f i MSR.obj
 0001:00002868       ?Next@?$CComEnumImpl@UIEnumConnectionPoints@@$1?_GUID_b196b285_bab4_101a_b69c_00aa00341d07@@3U__s_GUID@@BPEAUIConnectionPoint@@V?$_CopyInterface@UIConnectionPoint@@@ATL@@@ATL@@UEAAJKPEAPEAUIConnectionPoint@@PEAK@Z 0000000180003868 f i MSR.obj
 0001:00002934       ?Skip@?$CComEnumImpl@UIEnumConnectionPoints@@$1?_GUID_b196b285_bab4_101a_b69c_00aa00341d07@@3U__s_GUID@@BPEAUIConnectionPoint@@V?$_CopyInterface@UIConnectionPoint@@@ATL@@@ATL@@UEAAJK@Z 0000000180003934 f i MSR.obj
 0001:00002960       ?Reset@?$CComEnumImpl@UIEnumConnections@@$1?_GUID_b196b287_bab4_101a_b69c_00aa00341d07@@3U__s_GUID@@BUtagCONNECTDATA@@V?$_Copy@UtagCONNECTDATA@@@ATL@@@ATL@@UEAAJXZ 0000000180003960 f i MSR.obj
 0001:00002960       ?Reset@?$CComEnumImpl@UIEnumConnectionPoints@@$1?_GUID_b196b285_bab4_101a_b69c_00aa00341d07@@3U__s_GUID@@BPEAUIConnectionPoint@@V?$_CopyInterface@UIConnectionPoint@@@ATL@@@ATL@@UEAAJXZ 0000000180003960 f i MSR.obj
 0001:0000296c       ?Clone@?$CComEnumImpl@UIEnumConnectionPoints@@$1?_GUID_b196b285_bab4_101a_b69c_00aa00341d07@@3U__s_GUID@@BPEAUIConnectionPoint@@V?$_CopyInterface@UIConnectionPoint@@@ATL@@@ATL@@UEAAJPEAPEAUIEnumConnectionPoints@@@Z 000000018000396c f i MSR.obj
 0001:00002a98       ?AddRef@?$CComObject@V?$CComEnum@UIEnumConnectionPoints@@$1?_GUID_b196b285_bab4_101a_b69c_00aa00341d07@@3U__s_GUID@@BPEAUIConnectionPoint@@V?$_CopyInterface@UIConnectionPoint@@@ATL@@VCComSingleThreadModel@6@@ATL@@@ATL@@UEAAKXZ 0000000180003a98 f i MSR.obj
 0001:00002a98       ?AddRef@?$CComObject@V?$CComEnum@UIEnumConnections@@$1?_GUID_b196b287_bab4_101a_b69c_00aa00341d07@@3U__s_GUID@@BUtagCONNECTDATA@@V?$_Copy@UtagCONNECTDATA@@@ATL@@VCComSingleThreadModel@6@@ATL@@@ATL@@UEAAKXZ 0000000180003a98 f i MSR.obj
 0001:00002aa4       ?Release@?$CComObject@V?$CComEnum@UIEnumConnectionPoints@@$1?_GUID_b196b285_bab4_101a_b69c_00aa00341d07@@3U__s_GUID@@BPEAUIConnectionPoint@@V?$_CopyInterface@UIConnectionPoint@@@ATL@@VCComSingleThreadModel@6@@ATL@@@ATL@@UEAAKXZ 0000000180003aa4 f i MSR.obj
 0001:00002aa4       ?Release@?$CComObject@V?$CComEnum@UIEnumConnections@@$1?_GUID_b196b287_bab4_101a_b69c_00aa00341d07@@3U__s_GUID@@BUtagCONNECTDATA@@V?$_Copy@UtagCONNECTDATA@@@ATL@@VCComSingleThreadModel@6@@ATL@@@ATL@@UEAAKXZ 0000000180003aa4 f i MSR.obj
 0001:00002af8       ?QueryInterface@?$CComObject@V?$CComEnum@UIEnumConnectionPoints@@$1?_GUID_b196b285_bab4_101a_b69c_00aa00341d07@@3U__s_GUID@@BPEAUIConnectionPoint@@V?$_CopyInterface@UIConnectionPoint@@@ATL@@VCComSingleThreadModel@6@@ATL@@@ATL@@UEAAJAEBU_GUID@@PEAPEAX@Z 0000000180003af8 f i MSR.obj
 0001:00002b0c       ??_G?$CComObject@V?$CComEnum@UIEnumConnectionPoints@@$1?_GUID_b196b285_bab4_101a_b69c_00aa00341d07@@3U__s_GUID@@BPEAUIConnectionPoint@@V?$_CopyInterface@UIConnectionPoint@@@ATL@@VCComSingleThreadModel@6@@ATL@@@ATL@@UEAAPEAXI@Z 0000000180003b0c f i MSR.obj
 0001:00002b0c       ??_E?$CComObject@V?$CComEnum@UIEnumConnectionPoints@@$1?_GUID_b196b285_bab4_101a_b69c_00aa00341d07@@3U__s_GUID@@BPEAUIConnectionPoint@@V?$_CopyInterface@UIConnectionPoint@@@ATL@@VCComSingleThreadModel@6@@ATL@@@ATL@@UEAAPEAXI@Z 0000000180003b0c f i MSR.obj
 0001:00002b64       ?AddReplacement@CRegObject@ATL@@UEAAJPEB_W0@Z 0000000180003b64 f i MSR.obj
 0001:00002b94       ?ClearReplacements@CRegObject@ATL@@UEAAJXZ 0000000180003b94 f i MSR.obj
 0001:00002ba0       ??_GCRegObject@ATL@@UEAAPEAXI@Z 0000000180003ba0 f i MSR.obj
 0001:00002ba0       ??_ECRegObject@ATL@@UEAAPEAXI@Z 0000000180003ba0 f i MSR.obj
 0001:00002c20       ?AddRef@?$CComAggObject@VCOPOSMSR@@@ATL@@UEAAKXZ 0000000180003c20 f i MSR.obj
 0001:00002c2c       ?Release@?$CComAggObject@VCOPOSMSR@@@ATL@@UEAAKXZ 0000000180003c2c f i MSR.obj
 0001:00002c80       ?QueryInterface@?$CComAggObject@VCOPOSMSR@@@ATL@@UEAAJAEBU_GUID@@PEAPEAX@Z 0000000180003c80 f i MSR.obj
 0001:00002ce0       ?AddRef@?$CComContainedObject@VCOPOSMSR@@@ATL@@UEAAKXZ 0000000180003ce0 f i MSR.obj
 0001:00002cf0       ?Release@?$CComContainedObject@VCOPOSMSR@@@ATL@@UEAAKXZ 0000000180003cf0 f i MSR.obj
 0001:00002d00       ?QueryInterface@?$CComContainedObject@VCOPOSMSR@@@ATL@@UEAAJAEBU_GUID@@PEAPEAX@Z 0000000180003d00 f i MSR.obj
 0001:00002d10       ??_G?$CComAggObject@VCOPOSMSR@@@ATL@@UEAAPEAXI@Z 0000000180003d10 f i MSR.obj
 0001:00002d10       ??_E?$CComAggObject@VCOPOSMSR@@@ATL@@UEAAPEAXI@Z 0000000180003d10 f i MSR.obj
 0001:00002d68       ?AddRef@?$CComObject@VCOPOSMSR@@@ATL@@UEAAKXZ 0000000180003d68 f i MSR.obj
 0001:00002d78       ?Release@?$CComObject@VCOPOSMSR@@@ATL@@UEAAKXZ 0000000180003d78 f i MSR.obj
 0001:00002dd0       ?QueryInterface@?$CComObject@VCOPOSMSR@@@ATL@@UEAAJAEBU_GUID@@PEAPEAX@Z 0000000180003dd0 f i MSR.obj
 0001:00002de4       ?OnDrawAdvanced@CComControlBase@ATL@@UEAAJAEAUATL_DRAWINFO@@@Z 0000000180003de4 f i MSR.obj
 0001:00002f70       ?Next@?$CComEnumImpl@UIEnumConnections@@$1?_GUID_b196b287_bab4_101a_b69c_00aa00341d07@@3U__s_GUID@@BUtagCONNECTDATA@@V?$_Copy@UtagCONNECTDATA@@@ATL@@@ATL@@UEAAJKPEAUtagCONNECTDATA@@PEAK@Z 0000000180003f70 f i MSR.obj
 0001:00003044       ?Skip@?$CComEnumImpl@UIEnumConnections@@$1?_GUID_b196b287_bab4_101a_b69c_00aa00341d07@@3U__s_GUID@@BUtagCONNECTDATA@@V?$_Copy@UtagCONNECTDATA@@@ATL@@@ATL@@UEAAJK@Z 0000000180004044 f i MSR.obj
 0001:00003070       ?Clone@?$CComEnumImpl@UIEnumConnections@@$1?_GUID_b196b287_bab4_101a_b69c_00aa00341d07@@3U__s_GUID@@BUtagCONNECTDATA@@V?$_Copy@UtagCONNECTDATA@@@ATL@@@ATL@@UEAAJPEAPEAUIEnumConnections@@@Z 0000000180004070 f i MSR.obj
 0001:0000319c       ?QueryInterface@?$CComObject@V?$CComEnum@UIEnumConnections@@$1?_GUID_b196b287_bab4_101a_b69c_00aa00341d07@@3U__s_GUID@@BUtagCONNECTDATA@@V?$_Copy@UtagCONNECTDATA@@@ATL@@VCComSingleThreadModel@6@@ATL@@@ATL@@UEAAJAEBU_GUID@@PEAPEAX@Z 000000018000419c f i MSR.obj
 0001:000031b0       ??_G?$CComObject@V?$CComEnum@UIEnumConnections@@$1?_GUID_b196b287_bab4_101a_b69c_00aa00341d07@@3U__s_GUID@@BUtagCONNECTDATA@@V?$_Copy@UtagCONNECTDATA@@@ATL@@VCComSingleThreadModel@6@@ATL@@@ATL@@UEAAPEAXI@Z 00000001800041b0 f i MSR.obj
 0001:000031b0       ??_E?$CComObject@V?$CComEnum@UIEnumConnections@@$1?_GUID_b196b287_bab4_101a_b69c_00aa00341d07@@3U__s_GUID@@BUtagCONNECTDATA@@V?$_Copy@UtagCONNECTDATA@@@ATL@@VCComSingleThreadModel@6@@ATL@@@ATL@@UEAAPEAXI@Z 00000001800041b0 f i MSR.obj
 0001:00003208       ??_E?$CComObject@VCOPOSMSR@@@ATL@@W7EAAPEAXI@Z 0000000180004208 f i MSR.obj
 0001:00003214       ??_E?$CComObject@VCOPOSMSR@@@ATL@@WHA@EAAPEAXI@Z 0000000180004214 f i MSR.obj
 0001:00003220       ?QueryInterface@?$CComObject@VCOPOSMSR@@@ATL@@WLI@EAAJAEBU_GUID@@PEAPEAX@Z 0000000180004220 f i MSR.obj
 0001:0000322c       ?AddRef@?$CComObject@VCOPOSMSR@@@ATL@@WLI@EAAKXZ 000000018000422c f i MSR.obj
 0001:00003238       ?Release@?$CComObject@VCOPOSMSR@@@ATL@@WLI@EAAKXZ 0000000180004238 f i MSR.obj
 0001:00003244       ?QueryInterface@?$CComObject@VCOPOSMSR@@@ATL@@WMA@EAAJAEBU_GUID@@PEAPEAX@Z 0000000180004244 f i MSR.obj
 0001:00003250       ?AddRef@?$CComObject@VCOPOSMSR@@@ATL@@WMA@EAAKXZ 0000000180004250 f i MSR.obj
 0001:0000325c       ?Release@?$CComObject@VCOPOSMSR@@@ATL@@WMA@EAAKXZ 000000018000425c f i MSR.obj
 0001:00003268       ?QueryInterface@?$CComObject@VCOPOSMSR@@@ATL@@WMI@EAAJAEBU_GUID@@PEAPEAX@Z 0000000180004268 f i MSR.obj
 0001:00003274       ?AddRef@?$CComObject@VCOPOSMSR@@@ATL@@WMI@EAAKXZ 0000000180004274 f i MSR.obj
 0001:00003280       ?Release@?$CComObject@VCOPOSMSR@@@ATL@@WMI@EAAKXZ 0000000180004280 f i MSR.obj
 0001:0000328c       ?QueryInterface@?$CComObject@VCOPOSMSR@@@ATL@@WNA@EAAJAEBU_GUID@@PEAPEAX@Z 000000018000428c f i MSR.obj
 0001:00003298       ?AddRef@?$CComObject@VCOPOSMSR@@@ATL@@WNA@EAAKXZ 0000000180004298 f i MSR.obj
 0001:000032a4       ?Release@?$CComObject@VCOPOSMSR@@@ATL@@WNA@EAAKXZ 00000001800042a4 f i MSR.obj
 0001:000032b0       ?QueryInterface@?$CComObject@VCOPOSMSR@@@ATL@@WNI@EAAJAEBU_GUID@@PEAPEAX@Z 00000001800042b0 f i MSR.obj
 0001:000032bc       ?AddRef@?$CComObject@VCOPOSMSR@@@ATL@@WNI@EAAKXZ 00000001800042bc f i MSR.obj
 0001:000032c8       ?Release@?$CComObject@VCOPOSMSR@@@ATL@@WNI@EAAKXZ 00000001800042c8 f i MSR.obj
 0001:000032d4       ?QueryInterface@?$CComObject@VCOPOSMSR@@@ATL@@WOA@EAAJAEBU_GUID@@PEAPEAX@Z 00000001800042d4 f i MSR.obj
 0001:000032e0       ?AddRef@?$CComObject@VCOPOSMSR@@@ATL@@WOA@EAAKXZ 00000001800042e0 f i MSR.obj
 0001:000032ec       ?Release@?$CComObject@VCOPOSMSR@@@ATL@@WOA@EAAKXZ 00000001800042ec f i MSR.obj
 0001:000032f8       ?QueryInterface@?$CComObject@VCOPOSMSR@@@ATL@@WOI@EAAJAEBU_GUID@@PEAPEAX@Z 00000001800042f8 f i MSR.obj
 0001:00003304       ?AddRef@?$CComObject@VCOPOSMSR@@@ATL@@WOI@EAAKXZ 0000000180004304 f i MSR.obj
 0001:00003310       ?Release@?$CComObject@VCOPOSMSR@@@ATL@@WOI@EAAKXZ 0000000180004310 f i MSR.obj
 0001:0000331c       ?QueryInterface@?$CComObject@VCOPOSMSR@@@ATL@@WPA@EAAJAEBU_GUID@@PEAPEAX@Z 000000018000431c f i MSR.obj
 0001:00003328       ?AddRef@?$CComObject@VCOPOSMSR@@@ATL@@WPA@EAAKXZ 0000000180004328 f i MSR.obj
 0001:00003334       ?Release@?$CComObject@VCOPOSMSR@@@ATL@@WPA@EAAKXZ 0000000180004334 f i MSR.obj
 0001:00003340       ?QueryInterface@?$CComObject@VCOPOSMSR@@@ATL@@WPI@EAAJAEBU_GUID@@PEAPEAX@Z 0000000180004340 f i MSR.obj
 0001:0000334c       ?AddRef@?$CComObject@VCOPOSMSR@@@ATL@@WPI@EAAKXZ 000000018000434c f i MSR.obj
 0001:00003358       ?Release@?$CComObject@VCOPOSMSR@@@ATL@@WPI@EAAKXZ 0000000180004358 f i MSR.obj
 0001:00003364       ?QueryInterface@?$CComObject@VCOPOSMSR@@@ATL@@WBAA@EAAJAEBU_GUID@@PEAPEAX@Z 0000000180004364 f i MSR.obj
 0001:00003370       ?AddRef@?$CComObject@VCOPOSMSR@@@ATL@@WBAA@EAAKXZ 0000000180004370 f i MSR.obj
 0001:0000337c       ?Release@?$CComObject@VCOPOSMSR@@@ATL@@WBAA@EAAKXZ 000000018000437c f i MSR.obj
 0001:00003388       ?QueryInterface@?$CComObject@VCOPOSMSR@@@ATL@@WBAI@EAAJAEBU_GUID@@PEAPEAX@Z 0000000180004388 f i MSR.obj
 0001:00003394       ?AddRef@?$CComObject@VCOPOSMSR@@@ATL@@WBAI@EAAKXZ 0000000180004394 f i MSR.obj
 0001:000033a0       ?Release@?$CComObject@VCOPOSMSR@@@ATL@@WBAI@EAAKXZ 00000001800043a0 f i MSR.obj
 0001:000033ac       ?QueryInterface@?$CComObject@VCOPOSMSR@@@ATL@@WBBA@EAAJAEBU_GUID@@PEAPEAX@Z 00000001800043ac f i MSR.obj
 0001:000033b8       ?AddRef@?$CComObject@VCOPOSMSR@@@ATL@@WBBA@EAAKXZ 00000001800043b8 f i MSR.obj
 0001:000033c4       ?Release@?$CComObject@VCOPOSMSR@@@ATL@@WBBA@EAAKXZ 00000001800043c4 f i MSR.obj
 0001:000033d0       ?QueryInterface@?$CComObject@VCOPOSMSR@@@ATL@@WBBI@EAAJAEBU_GUID@@PEAPEAX@Z 00000001800043d0 f i MSR.obj
 0001:000033dc       ?AddRef@?$CComObject@VCOPOSMSR@@@ATL@@WBBI@EAAKXZ 00000001800043dc f i MSR.obj
 0001:000033e8       ?Release@?$CComObject@VCOPOSMSR@@@ATL@@WBBI@EAAKXZ 00000001800043e8 f i MSR.obj
 0001:000033f4       ?AddRef@?$CComObject@VCOPOSMSR@@@ATL@@WBCI@EAAKXZ 00000001800043f4 f i MSR.obj
 0001:00003400       ?Release@?$CComObject@VCOPOSMSR@@@ATL@@WBCI@EAAKXZ 0000000180004400 f i MSR.obj
 0001:0000340c       ?AddRef@?$CComObject@VCOPOSMSR@@@ATL@@WBEA@EAAKXZ 000000018000440c f i MSR.obj
 0001:00003418       ?Release@?$CComObject@VCOPOSMSR@@@ATL@@WBEA@EAAKXZ 0000000180004418 f i MSR.obj
 0001:00003424       ??_E?$CComContainedObject@VCOPOSMSR@@@ATL@@W7EAAPEAXI@Z 0000000180004424 f i MSR.obj
 0001:00003430       ??_E?$CComContainedObject@VCOPOSMSR@@@ATL@@WHA@EAAPEAXI@Z 0000000180004430 f i MSR.obj
 0001:0000343c       ?QueryInterface@?$CComContainedObject@VCOPOSMSR@@@ATL@@WLI@EAAJAEBU_GUID@@PEAPEAX@Z 000000018000443c f i MSR.obj
 0001:00003448       ?AddRef@?$CComContainedObject@VCOPOSMSR@@@ATL@@WLI@EAAKXZ 0000000180004448 f i MSR.obj
 0001:00003454       ?Release@?$CComContainedObject@VCOPOSMSR@@@ATL@@WLI@EAAKXZ 0000000180004454 f i MSR.obj
 0001:00003460       ?QueryInterface@?$CComContainedObject@VCOPOSMSR@@@ATL@@WMA@EAAJAEBU_GUID@@PEAPEAX@Z 0000000180004460 f i MSR.obj
 0001:0000346c       ?AddRef@?$CComContainedObject@VCOPOSMSR@@@ATL@@WMA@EAAKXZ 000000018000446c f i MSR.obj
 0001:00003478       ?Release@?$CComContainedObject@VCOPOSMSR@@@ATL@@WMA@EAAKXZ 0000000180004478 f i MSR.obj
 0001:00003484       ?QueryInterface@?$CComContainedObject@VCOPOSMSR@@@ATL@@WMI@EAAJAEBU_GUID@@PEAPEAX@Z 0000000180004484 f i MSR.obj
 0001:00003490       ?AddRef@?$CComContainedObject@VCOPOSMSR@@@ATL@@WMI@EAAKXZ 0000000180004490 f i MSR.obj
 0001:0000349c       ?Release@?$CComContainedObject@VCOPOSMSR@@@ATL@@WMI@EAAKXZ 000000018000449c f i MSR.obj
 0001:000034a8       ?QueryInterface@?$CComContainedObject@VCOPOSMSR@@@ATL@@WNA@EAAJAEBU_GUID@@PEAPEAX@Z 00000001800044a8 f i MSR.obj
 0001:000034b4       ?AddRef@?$CComContainedObject@VCOPOSMSR@@@ATL@@WNA@EAAKXZ 00000001800044b4 f i MSR.obj
 0001:000034c0       ?Release@?$CComContainedObject@VCOPOSMSR@@@ATL@@WNA@EAAKXZ 00000001800044c0 f i MSR.obj
 0001:000034cc       ?QueryInterface@?$CComContainedObject@VCOPOSMSR@@@ATL@@WNI@EAAJAEBU_GUID@@PEAPEAX@Z 00000001800044cc f i MSR.obj
 0001:000034d8       ?AddRef@?$CComContainedObject@VCOPOSMSR@@@ATL@@WNI@EAAKXZ 00000001800044d8 f i MSR.obj
 0001:000034e4       ?Release@?$CComContainedObject@VCOPOSMSR@@@ATL@@WNI@EAAKXZ 00000001800044e4 f i MSR.obj
 0001:000034f0       ?QueryInterface@?$CComContainedObject@VCOPOSMSR@@@ATL@@WOA@EAAJAEBU_GUID@@PEAPEAX@Z 00000001800044f0 f i MSR.obj
 0001:000034fc       ?AddRef@?$CComContainedObject@VCOPOSMSR@@@ATL@@WOA@EAAKXZ 00000001800044fc f i MSR.obj
 0001:00003508       ?Release@?$CComContainedObject@VCOPOSMSR@@@ATL@@WOA@EAAKXZ 0000000180004508 f i MSR.obj
 0001:00003514       ?QueryInterface@?$CComContainedObject@VCOPOSMSR@@@ATL@@WOI@EAAJAEBU_GUID@@PEAPEAX@Z 0000000180004514 f i MSR.obj
 0001:00003520       ?AddRef@?$CComContainedObject@VCOPOSMSR@@@ATL@@WOI@EAAKXZ 0000000180004520 f i MSR.obj
 0001:0000352c       ?Release@?$CComContainedObject@VCOPOSMSR@@@ATL@@WOI@EAAKXZ 000000018000452c f i MSR.obj
 0001:00003538       ?QueryInterface@?$CComContainedObject@VCOPOSMSR@@@ATL@@WPA@EAAJAEBU_GUID@@PEAPEAX@Z 0000000180004538 f i MSR.obj
 0001:00003544       ?AddRef@?$CComContainedObject@VCOPOSMSR@@@ATL@@WPA@EAAKXZ 0000000180004544 f i MSR.obj
 0001:00003550       ?Release@?$CComContainedObject@VCOPOSMSR@@@ATL@@WPA@EAAKXZ 0000000180004550 f i MSR.obj
 0001:0000355c       ?QueryInterface@?$CComContainedObject@VCOPOSMSR@@@ATL@@WPI@EAAJAEBU_GUID@@PEAPEAX@Z 000000018000455c f i MSR.obj
 0001:00003568       ?AddRef@?$CComContainedObject@VCOPOSMSR@@@ATL@@WPI@EAAKXZ 0000000180004568 f i MSR.obj
 0001:00003574       ?Release@?$CComContainedObject@VCOPOSMSR@@@ATL@@WPI@EAAKXZ 0000000180004574 f i MSR.obj
 0001:00003580       ?QueryInterface@?$CComContainedObject@VCOPOSMSR@@@ATL@@WBAA@EAAJAEBU_GUID@@PEAPEAX@Z 0000000180004580 f i MSR.obj
 0001:0000358c       ?AddRef@?$CComContainedObject@VCOPOSMSR@@@ATL@@WBAA@EAAKXZ 000000018000458c f i MSR.obj
 0001:00003598       ?Release@?$CComContainedObject@VCOPOSMSR@@@ATL@@WBAA@EAAKXZ 0000000180004598 f i MSR.obj
 0001:000035a4       ?QueryInterface@?$CComContainedObject@VCOPOSMSR@@@ATL@@WBAI@EAAJAEBU_GUID@@PEAPEAX@Z 00000001800045a4 f i MSR.obj
 0001:000035b0       ?AddRef@?$CComContainedObject@VCOPOSMSR@@@ATL@@WBAI@EAAKXZ 00000001800045b0 f i MSR.obj
 0001:000035bc       ?Release@?$CComContainedObject@VCOPOSMSR@@@ATL@@WBAI@EAAKXZ 00000001800045bc f i MSR.obj
 0001:000035c8       ?QueryInterface@?$CComContainedObject@VCOPOSMSR@@@ATL@@WBBA@EAAJAEBU_GUID@@PEAPEAX@Z 00000001800045c8 f i MSR.obj
 0001:000035d4       ?AddRef@?$CComContainedObject@VCOPOSMSR@@@ATL@@WBBA@EAAKXZ 00000001800045d4 f i MSR.obj
 0001:000035e0       ?Release@?$CComContainedObject@VCOPOSMSR@@@ATL@@WBBA@EAAKXZ 00000001800045e0 f i MSR.obj
 0001:000035ec       ?QueryInterface@?$CComContainedObject@VCOPOSMSR@@@ATL@@WBBI@EAAJAEBU_GUID@@PEAPEAX@Z 00000001800045ec f i MSR.obj
 0001:000035f8       ?AddRef@?$CComContainedObject@VCOPOSMSR@@@ATL@@WBBI@EAAKXZ 00000001800045f8 f i MSR.obj
 0001:00003604       ?Release@?$CComContainedObject@VCOPOSMSR@@@ATL@@WBBI@EAAKXZ 0000000180004604 f i MSR.obj
 0001:00003610       ?AddRef@?$CComContainedObject@VCOPOSMSR@@@ATL@@WBCI@EAAKXZ 0000000180004610 f i MSR.obj
 0001:0000361c       ?Release@?$CComContainedObject@VCOPOSMSR@@@ATL@@WBCI@EAAKXZ 000000018000461c f i MSR.obj
 0001:00003628       ?AddRef@?$CComContainedObject@VCOPOSMSR@@@ATL@@WBEA@EAAKXZ 0000000180004628 f i MSR.obj
 0001:00003634       ?Release@?$CComContainedObject@VCOPOSMSR@@@ATL@@WBEA@EAAKXZ 0000000180004634 f i MSR.obj
 0001:00003640       ?CreateInstance@CComClassFactory@ATL@@UEAAJPEAUIUnknown@@AEBU_GUID@@PEAPEAX@Z 0000000180004640 f i MSR.obj
 0001:000036a0       ?LockServer@CComClassFactory@ATL@@UEAAJH@Z 00000001800046a0 f i MSR.obj
 0001:000036c4       ??_ECComClassFactory@ATL@@UEAAPEAXI@Z 00000001800046c4 f i MSR.obj
 0001:000036c4       ??_GCComClassFactory@ATL@@UEAAPEAXI@Z 00000001800046c4 f i MSR.obj
 0001:00003714       ??$AtlModuleRegisterWndClassInfoT@VAtlModuleRegisterWndClassInfoParamW@ATL@@@ATL@@YAGPEAU_ATL_BASE_MODULE70@0@PEAU_ATL_WIN_MODULE70@0@PEAU_ATL_WNDCLASSINFOW@0@PEAP6A_JPEAUHWND__@@I_K_J@ZVAtlModuleRegisterWndClassInfoParamW@0@@Z 0000000180004714 f i MSR.obj
 0001:00003914       ??0?$CComContainedObject@VCOPOSMSR@@@ATL@@QEAA@PEAX@Z 0000000180004914 f i MSR.obj
 0001:00003a30       ??0?$CComObject@VCOPOSMSR@@@ATL@@QEAA@PEAX@Z 0000000180004a30 f i MSR.obj
 0001:00003b48       ??0CAtlModule@ATL@@QEAA@XZ 0000000180004b48 f i MSR.obj
 0001:00003bbc       ??1?$CComEnumImpl@UIEnumConnectionPoints@@$1?_GUID_b196b285_bab4_101a_b69c_00aa00341d07@@3U__s_GUID@@BPEAUIConnectionPoint@@V?$_CopyInterface@UIConnectionPoint@@@ATL@@@ATL@@UEAA@XZ 0000000180004bbc f i MSR.obj
 0001:00003c18       ??1?$CComEnumImpl@UIEnumConnections@@$1?_GUID_b196b287_bab4_101a_b69c_00aa00341d07@@3U__s_GUID@@BUtagCONNECTDATA@@V?$_Copy@UtagCONNECTDATA@@@ATL@@@ATL@@UEAA@XZ 0000000180004c18 f i MSR.obj
 0001:00003c74       ??1?$CComObject@VCOPOSMSR@@@ATL@@UEAA@XZ 0000000180004c74 f i MSR.obj
 0001:00003d94       ??_G?$CComContainedObject@VCOPOSMSR@@@ATL@@UEAAPEAXI@Z 0000000180004d94 f i MSR.obj
 0001:00003d94       ??_E?$CComContainedObject@VCOPOSMSR@@@ATL@@UEAAPEAXI@Z 0000000180004d94 f i MSR.obj
 0001:00003dc8       ??_G?$CComObject@VCOPOSMSR@@@ATL@@UEAAPEAXI@Z 0000000180004dc8 f i MSR.obj
 0001:00003dc8       ??_E?$CComObject@VCOPOSMSR@@@ATL@@UEAAPEAXI@Z 0000000180004dc8 f i MSR.obj
 0001:00003dfc       ?Add@?$CSimpleArray@GV?$CSimpleArrayEqualHelper@G@ATL@@@ATL@@QEAAHAEBG@Z 0000000180004dfc f i MSR.obj
 0001:00003eb0       ?Add@?$CSimpleMap@PEA_WPEA_WVCExpansionVectorEqualHelper@ATL@@@ATL@@QEAAHAEBQEA_W0@Z 0000000180004eb0 f i MSR.obj
 0001:00003f50       ?Add@CComDynamicUnkArray@ATL@@QEAAKPEAUIUnknown@@@Z 0000000180004f50 f i MSR.obj
 0001:0000403c       ?Add@CExpansionVector@ATL@@QEAAHPEB_W0@Z 000000018000503c f i MSR.obj
 0001:00004170       ?AddTermFunc@CAtlModule@ATL@@QEAAJP6AX_K@Z0@Z 0000000180005170 f i MSR.obj
 0001:0000420c       ?AddValue@CRegParser@ATL@@IEAAJAEAVCRegKey@2@PEB_WPEA_W@Z 000000018000520c f i MSR.obj
 0001:00004654       ?AllocateHeap@?$CTempBuffer@_W$0BAA@VCCRTAllocator@ATL@@@ATL@@AEAAX_K@Z 0000000180005654 f i MSR.obj
 0001:00004654       ?AllocateHeap@?$CTempBuffer@E$0BAA@VCCRTAllocator@ATL@@@ATL@@AEAAX_K@Z 0000000180005654 f i MSR.obj
 0001:00004654       ?AllocateHeap@?$CTempBuffer@_W$0EAA@VCCRTAllocator@ATL@@@ATL@@AEAAX_K@Z 0000000180005654 f i MSR.obj
 0001:00004680       ?Append@CParseBuffer@CRegParser@ATL@@QEAAHPEB_WH@Z 0000000180005680 f i MSR.obj
 0001:000047c8       ?AtlComModuleGetClassObject@ATL@@YAJPEAU_ATL_COM_MODULE70@1@AEBU_GUID@@1PEAPEAX@Z 00000001800057c8 f i MSR.obj
 0001:00004908       ?AtlComModuleRegisterServer@ATL@@YAJPEAU_ATL_COM_MODULE70@1@HPEBU_GUID@@@Z 0000000180005908 f i MSR.obj
 0001:000049c8       ?AtlComModuleUnregisterServer@ATL@@YAJPEAU_ATL_COM_MODULE70@1@HPEBU_GUID@@@Z 00000001800059c8 f i MSR.obj
 0001:00004a84       ?AtlHiMetricToPixel@ATL@@YAXPEBUtagSIZE@@PEAU2@@Z 0000000180005a84 f i MSR.obj
 0001:00004b34       ?AtlHresultFromLastError@ATL@@YAJXZ 0000000180005b34 f i MSR.obj
 0001:00004b54       ?AtlHresultFromWin32@ATL@@YAJK@Z 0000000180005b54 f i MSR.obj
 0001:00004b64       ?AtlInternalOleLoadFromStream@ATL@@YAJPEAUIStream@@AEBU_GUID@@PEAPEAXTClassesAllowedInStream@1@K@Z 0000000180005b64 f i MSR.obj
 0001:00004ca8       ?AtlInternalQueryInterface@ATL@@YAJPEAXPEBU_ATL_INTMAP_ENTRY@1@AEBU_GUID@@PEAPEAX@Z 0000000180005ca8 f i MSR.obj
 0001:00004db0       ?AtlLoadTypeLib@ATL@@YAJPEAUHINSTANCE__@@PEB_WPEAPEA_WPEAPEAUITypeLib@@@Z 0000000180005db0 f i MSR.obj
 0001:0000500c       ?AtlRegisterClassCategoriesHelper@ATL@@YAJAEBU_GUID@@PEBU_ATL_CATMAP_ENTRY@1@H@Z 000000018000600c f i MSR.obj
 0001:00005490       ?AtlRegisterTypeLib@ATL@@YAJPEAUHINSTANCE__@@PEB_W@Z 0000000180006490 f i MSR.obj
 0001:0000568c       ?AtlThrowImpl@ATL@@YAXJ@Z  000000018000668c f i MSR.obj
 0001:000056b0       ?AtlUnRegisterTypeLib@ATL@@YAJPEAUHINSTANCE__@@PEB_W@Z 00000001800066b0 f i MSR.obj
 0001:00005778       ?AtlWinModuleExtractCreateWndData@ATL@@YAPEAXPEAU_ATL_WIN_MODULE70@1@@Z 0000000180006778 f i MSR.obj
 0001:00005804       ?Cleanup@CComTypeInfoHolder@ATL@@SAX_K@Z 0000000180006804 f i MSR.obj
 0001:00005844       ?ClearReplacements@CExpansionVector@ATL@@QEAAJXZ 0000000180006844 f i MSR.obj
 0001:000058e0       ?CreateInstance@?$CComCreator@V?$CComAggObject@VCOPOSMSR@@@ATL@@@ATL@@SAJPEAXAEBU_GUID@@PEAPEAX@Z 00000001800068e0 f i MSR.obj
 0001:000059c4       ?CreateInstance@?$CComCreator@V?$CComObject@VCOPOSMSR@@@ATL@@@ATL@@SAJPEAXAEBU_GUID@@PEAPEAX@Z 00000001800069c4 f i MSR.obj
 0001:00005a78       ?CreateInstance@?$CComObject@V?$CComEnum@UIEnumConnectionPoints@@$1?_GUID_b196b285_bab4_101a_b69c_00aa00341d07@@3U__s_GUID@@BPEAUIConnectionPoint@@V?$_CopyInterface@UIConnectionPoint@@@ATL@@VCComSingleThreadModel@6@@ATL@@@ATL@@SAJPEAPEAV12@@Z 0000000180006a78 f i MSR.obj
 0001:00005b08       ?CreateInstance@?$CComObject@V?$CComEnum@UIEnumConnections@@$1?_GUID_b196b287_bab4_101a_b69c_00aa00341d07@@3U__s_GUID@@BUtagCONNECTDATA@@V?$_Copy@UtagCONNECTDATA@@@ATL@@VCComSingleThreadModel@6@@ATL@@@ATL@@SAJPEAPEAV12@@Z 0000000180006b08 f i MSR.obj
 0001:00005b98       ?DefaultReflectionHandler@?$CWindowImplRoot@VCWindow@ATL@@@ATL@@SAHPEAUHWND__@@I_K_JAEA_J@Z 0000000180006b98 f i MSR.obj
 0001:00005bfc       ?DeleteSubKey@CRegKey@ATL@@QEAAJPEB_W@Z 0000000180006bfc f i MSR.obj
 0001:00005c94       ?DoEvent@COPOSMSR@@IEAAXI_K_J@Z 0000000180006c94 f i MSR.obj
 0001:00005d48       ?DoVerbPrimary@?$IOleObjectImpl@VCOPOSMSR@@@ATL@@QEAAJPEBUtagRECT@@PEAUHWND__@@@Z 0000000180006d48 f i MSR.obj
 0001:00005e74       ?DoVerbProperties@CComControlBase@ATL@@QEAAJPEBUtagRECT@@PEAUHWND__@@@Z 0000000180006e74 f i MSR.obj
 0001:0000609c       ?FireTheEvent@?$CProxy_IOPOSEvents@VCOPOSMSR@@@@IEAAXPEAVOposVariant@@IAEAJPEB_WJ@Z 000000018000709c f i MSR.obj
 0001:00006188       ?FireViewChange@CComControlBase@ATL@@QEAAJXZ 0000000180007188 f i MSR.obj
 0001:000061ec       ?Fire_DataEvent@?$CProxy_IOPOSEvents@VCOPOSMSR@@@@QEAAXJ@Z 00000001800071ec f i MSR.obj
 0001:000062d8       ?Fire_DirectIOEvent@?$CProxy_IOPOSEvents@VCOPOSMSR@@@@QEAAXJPEAJPEAPEA_W@Z 00000001800072d8 f i MSR.obj
 0001:00006438       ?Fire_ErrorEvent@?$CProxy_IOPOSEvents@VCOPOSMSR@@@@QEAAXJJJPEAJ@Z 0000000180007438 f i MSR.obj
 0001:000065ac       ?Fire_StatusUpdateEvent@?$CProxy_IOPOSEvents@VCOPOSMSR@@@@QEAAXJ@Z 00000001800075ac f i MSR.obj
 0001:00006698       ?FreeHeap@?$CTempBuffer@E$0BAA@VCCRTAllocator@ATL@@@ATL@@AEAAXXZ 0000000180007698 f i MSR.obj
 0001:00006698       ?FreeHeap@?$CTempBuffer@_W$0BAA@VCCRTAllocator@ATL@@@ATL@@AEAAXXZ 0000000180007698 f i MSR.obj
 0001:00006698       ?FreeHeap@?$CTempBuffer@_W$0EAA@VCCRTAllocator@ATL@@@ATL@@AEAAXXZ 0000000180007698 f i MSR.obj
 0001:000066a0       ?GetAmbientLocaleID@CComControlBase@ATL@@QEAAJAEAK@Z 00000001800076a0 f i MSR.obj
 0001:00006760       ?GetAmbientUserMode@CComControlBase@ATL@@QEAAJAEAH@Z 0000000180007760 f i MSR.obj
 0001:00006830       ?GetClassObject@CComModule@ATL@@QEAAJAEBU_GUID@@0PEAPEAX@Z 0000000180007830 f i MSR.obj
 0001:00006924       ?GetConnMap@COPOSMSR@@SAPEBU_ATL_CONNMAP_ENTRY@ATL@@PEAH@Z 0000000180007924 f i MSR.obj
 0001:000069ac       ?GetIDsOfNames@CComTypeInfoHolder@ATL@@QEAAJAEBU_GUID@@PEAPEA_WIKPEAJ@Z 00000001800079ac f i MSR.obj
 0001:00006b24       ?GetPagesHelper@?$ISpecifyPropertyPagesImpl@VCOPOSMSR@@@ATL@@IEAAJPEAUtagCAUUID@@PEBUATL_PROPMAP_ENTRY@2@@Z 0000000180007b24 f i MSR.obj
 0001:00006cc4       ?GetSizeMax@CComVariant@ATL@@QEBAJPEAT_ULARGE_INTEGER@@@Z 0000000180007cc4 f i MSR.obj
 0001:00006ef4       ?GetTI@CComTypeInfoHolder@ATL@@QEAAJK@Z 0000000180007ef4 f i MSR.obj
 0001:000071dc       ?GetZoomInfo@CComControlBase@ATL@@QEAAXAEAUATL_DRAWINFO@@@Z 00000001800081dc f i MSR.obj
 0001:00007280       ?HKeyFromString@CRegParser@ATL@@KAPEAUHKEY__@@PEA_W@Z 0000000180008280 f i MSR.obj
 0001:000072e4       ?IDataObject_GetData@CComControlBase@ATL@@QEAAJPEAUtagFORMATETC@@PEAUtagSTGMEDIUM@@@Z 00000001800082e4 f i MSR.obj
 0001:000074d8       ?IOleInPlaceObject_InPlaceDeactivate@CComControlBase@ATL@@QEAAJXZ 00000001800084d8 f i MSR.obj
 0001:00007578       ?IOleInPlaceObject_SetObjectRects@CComControlBase@ATL@@QEAAJPEBUtagRECT@@0@Z 0000000180008578 f i MSR.obj
 0001:00007668       ?IOleInPlaceObject_UIDeactivate@CComControlBase@ATL@@QEAAJXZ 0000000180008668 f i MSR.obj
 0001:00007774       ?IOleObject_Close@CComControlBase@ATL@@QEAAJK@Z 0000000180008774 f i MSR.obj
 0001:0000788c       ?IOleObject_SetClientSite@CComControlBase@ATL@@QEAAJPEAUIOleClientSite@@@Z 000000018000888c f i MSR.obj
 0001:00007904       ?IOleObject_SetExtent@CComControlBase@ATL@@QEAAJKPEAUtagSIZE@@@Z 0000000180008904 f i MSR.obj
 0001:0000799c       ?IPSI_GetIPersistStreamInit@?$IPersistStorageImpl@VCOPOSMSR@@@ATL@@AEAAPEAUIPersistStreamInit@@XZ 000000018000899c f i MSR.obj
 0001:00007a84       ?IPersistStreamInit_Load@?$IPersistStreamInitImpl@VCOPOSMSR@@@ATL@@QEAAJPEAUIStream@@PEBUATL_PROPMAP_ENTRY@2@@Z 0000000180008a84 f i MSR.obj
 0001:00007db0       ?IPersistStreamInit_Save@?$IPersistStreamInitImpl@VCOPOSMSR@@@ATL@@QEAAJPEAUIStream@@HPEBUATL_PROPMAP_ENTRY@2@@Z 0000000180008db0 f i MSR.obj
 0001:00008050       ?IQuickActivate_QuickActivate@CComControlBase@ATL@@QEAAJPEAUtagQACONTAINER@@PEAUtagQACONTROL@@@Z 0000000180009050 f i MSR.obj
 0001:00008314       ?IViewObject_Draw@CComControlBase@ATL@@QEAAJKJPEAXPEAUtagDVTARGETDEVICE@@PEAUHDC__@@2PEBU_RECTL@@3@Z 0000000180009314 f i MSR.obj
 0001:00008428       ?InPlaceActivate@CComControlBase@ATL@@QEAAJJPEBUtagRECT@@@Z 0000000180009428 f i MSR.obj
 0001:0000875c       ?Init@?$CComEnumImpl@UIEnumConnectionPoints@@$1?_GUID_b196b285_bab4_101a_b69c_00aa00341d07@@3U__s_GUID@@BPEAUIConnectionPoint@@V?$_CopyInterface@UIConnectionPoint@@@ATL@@@ATL@@QEAAJPEAPEAUIConnectionPoint@@0PEAUIUnknown@@W4CComEnumFlags@2@@Z 000000018000975c f i MSR.obj
 0001:0000887c       ?Init@?$CComEnumImpl@UIEnumConnections@@$1?_GUID_b196b287_bab4_101a_b69c_00aa00341d07@@3U__s_GUID@@BUtagCONNECTDATA@@V?$_Copy@UtagCONNECTDATA@@@ATL@@@ATL@@QEAAJPEAUtagCONNECTDATA@@0PEAUIUnknown@@W4CComEnumFlags@2@@Z 000000018000987c f i MSR.obj
 0001:000089a0       ?IsEqualObject@?$CComPtrBase@UIOleClientSite@@@ATL@@QEAA_NPEAUIUnknown@@@Z 00000001800099a0 f i MSR.obj
 0001:00008a2c       ?LoadNameCache@CComTypeInfoHolder@ATL@@QEAAJPEAUITypeInfo@@@Z 0000000180009a2c f i MSR.obj
 0001:00008bac       ?Lookup@?$CSimpleMap@PEA_WPEA_WVCExpansionVectorEqualHelper@ATL@@@ATL@@QEBAPEA_WAEBQEA_W@Z 0000000180009bac f i MSR.obj
 0001:00008c34       ?NextToken@CRegParser@ATL@@IEAAJPEA_W@Z 0000000180009c34 f i MSR.obj
 0001:00008dec       ?OnKillFocus@CComControlBase@ATL@@QEAA_JI_K_JAEAH@Z 0000000180009dec f i MSR.obj
 0001:00008e88       ?OnMouseActivate@CComControlBase@ATL@@QEAA_JI_K_JAEAH@Z 0000000180009e88 f i MSR.obj
 0001:00008f28       ?OnPaint@CComControlBase@ATL@@QEAA_JI_K_JAEAH@Z 0000000180009f28 f i MSR.obj
 0001:00009014       ?OnSetFocus@CComControlBase@ATL@@QEAA_JI_K_JAEAH@Z 000000018000a014 f i MSR.obj
 0001:00009110       ?PreProcessBuffer@CRegParser@ATL@@QEAAJPEA_WPEAPEA_W@Z 000000018000a110 f i MSR.obj
 0001:0000949c       ?ProcessWindowMessage@?$CComControl@VCOPOSMSR@@V?$CWindowImpl@VCOPOSMSR@@VCWindow@ATL@@V?$CWinTraits@$0FGAAAAAA@$0A@@3@@ATL@@@ATL@@UEAAHPEAUHWND__@@I_K_JAEA_JK@Z 000000018000a49c f i MSR.obj
 0001:00009580       ?ReadFromStream@CComBSTR@ATL@@QEAAJPEAUIStream@@@Z 000000018000a580 f i MSR.obj
 0001:000096d0       ?ReadFromStream@CComVariant@ATL@@QEAAJPEAUIStream@@GTClassesAllowedInStream@2@K@Z 000000018000a6d0 f i MSR.obj
 0001:000098f4       ?RecurseDeleteKey@CRegKey@ATL@@QEAAJPEB_W@Z 000000018000a8f4 f i MSR.obj
 0001:00009a4c       ?RegCreateKeyExW@CAtlTransactionManager@ATL@@QEAAJPEAUHKEY__@@PEB_WKPEA_WKKQEAU_SECURITY_ATTRIBUTES@@PEAPEAU3@PEAK@Z 000000018000aa4c f i MSR.obj
 0001:00009b80       ?RegDeleteKeyW@CAtlTransactionManager@ATL@@QEAAJPEAUHKEY__@@PEB_W@Z 000000018000ab80 f i MSR.obj
 0001:00009c0c       ?RegOpenKeyExW@CAtlTransactionManager@ATL@@QEAAJPEAUHKEY__@@PEB_WKKPEAPEAU3@@Z 000000018000ac0c f i MSR.obj
 0001:00009cc4       ?RegisterBuffer@CRegParser@ATL@@QEAAJPEA_WH@Z 000000018000acc4 f i MSR.obj
 0001:00009e2c       ?RegisterFromResource@CRegObject@ATL@@IEAAJPEB_W00H@Z 000000018000ae2c f i MSR.obj
 0001:00009fe8       ?RegisterServer@CComModule@ATL@@QEAAJHPEBU_GUID@@@Z 000000018000afe8 f i MSR.obj
 0001:0000a0a8       ?RegisterSubkeys@CRegParser@ATL@@IEAAJPEA_WPEAUHKEY__@@HH@Z 000000018000b0a8 f i MSR.obj
 0001:0000a914       ?SendOnDataChange@CComControlBase@ATL@@QEAAJK@Z 000000018000b914 f i MSR.obj
 0001:0000a984       ?SetControlFocus@CComControlBase@ATL@@QEAAHH@Z 000000018000b984 f i MSR.obj
 0001:0000aa60       ?SkipAssignment@CRegParser@ATL@@IEAAJPEA_W@Z 000000018000ba60 f i MSR.obj
 0001:0000ab04       ?Term@CAtlModule@ATL@@QEAAXXZ 000000018000bb04 f i MSR.obj
 0001:0000ab84       ?Term@CComModule@ATL@@QEAAXXZ 000000018000bb84 f i MSR.obj
 0001:0000ac00       ?UnregisterServer@CComModule@ATL@@QEAAJHPEBU_GUID@@@Z 000000018000bc00 f i MSR.obj
 0001:0000acb0       ?UpdateRegistryFromResource@CAtlModule@ATL@@QEAAJIHPEAU_ATL_REGMAP_ENTRY@2@@Z 000000018000bcb0 f i MSR.obj
 0001:0000afbc       ?UpdateRegistryFromResource@CAtlModule@ATL@@QEAAJPEB_WHPEAU_ATL_REGMAP_ENTRY@2@@Z 000000018000bfbc f i MSR.obj
 0001:0000b2e0       ?VTFromRegType@CRegParser@ATL@@KAHPEB_WAEAG@Z 000000018000c2e0 f i MSR.obj
 0001:0000b37c       ?WindowProc@?$CWindowImplBaseT@VCWindow@ATL@@V?$CWinTraits@$0FGAAAAAA@$0A@@2@@ATL@@SA_JPEAUHWND__@@I_K_J@Z 000000018000c37c f i MSR.obj
 0001:0000b4e8       ?WriteToStream@CComVariant@ATL@@QEAAJPEAUIStream@@@Z 000000018000c4e8 f i MSR.obj
 0001:0000b764       ?WriteToStream@CComVariant@ATL@@QEAAJPEAUIStream@@G@Z 000000018000c764 f i MSR.obj
 0001:0000b7fc       ?_AtlVerifyStackAvailable@_ATL_SAFE_ALLOCA_IMPL@ATL@@YA_N_K@Z 000000018000c7fc f i MSR.obj
 0001:0000b880       ?atlCreate@?$CWindowImpl@VCOPOSMSR@@VCWindow@ATL@@V?$CWinTraits@$0FGAAAAAA@$0A@@3@@ATL@@QEAAPEAUHWND__@@PEAU3@V_U_RECT@2@PEB_WKKV_U_MENUorID@2@PEAX@Z 000000018000c880 f i MSR.obj
 0001:0000b934       ?atlCreate@?$CWindowImplBaseT@VCWindow@ATL@@V?$CWinTraits@$0FGAAAAAA@$0A@@2@@ATL@@QEAAPEAUHWND__@@PEAU3@V_U_RECT@2@PEB_WKKV_U_MENUorID@2@GPEAX@Z 000000018000c934 f i MSR.obj
 0001:0000baa4       ?ocscpy_s@@YA_NPEA_W_KPEB_W@Z 000000018000caa4 f i MSR.obj
 0001:0000bb54       DllCanUnloadNow            000000018000cb54 f   MSR.obj
 0001:0000bb60       DllGetClassObject          000000018000cb60 f   MSR.obj
 0001:0000bb78       DllMain                    000000018000cb78 f   MSR.obj
 0001:0000bc20       DllRegisterServer          000000018000cc20 f   MSR.obj
 0001:0000bc34       DllUnregisterServer        000000018000cc34 f   MSR.obj
 0001:0000bc48       __local_stdio_printf_options 000000018000cc48 f i MSR.obj
 0001:0000bc50       swprintf_s                 000000018000cc50 f i MSR.obj
 0001:0000bca4       ??0COPOSMSR@@QEAA@XZ       000000018000cca4 f   MSRImpl.obj
 0001:0000bd6c       ??1?$IConnectionPointImpl@VCOPOSMSR@@$1?DIID__IOPOSMSREvents@@3U_GUID@@BVCComDynamicUnkArray@ATL@@@ATL@@QEAA@XZ 000000018000cd6c f i MSRImpl.obj
 0001:0000bd6c       ??1?$IConnectionPointImpl@VCOPOSMSR@@$1?IID_IPropertyNotifySink@@3U_GUID@@BVCComDynamicUnkArray@ATL@@@ATL@@QEAA@XZ 000000018000cd6c f i MSRImpl.obj
 0001:0000bdc8       ??1CComControlBase@ATL@@UEAA@XZ 000000018000cdc8 f i MSRImpl.obj
 0001:0000be44       ??1COPOSMSR@@UEAA@XZ       000000018000ce44 f   MSRImpl.obj
 0001:0000bea8       ?AuthenticateDevice@COPOSMSR@@UEAAJPEA_WPEAJ@Z 000000018000cea8 f   MSRImpl.obj
 0001:0000bf30       ?CheckHealth@COPOSMSR@@UEAAJJPEAJ@Z 000000018000cf30 f   MSRImpl.obj
 0001:0000bfac       ?ClaimDevice@COPOSMSR@@UEAAJJPEAJ@Z 000000018000cfac f   MSRImpl.obj
 0001:0000c04c       ?ClearInput@COPOSMSR@@UEAAJPEAJ@Z 000000018000d04c f   MSRImpl.obj
 0001:0000c074       ?ClearInputProperties@COPOSMSR@@UEAAJPEAJ@Z 000000018000d074 f   MSRImpl.obj
 0001:0000c09c       ?Close@COPOSMSR@@UEAAJPEAJ@Z 000000018000d09c f   MSRImpl.obj
 0001:0000c154       ?CompareFirmwareVersion@COPOSMSR@@UEAAJPEA_WPEAJ1@Z 000000018000d154 f   MSRImpl.obj
 0001:0000c230       ?DeauthenticateDevice@COPOSMSR@@UEAAJPEA_WPEAJ@Z 000000018000d230 f   MSRImpl.obj
 0001:0000c2b8       ?DirectIO@COPOSMSR@@UEAAJJPEAJPEAPEA_W0@Z 000000018000d2b8 f   MSRImpl.obj
 0001:0000c3b4       ?DoInvoke@COPOSMSR@@IEAAJJPEAVOposVariant@@IHPEAJ_N@Z 000000018000d3b4 f   MSRImpl.obj
 0001:0000c4e8       ?EventInit@COPOSMSR@@IEAAJXZ 000000018000d4e8 f i MSRImpl.obj
 0001:0000c630       ?EventUninit@COPOSMSR@@IEAAXXZ 000000018000d630 f i MSRImpl.obj
 0001:0000c694       ?EventWindowProc@COPOSMSR@@IEAA_JI_K_J@Z 000000018000d694 f i MSRImpl.obj
 0001:0000c80c       ?FinalConstruct@COPOSMSR@@QEAAJXZ 000000018000d80c f   MSRImpl.obj
 0001:0000c848       ?FreezeEvents@COPOSMSR@@MEAAJH@Z 000000018000d848 f   MSRImpl.obj
 0001:0000c8bc       ?GetOposProp@COPOSMSR@@IEAAJJPEAJJ@Z 000000018000d8bc f   MSRImpl.obj
 0001:0000c9d8       ?GetOposProp@COPOSMSR@@IEAAJJPEAPEA_WJ@Z 000000018000d9d8 f   MSRImpl.obj
 0001:0000cb04       ?OnDraw@COPOSMSR@@MEAAJAEAUATL_DRAWINFO@@@Z 000000018000db04 f   MSRImpl.obj
 0001:0000cbf0       ?Open@COPOSMSR@@UEAAJPEA_WPEAJ@Z 000000018000dbf0 f   MSRImpl.obj
 0001:0000d478       ?ReleaseDevice@COPOSMSR@@UEAAJPEAJ@Z 000000018000e478 f   MSRImpl.obj
 0001:0000d4e4       ?ResetStatistics@COPOSMSR@@UEAAJPEA_WPEAJ@Z 000000018000e4e4 f   MSRImpl.obj
 0001:0000d56c       ?RetrieveCardProperty@COPOSMSR@@UEAAJPEA_WPEAPEA_WPEAJ@Z 000000018000e56c f   MSRImpl.obj
 0001:0000d648       ?RetrieveDeviceAuthenticationData@COPOSMSR@@UEAAJPEAPEA_WPEAJ@Z 000000018000e648 f   MSRImpl.obj
 0001:0000d6d0       ?RetrieveStatistics@COPOSMSR@@UEAAJPEAPEA_WPEAJ@Z 000000018000e6d0 f   MSRImpl.obj
 0001:0000d758       ?SOProcessID@COPOSMSR@@UEAAJPEAJ@Z 000000018000e758 f   MSRImpl.obj
 0001:0000d774       ?SetCOFreezeEvents@COPOSMSR@@IEAAXF@Z 000000018000e774 f   MSRImpl.obj
 0001:0000d858       ?SetOposProp@COPOSMSR@@IEAAJJJJ@Z 000000018000e858 f   MSRImpl.obj
 0001:0000d9b8       ?SetOposProp@COPOSMSR@@IEAAJJPEA_WJ@Z 000000018000e9b8 f   MSRImpl.obj
 0001:0000db10       ?UpdateFirmware@COPOSMSR@@UEAAJPEA_WPEAJ@Z 000000018000eb10 f   MSRImpl.obj
 0001:0000db98       ?UpdateKey@COPOSMSR@@UEAAJPEA_W0PEAJ@Z 000000018000eb98 f   MSRImpl.obj
 0001:0000dc74       ?UpdateStatistics@COPOSMSR@@UEAAJPEA_WPEAJ@Z 000000018000ec74 f   MSRImpl.obj
 0001:0000dcfc       ?WriteTracks@COPOSMSR@@UEAAJUtagVARIANT@@JPEAJ@Z 000000018000ecfc f   MSRImpl.obj
 0001:0000ddd8       ?get_AccountNumber@COPOSMSR@@UEAAJPEAPEA_W@Z 000000018000edd8 f   MSRImpl.obj
 0001:0000dde8       ?get_AdditionalSecurityInformation@COPOSMSR@@UEAAJPEAPEA_W@Z 000000018000ede8 f   MSRImpl.obj
 0001:0000ddfc       ?get_AutoDisable@COPOSMSR@@UEAAJPEAF@Z 000000018000edfc f   MSRImpl.obj
 0001:0000de30       ?get_BinaryConversion@COPOSMSR@@UEAAJPEAJ@Z 000000018000ee30 f   MSRImpl.obj
 0001:0000de44       ?get_CapCardAuthentication@COPOSMSR@@UEAAJPEAPEA_W@Z 000000018000ee44 f   MSRImpl.obj
 0001:0000de58       ?get_CapCompareFirmwareVersion@COPOSMSR@@UEAAJPEAF@Z 000000018000ee58 f   MSRImpl.obj
 0001:0000de8c       ?get_CapDataEncryption@COPOSMSR@@UEAAJPEAJ@Z 000000018000ee8c f   MSRImpl.obj
 0001:0000dea0       ?get_CapDeviceAuthentication@COPOSMSR@@UEAAJPEAJ@Z 000000018000eea0 f   MSRImpl.obj
 0001:0000deb4       ?get_CapISO@COPOSMSR@@UEAAJPEAF@Z 000000018000eeb4 f   MSRImpl.obj
 0001:0000dee4       ?get_CapJISOne@COPOSMSR@@UEAAJPEAF@Z 000000018000eee4 f   MSRImpl.obj
 0001:0000df14       ?get_CapJISTwo@COPOSMSR@@UEAAJPEAF@Z 000000018000ef14 f   MSRImpl.obj
 0001:0000df44       ?get_CapPowerReporting@COPOSMSR@@UEAAJPEAJ@Z 000000018000ef44 f   MSRImpl.obj
 0001:0000df58       ?get_CapStatisticsReporting@COPOSMSR@@UEAAJPEAF@Z 000000018000ef58 f   MSRImpl.obj
 0001:0000df8c       ?get_CapTrackDataMasking@COPOSMSR@@UEAAJPEAF@Z 000000018000ef8c f   MSRImpl.obj
 0001:0000dfc0       ?get_CapTransmitSentinels@COPOSMSR@@UEAAJPEAF@Z 000000018000efc0 f   MSRImpl.obj
 0001:0000dff4       ?get_CapUpdateFirmware@COPOSMSR@@UEAAJPEAF@Z 000000018000eff4 f   MSRImpl.obj
 0001:0000e028       ?get_CapUpdateStatistics@COPOSMSR@@UEAAJPEAF@Z 000000018000f028 f   MSRImpl.obj
 0001:0000e05c       ?get_CapWritableTracks@COPOSMSR@@UEAAJPEAJ@Z 000000018000f05c f   MSRImpl.obj
 0001:0000e070       ?get_CardAuthenticationData@COPOSMSR@@UEAAJPEAPEA_W@Z 000000018000f070 f   MSRImpl.obj
 0001:0000e084       ?get_CardAuthenticationDataLength@COPOSMSR@@UEAAJPEAJ@Z 000000018000f084 f   MSRImpl.obj
 0001:0000e098       ?get_CardPropertyList@COPOSMSR@@UEAAJPEAPEA_W@Z 000000018000f098 f   MSRImpl.obj
 0001:0000e0ac       ?get_CardType@COPOSMSR@@UEAAJPEAPEA_W@Z 000000018000f0ac f   MSRImpl.obj
 0001:0000e0c0       ?get_CardTypeList@COPOSMSR@@UEAAJPEAPEA_W@Z 000000018000f0c0 f   MSRImpl.obj
 0001:0000e0d4       ?get_CheckHealthText@COPOSMSR@@UEAAJPEAPEA_W@Z 000000018000f0d4 f   MSRImpl.obj
 0001:0000e0e4       ?get_Claimed@COPOSMSR@@UEAAJPEAF@Z 000000018000f0e4 f   MSRImpl.obj
 0001:0000e114       ?get_ControlObjectDescription@COPOSMSR@@UEAAJPEAPEA_W@Z 000000018000f114 f   MSRImpl.obj
 0001:0000e178       ?get_ControlObjectVersion@COPOSMSR@@UEAAJPEAJ@Z 000000018000f178 f   MSRImpl.obj
 0001:0000e184       ?get_DataCount@COPOSMSR@@UEAAJPEAJ@Z 000000018000f184 f   MSRImpl.obj
 0001:0000e198       ?get_DataEncryptionAlgorithm@COPOSMSR@@UEAAJPEAJ@Z 000000018000f198 f   MSRImpl.obj
 0001:0000e1ac       ?get_DataEventEnabled@COPOSMSR@@UEAAJPEAF@Z 000000018000f1ac f   MSRImpl.obj
 0001:0000e1dc       ?get_DecodeData@COPOSMSR@@UEAAJPEAF@Z 000000018000f1dc f   MSRImpl.obj
 0001:0000e20c       ?get_DeviceAuthenticated@COPOSMSR@@UEAAJPEAF@Z 000000018000f20c f   MSRImpl.obj
 0001:0000e240       ?get_DeviceAuthenticationProtocol@COPOSMSR@@UEAAJPEAJ@Z 000000018000f240 f   MSRImpl.obj
 0001:0000e254       ?get_DeviceDescription@COPOSMSR@@UEAAJPEAPEA_W@Z 000000018000f254 f   MSRImpl.obj
 0001:0000e264       ?get_DeviceEnabled@COPOSMSR@@UEAAJPEAF@Z 000000018000f264 f   MSRImpl.obj
 0001:0000e294       ?get_DeviceName@COPOSMSR@@UEAAJPEAPEA_W@Z 000000018000f294 f   MSRImpl.obj
 0001:0000e2a4       ?get_EncodingMaxLength@COPOSMSR@@UEAAJPEAJ@Z 000000018000f2a4 f   MSRImpl.obj
 0001:0000e2b8       ?get_ErrorReportingType@COPOSMSR@@UEAAJPEAJ@Z 000000018000f2b8 f   MSRImpl.obj
 0001:0000e2cc       ?get_ExpirationDate@COPOSMSR@@UEAAJPEAPEA_W@Z 000000018000f2cc f   MSRImpl.obj
 0001:0000e2dc       ?get_FirstName@COPOSMSR@@UEAAJPEAPEA_W@Z 000000018000f2dc f   MSRImpl.obj
 0001:0000e2ec       ?get_FreezeEvents@COPOSMSR@@UEAAJPEAF@Z 000000018000f2ec f   MSRImpl.obj
 0001:0000e31c       ?get_MiddleInitial@COPOSMSR@@UEAAJPEAPEA_W@Z 000000018000f31c f   MSRImpl.obj
 0001:0000e32c       ?get_OpenResult@COPOSMSR@@UEAAJPEAJ@Z 000000018000f32c f   MSRImpl.obj
 0001:0000e338       ?get_ParseDecodeData@COPOSMSR@@UEAAJPEAF@Z 000000018000f338 f   MSRImpl.obj
 0001:0000e338       ?get_ParseDecodedData@COPOSMSR@@UEAAJPEAF@Z 000000018000f338 f   MSRImpl.obj
 0001:0000e368       ?get_PowerNotify@COPOSMSR@@UEAAJPEAJ@Z 000000018000f368 f   MSRImpl.obj
 0001:0000e37c       ?get_PowerState@COPOSMSR@@UEAAJPEAJ@Z 000000018000f37c f   MSRImpl.obj
 0001:0000e390       ?get_ResultCode@COPOSMSR@@UEAAJPEAJ@Z 000000018000f390 f   MSRImpl.obj
 0001:0000e3cc       ?get_ResultCodeExtended@COPOSMSR@@UEAAJPEAJ@Z 000000018000f3cc f   MSRImpl.obj
 0001:0000e3dc       ?get_ServiceCode@COPOSMSR@@UEAAJPEAPEA_W@Z 000000018000f3dc f   MSRImpl.obj
 0001:0000e3ec       ?get_ServiceObjectDescription@COPOSMSR@@UEAAJPEAPEA_W@Z 000000018000f3ec f   MSRImpl.obj
 0001:0000e3fc       ?get_ServiceObjectVersion@COPOSMSR@@UEAAJPEAJ@Z 000000018000f3fc f   MSRImpl.obj
 0001:0000e40c       ?get_State@COPOSMSR@@UEAAJPEAJ@Z 000000018000f40c f   MSRImpl.obj
 0001:0000e438       ?get_Suffix@COPOSMSR@@UEAAJPEAPEA_W@Z 000000018000f438 f   MSRImpl.obj
 0001:0000e448       ?get_Surname@COPOSMSR@@UEAAJPEAPEA_W@Z 000000018000f448 f   MSRImpl.obj
 0001:0000e458       ?get_Title@COPOSMSR@@UEAAJPEAPEA_W@Z 000000018000f458 f   MSRImpl.obj
 0001:0000e468       ?get_Track1Data@COPOSMSR@@UEAAJPEAPEA_W@Z 000000018000f468 f   MSRImpl.obj
 0001:0000e478       ?get_Track1DiscretionaryData@COPOSMSR@@UEAAJPEAPEA_W@Z 000000018000f478 f   MSRImpl.obj
 0001:0000e488       ?get_Track1EncryptedData@COPOSMSR@@UEAAJPEAPEA_W@Z 000000018000f488 f   MSRImpl.obj
 0001:0000e49c       ?get_Track1EncryptedDataLength@COPOSMSR@@UEAAJPEAJ@Z 000000018000f49c f   MSRImpl.obj
 0001:0000e4b0       ?get_Track2Data@COPOSMSR@@UEAAJPEAPEA_W@Z 000000018000f4b0 f   MSRImpl.obj
 0001:0000e4c0       ?get_Track2DiscretionaryData@COPOSMSR@@UEAAJPEAPEA_W@Z 000000018000f4c0 f   MSRImpl.obj
 0001:0000e4d0       ?get_Track2EncryptedData@COPOSMSR@@UEAAJPEAPEA_W@Z 000000018000f4d0 f   MSRImpl.obj
 0001:0000e4e4       ?get_Track2EncryptedDataLength@COPOSMSR@@UEAAJPEAJ@Z 000000018000f4e4 f   MSRImpl.obj
 0001:0000e4f8       ?get_Track3Data@COPOSMSR@@UEAAJPEAPEA_W@Z 000000018000f4f8 f   MSRImpl.obj
 0001:0000e508       ?get_Track3EncryptedData@COPOSMSR@@UEAAJPEAPEA_W@Z 000000018000f508 f   MSRImpl.obj
 0001:0000e51c       ?get_Track3EncryptedDataLength@COPOSMSR@@UEAAJPEAJ@Z 000000018000f51c f   MSRImpl.obj
 0001:0000e530       ?get_Track4Data@COPOSMSR@@UEAAJPEAPEA_W@Z 000000018000f530 f   MSRImpl.obj
 0001:0000e544       ?get_Track4EncryptedData@COPOSMSR@@UEAAJPEAPEA_W@Z 000000018000f544 f   MSRImpl.obj
 0001:0000e558       ?get_Track4EncryptedDataLength@COPOSMSR@@UEAAJPEAJ@Z 000000018000f558 f   MSRImpl.obj
 0001:0000e56c       ?get_TracksToRead@COPOSMSR@@UEAAJPEAJ@Z 000000018000f56c f   MSRImpl.obj
 0001:0000e57c       ?get_TracksToWrite@COPOSMSR@@UEAAJPEAJ@Z 000000018000f57c f   MSRImpl.obj
 0001:0000e590       ?get_TransmitSentinels@COPOSMSR@@UEAAJPEAF@Z 000000018000f590 f   MSRImpl.obj
 0001:0000e5c4       ?get_WriteCardType@COPOSMSR@@UEAAJPEAPEA_W@Z 000000018000f5c4 f   MSRImpl.obj
 0001:0000e5d8       ?put_AutoDisable@COPOSMSR@@UEAAJF@Z 000000018000f5d8 f   MSRImpl.obj
 0001:0000e5f0       ?put_BinaryConversion@COPOSMSR@@UEAAJJ@Z 000000018000f5f0 f   MSRImpl.obj
 0001:0000e604       ?put_DataEncryptionAlgorithm@COPOSMSR@@UEAAJJ@Z 000000018000f604 f   MSRImpl.obj
 0001:0000e618       ?put_DataEventEnabled@COPOSMSR@@UEAAJF@Z 000000018000f618 f   MSRImpl.obj
 0001:0000e630       ?put_DecodeData@COPOSMSR@@UEAAJF@Z 000000018000f630 f   MSRImpl.obj
 0001:0000e648       ?put_DeviceEnabled@COPOSMSR@@UEAAJF@Z 000000018000f648 f   MSRImpl.obj
 0001:0000e660       ?put_ErrorReportingType@COPOSMSR@@UEAAJJ@Z 000000018000f660 f   MSRImpl.obj
 0001:0000e674       ?put_FreezeEvents@COPOSMSR@@UEAAJF@Z 000000018000f674 f   MSRImpl.obj
 0001:0000e6c4       ?put_ParseDecodeData@COPOSMSR@@UEAAJF@Z 000000018000f6c4 f   MSRImpl.obj
 0001:0000e6c4       ?put_ParseDecodedData@COPOSMSR@@UEAAJF@Z 000000018000f6c4 f   MSRImpl.obj
 0001:0000e6dc       ?put_PowerNotify@COPOSMSR@@UEAAJJ@Z 000000018000f6dc f   MSRImpl.obj
 0001:0000e6f0       ?put_TracksToRead@COPOSMSR@@UEAAJJ@Z 000000018000f6f0 f   MSRImpl.obj
 0001:0000e700       ?put_TracksToWrite@COPOSMSR@@UEAAJJ@Z 000000018000f700 f   MSRImpl.obj
 0001:0000e714       ?put_TransmitSentinels@COPOSMSR@@UEAAJF@Z 000000018000f714 f   MSRImpl.obj
 0001:0000e730       ?put_WriteCardType@COPOSMSR@@UEAAJPEA_W@Z 000000018000f730 f   MSRImpl.obj
 0001:0000e744       ?s_EventWindowProc@COPOSMSR@@KA_JPEAUHWND__@@I_K_J@Z 000000018000f744 f i MSRImpl.obj
 0001:0000e7c0       ??_U@YAPEAX_K@Z            000000018000f7c0 f   LIBCMT:new_array.obj
 0001:0000e7c8       ??_V@YAXPEAX@Z             000000018000f7c8 f   LIBCMT:delete_array.obj
 0001:0000e7c8       ??3@YAXPEAX_K@Z            000000018000f7c8 f   LIBCMT:delete_scalar_size.obj
 0001:0000e7d0       ??_V@YAXPEAX_K@Z           000000018000f7d0 f   LIBCMT:delete_array_size.obj
 0001:0000e7d8       __scrt_acquire_startup_lock 000000018000f7d8 f   LIBCMT:utility.obj
 0001:0000e814       __scrt_dllmain_after_initialize_c 000000018000f814 f   LIBCMT:utility.obj
 0001:0000e848       __scrt_dllmain_before_initialize_c 000000018000f848 f   LIBCMT:utility.obj
 0001:0000e860       __scrt_dllmain_crt_thread_attach 000000018000f860 f   LIBCMT:utility.obj
 0001:0000e888       __scrt_dllmain_crt_thread_detach 000000018000f888 f   LIBCMT:utility.obj
 0001:0000e8a0       __scrt_dllmain_exception_filter 000000018000f8a0 f   LIBCMT:utility.obj
 0001:0000e900       __scrt_dllmain_uninitialize_c 000000018000f900 f   LIBCMT:utility.obj
 0001:0000e930       __scrt_dllmain_uninitialize_critical 000000018000f930 f   LIBCMT:utility.obj
 0001:0000e944       __scrt_initialize_crt      000000018000f944 f   LIBCMT:utility.obj
 0001:0000e990       __scrt_initialize_onexit_tables 000000018000f990 f   LIBCMT:utility.obj
 0001:0000ea1c       __scrt_is_nonwritable_in_current_image 000000018000fa1c f   LIBCMT:utility.obj
 0001:0000eab4       __scrt_release_startup_lock 000000018000fab4 f   LIBCMT:utility.obj
 0001:0000ead8       __scrt_uninitialize_crt    000000018000fad8 f   LIBCMT:utility.obj
 0001:0000eb04       _onexit                    000000018000fb04 f   LIBCMT:utility.obj
 0001:0000eb40       atexit                     000000018000fb40 f   LIBCMT:utility.obj
 0001:0000eb58       ??3@YAXPEAX@Z              000000018000fb58 f   LIBCMT:delete_scalar.obj
 0001:0000ec58       _Init_thread_footer        000000018000fc58 f   LIBCMT:thread_safe_statics.obj
 0001:0000ecb8       _Init_thread_header        000000018000fcb8 f   LIBCMT:thread_safe_statics.obj
 0001:0000ed20       _Init_thread_notify        000000018000fd20 f   LIBCMT:thread_safe_statics.obj
 0001:0000ed64       _Init_thread_wait          000000018000fd64 f   LIBCMT:thread_safe_statics.obj
 0001:0000edc8       __raise_securityfailure    000000018000fdc8 f   LIBCMT:gs_report.obj
 0001:0000edfc       __report_gsfailure         000000018000fdfc f   LIBCMT:gs_report.obj
 0001:0000eed0       __report_rangecheckfailure 000000018000fed0 f   LIBCMT:gs_report.obj
 0001:0000eee4       __report_securityfailure   000000018000fee4 f   LIBCMT:gs_report.obj
 0001:0000f064       ??2@YAPEAX_KAEBUnothrow_t@std@@@Z 0000000180010064 f   LIBCMT:new_scalar_nothrow.obj
 0001:0000f078       ??_U@YAPEAX_KAEBUnothrow_t@std@@@Z 0000000180010078 f   LIBCMT:new_array_nothrow.obj
 0001:0000f080       __GSHandlerCheck           0000000180010080 f   LIBCMT:gshandler.obj
 0001:0000f0a0       __GSHandlerCheckCommon     00000001800100a0 f   LIBCMT:gshandler.obj
 0001:0000f0fc       __GSHandlerCheck_SEH       00000001800100fc f   LIBCMT:gshandlerseh.obj
 0001:0000f1a0       __chkstk                   00000001800101a0 f   LIBCMT:chkstk.obj
 0001:0000f1a0       _alloca_probe              00000001800101a0 f   LIBCMT:chkstk.obj
 0001:0000f210       __security_check_cookie    0000000180010210 f   LIBCMT:amdsecgs.obj
 0001:0000f554       _DllMainCRTStartup         0000000180010554 f   LIBCMT:dll_dllmain.obj
 0001:0000f594       ??2@YAPEAX_K@Z             0000000180010594 f   LIBCMT:new_scalar.obj
 0001:0000f5d0       __isa_available_init       00000001800105d0 f   LIBCMT:cpu_disp.obj
 0001:0000f774       __scrt_is_ucrt_dll_in_use  0000000180010774 f   LIBCMT:ucrt_detection.obj
 0001:0000f780       __crt_debugger_hook        0000000180010780 f   LIBCMT:utility_desktop.obj
 0001:0000f788       __scrt_fastfail            0000000180010788 f   LIBCMT:utility_desktop.obj
 0001:0000f8d4       __security_init_cookie     00000001800108d4 f   LIBCMT:gs_support.obj
 0001:0000f980       ?__scrt_initialize_type_info@@YAXXZ 0000000180010980 f   LIBCMT:tncleanup.obj
 0001:0000f990       ?__scrt_uninitialize_type_info@@YAXXZ 0000000180010990 f   LIBCMT:tncleanup.obj
 0001:0000f99c       __local_stdio_scanf_options 000000018001099c f i LIBCMT:default_local_stdio_options.obj
 0001:0000f9a4       __scrt_initialize_default_local_stdio_options 00000001800109a4 f   LIBCMT:default_local_stdio_options.obj
 0001:0000f9c0       __scrt_get_dyn_tls_init_callback 00000001800109c0 f   LIBCMT:dyn_tls_init.obj
 0001:0000f9c8       _RTC_Initialize            00000001800109c8 f   LIBCMT:initsect.obj
 0001:0000fa04       _RTC_Terminate             0000000180010a04 f   LIBCMT:initsect.obj
 0001:0000fa40       ??0bad_alloc@std@@QEAA@AEBV01@@Z 0000000180010a40 f i LIBCMT:throw_bad_alloc.obj
 0001:0000fa7c       ??0bad_alloc@std@@QEAA@XZ  0000000180010a7c f i LIBCMT:throw_bad_alloc.obj
 0001:0000fa9c       ??0bad_array_new_length@std@@QEAA@AEBV01@@Z 0000000180010a9c f i LIBCMT:throw_bad_alloc.obj
 0001:0000fad8       ??0bad_array_new_length@std@@QEAA@XZ 0000000180010ad8 f i LIBCMT:throw_bad_alloc.obj
 0001:0000faf8       ??0exception@std@@QEAA@AEBV01@@Z 0000000180010af8 f i LIBCMT:throw_bad_alloc.obj
 0001:0000fb2c       ??1bad_array_new_length@std@@UEAA@XZ 0000000180010b2c f i LIBCMT:throw_bad_alloc.obj
 0001:0000fb2c       ??1bad_exception@std@@UEAA@XZ 0000000180010b2c f i libvcruntime:frame.obj
 0001:0000fb2c       ??1bad_alloc@std@@UEAA@XZ  0000000180010b2c f i LIBCMT:throw_bad_alloc.obj
 0001:0000fb40       ??_Ebad_alloc@std@@UEAAPEAXI@Z 0000000180010b40 f i LIBCMT:throw_bad_alloc.obj
 0001:0000fb40       ??_Ebad_exception@std@@UEAAPEAXI@Z 0000000180010b40 f i libvcruntime:frame.obj
 0001:0000fb40       ??_Gbad_alloc@std@@UEAAPEAXI@Z 0000000180010b40 f i LIBCMT:throw_bad_alloc.obj
 0001:0000fb40       ??_Gbad_array_new_length@std@@UEAAPEAXI@Z 0000000180010b40 f i LIBCMT:throw_bad_alloc.obj
 0001:0000fb40       ??_Gexception@std@@UEAAPEAXI@Z 0000000180010b40 f i LIBCMT:throw_bad_alloc.obj
 0001:0000fb40       ??_Eexception@std@@UEAAPEAXI@Z 0000000180010b40 f i LIBCMT:throw_bad_alloc.obj
 0001:0000fb40       ??_Gbad_exception@std@@UEAAPEAXI@Z 0000000180010b40 f i libvcruntime:frame.obj
 0001:0000fb40       ??_Ebad_array_new_length@std@@UEAAPEAXI@Z 0000000180010b40 f i LIBCMT:throw_bad_alloc.obj
 0001:0000fb84       ?__scrt_throw_std_bad_alloc@@YAXXZ 0000000180010b84 f   LIBCMT:throw_bad_alloc.obj
 0001:0000fba4       ?__scrt_throw_std_bad_array_new_length@@YAXXZ 0000000180010ba4 f   LIBCMT:throw_bad_alloc.obj
 0001:0000fbc4       ?what@exception@std@@UEBAPEBDXZ 0000000180010bc4 f i LIBCMT:throw_bad_alloc.obj
 0001:0000fbe0       ??_Gtype_info@@UEAAPEAXI@Z 0000000180010be0 f i LIBCMT:std_type_info_static.obj
 0001:0000fbe0       ??_Etype_info@@UEAAPEAXI@Z 0000000180010be0 f i LIBCMT:std_type_info_static.obj
 0001:0000fc0c       ??0CAtlBaseModule@ATL@@QEAA@XZ 0000000180010c0c f   atls:atlbase.obj
 0001:0000fcb4       ??1CAtlBaseModule@ATL@@QEAA@XZ 0000000180010cb4 f   atls:atlbase.obj
 0001:0000fde8       ?__AllocStdCallThunk_cmn@@YAPEAXXZ 0000000180010de8 f   atls:atlthunk.obj
 0001:0000ff40       AtlThunk_AllocateData      0000000180010f40 f   atls:atlthunk.obj
 0001:0000ffbc       AtlThunk_DataToCode        0000000180010fbc f   atls:atlthunk.obj
 0001:00010010       AtlThunk_FreeData          0000000180011010 f   atls:atlthunk.obj
 0001:00010070       AtlThunk_InitData          0000000180011070 f   atls:atlthunk.obj
 0001:00010118       _get_purecall_handler      0000000180011118 f   libvcruntime:purevirt.obj
 0001:00010120       _purecall                  0000000180011120 f   libvcruntime:purevirt.obj
 0001:0001013c       wcsstr                     000000018001113c f   libvcruntime:wcsstr.obj
 0001:00010370       memcmp                     0000000180011370 f   libvcruntime:memcmp.obj
 0001:00010450       memcpy_repmovs             0000000180011450 f   libvcruntime:memcpy.obj
 0001:00010470       memcpy                     0000000180011470 f   libvcruntime:memcpy.obj
 0001:00010470       memmove                    0000000180011470 f   libvcruntime:memcpy.obj
 0001:00010860       memset_repmovs             0000000180011860 f   libvcruntime:memset.obj
 0001:00010880       memset                     0000000180011880 f   libvcruntime:memset.obj
 0001:00010a10       __vcrt_initialize          0000000180011a10 f   libvcruntime:initialization.obj
 0001:00010a38       __vcrt_thread_attach       0000000180011a38 f   libvcruntime:initialization.obj
 0001:00010a4c       __vcrt_thread_detach       0000000180011a4c f   libvcruntime:initialization.obj
 0001:00010a60       __vcrt_uninitialize        0000000180011a60 f   libvcruntime:initialization.obj
 0001:00010a7c       __vcrt_uninitialize_critical 0000000180011a7c f   libvcruntime:initialization.obj
 0001:00010a8c       __C_specific_handler       0000000180011a8c f   libvcruntime:riscchandler.obj
 0001:00010c98       ??$_CallSETranslator@V__FrameHandler4@@@@YAHPEAUEHExceptionRecord@@PEA_KPEAU_CONTEXT@@PEAU_xDISPATCHER_CONTEXT@@PEAUFuncInfo4@FH4@@K1H@Z 0000000180011c98 f i libvcruntime:risctrnsctrl.obj
 0001:00010cec       ?DecompFuncInfo@FH4@@YA_JPEAEAEAUFuncInfo4@1@_KH_N@Z 0000000180011cec f i libvcruntime:risctrnsctrl.obj
 0001:00010e10       ?ExecutionInCatch@__FrameHandler4@@SA_NPEAU_xDISPATCHER_CONTEXT@@PEAUFuncInfo4@FH4@@@Z 0000000180011e10 f   libvcruntime:risctrnsctrl.obj
 0001:00010e18       ?FrameUnwindToEmptyState@__FrameHandler4@@SAXPEA_KPEAU_xDISPATCHER_CONTEXT@@PEAUFuncInfo4@FH4@@@Z 0000000180011e18 f   libvcruntime:risctrnsctrl.obj
 0001:00010e4c       ?GetEstablisherFrame@__FrameHandler4@@SAPEA_KPEA_KPEAU_xDISPATCHER_CONTEXT@@PEAUFuncInfo4@FH4@@0@Z 0000000180011e4c f   libvcruntime:risctrnsctrl.obj
 0001:00010e70       ?GetRangeOfTrysToCheck@__FrameHandler4@@SA?AU?$pair@Viterator@TryBlockMap4@FH4@@V123@@std@@AEAVTryBlockMap4@FH4@@HPEAU_xDISPATCHER_CONTEXT@@PEAUFuncInfo4@5@H@Z 0000000180011e70 f   libvcruntime:risctrnsctrl.obj
 0001:00010fd8       ?UnwindNestedFrames@__FrameHandler4@@SAXPEA_KPEAUEHExceptionRecord@@PEAU_CONTEXT@@0PEAXPEAUFuncInfo4@FH4@@HHPEAUHandlerType4@5@PEAU_xDISPATCHER_CONTEXT@@E@Z 0000000180011fd8 f   libvcruntime:risctrnsctrl.obj
 0001:000110f8       ?setBuffer@TryBlockMap4@FH4@@QEAAXViterator@12@@Z 00000001800120f8 f i libvcruntime:risctrnsctrl.obj
 0001:000112b8       _CreateFrameInfo           00000001800122b8 f   libvcruntime:risctrnsctrl.obj
 0001:000112f4       _FindAndUnlinkFrame        00000001800122f4 f   libvcruntime:risctrnsctrl.obj
 0001:00011348       _GetImageBase              0000000180012348 f   libvcruntime:risctrnsctrl.obj
 0001:0001135c       _GetThrowImageBase         000000018001235c f   libvcruntime:risctrnsctrl.obj
 0001:00011370       _SetImageBase              0000000180012370 f   libvcruntime:risctrnsctrl.obj
 0001:00011388       _SetThrowImageBase         0000000180012388 f   libvcruntime:risctrnsctrl.obj
 0001:000113a0       __CxxFrameHandler4         00000001800123a0 f   libvcruntime:risctrnsctrl.obj
 0001:00011460       __DestructExceptionObject  0000000180012460 f   libvcruntime:ehhelpers.obj
 0001:000114d0       ?_CallMemberFunction0@@YAXQEAX0@Z 00000001800124d0 f i libvcruntime:ehhelpers.obj
 0001:000114d4       _IsExceptionObjectToBeDestroyed 00000001800124d4 f   libvcruntime:ehhelpers.obj
 0001:00011504       __AdjustPointer            0000000180012504 f   libvcruntime:ehhelpers.obj
 0001:00011528       __FrameUnwindFilter        0000000180012528 f   libvcruntime:ehhelpers.obj
 0001:00011590       __std_type_info_compare    0000000180012590 f   libvcruntime:std_type_info.obj
 0001:000115b8       __std_type_info_destroy_list 00000001800125b8 f   libvcruntime:std_type_info.obj
 0001:000115e4       __std_exception_copy       00000001800125e4 f   libvcruntime:std_exception.obj
 0001:00011674       __std_exception_destroy    0000000180012674 f   libvcruntime:std_exception.obj
 0001:0001169c       _CxxThrowException         000000018001269c f   libvcruntime:throw.obj
 0001:0001173c       __vcrt_freefls             000000018001273c f   libvcruntime:per_thread_data.obj
 0001:0001175c       __vcrt_freeptd             000000018001275c f   libvcruntime:per_thread_data.obj
 0001:000117ac       __vcrt_getptd              00000001800127ac f   libvcruntime:per_thread_data.obj
 0001:000117c8       __vcrt_getptd_noexit       00000001800127c8 f   libvcruntime:per_thread_data.obj
 0001:00011888       __vcrt_initialize_ptd      0000000180012888 f   libvcruntime:per_thread_data.obj
 0001:000118d0       __vcrt_uninitialize_ptd    00000001800128d0 f   libvcruntime:per_thread_data.obj
 0001:000118f4       __vcrt_initialize_locks    00000001800128f4 f   libvcruntime:locks.obj
 0001:00011928       __vcrt_uninitialize_locks  0000000180012928 f   libvcruntime:locks.obj
 0001:00011970       _NLG_Notify                0000000180012970 f   libvcruntime:notify.obj
 0001:00011990       __NLG_Dispatch2            0000000180012990 f   libvcruntime:notify.obj
 0001:000119a0       __NLG_Return2              00000001800129a0 f   libvcruntime:notify.obj
 0001:000119a4       __except_validate_context_record 00000001800129a4 f   libvcruntime:jbcxrval.obj
 0001:000119dc       ?StateFromControlPc@__FrameHandler4@@SAHPEAUFuncInfo4@FH4@@PEAU_xDISPATCHER_CONTEXT@@@Z 00000001800129dc f   libvcruntime:ehstate.obj
 0001:000119e4       ?StateFromIp@__FrameHandler4@@SAHPEAUFuncInfo4@FH4@@PEAU_xDISPATCHER_CONTEXT@@_K@Z 00000001800129e4 f   libvcruntime:ehstate.obj
 0001:00012668       ??$TypeMatchHelper@V__FrameHandler3@@@@YAHPEBU_s_HandlerType@@PEBU_s_CatchableType@@PEBU_s_ThrowInfo@@@Z 0000000180013668 f i libvcruntime:frame.obj
 0001:000127a8       ??$TypeMatchHelper@V__FrameHandler4@@@@YAHPEAUHandlerType4@FH4@@PEBU_s_CatchableType@@PEBU_s_ThrowInfo@@@Z 00000001800137a8 f i libvcruntime:frame.obj
 0001:000128ec       ??$__InternalCxxFrameHandler@V__FrameHandler4@@@@YA?AW4_EXCEPTION_DISPOSITION@@PEAUEHExceptionRecord@@PEA_KPEAU_CONTEXT@@PEAU_xDISPATCHER_CONTEXT@@PEAUFuncInfo4@FH4@@H1E@Z 00000001800138ec f i libvcruntime:frame.obj
 0001:00012b80       ??0HandlerMap4@FH4@@QEAA@PEBUTryBlockMapEntry4@1@_KH@Z 0000000180013b80 f i libvcruntime:frame.obj
 0001:00012bfc       ??0TryBlockMap4@FH4@@QEAA@PEBUFuncInfo4@1@_K@Z 0000000180013bfc f i libvcruntime:frame.obj
 0001:00012cd4       ??0bad_exception@std@@QEAA@AEBV01@@Z 0000000180013cd4 f i libvcruntime:frame.obj
 0001:00012d10       ??0bad_exception@std@@QEAA@XZ 0000000180013d10 f i libvcruntime:frame.obj
 0001:00012d30       ?CxxCallCatchBlock@__FrameHandler4@@SAPEAXPEAU_EXCEPTION_RECORD@@@Z 0000000180013d30 f   libvcruntime:frame.obj
 0001:00012f80       ?DecompHandler@HandlerMap4@FH4@@AEAAXXZ 0000000180013f80 f i libvcruntime:frame.obj
 0001:000131c0       ?FrameUnwindToState@__FrameHandler4@@SAXPEA_KPEAU_xDISPATCHER_CONTEXT@@PEAUFuncInfo4@FH4@@H@Z 00000001800141c0 f   libvcruntime:frame.obj
 0001:00013620       ?ReadEntry@UWMap4@FH4@@AEAAXPEAPEAE@Z 0000000180014620 f i libvcruntime:frame.obj
 0001:000136c0       ?_CallMemberFunction1@@YAXQEAX00@Z 00000001800146c0 f i libvcruntime:frame.obj
 0001:000136cc       ?_CallMemberFunction2@@YAXQEAX00H@Z 00000001800146cc f i libvcruntime:frame.obj
 0001:000136dc       ?getStartStop@UWMap4@FH4@@QEAAXHHAEAViterator@12@0@Z 00000001800146dc f i libvcruntime:frame.obj
 0001:000137ac       ?getStateFromIterators@UWMap4@FH4@@SAHAEBViterator@12@H0H0@Z 00000001800147ac f i libvcruntime:frame.obj
 0001:000139c0       __vcrt_FlsAlloc            00000001800149c0 f   libvcruntime:winapi_downlevel.obj
 0001:00013a08       __vcrt_FlsFree             0000000180014a08 f   libvcruntime:winapi_downlevel.obj
 0001:00013a50       __vcrt_FlsGetValue         0000000180014a50 f   libvcruntime:winapi_downlevel.obj
 0001:00013a98       __vcrt_FlsSetValue         0000000180014a98 f   libvcruntime:winapi_downlevel.obj
 0001:00013aec       __vcrt_InitializeCriticalSectionEx 0000000180014aec f   libvcruntime:winapi_downlevel.obj
 0001:00013b60       _CallSettingFrame          0000000180014b60 f   libvcruntime:handlers.obj
 0001:00013bb0       _CallSettingFrame_LookupContinuationIndex 0000000180014bb0 f   libvcruntime:handlers.obj
 0001:00013be0       _CallSettingFrame_NotifyContinuationAddr 0000000180014be0 f   libvcruntime:handlers.obj
 0001:00013c10       _CallSettingFrameEncoded   0000000180014c10 f   libvcruntime:handlers.obj
 0001:00013c58       free                       0000000180014c58 f   libucrt:free.obj
 0001:00013c6c       __acrt_call_reportfault    0000000180014c6c f   libucrt:invalid_parameter.obj
 0001:00013dc8       __acrt_initialize_invalid_parameter_handler 0000000180014dc8 f   libucrt:invalid_parameter.obj
 0001:00013dd0       _invalid_parameter         0000000180014dd0 f   libucrt:invalid_parameter.obj
 0001:00013e80       _invalid_parameter_noinfo  0000000180014e80 f   libucrt:invalid_parameter.obj
 0001:00013ea0       _invoke_watson             0000000180014ea0 f   libucrt:invalid_parameter.obj
 0001:00013ee8       __acrt_errno_from_os_error 0000000180014ee8 f   libucrt:errno.obj
 0001:00013f30       __acrt_errno_map_os_error  0000000180014f30 f   libucrt:errno.obj
 0001:00013f80       __doserrno                 0000000180014f80 f   libucrt:errno.obj
 0001:00013fa0       _errno                     0000000180014fa0 f   libucrt:errno.obj
 0001:00013fc0       calloc                     0000000180014fc0 f   libucrt:calloc.obj
 0001:00013fc8       malloc                     0000000180014fc8 f   libucrt:malloc.obj
 0001:00013fd0       _recalloc                  0000000180014fd0 f   libucrt:recalloc.obj
 0001:00013fd8       _recalloc_base             0000000180014fd8 f   libucrt:recalloc.obj
 0001:00014070       _resetstkoflw              0000000180015070 f   libucrt:resetstk.obj
 0001:0001419c       wcscat_s                   000000018001519c f   libucrt:wcscat_s.obj
 0001:0001421c       wcscpy_s                   000000018001521c f   libucrt:wcscpy_s.obj
 0001:00014284       wcsncpy_s                  0000000180015284 f   libucrt:wcsncpy_s.obj
 0001:0001453c       ??$ensure_buffer_is_big_enough@D@formatting_buffer@__crt_stdio_output@@QEAA_N_K@Z 000000018001553c f i libucrt:output.obj
 0001:000145e4       ??$ensure_buffer_is_big_enough@_W@formatting_buffer@__crt_stdio_output@@QEAA_N_K@Z 00000001800155e4 f i libucrt:output.obj
 0001:00014690       ??$is_wide_character_specifier@_W@__crt_stdio_output@@YA_N_K_WW4length_modifier@0@@Z 0000000180015690 f i libucrt:output.obj
 0001:000146d0       ??$type_case_integer_parse_into_buffer@I@?$output_processor@_WV?$string_output_adapter@_W@__crt_stdio_output@@V?$format_validation_base@_WV?$string_output_adapter@_W@__crt_stdio_output@@@2@@__crt_stdio_output@@AEAAXII_N@Z 00000001800156d0 f i libucrt:output.obj
 0001:00014774       ??$type_case_integer_parse_into_buffer@_K@?$output_processor@_WV?$string_output_adapter@_W@__crt_stdio_output@@V?$format_validation_base@_WV?$string_output_adapter@_W@__crt_stdio_output@@@2@@__crt_stdio_output@@AEAAX_KI_N@Z 0000000180015774 f i libucrt:output.obj
 0001:00014818       ??$write_multiple_characters@V?$string_output_adapter@_W@__crt_stdio_output@@D@__crt_stdio_output@@YAXAEBV?$string_output_adapter@_W@0@DHQEAH@Z 0000000180015818 f i libucrt:output.obj
 0001:00014890       ??0_LocaleUpdate@@QEAA@QEAU__crt_locale_pointers@@@Z 0000000180015890 f i libucrt:output.obj
 0001:00014930       ?crop_zeroes@__crt_stdio_output@@YAXPEADQEAU__crt_locale_pointers@@@Z 0000000180015930 f i libucrt:output.obj
 0001:000149d0       ?force_decimal_point@__crt_stdio_output@@YAXPEADQEAU__crt_locale_pointers@@@Z 00000001800159d0 f i libucrt:output.obj
 0001:00014a48       ?parse_int_from_format_string@?$output_processor@_WV?$string_output_adapter@_W@__crt_stdio_output@@V?$format_validation_base@_WV?$string_output_adapter@_W@__crt_stdio_output@@@2@@__crt_stdio_output@@AEAA_NQEAH@Z 0000000180015a48 f i libucrt:output.obj
 0001:00014aec       ?process@?$output_processor@_WV?$string_output_adapter@_W@__crt_stdio_output@@V?$format_validation_base@_WV?$string_output_adapter@_W@__crt_stdio_output@@@2@@__crt_stdio_output@@QEAAHXZ 0000000180015aec f i libucrt:output.obj
 0001:00014d64       ?state_case_size@?$output_processor@_WV?$string_output_adapter@_W@__crt_stdio_output@@V?$format_validation_base@_WV?$string_output_adapter@_W@__crt_stdio_output@@@2@@__crt_stdio_output@@AEAA_NXZ 0000000180015d64 f i libucrt:output.obj
 0001:00014ef8       ?state_case_type@?$output_processor@_WV?$string_output_adapter@_W@__crt_stdio_output@@V?$format_validation_base@_WV?$string_output_adapter@_W@__crt_stdio_output@@@2@@__crt_stdio_output@@AEAA_NXZ 0000000180015ef8 f i libucrt:output.obj
 0001:000151d0       ?to_integer_size@__crt_stdio_output@@YA_KW4length_modifier@1@@Z 00000001800161d0 f i libucrt:output.obj
 0001:00015238       ?type_case_Z@?$output_processor@_WV?$string_output_adapter@_W@__crt_stdio_output@@V?$format_validation_base@_WV?$string_output_adapter@_W@__crt_stdio_output@@@2@@__crt_stdio_output@@AEAA_NXZ 0000000180016238 f i libucrt:output.obj
 0001:000152b4       ?type_case_a@?$output_processor@_WV?$string_output_adapter@_W@__crt_stdio_output@@V?$format_validation_base@_WV?$string_output_adapter@_W@__crt_stdio_output@@@2@@__crt_stdio_output@@AEAA_NXZ 00000001800162b4 f i libucrt:output.obj
 0001:00015494       ?type_case_c_tchar@?$output_processor@_WV?$string_output_adapter@_W@__crt_stdio_output@@V?$format_validation_base@_WV?$string_output_adapter@_W@__crt_stdio_output@@@2@@__crt_stdio_output@@AEAA_N_W@Z 0000000180016494 f i libucrt:output.obj
 0001:0001553c       ?type_case_integer@?$output_processor@_WV?$string_output_adapter@_W@__crt_stdio_output@@V?$format_validation_base@_WV?$string_output_adapter@_W@__crt_stdio_output@@@2@@__crt_stdio_output@@AEAA_NI_N@Z 000000018001653c f i libucrt:output.obj
 0001:000156c4       ?type_case_n@?$output_processor@_WV?$string_output_adapter@_W@__crt_stdio_output@@V?$format_validation_base@_WV?$string_output_adapter@_W@__crt_stdio_output@@@2@@__crt_stdio_output@@AEAA_NXZ 00000001800166c4 f i libucrt:output.obj
 0001:0001574c       ?type_case_s@?$output_processor@_WV?$string_output_adapter@_W@__crt_stdio_output@@V?$format_validation_base@_WV?$string_output_adapter@_W@__crt_stdio_output@@@2@@__crt_stdio_output@@AEAA_NXZ 000000018001674c f i libucrt:output.obj
 0001:00015814       ?write_stored_string_tchar@?$output_processor@_WV?$string_output_adapter@_W@__crt_stdio_output@@V?$format_validation_base@_WV?$string_output_adapter@_W@__crt_stdio_output@@@2@@__crt_stdio_output@@AEAA_N_W@Z 0000000180016814 f i libucrt:output.obj
 0001:000158fc       ?write_string@?$string_output_adapter@_W@__crt_stdio_output@@QEBAXQEB_WHQEAHAEAV__crt_deferred_errno_cache@@@Z 00000001800168fc f i libucrt:output.obj
 0001:000159a4       __stdio_common_vswprintf_s 00000001800169a4 f   libucrt:output.obj
 0001:00015a14       _seh_filter_dll            0000000180016a14 f   libucrt:exception_filter.obj
 0001:00015a28       _seh_filter_exe            0000000180016a28 f   libucrt:exception_filter.obj
 0001:00015e18       __acrt_initialize_thread_local_exit_callback 0000000180016e18 f   libucrt:exit.obj
 0001:00015e20       _cexit                     0000000180016e20 f   libucrt:exit.obj
 0001:00015e30       _exit                      0000000180016e30 f   libucrt:exit.obj
 0001:00015e3c       _is_c_termination_complete 0000000180016e3c f   libucrt:exit.obj
 0001:00016004       __acrt_allocate_buffer_for_argv 0000000180017004 f   libucrt:argv_parsing.obj
 0001:00016064       _configure_narrow_argv     0000000180017064 f   libucrt:argv_parsing.obj
 0001:000163dc       __dcrt_uninitialize_environments_nolock 00000001800173dc f   libucrt:environment_initialization.obj
 0001:00016414       _initialize_narrow_environment 0000000180017414 f   libucrt:environment_initialization.obj
 0001:0001675c       _crt_atexit                000000018001775c f   libucrt:onexit.obj
 0001:0001676c       _execute_onexit_table      000000018001776c f   libucrt:onexit.obj
 0001:000167a8       _initialize_onexit_table   00000001800177a8 f   libucrt:onexit.obj
 0001:000167d0       _register_onexit_function  00000001800177d0 f   libucrt:onexit.obj
 0001:00016850       __acrt_uninitialize_command_line 0000000180017850 f   libucrt:argv_data.obj
 0001:00016948       __acrt_initialize          0000000180017948 f   libucrt:initialization.obj
 0001:0001695c       __acrt_thread_attach       000000018001795c f   libucrt:initialization.obj
 0001:00016970       __acrt_thread_detach       0000000180017970 f   libucrt:initialization.obj
 0001:00016980       __acrt_uninitialize        0000000180017980 f   libucrt:initialization.obj
 0001:000169b8       __acrt_uninitialize_critical 00000001800179b8 f   libucrt:initialization.obj
 0001:000169c8       _initterm                  00000001800179c8 f   libucrt:initterm.obj
 0001:00016a2c       _initterm_e                0000000180017a2c f   libucrt:initterm.obj
 0001:00016a6c       __acrt_initialize_new_handler 0000000180017a6c f   libucrt:new_handler.obj
 0001:00016a74       _callnewh                  0000000180017a74 f   libucrt:new_handler.obj
 0001:00016aa4       _query_new_handler         0000000180017aa4 f   libucrt:new_handler.obj
 0001:00016ad8       terminate                  0000000180017ad8 f   libucrt:terminate.obj
 0001:00016af8       abort                      0000000180017af8 f   libucrt:abort.obj
 0001:00016b50       strcpy_s                   0000000180017b50 f   libucrt:strcpy_s.obj
 0001:00016bb0       ??$parse_integer@KV?$c_string_character_source@_W@__crt_strtox@@@__crt_strtox@@YAKQEAU__crt_locale_pointers@@V?$c_string_character_source@_W@0@H_N@Z 0000000180017bb0 f i libucrt:atox.obj
 0001:00017270       strncmp                    0000000180018270 f   libucrt:strncmp.obj
 0001:000172f0       wcsncmp                    00000001800182f0 f   libucrt:wcsncmp.obj
 0001:0001731c       _free_base                 000000018001831c f   libucrt:free_base.obj
 0001:000176d4       __acrt_freeptd             00000001800186d4 f   libucrt:per_thread_data.obj
 0001:00017718       __acrt_getptd              0000000180018718 f   libucrt:per_thread_data.obj
 0001:000177ec       __acrt_getptd_head         00000001800187ec f   libucrt:per_thread_data.obj
 0001:00017894       __acrt_getptd_noexit       0000000180018894 f   libucrt:per_thread_data.obj
 0001:00017960       __acrt_initialize_ptd      0000000180018960 f   libucrt:per_thread_data.obj
 0001:0001799c       __acrt_uninitialize_ptd    000000018001899c f   libucrt:per_thread_data.obj
 0001:000179c0       _calloc_base               00000001800189c0 f   libucrt:calloc_base.obj
 0001:00017a38       _malloc_base               0000000180018a38 f   libucrt:malloc_base.obj
 0001:00017a98       _msize_base                0000000180018a98 f   libucrt:msize.obj
 0001:00017ad4       _realloc_base              0000000180018ad4 f   libucrt:realloc_base.obj
 0001:00017d28       __acrt_AppPolicyGetProcessTerminationMethodInternal 0000000180018d28 f   libucrt:winapi_thunks.obj
 0001:00017d78       __acrt_AreFileApisANSI     0000000180018d78 f   libucrt:winapi_thunks.obj
 0001:00017db4       __acrt_FlsAlloc            0000000180018db4 f   libucrt:winapi_thunks.obj
 0001:00017dfc       __acrt_FlsFree             0000000180018dfc f   libucrt:winapi_thunks.obj
 0001:00017e44       __acrt_FlsGetValue         0000000180018e44 f   libucrt:winapi_thunks.obj
 0001:00017e8c       __acrt_FlsSetValue         0000000180018e8c f   libucrt:winapi_thunks.obj
 0001:00017ee0       __acrt_InitializeCriticalSectionEx 0000000180018ee0 f   libucrt:winapi_thunks.obj
 0001:00017f44       __acrt_LCMapStringEx       0000000180018f44 f   libucrt:winapi_thunks.obj
 0001:00018020       __acrt_LocaleNameToLCID    0000000180019020 f   libucrt:winapi_thunks.obj
 0001:00018070       __acrt_SetThreadStackGuarantee 0000000180019070 f   libucrt:winapi_thunks.obj
 0001:000180b4       __acrt_initialize_winapi_thunks 00000001800190b4 f   libucrt:winapi_thunks.obj
 0001:000180e8       __acrt_uninitialize_winapi_thunks 00000001800190e8 f   libucrt:winapi_thunks.obj
 0001:0001812c       wcstol                     000000018001912c f   libucrt:strtox.obj
 0001:00018158       _mbtowc_l                  0000000180019158 f   libucrt:mbtowc.obj
 0001:000182d8       mbtowc                     00000001800192d8 f   libucrt:mbtowc.obj
 0001:000182e0       wcsnlen                    00000001800192e0 f   libucrt:strnlen.obj
 0001:000184b8       __acrt_update_locale_info  00000001800194b8 f   libucrt:locale_update.obj
 0001:000184ec       __acrt_update_multibyte_info 00000001800194ec f   libucrt:locale_update.obj
 0001:00018f24       __acrt_fp_format           0000000180019f24 f   libucrt:cvt.obj
 0001:0001925c       _fileno                    000000018001a25c f   libucrt:fileno.obj
 0001:00019284       __acrt_initialize_stdio    000000018001a284 f   libucrt:_file.obj
 0001:000193a4       __acrt_uninitialize_stdio  000000018001a3a4 f   libucrt:_file.obj
 0001:00019400       _lock_file                 000000018001a400 f   libucrt:_file.obj
 0001:0001940c       _unlock_file               000000018001a40c f   libucrt:_file.obj
 0001:00019418       _get_printf_count_output   000000018001a418 f   libucrt:printf_count_output.obj
 0001:000194a0       __acrt_set_locale_changed  000000018001a4a0 f   libucrt:wsetlocale.obj
 0001:000194ac       __acrt_uninitialize_locale 000000018001a4ac f   libucrt:wsetlocale.obj
 0001:000196d8       __acrt_initialize_lowio    000000018001a6d8 f   libucrt:ioinit.obj
 0001:00019714       __acrt_uninitialize_lowio  000000018001a714 f   libucrt:ioinit.obj
 0001:00019754       __acrt_initialize_locks    000000018001a754 f   libucrt:locks.obj
 0001:0001979c       __acrt_lock                000000018001a79c f   libucrt:locks.obj
 0001:000197b8       __acrt_uninitialize_locks  000000018001a7b8 f   libucrt:locks.obj
 0001:000197f0       __acrt_unlock              000000018001a7f0 f   libucrt:locks.obj
 0001:0001980c       __acrt_get_process_end_policy 000000018001a80c f   libucrt:win_policies.obj
 0001:0001985c       ??$__acrt_mbs_to_wcs_cp@U__crt_win32_buffer_internal_dynamic_resizing@@@@YAHQEBDAEAV?$__crt_win32_buffer@_WU__crt_win32_buffer_internal_dynamic_resizing@@@@I@Z 000000018001a85c f i libucrt:argv_wildcards.obj
 0001:000199d4       ??$__acrt_wcs_to_mbs_cp@U__crt_win32_buffer_internal_dynamic_resizing@@@@YAHQEB_WAEAV?$__crt_win32_buffer@DU__crt_win32_buffer_internal_dynamic_resizing@@@@I@Z 000000018001a9d4 f i libucrt:argv_wildcards.obj
 0001:0001a204       __acrt_expand_narrow_argv_wildcards 000000018001b204 f   libucrt:argv_wildcards.obj
 0001:0001a20c       ??$__acrt_wcs_to_mbs_cp@U__crt_win32_buffer_no_resizing@@@@YAHQEB_WAEAV?$__crt_win32_buffer@DU__crt_win32_buffer_no_resizing@@@@I@Z 000000018001b20c f i libucrt:getmodulefilenamea.obj
 0001:0001a320       __acrt_GetModuleFileNameA  000000018001b320 f   libucrt:getmodulefilenamea.obj
 0001:0001ab68       __acrt_initialize_multibyte 000000018001bb68 f   libucrt:mbctype.obj
 0001:0001abc8       __acrt_update_thread_multibyte_data 000000018001bbc8 f   libucrt:mbctype.obj
 0001:0001abe4       _setmbcp_nolock            000000018001bbe4 f   libucrt:mbctype.obj
 0001:0001af18       _ismbblead                 000000018001bf18 f   libucrt:ismbbyte.obj
 0001:0001af2c       __acrt_initialize_command_line 000000018001bf2c f   libucrt:argv_data.obj
 0001:0001af54       __acrt_MultiByteToWideChar 000000018001bf54 f   libucrt:multibytetowidechar.obj
 0001:0001afb0       __acrt_WideCharToMultiByte 000000018001bfb0 f   libucrt:widechartomultibyte.obj
 0001:0001b060       __dcrt_get_narrow_environment_from_os 000000018001c060 f   libucrt:get_environment_from_os.obj
 0001:0001b164       __acrt_initialize_heap     000000018001c164 f   libucrt:heap_handle.obj
 0001:0001b180       __acrt_uninitialize_heap   000000018001c180 f   libucrt:heap_handle.obj
 0001:0001b18c       __acrt_execute_initializers 000000018001c18c f   libucrt:shared_initialization.obj
 0001:0001b20c       __acrt_execute_uninitializers 000000018001c20c f   libucrt:shared_initialization.obj
 0001:0001b290       __acrt_get_sigabrt_handler 000000018001c290 f   libucrt:signal.obj
 0001:0001b2c0       __acrt_initialize_signal_handlers 000000018001c2c0 f   libucrt:signal.obj
 0001:0001b2e0       raise                      000000018001c2e0 f   libucrt:signal.obj
 0001:0001b54c       __acrt_has_user_matherr    000000018001c54c f   libucrt:matherr.obj
 0001:0001b56c       __acrt_initialize_user_matherr 000000018001c56c f   libucrt:matherr.obj
 0001:0001b574       __acrt_invoke_user_matherr 000000018001c574 f   libucrt:matherr.obj
 0001:0001b780       __acrt_stdio_flush_nolock  000000018001c780 f   libucrt:fflush.obj
 0001:0001b7fc       _fflush_nolock             000000018001c7fc f   libucrt:fflush.obj
 0001:0001b848       _flushall                  000000018001c848 f   libucrt:fflush.obj
 0001:0001b850       __pctype_func              000000018001c850 f   libucrt:ctype.obj
 0001:0001b880       iswctype                   000000018001c880 f   libucrt:iswctype.obj
 0001:0001b8ec       __acrt_add_locale_ref      000000018001c8ec f   libucrt:locale_refcounting.obj
 0001:0001b978       __acrt_free_locale         000000018001c978 f   libucrt:locale_refcounting.obj
 0001:0001baf0       __acrt_locale_add_lc_time_reference 000000018001caf0 f   libucrt:locale_refcounting.obj
 0001:0001bb18       __acrt_locale_free_lc_time_if_unreferenced 000000018001cb18 f   libucrt:locale_refcounting.obj
 0001:0001bb50       __acrt_locale_release_lc_time_reference 000000018001cb50 f   libucrt:locale_refcounting.obj
 0001:0001bb78       __acrt_release_locale_ref  000000018001cb78 f   libucrt:locale_refcounting.obj
 0001:0001bc20       __acrt_update_thread_locale_data 000000018001cc20 f   libucrt:locale_refcounting.obj
 0001:0001bc90       _updatetlocinfoEx_nolock   000000018001cc90 f   libucrt:locale_refcounting.obj
 0001:0001bcf8       _query_new_mode            000000018001ccf8 f   libucrt:new_mode.obj
 0001:0001bd00       __acrt_DownlevelLocaleNameToLCID 000000018001cd00 f   libucrt:lcidtoname_downlevel.obj
 0001:0001bdb0       _isleadbyte_l              000000018001cdb0 f i libucrt:_wctype.obj
 0001:0001bdfc       ?__mbrtowc_utf8@__crt_mbstring@@YA_KPEA_WPEBD_KPEAU_Mbstatet@@@Z 000000018001cdfc f   libucrt:mbrtowc.obj
 0001:0001be38       ?__mbsrtowcs_utf8@__crt_mbstring@@YA_KPEA_WPEAPEBD_KPEAU_Mbstatet@@@Z 000000018001ce38 f   libucrt:mbrtowc.obj
 0001:0001bfb0       __acrt_fp_strflt_to_string 000000018001cfb0 f   libucrt:_fptostr.obj
 0001:0001c100       ?divide@__crt_strtox@@YA_KAEAUbig_integer@1@AEBU21@@Z 000000018001d100 f i libucrt:cfout.obj
 0001:0001c52c       __acrt_fltout              000000018001d52c f   libucrt:cfout.obj
 0001:0001d7f8       fegetround                 000000018001e7f8 f   libucrt:fegetround.obj
 0001:0001d80c       _fcloseall                 000000018001e80c f   libucrt:closeall.obj
 0001:0001d8c0       __acrt_stdio_free_buffer_nolock 000000018001e8c0 f   libucrt:_freebuf.obj
 0001:0001d900       _isatty                    000000018001e900 f   libucrt:isatty.obj
 0001:0001d960       __acrt_locale_free_monetary 000000018001e960 f   libucrt:initmon.obj
 0001:0001da6c       __acrt_locale_free_numeric 000000018001ea6c f   libucrt:initnum.obj
 0001:0001db30       __acrt_locale_free_time    000000018001eb30 f   libucrt:inittime.obj
 0001:0001dc38       __acrt_GetStringTypeA      000000018001ec38 f   libucrt:getstringtypea.obj
 0001:0001ddc8       __acrt_lowio_create_handle_array 000000018001edc8 f   libucrt:osfinfo.obj
 0001:0001de70       __acrt_lowio_destroy_handle_array 000000018001ee70 f   libucrt:osfinfo.obj
 0001:0001dec0       __acrt_lowio_ensure_fh_exists 000000018001eec0 f   libucrt:osfinfo.obj
 0001:0001df68       __acrt_lowio_lock_fh       000000018001ef68 f   libucrt:osfinfo.obj
 0001:0001df90       __acrt_lowio_unlock_fh     000000018001ef90 f   libucrt:osfinfo.obj
 0001:0001dfb8       _free_osfhnd               000000018001efb8 f   libucrt:osfinfo.obj
 0001:0001e074       _get_osfhandle             000000018001f074 f   libucrt:osfinfo.obj
 0001:0001e0f0       qsort                      000000018001f0f0 f   libucrt:qsort.obj
 0001:0001e490       strncpy_s                  000000018001f490 f   libucrt:strncpy_s.obj
 0001:0001e610       strpbrk                    000000018001f610 f   libucrt:strpbrk.obj
 0001:0001e9d8       _mbsdec                    000000018001f9d8 f   libucrt:mbsdec.obj
 0001:0001e9e0       _mbsdec_l                  000000018001f9e0 f   libucrt:mbsdec.obj
 0001:0001ed8c       __acrt_LCMapStringA        000000018001fd8c f   libucrt:lcmapstringa.obj
 0001:0001eec8       _commit                    000000018001fec8 f   libucrt:commit.obj
 0001:0001f7d8       _write                     00000001800207d8 f   libucrt:write.obj
 0001:0001f8c4       _write_nolock              00000001800208c4 f   libucrt:write.obj
 0001:0001fba8       __acrt_GetStringTypeW      0000000180020ba8 f   libucrt:getstringtypew.obj
 0001:0001fbb0       __ascii_wcsnicmp           0000000180020bb0 f   libucrt:wcsnicmp.obj
 0001:0001fbfc       ?__mbrtoc32_utf8@__crt_mbstring@@YA_KPEA_UPEBD_KPEAU_Mbstatet@@@Z 0000000180020bfc f   libucrt:mbrtoc32.obj
 0001:0001fdd4       _controlfp_s               0000000180020dd4 f   libucrt:contrlfp.obj
 0001:0001fe38       fegetenv                   0000000180020e38 f   libucrt:fegetenv.obj
 0001:0001fe58       fesetenv                   0000000180020e58 f   libucrt:fesetenv.obj
 0001:0001fea4       feholdexcept               0000000180020ea4 f   libucrt:feholdexcept.obj
 0001:0001fef4       ceil                       0000000180020ef4 f   libucrt:ceil.obj
 0001:0001ffc0       log10                      0000000180020fc0 f   libucrt:log10.obj
 0001:0002056c       __acrt_fenv_get_common_round_control 000000018002156c f   libucrt:_fenvutils.obj
 0001:00020578       __acrt_fenv_get_control    0000000180021578 f   libucrt:_fenvutils.obj
 0001:0002066c       __acrt_fenv_get_status     000000018002166c f   libucrt:_fenvutils.obj
 0001:000206c0       __acrt_fenv_set_control    00000001800216c0 f   libucrt:_fenvutils.obj
 0001:00020808       __acrt_fenv_set_status     0000000180021808 f   libucrt:_fenvutils.obj
 0001:00020928       _lseeki64_nolock           0000000180021928 f   libucrt:lseek.obj
 0001:00020930       _fclose_nolock             0000000180021930 f   libucrt:fclose.obj
 0001:000209b4       fclose                     00000001800219b4 f   libucrt:fclose.obj
 0001:00020a18       _query_app_type            0000000180021a18 f   libucrt:report_runtime_error.obj
 0001:00020a20       __strncnt                  0000000180021a20 f   libucrt:strncnt.obj
 0001:00020a38       _putwch_nolock             0000000180021a38 f   libucrt:putwch.obj
 0001:00020a74       _clearfp                   0000000180021a74 f   libucrt:ieee.obj
 0001:00020ae4       _control87                 0000000180021ae4 f   libucrt:ieee.obj
 0001:00020ed0       _handle_error              0000000180021ed0 f   libucrt:libm_error.obj
 0001:00020ff8       _handle_nan                0000000180021ff8 f   libucrt:libm_error.obj
 0001:00021020       __acrt_initialize_fma3     0000000180022020 f   libucrt:fma3_available.obj
 0001:00021090       _log10_special             0000000180022090 f   libucrt:log_special.obj
 0001:000211bc       _close                     00000001800221bc f   libucrt:close.obj
 0001:00021260       _close_nolock              0000000180022260 f   libucrt:close.obj
 0001:00021320       ?__acrt_stdio_free_stream@@YAXV__crt_stdio_stream@@@Z 0000000180022320 f   libucrt:stream.obj
 0001:0002133c       __dcrt_lowio_ensure_console_output_initialized 000000018002233c f   libucrt:initcon.obj
 0001:00021390       __dcrt_terminate_console_output 0000000180022390 f   libucrt:initcon.obj
 0001:000213ac       __dcrt_write_console       00000001800223ac f   libucrt:initcon.obj
 0001:00021480       _get_fpsr                  0000000180022480 f   libucrt:fpsr.obj
 0001:00021490       _set_fpsr                  0000000180022490 f   libucrt:fpsr.obj
 0001:0002149a       _fclrf                     000000018002249a f   libucrt:fpsr.obj
 0001:000214ae       _frnd                      00000001800224ae f   libucrt:fpsr.obj
 0001:000214d0       _raise_exc                 00000001800224d0 f   libucrt:fpexcept.obj
 0001:000214f8       _raise_exc_ex              00000001800224f8 f   libucrt:fpexcept.obj
 0001:00021808       _set_errno_from_matherr    0000000180022808 f   libucrt:fpexcept.obj
 0001:00021838       _clrfp                     0000000180022838 f   libucrt:fpctrl.obj
 0001:00021858       _ctrlfp                    0000000180022858 f   libucrt:fpctrl.obj
 0001:000218d4       _set_statfp                00000001800228d4 f   libucrt:fpctrl.obj
 0001:000218f4       _statfp                    00000001800228f4 f   libucrt:fpctrl.obj
 0001:00021905       IsProcessorFeaturePresent  0000000180022905 f   kernel32:KERNEL32.dll
 0001:00021910       _FindPESection             0000000180022910 f   LIBCMT:pesect.obj
 0001:00021960       _IsNonwritableInCurrentImage 0000000180022960 f   LIBCMT:pesect.obj
 0001:000219b0       _ValidateImageBase         00000001800229b0 f   LIBCMT:pesect.obj
 0001:000219e0       strrchr                    00000001800229e0 f   libvcruntime:strrchr.obj
 0001:00021b20       _guard_dispatch_icall_nop  0000000180022b20 f   LIBCMT:guard_dispatch.obj
 0001:00021b40       _guard_xfg_dispatch_icall_nop 0000000180022b40 f   LIBCMT:guard_xfg_dispatch.obj
 0002:00000000       __imp_RegQueryValueExW     0000000180024000     advapi32:ADVAPI32.dll
 0002:00000008       __imp_RegSetValueExW       0000000180024008     advapi32:ADVAPI32.dll
 0002:00000010       __imp_RegQueryInfoKeyW     0000000180024010     advapi32:ADVAPI32.dll
 0002:00000018       __imp_RegOpenKeyExW        0000000180024018     advapi32:ADVAPI32.dll
 0002:00000020       __imp_RegEnumKeyExW        0000000180024020     advapi32:ADVAPI32.dll
 0002:00000028       __imp_RegDeleteValueW      0000000180024028     advapi32:ADVAPI32.dll
 0002:00000030       __imp_RegDeleteKeyW        0000000180024030     advapi32:ADVAPI32.dll
 0002:00000038       __imp_RegCreateKeyExW      0000000180024038     advapi32:ADVAPI32.dll
 0002:00000040       __imp_RegCloseKey          0000000180024040     advapi32:ADVAPI32.dll
 0002:00000048       \177ADVAPI32_NULL_THUNK_DATA 0000000180024048     advapi32:ADVAPI32.dll
 0002:00000050       __imp_GetObjectW           0000000180024050     gdi32:GDI32.dll
 0002:00000058       __imp_SelectObject         0000000180024058     gdi32:GDI32.dll
 0002:00000060       __imp_DeleteObject         0000000180024060     gdi32:GDI32.dll
 0002:00000068       __imp_CreateCompatibleDC   0000000180024068     gdi32:GDI32.dll
 0002:00000070       __imp_BitBlt               0000000180024070     gdi32:GDI32.dll
 0002:00000078       __imp_SetWindowOrgEx       0000000180024078     gdi32:GDI32.dll
 0002:00000080       __imp_SetWindowExtEx       0000000180024080     gdi32:GDI32.dll
 0002:00000088       __imp_SetViewportOrgEx     0000000180024088     gdi32:GDI32.dll
 0002:00000090       __imp_LPtoDP               0000000180024090     gdi32:GDI32.dll
 0002:00000098       __imp_SetMapMode           0000000180024098     gdi32:GDI32.dll
 0002:000000a0       __imp_SaveDC               00000001800240a0     gdi32:GDI32.dll
 0002:000000a8       __imp_RestoreDC            00000001800240a8     gdi32:GDI32.dll
 0002:000000b0       __imp_GetDeviceCaps        00000001800240b0     gdi32:GDI32.dll
 0002:000000b8       __imp_DeleteMetaFile       00000001800240b8     gdi32:GDI32.dll
 0002:000000c0       __imp_DeleteDC             00000001800240c0     gdi32:GDI32.dll
 0002:000000c8       __imp_CreateRectRgnIndirect 00000001800240c8     gdi32:GDI32.dll
 0002:000000d0       __imp_CreateMetaFileW      00000001800240d0     gdi32:GDI32.dll
 0002:000000d8       __imp_CreateDCW            00000001800240d8     gdi32:GDI32.dll
 0002:000000e0       __imp_CloseMetaFile        00000001800240e0     gdi32:GDI32.dll
 0002:000000e8       \177GDI32_NULL_THUNK_DATA  00000001800240e8     gdi32:GDI32.dll
 0002:000000f0       __imp_CloseHandle          00000001800240f0     kernel32:KERNEL32.dll
 0002:000000f8       __imp_SetEvent             00000001800240f8     kernel32:KERNEL32.dll
 0002:00000100       __imp_CreateMutexW         0000000180024100     kernel32:KERNEL32.dll
 0002:00000108       __imp_CreateEventW         0000000180024108     kernel32:KERNEL32.dll
 0002:00000110       __imp_GetCurrentProcessId  0000000180024110     kernel32:KERNEL32.dll
 0002:00000118       __imp_WriteConsoleW        0000000180024118     kernel32:KERNEL32.dll
 0002:00000120       __imp_CreateFileW          0000000180024120     kernel32:KERNEL32.dll
 0002:00000128       __imp_GetConsoleMode       0000000180024128     kernel32:KERNEL32.dll
 0002:00000130       __imp_GetConsoleOutputCP   0000000180024130     kernel32:KERNEL32.dll
 0002:00000138       __imp_WriteFile            0000000180024138     kernel32:KERNEL32.dll
 0002:00000140       __imp_FlushFileBuffers     0000000180024140     kernel32:KERNEL32.dll
 0002:00000148       __imp_SetStdHandle         0000000180024148     kernel32:KERNEL32.dll
 0002:00000150       __imp_GetStringTypeW       0000000180024150     kernel32:KERNEL32.dll
 0002:00000158       __imp_SetFilePointerEx     0000000180024158     kernel32:KERNEL32.dll
 0002:00000160       __imp_FreeEnvironmentStringsW 0000000180024160     kernel32:KERNEL32.dll
 0002:00000168       __imp_lstrcmpiW            0000000180024168     kernel32:KERNEL32.dll
 0002:00000170       __imp_GetCommandLineW      0000000180024170     kernel32:KERNEL32.dll
 0002:00000178       __imp_GetCommandLineA      0000000180024178     kernel32:KERNEL32.dll
 0002:00000180       __imp_GetCPInfo            0000000180024180     kernel32:KERNEL32.dll
 0002:00000188       __imp_GetOEMCP             0000000180024188     kernel32:KERNEL32.dll
 0002:00000190       __imp_GetACP               0000000180024190     kernel32:KERNEL32.dll
 0002:00000198       __imp_IsValidCodePage      0000000180024198     kernel32:KERNEL32.dll
 0002:000001a0       __imp_FindNextFileW        00000001800241a0     kernel32:KERNEL32.dll
 0002:000001a8       __imp_FindFirstFileExW     00000001800241a8     kernel32:KERNEL32.dll
 0002:000001b0       __imp_FindClose            00000001800241b0     kernel32:KERNEL32.dll
 0002:000001b8       __imp_GetFileType          00000001800241b8     kernel32:KERNEL32.dll
 0002:000001c0       __imp_GetStdHandle         00000001800241c0     kernel32:KERNEL32.dll
 0002:000001c8       __imp_LCMapStringW         00000001800241c8     kernel32:KERNEL32.dll
 0002:000001d0       __imp_HeapReAlloc          00000001800241d0     kernel32:KERNEL32.dll
 0002:000001d8       __imp_HeapSize             00000001800241d8     kernel32:KERNEL32.dll
 0002:000001e0       __imp_MulDiv               00000001800241e0     kernel32:KERNEL32.dll
 0002:000001e8       __imp_GlobalLock           00000001800241e8     kernel32:KERNEL32.dll
 0002:000001f0       __imp_GlobalUnlock         00000001800241f0     kernel32:KERNEL32.dll
 0002:000001f8       __imp_GlobalAlloc          00000001800241f8     kernel32:KERNEL32.dll
 0002:00000200       __imp_FindResourceW        0000000180024200     kernel32:KERNEL32.dll
 0002:00000208       __imp_SizeofResource       0000000180024208     kernel32:KERNEL32.dll
 0002:00000210       __imp_LoadResource         0000000180024210     kernel32:KERNEL32.dll
 0002:00000218       __imp_LoadLibraryExW       0000000180024218     kernel32:KERNEL32.dll
 0002:00000220       __imp_GetProcAddress       0000000180024220     kernel32:KERNEL32.dll
 0002:00000228       __imp_GetModuleHandleW     0000000180024228     kernel32:KERNEL32.dll
 0002:00000230       __imp_GetModuleFileNameW   0000000180024230     kernel32:KERNEL32.dll
 0002:00000238       __imp_FreeLibrary          0000000180024238     kernel32:KERNEL32.dll
 0002:00000240       __imp_DisableThreadLibraryCalls 0000000180024240     kernel32:KERNEL32.dll
 0002:00000248       __imp_GetCurrentThreadId   0000000180024248     kernel32:KERNEL32.dll
 0002:00000250       __imp_Sleep                0000000180024250     kernel32:KERNEL32.dll
 0002:00000258       __imp_WaitForSingleObject  0000000180024258     kernel32:KERNEL32.dll
 0002:00000260       __imp_ReleaseMutex         0000000180024260     kernel32:KERNEL32.dll
 0002:00000268       __imp_ResetEvent           0000000180024268     kernel32:KERNEL32.dll
 0002:00000270       __imp_EnterCriticalSection 0000000180024270     kernel32:KERNEL32.dll
 0002:00000278       __imp_LeaveCriticalSection 0000000180024278     kernel32:KERNEL32.dll
 0002:00000280       __imp_SetLastError         0000000180024280     kernel32:KERNEL32.dll
 0002:00000288       __imp_EncodePointer        0000000180024288     kernel32:KERNEL32.dll
 0002:00000290       __imp_DeleteCriticalSection 0000000180024290     kernel32:KERNEL32.dll
 0002:00000298       __imp_InitializeCriticalSectionEx 0000000180024298     kernel32:KERNEL32.dll
 0002:000002a0       __imp_GetLastError         00000001800242a0     kernel32:KERNEL32.dll
 0002:000002a8       __imp_RaiseException       00000001800242a8     kernel32:KERNEL32.dll
 0002:000002b0       __imp_DecodePointer        00000001800242b0     kernel32:KERNEL32.dll
 0002:000002b8       __imp_WideCharToMultiByte  00000001800242b8     kernel32:KERNEL32.dll
 0002:000002c0       __imp_GetEnvironmentStringsW 00000001800242c0     kernel32:KERNEL32.dll
 0002:000002c8       __imp_MultiByteToWideChar  00000001800242c8     kernel32:KERNEL32.dll
 0002:000002d0       __imp_GetModuleHandleExW   00000001800242d0     kernel32:KERNEL32.dll
 0002:000002d8       __imp_ExitProcess          00000001800242d8     kernel32:KERNEL32.dll
 0002:000002e0       __imp_VirtualQuery         00000001800242e0     kernel32:KERNEL32.dll
 0002:000002e8       __imp_VirtualProtect       00000001800242e8     kernel32:KERNEL32.dll
 0002:000002f0       __imp_GetSystemInfo        00000001800242f0     kernel32:KERNEL32.dll
 0002:000002f8       __imp_TlsFree              00000001800242f8     kernel32:KERNEL32.dll
 0002:00000300       __imp_TlsSetValue          0000000180024300     kernel32:KERNEL32.dll
 0002:00000308       __imp_TlsGetValue          0000000180024308     kernel32:KERNEL32.dll
 0002:00000310       __imp_TlsAlloc             0000000180024310     kernel32:KERNEL32.dll
 0002:00000318       __imp_RtlPcToFileHeader    0000000180024318     kernel32:KERNEL32.dll
 0002:00000320       __imp_InterlockedFlushSList 0000000180024320     kernel32:KERNEL32.dll
 0002:00000328       __imp_RtlUnwindEx          0000000180024328     kernel32:KERNEL32.dll
 0002:00000330       __imp_LoadLibraryExA       0000000180024330     kernel32:KERNEL32.dll
 0002:00000338       __imp_VirtualFree          0000000180024338     kernel32:KERNEL32.dll
 0002:00000340       __imp_VirtualAlloc         0000000180024340     kernel32:KERNEL32.dll
 0002:00000348       __imp_FlushInstructionCache 0000000180024348     kernel32:KERNEL32.dll
 0002:00000350       __imp_InterlockedPushEntrySList 0000000180024350     kernel32:KERNEL32.dll
 0002:00000358       __imp_InterlockedPopEntrySList 0000000180024358     kernel32:KERNEL32.dll
 0002:00000360       __imp_GetProcessHeap       0000000180024360     kernel32:KERNEL32.dll
 0002:00000368       __imp_HeapFree             0000000180024368     kernel32:KERNEL32.dll
 0002:00000370       __imp_HeapAlloc            0000000180024370     kernel32:KERNEL32.dll
 0002:00000378       __imp_OutputDebugStringW   0000000180024378     kernel32:KERNEL32.dll
 0002:00000380       __imp_InitializeSListHead  0000000180024380     kernel32:KERNEL32.dll
 0002:00000388       __imp_GetSystemTimeAsFileTime 0000000180024388     kernel32:KERNEL32.dll
 0002:00000390       __imp_QueryPerformanceCounter 0000000180024390     kernel32:KERNEL32.dll
 0002:00000398       __imp_GetStartupInfoW      0000000180024398     kernel32:KERNEL32.dll
 0002:000003a0       __imp_IsDebuggerPresent    00000001800243a0     kernel32:KERNEL32.dll
 0002:000003a8       __imp_IsProcessorFeaturePresent 00000001800243a8     kernel32:KERNEL32.dll
 0002:000003b0       __imp_TerminateProcess     00000001800243b0     kernel32:KERNEL32.dll
 0002:000003b8       __imp_GetCurrentProcess    00000001800243b8     kernel32:KERNEL32.dll
 0002:000003c0       __imp_InitializeCriticalSectionAndSpinCount 00000001800243c0     kernel32:KERNEL32.dll
 0002:000003c8       __imp_WaitForSingleObjectEx 00000001800243c8     kernel32:KERNEL32.dll
 0002:000003d0       __imp_RtlCaptureContext    00000001800243d0     kernel32:KERNEL32.dll
 0002:000003d8       __imp_RtlLookupFunctionEntry 00000001800243d8     kernel32:KERNEL32.dll
 0002:000003e0       __imp_RtlVirtualUnwind     00000001800243e0     kernel32:KERNEL32.dll
 0002:000003e8       __imp_UnhandledExceptionFilter 00000001800243e8     kernel32:KERNEL32.dll
 0002:000003f0       __imp_SetUnhandledExceptionFilter 00000001800243f0     kernel32:KERNEL32.dll
 0002:000003f8       \177KERNEL32_NULL_THUNK_DATA 00000001800243f8     kernel32:KERNEL32.dll
 0002:00000400       __imp_OleCreatePropertyFrame 0000000180024400     oleaut32:OLEAUT32.dll
 0002:00000408       __imp_UnRegisterTypeLib    0000000180024408     oleaut32:OLEAUT32.dll
 0002:00000410       __imp_RegisterTypeLib      0000000180024410     oleaut32:OLEAUT32.dll
 0002:00000418       __imp_LoadRegTypeLib       0000000180024418     oleaut32:OLEAUT32.dll
 0002:00000420       __imp_LoadTypeLib          0000000180024420     oleaut32:OLEAUT32.dll
 0002:00000428       __imp_VarUI4FromStr        0000000180024428     oleaut32:OLEAUT32.dll
 0002:00000430       __imp_VariantInit          0000000180024430     oleaut32:OLEAUT32.dll
 0002:00000438       __imp_SysAllocStringByteLen 0000000180024438     oleaut32:OLEAUT32.dll
 0002:00000440       __imp_SysStringByteLen     0000000180024440     oleaut32:OLEAUT32.dll
 0002:00000448       __imp_VariantChangeType    0000000180024448     oleaut32:OLEAUT32.dll
 0002:00000450       __imp_VariantCopyInd       0000000180024450     oleaut32:OLEAUT32.dll
 0002:00000458       __imp_VariantClear         0000000180024458     oleaut32:OLEAUT32.dll
 0002:00000460       __imp_SysStringLen         0000000180024460     oleaut32:OLEAUT32.dll
 0002:00000468       __imp_SysFreeString        0000000180024468     oleaut32:OLEAUT32.dll
 0002:00000470       __imp_SysAllocStringLen    0000000180024470     oleaut32:OLEAUT32.dll
 0002:00000478       __imp_SysAllocString       0000000180024478     oleaut32:OLEAUT32.dll
 0002:00000480       \177OLEAUT32_NULL_THUNK_DATA 0000000180024480     oleaut32:OLEAUT32.dll
 0002:00000488       __imp_UnregisterClassW     0000000180024488     user32:USER32.dll
 0002:00000490       __imp_PostMessageW         0000000180024490     user32:USER32.dll
 0002:00000498       __imp_DefWindowProcW       0000000180024498     user32:USER32.dll
 0002:000004a0       __imp_CallWindowProcW      00000001800244a0     user32:USER32.dll
 0002:000004a8       __imp_RegisterClassExW     00000001800244a8     user32:USER32.dll
 0002:000004b0       __imp_GetClassInfoExW      00000001800244b0     user32:USER32.dll
 0002:000004b8       __imp_CreateWindowExW      00000001800244b8     user32:USER32.dll
 0002:000004c0       __imp_IsWindow             00000001800244c0     user32:USER32.dll
 0002:000004c8       __imp_IsChild              00000001800244c8     user32:USER32.dll
 0002:000004d0       __imp_DestroyWindow        00000001800244d0     user32:USER32.dll
 0002:000004d8       __imp_ShowWindow           00000001800244d8     user32:USER32.dll
 0002:000004e0       __imp_SetWindowPos         00000001800244e0     user32:USER32.dll
 0002:000004e8       __imp_CharNextW            00000001800244e8     user32:USER32.dll
 0002:000004f0       __imp_SetFocus             00000001800244f0     user32:USER32.dll
 0002:000004f8       __imp_LoadBitmapW          00000001800244f8     user32:USER32.dll
 0002:00000500       __imp_RegisterClassW       0000000180024500     user32:USER32.dll
 0002:00000508       __imp_PeekMessageW         0000000180024508     user32:USER32.dll
 0002:00000510       __imp_LoadCursorW          0000000180024510     user32:USER32.dll
 0002:00000518       __imp_GetParent            0000000180024518     user32:USER32.dll
 0002:00000520       __imp_SetWindowLongPtrW    0000000180024520     user32:USER32.dll
 0002:00000528       __imp_GetWindowLongPtrW    0000000180024528     user32:USER32.dll
 0002:00000530       __imp_PtInRect             0000000180024530     user32:USER32.dll
 0002:00000538       __imp_EqualRect            0000000180024538     user32:USER32.dll
 0002:00000540       __imp_OffsetRect           0000000180024540     user32:USER32.dll
 0002:00000548       __imp_UnionRect            0000000180024548     user32:USER32.dll
 0002:00000550       __imp_IntersectRect        0000000180024550     user32:USER32.dll
 0002:00000558       __imp_GetClientRect        0000000180024558     user32:USER32.dll
 0002:00000560       __imp_InvalidateRect       0000000180024560     user32:USER32.dll
 0002:00000568       __imp_SetWindowRgn         0000000180024568     user32:USER32.dll
 0002:00000570       __imp_EndPaint             0000000180024570     user32:USER32.dll
 0002:00000578       __imp_BeginPaint           0000000180024578     user32:USER32.dll
 0002:00000580       __imp_ReleaseDC            0000000180024580     user32:USER32.dll
 0002:00000588       __imp_GetDC                0000000180024588     user32:USER32.dll
 0002:00000590       __imp_GetKeyState          0000000180024590     user32:USER32.dll
 0002:00000598       __imp_GetFocus             0000000180024598     user32:USER32.dll
 0002:000005a0       \177USER32_NULL_THUNK_DATA 00000001800245a0     user32:USER32.dll
 0002:000005a8       __imp_CoCreateInstance     00000001800245a8     ole32:ole32.dll
 0002:000005b0       __imp_StringFromGUID2      00000001800245b0     ole32:ole32.dll
 0002:000005b8       __imp_CoTaskMemAlloc       00000001800245b8     ole32:ole32.dll
 0002:000005c0       __imp_CoTaskMemFree        00000001800245c0     ole32:ole32.dll
 0002:000005c8       __imp_ReadClassStm         00000001800245c8     ole32:ole32.dll
 0002:000005d0       __imp_WriteClassStm        00000001800245d0     ole32:ole32.dll
 0002:000005d8       __imp_CreateDataAdviseHolder 00000001800245d8     ole32:ole32.dll
 0002:000005e0       __imp_OleSaveToStream      00000001800245e0     ole32:ole32.dll
 0002:000005e8       __imp_CreateOleAdviseHolder 00000001800245e8     ole32:ole32.dll
 0002:000005f0       __imp_OleRegGetUserType    00000001800245f0     ole32:ole32.dll
 0002:000005f8       __imp_OleRegGetMiscStatus  00000001800245f8     ole32:ole32.dll
 0002:00000600       __imp_OleRegEnumVerbs      0000000180024600     ole32:ole32.dll
 0002:00000608       __imp_CLSIDFromProgID      0000000180024608     ole32:ole32.dll
 0002:00000610       __imp_CoTaskMemRealloc     0000000180024610     ole32:ole32.dll
 0002:00000618       \177ole32_NULL_THUNK_DATA  0000000180024618     ole32:ole32.dll
 0002:00000620       __guard_check_icall_fptr   0000000180024620     LIBCMT:guard_support.obj
 0002:00000628       __guard_xfg_check_icall_fptr 0000000180024628     LIBCMT:guard_support.obj
 0002:00000630       __guard_dispatch_icall_fptr 0000000180024630     LIBCMT:guard_support.obj
 0002:00000638       __guard_xfg_dispatch_icall_fptr 0000000180024638     LIBCMT:guard_support.obj
 0002:00000640       __guard_xfg_table_dispatch_icall_fptr 0000000180024640     LIBCMT:guard_support.obj
 0002:00000648       __xc_a                     0000000180024648     LIBCMT:initializers.obj
 0002:00000678       __xc_z                     0000000180024678     LIBCMT:initializers.obj
 0002:00000680       __xi_a                     0000000180024680     LIBCMT:initializers.obj
 0002:00000690       __acrt_stdio_initializer   0000000180024690     libucrt:stdio_initializer.obj
 0002:00000698       __acrt_multibyte_initializer 0000000180024698     libucrt:multibyte_initializer.obj
 0002:000006a0       __acrt_tran_fma3_initializer 00000001800246a0     libucrt:fma3_initializer.obj
 0002:000006a8       __xi_z                     00000001800246a8     LIBCMT:initializers.obj
 0002:000006b0       __xl_a                     00000001800246b0     LIBCMT:tlssup.obj
 0002:000006b8       __xl_z                     00000001800246b8     LIBCMT:tlssup.obj
 0002:000006c0       __xp_a                     00000001800246c0     LIBCMT:initializers.obj
 0002:000006c8       __acrt_locale_terminator   00000001800246c8     libucrt:locale_initializer.obj
 0002:000006d0       __dcrt_console_output_terminator 00000001800246d0     libucrt:console_output_initializer.obj
 0002:000006d8       __acrt_stdio_terminator    00000001800246d8     libucrt:stdio_initializer.obj
 0002:000006e0       __xp_z                     00000001800246e0     LIBCMT:initializers.obj
 0002:000006e8       __xt_a                     00000001800246e8     LIBCMT:initializers.obj
 0002:000006f0       __xt_z                     00000001800246f0     LIBCMT:initializers.obj
 0002:00000700       ??_C@_13HADIAKP@?$AAS@     0000000180024700     OposVariant.obj
 0002:00000704       ??_C@_13LHMFKAAD@?$AAM@    0000000180024704     OposVariant.obj
 0002:00000708       ??_C@_13MKMNOPIJ@?$AAD@    0000000180024708     OposVariant.obj
 0002:0000070c       ??_C@_13OPKGLAFF@?$AAB@    000000018002470c     OposVariant.obj
 0002:00000710       ??_C@_17LLMMEOJD@?$AAV?$AAa?$AAl@ 0000000180024710     OposVariant.obj
 0002:00000718       ??_C@_1BI@JFAIJMHL@?$AAF?$AAo?$AAr?$AAc?$AAe?$AAR?$AAe?$AAm?$AAo?$AAv?$AAe@ 0000000180024718     OposVariant.obj
 0002:00000730       ??_C@_1BC@GCKHIPE@?$AAN?$AAo?$AAR?$AAe?$AAm?$AAo?$AAv?$AAe@ 0000000180024730     OposVariant.obj
 0002:00000748       ??_C@_1O@JDLOHAN@?$AAD?$AAe?$AAl?$AAe?$AAt?$AAe@ 0000000180024748     OposVariant.obj
 0002:00000758       ??_C@_11LOCGONAA@@         0000000180024758     OposVariant.obj
 0002:00000760       IID_IOPOSMSR_1_5           0000000180024760     MSR.obj
 0002:00000770       IID_IOPOSMSR_1_8           0000000180024770     MSR.obj
 0002:00000780       IID_IOPOSMSR_1_9           0000000180024780     MSR.obj
 0002:00000790       IID_IOPOSMSR_1_10          0000000180024790     MSR.obj
 0002:000007a0       IID_IOPOSMSR_1_12          00000001800247a0     MSR.obj
 0002:000007b0       IID_IOPOSMSR               00000001800247b0     MSR.obj
 0002:000007c0       LIBID_OposMSR_CCO          00000001800247c0     MSR.obj
 0002:000007d0       DIID__IOPOSMSREvents       00000001800247d0     MSR.obj
 0002:000007e0       CLSID_OPOSMSR              00000001800247e0     MSR.obj
 0002:000007f0       _GUID_00000114_0000_0000_c000_000000000046 00000001800247f0     MSR.obj
 0002:00000800       ??_C@_1BK@BIGILECK@?$AAA?$AAd?$AAv?$AAa?$AAp?$AAi?$AA3?$AA2?$AA?4?$AAd?$AAl?$AAl@ 0000000180024800     MSR.obj
 0002:00000820       ??_C@_0BI@MNCFCPFK@RegCreateKeyTransactedW@ 0000000180024820     MSR.obj
 0002:00000838       _GUID_b196b287_bab4_101a_b69c_00aa00341d07 0000000180024838     MSR.obj
 0002:00000848       _GUID_b196b285_bab4_101a_b69c_00aa00341d07 0000000180024848     MSR.obj
 0002:00000858       _GUID_a6bc3ac0_dbaa_11ce_9de3_00aa004bb851 0000000180024858     MSR.obj
 0002:00000868       _GUID_0000010c_0000_0000_c000_000000000046 0000000180024868     MSR.obj
 0002:00000878       _GUID_00000146_0000_0000_c000_000000000046 0000000180024878     MSR.obj
 0002:00000890       ?_entries@?1??_GetEntries@COPOSMSR@@SAPEBU_ATL_INTMAP_ENTRY@ATL@@XZ@4QBU34@B 0000000180024890     MSR.obj
 0002:00000b30       _GUID_922eada0_3424_11cf_b670_00aa004cd6d8 0000000180024b30     MSR.obj
 0002:00000b40       _GUID_9c2cad80_3424_11cf_b670_00aa004cd6d8 0000000180024b40     MSR.obj
 0002:00000b50       _GUID_00000119_0000_0000_c000_000000000046 0000000180024b50     MSR.obj
 0002:00000b60       _GUID_b196b289_bab4_101a_b69c_00aa00341d07 0000000180024b60     MSR.obj
 0002:00000b70       _GUID_cf51ed10_62fe_11cf_bf86_00a0c9034836 0000000180024b70     MSR.obj
 0002:00000b80       _GUID_0000010a_0000_0000_c000_000000000046 0000000180024b80     MSR.obj
 0002:00000b90       _GUID_b196b283_bab4_101a_b69c_00aa00341d07 0000000180024b90     MSR.obj
 0002:00000ba0       _GUID_cb5bdc81_93c1_11cf_8f20_00805f2cd064 0000000180024ba0     MSR.obj
 0002:00000bb0       ?pPropMap@?1??GetPropertyMap@COPOSMSR@@SAPEBUATL_PROPMAP_ENTRY@ATL@@XZ@4QBU34@B 0000000180024bb0     MSR.obj
 0002:00000c58       ??_C@_17DGDADEHL@?$AA_?$AAc?$AAx@ 0000000180024c58     MSR.obj
 0002:00000c60       ??_C@_17IOIMFDBO@?$AA_?$AAc?$AAy@ 0000000180024c60     MSR.obj
 0002:00000c68       ??_7CComModule@ATL@@6B@    0000000180024c68     MSR.obj
 0002:00000cb8       _GUID_00000117_0000_0000_c000_000000000046 0000000180024cb8     MSR.obj
 0002:00000cc8       _GUID_00000000_0000_0000_c000_000000000046 0000000180024cc8     MSR.obj
 0002:00000cd8       _GUID_00020400_0000_0000_c000_000000000046 0000000180024cd8     MSR.obj
 0002:00000ce8       ??_7?$CComObjectCached@VCComClassFactory@ATL@@@ATL@@6B@ 0000000180024ce8     MSR.obj
 0002:00000d18       ??_C@_1CE@PGFMOFKI@?$AAS?$AAt?$AAa?$AAt?$AAu?$AAs?$AAU?$AAp?$AAd?$AAa?$AAt?$AAe?$AAE?$AAv?$AAe@ 0000000180024d18     MSR.obj
 0002:00000d40       ??_C@_1BG@LODEBHDD@?$AAE?$AAr?$AAr?$AAo?$AAr?$AAE?$AAv?$AAe?$AAn?$AAt@ 0000000180024d40     MSR.obj
 0002:00000d58       ??_C@_1BM@CBGEBBBJ@?$AAD?$AAi?$AAr?$AAe?$AAc?$AAt?$AAI?$AAO?$AAE?$AAv?$AAe?$AAn?$AAt@ 0000000180024d58     MSR.obj
 0002:00000d78       ??_C@_1BE@IEBMACEM@?$AAD?$AAa?$AAt?$AAa?$AAE?$AAv?$AAe?$AAn?$AAt@ 0000000180024d78     MSR.obj
 0002:00000d90       _GUID_b196b286_bab4_101a_b69c_00aa00341d07 0000000180024d90     MSR.obj
 0002:00000da0       ??_C@_1BC@ENICKDH@?$AAC?$AAo?$AAn?$AAt?$AAe?$AAn?$AAt?$AAs@ 0000000180024da0     MSR.obj
 0002:00000db8       ??_7?$CComObject@V?$CComEnum@UIEnumConnectionPoints@@$1?_GUID_b196b285_bab4_101a_b69c_00aa00341d07@@3U__s_GUID@@BPEAUIConnectionPoint@@V?$_CopyInterface@UIConnectionPoint@@@ATL@@VCComSingleThreadModel@6@@ATL@@@ATL@@6B@ 0000000180024db8     MSR.obj
 0002:00000df8       ??_C@_1M@KANJNLFF@?$AAC?$AAL?$AAS?$AAI?$AAD@ 0000000180024df8     MSR.obj
 0002:00000e08       _GUID_0000010e_0000_0000_c000_000000000046 0000000180024e08     MSR.obj
 0002:00000e18       _GUID_b196b288_bab4_101a_b69c_00aa00341d07 0000000180024e18     MSR.obj
 0002:00000e28       ??_C@_1M@EJNEECMJ@?$AAA?$AAp?$AAp?$AAI?$AAD@ 0000000180024e28     MSR.obj
 0002:00000e40       ?rgszNeverDelete@CRegParser@ATL@@1QBQEB_WB 0000000180024e40     MSR.obj
 0002:00000ea0       _GUID_00000113_0000_0000_c000_000000000046 0000000180024ea0     MSR.obj
 0002:00000eb0       ??_7CRegObject@ATL@@6B@    0000000180024eb0     MSR.obj
 0002:00000ee0       _GUID_1c2056cc_5ef4_101b_8bc8_00aa003e3b29 0000000180024ee0     MSR.obj
 0002:00000ef0       ??_C@_1CK@OEKPKBNA@?$AAC?$AAo?$AAm?$AAp?$AAo?$AAn?$AAe?$AAn?$AAt?$AA?5?$AAC?$AAa?$AAt?$AAe?$AAg@ 0000000180024ef0     MSR.obj
 0002:00000f20       ??_C@_1BC@NKMMNMGL@?$AAF?$AAi?$AAl?$AAe?$AAT?$AAy?$AAp?$AAe@ 0000000180024f20     MSR.obj
 0002:00000f38       ??_C@_1BE@EKPAFMCP@?$AAI?$AAn?$AAt?$AAe?$AAr?$AAf?$AAa?$AAc?$AAe@ 0000000180024f38     MSR.obj
 0002:00000f50       ??_C@_1BC@MAICEHGI@?$AAH?$AAa?$AAr?$AAd?$AAw?$AAa?$AAr?$AAe@ 0000000180024f50     MSR.obj
 0002:00000f68       ??_C@_19HLLLM@?$AAM?$AAi?$AAm?$AAe@ 0000000180024f68     MSR.obj
 0002:00000f78       ??_C@_17OMAOINJK@?$AAS?$AAA?$AAM@ 0000000180024f78     MSR.obj
 0002:00000f80       ??_C@_1BC@IBECJAAI@?$AAS?$AAE?$AAC?$AAU?$AAR?$AAI?$AAT?$AAY@ 0000000180024f80     MSR.obj
 0002:00000f98       ??_C@_1O@GBFINDKL@?$AAS?$AAY?$AAS?$AAT?$AAE?$AAM@ 0000000180024f98     MSR.obj
 0002:00000fa8       ??_C@_1BC@EAHCMADO@?$AAS?$AAo?$AAf?$AAt?$AAw?$AAa?$AAr?$AAe@ 0000000180024fa8     MSR.obj
 0002:00000fc0       ??_C@_1BA@JIHHIEDE@?$AAT?$AAy?$AAp?$AAe?$AAL?$AAi?$AAb@ 0000000180024fc0     MSR.obj
 0002:00000fd0       _GUID_00000112_0000_0000_c000_000000000046 0000000180024fd0     MSR.obj
 0002:00000fe0       ?map@?1??HKeyFromString@CRegParser@ATL@@KAPEAUHKEY__@@PEA_W@Z@4QBUkeymap@?1??123@KAPEAU4@0@Z@B 0000000180024fe0     MSR.obj
 0002:000010c0       ??_C@_19NCHLBIN@?$AAH?$AAK?$AAC?$AAR@ 00000001800250c0     MSR.obj
 0002:000010d0       ??_C@_19JAPAIJDE@?$AAH?$AAK?$AAC?$AAU@ 00000001800250d0     MSR.obj
 0002:000010e0       ??_C@_19PEALEEJB@?$AAH?$AAK?$AAL?$AAM@ 00000001800250e0     MSR.obj
 0002:000010f0       ??_C@_17PJOJPMPB@?$AAH?$AAK?$AAU@ 00000001800250f0     MSR.obj
 0002:000010f8       ??_C@_19PNBHMJPL@?$AAH?$AAK?$AAP?$AAD@ 00000001800250f8     MSR.obj
 0002:00001108       ??_C@_19GFFAIJHG@?$AAH?$AAK?$AAD?$AAD@ 0000000180025108     MSR.obj
 0002:00001118       ??_C@_19OFICIBHH@?$AAH?$AAK?$AAC?$AAC@ 0000000180025118     MSR.obj
 0002:00001128       ??_C@_1CE@PACHPJFI@?$AAH?$AAK?$AAE?$AAY?$AA_?$AAC?$AAL?$AAA?$AAS?$AAS?$AAE?$AAS?$AA_?$AAR?$AAO@ 0000000180025128     MSR.obj
 0002:00001150       ??_C@_1CE@HLHNCBPM@?$AAH?$AAK?$AAE?$AAY?$AA_?$AAC?$AAU?$AAR?$AAR?$AAE?$AAN?$AAT?$AA_?$AAU?$AAS@ 0000000180025150     MSR.obj
 0002:00001178       ??_C@_1CG@GFBEANJL@?$AAH?$AAK?$AAE?$AAY?$AA_?$AAL?$AAO?$AAC?$AAA?$AAL?$AA_?$AAM?$AAA?$AAC?$AAH@ 0000000180025178     MSR.obj
 0002:000011a0       ??_C@_1BG@BGODANIO@?$AAH?$AAK?$AAE?$AAY?$AA_?$AAU?$AAS?$AAE?$AAR?$AAS@ 00000001800251a0     MSR.obj
 0002:000011b8       ??_C@_1CM@KHNNAOIC@?$AAH?$AAK?$AAE?$AAY?$AA_?$AAP?$AAE?$AAR?$AAF?$AAO?$AAR?$AAM?$AAA?$AAN?$AAC@ 00000001800251b8     MSR.obj
 0002:000011e8       _GUID_3af24292_0c96_11ce_a0cf_00aa00600ab8 00000001800251e8     MSR.obj
 0002:000011f8       ??_C@_1BM@HAGMMHIA@?$AAH?$AAK?$AAE?$AAY?$AA_?$AAD?$AAY?$AAN?$AA_?$AAD?$AAA?$AAT?$AAA@ 00000001800251f8     MSR.obj
 0002:00001218       ??_C@_1CI@BBJOACGG@?$AAH?$AAK?$AAE?$AAY?$AA_?$AAC?$AAU?$AAR?$AAR?$AAE?$AAN?$AAT?$AA_?$AAC?$AAO@ 0000000180025218     MSR.obj
 0002:00001240       _GUID_00000127_0000_0000_c000_000000000046 0000000180025240     MSR.obj
 0002:00001250       _GUID_0000010d_0000_0000_c000_000000000046 0000000180025250     MSR.obj
 0002:00001260       _GUID_00000109_0000_0000_c000_000000000046 0000000180025260     MSR.obj
 0002:00001270       _GUID_7fd52380_4e07_101b_ae2d_08002b2ec713 0000000180025270     MSR.obj
 0002:00001280       ??_C@_1EA@NHKLICFA@?$AAH?$AAK?$AAC?$AAU?$AA?$AN?$AA?6?$AA?$HL?$AA?7?$AAS?$AAo?$AAf?$AAt?$AAw?$AAa?$AAr@ 0000000180025280     MSR.obj
 0002:000012c0       ??_C@_1BE@LJOLIMEM@?$AA?$AN?$AA?6?$AA?7?$AA?$HN?$AA?$AN?$AA?6?$AA?$HN?$AA?$AN?$AA?6@ 00000001800252c0     MSR.obj
 0002:000012d8       ??_C@_1M@PPPPCDEP@?$AAA?$AAP?$AAP?$AAI?$AAD@ 00000001800252d8     MSR.obj
 0002:000012e8       ??_C@_1O@MNLDABAF@?$AAM?$AAo?$AAd?$AAu?$AAl?$AAe@ 00000001800252e8     MSR.obj
 0002:000012f8       ??_C@_1BG@JBACFMF@?$AAM?$AAo?$AAd?$AAu?$AAl?$AAe?$AA_?$AAR?$AAa?$AAw@ 00000001800252f8     MSR.obj
 0002:00001310       ??_C@_1BC@KAILKFFG@?$AAR?$AAE?$AAG?$AAI?$AAS?$AAT?$AAR?$AAY@ 0000000180025310     MSR.obj
 0002:00001328       ??_7?$CComContainedObject@VCOPOSMSR@@@ATL@@6B?$IDispatchImpl@UIOPOSMSR@@$1?IID_IOPOSMSR@@3U_GUID@@B$1?LIBID_OposMSR_CCO@@3U3@B$00$0A@VCComTypeInfoHolder@ATL@@@1@@ 0000000180025328     MSR.obj
 0002:000016f0       ??_7?$CComContainedObject@VCOPOSMSR@@@ATL@@6BCComControlBase@1@@ 00000001800256f0     MSR.obj
 0002:00001718       ??_7?$CComContainedObject@VCOPOSMSR@@@ATL@@6B?$CWindowImpl@VCOPOSMSR@@VCWindow@ATL@@V?$CWinTraits@$0FGAAAAAA@$0A@@3@@1@@ 0000000180025718     MSR.obj
 0002:00001738       ??_7?$CComContainedObject@VCOPOSMSR@@@ATL@@6B?$IPersistStreamInitImpl@VCOPOSMSR@@@1@@ 0000000180025738     MSR.obj
 0002:00001780       ??_7?$CComContainedObject@VCOPOSMSR@@@ATL@@6B?$IOleControlImpl@VCOPOSMSR@@@1@@ 0000000180025780     MSR.obj
 0002:000017b8       ??_7?$CComContainedObject@VCOPOSMSR@@@ATL@@6B?$IOleObjectImpl@VCOPOSMSR@@@1@@ 00000001800257b8     MSR.obj
 0002:00001878       ??_7?$CComContainedObject@VCOPOSMSR@@@ATL@@6B?$IOleInPlaceActiveObjectImpl@VCOPOSMSR@@@1@@ 0000000180025878     MSR.obj
 0002:000018c8       ??_7?$CComContainedObject@VCOPOSMSR@@@ATL@@6B?$IViewObjectExImpl@VCOPOSMSR@@@1@@ 00000001800258c8     MSR.obj
 0002:00001940       ??_7?$CComContainedObject@VCOPOSMSR@@@ATL@@6B?$IOleInPlaceObjectWindowlessImpl@VCOPOSMSR@@@1@@ 0000000180025940     MSR.obj
 0002:00001998       ??_7?$CComContainedObject@VCOPOSMSR@@@ATL@@6B?$IConnectionPointContainerImpl@VCOPOSMSR@@@1@@ 0000000180025998     MSR.obj
 0002:000019c0       ??_7?$CComContainedObject@VCOPOSMSR@@@ATL@@6B?$IPersistStorageImpl@VCOPOSMSR@@@1@@ 00000001800259c0     MSR.obj
 0002:00001a10       ??_7?$CComContainedObject@VCOPOSMSR@@@ATL@@6B?$ISpecifyPropertyPagesImpl@VCOPOSMSR@@@1@@ 0000000180025a10     MSR.obj
 0002:00001a30       ??_7?$CComContainedObject@VCOPOSMSR@@@ATL@@6B?$IQuickActivateImpl@VCOPOSMSR@@@1@@ 0000000180025a30     MSR.obj
 0002:00001a60       ??_7?$CComContainedObject@VCOPOSMSR@@@ATL@@6B?$IDataObjectImpl@VCOPOSMSR@@@1@@ 0000000180025a60     MSR.obj
 0002:00001ac0       ??_7?$CComContainedObject@VCOPOSMSR@@@ATL@@6B?$IProvideClassInfo2Impl@$1?CLSID_OPOSMSR@@3U_GUID@@B$1?DIID__IOPOSMSREvents@@3U2@B$1?LIBID_OposMSR_CCO@@3U2@B$00$0A@VCComTypeInfoHolder@ATL@@@1@@ 0000000180025ac0     MSR.obj
 0002:00001ae8       ??_7?$CComContainedObject@VCOPOSMSR@@@ATL@@6B?$IObjectSafetyImpl@VCOPOSMSR@@$02@1@@ 0000000180025ae8     MSR.obj
 0002:00001b18       ??_7?$CComContainedObject@VCOPOSMSR@@@ATL@@6B?$IPropertyNotifySinkCP@VCOPOSMSR@@VCComDynamicUnkArray@ATL@@@1@@ 0000000180025b18     MSR.obj
 0002:00001b58       ??_7?$CComContainedObject@VCOPOSMSR@@@ATL@@6B?$CProxy_IOPOSEvents@VCOPOSMSR@@@@@ 0000000180025b58     MSR.obj
 0002:00001b98       ??_7?$CComAggObject@VCOPOSMSR@@@ATL@@6B@ 0000000180025b98     MSR.obj
 0002:00001bb8       ??_7?$CComObject@VCOPOSMSR@@@ATL@@6B?$IDispatchImpl@UIOPOSMSR@@$1?IID_IOPOSMSR@@3U_GUID@@B$1?LIBID_OposMSR_CCO@@3U3@B$00$0A@VCComTypeInfoHolder@ATL@@@1@@ 0000000180025bb8     MSR.obj
 0002:00001f80       ??_7?$CComObject@VCOPOSMSR@@@ATL@@6BCComControlBase@1@@ 0000000180025f80     MSR.obj
 0002:00001fa8       ??_7?$CComObject@VCOPOSMSR@@@ATL@@6B?$CWindowImpl@VCOPOSMSR@@VCWindow@ATL@@V?$CWinTraits@$0FGAAAAAA@$0A@@3@@1@@ 0000000180025fa8     MSR.obj
 0002:00001fc8       ??_7?$CComObject@VCOPOSMSR@@@ATL@@6B?$IPersistStreamInitImpl@VCOPOSMSR@@@1@@ 0000000180025fc8     MSR.obj
 0002:00002010       ??_7?$CComObject@VCOPOSMSR@@@ATL@@6B?$IOleControlImpl@VCOPOSMSR@@@1@@ 0000000180026010     MSR.obj
 0002:00002048       ??_7?$CComObject@VCOPOSMSR@@@ATL@@6B?$IOleObjectImpl@VCOPOSMSR@@@1@@ 0000000180026048     MSR.obj
 0002:00002108       ??_7?$CComObject@VCOPOSMSR@@@ATL@@6B?$IOleInPlaceActiveObjectImpl@VCOPOSMSR@@@1@@ 0000000180026108     MSR.obj
 0002:00002158       ??_7?$CComObject@VCOPOSMSR@@@ATL@@6B?$IViewObjectExImpl@VCOPOSMSR@@@1@@ 0000000180026158     MSR.obj
 0002:000021d0       ??_7?$CComObject@VCOPOSMSR@@@ATL@@6B?$IOleInPlaceObjectWindowlessImpl@VCOPOSMSR@@@1@@ 00000001800261d0     MSR.obj
 0002:00002228       ??_7?$CComObject@VCOPOSMSR@@@ATL@@6B?$IConnectionPointContainerImpl@VCOPOSMSR@@@1@@ 0000000180026228     MSR.obj
 0002:00002250       ??_7?$CComObject@VCOPOSMSR@@@ATL@@6B?$IPersistStorageImpl@VCOPOSMSR@@@1@@ 0000000180026250     MSR.obj
 0002:000022a0       ??_7?$CComObject@VCOPOSMSR@@@ATL@@6B?$ISpecifyPropertyPagesImpl@VCOPOSMSR@@@1@@ 00000001800262a0     MSR.obj
 0002:000022c0       ??_7?$CComObject@VCOPOSMSR@@@ATL@@6B?$IQuickActivateImpl@VCOPOSMSR@@@1@@ 00000001800262c0     MSR.obj
 0002:000022f0       ??_7?$CComObject@VCOPOSMSR@@@ATL@@6B?$IDataObjectImpl@VCOPOSMSR@@@1@@ 00000001800262f0     MSR.obj
 0002:00002350       ??_7?$CComObject@VCOPOSMSR@@@ATL@@6B?$IProvideClassInfo2Impl@$1?CLSID_OPOSMSR@@3U_GUID@@B$1?DIID__IOPOSMSREvents@@3U2@B$1?LIBID_OposMSR_CCO@@3U2@B$00$0A@VCComTypeInfoHolder@ATL@@@1@@ 0000000180026350     MSR.obj
 0002:00002378       ??_7?$CComObject@VCOPOSMSR@@@ATL@@6B?$IObjectSafetyImpl@VCOPOSMSR@@$02@1@@ 0000000180026378     MSR.obj
 0002:000023a8       ??_7?$CComObject@VCOPOSMSR@@@ATL@@6B?$IPropertyNotifySinkCP@VCOPOSMSR@@VCComDynamicUnkArray@ATL@@@1@@ 00000001800263a8     MSR.obj
 0002:000023e8       ??_7?$CComObject@VCOPOSMSR@@@ATL@@6B?$CProxy_IOPOSEvents@VCOPOSMSR@@@@@ 00000001800263e8     MSR.obj
 0002:00002428       ??_C@_1O@GBFKGNEO@?$AAA?$AAT?$AAL?$AA?3?$AA?$CF?$AAp@ 0000000180026428     MSR.obj
 0002:00002438       ??_C@_1BA@PICGEGJB@?$AAD?$AAI?$AAS?$AAP?$AAL?$AAA?$AAY@ 0000000180026438     MSR.obj
 0002:00002448       _GUID_9bfbbc02_eff1_101a_84ed_00aa00341d07 0000000180026448     MSR.obj
 0002:00002458       _GUID_b196b284_bab4_101a_b69c_00aa00341d07 0000000180026458     MSR.obj
 0002:00002468       ?_entries@?1??_GetEntries@?$CComEnum@UIEnumConnectionPoints@@$1?_GUID_b196b285_bab4_101a_b69c_00aa00341d07@@3U__s_GUID@@BPEAUIConnectionPoint@@V?$_CopyInterface@UIConnectionPoint@@@ATL@@VCComSingleThreadModel@6@@ATL@@SAPEBU_ATL_INTMAP_ENTRY@3@XZ@4QBU43@B 0000000180026468     MSR.obj
 0002:00002498       _GUID_00020412_0000_0000_c000_000000000046 0000000180026498     MSR.obj
 0002:000024a8       _GUID_00020401_0000_0000_c000_000000000046 00000001800264a8     MSR.obj
 0002:000024b8       _GUID_55980ba0_35aa_11cf_b671_00aa004cd6d8 00000001800264b8     MSR.obj
 0002:000024c8       _GUID_b196b28b_bab4_101a_b69c_00aa00341d07 00000001800264c8     MSR.obj
 0002:000024d8       ??_7?$CComObject@V?$CComEnum@UIEnumConnections@@$1?_GUID_b196b287_bab4_101a_b69c_00aa00341d07@@3U__s_GUID@@BUtagCONNECTDATA@@V?$_Copy@UtagCONNECTDATA@@@ATL@@VCComSingleThreadModel@6@@ATL@@@ATL@@6B@ 00000001800264d8     MSR.obj
 0002:00002518       ?_entries@?1??_GetEntries@?$CComEnum@UIEnumConnections@@$1?_GUID_b196b287_bab4_101a_b69c_00aa00341d07@@3U__s_GUID@@BUtagCONNECTDATA@@V?$_Copy@UtagCONNECTDATA@@@ATL@@VCComSingleThreadModel@6@@ATL@@SAPEBU_ATL_INTMAP_ENTRY@3@XZ@4QBU43@B 0000000180026518     MSR.obj
 0002:00002548       ??_7CComClassFactory@ATL@@6B@ 0000000180026548     MSR.obj
 0002:00002578       ?_entries@?1??_GetEntries@CComClassFactory@ATL@@SAPEBU_ATL_INTMAP_ENTRY@3@XZ@4QBU43@B 0000000180026578     MSR.obj
 0002:000025a8       _GUID_00000001_0000_0000_c000_000000000046 00000001800265a8     MSR.obj
 0002:000025b8       ??_C@_0BG@EKFFMJIO@RegOpenKeyTransactedW@ 00000001800265b8     MSR.obj
 0002:000025d0       ??_C@_0BI@HAKLOOGP@RegDeleteKeyTransactedW@ 00000001800265d0     MSR.obj
 0002:000025e8       ??_C@_0BA@LILAPHGE@RegDeleteKeyExW@ 00000001800265e8     MSR.obj
 0002:000025f8       ??_C@_19ILOCMLCJ@?$AA?4?$AAt?$AAl?$AAb@ 00000001800265f8     MSR.obj
 0002:00002608       _GUID_0002e012_0000_0000_c000_000000000046 0000000180026608     MSR.obj
 0002:00002618       ??_C@_1O@FHBGLCIO@?$AAC?$AAL?$AAS?$AAI?$AAD?$AA?2@ 0000000180026618     MSR.obj
 0002:00002628       ??_C@_1CK@IFBKBFAA@?$AA?2?$AAR?$AAe?$AAq?$AAu?$AAi?$AAr?$AAe?$AAd?$AA?5?$AAC?$AAa?$AAt?$AAe?$AAg@ 0000000180026628     MSR.obj
 0002:00002658       ??_C@_1DA@BIHALFED@?$AA?2?$AAI?$AAm?$AAp?$AAl?$AAe?$AAm?$AAe?$AAn?$AAt?$AAe?$AAd?$AA?5?$AAC?$AAa@ 0000000180026658     MSR.obj
 0002:00002688       ??_C@_1BK@EDKOLFBJ@?$AAO?$AAL?$AAE?$AAA?$AAU?$AAT?$AA3?$AA2?$AA?4?$AAD?$AAL?$AAL@ 0000000180026688     MSR.obj
 0002:000026a8       ??_C@_0BJ@CNLFOMHB@UnRegisterTypeLibForUser@ 00000001800266a8     MSR.obj
 0002:000026c8       ??_C@_0BH@LBOMMKPJ@RegisterTypeLibForUser@ 00000001800266c8     MSR.obj
 0002:000026e0       ??_C@_0P@MMNMMLGK@COFreezeEvents@ 00000001800266e0     MSRImpl.obj
 0002:000026f0       ??_C@_0BC@OGCGGIMP@GetPropertyNumber@ 00000001800266f0     MSRImpl.obj
 0002:00002708       ??_C@_0BC@MDCNODNB@SetPropertyNumber@ 0000000180026708     MSRImpl.obj
 0002:00002720       ??_C@_0BC@CFCCMIMD@GetPropertyString@ 0000000180026720     MSRImpl.obj
 0002:00002738       ??_C@_0BC@CJEDNN@SetPropertyString@ 0000000180026738     MSRImpl.obj
 0002:00002750       ??_C@_0M@LNPKKKDA@OpenService@ 0000000180026750     MSRImpl.obj
 0002:00002760       ??_C@_0M@PCMCHHMH@CheckHealth@ 0000000180026760     MSRImpl.obj
 0002:00002770       ??_C@_0M@JGMIDNEK@ClaimDevice@ 0000000180026770     MSRImpl.obj
 0002:00002780       ??_C@_0L@BNEIFEJC@ClearInput@ 0000000180026780     MSRImpl.obj
 0002:00002790       ??_C@_0N@DDFIIBMP@CloseService@ 0000000180026790     MSRImpl.obj
 0002:000027a0       ??_C@_08EEIHICPC@DirectIO@ 00000001800267a0     MSRImpl.obj
 0002:000027b0       ??_C@_0O@BCPMENMJ@ReleaseDevice@ 00000001800267b0     MSRImpl.obj
 0002:000027c0       ??_C@_0BA@GFABKEEE@ResetStatistics@ 00000001800267c0     MSRImpl.obj
 0002:000027d0       ??_C@_0BD@DPALHJGC@RetrieveStatistics@ 00000001800267d0     MSRImpl.obj
 0002:000027e8       ??_C@_0BB@KOHIKNFC@UpdateStatistics@ 00000001800267e8     MSRImpl.obj
 0002:00002800       ??_C@_0BH@PBKBNMGB@CompareFirmwareVersion@ 0000000180026800     MSRImpl.obj
 0002:00002818       ??_C@_0P@FBPDPIPA@UpdateFirmware@ 0000000180026818     MSRImpl.obj
 0002:00002828       ??_C@_0BF@CMAPCJGM@ClearInputProperties@ 0000000180026828     MSRImpl.obj
 0002:00002840       ??_C@_0M@COBABLBH@WriteTracks@ 0000000180026840     MSRImpl.obj
 0002:00002850       ??_C@_0BD@HOKFBOPO@AuthenticateDevice@ 0000000180026850     MSRImpl.obj
 0002:00002868       ??_C@_0BF@CBLLANEG@DeauthenticateDevice@ 0000000180026868     MSRImpl.obj
 0002:00002880       ??_C@_0BF@NLNFJNCE@RetrieveCardProperty@ 0000000180026880     MSRImpl.obj
 0002:00002898       ??_C@_0CB@OLJBDIAM@RetrieveDeviceAuthenticationDat@ 0000000180026898     MSRImpl.obj
 0002:000028c0       ??_C@_09PHBOFDOC@UpdateKey@ 00000001800268c0     MSRImpl.obj
 0002:000028d0       ??_7?$CProxy_IOPOSEvents@VCOPOSMSR@@@@6B@ 00000001800268d0     MSRImpl.obj
 0002:00002910       ??_C@_1BA@IFHENID@?$AA?$FL?$AAE?$AAr?$AAr?$AAo?$AAr?$AA?$FN@ 0000000180026910     MSRImpl.obj
 0002:00002920       ??_C@_0CG@PBLEKEDP@SOFTWARE?2OLEforRetail?2ServiceOP@ 0000000180026920     MSRImpl.obj
 0002:00002948       ??_C@_1M@IAIJHCCH@?$AAC?$AAl?$AAo?$AAs?$AAe@ 0000000180026948     MSRImpl.obj
 0002:00002958       ??_C@_1M@PCPKGJAH@?$AAC?$AAl?$AAa?$AAi?$AAm@ 0000000180026958     MSRImpl.obj
 0002:00002968       ??_C@_1BA@NDFKIOCP@?$AAR?$AAe?$AAl?$AAe?$AAa?$AAs?$AAe@ 0000000180026968     MSRImpl.obj
 0002:00002978       ??_C@_03FBLCAPDM@MSR@      0000000180026978     MSRImpl.obj
 0002:00002980       ??_C@_1BM@IJMNMBPK@?$AAG?$AAe?$AAt?$AAO?$AAp?$AAe?$AAn?$AAR?$AAe?$AAs?$AAu?$AAl?$AAt@ 0000000180026980     MSRImpl.obj
 0002:000029a0       IID_IDispatch              00000001800269a0     uuid:oaidl_i.obj
 0002:000029b0       IID_IPropertyNotifySink    00000001800269b0     uuid:ocidl_i.obj
 0002:000029c0       GUID_NULL                  00000001800269c0     uuid:cguid_i.obj
 0002:000029d0       CLSID_StdGlobalInterfaceTable 00000001800269d0     uuid:cguid_i.obj
 0002:000029e0       CLSID_StdComponentCategoriesMgr 00000001800269e0     uuid:ieguids.obj
 0002:000029f0       IID_IUnknown               00000001800269f0     uuid:unknwn_i.obj
 0002:00002a00       __xmm@ffffffffffffffffffffffffffffffff 0000000180026a00     LIBCMT:utility.obj
 0002:00002a10       ??_C@_1EC@JIJBPKFM@?$AAa?$AAp?$AAi?$AA?9?$AAm?$AAs?$AA?9?$AAw?$AAi?$AAn?$AA?9?$AAc?$AAo?$AAr?$AAe@ 0000000180026a10     LIBCMT:thread_safe_statics.obj
 0002:00002a58       ??_C@_1BK@MGMFAEKH@?$AAk?$AAe?$AAr?$AAn?$AAe?$AAl?$AA3?$AA2?$AA?4?$AAd?$AAl?$AAl@ 0000000180026a58     LIBCMT:thread_safe_statics.obj
 0002:00002a78       ??_C@_0BJ@JEBJOJFJ@SleepConditionVariableCS@ 0000000180026a78     LIBCMT:thread_safe_statics.obj
 0002:00002a98       ??_C@_0BJ@PGPPEPCC@WakeAllConditionVariable@ 0000000180026a98     LIBCMT:thread_safe_statics.obj
 0002:00002ab1       ?nothrow@std@@3Unothrow_t@1@B 0000000180026ab1     LIBCMT:std_nothrow.obj
 0002:00002ac8       _pDefaultRawDllMain        0000000180026ac8     LIBCMT:dll_dllmain.obj
 0002:00002ac8       _pRawDllMain               0000000180026ac8     LIBCMT:dll_dllmain.obj
 0002:00002ad8       ??_7exception@std@@6B@     0000000180026ad8     LIBCMT:throw_bad_alloc.obj
 0002:00002ae8       ??_C@_0BC@EOODALEL@Unknown?5exception@ 0000000180026ae8     LIBCMT:throw_bad_alloc.obj
 0002:00002b08       ??_7bad_alloc@std@@6B@     0000000180026b08     LIBCMT:throw_bad_alloc.obj
 0002:00002b18       ??_C@_0P@GHFPNOJB@bad?5allocation@ 0000000180026b18     LIBCMT:throw_bad_alloc.obj
 0002:00002b30       ??_7bad_array_new_length@std@@6B@ 0000000180026b30     LIBCMT:throw_bad_alloc.obj
 0002:00002b40       ??_C@_0BF@KINCDENJ@bad?5array?5new?5length@ 0000000180026b40     LIBCMT:throw_bad_alloc.obj
 0002:00002b60       ??_7type_info@@6B@         0000000180026b60     LIBCMT:std_type_info_static.obj
 0002:00002b68       GUID_ATLVer110             0000000180026b68     atls:atlbase.obj
 0002:00002b80       ??_C@_1IC@ONKHOIDK@?$AAE?$AAR?$AAR?$AAO?$AAR?$AA?5?$AA?3?$AA?5?$AAU?$AAn?$AAa?$AAb?$AAl?$AAe?$AA?5@ 0000000180026b80     atls:atlbase.obj
 0002:00002c08       ??_C@_0N@FJEPLCIH@atlthunk?4dll@ 0000000180026c08     atls:atlthunk.obj
 0002:00002c18       ??_C@_0BG@GAKFHCBM@AtlThunk_AllocateData@ 0000000180026c18     atls:atlthunk.obj
 0002:00002c30       ??_C@_0BC@JKONFIAH@AtlThunk_InitData@ 0000000180026c30     atls:atlthunk.obj
 0002:00002c48       ??_C@_0BE@IAOEELAK@AtlThunk_DataToCode@ 0000000180026c48     atls:atlthunk.obj
 0002:00002c60       ??_C@_0BC@GBGKAIPI@AtlThunk_FreeData@ 0000000180026c60     atls:atlthunk.obj
 0002:00002c78       ?s_negLengthTab@FH4@@3QBCB 0000000180026c78     libvcruntime:risctrnsctrl.obj
 0002:00002c88       ?s_shiftTab@FH4@@3QBEB     0000000180026c88     libvcruntime:risctrnsctrl.obj
 0002:00002d38       _pDestructExceptionObject  0000000180026d38     libvcruntime:ehhelpers.obj
 0002:00002d48       ??_7bad_exception@std@@6B@ 0000000180026d48     libvcruntime:frame.obj
 0002:00002d58       ??_C@_0O@DPKOEFFH@bad?5exception@ 0000000180026d58     libvcruntime:frame.obj
 0002:00003470       ??_C@_08EHJDFFNH@__based?$CI@ 0000000180027470     libvcruntime:undname.obj
 0002:00003480       ??_C@_07KOLFKCDI@__cdecl@  0000000180027480     libvcruntime:undname.obj
 0002:00003488       ??_C@_08GHMPAG@__pascal@   0000000180027488     libvcruntime:undname.obj
 0002:00003498       ??_C@_09IFJBGAPI@__stdcall@ 0000000180027498     libvcruntime:undname.obj
 0002:000034a8       ??_C@_0L@NPHFGOKO@__thiscall@ 00000001800274a8     libvcruntime:undname.obj
 0002:000034b8       ??_C@_0L@JMKHOMEK@__fastcall@ 00000001800274b8     libvcruntime:undname.obj
 0002:000034c8       ??_C@_0N@BCKKPABJ@__vectorcall@ 00000001800274c8     libvcruntime:undname.obj
 0002:000034d8       ??_C@_09HIJEGCPM@__clrcall@ 00000001800274d8     libvcruntime:undname.obj
 0002:000034e4       ??_C@_06GHPCKEAG@__eabi@   00000001800274e4     libvcruntime:undname.obj
 0002:000034f0       ??_C@_09IOPIDJLG@__swift_1@ 00000001800274f0     libvcruntime:undname.obj
 0002:00003500       ??_C@_09KFNFGKHF@__swift_2@ 0000000180027500     libvcruntime:undname.obj
 0002:00003510       ??_C@_07JOMMBBKO@__ptr64@  0000000180027510     libvcruntime:undname.obj
 0002:00003518       ??_C@_0L@PILCLIHE@__restrict@ 0000000180027518     libvcruntime:undname.obj
 0002:00003528       ??_C@_0M@GFIIJFMG@__unaligned@ 0000000180027528     libvcruntime:undname.obj
 0002:00003538       ??_C@_09DHDLOLLB@restrict?$CI@ 0000000180027538     libvcruntime:undname.obj
 0002:00003542       ??_C@_00CNPNBAHC@@         0000000180027542     libvcruntime:undname.obj
 0002:00003544       ??_C@_04NIHEBCM@?5new@     0000000180027544     libvcruntime:undname.obj
 0002:00003550       ??_C@_07FPCDHGMM@?5delete@ 0000000180027550     libvcruntime:undname.obj
 0002:00003558       ??_C@_01NEMOKFLO@?$DN@     0000000180027558     libvcruntime:undname.obj
 0002:0000355c       ??_C@_02GPIOPFAK@?$DO?$DO@ 000000018002755c     libvcruntime:undname.obj
 0002:00003560       ??_C@_02FODMEDOG@?$DM?$DM@ 0000000180027560     libvcruntime:undname.obj
 0002:00003564       ??_C@_01DCLJPIOD@?$CB@     0000000180027564     libvcruntime:undname.obj
 0002:00003568       ??_C@_02EGOFBIJA@?$DN?$DN@ 0000000180027568     libvcruntime:undname.obj
 0002:0000356c       ??_C@_02FDNJECIE@?$CB?$DN@ 000000018002756c     libvcruntime:undname.obj
 0002:00003570       ??_C@_02GPECMEKF@?$FL?$FN@ 0000000180027570     libvcruntime:undname.obj
 0002:00003578       ??_C@_08LHJFAFGD@operator@ 0000000180027578     libvcruntime:undname.obj
 0002:00003584       ??_C@_02HBOOOICD@?9?$DO@   0000000180027584     libvcruntime:undname.obj
 0002:00003588       ??_C@_01NBENCBCI@?$CK@     0000000180027588     libvcruntime:undname.obj
 0002:0000358c       ??_C@_02ECNGHCIF@?$CL?$CL@ 000000018002758c     libvcruntime:undname.obj
 0002:00003590       ??_C@_02BAABKJLB@?9?9@     0000000180027590     libvcruntime:undname.obj
 0002:00003594       ??_C@_01JOAMLHOP@?9@       0000000180027594     libvcruntime:undname.obj
 0002:00003598       ??_C@_01MIFGBAGJ@?$CL@     0000000180027598     libvcruntime:undname.obj
 0002:0000359c       ??_C@_01HNPIGOCE@?$CG@     000000018002759c     libvcruntime:undname.obj
 0002:000035a0       ??_C@_03MNHNFDLC@?9?$DO?$CK@ 00000001800275a0     libvcruntime:undname.obj
 0002:000035a4       ??_C@_01KMDKNFGN@?1@       00000001800275a4     libvcruntime:undname.obj
 0002:000035a8       ??_C@_01FGNFDNOH@?$CF@     00000001800275a8     libvcruntime:undname.obj
 0002:000035ac       ??_C@_01MNNFJEPP@?$DM@     00000001800275ac     libvcruntime:undname.obj
 0002:000035b0       ??_C@_02EHCHHCKH@?$DM?$DN@ 00000001800275b0     libvcruntime:undname.obj
 0002:000035b4       ??_C@_01PPODPGHN@?$DO@     00000001800275b4     libvcruntime:undname.obj
 0002:000035b8       ??_C@_02EEKDKGMJ@?$DO?$DN@ 00000001800275b8     libvcruntime:undname.obj
 0002:000035bc       ??_C@_01IHBHIGKO@?0@       00000001800275bc     libvcruntime:undname.obj
 0002:000035c0       ??_C@_02HCKGKOFO@?$CI?$CJ@ 00000001800275c0     libvcruntime:undname.obj
 0002:000035c4       ??_C@_01PJKLJHI@?$HO@      00000001800275c4     libvcruntime:undname.obj
 0002:000035c8       ??_C@_01JKBOJNNK@?$FO@     00000001800275c8     libvcruntime:undname.obj
 0002:000035cc       ??_C@_01DNKMNLPK@?$HM@     00000001800275cc     libvcruntime:undname.obj
 0002:000035d0       ??_C@_02PPKAJPJL@?$CG?$CG@ 00000001800275d0     libvcruntime:undname.obj
 0002:000035d4       ??_C@_02NONPIBCD@?$HM?$HM@ 00000001800275d4     libvcruntime:undname.obj
 0002:000035d8       ??_C@_02FPIMKNGF@?$CK?$DN@ 00000001800275d8     libvcruntime:undname.obj
 0002:000035dc       ??_C@_02FOEOMHFC@?$CL?$DN@ 00000001800275dc     libvcruntime:undname.obj
 0002:000035e0       ??_C@_02FKMDLLOA@?9?$DN@   00000001800275e0     libvcruntime:undname.obj
 0002:000035e4       ??_C@_02FJEHGPIO@?1?$DN@   00000001800275e4     libvcruntime:undname.obj
 0002:000035e8       ??_C@_02FENAOKFI@?$CF?$DN@ 00000001800275e8     libvcruntime:undname.obj
 0002:000035ec       ??_C@_03IKFCCPFF@?$DO?$DO?$DN@ 00000001800275ec     libvcruntime:undname.obj
 0002:000035f0       ??_C@_03CDNPDDLA@?$DM?$DM?$DN@ 00000001800275f0     libvcruntime:undname.obj
 0002:000035f4       ??_C@_02FGJGFEAB@?$CG?$DN@ 00000001800275f4     libvcruntime:undname.obj
 0002:000035f8       ??_C@_02DHLNPPGH@?$HM?$DN@ 00000001800275f8     libvcruntime:undname.obj
 0002:000035fc       ??_C@_02MHEGNOJ@?$FO?$DN@  00000001800275fc     libvcruntime:undname.obj
 0002:00003600       ??_C@_09IFPLHPGF@?$GAvftable?8@ 0000000180027600     libvcruntime:undname.obj
 0002:00003610       ??_C@_09BLBHBJP@?$GAvbtable?8@ 0000000180027610     libvcruntime:undname.obj
 0002:00003620       ??_C@_07FEEIOKP@?$GAvcall?8@ 0000000180027620     libvcruntime:undname.obj
 0002:00003628       ??_C@_08LLFFHHDJ@?$GAtypeof?8@ 0000000180027628     libvcruntime:undname.obj
 0002:00003638       ??_C@_0BF@KDPPACIK@?$GAlocal?5static?5guard?8@ 0000000180027638     libvcruntime:undname.obj
 0002:00003650       ??_C@_08OBABFOLI@?$GAstring?8@ 0000000180027650     libvcruntime:undname.obj
 0002:00003660       ??_C@_0BD@JDLKDPAB@?$GAvbase?5destructor?8@ 0000000180027660     libvcruntime:undname.obj
 0002:00003678       ??_C@_0BN@DEGPLNFK@?$GAvector?5deleting?5destructor?8@ 0000000180027678     libvcruntime:undname.obj
 0002:00003698       ??_C@_0BO@OBMKPJIG@?$GAdefault?5constructor?5closure?8@ 0000000180027698     libvcruntime:undname.obj
 0002:000036b8       ??_C@_0BN@IMDCHIKM@?$GAscalar?5deleting?5destructor?8@ 00000001800276b8     libvcruntime:undname.obj
 0002:000036d8       ??_C@_0BO@PFGOCPJJ@?$GAvector?5constructor?5iterator?8@ 00000001800276d8     libvcruntime:undname.obj
 0002:000036f8       ??_C@_0BN@LFPFMEDL@?$GAvector?5destructor?5iterator?8@ 00000001800276f8     libvcruntime:undname.obj
 0002:00003718       ??_C@_0CE@IKBNEHA@?$GAvector?5vbase?5constructor?5itera@ 0000000180027718     libvcruntime:undname.obj
 0002:00003740       ??_C@_0BL@NILFHHPC@?$GAvirtual?5displacement?5map?8@ 0000000180027740     libvcruntime:undname.obj
 0002:00003760       ??_C@_0CB@JONCMFFK@?$GAeh?5vector?5constructor?5iterator@ 0000000180027760     libvcruntime:undname.obj
 0002:00003788       ??_C@_0CA@GCEOPDGL@?$GAeh?5vector?5destructor?5iterator?8@ 0000000180027788     libvcruntime:undname.obj
 0002:000037a8       ??_C@_0CH@OOJPLCPH@?$GAeh?5vector?5vbase?5constructor?5it@ 00000001800277a8     libvcruntime:undname.obj
 0002:000037d0       ??_C@_0BL@LLKPOHJI@?$GAcopy?5constructor?5closure?8@ 00000001800277d0     libvcruntime:undname.obj
 0002:000037f0       ??_C@_0BA@KBCDOMBN@?$GAudt?5returning?8@ 00000001800277f0     libvcruntime:undname.obj
 0002:00003800       ??_C@_03KLGMFNMG@?$GAEH@   0000000180027800     libvcruntime:undname.obj
 0002:00003804       ??_C@_05KHLCHHI@?$GARTTI@  0000000180027804     libvcruntime:undname.obj
 0002:00003810       ??_C@_0BA@KKLDJDLB@?$GAlocal?5vftable?8@ 0000000180027810     libvcruntime:undname.obj
 0002:00003820       ??_C@_0CE@IIHCMGGL@?$GAlocal?5vftable?5constructor?5clos@ 0000000180027820     libvcruntime:undname.obj
 0002:00003844       ??_C@_06FHBGPFGH@?5new?$FL?$FN@ 0000000180027844     libvcruntime:undname.obj
 0002:00003850       ??_C@_09LBNFPBCA@?5delete?$FL?$FN@ 0000000180027850     libvcruntime:undname.obj
 0002:00003860       ??_C@_0P@HJKNJFNN@?$GAomni?5callsig?8@ 0000000180027860     libvcruntime:undname.obj
 0002:00003870       ??_C@_0BL@CNOONJFP@?$GAplacement?5delete?5closure?8@ 0000000180027870     libvcruntime:undname.obj
 0002:00003890       ??_C@_0BN@CKNJLHMB@?$GAplacement?5delete?$FL?$FN?5closure?8@ 0000000180027890     libvcruntime:undname.obj
 0002:000038b0       ??_C@_0CG@CFDHKGGD@?$GAmanaged?5vector?5constructor?5ite@ 00000001800278b0     libvcruntime:undname.obj
 0002:000038d8       ??_C@_0CF@IMGKMJNO@?$GAmanaged?5vector?5destructor?5iter@ 00000001800278d8     libvcruntime:undname.obj
 0002:00003900       ??_C@_0CG@HLDDJMAG@?$GAeh?5vector?5copy?5constructor?5ite@ 0000000180027900     libvcruntime:undname.obj
 0002:00003928       ??_C@_0CM@FCBBDIGB@?$GAeh?5vector?5vbase?5copy?5construct@ 0000000180027928     libvcruntime:undname.obj
 0002:00003958       ??_C@_0BL@CLIPGLGB@?$GAdynamic?5initializer?5for?5?8@ 0000000180027958     libvcruntime:undname.obj
 0002:00003978       ??_C@_0CB@PDBIFEP@?$GAdynamic?5atexit?5destructor?5for?5@ 0000000180027978     libvcruntime:undname.obj
 0002:000039a0       ??_C@_0CD@CGAJBKEJ@?$GAvector?5copy?5constructor?5iterat@ 00000001800279a0     libvcruntime:undname.obj
 0002:000039c8       ??_C@_0CJ@GJELGAMM@?$GAvector?5vbase?5copy?5constructor?5@ 00000001800279c8     libvcruntime:undname.obj
 0002:000039f8       ??_C@_0CL@FGIJHLCE@?$GAmanaged?5vector?5copy?5constructo@ 00000001800279f8     libvcruntime:undname.obj
 0002:00003a28       ??_C@_0BM@PMGGMLDN@?$GAlocal?5static?5thread?5guard?8@ 0000000180027a28     libvcruntime:undname.obj
 0002:00003a48       ??_C@_0N@BDNMDMOL@operator?5?$CC?$CC?5@ 0000000180027a48     libvcruntime:undname.obj
 0002:00003a58       ??_C@_0BC@GGEBGALA@operator?5co_await@ 0000000180027a58     libvcruntime:undname.obj
 0002:00003a70       ??_C@_0M@GAAIMMOH@operator?$DM?$DN?$DO@ 0000000180027a70     libvcruntime:undname.obj
 0002:00003a80       ??_C@_0BC@DAFEJGAK@?5Type?5Descriptor?8@ 0000000180027a80     libvcruntime:undname.obj
 0002:00003a98       ??_C@_0BM@LDKODKLH@?5Base?5Class?5Descriptor?5at?5?$CI@ 0000000180027a98     libvcruntime:undname.obj
 0002:00003ab8       ??_C@_0BD@LGICGFMM@?5Base?5Class?5Array?8@ 0000000180027ab8     libvcruntime:undname.obj
 0002:00003ad0       ??_C@_0BN@MECKDCOJ@?5Class?5Hierarchy?5Descriptor?8@ 0000000180027ad0     libvcruntime:undname.obj
 0002:00003af0       ??_C@_0BK@CFCOFLF@?5Complete?5Object?5Locator?8@ 0000000180027af0     libvcruntime:undname.obj
 0002:00003b10       ??_C@_0BG@JNJLAMPM@?$GAanonymous?5namespace?8@ 0000000180027b10     libvcruntime:undname.obj
 0002:00003b40       ??_C@_1DM@KHCHBNEB@?$AAa?$AAp?$AAi?$AA?9?$AAm?$AAs?$AA?9?$AAw?$AAi?$AAn?$AA?9?$AAc?$AAo?$AAr?$AAe@ 0000000180027b40     libvcruntime:winapi_downlevel.obj
 0002:00003b80       ??_C@_1DK@LPPGFMPP@?$AAa?$AAp?$AAi?$AA?9?$AAm?$AAs?$AA?9?$AAw?$AAi?$AAn?$AA?9?$AAc?$AAo?$AAr?$AAe@ 0000000180027b80     libvcruntime:winapi_downlevel.obj
 0002:00003bc0       ??_C@_1BC@GDMECMAK@?$AAk?$AAe?$AAr?$AAn?$AAe?$AAl?$AA3?$AA2@ 0000000180027bc0     libvcruntime:winapi_downlevel.obj
 0002:00003bd8       ??_C@_1BA@PFFKHIOG@?$AAa?$AAp?$AAi?$AA?9?$AAm?$AAs?$AA?9@ 0000000180027bd8     libvcruntime:winapi_downlevel.obj
 0002:00003bf0       ??_C@_08KNHFBNJ@FlsAlloc@  0000000180027bf0     libvcruntime:winapi_downlevel.obj
 0002:00003c08       ??_C@_07PEJMOBNF@FlsFree@  0000000180027c08     libvcruntime:winapi_downlevel.obj
 0002:00003c18       ??_C@_0M@GDNOONDI@FlsGetValue@ 0000000180027c18     libvcruntime:winapi_downlevel.obj
 0002:00003c30       ??_C@_0M@JCPCPOEF@FlsSetValue@ 0000000180027c30     libvcruntime:winapi_downlevel.obj
 0002:00003c48       ??_C@_0BM@HCFOFFN@InitializeCriticalSectionEx@ 0000000180027c48     libvcruntime:winapi_downlevel.obj
 0002:00003de0       ?format_validation_lookup_table_spectre@__crt_stdio_output@@3V?$spectre_mitigated_lookup_table@Ustate_transition_pair@__crt_stdio_output@@$0IA@@1@B 0000000180027de0     libucrt:output.obj
 0002:000041e0       ??_C@_1O@CEDCILHN@?$AA?$CI?$AAn?$AAu?$AAl?$AAl?$AA?$CJ@ 00000001800281e0     libucrt:output.obj
 0002:000041f0       ??_C@_06OJHGLDPL@?$CInull?$CJ@ 00000001800281f0     libucrt:output.obj
 0002:00004200       __acrt_exception_action_table 0000000180028200     libucrt:exception_filter.obj
 0002:000042c0       __acrt_signal_action_table_count 00000001800282c0     libucrt:exception_filter.obj
 0002:000042c8       __acrt_signal_action_first_fpe_index 00000001800282c8     libucrt:exception_filter.obj
 0002:000042d0       __acrt_signal_action_fpe_count 00000001800282d0     libucrt:exception_filter.obj
 0002:000042d8       ??_C@_1BI@BGOHAHKC@?$AAm?$AAs?$AAc?$AAo?$AAr?$AAe?$AAe?$AA?4?$AAd?$AAl?$AAl@ 00000001800282d8     libucrt:exit.obj
 0002:000042f0       ??_C@_0P@MIGLKIOC@CorExitProcess@ 00000001800282f0     libucrt:exit.obj
 0002:000044a0       ??_C@_1EA@JGEFHKEI@?$AAa?$AAp?$AAi?$AA?9?$AAm?$AAs?$AA?9?$AAw?$AAi?$AAn?$AA?9?$AAc?$AAo?$AAr?$AAe@ 00000001800284a0     libucrt:winapi_thunks.obj
 0002:000044e0       ??_C@_1DI@IJCEHOCB@?$AAa?$AAp?$AAi?$AA?9?$AAm?$AAs?$AA?9?$AAw?$AAi?$AAn?$AA?9?$AAc?$AAo?$AAr?$AAe@ 00000001800284e0     libucrt:winapi_thunks.obj
 0002:00004520       ??_C@_1EI@MPIAOHOC@?$AAa?$AAp?$AAi?$AA?9?$AAm?$AAs?$AA?9?$AAw?$AAi?$AAn?$AA?9?$AAc?$AAo?$AAr?$AAe@ 0000000180028520     libucrt:winapi_thunks.obj
 0002:00004570       ??_C@_1FK@FPHCKFIE@?$AAa?$AAp?$AAi?$AA?9?$AAm?$AAs?$AA?9?$AAw?$AAi?$AAn?$AA?9?$AAc?$AAo?$AAr?$AAe@ 0000000180028570     libucrt:winapi_thunks.obj
 0002:000045d0       ??_C@_1EM@DILCGIIO@?$AAa?$AAp?$AAi?$AA?9?$AAm?$AAs?$AA?9?$AAw?$AAi?$AAn?$AA?9?$AAc?$AAo?$AAr?$AAe@ 00000001800285d0     libucrt:winapi_thunks.obj
 0002:00004620       ??_C@_1DM@LNCGDDPN@?$AAa?$AAp?$AAi?$AA?9?$AAm?$AAs?$AA?9?$AAw?$AAi?$AAn?$AA?9?$AAc?$AAo?$AAr?$AAe@ 0000000180028620     libucrt:winapi_thunks.obj
 0002:00004660       ??_C@_1DO@FPAPJEMD@?$AAa?$AAp?$AAi?$AA?9?$AAm?$AAs?$AA?9?$AAw?$AAi?$AAn?$AA?9?$AAc?$AAo?$AAr?$AAe@ 0000000180028660     libucrt:winapi_thunks.obj
 0002:000046a0       ??_C@_1DK@NDHNAHIO@?$AAa?$AAp?$AAi?$AA?9?$AAm?$AAs?$AA?9?$AAw?$AAi?$AAn?$AA?9?$AAc?$AAo?$AAr?$AAe@ 00000001800286a0     libucrt:winapi_thunks.obj
 0002:000046e0       ??_C@_1DM@KGHDGBCM@?$AAa?$AAp?$AAi?$AA?9?$AAm?$AAs?$AA?9?$AAw?$AAi?$AAn?$AA?9?$AAc?$AAo?$AAr?$AAe@ 00000001800286e0     libucrt:winapi_thunks.obj
 0002:00004720       ??_C@_1EO@IJIOEFOH@?$AAa?$AAp?$AAi?$AA?9?$AAm?$AAs?$AA?9?$AAw?$AAi?$AAn?$AA?9?$AAr?$AAt?$AAc?$AAo@ 0000000180028720     libucrt:winapi_thunks.obj
 0002:00004770       ??_C@_1FG@HHGEKANL@?$AAa?$AAp?$AAi?$AA?9?$AAm?$AAs?$AA?9?$AAw?$AAi?$AAn?$AA?9?$AAs?$AAe?$AAc?$AAu@ 0000000180028770     libucrt:winapi_thunks.obj
 0002:000047d0       ??_C@_1EG@DBIOJECG@?$AAe?$AAx?$AAt?$AA?9?$AAm?$AAs?$AA?9?$AAw?$AAi?$AAn?$AA?9?$AAn?$AAt?$AAu?$AAs@ 00000001800287d0     libucrt:winapi_thunks.obj
 0002:00004820       ??_C@_1EO@FIHMJCLF@?$AAe?$AAx?$AAt?$AA?9?$AAm?$AAs?$AA?9?$AAw?$AAi?$AAn?$AA?9?$AAn?$AAt?$AAu?$AAs@ 0000000180028820     libucrt:winapi_thunks.obj
 0002:00004870       ??_C@_1BC@DNHGCMLG@?$AAa?$AAd?$AAv?$AAa?$AAp?$AAi?$AA3?$AA2@ 0000000180028870     libucrt:winapi_thunks.obj
 0002:00004888       ??_C@_1M@OAIMIKLP@?$AAn?$AAt?$AAd?$AAl?$AAl@ 0000000180028888     libucrt:winapi_thunks.obj
 0002:000048a0       ??_C@_1EG@DPGNFKGC@?$AAa?$AAp?$AAi?$AA?9?$AAm?$AAs?$AA?9?$AAw?$AAi?$AAn?$AA?9?$AAa?$AAp?$AAp?$AAm@ 00000001800288a0     libucrt:winapi_thunks.obj
 0002:000048e8       ??_C@_1O@BCCLBEOE@?$AAu?$AAs?$AAe?$AAr?$AA3?$AA2@ 00000001800288e8     libucrt:winapi_thunks.obj
 0002:000048f8       ??_C@_1BA@IAIFMGEF@?$AAe?$AAx?$AAt?$AA?9?$AAm?$AAs?$AA?9@ 00000001800288f8     libucrt:winapi_thunks.obj
 0002:00004910       ??_C@_0BA@FHFNEAED@AreFileApisANSI@ 0000000180028910     libucrt:winapi_thunks.obj
 0002:00004950       ??_C@_0O@KKBNKAPF@LCMapStringEx@ 0000000180028950     libucrt:winapi_thunks.obj
 0002:00004968       ??_C@_0BB@HBDEELFH@LocaleNameToLCID@ 0000000180028968     libucrt:winapi_thunks.obj
 0002:00004980       ??_C@_0CF@OJOFEIGO@AppPolicyGetProcessTerminationM@ 0000000180028980     libucrt:winapi_thunks.obj
 0002:000049b0       ??_C@_0BI@BKLFFAPO@SetThreadStackGuarantee@ 00000001800289b0     libucrt:winapi_thunks.obj
 0002:00004a50       ??_C@_03OEIAHPBN@INF@      0000000180028a50     libucrt:cvt.obj
 0002:00004a54       ??_C@_03OJHLLCGB@inf@      0000000180028a54     libucrt:cvt.obj
 0002:00004a58       ??_C@_03LKNCIKJB@NAN@      0000000180028a58     libucrt:cvt.obj
 0002:00004a5c       ??_C@_03LHCJEHON@nan@      0000000180028a5c     libucrt:cvt.obj
 0002:00004a60       ??_C@_09OFJJIMPC@NAN?$CISNAN?$CJ@ 0000000180028a60     libucrt:cvt.obj
 0002:00004a70       ??_C@_09IPFBKMDL@nan?$CIsnan?$CJ@ 0000000180028a70     libucrt:cvt.obj
 0002:00004a80       ??_C@_08IKHNHAJ@NAN?$CIIND?$CJ@ 0000000180028a80     libucrt:cvt.obj
 0002:00004a90       ??_C@_08OFCDMILK@nan?$CIind?$CJ@ 0000000180028a90     libucrt:cvt.obj
 0002:00004a9c       ??_C@_05KLBDPFGC@e?$CL000@ 0000000180028a9c     libucrt:cvt.obj
 0002:00004ab0       __lc_time_c                0000000180028ab0     libucrt:nlsdata.obj
 0002:00004d70       ??_C@_03KOEHGMDN@Sun@      0000000180028d70     libucrt:nlsdata.obj
 0002:00004d74       ??_C@_03PDAGKDH@Mon@       0000000180028d74     libucrt:nlsdata.obj
 0002:00004d78       ??_C@_03NAGEINEP@Tue@      0000000180028d78     libucrt:nlsdata.obj
 0002:00004d7c       ??_C@_03MHOMLAJA@Wed@      0000000180028d7c     libucrt:nlsdata.obj
 0002:00004d80       ??_C@_03IOFIKPDN@Thu@      0000000180028d80     libucrt:nlsdata.obj
 0002:00004d84       ??_C@_03IDIOELNC@Fri@      0000000180028d84     libucrt:nlsdata.obj
 0002:00004d88       ??_C@_03FEFJNEK@Sat@       0000000180028d88     libucrt:nlsdata.obj
 0002:00004d8c       ??_C@_06OOPIFAJ@Sunday@    0000000180028d8c     libucrt:nlsdata.obj
 0002:00004d94       ??_C@_06JLEDEDGH@Monday@   0000000180028d94     libucrt:nlsdata.obj
 0002:00004da0       ??_C@_07BAAGCFCM@Tuesday@  0000000180028da0     libucrt:nlsdata.obj
 0002:00004da8       ??_C@_09DLIGFAKA@Wednesday@ 0000000180028da8     libucrt:nlsdata.obj
 0002:00004db8       ??_C@_08HACCIKIA@Thursday@ 0000000180028db8     libucrt:nlsdata.obj
 0002:00004dc4       ??_C@_06JECMNKMI@Friday@   0000000180028dc4     libucrt:nlsdata.obj
 0002:00004dd0       ??_C@_08INBOOONO@Saturday@ 0000000180028dd0     libucrt:nlsdata.obj
 0002:00004ddc       ??_C@_03JIHJHPIE@Jan@      0000000180028ddc     libucrt:nlsdata.obj
 0002:00004de0       ??_C@_03HJBDCHOM@Feb@      0000000180028de0     libucrt:nlsdata.obj
 0002:00004de4       ??_C@_03ODNJBKGA@Mar@      0000000180028de4     libucrt:nlsdata.obj
 0002:00004de8       ??_C@_03LEOLGMJP@Apr@      0000000180028de8     libucrt:nlsdata.obj
 0002:00004dec       ??_C@_03CNMDKL@May@        0000000180028dec     libucrt:nlsdata.obj
 0002:00004df0       ??_C@_03IDFGHECI@Jun@      0000000180028df0     libucrt:nlsdata.obj
 0002:00004df4       ??_C@_03LBGABGKK@Jul@      0000000180028df4     libucrt:nlsdata.obj
 0002:00004df8       ??_C@_03IFJFEIGA@Aug@      0000000180028df8     libucrt:nlsdata.obj
 0002:00004dfc       ??_C@_03GGCAPAJC@Sep@      0000000180028dfc     libucrt:nlsdata.obj
 0002:00004e00       ??_C@_03BMAOKBAD@Oct@      0000000180028e00     libucrt:nlsdata.obj
 0002:00004e04       ??_C@_03JPJOFNIA@Nov@      0000000180028e04     libucrt:nlsdata.obj
 0002:00004e08       ??_C@_03MKABNOCG@Dec@      0000000180028e08     libucrt:nlsdata.obj
 0002:00004e10       ??_C@_07CGJPFGJA@January@  0000000180028e10     libucrt:nlsdata.obj
 0002:00004e18       ??_C@_08GNJGEPFN@February@ 0000000180028e18     libucrt:nlsdata.obj
 0002:00004e24       ??_C@_05HPCKOFNC@March@    0000000180028e24     libucrt:nlsdata.obj
 0002:00004e2c       ??_C@_05DMJDNLEJ@April@    0000000180028e2c     libucrt:nlsdata.obj
 0002:00004e34       ??_C@_04CNLMGBGM@June@     0000000180028e34     libucrt:nlsdata.obj
 0002:00004e3c       ??_C@_04MIEPOIFP@July@     0000000180028e3c     libucrt:nlsdata.obj
 0002:00004e44       ??_C@_06LBBHFDDG@August@   0000000180028e44     libucrt:nlsdata.obj
 0002:00004e50       ??_C@_09BHHEALKD@September@ 0000000180028e50     libucrt:nlsdata.obj
 0002:00004e60       ??_C@_07JJNFCEND@October@  0000000180028e60     libucrt:nlsdata.obj
 0002:00004e68       ??_C@_08HCHEGEOA@November@ 0000000180028e68     libucrt:nlsdata.obj
 0002:00004e78       ??_C@_08EDHMEBNP@December@ 0000000180028e78     libucrt:nlsdata.obj
 0002:00004e84       ??_C@_02DEDBPAFC@AM@       0000000180028e84     libucrt:nlsdata.obj
 0002:00004e88       ??_C@_02CJNFDJBF@PM@       0000000180028e88     libucrt:nlsdata.obj
 0002:00004e90       ??_C@_08BPBNCDIB@MM?1dd?1yy@ 0000000180028e90     libucrt:nlsdata.obj
 0002:00004ea0       ??_C@_0BE@CKGJFCPC@dddd?0?5MMMM?5dd?0?5yyyy@ 0000000180028ea0     libucrt:nlsdata.obj
 0002:00004eb8       ??_C@_08JCCMCCIL@HH?3mm?3ss@ 0000000180028eb8     libucrt:nlsdata.obj
 0002:00004ec8       ??_C@_17MBGCMIPB@?$AAS?$AAu?$AAn@ 0000000180028ec8     libucrt:nlsdata.obj
 0002:00004ed0       ??_C@_17KBOMKBF@?$AAM?$AAo?$AAn@ 0000000180028ed0     libucrt:nlsdata.obj
 0002:00004ed8       ??_C@_17BMKGEGOJ@?$AAT?$AAu?$AAe@ 0000000180028ed8     libucrt:nlsdata.obj
 0002:00004ee0       ??_C@_17CJEDCEPE@?$AAW?$AAe?$AAd@ 0000000180028ee0     libucrt:nlsdata.obj
 0002:00004ee8       ??_C@_17PDPHAADD@?$AAT?$AAh?$AAu@ 0000000180028ee8     libucrt:nlsdata.obj
 0002:00004ef0       ??_C@_17HFOLPPLP@?$AAF?$AAr?$AAi@ 0000000180028ef0     libucrt:nlsdata.obj
 0002:00004ef8       ??_C@_17GGIBDPIH@?$AAS?$AAa?$AAt@ 0000000180028ef8     libucrt:nlsdata.obj
 0002:00004f00       ??_C@_1O@IHNHDHPB@?$AAS?$AAu?$AAn?$AAd?$AAa?$AAy@ 0000000180028f00     libucrt:nlsdata.obj
 0002:00004f10       ??_C@_1O@MMNBFLIA@?$AAM?$AAo?$AAn?$AAd?$AAa?$AAy@ 0000000180028f10     libucrt:nlsdata.obj
 0002:00004f20       ??_C@_1BA@ENFBFFEK@?$AAT?$AAu?$AAe?$AAs?$AAd?$AAa?$AAy@ 0000000180028f20     libucrt:nlsdata.obj
 0002:00004f30       ??_C@_1BE@EBOGMDOH@?$AAW?$AAe?$AAd?$AAn?$AAe?$AAs?$AAd?$AAa?$AAy@ 0000000180028f30     libucrt:nlsdata.obj
 0002:00004f48       ??_C@_1BC@HHMNLIHE@?$AAT?$AAh?$AAu?$AAr?$AAs?$AAd?$AAa?$AAy@ 0000000180028f48     libucrt:nlsdata.obj
 0002:00004f60       ??_C@_1O@PDICJHAG@?$AAF?$AAr?$AAi?$AAd?$AAa?$AAy@ 0000000180028f60     libucrt:nlsdata.obj
 0002:00004f70       ??_C@_1BC@ENMNNPAJ@?$AAS?$AAa?$AAt?$AAu?$AAr?$AAd?$AAa?$AAy@ 0000000180028f70     libucrt:nlsdata.obj
 0002:00004f88       ??_C@_17DKNBKCHM@?$AAJ?$AAa?$AAn@ 0000000180028f88     libucrt:nlsdata.obj
 0002:00004f90       ??_C@_17LMDJEKJN@?$AAF?$AAe?$AAb@ 0000000180028f90     libucrt:nlsdata.obj
 0002:00004f98       ??_C@_17CKNLEDEC@?$AAM?$AAa?$AAr@ 0000000180028f98     libucrt:nlsdata.obj
 0002:00004fa0       ??_C@_17LFPOIHDD@?$AAA?$AAp?$AAr@ 0000000180028fa0     libucrt:nlsdata.obj
 0002:00004fa8       ??_C@_17PNNKMEED@?$AAM?$AAa?$AAy@ 0000000180028fa8     libucrt:nlsdata.obj
 0002:00004fb0       ??_C@_17KCJGOCPB@?$AAJ?$AAu?$AAn@ 0000000180028fb0     libucrt:nlsdata.obj
 0002:00004fb8       ??_C@_17IJPCKHK@?$AAJ?$AAu?$AAl@ 0000000180028fb8     libucrt:nlsdata.obj
 0002:00004fc0       ??_C@_17ICPELBCN@?$AAA?$AAu?$AAg@ 0000000180028fc0     libucrt:nlsdata.obj
 0002:00004fc8       ??_C@_17HCHCOKMG@?$AAS?$AAe?$AAp@ 0000000180028fc8     libucrt:nlsdata.obj
 0002:00004fd0       ??_C@_17FNLKOI@?$AAO?$AAc?$AAt@ 0000000180028fd0     libucrt:nlsdata.obj
 0002:00004fd8       ??_C@_17BBDMLCIG@?$AAN?$AAo?$AAv@ 0000000180028fd8     libucrt:nlsdata.obj
 0002:00004fe0       ??_C@_17EGKACKIF@?$AAD?$AAe?$AAc@ 0000000180028fe0     libucrt:nlsdata.obj
 0002:00004fe8       ??_C@_1BA@EFMEIEBA@?$AAJ?$AAa?$AAn?$AAu?$AAa?$AAr?$AAy@ 0000000180028fe8     libucrt:nlsdata.obj
 0002:00004ff8       ??_C@_1BC@JGDDFFAM@?$AAF?$AAe?$AAb?$AAr?$AAu?$AAa?$AAr?$AAy@ 0000000180028ff8     libucrt:nlsdata.obj
 0002:00005010       ??_C@_1M@IKEENEDF@?$AAM?$AAa?$AAr?$AAc?$AAh@ 0000000180029010     libucrt:nlsdata.obj
 0002:00005020       ??_C@_1M@GJNLMHFD@?$AAA?$AAp?$AAr?$AAi?$AAl@ 0000000180029020     libucrt:nlsdata.obj
 0002:00005030       ??_C@_19EPFLPGAP@?$AAJ?$AAu?$AAn?$AAe@ 0000000180029030     libucrt:nlsdata.obj
 0002:00005040       ??_C@_19BIFMLPCD@?$AAJ?$AAu?$AAl?$AAy@ 0000000180029040     libucrt:nlsdata.obj
 0002:00005050       ??_C@_1O@PAHLKOAC@?$AAA?$AAu?$AAg?$AAu?$AAs?$AAt@ 0000000180029050     libucrt:nlsdata.obj
 0002:00005060       ??_C@_1BE@DKAAMBJL@?$AAS?$AAe?$AAp?$AAt?$AAe?$AAm?$AAb?$AAe?$AAr@ 0000000180029060     libucrt:nlsdata.obj
 0002:00005078       ??_C@_1BA@EPANDLNG@?$AAO?$AAc?$AAt?$AAo?$AAb?$AAe?$AAr@ 0000000180029078     libucrt:nlsdata.obj
 0002:00005088       ??_C@_1BC@BGLIFPF@?$AAN?$AAo?$AAv?$AAe?$AAm?$AAb?$AAe?$AAr@ 0000000180029088     libucrt:nlsdata.obj
 0002:000050a0       ??_C@_1BC@FEMKIFH@?$AAD?$AAe?$AAc?$AAe?$AAm?$AAb?$AAe?$AAr@ 00000001800290a0     libucrt:nlsdata.obj
 0002:000050b4       ??_C@_15ODEHAHHF@?$AAA?$AAM@ 00000001800290b4     libucrt:nlsdata.obj
 0002:000050bc       ??_C@_15CLMNNGEL@?$AAP?$AAM@ 00000001800290bc     libucrt:nlsdata.obj
 0002:000050c8       ??_C@_1BC@IEBCMHCM@?$AAM?$AAM?$AA?1?$AAd?$AAd?$AA?1?$AAy?$AAy@ 00000001800290c8     libucrt:nlsdata.obj
 0002:000050e0       ??_C@_1CI@KNAKOEBC@?$AAd?$AAd?$AAd?$AAd?$AA?0?$AA?5?$AAM?$AAM?$AAM?$AAM?$AA?5?$AAd?$AAd?$AA?0?$AA?5@ 00000001800290e0     libucrt:nlsdata.obj
 0002:00005108       ??_C@_1BC@GDGBMEMK@?$AAH?$AAH?$AA?3?$AAm?$AAm?$AA?3?$AAs?$AAs@ 0000000180029108     libucrt:nlsdata.obj
 0002:00005120       ??_C@_1M@BMHNFIME@?$AAe?$AAn?$AA?9?$AAU?$AAS@ 0000000180029120     libucrt:nlsdata.obj
 0002:00005150       ??_C@_1M@HPNHIDJI@?$AAj?$AAa?$AA?9?$AAJ?$AAP@ 0000000180029150     libucrt:mbctype.obj
 0002:00005160       ??_C@_1M@BIBDDEMK@?$AAz?$AAh?$AA?9?$AAC?$AAN@ 0000000180029160     libucrt:mbctype.obj
 0002:00005170       ??_C@_1M@JLOOOEGK@?$AAk?$AAo?$AA?9?$AAK?$AAR@ 0000000180029170     libucrt:mbctype.obj
 0002:00005180       ??_C@_1M@CLNBBOPM@?$AAz?$AAh?$AA?9?$AAT?$AAW@ 0000000180029180     libucrt:mbctype.obj
 0002:00005190       __newctype                 0000000180029190     libucrt:ctype.obj
 0002:00005490       __newclmap                 0000000180029490     libucrt:ctype.obj
 0002:00005610       __newcumap                 0000000180029610     libucrt:ctype.obj
 0002:00005790       _wctype                    0000000180029790     libucrt:ctype.obj
 0002:000067e0       ??_C@_15EMKDOKLE@?$AAa?$AAr@ 000000018002a7e0     libucrt:lcidtoname_downlevel.obj
 0002:000067e8       ??_C@_15KNPADPLH@?$AAb?$AAg@ 000000018002a7e8     libucrt:lcidtoname_downlevel.obj
 0002:000067f0       ??_C@_15EDMHLDMO@?$AAc?$AAa@ 000000018002a7f0     libucrt:lcidtoname_downlevel.obj
 0002:000067f8       ??_C@_1O@BPEAJADD@?$AAz?$AAh?$AA?9?$AAC?$AAH?$AAS@ 000000018002a7f8     libucrt:lcidtoname_downlevel.obj
 0002:00006808       ??_C@_15LJNHCMNK@?$AAc?$AAs@ 000000018002a808     libucrt:lcidtoname_downlevel.obj
 0002:00006810       ??_C@_15FOMCIDHG@?$AAd?$AAa@ 000000018002a810     libucrt:lcidtoname_downlevel.obj
 0002:00006818       ??_C@_15NBKABECB@?$AAd?$AAe@ 000000018002a818     libucrt:lcidtoname_downlevel.obj
 0002:00006820       ??_C@_15GHPEIIAO@?$AAe?$AAl@ 000000018002a820     libucrt:lcidtoname_downlevel.obj
 0002:00006828       ??_C@_15MNPNEAIF@?$AAe?$AAn@ 000000018002a828     libucrt:lcidtoname_downlevel.obj
 0002:00006830       ??_C@_15GPIOMPMH@?$AAe?$AAs@ 000000018002a830     libucrt:lcidtoname_downlevel.obj
 0002:00006838       ??_C@_15NGLOAKJC@?$AAf?$AAi@ 000000018002a838     libucrt:lcidtoname_downlevel.obj
 0002:00006840       ??_C@_15FBKGNKAM@?$AAf?$AAr@ 000000018002a840     libucrt:lcidtoname_downlevel.obj
 0002:00006848       ??_C@_15KGGCNEFK@?$AAh?$AAe@ 000000018002a848     libucrt:lcidtoname_downlevel.obj
 0002:00006850       ??_C@_15PGHLIDMF@?$AAh?$AAu@ 000000018002a850     libucrt:lcidtoname_downlevel.obj
 0002:00006858       ??_C@_15BIEMAPLM@?$AAi?$AAs@ 000000018002a858     libucrt:lcidtoname_downlevel.obj
 0002:00006860       ??_C@_15IFJLDHAF@?$AAi?$AAt@ 000000018002a860     libucrt:lcidtoname_downlevel.obj
 0002:00006868       ??_C@_15GEMIOCAG@?$AAj?$AAa@ 000000018002a868     libucrt:lcidtoname_downlevel.obj
 0002:00006870       ??_C@_15EPELEGJA@?$AAk?$AAo@ 000000018002a870     libucrt:lcidtoname_downlevel.obj
 0002:00006878       ??_C@_15NDDHIMN@?$AAn?$AAl@ 000000018002a878     libucrt:lcidtoname_downlevel.obj
 0002:00006880       ??_C@_15BPIGNHCD@?$AAn?$AAo@ 000000018002a880     libucrt:lcidtoname_downlevel.obj
 0002:00006888       ??_C@_15DEOPBLCG@?$AAp?$AAl@ 000000018002a888     libucrt:lcidtoname_downlevel.obj
 0002:00006890       ??_C@_15KBECGEFG@?$AAp?$AAt@ 000000018002a890     libucrt:lcidtoname_downlevel.obj
 0002:00006898       ??_C@_15GLJCBFMD@?$AAr?$AAo@ 000000018002a898     libucrt:lcidtoname_downlevel.obj
 0002:000068a0       ??_C@_15FEDGKCDI@?$AAr?$AAu@ 000000018002a8a0     libucrt:lcidtoname_downlevel.obj
 0002:000068a8       ??_C@_15GLKMLLHM@?$AAh?$AAr@ 000000018002a8a8     libucrt:lcidtoname_downlevel.obj
 0002:000068b0       ??_C@_15CPKMFBDB@?$AAs?$AAk@ 000000018002a8b0     libucrt:lcidtoname_downlevel.obj
 0002:000068b8       ??_C@_15BAAIOGMK@?$AAs?$AAq@ 000000018002a8b8     libucrt:lcidtoname_downlevel.obj
 0002:000068c0       ??_C@_15INNPNOHD@?$AAs?$AAv@ 000000018002a8c0     libucrt:lcidtoname_downlevel.obj
 0002:000068c8       ??_C@_15CABMMOGH@?$AAt?$AAh@ 000000018002a8c8     libucrt:lcidtoname_downlevel.obj
 0002:000068d0       ??_C@_15BPLIHJJM@?$AAt?$AAr@ 000000018002a8d0     libucrt:lcidtoname_downlevel.obj
 0002:000068d8       ??_C@_15NEOEKKDJ@?$AAu?$AAr@ 000000018002a8d8     libucrt:lcidtoname_downlevel.obj
 0002:000068e0       ??_C@_15NFICGAJK@?$AAi?$AAd@ 000000018002a8e0     libucrt:lcidtoname_downlevel.obj
 0002:000068e8       ??_C@_15PJPFLCCM@?$AAu?$AAk@ 000000018002a8e8     libucrt:lcidtoname_downlevel.obj
 0002:000068f0       ??_C@_15HPJPHDM@?$AAb?$AAe@ 000000018002a8f0     libucrt:lcidtoname_downlevel.obj
 0002:000068f8       ??_C@_15LCHLGJII@?$AAs?$AAl@ 000000018002a8f8     libucrt:lcidtoname_downlevel.obj
 0002:00006900       ??_C@_15PCFJPHHO@?$AAe?$AAt@ 000000018002a900     libucrt:lcidtoname_downlevel.obj
 0002:00006908       ??_C@_15HPFPGODN@?$AAl?$AAv@ 000000018002a908     libucrt:lcidtoname_downlevel.obj
 0002:00006910       ??_C@_15NFFGKGLG@?$AAl?$AAt@ 000000018002a910     libucrt:lcidtoname_downlevel.obj
 0002:00006918       ??_C@_15BDAKCCHN@?$AAf?$AAa@ 000000018002a918     libucrt:lcidtoname_downlevel.obj
 0002:00006920       ??_C@_15NFGIAIAJ@?$AAv?$AAi@ 000000018002a920     libucrt:lcidtoname_downlevel.obj
 0002:00006928       ??_C@_15LMKNDMHN@?$AAh?$AAy@ 000000018002a928     libucrt:lcidtoname_downlevel.obj
 0002:00006930       ??_C@_15IJBHMCFL@?$AAa?$AAz@ 000000018002a930     libucrt:lcidtoname_downlevel.obj
 0002:00006938       ??_C@_15EKOFJABL@?$AAe?$AAu@ 000000018002a938     libucrt:lcidtoname_downlevel.obj
 0002:00006940       ??_C@_15BGHADCNK@?$AAm?$AAk@ 000000018002a940     libucrt:lcidtoname_downlevel.obj
 0002:00006948       ??_C@_15JDNICKHM@?$AAa?$AAf@ 000000018002a948     libucrt:lcidtoname_downlevel.obj
 0002:00006950       ??_C@_15KPJEDBKD@?$AAk?$AAa@ 000000018002a950     libucrt:lcidtoname_downlevel.obj
 0002:00006958       ??_C@_15PDNFFFEO@?$AAf?$AAo@ 000000018002a958     libucrt:lcidtoname_downlevel.obj
 0002:00006960       ??_C@_15OMLEGLOC@?$AAh?$AAi@ 000000018002a960     libucrt:lcidtoname_downlevel.obj
 0002:00006968       ??_C@_15IDNNENKK@?$AAm?$AAs@ 000000018002a968     libucrt:lcidtoname_downlevel.obj
 0002:00006970       ??_C@_15MACJNBMH@?$AAk?$AAk@ 000000018002a970     libucrt:lcidtoname_downlevel.obj
 0002:00006978       ??_C@_15DKDJEOND@?$AAk?$AAy@ 000000018002a978     libucrt:lcidtoname_downlevel.obj
 0002:00006980       ??_C@_15DFGDLJBG@?$AAs?$AAw@ 000000018002a980     libucrt:lcidtoname_downlevel.obj
 0002:00006988       ??_C@_15BBFAICNG@?$AAu?$AAz@ 000000018002a988     libucrt:lcidtoname_downlevel.obj
 0002:00006990       ??_C@_15DKNDCGEA@?$AAt?$AAt@ 000000018002a990     libucrt:lcidtoname_downlevel.obj
 0002:00006998       ??_C@_15MGIFMDPL@?$AAp?$AAa@ 000000018002a998     libucrt:lcidtoname_downlevel.obj
 0002:000069a0       ??_C@_15HCNDBBA@?$AAg?$AAu@ 000000018002a9a0     libucrt:lcidtoname_downlevel.obj
 0002:000069a8       ??_C@_15FNBEIBON@?$AAt?$AAa@ 000000018002a9a8     libucrt:lcidtoname_downlevel.obj
 0002:000069b0       ??_C@_15NCHGBGLK@?$AAt?$AAe@ 000000018002a9b0     libucrt:lcidtoname_downlevel.obj
 0002:000069b8       ??_C@_15PHPHCBPF@?$AAk?$AAn@ 000000018002a9b8     libucrt:lcidtoname_downlevel.obj
 0002:000069c0       ??_C@_15DLGBCKMP@?$AAm?$AAr@ 000000018002a9c0     libucrt:lcidtoname_downlevel.obj
 0002:000069c8       ??_C@_15EABBLBFF@?$AAs?$AAa@ 000000018002a9c8     libucrt:lcidtoname_downlevel.obj
 0002:000069d0       ??_C@_15CBKOMCOI@?$AAm?$AAn@ 000000018002a9d0     libucrt:lcidtoname_downlevel.obj
 0002:000069d8       ??_C@_15CKDMCJAF@?$AAg?$AAl@ 000000018002a9d8     libucrt:lcidtoname_downlevel.obj
 0002:000069e0       ??_C@_17CNJFBPG@?$AAk?$AAo?$AAk@ 000000018002a9e0     libucrt:lcidtoname_downlevel.obj
 0002:000069e8       ??_C@_17FFBJICPL@?$AAs?$AAy?$AAr@ 000000018002a9e8     libucrt:lcidtoname_downlevel.obj
 0002:000069f0       ??_C@_17KPNDCPAF@?$AAd?$AAi?$AAv@ 000000018002a9f0     libucrt:lcidtoname_downlevel.obj
 0002:000069f8       ??_C@_1M@OKAHONE@?$AAa?$AAr?$AA?9?$AAS?$AAA@ 000000018002a9f8     libucrt:lcidtoname_downlevel.obj
 0002:00006a08       ??_C@_1M@FFFIGIGK@?$AAb?$AAg?$AA?9?$AAB?$AAG@ 000000018002aa08     libucrt:lcidtoname_downlevel.obj
 0002:00006a18       ??_C@_1M@BJNKEDC@?$AAc?$AAa?$AA?9?$AAE?$AAS@ 000000018002aa18     libucrt:lcidtoname_downlevel.obj
 0002:00006a28       ??_C@_1M@IJJHFJHA@?$AAc?$AAs?$AA?9?$AAC?$AAZ@ 000000018002aa28     libucrt:lcidtoname_downlevel.obj
 0002:00006a38       ??_C@_1M@CLPEOBGI@?$AAd?$AAa?$AA?9?$AAD?$AAK@ 000000018002aa38     libucrt:lcidtoname_downlevel.obj
 0002:00006a48       ??_C@_1M@MCMADGCB@?$AAd?$AAe?$AA?9?$AAD?$AAE@ 000000018002aa48     libucrt:lcidtoname_downlevel.obj
 0002:00006a58       ??_C@_1M@OOCKEMAM@?$AAe?$AAl?$AA?9?$AAG?$AAR@ 000000018002aa58     libucrt:lcidtoname_downlevel.obj
 0002:00006a68       ??_C@_1M@DDNJFGID@?$AAf?$AAi?$AA?9?$AAF?$AAI@ 000000018002aa68     libucrt:lcidtoname_downlevel.obj
 0002:00006a78       ??_C@_1M@GLIPPMAC@?$AAf?$AAr?$AA?9?$AAF?$AAR@ 000000018002aa78     libucrt:lcidtoname_downlevel.obj
 0002:00006a88       ??_C@_1M@GFMCHPE@?$AAh?$AAe?$AA?9?$AAI?$AAL@ 000000018002aa88     libucrt:lcidtoname_downlevel.obj
 0002:00006a98       ??_C@_1M@MHLPGNKM@?$AAh?$AAu?$AA?9?$AAH?$AAU@ 000000018002aa98     libucrt:lcidtoname_downlevel.obj
 0002:00006aa8       ??_C@_1M@LPDDNNPN@?$AAi?$AAs?$AA?9?$AAI?$AAS@ 000000018002aaa8     libucrt:lcidtoname_downlevel.obj
 0002:00006ab8       ??_C@_1M@MADIPODN@?$AAi?$AAt?$AA?9?$AAI?$AAT@ 000000018002aab8     libucrt:lcidtoname_downlevel.obj
 0002:00006ac8       ??_C@_1M@IHBJJGG@?$AAn?$AAl?$AA?9?$AAN?$AAL@ 000000018002aac8     libucrt:lcidtoname_downlevel.obj
 0002:00006ad8       ??_C@_1M@EANAGDL@?$AAn?$AAb?$AA?9?$AAN?$AAO@ 000000018002aad8     libucrt:lcidtoname_downlevel.obj
 0002:00006ae8       ??_C@_1M@NEIEMEGP@?$AAp?$AAl?$AA?9?$AAP?$AAL@ 000000018002aae8     libucrt:lcidtoname_downlevel.obj
 0002:00006af8       ??_C@_1M@BOCFIGEP@?$AAp?$AAt?$AA?9?$AAB?$AAR@ 000000018002aaf8     libucrt:lcidtoname_downlevel.obj
 0002:00006b08       ??_C@_1M@IMPFOPBG@?$AAr?$AAo?$AA?9?$AAR?$AAO@ 000000018002ab08     libucrt:lcidtoname_downlevel.obj
 0002:00006b18       ??_C@_1M@IDNNEJMM@?$AAr?$AAu?$AA?9?$AAR?$AAU@ 000000018002ab18     libucrt:lcidtoname_downlevel.obj
 0002:00006b28       ??_C@_1M@LILEEOGM@?$AAh?$AAr?$AA?9?$AAH?$AAR@ 000000018002ab28     libucrt:lcidtoname_downlevel.obj
 0002:00006b38       ??_C@_1M@FKIFEHPB@?$AAs?$AAk?$AA?9?$AAS?$AAK@ 000000018002ab38     libucrt:lcidtoname_downlevel.obj
 0002:00006b48       ??_C@_1M@LJMAMNPJ@?$AAs?$AAq?$AA?9?$AAA?$AAL@ 000000018002ab48     libucrt:lcidtoname_downlevel.obj
 0002:00006b58       ??_C@_1M@GIAKDKJK@?$AAs?$AAv?$AA?9?$AAS?$AAE@ 000000018002ab58     libucrt:lcidtoname_downlevel.obj
 0002:00006b68       ??_C@_1M@MKJKIKCL@?$AAt?$AAh?$AA?9?$AAT?$AAH@ 000000018002ab68     libucrt:lcidtoname_downlevel.obj
 0002:00006b78       ??_C@_1M@MFLCCMPB@?$AAt?$AAr?$AA?9?$AAT?$AAR@ 000000018002ab78     libucrt:lcidtoname_downlevel.obj
 0002:00006b88       ??_C@_1M@OIJHDKJN@?$AAu?$AAr?$AA?9?$AAP?$AAK@ 000000018002ab88     libucrt:lcidtoname_downlevel.obj
 0002:00006b98       ??_C@_1M@LHIPCIEK@?$AAi?$AAd?$AA?9?$AAI?$AAD@ 000000018002ab98     libucrt:lcidtoname_downlevel.obj
 0002:00006ba8       ??_C@_1M@MFMOBGI@?$AAu?$AAk?$AA?9?$AAU?$AAA@ 000000018002aba8     libucrt:lcidtoname_downlevel.obj
 0002:00006bb8       ??_C@_1M@OBGLJIPL@?$AAb?$AAe?$AA?9?$AAB?$AAY@ 000000018002abb8     libucrt:lcidtoname_downlevel.obj
 0002:00006bc8       ??_C@_1M@BCFAJEAD@?$AAs?$AAl?$AA?9?$AAS?$AAI@ 000000018002abc8     libucrt:lcidtoname_downlevel.obj
 0002:00006bd8       ??_C@_1M@FKFFEDDN@?$AAe?$AAt?$AA?9?$AAE?$AAE@ 000000018002abd8     libucrt:lcidtoname_downlevel.obj
 0002:00006be8       ??_C@_1M@KGKKAACI@?$AAl?$AAv?$AA?9?$AAL?$AAV@ 000000018002abe8     libucrt:lcidtoname_downlevel.obj
 0002:00006bf8       ??_C@_1M@IFGBIJO@?$AAl?$AAt?$AA?9?$AAL?$AAT@ 000000018002abf8     libucrt:lcidtoname_downlevel.obj
 0002:00006c08       ??_C@_1M@FGEAHEDM@?$AAf?$AAa?$AA?9?$AAI?$AAR@ 000000018002ac08     libucrt:lcidtoname_downlevel.obj
 0002:00006c18       ??_C@_1M@KBMAIBFN@?$AAv?$AAi?$AA?9?$AAV?$AAN@ 000000018002ac18     libucrt:lcidtoname_downlevel.obj
 0002:00006c28       ??_C@_1M@GPCBKDJK@?$AAh?$AAy?$AA?9?$AAA?$AAM@ 000000018002ac28     libucrt:lcidtoname_downlevel.obj
 0002:00006c38       ??_C@_1BG@BECMDDJB@?$AAa?$AAz?$AA?9?$AAA?$AAZ?$AA?9?$AAL?$AAa?$AAt?$AAn@ 000000018002ac38     libucrt:lcidtoname_downlevel.obj
 0002:00006c50       ??_C@_1M@MAOFCAEA@?$AAe?$AAu?$AA?9?$AAE?$AAS@ 000000018002ac50     libucrt:lcidtoname_downlevel.obj
 0002:00006c60       ??_C@_1M@IGHABKPI@?$AAm?$AAk?$AA?9?$AAM?$AAK@ 000000018002ac60     libucrt:lcidtoname_downlevel.obj
 0002:00006c70       ??_C@_1M@IAIGNEJG@?$AAt?$AAn?$AA?9?$AAZ?$AAA@ 000000018002ac70     libucrt:lcidtoname_downlevel.obj
 0002:00006c80       ??_C@_1M@IIJCOJFA@?$AAx?$AAh?$AA?9?$AAZ?$AAA@ 000000018002ac80     libucrt:lcidtoname_downlevel.obj
 0002:00006c90       ??_C@_1M@LGPJHNJH@?$AAz?$AAu?$AA?9?$AAZ?$AAA@ 000000018002ac90     libucrt:lcidtoname_downlevel.obj
 0002:00006ca0       ??_C@_1M@HOKAOIO@?$AAa?$AAf?$AA?9?$AAZ?$AAA@ 000000018002aca0     libucrt:lcidtoname_downlevel.obj
 0002:00006cb0       ??_C@_1M@DPCLHLIE@?$AAk?$AAa?$AA?9?$AAG?$AAE@ 000000018002acb0     libucrt:lcidtoname_downlevel.obj
 0002:00006cc0       ??_C@_1M@BLKMHJBI@?$AAf?$AAo?$AA?9?$AAF?$AAO@ 000000018002acc0     libucrt:lcidtoname_downlevel.obj
 0002:00006cd0       ??_C@_1M@LGGJAPPB@?$AAh?$AAi?$AA?9?$AAI?$AAN@ 000000018002acd0     libucrt:lcidtoname_downlevel.obj
 0002:00006ce0       ??_C@_1M@FIKPIHFE@?$AAm?$AAt?$AA?9?$AAM?$AAT@ 000000018002ace0     libucrt:lcidtoname_downlevel.obj
 0002:00006cf0       ??_C@_1M@HEGGPBFA@?$AAs?$AAe?$AA?9?$AAN?$AAO@ 000000018002acf0     libucrt:lcidtoname_downlevel.obj
 0002:00006d00       ??_C@_1M@EIBJEEPA@?$AAm?$AAs?$AA?9?$AAM?$AAY@ 000000018002ad00     libucrt:lcidtoname_downlevel.obj
 0002:00006d10       ??_C@_1M@FHLBGMPP@?$AAk?$AAk?$AA?9?$AAK?$AAZ@ 000000018002ad10     libucrt:lcidtoname_downlevel.obj
 0002:00006d20       ??_C@_1M@NGJJLCGI@?$AAk?$AAy?$AA?9?$AAK?$AAG@ 000000018002ad20     libucrt:lcidtoname_downlevel.obj
 0002:00006d30       ??_C@_1M@GIENNBFC@?$AAs?$AAw?$AA?9?$AAK?$AAE@ 000000018002ad30     libucrt:lcidtoname_downlevel.obj
 0002:00006d40       ??_C@_1BG@NDGMJIMJ@?$AAu?$AAz?$AA?9?$AAU?$AAZ?$AA?9?$AAL?$AAa?$AAt?$AAn@ 000000018002ad40     libucrt:lcidtoname_downlevel.obj
 0002:00006d58       ??_C@_1M@IDCCIHBC@?$AAt?$AAt?$AA?9?$AAR?$AAU@ 000000018002ad58     libucrt:lcidtoname_downlevel.obj
 0002:00006d68       ??_C@_1M@LOICPMOJ@?$AAb?$AAn?$AA?9?$AAI?$AAN@ 000000018002ad68     libucrt:lcidtoname_downlevel.obj
 0002:00006d78       ??_C@_1M@KPKKNEAH@?$AAp?$AAa?$AA?9?$AAI?$AAN@ 000000018002ad78     libucrt:lcidtoname_downlevel.obj
 0002:00006d88       ??_C@_1M@PJGPPBOG@?$AAg?$AAu?$AA?9?$AAI?$AAN@ 000000018002ad88     libucrt:lcidtoname_downlevel.obj
 0002:00006d98       ??_C@_1M@KMKMOPHI@?$AAt?$AAa?$AA?9?$AAI?$AAN@ 000000018002ad98     libucrt:lcidtoname_downlevel.obj
 0002:00006da8       ??_C@_1M@KFEHEPAC@?$AAt?$AAe?$AA?9?$AAI?$AAN@ 000000018002ada8     libucrt:lcidtoname_downlevel.obj
 0002:00006db8       ??_C@_1M@CDCLMGHI@?$AAk?$AAn?$AA?9?$AAI?$AAN@ 000000018002adb8     libucrt:lcidtoname_downlevel.obj
 0002:00006dc8       ??_C@_1M@MIODLDKF@?$AAm?$AAl?$AA?9?$AAI?$AAN@ 000000018002adc8     libucrt:lcidtoname_downlevel.obj
 0002:00006dd8       ??_C@_1M@PBIEACPO@?$AAm?$AAr?$AA?9?$AAI?$AAN@ 000000018002add8     libucrt:lcidtoname_downlevel.obj
 0002:00006de8       ??_C@_1M@NIDEAGPH@?$AAs?$AAa?$AA?9?$AAI?$AAN@ 000000018002ade8     libucrt:lcidtoname_downlevel.obj
 0002:00006df8       ??_C@_1M@FHIHCBIO@?$AAm?$AAn?$AA?9?$AAM?$AAN@ 000000018002adf8     libucrt:lcidtoname_downlevel.obj
 0002:00006e08       ??_C@_1M@JAIJPENP@?$AAc?$AAy?$AA?9?$AAG?$AAB@ 000000018002ae08     libucrt:lcidtoname_downlevel.obj
 0002:00006e18       ??_C@_1M@PHGFBEPN@?$AAg?$AAl?$AA?9?$AAE?$AAS@ 000000018002ae18     libucrt:lcidtoname_downlevel.obj
 0002:00006e28       ??_C@_1O@KPIPDNCP@?$AAk?$AAo?$AAk?$AA?9?$AAI?$AAN@ 000000018002ae28     libucrt:lcidtoname_downlevel.obj
 0002:00006e38       ??_C@_1O@KNHJLDJA@?$AAs?$AAy?$AAr?$AA?9?$AAS?$AAY@ 000000018002ae38     libucrt:lcidtoname_downlevel.obj
 0002:00006e48       ??_C@_1O@MKEKBLAH@?$AAd?$AAi?$AAv?$AA?9?$AAM?$AAV@ 000000018002ae48     libucrt:lcidtoname_downlevel.obj
 0002:00006e58       ??_C@_1O@OHDCKDDF@?$AAq?$AAu?$AAz?$AA?9?$AAB?$AAO@ 000000018002ae58     libucrt:lcidtoname_downlevel.obj
 0002:00006e68       ??_C@_1M@LEPJNLFD@?$AAn?$AAs?$AA?9?$AAZ?$AAA@ 000000018002ae68     libucrt:lcidtoname_downlevel.obj
 0002:00006e78       ??_C@_1M@OMLEIIJB@?$AAm?$AAi?$AA?9?$AAN?$AAZ@ 000000018002ae78     libucrt:lcidtoname_downlevel.obj
 0002:00006e88       ??_C@_1M@PMPEAILG@?$AAa?$AAr?$AA?9?$AAI?$AAQ@ 000000018002ae88     libucrt:lcidtoname_downlevel.obj
 0002:00006e98       ??_C@_1M@CNKPNOEE@?$AAd?$AAe?$AA?9?$AAC?$AAH@ 000000018002ae98     libucrt:lcidtoname_downlevel.obj
 0002:00006ea8       ??_C@_1M@LKMGMLKO@?$AAe?$AAn?$AA?9?$AAG?$AAB@ 000000018002aea8     libucrt:lcidtoname_downlevel.obj
 0002:00006eb8       ??_C@_1M@PGKJFFGL@?$AAe?$AAs?$AA?9?$AAM?$AAX@ 000000018002aeb8     libucrt:lcidtoname_downlevel.obj
 0002:00006ec8       ??_C@_1M@DNNANBDC@?$AAf?$AAr?$AA?9?$AAB?$AAE@ 000000018002aec8     libucrt:lcidtoname_downlevel.obj
 0002:00006ed8       ??_C@_1M@HLGMDFHM@?$AAi?$AAt?$AA?9?$AAC?$AAH@ 000000018002aed8     libucrt:lcidtoname_downlevel.obj
 0002:00006ee8       ??_C@_1M@CLLBGJH@?$AAn?$AAl?$AA?9?$AAB?$AAE@ 000000018002aee8     libucrt:lcidtoname_downlevel.obj
 0002:00006ef8       ??_C@_1M@BODBOGLF@?$AAn?$AAn?$AA?9?$AAN?$AAO@ 000000018002aef8     libucrt:lcidtoname_downlevel.obj
 0002:00006f08       ??_C@_1M@HFFAHKAD@?$AAp?$AAt?$AA?9?$AAP?$AAT@ 000000018002af08     libucrt:lcidtoname_downlevel.obj
 0002:00006f18       ??_C@_1BG@LNOAKHIE@?$AAs?$AAr?$AA?9?$AAS?$AAP?$AA?9?$AAL?$AAa?$AAt?$AAn@ 000000018002af18     libucrt:lcidtoname_downlevel.obj
 0002:00006f30       ??_C@_1M@HBMHBGAK@?$AAs?$AAv?$AA?9?$AAF?$AAI@ 000000018002af30     libucrt:lcidtoname_downlevel.obj
 0002:00006f40       ??_C@_1BG@DGCJGJBE@?$AAa?$AAz?$AA?9?$AAA?$AAZ?$AA?9?$AAC?$AAy?$AAr?$AAl@ 000000018002af40     libucrt:lcidtoname_downlevel.obj
 0002:00006f58       ??_C@_1M@KEJDAAHB@?$AAs?$AAe?$AA?9?$AAS?$AAE@ 000000018002af58     libucrt:lcidtoname_downlevel.obj
 0002:00006f68       ??_C@_1M@HEIBJJAD@?$AAm?$AAs?$AA?9?$AAB?$AAN@ 000000018002af68     libucrt:lcidtoname_downlevel.obj
 0002:00006f78       ??_C@_1BG@PBGJMCEM@?$AAu?$AAz?$AA?9?$AAU?$AAZ?$AA?9?$AAC?$AAy?$AAr?$AAl@ 000000018002af78     libucrt:lcidtoname_downlevel.obj
 0002:00006f90       ??_C@_1O@LAOBCMDF@?$AAq?$AAu?$AAz?$AA?9?$AAE?$AAC@ 000000018002af90     libucrt:lcidtoname_downlevel.obj
 0002:00006fa0       ??_C@_1M@POEEMAIO@?$AAa?$AAr?$AA?9?$AAE?$AAG@ 000000018002afa0     libucrt:lcidtoname_downlevel.obj
 0002:00006fb0       ??_C@_1M@EFAKDEDL@?$AAz?$AAh?$AA?9?$AAH?$AAK@ 000000018002afb0     libucrt:lcidtoname_downlevel.obj
 0002:00006fc0       ??_C@_1M@HKKIJHGI@?$AAd?$AAe?$AA?9?$AAA?$AAT@ 000000018002afc0     libucrt:lcidtoname_downlevel.obj
 0002:00006fd0       ??_C@_1M@KBFBEHJF@?$AAe?$AAn?$AA?9?$AAA?$AAU@ 000000018002afd0     libucrt:lcidtoname_downlevel.obj
 0002:00006fe0       ??_C@_1M@MNPLFAAH@?$AAe?$AAs?$AA?9?$AAE?$AAS@ 000000018002afe0     libucrt:lcidtoname_downlevel.obj
 0002:00006ff0       ??_C@_1M@HJOOJFMA@?$AAf?$AAr?$AA?9?$AAC?$AAA@ 000000018002aff0     libucrt:lcidtoname_downlevel.obj
 0002:00007000       ??_C@_1BG@JPOFPNAB@?$AAs?$AAr?$AA?9?$AAS?$AAP?$AA?9?$AAC?$AAy?$AAr?$AAl@ 000000018002b000     libucrt:lcidtoname_downlevel.obj
 0002:00007018       ??_C@_1M@LNFOCMOB@?$AAs?$AAe?$AA?9?$AAF?$AAI@ 000000018002b018     libucrt:lcidtoname_downlevel.obj
 0002:00007028       ??_C@_1O@MGJBOAMB@?$AAq?$AAu?$AAz?$AA?9?$AAP?$AAE@ 000000018002b028     libucrt:lcidtoname_downlevel.obj
 0002:00007038       ??_C@_1M@GJINLBOK@?$AAa?$AAr?$AA?9?$AAL?$AAY@ 000000018002b038     libucrt:lcidtoname_downlevel.obj
 0002:00007048       ??_C@_1M@GGMNHJNL@?$AAz?$AAh?$AA?9?$AAS?$AAG@ 000000018002b048     libucrt:lcidtoname_downlevel.obj
 0002:00007058       ??_C@_1M@HOIKODND@?$AAd?$AAe?$AA?9?$AAL?$AAU@ 000000018002b058     libucrt:lcidtoname_downlevel.obj
 0002:00007068       ??_C@_1M@DDOCCGFG@?$AAe?$AAn?$AA?9?$AAC?$AAA@ 000000018002b068     libucrt:lcidtoname_downlevel.obj
 0002:00007078       ??_C@_1M@BNOEMJLF@?$AAe?$AAs?$AA?9?$AAG?$AAT@ 000000018002b078     libucrt:lcidtoname_downlevel.obj
 0002:00007088       ??_C@_1M@EOGNKEK@?$AAf?$AAr?$AA?9?$AAC?$AAH@ 000000018002b088     libucrt:lcidtoname_downlevel.obj
 0002:00007098       ??_C@_1M@FLIDJFHL@?$AAh?$AAr?$AA?9?$AAB?$AAA@ 000000018002b098     libucrt:lcidtoname_downlevel.obj
 0002:000070a8       ??_C@_1O@FMCELNAJ@?$AAs?$AAm?$AAj?$AA?9?$AAN?$AAO@ 000000018002b0a8     libucrt:lcidtoname_downlevel.obj
 0002:000070b8       ??_C@_1M@JHGLJMGJ@?$AAa?$AAr?$AA?9?$AAD?$AAZ@ 000000018002b0b8     libucrt:lcidtoname_downlevel.obj
 0002:000070c8       ??_C@_1M@JKKFDCNP@?$AAz?$AAh?$AA?9?$AAM?$AAO@ 000000018002b0c8     libucrt:lcidtoname_downlevel.obj
 0002:000070d8       ??_C@_1M@GEEFALPE@?$AAd?$AAe?$AA?9?$AAL?$AAI@ 000000018002b0d8     libucrt:lcidtoname_downlevel.obj
 0002:000070e8       ??_C@_1M@IGEOFBG@?$AAe?$AAn?$AA?9?$AAN?$AAZ@ 000000018002b0e8     libucrt:lcidtoname_downlevel.obj
 0002:000070f8       ??_C@_1M@KDBONEHP@?$AAe?$AAs?$AA?9?$AAC?$AAR@ 000000018002b0f8     libucrt:lcidtoname_downlevel.obj
 0002:00007108       ??_C@_1M@FHMDOHNN@?$AAf?$AAr?$AA?9?$AAL?$AAU@ 000000018002b108     libucrt:lcidtoname_downlevel.obj
 0002:00007118       ??_C@_1BG@NFKKMAFG@?$AAb?$AAs?$AA?9?$AAB?$AAA?$AA?9?$AAL?$AAa?$AAt?$AAn@ 000000018002b118     libucrt:lcidtoname_downlevel.obj
 0002:00007130       ??_C@_1O@IMNBEMCI@?$AAs?$AAm?$AAj?$AA?9?$AAS?$AAE@ 000000018002b130     libucrt:lcidtoname_downlevel.obj
 0002:00007140       ??_C@_1M@DHHMBNDP@?$AAa?$AAr?$AA?9?$AAM?$AAA@ 000000018002b140     libucrt:lcidtoname_downlevel.obj
 0002:00007150       ??_C@_1M@BNBLJCGH@?$AAe?$AAn?$AA?9?$AAI?$AAE@ 000000018002b150     libucrt:lcidtoname_downlevel.obj
 0002:00007160       ??_C@_1M@GEPAFMDL@?$AAe?$AAs?$AA?9?$AAP?$AAA@ 000000018002b160     libucrt:lcidtoname_downlevel.obj
 0002:00007170       ??_C@_1M@OJONDMDL@?$AAf?$AAr?$AA?9?$AAM?$AAC@ 000000018002b170     libucrt:lcidtoname_downlevel.obj
 0002:00007180       ??_C@_1BG@OBCNFJB@?$AAs?$AAr?$AA?9?$AAB?$AAA?$AA?9?$AAL?$AAa?$AAt?$AAn@ 000000018002b180     libucrt:lcidtoname_downlevel.obj
 0002:00007198       ??_C@_1O@KEMEEGPO@?$AAs?$AAm?$AAa?$AA?9?$AAN?$AAO@ 000000018002b198     libucrt:lcidtoname_downlevel.obj
 0002:000071a8       ??_C@_1M@ELMGFODK@?$AAa?$AAr?$AA?9?$AAT?$AAN@ 000000018002b1a8     libucrt:lcidtoname_downlevel.obj
 0002:000071b8       ??_C@_1M@BHDLHFAF@?$AAe?$AAn?$AA?9?$AAZ?$AAA@ 000000018002b1b8     libucrt:lcidtoname_downlevel.obj
 0002:000071c8       ??_C@_1M@BMGIGLIF@?$AAe?$AAs?$AA?9?$AAD?$AAO@ 000000018002b1c8     libucrt:lcidtoname_downlevel.obj
 0002:000071d8       ??_C@_1BG@CMBHIPBE@?$AAs?$AAr?$AA?9?$AAB?$AAA?$AA?9?$AAC?$AAy?$AAr?$AAl@ 000000018002b1d8     libucrt:lcidtoname_downlevel.obj
 0002:000071f0       ??_C@_1O@HEDBLHNP@?$AAs?$AAm?$AAa?$AA?9?$AAS?$AAE@ 000000018002b1f0     libucrt:lcidtoname_downlevel.obj
 0002:00007200       ??_C@_1M@DAGCADIM@?$AAa?$AAr?$AA?9?$AAO?$AAM@ 000000018002b200     libucrt:lcidtoname_downlevel.obj
 0002:00007210       ??_C@_1M@FODLMICG@?$AAe?$AAn?$AA?9?$AAJ?$AAM@ 000000018002b210     libucrt:lcidtoname_downlevel.obj
 0002:00007220       ??_C@_1M@DNMLCIHB@?$AAe?$AAs?$AA?9?$AAV?$AAE@ 000000018002b220     libucrt:lcidtoname_downlevel.obj
 0002:00007230       ??_C@_1O@EOKHMKJK@?$AAs?$AAm?$AAs?$AA?9?$AAF?$AAI@ 000000018002b230     libucrt:lcidtoname_downlevel.obj
 0002:00007240       ??_C@_1M@CAFJMKOF@?$AAa?$AAr?$AA?9?$AAY?$AAE@ 000000018002b240     libucrt:lcidtoname_downlevel.obj
 0002:00007250       ??_C@_1M@CBFHIJLI@?$AAe?$AAn?$AA?9?$AAC?$AAB@ 000000018002b250     libucrt:lcidtoname_downlevel.obj
 0002:00007260       ??_C@_1M@BGNFLDN@?$AAe?$AAs?$AA?9?$AAC?$AAO@ 000000018002b260     libucrt:lcidtoname_downlevel.obj
 0002:00007270       ??_C@_1O@JMPHMAMC@?$AAs?$AAm?$AAn?$AA?9?$AAF?$AAI@ 000000018002b270     libucrt:lcidtoname_downlevel.obj
 0002:00007280       ??_C@_1M@JLANABKE@?$AAa?$AAr?$AA?9?$AAS?$AAY@ 000000018002b280     libucrt:lcidtoname_downlevel.obj
 0002:00007290       ??_C@_1M@HPKGCFGN@?$AAe?$AAn?$AA?9?$AAB?$AAZ@ 000000018002b290     libucrt:lcidtoname_downlevel.obj
 0002:000072a0       ??_C@_1M@OLJCMLGM@?$AAe?$AAs?$AA?9?$AAP?$AAE@ 000000018002b2a0     libucrt:lcidtoname_downlevel.obj
 0002:000072b0       ??_C@_1M@MKKGFKLE@?$AAa?$AAr?$AA?9?$AAJ?$AAO@ 000000018002b2b0     libucrt:lcidtoname_downlevel.obj
 0002:000072c0       ??_C@_1M@EKPGLDNI@?$AAe?$AAn?$AA?9?$AAT?$AAT@ 000000018002b2c0     libucrt:lcidtoname_downlevel.obj
 0002:000072d0       ??_C@_1M@OONGHFHE@?$AAe?$AAs?$AA?9?$AAA?$AAR@ 000000018002b2d0     libucrt:lcidtoname_downlevel.obj
 0002:000072e0       ??_C@_1M@OOJFGBHE@?$AAa?$AAr?$AA?9?$AAL?$AAB@ 000000018002b2e0     libucrt:lcidtoname_downlevel.obj
 0002:000072f0       ??_C@_1M@GCEJHNEG@?$AAe?$AAn?$AA?9?$AAZ?$AAW@ 000000018002b2f0     libucrt:lcidtoname_downlevel.obj
 0002:00007300       ??_C@_1M@JNOCAHJI@?$AAe?$AAs?$AA?9?$AAE?$AAC@ 000000018002b300     libucrt:lcidtoname_downlevel.obj
 0002:00007310       ??_C@_1M@JEFHPGGB@?$AAa?$AAr?$AA?9?$AAK?$AAW@ 000000018002b310     libucrt:lcidtoname_downlevel.obj
 0002:00007320       ??_C@_1M@MLKIBJOJ@?$AAe?$AAn?$AA?9?$AAP?$AAH@ 000000018002b320     libucrt:lcidtoname_downlevel.obj
 0002:00007330       ??_C@_1M@BDNIPEND@?$AAe?$AAs?$AA?9?$AAC?$AAL@ 000000018002b330     libucrt:lcidtoname_downlevel.obj
 0002:00007340       ??_C@_1M@MPNMEKBD@?$AAa?$AAr?$AA?9?$AAA?$AAE@ 000000018002b340     libucrt:lcidtoname_downlevel.obj
 0002:00007350       ??_C@_1M@KBJALCPI@?$AAe?$AAs?$AA?9?$AAU?$AAY@ 000000018002b350     libucrt:lcidtoname_downlevel.obj
 0002:00007360       ??_C@_1M@LLCCOAGA@?$AAa?$AAr?$AA?9?$AAB?$AAH@ 000000018002b360     libucrt:lcidtoname_downlevel.obj
 0002:00007370       ??_C@_1M@PBFNCDEL@?$AAe?$AAs?$AA?9?$AAP?$AAY@ 000000018002b370     libucrt:lcidtoname_downlevel.obj
 0002:00007380       ??_C@_1M@EDGINPNP@?$AAa?$AAr?$AA?9?$AAQ?$AAA@ 000000018002b380     libucrt:lcidtoname_downlevel.obj
 0002:00007390       ??_C@_1M@MKDBIIJI@?$AAe?$AAs?$AA?9?$AAB?$AAO@ 000000018002b390     libucrt:lcidtoname_downlevel.obj
 0002:000073a0       ??_C@_1M@CPKKEBLD@?$AAe?$AAs?$AA?9?$AAS?$AAV@ 000000018002b3a0     libucrt:lcidtoname_downlevel.obj
 0002:000073b0       ??_C@_1M@NDBGMMJL@?$AAe?$AAs?$AA?9?$AAH?$AAN@ 000000018002b3b0     libucrt:lcidtoname_downlevel.obj
 0002:000073c0       ??_C@_1M@JIJIBHDP@?$AAe?$AAs?$AA?9?$AAN?$AAI@ 000000018002b3c0     libucrt:lcidtoname_downlevel.obj
 0002:000073d0       ??_C@_1M@CGFMKEEK@?$AAe?$AAs?$AA?9?$AAP?$AAR@ 000000018002b3d0     libucrt:lcidtoname_downlevel.obj
 0002:000073e0       ??_C@_1O@ICJHKIIK@?$AAz?$AAh?$AA?9?$AAC?$AAH?$AAT@ 000000018002b3e0     libucrt:lcidtoname_downlevel.obj
 0002:000073f0       ??_C@_15CLNEJCE@?$AAs?$AAr@ 000000018002b3f0     libucrt:lcidtoname_downlevel.obj
 0002:00008240       ??_C@_1M@KAHEKEIG@?$AAa?$AAf?$AA?9?$AAz?$AAa@ 000000018002c240     libucrt:lcidtoname_downlevel.obj
 0002:00008250       ??_C@_1M@GIECOABL@?$AAa?$AAr?$AA?9?$AAa?$AAe@ 000000018002c250     libucrt:lcidtoname_downlevel.obj
 0002:00008260       ??_C@_1M@BMLMEKGI@?$AAa?$AAr?$AA?9?$AAb?$AAh@ 000000018002c260     libucrt:lcidtoname_downlevel.obj
 0002:00008270       ??_C@_1M@DAPFDGGB@?$AAa?$AAr?$AA?9?$AAd?$AAz@ 000000018002c270     libucrt:lcidtoname_downlevel.obj
 0002:00008280       ??_C@_1M@FJNKGKIG@?$AAa?$AAr?$AA?9?$AAe?$AAg@ 000000018002c280     libucrt:lcidtoname_downlevel.obj
 0002:00008290       ??_C@_1M@FLGKKCLO@?$AAa?$AAr?$AA?9?$AAi?$AAq@ 000000018002c290     libucrt:lcidtoname_downlevel.obj
 0002:000082a0       ??_C@_1M@GNDIPALM@?$AAa?$AAr?$AA?9?$AAj?$AAo@ 000000018002c2a0     libucrt:lcidtoname_downlevel.obj
 0002:000082b0       ??_C@_1M@DDMJFMGJ@?$AAa?$AAr?$AA?9?$AAk?$AAw@ 000000018002c2b0     libucrt:lcidtoname_downlevel.obj
 0002:000082c0       ??_C@_1M@EJALMLHM@?$AAa?$AAr?$AA?9?$AAl?$AAb@ 000000018002c2c0     libucrt:lcidtoname_downlevel.obj
 0002:000082d0       ??_C@_1M@MOBDBLOC@?$AAa?$AAr?$AA?9?$AAl?$AAy@ 000000018002c2d0     libucrt:lcidtoname_downlevel.obj
 0002:000082e0       ??_C@_1M@JAOCLHDH@?$AAa?$AAr?$AA?9?$AAm?$AAa@ 000000018002c2e0     libucrt:lcidtoname_downlevel.obj
 0002:000082f0       ??_C@_1M@JHPMKJIE@?$AAa?$AAr?$AA?9?$AAo?$AAm@ 000000018002c2f0     libucrt:lcidtoname_downlevel.obj
 0002:00008300       ??_C@_1M@OEPGHFNH@?$AAa?$AAr?$AA?9?$AAq?$AAa@ 000000018002c300     libucrt:lcidtoname_downlevel.obj
 0002:00008310       ??_C@_1M@KJDONENM@?$AAa?$AAr?$AA?9?$AAs?$AAa@ 000000018002c310     libucrt:lcidtoname_downlevel.obj
 0002:00008320       ??_C@_1M@DMJDKLKM@?$AAa?$AAr?$AA?9?$AAs?$AAy@ 000000018002c320     libucrt:lcidtoname_downlevel.obj
 0002:00008330       ??_C@_1M@OMFIPEDC@?$AAa?$AAr?$AA?9?$AAt?$AAn@ 000000018002c330     libucrt:lcidtoname_downlevel.obj
 0002:00008340       ??_C@_1M@IHMHGAON@?$AAa?$AAr?$AA?9?$AAy?$AAe@ 000000018002c340     libucrt:lcidtoname_downlevel.obj
 0002:00008350       ??_C@_1BG@KDCPGJGB@?$AAa?$AAz?$AA?9?$AAa?$AAz?$AA?9?$AAc?$AAy?$AAr?$AAl@ 000000018002c350     libucrt:lcidtoname_downlevel.obj
 0002:00008368       ??_C@_1BG@IBCKDDOE@?$AAa?$AAz?$AA?9?$AAa?$AAz?$AA?9?$AAl?$AAa?$AAt?$AAn@ 000000018002c368     libucrt:lcidtoname_downlevel.obj
 0002:00008380       ??_C@_1M@EGPFDCPD@?$AAb?$AAe?$AA?9?$AAb?$AAy@ 000000018002c380     libucrt:lcidtoname_downlevel.obj
 0002:00008390       ??_C@_1M@PCMGMCGC@?$AAb?$AAg?$AA?9?$AAb?$AAg@ 000000018002c390     libucrt:lcidtoname_downlevel.obj
 0002:000083a0       ??_C@_1M@BJBMFGOB@?$AAb?$AAn?$AA?9?$AAi?$AAn@ 000000018002c3a0     libucrt:lcidtoname_downlevel.obj
 0002:000083b0       ??_C@_1BG@EAKMMACD@?$AAb?$AAs?$AA?9?$AAb?$AAa?$AA?9?$AAl?$AAa?$AAt?$AAn@ 000000018002c3b0     libucrt:lcidtoname_downlevel.obj
 0002:000083c8       ??_C@_1M@KGADAODK@?$AAc?$AAa?$AA?9?$AAe?$AAs@ 000000018002c3c8     libucrt:lcidtoname_downlevel.obj
 0002:000083d8       ??_C@_1M@COAJPDHI@?$AAc?$AAs?$AA?9?$AAc?$AAz@ 000000018002c3d8     libucrt:lcidtoname_downlevel.obj
 0002:000083e8       ??_C@_1M@DHBHFONH@?$AAc?$AAy?$AA?9?$AAg?$AAb@ 000000018002c3e8     libucrt:lcidtoname_downlevel.obj
 0002:000083f8       ??_C@_1M@IMGKELGA@?$AAd?$AAa?$AA?9?$AAd?$AAk@ 000000018002c3f8     libucrt:lcidtoname_downlevel.obj
 0002:00008408       ??_C@_1M@NNDGDNGA@?$AAd?$AAe?$AA?9?$AAa?$AAt@ 000000018002c408     libucrt:lcidtoname_downlevel.obj
 0002:00008418       ??_C@_1M@IKDBHEEM@?$AAd?$AAe?$AA?9?$AAc?$AAh@ 000000018002c418     libucrt:lcidtoname_downlevel.obj
 0002:00008428       ??_C@_1M@GFFOJMCJ@?$AAd?$AAe?$AA?9?$AAd?$AAe@ 000000018002c428     libucrt:lcidtoname_downlevel.obj
 0002:00008438       ??_C@_1M@MDNLKBPM@?$AAd?$AAe?$AA?9?$AAl?$AAi@ 000000018002c438     libucrt:lcidtoname_downlevel.obj
 0002:00008448       ??_C@_1M@NJBEEJNL@?$AAd?$AAe?$AA?9?$AAl?$AAu@ 000000018002c448     libucrt:lcidtoname_downlevel.obj
 0002:00008458       ??_C@_1O@GNNELBAP@?$AAd?$AAi?$AAv?$AA?9?$AAm?$AAv@ 000000018002c458     libucrt:lcidtoname_downlevel.obj
 0002:00008468       ??_C@_1M@EJLEOGAE@?$AAe?$AAl?$AA?9?$AAg?$AAr@ 000000018002c468     libucrt:lcidtoname_downlevel.obj
 0002:00008478       ??_C@_1M@GMPONJN@?$AAe?$AAn?$AA?9?$AAa?$AAu@ 000000018002c478     libucrt:lcidtoname_downlevel.obj
 0002:00008488       ??_C@_1M@NIDIIPGF@?$AAe?$AAn?$AA?9?$AAb?$AAz@ 000000018002c488     libucrt:lcidtoname_downlevel.obj
 0002:00008498       ??_C@_1M@JEHMIMFO@?$AAe?$AAn?$AA?9?$AAc?$AAa@ 000000018002c498     libucrt:lcidtoname_downlevel.obj
 0002:000084a8       ??_C@_1M@IGMJCDLA@?$AAe?$AAn?$AA?9?$AAc?$AAb@ 000000018002c4a8     libucrt:lcidtoname_downlevel.obj
 0002:000084b8       ??_C@_1M@BNFIGBKG@?$AAe?$AAn?$AA?9?$AAg?$AAb@ 000000018002c4b8     libucrt:lcidtoname_downlevel.obj
 0002:000084c8       ??_C@_1M@LKIFDIGP@?$AAe?$AAn?$AA?9?$AAi?$AAe@ 000000018002c4c8     libucrt:lcidtoname_downlevel.obj
 0002:000084d8       ??_C@_1M@PJKFGCCO@?$AAe?$AAn?$AA?9?$AAj?$AAm@ 000000018002c4d8     libucrt:lcidtoname_downlevel.obj
 0002:000084e8       ??_C@_1M@KPPKEPBO@?$AAe?$AAn?$AA?9?$AAn?$AAz@ 000000018002c4e8     libucrt:lcidtoname_downlevel.obj
 0002:000084f8       ??_C@_1M@GMDGLDOB@?$AAe?$AAn?$AA?9?$AAp?$AAh@ 000000018002c4f8     libucrt:lcidtoname_downlevel.obj
 0002:00008508       ??_C@_1M@ONGIBJNA@?$AAe?$AAn?$AA?9?$AAt?$AAt@ 000000018002c508     libucrt:lcidtoname_downlevel.obj
 0002:00008518       ??_C@_1M@LLODPCMM@?$AAe?$AAn?$AA?9?$AAu?$AAs@ 000000018002c518     libucrt:lcidtoname_downlevel.obj
 0002:00008528       ??_C@_1M@LAKFNPAN@?$AAe?$AAn?$AA?9?$AAz?$AAa@ 000000018002c528     libucrt:lcidtoname_downlevel.obj
 0002:00008538       ??_C@_1M@MFNHNHEO@?$AAe?$AAn?$AA?9?$AAz?$AAw@ 000000018002c538     libucrt:lcidtoname_downlevel.obj
 0002:00008548       ??_C@_1M@EJEINPHM@?$AAe?$AAs?$AA?9?$AAa?$AAr@ 000000018002c548     libucrt:lcidtoname_downlevel.obj
 0002:00008558       ??_C@_1M@GNKPCCJA@?$AAe?$AAs?$AA?9?$AAb?$AAo@ 000000018002c558     libucrt:lcidtoname_downlevel.obj
 0002:00008568       ??_C@_1M@LEEGFONL@?$AAe?$AAs?$AA?9?$AAc?$AAl@ 000000018002c568     libucrt:lcidtoname_downlevel.obj
 0002:00008578       ??_C@_1M@KGPDPBDF@?$AAe?$AAs?$AA?9?$AAc?$AAo@ 000000018002c578     libucrt:lcidtoname_downlevel.obj
 0002:00008588       ??_C@_1M@EIAHOHH@?$AAe?$AAs?$AA?9?$AAc?$AAr@ 000000018002c588     libucrt:lcidtoname_downlevel.obj
 0002:00008598       ??_C@_1M@LLPGMBIN@?$AAe?$AAs?$AA?9?$AAd?$AAo@ 000000018002c598     libucrt:lcidtoname_downlevel.obj
 0002:000085a8       ??_C@_1M@DKHMKNJA@?$AAe?$AAs?$AA?9?$AAe?$AAc@ 000000018002c5a8     libucrt:lcidtoname_downlevel.obj
 0002:000085b8       ??_C@_1M@GKGFPKAP@?$AAe?$AAs?$AA?9?$AAe?$AAs@ 000000018002c5b8     libucrt:lcidtoname_downlevel.obj
 0002:000085c8       ??_C@_1M@LKHKGDLN@?$AAe?$AAs?$AA?9?$AAg?$AAt@ 000000018002c5c8     libucrt:lcidtoname_downlevel.obj
 0002:000085d8       ??_C@_1M@HEIIGGJD@?$AAe?$AAs?$AA?9?$AAh?$AAn@ 000000018002c5d8     libucrt:lcidtoname_downlevel.obj
 0002:000085e8       ??_C@_1M@FBDHPPGD@?$AAe?$AAs?$AA?9?$AAm?$AAx@ 000000018002c5e8     libucrt:lcidtoname_downlevel.obj
 0002:000085f8       ??_C@_1M@DPAGLNDH@?$AAe?$AAs?$AA?9?$AAn?$AAi@ 000000018002c5f8     libucrt:lcidtoname_downlevel.obj
 0002:00008608       ??_C@_1M@MDGOPGDD@?$AAe?$AAs?$AA?9?$AAp?$AAa@ 000000018002c608     libucrt:lcidtoname_downlevel.obj
 0002:00008618       ??_C@_1M@EMAMGBGE@?$AAe?$AAs?$AA?9?$AAp?$AAe@ 000000018002c618     libucrt:lcidtoname_downlevel.obj
 0002:00008628       ??_C@_1M@IBMCAOEC@?$AAe?$AAs?$AA?9?$AAp?$AAr@ 000000018002c628     libucrt:lcidtoname_downlevel.obj
 0002:00008638       ??_C@_1M@FGMDIJED@?$AAe?$AAs?$AA?9?$AAp?$AAy@ 000000018002c638     libucrt:lcidtoname_downlevel.obj
 0002:00008648       ??_C@_1M@IIDEOLLL@?$AAe?$AAs?$AA?9?$AAs?$AAv@ 000000018002c648     libucrt:lcidtoname_downlevel.obj
 0002:00008658       ??_C@_1M@GAOBIPA@?$AAe?$AAs?$AA?9?$AAu?$AAy@ 000000018002c658     libucrt:lcidtoname_downlevel.obj
 0002:00008668       ??_C@_1M@JKFFICHJ@?$AAe?$AAs?$AA?9?$AAv?$AAe@ 000000018002c668     libucrt:lcidtoname_downlevel.obj
 0002:00008678       ??_C@_1M@PNMLOJDF@?$AAe?$AAt?$AA?9?$AAe?$AAe@ 000000018002c678     libucrt:lcidtoname_downlevel.obj
 0002:00008688       ??_C@_1M@GHHLIKEI@?$AAe?$AAu?$AA?9?$AAe?$AAs@ 000000018002c688     libucrt:lcidtoname_downlevel.obj
 0002:00008698       ??_C@_1M@PBNONODE@?$AAf?$AAa?$AA?9?$AAi?$AAr@ 000000018002c698     libucrt:lcidtoname_downlevel.obj
 0002:000086a8       ??_C@_1M@JEEHPMIL@?$AAf?$AAi?$AA?9?$AAf?$AAi@ 000000018002c6a8     libucrt:lcidtoname_downlevel.obj
 0002:000086b8       ??_C@_1M@LMDCNDBA@?$AAf?$AAo?$AA?9?$AAf?$AAo@ 000000018002c6b8     libucrt:lcidtoname_downlevel.obj
 0002:000086c8       ??_C@_1M@JKEOHLDK@?$AAf?$AAr?$AA?9?$AAb?$AAe@ 000000018002c6c8     libucrt:lcidtoname_downlevel.obj
 0002:000086d8       ??_C@_1M@NOHADPMI@?$AAf?$AAr?$AA?9?$AAc?$AAa@ 000000018002c6d8     libucrt:lcidtoname_downlevel.obj
 0002:000086e8       ??_C@_1M@KDHIHAEC@?$AAf?$AAr?$AA?9?$AAc?$AAh@ 000000018002c6e8     libucrt:lcidtoname_downlevel.obj
 0002:000086f8       ??_C@_1M@MMBBFGAK@?$AAf?$AAr?$AA?9?$AAf?$AAr@ 000000018002c6f8     libucrt:lcidtoname_downlevel.obj
 0002:00008708       ??_C@_1M@PAFNENNF@?$AAf?$AAr?$AA?9?$AAl?$AAu@ 000000018002c708     libucrt:lcidtoname_downlevel.obj
 0002:00008718       ??_C@_1M@EOHDJGDD@?$AAf?$AAr?$AA?9?$AAm?$AAc@ 000000018002c718     libucrt:lcidtoname_downlevel.obj
 0002:00008728       ??_C@_1M@FAPLLOPF@?$AAg?$AAl?$AA?9?$AAe?$AAs@ 000000018002c728     libucrt:lcidtoname_downlevel.obj
 0002:00008738       ??_C@_1M@FOPBFLOO@?$AAg?$AAu?$AA?9?$AAi?$AAn@ 000000018002c738     libucrt:lcidtoname_downlevel.obj
 0002:00008748       ??_C@_1M@KBMCINPM@?$AAh?$AAe?$AA?9?$AAi?$AAl@ 000000018002c748     libucrt:lcidtoname_downlevel.obj
 0002:00008758       ??_C@_1M@BBPHKFPJ@?$AAh?$AAi?$AA?9?$AAi?$AAn@ 000000018002c758     libucrt:lcidtoname_downlevel.obj
 0002:00008768       ??_C@_1M@PMBNDPHD@?$AAh?$AAr?$AA?9?$AAb?$AAa@ 000000018002c768     libucrt:lcidtoname_downlevel.obj
 0002:00008778       ??_C@_1M@BPCKOEGE@?$AAh?$AAr?$AA?9?$AAh?$AAr@ 000000018002c778     libucrt:lcidtoname_downlevel.obj
 0002:00008788       ??_C@_1M@GACBMHKE@?$AAh?$AAu?$AA?9?$AAh?$AAu@ 000000018002c788     libucrt:lcidtoname_downlevel.obj
 0002:00008798       ??_C@_1M@MILPAJJC@?$AAh?$AAy?$AA?9?$AAa?$AAm@ 000000018002c798     libucrt:lcidtoname_downlevel.obj
 0002:000087a8       ??_C@_1M@BABBICEC@?$AAi?$AAd?$AA?9?$AAi?$AAd@ 000000018002c7a8     libucrt:lcidtoname_downlevel.obj
 0002:000087b8       ??_C@_1M@BIKNHHPF@?$AAi?$AAs?$AA?9?$AAi?$AAs@ 000000018002c7b8     libucrt:lcidtoname_downlevel.obj
 0002:000087c8       ??_C@_1M@NMPCJPHE@?$AAi?$AAt?$AA?9?$AAc?$AAh@ 000000018002c7c8     libucrt:lcidtoname_downlevel.obj
 0002:000087d8       ??_C@_1M@GHKGFEDF@?$AAi?$AAt?$AA?9?$AAi?$AAt@ 000000018002c7d8     libucrt:lcidtoname_downlevel.obj
 0002:000087e8       ??_C@_1M@NIEJCJJA@?$AAj?$AAa?$AA?9?$AAj?$AAp@ 000000018002c7e8     libucrt:lcidtoname_downlevel.obj
 0002:000087f8       ??_C@_1M@JILFNBIM@?$AAk?$AAa?$AA?9?$AAg?$AAe@ 000000018002c7f8     libucrt:lcidtoname_downlevel.obj
 0002:00008808       ??_C@_1M@PACPMGPH@?$AAk?$AAk?$AA?9?$AAk?$AAz@ 000000018002c808     libucrt:lcidtoname_downlevel.obj
 0002:00008818       ??_C@_1M@IELFGMHA@?$AAk?$AAn?$AA?9?$AAi?$AAn@ 000000018002c818     libucrt:lcidtoname_downlevel.obj
 0002:00008828       ??_C@_1O@IBBJHCH@?$AAk?$AAo?$AAk?$AA?9?$AAi?$AAn@ 000000018002c828     libucrt:lcidtoname_downlevel.obj
 0002:00008838       ??_C@_1M@DMHAEOGC@?$AAk?$AAo?$AA?9?$AAk?$AAr@ 000000018002c838     libucrt:lcidtoname_downlevel.obj
 0002:00008848       ??_C@_1M@HBAHBIGA@?$AAk?$AAy?$AA?9?$AAk?$AAg@ 000000018002c848     libucrt:lcidtoname_downlevel.obj
 0002:00008858       ??_C@_1M@KPMILCJG@?$AAl?$AAt?$AA?9?$AAl?$AAt@ 000000018002c858     libucrt:lcidtoname_downlevel.obj
 0002:00008868       ??_C@_1M@BDEKKCA@?$AAl?$AAv?$AA?9?$AAl?$AAv@ 000000018002c868     libucrt:lcidtoname_downlevel.obj
 0002:00008878       ??_C@_1M@ELCKCCJJ@?$AAm?$AAi?$AA?9?$AAn?$AAz@ 000000018002c878     libucrt:lcidtoname_downlevel.obj
 0002:00008888       ??_C@_1M@CBOOLAPA@?$AAm?$AAk?$AA?9?$AAm?$AAk@ 000000018002c888     libucrt:lcidtoname_downlevel.obj
 0002:00008898       ??_C@_1M@GPHNBJKN@?$AAm?$AAl?$AA?9?$AAi?$AAn@ 000000018002c898     libucrt:lcidtoname_downlevel.obj
 0002:000088a8       ??_C@_1M@PABJILIG@?$AAm?$AAn?$AA?9?$AAm?$AAn@ 000000018002c8a8     libucrt:lcidtoname_downlevel.obj
 0002:000088b8       ??_C@_1M@FGBKKIPG@?$AAm?$AAr?$AA?9?$AAi?$AAn@ 000000018002c8b8     libucrt:lcidtoname_downlevel.obj
 0002:000088c8       ??_C@_1M@NDBPDDAL@?$AAm?$AAs?$AA?9?$AAb?$AAn@ 000000018002c8c8     libucrt:lcidtoname_downlevel.obj
 0002:000088d8       ??_C@_1M@OPIHOOPI@?$AAm?$AAs?$AA?9?$AAm?$AAy@ 000000018002c8d8     libucrt:lcidtoname_downlevel.obj
 0002:000088e8       ??_C@_1M@PPDBCNFM@?$AAm?$AAt?$AA?9?$AAm?$AAt@ 000000018002c8e8     libucrt:lcidtoname_downlevel.obj
 0002:000088f8       ??_C@_1M@KDJDKMDD@?$AAn?$AAb?$AA?9?$AAn?$AAo@ 000000018002c8f8     libucrt:lcidtoname_downlevel.obj
 0002:00008908       ??_C@_1M@KFCFLMJP@?$AAn?$AAl?$AA?9?$AAb?$AAe@ 000000018002c908     libucrt:lcidtoname_downlevel.obj
 0002:00008918       ??_C@_1M@KPOPDDGO@?$AAn?$AAl?$AA?9?$AAn?$AAl@ 000000018002c918     libucrt:lcidtoname_downlevel.obj
 0002:00008928       ??_C@_1M@LJKPEMLN@?$AAn?$AAn?$AA?9?$AAn?$AAo@ 000000018002c928     libucrt:lcidtoname_downlevel.obj
 0002:00008938       ??_C@_1M@BDGHHBFL@?$AAn?$AAs?$AA?9?$AAz?$AAa@ 000000018002c938     libucrt:lcidtoname_downlevel.obj
 0002:00008948       ??_C@_1M@IDEHOAP@?$AAp?$AAa?$AA?9?$AAi?$AAn@ 000000018002c948     libucrt:lcidtoname_downlevel.obj
 0002:00008958       ??_C@_1M@HDBKGOGH@?$AAp?$AAl?$AA?9?$AAp?$AAl@ 000000018002c958     libucrt:lcidtoname_downlevel.obj
 0002:00008968       ??_C@_1M@LJLLCMEH@?$AAp?$AAt?$AA?9?$AAb?$AAr@ 000000018002c968     libucrt:lcidtoname_downlevel.obj
 0002:00008978       ??_C@_1M@NCMONAAL@?$AAp?$AAt?$AA?9?$AAp?$AAt@ 000000018002c978     libucrt:lcidtoname_downlevel.obj
 0002:00008988       ??_C@_1O@EAKMAJDN@?$AAq?$AAu?$AAz?$AA?9?$AAb?$AAo@ 000000018002c988     libucrt:lcidtoname_downlevel.obj
 0002:00008998       ??_C@_1O@BHHPIGDN@?$AAq?$AAu?$AAz?$AA?9?$AAe?$AAc@ 000000018002c998     libucrt:lcidtoname_downlevel.obj
 0002:000089a8       ??_C@_1O@GBAPEKMJ@?$AAq?$AAu?$AAz?$AA?9?$AAp?$AAe@ 000000018002c9a8     libucrt:lcidtoname_downlevel.obj
 0002:000089b8       ??_C@_1M@CLGLEFBO@?$AAr?$AAo?$AA?9?$AAr?$AAo@ 000000018002c9b8     libucrt:lcidtoname_downlevel.obj
 0002:000089c8       ??_C@_1M@CEEDODME@?$AAr?$AAu?$AA?9?$AAr?$AAu@ 000000018002c9c8     libucrt:lcidtoname_downlevel.obj
 0002:000089d8       ??_C@_1M@HPKKKMPP@?$AAs?$AAa?$AA?9?$AAi?$AAn@ 000000018002c9d8     libucrt:lcidtoname_downlevel.obj
 0002:000089e8       ??_C@_1M@BKMAIGOJ@?$AAs?$AAe?$AA?9?$AAf?$AAi@ 000000018002c9e8     libucrt:lcidtoname_downlevel.obj
 0002:000089f8       ??_C@_1M@NDPIFLFI@?$AAs?$AAe?$AA?9?$AAn?$AAo@ 000000018002c9f8     libucrt:lcidtoname_downlevel.obj
 0002:00008a08       ??_C@_1M@DANKKHJ@?$AAs?$AAe?$AA?9?$AAs?$AAe@ 000000018002ca08     libucrt:lcidtoname_downlevel.obj
 0002:00008a18       ??_C@_1M@PNBLONPJ@?$AAs?$AAk?$AA?9?$AAs?$AAk@ 000000018002ca18     libucrt:lcidtoname_downlevel.obj
 0002:00008a28       ??_C@_1M@LFMODOAL@?$AAs?$AAl?$AA?9?$AAs?$AAi@ 000000018002ca28     libucrt:lcidtoname_downlevel.obj
 0002:00008a38       ??_C@_1O@DFKOMPG@?$AAs?$AAm?$AAa?$AA?9?$AAn?$AAo@ 000000018002ca38     libucrt:lcidtoname_downlevel.obj
 0002:00008a48       ??_C@_1O@NDKPBNNH@?$AAs?$AAm?$AAa?$AA?9?$AAs?$AAe@ 000000018002ca48     libucrt:lcidtoname_downlevel.obj
 0002:00008a58       ??_C@_1O@PLLKBHAB@?$AAs?$AAm?$AAj?$AA?9?$AAn?$AAo@ 000000018002ca58     libucrt:lcidtoname_downlevel.obj
 0002:00008a68       ??_C@_1O@CLEPOGCA@?$AAs?$AAm?$AAj?$AA?9?$AAs?$AAe@ 000000018002ca68     libucrt:lcidtoname_downlevel.obj
 0002:00008a78       ??_C@_1O@DLGJGKMK@?$AAs?$AAm?$AAn?$AA?9?$AAf?$AAi@ 000000018002ca78     libucrt:lcidtoname_downlevel.obj
 0002:00008a88       ??_C@_1O@OJDJGAJC@?$AAs?$AAm?$AAs?$AA?9?$AAf?$AAi@ 000000018002ca88     libucrt:lcidtoname_downlevel.obj
 0002:00008a98       ??_C@_1M@BOFOGHPB@?$AAs?$AAq?$AA?9?$AAa?$AAl@ 000000018002ca98     libucrt:lcidtoname_downlevel.obj
 0002:00008aa8       ??_C@_1BG@LJBBIPGB@?$AAs?$AAr?$AA?9?$AAb?$AAa?$AA?9?$AAc?$AAy?$AAr?$AAl@ 000000018002caa8     libucrt:lcidtoname_downlevel.obj
 0002:00008ac0       ??_C@_1BG@JLBENFOE@?$AAs?$AAr?$AA?9?$AAb?$AAa?$AA?9?$AAl?$AAa?$AAt?$AAn@ 000000018002cac0     libucrt:lcidtoname_downlevel.obj
 0002:00008ad8       ??_C@_1BG@KODPNHE@?$AAs?$AAr?$AA?9?$AAs?$AAp?$AA?9?$AAc?$AAy?$AAr?$AAl@ 000000018002cad8     libucrt:lcidtoname_downlevel.obj
 0002:00008af0       ??_C@_1BG@CIOGKHPB@?$AAs?$AAr?$AA?9?$AAs?$AAp?$AA?9?$AAl?$AAa?$AAt?$AAn@ 000000018002caf0     libucrt:lcidtoname_downlevel.obj
 0002:00008b08       ??_C@_1M@NGFJLMAC@?$AAs?$AAv?$AA?9?$AAf?$AAi@ 000000018002cb08     libucrt:lcidtoname_downlevel.obj
 0002:00008b18       ??_C@_1M@MPJEJAJC@?$AAs?$AAv?$AA?9?$AAs?$AAe@ 000000018002cb18     libucrt:lcidtoname_downlevel.obj
 0002:00008b28       ??_C@_1M@MPNDHLFK@?$AAs?$AAw?$AA?9?$AAk?$AAe@ 000000018002cb28     libucrt:lcidtoname_downlevel.obj
 0002:00008b38       ??_C@_1O@KOHBJJI@?$AAs?$AAy?$AAr?$AA?9?$AAs?$AAy@ 000000018002cb38     libucrt:lcidtoname_downlevel.obj
 0002:00008b48       ??_C@_1M@LDCEFHA@?$AAt?$AAa?$AA?9?$AAi?$AAn@ 000000018002cb48     libucrt:lcidtoname_downlevel.obj
 0002:00008b58       ??_C@_1M@CNJOFAK@?$AAt?$AAe?$AA?9?$AAi?$AAn@ 000000018002cb58     libucrt:lcidtoname_downlevel.obj
 0002:00008b68       ??_C@_1M@GNAECACD@?$AAt?$AAh?$AA?9?$AAt?$AAh@ 000000018002cb68     libucrt:lcidtoname_downlevel.obj
 0002:00008b78       ??_C@_1M@CHBIHOJO@?$AAt?$AAn?$AA?9?$AAz?$AAa@ 000000018002cb78     libucrt:lcidtoname_downlevel.obj
 0002:00008b88       ??_C@_1M@GCCMIGPJ@?$AAt?$AAr?$AA?9?$AAt?$AAr@ 000000018002cb88     libucrt:lcidtoname_downlevel.obj
 0002:00008b98       ??_C@_1M@CELMCNBK@?$AAt?$AAt?$AA?9?$AAr?$AAu@ 000000018002cb98     libucrt:lcidtoname_downlevel.obj
 0002:00008ba8       ??_C@_1M@KLMCELGA@?$AAu?$AAk?$AA?9?$AAu?$AAa@ 000000018002cba8     libucrt:lcidtoname_downlevel.obj
 0002:00008bb8       ??_C@_1M@EPAJJAJF@?$AAu?$AAr?$AA?9?$AAp?$AAk@ 000000018002cbb8     libucrt:lcidtoname_downlevel.obj
 0002:00008bc8       ??_C@_1BG@GEGPMCDJ@?$AAu?$AAz?$AA?9?$AAu?$AAz?$AA?9?$AAc?$AAy?$AAr?$AAl@ 000000018002cbc8     libucrt:lcidtoname_downlevel.obj
 0002:00008be0       ??_C@_1BG@EGGKJILM@?$AAu?$AAz?$AA?9?$AAu?$AAz?$AA?9?$AAl?$AAa?$AAt?$AAn@ 000000018002cbe0     libucrt:lcidtoname_downlevel.obj
 0002:00008bf8       ??_C@_1M@GFOCLFF@?$AAv?$AAi?$AA?9?$AAv?$AAn@ 000000018002cbf8     libucrt:lcidtoname_downlevel.obj
 0002:00008c08       ??_C@_1M@CPAMEDFI@?$AAx?$AAh?$AA?9?$AAz?$AAa@ 000000018002cc08     libucrt:lcidtoname_downlevel.obj
 0002:00008c18       ??_C@_1O@EBKIFIGN@?$AAz?$AAh?$AA?9?$AAc?$AAh?$AAs@ 000000018002cc18     libucrt:lcidtoname_downlevel.obj
 0002:00008c28       ??_C@_1O@NMHPGANE@?$AAz?$AAh?$AA?9?$AAc?$AAh?$AAt@ 000000018002cc28     libucrt:lcidtoname_downlevel.obj
 0002:00008c38       ??_C@_1M@LPINJOMC@?$AAz?$AAh?$AA?9?$AAc?$AAn@ 000000018002cc38     libucrt:lcidtoname_downlevel.obj
 0002:00008c48       ??_C@_1M@OCJEJODD@?$AAz?$AAh?$AA?9?$AAh?$AAk@ 000000018002cc48     libucrt:lcidtoname_downlevel.obj
 0002:00008c58       ??_C@_1M@DNDLJINH@?$AAz?$AAh?$AA?9?$AAm?$AAo@ 000000018002cc58     libucrt:lcidtoname_downlevel.obj
 0002:00008c68       ??_C@_1M@MBFDNDND@?$AAz?$AAh?$AA?9?$AAs?$AAg@ 000000018002cc68     libucrt:lcidtoname_downlevel.obj
 0002:00008c78       ??_C@_1M@IMEPLEPE@?$AAz?$AAh?$AA?9?$AAt?$AAw@ 000000018002cc78     libucrt:lcidtoname_downlevel.obj
 0002:00008c88       ??_C@_1M@BBGHNHJP@?$AAz?$AAu?$AA?9?$AAz?$AAa@ 000000018002cc88     libucrt:lcidtoname_downlevel.obj
 0002:00008ca0       ?large_power_data@?1??multiply_by_power_of_ten@__crt_strtox@@YA_NAEAUbig_integer@2@I@Z@4QBIB 000000018002cca0     libucrt:cfout.obj
 0002:000095b0       ?large_power_indices@?1??multiply_by_power_of_ten@__crt_strtox@@YA_NAEAUbig_integer@2@I@Z@4QBUunpack_index@?1??12@YA_N0I@Z@B 000000018002d5b0     libucrt:cfout.obj
 0002:00009648       ?small_powers_of_ten@?1??multiply_by_power_of_ten@__crt_strtox@@YA_NAEAUbig_integer@2@I@Z@4QBIB 000000018002d648     libucrt:cfout.obj
 0002:0000966c       ??_C@_01GBGANLPD@0@        000000018002d66c     libucrt:cfout.obj
 0002:00009670       ??_C@_05DNEBIAHO@1?$CDINF@ 000000018002d670     libucrt:cfout.obj
 0002:00009678       ??_C@_06IMKFLFPG@1?$CDQNAN@ 000000018002d678     libucrt:cfout.obj
 0002:00009680       ??_C@_06PGGFOGJG@1?$CDSNAN@ 000000018002d680     libucrt:cfout.obj
 0002:00009688       ??_C@_05PHHOCPM@1?$CDIND@  000000018002d688     libucrt:cfout.obj
 0002:00009690       __real@3ff0000000000000    000000018002d690     libucrt:ceil.obj
 0002:000098f0       __log10_256_lead           000000018002d8f0     libucrt:log10_256_lead_tail_table.obj
 0002:0000a100       __log10_256_tail           000000018002e100     libucrt:log10_256_lead_tail_table.obj
 0002:0000a910       __log_F_inv_qword          000000018002e910     libucrt:log_f_inv_qword_table.obj
 0002:0000b120       ??_C@_05HGHHAHAP@log10@    000000018002f120     libucrt:log_special.obj
 0002:0000b128       ??_C@_1BA@BALFACEM@?$AAC?$AAO?$AAN?$AAO?$AAU?$AAT?$AA$@ 000000018002f128     libucrt:initcon.obj
 0002:0000b1b0       _load_config_used          000000018002f1b0     LIBCMT:loadcfg.obj
 0002:0000b300       _tls_used                  000000018002f300     LIBCMT:tlssup.obj
 0002:0000b328       ??_R4exception@std@@6B@    000000018002f328     LIBCMT:throw_bad_alloc.obj
 0002:0000b350       ??_R3exception@std@@8      000000018002f350     LIBCMT:throw_bad_alloc.obj
 0002:0000b368       ??_R2exception@std@@8      000000018002f368     LIBCMT:throw_bad_alloc.obj
 0002:0000b378       ??_R1A@?0A@EA@exception@std@@8 000000018002f378     LIBCMT:throw_bad_alloc.obj
 0002:0000b3a0       ??_R4bad_alloc@std@@6B@    000000018002f3a0     LIBCMT:throw_bad_alloc.obj
 0002:0000b3c8       ??_R3bad_alloc@std@@8      000000018002f3c8     LIBCMT:throw_bad_alloc.obj
 0002:0000b3e0       ??_R2bad_alloc@std@@8      000000018002f3e0     LIBCMT:throw_bad_alloc.obj
 0002:0000b3f8       ??_R1A@?0A@EA@bad_alloc@std@@8 000000018002f3f8     LIBCMT:throw_bad_alloc.obj
 0002:0000b420       ??_R4bad_array_new_length@std@@6B@ 000000018002f420     LIBCMT:throw_bad_alloc.obj
 0002:0000b448       ??_R3bad_array_new_length@std@@8 000000018002f448     LIBCMT:throw_bad_alloc.obj
 0002:0000b460       ??_R2bad_array_new_length@std@@8 000000018002f460     LIBCMT:throw_bad_alloc.obj
 0002:0000b480       ??_R1A@?0A@EA@bad_array_new_length@std@@8 000000018002f480     LIBCMT:throw_bad_alloc.obj
 0002:0000b4a8       ??_R4type_info@@6B@        000000018002f4a8     LIBCMT:std_type_info_static.obj
 0002:0000b4d0       ??_R3type_info@@8          000000018002f4d0     LIBCMT:std_type_info_static.obj
 0002:0000b4e8       ??_R2type_info@@8          000000018002f4e8     LIBCMT:std_type_info_static.obj
 0002:0000b4f8       ??_R1A@?0A@EA@type_info@@8 000000018002f4f8     LIBCMT:std_type_info_static.obj
 0002:0000b520       ??_R4bad_exception@std@@6B@ 000000018002f520     libvcruntime:frame.obj
 0002:0000b548       ??_R3bad_exception@std@@8  000000018002f548     libvcruntime:frame.obj
 0002:0000b560       ??_R2bad_exception@std@@8  000000018002f560     libvcruntime:frame.obj
 0002:0000b578       ??_R1A@?0A@EA@bad_exception@std@@8 000000018002f578     libvcruntime:frame.obj
 0002:0000b9a0       __rtc_iaa                  000000018002f9a0     LIBCMT:initsect.obj
 0002:0000b9a8       __rtc_izz                  000000018002f9a8     LIBCMT:initsect.obj
 0002:0000b9b0       __rtc_taa                  000000018002f9b0     LIBCMT:initsect.obj
 0002:0000b9b8       __rtc_tzz                  000000018002f9b8     LIBCMT:initsect.obj
 0002:0000b9c0       _tls_start                 000000018002f9c0     LIBCMT:tlssup.obj
 0002:0000b9c4       _Init_thread_epoch         000000018002f9c4     LIBCMT:thread_safe_statics.obj
 0002:0000b9c8       _tls_end                   000000018002f9c8     LIBCMT:tlssup.obj
 0002:0000d098       _TI2?AVbad_alloc@std@@     0000000180031098     LIBCMT:throw_bad_alloc.obj
 0002:0000d0b8       _CTA2?AVbad_alloc@std@@    00000001800310b8     LIBCMT:throw_bad_alloc.obj
 0002:0000d0d0       _CT??_R0?AVbad_alloc@std@@@8??0bad_alloc@std@@QEAA@AEBV01@@Z24 00000001800310d0     LIBCMT:throw_bad_alloc.obj
 0002:0000d0f8       _CT??_R0?AVexception@std@@@8??0exception@std@@QEAA@AEBV01@@Z24 00000001800310f8     LIBCMT:throw_bad_alloc.obj
 0002:0000d120       _TI3?AVbad_array_new_length@std@@ 0000000180031120     LIBCMT:throw_bad_alloc.obj
 0002:0000d140       _CTA3?AVbad_array_new_length@std@@ 0000000180031140     LIBCMT:throw_bad_alloc.obj
 0002:0000d160       _CT??_R0?AVbad_array_new_length@std@@@8??0bad_array_new_length@std@@QEAA@AEBV01@@Z24 0000000180031160     LIBCMT:throw_bad_alloc.obj
 0002:0000d188       _TI2?AVbad_exception@std@@ 0000000180031188     libvcruntime:frame.obj
 0002:0000d1a8       _CTA2?AVbad_exception@std@@ 00000001800311a8     libvcruntime:frame.obj
 0002:0000d1c0       _CT??_R0?AVbad_exception@std@@@8??0bad_exception@std@@QEAA@AEBV01@@Z24 00000001800311c0     libvcruntime:frame.obj
 0002:0000d1e8       __pobjMapEntryFirst        00000001800311e8     OposVariant.obj
 0002:0000d1f0       __pobjMapEntryLast         00000001800311f0     OposVariant.obj
 0002:0000d2a4       __IMPORT_DESCRIPTOR_KERNEL32 00000001800312a4     kernel32:KERNEL32.dll
 0002:0000d2b8       __IMPORT_DESCRIPTOR_USER32 00000001800312b8     user32:USER32.dll
 0002:0000d2cc       __IMPORT_DESCRIPTOR_GDI32  00000001800312cc     gdi32:GDI32.dll
 0002:0000d2e0       __IMPORT_DESCRIPTOR_ADVAPI32 00000001800312e0     advapi32:ADVAPI32.dll
 0002:0000d2f4       __IMPORT_DESCRIPTOR_ole32  00000001800312f4     ole32:ole32.dll
 0002:0000d308       __IMPORT_DESCRIPTOR_OLEAUT32 0000000180031308     oleaut32:OLEAUT32.dll
 0002:0000d31c       __NULL_IMPORT_DESCRIPTOR   000000018003131c     kernel32:KERNEL32.dll
 0003:00000000       ?s_Claim@?7??GetIDsOfNames@CComTypeInfoHolder@ATL@@QEAAJAEBU_GUID@@PEAPEA_WIKPEAJ@Z@4PA_WA 0000000180033000     MSR.obj
 0003:00000018       ?s_Release@?7??GetIDsOfNames@CComTypeInfoHolder@ATL@@QEAAJAEBU_GUID@@PEAPEA_WIKPEAJ@Z@4PA_WA 0000000180033018     MSR.obj
 0003:00000038       ?_tih@?$IDispatchImpl@UIOPOSMSR@@$1?IID_IOPOSMSR@@3U_GUID@@B$1?LIBID_OposMSR_CCO@@3U3@B$00$0A@VCComTypeInfoHolder@ATL@@@ATL@@1VCComTypeInfoHolder@2@A 0000000180033038     MSR.obj
 0003:00000070       ?_tih@?$IProvideClassInfo2Impl@$1?CLSID_OPOSMSR@@3U_GUID@@B$1?DIID__IOPOSMSREvents@@3U2@B$1?LIBID_OposMSR_CCO@@3U2@B$00$0A@VCComTypeInfoHolder@ATL@@@ATL@@1VCComTypeInfoHolder@2@A 0000000180033070     MSR.obj
 0003:000000a8       ?vszContents@?6??Save@?$IPersistStorageImpl@VCOPOSMSR@@@ATL@@UEAAJPEAUIStorage@@H@Z@4PEB_WEB 00000001800330a8     MSR.obj
 0003:000000b0       ?wc@?1??GetWndClassInfo@?$CWindowImpl@VCOPOSMSR@@VCWindow@ATL@@V?$CWinTraits@$0FGAAAAAA@$0A@@3@@ATL@@SAAEAU_ATL_WNDCLASSINFOW@3@XZ@4U43@A 00000001800330b0     MSR.obj
 0003:000001a8       ?rcDefault@CWindow@ATL@@2UtagRECT@@A 00000001800331a8     MSR.obj
 0003:00000250       ?g_WindowName@@3PA_WA      0000000180033250     MSRImpl.obj
 0003:00000270       ?g_ControlDescription@@3PADA 0000000180033270     MSRImpl.obj
 0003:000002b4       ?g_ControlVersion@@3JA     00000001800332b4     MSRImpl.obj
 0003:000003b8       __scrt_native_dllmain_reason 00000001800333b8     LIBCMT:utility.obj
 0003:000003bc       _Init_global_epoch         00000001800333bc     LIBCMT:thread_safe_statics.obj
 0003:000003c0       __security_cookie_complement 00000001800333c0     LIBCMT:gs_cookie.obj
 0003:000003c8       __security_cookie          00000001800333c8     LIBCMT:gs_cookie.obj
 0003:000003d0       __isa_available            00000001800333d0     LIBCMT:cpu_disp.obj
 0003:000003d4       __isa_enabled              00000001800333d4     LIBCMT:cpu_disp.obj
 0003:000003d8       __memcpy_nt_iters          00000001800333d8     LIBCMT:cpu_disp.obj
 0003:000003e0       __memset_nt_iters          00000001800333e0     LIBCMT:cpu_disp.obj
 0003:00000408       __abort_behavior           0000000180033408     libucrt:abort.obj
 0003:00000420       _iob                       0000000180033420     libucrt:_file.obj
 0003:00000530       __acrt_initial_locale_data 0000000180033530     libucrt:nlsdata.obj
 0003:00000688       __acrt_initial_locale_pointers 0000000180033688     libucrt:nlsdata.obj
 0003:00000698       __acrt_wide_c_locale_string 0000000180033698     libucrt:nlsdata.obj
 0003:000006a0       __acrt_initial_multibyte_data 00000001800336a0     libucrt:mbctype.obj
 0003:00000be0       _pwctype                   0000000180033be0     libucrt:ctype.obj
 0003:00000be8       __globallocalestatus       0000000180033be8     libucrt:glstatus.obj
 0003:00000bf0       __acrt_lconv_c             0000000180033bf0     libucrt:localeconv.obj
 0003:00000c88       __acrt_lconv_static_decimal 0000000180033c88     libucrt:localeconv.obj
 0003:00000c8c       __acrt_lconv_static_W_decimal 0000000180033c8c     libucrt:localeconv.obj
 0003:00000c90       _lookuptrailbytes          0000000180033c90     libucrt:read.obj
 0003:00000db4       _fltused                   0000000180033db4     LIBCMT:fltused.obj
 0003:00000db8       ??_R0?AVbad_alloc@std@@@8  0000000180033db8     LIBCMT:throw_bad_alloc.obj
 0003:00000de0       ??_R0?AVexception@std@@@8  0000000180033de0     LIBCMT:throw_bad_alloc.obj
 0003:00000e08       ??_R0?AVbad_array_new_length@std@@@8 0000000180033e08     LIBCMT:throw_bad_alloc.obj
 0003:00000e38       ??_R0?AVtype_info@@@8      0000000180033e38     LIBCMT:std_type_info_static.obj
 0003:00000e58       ??_R0?AVbad_exception@std@@@8 0000000180033e58     libvcruntime:frame.obj
 0003:00000e80       ?_pPerfRegFunc@ATL@@3P6AJPEAUHINSTANCE__@@@ZEA 0000000180033e80     OposVariant.obj
 0003:00000e88       ?_pPerfUnRegFunc@ATL@@3P6AJXZEA 0000000180033e88     OposVariant.obj
 0003:00000e90       ?_AtlRegisterPerUser@ATL@@3_NA 0000000180033e90     OposVariant.obj
 0003:00000e98       ?_pAtlModule@ATL@@3PEAVCAtlModule@1@EA 0000000180033e98     OposVariant.obj
 0003:00000ea0       ?_pModule@ATL@@3PEAVCComModule@1@EA 0000000180033ea0     OposVariant.obj
 0003:00000ea8       ?m_bInitFailed@CAtlBaseModule@ATL@@2_NA 0000000180033ea8     OposVariant.obj
 0003:00000eb0       ?_AtlComModule@ATL@@3VCAtlComModule@1@A 0000000180033eb0     OposVariant.obj
 0003:00000f00       ?_AtlWinModule@ATL@@3VCAtlWinModule@1@A 0000000180033f00     OposVariant.obj
 0003:00000f48       ?m_libid@CAtlModule@ATL@@2U_GUID@@A 0000000180033f48     MSR.obj
 0003:00000f58       ?_entries@?1??GetConnMap@COPOSMSR@@SAPEBU_ATL_CONNMAP_ENTRY@ATL@@PEAH@Z@4QBU34@B 0000000180033f58     MSR.obj
 0003:00000f70       ?$TSS0@?1??GetConnMap@COPOSMSR@@SAPEBU_ATL_CONNMAP_ENTRY@ATL@@PEAH@Z@4HA 0000000180033f70     MSR.obj
 0003:00000f78       ?_OptionsStorage@?1??__local_stdio_printf_options@@9@4_KA 0000000180033f78     MSR.obj
 0003:00000f80       ?pfnRegDeleteKeyEx@?1??DeleteSubKey@CRegKey@ATL@@QEAAJPEB_W@Z@4P6AJPEAUHKEY__@@0KK@ZEA 0000000180033f80     MSR.obj
 0003:00000f88       ?bInitialized@?1??DeleteSubKey@CRegKey@ATL@@QEAAJPEB_W@Z@4_NA 0000000180033f88     MSR.obj
 0003:00000f90       ?_Module@@3VCComModule@ATL@@A 0000000180033f90     MSR.obj
 0003:00000fe0       ?pConnMap@?$IConnectionPointContainerImpl@VCOPOSMSR@@@ATL@@0PEBU_ATL_CONNMAP_ENTRY@2@EB 0000000180033fe0     MSR.obj
 0003:00000fe8       ?s_nInstances@COPOSMSR@@1HA 0000000180033fe8     MSRImpl.obj
 0003:00000ff0       __scrt_current_native_startup_state 0000000180033ff0     LIBCMT:utility.obj
 0003:00000ff8       __scrt_native_startup_lock 0000000180033ff8     LIBCMT:utility.obj
 0003:000015f0       _tls_index                 00000001800345f0     LIBCMT:tlssup.obj
 0003:000015f8       __favor                    00000001800345f8     LIBCMT:cpu_disp.obj
 0003:000015fc       __scrt_debugger_hook_flag  00000001800345fc     LIBCMT:utility_desktop.obj
 0003:00001600       __castguard_check_failure_os_handled_fptr 0000000180034600     LIBCMT:guard_support.obj
 0003:00001610       ?__type_info_root_node@@3U__type_info_node@@A 0000000180034610     LIBCMT:tncleanup.obj
 0003:00001620       ?_OptionsStorage@?1??__local_stdio_scanf_options@@9@4_KA 0000000180034620     LIBCMT:default_local_stdio_options.obj
 0003:00001630       ?_AtlBaseModule@ATL@@3VCAtlBaseModule@1@A 0000000180034630     atls:atlbase.obj
 0003:00001690       ?__AtlThunkPool@@3PEAT_SLIST_HEADER@@EA 0000000180034690     atls:atlthunk.obj
 0003:000016bc       __@@_PchSym_@00@UztvmgUPdlipUGDUhUrmgvinvwrzgvUexgllohUzgohOmzgrevkilqPBACIAJCBDBUlyqiUznwGEUhgwzucOlyq@4B2008FD98C1DD4 00000001800346bc     atls:stdafx.obj
 0003:000016c0       ?__WinRTOutOfMemoryExceptionCallback@@3P6APEAXXZEA 00000001800346c0     libvcruntime:ehhelpers.obj
 0003:000016c8       __pPurecall                00000001800346c8     libvcruntime:purevirt_data.obj
 0003:00001780       ?pArgList@UnDecorator@@0PEAVReplicator@@EA 0000000180034780     libvcruntime:undname.obj
 0003:00001788       ?pZNameList@UnDecorator@@0PEAVReplicator@@EA 0000000180034788     libvcruntime:undname.obj
 0003:00001790       ?pTemplateArgList@UnDecorator@@0PEAVReplicator@@EA 0000000180034790     libvcruntime:undname.obj
 0003:00001798       ?gName@UnDecorator@@0PEBDEB 0000000180034798     libvcruntime:undname.obj
 0003:000017a0       ?name@UnDecorator@@0PEBDEB 00000001800347a0     libvcruntime:undname.obj
 0003:000017a8       ?disableFlags@UnDecorator@@0KA 00000001800347a8     libvcruntime:undname.obj
 0003:000017ac       ?fExplicitTemplateParams@UnDecorator@@0_NA 00000001800347ac     libvcruntime:undname.obj
 0003:000017ad       ?fGetTemplateArgumentList@UnDecorator@@0_NA 00000001800347ad     libvcruntime:undname.obj
 0003:000017b0       ?m_pGetParameter@UnDecorator@@0P6APEADJ@ZEA 00000001800347b0     libvcruntime:undname.obj
 0003:000017b8       ?m_CHPENameOffset@UnDecorator@@0KA 00000001800347b8     libvcruntime:undname.obj
 0003:000017bc       ?m_recursionLevel@UnDecorator@@0KA 00000001800347bc     libvcruntime:undname.obj
 0003:00001840       ?c_exit_complete@?1???R<lambda_6e4b09c48022b2350581041d5f6b0c4c>@@QEBA@XZ@4_NA 0000000180034840     libucrt:exit.obj
 0003:00001958       _environ_table             0000000180034958     libucrt:environment_initialization.obj
 0003:00001960       _wenviron_table            0000000180034960     libucrt:environment_initialization.obj
 0003:00001968       __dcrt_initial_wide_environment 0000000180034968     libucrt:environment_initialization.obj
 0003:00001970       __dcrt_initial_narrow_environment 0000000180034970     libucrt:environment_initialization.obj
 0003:00001978       __acrt_atexit_table        0000000180034978     libucrt:onexit.obj
 0003:00001990       __acrt_at_quick_exit_table 0000000180034990     libucrt:onexit.obj
 0003:00001b68       _nstream                   0000000180034b68     libucrt:_file.obj
 0003:00001b70       __piob                     0000000180034b70     libucrt:_file.obj
 0003:00001b80       __acrt_stdout_buffer       0000000180034b80     libucrt:_sftbuf.obj
 0003:00001b88       __acrt_stderr_buffer       0000000180034b88     libucrt:_sftbuf.obj
 0003:00001b90       __acrt_locale_changed_data 0000000180034b90     libucrt:wsetlocale.obj
 0003:00001b98       __acrt_current_locale_data 0000000180034b98     libucrt:nlsdata.obj
 0003:00001ba0       __pioinfo                  0000000180034ba0     libucrt:ioinit.obj
 0003:00001fa0       _nhandle                   0000000180034fa0     libucrt:ioinit.obj
 0003:000021e8       _mbctype                   00000001800351e8     libucrt:mbctype.obj
 0003:000021f0       _mbcasemap                 00000001800351f0     libucrt:mbctype.obj
 0003:000021f8       __acrt_current_multibyte_data 00000001800351f8     libucrt:mbctype.obj
 0003:00002208       _pgmptr                    0000000180035208     libucrt:argv_data.obj
 0003:00002210       __argc                     0000000180035210     libucrt:argv_data.obj
 0003:00002218       __argv                     0000000180035218     libucrt:argv_data.obj
 0003:00002220       __wargv                    0000000180035220     libucrt:argv_data.obj
 0003:00002228       _acmdln                    0000000180035228     libucrt:argv_data.obj
 0003:00002230       _wcmdln                    0000000180035230     libucrt:argv_data.obj
 0003:00002238       __acrt_heap                0000000180035238     libucrt:heap_handle.obj
 0003:0000226c       __acrt_lconv_static_null   000000018003526c     libucrt:localeconv.obj
 0003:00002270       __acrt_lconv_static_W_null 0000000180035270     libucrt:localeconv.obj
 0003:00002284       __fma3_is_available        0000000180035284     libucrt:fma3_available.obj
 0003:00002288       __use_fma3_lib             0000000180035288     libucrt:fma3_available.obj
 0003:00002290       __dyn_tls_init_callback    0000000180035290     <common>
 0003:00002298       __scrt_ucrt_dll_is_in_use  0000000180035298     <common>

 entry point at        0001:0000f554

 Static symbols

 0000:fffc0000       .debug$S                   0000000180000000     OPOSMSR.exp
 0000:fffc0000       .debug$S                   0000000180000000     advapi32:ADVAPI32.dll
 0000:fffc0000       .debug$S                   0000000180000000     advapi32:ADVAPI32.dll
 0000:fffc0000       .debug$S                   0000000180000000     advapi32:ADVAPI32.dll
 0000:fffc0000       .debug$S                   0000000180000000     advapi32:ADVAPI32.dll
 0000:fffc0000       .debug$S                   0000000180000000     advapi32:ADVAPI32.dll
 0000:fffc0000       .debug$S                   0000000180000000     advapi32:ADVAPI32.dll
 0000:fffc0000       .debug$S                   0000000180000000     advapi32:ADVAPI32.dll
 0000:fffc0000       .debug$S                   0000000180000000     advapi32:ADVAPI32.dll
 0000:fffc0000       .debug$S                   0000000180000000     advapi32:ADVAPI32.dll
 0000:fffc0000       .debug$S                   0000000180000000     gdi32:GDI32.dll
 0000:fffc0000       .debug$S                   0000000180000000     gdi32:GDI32.dll
 0000:fffc0000       .debug$S                   0000000180000000     gdi32:GDI32.dll
 0000:fffc0000       .debug$S                   0000000180000000     gdi32:GDI32.dll
 0000:fffc0000       .debug$S                   0000000180000000     gdi32:GDI32.dll
 0000:fffc0000       .debug$S                   0000000180000000     gdi32:GDI32.dll
 0000:fffc0000       .debug$S                   0000000180000000     gdi32:GDI32.dll
 0000:fffc0000       .debug$S                   0000000180000000     gdi32:GDI32.dll
 0000:fffc0000       .debug$S                   0000000180000000     gdi32:GDI32.dll
 0000:fffc0000       .debug$S                   0000000180000000     gdi32:GDI32.dll
 0000:fffc0000       .debug$S                   0000000180000000     gdi32:GDI32.dll
 0000:fffc0000       .debug$S                   0000000180000000     gdi32:GDI32.dll
 0000:fffc0000       .debug$S                   0000000180000000     gdi32:GDI32.dll
 0000:fffc0000       .debug$S                   0000000180000000     gdi32:GDI32.dll
 0000:fffc0000       .debug$S                   0000000180000000     gdi32:GDI32.dll
 0000:fffc0000       .debug$S                   0000000180000000     gdi32:GDI32.dll
 0000:fffc0000       .debug$S                   0000000180000000     gdi32:GDI32.dll
 0000:fffc0000       .debug$S                   0000000180000000     gdi32:GDI32.dll
 0000:fffc0000       .debug$S                   0000000180000000     gdi32:GDI32.dll
 0000:fffc0000       .debug$S                   0000000180000000     kernel32:KERNEL32.dll
 0000:fffc0000       .debug$S                   0000000180000000     kernel32:KERNEL32.dll
 0000:fffc0000       .debug$S                   0000000180000000     kernel32:KERNEL32.dll
 0000:fffc0000       .debug$S                   0000000180000000     kernel32:KERNEL32.dll
 0000:fffc0000       .debug$S                   0000000180000000     kernel32:KERNEL32.dll
 0000:fffc0000       .debug$S                   0000000180000000     kernel32:KERNEL32.dll
 0000:fffc0000       .debug$S                   0000000180000000     kernel32:KERNEL32.dll
 0000:fffc0000       .debug$S                   0000000180000000     kernel32:KERNEL32.dll
 0000:fffc0000       .debug$S                   0000000180000000     kernel32:KERNEL32.dll
 0000:fffc0000       .debug$S                   0000000180000000     kernel32:KERNEL32.dll
 0000:fffc0000       .debug$S                   0000000180000000     kernel32:KERNEL32.dll
 0000:fffc0000       .debug$S                   0000000180000000     kernel32:KERNEL32.dll
 0000:fffc0000       .debug$S                   0000000180000000     kernel32:KERNEL32.dll
 0000:fffc0000       .debug$S                   0000000180000000     kernel32:KERNEL32.dll
 0000:fffc0000       .debug$S                   0000000180000000     kernel32:KERNEL32.dll
 0000:fffc0000       .debug$S                   0000000180000000     kernel32:KERNEL32.dll
 0000:fffc0000       .debug$S                   0000000180000000     kernel32:KERNEL32.dll
 0000:fffc0000       .debug$S                   0000000180000000     kernel32:KERNEL32.dll
 0000:fffc0000       .debug$S                   0000000180000000     kernel32:KERNEL32.dll
 0000:fffc0000       .debug$S                   0000000180000000     kernel32:KERNEL32.dll
 0000:fffc0000       .debug$S                   0000000180000000     kernel32:KERNEL32.dll
 0000:fffc0000       .debug$S                   0000000180000000     kernel32:KERNEL32.dll
 0000:fffc0000       .debug$S                   0000000180000000     kernel32:KERNEL32.dll
 0000:fffc0000       .debug$S                   0000000180000000     kernel32:KERNEL32.dll
 0000:fffc0000       .debug$S                   0000000180000000     kernel32:KERNEL32.dll
 0000:fffc0000       .debug$S                   0000000180000000     kernel32:KERNEL32.dll
 0000:fffc0000       .debug$S                   0000000180000000     kernel32:KERNEL32.dll
 0000:fffc0000       .debug$S                   0000000180000000     kernel32:KERNEL32.dll
 0000:fffc0000       .debug$S                   0000000180000000     kernel32:KERNEL32.dll
 0000:fffc0000       .debug$S                   0000000180000000     kernel32:KERNEL32.dll
 0000:fffc0000       .debug$S                   0000000180000000     kernel32:KERNEL32.dll
 0000:fffc0000       .debug$S                   0000000180000000     kernel32:KERNEL32.dll
 0000:fffc0000       .debug$S                   0000000180000000     kernel32:KERNEL32.dll
 0000:fffc0000       .debug$S                   0000000180000000     kernel32:KERNEL32.dll
 0000:fffc0000       .debug$S                   0000000180000000     kernel32:KERNEL32.dll
 0000:fffc0000       .debug$S                   0000000180000000     kernel32:KERNEL32.dll
 0000:fffc0000       .debug$S                   0000000180000000     kernel32:KERNEL32.dll
 0000:fffc0000       .debug$S                   0000000180000000     kernel32:KERNEL32.dll
 0000:fffc0000       .debug$S                   0000000180000000     kernel32:KERNEL32.dll
 0000:fffc0000       .debug$S                   0000000180000000     kernel32:KERNEL32.dll
 0000:fffc0000       .debug$S                   0000000180000000     kernel32:KERNEL32.dll
 0000:fffc0000       .debug$S                   0000000180000000     kernel32:KERNEL32.dll
 0000:fffc0000       .debug$S                   0000000180000000     kernel32:KERNEL32.dll
 0000:fffc0000       .debug$S                   0000000180000000     kernel32:KERNEL32.dll
 0000:fffc0000       .debug$S                   0000000180000000     kernel32:KERNEL32.dll
 0000:fffc0000       .debug$S                   0000000180000000     kernel32:KERNEL32.dll
 0000:fffc0000       .debug$S                   0000000180000000     kernel32:KERNEL32.dll
 0000:fffc0000       .debug$S                   0000000180000000     kernel32:KERNEL32.dll
 0000:fffc0000       .debug$S                   0000000180000000     kernel32:KERNEL32.dll
 0000:fffc0000       .debug$S                   0000000180000000     kernel32:KERNEL32.dll
 0000:fffc0000       .debug$S                   0000000180000000     kernel32:KERNEL32.dll
 0000:fffc0000       .debug$S                   0000000180000000     kernel32:KERNEL32.dll
 0000:fffc0000       .debug$S                   0000000180000000     kernel32:KERNEL32.dll
 0000:fffc0000       .debug$S                   0000000180000000     kernel32:KERNEL32.dll
 0000:fffc0000       .debug$S                   0000000180000000     kernel32:KERNEL32.dll
 0000:fffc0000       .debug$S                   0000000180000000     kernel32:KERNEL32.dll
 0000:fffc0000       .debug$S                   0000000180000000     kernel32:KERNEL32.dll
 0000:fffc0000       .debug$S                   0000000180000000     kernel32:KERNEL32.dll
 0000:fffc0000       .debug$S                   0000000180000000     kernel32:KERNEL32.dll
 0000:fffc0000       .debug$S                   0000000180000000     kernel32:KERNEL32.dll
 0000:fffc0000       .debug$S                   0000000180000000     kernel32:KERNEL32.dll
 0000:fffc0000       .debug$S                   0000000180000000     kernel32:KERNEL32.dll
 0000:fffc0000       .debug$S                   0000000180000000     kernel32:KERNEL32.dll
 0000:fffc0000       .debug$S                   0000000180000000     kernel32:KERNEL32.dll
 0000:fffc0000       .debug$S                   0000000180000000     kernel32:KERNEL32.dll
 0000:fffc0000       .debug$S                   0000000180000000     kernel32:KERNEL32.dll
 0000:fffc0000       .debug$S                   0000000180000000     kernel32:KERNEL32.dll
 0000:fffc0000       .debug$S                   0000000180000000     kernel32:KERNEL32.dll
 0000:fffc0000       .debug$S                   0000000180000000     kernel32:KERNEL32.dll
 0000:fffc0000       .debug$S                   0000000180000000     kernel32:KERNEL32.dll
 0000:fffc0000       .debug$S                   0000000180000000     kernel32:KERNEL32.dll
 0000:fffc0000       .debug$S                   0000000180000000     kernel32:KERNEL32.dll
 0000:fffc0000       .debug$S                   0000000180000000     kernel32:KERNEL32.dll
 0000:fffc0000       .debug$S                   0000000180000000     kernel32:KERNEL32.dll
 0000:fffc0000       .debug$S                   0000000180000000     kernel32:KERNEL32.dll
 0000:fffc0000       .debug$S                   0000000180000000     kernel32:KERNEL32.dll
 0000:fffc0000       .debug$S                   0000000180000000     kernel32:KERNEL32.dll
 0000:fffc0000       .debug$S                   0000000180000000     kernel32:KERNEL32.dll
 0000:fffc0000       .debug$S                   0000000180000000     kernel32:KERNEL32.dll
 0000:fffc0000       .debug$S                   0000000180000000     kernel32:KERNEL32.dll
 0000:fffc0000       .debug$S                   0000000180000000     kernel32:KERNEL32.dll
 0000:fffc0000       .debug$S                   0000000180000000     kernel32:KERNEL32.dll
 0000:fffc0000       .debug$S                   0000000180000000     kernel32:KERNEL32.dll
 0000:fffc0000       .debug$S                   0000000180000000     kernel32:KERNEL32.dll
 0000:fffc0000       .debug$S                   0000000180000000     kernel32:KERNEL32.dll
 0000:fffc0000       .debug$S                   0000000180000000     kernel32:KERNEL32.dll
 0000:fffc0000       .debug$S                   0000000180000000     kernel32:KERNEL32.dll
 0000:fffc0000       .debug$S                   0000000180000000     kernel32:KERNEL32.dll
 0000:fffc0000       .debug$S                   0000000180000000     kernel32:KERNEL32.dll
 0000:fffc0000       .debug$S                   0000000180000000     kernel32:KERNEL32.dll
 0000:fffc0000       .debug$S                   0000000180000000     kernel32:KERNEL32.dll
 0000:fffc0000       .debug$S                   0000000180000000     kernel32:KERNEL32.dll
 0000:fffc0000       .debug$S                   0000000180000000     kernel32:KERNEL32.dll
 0000:fffc0000       .debug$S                   0000000180000000     kernel32:KERNEL32.dll
 0000:fffc0000       .debug$S                   0000000180000000     kernel32:KERNEL32.dll
 0000:fffc0000       .debug$S                   0000000180000000     kernel32:KERNEL32.dll
 0000:fffc0000       .debug$S                   0000000180000000     kernel32:KERNEL32.dll
 0000:fffc0000       .debug$S                   0000000180000000     kernel32:KERNEL32.dll
 0000:fffc0000       .debug$S                   0000000180000000     kernel32:KERNEL32.dll
 0000:fffc0000       .debug$S                   0000000180000000     kernel32:KERNEL32.dll
 0000:fffc0000       .debug$S                   0000000180000000     kernel32:KERNEL32.dll
 0000:fffc0000       .debug$S                   0000000180000000     kernel32:KERNEL32.dll
 0000:fffc0000       .debug$S                   0000000180000000     kernel32:KERNEL32.dll
 0000:fffc0000       .debug$S                   0000000180000000     kernel32:KERNEL32.dll
 0000:fffc0000       .debug$S                   0000000180000000     kernel32:KERNEL32.dll
 0000:fffc0000       .debug$S                   0000000180000000     kernel32:KERNEL32.dll
 0000:fffc0000       .debug$S                   0000000180000000     kernel32:KERNEL32.dll
 0000:fffc0000       .debug$S                   0000000180000000     kernel32:KERNEL32.dll
 0000:fffc0000       .debug$S                   0000000180000000     kernel32:KERNEL32.dll
 0000:fffc0000       .debug$S                   0000000180000000     kernel32:KERNEL32.dll
 0000:fffc0000       .debug$S                   0000000180000000     kernel32:KERNEL32.dll
 0000:fffc0000       .debug$S                   0000000180000000     ole32:ole32.dll
 0000:fffc0000       .debug$S                   0000000180000000     ole32:ole32.dll
 0000:fffc0000       .debug$S                   0000000180000000     ole32:ole32.dll
 0000:fffc0000       .debug$S                   0000000180000000     ole32:ole32.dll
 0000:fffc0000       .debug$S                   0000000180000000     ole32:ole32.dll
 0000:fffc0000       .debug$S                   0000000180000000     ole32:ole32.dll
 0000:fffc0000       .debug$S                   0000000180000000     ole32:ole32.dll
 0000:fffc0000       .debug$S                   0000000180000000     ole32:ole32.dll
 0000:fffc0000       .debug$S                   0000000180000000     ole32:ole32.dll
 0000:fffc0000       .debug$S                   0000000180000000     ole32:ole32.dll
 0000:fffc0000       .debug$S                   0000000180000000     ole32:ole32.dll
 0000:fffc0000       .debug$S                   0000000180000000     ole32:ole32.dll
 0000:fffc0000       .debug$S                   0000000180000000     ole32:ole32.dll
 0000:fffc0000       .debug$S                   0000000180000000     ole32:ole32.dll
 0000:fffc0000       .debug$S                   0000000180000000     oleaut32:OLEAUT32.dll
 0000:fffc0000       .debug$S                   0000000180000000     oleaut32:OLEAUT32.dll
 0000:fffc0000       .debug$S                   0000000180000000     oleaut32:OLEAUT32.dll
 0000:fffc0000       .debug$S                   0000000180000000     oleaut32:OLEAUT32.dll
 0000:fffc0000       .debug$S                   0000000180000000     oleaut32:OLEAUT32.dll
 0000:fffc0000       .debug$S                   0000000180000000     oleaut32:OLEAUT32.dll
 0000:fffc0000       .debug$S                   0000000180000000     oleaut32:OLEAUT32.dll
 0000:fffc0000       .debug$S                   0000000180000000     oleaut32:OLEAUT32.dll
 0000:fffc0000       .debug$S                   0000000180000000     oleaut32:OLEAUT32.dll
 0000:fffc0000       .debug$S                   0000000180000000     oleaut32:OLEAUT32.dll
 0000:fffc0000       .debug$S                   0000000180000000     oleaut32:OLEAUT32.dll
 0000:fffc0000       .debug$S                   0000000180000000     oleaut32:OLEAUT32.dll
 0000:fffc0000       .debug$S                   0000000180000000     oleaut32:OLEAUT32.dll
 0000:fffc0000       .debug$S                   0000000180000000     oleaut32:OLEAUT32.dll
 0000:fffc0000       .debug$S                   0000000180000000     oleaut32:OLEAUT32.dll
 0000:fffc0000       .debug$S                   0000000180000000     oleaut32:OLEAUT32.dll
 0000:fffc0000       .debug$S                   0000000180000000     user32:USER32.dll
 0000:fffc0000       .debug$S                   0000000180000000     user32:USER32.dll
 0000:fffc0000       .debug$S                   0000000180000000     user32:USER32.dll
 0000:fffc0000       .debug$S                   0000000180000000     user32:USER32.dll
 0000:fffc0000       .debug$S                   0000000180000000     user32:USER32.dll
 0000:fffc0000       .debug$S                   0000000180000000     user32:USER32.dll
 0000:fffc0000       .debug$S                   0000000180000000     user32:USER32.dll
 0000:fffc0000       .debug$S                   0000000180000000     user32:USER32.dll
 0000:fffc0000       .debug$S                   0000000180000000     user32:USER32.dll
 0000:fffc0000       .debug$S                   0000000180000000     user32:USER32.dll
 0000:fffc0000       .debug$S                   0000000180000000     user32:USER32.dll
 0000:fffc0000       .debug$S                   0000000180000000     user32:USER32.dll
 0000:fffc0000       .debug$S                   0000000180000000     user32:USER32.dll
 0000:fffc0000       .debug$S                   0000000180000000     user32:USER32.dll
 0000:fffc0000       .debug$S                   0000000180000000     user32:USER32.dll
 0000:fffc0000       .debug$S                   0000000180000000     user32:USER32.dll
 0000:fffc0000       .debug$S                   0000000180000000     user32:USER32.dll
 0000:fffc0000       .debug$S                   0000000180000000     user32:USER32.dll
 0000:fffc0000       .debug$S                   0000000180000000     user32:USER32.dll
 0000:fffc0000       .debug$S                   0000000180000000     user32:USER32.dll
 0000:fffc0000       .debug$S                   0000000180000000     user32:USER32.dll
 0000:fffc0000       .debug$S                   0000000180000000     user32:USER32.dll
 0000:fffc0000       .debug$S                   0000000180000000     user32:USER32.dll
 0000:fffc0000       .debug$S                   0000000180000000     user32:USER32.dll
 0000:fffc0000       .debug$S                   0000000180000000     user32:USER32.dll
 0000:fffc0000       .debug$S                   0000000180000000     user32:USER32.dll
 0000:fffc0000       .debug$S                   0000000180000000     user32:USER32.dll
 0000:fffc0000       .debug$S                   0000000180000000     user32:USER32.dll
 0000:fffc0000       .debug$S                   0000000180000000     user32:USER32.dll
 0000:fffc0000       .debug$S                   0000000180000000     user32:USER32.dll
 0000:fffc0000       .debug$S                   0000000180000000     user32:USER32.dll
 0000:fffc0000       .debug$S                   0000000180000000     user32:USER32.dll
 0000:fffc0000       .debug$S                   0000000180000000     user32:USER32.dll
 0000:fffc0000       .debug$S                   0000000180000000     user32:USER32.dll
 0000:fffc0000       .debug$S                   0000000180000000     user32:USER32.dll
 0001:00000000       ??__E_AtlComModule@ATL@@YAXXZ 0000000180001000 f   OposVariant.obj
 0001:00000020       ??__E_AtlWinModule@ATL@@YAXXZ 0000000180001020 f   OposVariant.obj
 0001:00000040       ??__E?pConnMap@?$IConnectionPointContainerImpl@VCOPOSMSR@@@ATL@@0PEBU_ATL_CONNMAP_ENTRY@2@EB@@YAXXZ 0000000180001040 f   MSR.obj
 0001:00000058       ??__E_Module@@YAXXZ        0000000180001058 f   MSR.obj
 0001:00000094       ??__E_AtlBaseModule@ATL@@YAXXZ 0000000180001094 f   atls:atlbase.obj
 0001:0000eb60       ?__scrt_initialize_thread_safe_statics@@YAHXZ 000000018000fb60 f   LIBCMT:thread_safe_statics.obj
 0001:0000ec30       ?__scrt_uninitialize_thread_safe_statics@@YAXXZ 000000018000fc30 f   LIBCMT:thread_safe_statics.obj
 0001:0000ef80       capture_current_context    000000018000ff80 f   LIBCMT:gs_report.obj
 0001:0000eff0       capture_previous_context   000000018000fff0 f   LIBCMT:gs_report.obj
 0001:0000f190       $$000000                   0000000180010190     LIBCMT:chkstk.obj
 0001:0000f200       $$000000                   0000000180010200     LIBCMT:amdsecgs.obj
 0001:0000f234       ?dllmain_crt_dispatch@@YAHQEAUHINSTANCE__@@KQEAX@Z 0000000180010234 f   LIBCMT:dll_dllmain.obj
 0001:0000f284       ?dllmain_crt_process_attach@@YAHQEAUHINSTANCE__@@QEAX@Z 0000000180010284 f   LIBCMT:dll_dllmain.obj
 0001:0000f39c       ?dllmain_crt_process_detach@@YAH_N@Z 000000018001039c f   LIBCMT:dll_dllmain.obj
 0001:0000f420       ?dllmain_dispatch@@YAHQEAUHINSTANCE__@@KQEAX@Z 0000000180010420 f   LIBCMT:dll_dllmain.obj
 0001:0000fce8       ??$GetProcAddressAll@P6AP6A_JPEAUHWND__@@I_K_J@ZPEAUAtlThunkData_t@@@Z@@YAP6AP6A_JPEAUHWND__@@I_K_J@ZPEAUAtlThunkData_t@@@ZPEAP6AP6A_J0I12@Z3@Z@Z 0000000180010ce8 f   atls:atlthunk.obj
 0001:0000fce8       ??$GetProcAddressAll@P6APEAUAtlThunkData_t@@XZ@@YAP6APEAUAtlThunkData_t@@XZPEAP6APEAU0@XZ@Z 0000000180010ce8 f   atls:atlthunk.obj
 0001:0000fce8       ??$GetProcAddressAll@P6AXPEAUAtlThunkData_t@@@Z@@YAP6AXPEAUAtlThunkData_t@@@ZPEAP6AX0@Z@Z 0000000180010ce8 f   atls:atlthunk.obj
 0001:0000fce8       ??$GetProcAddressAll@P6AXPEAUAtlThunkData_t@@PEAX_K@Z@@YAP6AXPEAUAtlThunkData_t@@PEAX_K@ZPEAP6AX012@Z@Z 0000000180010ce8 f   atls:atlthunk.obj
 0001:0000fec0       ?__InitializeThunkPool@@YAHXZ 0000000180010ec0 f   atls:atlthunk.obj
 0001:00010360       $$000000                   0000000180011360     libvcruntime:memcmp.obj
 0001:00010440       $$000000                   0000000180011440     libvcruntime:memcpy.obj
 0001:00010850       $$000000                   0000000180011850     libvcruntime:memset.obj
 0001:00011960       $$000000                   0000000180012960     libvcruntime:notify.obj
 0001:00011acc       ??$BuildCatchObjectHelperInternal@V__FrameHandler4@@@@YAHPEAUEHExceptionRecord@@PEAXPEAUHandlerType4@FH4@@PEBU_s_CatchableType@@@Z 0000000180012acc f   libvcruntime:frame.obj
 0001:00011cd0       ??$BuildCatchObjectInternal@V__FrameHandler4@@@@YAXPEAUEHExceptionRecord@@PEAXPEAUHandlerType4@FH4@@PEBU_s_CatchableType@@@Z 0000000180012cd0 f   libvcruntime:frame.obj
 0001:00011d94       ??$CatchIt@V__FrameHandler4@@@@YAXPEAUEHExceptionRecord@@PEA_KPEAU_CONTEXT@@PEAU_xDISPATCHER_CONTEXT@@PEAUFuncInfo4@FH4@@PEAUHandlerType4@4@PEBU_s_CatchableType@@PEAUTryBlockMapEntry4@4@H1EE@Z 0000000180012d94 f   libvcruntime:frame.obj
 0001:00011e68       ??$FindHandler@V__FrameHandler4@@@@YAXPEAUEHExceptionRecord@@PEA_KPEAU_CONTEXT@@PEAU_xDISPATCHER_CONTEXT@@PEAUFuncInfo4@FH4@@EH1@Z 0000000180012e68 f   libvcruntime:frame.obj
 0001:00012378       ??$FindHandlerForForeignException@V__FrameHandler4@@@@YAXPEAUEHExceptionRecord@@PEA_KPEAU_CONTEXT@@PEAU_xDISPATCHER_CONTEXT@@PEAUFuncInfo4@FH4@@HH1@Z 0000000180013378 f   libvcruntime:frame.obj
 0001:00013108       ?ExFilterRethrow@@YAHPEAU_EXCEPTION_POINTERS@@PEAUEHExceptionRecord@@PEAH@Z 0000000180014108 f   libvcruntime:frame.obj
 0001:00013190       ?ExFilterRethrowFH4@@YAHPEAU_EXCEPTION_POINTERS@@PEAUEHExceptionRecord@@HPEAH@Z 0000000180014190 f   libvcruntime:frame.obj
 0001:000134a8       ?IsInExceptionSpec@@YAEPEAUEHExceptionRecord@@PEBU_s_ESTypeList@@@Z 00000001800144a8 f   libvcruntime:frame.obj
 0001:00013598       ?Is_bad_exception_allowed@@YAEPEBU_s_ESTypeList@@@Z 0000000180014598 f   libvcruntime:frame.obj
 0001:00013874       ?try_get_function@@YAPEAXW4function_id@?A0x84e3c32f@@QEBDQEBW4module_id@2@2@Z 0000000180014874 f   libvcruntime:winapi_downlevel.obj
 0001:00013b50       $$000000                   0000000180014b50     libvcruntime:handlers.obj
 0001:00014368       ??$common_vsprintf@Vformat_validation_base@__crt_stdio_output@@_W@@YAH_KQEA_W0QEB_WQEAU__crt_locale_pointers@@QEAD@Z 0000000180015368 f   libucrt:output.obj
 0001:00015208       $LN17                      0000000180016208     libucrt:output.obj
 0001:00015bac       ??$?RV<lambda_d80eeec6fff315bfe5c115232f3240e3>@@AEAV<lambda_6e4b09c48022b2350581041d5f6b0c4c>@@V<lambda_2358e3775559c9db80273638284d5e45>@@@?$__crt_seh_guarded_call@X@@QEAAX$$QEAV<lambda_d80eeec6fff315bfe5c115232f3240e3>@@AEAV<lambda_6e4b09c48022b2350581041d5f6b0c4c>@@$$QEAV<lambda_2358e3775559c9db80273638284d5e45>@@@Z 0000000180016bac f   libucrt:exit.obj
 0001:00015be4       ??R<lambda_6e4b09c48022b2350581041d5f6b0c4c>@@QEBA@XZ 0000000180016be4 f   libucrt:exit.obj
 0001:00015ca8       ?atexit_exception_filter@@YAHK@Z 0000000180016ca8 f   libucrt:exit.obj
 0001:00015cb4       ?common_exit@@YAXHW4_crt_exit_cleanup_mode@@W4_crt_exit_return_mode@@@Z 0000000180016cb4 f   libucrt:exit.obj
 0001:00015d70       ?exit_or_terminate_process@@YAXI@Z 0000000180016d70 f   libucrt:exit.obj
 0001:00015dbc       ?try_cor_exit_process@@YAXI@Z 0000000180016dbc f   libucrt:exit.obj
 0001:00015e44       ??$parse_command_line@D@@YAXPEADPEAPEAD0PEA_K2@Z 0000000180016e44 f   libucrt:argv_parsing.obj
 0001:000161ec       ??$common_initialize_environment_nolock@D@@YAHXZ 00000001800171ec f   libucrt:environment_initialization.obj
 0001:00016258       ??$create_environment@D@@YAQEAPEADQEAD@Z 0000000180017258 f   libucrt:environment_initialization.obj
 0001:00016360       ??$free_environment@D@@YAXQEAPEAD@Z 0000000180017360 f   libucrt:environment_initialization.obj
 0001:00016360       ??$free_environment@_W@@YAXQEAPEA_W@Z 0000000180017360 f   libucrt:environment_initialization.obj
 0001:000163a4       ??$uninitialize_environment_internal@D@@YAXAEAPEAPEAD@Z 00000001800173a4 f   libucrt:environment_initialization.obj
 0001:000163c0       ??$uninitialize_environment_internal@_W@@YAXAEAPEAPEA_W@Z 00000001800173c0 f   libucrt:environment_initialization.obj
 0001:0001641c       ??$?RV<lambda_638799b9deba96c50f710eeac98168cd>@@AEAV<lambda_22ebabd17bc4fa466a2aca6d8deb888d>@@V<lambda_a6f7d7db0129f75315ebf26d50c089f1>@@@?$__crt_seh_guarded_call@H@@QEAAH$$QEAV<lambda_638799b9deba96c50f710eeac98168cd>@@AEAV<lambda_22ebabd17bc4fa466a2aca6d8deb888d>@@$$QEAV<lambda_a6f7d7db0129f75315ebf26d50c089f1>@@@Z 000000018001741c f   libucrt:onexit.obj
 0001:00016458       ??$?RV<lambda_7777bce6b2f8c936911f934f8298dc43>@@AEAV<lambda_f03950bc5685219e0bcd2087efbe011e>@@V<lambda_3883c3dff614d5e0c5f61bb1ac94921c>@@@?$__crt_seh_guarded_call@H@@QEAAH$$QEAV<lambda_7777bce6b2f8c936911f934f8298dc43>@@AEAV<lambda_f03950bc5685219e0bcd2087efbe011e>@@$$QEAV<lambda_3883c3dff614d5e0c5f61bb1ac94921c>@@@Z 0000000180017458 f   libucrt:onexit.obj
 0001:00016494       ??R<lambda_22ebabd17bc4fa466a2aca6d8deb888d>@@QEBAHXZ 0000000180017494 f   libucrt:onexit.obj
 0001:00016644       ??R<lambda_f03950bc5685219e0bcd2087efbe011e>@@QEBAHXZ 0000000180017644 f   libucrt:onexit.obj
 0001:00016818       initialize_global_variables 0000000180017818 f   libucrt:initialization.obj
 0001:0001682c       initialize_c               000000018001782c f   libucrt:initialization.obj
 0001:00016850       initialize_environment     0000000180017850 f   libucrt:initialization.obj
 0001:00016850       initialize_global_state_isolation 0000000180017850 f   libucrt:initialization.obj
 0001:00016850       report_memory_leaks        0000000180017850 f   libucrt:initialization.obj
 0001:00016850       uninitialize_c             0000000180017850 f   libucrt:initialization.obj
 0001:00016850       uninitialize_global_state_isolation 0000000180017850 f   libucrt:initialization.obj
 0001:00016854       uninitialize_environment   0000000180017854 f   libucrt:initialization.obj
 0001:00016864       initialize_pointers        0000000180017864 f   libucrt:initialization.obj
 0001:000168a4       uninitialize_vcruntime     00000001800178a4 f   libucrt:initialization.obj
 0001:000168ac       uninitialize_allocated_memory 00000001800178ac f   libucrt:initialization.obj
 0001:000168ec       uninitialize_allocated_io_buffers 00000001800178ec f   libucrt:initialization.obj
 0001:00017260       $$000000                   0000000180018260     libucrt:strncmp.obj
 0001:0001735c       ??$?RV<lambda_0ae27a3a962d80f24befdcbee591983d>@@AEAV<lambda_8d0ee55de4b1038c4002e0adecdf1839>@@V<lambda_dc504788e8f1664fe9b84e20bfb512f2>@@@?$__crt_seh_guarded_call@X@@QEAAX$$QEAV<lambda_0ae27a3a962d80f24befdcbee591983d>@@AEAV<lambda_8d0ee55de4b1038c4002e0adecdf1839>@@$$QEAV<lambda_dc504788e8f1664fe9b84e20bfb512f2>@@@Z 000000018001835c f   libucrt:per_thread_data.obj
 0001:0001739c       ??$?RV<lambda_2d41944a1d46af3157314b8a01080d33>@@AEAV<lambda_8f455de75cd7d7f24b4096f044d8b9e6>@@V<lambda_aa500f224e6afead328df44964fe2772>@@@?$__crt_seh_guarded_call@X@@QEAAX$$QEAV<lambda_2d41944a1d46af3157314b8a01080d33>@@AEAV<lambda_8f455de75cd7d7f24b4096f044d8b9e6>@@$$QEAV<lambda_aa500f224e6afead328df44964fe2772>@@@Z 000000018001839c f   libucrt:per_thread_data.obj
 0001:000173dc       ??$?RV<lambda_aa87e3671a710a21b5dc78c0bdf72e11>@@AEAV<lambda_92619d2358a28f41a33ba319515a20b9>@@V<lambda_6992ecaafeb10aed2b74cb1fae11a551>@@@?$__crt_seh_guarded_call@X@@QEAAX$$QEAV<lambda_aa87e3671a710a21b5dc78c0bdf72e11>@@AEAV<lambda_92619d2358a28f41a33ba319515a20b9>@@$$QEAV<lambda_6992ecaafeb10aed2b74cb1fae11a551>@@@Z 00000001800183dc f   libucrt:per_thread_data.obj
 0001:00017424       ??$?RV<lambda_f2e299630e499de9f9a165e60fcd3db5>@@AEAV<lambda_2ae9d31cdba2644fcbeaf08da7c24588>@@V<lambda_40d01ff24d0e7b3814fdbdcee8eab3c7>@@@?$__crt_seh_guarded_call@X@@QEAAX$$QEAV<lambda_f2e299630e499de9f9a165e60fcd3db5>@@AEAV<lambda_2ae9d31cdba2644fcbeaf08da7c24588>@@$$QEAV<lambda_40d01ff24d0e7b3814fdbdcee8eab3c7>@@@Z 0000000180018424 f   libucrt:per_thread_data.obj
 0001:00017484       ?construct_ptd_array@@YAXQEAU__acrt_ptd@@@Z 0000000180018484 f   libucrt:per_thread_data.obj
 0001:00017554       ?destroy_fls@@YAXPEAX@Z    0000000180018554 f   libucrt:per_thread_data.obj
 0001:00017574       ?destroy_ptd_array@@YAXQEAU__acrt_ptd@@@Z 0000000180018574 f   libucrt:per_thread_data.obj
 0001:0001766c       ?replace_current_thread_locale_nolock@@YAXQEAU__acrt_ptd@@QEAU__crt_locale_data@@@Z 000000018001866c f   libucrt:per_thread_data.obj
 0001:00017b50       ?try_get_function@@YAPEAXW4function_id@?A0x391cf84c@@QEBDQEBW4module_id@2@2@Z 0000000180018b50 f   libucrt:winapi_thunks.obj
 0001:00018520       ?fp_format_a@@YAHQEBNPEAD_KQEAD2H_NIQEAU__crt_locale_pointers@@W4__acrt_rounding_mode@@@Z 0000000180019520 f   libucrt:cvt.obj
 0001:000188a0       ?fp_format_e@@YAHQEBNQEAD_K12H_NIQEAU__crt_locale_pointers@@W4__acrt_rounding_mode@@@Z 00000001800198a0 f   libucrt:cvt.obj
 0001:00018990       ?fp_format_e_internal@@YAHQEAD_KH_NIQEAU_strflt@@2QEAU__crt_locale_pointers@@@Z 0000000180019990 f   libucrt:cvt.obj
 0001:00018b64       ?fp_format_f_internal@@YAHQEAD_KHQEAU_strflt@@_NQEAU__crt_locale_pointers@@@Z 0000000180019b64 f   libucrt:cvt.obj
 0001:00018ccc       ?fp_format_g@@YAHQEBNQEAD_K12H_NIQEAU__crt_locale_pointers@@@Z 0000000180019ccc f   libucrt:cvt.obj
 0001:00018e0c       ?should_round_up@@YA_NQEBN_KFW4__acrt_rounding_mode@@@Z 0000000180019e0c f   libucrt:cvt.obj
 0001:00019430       ??$?RV<lambda_410d79af7f07d98d83a3f525b3859a53>@@AEAV<lambda_3e16ef9562a7dcce91392c22ab16ea36>@@V<lambda_38119f0e861e05405d8a144b9b982f0a>@@@?$__crt_seh_guarded_call@X@@QEAAX$$QEAV<lambda_410d79af7f07d98d83a3f525b3859a53>@@AEAV<lambda_3e16ef9562a7dcce91392c22ab16ea36>@@$$QEAV<lambda_38119f0e861e05405d8a144b9b982f0a>@@@Z 000000018001a430 f   libucrt:wsetlocale.obj
 0001:000194dc       ?initialize_inherited_file_handles_nolock@@YAXXZ 000000018001a4dc f   libucrt:ioinit.obj
 0001:000195cc       ?initialize_stdio_handles_nolock@@YAXXZ 000000018001a5cc f   libucrt:ioinit.obj
 0001:00019848       ?<lambda_invoker_cdecl>@<lambda_a1ce4c8ae42411fd470c77163914f50e>@@CAHPEBX0@Z 000000018001a848 f   libucrt:argv_wildcards.obj
 0001:00019b60       ??$common_expand_argv_wildcards@D@@YAHQEAPEADQEAPEAPEAD@Z 000000018001ab60 f   libucrt:argv_wildcards.obj
 0001:00019d6c       ??$copy_and_add_argument_to_buffer@D@@YAHQEBD0_KAEAV?$argument_list@D@?A0x5f5c8891@@@Z 000000018001ad6c f   libucrt:argv_wildcards.obj
 0001:00019ef4       ??$expand_argument_wildcards@D@@YAHQEAD0AEAV?$argument_list@D@?A0x5f5c8891@@@Z 000000018001aef4 f   libucrt:argv_wildcards.obj
 0001:0001a440       ??$?RV<lambda_efdfa57d1f175319df784efa44bb7b81>@@AEAV<lambda_5f0a4c1567f8adc6734073e5d1e1b35c>@@V<lambda_2e8a7d3640ea6ccb4c2413664c2db6fd>@@@?$__crt_seh_guarded_call@X@@QEAAX$$QEAV<lambda_efdfa57d1f175319df784efa44bb7b81>@@AEAV<lambda_5f0a4c1567f8adc6734073e5d1e1b35c>@@$$QEAV<lambda_2e8a7d3640ea6ccb4c2413664c2db6fd>@@@Z 000000018001b440 f   libucrt:mbctype.obj
 0001:0001a5fc       ?getSystemCP@@YAHH@Z       000000018001b5fc f   libucrt:mbctype.obj
 0001:0001a67c       ?setSBCS@@YAXPEAU__crt_multibyte_data@@@Z 000000018001b67c f   libucrt:mbctype.obj
 0001:0001a70c       ?setSBUpLow@@YAXPEAU__crt_multibyte_data@@@Z 000000018001b70c f   libucrt:mbctype.obj
 0001:0001a8f0       ?setmbcp_internal@@YAHH_NQEAU__acrt_ptd@@QEAPEAU__crt_multibyte_data@@@Z 000000018001b8f0 f   libucrt:mbctype.obj
 0001:0001aab0       ?update_thread_multibyte_data_internal@@YAPEAU__crt_multibyte_data@@QEAU__acrt_ptd@@QEAPEAU1@@Z 000000018001bab0 f   libucrt:mbctype.obj
 0001:0001aea0       ?x_ismbbtype_l@@YAHPEAU__crt_locale_pointers@@IHH@Z 000000018001bea0 f   libucrt:ismbbyte.obj
 0001:0001b248       ??$?RV<lambda_450d765d439847d4c735a33c368b5fc0>@@AEAV<lambda_44731a7d0e6d81c3e6aa82d741081786>@@V<lambda_601a2a7da3b7a96e9554ac7215c4b07c>@@@?$__crt_seh_guarded_call@P6AXH@Z@@QEAAP6AXH@Z$$QEAV<lambda_450d765d439847d4c735a33c368b5fc0>@@AEAV<lambda_44731a7d0e6d81c3e6aa82d741081786>@@$$QEAV<lambda_601a2a7da3b7a96e9554ac7215c4b07c>@@@Z 000000018001c248 f   libucrt:signal.obj
 0001:0001b5a4       ??$?RV<lambda_842d9ff0dc9ef11c61343bbaebe7f885>@@AEAV<lambda_c5860995281e5c4ce005b3de8f5874ee>@@V<lambda_d90129c13df834fdcbf8d2b88dafcf2d>@@@?$__crt_seh_guarded_call@X@@QEAAX$$QEAV<lambda_842d9ff0dc9ef11c61343bbaebe7f885>@@AEAV<lambda_c5860995281e5c4ce005b3de8f5874ee>@@$$QEAV<lambda_d90129c13df834fdcbf8d2b88dafcf2d>@@@Z 000000018001c5a4 f   libucrt:fflush.obj
 0001:0001b640       ??$?RV<lambda_886d6c58226a84441f68b9f2b8217b83>@@AEAV<lambda_ab61a845afdef5b7c387490eaf3616ee>@@V<lambda_f7f22ab5edc0698d5f6905b0d3f44752>@@@?$__crt_seh_guarded_call@X@@QEAAX$$QEAV<lambda_886d6c58226a84441f68b9f2b8217b83>@@AEAV<lambda_ab61a845afdef5b7c387490eaf3616ee>@@$$QEAV<lambda_f7f22ab5edc0698d5f6905b0d3f44752>@@@Z 000000018001c640 f   libucrt:fflush.obj
 0001:0001b720       ?common_flush_all@@YAH_N@Z 000000018001c720 f   libucrt:fflush.obj
 0001:0001d770       memcpy_s                   000000018001e770 f   libucrt:cfout.obj
 0001:0001dad8       ?free_crt_array_internal@@YAXQEAPEBX_K@Z 000000018001ead8 f   libucrt:inittime.obj
 0001:0001e564       fallbackMethod             000000018001f564 f   libucrt:strpbrk.obj
 0001:0001e91c       $LN78                      000000018001f91c     libucrt:strpbrk.obj
 0001:0001e958       $LN77                      000000018001f958     libucrt:strpbrk.obj
 0001:0001e998       $LN76                      000000018001f998     libucrt:strpbrk.obj
 0001:0001ea74       ?__acrt_LCMapStringA_stat@@YAHPEAU__crt_locale_pointers@@PEB_WKPEBDHPEADHHH@Z 000000018001fa74 f   libucrt:lcmapstringa.obj
 0001:0001ee24       ?initialize_multibyte@@YAHXZ 000000018001fe24 f   libucrt:multibyte_initializer.obj
 0001:0001ee3c       ??$?RV<lambda_a37b2b86f63e897a80ea819b0eb08c01>@@AEAV<lambda_38ce7e780aa69e748d6df282ebc68efe>@@V<lambda_99fb1378e971ab6e7edea83e3a7a83a2>@@@?$__crt_seh_guarded_call@H@@QEAAH$$QEAV<lambda_a37b2b86f63e897a80ea819b0eb08c01>@@AEAV<lambda_38ce7e780aa69e748d6df282ebc68efe>@@$$QEAV<lambda_99fb1378e971ab6e7edea83e3a7a83a2>@@@Z 000000018001fe3c f   libucrt:commit.obj
 0001:0001ef5c       ?write_double_translated_ansi_nolock@@YA?AUwrite_result@?A0x17268360@@HQEBDI@Z 000000018001ff5c f   libucrt:write.obj
 0001:0001f448       ?write_text_ansi_nolock@@YA?AUwrite_result@?A0x17268360@@HQEBDI@Z 0000000180020448 f   libucrt:write.obj
 0001:0001f54c       ?write_text_utf16le_nolock@@YA?AUwrite_result@?A0x17268360@@HQEBDI@Z 000000018002054c f   libucrt:write.obj
 0001:0001f668       ?write_text_utf8_nolock@@YA?AUwrite_result@?A0x17268360@@HQEBDI@Z 0000000180020668 f   libucrt:write.obj
 0001:0001ffc0       $$000000                   0000000180020fc0     libucrt:log10.obj
 0001:0002088c       ??$common_lseek_nolock@_J@@YA_JH_JH@Z 000000018002188c f   libucrt:lseek.obj
 0001:00020aec       common_control87           0000000180021aec f   libucrt:ieee.obj
 0001:00020dac       _call_matherr              0000000180021dac f   libucrt:libm_error.obj
 0001:00020e14       _exception_enabled         0000000180021e14 f   libucrt:libm_error.obj
 0001:000210b0       _log_special_common        00000001800220b0 f   libucrt:log_special.obj
 0001:00021148       ??$?RV<lambda_751a882b2c74d4b022dec766aa51a29a>@@AEAV<lambda_628dfdc04ba53c8bfc02c9951375f3f5>@@V<lambda_f6c7be5f7998530c34de24c7437d6b54>@@@?$__crt_seh_guarded_call@H@@QEAAH$$QEAV<lambda_751a882b2c74d4b022dec766aa51a29a>@@AEAV<lambda_628dfdc04ba53c8bfc02c9951375f3f5>@@$$QEAV<lambda_f6c7be5f7998530c34de24c7437d6b54>@@@Z 0000000180022148 f   libucrt:close.obj
 0001:00021470       $$000000                   0000000180022470     libucrt:fpsr.obj
 0001:00021b10       $$000000                   0000000180022b10     LIBCMT:guard_dispatch.obj
 0001:00021b30       $$000000                   0000000180022b30     LIBCMT:guard_xfg_dispatch.obj
 0001:00021b50       ?filt$0@?0??_AtlVerifyStackAvailable@_ATL_SAFE_ALLOCA_IMPL@ATL@@YA_N_K@Z@4HA 0000000180022b50 f   MSR.obj
 0001:00021b71       __scrt_is_nonwritable_in_current_image$filt$0 0000000180022b71 f   LIBCMT:utility.obj
 0001:00021b89       ?catch$0@?0???2@YAPEAX_KAEBUnothrow_t@std@@@Z@4HA 0000000180022b89 f   LIBCMT:new_scalar_nothrow.obj
 0001:00021b96       __catch$??2@YAPEAX_KAEBUnothrow_t@std@@@Z$0 0000000180022b96 f   LIBCMT:new_scalar_nothrow.obj
 0001:00021ba7       ?fin$0@?0??dllmain_crt_process_attach@@YAHQEAUHINSTANCE__@@QEAX@Z@4HA 0000000180022ba7 f   LIBCMT:dll_dllmain.obj
 0001:00021bbe       ?fin$0@?0??dllmain_crt_process_detach@@YAH_N@Z@4HA 0000000180022bbe f   LIBCMT:dll_dllmain.obj
 0001:00021bd7       ?fin$1@?0??dllmain_crt_process_detach@@YAH_N@Z@4HA 0000000180022bd7 f   LIBCMT:dll_dllmain.obj
 0001:00021beb       ?filt$0@?0??dllmain_dispatch@@YAHQEAUHINSTANCE__@@KQEAX@Z@4HA 0000000180022beb f   LIBCMT:dll_dllmain.obj
 0001:00021c21       ?filt$0@?0???$_CallSETranslator@V__FrameHandler4@@@@YAHPEAUEHExceptionRecord@@PEA_KPEAU_CONTEXT@@PEAU_xDISPATCHER_CONTEXT@@PEAUFuncInfo4@FH4@@K1H@Z@4HA 0000000180022c21 f   libvcruntime:risctrnsctrl.obj
 0001:00021cc0       __DestructExceptionObject$filt$0 0000000180022cc0 f   libvcruntime:ehhelpers.obj
 0001:00021d56       ?filt$0@?0??CxxCallCatchBlock@__FrameHandler4@@SAPEAXPEAU_EXCEPTION_RECORD@@@Z@4HA 0000000180022d56 f   libvcruntime:frame.obj
 0001:00021d85       ?fin$1@?0??CxxCallCatchBlock@__FrameHandler4@@SAPEAXPEAU_EXCEPTION_RECORD@@@Z@4HA 0000000180022d85 f   libvcruntime:frame.obj
 0001:00021e08       ?filt$0@?0??FrameUnwindToState@__FrameHandler4@@SAXPEA_KPEAU_xDISPATCHER_CONTEXT@@PEAUFuncInfo4@FH4@@H@Z@4HA 0000000180022e08 f   libvcruntime:frame.obj
 0001:00021e1e       ?fin$1@?0??FrameUnwindToState@__FrameHandler4@@SAXPEA_KPEAU_xDISPATCHER_CONTEXT@@PEAUFuncInfo4@FH4@@H@Z@4HA 0000000180022e1e f   libvcruntime:frame.obj
 0001:00021e41       ?fin$0@?0???$?RV<lambda_0ae27a3a962d80f24befdcbee591983d>@@AEAV<lambda_8d0ee55de4b1038c4002e0adecdf1839>@@V<lambda_dc504788e8f1664fe9b84e20bfb512f2>@@@?$__crt_seh_guarded_call@X@@QEAAX$$QEAV<lambda_0ae27a3a962d80f24befdcbee591983d>@@AEAV<lambda_8d0ee55de4b1038c4002e0adecdf1839>@@$$QEAV<lambda_dc504788e8f1664fe9b84e20bfb512f2>@@@Z@4HA 0000000180022e41 f   libucrt:per_thread_data.obj
 0001:00021e41       ?fin$0@?0???$?RV<lambda_2d41944a1d46af3157314b8a01080d33>@@AEAV<lambda_8f455de75cd7d7f24b4096f044d8b9e6>@@V<lambda_aa500f224e6afead328df44964fe2772>@@@?$__crt_seh_guarded_call@X@@QEAAX$$QEAV<lambda_2d41944a1d46af3157314b8a01080d33>@@AEAV<lambda_8f455de75cd7d7f24b4096f044d8b9e6>@@$$QEAV<lambda_aa500f224e6afead328df44964fe2772>@@@Z@4HA 0000000180022e41 f   libucrt:per_thread_data.obj
 0001:00021e41       ?fin$0@?0???$?RV<lambda_aa87e3671a710a21b5dc78c0bdf72e11>@@AEAV<lambda_92619d2358a28f41a33ba319515a20b9>@@V<lambda_6992ecaafeb10aed2b74cb1fae11a551>@@@?$__crt_seh_guarded_call@X@@QEAAX$$QEAV<lambda_aa87e3671a710a21b5dc78c0bdf72e11>@@AEAV<lambda_92619d2358a28f41a33ba319515a20b9>@@$$QEAV<lambda_6992ecaafeb10aed2b74cb1fae11a551>@@@Z@4HA 0000000180022e41 f   libucrt:per_thread_data.obj
 0001:00021e41       ?fin$0@?0???$?RV<lambda_f2e299630e499de9f9a165e60fcd3db5>@@AEAV<lambda_2ae9d31cdba2644fcbeaf08da7c24588>@@V<lambda_40d01ff24d0e7b3814fdbdcee8eab3c7>@@@?$__crt_seh_guarded_call@X@@QEAAX$$QEAV<lambda_f2e299630e499de9f9a165e60fcd3db5>@@AEAV<lambda_2ae9d31cdba2644fcbeaf08da7c24588>@@$$QEAV<lambda_40d01ff24d0e7b3814fdbdcee8eab3c7>@@@Z@4HA 0000000180022e41 f   libucrt:per_thread_data.obj
 0001:00021e41       ?fin$0@?0???$?RV<lambda_efdfa57d1f175319df784efa44bb7b81>@@AEAV<lambda_5f0a4c1567f8adc6734073e5d1e1b35c>@@V<lambda_2e8a7d3640ea6ccb4c2413664c2db6fd>@@@?$__crt_seh_guarded_call@X@@QEAAX$$QEAV<lambda_efdfa57d1f175319df784efa44bb7b81>@@AEAV<lambda_5f0a4c1567f8adc6734073e5d1e1b35c>@@$$QEAV<lambda_2e8a7d3640ea6ccb4c2413664c2db6fd>@@@Z@4HA 0000000180022e41 f   libucrt:mbctype.obj
 0001:00021e41       ?fin$0@?0???$?RV<lambda_450d765d439847d4c735a33c368b5fc0>@@AEAV<lambda_44731a7d0e6d81c3e6aa82d741081786>@@V<lambda_601a2a7da3b7a96e9554ac7215c4b07c>@@@?$__crt_seh_guarded_call@P6AXH@Z@@QEAAP6AXH@Z$$QEAV<lambda_450d765d439847d4c735a33c368b5fc0>@@AEAV<lambda_44731a7d0e6d81c3e6aa82d741081786>@@$$QEAV<lambda_601a2a7da3b7a96e9554ac7215c4b07c>@@@Z@4HA 0000000180022e41 f   libucrt:signal.obj
 0001:00021e41       ?fin$0@?0???$?RV<lambda_d80eeec6fff315bfe5c115232f3240e3>@@AEAV<lambda_6e4b09c48022b2350581041d5f6b0c4c>@@V<lambda_2358e3775559c9db80273638284d5e45>@@@?$__crt_seh_guarded_call@X@@QEAAX$$QEAV<lambda_d80eeec6fff315bfe5c115232f3240e3>@@AEAV<lambda_6e4b09c48022b2350581041d5f6b0c4c>@@$$QEAV<lambda_2358e3775559c9db80273638284d5e45>@@@Z@4HA 0000000180022e41 f   libucrt:exit.obj
 0001:00021e41       ?fin$0@?0???$?RV<lambda_638799b9deba96c50f710eeac98168cd>@@AEAV<lambda_22ebabd17bc4fa466a2aca6d8deb888d>@@V<lambda_a6f7d7db0129f75315ebf26d50c089f1>@@@?$__crt_seh_guarded_call@H@@QEAAH$$QEAV<lambda_638799b9deba96c50f710eeac98168cd>@@AEAV<lambda_22ebabd17bc4fa466a2aca6d8deb888d>@@$$QEAV<lambda_a6f7d7db0129f75315ebf26d50c089f1>@@@Z@4HA 0000000180022e41 f   libucrt:onexit.obj
 0001:00021e41       ?fin$0@?0???$?RV<lambda_7777bce6b2f8c936911f934f8298dc43>@@AEAV<lambda_f03950bc5685219e0bcd2087efbe011e>@@V<lambda_3883c3dff614d5e0c5f61bb1ac94921c>@@@?$__crt_seh_guarded_call@H@@QEAAH$$QEAV<lambda_7777bce6b2f8c936911f934f8298dc43>@@AEAV<lambda_f03950bc5685219e0bcd2087efbe011e>@@$$QEAV<lambda_3883c3dff614d5e0c5f61bb1ac94921c>@@@Z@4HA 0000000180022e41 f   libucrt:onexit.obj
 0001:00021e5b       ?filt$0@?0???R<lambda_6e4b09c48022b2350581041d5f6b0c4c>@@QEBA@XZ@4HA 0000000180022e5b f   libucrt:exit.obj
 0001:00021e76       _query_new_handler$fin$0   0000000180022e76 f   libucrt:new_handler.obj
 0001:00021e8c       ?fin$0@?0???$?RV<lambda_410d79af7f07d98d83a3f525b3859a53>@@AEAV<lambda_3e16ef9562a7dcce91392c22ab16ea36>@@V<lambda_38119f0e861e05405d8a144b9b982f0a>@@@?$__crt_seh_guarded_call@X@@QEAAX$$QEAV<lambda_410d79af7f07d98d83a3f525b3859a53>@@AEAV<lambda_3e16ef9562a7dcce91392c22ab16ea36>@@$$QEAV<lambda_38119f0e861e05405d8a144b9b982f0a>@@@Z@4HA 0000000180022e8c f   libucrt:wsetlocale.obj
 0001:00021ea6       __acrt_initialize_lowio$fin$0 0000000180022ea6 f   libucrt:ioinit.obj
 0001:00021ea6       __acrt_lowio_ensure_fh_exists$fin$0 0000000180022ea6 f   libucrt:osfinfo.obj
 0001:00021ebf       ?fin$0@?0??update_thread_multibyte_data_internal@@YAPEAU__crt_multibyte_data@@QEAU__acrt_ptd@@QEAPEAU1@@Z@4HA 0000000180022ebf f   libucrt:mbctype.obj
 0001:00021ed8       raise$fin$0                0000000180022ed8 f   libucrt:signal.obj
 0001:00021ef9       ?fin$0@?0???$?RV<lambda_842d9ff0dc9ef11c61343bbaebe7f885>@@AEAV<lambda_c5860995281e5c4ce005b3de8f5874ee>@@V<lambda_d90129c13df834fdcbf8d2b88dafcf2d>@@@?$__crt_seh_guarded_call@X@@QEAAX$$QEAV<lambda_842d9ff0dc9ef11c61343bbaebe7f885>@@AEAV<lambda_c5860995281e5c4ce005b3de8f5874ee>@@$$QEAV<lambda_d90129c13df834fdcbf8d2b88dafcf2d>@@@Z@4HA 0000000180022ef9 f   libucrt:fflush.obj
 0001:00021f14       ?fin$0@?0???$?RV<lambda_886d6c58226a84441f68b9f2b8217b83>@@AEAV<lambda_ab61a845afdef5b7c387490eaf3616ee>@@V<lambda_f7f22ab5edc0698d5f6905b0d3f44752>@@@?$__crt_seh_guarded_call@X@@QEAAX$$QEAV<lambda_886d6c58226a84441f68b9f2b8217b83>@@AEAV<lambda_ab61a845afdef5b7c387490eaf3616ee>@@$$QEAV<lambda_f7f22ab5edc0698d5f6905b0d3f44752>@@@Z@4HA 0000000180022f14 f   libucrt:fflush.obj
 0001:00021f31       __acrt_update_thread_locale_data$fin$0 0000000180022f31 f   libucrt:locale_refcounting.obj
 0001:00021f4a       _fcloseall$fin$0           0000000180022f4a f   libucrt:closeall.obj
 0001:00021f63       ?fin$0@?0???$?RV<lambda_751a882b2c74d4b022dec766aa51a29a>@@AEAV<lambda_628dfdc04ba53c8bfc02c9951375f3f5>@@V<lambda_f6c7be5f7998530c34de24c7437d6b54>@@@?$__crt_seh_guarded_call@H@@QEAAH$$QEAV<lambda_751a882b2c74d4b022dec766aa51a29a>@@AEAV<lambda_628dfdc04ba53c8bfc02c9951375f3f5>@@$$QEAV<lambda_f6c7be5f7998530c34de24c7437d6b54>@@@Z@4HA 0000000180022f63 f   libucrt:close.obj
 0001:00021f63       ?fin$0@?0???$?RV<lambda_a37b2b86f63e897a80ea819b0eb08c01>@@AEAV<lambda_38ce7e780aa69e748d6df282ebc68efe>@@V<lambda_99fb1378e971ab6e7edea83e3a7a83a2>@@@?$__crt_seh_guarded_call@H@@QEAAH$$QEAV<lambda_a37b2b86f63e897a80ea819b0eb08c01>@@AEAV<lambda_38ce7e780aa69e748d6df282ebc68efe>@@$$QEAV<lambda_99fb1378e971ab6e7edea83e3a7a83a2>@@@Z@4HA 0000000180022f63 f   libucrt:commit.obj
 0001:00021f7d       _write$fin$0               0000000180022f7d f   libucrt:write.obj
 0001:00021f94       fclose$fin$0               0000000180022f94 f   libucrt:fclose.obj
 0001:00021fac       _ctrlfp$filt$0             0000000180022fac f   libucrt:fpctrl.obj
 0001:00021fac       common_control87$filt$0    0000000180022fac f   libucrt:ieee.obj
 0001:00021fe0       _IsNonwritableInCurrentImage$filt$0 0000000180022fe0 f   LIBCMT:pesect.obj
 0001:00022000       ??__F_AtlComModule@ATL@@YAXXZ 0000000180023000 f   OposVariant.obj
 0001:0002200c       ??__F_AtlWinModule@ATL@@YAXXZ 000000018002300c f   OposVariant.obj
 0001:00022050       ??__F_Module@@YAXXZ        0000000180023050 f   MSR.obj
 0001:0002206c       ??__F_AtlBaseModule@ATL@@YAXXZ 000000018002306c f   atls:atlbase.obj
 0002:00000650       ?_AtlBaseModule$initializer$@ATL@@3P6AXXZEA 0000000180024650     atls:atlbase.obj
 0002:00000658       ?_AtlComModule$initializer$@ATL@@3P6AXXZEA 0000000180024658     OposVariant.obj
 0002:00000660       ?_AtlWinModule$initializer$@ATL@@3P6AXXZEA 0000000180024660     OposVariant.obj
 0002:00000668       ?_Module$initializer$@@3P6AXXZEA 0000000180024668     MSR.obj
 0002:00000670       ??pConnMap$initializer$@?$IConnectionPointContainerImpl@VCOPOSMSR@@@ATL@@0P6AXXZEA@@3P6AXXZEA 0000000180024670     MSR.obj
 0002:00000688       ?__scrt_initialize_tss_var@@3P6AHXZEA 0000000180024688     LIBCMT:thread_safe_statics.obj
 0002:00002ab8       GS_ExceptionPointers       0000000180026ab8     LIBCMT:gs_report.obj
 0002:00002ca0       ?ExceptionTemplate@?1??UnwindNestedFrames@__FrameHandler4@@SAXPEA_KPEAUEHExceptionRecord@@PEAU_CONTEXT@@0PEAXPEAUFuncInfo4@FH4@@HHPEAUHandlerType4@6@PEAU_xDISPATCHER_CONTEXT@@E@Z@4U_EXCEPTION_RECORD@@B 0000000180026ca0     libvcruntime:risctrnsctrl.obj
 0002:00002d70       ?tokenTable@@3QBUStringLiteral@@B 0000000180026d70     libvcruntime:undname.obj
 0002:00002e70       ?nameTable@@3QBUStringLiteral@@B 0000000180026e70     libvcruntime:undname.obj
 0002:000033a0       ?rttiTable@@3QBUStringLiteral@@B 00000001800273a0     libvcruntime:undname.obj
 0002:000033f0       ?IndirectionName@@3QBUStringLiteral@@B 00000001800273f0     libvcruntime:undname.obj
 0002:00003450       ?PrefixName@@3QBUStringLiteral@@B 0000000180027450     libvcruntime:undname.obj
 0002:00003b28       ?module_names@?A0x84e3c32f@@3QBQEB_WB 0000000180027b28     libvcruntime:winapi_downlevel.obj
 0002:00003be8       ?candidate_modules@?1??try_get_FlsAlloc@@YAP6AKP6AXPEAX@Z@ZXZ@4QBW4module_id@?A0x84e3c32f@@B 0000000180027be8     libvcruntime:winapi_downlevel.obj
 0002:00003c00       ?candidate_modules@?1??try_get_FlsFree@@YAP6AHK@ZXZ@4QBW4module_id@?A0x84e3c32f@@B 0000000180027c00     libvcruntime:winapi_downlevel.obj
 0002:00003c10       ?candidate_modules@?1??try_get_FlsGetValue@@YAP6APEAXK@ZXZ@4QBW4module_id@?A0x84e3c32f@@B 0000000180027c10     libvcruntime:winapi_downlevel.obj
 0002:00003c28       ?candidate_modules@?1??try_get_FlsSetValue@@YAP6AHKPEAX@ZXZ@4QBW4module_id@?A0x84e3c32f@@B 0000000180027c28     libvcruntime:winapi_downlevel.obj
 0002:00003c40       ?candidate_modules@?1??try_get_InitializeCriticalSectionEx@@YAP6AHPEAU_RTL_CRITICAL_SECTION@@KK@ZXZ@4QBW4module_id@?A0x84e3c32f@@B 0000000180027c40     libvcruntime:winapi_downlevel.obj
 0002:00003c70       ?errtable@@3QBUerrentry@?A0x31fdb9ec@@B 0000000180027c70     libucrt:errno.obj
 0002:00004300       __acrt_initializers        0000000180028300     libucrt:initialization.obj
 0002:00004400       ?module_names@?A0x391cf84c@@3QBQEB_WB 0000000180028400     libucrt:winapi_thunks.obj
 0002:00004908       ?candidate_modules@?1??try_get_AreFileApisANSI@@YAP6AHXZXZ@4QBW4module_id@?A0x391cf84c@@B 0000000180028908     libucrt:winapi_thunks.obj
 0002:00004920       ?candidate_modules@?1??try_get_FlsAlloc@@YAP6AKP6AXPEAX@Z@ZXZ@4QBW4module_id@?A0x391cf84c@@B 0000000180028920     libucrt:winapi_thunks.obj
 0002:00004928       ?candidate_modules@?1??try_get_FlsFree@@YAP6AHK@ZXZ@4QBW4module_id@?A0x391cf84c@@B 0000000180028928     libucrt:winapi_thunks.obj
 0002:00004930       ?candidate_modules@?1??try_get_FlsGetValue@@YAP6APEAXK@ZXZ@4QBW4module_id@?A0x391cf84c@@B 0000000180028930     libucrt:winapi_thunks.obj
 0002:00004938       ?candidate_modules@?1??try_get_FlsSetValue@@YAP6AHKPEAX@ZXZ@4QBW4module_id@?A0x391cf84c@@B 0000000180028938     libucrt:winapi_thunks.obj
 0002:00004940       ?candidate_modules@?1??try_get_InitializeCriticalSectionEx@@YAP6AHPEAU_RTL_CRITICAL_SECTION@@KK@ZXZ@4QBW4module_id@?A0x391cf84c@@B 0000000180028940     libucrt:winapi_thunks.obj
 0002:00004948       ?candidate_modules@?1??try_get_LCMapStringEx@@YAP6AHPEB_WK0HPEA_WHPEAU_nlsversioninfo@@PEAX_J@ZXZ@4QBW4module_id@?A0x391cf84c@@B 0000000180028948     libucrt:winapi_thunks.obj
 0002:00004960       ?candidate_modules@?1??try_get_LocaleNameToLCID@@YAP6AKPEB_WK@ZXZ@4QBW4module_id@?A0x391cf84c@@B 0000000180028960     libucrt:winapi_thunks.obj
 0002:0000497c       ?candidate_modules@?1??try_get_AppPolicyGetProcessTerminationMethod@@YAP6AJPEAXPEAW4AppPolicyProcessTerminationMethod@@@ZXZ@4QBW4module_id@?A0x391cf84c@@B 000000018002897c     libucrt:winapi_thunks.obj
 0002:000049a8       ?candidate_modules@?1??try_get_SetThreadStackGuarantee@@YAP6AHPEAK@ZXZ@4QBW4module_id@?A0x391cf84c@@B 00000001800289a8     libucrt:winapi_thunks.obj
 0002:000049d0       ?strings@?1??fp_format_nan_or_infinity@@YAHW4__acrt_fp_class@@_NPEAD_K1@Z@4QAY03QEBDA 00000001800289d0     libucrt:cvt.obj
 0002:00005130       ?_mb_locale_names@@3QBQEB_WB 0000000180029130     libucrt:mbctype.obj
 0002:000059a0       ?LcidToLocaleNameTable@?A0x881e4c05@@3QBULcidToLocaleName@1@B 00000001800299a0     libucrt:lcidtoname_downlevel.obj
 0002:00007400       ?LocaleNameToIndexTable@?A0x881e4c05@@3QBULocaleNameIndex@1@B 000000018002b400     libucrt:lcidtoname_downlevel.obj
 0002:000096a0       __real_ninf                000000018002d6a0     libucrt:log10.obj
 0002:000096b0       __real_inf                 000000018002d6b0     libucrt:log10.obj
 0002:000096c0       __real_neg_qnan            000000018002d6c0     libucrt:log10.obj
 0002:000096d0       __real_qnanbit             000000018002d6d0     libucrt:log10.obj
 0002:000096e0       __int_1023                 000000018002d6e0     libucrt:log10.obj
 0002:000096f0       __mask_001                 000000018002d6f0     libucrt:log10.obj
 0002:00009700       __mask_mant                000000018002d700     libucrt:log10.obj
 0002:00009710       __mask_mant_top8           000000018002d710     libucrt:log10.obj
 0002:00009720       __mask_mant9               000000018002d720     libucrt:log10.obj
 0002:00009730       __real_log10_e             000000018002d730     libucrt:log10.obj
 0002:00009740       __real_log10_e_lead        000000018002d740     libucrt:log10.obj
 0002:00009750       __real_log10_e_tail        000000018002d750     libucrt:log10.obj
 0002:00009760       __real_log10_2_lead        000000018002d760     libucrt:log10.obj
 0002:00009770       __real_log10_2_tail        000000018002d770     libucrt:log10.obj
 0002:00009780       __real_two                 000000018002d780     libucrt:log10.obj
 0002:00009790       __real_one                 000000018002d790     libucrt:log10.obj
 0002:000097a0       __real_half                000000018002d7a0     libucrt:log10.obj
 0002:000097b0       __mask_100                 000000018002d7b0     libucrt:log10.obj
 0002:000097c0       __real_1_over_512          000000018002d7c0     libucrt:log10.obj
 0002:000097d0       __real_1_over_2            000000018002d7d0     libucrt:log10.obj
 0002:000097e0       __real_1_over_3            000000018002d7e0     libucrt:log10.obj
 0002:000097f0       __real_1_over_4            000000018002d7f0     libucrt:log10.obj
 0002:00009800       __real_1_over_5            000000018002d800     libucrt:log10.obj
 0002:00009810       __real_1_over_6            000000018002d810     libucrt:log10.obj
 0002:00009820       __real_neg_1023            000000018002d820     libucrt:log10.obj
 0002:00009830       __mask_2045                000000018002d830     libucrt:log10.obj
 0002:00009840       __real_threshold           000000018002d840     libucrt:log10.obj
 0002:00009850       __real_near_one_lt         000000018002d850     libucrt:log10.obj
 0002:00009860       __real_near_one_gt         000000018002d860     libucrt:log10.obj
 0002:00009870       __real_min_norm            000000018002d870     libucrt:log10.obj
 0002:00009880       __real_notsign             000000018002d880     libucrt:log10.obj
 0002:00009890       __real_ca1                 000000018002d890     libucrt:log10.obj
 0002:000098a0       __real_ca2                 000000018002d8a0     libucrt:log10.obj
 0002:000098b0       __real_ca3                 000000018002d8b0     libucrt:log10.obj
 0002:000098c0       __real_ca4                 000000018002d8c0     libucrt:log10.obj
 0002:000098d0       __mask_lower               000000018002d8d0     libucrt:log10.obj
 0002:000098e0       __flag_x_zero              000000018002d8e0     libucrt:log10.obj
 0002:000098e4       __flag_x_neg               000000018002d8e4     libucrt:log10.obj
 0002:000098e8       __flag_x_nan               000000018002d8e8     libucrt:log10.obj
 0002:0000b140       __real@433fffffffffffff    000000018002f140     libucrt:fpsr.obj
 0002:0000b148       __real@c33fffffffffffff    000000018002f148     libucrt:fpsr.obj
 0002:0000b9d0       $unwind$?cw_memcpy@@YAHPEA_WPEBDH@Z 000000018002f9d0     CWString.obj
 0002:0000b9d0       $unwind$?ProcessWindowMessage@?$CComControl@VCOPOSMSR@@V?$CWindowImpl@VCOPOSMSR@@VCWindow@ATL@@V?$CWinTraits@$0FGAAAAAA@$0A@@3@@ATL@@@ATL@@UEAAHPEAUHWND__@@I_K_JAEA_JK@Z 000000018002f9d0     MSR.obj
 0002:0000b9d0       $unwind$wcstol             000000018002f9d0     libucrt:strtox.obj
 0002:0000b9d0       $unwind$_invalid_parameter_noinfo 000000018002f9d0     libucrt:invalid_parameter.obj
 0002:0000b9d0       $unwind$_log10_special     000000018002f9d0     libucrt:log_special.obj
 0002:0000b9d8       $unwind$?cw_strcpy@@YAHPEA_WPEBD@Z 000000018002f9d8     CWString.obj
 0002:0000b9d8       $unwind$??__E?pConnMap@?$IConnectionPointContainerImpl@VCOPOSMSR@@@ATL@@0PEBU_ATL_CONNMAP_ENTRY@2@EB@@YAXXZ 000000018002f9d8     MSR.obj
 0002:0000b9d8       $unwind$?AddReplacement@CRegObject@ATL@@UEAAJPEB_W0@Z 000000018002f9d8     MSR.obj
 0002:0000b9d8       $unwind$?AtlHresultFromLastError@ATL@@YAJXZ 000000018002f9d8     MSR.obj
 0002:0000b9d8       $unwind$?AtlThrowImpl@ATL@@YAXJ@Z 000000018002f9d8     MSR.obj
 0002:0000b9d8       $unwind$?CreateInstance@CComClassFactory@ATL@@UEAAJPEAUIUnknown@@AEBU_GUID@@PEAPEAX@Z 000000018002f9d8     MSR.obj
 0002:0000b9d8       $unwind$?DefaultReflectionHandler@?$CWindowImplRoot@VCWindow@ATL@@@ATL@@SAHPEAUHWND__@@I_K_JAEA_J@Z 000000018002f9d8     MSR.obj
 0002:0000b9d8       $unwind$?EnumAdvise@?$IOleObjectImpl@VCOPOSMSR@@@ATL@@UEAAJPEAPEAUIEnumSTATDATA@@@Z 000000018002f9d8     MSR.obj
 0002:0000b9d8       $unwind$?FireViewChange@CComControlBase@ATL@@QEAAJXZ 000000018002f9d8     MSR.obj
 0002:0000b9d8       $unwind$?GetAdvise@?$IViewObjectExImpl@VCOPOSMSR@@@ATL@@UEAAJPEAK0PEAPEAUIAdviseSink@@@Z 000000018002f9d8     MSR.obj
 0002:0000b9d8       $unwind$?LockServer@CComClassFactory@ATL@@UEAAJH@Z 000000018002f9d8     MSR.obj
 0002:0000b9d8       $unwind$?OnDocWindowActivate@?$IOleInPlaceActiveObjectImpl@VCOPOSMSR@@@ATL@@UEAAJH@Z 000000018002f9d8     MSR.obj
 0002:0000b9d8       $unwind$?Unadvise@?$IOleObjectImpl@VCOPOSMSR@@@ATL@@UEAAJK@Z 000000018002f9d8     MSR.obj
 0002:0000b9d8       $unwind$?_LocCPQueryInterface@?$IConnectionPointImpl@VCOPOSMSR@@$1?DIID__IOPOSMSREvents@@3U_GUID@@BVCComDynamicUnkArray@ATL@@@ATL@@UEAAJAEBU_GUID@@PEAPEAX@Z 000000018002f9d8     MSR.obj
 0002:0000b9d8       $unwind$?_LocCPQueryInterface@?$IConnectionPointImpl@VCOPOSMSR@@$1?IID_IPropertyNotifySink@@3U_GUID@@BVCComDynamicUnkArray@ATL@@@ATL@@UEAAJAEBU_GUID@@PEAPEAX@Z 000000018002f9d8     MSR.obj
 0002:0000b9d8       $unwind$?FinalConstruct@COPOSMSR@@QEAAJXZ 000000018002f9d8     MSRImpl.obj
 0002:0000b9d8       $unwind$?get_ResultCode@COPOSMSR@@UEAAJPEAJ@Z 000000018002f9d8     MSRImpl.obj
 0002:0000b9d8       $unwind$?get_State@COPOSMSR@@UEAAJPEAJ@Z 000000018002f9d8     MSRImpl.obj
 0002:0000b9d8       $unwind$??1OposDispParms@@QEAA@XZ 000000018002f9d8     OposVariant.obj
 0002:0000b9d8       $unwind$??__E_AtlComModule@ATL@@YAXXZ 000000018002f9d8     OposVariant.obj
 0002:0000b9d8       $unwind$??__E_AtlWinModule@ATL@@YAXXZ 000000018002f9d8     OposVariant.obj
 0002:0000b9d8       $unwind$??__F_AtlWinModule@ATL@@YAXXZ 000000018002f9d8     OposVariant.obj
 0002:0000b9d8       $unwind$?GetLONG@OposVariant@@QEAAJXZ 000000018002f9d8     OposVariant.obj
 0002:0000b9d8       $unwind$??__E_AtlBaseModule@ATL@@YAXXZ 000000018002f9d8     atls:atlbase.obj
 0002:0000b9d8       $unwind$__scrt_initialize_default_local_stdio_options 000000018002f9d8     LIBCMT:default_local_stdio_options.obj
 0002:0000b9d8       $unwind$?dllmain_crt_dispatch@@YAHQEAUHINSTANCE__@@KQEAX@Z 000000018002f9d8     LIBCMT:dll_dllmain.obj
 0002:0000b9d8       $unwind$__report_rangecheckfailure 000000018002f9d8     LIBCMT:gs_report.obj
 0002:0000b9d8       $unwind$__GSHandlerCheck   000000018002f9d8     LIBCMT:gshandler.obj
 0002:0000b9d8       $unwind$?__scrt_uninitialize_thread_safe_statics@@YAXXZ 000000018002f9d8     LIBCMT:thread_safe_statics.obj
 0002:0000b9d8       $unwind$_Init_thread_notify 000000018002f9d8     LIBCMT:thread_safe_statics.obj
 0002:0000b9d8       $unwind$__scrt_acquire_startup_lock 000000018002f9d8     LIBCMT:utility.obj
 0002:0000b9d8       $unwind$__scrt_dllmain_after_initialize_c 000000018002f9d8     LIBCMT:utility.obj
 0002:0000b9d8       $unwind$__scrt_dllmain_before_initialize_c 000000018002f9d8     LIBCMT:utility.obj
 0002:0000b9d8       $unwind$__scrt_dllmain_crt_thread_attach 000000018002f9d8     LIBCMT:utility.obj
 0002:0000b9d8       $unwind$__scrt_dllmain_crt_thread_detach 000000018002f9d8     LIBCMT:utility.obj
 0002:0000b9d8       $unwind$__scrt_dllmain_uninitialize_c 000000018002f9d8     LIBCMT:utility.obj
 0002:0000b9d8       $unwind$__scrt_dllmain_uninitialize_critical 000000018002f9d8     LIBCMT:utility.obj
 0002:0000b9d8       $unwind$atexit             000000018002f9d8     LIBCMT:utility.obj
 0002:0000b9d8       $unwind$__vcrt_initialize  000000018002f9d8     libvcruntime:initialization.obj
 0002:0000b9d8       $unwind$__vcrt_thread_attach 000000018002f9d8     libvcruntime:initialization.obj
 0002:0000b9d8       $unwind$__vcrt_thread_detach 000000018002f9d8     libvcruntime:initialization.obj
 0002:0000b9d8       $unwind$__vcrt_uninitialize 000000018002f9d8     libvcruntime:initialization.obj
 0002:0000b9d8       $unwind$__vcrt_uninitialize_critical 000000018002f9d8     libvcruntime:initialization.obj
 0002:0000b9d8       $unwind$__vcrt_initialize_locks 000000018002f9d8     libvcruntime:locks.obj
 0002:0000b9d8       $unwind$__vcrt_freefls     000000018002f9d8     libvcruntime:per_thread_data.obj
 0002:0000b9d8       $unwind$__vcrt_getptd      000000018002f9d8     libvcruntime:per_thread_data.obj
 0002:0000b9d8       $unwind$__vcrt_initialize_ptd 000000018002f9d8     libvcruntime:per_thread_data.obj
 0002:0000b9d8       $unwind$__vcrt_uninitialize_ptd 000000018002f9d8     libvcruntime:per_thread_data.obj
 0002:0000b9d8       $unwind$_purecall          000000018002f9d8     libvcruntime:purevirt.obj
 0002:0000b9d8       $unwind$?FrameUnwindToEmptyState@__FrameHandler4@@SAXPEA_KPEAU_xDISPATCHER_CONTEXT@@PEAUFuncInfo4@FH4@@@Z 000000018002f9d8     libvcruntime:risctrnsctrl.obj
 0002:0000b9d8       $unwind$_GetImageBase      000000018002f9d8     libvcruntime:risctrnsctrl.obj
 0002:0000b9d8       $unwind$_GetThrowImageBase 000000018002f9d8     libvcruntime:risctrnsctrl.obj
 0002:0000b9d8       $unwind$__dcrt_terminate_console_output 000000018002f9d8     libucrt:initcon.obj
 0002:0000b9d8       $unwind$??$uninitialize_environment_internal@D@@YAXAEAPEAPEAD@Z 000000018002f9d8     libucrt:environment_initialization.obj
 0002:0000b9d8       $unwind$??$uninitialize_environment_internal@_W@@YAXAEAPEAPEA_W@Z 000000018002f9d8     libucrt:environment_initialization.obj
 0002:0000b9d8       $unwind$__dcrt_uninitialize_environments_nolock 000000018002f9d8     libucrt:environment_initialization.obj
 0002:0000b9d8       $unwind$__acrt_initialize_heap 000000018002f9d8     libucrt:heap_handle.obj
 0002:0000b9d8       $unwind$_msize_base        000000018002f9d8     libucrt:msize.obj
 0002:0000b9d8       $unwind$?initialize_multibyte@@YAHXZ 000000018002f9d8     libucrt:multibyte_initializer.obj
 0002:0000b9d8       $unwind$__acrt_thread_attach 000000018002f9d8     libucrt:initialization.obj
 0002:0000b9d8       $unwind$__acrt_thread_detach 000000018002f9d8     libucrt:initialization.obj
 0002:0000b9d8       $unwind$__acrt_uninitialize 000000018002f9d8     libucrt:initialization.obj
 0002:0000b9d8       $unwind$__acrt_uninitialize_critical 000000018002f9d8     libucrt:initialization.obj
 0002:0000b9d8       $unwind$initialize_c       000000018002f9d8     libucrt:initialization.obj
 0002:0000b9d8       $unwind$uninitialize_allocated_io_buffers 000000018002f9d8     libucrt:initialization.obj
 0002:0000b9d8       $unwind$uninitialize_environment 000000018002f9d8     libucrt:initialization.obj
 0002:0000b9d8       $unwind$__acrt_initialize_ptd 000000018002f9d8     libucrt:per_thread_data.obj
 0002:0000b9d8       $unwind$__acrt_uninitialize_ptd 000000018002f9d8     libucrt:per_thread_data.obj
 0002:0000b9d8       $unwind$__acrt_AreFileApisANSI 000000018002f9d8     libucrt:winapi_thunks.obj
 0002:0000b9d8       $unwind$__pctype_func      000000018002f9d8     libucrt:ctype.obj
 0002:0000b9d8       $unwind$__acrt_release_locale_ref 000000018002f9d8     libucrt:locale_refcounting.obj
 0002:0000b9d8       $unwind$_isatty            000000018002f9d8     libucrt:isatty.obj
 0002:0000b9d8       $unwind$_get_osfhandle     000000018002f9d8     libucrt:osfinfo.obj
 0002:0000b9d8       $unwind$__acrt_initialize_multibyte 000000018002f9d8     libucrt:mbctype.obj
 0002:0000b9d8       $unwind$__acrt_update_thread_multibyte_data 000000018002f9d8     libucrt:mbctype.obj
 0002:0000b9d8       $unwind$__doserrno         000000018002f9d8     libucrt:errno.obj
 0002:0000b9d8       $unwind$_errno             000000018002f9d8     libucrt:errno.obj
 0002:0000b9d8       $unwind$_invoke_watson     000000018002f9d8     libucrt:invalid_parameter.obj
 0002:0000b9d8       $unwind$abort              000000018002f9d8     libucrt:abort.obj
 0002:0000b9d8       $unwind$__acrt_initialize_command_line 000000018002f9d8     libucrt:argv_data.obj
 0002:0000b9d8       $unwind$_fileno            000000018002f9d8     libucrt:fileno.obj
 0002:0000b9d8       $unwind$?state_case_size@?$output_processor@_WV?$string_output_adapter@_W@__crt_stdio_output@@V?$format_validation_base@_WV?$string_output_adapter@_W@__crt_stdio_output@@@2@@__crt_stdio_output@@AEAA_NXZ 000000018002f9d8     libucrt:output.obj
 0002:0000b9d8       $unwind$_statfp            000000018002f9d8     libucrt:fpctrl.obj
 0002:0000b9d8       $unwind$fegetround         000000018002f9d8     libucrt:fegetround.obj
 0002:0000b9d8       $unwind$_set_errno_from_matherr 000000018002f9d8     libucrt:fpexcept.obj
 0002:0000b9e0       $unwind$?cw_dup@@YAXPEBDAEAHAEAPEA_W1@Z 000000018002f9e0     CWString.obj
 0002:0000b9e0       $unwind$?DAdvise@?$IDataObjectImpl@VCOPOSMSR@@@ATL@@UEAAJPEAUtagFORMATETC@@KPEAUIAdviseSink@@PEAK@Z 000000018002f9e0     MSR.obj
 0002:0000b9e0       $unwind$??$__acrt_mbs_to_wcs_cp@U__crt_win32_buffer_internal_dynamic_resizing@@@@YAHQEBDAEAV?$__crt_win32_buffer@_WU__crt_win32_buffer_internal_dynamic_resizing@@@@I@Z 000000018002f9e0     libucrt:argv_wildcards.obj
 0002:0000b9f8       $unwind$?DupWide@_CW@@AEAAXXZ 000000018002f9f8     CWString.obj
 0002:0000b9f8       $unwind$??0?$CComObject@VCOPOSMSR@@@ATL@@QEAA@PEAX@Z 000000018002f9f8     MSR.obj
 0002:0000b9f8       $unwind$??0CAtlModule@ATL@@QEAA@XZ 000000018002f9f8     MSR.obj
 0002:0000b9f8       $unwind$??1?$CComObject@VCOPOSMSR@@@ATL@@UEAA@XZ 000000018002f9f8     MSR.obj
 0002:0000b9f8       $unwind$??__E_Module@@YAXXZ 000000018002f9f8     MSR.obj
 0002:0000b9f8       $unwind$?AddRef@?$CComObjectCached@VCComClassFactory@ATL@@@ATL@@UEAAKXZ 000000018002f9f8     MSR.obj
 0002:0000b9f8       $unwind$?AllocateHeap@?$CTempBuffer@E$0BAA@VCCRTAllocator@ATL@@@ATL@@AEAAX_K@Z 000000018002f9f8     MSR.obj
 0002:0000b9f8       $unwind$?AllocateHeap@?$CTempBuffer@_W$0BAA@VCCRTAllocator@ATL@@@ATL@@AEAAX_K@Z 000000018002f9f8     MSR.obj
 0002:0000b9f8       $unwind$?AllocateHeap@?$CTempBuffer@_W$0EAA@VCCRTAllocator@ATL@@@ATL@@AEAAX_K@Z 000000018002f9f8     MSR.obj
 0002:0000b9f8       $unwind$?GetClassInfoW@?$IProvideClassInfo2Impl@$1?CLSID_OPOSMSR@@3U_GUID@@B$1?DIID__IOPOSMSREvents@@3U2@B$1?LIBID_OposMSR_CCO@@3U2@B$00$0A@VCComTypeInfoHolder@ATL@@@ATL@@UEAAJPEAPEAUITypeInfo@@@Z 000000018002f9f8     MSR.obj
 0002:0000b9f8       $unwind$?GetClientSite@?$IOleObjectImpl@VCOPOSMSR@@@ATL@@UEAAJPEAPEAUIOleClientSite@@@Z 000000018002f9f8     MSR.obj
 0002:0000b9f8       $unwind$?GetConnMap@COPOSMSR@@SAPEBU_ATL_CONNMAP_ENTRY@ATL@@PEAH@Z 000000018002f9f8     MSR.obj
 0002:0000b9f8       $unwind$?GetTypeInfo@?$IDispatchImpl@UIOPOSMSR@@$1?IID_IOPOSMSR@@3U_GUID@@B$1?LIBID_OposMSR_CCO@@3U3@B$00$0A@VCComTypeInfoHolder@ATL@@@ATL@@UEAAJIKPEAPEAUITypeInfo@@@Z 000000018002f9f8     MSR.obj
 0002:0000b9f8       $unwind$?IOleInPlaceObject_InPlaceDeactivate@CComControlBase@ATL@@QEAAJXZ 000000018002f9f8     MSR.obj
 0002:0000b9f8       $unwind$?IOleObject_SetExtent@CComControlBase@ATL@@QEAAJKPEAUtagSIZE@@@Z 000000018002f9f8     MSR.obj
 0002:0000b9f8       $unwind$?IsEqualObject@?$CComPtrBase@UIOleClientSite@@@ATL@@QEAA_NPEAUIUnknown@@@Z 000000018002f9f8     MSR.obj
 0002:0000b9f8       $unwind$?QueryHitPoint@?$IViewObjectExImpl@VCOPOSMSR@@@ATL@@UEAAJKPEBUtagRECT@@UtagPOINT@@JPEAK@Z 000000018002f9f8     MSR.obj
 0002:0000b9f8       $unwind$?QueryInterface@?$CComAggObject@VCOPOSMSR@@@ATL@@UEAAJAEBU_GUID@@PEAPEAX@Z 000000018002f9f8     MSR.obj
 0002:0000b9f8       $unwind$?Release@?$CComObjectCached@VCComClassFactory@ATL@@@ATL@@UEAAKXZ 000000018002f9f8     MSR.obj
 0002:0000b9f8       $unwind$?Unadvise@?$IConnectionPointImpl@VCOPOSMSR@@$1?DIID__IOPOSMSREvents@@3U_GUID@@BVCComDynamicUnkArray@ATL@@@ATL@@UEAAJK@Z 000000018002f9f8     MSR.obj
 0002:0000b9f8       $unwind$?Unadvise@?$IConnectionPointImpl@VCOPOSMSR@@$1?IID_IPropertyNotifySink@@3U_GUID@@BVCComDynamicUnkArray@ATL@@@ATL@@UEAAJK@Z 000000018002f9f8     MSR.obj
 0002:0000b9f8       $unwind$??1CComControlBase@ATL@@UEAA@XZ 000000018002f9f8     MSRImpl.obj
 0002:0000b9f8       $unwind$??1COPOSMSR@@UEAA@XZ 000000018002f9f8     MSRImpl.obj
 0002:0000b9f8       $unwind$?EventUninit@COPOSMSR@@IEAAXXZ 000000018002f9f8     MSRImpl.obj
 0002:0000b9f8       $unwind$?FreezeEvents@COPOSMSR@@MEAAJH@Z 000000018002f9f8     MSRImpl.obj
 0002:0000b9f8       $unwind$?SOProcessID@COPOSMSR@@UEAAJPEAJ@Z 000000018002f9f8     MSRImpl.obj
 0002:0000b9f8       $unwind$?get_AutoDisable@COPOSMSR@@UEAAJPEAF@Z 000000018002f9f8     MSRImpl.obj
 0002:0000b9f8       $unwind$?get_CapCompareFirmwareVersion@COPOSMSR@@UEAAJPEAF@Z 000000018002f9f8     MSRImpl.obj
 0002:0000b9f8       $unwind$?get_CapISO@COPOSMSR@@UEAAJPEAF@Z 000000018002f9f8     MSRImpl.obj
 0002:0000b9f8       $unwind$?get_CapJISOne@COPOSMSR@@UEAAJPEAF@Z 000000018002f9f8     MSRImpl.obj
 0002:0000b9f8       $unwind$?get_CapJISTwo@COPOSMSR@@UEAAJPEAF@Z 000000018002f9f8     MSRImpl.obj
 0002:0000b9f8       $unwind$?get_CapStatisticsReporting@COPOSMSR@@UEAAJPEAF@Z 000000018002f9f8     MSRImpl.obj
 0002:0000b9f8       $unwind$?get_CapTrackDataMasking@COPOSMSR@@UEAAJPEAF@Z 000000018002f9f8     MSRImpl.obj
 0002:0000b9f8       $unwind$?get_CapTransmitSentinels@COPOSMSR@@UEAAJPEAF@Z 000000018002f9f8     MSRImpl.obj
 0002:0000b9f8       $unwind$?get_CapUpdateFirmware@COPOSMSR@@UEAAJPEAF@Z 000000018002f9f8     MSRImpl.obj
 0002:0000b9f8       $unwind$?get_CapUpdateStatistics@COPOSMSR@@UEAAJPEAF@Z 000000018002f9f8     MSRImpl.obj
 0002:0000b9f8       $unwind$?get_Claimed@COPOSMSR@@UEAAJPEAF@Z 000000018002f9f8     MSRImpl.obj
 0002:0000b9f8       $unwind$?get_DataEventEnabled@COPOSMSR@@UEAAJPEAF@Z 000000018002f9f8     MSRImpl.obj
 0002:0000b9f8       $unwind$?get_DecodeData@COPOSMSR@@UEAAJPEAF@Z 000000018002f9f8     MSRImpl.obj
 0002:0000b9f8       $unwind$?get_DeviceAuthenticated@COPOSMSR@@UEAAJPEAF@Z 000000018002f9f8     MSRImpl.obj
 0002:0000b9f8       $unwind$?get_DeviceEnabled@COPOSMSR@@UEAAJPEAF@Z 000000018002f9f8     MSRImpl.obj
 0002:0000b9f8       $unwind$?get_FreezeEvents@COPOSMSR@@UEAAJPEAF@Z 000000018002f9f8     MSRImpl.obj
 0002:0000b9f8       $unwind$?get_ParseDecodeData@COPOSMSR@@UEAAJPEAF@Z 000000018002f9f8     MSRImpl.obj
 0002:0000b9f8       $unwind$?get_ParseDecodedData@COPOSMSR@@UEAAJPEAF@Z 000000018002f9f8     MSRImpl.obj
 0002:0000b9f8       $unwind$?get_TransmitSentinels@COPOSMSR@@UEAAJPEAF@Z 000000018002f9f8     MSRImpl.obj
 0002:0000b9f8       $unwind$?put_FreezeEvents@COPOSMSR@@UEAAJF@Z 000000018002f9f8     MSRImpl.obj
 0002:0000b9f8       $unwind$??0CAtlComModule@ATL@@QEAA@XZ 000000018002f9f8     OposVariant.obj
 0002:0000b9f8       $unwind$??0CAtlWinModule@ATL@@QEAA@XZ 000000018002f9f8     OposVariant.obj
 0002:0000b9f8       $unwind$?SetBSTR_OutPtr@OposVariant@@QEAA_NPEAPEA_WAEAJ@Z 000000018002f9f8     OposVariant.obj
 0002:0000b9f8       $unwind$??1CAtlBaseModule@ATL@@QEAA@XZ 000000018002f9f8     atls:atlbase.obj
 0002:0000b9f8       $unwind$AtlThunk_AllocateData 000000018002f9f8     atls:atlthunk.obj
 0002:0000b9f8       $unwind$__raise_securityfailure 000000018002f9f8     LIBCMT:gs_report.obj
 0002:0000b9f8       $unwind$??2@YAPEAX_K@Z     000000018002f9f8     LIBCMT:new_scalar.obj
 0002:0000b9f8       $unwind$??_Gtype_info@@UEAAPEAXI@Z 000000018002f9f8     LIBCMT:std_type_info_static.obj
 0002:0000b9f8       $unwind$_Init_thread_footer 000000018002f9f8     LIBCMT:thread_safe_statics.obj
 0002:0000b9f8       $unwind$_Init_thread_header 000000018002f9f8     LIBCMT:thread_safe_statics.obj
 0002:0000b9f8       $unwind$_Init_thread_wait  000000018002f9f8     LIBCMT:thread_safe_statics.obj
 0002:0000b9f8       $unwind$??0bad_alloc@std@@QEAA@AEBV01@@Z 000000018002f9f8     LIBCMT:throw_bad_alloc.obj
 0002:0000b9f8       $unwind$??0bad_array_new_length@std@@QEAA@AEBV01@@Z 000000018002f9f8     LIBCMT:throw_bad_alloc.obj
 0002:0000b9f8       $unwind$??0exception@std@@QEAA@AEBV01@@Z 000000018002f9f8     LIBCMT:throw_bad_alloc.obj
 0002:0000b9f8       $unwind$__scrt_initialize_crt 000000018002f9f8     LIBCMT:utility.obj
 0002:0000b9f8       $unwind$__scrt_initialize_onexit_tables 000000018002f9f8     LIBCMT:utility.obj
 0002:0000b9f8       $unwind$__scrt_release_startup_lock 000000018002f9f8     LIBCMT:utility.obj
 0002:0000b9f8       $unwind$__scrt_uninitialize_crt 000000018002f9f8     LIBCMT:utility.obj
 0002:0000b9f8       $unwind$_onexit            000000018002f9f8     LIBCMT:utility.obj
 0002:0000b9f8       $unwind$_IsExceptionObjectToBeDestroyed 000000018002f9f8     libvcruntime:ehhelpers.obj
 0002:0000b9f8       $unwind$??0HandlerMap4@FH4@@QEAA@PEBUTryBlockMapEntry4@1@_KH@Z 000000018002f9f8     libvcruntime:frame.obj
 0002:0000b9f8       $unwind$??0bad_exception@std@@QEAA@AEBV01@@Z 000000018002f9f8     libvcruntime:frame.obj
 0002:0000b9f8       $unwind$?ExFilterRethrow@@YAHPEAU_EXCEPTION_POINTERS@@PEAUEHExceptionRecord@@PEAH@Z 000000018002f9f8     libvcruntime:frame.obj
 0002:0000b9f8       $unwind$__vcrt_uninitialize_locks 000000018002f9f8     libvcruntime:locks.obj
 0002:0000b9f8       $unwind$__vcrt_freeptd     000000018002f9f8     libvcruntime:per_thread_data.obj
 0002:0000b9f8       $unwind$_CreateFrameInfo   000000018002f9f8     libvcruntime:risctrnsctrl.obj
 0002:0000b9f8       $unwind$_SetImageBase      000000018002f9f8     libvcruntime:risctrnsctrl.obj
 0002:0000b9f8       $unwind$_SetThrowImageBase 000000018002f9f8     libvcruntime:risctrnsctrl.obj
 0002:0000b9f8       $unwind$__std_exception_destroy 000000018002f9f8     libvcruntime:std_exception.obj
 0002:0000b9f8       $unwind$__std_type_info_destroy_list 000000018002f9f8     libvcruntime:std_type_info.obj
 0002:0000b9f8       $unwind$__vcrt_FlsAlloc    000000018002f9f8     libvcruntime:winapi_downlevel.obj
 0002:0000b9f8       $unwind$__vcrt_FlsFree     000000018002f9f8     libvcruntime:winapi_downlevel.obj
 0002:0000b9f8       $unwind$__vcrt_FlsGetValue 000000018002f9f8     libvcruntime:winapi_downlevel.obj
 0002:0000b9f8       $unwind$_calloc_base       000000018002f9f8     libucrt:calloc_base.obj
 0002:0000b9f8       $unwind$_malloc_base       000000018002f9f8     libucrt:malloc_base.obj
 0002:0000b9f8       $unwind$_callnewh          000000018002f9f8     libucrt:new_handler.obj
 0002:0000b9f8       $unwind$initialize_pointers 000000018002f9f8     libucrt:initialization.obj
 0002:0000b9f8       $unwind$uninitialize_allocated_memory 000000018002f9f8     libucrt:initialization.obj
 0002:0000b9f8       $unwind$__acrt_initialize_locks 000000018002f9f8     libucrt:locks.obj
 0002:0000b9f8       $unwind$__acrt_uninitialize_locks 000000018002f9f8     libucrt:locks.obj
 0002:0000b9f8       $unwind$__acrt_freeptd     000000018002f9f8     libucrt:per_thread_data.obj
 0002:0000b9f8       $unwind$__acrt_getptd_head 000000018002f9f8     libucrt:per_thread_data.obj
 0002:0000b9f8       $unwind$__acrt_get_process_end_policy 000000018002f9f8     libucrt:win_policies.obj
 0002:0000b9f8       $unwind$__acrt_AppPolicyGetProcessTerminationMethodInternal 000000018002f9f8     libucrt:winapi_thunks.obj
 0002:0000b9f8       $unwind$__acrt_FlsAlloc    000000018002f9f8     libucrt:winapi_thunks.obj
 0002:0000b9f8       $unwind$__acrt_FlsFree     000000018002f9f8     libucrt:winapi_thunks.obj
 0002:0000b9f8       $unwind$__acrt_FlsGetValue 000000018002f9f8     libucrt:winapi_thunks.obj
 0002:0000b9f8       $unwind$__acrt_SetThreadStackGuarantee 000000018002f9f8     libucrt:winapi_thunks.obj
 0002:0000b9f8       $unwind$__acrt_uninitialize_winapi_thunks 000000018002f9f8     libucrt:winapi_thunks.obj
 0002:0000b9f8       $unwind$__acrt_update_locale_info 000000018002f9f8     libucrt:locale_update.obj
 0002:0000b9f8       $unwind$__acrt_update_multibyte_info 000000018002f9f8     libucrt:locale_update.obj
 0002:0000b9f8       $unwind$__acrt_allocate_buffer_for_argv 000000018002f9f8     libucrt:argv_parsing.obj
 0002:0000b9f8       $unwind$?exit_or_terminate_process@@YAXI@Z 000000018002f9f8     libucrt:exit.obj
 0002:0000b9f8       $unwind$?try_cor_exit_process@@YAXI@Z 000000018002f9f8     libucrt:exit.obj
 0002:0000b9f8       $unwind$__acrt_uninitialize_stdio 000000018002f9f8     libucrt:_file.obj
 0002:0000b9f8       $unwind$__acrt_stdio_free_buffer_nolock 000000018002f9f8     libucrt:_freebuf.obj
 0002:0000b9f8       $unwind$_fflush_nolock     000000018002f9f8     libucrt:fflush.obj
 0002:0000b9f8       $unwind$strcpy_s           000000018002f9f8     libucrt:strcpy_s.obj
 0002:0000b9f8       $unwind$wcscat_s           000000018002f9f8     libucrt:wcscat_s.obj
 0002:0000b9f8       $unwind$wcscpy_s           000000018002f9f8     libucrt:wcscpy_s.obj
 0002:0000b9f8       $unwind$_clrfp             000000018002f9f8     libucrt:fpctrl.obj
 0002:0000b9f8       $unwind$_set_statfp        000000018002f9f8     libucrt:fpctrl.obj
 0002:0000b9f8       $unwind$_clearfp           000000018002f9f8     libucrt:ieee.obj
 0002:0000b9f8       $unwind$_controlfp_s       000000018002f9f8     libucrt:contrlfp.obj
 0002:0000b9f8       $unwind$fegetenv           000000018002f9f8     libucrt:fegetenv.obj
 0002:0000b9f8       $unwind$feholdexcept       000000018002f9f8     libucrt:feholdexcept.obj
 0002:0000b9f8       $unwind$fesetenv           000000018002f9f8     libucrt:fesetenv.obj
 0002:0000ba00       $unwind$?AtlWinModuleExtractCreateWndData@ATL@@YAPEAXPEAU_ATL_WIN_MODULE70@1@@Z 000000018002fa00     MSR.obj
 0002:0000ba00       $unwind$?CreateInstance@?$CComCreator@V?$CComObject@VCOPOSMSR@@@ATL@@@ATL@@SAJPEAXAEBU_GUID@@PEAPEAX@Z 000000018002fa00     MSR.obj
 0002:0000ba00       $unwind$?DoEvent@COPOSMSR@@IEAAXI_K_J@Z 000000018002fa00     MSR.obj
 0002:0000ba00       $unwind$?DoVerb@?$IOleObjectImpl@VCOPOSMSR@@@ATL@@UEAAJJPEAUtagMSG@@PEAUIOleClientSite@@JPEAUHWND__@@PEBUtagRECT@@@Z 000000018002fa00     MSR.obj
 0002:0000ba00       $unwind$?HKeyFromString@CRegParser@ATL@@KAPEAUHKEY__@@PEA_W@Z 000000018002fa00     MSR.obj
 0002:0000ba00       $unwind$?Next@?$CComEnumImpl@UIEnumConnectionPoints@@$1?_GUID_b196b285_bab4_101a_b69c_00aa00341d07@@3U__s_GUID@@BPEAUIConnectionPoint@@V?$_CopyInterface@UIConnectionPoint@@@ATL@@@ATL@@UEAAJKPEAPEAUIConnectionPoint@@PEAK@Z 000000018002fa00     MSR.obj
 0002:0000ba00       $unwind$?Next@?$CComEnumImpl@UIEnumConnections@@$1?_GUID_b196b287_bab4_101a_b69c_00aa00341d07@@3U__s_GUID@@BUtagCONNECTDATA@@V?$_Copy@UtagCONNECTDATA@@@ATL@@@ATL@@UEAAJKPEAUtagCONNECTDATA@@PEAK@Z 000000018002fa00     MSR.obj
 0002:0000ba00       $unwind$?SODirectIO@COPOSMSR@@MEAAJJPEAJPEAPEA_W@Z 000000018002fa00     MSR.obj
 0002:0000ba00       $unwind$?SetControlFocus@CComControlBase@ATL@@QEAAHH@Z 000000018002fa00     MSR.obj
 0002:0000ba00       $unwind$?ocscpy_s@@YA_NPEA_W_KPEB_W@Z 000000018002fa00     MSR.obj
 0002:0000ba00       $unwind$?s_EventWindowProc@COPOSMSR@@KA_JPEAUHWND__@@I_K_J@Z 000000018002fa00     MSRImpl.obj
 0002:0000ba00       $unwind$?AtlWinModuleTerm@ATL@@YAJPEAU_ATL_WIN_MODULE70@1@PEAUHINSTANCE__@@@Z 000000018002fa00     OposVariant.obj
 0002:0000ba00       $unwind$?SetVARIANT@OposVariant@@QEAAXAEAUtagVARIANT@@GAEAJ@Z 000000018002fa00     OposVariant.obj
 0002:0000ba00       $unwind$__scrt_dllmain_exception_filter 000000018002fa00     LIBCMT:utility.obj
 0002:0000ba00       $unwind$?Is_bad_exception_allowed@@YAEPEBU_s_ESTypeList@@@Z 000000018002fa00     libvcruntime:frame.obj
 0002:0000ba00       $unwind$_recalloc_base     000000018002fa00     libucrt:recalloc.obj
 0002:0000ba00       $unwind$__acrt_free_locale 000000018002fa00     libucrt:locale_refcounting.obj
 0002:0000ba00       $unwind$__acrt_lowio_create_handle_array 000000018002fa00     libucrt:osfinfo.obj
 0002:0000ba00       $unwind$?setSBCS@@YAXPEAU__crt_multibyte_data@@@Z 000000018002fa00     libucrt:mbctype.obj
 0002:0000ba00       $unwind$_seh_filter_exe    000000018002fa00     libucrt:exception_filter.obj
 0002:0000ba00       $unwind$_initterm          000000018002fa00     libucrt:initterm.obj
 0002:0000ba00       $unwind$??$ensure_buffer_is_big_enough@D@formatting_buffer@__crt_stdio_output@@QEAA_N_K@Z 000000018002fa00     libucrt:output.obj
 0002:0000ba00       $unwind$??$ensure_buffer_is_big_enough@_W@formatting_buffer@__crt_stdio_output@@QEAA_N_K@Z 000000018002fa00     libucrt:output.obj
 0002:0000ba14       $unwind$??_GCRegObject@ATL@@UEAAPEAXI@Z 000000018002fa14     MSR.obj
 0002:0000ba14       $unwind$?Add@?$CSimpleArray@GV?$CSimpleArrayEqualHelper@G@ATL@@@ATL@@QEAAHAEBG@Z 000000018002fa14     MSR.obj
 0002:0000ba14       $unwind$?Add@?$CSimpleMap@PEA_WPEA_WVCExpansionVectorEqualHelper@ATL@@@ATL@@QEAAHAEBQEA_W0@Z 000000018002fa14     MSR.obj
 0002:0000ba14       $unwind$?Add@CComDynamicUnkArray@ATL@@QEAAKPEAUIUnknown@@@Z 000000018002fa14     MSR.obj
 0002:0000ba14       $unwind$?Advise@?$IOleObjectImpl@VCOPOSMSR@@@ATL@@UEAAJPEAUIAdviseSink@@PEAK@Z 000000018002fa14     MSR.obj
 0002:0000ba14       $unwind$?ClearReplacements@CExpansionVector@ATL@@QEAAJXZ 000000018002fa14     MSR.obj
 0002:0000ba14       $unwind$?CreateInstance@?$CComObject@V?$CComEnum@UIEnumConnectionPoints@@$1?_GUID_b196b285_bab4_101a_b69c_00aa00341d07@@3U__s_GUID@@BPEAUIConnectionPoint@@V?$_CopyInterface@UIConnectionPoint@@@ATL@@VCComSingleThreadModel@6@@ATL@@@ATL@@SAJPEAPEAV12@@Z 000000018002fa14     MSR.obj
 0002:0000ba14       $unwind$?CreateInstance@?$CComObject@V?$CComEnum@UIEnumConnections@@$1?_GUID_b196b287_bab4_101a_b69c_00aa00341d07@@3U__s_GUID@@BUtagCONNECTDATA@@V?$_Copy@UtagCONNECTDATA@@@ATL@@VCComSingleThreadModel@6@@ATL@@@ATL@@SAJPEAPEAV12@@Z 000000018002fa14     MSR.obj
 0002:0000ba14       $unwind$?RegisterServer@CComModule@ATL@@QEAAJHPEBU_GUID@@@Z 000000018002fa14     MSR.obj
 0002:0000ba14       $unwind$?Term@CAtlModule@ATL@@QEAAXXZ 000000018002fa14     MSR.obj
 0002:0000ba14       $unwind$?UnregisterServer@CComModule@ATL@@QEAAJHPEBU_GUID@@@Z 000000018002fa14     MSR.obj
 0002:0000ba14       $unwind$?VTFromRegType@CRegParser@ATL@@KAHPEB_WAEAG@Z 000000018002fa14     MSR.obj
 0002:0000ba14       $unwind$??0OposDispParms@@QEAA@PEAVOposVariant@@H@Z 000000018002fa14     OposVariant.obj
 0002:0000ba14       $unwind$?SetBSTR_Copy@OposVariant@@QEAAXPEA_WAEAJ@Z 000000018002fa14     OposVariant.obj
 0002:0000ba14       $unwind$?SetBSTR_InOutPtr@OposVariant@@QEAA_NPEAPEA_WAEAJ@Z 000000018002fa14     OposVariant.obj
 0002:0000ba14       $unwind$?SetDispatch_Ptr@OposVariant@@QEAAXPEAUIDispatch@@AEAJ@Z 000000018002fa14     OposVariant.obj
 0002:0000ba14       $unwind$?SetLONG_Ptr@OposVariant@@QEAAXPEAJAEAJ@Z 000000018002fa14     OposVariant.obj
 0002:0000ba14       $unwind$?SetString@OposVariant@@QEAAXPEB_WAEAJ@Z 000000018002fa14     OposVariant.obj
 0002:0000ba14       $unwind$?Term@CAtlComModule@ATL@@QEAAXXZ 000000018002fa14     OposVariant.obj
 0002:0000ba14       $unwind$_DllMainCRTStartup 000000018002fa14     LIBCMT:dll_dllmain.obj
 0002:0000ba14       $unwind$__vcrt_getptd_noexit 000000018002fa14     libvcruntime:per_thread_data.obj
 0002:0000ba14       $unwind$__vcrt_InitializeCriticalSectionEx 000000018002fa14     libvcruntime:winapi_downlevel.obj
 0002:0000ba14       $unwind$memcpy_s           000000018002fa14     libucrt:cfout.obj
 0002:0000ba14       $unwind$__acrt_getptd      000000018002fa14     libucrt:per_thread_data.obj
 0002:0000ba14       $unwind$__acrt_getptd_noexit 000000018002fa14     libucrt:per_thread_data.obj
 0002:0000ba14       $unwind$__acrt_execute_initializers 000000018002fa14     libucrt:shared_initialization.obj
 0002:0000ba14       $unwind$__acrt_InitializeCriticalSectionEx 000000018002fa14     libucrt:winapi_thunks.obj
 0002:0000ba14       $unwind$?free_crt_array_internal@@YAXQEAPEBX_K@Z 000000018002fa14     libucrt:inittime.obj
 0002:0000ba14       $unwind$??$common_lseek_nolock@_J@@YA_JH_JH@Z 000000018002fa14     libucrt:lseek.obj
 0002:0000ba14       $unwind$__acrt_stdio_flush_nolock 000000018002fa14     libucrt:fflush.obj
 0002:0000ba14       $unwind$??0_LocaleUpdate@@QEAA@QEAU__crt_locale_pointers@@@Z 000000018002fa14     libucrt:output.obj
 0002:0000ba14       $unwind$?type_case_Z@?$output_processor@_WV?$string_output_adapter@_W@__crt_stdio_output@@V?$format_validation_base@_WV?$string_output_adapter@_W@__crt_stdio_output@@@2@@__crt_stdio_output@@AEAA_NXZ 000000018002fa14     libucrt:output.obj
 0002:0000ba14       $unwind$?type_case_s@?$output_processor@_WV?$string_output_adapter@_W@__crt_stdio_output@@V?$format_validation_base@_WV?$string_output_adapter@_W@__crt_stdio_output@@@2@@__crt_stdio_output@@AEAA_NXZ 000000018002fa14     libucrt:output.obj
 0002:0000ba14       $unwind$_exception_enabled 000000018002fa14     libucrt:libm_error.obj
 0002:0000ba24       $unwind$?AddTermFunc@CAtlModule@ATL@@QEAAJP6AX_K@Z0@Z 000000018002fa24     MSR.obj
 0002:0000ba24       $unwind$?AtlComModuleRegisterServer@ATL@@YAJPEAU_ATL_COM_MODULE70@1@HPEBU_GUID@@@Z 000000018002fa24     MSR.obj
 0002:0000ba24       $unwind$?AtlComModuleUnregisterServer@ATL@@YAJPEAU_ATL_COM_MODULE70@1@HPEBU_GUID@@@Z 000000018002fa24     MSR.obj
 0002:0000ba24       $unwind$?CreateInstance@?$CComCreator@V?$CComAggObject@VCOPOSMSR@@@ATL@@@ATL@@SAJPEAXAEBU_GUID@@PEAPEAX@Z 000000018002fa24     MSR.obj
 0002:0000ba24       $unwind$?CreateInstance@?$CComCreator@V?$CComObjectCached@VCComClassFactory@ATL@@@ATL@@@ATL@@SAJPEAXAEBU_GUID@@PEAPEAX@Z 000000018002fa24     MSR.obj
 0002:0000ba24       $unwind$?GetPagesHelper@?$ISpecifyPropertyPagesImpl@VCOPOSMSR@@@ATL@@IEAAJPEAUtagCAUUID@@PEBUATL_PROPMAP_ENTRY@2@@Z 000000018002fa24     MSR.obj
 0002:0000ba24       $unwind$??_Estringdispid@CComTypeInfoHolder@ATL@@QEAAPEAXI@Z 000000018002fa24     OposVariant.obj
 0002:0000ba24       $unwind$__GSHandlerCheck_SEH 000000018002fa24     LIBCMT:gshandlerseh.obj
 0002:0000ba24       $unwind$??$TypeMatchHelper@V__FrameHandler3@@@@YAHPEBU_s_HandlerType@@PEBU_s_CatchableType@@PEBU_s_ThrowInfo@@@Z 000000018002fa24     libvcruntime:frame.obj
 0002:0000ba24       $unwind$??$TypeMatchHelper@V__FrameHandler4@@@@YAHPEAUHandlerType4@FH4@@PEBU_s_CatchableType@@PEBU_s_ThrowInfo@@@Z 000000018002fa24     libvcruntime:frame.obj
 0002:0000ba24       $unwind$?initialize_stdio_handles_nolock@@YAXXZ 000000018002fa24     libucrt:ioinit.obj
 0002:0000ba24       $unwind$__acrt_initialize_stdio 000000018002fa24     libucrt:_file.obj
 0002:0000ba24       $unwind$?process@?$output_processor@_WV?$string_output_adapter@_W@__crt_stdio_output@@V?$format_validation_base@_WV?$string_output_adapter@_W@__crt_stdio_output@@@2@@__crt_stdio_output@@QEAAHXZ 000000018002fa24     libucrt:output.obj
 0002:0000ba24       $unwind$?type_case_integer@?$output_processor@_WV?$string_output_adapter@_W@__crt_stdio_output@@V?$format_validation_base@_WV?$string_output_adapter@_W@__crt_stdio_output@@@2@@__crt_stdio_output@@AEAA_NI_N@Z 000000018002fa24     libucrt:output.obj
 0002:0000ba3c       $unwind$??0?$CComContainedObject@VCOPOSMSR@@@ATL@@QEAA@PEAX@Z 000000018002fa3c     MSR.obj
 0002:0000ba3c       $unwind$??1?$CComEnumImpl@UIEnumConnectionPoints@@$1?_GUID_b196b285_bab4_101a_b69c_00aa00341d07@@3U__s_GUID@@BPEAUIConnectionPoint@@V?$_CopyInterface@UIConnectionPoint@@@ATL@@@ATL@@UEAA@XZ 000000018002fa3c     MSR.obj
 0002:0000ba3c       $unwind$??1?$CComEnumImpl@UIEnumConnections@@$1?_GUID_b196b287_bab4_101a_b69c_00aa00341d07@@3U__s_GUID@@BUtagCONNECTDATA@@V?$_Copy@UtagCONNECTDATA@@@ATL@@@ATL@@UEAA@XZ 000000018002fa3c     MSR.obj
 0002:0000ba3c       $unwind$??_G?$CComAggObject@VCOPOSMSR@@@ATL@@UEAAPEAXI@Z 000000018002fa3c     MSR.obj
 0002:0000ba3c       $unwind$??_G?$CComContainedObject@VCOPOSMSR@@@ATL@@UEAAPEAXI@Z 000000018002fa3c     MSR.obj
 0002:0000ba3c       $unwind$??_G?$CComObject@V?$CComEnum@UIEnumConnectionPoints@@$1?_GUID_b196b285_bab4_101a_b69c_00aa00341d07@@3U__s_GUID@@BPEAUIConnectionPoint@@V?$_CopyInterface@UIConnectionPoint@@@ATL@@VCComSingleThreadModel@6@@ATL@@@ATL@@UEAAPEAXI@Z 000000018002fa3c     MSR.obj
 0002:0000ba3c       $unwind$??_G?$CComObject@V?$CComEnum@UIEnumConnections@@$1?_GUID_b196b287_bab4_101a_b69c_00aa00341d07@@3U__s_GUID@@BUtagCONNECTDATA@@V?$_Copy@UtagCONNECTDATA@@@ATL@@VCComSingleThreadModel@6@@ATL@@@ATL@@UEAAPEAXI@Z 000000018002fa3c     MSR.obj
 0002:0000ba3c       $unwind$??_G?$CComObject@VCOPOSMSR@@@ATL@@UEAAPEAXI@Z 000000018002fa3c     MSR.obj
 0002:0000ba3c       $unwind$??_G?$CComObjectCached@VCComClassFactory@ATL@@@ATL@@UEAAPEAXI@Z 000000018002fa3c     MSR.obj
 0002:0000ba3c       $unwind$??_GCComClassFactory@ATL@@UEAAPEAXI@Z 000000018002fa3c     MSR.obj
 0002:0000ba3c       $unwind$??_GCComModule@ATL@@UEAAPEAXI@Z 000000018002fa3c     MSR.obj
 0002:0000ba3c       $unwind$?DeleteSubKey@CRegKey@ATL@@QEAAJPEB_W@Z 000000018002fa3c     MSR.obj
 0002:0000ba3c       $unwind$?IOleObject_SetClientSite@CComControlBase@ATL@@QEAAJPEAUIOleClientSite@@@Z 000000018002fa3c     MSR.obj
 0002:0000ba3c       $unwind$?InitNew@?$IPersistStorageImpl@VCOPOSMSR@@@ATL@@UEAAJPEAUIStorage@@@Z 000000018002fa3c     MSR.obj
 0002:0000ba3c       $unwind$?IsDirty@?$IPersistStorageImpl@VCOPOSMSR@@@ATL@@UEAAJXZ 000000018002fa3c     MSR.obj
 0002:0000ba3c       $unwind$?Release@?$CComAggObject@VCOPOSMSR@@@ATL@@UEAAKXZ 000000018002fa3c     MSR.obj
 0002:0000ba3c       $unwind$?Release@?$CComObject@V?$CComEnum@UIEnumConnectionPoints@@$1?_GUID_b196b285_bab4_101a_b69c_00aa00341d07@@3U__s_GUID@@BPEAUIConnectionPoint@@V?$_CopyInterface@UIConnectionPoint@@@ATL@@VCComSingleThreadModel@6@@ATL@@@ATL@@UEAAKXZ 000000018002fa3c     MSR.obj
 0002:0000ba3c       $unwind$?Release@?$CComObject@V?$CComEnum@UIEnumConnections@@$1?_GUID_b196b287_bab4_101a_b69c_00aa00341d07@@3U__s_GUID@@BUtagCONNECTDATA@@V?$_Copy@UtagCONNECTDATA@@@ATL@@VCComSingleThreadModel@6@@ATL@@@ATL@@UEAAKXZ 000000018002fa3c     MSR.obj
 0002:0000ba3c       $unwind$?Release@?$CComObject@VCOPOSMSR@@@ATL@@UEAAKXZ 000000018002fa3c     MSR.obj
 0002:0000ba3c       $unwind$?SOData@COPOSMSR@@MEAAJJ@Z 000000018002fa3c     MSR.obj
 0002:0000ba3c       $unwind$?SOStatusUpdate@COPOSMSR@@MEAAJJ@Z 000000018002fa3c     MSR.obj
 0002:0000ba3c       $unwind$?SetAdvise@?$IViewObjectExImpl@VCOPOSMSR@@@ATL@@UEAAJKKPEAUIAdviseSink@@@Z 000000018002fa3c     MSR.obj
 0002:0000ba3c       $unwind$?Term@CComModule@ATL@@QEAAXXZ 000000018002fa3c     MSR.obj
 0002:0000ba3c       $unwind$DllMain            000000018002fa3c     MSR.obj
 0002:0000ba3c       $unwind$??1?$IConnectionPointImpl@VCOPOSMSR@@$1?DIID__IOPOSMSREvents@@3U_GUID@@BVCComDynamicUnkArray@ATL@@@ATL@@QEAA@XZ 000000018002fa3c     MSRImpl.obj
 0002:0000ba3c       $unwind$??1?$IConnectionPointImpl@VCOPOSMSR@@$1?IID_IPropertyNotifySink@@3U_GUID@@BVCComDynamicUnkArray@ATL@@@ATL@@QEAA@XZ 000000018002fa3c     MSRImpl.obj
 0002:0000ba3c       $unwind$?SetBSTR@OposVariant@@QEAAXPEA_WAEAJ@Z 000000018002fa3c     OposVariant.obj
 0002:0000ba3c       $unwind$?SetLONG@OposVariant@@QEAAXJ@Z 000000018002fa3c     OposVariant.obj
 0002:0000ba3c       $unwind$?SetVARIANT_BOOL@OposVariant@@QEAAXF@Z 000000018002fa3c     OposVariant.obj
 0002:0000ba3c       $unwind$??0CAtlBaseModule@ATL@@QEAA@XZ 000000018002fa3c     atls:atlbase.obj
 0002:0000ba3c       $unwind$??$GetProcAddressAll@P6AP6A_JPEAUHWND__@@I_K_J@ZPEAUAtlThunkData_t@@@Z@@YAP6AP6A_JPEAUHWND__@@I_K_J@ZPEAUAtlThunkData_t@@@ZPEAP6AP6A_J0I12@Z3@Z@Z 000000018002fa3c     atls:atlthunk.obj
 0002:0000ba3c       $unwind$??$GetProcAddressAll@P6APEAUAtlThunkData_t@@XZ@@YAP6APEAUAtlThunkData_t@@XZPEAP6APEAU0@XZ@Z 000000018002fa3c     atls:atlthunk.obj
 0002:0000ba3c       $unwind$??$GetProcAddressAll@P6AXPEAUAtlThunkData_t@@@Z@@YAP6AXPEAUAtlThunkData_t@@@ZPEAP6AX0@Z@Z 000000018002fa3c     atls:atlthunk.obj
 0002:0000ba3c       $unwind$??$GetProcAddressAll@P6AXPEAUAtlThunkData_t@@PEAX_K@Z@@YAP6AXPEAUAtlThunkData_t@@PEAX_K@ZPEAP6AX012@Z@Z 000000018002fa3c     atls:atlthunk.obj
 0002:0000ba3c       $unwind$?__AllocStdCallThunk_cmn@@YAPEAXXZ 000000018002fa3c     atls:atlthunk.obj
 0002:0000ba3c       $unwind$?__InitializeThunkPool@@YAHXZ 000000018002fa3c     atls:atlthunk.obj
 0002:0000ba3c       $unwind$AtlThunk_DataToCode 000000018002fa3c     atls:atlthunk.obj
 0002:0000ba3c       $unwind$_RTC_Initialize    000000018002fa3c     LIBCMT:initsect.obj
 0002:0000ba3c       $unwind$_RTC_Terminate     000000018002fa3c     LIBCMT:initsect.obj
 0002:0000ba3c       $unwind$?__scrt_initialize_thread_safe_statics@@YAHXZ 000000018002fa3c     LIBCMT:thread_safe_statics.obj
 0002:0000ba3c       $unwind$??_Gbad_alloc@std@@UEAAPEAXI@Z 000000018002fa3c     LIBCMT:throw_bad_alloc.obj
 0002:0000ba3c       $unwind$??_Gbad_array_new_length@std@@UEAAPEAXI@Z 000000018002fa3c     LIBCMT:throw_bad_alloc.obj
 0002:0000ba3c       $unwind$??_Gexception@std@@UEAAPEAXI@Z 000000018002fa3c     LIBCMT:throw_bad_alloc.obj
 0002:0000ba3c       $unwind$__FrameUnwindFilter 000000018002fa3c     libvcruntime:ehhelpers.obj
 0002:0000ba3c       $unwind$??_Gbad_exception@std@@UEAAPEAXI@Z 000000018002fa3c     libvcruntime:frame.obj
 0002:0000ba3c       $unwind$?ExFilterRethrowFH4@@YAHPEAU_EXCEPTION_POINTERS@@PEAUEHExceptionRecord@@HPEAH@Z 000000018002fa3c     libvcruntime:frame.obj
 0002:0000ba3c       $unwind$_FindAndUnlinkFrame 000000018002fa3c     libvcruntime:risctrnsctrl.obj
 0002:0000ba3c       $unwind$__vcrt_FlsSetValue 000000018002fa3c     libvcruntime:winapi_downlevel.obj
 0002:0000ba3c       $unwind$??$common_initialize_environment_nolock@D@@YAHXZ 000000018002fa3c     libucrt:environment_initialization.obj
 0002:0000ba3c       $unwind$_realloc_base      000000018002fa3c     libucrt:realloc_base.obj
 0002:0000ba3c       $unwind$?replace_current_thread_locale_nolock@@YAXQEAU__acrt_ptd@@QEAU__crt_locale_data@@@Z 000000018002fa3c     libucrt:per_thread_data.obj
 0002:0000ba3c       $unwind$__acrt_execute_uninitializers 000000018002fa3c     libucrt:shared_initialization.obj
 0002:0000ba3c       $unwind$__acrt_FlsSetValue 000000018002fa3c     libucrt:winapi_thunks.obj
 0002:0000ba3c       $unwind$__acrt_LocaleNameToLCID 000000018002fa3c     libucrt:winapi_thunks.obj
 0002:0000ba3c       $unwind$_updatetlocinfoEx_nolock 000000018002fa3c     libucrt:locale_refcounting.obj
 0002:0000ba3c       $unwind$_close_nolock      000000018002fa3c     libucrt:close.obj
 0002:0000ba3c       $unwind$__acrt_uninitialize_lowio 000000018002fa3c     libucrt:ioinit.obj
 0002:0000ba3c       $unwind$__acrt_errno_map_os_error 000000018002fa3c     libucrt:errno.obj
 0002:0000ba3c       $unwind$_initterm_e        000000018002fa3c     libucrt:initterm.obj
 0002:0000ba3c       $unwind$_fclose_nolock     000000018002fa3c     libucrt:fclose.obj
 0002:0000ba3c       $unwind$?type_case_n@?$output_processor@_WV?$string_output_adapter@_W@__crt_stdio_output@@V?$format_validation_base@_WV?$string_output_adapter@_W@__crt_stdio_output@@@2@@__crt_stdio_output@@AEAA_NXZ 000000018002fa3c     libucrt:output.obj
 0002:0000ba3c       $unwind$strncpy_s          000000018002fa3c     libucrt:strncpy_s.obj
 0002:0000ba3c       $unwind$wcsncpy_s          000000018002fa3c     libucrt:wcsncpy_s.obj
 0002:0000ba48       $unwind$?ChangeBSTR@OposVariant@@QEAAXPEAPEA_WAEAJ@Z 000000018002fa48     OposVariant.obj
 0002:0000ba48       $unwind$?ChangeLONG@OposVariant@@QEAAXPEAJAEAJ@Z 000000018002fa48     OposVariant.obj
 0002:0000ba48       $unwind$?x_ismbbtype_l@@YAHPEAU__crt_locale_pointers@@IHH@Z 000000018002fa48     libucrt:ismbbyte.obj
 0002:0000ba58       $unwind$swprintf_s         000000018002fa58     MSR.obj
 0002:0000ba68       $unwind$?_AtlVerifyStackAvailable@_ATL_SAFE_ALLOCA_IMPL@ATL@@YA_N_K@Z 000000018002fa68     MSR.obj
 0002:0000ba94       $unwind$?filt$0@?0??_AtlVerifyStackAvailable@_ATL_SAFE_ALLOCA_IMPL@ATL@@YA_N_K@Z@4HA 000000018002fa94     MSR.obj
 0002:0000ba94       $unwind$?fin$0@?0??dllmain_crt_process_attach@@YAHQEAUHINSTANCE__@@QEAX@Z@4HA 000000018002fa94     LIBCMT:dll_dllmain.obj
 0002:0000ba94       $unwind$?fin$0@?0??dllmain_crt_process_detach@@YAH_N@Z@4HA 000000018002fa94     LIBCMT:dll_dllmain.obj
 0002:0000ba94       $unwind$?fin$1@?0??dllmain_crt_process_detach@@YAH_N@Z@4HA 000000018002fa94     LIBCMT:dll_dllmain.obj
 0002:0000ba94       $unwind$_IsNonwritableInCurrentImage$filt$0 000000018002fa94     LIBCMT:pesect.obj
 0002:0000ba94       $unwind$?filt$0@?0??CxxCallCatchBlock@__FrameHandler4@@SAPEAXPEAU_EXCEPTION_RECORD@@@Z@4HA 000000018002fa94     libvcruntime:frame.obj
 0002:0000ba94       $unwind$_query_new_handler$fin$0 000000018002fa94     libucrt:new_handler.obj
 0002:0000ba94       $unwind$?fin$0@?0???$?RV<lambda_0ae27a3a962d80f24befdcbee591983d>@@AEAV<lambda_8d0ee55de4b1038c4002e0adecdf1839>@@V<lambda_dc504788e8f1664fe9b84e20bfb512f2>@@@?$__crt_seh_guarded_call@X@@QEAAX$$QEAV<lambda_0ae27a3a962d80f24befdcbee591983d>@@AEAV<lambda_8d0ee55de4b1038c4002e0adecdf1839>@@$$QEAV<lambda_dc504788e8f1664fe9b84e20bfb512f2>@@@Z@4HA 000000018002fa94     libucrt:per_thread_data.obj
 0002:0000ba94       $unwind$?fin$0@?0???$?RV<lambda_2d41944a1d46af3157314b8a01080d33>@@AEAV<lambda_8f455de75cd7d7f24b4096f044d8b9e6>@@V<lambda_aa500f224e6afead328df44964fe2772>@@@?$__crt_seh_guarded_call@X@@QEAAX$$QEAV<lambda_2d41944a1d46af3157314b8a01080d33>@@AEAV<lambda_8f455de75cd7d7f24b4096f044d8b9e6>@@$$QEAV<lambda_aa500f224e6afead328df44964fe2772>@@@Z@4HA 000000018002fa94     libucrt:per_thread_data.obj
 0002:0000ba94       $unwind$?fin$0@?0???$?RV<lambda_aa87e3671a710a21b5dc78c0bdf72e11>@@AEAV<lambda_92619d2358a28f41a33ba319515a20b9>@@V<lambda_6992ecaafeb10aed2b74cb1fae11a551>@@@?$__crt_seh_guarded_call@X@@QEAAX$$QEAV<lambda_aa87e3671a710a21b5dc78c0bdf72e11>@@AEAV<lambda_92619d2358a28f41a33ba319515a20b9>@@$$QEAV<lambda_6992ecaafeb10aed2b74cb1fae11a551>@@@Z@4HA 000000018002fa94     libucrt:per_thread_data.obj
 0002:0000ba94       $unwind$?fin$0@?0???$?RV<lambda_f2e299630e499de9f9a165e60fcd3db5>@@AEAV<lambda_2ae9d31cdba2644fcbeaf08da7c24588>@@V<lambda_40d01ff24d0e7b3814fdbdcee8eab3c7>@@@?$__crt_seh_guarded_call@X@@QEAAX$$QEAV<lambda_f2e299630e499de9f9a165e60fcd3db5>@@AEAV<lambda_2ae9d31cdba2644fcbeaf08da7c24588>@@$$QEAV<lambda_40d01ff24d0e7b3814fdbdcee8eab3c7>@@@Z@4HA 000000018002fa94     libucrt:per_thread_data.obj
 0002:0000ba94       $unwind$__acrt_update_thread_locale_data$fin$0 000000018002fa94     libucrt:locale_refcounting.obj
 0002:0000ba94       $unwind$?fin$0@?0???$?RV<lambda_410d79af7f07d98d83a3f525b3859a53>@@AEAV<lambda_3e16ef9562a7dcce91392c22ab16ea36>@@V<lambda_38119f0e861e05405d8a144b9b982f0a>@@@?$__crt_seh_guarded_call@X@@QEAAX$$QEAV<lambda_410d79af7f07d98d83a3f525b3859a53>@@AEAV<lambda_3e16ef9562a7dcce91392c22ab16ea36>@@$$QEAV<lambda_38119f0e861e05405d8a144b9b982f0a>@@@Z@4HA 000000018002fa94     libucrt:wsetlocale.obj
 0002:0000ba94       $unwind$?fin$0@?0???$?RV<lambda_751a882b2c74d4b022dec766aa51a29a>@@AEAV<lambda_628dfdc04ba53c8bfc02c9951375f3f5>@@V<lambda_f6c7be5f7998530c34de24c7437d6b54>@@@?$__crt_seh_guarded_call@H@@QEAAH$$QEAV<lambda_751a882b2c74d4b022dec766aa51a29a>@@AEAV<lambda_628dfdc04ba53c8bfc02c9951375f3f5>@@$$QEAV<lambda_f6c7be5f7998530c34de24c7437d6b54>@@@Z@4HA 000000018002fa94     libucrt:close.obj
 0002:0000ba94       $unwind$?fin$0@?0???$?RV<lambda_a37b2b86f63e897a80ea819b0eb08c01>@@AEAV<lambda_38ce7e780aa69e748d6df282ebc68efe>@@V<lambda_99fb1378e971ab6e7edea83e3a7a83a2>@@@?$__crt_seh_guarded_call@H@@QEAAH$$QEAV<lambda_a37b2b86f63e897a80ea819b0eb08c01>@@AEAV<lambda_38ce7e780aa69e748d6df282ebc68efe>@@$$QEAV<lambda_99fb1378e971ab6e7edea83e3a7a83a2>@@@Z@4HA 000000018002fa94     libucrt:commit.obj
 0002:0000ba94       $unwind$__acrt_initialize_lowio$fin$0 000000018002fa94     libucrt:ioinit.obj
 0002:0000ba94       $unwind$__acrt_lowio_ensure_fh_exists$fin$0 000000018002fa94     libucrt:osfinfo.obj
 0002:0000ba94       $unwind$_write$fin$0       000000018002fa94     libucrt:write.obj
 0002:0000ba94       $unwind$?fin$0@?0???$?RV<lambda_efdfa57d1f175319df784efa44bb7b81>@@AEAV<lambda_5f0a4c1567f8adc6734073e5d1e1b35c>@@V<lambda_2e8a7d3640ea6ccb4c2413664c2db6fd>@@@?$__crt_seh_guarded_call@X@@QEAAX$$QEAV<lambda_efdfa57d1f175319df784efa44bb7b81>@@AEAV<lambda_5f0a4c1567f8adc6734073e5d1e1b35c>@@$$QEAV<lambda_2e8a7d3640ea6ccb4c2413664c2db6fd>@@@Z@4HA 000000018002fa94     libucrt:mbctype.obj
 0002:0000ba94       $unwind$?fin$0@?0??update_thread_multibyte_data_internal@@YAPEAU__crt_multibyte_data@@QEAU__acrt_ptd@@QEAPEAU1@@Z@4HA 000000018002fa94     libucrt:mbctype.obj
 0002:0000ba94       $unwind$?fin$0@?0???$?RV<lambda_450d765d439847d4c735a33c368b5fc0>@@AEAV<lambda_44731a7d0e6d81c3e6aa82d741081786>@@V<lambda_601a2a7da3b7a96e9554ac7215c4b07c>@@@?$__crt_seh_guarded_call@P6AXH@Z@@QEAAP6AXH@Z$$QEAV<lambda_450d765d439847d4c735a33c368b5fc0>@@AEAV<lambda_44731a7d0e6d81c3e6aa82d741081786>@@$$QEAV<lambda_601a2a7da3b7a96e9554ac7215c4b07c>@@@Z@4HA 000000018002fa94     libucrt:signal.obj
 0002:0000ba94       $unwind$raise$fin$0        000000018002fa94     libucrt:signal.obj
 0002:0000ba94       $unwind$?filt$0@?0???R<lambda_6e4b09c48022b2350581041d5f6b0c4c>@@QEBA@XZ@4HA 000000018002fa94     libucrt:exit.obj
 0002:0000ba94       $unwind$?fin$0@?0???$?RV<lambda_d80eeec6fff315bfe5c115232f3240e3>@@AEAV<lambda_6e4b09c48022b2350581041d5f6b0c4c>@@V<lambda_2358e3775559c9db80273638284d5e45>@@@?$__crt_seh_guarded_call@X@@QEAAX$$QEAV<lambda_d80eeec6fff315bfe5c115232f3240e3>@@AEAV<lambda_6e4b09c48022b2350581041d5f6b0c4c>@@$$QEAV<lambda_2358e3775559c9db80273638284d5e45>@@@Z@4HA 000000018002fa94     libucrt:exit.obj
 0002:0000ba94       $unwind$?fin$0@?0???$?RV<lambda_638799b9deba96c50f710eeac98168cd>@@AEAV<lambda_22ebabd17bc4fa466a2aca6d8deb888d>@@V<lambda_a6f7d7db0129f75315ebf26d50c089f1>@@@?$__crt_seh_guarded_call@H@@QEAAH$$QEAV<lambda_638799b9deba96c50f710eeac98168cd>@@AEAV<lambda_22ebabd17bc4fa466a2aca6d8deb888d>@@$$QEAV<lambda_a6f7d7db0129f75315ebf26d50c089f1>@@@Z@4HA 000000018002fa94     libucrt:onexit.obj
 0002:0000ba94       $unwind$?fin$0@?0???$?RV<lambda_7777bce6b2f8c936911f934f8298dc43>@@AEAV<lambda_f03950bc5685219e0bcd2087efbe011e>@@V<lambda_3883c3dff614d5e0c5f61bb1ac94921c>@@@?$__crt_seh_guarded_call@H@@QEAAH$$QEAV<lambda_7777bce6b2f8c936911f934f8298dc43>@@AEAV<lambda_f03950bc5685219e0bcd2087efbe011e>@@$$QEAV<lambda_3883c3dff614d5e0c5f61bb1ac94921c>@@@Z@4HA 000000018002fa94     libucrt:onexit.obj
 0002:0000ba94       $unwind$_fcloseall$fin$0   000000018002fa94     libucrt:closeall.obj
 0002:0000ba94       $unwind$fclose$fin$0       000000018002fa94     libucrt:fclose.obj
 0002:0000ba94       $unwind$?fin$0@?0???$?RV<lambda_842d9ff0dc9ef11c61343bbaebe7f885>@@AEAV<lambda_c5860995281e5c4ce005b3de8f5874ee>@@V<lambda_d90129c13df834fdcbf8d2b88dafcf2d>@@@?$__crt_seh_guarded_call@X@@QEAAX$$QEAV<lambda_842d9ff0dc9ef11c61343bbaebe7f885>@@AEAV<lambda_c5860995281e5c4ce005b3de8f5874ee>@@$$QEAV<lambda_d90129c13df834fdcbf8d2b88dafcf2d>@@@Z@4HA 000000018002fa94     libucrt:fflush.obj
 0002:0000ba94       $unwind$?fin$0@?0???$?RV<lambda_886d6c58226a84441f68b9f2b8217b83>@@AEAV<lambda_ab61a845afdef5b7c387490eaf3616ee>@@V<lambda_f7f22ab5edc0698d5f6905b0d3f44752>@@@?$__crt_seh_guarded_call@X@@QEAAX$$QEAV<lambda_886d6c58226a84441f68b9f2b8217b83>@@AEAV<lambda_ab61a845afdef5b7c387490eaf3616ee>@@$$QEAV<lambda_f7f22ab5edc0698d5f6905b0d3f44752>@@@Z@4HA 000000018002fa94     libucrt:fflush.obj
 0002:0000ba94       $unwind$_ctrlfp$filt$0     000000018002fa94     libucrt:fpctrl.obj
 0002:0000ba94       $unwind$common_control87$filt$0 000000018002fa94     libucrt:ieee.obj
 0002:0000ba9c       $unwind$?AtlInternalOleLoadFromStream@ATL@@YAJPEAUIStream@@AEBU_GUID@@PEAPEAXTClassesAllowedInStream@1@K@Z 000000018002fa9c     MSR.obj
 0002:0000bab8       $unwind$?ReadFromStream@CComBSTR@ATL@@QEAAJPEAUIStream@@@Z 000000018002fab8     MSR.obj
 0002:0000bab8       $unwind$_configure_narrow_argv 000000018002fab8     libucrt:argv_parsing.obj
 0002:0000bacc       $unwind$?WriteToStream@CComVariant@ATL@@QEAAJPEAUIStream@@@Z 000000018002facc     MSR.obj
 0002:0000bae0       $unwind$?RegOpenKeyExW@CAtlTransactionManager@ATL@@QEAAJPEAUHKEY__@@PEB_WKKPEAPEAU3@@Z 000000018002fae0     MSR.obj
 0002:0000bae0       $unwind$?WriteToStream@CComVariant@ATL@@QEAAJPEAUIStream@@G@Z 000000018002fae0     MSR.obj
 0002:0000bae0       $unwind$__dcrt_write_console 000000018002fae0     libucrt:initcon.obj
 0002:0000bae0       $unwind$??$__acrt_wcs_to_mbs_cp@U__crt_win32_buffer_no_resizing@@@@YAHQEB_WAEAV?$__crt_win32_buffer@DU__crt_win32_buffer_no_resizing@@@@I@Z 000000018002fae0     libucrt:getmodulefilenamea.obj
 0002:0000baf4       $unwind$?ReadFromStream@CComVariant@ATL@@QEAAJPEAUIStream@@GTClassesAllowedInStream@2@K@Z 000000018002faf4     MSR.obj
 0002:0000bb0c       $unwind$?GetSizeMax@CComVariant@ATL@@QEBAJPEAT_ULARGE_INTEGER@@@Z 000000018002fb0c     MSR.obj
 0002:0000bb24       $unwind$?RegCreateKeyExW@CAtlTransactionManager@ATL@@QEAAJPEAUHKEY__@@PEB_WKPEA_WKKQEAU_SECURITY_ATTRIBUTES@@PEAPEAU3@PEAK@Z 000000018002fb24     MSR.obj
 0002:0000bb38       $unwind$?GetGITPtr@CAtlModule@ATL@@UEAAJPEAPEAUIGlobalInterfaceTable@@@Z 000000018002fb38     MSR.obj
 0002:0000bb38       $unwind$?RegDeleteKeyW@CAtlTransactionManager@ATL@@QEAAJPEAUHKEY__@@PEB_W@Z 000000018002fb38     MSR.obj
 0002:0000bb38       $unwind$?getStateFromIterators@UWMap4@FH4@@SAHAEBViterator@12@H0H0@Z 000000018002fb38     libvcruntime:frame.obj
 0002:0000bb48       $unwind$?AtlHiMetricToPixel@ATL@@YAXPEBUtagSIZE@@PEAU2@@Z 000000018002fb48     MSR.obj
 0002:0000bb48       $unwind$?AtlInternalQueryInterface@ATL@@YAJPEAXPEBU_ATL_INTMAP_ENTRY@1@AEBU_GUID@@PEAPEAX@Z 000000018002fb48     MSR.obj
 0002:0000bb60       $unwind$?Append@CParseBuffer@CRegParser@ATL@@QEAAHPEB_WH@Z 000000018002fb60     MSR.obj
 0002:0000bb60       $unwind$?AtlComModuleGetClassObject@ATL@@YAJPEAU_ATL_COM_MODULE70@1@AEBU_GUID@@1PEAPEAX@Z 000000018002fb60     MSR.obj
 0002:0000bb60       $unwind$?EnumConnections@?$IConnectionPointImpl@VCOPOSMSR@@$1?DIID__IOPOSMSREvents@@3U_GUID@@BVCComDynamicUnkArray@ATL@@@ATL@@UEAAJPEAPEAUIEnumConnections@@@Z 000000018002fb60     MSR.obj
 0002:0000bb60       $unwind$?EnumConnections@?$IConnectionPointImpl@VCOPOSMSR@@$1?IID_IPropertyNotifySink@@3U_GUID@@BVCComDynamicUnkArray@ATL@@@ATL@@UEAAJPEAPEAUIEnumConnections@@@Z 000000018002fb60     MSR.obj
 0002:0000bb60       $unwind$?GetClassObject@CComModule@ATL@@QEAAJAEBU_GUID@@0PEAPEAX@Z 000000018002fb60     MSR.obj
 0002:0000bb60       $unwind$?Init@?$CComEnumImpl@UIEnumConnectionPoints@@$1?_GUID_b196b285_bab4_101a_b69c_00aa00341d07@@3U__s_GUID@@BPEAUIConnectionPoint@@V?$_CopyInterface@UIConnectionPoint@@@ATL@@@ATL@@QEAAJPEAPEAUIConnectionPoint@@0PEAUIUnknown@@W4CComEnumFlags@2@@Z 000000018002fb60     MSR.obj
 0002:0000bb60       $unwind$?Init@?$CComEnumImpl@UIEnumConnections@@$1?_GUID_b196b287_bab4_101a_b69c_00aa00341d07@@3U__s_GUID@@BUtagCONNECTDATA@@V?$_Copy@UtagCONNECTDATA@@@ATL@@@ATL@@QEAAJPEAUtagCONNECTDATA@@0PEAUIUnknown@@W4CComEnumFlags@2@@Z 000000018002fb60     MSR.obj
 0002:0000bb60       $unwind$?NextToken@CRegParser@ATL@@IEAAJPEA_W@Z 000000018002fb60     MSR.obj
 0002:0000bb60       $unwind$__acrt_fp_strflt_to_string 000000018002fb60     libucrt:_fptostr.obj
 0002:0000bb60       $unwind$__acrt_DownlevelLocaleNameToLCID 000000018002fb60     libucrt:lcidtoname_downlevel.obj
 0002:0000bb60       $unwind$??R<lambda_f03950bc5685219e0bcd2087efbe011e>@@QEBAHXZ 000000018002fb60     libucrt:onexit.obj
 0002:0000bb78       $unwind$?AtlRegisterClassCategoriesHelper@ATL@@YAJAEBU_GUID@@PEBU_ATL_CATMAP_ENTRY@1@H@Z 000000018002fb78     MSR.obj
 0002:0000bb9c       $unwind$?AtlLoadTypeLib@ATL@@YAJPEAUHINSTANCE__@@PEB_WPEAPEA_WPEAPEAUITypeLib@@@Z 000000018002fb9c     MSR.obj
 0002:0000bbbc       $unwind$?AtlRegisterTypeLib@ATL@@YAJPEAUHINSTANCE__@@PEB_W@Z 000000018002fbbc     MSR.obj
 0002:0000bbd8       $unwind$?AtlUnRegisterTypeLib@ATL@@YAJPEAUHINSTANCE__@@PEB_W@Z 000000018002fbd8     MSR.obj
 0002:0000bbe0       $unwind$?GetTI@CComTypeInfoHolder@ATL@@QEAAJK@Z 000000018002fbe0     MSR.obj
 0002:0000bbe0       $unwind$?RecurseDeleteKey@CRegKey@ATL@@QEAAJPEB_W@Z 000000018002fbe0     MSR.obj
 0002:0000bc00       $unwind$?UpdateRegistryFromResource@CAtlModule@ATL@@QEAAJIHPEAU_ATL_REGMAP_ENTRY@2@@Z 000000018002fc00     MSR.obj
 0002:0000bc00       $unwind$?UpdateRegistryFromResource@CAtlModule@ATL@@QEAAJPEB_WHPEAU_ATL_REGMAP_ENTRY@2@@Z 000000018002fc00     MSR.obj
 0002:0000bc20       $unwind$?Lookup@?$CSimpleMap@PEA_WPEA_WVCExpansionVectorEqualHelper@ATL@@@ATL@@QEBAPEA_WAEBQEA_W@Z 000000018002fc20     MSR.obj
 0002:0000bc20       $unwind$__std_exception_copy 000000018002fc20     libvcruntime:std_exception.obj
 0002:0000bc20       $unwind$_free_osfhnd       000000018002fc20     libucrt:osfinfo.obj
 0002:0000bc34       $unwind$?Add@CExpansionVector@ATL@@QEAAHPEB_W0@Z 000000018002fc34     MSR.obj
 0002:0000bc4c       $unwind$?PreProcessBuffer@CRegParser@ATL@@QEAAJPEA_WPEAPEA_W@Z 000000018002fc4c     MSR.obj
 0002:0000bc70       $unwind$?RegisterBuffer@CRegParser@ATL@@QEAAJPEA_WH@Z 000000018002fc70     MSR.obj
 0002:0000bc90       $unwind$?AddValue@CRegParser@ATL@@IEAAJAEAVCRegKey@2@PEB_WPEA_W@Z 000000018002fc90     MSR.obj
 0002:0000bcb0       $unwind$?RegisterSubkeys@CRegParser@ATL@@IEAAJPEA_WPEAUHKEY__@@HH@Z 000000018002fcb0     MSR.obj
 0002:0000bcd0       $unwind$?SkipAssignment@CRegParser@ATL@@IEAAJPEA_W@Z 000000018002fcd0     MSR.obj
 0002:0000bce8       $unwind$?RegisterFromResource@CRegObject@ATL@@IEAAJPEB_W00H@Z 000000018002fce8     MSR.obj
 0002:0000bd08       $unwind$?Cleanup@CComTypeInfoHolder@ATL@@SAX_K@Z 000000018002fd08     MSR.obj
 0002:0000bd08       $unwind$AtlThunk_FreeData  000000018002fd08     atls:atlthunk.obj
 0002:0000bd08       $unwind$_free_base         000000018002fd08     libucrt:free_base.obj
 0002:0000bd08       $unwind$?destroy_fls@@YAXPEAX@Z 000000018002fd08     libucrt:per_thread_data.obj
 0002:0000bd08       $unwind$__acrt_locale_free_numeric 000000018002fd08     libucrt:initnum.obj
 0002:0000bd08       $unwind$__acrt_locale_free_lc_time_if_unreferenced 000000018002fd08     libucrt:locale_refcounting.obj
 0002:0000bd10       $unwind$?GetIDsOfNames@CComTypeInfoHolder@ATL@@QEAAJAEBU_GUID@@PEAPEA_WIKPEAJ@Z 000000018002fd10     MSR.obj
 0002:0000bd2c       $unwind$?LoadNameCache@CComTypeInfoHolder@ATL@@QEAAJPEAUITypeInfo@@@Z 000000018002fd2c     MSR.obj
 0002:0000bd40       $unwind$?StartWindowProc@?$CWindowImplBaseT@VCWindow@ATL@@V?$CWinTraits@$0FGAAAAAA@$0A@@2@@ATL@@SA_JPEAUHWND__@@I_K_J@Z 000000018002fd40     MSR.obj
 0002:0000bd40       $unwind$?should_round_up@@YA_NQEBN_KFW4__acrt_rounding_mode@@@Z 000000018002fd40     libucrt:cvt.obj
 0002:0000bd40       $unwind$??$parse_command_line@D@@YAXPEADPEAPEAD0PEA_K2@Z 000000018002fd40     libucrt:argv_parsing.obj
 0002:0000bd5c       $unwind$?WindowProc@?$CWindowImplBaseT@VCWindow@ATL@@V?$CWinTraits@$0FGAAAAAA@$0A@@2@@ATL@@SA_JPEAUHWND__@@I_K_J@Z 000000018002fd5c     MSR.obj
 0002:0000bd74       $unwind$?atlCreate@?$CWindowImplBaseT@VCWindow@ATL@@V?$CWinTraits@$0FGAAAAAA@$0A@@2@@ATL@@QEAAPEAUHWND__@@PEAU3@V_U_RECT@2@PEB_WKKV_U_MENUorID@2@GPEAX@Z 000000018002fd74     MSR.obj
 0002:0000bd8c       $unwind$??$AtlModuleRegisterWndClassInfoT@VAtlModuleRegisterWndClassInfoParamW@ATL@@@ATL@@YAGPEAU_ATL_BASE_MODULE70@0@PEAU_ATL_WIN_MODULE70@0@PEAU_ATL_WNDCLASSINFOW@0@PEAP6A_JPEAUHWND__@@I_K_J@ZVAtlModuleRegisterWndClassInfoParamW@0@@Z 000000018002fd8c     MSR.obj
 0002:0000bdac       $unwind$?GetZoomInfo@CComControlBase@ATL@@QEAAXAEAUATL_DRAWINFO@@@Z 000000018002fdac     MSR.obj
 0002:0000bdac       $unwind$?OnKillFocus@CComControlBase@ATL@@QEAA_JI_K_JAEAH@Z 000000018002fdac     MSR.obj
 0002:0000bdac       $unwind$iswctype           000000018002fdac     libucrt:iswctype.obj
 0002:0000bdb8       $unwind$?SendOnDataChange@CComControlBase@ATL@@QEAAJK@Z 000000018002fdb8     MSR.obj
 0002:0000bdc8       $unwind$?OnSetFocus@CComControlBase@ATL@@QEAA_JI_K_JAEAH@Z 000000018002fdc8     MSR.obj
 0002:0000bdd8       $unwind$?OnMouseActivate@CComControlBase@ATL@@QEAA_JI_K_JAEAH@Z 000000018002fdd8     MSR.obj
 0002:0000bde0       $unwind$?GetAmbientLocaleID@CComControlBase@ATL@@QEAAJAEAK@Z 000000018002fde0     MSR.obj
 0002:0000bde0       $unwind$?GetAmbientUserMode@CComControlBase@ATL@@QEAAJAEAH@Z 000000018002fde0     MSR.obj
 0002:0000bdf0       $unwind$?IQuickActivate_QuickActivate@CComControlBase@ATL@@QEAAJPEAUtagQACONTAINER@@PEAUtagQACONTROL@@@Z 000000018002fdf0     MSR.obj
 0002:0000be08       $unwind$?DoVerbProperties@CComControlBase@ATL@@QEAAJPEBUtagRECT@@PEAUHWND__@@@Z 000000018002fe08     MSR.obj
 0002:0000be20       $unwind$?InPlaceActivate@CComControlBase@ATL@@QEAAJJPEBUtagRECT@@@Z 000000018002fe20     MSR.obj
 0002:0000be40       $unwind$?IOleObject_Close@CComControlBase@ATL@@QEAAJK@Z 000000018002fe40     MSR.obj
 0002:0000be40       $unwind$?type_case_c_tchar@?$output_processor@_WV?$string_output_adapter@_W@__crt_stdio_output@@V?$format_validation_base@_WV?$string_output_adapter@_W@__crt_stdio_output@@@2@@__crt_stdio_output@@AEAA_N_W@Z 000000018002fe40     libucrt:output.obj
 0002:0000be50       $unwind$?IOleInPlaceObject_UIDeactivate@CComControlBase@ATL@@QEAAJXZ 000000018002fe50     MSR.obj
 0002:0000be68       $unwind$?IOleInPlaceObject_SetObjectRects@CComControlBase@ATL@@QEAAJPEBUtagRECT@@0@Z 000000018002fe68     MSR.obj
 0002:0000be7c       $unwind$?IViewObject_Draw@CComControlBase@ATL@@QEAAJKJPEAXPEAUtagDVTARGETDEVICE@@PEAUHDC__@@2PEBU_RECTL@@3@Z 000000018002fe7c     MSR.obj
 0002:0000be98       $unwind$?IDataObject_GetData@CComControlBase@ATL@@QEAAJPEAUtagFORMATETC@@PEAUtagSTGMEDIUM@@@Z 000000018002fe98     MSR.obj
 0002:0000beb8       $unwind$?OnPaint@CComControlBase@ATL@@QEAA_JI_K_JAEAH@Z 000000018002feb8     MSR.obj
 0002:0000bed4       $unwind$?OnDrawAdvanced@CComControlBase@ATL@@UEAAJAEAUATL_DRAWINFO@@@Z 000000018002fed4     MSR.obj
 0002:0000bef0       $unwind$?Invoke@?$IDispatchImpl@UIOPOSMSR@@$1?IID_IOPOSMSR@@3U_GUID@@B$1?LIBID_OposMSR_CCO@@3U3@B$00$0A@VCComTypeInfoHolder@ATL@@@ATL@@UEAAJJAEBU_GUID@@KGPEAUtagDISPPARAMS@@PEAUtagVARIANT@@PEAUtagEXCEPINFO@@PEAI@Z 000000018002fef0     MSR.obj
 0002:0000bef0       $unwind$?ReleaseDevice@COPOSMSR@@UEAAJPEAJ@Z 000000018002fef0     MSRImpl.obj
 0002:0000bef0       $unwind$_mbsdec_l          000000018002fef0     libucrt:mbsdec.obj
 0002:0000befc       $unwind$?atlCreate@?$CWindowImpl@VCOPOSMSR@@VCWindow@ATL@@V?$CWinTraits@$0FGAAAAAA@$0A@@3@@ATL@@QEAAPEAUHWND__@@PEAU3@V_U_RECT@2@PEB_WKKV_U_MENUorID@2@PEAX@Z 000000018002fefc     MSR.obj
 0002:0000befc       $unwind$?fp_format_e@@YAHQEBNQEAD_K12H_NIQEAU__crt_locale_pointers@@W4__acrt_rounding_mode@@@Z 000000018002fefc     libucrt:cvt.obj
 0002:0000befc       $unwind$_mbtowc_l          000000018002fefc     libucrt:mbtowc.obj
 0002:0000befc       $unwind$__acrt_LCMapStringEx 000000018002fefc     libucrt:winapi_thunks.obj
 0002:0000bf10       $unwind$?CreateControlWindow@?$CComControl@VCOPOSMSR@@V?$CWindowImpl@VCOPOSMSR@@VCWindow@ATL@@V?$CWinTraits@$0FGAAAAAA@$0A@@3@@ATL@@@ATL@@UEAAPEAUHWND__@@PEAU3@AEAUtagRECT@@@Z 000000018002ff10     MSR.obj
 0002:0000bf10       $unwind$?ClearInput@COPOSMSR@@UEAAJPEAJ@Z 000000018002ff10     MSRImpl.obj
 0002:0000bf10       $unwind$?ClearInputProperties@COPOSMSR@@UEAAJPEAJ@Z 000000018002ff10     MSRImpl.obj
 0002:0000bf10       $unwind$?__scrt_throw_std_bad_alloc@@YAXXZ 000000018002ff10     LIBCMT:throw_bad_alloc.obj
 0002:0000bf10       $unwind$?__scrt_throw_std_bad_array_new_length@@YAXXZ 000000018002ff10     LIBCMT:throw_bad_alloc.obj
 0002:0000bf10       $unwind$_raise_exc         000000018002ff10     libucrt:fpexcept.obj
 0002:0000bf18       $unwind$?GetSizeMax@?$IPersistStreamInitImpl@VCOPOSMSR@@@ATL@@UEAAJPEAT_ULARGE_INTEGER@@@Z 000000018002ff18     MSR.obj
 0002:0000bf30       $unwind$?IPersistStreamInit_Load@?$IPersistStreamInitImpl@VCOPOSMSR@@@ATL@@QEAAJPEAUIStream@@PEBUATL_PROPMAP_ENTRY@2@@Z 000000018002ff30     MSR.obj
 0002:0000bf4c       $unwind$?IPersistStreamInit_Save@?$IPersistStreamInitImpl@VCOPOSMSR@@@ATL@@QEAAJPEAUIStream@@HPEBUATL_PROPMAP_ENTRY@2@@Z 000000018002ff4c     MSR.obj
 0002:0000bf68       $unwind$?DoVerbPrimary@?$IOleObjectImpl@VCOPOSMSR@@@ATL@@QEAAJPEBUtagRECT@@PEAUHWND__@@@Z 000000018002ff68     MSR.obj
 0002:0000bf80       $unwind$?TranslateAcceleratorW@?$IOleInPlaceActiveObjectImpl@VCOPOSMSR@@@ATL@@UEAAJPEAUtagMSG@@@Z 000000018002ff80     MSR.obj
 0002:0000bf8c       $unwind$?Draw@?$IViewObjectExImpl@VCOPOSMSR@@@ATL@@UEAAJKJPEAXPEAUtagDVTARGETDEVICE@@PEAUHDC__@@2PEBU_RECTL@@3P6AH_K@Z4@Z 000000018002ff8c     MSR.obj
 0002:0000bf94       $unwind$?QueryHitRect@?$IViewObjectExImpl@VCOPOSMSR@@@ATL@@UEAAJKPEBUtagRECT@@0JPEAK@Z 000000018002ff94     MSR.obj
 0002:0000bfa4       $unwind$?OnWindowMessage@?$IOleInPlaceObjectWindowlessImpl@VCOPOSMSR@@@ATL@@UEAAJI_K_JPEA_J@Z 000000018002ffa4     MSR.obj
 0002:0000bfb8       $unwind$?EnumConnectionPoints@?$IConnectionPointContainerImpl@VCOPOSMSR@@@ATL@@UEAAJPEAPEAUIEnumConnectionPoints@@@Z 000000018002ffb8     MSR.obj
 0002:0000bfe0       $unwind$?FindConnectionPoint@?$IConnectionPointContainerImpl@VCOPOSMSR@@@ATL@@UEAAJAEBU_GUID@@PEAPEAUIConnectionPoint@@@Z 000000018002ffe0     MSR.obj
 0002:0000bfe0       $unwind$?__mbrtoc32_utf8@__crt_mbstring@@YA_KPEA_UPEBD_KPEAU_Mbstatet@@@Z 000000018002ffe0     libucrt:mbrtoc32.obj
 0002:0000bffc       $unwind$?Load@?$IPersistStorageImpl@VCOPOSMSR@@@ATL@@UEAAJPEAUIStorage@@@Z 000000018002fffc     MSR.obj
 0002:0000c00c       $unwind$?Save@?$IPersistStorageImpl@VCOPOSMSR@@@ATL@@UEAAJPEAUIStorage@@H@Z 000000018003000c     MSR.obj
 0002:0000c020       $unwind$?IPSI_GetIPersistStreamInit@?$IPersistStorageImpl@VCOPOSMSR@@@ATL@@AEAAPEAUIPersistStreamInit@@XZ 0000000180030020     MSR.obj
 0002:0000c020       $unwind$?parse_int_from_format_string@?$output_processor@_WV?$string_output_adapter@_W@__crt_stdio_output@@V?$format_validation_base@_WV?$string_output_adapter@_W@__crt_stdio_output@@@2@@__crt_stdio_output@@AEAA_NQEAH@Z 0000000180030020     libucrt:output.obj
 0002:0000c034       $unwind$?GetInterfaceSafetyOptions@?$IObjectSafetyImpl@VCOPOSMSR@@$02@ATL@@UEAAJAEBU_GUID@@PEAK1@Z 0000000180030034     MSR.obj
 0002:0000c048       $unwind$?SetInterfaceSafetyOptions@?$IObjectSafetyImpl@VCOPOSMSR@@$02@ATL@@UEAAJAEBU_GUID@@KK@Z 0000000180030048     MSR.obj
 0002:0000c05c       $unwind$?Advise@?$IConnectionPointImpl@VCOPOSMSR@@$1?DIID__IOPOSMSREvents@@3U_GUID@@BVCComDynamicUnkArray@ATL@@@ATL@@UEAAJPEAUIUnknown@@PEAK@Z 000000018003005c     MSR.obj
 0002:0000c05c       $unwind$?Advise@?$IConnectionPointImpl@VCOPOSMSR@@$1?IID_IPropertyNotifySink@@3U_GUID@@BVCComDynamicUnkArray@ATL@@@ATL@@UEAAJPEAUIUnknown@@PEAK@Z 000000018003005c     MSR.obj
 0002:0000c070       $unwind$?Fire_DataEvent@?$CProxy_IOPOSEvents@VCOPOSMSR@@@@QEAAXJ@Z 0000000180030070     MSR.obj
 0002:0000c070       $unwind$?Fire_StatusUpdateEvent@?$CProxy_IOPOSEvents@VCOPOSMSR@@@@QEAAXJ@Z 0000000180030070     MSR.obj
 0002:0000c088       $unwind$?Fire_DirectIOEvent@?$CProxy_IOPOSEvents@VCOPOSMSR@@@@QEAAXJPEAJPEAPEA_W@Z 0000000180030088     MSR.obj
 0002:0000c0a8       $unwind$?Fire_ErrorEvent@?$CProxy_IOPOSEvents@VCOPOSMSR@@@@QEAAXJJJPEAJ@Z 00000001800300a8     MSR.obj
 0002:0000c0c8       $unwind$?FireTheEvent@?$CProxy_IOPOSEvents@VCOPOSMSR@@@@IEAAXPEAVOposVariant@@IAEAJPEB_WJ@Z 00000001800300c8     MSR.obj
 0002:0000c0d8       $unwind$?ProcessWindowMessage@COPOSMSR@@UEAAHPEAUHWND__@@I_K_JAEA_JK@Z 00000001800300d8     MSR.obj
 0002:0000c0d8       $unwind$__dcrt_get_narrow_environment_from_os 00000001800300d8     libucrt:get_environment_from_os.obj
 0002:0000c0d8       $unwind$?fp_format_f_internal@@YAHQEAD_KHQEAU_strflt@@_NQEAU__crt_locale_pointers@@@Z 00000001800300d8     libucrt:cvt.obj
 0002:0000c0d8       $unwind$??$__acrt_wcs_to_mbs_cp@U__crt_win32_buffer_internal_dynamic_resizing@@@@YAHQEB_WAEAV?$__crt_win32_buffer@DU__crt_win32_buffer_internal_dynamic_resizing@@@@I@Z 00000001800300d8     libucrt:argv_wildcards.obj
 0002:0000c0f0       $unwind$?SOError@COPOSMSR@@MEAAJJJJPEAJ@Z 00000001800300f0     MSR.obj
 0002:0000c0f0       $unwind$_invalid_parameter 00000001800300f0     libucrt:invalid_parameter.obj
 0002:0000c104       $unwind$?Clone@?$CComEnumImpl@UIEnumConnectionPoints@@$1?_GUID_b196b285_bab4_101a_b69c_00aa00341d07@@3U__s_GUID@@BPEAUIConnectionPoint@@V?$_CopyInterface@UIConnectionPoint@@@ATL@@@ATL@@UEAAJPEAPEAUIEnumConnectionPoints@@@Z 0000000180030104     MSR.obj
 0002:0000c104       $unwind$?Clone@?$CComEnumImpl@UIEnumConnections@@$1?_GUID_b196b287_bab4_101a_b69c_00aa00341d07@@3U__s_GUID@@BUtagCONNECTDATA@@V?$_Copy@UtagCONNECTDATA@@@ATL@@@ATL@@UEAAJPEAPEAUIEnumConnections@@@Z 0000000180030104     MSR.obj
 0002:0000c11c       $unwind$?GetOposProp@COPOSMSR@@IEAAJJPEAJJ@Z 000000018003011c     MSRImpl.obj
 0002:0000c11c       $unwind$?GetOposProp@COPOSMSR@@IEAAJJPEAPEA_WJ@Z 000000018003011c     MSRImpl.obj
 0002:0000c134       $unwind$?SetOposProp@COPOSMSR@@IEAAJJJJ@Z 0000000180030134     MSRImpl.obj
 0002:0000c154       $unwind$?SetOposProp@COPOSMSR@@IEAAJJPEA_WJ@Z 0000000180030154     MSRImpl.obj
 0002:0000c170       $unwind$?DoInvoke@COPOSMSR@@IEAAJJPEAVOposVariant@@IHPEAJ_N@Z 0000000180030170     MSRImpl.obj
 0002:0000c188       $unwind$?SetCOFreezeEvents@COPOSMSR@@IEAAXF@Z 0000000180030188     MSRImpl.obj
 0002:0000c19c       $unwind$?OnDraw@COPOSMSR@@MEAAJAEAUATL_DRAWINFO@@@Z 000000018003019c     MSRImpl.obj
 0002:0000c1b4       $unwind$?EventInit@COPOSMSR@@IEAAJXZ 00000001800301b4     MSRImpl.obj
 0002:0000c1c8       $unwind$?EventWindowProc@COPOSMSR@@IEAA_JI_K_J@Z 00000001800301c8     MSRImpl.obj
 0002:0000c1c8       $unwind$__stdio_common_vswprintf_s 00000001800301c8     libucrt:output.obj
 0002:0000c1d4       $unwind$?get_ControlObjectDescription@COPOSMSR@@UEAAJPEAPEA_W@Z 00000001800301d4     MSRImpl.obj
 0002:0000c1d4       $unwind$__dcrt_lowio_ensure_console_output_initialized 00000001800301d4     libucrt:initcon.obj
 0002:0000c1d4       $unwind$_isleadbyte_l      00000001800301d4     libucrt:_wctype.obj
 0002:0000c1d4       $unwind$?getSystemCP@@YAHH@Z 00000001800301d4     libucrt:mbctype.obj
 0002:0000c1dc       $unwind$?AuthenticateDevice@COPOSMSR@@UEAAJPEA_WPEAJ@Z 00000001800301dc     MSRImpl.obj
 0002:0000c1dc       $unwind$?CheckHealth@COPOSMSR@@UEAAJJPEAJ@Z 00000001800301dc     MSRImpl.obj
 0002:0000c1dc       $unwind$?DeauthenticateDevice@COPOSMSR@@UEAAJPEA_WPEAJ@Z 00000001800301dc     MSRImpl.obj
 0002:0000c1dc       $unwind$?ResetStatistics@COPOSMSR@@UEAAJPEA_WPEAJ@Z 00000001800301dc     MSRImpl.obj
 0002:0000c1dc       $unwind$?RetrieveDeviceAuthenticationData@COPOSMSR@@UEAAJPEAPEA_WPEAJ@Z 00000001800301dc     MSRImpl.obj
 0002:0000c1dc       $unwind$?RetrieveStatistics@COPOSMSR@@UEAAJPEAPEA_WPEAJ@Z 00000001800301dc     MSRImpl.obj
 0002:0000c1dc       $unwind$?UpdateFirmware@COPOSMSR@@UEAAJPEA_WPEAJ@Z 00000001800301dc     MSRImpl.obj
 0002:0000c1dc       $unwind$?UpdateStatistics@COPOSMSR@@UEAAJPEA_WPEAJ@Z 00000001800301dc     MSRImpl.obj
 0002:0000c1ec       $unwind$?ClaimDevice@COPOSMSR@@UEAAJJPEAJ@Z 00000001800301ec     MSRImpl.obj
 0002:0000c1fc       $unwind$?Close@COPOSMSR@@UEAAJPEAJ@Z 00000001800301fc     MSRImpl.obj
 0002:0000c208       $unwind$?DirectIO@COPOSMSR@@UEAAJJPEAJPEAPEA_W0@Z 0000000180030208     MSRImpl.obj
 0002:0000c224       $unwind$?Open@COPOSMSR@@UEAAJPEA_WPEAJ@Z 0000000180030224     MSRImpl.obj
 0002:0000c248       $unwind$?CompareFirmwareVersion@COPOSMSR@@UEAAJPEA_WPEAJ1@Z 0000000180030248     MSRImpl.obj
 0002:0000c248       $unwind$?RetrieveCardProperty@COPOSMSR@@UEAAJPEA_WPEAPEA_WPEAJ@Z 0000000180030248     MSRImpl.obj
 0002:0000c248       $unwind$?UpdateKey@COPOSMSR@@UEAAJPEA_W0PEAJ@Z 0000000180030248     MSRImpl.obj
 0002:0000c248       $unwind$?WriteTracks@COPOSMSR@@UEAAJUtagVARIANT@@JPEAJ@Z 0000000180030248     MSRImpl.obj
 0002:0000c248       $unwind$?initialize_inherited_file_handles_nolock@@YAXXZ 0000000180030248     libucrt:ioinit.obj
 0002:0000c264       $unwind$__scrt_is_nonwritable_in_current_image 0000000180030264     LIBCMT:utility.obj
 0002:0000c284       $unwind$__scrt_is_nonwritable_in_current_image$filt$0 0000000180030284     LIBCMT:utility.obj
 0002:0000c28c       $unwind$__report_securityfailure 000000018003028c     LIBCMT:gs_report.obj
 0002:0000c294       $unwind$__report_gsfailure 0000000180030294     LIBCMT:gs_report.obj
 0002:0000c29c       $unwind$capture_current_context 000000018003029c     LIBCMT:gs_report.obj
 0002:0000c2a8       $unwind$capture_previous_context 00000001800302a8     LIBCMT:gs_report.obj
 0002:0000c2b4       $unwind$??2@YAPEAX_KAEBUnothrow_t@std@@@Z 00000001800302b4     LIBCMT:new_scalar_nothrow.obj
 0002:0000c2c4       $cppxdata$??2@YAPEAX_KAEBUnothrow_t@std@@@Z 00000001800302c4     LIBCMT:new_scalar_nothrow.obj
 0002:0000c2d1       $stateUnwindMap$??2@YAPEAX_KAEBUnothrow_t@std@@@Z 00000001800302d1     LIBCMT:new_scalar_nothrow.obj
 0002:0000c2d4       $tryMap$??2@YAPEAX_KAEBUnothrow_t@std@@@Z 00000001800302d4     LIBCMT:new_scalar_nothrow.obj
 0002:0000c2dc       $handlerMap$??2@YAPEAX_KAEBUnothrow_t@std@@@Z 00000001800302dc     LIBCMT:new_scalar_nothrow.obj
 0002:0000c2e4       $ip2state$??2@YAPEAX_KAEBUnothrow_t@std@@@Z 00000001800302e4     LIBCMT:new_scalar_nothrow.obj
 0002:0000c2e8       $unwind$?catch$0@?0???2@YAPEAX_KAEBUnothrow_t@std@@@Z@4HA 00000001800302e8     LIBCMT:new_scalar_nothrow.obj
 0002:0000c2f8       $cppxdata$?catch$0@?0???2@YAPEAX_KAEBUnothrow_t@std@@@Z@4HA 00000001800302f8     LIBCMT:new_scalar_nothrow.obj
 0002:0000c302       $stateUnwindMap$?catch$0@?0???2@YAPEAX_KAEBUnothrow_t@std@@@Z@4HA 0000000180030302     LIBCMT:new_scalar_nothrow.obj
 0002:0000c304       $ip2state$?catch$0@?0???2@YAPEAX_KAEBUnothrow_t@std@@@Z@4HA 0000000180030304     LIBCMT:new_scalar_nothrow.obj
 0002:0000c308       $unwind$__GSHandlerCheckCommon 0000000180030308     LIBCMT:gshandler.obj
 0002:0000c310       $xdatasym                  0000000180030310     LIBCMT:chkstk.obj
 0002:0000c318       $xdatasym                  0000000180030318     LIBCMT:amdsecgs.obj
 0002:0000c31c       $unwind$?dllmain_crt_process_attach@@YAHQEAUHINSTANCE__@@QEAX@Z 000000018003031c     LIBCMT:dll_dllmain.obj
 0002:0000c358       $unwind$?dllmain_crt_process_detach@@YAH_N@Z 0000000180030358     LIBCMT:dll_dllmain.obj
 0002:0000c3ac       $unwind$?dllmain_dispatch@@YAHQEAUHINSTANCE__@@KQEAX@Z 00000001800303ac     LIBCMT:dll_dllmain.obj
 0002:0000c3d4       $unwind$?filt$0@?0??dllmain_dispatch@@YAHQEAUHINSTANCE__@@KQEAX@Z@4HA 00000001800303d4     LIBCMT:dll_dllmain.obj
 0002:0000c3d4       $unwind$?filt$0@?0??FrameUnwindToState@__FrameHandler4@@SAXPEA_KPEAU_xDISPATCHER_CONTEXT@@PEAUFuncInfo4@FH4@@H@Z@4HA 00000001800303d4     libvcruntime:frame.obj
 0002:0000c3d4       $unwind$?fin$1@?0??FrameUnwindToState@__FrameHandler4@@SAXPEA_KPEAU_xDISPATCHER_CONTEXT@@PEAUFuncInfo4@FH4@@H@Z@4HA 00000001800303d4     libvcruntime:frame.obj
 0002:0000c3dc       $unwind$__isa_available_init 00000001800303dc     LIBCMT:cpu_disp.obj
 0002:0000c3ec       $unwind$__scrt_fastfail    00000001800303ec     LIBCMT:utility_desktop.obj
 0002:0000c3fc       $unwind$__security_init_cookie 00000001800303fc     LIBCMT:gs_support.obj
 0002:0000c408       $xdatasym                  0000000180030408     LIBCMT:guard_dispatch.obj
 0002:0000c410       $xdatasym                  0000000180030410     LIBCMT:guard_xfg_dispatch.obj
 0002:0000c414       $unwind$AtlThunk_InitData  0000000180030414     atls:atlthunk.obj
 0002:0000c428       $unwind$wcsstr             0000000180030428     libvcruntime:wcsstr.obj
 0002:0000c440       $xdatasym                  0000000180030440     libvcruntime:memcmp.obj
 0002:0000c448       $xdatasym                  0000000180030448     libvcruntime:memcpy.obj
 0002:0000c458       $xdatasym                  0000000180030458     libvcruntime:memset.obj
 0002:0000c468       $unwind$__C_specific_handler 0000000180030468     libvcruntime:riscchandler.obj
 0002:0000c484       $unwind$?DecompFuncInfo@FH4@@YA_JPEAEAEAUFuncInfo4@1@_KH_N@Z 0000000180030484     libvcruntime:risctrnsctrl.obj
 0002:0000c49c       $unwind$?UnwindNestedFrames@__FrameHandler4@@SAXPEA_KPEAUEHExceptionRecord@@PEAU_CONTEXT@@0PEAXPEAUFuncInfo4@FH4@@HHPEAUHandlerType4@5@PEAU_xDISPATCHER_CONTEXT@@E@Z 000000018003049c     libvcruntime:risctrnsctrl.obj
 0002:0000c4b0       $unwind$?GetRangeOfTrysToCheck@__FrameHandler4@@SA?AU?$pair@Viterator@TryBlockMap4@FH4@@V123@@std@@AEAVTryBlockMap4@FH4@@HPEAU_xDISPATCHER_CONTEXT@@PEAUFuncInfo4@5@H@Z 00000001800304b0     libvcruntime:risctrnsctrl.obj
 0002:0000c4cc       $unwind$__CxxFrameHandler4 00000001800304cc     libvcruntime:risctrnsctrl.obj
 0002:0000c4e0       $unwind$??$_CallSETranslator@V__FrameHandler4@@@@YAHPEAUEHExceptionRecord@@PEA_KPEAU_CONTEXT@@PEAU_xDISPATCHER_CONTEXT@@PEAUFuncInfo4@FH4@@K1H@Z 00000001800304e0     libvcruntime:risctrnsctrl.obj
 0002:0000c500       $unwind$?filt$0@?0???$_CallSETranslator@V__FrameHandler4@@@@YAHPEAUEHExceptionRecord@@PEA_KPEAU_CONTEXT@@PEAU_xDISPATCHER_CONTEXT@@PEAUFuncInfo4@FH4@@K1H@Z@4HA 0000000180030500     libvcruntime:risctrnsctrl.obj
 0002:0000c50c       $unwind$__DestructExceptionObject 000000018003050c     libvcruntime:ehhelpers.obj
 0002:0000c52c       $unwind$__DestructExceptionObject$filt$0 000000018003052c     libvcruntime:ehhelpers.obj
 0002:0000c52c       $unwind$?fin$1@?0??CxxCallCatchBlock@__FrameHandler4@@SAPEAXPEAU_EXCEPTION_RECORD@@@Z@4HA 000000018003052c     libvcruntime:frame.obj
 0002:0000c538       $unwind$_CxxThrowException 0000000180030538     libvcruntime:throw.obj
 0002:0000c548       $xdatasym                  0000000180030548     libvcruntime:notify.obj
 0002:0000c554       $unwind$?StateFromIp@__FrameHandler4@@SAHPEAUFuncInfo4@FH4@@PEAU_xDISPATCHER_CONTEXT@@_K@Z 0000000180030554     libvcruntime:ehstate.obj
 0002:0000c568       $unwind$?getStartStop@UWMap4@FH4@@QEAAXHHAEAViterator@12@0@Z 0000000180030568     libvcruntime:frame.obj
 0002:0000c580       $unwind$?FrameUnwindToState@__FrameHandler4@@SAXPEA_KPEAU_xDISPATCHER_CONTEXT@@PEAUFuncInfo4@FH4@@H@Z 0000000180030580     libvcruntime:frame.obj
 0002:0000c5c8       $unwind$?CxxCallCatchBlock@__FrameHandler4@@SAPEAXPEAU_EXCEPTION_RECORD@@@Z 00000001800305c8     libvcruntime:frame.obj
 0002:0000c624       $unwind$?IsInExceptionSpec@@YAEPEAUEHExceptionRecord@@PEBU_s_ESTypeList@@@Z 0000000180030624     libvcruntime:frame.obj
 0002:0000c640       $unwind$??$__InternalCxxFrameHandler@V__FrameHandler4@@@@YA?AW4_EXCEPTION_DISPOSITION@@PEAUEHExceptionRecord@@PEA_KPEAU_CONTEXT@@PEAU_xDISPATCHER_CONTEXT@@PEAUFuncInfo4@FH4@@H1E@Z 0000000180030640     libvcruntime:frame.obj
 0002:0000c658       $unwind$??$BuildCatchObjectHelperInternal@V__FrameHandler4@@@@YAHPEAUEHExceptionRecord@@PEAXPEAUHandlerType4@FH4@@PEBU_s_CatchableType@@@Z 0000000180030658     libvcruntime:frame.obj
 0002:0000c698       $unwind$??$BuildCatchObjectInternal@V__FrameHandler4@@@@YAXPEAUEHExceptionRecord@@PEAXPEAUHandlerType4@FH4@@PEBU_s_CatchableType@@@Z 0000000180030698     libvcruntime:frame.obj
 0002:0000c6c4       $unwind$??$FindHandler@V__FrameHandler4@@@@YAXPEAUEHExceptionRecord@@PEA_KPEAU_CONTEXT@@PEAU_xDISPATCHER_CONTEXT@@PEAUFuncInfo4@FH4@@EH1@Z 00000001800306c4     libvcruntime:frame.obj
 0002:0000c6e4       $unwind$??$CatchIt@V__FrameHandler4@@@@YAXPEAUEHExceptionRecord@@PEA_KPEAU_CONTEXT@@PEAU_xDISPATCHER_CONTEXT@@PEAUFuncInfo4@FH4@@PEAUHandlerType4@4@PEBU_s_CatchableType@@PEAUTryBlockMapEntry4@4@H1EE@Z 00000001800306e4     libvcruntime:frame.obj
 0002:0000c6fc       $unwind$??$FindHandlerForForeignException@V__FrameHandler4@@@@YAXPEAUEHExceptionRecord@@PEA_KPEAU_CONTEXT@@PEAU_xDISPATCHER_CONTEXT@@PEAUFuncInfo4@FH4@@HH1@Z 00000001800306fc     libvcruntime:frame.obj
 0002:0000c71c       $unwind$?try_get_function@@YAPEAXW4function_id@?A0x84e3c32f@@QEBDQEBW4module_id@2@2@Z 000000018003071c     libvcruntime:winapi_downlevel.obj
 0002:0000c71c       $unwind$?try_get_function@@YAPEAXW4function_id@?A0x391cf84c@@QEBDQEBW4module_id@2@2@Z 000000018003071c     libucrt:winapi_thunks.obj
 0002:0000c738       $xdatasym                  0000000180030738     libvcruntime:handlers.obj
 0002:0000c758       $unwind$__acrt_call_reportfault 0000000180030758     libucrt:invalid_parameter.obj
 0002:0000c778       $unwind$_resetstkoflw      0000000180030778     libucrt:resetstk.obj
 0002:0000c79c       $unwind$?write_string@?$string_output_adapter@_W@__crt_stdio_output@@QEBAXQEB_WHQEAHAEAV__crt_deferred_errno_cache@@@Z 000000018003079c     libucrt:output.obj
 0002:0000c7b4       $unwind$??$common_vsprintf@Vformat_validation_base@__crt_stdio_output@@_W@@YAH_KQEA_W0QEB_WQEAU__crt_locale_pointers@@QEAD@Z 00000001800307b4     libucrt:output.obj
 0002:0000c7d4       $unwind$??$write_multiple_characters@V?$string_output_adapter@_W@__crt_stdio_output@@D@__crt_stdio_output@@YAXAEBV?$string_output_adapter@_W@0@DHQEAH@Z 00000001800307d4     libucrt:output.obj
 0002:0000c7e0       $unwind$?state_case_type@?$output_processor@_WV?$string_output_adapter@_W@__crt_stdio_output@@V?$format_validation_base@_WV?$string_output_adapter@_W@__crt_stdio_output@@@2@@__crt_stdio_output@@AEAA_NXZ 00000001800307e0     libucrt:output.obj
 0002:0000c804       $unwind$?type_case_a@?$output_processor@_WV?$string_output_adapter@_W@__crt_stdio_output@@V?$format_validation_base@_WV?$string_output_adapter@_W@__crt_stdio_output@@@2@@__crt_stdio_output@@AEAA_NXZ 0000000180030804     libucrt:output.obj
 0002:0000c814       $unwind$?write_stored_string_tchar@?$output_processor@_WV?$string_output_adapter@_W@__crt_stdio_output@@V?$format_validation_base@_WV?$string_output_adapter@_W@__crt_stdio_output@@@2@@__crt_stdio_output@@AEAA_N_W@Z 0000000180030814     libucrt:output.obj
 0002:0000c828       $unwind$??$type_case_integer_parse_into_buffer@I@?$output_processor@_WV?$string_output_adapter@_W@__crt_stdio_output@@V?$format_validation_base@_WV?$string_output_adapter@_W@__crt_stdio_output@@@2@@__crt_stdio_output@@AEAAXII_N@Z 0000000180030828     libucrt:output.obj
 0002:0000c828       $unwind$??$type_case_integer_parse_into_buffer@_K@?$output_processor@_WV?$string_output_adapter@_W@__crt_stdio_output@@V?$format_validation_base@_WV?$string_output_adapter@_W@__crt_stdio_output@@@2@@__crt_stdio_output@@AEAAX_KI_N@Z 0000000180030828     libucrt:output.obj
 0002:0000c830       $unwind$?common_exit@@YAXHW4_crt_exit_cleanup_mode@@W4_crt_exit_return_mode@@@Z 0000000180030830     libucrt:exit.obj
 0002:0000c83c       $unwind$??R<lambda_6e4b09c48022b2350581041d5f6b0c4c>@@QEBA@XZ 000000018003083c     libucrt:exit.obj
 0002:0000c85c       $unwind$??$?RV<lambda_d80eeec6fff315bfe5c115232f3240e3>@@AEAV<lambda_6e4b09c48022b2350581041d5f6b0c4c>@@V<lambda_2358e3775559c9db80273638284d5e45>@@@?$__crt_seh_guarded_call@X@@QEAAX$$QEAV<lambda_d80eeec6fff315bfe5c115232f3240e3>@@AEAV<lambda_6e4b09c48022b2350581041d5f6b0c4c>@@$$QEAV<lambda_2358e3775559c9db80273638284d5e45>@@@Z 000000018003085c     libucrt:exit.obj
 0002:0000c880       $unwind$??$free_environment@D@@YAXQEAPEAD@Z 0000000180030880     libucrt:environment_initialization.obj
 0002:0000c880       $unwind$??$free_environment@_W@@YAXQEAPEA_W@Z 0000000180030880     libucrt:environment_initialization.obj
 0002:0000c88c       $unwind$??$create_environment@D@@YAQEAPEADQEAD@Z 000000018003088c     libucrt:environment_initialization.obj
 0002:0000c8a4       $unwind$_register_onexit_function 00000001800308a4     libucrt:onexit.obj
 0002:0000c8ac       $unwind$_execute_onexit_table 00000001800308ac     libucrt:onexit.obj
 0002:0000c8b4       $unwind$??R<lambda_22ebabd17bc4fa466a2aca6d8deb888d>@@QEBAHXZ 00000001800308b4     libucrt:onexit.obj
 0002:0000c8cc       $unwind$??$?RV<lambda_638799b9deba96c50f710eeac98168cd>@@AEAV<lambda_22ebabd17bc4fa466a2aca6d8deb888d>@@V<lambda_a6f7d7db0129f75315ebf26d50c089f1>@@@?$__crt_seh_guarded_call@H@@QEAAH$$QEAV<lambda_638799b9deba96c50f710eeac98168cd>@@AEAV<lambda_22ebabd17bc4fa466a2aca6d8deb888d>@@$$QEAV<lambda_a6f7d7db0129f75315ebf26d50c089f1>@@@Z 00000001800308cc     libucrt:onexit.obj
 0002:0000c8f0       $unwind$??$?RV<lambda_7777bce6b2f8c936911f934f8298dc43>@@AEAV<lambda_f03950bc5685219e0bcd2087efbe011e>@@V<lambda_3883c3dff614d5e0c5f61bb1ac94921c>@@@?$__crt_seh_guarded_call@H@@QEAAH$$QEAV<lambda_7777bce6b2f8c936911f934f8298dc43>@@AEAV<lambda_f03950bc5685219e0bcd2087efbe011e>@@$$QEAV<lambda_3883c3dff614d5e0c5f61bb1ac94921c>@@@Z 00000001800308f0     libucrt:onexit.obj
 0002:0000c914       $unwind$_query_new_handler 0000000180030914     libucrt:new_handler.obj
 0002:0000c934       $unwind$terminate          0000000180030934     libucrt:terminate.obj
 0002:0000c954       $unwind$??$parse_integer@KV?$c_string_character_source@_W@__crt_strtox@@@__crt_strtox@@YAKQEAU__crt_locale_pointers@@V?$c_string_character_source@_W@0@H_N@Z 0000000180030954     libucrt:atox.obj
 0002:0000c970       $xdatasym                  0000000180030970     libucrt:strncmp.obj
 0002:0000c974       $unwind$?construct_ptd_array@@YAXQEAU__acrt_ptd@@@Z 0000000180030974     libucrt:per_thread_data.obj
 0002:0000c97c       $unwind$?destroy_ptd_array@@YAXQEAU__acrt_ptd@@@Z 000000018003097c     libucrt:per_thread_data.obj
 0002:0000c984       $unwind$??$?RV<lambda_0ae27a3a962d80f24befdcbee591983d>@@AEAV<lambda_8d0ee55de4b1038c4002e0adecdf1839>@@V<lambda_dc504788e8f1664fe9b84e20bfb512f2>@@@?$__crt_seh_guarded_call@X@@QEAAX$$QEAV<lambda_0ae27a3a962d80f24befdcbee591983d>@@AEAV<lambda_8d0ee55de4b1038c4002e0adecdf1839>@@$$QEAV<lambda_dc504788e8f1664fe9b84e20bfb512f2>@@@Z 0000000180030984     libucrt:per_thread_data.obj
 0002:0000c9a8       $unwind$??$?RV<lambda_aa87e3671a710a21b5dc78c0bdf72e11>@@AEAV<lambda_92619d2358a28f41a33ba319515a20b9>@@V<lambda_6992ecaafeb10aed2b74cb1fae11a551>@@@?$__crt_seh_guarded_call@X@@QEAAX$$QEAV<lambda_aa87e3671a710a21b5dc78c0bdf72e11>@@AEAV<lambda_92619d2358a28f41a33ba319515a20b9>@@$$QEAV<lambda_6992ecaafeb10aed2b74cb1fae11a551>@@@Z 00000001800309a8     libucrt:per_thread_data.obj
 0002:0000c9cc       $unwind$??$?RV<lambda_f2e299630e499de9f9a165e60fcd3db5>@@AEAV<lambda_2ae9d31cdba2644fcbeaf08da7c24588>@@V<lambda_40d01ff24d0e7b3814fdbdcee8eab3c7>@@@?$__crt_seh_guarded_call@X@@QEAAX$$QEAV<lambda_f2e299630e499de9f9a165e60fcd3db5>@@AEAV<lambda_2ae9d31cdba2644fcbeaf08da7c24588>@@$$QEAV<lambda_40d01ff24d0e7b3814fdbdcee8eab3c7>@@@Z 00000001800309cc     libucrt:per_thread_data.obj
 0002:0000c9f0       $unwind$??$?RV<lambda_2d41944a1d46af3157314b8a01080d33>@@AEAV<lambda_8f455de75cd7d7f24b4096f044d8b9e6>@@V<lambda_aa500f224e6afead328df44964fe2772>@@@?$__crt_seh_guarded_call@X@@QEAAX$$QEAV<lambda_2d41944a1d46af3157314b8a01080d33>@@AEAV<lambda_8f455de75cd7d7f24b4096f044d8b9e6>@@$$QEAV<lambda_aa500f224e6afead328df44964fe2772>@@@Z 00000001800309f0     libucrt:per_thread_data.obj
 0002:0000ca14       $unwind$__acrt_initialize_winapi_thunks 0000000180030a14     libucrt:winapi_thunks.obj
 0002:0000ca1c       $unwind$__acrt_fp_format   0000000180030a1c     libucrt:cvt.obj
 0002:0000ca34       $unwind$?fp_format_e_internal@@YAHQEAD_KH_NIQEAU_strflt@@2QEAU__crt_locale_pointers@@@Z 0000000180030a34     libucrt:cvt.obj
 0002:0000ca4c       $unwind$?fp_format_a@@YAHQEBNPEAD_KQEAD2H_NIQEAU__crt_locale_pointers@@W4__acrt_rounding_mode@@@Z 0000000180030a4c     libucrt:cvt.obj
 0002:0000ca68       $unwind$?fp_format_g@@YAHQEBNQEAD_K12H_NIQEAU__crt_locale_pointers@@@Z 0000000180030a68     libucrt:cvt.obj
 0002:0000ca7c       $unwind$__acrt_uninitialize_locale 0000000180030a7c     libucrt:wsetlocale.obj
 0002:0000ca7c       $unwind$__acrt_get_sigabrt_handler 0000000180030a7c     libucrt:signal.obj
 0002:0000ca84       $unwind$??$?RV<lambda_410d79af7f07d98d83a3f525b3859a53>@@AEAV<lambda_3e16ef9562a7dcce91392c22ab16ea36>@@V<lambda_38119f0e861e05405d8a144b9b982f0a>@@@?$__crt_seh_guarded_call@X@@QEAAX$$QEAV<lambda_410d79af7f07d98d83a3f525b3859a53>@@AEAV<lambda_3e16ef9562a7dcce91392c22ab16ea36>@@$$QEAV<lambda_38119f0e861e05405d8a144b9b982f0a>@@@Z 0000000180030a84     libucrt:wsetlocale.obj
 0002:0000caac       $unwind$__acrt_initialize_lowio 0000000180030aac     libucrt:ioinit.obj
 0002:0000cacc       $unwind$??$common_expand_argv_wildcards@D@@YAHQEAPEADQEAPEAPEAD@Z 0000000180030acc     libucrt:argv_wildcards.obj
 0002:0000cae4       $unwind$??$copy_and_add_argument_to_buffer@D@@YAHQEBD0_KAEAV?$argument_list@D@?A0x5f5c8891@@@Z 0000000180030ae4     libucrt:argv_wildcards.obj
 0002:0000cb00       $unwind$??$expand_argument_wildcards@D@@YAHQEAD0AEAV?$argument_list@D@?A0x5f5c8891@@@Z 0000000180030b00     libucrt:argv_wildcards.obj
 0002:0000cb24       $unwind$__acrt_GetModuleFileNameA 0000000180030b24     libucrt:getmodulefilenamea.obj
 0002:0000cb40       $unwind$_setmbcp_nolock    0000000180030b40     libucrt:mbctype.obj
 0002:0000cb60       $unwind$?update_thread_multibyte_data_internal@@YAPEAU__crt_multibyte_data@@QEAU__acrt_ptd@@QEAPEAU1@@Z 0000000180030b60     libucrt:mbctype.obj
 0002:0000cb88       $unwind$?setmbcp_internal@@YAHH_NQEAU__acrt_ptd@@QEAPEAU__crt_multibyte_data@@@Z 0000000180030b88     libucrt:mbctype.obj
 0002:0000cb98       $unwind$?setSBUpLow@@YAXPEAU__crt_multibyte_data@@@Z 0000000180030b98     libucrt:mbctype.obj
 0002:0000cbb4       $unwind$??$?RV<lambda_efdfa57d1f175319df784efa44bb7b81>@@AEAV<lambda_5f0a4c1567f8adc6734073e5d1e1b35c>@@V<lambda_2e8a7d3640ea6ccb4c2413664c2db6fd>@@@?$__crt_seh_guarded_call@X@@QEAAX$$QEAV<lambda_efdfa57d1f175319df784efa44bb7b81>@@AEAV<lambda_5f0a4c1567f8adc6734073e5d1e1b35c>@@$$QEAV<lambda_2e8a7d3640ea6ccb4c2413664c2db6fd>@@@Z 0000000180030bb4     libucrt:mbctype.obj
 0002:0000cbd8       $unwind$__acrt_WideCharToMultiByte 0000000180030bd8     libucrt:widechartomultibyte.obj
 0002:0000cbe4       $unwind$raise              0000000180030be4     libucrt:signal.obj
 0002:0000cc20       $unwind$??$?RV<lambda_450d765d439847d4c735a33c368b5fc0>@@AEAV<lambda_44731a7d0e6d81c3e6aa82d741081786>@@V<lambda_601a2a7da3b7a96e9554ac7215c4b07c>@@@?$__crt_seh_guarded_call@P6AXH@Z@@QEAAP6AXH@Z$$QEAV<lambda_450d765d439847d4c735a33c368b5fc0>@@AEAV<lambda_44731a7d0e6d81c3e6aa82d741081786>@@$$QEAV<lambda_601a2a7da3b7a96e9554ac7215c4b07c>@@@Z 0000000180030c20     libucrt:signal.obj
 0002:0000cc44       $unwind$?common_flush_all@@YAH_N@Z 0000000180030c44     libucrt:fflush.obj
 0002:0000cc4c       $unwind$??$?RV<lambda_842d9ff0dc9ef11c61343bbaebe7f885>@@AEAV<lambda_c5860995281e5c4ce005b3de8f5874ee>@@V<lambda_d90129c13df834fdcbf8d2b88dafcf2d>@@@?$__crt_seh_guarded_call@X@@QEAAX$$QEAV<lambda_842d9ff0dc9ef11c61343bbaebe7f885>@@AEAV<lambda_c5860995281e5c4ce005b3de8f5874ee>@@$$QEAV<lambda_d90129c13df834fdcbf8d2b88dafcf2d>@@@Z 0000000180030c4c     libucrt:fflush.obj
 0002:0000cc70       $unwind$??$?RV<lambda_886d6c58226a84441f68b9f2b8217b83>@@AEAV<lambda_ab61a845afdef5b7c387490eaf3616ee>@@V<lambda_f7f22ab5edc0698d5f6905b0d3f44752>@@@?$__crt_seh_guarded_call@X@@QEAAX$$QEAV<lambda_886d6c58226a84441f68b9f2b8217b83>@@AEAV<lambda_ab61a845afdef5b7c387490eaf3616ee>@@$$QEAV<lambda_f7f22ab5edc0698d5f6905b0d3f44752>@@@Z 0000000180030c70     libucrt:fflush.obj
 0002:0000cc98       $unwind$__acrt_update_thread_locale_data 0000000180030c98     libucrt:locale_refcounting.obj
 0002:0000ccbc       $unwind$?__mbrtowc_utf8@__crt_mbstring@@YA_KPEA_WPEBD_KPEAU_Mbstatet@@@Z 0000000180030cbc     libucrt:mbrtowc.obj
 0002:0000ccc4       $unwind$?__mbsrtowcs_utf8@__crt_mbstring@@YA_KPEA_WPEAPEBD_KPEAU_Mbstatet@@@Z 0000000180030cc4     libucrt:mbrtowc.obj
 0002:0000ccdc       $unwind$__acrt_fltout      0000000180030cdc     libucrt:cfout.obj
 0002:0000ccfc       $unwind$?divide@__crt_strtox@@YA_KAEAUbig_integer@1@AEBU21@@Z 0000000180030cfc     libucrt:cfout.obj
 0002:0000cd14       $chain$0$?divide@__crt_strtox@@YA_KAEAUbig_integer@1@AEBU21@@Z 0000000180030d14     libucrt:cfout.obj
 0002:0000cd28       $chain$1$?divide@__crt_strtox@@YA_KAEAUbig_integer@1@AEBU21@@Z 0000000180030d28     libucrt:cfout.obj
 0002:0000cd38       $unwind$_fcloseall         0000000180030d38     libucrt:closeall.obj
 0002:0000cd5c       $unwind$__acrt_locale_free_monetary 0000000180030d5c     libucrt:initmon.obj
 0002:0000cd64       $unwind$__acrt_locale_free_time 0000000180030d64     libucrt:inittime.obj
 0002:0000cd74       $unwind$__acrt_GetStringTypeA 0000000180030d74     libucrt:getstringtypea.obj
 0002:0000cd9c       $unwind$__acrt_lowio_destroy_handle_array 0000000180030d9c     libucrt:osfinfo.obj
 0002:0000cdac       $unwind$__acrt_lowio_ensure_fh_exists 0000000180030dac     libucrt:osfinfo.obj
 0002:0000cdd8       $unwind$qsort              0000000180030dd8     libucrt:qsort.obj
 0002:0000cdf0       $chain$4$qsort             0000000180030df0     libucrt:qsort.obj
 0002:0000ce14       $chain$5$qsort             0000000180030e14     libucrt:qsort.obj
 0002:0000ce24       $unwind$strpbrk            0000000180030e24     libucrt:strpbrk.obj
 0002:0000ce34       $unwind$fallbackMethod     0000000180030e34     libucrt:strpbrk.obj
 0002:0000ce44       $unwind$__acrt_LCMapStringA 0000000180030e44     libucrt:lcmapstringa.obj
 0002:0000ce54       $unwind$?__acrt_LCMapStringA_stat@@YAHPEAU__crt_locale_pointers@@PEB_WKPEBDHPEADHHH@Z 0000000180030e54     libucrt:lcmapstringa.obj
 0002:0000ce7c       $unwind$_close             0000000180030e7c     libucrt:close.obj
 0002:0000ce7c       $unwind$_commit            0000000180030e7c     libucrt:commit.obj
 0002:0000ce84       $unwind$??$?RV<lambda_a37b2b86f63e897a80ea819b0eb08c01>@@AEAV<lambda_38ce7e780aa69e748d6df282ebc68efe>@@V<lambda_99fb1378e971ab6e7edea83e3a7a83a2>@@@?$__crt_seh_guarded_call@H@@QEAAH$$QEAV<lambda_a37b2b86f63e897a80ea819b0eb08c01>@@AEAV<lambda_38ce7e780aa69e748d6df282ebc68efe>@@$$QEAV<lambda_99fb1378e971ab6e7edea83e3a7a83a2>@@@Z 0000000180030e84     libucrt:commit.obj
 0002:0000cea8       $unwind$_write             0000000180030ea8     libucrt:write.obj
 0002:0000ced8       $unwind$_write_nolock      0000000180030ed8     libucrt:write.obj
 0002:0000cef0       $unwind$?write_double_translated_ansi_nolock@@YA?AUwrite_result@?A0x17268360@@HQEBDI@Z 0000000180030ef0     libucrt:write.obj
 0002:0000cf14       $unwind$?write_text_ansi_nolock@@YA?AUwrite_result@?A0x17268360@@HQEBDI@Z 0000000180030f14     libucrt:write.obj
 0002:0000cf14       $unwind$?write_text_utf16le_nolock@@YA?AUwrite_result@?A0x17268360@@HQEBDI@Z 0000000180030f14     libucrt:write.obj
 0002:0000cf34       $unwind$?write_text_utf8_nolock@@YA?AUwrite_result@?A0x17268360@@HQEBDI@Z 0000000180030f34     libucrt:write.obj
 0002:0000cf58       $xdatasym                  0000000180030f58     libucrt:log10.obj
 0002:0000cf64       $unwind$__acrt_fenv_set_control 0000000180030f64     libucrt:_fenvutils.obj
 0002:0000cf74       $unwind$fclose             0000000180030f74     libucrt:fclose.obj
 0002:0000cf98       $unwind$_putwch_nolock     0000000180030f98     libucrt:putwch.obj
 0002:0000cfa0       $unwind$common_control87   0000000180030fa0     libucrt:ieee.obj
 0002:0000cfcc       $unwind$_call_matherr      0000000180030fcc     libucrt:libm_error.obj
 0002:0000cfd4       $unwind$_handle_error      0000000180030fd4     libucrt:libm_error.obj
 0002:0000cff4       $unwind$__acrt_initialize_fma3 0000000180030ff4     libucrt:fma3_available.obj
 0002:0000cffc       $unwind$_log_special_common 0000000180030ffc     libucrt:log_special.obj
 0002:0000d008       $unwind$??$?RV<lambda_751a882b2c74d4b022dec766aa51a29a>@@AEAV<lambda_628dfdc04ba53c8bfc02c9951375f3f5>@@V<lambda_f6c7be5f7998530c34de24c7437d6b54>@@@?$__crt_seh_guarded_call@H@@QEAAH$$QEAV<lambda_751a882b2c74d4b022dec766aa51a29a>@@AEAV<lambda_628dfdc04ba53c8bfc02c9951375f3f5>@@$$QEAV<lambda_f6c7be5f7998530c34de24c7437d6b54>@@@Z 0000000180031008     libucrt:close.obj
 0002:0000d030       $xdatasym                  0000000180031030     libucrt:fpsr.obj
 0002:0000d038       $unwind$_raise_exc_ex      0000000180031038     libucrt:fpexcept.obj
 0002:0000d04c       $unwind$_ctrlfp            000000018003104c     libucrt:fpctrl.obj
 0002:0000d074       $unwind$_IsNonwritableInCurrentImage 0000000180031074     LIBCMT:pesect.obj
 0002:0000d200       .edata                     0000000180031200     OPOSMSR.exp
 0002:0000d228       rgpv                       0000000180031228     OPOSMSR.exp
 0002:0000d238       rgszName                   0000000180031238     OPOSMSR.exp
 0002:0000d248       rgwOrd                     0000000180031248     OPOSMSR.exp
 0002:0000d250       szName                     0000000180031250     OPOSMSR.exp
 0002:0000d25c       $N00001                    000000018003125c     OPOSMSR.exp
 0002:0000d26c       $N00002                    000000018003126c     OPOSMSR.exp
 0002:0000d27e       $N00003                    000000018003127e     OPOSMSR.exp
 0002:0000d290       $N00004                    0000000180031290     OPOSMSR.exp
 0002:0000dbc2       .idata$6                   0000000180031bc2     kernel32:KERNEL32.dll
 0002:0000ddda       .idata$6                   0000000180031dda     user32:USER32.dll
 0002:0000df0e       .idata$6                   0000000180031f0e     gdi32:GDI32.dll
 0002:0000dfb4       .idata$6                   0000000180031fb4     advapi32:ADVAPI32.dll
 0002:0000e0d0       .idata$6                   00000001800320d0     ole32:ole32.dll
 0002:0000e0da       .idata$6                   00000001800320da     oleaut32:OLEAUT32.dll
 0003:000001c0       ?ObjectMap@@3PAU_ATL_OBJMAP_ENTRY30@ATL@@A 00000001800331c0     MSR.obj
 0003:000002b8       ?s_RequiredMethodsPerRelease@@3PAHA 00000001800332b8     MSRImpl.obj
 0003:000002f0       ?s_SOMethodNames@@3PAPEADA 00000001800332f0     MSRImpl.obj
 0003:000003f0       ?__vcrt_flsindex@@3KA      00000001800333f0     libvcruntime:per_thread_data.obj
 0003:00000400       ?errno_no_memory@@3HA      0000000180033400     libucrt:errno.obj
 0003:00000404       ?doserrno_no_memory@@3KA   0000000180033404     libucrt:errno.obj
 0003:00000410       ?__acrt_flsindex@@3KA      0000000180033410     libucrt:per_thread_data.obj
 0003:000008d0       _mbctypes                  00000001800338d0     libucrt:mbctype.obj
 0003:000009e0       _mbcasemaps                00000001800339e0     libucrt:mbctype.obj
 0003:00000ae0       ?__rgctypeflag@@3PADA      0000000180033ae0     libucrt:mbctype.obj
 0003:00000af0       ?__rgcode_page_info@@3PAUcode_page_info@@A 0000000180033af0     libucrt:mbctype.obj
 0003:00000d90       ?dazSupported@?1??common_control87@@9@9 0000000180033d90     libucrt:ieee.obj
 0003:00000da0       ?__dcrt_lowio_console_output_handle@@3PEAXEA 0000000180033da0     libucrt:initcon.obj
 0003:00000db0       ?dazSupported@?1??_ctrlfp@@9@9 0000000180033db0     libucrt:fpctrl.obj
 0003:00001000       ?is_initialized_as_dll@@3_NA 0000000180034000     LIBCMT:utility.obj
 0003:00001001       ?module_local_atexit_table_initialized@@3_NA 0000000180034001     LIBCMT:utility.obj
 0003:00001008       ?module_local_atexit_table@@3U_onexit_table_t@@A 0000000180034008     LIBCMT:utility.obj
 0003:00001020       ?module_local_at_quick_exit_table@@3U_onexit_table_t@@A 0000000180034020     LIBCMT:utility.obj
 0003:00001038       ?g_tss_cv@@3U_RTL_CONDITION_VARIABLE@@A 0000000180034038     LIBCMT:thread_safe_statics.obj
 0003:00001040       ?g_tss_event@@3PEAXEA      0000000180034040     LIBCMT:thread_safe_statics.obj
 0003:00001048       ?g_tss_mutex@@3U_RTL_CRITICAL_SECTION@@A 0000000180034048     LIBCMT:thread_safe_statics.obj
 0003:00001070       ?g_sleep_condition_variable_cs@@3P6AHPEAU_RTL_CONDITION_VARIABLE@@PEAU_RTL_CRITICAL_SECTION@@K@ZEA 0000000180034070     LIBCMT:thread_safe_statics.obj
 0003:00001078       ?g_wake_all_condition_variable@@3P6AXPEAU_RTL_CONDITION_VARIABLE@@@ZEA 0000000180034078     LIBCMT:thread_safe_statics.obj
 0003:00001080       GS_ExceptionRecord         0000000180034080     LIBCMT:gs_report.obj
 0003:00001120       GS_ContextRecord           0000000180034120     LIBCMT:gs_report.obj
 0003:000015f4       ?__proc_attached@@3HA      00000001800345f4     LIBCMT:dll_dllmain.obj
 0003:00001698       ?AllocateData@@3P6APEAUAtlThunkData_t@@XZEA 0000000180034698     atls:atlthunk.obj
 0003:000016a0       ?InitData@@3P6AXPEAUAtlThunkData_t@@PEAX_K@ZEA 00000001800346a0     atls:atlthunk.obj
 0003:000016a8       ?DataToCode@@3P6AP6A_JPEAUHWND__@@I_K_J@ZPEAUAtlThunkData_t@@@ZEA 00000001800346a8     atls:atlthunk.obj
 0003:000016b0       ?FreeData@@3P6AXPEAUAtlThunkData_t@@@ZEA 00000001800346b0     atls:atlthunk.obj
 0003:000016b8       ?Initialized@@3_NA         00000001800346b8     atls:atlthunk.obj
 0003:000016d0       ?__vcrt_startup_thread_ptd@@3U__vcrt_ptd@@A 00000001800346d0     libvcruntime:per_thread_data.obj
 0003:00001750       __vcrt_lock_table          0000000180034750     libvcruntime:locks.obj
 0003:00001778       __vcrt_locks_initialized   0000000180034778     libvcruntime:locks.obj
 0003:000017c0       ?heap@@3V_HeapManager@@A   00000001800347c0     libvcruntime:undname.obj
 0003:000017e8       ?module_handles@@3PAPEAUHINSTANCE__@@A 00000001800347e8     libvcruntime:winapi_downlevel.obj
 0003:00001800       ?function_pointers@@3PAPEAXA 0000000180034800     libvcruntime:winapi_downlevel.obj
 0003:00001828       ?__acrt_invalid_parameter_handler@@3V?$dual_state_global@P6AXPEB_W00I_K@Z@__crt_state_management@@A 0000000180034828     libucrt:invalid_parameter.obj
 0003:00001830       ?c_termination_complete@@3JA 0000000180034830     libucrt:exit.obj
 0003:00001838       ?thread_local_exit_callback_func@@3P6AXPEAXK0@ZEA 0000000180034838     libucrt:exit.obj
 0003:00001850       ?program_name@?1???$common_configure_argv@D@@YAHW4_crt_argv_mode@@@Z@4PADA 0000000180034850     libucrt:argv_parsing.obj
 0003:000019a8       ?__acrt_new_handler@@3V?$dual_state_global@P6AH_K@Z@__crt_state_management@@A 00000001800349a8     libucrt:new_handler.obj
 0003:000019b0       ?module_handles@@3PAPEAUHINSTANCE__@@A 00000001800349b0     libucrt:winapi_thunks.obj
 0003:00001a50       ?encoded_function_pointers@@3PAPEAXA 0000000180034a50     libucrt:winapi_thunks.obj
 0003:00001b60       ?internal_state@?1??_mbtowc_l@@9@4U_Mbstatet@@A 0000000180034b60     libucrt:mbtowc.obj
 0003:00001b78       ?enable_percent_n@@3_KA    0000000180034b78     libucrt:printf_count_output.obj
 0003:00001fb0       ?__acrt_lock_table@@3PAU_RTL_CRITICAL_SECTION@@A 0000000180034fb0     libucrt:locks.obj
 0003:000021e0       ?__acrt_locks_initialized@@3IA 00000001800351e0     libucrt:locks.obj
 0003:00002200       ?fSystemSet@@3HA           0000000180035200     libucrt:mbctype.obj
 0003:00002204       ?initialized@?1??__acrt_initialize_multibyte@@9@4_NA 0000000180035204     libucrt:mbctype.obj
 0003:00002240       ?ctrlc_action@@3V?$dual_state_global@P6AXH@Z@__crt_state_management@@A 0000000180035240     libucrt:signal.obj
 0003:00002248       ?ctrlbreak_action@@3V?$dual_state_global@P6AXH@Z@__crt_state_management@@A 0000000180035248     libucrt:signal.obj
 0003:00002250       ?abort_action@@3V?$dual_state_global@P6AXH@Z@__crt_state_management@@A 0000000180035250     libucrt:signal.obj
 0003:00002258       ?term_action@@3V?$dual_state_global@P6AXH@Z@__crt_state_management@@A 0000000180035258     libucrt:signal.obj
 0003:00002260       ?user_matherr@@3V?$dual_state_global@P6AHPEAU_exception@@@Z@__crt_state_management@@A 0000000180035260     libucrt:matherr.obj
 0003:00002268       ?__acrt_global_new_mode@@3V?$dual_state_global@J@__crt_state_management@@A 0000000180035268     libucrt:new_mode.obj
 0003:00002278       ?internal_pst@?1??__mbrtoc32_utf8@__crt_mbstring@@YA_KPEA_UPEBD_KPEAU_Mbstatet@@@Z@4U3@A 0000000180035278     libucrt:mbrtoc32.obj
 0003:00002280       ?__acrt_app_type@@3W4_crt_app_type@@A 0000000180035280     libucrt:report_runtime_error.obj
 0005:00000000       MoveSmall                  0000000180038000     libvcruntime:memcpy.obj
 0005:00000050       MsetTab                    0000000180038050     libvcruntime:memset.obj
 0006:00000220       $R000000                   0000000180039220     MSR.res
 0006:00000b90       $R000970                   0000000180039b90     MSR.res
 0006:00000c78       $R000A58                   0000000180039c78     MSR.res
 0006:00000ee0       $R000CC0                   0000000180039ee0     MSR.res
 0006:00001410       $R0011F0                   000000018003a410     MSR.res
 0006:00005c00       $R0059E0                   000000018003ec00     MSR.res
 0006:00005c28       $R005A08                   000000018003ec28     MSR.res
