 OPOSElectronicValueRW

 Timestamp is 600f784e (Tue Jan 26 11:02:54 2021)

 Preferred load address is 0000000180000000

 Start         Length     Name                   Class
 0001:00000000 000000c0H .text$di                CODE
 0001:000000c0 00024200H .text$mn                CODE
 0001:000242c0 00000040H .text$mn$00             CODE
 0001:00024300 000004b0H .text$x                 CODE
 0001:000247b0 00000078H .text$yd                CODE
 0002:00000000 00000618H .idata$5                DATA
 0002:00000618 00000028H .00cfg                  DATA
 0002:00000640 00000008H .CRT$XCA                DATA
 0002:00000648 00000008H .CRT$XCL                DATA
 0002:00000650 00000020H .CRT$XCU                DATA
 0002:00000670 00000008H .CRT$XCZ                DATA
 0002:00000678 00000008H .CRT$XIA                DATA
 0002:00000680 00000020H .CRT$XIC                DATA
 0002:000006a0 00000008H .CRT$XIZ                DATA
 0002:000006a8 00000008H .CRT$XLA                DATA
 0002:000006b0 00000008H .CRT$XLZ                DATA
 0002:000006b8 00000008H .CRT$XPA                DATA
 0002:000006c0 00000010H .CRT$XPX                DATA
 0002:000006d0 00000008H .CRT$XPXA               DATA
 0002:000006d8 00000008H .CRT$XPZ                DATA
 0002:000006e0 00000008H .CRT$XTA                DATA
 0002:000006e8 00000008H .CRT$XTZ                DATA
 0002:000006f0 00000000H .gehcont$y              DATA
 0002:000006f0 00000000H .gfids$y                DATA
 0002:000006f0 0000b410H .rdata                  DATA
 0002:0000bb00 00000000H .rdata$CastGuardVftablesA DATA
 0002:0000bb00 00000000H .rdata$CastGuardVftablesC DATA
 0002:0000bb00 00000028H .rdata$T                DATA
 0002:0000bb28 00000274H .rdata$r                DATA
 0002:0000bd9c 00000414H .rdata$zzzdbg           DATA
 0002:0000c1b0 00000008H .rtc$IAA                DATA
 0002:0000c1b8 00000008H .rtc$IZZ                DATA
 0002:0000c1c0 00000008H .rtc$TAA                DATA
 0002:0000c1c8 00000008H .rtc$TZZ                DATA
 0002:0000c1d0 00000004H .tls                    DATA
 0002:0000c1d4 00000004H .tls$                   DATA
 0002:0000c1d8 00000008H .tls$ZZZ                DATA
 0002:0000c1e0 00001730H .xdata                  DATA
 0002:0000d910 00000150H .xdata$x                DATA
 0002:0000da60 00000008H ATL$__a                 DATA
 0002:0000da68 00000008H ATL$__z                 DATA
 0002:0000da70 000000b4H .edata                  DATA
 0002:0000db24 00000078H .idata$2                DATA
 0002:0000db9c 00000014H .idata$3                DATA
 0002:0000dbb0 00000618H .idata$4                DATA
 0002:0000e1c8 00000c2aH .idata$6                DATA
 0003:00000000 00000f18H .data                   DATA
 0003:00000f18 000000c8H .data$r                 DATA
 0003:00000fe0 0000141cH .bss                    DATA
 0004:00000000 00002268H .pdata                  DATA
 0005:00000000 00000094H _RDATA                  DATA
 0006:00000000 00000220H .rsrc$01                DATA
 0006:00000220 00007ef8H .rsrc$02                DATA

  Address         Publics by Value              Rva+Base               Lib:Object

 0000:00000000       ___safe_se_handler_table   0000000000000000     <absolute>
 0000:00000000       __x64_code_ranges_to_entry_points 0000000000000000     <absolute>
 0000:00000000       __x64_code_ranges_to_entry_points_count 0000000000000000     <absolute>
 0000:00000000       __guard_fids_count         0000000000000000     <absolute>
 0000:00000000       __arm64x_redirection_metadata 0000000000000000     <absolute>
 0000:00000000       __guard_iat_table          0000000000000000     <absolute>
 0000:00000000       __arm64x_extra_rfe_table   0000000000000000     <absolute>
 0000:00000000       __hybrid_code_map          0000000000000000     <absolute>
 0000:00000000       __guard_iat_count          0000000000000000     <absolute>
 0000:00000000       __guard_longjmp_count      0000000000000000     <absolute>
 0000:00000000       __volatile_metadata        0000000000000000     <absolute>
 0000:00000000       __arm64x_extra_rfe_table_size 0000000000000000     <absolute>
 0000:00000000       ___safe_se_handler_count   0000000000000000     <absolute>
 0000:00000000       __guard_longjmp_table      0000000000000000     <absolute>
 0000:00000000       __dynamic_value_reloc_table 0000000000000000     <absolute>
 0000:00000000       __hybrid_auxiliary_iat     0000000000000000     <absolute>
 0000:00000000       __AbsoluteZero             0000000000000000     <absolute>
 0000:00000000       __guard_eh_cont_count      0000000000000000     <absolute>
 0000:00000000       __guard_fids_table         0000000000000000     <absolute>
 0000:00000000       __arm64x_redirection_metadata_count 0000000000000000     <absolute>
 0000:00000000       __enclave_config           0000000000000000     <absolute>
 0000:00000000       __guard_eh_cont_table      0000000000000000     <absolute>
 0000:00000000       __arm64x_native_entrypoint 0000000000000000     <absolute>
 0000:00000000       __hybrid_code_map_count    0000000000000000     <absolute>
 0000:00000100       __guard_flags              0000000000000100     <absolute>
 0000:00000000       __ImageBase                0000000180000000     <linker-defined>
 0001:000000c0       ?DupWide@_CW@@AEAAXXZ      00000001800010c0 f   CWString.obj
 0001:000000e8       ?cw_dup@@YAXPEBDAEAHAEAPEA_W1@Z 00000001800010e8 f   CWString.obj
 0001:000001c8       ?cw_memcpy@@YAHPEA_WPEBDH@Z 00000001800011c8 f   CWString.obj
 0001:00000214       ?cw_strcpy@@YAHPEA_WPEBD@Z 0000000180001214 f   CWString.obj
 0001:00000228       ??0CAtlComModule@ATL@@QEAA@XZ 0000000180001228 f i OposVariant.obj
 0001:000002a8       ??0CAtlWinModule@ATL@@QEAA@XZ 00000001800012a8 f i OposVariant.obj
 0001:00000314       ??0OposDispParms@@QEAA@PEAVOposVariant@@H@Z 0000000180001314 f   OposVariant.obj
 0001:000003bc       ??1OposDispParms@@QEAA@XZ  00000001800013bc f   OposVariant.obj
 0001:000003d4       ??_Estringdispid@CComTypeInfoHolder@ATL@@QEAAPEAXI@Z 00000001800013d4 f i OposVariant.obj
 0001:00000478       ?AtlWinModuleTerm@ATL@@YAJPEAU_ATL_WIN_MODULE70@1@PEAUHINSTANCE__@@@Z 0000000180001478 f i OposVariant.obj
 0001:00000528       ?ChangeBSTR@OposVariant@@QEAAXPEAPEA_WAEAJ@Z 0000000180001528 f   OposVariant.obj
 0001:00000588       ?ChangeCURRENCY@OposVariant@@QEAAXPEATtagCY@@AEAJ@Z 0000000180001588 f   OposVariant.obj
 0001:000005e8       ?ChangeLONG@OposVariant@@QEAAXPEAJAEAJ@Z 00000001800015e8 f   OposVariant.obj
 0001:00000644       ?GetLONG@OposVariant@@QEAAJXZ 0000000180001644 f   OposVariant.obj
 0001:00000668       ?SetBSTR@OposVariant@@QEAAXPEA_WAEAJ@Z 0000000180001668 f   OposVariant.obj
 0001:000006a8       ?SetBSTR_Copy@OposVariant@@QEAAXPEA_WAEAJ@Z 00000001800016a8 f   OposVariant.obj
 0001:00000718       ?SetBSTR_InOutPtr@OposVariant@@QEAA_NPEAPEA_WAEAJ@Z 0000000180001718 f   OposVariant.obj
 0001:00000768       ?SetCURRENCY@OposVariant@@QEAAXTtagCY@@@Z 0000000180001768 f   OposVariant.obj
 0001:0000079c       ?SetDispatch_Ptr@OposVariant@@QEAAXPEAUIDispatch@@AEAJ@Z 000000018000179c f   OposVariant.obj
 0001:000007f4       ?SetLONG@OposVariant@@QEAAXJ@Z 00000001800017f4 f   OposVariant.obj
 0001:00000824       ?SetLONG_Ptr@OposVariant@@QEAAXPEAJAEAJ@Z 0000000180001824 f   OposVariant.obj
 0001:00000870       ?SetString@OposVariant@@QEAAXPEB_WAEAJ@Z 0000000180001870 f   OposVariant.obj
 0001:000008d4       ?SetVARIANT_BOOL@OposVariant@@QEAAXF@Z 00000001800018d4 f   OposVariant.obj
 0001:0000090c       ?Term@CAtlComModule@ATL@@QEAAXXZ 000000018000190c f i OposVariant.obj
 0001:0000097c       ?_AtlInitializeCriticalSectionEx@ATL@@YAHPEAU_RTL_CRITICAL_SECTION@@KK@Z 000000018000197c f i OposVariant.obj
 0001:00000984       ?_AtlRaiseException@ATL@@YAXKK@Z 0000000180001984 f i OposVariant.obj
 0001:00000994       ?GetWindowProc@?$CWindowImplBaseT@VCWindow@ATL@@V?$CWinTraits@$0FGAAAAAA@$0A@@2@@ATL@@UEAAP6A_JPEAUHWND__@@I_K_J@ZXZ 0000000180001994 f i ElectronicValueRW.obj
 0001:0000099c       ?StartWindowProc@?$CWindowImplBaseT@VCWindow@ATL@@V?$CWinTraits@$0FGAAAAAA@$0A@@2@@ATL@@SA_JPEAUHWND__@@I_K_J@Z 000000018000199c f i ElectronicValueRW.obj
 0001:00000a60       ??_E?$CComObject@VCOPOSElectronicValueRW@@@ATL@@W7EAAPEAXI@Z 0000000180001a60 f i ElectronicValueRW.obj
 0001:00000a6c       ??_E?$CComObject@VCOPOSElectronicValueRW@@@ATL@@WHA@EAAPEAXI@Z 0000000180001a6c f i ElectronicValueRW.obj
 0001:00000a78       ?QueryInterface@?$CComObject@VCOPOSElectronicValueRW@@@ATL@@WLI@EAAJAEBU_GUID@@PEAPEAX@Z 0000000180001a78 f i ElectronicValueRW.obj
 0001:00000a84       ?AddRef@?$CComObject@VCOPOSElectronicValueRW@@@ATL@@WLI@EAAKXZ 0000000180001a84 f i ElectronicValueRW.obj
 0001:00000a90       ?Release@?$CComObject@VCOPOSElectronicValueRW@@@ATL@@WLI@EAAKXZ 0000000180001a90 f i ElectronicValueRW.obj
 0001:00000a9c       ?QueryInterface@?$CComObject@VCOPOSElectronicValueRW@@@ATL@@WMA@EAAJAEBU_GUID@@PEAPEAX@Z 0000000180001a9c f i ElectronicValueRW.obj
 0001:00000aa8       ?AddRef@?$CComObject@VCOPOSElectronicValueRW@@@ATL@@WMA@EAAKXZ 0000000180001aa8 f i ElectronicValueRW.obj
 0001:00000ab4       ?Release@?$CComObject@VCOPOSElectronicValueRW@@@ATL@@WMA@EAAKXZ 0000000180001ab4 f i ElectronicValueRW.obj
 0001:00000ac0       ?QueryInterface@?$CComObject@VCOPOSElectronicValueRW@@@ATL@@WMI@EAAJAEBU_GUID@@PEAPEAX@Z 0000000180001ac0 f i ElectronicValueRW.obj
 0001:00000acc       ?AddRef@?$CComObject@VCOPOSElectronicValueRW@@@ATL@@WMI@EAAKXZ 0000000180001acc f i ElectronicValueRW.obj
 0001:00000ad8       ?Release@?$CComObject@VCOPOSElectronicValueRW@@@ATL@@WMI@EAAKXZ 0000000180001ad8 f i ElectronicValueRW.obj
 0001:00000ae4       ?QueryInterface@?$CComObject@VCOPOSElectronicValueRW@@@ATL@@WNA@EAAJAEBU_GUID@@PEAPEAX@Z 0000000180001ae4 f i ElectronicValueRW.obj
 0001:00000af0       ?AddRef@?$CComObject@VCOPOSElectronicValueRW@@@ATL@@WNA@EAAKXZ 0000000180001af0 f i ElectronicValueRW.obj
 0001:00000afc       ?Release@?$CComObject@VCOPOSElectronicValueRW@@@ATL@@WNA@EAAKXZ 0000000180001afc f i ElectronicValueRW.obj
 0001:00000b08       ?QueryInterface@?$CComObject@VCOPOSElectronicValueRW@@@ATL@@WNI@EAAJAEBU_GUID@@PEAPEAX@Z 0000000180001b08 f i ElectronicValueRW.obj
 0001:00000b14       ?AddRef@?$CComObject@VCOPOSElectronicValueRW@@@ATL@@WNI@EAAKXZ 0000000180001b14 f i ElectronicValueRW.obj
 0001:00000b20       ?Release@?$CComObject@VCOPOSElectronicValueRW@@@ATL@@WNI@EAAKXZ 0000000180001b20 f i ElectronicValueRW.obj
 0001:00000b2c       ?QueryInterface@?$CComObject@VCOPOSElectronicValueRW@@@ATL@@WOA@EAAJAEBU_GUID@@PEAPEAX@Z 0000000180001b2c f i ElectronicValueRW.obj
 0001:00000b38       ?AddRef@?$CComObject@VCOPOSElectronicValueRW@@@ATL@@WOA@EAAKXZ 0000000180001b38 f i ElectronicValueRW.obj
 0001:00000b44       ?Release@?$CComObject@VCOPOSElectronicValueRW@@@ATL@@WOA@EAAKXZ 0000000180001b44 f i ElectronicValueRW.obj
 0001:00000b50       ?QueryInterface@?$CComObject@VCOPOSElectronicValueRW@@@ATL@@WOI@EAAJAEBU_GUID@@PEAPEAX@Z 0000000180001b50 f i ElectronicValueRW.obj
 0001:00000b5c       ?AddRef@?$CComObject@VCOPOSElectronicValueRW@@@ATL@@WOI@EAAKXZ 0000000180001b5c f i ElectronicValueRW.obj
 0001:00000b68       ?Release@?$CComObject@VCOPOSElectronicValueRW@@@ATL@@WOI@EAAKXZ 0000000180001b68 f i ElectronicValueRW.obj
 0001:00000b74       ?QueryInterface@?$CComObject@VCOPOSElectronicValueRW@@@ATL@@WPA@EAAJAEBU_GUID@@PEAPEAX@Z 0000000180001b74 f i ElectronicValueRW.obj
 0001:00000b80       ?AddRef@?$CComObject@VCOPOSElectronicValueRW@@@ATL@@WPA@EAAKXZ 0000000180001b80 f i ElectronicValueRW.obj
 0001:00000b8c       ?OnFinalMessage@?$CWindowImplBaseT@VCWindow@ATL@@V?$CWinTraits@$0FGAAAAAA@$0A@@2@@ATL@@UEAAXPEAUHWND__@@@Z 0000000180001b8c f i ElectronicValueRW.obj
 0001:00000b8c       ?ObjectMain@CComObjectRootBase@ATL@@SAX_N@Z 0000000180001b8c f i ElectronicValueRW.obj
 0001:00000b8c       _guard_check_icall_nop     0000000180001b8c f i LIBCMT:guard_support.obj
 0001:00000b90       ?Release@?$CComObject@VCOPOSElectronicValueRW@@@ATL@@WPA@EAAKXZ 0000000180001b90 f i ElectronicValueRW.obj
 0001:00000b9c       ?QueryInterface@?$CComObject@VCOPOSElectronicValueRW@@@ATL@@WPI@EAAJAEBU_GUID@@PEAPEAX@Z 0000000180001b9c f i ElectronicValueRW.obj
 0001:00000ba8       ?AddRef@?$CComObject@VCOPOSElectronicValueRW@@@ATL@@WPI@EAAKXZ 0000000180001ba8 f i ElectronicValueRW.obj
 0001:00000bb4       ?Release@?$CComObject@VCOPOSElectronicValueRW@@@ATL@@WPI@EAAKXZ 0000000180001bb4 f i ElectronicValueRW.obj
 0001:00000bc0       ?QueryInterface@?$CComObject@VCOPOSElectronicValueRW@@@ATL@@WBAA@EAAJAEBU_GUID@@PEAPEAX@Z 0000000180001bc0 f i ElectronicValueRW.obj
 0001:00000bcc       ?AddRef@?$CComObject@VCOPOSElectronicValueRW@@@ATL@@WBAA@EAAKXZ 0000000180001bcc f i ElectronicValueRW.obj
 0001:00000bd8       ?Release@?$CComObject@VCOPOSElectronicValueRW@@@ATL@@WBAA@EAAKXZ 0000000180001bd8 f i ElectronicValueRW.obj
 0001:00000be4       ?QueryInterface@?$CComObject@VCOPOSElectronicValueRW@@@ATL@@WBAI@EAAJAEBU_GUID@@PEAPEAX@Z 0000000180001be4 f i ElectronicValueRW.obj
 0001:00000bf0       ?AddRef@?$CComObject@VCOPOSElectronicValueRW@@@ATL@@WBAI@EAAKXZ 0000000180001bf0 f i ElectronicValueRW.obj
 0001:00000bfc       ?Release@?$CComObject@VCOPOSElectronicValueRW@@@ATL@@WBAI@EAAKXZ 0000000180001bfc f i ElectronicValueRW.obj
 0001:00000c08       ?QueryInterface@?$CComObject@VCOPOSElectronicValueRW@@@ATL@@WBBA@EAAJAEBU_GUID@@PEAPEAX@Z 0000000180001c08 f i ElectronicValueRW.obj
 0001:00000c14       ?AddRef@?$CComObject@VCOPOSElectronicValueRW@@@ATL@@WBBA@EAAKXZ 0000000180001c14 f i ElectronicValueRW.obj
 0001:00000c20       ?Release@?$CComObject@VCOPOSElectronicValueRW@@@ATL@@WBBA@EAAKXZ 0000000180001c20 f i ElectronicValueRW.obj
 0001:00000c2c       ?QueryInterface@?$CComObject@VCOPOSElectronicValueRW@@@ATL@@WBBI@EAAJAEBU_GUID@@PEAPEAX@Z 0000000180001c2c f i ElectronicValueRW.obj
 0001:00000c38       ?AddRef@?$CComObject@VCOPOSElectronicValueRW@@@ATL@@WBBI@EAAKXZ 0000000180001c38 f i ElectronicValueRW.obj
 0001:00000c44       ?Release@?$CComObject@VCOPOSElectronicValueRW@@@ATL@@WBBI@EAAKXZ 0000000180001c44 f i ElectronicValueRW.obj
 0001:00000c50       ?AddRef@?$CComObject@VCOPOSElectronicValueRW@@@ATL@@WBCI@EAAKXZ 0000000180001c50 f i ElectronicValueRW.obj
 0001:00000c5c       ?Release@?$CComObject@VCOPOSElectronicValueRW@@@ATL@@WBCI@EAAKXZ 0000000180001c5c f i ElectronicValueRW.obj
 0001:00000c68       ?AddRef@?$CComObject@VCOPOSElectronicValueRW@@@ATL@@WBEA@EAAKXZ 0000000180001c68 f i ElectronicValueRW.obj
 0001:00000c74       ?Release@?$CComObject@VCOPOSElectronicValueRW@@@ATL@@WBEA@EAAKXZ 0000000180001c74 f i ElectronicValueRW.obj
 0001:00000c80       ??_E?$CComContainedObject@VCOPOSElectronicValueRW@@@ATL@@W7EAAPEAXI@Z 0000000180001c80 f i ElectronicValueRW.obj
 0001:00000c8c       ??_E?$CComContainedObject@VCOPOSElectronicValueRW@@@ATL@@WHA@EAAPEAXI@Z 0000000180001c8c f i ElectronicValueRW.obj
 0001:00000c98       ?QueryInterface@?$CComContainedObject@VCOPOSElectronicValueRW@@@ATL@@WLI@EAAJAEBU_GUID@@PEAPEAX@Z 0000000180001c98 f i ElectronicValueRW.obj
 0001:00000ca4       ?AddRef@?$CComContainedObject@VCOPOSElectronicValueRW@@@ATL@@WLI@EAAKXZ 0000000180001ca4 f i ElectronicValueRW.obj
 0001:00000cb0       ?Release@?$CComContainedObject@VCOPOSElectronicValueRW@@@ATL@@WLI@EAAKXZ 0000000180001cb0 f i ElectronicValueRW.obj
 0001:00000cbc       ?QueryInterface@?$CComContainedObject@VCOPOSElectronicValueRW@@@ATL@@WMA@EAAJAEBU_GUID@@PEAPEAX@Z 0000000180001cbc f i ElectronicValueRW.obj
 0001:00000cc8       ?AddRef@?$CComContainedObject@VCOPOSElectronicValueRW@@@ATL@@WMA@EAAKXZ 0000000180001cc8 f i ElectronicValueRW.obj
 0001:00000cd4       ?Release@?$CComContainedObject@VCOPOSElectronicValueRW@@@ATL@@WMA@EAAKXZ 0000000180001cd4 f i ElectronicValueRW.obj
 0001:00000ce0       ?QueryInterface@?$CComContainedObject@VCOPOSElectronicValueRW@@@ATL@@WMI@EAAJAEBU_GUID@@PEAPEAX@Z 0000000180001ce0 f i ElectronicValueRW.obj
 0001:00000cec       ?AddRef@?$CComContainedObject@VCOPOSElectronicValueRW@@@ATL@@WMI@EAAKXZ 0000000180001cec f i ElectronicValueRW.obj
 0001:00000cf8       ?Release@?$CComContainedObject@VCOPOSElectronicValueRW@@@ATL@@WMI@EAAKXZ 0000000180001cf8 f i ElectronicValueRW.obj
 0001:00000d04       ?QueryInterface@?$CComContainedObject@VCOPOSElectronicValueRW@@@ATL@@WNA@EAAJAEBU_GUID@@PEAPEAX@Z 0000000180001d04 f i ElectronicValueRW.obj
 0001:00000d10       ?AddRef@?$CComContainedObject@VCOPOSElectronicValueRW@@@ATL@@WNA@EAAKXZ 0000000180001d10 f i ElectronicValueRW.obj
 0001:00000d1c       ?Release@?$CComContainedObject@VCOPOSElectronicValueRW@@@ATL@@WNA@EAAKXZ 0000000180001d1c f i ElectronicValueRW.obj
 0001:00000d28       ?QueryInterface@?$CComContainedObject@VCOPOSElectronicValueRW@@@ATL@@WNI@EAAJAEBU_GUID@@PEAPEAX@Z 0000000180001d28 f i ElectronicValueRW.obj
 0001:00000d34       ?AddRef@?$CComContainedObject@VCOPOSElectronicValueRW@@@ATL@@WNI@EAAKXZ 0000000180001d34 f i ElectronicValueRW.obj
 0001:00000d40       ?Release@?$CComContainedObject@VCOPOSElectronicValueRW@@@ATL@@WNI@EAAKXZ 0000000180001d40 f i ElectronicValueRW.obj
 0001:00000d4c       ?QueryInterface@?$CComContainedObject@VCOPOSElectronicValueRW@@@ATL@@WOA@EAAJAEBU_GUID@@PEAPEAX@Z 0000000180001d4c f i ElectronicValueRW.obj
 0001:00000d58       ?AddRef@?$CComContainedObject@VCOPOSElectronicValueRW@@@ATL@@WOA@EAAKXZ 0000000180001d58 f i ElectronicValueRW.obj
 0001:00000d64       ?Release@?$CComContainedObject@VCOPOSElectronicValueRW@@@ATL@@WOA@EAAKXZ 0000000180001d64 f i ElectronicValueRW.obj
 0001:00000d70       ?QueryInterface@?$CComContainedObject@VCOPOSElectronicValueRW@@@ATL@@WOI@EAAJAEBU_GUID@@PEAPEAX@Z 0000000180001d70 f i ElectronicValueRW.obj
 0001:00000d7c       ?AddRef@?$CComContainedObject@VCOPOSElectronicValueRW@@@ATL@@WOI@EAAKXZ 0000000180001d7c f i ElectronicValueRW.obj
 0001:00000d88       ?Release@?$CComContainedObject@VCOPOSElectronicValueRW@@@ATL@@WOI@EAAKXZ 0000000180001d88 f i ElectronicValueRW.obj
 0001:00000d94       ?QueryInterface@?$CComContainedObject@VCOPOSElectronicValueRW@@@ATL@@WPA@EAAJAEBU_GUID@@PEAPEAX@Z 0000000180001d94 f i ElectronicValueRW.obj
 0001:00000da0       ?AddRef@?$CComContainedObject@VCOPOSElectronicValueRW@@@ATL@@WPA@EAAKXZ 0000000180001da0 f i ElectronicValueRW.obj
 0001:00000dac       ?Release@?$CComContainedObject@VCOPOSElectronicValueRW@@@ATL@@WPA@EAAKXZ 0000000180001dac f i ElectronicValueRW.obj
 0001:00000db8       ?QueryInterface@?$CComContainedObject@VCOPOSElectronicValueRW@@@ATL@@WPI@EAAJAEBU_GUID@@PEAPEAX@Z 0000000180001db8 f i ElectronicValueRW.obj
 0001:00000dc4       ?AddRef@?$CComContainedObject@VCOPOSElectronicValueRW@@@ATL@@WPI@EAAKXZ 0000000180001dc4 f i ElectronicValueRW.obj
 0001:00000dd0       ?Release@?$CComContainedObject@VCOPOSElectronicValueRW@@@ATL@@WPI@EAAKXZ 0000000180001dd0 f i ElectronicValueRW.obj
 0001:00000ddc       ?QueryInterface@?$CComContainedObject@VCOPOSElectronicValueRW@@@ATL@@WBAA@EAAJAEBU_GUID@@PEAPEAX@Z 0000000180001ddc f i ElectronicValueRW.obj
 0001:00000de8       ?AddRef@?$CComContainedObject@VCOPOSElectronicValueRW@@@ATL@@WBAA@EAAKXZ 0000000180001de8 f i ElectronicValueRW.obj
 0001:00000df4       ?Release@?$CComContainedObject@VCOPOSElectronicValueRW@@@ATL@@WBAA@EAAKXZ 0000000180001df4 f i ElectronicValueRW.obj
 0001:00000e00       ?QueryInterface@?$CComContainedObject@VCOPOSElectronicValueRW@@@ATL@@WBAI@EAAJAEBU_GUID@@PEAPEAX@Z 0000000180001e00 f i ElectronicValueRW.obj
 0001:00000e0c       ?AddRef@?$CComContainedObject@VCOPOSElectronicValueRW@@@ATL@@WBAI@EAAKXZ 0000000180001e0c f i ElectronicValueRW.obj
 0001:00000e18       ?Release@?$CComContainedObject@VCOPOSElectronicValueRW@@@ATL@@WBAI@EAAKXZ 0000000180001e18 f i ElectronicValueRW.obj
 0001:00000e24       ?QueryInterface@?$CComContainedObject@VCOPOSElectronicValueRW@@@ATL@@WBBA@EAAJAEBU_GUID@@PEAPEAX@Z 0000000180001e24 f i ElectronicValueRW.obj
 0001:00000e30       ?AddRef@?$CComContainedObject@VCOPOSElectronicValueRW@@@ATL@@WBBA@EAAKXZ 0000000180001e30 f i ElectronicValueRW.obj
 0001:00000e3c       ?Release@?$CComContainedObject@VCOPOSElectronicValueRW@@@ATL@@WBBA@EAAKXZ 0000000180001e3c f i ElectronicValueRW.obj
 0001:00000e48       ?QueryInterface@?$CComContainedObject@VCOPOSElectronicValueRW@@@ATL@@WBBI@EAAJAEBU_GUID@@PEAPEAX@Z 0000000180001e48 f i ElectronicValueRW.obj
 0001:00000e54       ?AddRef@?$CComContainedObject@VCOPOSElectronicValueRW@@@ATL@@WBBI@EAAKXZ 0000000180001e54 f i ElectronicValueRW.obj
 0001:00000e60       ?Release@?$CComContainedObject@VCOPOSElectronicValueRW@@@ATL@@WBBI@EAAKXZ 0000000180001e60 f i ElectronicValueRW.obj
 0001:00000e6c       ?AddRef@?$CComContainedObject@VCOPOSElectronicValueRW@@@ATL@@WBCI@EAAKXZ 0000000180001e6c f i ElectronicValueRW.obj
 0001:00000e78       ?Release@?$CComContainedObject@VCOPOSElectronicValueRW@@@ATL@@WBCI@EAAKXZ 0000000180001e78 f i ElectronicValueRW.obj
 0001:00000e84       ?AddRef@?$CComContainedObject@VCOPOSElectronicValueRW@@@ATL@@WBEA@EAAKXZ 0000000180001e84 f i ElectronicValueRW.obj
 0001:00000e90       ?Release@?$CComContainedObject@VCOPOSElectronicValueRW@@@ATL@@WBEA@EAAKXZ 0000000180001e90 f i ElectronicValueRW.obj
 0001:00000e9c       ?GetTypeInfoCount@?$IDispatchImpl@UIOPOSElectronicValueRW@@$1?IID_IOPOSElectronicValueRW@@3U_GUID@@B$1?LIBID_OposElectronicValueRW_CCO@@3U3@B$00$0A@VCComTypeInfoHolder@ATL@@@ATL@@UEAAJPEAI@Z 0000000180001e9c f i ElectronicValueRW.obj
 0001:00000eb0       ?GetTypeInfo@?$IDispatchImpl@UIOPOSElectronicValueRW@@$1?IID_IOPOSElectronicValueRW@@3U_GUID@@B$1?LIBID_OposElectronicValueRW_CCO@@3U3@B$00$0A@VCComTypeInfoHolder@ATL@@@ATL@@UEAAJIKPEAPEAUITypeInfo@@@Z 0000000180001eb0 f i ElectronicValueRW.obj
 0001:00000f14       ?GetIDsOfNames@?$IDispatchImpl@UIOPOSElectronicValueRW@@$1?IID_IOPOSElectronicValueRW@@3U_GUID@@B$1?LIBID_OposElectronicValueRW_CCO@@3U3@B$00$0A@VCComTypeInfoHolder@ATL@@@ATL@@UEAAJAEBU_GUID@@PEAPEA_WIKPEAJ@Z 0000000180001f14 f i ElectronicValueRW.obj
 0001:00000f20       ?Invoke@?$IDispatchImpl@UIOPOSElectronicValueRW@@$1?IID_IOPOSElectronicValueRW@@3U_GUID@@B$1?LIBID_OposElectronicValueRW_CCO@@3U3@B$00$0A@VCComTypeInfoHolder@ATL@@@ATL@@UEAAJJAEBU_GUID@@KGPEAUtagDISPPARAMS@@PEAUtagVARIANT@@PEAUtagEXCEPINFO@@PEAI@Z 0000000180001f20 f i ElectronicValueRW.obj
 0001:00000fb0       ?CreateControlWindow@?$CComControl@VCOPOSElectronicValueRW@@V?$CWindowImpl@VCOPOSElectronicValueRW@@VCWindow@ATL@@V?$CWinTraits@$0FGAAAAAA@$0A@@3@@ATL@@@ATL@@UEAAPEAUHWND__@@PEAU3@AEAUtagRECT@@@Z 0000000180001fb0 f i ElectronicValueRW.obj
 0001:00000fe8       ?ControlQueryInterface@?$CComControl@VCOPOSElectronicValueRW@@V?$CWindowImpl@VCOPOSElectronicValueRW@@VCWindow@ATL@@V?$CWinTraits@$0FGAAAAAA@$0A@@3@@ATL@@@ATL@@UEAAJAEBU_GUID@@PEAPEAX@Z 0000000180001fe8 f i ElectronicValueRW.obj
 0001:00000ffc       ?GetUserClassID@?$IOleObjectImpl@VCOPOSElectronicValueRW@@@ATL@@UEAAJPEAU_GUID@@@Z 0000000180001ffc f i ElectronicValueRW.obj
 0001:00000ffc       ?GetClassID@?$IPersistStreamInitImpl@VCOPOSElectronicValueRW@@@ATL@@UEAAJPEAU_GUID@@@Z 0000000180001ffc f i ElectronicValueRW.obj
 0001:00000ffc       ?GetClassID@?$IPersistStorageImpl@VCOPOSElectronicValueRW@@@ATL@@UEAAJPEAU_GUID@@@Z 0000000180001ffc f i ElectronicValueRW.obj
 0001:00001018       ?IsDirty@?$IPersistStreamInitImpl@VCOPOSElectronicValueRW@@@ATL@@UEAAJXZ 0000000180002018 f i ElectronicValueRW.obj
 0001:00001034       ?Load@?$IPersistStreamInitImpl@VCOPOSElectronicValueRW@@@ATL@@UEAAJPEAUIStream@@@Z 0000000180002034 f i ElectronicValueRW.obj
 0001:0000104c       ?Save@?$IPersistStreamInitImpl@VCOPOSElectronicValueRW@@@ATL@@UEAAJPEAUIStream@@H@Z 000000018000204c f i ElectronicValueRW.obj
 0001:00001064       ?GetSizeMax@?$IPersistStreamInitImpl@VCOPOSElectronicValueRW@@@ATL@@UEAAJPEAT_ULARGE_INTEGER@@@Z 0000000180002064 f i ElectronicValueRW.obj
 0001:00001290       ?InitNew@?$IPersistStreamInitImpl@VCOPOSElectronicValueRW@@@ATL@@UEAAJXZ 0000000180002290 f i ElectronicValueRW.obj
 0001:000012a8       ?GetClipboardData@?$IOleObjectImpl@VCOPOSElectronicValueRW@@@ATL@@UEAAJKPEAPEAUIDataObject@@@Z 00000001800022a8 f i ElectronicValueRW.obj
 0001:000012a8       ?SetData@?$IDataObjectImpl@VCOPOSElectronicValueRW@@@ATL@@UEAAJPEAUtagFORMATETC@@PEAUtagSTGMEDIUM@@H@Z 00000001800022a8 f i ElectronicValueRW.obj
 0001:000012a8       ?GetMoniker@?$IOleObjectImpl@VCOPOSElectronicValueRW@@@ATL@@UEAAJKKPEAPEAUIMoniker@@@Z 00000001800022a8 f i ElectronicValueRW.obj
 0001:000012a8       ?QueryInterface@CRegObject@ATL@@UEAAJAEBU_GUID@@PEAPEAX@Z 00000001800022a8 f i ElectronicValueRW.obj
 0001:000012a8       ?OnMnemonic@?$IOleControlImpl@VCOPOSElectronicValueRW@@@ATL@@UEAAJPEAUtagMSG@@@Z 00000001800022a8 f i ElectronicValueRW.obj
 0001:000012a8       ?GetCanonicalFormatEtc@?$IDataObjectImpl@VCOPOSElectronicValueRW@@@ATL@@UEAAJPEAUtagFORMATETC@@0@Z 00000001800022a8 f i ElectronicValueRW.obj
 0001:000012a8       ?SetColorScheme@?$IOleObjectImpl@VCOPOSElectronicValueRW@@@ATL@@UEAAJPEAUtagLOGPALETTE@@@Z 00000001800022a8 f i ElectronicValueRW.obj
 0001:000012a8       ?GetRect@?$IViewObjectExImpl@VCOPOSElectronicValueRW@@@ATL@@UEAAJKPEAU_RECTL@@@Z 00000001800022a8 f i ElectronicValueRW.obj
 0001:000012a8       ?Freeze@?$IViewObjectExImpl@VCOPOSElectronicValueRW@@@ATL@@UEAAJKJPEAXPEAK@Z 00000001800022a8 f i ElectronicValueRW.obj
 0001:000012a8       ?SetMoniker@?$IOleObjectImpl@VCOPOSElectronicValueRW@@@ATL@@UEAAJKPEAUIMoniker@@@Z 00000001800022a8 f i ElectronicValueRW.obj
 0001:000012a8       ?GetDataHere@?$IDataObjectImpl@VCOPOSElectronicValueRW@@@ATL@@UEAAJPEAUtagFORMATETC@@PEAUtagSTGMEDIUM@@@Z 00000001800022a8 f i ElectronicValueRW.obj
 0001:000012a8       ?EnumFormatEtc@?$IDataObjectImpl@VCOPOSElectronicValueRW@@@ATL@@UEAAJKPEAPEAUIEnumFORMATETC@@@Z 00000001800022a8 f i ElectronicValueRW.obj
 0001:000012a8       ?GetColorSet@?$IViewObjectExImpl@VCOPOSElectronicValueRW@@@ATL@@UEAAJKJPEAXPEAUtagDVTARGETDEVICE@@PEAUHDC__@@PEAPEAUtagLOGPALETTE@@@Z 00000001800022a8 f i ElectronicValueRW.obj
 0001:000012a8       ?QueryGetData@?$IDataObjectImpl@VCOPOSElectronicValueRW@@@ATL@@UEAAJPEAUtagFORMATETC@@@Z 00000001800022a8 f i ElectronicValueRW.obj
 0001:000012a8       ?ReactivateAndUndo@?$IOleInPlaceObjectWindowlessImpl@VCOPOSElectronicValueRW@@@ATL@@UEAAJXZ 00000001800022a8 f i ElectronicValueRW.obj
 0001:000012a8       ?InitFromData@?$IOleObjectImpl@VCOPOSElectronicValueRW@@@ATL@@UEAAJPEAUIDataObject@@HK@Z 00000001800022a8 f i ElectronicValueRW.obj
 0001:000012a8       ?ContextSensitiveHelp@?$IOleInPlaceActiveObjectImpl@VCOPOSElectronicValueRW@@@ATL@@UEAAJH@Z 00000001800022a8 f i ElectronicValueRW.obj
 0001:000012a8       ?GetDropTarget@?$IOleInPlaceObjectWindowlessImpl@VCOPOSElectronicValueRW@@@ATL@@UEAAJPEAPEAUIDropTarget@@@Z 00000001800022a8 f i ElectronicValueRW.obj
 0001:000012a8       ?ContextSensitiveHelp@?$IOleInPlaceObjectWindowlessImpl@VCOPOSElectronicValueRW@@@ATL@@UEAAJH@Z 00000001800022a8 f i ElectronicValueRW.obj
 0001:000012a8       ?GetControlInfo@?$IOleControlImpl@VCOPOSElectronicValueRW@@@ATL@@UEAAJPEAUtagCONTROLINFO@@@Z 00000001800022a8 f i ElectronicValueRW.obj
 0001:000012a8       ?Unfreeze@?$IViewObjectExImpl@VCOPOSElectronicValueRW@@@ATL@@UEAAJK@Z 00000001800022a8 f i ElectronicValueRW.obj
 0001:000012b0       ?SaveCompleted@?$IPersistStorageImpl@VCOPOSElectronicValueRW@@@ATL@@UEAAJPEAUIStorage@@@Z 00000001800022b0 f i ElectronicValueRW.obj
 0001:000012b0       ?Update@?$IOleObjectImpl@VCOPOSElectronicValueRW@@@ATL@@UEAAJXZ 00000001800022b0 f i ElectronicValueRW.obj
 0001:000012b0       ?GetObjectDescription@?$CComCoClass@VCOPOSElectronicValueRW@@$1?CLSID_OPOSElectronicValueRW@@3U_GUID@@B@ATL@@SAPEB_WXZ 00000001800022b0 f i ElectronicValueRW.obj
 0001:000012b0       ?GetCategoryMap@CComObjectRootBase@ATL@@SAPEBU_ATL_CATMAP_ENTRY@2@XZ 00000001800022b0 f i ElectronicValueRW.obj
 0001:000012b0       ?EnableModeless@?$IOleInPlaceActiveObjectImpl@VCOPOSElectronicValueRW@@@ATL@@UEAAJH@Z 00000001800022b0 f i ElectronicValueRW.obj
 0001:000012b0       ?OnFrameWindowActivate@?$IOleInPlaceActiveObjectImpl@VCOPOSElectronicValueRW@@@ATL@@UEAAJH@Z 00000001800022b0 f i ElectronicValueRW.obj
 0001:000012b0       ?ResizeBorder@?$IOleInPlaceActiveObjectImpl@VCOPOSElectronicValueRW@@@ATL@@UEAAJPEBUtagRECT@@PEAUIOleInPlaceUIWindow@@H@Z 00000001800022b0 f i ElectronicValueRW.obj
 0001:000012b0       ?Release@CRegObject@ATL@@UEAAKXZ 00000001800022b0 f i ElectronicValueRW.obj
 0001:000012b0       ?OnAmbientPropertyChange@?$IOleControlImpl@VCOPOSElectronicValueRW@@@ATL@@UEAAJJ@Z 00000001800022b0 f i ElectronicValueRW.obj
 0001:000012b0       ?HandsOffStorage@?$IPersistStorageImpl@VCOPOSElectronicValueRW@@@ATL@@UEAAJXZ 00000001800022b0 f i ElectronicValueRW.obj
 0001:000012b0       ?IsUpToDate@?$IOleObjectImpl@VCOPOSElectronicValueRW@@@ATL@@UEAAJXZ 00000001800022b0 f i ElectronicValueRW.obj
 0001:000012b0       ?SetHostNames@?$IOleObjectImpl@VCOPOSElectronicValueRW@@@ATL@@UEAAJPEB_W0@Z 00000001800022b0 f i ElectronicValueRW.obj
 0001:000012b4       ?SetClientSite@?$IOleObjectImpl@VCOPOSElectronicValueRW@@@ATL@@UEAAJPEAUIOleClientSite@@@Z 00000001800022b4 f i ElectronicValueRW.obj
 0001:000012d0       ?GetClientSite@?$IOleObjectImpl@VCOPOSElectronicValueRW@@@ATL@@UEAAJPEAPEAUIOleClientSite@@@Z 00000001800022d0 f i ElectronicValueRW.obj
 0001:00001318       ?Close@?$IOleObjectImpl@VCOPOSElectronicValueRW@@@ATL@@UEAAJK@Z 0000000180002318 f i ElectronicValueRW.obj
 0001:00001334       ?DoVerb@?$IOleObjectImpl@VCOPOSElectronicValueRW@@@ATL@@UEAAJJPEAUtagMSG@@PEAUIOleClientSite@@JPEAUHWND__@@PEBUtagRECT@@@Z 0000000180002334 f i ElectronicValueRW.obj
 0001:000014d8       ?EnumVerbs@?$IOleObjectImpl@VCOPOSElectronicValueRW@@@ATL@@UEAAJPEAPEAUIEnumOLEVERB@@@Z 00000001800024d8 f i ElectronicValueRW.obj
 0001:000014f4       ?GetUserType@?$IOleObjectImpl@VCOPOSElectronicValueRW@@@ATL@@UEAAJKPEAPEA_W@Z 00000001800024f4 f i ElectronicValueRW.obj
 0001:00001504       ?SetExtent@?$IOleObjectImpl@VCOPOSElectronicValueRW@@@ATL@@UEAAJKPEAUtagSIZE@@@Z 0000000180002504 f i ElectronicValueRW.obj
 0001:00001520       ?GetExtent@?$IOleObjectImpl@VCOPOSElectronicValueRW@@@ATL@@UEAAJKPEAUtagSIZE@@@Z 0000000180002520 f i ElectronicValueRW.obj
 0001:00001550       ?Advise@?$IOleObjectImpl@VCOPOSElectronicValueRW@@@ATL@@UEAAJPEAUIAdviseSink@@PEAK@Z 0000000180002550 f i ElectronicValueRW.obj
 0001:000015ac       ?Unadvise@?$IOleObjectImpl@VCOPOSElectronicValueRW@@@ATL@@UEAAJK@Z 00000001800025ac f i ElectronicValueRW.obj
 0001:000015e4       ?EnumAdvise@?$IOleObjectImpl@VCOPOSElectronicValueRW@@@ATL@@UEAAJPEAPEAUIEnumSTATDATA@@@Z 00000001800025e4 f i ElectronicValueRW.obj
 0001:0000162c       ?GetMiscStatus@?$IOleObjectImpl@VCOPOSElectronicValueRW@@@ATL@@UEAAJKPEAK@Z 000000018000262c f i ElectronicValueRW.obj
 0001:0000163c       ?GetWindow@?$IOleInPlaceActiveObjectImpl@VCOPOSElectronicValueRW@@@ATL@@UEAAJPEAPEAUHWND__@@@Z 000000018000263c f i ElectronicValueRW.obj
 0001:00001690       ?TranslateAcceleratorW@?$IOleInPlaceActiveObjectImpl@VCOPOSElectronicValueRW@@@ATL@@UEAAJPEAUtagMSG@@@Z 0000000180002690 f i ElectronicValueRW.obj
 0001:00001784       ?OnDocWindowActivate@?$IOleInPlaceActiveObjectImpl@VCOPOSElectronicValueRW@@@ATL@@UEAAJH@Z 0000000180002784 f i ElectronicValueRW.obj
 0001:000017b0       ?Draw@?$IViewObjectExImpl@VCOPOSElectronicValueRW@@@ATL@@UEAAJKJPEAXPEAUtagDVTARGETDEVICE@@PEAUHDC__@@2PEBU_RECTL@@3P6AH_K@Z4@Z 00000001800027b0 f i ElectronicValueRW.obj
 0001:00001814       ?Lock@CAtlModule@ATL@@UEAAJXZ 0000000180002814 f i ElectronicValueRW.obj
 0001:00001824       ?Unlock@CAtlModule@ATL@@UEAAJXZ 0000000180002824 f i ElectronicValueRW.obj
 0001:00001830       ?GetLockCount@CAtlModule@ATL@@UEAAJXZ 0000000180002830 f i ElectronicValueRW.obj
 0001:00001834       ?GetGITPtr@CAtlModule@ATL@@UEAAJPEAPEAUIGlobalInterfaceTable@@@Z 0000000180002834 f i ElectronicValueRW.obj
 0001:000018a4       ?SetAdvise@?$IViewObjectExImpl@VCOPOSElectronicValueRW@@@ATL@@UEAAJKKPEAUIAdviseSink@@@Z 00000001800028a4 f i ElectronicValueRW.obj
 0001:000018f8       ?GetAdvise@?$IViewObjectExImpl@VCOPOSElectronicValueRW@@@ATL@@UEAAJPEAK0PEAPEAUIAdviseSink@@@Z 00000001800028f8 f i ElectronicValueRW.obj
 0001:00001934       ?GetExtent@?$IViewObjectExImpl@VCOPOSElectronicValueRW@@@ATL@@UEAAJKJPEAUtagDVTARGETDEVICE@@PEAUtagSIZE@@@Z 0000000180002934 f i ElectronicValueRW.obj
 0001:00001964       ?GetViewStatus@?$IViewObjectExImpl@VCOPOSElectronicValueRW@@@ATL@@UEAAJPEAK@Z 0000000180002964 f i ElectronicValueRW.obj
 0001:00001978       ?QueryHitPoint@?$IViewObjectExImpl@VCOPOSElectronicValueRW@@@ATL@@UEAAJKPEBUtagRECT@@UtagPOINT@@JPEAK@Z 0000000180002978 f i ElectronicValueRW.obj
 0001:000019bc       ?QueryHitRect@?$IViewObjectExImpl@VCOPOSElectronicValueRW@@@ATL@@UEAAJKPEBUtagRECT@@0JPEAK@Z 00000001800029bc f i ElectronicValueRW.obj
 0001:00001a24       ?GetNaturalExtent@?$IViewObjectExImpl@VCOPOSElectronicValueRW@@@ATL@@UEAAJKJPEAUtagDVTARGETDEVICE@@PEAUHDC__@@PEAUtagExtentInfo@@PEAUtagSIZE@@@Z 0000000180002a24 f i ElectronicValueRW.obj
 0001:00001a6c       ?GetWindow@?$IOleInPlaceObjectWindowlessImpl@VCOPOSElectronicValueRW@@@ATL@@UEAAJPEAPEAUHWND__@@@Z 0000000180002a6c f i ElectronicValueRW.obj
 0001:00001ac0       ?InPlaceDeactivate@?$IOleInPlaceObjectWindowlessImpl@VCOPOSElectronicValueRW@@@ATL@@UEAAJXZ 0000000180002ac0 f i ElectronicValueRW.obj
 0001:00001adc       ?UIDeactivate@?$IOleInPlaceObjectWindowlessImpl@VCOPOSElectronicValueRW@@@ATL@@UEAAJXZ 0000000180002adc f i ElectronicValueRW.obj
 0001:00001af8       ?SetObjectRects@?$IOleInPlaceObjectWindowlessImpl@VCOPOSElectronicValueRW@@@ATL@@UEAAJPEBUtagRECT@@0@Z 0000000180002af8 f i ElectronicValueRW.obj
 0001:00001b14       ?OnWindowMessage@?$IOleInPlaceObjectWindowlessImpl@VCOPOSElectronicValueRW@@@ATL@@UEAAJI_K_JPEA_J@Z 0000000180002b14 f i ElectronicValueRW.obj
 0001:00001bdc       ?EnumConnectionPoints@?$IConnectionPointContainerImpl@VCOPOSElectronicValueRW@@@ATL@@UEAAJPEAPEAUIEnumConnectionPoints@@@Z 0000000180002bdc f i ElectronicValueRW.obj
 0001:00001e28       ?FindConnectionPoint@?$IConnectionPointContainerImpl@VCOPOSElectronicValueRW@@@ATL@@UEAAJAEBU_GUID@@PEAPEAUIConnectionPoint@@@Z 0000000180002e28 f i ElectronicValueRW.obj
 0001:00001ef8       ?IsDirty@?$IPersistStorageImpl@VCOPOSElectronicValueRW@@@ATL@@UEAAJXZ 0000000180002ef8 f i ElectronicValueRW.obj
 0001:00001f38       ?InitNew@?$IPersistStorageImpl@VCOPOSElectronicValueRW@@@ATL@@UEAAJPEAUIStorage@@@Z 0000000180002f38 f i ElectronicValueRW.obj
 0001:00001f78       ?Load@?$IPersistStorageImpl@VCOPOSElectronicValueRW@@@ATL@@UEAAJPEAUIStorage@@@Z 0000000180002f78 f i ElectronicValueRW.obj
 0001:00002018       ?Save@?$IPersistStorageImpl@VCOPOSElectronicValueRW@@@ATL@@UEAAJPEAUIStorage@@H@Z 0000000180003018 f i ElectronicValueRW.obj
 0001:000020c8       ?GetPages@?$ISpecifyPropertyPagesImpl@VCOPOSElectronicValueRW@@@ATL@@UEAAJPEAUtagCAUUID@@@Z 00000001800030c8 f i ElectronicValueRW.obj
 0001:000020d4       ?QuickActivate@?$IQuickActivateImpl@VCOPOSElectronicValueRW@@@ATL@@UEAAJPEAUtagQACONTAINER@@PEAUtagQACONTROL@@@Z 00000001800030d4 f i ElectronicValueRW.obj
 0001:000020f0       ?SetContentExtent@?$IQuickActivateImpl@VCOPOSElectronicValueRW@@@ATL@@UEAAJPEAUtagSIZE@@@Z 00000001800030f0 f i ElectronicValueRW.obj
 0001:00002124       ?GetContentExtent@?$IQuickActivateImpl@VCOPOSElectronicValueRW@@@ATL@@UEAAJPEAUtagSIZE@@@Z 0000000180003124 f i ElectronicValueRW.obj
 0001:0000215c       ?GetData@?$IDataObjectImpl@VCOPOSElectronicValueRW@@@ATL@@UEAAJPEAUtagFORMATETC@@PEAUtagSTGMEDIUM@@@Z 000000018000315c f i ElectronicValueRW.obj
 0001:00002178       ?DAdvise@?$IDataObjectImpl@VCOPOSElectronicValueRW@@@ATL@@UEAAJPEAUtagFORMATETC@@KPEAUIAdviseSink@@PEAK@Z 0000000180003178 f i ElectronicValueRW.obj
 0001:00002200       ?DUnadvise@?$IDataObjectImpl@VCOPOSElectronicValueRW@@@ATL@@UEAAJK@Z 0000000180003200 f i ElectronicValueRW.obj
 0001:0000222c       ?EnumDAdvise@?$IDataObjectImpl@VCOPOSElectronicValueRW@@@ATL@@UEAAJPEAPEAUIEnumSTATDATA@@@Z 000000018000322c f i ElectronicValueRW.obj
 0001:00002268       ?GetClassInfoW@?$IProvideClassInfo2Impl@$1?CLSID_OPOSElectronicValueRW@@3U_GUID@@B$1?DIID__IOPOSElectronicValueRWEvents@@3U2@B$1?LIBID_OposElectronicValueRW_CCO@@3U2@B$00$0A@VCComTypeInfoHolder@ATL@@@ATL@@UEAAJPEAPEAUITypeInfo@@@Z 0000000180003268 f i ElectronicValueRW.obj
 0001:000022c0       ?GetGUID@?$IProvideClassInfo2Impl@$1?CLSID_OPOSElectronicValueRW@@3U_GUID@@B$1?DIID__IOPOSElectronicValueRWEvents@@3U2@B$1?LIBID_OposElectronicValueRW_CCO@@3U2@B$00$0A@VCComTypeInfoHolder@ATL@@@ATL@@UEAAJKPEAU_GUID@@@Z 00000001800032c0 f i ElectronicValueRW.obj
 0001:000022f4       _get_startup_argv_mode     00000001800032f4 f i LIBCMT:argv_mode.obj
 0001:000022f4       ?AddRef@CRegObject@ATL@@UEAAKXZ 00000001800032f4 f i ElectronicValueRW.obj
 0001:000022f4       ?FAccessAllowed@?$IObjectSafetyImpl@VCOPOSElectronicValueRW@@$02@ATL@@MEAAHXZ 00000001800032f4 f i ElectronicValueRW.obj
 0001:000022fc       ?GetInterfaceSafetyOptions@?$IObjectSafetyImpl@VCOPOSElectronicValueRW@@$02@ATL@@UEAAJAEBU_GUID@@PEAK1@Z 00000001800032fc f i ElectronicValueRW.obj
 0001:00002390       ?SetInterfaceSafetyOptions@?$IObjectSafetyImpl@VCOPOSElectronicValueRW@@$02@ATL@@UEAAJAEBU_GUID@@KK@Z 0000000180003390 f i ElectronicValueRW.obj
 0001:00002434       ?AddCommonRGSReplacements@?$CAtlModuleT@VCComModule@ATL@@@ATL@@UEAAJPEAUIRegistrarBase@@@Z 0000000180003434 f i ElectronicValueRW.obj
 0001:0000244c       ?_LocCPQueryInterface@?$IConnectionPointImpl@VCOPOSElectronicValueRW@@$1?DIID__IOPOSElectronicValueRWEvents@@3U_GUID@@BVCComDynamicUnkArray@ATL@@@ATL@@UEAAJAEBU_GUID@@PEAPEAX@Z 000000018000344c f i ElectronicValueRW.obj
 0001:0000244c       ?_LocCPQueryInterface@?$IConnectionPointImpl@VCOPOSElectronicValueRW@@$1?IID_IPropertyNotifySink@@3U_GUID@@BVCComDynamicUnkArray@ATL@@@ATL@@UEAAJAEBU_GUID@@PEAPEAX@Z 000000018000344c f i ElectronicValueRW.obj
 0001:000024bc       ?GetConnectionInterface@?$IConnectionPointImpl@VCOPOSElectronicValueRW@@$1?IID_IPropertyNotifySink@@3U_GUID@@BVCComDynamicUnkArray@ATL@@@ATL@@UEAAJPEAU_GUID@@@Z 00000001800034bc f i ElectronicValueRW.obj
 0001:000024d8       ?GetConnectionPointContainer@?$IConnectionPointImpl@VCOPOSElectronicValueRW@@$1?IID_IPropertyNotifySink@@3U_GUID@@BVCComDynamicUnkArray@ATL@@@ATL@@UEAAJPEAPEAUIConnectionPointContainer@@@Z 00000001800034d8 f i ElectronicValueRW.obj
 0001:000024f8       ?Advise@?$IConnectionPointImpl@VCOPOSElectronicValueRW@@$1?DIID__IOPOSElectronicValueRWEvents@@3U_GUID@@BVCComDynamicUnkArray@ATL@@@ATL@@UEAAJPEAUIUnknown@@PEAK@Z 00000001800034f8 f i ElectronicValueRW.obj
 0001:000024f8       ?Advise@?$IConnectionPointImpl@VCOPOSElectronicValueRW@@$1?IID_IPropertyNotifySink@@3U_GUID@@BVCComDynamicUnkArray@ATL@@@ATL@@UEAAJPEAUIUnknown@@PEAK@Z 00000001800034f8 f i ElectronicValueRW.obj
 0001:000025b4       ?Unadvise@?$IConnectionPointImpl@VCOPOSElectronicValueRW@@$1?IID_IPropertyNotifySink@@3U_GUID@@BVCComDynamicUnkArray@ATL@@@ATL@@UEAAJK@Z 00000001800035b4 f i ElectronicValueRW.obj
 0001:000025b4       ?Unadvise@?$IConnectionPointImpl@VCOPOSElectronicValueRW@@$1?DIID__IOPOSElectronicValueRWEvents@@3U_GUID@@BVCComDynamicUnkArray@ATL@@@ATL@@UEAAJK@Z 00000001800035b4 f i ElectronicValueRW.obj
 0001:0000261c       ?EnumConnections@?$IConnectionPointImpl@VCOPOSElectronicValueRW@@$1?IID_IPropertyNotifySink@@3U_GUID@@BVCComDynamicUnkArray@ATL@@@ATL@@UEAAJPEAPEAUIEnumConnections@@@Z 000000018000361c f i ElectronicValueRW.obj
 0001:0000261c       ?EnumConnections@?$IConnectionPointImpl@VCOPOSElectronicValueRW@@$1?DIID__IOPOSElectronicValueRWEvents@@3U_GUID@@BVCComDynamicUnkArray@ATL@@@ATL@@UEAAJPEAPEAUIEnumConnections@@@Z 000000018000361c f i ElectronicValueRW.obj
 0001:000027c8       ?UpdateRegistryFromResourceD@CComModule@ATL@@UEAAJPEB_WHPEAU_ATL_REGMAP_ENTRY@2@@Z 00000001800037c8 f i ElectronicValueRW.obj
 0001:000027c8       ?UpdateRegistryFromResourceD@CComModule@ATL@@UEAAJIHPEAU_ATL_REGMAP_ENTRY@2@@Z 00000001800037c8 f i ElectronicValueRW.obj
 0001:000027d0       ?UpdateRegistryFromResource@CComModule@ATL@@UEAAJPEB_WHPEAU_ATL_REGMAP_ENTRY@2@@Z 00000001800037d0 f i ElectronicValueRW.obj
 0001:000027d8       ?UpdateRegistryFromResource@CComModule@ATL@@UEAAJIHPEAU_ATL_REGMAP_ENTRY@2@@Z 00000001800037d8 f i ElectronicValueRW.obj
 0001:000027e0       ??_GCComModule@ATL@@UEAAPEAXI@Z 00000001800037e0 f i ElectronicValueRW.obj
 0001:000027e0       ??_ECComModule@ATL@@UEAAPEAXI@Z 00000001800037e0 f i ElectronicValueRW.obj
 0001:00002820       ?GetConnectionInterface@?$IConnectionPointImpl@VCOPOSElectronicValueRW@@$1?DIID__IOPOSElectronicValueRWEvents@@3U_GUID@@BVCComDynamicUnkArray@ATL@@@ATL@@UEAAJPEAU_GUID@@@Z 0000000180003820 f i ElectronicValueRW.obj
 0001:0000283c       ?GetConnectionPointContainer@?$IConnectionPointImpl@VCOPOSElectronicValueRW@@$1?DIID__IOPOSElectronicValueRWEvents@@3U_GUID@@BVCComDynamicUnkArray@ATL@@@ATL@@UEAAJPEAPEAUIConnectionPointContainer@@@Z 000000018000383c f i ElectronicValueRW.obj
 0001:0000285c       ?UpdateRegistry@COPOSElectronicValueRW@@SAJH@Z 000000018000385c f i ElectronicValueRW.obj
 0001:00002874       ?ProcessWindowMessage@COPOSElectronicValueRW@@UEAAHPEAUHWND__@@I_K_JAEA_JK@Z 0000000180003874 f i ElectronicValueRW.obj
 0001:000028fc       ?SOData@COPOSElectronicValueRW@@MEAAJJ@Z 00000001800038fc f i ElectronicValueRW.obj
 0001:0000294c       ?SODirectIO@COPOSElectronicValueRW@@MEAAJJPEAJPEAPEA_W@Z 000000018000394c f i ElectronicValueRW.obj
 0001:000029c4       ?SOError@COPOSElectronicValueRW@@MEAAJJJJPEAJ@Z 00000001800039c4 f i ElectronicValueRW.obj
 0001:00002a4c       ?SOOutputComplete@COPOSElectronicValueRW@@MEAAJJ@Z 0000000180003a4c f i ElectronicValueRW.obj
 0001:00002a9c       ?SOStatusUpdate@COPOSElectronicValueRW@@MEAAJJ@Z 0000000180003a9c f i ElectronicValueRW.obj
 0001:00002aec       ?SOTransition@COPOSElectronicValueRW@@MEAAJJPEAJPEAPEA_W@Z 0000000180003aec f i ElectronicValueRW.obj
 0001:00002b64       ?CreateInstance@?$CComCreator@V?$CComObjectCached@VCComClassFactory@ATL@@@ATL@@@ATL@@SAJPEAXAEBU_GUID@@PEAPEAX@Z 0000000180003b64 f i ElectronicValueRW.obj
 0001:00002c88       ?CreateInstance@?$CComCreator2@V?$CComCreator@V?$CComObject@VCOPOSElectronicValueRW@@@ATL@@@ATL@@V?$CComCreator@V?$CComAggObject@VCOPOSElectronicValueRW@@@ATL@@@2@@ATL@@SAJPEAXAEBU_GUID@@PEAPEAX@Z 0000000180003c88 f i ElectronicValueRW.obj
 0001:00002c98       ?AddRef@?$CComObjectCached@VCComClassFactory@ATL@@@ATL@@UEAAKXZ 0000000180003c98 f i ElectronicValueRW.obj
 0001:00002cc4       ?Release@?$CComObjectCached@VCComClassFactory@ATL@@@ATL@@UEAAKXZ 0000000180003cc4 f i ElectronicValueRW.obj
 0001:00002d04       ?QueryInterface@?$CComObjectCached@VCComClassFactory@ATL@@@ATL@@UEAAJAEBU_GUID@@PEAPEAX@Z 0000000180003d04 f i ElectronicValueRW.obj
 0001:00002d18       ??_G?$CComObjectCached@VCComClassFactory@ATL@@@ATL@@UEAAPEAXI@Z 0000000180003d18 f i ElectronicValueRW.obj
 0001:00002d18       ??_E?$CComObjectCached@VCComClassFactory@ATL@@@ATL@@UEAAPEAXI@Z 0000000180003d18 f i ElectronicValueRW.obj
 0001:00002d70       ?AddReplacement@CRegObject@ATL@@UEAAJPEB_W0@Z 0000000180003d70 f i ElectronicValueRW.obj
 0001:00002da0       ?ClearReplacements@CRegObject@ATL@@UEAAJXZ 0000000180003da0 f i ElectronicValueRW.obj
 0001:00002dac       ??_GCRegObject@ATL@@UEAAPEAXI@Z 0000000180003dac f i ElectronicValueRW.obj
 0001:00002dac       ??_ECRegObject@ATL@@UEAAPEAXI@Z 0000000180003dac f i ElectronicValueRW.obj
 0001:00002e2c       ?Next@?$CComEnumImpl@UIEnumConnectionPoints@@$1?_GUID_b196b285_bab4_101a_b69c_00aa00341d07@@3U__s_GUID@@BPEAUIConnectionPoint@@V?$_CopyInterface@UIConnectionPoint@@@ATL@@@ATL@@UEAAJKPEAPEAUIConnectionPoint@@PEAK@Z 0000000180003e2c f i ElectronicValueRW.obj
 0001:00002ef8       ?Skip@?$CComEnumImpl@UIEnumConnectionPoints@@$1?_GUID_b196b285_bab4_101a_b69c_00aa00341d07@@3U__s_GUID@@BPEAUIConnectionPoint@@V?$_CopyInterface@UIConnectionPoint@@@ATL@@@ATL@@UEAAJK@Z 0000000180003ef8 f i ElectronicValueRW.obj
 0001:00002f24       ?Reset@?$CComEnumImpl@UIEnumConnectionPoints@@$1?_GUID_b196b285_bab4_101a_b69c_00aa00341d07@@3U__s_GUID@@BPEAUIConnectionPoint@@V?$_CopyInterface@UIConnectionPoint@@@ATL@@@ATL@@UEAAJXZ 0000000180003f24 f i ElectronicValueRW.obj
 0001:00002f24       ?Reset@?$CComEnumImpl@UIEnumConnections@@$1?_GUID_b196b287_bab4_101a_b69c_00aa00341d07@@3U__s_GUID@@BUtagCONNECTDATA@@V?$_Copy@UtagCONNECTDATA@@@ATL@@@ATL@@UEAAJXZ 0000000180003f24 f i ElectronicValueRW.obj
 0001:00002f30       ?Clone@?$CComEnumImpl@UIEnumConnectionPoints@@$1?_GUID_b196b285_bab4_101a_b69c_00aa00341d07@@3U__s_GUID@@BPEAUIConnectionPoint@@V?$_CopyInterface@UIConnectionPoint@@@ATL@@@ATL@@UEAAJPEAPEAUIEnumConnectionPoints@@@Z 0000000180003f30 f i ElectronicValueRW.obj
 0001:0000305c       ?AddRef@?$CComObject@V?$CComEnum@UIEnumConnections@@$1?_GUID_b196b287_bab4_101a_b69c_00aa00341d07@@3U__s_GUID@@BUtagCONNECTDATA@@V?$_Copy@UtagCONNECTDATA@@@ATL@@VCComSingleThreadModel@6@@ATL@@@ATL@@UEAAKXZ 000000018000405c f i ElectronicValueRW.obj
 0001:0000305c       ?AddRef@?$CComObject@V?$CComEnum@UIEnumConnectionPoints@@$1?_GUID_b196b285_bab4_101a_b69c_00aa00341d07@@3U__s_GUID@@BPEAUIConnectionPoint@@V?$_CopyInterface@UIConnectionPoint@@@ATL@@VCComSingleThreadModel@6@@ATL@@@ATL@@UEAAKXZ 000000018000405c f i ElectronicValueRW.obj
 0001:00003068       ?Release@?$CComObject@V?$CComEnum@UIEnumConnections@@$1?_GUID_b196b287_bab4_101a_b69c_00aa00341d07@@3U__s_GUID@@BUtagCONNECTDATA@@V?$_Copy@UtagCONNECTDATA@@@ATL@@VCComSingleThreadModel@6@@ATL@@@ATL@@UEAAKXZ 0000000180004068 f i ElectronicValueRW.obj
 0001:00003068       ?Release@?$CComObject@V?$CComEnum@UIEnumConnectionPoints@@$1?_GUID_b196b285_bab4_101a_b69c_00aa00341d07@@3U__s_GUID@@BPEAUIConnectionPoint@@V?$_CopyInterface@UIConnectionPoint@@@ATL@@VCComSingleThreadModel@6@@ATL@@@ATL@@UEAAKXZ 0000000180004068 f i ElectronicValueRW.obj
 0001:000030bc       ?QueryInterface@?$CComObject@V?$CComEnum@UIEnumConnectionPoints@@$1?_GUID_b196b285_bab4_101a_b69c_00aa00341d07@@3U__s_GUID@@BPEAUIConnectionPoint@@V?$_CopyInterface@UIConnectionPoint@@@ATL@@VCComSingleThreadModel@6@@ATL@@@ATL@@UEAAJAEBU_GUID@@PEAPEAX@Z 00000001800040bc f i ElectronicValueRW.obj
 0001:000030d0       ??_E?$CComObject@V?$CComEnum@UIEnumConnectionPoints@@$1?_GUID_b196b285_bab4_101a_b69c_00aa00341d07@@3U__s_GUID@@BPEAUIConnectionPoint@@V?$_CopyInterface@UIConnectionPoint@@@ATL@@VCComSingleThreadModel@6@@ATL@@@ATL@@UEAAPEAXI@Z 00000001800040d0 f i ElectronicValueRW.obj
 0001:000030d0       ??_G?$CComObject@V?$CComEnum@UIEnumConnectionPoints@@$1?_GUID_b196b285_bab4_101a_b69c_00aa00341d07@@3U__s_GUID@@BPEAUIConnectionPoint@@V?$_CopyInterface@UIConnectionPoint@@@ATL@@VCComSingleThreadModel@6@@ATL@@@ATL@@UEAAPEAXI@Z 00000001800040d0 f i ElectronicValueRW.obj
 0001:00003128       ?OnDrawAdvanced@CComControlBase@ATL@@UEAAJAEAUATL_DRAWINFO@@@Z 0000000180004128 f i ElectronicValueRW.obj
 0001:000032b4       ?AddRef@?$CComAggObject@VCOPOSElectronicValueRW@@@ATL@@UEAAKXZ 00000001800042b4 f i ElectronicValueRW.obj
 0001:000032c0       ?Release@?$CComAggObject@VCOPOSElectronicValueRW@@@ATL@@UEAAKXZ 00000001800042c0 f i ElectronicValueRW.obj
 0001:00003314       ?QueryInterface@?$CComAggObject@VCOPOSElectronicValueRW@@@ATL@@UEAAJAEBU_GUID@@PEAPEAX@Z 0000000180004314 f i ElectronicValueRW.obj
 0001:00003374       ?AddRef@?$CComContainedObject@VCOPOSElectronicValueRW@@@ATL@@UEAAKXZ 0000000180004374 f i ElectronicValueRW.obj
 0001:00003384       ?Release@?$CComContainedObject@VCOPOSElectronicValueRW@@@ATL@@UEAAKXZ 0000000180004384 f i ElectronicValueRW.obj
 0001:00003394       ?QueryInterface@?$CComContainedObject@VCOPOSElectronicValueRW@@@ATL@@UEAAJAEBU_GUID@@PEAPEAX@Z 0000000180004394 f i ElectronicValueRW.obj
 0001:000033a4       ??_G?$CComAggObject@VCOPOSElectronicValueRW@@@ATL@@UEAAPEAXI@Z 00000001800043a4 f i ElectronicValueRW.obj
 0001:000033a4       ??_E?$CComAggObject@VCOPOSElectronicValueRW@@@ATL@@UEAAPEAXI@Z 00000001800043a4 f i ElectronicValueRW.obj
 0001:000033fc       ?AddRef@?$CComObject@VCOPOSElectronicValueRW@@@ATL@@UEAAKXZ 00000001800043fc f i ElectronicValueRW.obj
 0001:0000340c       ?Release@?$CComObject@VCOPOSElectronicValueRW@@@ATL@@UEAAKXZ 000000018000440c f i ElectronicValueRW.obj
 0001:00003464       ?QueryInterface@?$CComObject@VCOPOSElectronicValueRW@@@ATL@@UEAAJAEBU_GUID@@PEAPEAX@Z 0000000180004464 f i ElectronicValueRW.obj
 0001:00003478       ?CreateInstance@CComClassFactory@ATL@@UEAAJPEAUIUnknown@@AEBU_GUID@@PEAPEAX@Z 0000000180004478 f i ElectronicValueRW.obj
 0001:000034d8       ?LockServer@CComClassFactory@ATL@@UEAAJH@Z 00000001800044d8 f i ElectronicValueRW.obj
 0001:000034fc       ?Next@?$CComEnumImpl@UIEnumConnections@@$1?_GUID_b196b287_bab4_101a_b69c_00aa00341d07@@3U__s_GUID@@BUtagCONNECTDATA@@V?$_Copy@UtagCONNECTDATA@@@ATL@@@ATL@@UEAAJKPEAUtagCONNECTDATA@@PEAK@Z 00000001800044fc f i ElectronicValueRW.obj
 0001:000035d0       ?Skip@?$CComEnumImpl@UIEnumConnections@@$1?_GUID_b196b287_bab4_101a_b69c_00aa00341d07@@3U__s_GUID@@BUtagCONNECTDATA@@V?$_Copy@UtagCONNECTDATA@@@ATL@@@ATL@@UEAAJK@Z 00000001800045d0 f i ElectronicValueRW.obj
 0001:000035fc       ?Clone@?$CComEnumImpl@UIEnumConnections@@$1?_GUID_b196b287_bab4_101a_b69c_00aa00341d07@@3U__s_GUID@@BUtagCONNECTDATA@@V?$_Copy@UtagCONNECTDATA@@@ATL@@@ATL@@UEAAJPEAPEAUIEnumConnections@@@Z 00000001800045fc f i ElectronicValueRW.obj
 0001:00003728       ??_ECComClassFactory@ATL@@UEAAPEAXI@Z 0000000180004728 f i ElectronicValueRW.obj
 0001:00003728       ??_GCComClassFactory@ATL@@UEAAPEAXI@Z 0000000180004728 f i ElectronicValueRW.obj
 0001:00003778       ?QueryInterface@?$CComObject@V?$CComEnum@UIEnumConnections@@$1?_GUID_b196b287_bab4_101a_b69c_00aa00341d07@@3U__s_GUID@@BUtagCONNECTDATA@@V?$_Copy@UtagCONNECTDATA@@@ATL@@VCComSingleThreadModel@6@@ATL@@@ATL@@UEAAJAEBU_GUID@@PEAPEAX@Z 0000000180004778 f i ElectronicValueRW.obj
 0001:0000378c       ??_E?$CComObject@V?$CComEnum@UIEnumConnections@@$1?_GUID_b196b287_bab4_101a_b69c_00aa00341d07@@3U__s_GUID@@BUtagCONNECTDATA@@V?$_Copy@UtagCONNECTDATA@@@ATL@@VCComSingleThreadModel@6@@ATL@@@ATL@@UEAAPEAXI@Z 000000018000478c f i ElectronicValueRW.obj
 0001:0000378c       ??_G?$CComObject@V?$CComEnum@UIEnumConnections@@$1?_GUID_b196b287_bab4_101a_b69c_00aa00341d07@@3U__s_GUID@@BUtagCONNECTDATA@@V?$_Copy@UtagCONNECTDATA@@@ATL@@VCComSingleThreadModel@6@@ATL@@@ATL@@UEAAPEAXI@Z 000000018000478c f i ElectronicValueRW.obj
 0001:000037e4       ??$AtlModuleRegisterWndClassInfoT@VAtlModuleRegisterWndClassInfoParamW@ATL@@@ATL@@YAGPEAU_ATL_BASE_MODULE70@0@PEAU_ATL_WIN_MODULE70@0@PEAU_ATL_WNDCLASSINFOW@0@PEAP6A_JPEAUHWND__@@I_K_J@ZVAtlModuleRegisterWndClassInfoParamW@0@@Z 00000001800047e4 f i ElectronicValueRW.obj
 0001:000039e4       ??0?$CComContainedObject@VCOPOSElectronicValueRW@@@ATL@@QEAA@PEAX@Z 00000001800049e4 f i ElectronicValueRW.obj
 0001:00003b00       ??0?$CComObject@VCOPOSElectronicValueRW@@@ATL@@QEAA@PEAX@Z 0000000180004b00 f i ElectronicValueRW.obj
 0001:00003c18       ??0CAtlModule@ATL@@QEAA@XZ 0000000180004c18 f i ElectronicValueRW.obj
 0001:00003c8c       ??1?$CComEnumImpl@UIEnumConnectionPoints@@$1?_GUID_b196b285_bab4_101a_b69c_00aa00341d07@@3U__s_GUID@@BPEAUIConnectionPoint@@V?$_CopyInterface@UIConnectionPoint@@@ATL@@@ATL@@UEAA@XZ 0000000180004c8c f i ElectronicValueRW.obj
 0001:00003ce8       ??1?$CComEnumImpl@UIEnumConnections@@$1?_GUID_b196b287_bab4_101a_b69c_00aa00341d07@@3U__s_GUID@@BUtagCONNECTDATA@@V?$_Copy@UtagCONNECTDATA@@@ATL@@@ATL@@UEAA@XZ 0000000180004ce8 f i ElectronicValueRW.obj
 0001:00003d44       ??1?$CComObject@VCOPOSElectronicValueRW@@@ATL@@UEAA@XZ 0000000180004d44 f i ElectronicValueRW.obj
 0001:00003e64       ??_G?$CComContainedObject@VCOPOSElectronicValueRW@@@ATL@@UEAAPEAXI@Z 0000000180004e64 f i ElectronicValueRW.obj
 0001:00003e64       ??_E?$CComContainedObject@VCOPOSElectronicValueRW@@@ATL@@UEAAPEAXI@Z 0000000180004e64 f i ElectronicValueRW.obj
 0001:00003e98       ??_E?$CComObject@VCOPOSElectronicValueRW@@@ATL@@UEAAPEAXI@Z 0000000180004e98 f i ElectronicValueRW.obj
 0001:00003e98       ??_G?$CComObject@VCOPOSElectronicValueRW@@@ATL@@UEAAPEAXI@Z 0000000180004e98 f i ElectronicValueRW.obj
 0001:00003ecc       ?Add@?$CSimpleArray@GV?$CSimpleArrayEqualHelper@G@ATL@@@ATL@@QEAAHAEBG@Z 0000000180004ecc f i ElectronicValueRW.obj
 0001:00003f80       ?Add@?$CSimpleMap@PEA_WPEA_WVCExpansionVectorEqualHelper@ATL@@@ATL@@QEAAHAEBQEA_W0@Z 0000000180004f80 f i ElectronicValueRW.obj
 0001:00004020       ?Add@CComDynamicUnkArray@ATL@@QEAAKPEAUIUnknown@@@Z 0000000180005020 f i ElectronicValueRW.obj
 0001:0000410c       ?Add@CExpansionVector@ATL@@QEAAHPEB_W0@Z 000000018000510c f i ElectronicValueRW.obj
 0001:00004240       ?AddTermFunc@CAtlModule@ATL@@QEAAJP6AX_K@Z0@Z 0000000180005240 f i ElectronicValueRW.obj
 0001:000042dc       ?AddValue@CRegParser@ATL@@IEAAJAEAVCRegKey@2@PEB_WPEA_W@Z 00000001800052dc f i ElectronicValueRW.obj
 0001:00004724       ?AllocateHeap@?$CTempBuffer@_W$0BAA@VCCRTAllocator@ATL@@@ATL@@AEAAX_K@Z 0000000180005724 f i ElectronicValueRW.obj
 0001:00004724       ?AllocateHeap@?$CTempBuffer@_W$0EAA@VCCRTAllocator@ATL@@@ATL@@AEAAX_K@Z 0000000180005724 f i ElectronicValueRW.obj
 0001:00004724       ?AllocateHeap@?$CTempBuffer@E$0BAA@VCCRTAllocator@ATL@@@ATL@@AEAAX_K@Z 0000000180005724 f i ElectronicValueRW.obj
 0001:00004750       ?Append@CParseBuffer@CRegParser@ATL@@QEAAHPEB_WH@Z 0000000180005750 f i ElectronicValueRW.obj
 0001:00004898       ?AtlComModuleGetClassObject@ATL@@YAJPEAU_ATL_COM_MODULE70@1@AEBU_GUID@@1PEAPEAX@Z 0000000180005898 f i ElectronicValueRW.obj
 0001:000049d8       ?AtlComModuleRegisterServer@ATL@@YAJPEAU_ATL_COM_MODULE70@1@HPEBU_GUID@@@Z 00000001800059d8 f i ElectronicValueRW.obj
 0001:00004a98       ?AtlComModuleUnregisterServer@ATL@@YAJPEAU_ATL_COM_MODULE70@1@HPEBU_GUID@@@Z 0000000180005a98 f i ElectronicValueRW.obj
 0001:00004b54       ?AtlHiMetricToPixel@ATL@@YAXPEBUtagSIZE@@PEAU2@@Z 0000000180005b54 f i ElectronicValueRW.obj
 0001:00004c04       ?AtlHresultFromLastError@ATL@@YAJXZ 0000000180005c04 f i ElectronicValueRW.obj
 0001:00004c24       ?AtlHresultFromWin32@ATL@@YAJK@Z 0000000180005c24 f i ElectronicValueRW.obj
 0001:00004c34       ?AtlInternalOleLoadFromStream@ATL@@YAJPEAUIStream@@AEBU_GUID@@PEAPEAXTClassesAllowedInStream@1@K@Z 0000000180005c34 f i ElectronicValueRW.obj
 0001:00004d78       ?AtlInternalQueryInterface@ATL@@YAJPEAXPEBU_ATL_INTMAP_ENTRY@1@AEBU_GUID@@PEAPEAX@Z 0000000180005d78 f i ElectronicValueRW.obj
 0001:00004e80       ?AtlLoadTypeLib@ATL@@YAJPEAUHINSTANCE__@@PEB_WPEAPEA_WPEAPEAUITypeLib@@@Z 0000000180005e80 f i ElectronicValueRW.obj
 0001:000050dc       ?AtlRegisterClassCategoriesHelper@ATL@@YAJAEBU_GUID@@PEBU_ATL_CATMAP_ENTRY@1@H@Z 00000001800060dc f i ElectronicValueRW.obj
 0001:00005560       ?AtlRegisterTypeLib@ATL@@YAJPEAUHINSTANCE__@@PEB_W@Z 0000000180006560 f i ElectronicValueRW.obj
 0001:0000575c       ?AtlThrowImpl@ATL@@YAXJ@Z  000000018000675c f i ElectronicValueRW.obj
 0001:00005780       ?AtlUnRegisterTypeLib@ATL@@YAJPEAUHINSTANCE__@@PEB_W@Z 0000000180006780 f i ElectronicValueRW.obj
 0001:00005848       ?AtlWinModuleExtractCreateWndData@ATL@@YAPEAXPEAU_ATL_WIN_MODULE70@1@@Z 0000000180006848 f i ElectronicValueRW.obj
 0001:000058d4       ?Cleanup@CComTypeInfoHolder@ATL@@SAX_K@Z 00000001800068d4 f i ElectronicValueRW.obj
 0001:00005914       ?ClearReplacements@CExpansionVector@ATL@@QEAAJXZ 0000000180006914 f i ElectronicValueRW.obj
 0001:000059b0       ?CreateInstance@?$CComCreator@V?$CComAggObject@VCOPOSElectronicValueRW@@@ATL@@@ATL@@SAJPEAXAEBU_GUID@@PEAPEAX@Z 00000001800069b0 f i ElectronicValueRW.obj
 0001:00005a94       ?CreateInstance@?$CComCreator@V?$CComObject@VCOPOSElectronicValueRW@@@ATL@@@ATL@@SAJPEAXAEBU_GUID@@PEAPEAX@Z 0000000180006a94 f i ElectronicValueRW.obj
 0001:00005b48       ?CreateInstance@?$CComObject@V?$CComEnum@UIEnumConnectionPoints@@$1?_GUID_b196b285_bab4_101a_b69c_00aa00341d07@@3U__s_GUID@@BPEAUIConnectionPoint@@V?$_CopyInterface@UIConnectionPoint@@@ATL@@VCComSingleThreadModel@6@@ATL@@@ATL@@SAJPEAPEAV12@@Z 0000000180006b48 f i ElectronicValueRW.obj
 0001:00005bd8       ?CreateInstance@?$CComObject@V?$CComEnum@UIEnumConnections@@$1?_GUID_b196b287_bab4_101a_b69c_00aa00341d07@@3U__s_GUID@@BUtagCONNECTDATA@@V?$_Copy@UtagCONNECTDATA@@@ATL@@VCComSingleThreadModel@6@@ATL@@@ATL@@SAJPEAPEAV12@@Z 0000000180006bd8 f i ElectronicValueRW.obj
 0001:00005c68       ?DefaultReflectionHandler@?$CWindowImplRoot@VCWindow@ATL@@@ATL@@SAHPEAUHWND__@@I_K_JAEA_J@Z 0000000180006c68 f i ElectronicValueRW.obj
 0001:00005ccc       ?DeleteSubKey@CRegKey@ATL@@QEAAJPEB_W@Z 0000000180006ccc f i ElectronicValueRW.obj
 0001:00005d64       ?DoEvent@COPOSElectronicValueRW@@IEAAXI_K_J@Z 0000000180006d64 f i ElectronicValueRW.obj
 0001:00005e18       ?DoVerbPrimary@?$IOleObjectImpl@VCOPOSElectronicValueRW@@@ATL@@QEAAJPEBUtagRECT@@PEAUHWND__@@@Z 0000000180006e18 f i ElectronicValueRW.obj
 0001:00005f44       ?DoVerbProperties@CComControlBase@ATL@@QEAAJPEBUtagRECT@@PEAUHWND__@@@Z 0000000180006f44 f i ElectronicValueRW.obj
 0001:0000616c       ?FireTheEvent@?$CProxy_IOPOSEvents@VCOPOSElectronicValueRW@@@@IEAAXPEAVOposVariant@@IAEAJPEB_WJ@Z 000000018000716c f i ElectronicValueRW.obj
 0001:00006258       ?FireViewChange@CComControlBase@ATL@@QEAAJXZ 0000000180007258 f i ElectronicValueRW.obj
 0001:000062bc       ?Fire_DataEvent@?$CProxy_IOPOSEvents@VCOPOSElectronicValueRW@@@@QEAAXJ@Z 00000001800072bc f i ElectronicValueRW.obj
 0001:000063a8       ?Fire_DirectIOEvent@?$CProxy_IOPOSEvents@VCOPOSElectronicValueRW@@@@QEAAXJPEAJPEAPEA_W@Z 00000001800073a8 f i ElectronicValueRW.obj
 0001:00006508       ?Fire_ErrorEvent@?$CProxy_IOPOSEvents@VCOPOSElectronicValueRW@@@@QEAAXJJJPEAJ@Z 0000000180007508 f i ElectronicValueRW.obj
 0001:0000667c       ?Fire_OutputCompleteEvent@?$CProxy_IOPOSEvents@VCOPOSElectronicValueRW@@@@QEAAXJ@Z 000000018000767c f i ElectronicValueRW.obj
 0001:00006768       ?Fire_StatusUpdateEvent@?$CProxy_IOPOSEvents@VCOPOSElectronicValueRW@@@@QEAAXJ@Z 0000000180007768 f i ElectronicValueRW.obj
 0001:00006854       ?Fire_TransitionEvent@?$CProxy_IOPOSEvents@VCOPOSElectronicValueRW@@@@QEAAXJPEAJPEAPEA_W@Z 0000000180007854 f i ElectronicValueRW.obj
 0001:000069b4       ?FreeHeap@?$CTempBuffer@_W$0EAA@VCCRTAllocator@ATL@@@ATL@@AEAAXXZ 00000001800079b4 f i ElectronicValueRW.obj
 0001:000069b4       ?FreeHeap@?$CTempBuffer@_W$0BAA@VCCRTAllocator@ATL@@@ATL@@AEAAXXZ 00000001800079b4 f i ElectronicValueRW.obj
 0001:000069b4       ?FreeHeap@?$CTempBuffer@E$0BAA@VCCRTAllocator@ATL@@@ATL@@AEAAXXZ 00000001800079b4 f i ElectronicValueRW.obj
 0001:000069bc       ?GetAmbientLocaleID@CComControlBase@ATL@@QEAAJAEAK@Z 00000001800079bc f i ElectronicValueRW.obj
 0001:00006a7c       ?GetAmbientUserMode@CComControlBase@ATL@@QEAAJAEAH@Z 0000000180007a7c f i ElectronicValueRW.obj
 0001:00006b4c       ?GetClassObject@CComModule@ATL@@QEAAJAEBU_GUID@@0PEAPEAX@Z 0000000180007b4c f i ElectronicValueRW.obj
 0001:00006c40       ?GetConnMap@COPOSElectronicValueRW@@SAPEBU_ATL_CONNMAP_ENTRY@ATL@@PEAH@Z 0000000180007c40 f i ElectronicValueRW.obj
 0001:00006cc8       ?GetIDsOfNames@CComTypeInfoHolder@ATL@@QEAAJAEBU_GUID@@PEAPEA_WIKPEAJ@Z 0000000180007cc8 f i ElectronicValueRW.obj
 0001:00006e40       ?GetPagesHelper@?$ISpecifyPropertyPagesImpl@VCOPOSElectronicValueRW@@@ATL@@IEAAJPEAUtagCAUUID@@PEBUATL_PROPMAP_ENTRY@2@@Z 0000000180007e40 f i ElectronicValueRW.obj
 0001:00006fe0       ?GetSizeMax@CComVariant@ATL@@QEBAJPEAT_ULARGE_INTEGER@@@Z 0000000180007fe0 f i ElectronicValueRW.obj
 0001:00007210       ?GetTI@CComTypeInfoHolder@ATL@@QEAAJK@Z 0000000180008210 f i ElectronicValueRW.obj
 0001:000074f8       ?GetZoomInfo@CComControlBase@ATL@@QEAAXAEAUATL_DRAWINFO@@@Z 00000001800084f8 f i ElectronicValueRW.obj
 0001:0000759c       ?HKeyFromString@CRegParser@ATL@@KAPEAUHKEY__@@PEA_W@Z 000000018000859c f i ElectronicValueRW.obj
 0001:00007600       ?IDataObject_GetData@CComControlBase@ATL@@QEAAJPEAUtagFORMATETC@@PEAUtagSTGMEDIUM@@@Z 0000000180008600 f i ElectronicValueRW.obj
 0001:000077f4       ?IOleInPlaceObject_InPlaceDeactivate@CComControlBase@ATL@@QEAAJXZ 00000001800087f4 f i ElectronicValueRW.obj
 0001:00007894       ?IOleInPlaceObject_SetObjectRects@CComControlBase@ATL@@QEAAJPEBUtagRECT@@0@Z 0000000180008894 f i ElectronicValueRW.obj
 0001:00007984       ?IOleInPlaceObject_UIDeactivate@CComControlBase@ATL@@QEAAJXZ 0000000180008984 f i ElectronicValueRW.obj
 0001:00007a90       ?IOleObject_Close@CComControlBase@ATL@@QEAAJK@Z 0000000180008a90 f i ElectronicValueRW.obj
 0001:00007ba8       ?IOleObject_SetClientSite@CComControlBase@ATL@@QEAAJPEAUIOleClientSite@@@Z 0000000180008ba8 f i ElectronicValueRW.obj
 0001:00007c20       ?IOleObject_SetExtent@CComControlBase@ATL@@QEAAJKPEAUtagSIZE@@@Z 0000000180008c20 f i ElectronicValueRW.obj
 0001:00007cb8       ?IPSI_GetIPersistStreamInit@?$IPersistStorageImpl@VCOPOSElectronicValueRW@@@ATL@@AEAAPEAUIPersistStreamInit@@XZ 0000000180008cb8 f i ElectronicValueRW.obj
 0001:00007da0       ?IPersistStreamInit_Load@?$IPersistStreamInitImpl@VCOPOSElectronicValueRW@@@ATL@@QEAAJPEAUIStream@@PEBUATL_PROPMAP_ENTRY@2@@Z 0000000180008da0 f i ElectronicValueRW.obj
 0001:000080cc       ?IPersistStreamInit_Save@?$IPersistStreamInitImpl@VCOPOSElectronicValueRW@@@ATL@@QEAAJPEAUIStream@@HPEBUATL_PROPMAP_ENTRY@2@@Z 00000001800090cc f i ElectronicValueRW.obj
 0001:0000836c       ?IQuickActivate_QuickActivate@CComControlBase@ATL@@QEAAJPEAUtagQACONTAINER@@PEAUtagQACONTROL@@@Z 000000018000936c f i ElectronicValueRW.obj
 0001:00008630       ?IViewObject_Draw@CComControlBase@ATL@@QEAAJKJPEAXPEAUtagDVTARGETDEVICE@@PEAUHDC__@@2PEBU_RECTL@@3@Z 0000000180009630 f i ElectronicValueRW.obj
 0001:00008744       ?InPlaceActivate@CComControlBase@ATL@@QEAAJJPEBUtagRECT@@@Z 0000000180009744 f i ElectronicValueRW.obj
 0001:00008a78       ?Init@?$CComEnumImpl@UIEnumConnectionPoints@@$1?_GUID_b196b285_bab4_101a_b69c_00aa00341d07@@3U__s_GUID@@BPEAUIConnectionPoint@@V?$_CopyInterface@UIConnectionPoint@@@ATL@@@ATL@@QEAAJPEAPEAUIConnectionPoint@@0PEAUIUnknown@@W4CComEnumFlags@2@@Z 0000000180009a78 f i ElectronicValueRW.obj
 0001:00008b98       ?Init@?$CComEnumImpl@UIEnumConnections@@$1?_GUID_b196b287_bab4_101a_b69c_00aa00341d07@@3U__s_GUID@@BUtagCONNECTDATA@@V?$_Copy@UtagCONNECTDATA@@@ATL@@@ATL@@QEAAJPEAUtagCONNECTDATA@@0PEAUIUnknown@@W4CComEnumFlags@2@@Z 0000000180009b98 f i ElectronicValueRW.obj
 0001:00008cbc       ?IsEqualObject@?$CComPtrBase@UIOleClientSite@@@ATL@@QEAA_NPEAUIUnknown@@@Z 0000000180009cbc f i ElectronicValueRW.obj
 0001:00008d48       ?LoadNameCache@CComTypeInfoHolder@ATL@@QEAAJPEAUITypeInfo@@@Z 0000000180009d48 f i ElectronicValueRW.obj
 0001:00008ec8       ?Lookup@?$CSimpleMap@PEA_WPEA_WVCExpansionVectorEqualHelper@ATL@@@ATL@@QEBAPEA_WAEBQEA_W@Z 0000000180009ec8 f i ElectronicValueRW.obj
 0001:00008f50       ?NextToken@CRegParser@ATL@@IEAAJPEA_W@Z 0000000180009f50 f i ElectronicValueRW.obj
 0001:00009108       ?OnKillFocus@CComControlBase@ATL@@QEAA_JI_K_JAEAH@Z 000000018000a108 f i ElectronicValueRW.obj
 0001:000091a4       ?OnMouseActivate@CComControlBase@ATL@@QEAA_JI_K_JAEAH@Z 000000018000a1a4 f i ElectronicValueRW.obj
 0001:00009244       ?OnPaint@CComControlBase@ATL@@QEAA_JI_K_JAEAH@Z 000000018000a244 f i ElectronicValueRW.obj
 0001:00009330       ?OnSetFocus@CComControlBase@ATL@@QEAA_JI_K_JAEAH@Z 000000018000a330 f i ElectronicValueRW.obj
 0001:0000942c       ?PreProcessBuffer@CRegParser@ATL@@QEAAJPEA_WPEAPEA_W@Z 000000018000a42c f i ElectronicValueRW.obj
 0001:000097b8       ?ProcessWindowMessage@?$CComControl@VCOPOSElectronicValueRW@@V?$CWindowImpl@VCOPOSElectronicValueRW@@VCWindow@ATL@@V?$CWinTraits@$0FGAAAAAA@$0A@@3@@ATL@@@ATL@@UEAAHPEAUHWND__@@I_K_JAEA_JK@Z 000000018000a7b8 f i ElectronicValueRW.obj
 0001:0000989c       ?ReadFromStream@CComBSTR@ATL@@QEAAJPEAUIStream@@@Z 000000018000a89c f i ElectronicValueRW.obj
 0001:000099ec       ?ReadFromStream@CComVariant@ATL@@QEAAJPEAUIStream@@GTClassesAllowedInStream@2@K@Z 000000018000a9ec f i ElectronicValueRW.obj
 0001:00009c10       ?RecurseDeleteKey@CRegKey@ATL@@QEAAJPEB_W@Z 000000018000ac10 f i ElectronicValueRW.obj
 0001:00009d68       ?RegCreateKeyExW@CAtlTransactionManager@ATL@@QEAAJPEAUHKEY__@@PEB_WKPEA_WKKQEAU_SECURITY_ATTRIBUTES@@PEAPEAU3@PEAK@Z 000000018000ad68 f i ElectronicValueRW.obj
 0001:00009e9c       ?RegDeleteKeyW@CAtlTransactionManager@ATL@@QEAAJPEAUHKEY__@@PEB_W@Z 000000018000ae9c f i ElectronicValueRW.obj
 0001:00009f28       ?RegOpenKeyExW@CAtlTransactionManager@ATL@@QEAAJPEAUHKEY__@@PEB_WKKPEAPEAU3@@Z 000000018000af28 f i ElectronicValueRW.obj
 0001:00009fe0       ?RegisterBuffer@CRegParser@ATL@@QEAAJPEA_WH@Z 000000018000afe0 f i ElectronicValueRW.obj
 0001:0000a148       ?RegisterFromResource@CRegObject@ATL@@IEAAJPEB_W00H@Z 000000018000b148 f i ElectronicValueRW.obj
 0001:0000a304       ?RegisterServer@CComModule@ATL@@QEAAJHPEBU_GUID@@@Z 000000018000b304 f i ElectronicValueRW.obj
 0001:0000a3c4       ?RegisterSubkeys@CRegParser@ATL@@IEAAJPEA_WPEAUHKEY__@@HH@Z 000000018000b3c4 f i ElectronicValueRW.obj
 0001:0000ac30       ?SendOnDataChange@CComControlBase@ATL@@QEAAJK@Z 000000018000bc30 f i ElectronicValueRW.obj
 0001:0000aca0       ?SetControlFocus@CComControlBase@ATL@@QEAAHH@Z 000000018000bca0 f i ElectronicValueRW.obj
 0001:0000ad7c       ?SkipAssignment@CRegParser@ATL@@IEAAJPEA_W@Z 000000018000bd7c f i ElectronicValueRW.obj
 0001:0000ae20       ?Term@CAtlModule@ATL@@QEAAXXZ 000000018000be20 f i ElectronicValueRW.obj
 0001:0000aea0       ?Term@CComModule@ATL@@QEAAXXZ 000000018000bea0 f i ElectronicValueRW.obj
 0001:0000af1c       ?UnregisterServer@CComModule@ATL@@QEAAJHPEBU_GUID@@@Z 000000018000bf1c f i ElectronicValueRW.obj
 0001:0000afcc       ?UpdateRegistryFromResource@CAtlModule@ATL@@QEAAJIHPEAU_ATL_REGMAP_ENTRY@2@@Z 000000018000bfcc f i ElectronicValueRW.obj
 0001:0000b2d8       ?UpdateRegistryFromResource@CAtlModule@ATL@@QEAAJPEB_WHPEAU_ATL_REGMAP_ENTRY@2@@Z 000000018000c2d8 f i ElectronicValueRW.obj
 0001:0000b5fc       ?VTFromRegType@CRegParser@ATL@@KAHPEB_WAEAG@Z 000000018000c5fc f i ElectronicValueRW.obj
 0001:0000b698       ?WindowProc@?$CWindowImplBaseT@VCWindow@ATL@@V?$CWinTraits@$0FGAAAAAA@$0A@@2@@ATL@@SA_JPEAUHWND__@@I_K_J@Z 000000018000c698 f i ElectronicValueRW.obj
 0001:0000b804       ?WriteToStream@CComVariant@ATL@@QEAAJPEAUIStream@@@Z 000000018000c804 f i ElectronicValueRW.obj
 0001:0000ba80       ?WriteToStream@CComVariant@ATL@@QEAAJPEAUIStream@@G@Z 000000018000ca80 f i ElectronicValueRW.obj
 0001:0000bb18       ?_AtlVerifyStackAvailable@_ATL_SAFE_ALLOCA_IMPL@ATL@@YA_N_K@Z 000000018000cb18 f i ElectronicValueRW.obj
 0001:0000bb9c       ?atlCreate@?$CWindowImpl@VCOPOSElectronicValueRW@@VCWindow@ATL@@V?$CWinTraits@$0FGAAAAAA@$0A@@3@@ATL@@QEAAPEAUHWND__@@PEAU3@V_U_RECT@2@PEB_WKKV_U_MENUorID@2@PEAX@Z 000000018000cb9c f i ElectronicValueRW.obj
 0001:0000bc50       ?atlCreate@?$CWindowImplBaseT@VCWindow@ATL@@V?$CWinTraits@$0FGAAAAAA@$0A@@2@@ATL@@QEAAPEAUHWND__@@PEAU3@V_U_RECT@2@PEB_WKKV_U_MENUorID@2@GPEAX@Z 000000018000cc50 f i ElectronicValueRW.obj
 0001:0000bdc0       ?ocscpy_s@@YA_NPEA_W_KPEB_W@Z 000000018000cdc0 f i ElectronicValueRW.obj
 0001:0000be70       DllCanUnloadNow            000000018000ce70 f   ElectronicValueRW.obj
 0001:0000be7c       DllGetClassObject          000000018000ce7c f   ElectronicValueRW.obj
 0001:0000be94       DllMain                    000000018000ce94 f   ElectronicValueRW.obj
 0001:0000bf3c       DllRegisterServer          000000018000cf3c f   ElectronicValueRW.obj
 0001:0000bf50       DllUnregisterServer        000000018000cf50 f   ElectronicValueRW.obj
 0001:0000bf64       __local_stdio_printf_options 000000018000cf64 f i ElectronicValueRW.obj
 0001:0000bf6c       swprintf_s                 000000018000cf6c f i ElectronicValueRW.obj
 0001:0000bfc0       ??0COPOSElectronicValueRW@@QEAA@XZ 000000018000cfc0 f   ElectronicValueRWImpl.obj
 0001:0000c094       ??1?$IConnectionPointImpl@VCOPOSElectronicValueRW@@$1?DIID__IOPOSElectronicValueRWEvents@@3U_GUID@@BVCComDynamicUnkArray@ATL@@@ATL@@QEAA@XZ 000000018000d094 f i ElectronicValueRWImpl.obj
 0001:0000c094       ??1?$IConnectionPointImpl@VCOPOSElectronicValueRW@@$1?IID_IPropertyNotifySink@@3U_GUID@@BVCComDynamicUnkArray@ATL@@@ATL@@QEAA@XZ 000000018000d094 f i ElectronicValueRWImpl.obj
 0001:0000c0f0       ??1CComControlBase@ATL@@UEAA@XZ 000000018000d0f0 f i ElectronicValueRWImpl.obj
 0001:0000c16c       ??1COPOSElectronicValueRW@@UEAA@XZ 000000018000d16c f   ElectronicValueRWImpl.obj
 0001:0000c1d0       ?AccessDailyLog@COPOSElectronicValueRW@@UEAAJJJJPEAJ@Z 000000018000d1d0 f   ElectronicValueRWImpl.obj
 0001:0000c2b8       ?AccessData@COPOSElectronicValueRW@@UEAAJJPEAJPEAPEA_W0@Z 000000018000d2b8 f   ElectronicValueRWImpl.obj
 0001:0000c3b4       ?AccessLog@COPOSElectronicValueRW@@UEAAJJJJPEAJ@Z 000000018000d3b4 f   ElectronicValueRWImpl.obj
 0001:0000c49c       ?ActivateEVService@COPOSElectronicValueRW@@UEAAJPEAJPEAPEA_W0@Z 000000018000d49c f   ElectronicValueRWImpl.obj
 0001:0000c578       ?ActivateService@COPOSElectronicValueRW@@UEAAJPEAJPEAPEA_W0@Z 000000018000d578 f   ElectronicValueRWImpl.obj
 0001:0000c654       ?AddValue@COPOSElectronicValueRW@@UEAAJJJPEAJ@Z 000000018000d654 f   ElectronicValueRWImpl.obj
 0001:0000c720       ?AuthorizeCompletion@COPOSElectronicValueRW@@UEAAJJTtagCY@@0JPEAJ@Z 000000018000d720 f   ElectronicValueRWImpl.obj
 0001:0000c820       ?AuthorizePreSales@COPOSElectronicValueRW@@UEAAJJTtagCY@@0JPEAJ@Z 000000018000d820 f   ElectronicValueRWImpl.obj
 0001:0000c920       ?AuthorizeRefund@COPOSElectronicValueRW@@UEAAJJTtagCY@@0JPEAJ@Z 000000018000d920 f   ElectronicValueRWImpl.obj
 0001:0000ca20       ?AuthorizeSales@COPOSElectronicValueRW@@UEAAJJTtagCY@@0JPEAJ@Z 000000018000da20 f   ElectronicValueRWImpl.obj
 0001:0000cb20       ?AuthorizeVoid@COPOSElectronicValueRW@@UEAAJJTtagCY@@0JPEAJ@Z 000000018000db20 f   ElectronicValueRWImpl.obj
 0001:0000cc20       ?AuthorizeVoidPreSales@COPOSElectronicValueRW@@UEAAJJTtagCY@@0JPEAJ@Z 000000018000dc20 f   ElectronicValueRWImpl.obj
 0001:0000cd20       ?BeginDetection@COPOSElectronicValueRW@@UEAAJJJPEAJ@Z 000000018000dd20 f   ElectronicValueRWImpl.obj
 0001:0000cdec       ?BeginRemoval@COPOSElectronicValueRW@@UEAAJJPEAJ@Z 000000018000ddec f   ElectronicValueRWImpl.obj
 0001:0000ce68       ?CancelValue@COPOSElectronicValueRW@@UEAAJJJPEAJ@Z 000000018000de68 f   ElectronicValueRWImpl.obj
 0001:0000cf34       ?CaptureCard@COPOSElectronicValueRW@@UEAAJPEAJ@Z 000000018000df34 f   ElectronicValueRWImpl.obj
 0001:0000cf5c       ?CashDeposit@COPOSElectronicValueRW@@UEAAJJTtagCY@@JPEAJ@Z 000000018000df5c f   ElectronicValueRWImpl.obj
 0001:0000d048       ?CheckCard@COPOSElectronicValueRW@@UEAAJJJPEAJ@Z 000000018000e048 f   ElectronicValueRWImpl.obj
 0001:0000d114       ?CheckHealth@COPOSElectronicValueRW@@UEAAJJPEAJ@Z 000000018000e114 f   ElectronicValueRWImpl.obj
 0001:0000d190       ?CheckServiceRegistrationToMedium@COPOSElectronicValueRW@@UEAAJJJPEAJ@Z 000000018000e190 f   ElectronicValueRWImpl.obj
 0001:0000d25c       ?ClaimDevice@COPOSElectronicValueRW@@UEAAJJPEAJ@Z 000000018000e25c f   ElectronicValueRWImpl.obj
 0001:0000d2fc       ?ClearInput@COPOSElectronicValueRW@@UEAAJPEAJ@Z 000000018000e2fc f   ElectronicValueRWImpl.obj
 0001:0000d324       ?ClearInputProperties@COPOSElectronicValueRW@@UEAAJPEAJ@Z 000000018000e324 f   ElectronicValueRWImpl.obj
 0001:0000d34c       ?ClearOutput@COPOSElectronicValueRW@@UEAAJPEAJ@Z 000000018000e34c f   ElectronicValueRWImpl.obj
 0001:0000d374       ?ClearParameterInformation@COPOSElectronicValueRW@@UEAAJPEAJ@Z 000000018000e374 f   ElectronicValueRWImpl.obj
 0001:0000d39c       ?Close@COPOSElectronicValueRW@@UEAAJPEAJ@Z 000000018000e39c f   ElectronicValueRWImpl.obj
 0001:0000d454       ?CloseDailyEVService@COPOSElectronicValueRW@@UEAAJPEAJPEAPEA_W0@Z 000000018000e454 f   ElectronicValueRWImpl.obj
 0001:0000d530       ?CompareFirmwareVersion@COPOSElectronicValueRW@@UEAAJPEA_WPEAJ1@Z 000000018000e530 f   ElectronicValueRWImpl.obj
 0001:0000d60c       ?DeactivateEVService@COPOSElectronicValueRW@@UEAAJPEAJPEAPEA_W0@Z 000000018000e60c f   ElectronicValueRWImpl.obj
 0001:0000d6e8       ?DirectIO@COPOSElectronicValueRW@@UEAAJJPEAJPEAPEA_W0@Z 000000018000e6e8 f   ElectronicValueRWImpl.obj
 0001:0000d7e4       ?DoInvoke@COPOSElectronicValueRW@@IEAAJJPEAVOposVariant@@IHPEAJ_N@Z 000000018000e7e4 f   ElectronicValueRWImpl.obj
 0001:0000d918       ?EndDetection@COPOSElectronicValueRW@@UEAAJPEAJ@Z 000000018000e918 f   ElectronicValueRWImpl.obj
 0001:0000d940       ?EndRemoval@COPOSElectronicValueRW@@UEAAJPEAJ@Z 000000018000e940 f   ElectronicValueRWImpl.obj
 0001:0000d968       ?EnumerateCardServices@COPOSElectronicValueRW@@UEAAJPEAJ@Z 000000018000e968 f   ElectronicValueRWImpl.obj
 0001:0000d990       ?EventInit@COPOSElectronicValueRW@@IEAAJXZ 000000018000e990 f i ElectronicValueRWImpl.obj
 0001:0000dad8       ?EventUninit@COPOSElectronicValueRW@@IEAAXXZ 000000018000ead8 f i ElectronicValueRWImpl.obj
 0001:0000db3c       ?EventWindowProc@COPOSElectronicValueRW@@IEAA_JI_K_J@Z 000000018000eb3c f i ElectronicValueRWImpl.obj
 0001:0000dd54       ?FinalConstruct@COPOSElectronicValueRW@@QEAAJXZ 000000018000ed54 f   ElectronicValueRWImpl.obj
 0001:0000dd90       ?FreezeEvents@COPOSElectronicValueRW@@MEAAJH@Z 000000018000ed90 f   ElectronicValueRWImpl.obj
 0001:0000de04       ?GetOposProp@COPOSElectronicValueRW@@IEAAJJPEAJJ@Z 000000018000ee04 f   ElectronicValueRWImpl.obj
 0001:0000df20       ?GetOposProp@COPOSElectronicValueRW@@IEAAJJPEAPEA_WJ@Z 000000018000ef20 f   ElectronicValueRWImpl.obj
 0001:0000e04c       ?LockTerminal@COPOSElectronicValueRW@@UEAAJPEAJ@Z 000000018000f04c f   ElectronicValueRWImpl.obj
 0001:0000e074       ?OnDraw@COPOSElectronicValueRW@@MEAAJAEAUATL_DRAWINFO@@@Z 000000018000f074 f   ElectronicValueRWImpl.obj
 0001:0000e160       ?Open@COPOSElectronicValueRW@@UEAAJPEA_WPEAJ@Z 000000018000f160 f   ElectronicValueRWImpl.obj
 0001:0000ea04       ?OpenDailyEVService@COPOSElectronicValueRW@@UEAAJPEAJPEAPEA_W0@Z 000000018000fa04 f   ElectronicValueRWImpl.obj
 0001:0000eae0       ?QueryLastSuccessfulTransactionResult@COPOSElectronicValueRW@@UEAAJPEAJ@Z 000000018000fae0 f   ElectronicValueRWImpl.obj
 0001:0000eb08       ?ReadValue@COPOSElectronicValueRW@@UEAAJJJPEAJ@Z 000000018000fb08 f   ElectronicValueRWImpl.obj
 0001:0000ebd4       ?RegisterServiceToMedium@COPOSElectronicValueRW@@UEAAJJJPEAJ@Z 000000018000fbd4 f   ElectronicValueRWImpl.obj
 0001:0000eca0       ?ReleaseDevice@COPOSElectronicValueRW@@UEAAJPEAJ@Z 000000018000fca0 f   ElectronicValueRWImpl.obj
 0001:0000ed0c       ?ResetStatistics@COPOSElectronicValueRW@@UEAAJPEA_WPEAJ@Z 000000018000fd0c f   ElectronicValueRWImpl.obj
 0001:0000ed94       ?RetrieveResultInformation@COPOSElectronicValueRW@@UEAAJPEA_WPEAPEA_WPEAJ@Z 000000018000fd94 f   ElectronicValueRWImpl.obj
 0001:0000ee70       ?RetrieveStatistics@COPOSElectronicValueRW@@UEAAJPEAPEA_WPEAJ@Z 000000018000fe70 f   ElectronicValueRWImpl.obj
 0001:0000eef8       ?SOProcessID@COPOSElectronicValueRW@@UEAAJPEAJ@Z 000000018000fef8 f   ElectronicValueRWImpl.obj
 0001:0000ef14       ?SetCOFreezeEvents@COPOSElectronicValueRW@@IEAAXF@Z 000000018000ff14 f   ElectronicValueRWImpl.obj
 0001:0000eff8       ?SetOposProp@COPOSElectronicValueRW@@IEAAJJJJ@Z 000000018000fff8 f   ElectronicValueRWImpl.obj
 0001:0000f158       ?SetOposProp@COPOSElectronicValueRW@@IEAAJJPEA_WJ@Z 0000000180010158 f   ElectronicValueRWImpl.obj
 0001:0000f2b0       ?SetParameterInformation@COPOSElectronicValueRW@@UEAAJPEA_W0PEAJ@Z 00000001800102b0 f   ElectronicValueRWImpl.obj
 0001:0000f38c       ?SubtractValue@COPOSElectronicValueRW@@UEAAJJJPEAJ@Z 000000018001038c f   ElectronicValueRWImpl.obj
 0001:0000f458       ?TransactionAccess@COPOSElectronicValueRW@@UEAAJJPEAJ@Z 0000000180010458 f   ElectronicValueRWImpl.obj
 0001:0000f4d4       ?UnlockTerminal@COPOSElectronicValueRW@@UEAAJPEAJ@Z 00000001800104d4 f   ElectronicValueRWImpl.obj
 0001:0000f4fc       ?UnregisterServiceToMedium@COPOSElectronicValueRW@@UEAAJJJPEAJ@Z 00000001800104fc f   ElectronicValueRWImpl.obj
 0001:0000f5c8       ?UpdateData@COPOSElectronicValueRW@@UEAAJJPEAJPEAPEA_W0@Z 00000001800105c8 f   ElectronicValueRWImpl.obj
 0001:0000f6c4       ?UpdateFirmware@COPOSElectronicValueRW@@UEAAJPEA_WPEAJ@Z 00000001800106c4 f   ElectronicValueRWImpl.obj
 0001:0000f74c       ?UpdateKey@COPOSElectronicValueRW@@UEAAJPEAJPEAPEA_W0@Z 000000018001074c f   ElectronicValueRWImpl.obj
 0001:0000f828       ?UpdateStatistics@COPOSElectronicValueRW@@UEAAJPEA_WPEAJ@Z 0000000180010828 f   ElectronicValueRWImpl.obj
 0001:0000f8b0       ?WriteValue@COPOSElectronicValueRW@@UEAAJJJPEAJ@Z 00000001800108b0 f   ElectronicValueRWImpl.obj
 0001:0000f97c       ?get_AccountNumber@COPOSElectronicValueRW@@UEAAJPEAPEA_W@Z 000000018001097c f   ElectronicValueRWImpl.obj
 0001:0000f990       ?get_AdditionalSecurityInformation@COPOSElectronicValueRW@@UEAAJPEAPEA_W@Z 0000000180010990 f   ElectronicValueRWImpl.obj
 0001:0000f9a4       ?get_Amount@COPOSElectronicValueRW@@UEAAJPEATtagCY@@@Z 00000001800109a4 f   ElectronicValueRWImpl.obj
 0001:0000fa74       ?get_ApprovalCode@COPOSElectronicValueRW@@UEAAJPEAPEA_W@Z 0000000180010a74 f   ElectronicValueRWImpl.obj
 0001:0000fa88       ?get_AsyncMode@COPOSElectronicValueRW@@UEAAJPEAF@Z 0000000180010a88 f   ElectronicValueRWImpl.obj
 0001:0000fabc       ?get_AutoDisable@COPOSElectronicValueRW@@UEAAJPEAF@Z 0000000180010abc f   ElectronicValueRWImpl.obj
 0001:0000faf0       ?get_Balance@COPOSElectronicValueRW@@UEAAJPEATtagCY@@@Z 0000000180010af0 f   ElectronicValueRWImpl.obj
 0001:0000fbc0       ?get_BalanceOfPoint@COPOSElectronicValueRW@@UEAAJPEATtagCY@@@Z 0000000180010bc0 f   ElectronicValueRWImpl.obj
 0001:0000fc90       ?get_BinaryConversion@COPOSElectronicValueRW@@UEAAJPEAJ@Z 0000000180010c90 f   ElectronicValueRWImpl.obj
 0001:0000fca4       ?get_CapActivateService@COPOSElectronicValueRW@@UEAAJPEAF@Z 0000000180010ca4 f   ElectronicValueRWImpl.obj
 0001:0000fcd8       ?get_CapAddValue@COPOSElectronicValueRW@@UEAAJPEAF@Z 0000000180010cd8 f   ElectronicValueRWImpl.obj
 0001:0000fd0c       ?get_CapAdditionalSecurityInformation@COPOSElectronicValueRW@@UEAAJPEAF@Z 0000000180010d0c f   ElectronicValueRWImpl.obj
 0001:0000fd40       ?get_CapAuthorizeCompletion@COPOSElectronicValueRW@@UEAAJPEAF@Z 0000000180010d40 f   ElectronicValueRWImpl.obj
 0001:0000fd74       ?get_CapAuthorizePreSales@COPOSElectronicValueRW@@UEAAJPEAF@Z 0000000180010d74 f   ElectronicValueRWImpl.obj
 0001:0000fda8       ?get_CapAuthorizeRefund@COPOSElectronicValueRW@@UEAAJPEAF@Z 0000000180010da8 f   ElectronicValueRWImpl.obj
 0001:0000fddc       ?get_CapAuthorizeVoid@COPOSElectronicValueRW@@UEAAJPEAF@Z 0000000180010ddc f   ElectronicValueRWImpl.obj
 0001:0000fe10       ?get_CapAuthorizeVoidPreSales@COPOSElectronicValueRW@@UEAAJPEAF@Z 0000000180010e10 f   ElectronicValueRWImpl.obj
 0001:0000fe44       ?get_CapCancelValue@COPOSElectronicValueRW@@UEAAJPEAF@Z 0000000180010e44 f   ElectronicValueRWImpl.obj
 0001:0000fe78       ?get_CapCardSensor@COPOSElectronicValueRW@@UEAAJPEAJ@Z 0000000180010e78 f   ElectronicValueRWImpl.obj
 0001:0000fe8c       ?get_CapCashDeposit@COPOSElectronicValueRW@@UEAAJPEAF@Z 0000000180010e8c f   ElectronicValueRWImpl.obj
 0001:0000fec0       ?get_CapCenterResultCode@COPOSElectronicValueRW@@UEAAJPEAF@Z 0000000180010ec0 f   ElectronicValueRWImpl.obj
 0001:0000fef4       ?get_CapCheckCard@COPOSElectronicValueRW@@UEAAJPEAF@Z 0000000180010ef4 f   ElectronicValueRWImpl.obj
 0001:0000ff28       ?get_CapCompareFirmwareVersion@COPOSElectronicValueRW@@UEAAJPEAF@Z 0000000180010f28 f   ElectronicValueRWImpl.obj
 0001:0000ff5c       ?get_CapDailyLog@COPOSElectronicValueRW@@UEAAJPEAJ@Z 0000000180010f5c f   ElectronicValueRWImpl.obj
 0001:0000ff70       ?get_CapDetectionControl@COPOSElectronicValueRW@@UEAAJPEAJ@Z 0000000180010f70 f   ElectronicValueRWImpl.obj
 0001:0000ff84       ?get_CapElectronicMoney@COPOSElectronicValueRW@@UEAAJPEAF@Z 0000000180010f84 f   ElectronicValueRWImpl.obj
 0001:0000ffb8       ?get_CapEnumerateCardServices@COPOSElectronicValueRW@@UEAAJPEAF@Z 0000000180010fb8 f   ElectronicValueRWImpl.obj
 0001:0000ffec       ?get_CapIndirectTransactionLog@COPOSElectronicValueRW@@UEAAJPEAF@Z 0000000180010fec f   ElectronicValueRWImpl.obj
 0001:00010020       ?get_CapInstallments@COPOSElectronicValueRW@@UEAAJPEAF@Z 0000000180011020 f   ElectronicValueRWImpl.obj
 0001:00010054       ?get_CapLockTerminal@COPOSElectronicValueRW@@UEAAJPEAF@Z 0000000180011054 f   ElectronicValueRWImpl.obj
 0001:00010088       ?get_CapLogStatus@COPOSElectronicValueRW@@UEAAJPEAF@Z 0000000180011088 f   ElectronicValueRWImpl.obj
 0001:000100bc       ?get_CapMediumID@COPOSElectronicValueRW@@UEAAJPEAF@Z 00000001800110bc f   ElectronicValueRWImpl.obj
 0001:000100f0       ?get_CapMembershipCertificate@COPOSElectronicValueRW@@UEAAJPEAF@Z 00000001800110f0 f   ElectronicValueRWImpl.obj
 0001:00010124       ?get_CapPINDevice@COPOSElectronicValueRW@@UEAAJPEAF@Z 0000000180011124 f   ElectronicValueRWImpl.obj
 0001:00010158       ?get_CapPaymentDetail@COPOSElectronicValueRW@@UEAAJPEAF@Z 0000000180011158 f   ElectronicValueRWImpl.obj
 0001:0001018c       ?get_CapPoint@COPOSElectronicValueRW@@UEAAJPEAF@Z 000000018001118c f   ElectronicValueRWImpl.obj
 0001:000101c0       ?get_CapPowerReporting@COPOSElectronicValueRW@@UEAAJPEAJ@Z 00000001800111c0 f   ElectronicValueRWImpl.obj
 0001:000101d4       ?get_CapStatisticsReporting@COPOSElectronicValueRW@@UEAAJPEAF@Z 00000001800111d4 f   ElectronicValueRWImpl.obj
 0001:00010208       ?get_CapSubtractValue@COPOSElectronicValueRW@@UEAAJPEAF@Z 0000000180011208 f   ElectronicValueRWImpl.obj
 0001:0001023c       ?get_CapTaxOthers@COPOSElectronicValueRW@@UEAAJPEAF@Z 000000018001123c f   ElectronicValueRWImpl.obj
 0001:00010270       ?get_CapTrainingMode@COPOSElectronicValueRW@@UEAAJPEAF@Z 0000000180011270 f   ElectronicValueRWImpl.obj
 0001:000102a4       ?get_CapTransaction@COPOSElectronicValueRW@@UEAAJPEAF@Z 00000001800112a4 f   ElectronicValueRWImpl.obj
 0001:000102d8       ?get_CapTransactionLog@COPOSElectronicValueRW@@UEAAJPEAF@Z 00000001800112d8 f   ElectronicValueRWImpl.obj
 0001:0001030c       ?get_CapTransactionNumber@COPOSElectronicValueRW@@UEAAJPEAF@Z 000000018001130c f   ElectronicValueRWImpl.obj
 0001:00010340       ?get_CapUnlockTerminal@COPOSElectronicValueRW@@UEAAJPEAF@Z 0000000180011340 f   ElectronicValueRWImpl.obj
 0001:00010374       ?get_CapUpdateFirmware@COPOSElectronicValueRW@@UEAAJPEAF@Z 0000000180011374 f   ElectronicValueRWImpl.obj
 0001:000103a8       ?get_CapUpdateKey@COPOSElectronicValueRW@@UEAAJPEAF@Z 00000001800113a8 f   ElectronicValueRWImpl.obj
 0001:000103dc       ?get_CapUpdateStatistics@COPOSElectronicValueRW@@UEAAJPEAF@Z 00000001800113dc f   ElectronicValueRWImpl.obj
 0001:00010410       ?get_CapVoucher@COPOSElectronicValueRW@@UEAAJPEAF@Z 0000000180011410 f   ElectronicValueRWImpl.obj
 0001:00010444       ?get_CapWriteValue@COPOSElectronicValueRW@@UEAAJPEAF@Z 0000000180011444 f   ElectronicValueRWImpl.obj
 0001:00010478       ?get_CardCompanyID@COPOSElectronicValueRW@@UEAAJPEAPEA_W@Z 0000000180011478 f   ElectronicValueRWImpl.obj
 0001:0001048c       ?get_CardServiceList@COPOSElectronicValueRW@@UEAAJPEAPEA_W@Z 000000018001148c f   ElectronicValueRWImpl.obj
 0001:000104a0       ?get_CenterResultCode@COPOSElectronicValueRW@@UEAAJPEAPEA_W@Z 00000001800114a0 f   ElectronicValueRWImpl.obj
 0001:000104b4       ?get_CheckHealthText@COPOSElectronicValueRW@@UEAAJPEAPEA_W@Z 00000001800114b4 f   ElectronicValueRWImpl.obj
 0001:000104c8       ?get_Claimed@COPOSElectronicValueRW@@UEAAJPEAF@Z 00000001800114c8 f   ElectronicValueRWImpl.obj
 0001:000104fc       ?get_ControlObjectDescription@COPOSElectronicValueRW@@UEAAJPEAPEA_W@Z 00000001800114fc f   ElectronicValueRWImpl.obj
 0001:00010560       ?get_ControlObjectVersion@COPOSElectronicValueRW@@UEAAJPEAJ@Z 0000000180011560 f   ElectronicValueRWImpl.obj
 0001:0001056c       ?get_CurrentService@COPOSElectronicValueRW@@UEAAJPEAPEA_W@Z 000000018001156c f   ElectronicValueRWImpl.obj
 0001:00010580       ?get_DailyLog@COPOSElectronicValueRW@@UEAAJPEAPEA_W@Z 0000000180011580 f   ElectronicValueRWImpl.obj
 0001:00010594       ?get_DataCount@COPOSElectronicValueRW@@UEAAJPEAJ@Z 0000000180011594 f   ElectronicValueRWImpl.obj
 0001:000105a8       ?get_DataEventEnabled@COPOSElectronicValueRW@@UEAAJPEAF@Z 00000001800115a8 f   ElectronicValueRWImpl.obj
 0001:000105dc       ?get_DetectionControl@COPOSElectronicValueRW@@UEAAJPEAF@Z 00000001800115dc f   ElectronicValueRWImpl.obj
 0001:00010610       ?get_DetectionStatus@COPOSElectronicValueRW@@UEAAJPEAJ@Z 0000000180011610 f   ElectronicValueRWImpl.obj
 0001:00010624       ?get_DeviceDescription@COPOSElectronicValueRW@@UEAAJPEAPEA_W@Z 0000000180011624 f   ElectronicValueRWImpl.obj
 0001:00010638       ?get_DeviceEnabled@COPOSElectronicValueRW@@UEAAJPEAF@Z 0000000180011638 f   ElectronicValueRWImpl.obj
 0001:0001066c       ?get_DeviceName@COPOSElectronicValueRW@@UEAAJPEAPEA_W@Z 000000018001166c f   ElectronicValueRWImpl.obj
 0001:00010680       ?get_ExpirationDate@COPOSElectronicValueRW@@UEAAJPEAPEA_W@Z 0000000180011680 f   ElectronicValueRWImpl.obj
 0001:00010694       ?get_FreezeEvents@COPOSElectronicValueRW@@UEAAJPEAF@Z 0000000180011694 f   ElectronicValueRWImpl.obj
 0001:000106c4       ?get_LastUsedDate@COPOSElectronicValueRW@@UEAAJPEAPEA_W@Z 00000001800116c4 f   ElectronicValueRWImpl.obj
 0001:000106d8       ?get_LogStatus@COPOSElectronicValueRW@@UEAAJPEAJ@Z 00000001800116d8 f   ElectronicValueRWImpl.obj
 0001:000106ec       ?get_MediumID@COPOSElectronicValueRW@@UEAAJPEAPEA_W@Z 00000001800116ec f   ElectronicValueRWImpl.obj
 0001:00010700       ?get_OpenResult@COPOSElectronicValueRW@@UEAAJPEAJ@Z 0000000180011700 f   ElectronicValueRWImpl.obj
 0001:0001070c       ?get_OutputID@COPOSElectronicValueRW@@UEAAJPEAJ@Z 000000018001170c f   ElectronicValueRWImpl.obj
 0001:00010720       ?get_PINEntry@COPOSElectronicValueRW@@UEAAJPEAJ@Z 0000000180011720 f   ElectronicValueRWImpl.obj
 0001:00010734       ?get_PaymentCondition@COPOSElectronicValueRW@@UEAAJPEAJ@Z 0000000180011734 f   ElectronicValueRWImpl.obj
 0001:00010748       ?get_PaymentDetail@COPOSElectronicValueRW@@UEAAJPEAPEA_W@Z 0000000180011748 f   ElectronicValueRWImpl.obj
 0001:0001075c       ?get_PaymentMedia@COPOSElectronicValueRW@@UEAAJPEAJ@Z 000000018001175c f   ElectronicValueRWImpl.obj
 0001:00010770       ?get_Point@COPOSElectronicValueRW@@UEAAJPEATtagCY@@@Z 0000000180011770 f   ElectronicValueRWImpl.obj
 0001:00010840       ?get_PowerNotify@COPOSElectronicValueRW@@UEAAJPEAJ@Z 0000000180011840 f   ElectronicValueRWImpl.obj
 0001:00010854       ?get_PowerState@COPOSElectronicValueRW@@UEAAJPEAJ@Z 0000000180011854 f   ElectronicValueRWImpl.obj
 0001:00010868       ?get_ReaderWriterServiceList@COPOSElectronicValueRW@@UEAAJPEAPEA_W@Z 0000000180011868 f   ElectronicValueRWImpl.obj
 0001:0001087c       ?get_ResultCode@COPOSElectronicValueRW@@UEAAJPEAJ@Z 000000018001187c f   ElectronicValueRWImpl.obj
 0001:000108b8       ?get_ResultCodeExtended@COPOSElectronicValueRW@@UEAAJPEAJ@Z 00000001800118b8 f   ElectronicValueRWImpl.obj
 0001:000108cc       ?get_SequenceNumber@COPOSElectronicValueRW@@UEAAJPEAJ@Z 00000001800118cc f   ElectronicValueRWImpl.obj
 0001:000108e0       ?get_ServiceObjectDescription@COPOSElectronicValueRW@@UEAAJPEAPEA_W@Z 00000001800118e0 f   ElectronicValueRWImpl.obj
 0001:000108f4       ?get_ServiceObjectVersion@COPOSElectronicValueRW@@UEAAJPEAJ@Z 00000001800118f4 f   ElectronicValueRWImpl.obj
 0001:00010908       ?get_ServiceType@COPOSElectronicValueRW@@UEAAJPEAJ@Z 0000000180011908 f   ElectronicValueRWImpl.obj
 0001:0001091c       ?get_SettledAmount@COPOSElectronicValueRW@@UEAAJPEATtagCY@@@Z 000000018001191c f   ElectronicValueRWImpl.obj
 0001:000109ec       ?get_SettledPoint@COPOSElectronicValueRW@@UEAAJPEATtagCY@@@Z 00000001800119ec f   ElectronicValueRWImpl.obj
 0001:00010abc       ?get_SlipNumber@COPOSElectronicValueRW@@UEAAJPEAPEA_W@Z 0000000180011abc f   ElectronicValueRWImpl.obj
 0001:00010ad0       ?get_State@COPOSElectronicValueRW@@UEAAJPEAJ@Z 0000000180011ad0 f   ElectronicValueRWImpl.obj
 0001:00010afc       ?get_TrainingModeState@COPOSElectronicValueRW@@UEAAJPEAJ@Z 0000000180011afc f   ElectronicValueRWImpl.obj
 0001:00010b10       ?get_TransactionLog@COPOSElectronicValueRW@@UEAAJPEAPEA_W@Z 0000000180011b10 f   ElectronicValueRWImpl.obj
 0001:00010b24       ?get_TransactionNumber@COPOSElectronicValueRW@@UEAAJPEAPEA_W@Z 0000000180011b24 f   ElectronicValueRWImpl.obj
 0001:00010b38       ?get_TransactionType@COPOSElectronicValueRW@@UEAAJPEAJ@Z 0000000180011b38 f   ElectronicValueRWImpl.obj
 0001:00010b4c       ?get_VoucherID@COPOSElectronicValueRW@@UEAAJPEAPEA_W@Z 0000000180011b4c f   ElectronicValueRWImpl.obj
 0001:00010b60       ?get_VoucherIDList@COPOSElectronicValueRW@@UEAAJPEAPEA_W@Z 0000000180011b60 f   ElectronicValueRWImpl.obj
 0001:00010b74       ?put_AdditionalSecurityInformation@COPOSElectronicValueRW@@UEAAJPEA_W@Z 0000000180011b74 f   ElectronicValueRWImpl.obj
 0001:00010b88       ?put_Amount@COPOSElectronicValueRW@@UEAAJTtagCY@@@Z 0000000180011b88 f   ElectronicValueRWImpl.obj
 0001:00010c74       ?put_ApprovalCode@COPOSElectronicValueRW@@UEAAJPEA_W@Z 0000000180011c74 f   ElectronicValueRWImpl.obj
 0001:00010c88       ?put_AsyncMode@COPOSElectronicValueRW@@UEAAJF@Z 0000000180011c88 f   ElectronicValueRWImpl.obj
 0001:00010ca4       ?put_AutoDisable@COPOSElectronicValueRW@@UEAAJF@Z 0000000180011ca4 f   ElectronicValueRWImpl.obj
 0001:00010cbc       ?put_BinaryConversion@COPOSElectronicValueRW@@UEAAJJ@Z 0000000180011cbc f   ElectronicValueRWImpl.obj
 0001:00010cd0       ?put_CurrentService@COPOSElectronicValueRW@@UEAAJPEA_W@Z 0000000180011cd0 f   ElectronicValueRWImpl.obj
 0001:00010ce4       ?put_DataEventEnabled@COPOSElectronicValueRW@@UEAAJF@Z 0000000180011ce4 f   ElectronicValueRWImpl.obj
 0001:00010cfc       ?put_DetectionControl@COPOSElectronicValueRW@@UEAAJF@Z 0000000180011cfc f   ElectronicValueRWImpl.obj
 0001:00010d18       ?put_DeviceEnabled@COPOSElectronicValueRW@@UEAAJF@Z 0000000180011d18 f   ElectronicValueRWImpl.obj
 0001:00010d30       ?put_FreezeEvents@COPOSElectronicValueRW@@UEAAJF@Z 0000000180011d30 f   ElectronicValueRWImpl.obj
 0001:00010d80       ?put_MediumID@COPOSElectronicValueRW@@UEAAJPEA_W@Z 0000000180011d80 f   ElectronicValueRWImpl.obj
 0001:00010d94       ?put_PINEntry@COPOSElectronicValueRW@@UEAAJJ@Z 0000000180011d94 f   ElectronicValueRWImpl.obj
 0001:00010da8       ?put_PaymentMedia@COPOSElectronicValueRW@@UEAAJJ@Z 0000000180011da8 f   ElectronicValueRWImpl.obj
 0001:00010dbc       ?put_Point@COPOSElectronicValueRW@@UEAAJTtagCY@@@Z 0000000180011dbc f   ElectronicValueRWImpl.obj
 0001:00010ea8       ?put_PowerNotify@COPOSElectronicValueRW@@UEAAJJ@Z 0000000180011ea8 f   ElectronicValueRWImpl.obj
 0001:00010ebc       ?put_TrainingModeState@COPOSElectronicValueRW@@UEAAJJ@Z 0000000180011ebc f   ElectronicValueRWImpl.obj
 0001:00010ed0       ?put_VoucherID@COPOSElectronicValueRW@@UEAAJPEA_W@Z 0000000180011ed0 f   ElectronicValueRWImpl.obj
 0001:00010ee4       ?put_VoucherIDList@COPOSElectronicValueRW@@UEAAJPEA_W@Z 0000000180011ee4 f   ElectronicValueRWImpl.obj
 0001:00010ef8       ?s_EventWindowProc@COPOSElectronicValueRW@@KA_JPEAUHWND__@@I_K_J@Z 0000000180011ef8 f i ElectronicValueRWImpl.obj
 0001:00010f74       ??_U@YAPEAX_K@Z            0000000180011f74 f   LIBCMT:new_array.obj
 0001:00010f7c       ??_V@YAXPEAX@Z             0000000180011f7c f   LIBCMT:delete_array.obj
 0001:00010f7c       ??3@YAXPEAX_K@Z            0000000180011f7c f   LIBCMT:delete_scalar_size.obj
 0001:00010f84       ??_V@YAXPEAX_K@Z           0000000180011f84 f   LIBCMT:delete_array_size.obj
 0001:00010f8c       __scrt_acquire_startup_lock 0000000180011f8c f   LIBCMT:utility.obj
 0001:00010fc8       __scrt_dllmain_after_initialize_c 0000000180011fc8 f   LIBCMT:utility.obj
 0001:00010ffc       __scrt_dllmain_before_initialize_c 0000000180011ffc f   LIBCMT:utility.obj
 0001:00011014       __scrt_dllmain_crt_thread_attach 0000000180012014 f   LIBCMT:utility.obj
 0001:0001103c       __scrt_dllmain_crt_thread_detach 000000018001203c f   LIBCMT:utility.obj
 0001:00011054       __scrt_dllmain_exception_filter 0000000180012054 f   LIBCMT:utility.obj
 0001:000110b4       __scrt_dllmain_uninitialize_c 00000001800120b4 f   LIBCMT:utility.obj
 0001:000110e4       __scrt_dllmain_uninitialize_critical 00000001800120e4 f   LIBCMT:utility.obj
 0001:000110f8       __scrt_initialize_crt      00000001800120f8 f   LIBCMT:utility.obj
 0001:00011144       __scrt_initialize_onexit_tables 0000000180012144 f   LIBCMT:utility.obj
 0001:000111d0       __scrt_is_nonwritable_in_current_image 00000001800121d0 f   LIBCMT:utility.obj
 0001:00011268       __scrt_release_startup_lock 0000000180012268 f   LIBCMT:utility.obj
 0001:0001128c       __scrt_uninitialize_crt    000000018001228c f   LIBCMT:utility.obj
 0001:000112b8       _onexit                    00000001800122b8 f   LIBCMT:utility.obj
 0001:000112f4       atexit                     00000001800122f4 f   LIBCMT:utility.obj
 0001:0001130c       ??3@YAXPEAX@Z              000000018001230c f   LIBCMT:delete_scalar.obj
 0001:0001140c       _Init_thread_footer        000000018001240c f   LIBCMT:thread_safe_statics.obj
 0001:0001146c       _Init_thread_header        000000018001246c f   LIBCMT:thread_safe_statics.obj
 0001:000114d4       _Init_thread_notify        00000001800124d4 f   LIBCMT:thread_safe_statics.obj
 0001:00011518       _Init_thread_wait          0000000180012518 f   LIBCMT:thread_safe_statics.obj
 0001:0001157c       __raise_securityfailure    000000018001257c f   LIBCMT:gs_report.obj
 0001:000115b0       __report_gsfailure         00000001800125b0 f   LIBCMT:gs_report.obj
 0001:00011684       __report_rangecheckfailure 0000000180012684 f   LIBCMT:gs_report.obj
 0001:00011698       __report_securityfailure   0000000180012698 f   LIBCMT:gs_report.obj
 0001:00011818       ??2@YAPEAX_KAEBUnothrow_t@std@@@Z 0000000180012818 f   LIBCMT:new_scalar_nothrow.obj
 0001:0001182c       ??_U@YAPEAX_KAEBUnothrow_t@std@@@Z 000000018001282c f   LIBCMT:new_array_nothrow.obj
 0001:00011834       __GSHandlerCheck           0000000180012834 f   LIBCMT:gshandler.obj
 0001:00011854       __GSHandlerCheckCommon     0000000180012854 f   LIBCMT:gshandler.obj
 0001:000118b0       __GSHandlerCheck_SEH       00000001800128b0 f   LIBCMT:gshandlerseh.obj
 0001:00011950       _alloca_probe              0000000180012950 f   LIBCMT:chkstk.obj
 0001:00011950       __chkstk                   0000000180012950 f   LIBCMT:chkstk.obj
 0001:000119c0       __security_check_cookie    00000001800129c0 f   LIBCMT:amdsecgs.obj
 0001:00011d04       _DllMainCRTStartup         0000000180012d04 f   LIBCMT:dll_dllmain.obj
 0001:00011d44       ??2@YAPEAX_K@Z             0000000180012d44 f   LIBCMT:new_scalar.obj
 0001:00011d80       __isa_available_init       0000000180012d80 f   LIBCMT:cpu_disp.obj
 0001:00011f24       __scrt_is_ucrt_dll_in_use  0000000180012f24 f   LIBCMT:ucrt_detection.obj
 0001:00011f30       __crt_debugger_hook        0000000180012f30 f   LIBCMT:utility_desktop.obj
 0001:00011f38       __scrt_fastfail            0000000180012f38 f   LIBCMT:utility_desktop.obj
 0001:00012084       __security_init_cookie     0000000180013084 f   LIBCMT:gs_support.obj
 0001:00012130       ?__scrt_initialize_type_info@@YAXXZ 0000000180013130 f   LIBCMT:tncleanup.obj
 0001:00012140       ?__scrt_uninitialize_type_info@@YAXXZ 0000000180013140 f   LIBCMT:tncleanup.obj
 0001:0001214c       __local_stdio_scanf_options 000000018001314c f i LIBCMT:default_local_stdio_options.obj
 0001:00012154       __scrt_initialize_default_local_stdio_options 0000000180013154 f   LIBCMT:default_local_stdio_options.obj
 0001:00012170       __scrt_get_dyn_tls_init_callback 0000000180013170 f   LIBCMT:dyn_tls_init.obj
 0001:00012178       _RTC_Initialize            0000000180013178 f   LIBCMT:initsect.obj
 0001:000121b4       _RTC_Terminate             00000001800131b4 f   LIBCMT:initsect.obj
 0001:000121f0       ??0bad_alloc@std@@QEAA@AEBV01@@Z 00000001800131f0 f i LIBCMT:throw_bad_alloc.obj
 0001:0001222c       ??0bad_alloc@std@@QEAA@XZ  000000018001322c f i LIBCMT:throw_bad_alloc.obj
 0001:0001224c       ??0bad_array_new_length@std@@QEAA@AEBV01@@Z 000000018001324c f i LIBCMT:throw_bad_alloc.obj
 0001:00012288       ??0bad_array_new_length@std@@QEAA@XZ 0000000180013288 f i LIBCMT:throw_bad_alloc.obj
 0001:000122a8       ??0exception@std@@QEAA@AEBV01@@Z 00000001800132a8 f i LIBCMT:throw_bad_alloc.obj
 0001:000122dc       ??1bad_array_new_length@std@@UEAA@XZ 00000001800132dc f i LIBCMT:throw_bad_alloc.obj
 0001:000122dc       ??1bad_alloc@std@@UEAA@XZ  00000001800132dc f i LIBCMT:throw_bad_alloc.obj
 0001:000122dc       ??1bad_exception@std@@UEAA@XZ 00000001800132dc f i libvcruntime:frame.obj
 0001:000122f0       ??_Gbad_array_new_length@std@@UEAAPEAXI@Z 00000001800132f0 f i LIBCMT:throw_bad_alloc.obj
 0001:000122f0       ??_Eexception@std@@UEAAPEAXI@Z 00000001800132f0 f i LIBCMT:throw_bad_alloc.obj
 0001:000122f0       ??_Ebad_exception@std@@UEAAPEAXI@Z 00000001800132f0 f i libvcruntime:frame.obj
 0001:000122f0       ??_Gbad_exception@std@@UEAAPEAXI@Z 00000001800132f0 f i libvcruntime:frame.obj
 0001:000122f0       ??_Gexception@std@@UEAAPEAXI@Z 00000001800132f0 f i LIBCMT:throw_bad_alloc.obj
 0001:000122f0       ??_Ebad_array_new_length@std@@UEAAPEAXI@Z 00000001800132f0 f i LIBCMT:throw_bad_alloc.obj
 0001:000122f0       ??_Ebad_alloc@std@@UEAAPEAXI@Z 00000001800132f0 f i LIBCMT:throw_bad_alloc.obj
 0001:000122f0       ??_Gbad_alloc@std@@UEAAPEAXI@Z 00000001800132f0 f i LIBCMT:throw_bad_alloc.obj
 0001:00012334       ?__scrt_throw_std_bad_alloc@@YAXXZ 0000000180013334 f   LIBCMT:throw_bad_alloc.obj
 0001:00012354       ?__scrt_throw_std_bad_array_new_length@@YAXXZ 0000000180013354 f   LIBCMT:throw_bad_alloc.obj
 0001:00012374       ?what@exception@std@@UEBAPEBDXZ 0000000180013374 f i LIBCMT:throw_bad_alloc.obj
 0001:00012390       ??_Etype_info@@UEAAPEAXI@Z 0000000180013390 f i LIBCMT:std_type_info_static.obj
 0001:00012390       ??_Gtype_info@@UEAAPEAXI@Z 0000000180013390 f i LIBCMT:std_type_info_static.obj
 0001:000123bc       ??0CAtlBaseModule@ATL@@QEAA@XZ 00000001800133bc f   atls:atlbase.obj
 0001:00012464       ??1CAtlBaseModule@ATL@@QEAA@XZ 0000000180013464 f   atls:atlbase.obj
 0001:00012598       ?__AllocStdCallThunk_cmn@@YAPEAXXZ 0000000180013598 f   atls:atlthunk.obj
 0001:000126f0       AtlThunk_AllocateData      00000001800136f0 f   atls:atlthunk.obj
 0001:0001276c       AtlThunk_DataToCode        000000018001376c f   atls:atlthunk.obj
 0001:000127c0       AtlThunk_FreeData          00000001800137c0 f   atls:atlthunk.obj
 0001:00012820       AtlThunk_InitData          0000000180013820 f   atls:atlthunk.obj
 0001:000128c8       _get_purecall_handler      00000001800138c8 f   libvcruntime:purevirt.obj
 0001:000128d0       _purecall                  00000001800138d0 f   libvcruntime:purevirt.obj
 0001:000128ec       wcsstr                     00000001800138ec f   libvcruntime:wcsstr.obj
 0001:00012b20       memcmp                     0000000180013b20 f   libvcruntime:memcmp.obj
 0001:00012c00       memcpy_repmovs             0000000180013c00 f   libvcruntime:memcpy.obj
 0001:00012c20       memmove                    0000000180013c20 f   libvcruntime:memcpy.obj
 0001:00012c20       memcpy                     0000000180013c20 f   libvcruntime:memcpy.obj
 0001:00013010       memset_repmovs             0000000180014010 f   libvcruntime:memset.obj
 0001:00013030       memset                     0000000180014030 f   libvcruntime:memset.obj
 0001:000131c0       __vcrt_initialize          00000001800141c0 f   libvcruntime:initialization.obj
 0001:000131e8       __vcrt_thread_attach       00000001800141e8 f   libvcruntime:initialization.obj
 0001:000131fc       __vcrt_thread_detach       00000001800141fc f   libvcruntime:initialization.obj
 0001:00013210       __vcrt_uninitialize        0000000180014210 f   libvcruntime:initialization.obj
 0001:0001322c       __vcrt_uninitialize_critical 000000018001422c f   libvcruntime:initialization.obj
 0001:0001323c       __C_specific_handler       000000018001423c f   libvcruntime:riscchandler.obj
 0001:00013448       ??$_CallSETranslator@V__FrameHandler4@@@@YAHPEAUEHExceptionRecord@@PEA_KPEAU_CONTEXT@@PEAU_xDISPATCHER_CONTEXT@@PEAUFuncInfo4@FH4@@K1H@Z 0000000180014448 f i libvcruntime:risctrnsctrl.obj
 0001:0001349c       ?DecompFuncInfo@FH4@@YA_JPEAEAEAUFuncInfo4@1@_KH_N@Z 000000018001449c f i libvcruntime:risctrnsctrl.obj
 0001:000135c0       ?ExecutionInCatch@__FrameHandler4@@SA_NPEAU_xDISPATCHER_CONTEXT@@PEAUFuncInfo4@FH4@@@Z 00000001800145c0 f   libvcruntime:risctrnsctrl.obj
 0001:000135c8       ?FrameUnwindToEmptyState@__FrameHandler4@@SAXPEA_KPEAU_xDISPATCHER_CONTEXT@@PEAUFuncInfo4@FH4@@@Z 00000001800145c8 f   libvcruntime:risctrnsctrl.obj
 0001:000135fc       ?GetEstablisherFrame@__FrameHandler4@@SAPEA_KPEA_KPEAU_xDISPATCHER_CONTEXT@@PEAUFuncInfo4@FH4@@0@Z 00000001800145fc f   libvcruntime:risctrnsctrl.obj
 0001:00013620       ?GetRangeOfTrysToCheck@__FrameHandler4@@SA?AU?$pair@Viterator@TryBlockMap4@FH4@@V123@@std@@AEAVTryBlockMap4@FH4@@HPEAU_xDISPATCHER_CONTEXT@@PEAUFuncInfo4@5@H@Z 0000000180014620 f   libvcruntime:risctrnsctrl.obj
 0001:00013788       ?UnwindNestedFrames@__FrameHandler4@@SAXPEA_KPEAUEHExceptionRecord@@PEAU_CONTEXT@@0PEAXPEAUFuncInfo4@FH4@@HHPEAUHandlerType4@5@PEAU_xDISPATCHER_CONTEXT@@E@Z 0000000180014788 f   libvcruntime:risctrnsctrl.obj
 0001:000138a8       ?setBuffer@TryBlockMap4@FH4@@QEAAXViterator@12@@Z 00000001800148a8 f i libvcruntime:risctrnsctrl.obj
 0001:00013a68       _CreateFrameInfo           0000000180014a68 f   libvcruntime:risctrnsctrl.obj
 0001:00013aa4       _FindAndUnlinkFrame        0000000180014aa4 f   libvcruntime:risctrnsctrl.obj
 0001:00013af8       _GetImageBase              0000000180014af8 f   libvcruntime:risctrnsctrl.obj
 0001:00013b0c       _GetThrowImageBase         0000000180014b0c f   libvcruntime:risctrnsctrl.obj
 0001:00013b20       _SetImageBase              0000000180014b20 f   libvcruntime:risctrnsctrl.obj
 0001:00013b38       _SetThrowImageBase         0000000180014b38 f   libvcruntime:risctrnsctrl.obj
 0001:00013b50       __CxxFrameHandler4         0000000180014b50 f   libvcruntime:risctrnsctrl.obj
 0001:00013c10       __DestructExceptionObject  0000000180014c10 f   libvcruntime:ehhelpers.obj
 0001:00013c80       ?_CallMemberFunction0@@YAXQEAX0@Z 0000000180014c80 f i libvcruntime:ehhelpers.obj
 0001:00013c84       _IsExceptionObjectToBeDestroyed 0000000180014c84 f   libvcruntime:ehhelpers.obj
 0001:00013cb4       __AdjustPointer            0000000180014cb4 f   libvcruntime:ehhelpers.obj
 0001:00013cd8       __FrameUnwindFilter        0000000180014cd8 f   libvcruntime:ehhelpers.obj
 0001:00013d40       __std_type_info_compare    0000000180014d40 f   libvcruntime:std_type_info.obj
 0001:00013d68       __std_type_info_destroy_list 0000000180014d68 f   libvcruntime:std_type_info.obj
 0001:00013d94       __std_exception_copy       0000000180014d94 f   libvcruntime:std_exception.obj
 0001:00013e24       __std_exception_destroy    0000000180014e24 f   libvcruntime:std_exception.obj
 0001:00013e4c       _CxxThrowException         0000000180014e4c f   libvcruntime:throw.obj
 0001:00013eec       __vcrt_freefls             0000000180014eec f   libvcruntime:per_thread_data.obj
 0001:00013f0c       __vcrt_freeptd             0000000180014f0c f   libvcruntime:per_thread_data.obj
 0001:00013f5c       __vcrt_getptd              0000000180014f5c f   libvcruntime:per_thread_data.obj
 0001:00013f78       __vcrt_getptd_noexit       0000000180014f78 f   libvcruntime:per_thread_data.obj
 0001:00014038       __vcrt_initialize_ptd      0000000180015038 f   libvcruntime:per_thread_data.obj
 0001:00014080       __vcrt_uninitialize_ptd    0000000180015080 f   libvcruntime:per_thread_data.obj
 0001:000140a4       __vcrt_initialize_locks    00000001800150a4 f   libvcruntime:locks.obj
 0001:000140d8       __vcrt_uninitialize_locks  00000001800150d8 f   libvcruntime:locks.obj
 0001:00014120       _NLG_Notify                0000000180015120 f   libvcruntime:notify.obj
 0001:00014140       __NLG_Dispatch2            0000000180015140 f   libvcruntime:notify.obj
 0001:00014150       __NLG_Return2              0000000180015150 f   libvcruntime:notify.obj
 0001:00014154       __except_validate_context_record 0000000180015154 f   libvcruntime:jbcxrval.obj
 0001:0001418c       ?StateFromControlPc@__FrameHandler4@@SAHPEAUFuncInfo4@FH4@@PEAU_xDISPATCHER_CONTEXT@@@Z 000000018001518c f   libvcruntime:ehstate.obj
 0001:00014194       ?StateFromIp@__FrameHandler4@@SAHPEAUFuncInfo4@FH4@@PEAU_xDISPATCHER_CONTEXT@@_K@Z 0000000180015194 f   libvcruntime:ehstate.obj
 0001:00014e18       ??$TypeMatchHelper@V__FrameHandler3@@@@YAHPEBU_s_HandlerType@@PEBU_s_CatchableType@@PEBU_s_ThrowInfo@@@Z 0000000180015e18 f i libvcruntime:frame.obj
 0001:00014f58       ??$TypeMatchHelper@V__FrameHandler4@@@@YAHPEAUHandlerType4@FH4@@PEBU_s_CatchableType@@PEBU_s_ThrowInfo@@@Z 0000000180015f58 f i libvcruntime:frame.obj
 0001:0001509c       ??$__InternalCxxFrameHandler@V__FrameHandler4@@@@YA?AW4_EXCEPTION_DISPOSITION@@PEAUEHExceptionRecord@@PEA_KPEAU_CONTEXT@@PEAU_xDISPATCHER_CONTEXT@@PEAUFuncInfo4@FH4@@H1E@Z 000000018001609c f i libvcruntime:frame.obj
 0001:00015330       ??0HandlerMap4@FH4@@QEAA@PEBUTryBlockMapEntry4@1@_KH@Z 0000000180016330 f i libvcruntime:frame.obj
 0001:000153ac       ??0TryBlockMap4@FH4@@QEAA@PEBUFuncInfo4@1@_K@Z 00000001800163ac f i libvcruntime:frame.obj
 0001:00015484       ??0bad_exception@std@@QEAA@AEBV01@@Z 0000000180016484 f i libvcruntime:frame.obj
 0001:000154c0       ??0bad_exception@std@@QEAA@XZ 00000001800164c0 f i libvcruntime:frame.obj
 0001:000154e0       ?CxxCallCatchBlock@__FrameHandler4@@SAPEAXPEAU_EXCEPTION_RECORD@@@Z 00000001800164e0 f   libvcruntime:frame.obj
 0001:00015730       ?DecompHandler@HandlerMap4@FH4@@AEAAXXZ 0000000180016730 f i libvcruntime:frame.obj
 0001:00015970       ?FrameUnwindToState@__FrameHandler4@@SAXPEA_KPEAU_xDISPATCHER_CONTEXT@@PEAUFuncInfo4@FH4@@H@Z 0000000180016970 f   libvcruntime:frame.obj
 0001:00015dd0       ?ReadEntry@UWMap4@FH4@@AEAAXPEAPEAE@Z 0000000180016dd0 f i libvcruntime:frame.obj
 0001:00015e70       ?_CallMemberFunction1@@YAXQEAX00@Z 0000000180016e70 f i libvcruntime:frame.obj
 0001:00015e7c       ?_CallMemberFunction2@@YAXQEAX00H@Z 0000000180016e7c f i libvcruntime:frame.obj
 0001:00015e8c       ?getStartStop@UWMap4@FH4@@QEAAXHHAEAViterator@12@0@Z 0000000180016e8c f i libvcruntime:frame.obj
 0001:00015f5c       ?getStateFromIterators@UWMap4@FH4@@SAHAEBViterator@12@H0H0@Z 0000000180016f5c f i libvcruntime:frame.obj
 0001:00016170       __vcrt_FlsAlloc            0000000180017170 f   libvcruntime:winapi_downlevel.obj
 0001:000161b8       __vcrt_FlsFree             00000001800171b8 f   libvcruntime:winapi_downlevel.obj
 0001:00016200       __vcrt_FlsGetValue         0000000180017200 f   libvcruntime:winapi_downlevel.obj
 0001:00016248       __vcrt_FlsSetValue         0000000180017248 f   libvcruntime:winapi_downlevel.obj
 0001:0001629c       __vcrt_InitializeCriticalSectionEx 000000018001729c f   libvcruntime:winapi_downlevel.obj
 0001:00016310       _CallSettingFrame          0000000180017310 f   libvcruntime:handlers.obj
 0001:00016360       _CallSettingFrame_LookupContinuationIndex 0000000180017360 f   libvcruntime:handlers.obj
 0001:00016390       _CallSettingFrame_NotifyContinuationAddr 0000000180017390 f   libvcruntime:handlers.obj
 0001:000163c0       _CallSettingFrameEncoded   00000001800173c0 f   libvcruntime:handlers.obj
 0001:00016408       free                       0000000180017408 f   libucrt:free.obj
 0001:0001641c       __acrt_call_reportfault    000000018001741c f   libucrt:invalid_parameter.obj
 0001:00016578       __acrt_initialize_invalid_parameter_handler 0000000180017578 f   libucrt:invalid_parameter.obj
 0001:00016580       _invalid_parameter         0000000180017580 f   libucrt:invalid_parameter.obj
 0001:00016630       _invalid_parameter_noinfo  0000000180017630 f   libucrt:invalid_parameter.obj
 0001:00016650       _invoke_watson             0000000180017650 f   libucrt:invalid_parameter.obj
 0001:00016698       __acrt_errno_from_os_error 0000000180017698 f   libucrt:errno.obj
 0001:000166e0       __acrt_errno_map_os_error  00000001800176e0 f   libucrt:errno.obj
 0001:00016730       __doserrno                 0000000180017730 f   libucrt:errno.obj
 0001:00016750       _errno                     0000000180017750 f   libucrt:errno.obj
 0001:00016770       calloc                     0000000180017770 f   libucrt:calloc.obj
 0001:00016778       malloc                     0000000180017778 f   libucrt:malloc.obj
 0001:00016780       _recalloc                  0000000180017780 f   libucrt:recalloc.obj
 0001:00016788       _recalloc_base             0000000180017788 f   libucrt:recalloc.obj
 0001:00016820       _resetstkoflw              0000000180017820 f   libucrt:resetstk.obj
 0001:0001694c       wcscat_s                   000000018001794c f   libucrt:wcscat_s.obj
 0001:000169cc       wcscpy_s                   00000001800179cc f   libucrt:wcscpy_s.obj
 0001:00016a34       wcsncpy_s                  0000000180017a34 f   libucrt:wcsncpy_s.obj
 0001:00016cec       ??$ensure_buffer_is_big_enough@D@formatting_buffer@__crt_stdio_output@@QEAA_N_K@Z 0000000180017cec f i libucrt:output.obj
 0001:00016d94       ??$ensure_buffer_is_big_enough@_W@formatting_buffer@__crt_stdio_output@@QEAA_N_K@Z 0000000180017d94 f i libucrt:output.obj
 0001:00016e40       ??$is_wide_character_specifier@_W@__crt_stdio_output@@YA_N_K_WW4length_modifier@0@@Z 0000000180017e40 f i libucrt:output.obj
 0001:00016e80       ??$type_case_integer_parse_into_buffer@I@?$output_processor@_WV?$string_output_adapter@_W@__crt_stdio_output@@V?$format_validation_base@_WV?$string_output_adapter@_W@__crt_stdio_output@@@2@@__crt_stdio_output@@AEAAXII_N@Z 0000000180017e80 f i libucrt:output.obj
 0001:00016f24       ??$type_case_integer_parse_into_buffer@_K@?$output_processor@_WV?$string_output_adapter@_W@__crt_stdio_output@@V?$format_validation_base@_WV?$string_output_adapter@_W@__crt_stdio_output@@@2@@__crt_stdio_output@@AEAAX_KI_N@Z 0000000180017f24 f i libucrt:output.obj
 0001:00016fc8       ??$write_multiple_characters@V?$string_output_adapter@_W@__crt_stdio_output@@D@__crt_stdio_output@@YAXAEBV?$string_output_adapter@_W@0@DHQEAH@Z 0000000180017fc8 f i libucrt:output.obj
 0001:00017040       ??0_LocaleUpdate@@QEAA@QEAU__crt_locale_pointers@@@Z 0000000180018040 f i libucrt:output.obj
 0001:000170e0       ?crop_zeroes@__crt_stdio_output@@YAXPEADQEAU__crt_locale_pointers@@@Z 00000001800180e0 f i libucrt:output.obj
 0001:00017180       ?force_decimal_point@__crt_stdio_output@@YAXPEADQEAU__crt_locale_pointers@@@Z 0000000180018180 f i libucrt:output.obj
 0001:000171f8       ?parse_int_from_format_string@?$output_processor@_WV?$string_output_adapter@_W@__crt_stdio_output@@V?$format_validation_base@_WV?$string_output_adapter@_W@__crt_stdio_output@@@2@@__crt_stdio_output@@AEAA_NQEAH@Z 00000001800181f8 f i libucrt:output.obj
 0001:0001729c       ?process@?$output_processor@_WV?$string_output_adapter@_W@__crt_stdio_output@@V?$format_validation_base@_WV?$string_output_adapter@_W@__crt_stdio_output@@@2@@__crt_stdio_output@@QEAAHXZ 000000018001829c f i libucrt:output.obj
 0001:00017514       ?state_case_size@?$output_processor@_WV?$string_output_adapter@_W@__crt_stdio_output@@V?$format_validation_base@_WV?$string_output_adapter@_W@__crt_stdio_output@@@2@@__crt_stdio_output@@AEAA_NXZ 0000000180018514 f i libucrt:output.obj
 0001:000176a8       ?state_case_type@?$output_processor@_WV?$string_output_adapter@_W@__crt_stdio_output@@V?$format_validation_base@_WV?$string_output_adapter@_W@__crt_stdio_output@@@2@@__crt_stdio_output@@AEAA_NXZ 00000001800186a8 f i libucrt:output.obj
 0001:00017980       ?to_integer_size@__crt_stdio_output@@YA_KW4length_modifier@1@@Z 0000000180018980 f i libucrt:output.obj
 0001:000179e8       ?type_case_Z@?$output_processor@_WV?$string_output_adapter@_W@__crt_stdio_output@@V?$format_validation_base@_WV?$string_output_adapter@_W@__crt_stdio_output@@@2@@__crt_stdio_output@@AEAA_NXZ 00000001800189e8 f i libucrt:output.obj
 0001:00017a64       ?type_case_a@?$output_processor@_WV?$string_output_adapter@_W@__crt_stdio_output@@V?$format_validation_base@_WV?$string_output_adapter@_W@__crt_stdio_output@@@2@@__crt_stdio_output@@AEAA_NXZ 0000000180018a64 f i libucrt:output.obj
 0001:00017c44       ?type_case_c_tchar@?$output_processor@_WV?$string_output_adapter@_W@__crt_stdio_output@@V?$format_validation_base@_WV?$string_output_adapter@_W@__crt_stdio_output@@@2@@__crt_stdio_output@@AEAA_N_W@Z 0000000180018c44 f i libucrt:output.obj
 0001:00017cec       ?type_case_integer@?$output_processor@_WV?$string_output_adapter@_W@__crt_stdio_output@@V?$format_validation_base@_WV?$string_output_adapter@_W@__crt_stdio_output@@@2@@__crt_stdio_output@@AEAA_NI_N@Z 0000000180018cec f i libucrt:output.obj
 0001:00017e74       ?type_case_n@?$output_processor@_WV?$string_output_adapter@_W@__crt_stdio_output@@V?$format_validation_base@_WV?$string_output_adapter@_W@__crt_stdio_output@@@2@@__crt_stdio_output@@AEAA_NXZ 0000000180018e74 f i libucrt:output.obj
 0001:00017efc       ?type_case_s@?$output_processor@_WV?$string_output_adapter@_W@__crt_stdio_output@@V?$format_validation_base@_WV?$string_output_adapter@_W@__crt_stdio_output@@@2@@__crt_stdio_output@@AEAA_NXZ 0000000180018efc f i libucrt:output.obj
 0001:00017fc4       ?write_stored_string_tchar@?$output_processor@_WV?$string_output_adapter@_W@__crt_stdio_output@@V?$format_validation_base@_WV?$string_output_adapter@_W@__crt_stdio_output@@@2@@__crt_stdio_output@@AEAA_N_W@Z 0000000180018fc4 f i libucrt:output.obj
 0001:000180ac       ?write_string@?$string_output_adapter@_W@__crt_stdio_output@@QEBAXQEB_WHQEAHAEAV__crt_deferred_errno_cache@@@Z 00000001800190ac f i libucrt:output.obj
 0001:00018154       __stdio_common_vswprintf_s 0000000180019154 f   libucrt:output.obj
 0001:000181c4       _seh_filter_dll            00000001800191c4 f   libucrt:exception_filter.obj
 0001:000181d8       _seh_filter_exe            00000001800191d8 f   libucrt:exception_filter.obj
 0001:000185c8       __acrt_initialize_thread_local_exit_callback 00000001800195c8 f   libucrt:exit.obj
 0001:000185d0       _cexit                     00000001800195d0 f   libucrt:exit.obj
 0001:000185e0       _exit                      00000001800195e0 f   libucrt:exit.obj
 0001:000185ec       _is_c_termination_complete 00000001800195ec f   libucrt:exit.obj
 0001:000187b4       __acrt_allocate_buffer_for_argv 00000001800197b4 f   libucrt:argv_parsing.obj
 0001:00018814       _configure_narrow_argv     0000000180019814 f   libucrt:argv_parsing.obj
 0001:00018b8c       __dcrt_uninitialize_environments_nolock 0000000180019b8c f   libucrt:environment_initialization.obj
 0001:00018bc4       _initialize_narrow_environment 0000000180019bc4 f   libucrt:environment_initialization.obj
 0001:00018f0c       _crt_atexit                0000000180019f0c f   libucrt:onexit.obj
 0001:00018f1c       _execute_onexit_table      0000000180019f1c f   libucrt:onexit.obj
 0001:00018f58       _initialize_onexit_table   0000000180019f58 f   libucrt:onexit.obj
 0001:00018f80       _register_onexit_function  0000000180019f80 f   libucrt:onexit.obj
 0001:00019000       __acrt_uninitialize_command_line 000000018001a000 f   libucrt:argv_data.obj
 0001:000190f8       __acrt_initialize          000000018001a0f8 f   libucrt:initialization.obj
 0001:0001910c       __acrt_thread_attach       000000018001a10c f   libucrt:initialization.obj
 0001:00019120       __acrt_thread_detach       000000018001a120 f   libucrt:initialization.obj
 0001:00019130       __acrt_uninitialize        000000018001a130 f   libucrt:initialization.obj
 0001:00019168       __acrt_uninitialize_critical 000000018001a168 f   libucrt:initialization.obj
 0001:00019178       _initterm                  000000018001a178 f   libucrt:initterm.obj
 0001:000191dc       _initterm_e                000000018001a1dc f   libucrt:initterm.obj
 0001:0001921c       __acrt_initialize_new_handler 000000018001a21c f   libucrt:new_handler.obj
 0001:00019224       _callnewh                  000000018001a224 f   libucrt:new_handler.obj
 0001:00019254       _query_new_handler         000000018001a254 f   libucrt:new_handler.obj
 0001:00019288       terminate                  000000018001a288 f   libucrt:terminate.obj
 0001:000192a8       abort                      000000018001a2a8 f   libucrt:abort.obj
 0001:00019300       strcpy_s                   000000018001a300 f   libucrt:strcpy_s.obj
 0001:00019360       ??$parse_integer@KV?$c_string_character_source@_W@__crt_strtox@@@__crt_strtox@@YAKQEAU__crt_locale_pointers@@V?$c_string_character_source@_W@0@H_N@Z 000000018001a360 f i libucrt:atox.obj
 0001:00019a20       strncmp                    000000018001aa20 f   libucrt:strncmp.obj
 0001:00019aa0       wcsncmp                    000000018001aaa0 f   libucrt:wcsncmp.obj
 0001:00019acc       _free_base                 000000018001aacc f   libucrt:free_base.obj
 0001:00019e84       __acrt_freeptd             000000018001ae84 f   libucrt:per_thread_data.obj
 0001:00019ec8       __acrt_getptd              000000018001aec8 f   libucrt:per_thread_data.obj
 0001:00019f9c       __acrt_getptd_head         000000018001af9c f   libucrt:per_thread_data.obj
 0001:0001a044       __acrt_getptd_noexit       000000018001b044 f   libucrt:per_thread_data.obj
 0001:0001a110       __acrt_initialize_ptd      000000018001b110 f   libucrt:per_thread_data.obj
 0001:0001a14c       __acrt_uninitialize_ptd    000000018001b14c f   libucrt:per_thread_data.obj
 0001:0001a170       _calloc_base               000000018001b170 f   libucrt:calloc_base.obj
 0001:0001a1e8       _malloc_base               000000018001b1e8 f   libucrt:malloc_base.obj
 0001:0001a248       _msize_base                000000018001b248 f   libucrt:msize.obj
 0001:0001a284       _realloc_base              000000018001b284 f   libucrt:realloc_base.obj
 0001:0001a4d8       __acrt_AppPolicyGetProcessTerminationMethodInternal 000000018001b4d8 f   libucrt:winapi_thunks.obj
 0001:0001a528       __acrt_AreFileApisANSI     000000018001b528 f   libucrt:winapi_thunks.obj
 0001:0001a564       __acrt_FlsAlloc            000000018001b564 f   libucrt:winapi_thunks.obj
 0001:0001a5ac       __acrt_FlsFree             000000018001b5ac f   libucrt:winapi_thunks.obj
 0001:0001a5f4       __acrt_FlsGetValue         000000018001b5f4 f   libucrt:winapi_thunks.obj
 0001:0001a63c       __acrt_FlsSetValue         000000018001b63c f   libucrt:winapi_thunks.obj
 0001:0001a690       __acrt_InitializeCriticalSectionEx 000000018001b690 f   libucrt:winapi_thunks.obj
 0001:0001a6f4       __acrt_LCMapStringEx       000000018001b6f4 f   libucrt:winapi_thunks.obj
 0001:0001a7d0       __acrt_LocaleNameToLCID    000000018001b7d0 f   libucrt:winapi_thunks.obj
 0001:0001a820       __acrt_SetThreadStackGuarantee 000000018001b820 f   libucrt:winapi_thunks.obj
 0001:0001a864       __acrt_initialize_winapi_thunks 000000018001b864 f   libucrt:winapi_thunks.obj
 0001:0001a898       __acrt_uninitialize_winapi_thunks 000000018001b898 f   libucrt:winapi_thunks.obj
 0001:0001a8dc       wcstol                     000000018001b8dc f   libucrt:strtox.obj
 0001:0001a908       _mbtowc_l                  000000018001b908 f   libucrt:mbtowc.obj
 0001:0001aa88       mbtowc                     000000018001ba88 f   libucrt:mbtowc.obj
 0001:0001aa90       wcsnlen                    000000018001ba90 f   libucrt:strnlen.obj
 0001:0001ac68       __acrt_update_locale_info  000000018001bc68 f   libucrt:locale_update.obj
 0001:0001ac9c       __acrt_update_multibyte_info 000000018001bc9c f   libucrt:locale_update.obj
 0001:0001b6d4       __acrt_fp_format           000000018001c6d4 f   libucrt:cvt.obj
 0001:0001ba0c       _fileno                    000000018001ca0c f   libucrt:fileno.obj
 0001:0001ba34       __acrt_initialize_stdio    000000018001ca34 f   libucrt:_file.obj
 0001:0001bb54       __acrt_uninitialize_stdio  000000018001cb54 f   libucrt:_file.obj
 0001:0001bbb0       _lock_file                 000000018001cbb0 f   libucrt:_file.obj
 0001:0001bbbc       _unlock_file               000000018001cbbc f   libucrt:_file.obj
 0001:0001bbc8       _get_printf_count_output   000000018001cbc8 f   libucrt:printf_count_output.obj
 0001:0001bc50       __acrt_set_locale_changed  000000018001cc50 f   libucrt:wsetlocale.obj
 0001:0001bc5c       __acrt_uninitialize_locale 000000018001cc5c f   libucrt:wsetlocale.obj
 0001:0001be88       __acrt_initialize_lowio    000000018001ce88 f   libucrt:ioinit.obj
 0001:0001bec4       __acrt_uninitialize_lowio  000000018001cec4 f   libucrt:ioinit.obj
 0001:0001bf04       __acrt_initialize_locks    000000018001cf04 f   libucrt:locks.obj
 0001:0001bf4c       __acrt_lock                000000018001cf4c f   libucrt:locks.obj
 0001:0001bf68       __acrt_uninitialize_locks  000000018001cf68 f   libucrt:locks.obj
 0001:0001bfa0       __acrt_unlock              000000018001cfa0 f   libucrt:locks.obj
 0001:0001bfbc       __acrt_get_process_end_policy 000000018001cfbc f   libucrt:win_policies.obj
 0001:0001c00c       ??$__acrt_mbs_to_wcs_cp@U__crt_win32_buffer_internal_dynamic_resizing@@@@YAHQEBDAEAV?$__crt_win32_buffer@_WU__crt_win32_buffer_internal_dynamic_resizing@@@@I@Z 000000018001d00c f i libucrt:argv_wildcards.obj
 0001:0001c184       ??$__acrt_wcs_to_mbs_cp@U__crt_win32_buffer_internal_dynamic_resizing@@@@YAHQEB_WAEAV?$__crt_win32_buffer@DU__crt_win32_buffer_internal_dynamic_resizing@@@@I@Z 000000018001d184 f i libucrt:argv_wildcards.obj
 0001:0001c9b4       __acrt_expand_narrow_argv_wildcards 000000018001d9b4 f   libucrt:argv_wildcards.obj
 0001:0001c9bc       ??$__acrt_wcs_to_mbs_cp@U__crt_win32_buffer_no_resizing@@@@YAHQEB_WAEAV?$__crt_win32_buffer@DU__crt_win32_buffer_no_resizing@@@@I@Z 000000018001d9bc f i libucrt:getmodulefilenamea.obj
 0001:0001cad0       __acrt_GetModuleFileNameA  000000018001dad0 f   libucrt:getmodulefilenamea.obj
 0001:0001d318       __acrt_initialize_multibyte 000000018001e318 f   libucrt:mbctype.obj
 0001:0001d378       __acrt_update_thread_multibyte_data 000000018001e378 f   libucrt:mbctype.obj
 0001:0001d394       _setmbcp_nolock            000000018001e394 f   libucrt:mbctype.obj
 0001:0001d6c8       _ismbblead                 000000018001e6c8 f   libucrt:ismbbyte.obj
 0001:0001d6dc       __acrt_initialize_command_line 000000018001e6dc f   libucrt:argv_data.obj
 0001:0001d704       __acrt_MultiByteToWideChar 000000018001e704 f   libucrt:multibytetowidechar.obj
 0001:0001d760       __acrt_WideCharToMultiByte 000000018001e760 f   libucrt:widechartomultibyte.obj
 0001:0001d810       __dcrt_get_narrow_environment_from_os 000000018001e810 f   libucrt:get_environment_from_os.obj
 0001:0001d914       __acrt_initialize_heap     000000018001e914 f   libucrt:heap_handle.obj
 0001:0001d930       __acrt_uninitialize_heap   000000018001e930 f   libucrt:heap_handle.obj
 0001:0001d93c       __acrt_execute_initializers 000000018001e93c f   libucrt:shared_initialization.obj
 0001:0001d9bc       __acrt_execute_uninitializers 000000018001e9bc f   libucrt:shared_initialization.obj
 0001:0001da40       __acrt_get_sigabrt_handler 000000018001ea40 f   libucrt:signal.obj
 0001:0001da70       __acrt_initialize_signal_handlers 000000018001ea70 f   libucrt:signal.obj
 0001:0001da90       raise                      000000018001ea90 f   libucrt:signal.obj
 0001:0001dcfc       __acrt_has_user_matherr    000000018001ecfc f   libucrt:matherr.obj
 0001:0001dd1c       __acrt_initialize_user_matherr 000000018001ed1c f   libucrt:matherr.obj
 0001:0001dd24       __acrt_invoke_user_matherr 000000018001ed24 f   libucrt:matherr.obj
 0001:0001df30       __acrt_stdio_flush_nolock  000000018001ef30 f   libucrt:fflush.obj
 0001:0001dfac       _fflush_nolock             000000018001efac f   libucrt:fflush.obj
 0001:0001dff8       _flushall                  000000018001eff8 f   libucrt:fflush.obj
 0001:0001e000       __pctype_func              000000018001f000 f   libucrt:ctype.obj
 0001:0001e030       iswctype                   000000018001f030 f   libucrt:iswctype.obj
 0001:0001e09c       __acrt_add_locale_ref      000000018001f09c f   libucrt:locale_refcounting.obj
 0001:0001e128       __acrt_free_locale         000000018001f128 f   libucrt:locale_refcounting.obj
 0001:0001e2a0       __acrt_locale_add_lc_time_reference 000000018001f2a0 f   libucrt:locale_refcounting.obj
 0001:0001e2c8       __acrt_locale_free_lc_time_if_unreferenced 000000018001f2c8 f   libucrt:locale_refcounting.obj
 0001:0001e300       __acrt_locale_release_lc_time_reference 000000018001f300 f   libucrt:locale_refcounting.obj
 0001:0001e328       __acrt_release_locale_ref  000000018001f328 f   libucrt:locale_refcounting.obj
 0001:0001e3d0       __acrt_update_thread_locale_data 000000018001f3d0 f   libucrt:locale_refcounting.obj
 0001:0001e440       _updatetlocinfoEx_nolock   000000018001f440 f   libucrt:locale_refcounting.obj
 0001:0001e4a8       _query_new_mode            000000018001f4a8 f   libucrt:new_mode.obj
 0001:0001e4b0       __acrt_DownlevelLocaleNameToLCID 000000018001f4b0 f   libucrt:lcidtoname_downlevel.obj
 0001:0001e560       _isleadbyte_l              000000018001f560 f i libucrt:_wctype.obj
 0001:0001e5ac       ?__mbrtowc_utf8@__crt_mbstring@@YA_KPEA_WPEBD_KPEAU_Mbstatet@@@Z 000000018001f5ac f   libucrt:mbrtowc.obj
 0001:0001e5e8       ?__mbsrtowcs_utf8@__crt_mbstring@@YA_KPEA_WPEAPEBD_KPEAU_Mbstatet@@@Z 000000018001f5e8 f   libucrt:mbrtowc.obj
 0001:0001e760       __acrt_fp_strflt_to_string 000000018001f760 f   libucrt:_fptostr.obj
 0001:0001e8b0       ?divide@__crt_strtox@@YA_KAEAUbig_integer@1@AEBU21@@Z 000000018001f8b0 f i libucrt:cfout.obj
 0001:0001ecdc       __acrt_fltout              000000018001fcdc f   libucrt:cfout.obj
 0001:0001ffa8       fegetround                 0000000180020fa8 f   libucrt:fegetround.obj
 0001:0001ffbc       _fcloseall                 0000000180020fbc f   libucrt:closeall.obj
 0001:00020070       __acrt_stdio_free_buffer_nolock 0000000180021070 f   libucrt:_freebuf.obj
 0001:000200b0       _isatty                    00000001800210b0 f   libucrt:isatty.obj
 0001:00020110       __acrt_locale_free_monetary 0000000180021110 f   libucrt:initmon.obj
 0001:0002021c       __acrt_locale_free_numeric 000000018002121c f   libucrt:initnum.obj
 0001:000202e0       __acrt_locale_free_time    00000001800212e0 f   libucrt:inittime.obj
 0001:000203e8       __acrt_GetStringTypeA      00000001800213e8 f   libucrt:getstringtypea.obj
 0001:00020578       __acrt_lowio_create_handle_array 0000000180021578 f   libucrt:osfinfo.obj
 0001:00020620       __acrt_lowio_destroy_handle_array 0000000180021620 f   libucrt:osfinfo.obj
 0001:00020670       __acrt_lowio_ensure_fh_exists 0000000180021670 f   libucrt:osfinfo.obj
 0001:00020718       __acrt_lowio_lock_fh       0000000180021718 f   libucrt:osfinfo.obj
 0001:00020740       __acrt_lowio_unlock_fh     0000000180021740 f   libucrt:osfinfo.obj
 0001:00020768       _free_osfhnd               0000000180021768 f   libucrt:osfinfo.obj
 0001:00020824       _get_osfhandle             0000000180021824 f   libucrt:osfinfo.obj
 0001:000208a0       qsort                      00000001800218a0 f   libucrt:qsort.obj
 0001:00020c40       strncpy_s                  0000000180021c40 f   libucrt:strncpy_s.obj
 0001:00020dc0       strpbrk                    0000000180021dc0 f   libucrt:strpbrk.obj
 0001:00021188       _mbsdec                    0000000180022188 f   libucrt:mbsdec.obj
 0001:00021190       _mbsdec_l                  0000000180022190 f   libucrt:mbsdec.obj
 0001:0002153c       __acrt_LCMapStringA        000000018002253c f   libucrt:lcmapstringa.obj
 0001:00021678       _commit                    0000000180022678 f   libucrt:commit.obj
 0001:00021f88       _write                     0000000180022f88 f   libucrt:write.obj
 0001:00022074       _write_nolock              0000000180023074 f   libucrt:write.obj
 0001:00022358       __acrt_GetStringTypeW      0000000180023358 f   libucrt:getstringtypew.obj
 0001:00022360       __ascii_wcsnicmp           0000000180023360 f   libucrt:wcsnicmp.obj
 0001:000223ac       ?__mbrtoc32_utf8@__crt_mbstring@@YA_KPEA_UPEBD_KPEAU_Mbstatet@@@Z 00000001800233ac f   libucrt:mbrtoc32.obj
 0001:00022584       _controlfp_s               0000000180023584 f   libucrt:contrlfp.obj
 0001:000225e8       fegetenv                   00000001800235e8 f   libucrt:fegetenv.obj
 0001:00022608       fesetenv                   0000000180023608 f   libucrt:fesetenv.obj
 0001:00022654       feholdexcept               0000000180023654 f   libucrt:feholdexcept.obj
 0001:000226a4       ceil                       00000001800236a4 f   libucrt:ceil.obj
 0001:00022770       log10                      0000000180023770 f   libucrt:log10.obj
 0001:00022d1c       __acrt_fenv_get_common_round_control 0000000180023d1c f   libucrt:_fenvutils.obj
 0001:00022d28       __acrt_fenv_get_control    0000000180023d28 f   libucrt:_fenvutils.obj
 0001:00022e1c       __acrt_fenv_get_status     0000000180023e1c f   libucrt:_fenvutils.obj
 0001:00022e70       __acrt_fenv_set_control    0000000180023e70 f   libucrt:_fenvutils.obj
 0001:00022fb8       __acrt_fenv_set_status     0000000180023fb8 f   libucrt:_fenvutils.obj
 0001:000230d8       _lseeki64_nolock           00000001800240d8 f   libucrt:lseek.obj
 0001:000230e0       _fclose_nolock             00000001800240e0 f   libucrt:fclose.obj
 0001:00023164       fclose                     0000000180024164 f   libucrt:fclose.obj
 0001:000231c8       _query_app_type            00000001800241c8 f   libucrt:report_runtime_error.obj
 0001:000231d0       __strncnt                  00000001800241d0 f   libucrt:strncnt.obj
 0001:000231e8       _putwch_nolock             00000001800241e8 f   libucrt:putwch.obj
 0001:00023224       _clearfp                   0000000180024224 f   libucrt:ieee.obj
 0001:00023294       _control87                 0000000180024294 f   libucrt:ieee.obj
 0001:00023680       _handle_error              0000000180024680 f   libucrt:libm_error.obj
 0001:000237a8       _handle_nan                00000001800247a8 f   libucrt:libm_error.obj
 0001:000237d0       __acrt_initialize_fma3     00000001800247d0 f   libucrt:fma3_available.obj
 0001:00023840       _log10_special             0000000180024840 f   libucrt:log_special.obj
 0001:0002396c       _close                     000000018002496c f   libucrt:close.obj
 0001:00023a10       _close_nolock              0000000180024a10 f   libucrt:close.obj
 0001:00023ad0       ?__acrt_stdio_free_stream@@YAXV__crt_stdio_stream@@@Z 0000000180024ad0 f   libucrt:stream.obj
 0001:00023aec       __dcrt_lowio_ensure_console_output_initialized 0000000180024aec f   libucrt:initcon.obj
 0001:00023b40       __dcrt_terminate_console_output 0000000180024b40 f   libucrt:initcon.obj
 0001:00023b5c       __dcrt_write_console       0000000180024b5c f   libucrt:initcon.obj
 0001:00023c30       _get_fpsr                  0000000180024c30 f   libucrt:fpsr.obj
 0001:00023c40       _set_fpsr                  0000000180024c40 f   libucrt:fpsr.obj
 0001:00023c4a       _fclrf                     0000000180024c4a f   libucrt:fpsr.obj
 0001:00023c5e       _frnd                      0000000180024c5e f   libucrt:fpsr.obj
 0001:00023c80       _raise_exc                 0000000180024c80 f   libucrt:fpexcept.obj
 0001:00023ca8       _raise_exc_ex              0000000180024ca8 f   libucrt:fpexcept.obj
 0001:00023fb8       _set_errno_from_matherr    0000000180024fb8 f   libucrt:fpexcept.obj
 0001:00023fe8       _clrfp                     0000000180024fe8 f   libucrt:fpctrl.obj
 0001:00024008       _ctrlfp                    0000000180025008 f   libucrt:fpctrl.obj
 0001:00024084       _set_statfp                0000000180025084 f   libucrt:fpctrl.obj
 0001:000240a4       _statfp                    00000001800250a4 f   libucrt:fpctrl.obj
 0001:000240b5       IsProcessorFeaturePresent  00000001800250b5 f   kernel32:KERNEL32.dll
 0001:000240c0       _FindPESection             00000001800250c0 f   LIBCMT:pesect.obj
 0001:00024110       _IsNonwritableInCurrentImage 0000000180025110 f   LIBCMT:pesect.obj
 0001:00024160       _ValidateImageBase         0000000180025160 f   LIBCMT:pesect.obj
 0001:00024190       strrchr                    0000000180025190 f   libvcruntime:strrchr.obj
 0001:000242d0       _guard_dispatch_icall_nop  00000001800252d0 f   LIBCMT:guard_dispatch.obj
 0001:000242f0       _guard_xfg_dispatch_icall_nop 00000001800252f0 f   LIBCMT:guard_xfg_dispatch.obj
 0002:00000000       __imp_RegQueryValueExW     0000000180026000     advapi32:ADVAPI32.dll
 0002:00000008       __imp_RegSetValueExW       0000000180026008     advapi32:ADVAPI32.dll
 0002:00000010       __imp_RegQueryInfoKeyW     0000000180026010     advapi32:ADVAPI32.dll
 0002:00000018       __imp_RegOpenKeyExW        0000000180026018     advapi32:ADVAPI32.dll
 0002:00000020       __imp_RegEnumKeyExW        0000000180026020     advapi32:ADVAPI32.dll
 0002:00000028       __imp_RegDeleteValueW      0000000180026028     advapi32:ADVAPI32.dll
 0002:00000030       __imp_RegDeleteKeyW        0000000180026030     advapi32:ADVAPI32.dll
 0002:00000038       __imp_RegCreateKeyExW      0000000180026038     advapi32:ADVAPI32.dll
 0002:00000040       __imp_RegCloseKey          0000000180026040     advapi32:ADVAPI32.dll
 0002:00000048       \177ADVAPI32_NULL_THUNK_DATA 0000000180026048     advapi32:ADVAPI32.dll
 0002:00000050       __imp_GetObjectW           0000000180026050     gdi32:GDI32.dll
 0002:00000058       __imp_SelectObject         0000000180026058     gdi32:GDI32.dll
 0002:00000060       __imp_DeleteObject         0000000180026060     gdi32:GDI32.dll
 0002:00000068       __imp_CreateCompatibleDC   0000000180026068     gdi32:GDI32.dll
 0002:00000070       __imp_BitBlt               0000000180026070     gdi32:GDI32.dll
 0002:00000078       __imp_SetWindowOrgEx       0000000180026078     gdi32:GDI32.dll
 0002:00000080       __imp_SetWindowExtEx       0000000180026080     gdi32:GDI32.dll
 0002:00000088       __imp_SetViewportOrgEx     0000000180026088     gdi32:GDI32.dll
 0002:00000090       __imp_LPtoDP               0000000180026090     gdi32:GDI32.dll
 0002:00000098       __imp_SetMapMode           0000000180026098     gdi32:GDI32.dll
 0002:000000a0       __imp_SaveDC               00000001800260a0     gdi32:GDI32.dll
 0002:000000a8       __imp_RestoreDC            00000001800260a8     gdi32:GDI32.dll
 0002:000000b0       __imp_GetDeviceCaps        00000001800260b0     gdi32:GDI32.dll
 0002:000000b8       __imp_DeleteMetaFile       00000001800260b8     gdi32:GDI32.dll
 0002:000000c0       __imp_DeleteDC             00000001800260c0     gdi32:GDI32.dll
 0002:000000c8       __imp_CreateRectRgnIndirect 00000001800260c8     gdi32:GDI32.dll
 0002:000000d0       __imp_CreateMetaFileW      00000001800260d0     gdi32:GDI32.dll
 0002:000000d8       __imp_CreateDCW            00000001800260d8     gdi32:GDI32.dll
 0002:000000e0       __imp_CloseMetaFile        00000001800260e0     gdi32:GDI32.dll
 0002:000000e8       \177GDI32_NULL_THUNK_DATA  00000001800260e8     gdi32:GDI32.dll
 0002:000000f0       __imp_CloseHandle          00000001800260f0     kernel32:KERNEL32.dll
 0002:000000f8       __imp_SetEvent             00000001800260f8     kernel32:KERNEL32.dll
 0002:00000100       __imp_CreateMutexW         0000000180026100     kernel32:KERNEL32.dll
 0002:00000108       __imp_CreateEventW         0000000180026108     kernel32:KERNEL32.dll
 0002:00000110       __imp_GetCurrentProcessId  0000000180026110     kernel32:KERNEL32.dll
 0002:00000118       __imp_WriteConsoleW        0000000180026118     kernel32:KERNEL32.dll
 0002:00000120       __imp_CreateFileW          0000000180026120     kernel32:KERNEL32.dll
 0002:00000128       __imp_GetConsoleMode       0000000180026128     kernel32:KERNEL32.dll
 0002:00000130       __imp_GetConsoleOutputCP   0000000180026130     kernel32:KERNEL32.dll
 0002:00000138       __imp_WriteFile            0000000180026138     kernel32:KERNEL32.dll
 0002:00000140       __imp_FlushFileBuffers     0000000180026140     kernel32:KERNEL32.dll
 0002:00000148       __imp_SetStdHandle         0000000180026148     kernel32:KERNEL32.dll
 0002:00000150       __imp_GetStringTypeW       0000000180026150     kernel32:KERNEL32.dll
 0002:00000158       __imp_SetFilePointerEx     0000000180026158     kernel32:KERNEL32.dll
 0002:00000160       __imp_FreeEnvironmentStringsW 0000000180026160     kernel32:KERNEL32.dll
 0002:00000168       __imp_lstrcmpiW            0000000180026168     kernel32:KERNEL32.dll
 0002:00000170       __imp_GetCommandLineW      0000000180026170     kernel32:KERNEL32.dll
 0002:00000178       __imp_GetCommandLineA      0000000180026178     kernel32:KERNEL32.dll
 0002:00000180       __imp_GetCPInfo            0000000180026180     kernel32:KERNEL32.dll
 0002:00000188       __imp_GetOEMCP             0000000180026188     kernel32:KERNEL32.dll
 0002:00000190       __imp_GetACP               0000000180026190     kernel32:KERNEL32.dll
 0002:00000198       __imp_IsValidCodePage      0000000180026198     kernel32:KERNEL32.dll
 0002:000001a0       __imp_FindNextFileW        00000001800261a0     kernel32:KERNEL32.dll
 0002:000001a8       __imp_FindFirstFileExW     00000001800261a8     kernel32:KERNEL32.dll
 0002:000001b0       __imp_FindClose            00000001800261b0     kernel32:KERNEL32.dll
 0002:000001b8       __imp_GetFileType          00000001800261b8     kernel32:KERNEL32.dll
 0002:000001c0       __imp_GetStdHandle         00000001800261c0     kernel32:KERNEL32.dll
 0002:000001c8       __imp_LCMapStringW         00000001800261c8     kernel32:KERNEL32.dll
 0002:000001d0       __imp_HeapReAlloc          00000001800261d0     kernel32:KERNEL32.dll
 0002:000001d8       __imp_HeapSize             00000001800261d8     kernel32:KERNEL32.dll
 0002:000001e0       __imp_MulDiv               00000001800261e0     kernel32:KERNEL32.dll
 0002:000001e8       __imp_GlobalLock           00000001800261e8     kernel32:KERNEL32.dll
 0002:000001f0       __imp_GlobalUnlock         00000001800261f0     kernel32:KERNEL32.dll
 0002:000001f8       __imp_GlobalAlloc          00000001800261f8     kernel32:KERNEL32.dll
 0002:00000200       __imp_FindResourceW        0000000180026200     kernel32:KERNEL32.dll
 0002:00000208       __imp_SizeofResource       0000000180026208     kernel32:KERNEL32.dll
 0002:00000210       __imp_LoadResource         0000000180026210     kernel32:KERNEL32.dll
 0002:00000218       __imp_LoadLibraryExW       0000000180026218     kernel32:KERNEL32.dll
 0002:00000220       __imp_GetProcAddress       0000000180026220     kernel32:KERNEL32.dll
 0002:00000228       __imp_GetModuleHandleW     0000000180026228     kernel32:KERNEL32.dll
 0002:00000230       __imp_GetModuleFileNameW   0000000180026230     kernel32:KERNEL32.dll
 0002:00000238       __imp_FreeLibrary          0000000180026238     kernel32:KERNEL32.dll
 0002:00000240       __imp_DisableThreadLibraryCalls 0000000180026240     kernel32:KERNEL32.dll
 0002:00000248       __imp_GetCurrentThreadId   0000000180026248     kernel32:KERNEL32.dll
 0002:00000250       __imp_Sleep                0000000180026250     kernel32:KERNEL32.dll
 0002:00000258       __imp_WaitForSingleObject  0000000180026258     kernel32:KERNEL32.dll
 0002:00000260       __imp_ReleaseMutex         0000000180026260     kernel32:KERNEL32.dll
 0002:00000268       __imp_ResetEvent           0000000180026268     kernel32:KERNEL32.dll
 0002:00000270       __imp_EnterCriticalSection 0000000180026270     kernel32:KERNEL32.dll
 0002:00000278       __imp_LeaveCriticalSection 0000000180026278     kernel32:KERNEL32.dll
 0002:00000280       __imp_SetLastError         0000000180026280     kernel32:KERNEL32.dll
 0002:00000288       __imp_EncodePointer        0000000180026288     kernel32:KERNEL32.dll
 0002:00000290       __imp_DeleteCriticalSection 0000000180026290     kernel32:KERNEL32.dll
 0002:00000298       __imp_InitializeCriticalSectionEx 0000000180026298     kernel32:KERNEL32.dll
 0002:000002a0       __imp_GetLastError         00000001800262a0     kernel32:KERNEL32.dll
 0002:000002a8       __imp_RaiseException       00000001800262a8     kernel32:KERNEL32.dll
 0002:000002b0       __imp_DecodePointer        00000001800262b0     kernel32:KERNEL32.dll
 0002:000002b8       __imp_WideCharToMultiByte  00000001800262b8     kernel32:KERNEL32.dll
 0002:000002c0       __imp_GetEnvironmentStringsW 00000001800262c0     kernel32:KERNEL32.dll
 0002:000002c8       __imp_MultiByteToWideChar  00000001800262c8     kernel32:KERNEL32.dll
 0002:000002d0       __imp_GetModuleHandleExW   00000001800262d0     kernel32:KERNEL32.dll
 0002:000002d8       __imp_ExitProcess          00000001800262d8     kernel32:KERNEL32.dll
 0002:000002e0       __imp_VirtualQuery         00000001800262e0     kernel32:KERNEL32.dll
 0002:000002e8       __imp_VirtualProtect       00000001800262e8     kernel32:KERNEL32.dll
 0002:000002f0       __imp_GetSystemInfo        00000001800262f0     kernel32:KERNEL32.dll
 0002:000002f8       __imp_TlsFree              00000001800262f8     kernel32:KERNEL32.dll
 0002:00000300       __imp_TlsSetValue          0000000180026300     kernel32:KERNEL32.dll
 0002:00000308       __imp_TlsGetValue          0000000180026308     kernel32:KERNEL32.dll
 0002:00000310       __imp_TlsAlloc             0000000180026310     kernel32:KERNEL32.dll
 0002:00000318       __imp_RtlPcToFileHeader    0000000180026318     kernel32:KERNEL32.dll
 0002:00000320       __imp_InterlockedFlushSList 0000000180026320     kernel32:KERNEL32.dll
 0002:00000328       __imp_RtlUnwindEx          0000000180026328     kernel32:KERNEL32.dll
 0002:00000330       __imp_LoadLibraryExA       0000000180026330     kernel32:KERNEL32.dll
 0002:00000338       __imp_VirtualFree          0000000180026338     kernel32:KERNEL32.dll
 0002:00000340       __imp_VirtualAlloc         0000000180026340     kernel32:KERNEL32.dll
 0002:00000348       __imp_FlushInstructionCache 0000000180026348     kernel32:KERNEL32.dll
 0002:00000350       __imp_InterlockedPushEntrySList 0000000180026350     kernel32:KERNEL32.dll
 0002:00000358       __imp_InterlockedPopEntrySList 0000000180026358     kernel32:KERNEL32.dll
 0002:00000360       __imp_GetProcessHeap       0000000180026360     kernel32:KERNEL32.dll
 0002:00000368       __imp_HeapFree             0000000180026368     kernel32:KERNEL32.dll
 0002:00000370       __imp_HeapAlloc            0000000180026370     kernel32:KERNEL32.dll
 0002:00000378       __imp_OutputDebugStringW   0000000180026378     kernel32:KERNEL32.dll
 0002:00000380       __imp_InitializeSListHead  0000000180026380     kernel32:KERNEL32.dll
 0002:00000388       __imp_GetSystemTimeAsFileTime 0000000180026388     kernel32:KERNEL32.dll
 0002:00000390       __imp_QueryPerformanceCounter 0000000180026390     kernel32:KERNEL32.dll
 0002:00000398       __imp_GetStartupInfoW      0000000180026398     kernel32:KERNEL32.dll
 0002:000003a0       __imp_IsDebuggerPresent    00000001800263a0     kernel32:KERNEL32.dll
 0002:000003a8       __imp_IsProcessorFeaturePresent 00000001800263a8     kernel32:KERNEL32.dll
 0002:000003b0       __imp_TerminateProcess     00000001800263b0     kernel32:KERNEL32.dll
 0002:000003b8       __imp_GetCurrentProcess    00000001800263b8     kernel32:KERNEL32.dll
 0002:000003c0       __imp_InitializeCriticalSectionAndSpinCount 00000001800263c0     kernel32:KERNEL32.dll
 0002:000003c8       __imp_WaitForSingleObjectEx 00000001800263c8     kernel32:KERNEL32.dll
 0002:000003d0       __imp_RtlCaptureContext    00000001800263d0     kernel32:KERNEL32.dll
 0002:000003d8       __imp_RtlLookupFunctionEntry 00000001800263d8     kernel32:KERNEL32.dll
 0002:000003e0       __imp_RtlVirtualUnwind     00000001800263e0     kernel32:KERNEL32.dll
 0002:000003e8       __imp_UnhandledExceptionFilter 00000001800263e8     kernel32:KERNEL32.dll
 0002:000003f0       __imp_SetUnhandledExceptionFilter 00000001800263f0     kernel32:KERNEL32.dll
 0002:000003f8       \177KERNEL32_NULL_THUNK_DATA 00000001800263f8     kernel32:KERNEL32.dll
 0002:00000400       __imp_OleCreatePropertyFrame 0000000180026400     oleaut32:OLEAUT32.dll
 0002:00000408       __imp_UnRegisterTypeLib    0000000180026408     oleaut32:OLEAUT32.dll
 0002:00000410       __imp_RegisterTypeLib      0000000180026410     oleaut32:OLEAUT32.dll
 0002:00000418       __imp_LoadRegTypeLib       0000000180026418     oleaut32:OLEAUT32.dll
 0002:00000420       __imp_LoadTypeLib          0000000180026420     oleaut32:OLEAUT32.dll
 0002:00000428       __imp_VarUI4FromStr        0000000180026428     oleaut32:OLEAUT32.dll
 0002:00000430       __imp_VariantInit          0000000180026430     oleaut32:OLEAUT32.dll
 0002:00000438       __imp_SysAllocStringByteLen 0000000180026438     oleaut32:OLEAUT32.dll
 0002:00000440       __imp_SysStringByteLen     0000000180026440     oleaut32:OLEAUT32.dll
 0002:00000448       __imp_VariantChangeType    0000000180026448     oleaut32:OLEAUT32.dll
 0002:00000450       __imp_VariantClear         0000000180026450     oleaut32:OLEAUT32.dll
 0002:00000458       __imp_SysStringLen         0000000180026458     oleaut32:OLEAUT32.dll
 0002:00000460       __imp_SysFreeString        0000000180026460     oleaut32:OLEAUT32.dll
 0002:00000468       __imp_SysAllocStringLen    0000000180026468     oleaut32:OLEAUT32.dll
 0002:00000470       __imp_SysAllocString       0000000180026470     oleaut32:OLEAUT32.dll
 0002:00000478       \177OLEAUT32_NULL_THUNK_DATA 0000000180026478     oleaut32:OLEAUT32.dll
 0002:00000480       __imp_UnregisterClassW     0000000180026480     user32:USER32.dll
 0002:00000488       __imp_PostMessageW         0000000180026488     user32:USER32.dll
 0002:00000490       __imp_DefWindowProcW       0000000180026490     user32:USER32.dll
 0002:00000498       __imp_CallWindowProcW      0000000180026498     user32:USER32.dll
 0002:000004a0       __imp_RegisterClassExW     00000001800264a0     user32:USER32.dll
 0002:000004a8       __imp_GetClassInfoExW      00000001800264a8     user32:USER32.dll
 0002:000004b0       __imp_CreateWindowExW      00000001800264b0     user32:USER32.dll
 0002:000004b8       __imp_IsWindow             00000001800264b8     user32:USER32.dll
 0002:000004c0       __imp_IsChild              00000001800264c0     user32:USER32.dll
 0002:000004c8       __imp_DestroyWindow        00000001800264c8     user32:USER32.dll
 0002:000004d0       __imp_ShowWindow           00000001800264d0     user32:USER32.dll
 0002:000004d8       __imp_SetWindowPos         00000001800264d8     user32:USER32.dll
 0002:000004e0       __imp_CharNextW            00000001800264e0     user32:USER32.dll
 0002:000004e8       __imp_SetFocus             00000001800264e8     user32:USER32.dll
 0002:000004f0       __imp_LoadBitmapW          00000001800264f0     user32:USER32.dll
 0002:000004f8       __imp_RegisterClassW       00000001800264f8     user32:USER32.dll
 0002:00000500       __imp_PeekMessageW         0000000180026500     user32:USER32.dll
 0002:00000508       __imp_LoadCursorW          0000000180026508     user32:USER32.dll
 0002:00000510       __imp_GetParent            0000000180026510     user32:USER32.dll
 0002:00000518       __imp_SetWindowLongPtrW    0000000180026518     user32:USER32.dll
 0002:00000520       __imp_GetWindowLongPtrW    0000000180026520     user32:USER32.dll
 0002:00000528       __imp_PtInRect             0000000180026528     user32:USER32.dll
 0002:00000530       __imp_EqualRect            0000000180026530     user32:USER32.dll
 0002:00000538       __imp_OffsetRect           0000000180026538     user32:USER32.dll
 0002:00000540       __imp_UnionRect            0000000180026540     user32:USER32.dll
 0002:00000548       __imp_IntersectRect        0000000180026548     user32:USER32.dll
 0002:00000550       __imp_GetClientRect        0000000180026550     user32:USER32.dll
 0002:00000558       __imp_InvalidateRect       0000000180026558     user32:USER32.dll
 0002:00000560       __imp_SetWindowRgn         0000000180026560     user32:USER32.dll
 0002:00000568       __imp_EndPaint             0000000180026568     user32:USER32.dll
 0002:00000570       __imp_BeginPaint           0000000180026570     user32:USER32.dll
 0002:00000578       __imp_ReleaseDC            0000000180026578     user32:USER32.dll
 0002:00000580       __imp_GetDC                0000000180026580     user32:USER32.dll
 0002:00000588       __imp_GetKeyState          0000000180026588     user32:USER32.dll
 0002:00000590       __imp_GetFocus             0000000180026590     user32:USER32.dll
 0002:00000598       \177USER32_NULL_THUNK_DATA 0000000180026598     user32:USER32.dll
 0002:000005a0       __imp_CoCreateInstance     00000001800265a0     ole32:ole32.dll
 0002:000005a8       __imp_StringFromGUID2      00000001800265a8     ole32:ole32.dll
 0002:000005b0       __imp_CoTaskMemAlloc       00000001800265b0     ole32:ole32.dll
 0002:000005b8       __imp_CoTaskMemFree        00000001800265b8     ole32:ole32.dll
 0002:000005c0       __imp_ReadClassStm         00000001800265c0     ole32:ole32.dll
 0002:000005c8       __imp_WriteClassStm        00000001800265c8     ole32:ole32.dll
 0002:000005d0       __imp_CreateDataAdviseHolder 00000001800265d0     ole32:ole32.dll
 0002:000005d8       __imp_OleSaveToStream      00000001800265d8     ole32:ole32.dll
 0002:000005e0       __imp_CreateOleAdviseHolder 00000001800265e0     ole32:ole32.dll
 0002:000005e8       __imp_OleRegGetUserType    00000001800265e8     ole32:ole32.dll
 0002:000005f0       __imp_OleRegGetMiscStatus  00000001800265f0     ole32:ole32.dll
 0002:000005f8       __imp_OleRegEnumVerbs      00000001800265f8     ole32:ole32.dll
 0002:00000600       __imp_CLSIDFromProgID      0000000180026600     ole32:ole32.dll
 0002:00000608       __imp_CoTaskMemRealloc     0000000180026608     ole32:ole32.dll
 0002:00000610       \177ole32_NULL_THUNK_DATA  0000000180026610     ole32:ole32.dll
 0002:00000618       __guard_check_icall_fptr   0000000180026618     LIBCMT:guard_support.obj
 0002:00000620       __guard_xfg_check_icall_fptr 0000000180026620     LIBCMT:guard_support.obj
 0002:00000628       __guard_dispatch_icall_fptr 0000000180026628     LIBCMT:guard_support.obj
 0002:00000630       __guard_xfg_dispatch_icall_fptr 0000000180026630     LIBCMT:guard_support.obj
 0002:00000638       __guard_xfg_table_dispatch_icall_fptr 0000000180026638     LIBCMT:guard_support.obj
 0002:00000640       __xc_a                     0000000180026640     LIBCMT:initializers.obj
 0002:00000670       __xc_z                     0000000180026670     LIBCMT:initializers.obj
 0002:00000678       __xi_a                     0000000180026678     LIBCMT:initializers.obj
 0002:00000688       __acrt_stdio_initializer   0000000180026688     libucrt:stdio_initializer.obj
 0002:00000690       __acrt_multibyte_initializer 0000000180026690     libucrt:multibyte_initializer.obj
 0002:00000698       __acrt_tran_fma3_initializer 0000000180026698     libucrt:fma3_initializer.obj
 0002:000006a0       __xi_z                     00000001800266a0     LIBCMT:initializers.obj
 0002:000006a8       __xl_a                     00000001800266a8     LIBCMT:tlssup.obj
 0002:000006b0       __xl_z                     00000001800266b0     LIBCMT:tlssup.obj
 0002:000006b8       __xp_a                     00000001800266b8     LIBCMT:initializers.obj
 0002:000006c0       __acrt_locale_terminator   00000001800266c0     libucrt:locale_initializer.obj
 0002:000006c8       __dcrt_console_output_terminator 00000001800266c8     libucrt:console_output_initializer.obj
 0002:000006d0       __acrt_stdio_terminator    00000001800266d0     libucrt:stdio_initializer.obj
 0002:000006d8       __xp_z                     00000001800266d8     LIBCMT:initializers.obj
 0002:000006e0       __xt_a                     00000001800266e0     LIBCMT:initializers.obj
 0002:000006e8       __xt_z                     00000001800266e8     LIBCMT:initializers.obj
 0002:000006f0       ??_C@_13HADIAKP@?$AAS@     00000001800266f0     OposVariant.obj
 0002:000006f4       ??_C@_13LHMFKAAD@?$AAM@    00000001800266f4     OposVariant.obj
 0002:000006f8       ??_C@_13MKMNOPIJ@?$AAD@    00000001800266f8     OposVariant.obj
 0002:000006fc       ??_C@_13OPKGLAFF@?$AAB@    00000001800266fc     OposVariant.obj
 0002:00000700       ??_C@_17LLMMEOJD@?$AAV?$AAa?$AAl@ 0000000180026700     OposVariant.obj
 0002:00000708       ??_C@_1BI@JFAIJMHL@?$AAF?$AAo?$AAr?$AAc?$AAe?$AAR?$AAe?$AAm?$AAo?$AAv?$AAe@ 0000000180026708     OposVariant.obj
 0002:00000720       ??_C@_1BC@GCKHIPE@?$AAN?$AAo?$AAR?$AAe?$AAm?$AAo?$AAv?$AAe@ 0000000180026720     OposVariant.obj
 0002:00000738       ??_C@_1O@JDLOHAN@?$AAD?$AAe?$AAl?$AAe?$AAt?$AAe@ 0000000180026738     OposVariant.obj
 0002:00000748       ??_C@_11LOCGONAA@@         0000000180026748     OposVariant.obj
 0002:00000750       ?_entries@?1??_GetEntries@?$CComEnum@UIEnumConnections@@$1?_GUID_b196b287_bab4_101a_b69c_00aa00341d07@@3U__s_GUID@@BUtagCONNECTDATA@@V?$_Copy@UtagCONNECTDATA@@@ATL@@VCComSingleThreadModel@6@@ATL@@SAPEBU_ATL_INTMAP_ENTRY@3@XZ@4QBU43@B 0000000180026750     ElectronicValueRW.obj
 0002:00000780       IID_IOPOSElectronicValueRW_1_12 0000000180026780     ElectronicValueRW.obj
 0002:00000790       IID_IOPOSElectronicValueRW_1_12_zz 0000000180026790     ElectronicValueRW.obj
 0002:000007a0       IID_IOPOSElectronicValueRW_1_14 00000001800267a0     ElectronicValueRW.obj
 0002:000007b0       _GUID_00000114_0000_0000_c000_000000000046 00000001800267b0     ElectronicValueRW.obj
 0002:000007c0       IID_IOPOSElectronicValueRW_1_14_zz 00000001800267c0     ElectronicValueRW.obj
 0002:000007d0       IID_IOPOSElectronicValueRW_1_14_100 00000001800267d0     ElectronicValueRW.obj
 0002:000007e0       ??_C@_1BK@BIGILECK@?$AAA?$AAd?$AAv?$AAa?$AAp?$AAi?$AA3?$AA2?$AA?4?$AAd?$AAl?$AAl@ 00000001800267e0     ElectronicValueRW.obj
 0002:00000800       ??_C@_0BI@MNCFCPFK@RegCreateKeyTransactedW@ 0000000180026800     ElectronicValueRW.obj
 0002:00000818       IID_IOPOSElectronicValueRW_1_14_100_zz 0000000180026818     ElectronicValueRW.obj
 0002:00000828       IID_IOPOSElectronicValueRW_1_15 0000000180026828     ElectronicValueRW.obj
 0002:00000838       _GUID_b196b287_bab4_101a_b69c_00aa00341d07 0000000180026838     ElectronicValueRW.obj
 0002:00000848       _GUID_b196b285_bab4_101a_b69c_00aa00341d07 0000000180026848     ElectronicValueRW.obj
 0002:00000858       IID_IOPOSElectronicValueRW 0000000180026858     ElectronicValueRW.obj
 0002:00000868       LIBID_OposElectronicValueRW_CCO 0000000180026868     ElectronicValueRW.obj
 0002:00000878       DIID__IOPOSElectronicValueRWEvents 0000000180026878     ElectronicValueRW.obj
 0002:00000888       CLSID_OPOSElectronicValueRW 0000000180026888     ElectronicValueRW.obj
 0002:00000898       _GUID_a6bc3ac0_dbaa_11ce_9de3_00aa004bb851 0000000180026898     ElectronicValueRW.obj
 0002:000008a8       _GUID_0000010c_0000_0000_c000_000000000046 00000001800268a8     ElectronicValueRW.obj
 0002:000008b8       _GUID_00000146_0000_0000_c000_000000000046 00000001800268b8     ElectronicValueRW.obj
 0002:000008c8       _GUID_922eada0_3424_11cf_b670_00aa004cd6d8 00000001800268c8     ElectronicValueRW.obj
 0002:000008d8       _GUID_9c2cad80_3424_11cf_b670_00aa004cd6d8 00000001800268d8     ElectronicValueRW.obj
 0002:000008e8       _GUID_00000119_0000_0000_c000_000000000046 00000001800268e8     ElectronicValueRW.obj
 0002:000008f8       _GUID_b196b289_bab4_101a_b69c_00aa00341d07 00000001800268f8     ElectronicValueRW.obj
 0002:00000908       ??_7CComModule@ATL@@6B@    0000000180026908     ElectronicValueRW.obj
 0002:00000958       _GUID_00000117_0000_0000_c000_000000000046 0000000180026958     ElectronicValueRW.obj
 0002:00000968       _GUID_00000000_0000_0000_c000_000000000046 0000000180026968     ElectronicValueRW.obj
 0002:00000978       _GUID_00020400_0000_0000_c000_000000000046 0000000180026978     ElectronicValueRW.obj
 0002:00000990       ?_entries@?1??_GetEntries@COPOSElectronicValueRW@@SAPEBU_ATL_INTMAP_ENTRY@ATL@@XZ@4QBU34@B 0000000180026990     ElectronicValueRW.obj
 0002:00000c60       _GUID_cf51ed10_62fe_11cf_bf86_00a0c9034836 0000000180026c60     ElectronicValueRW.obj
 0002:00000c70       _GUID_0000010a_0000_0000_c000_000000000046 0000000180026c70     ElectronicValueRW.obj
 0002:00000c80       _GUID_b196b283_bab4_101a_b69c_00aa00341d07 0000000180026c80     ElectronicValueRW.obj
 0002:00000c90       _GUID_cb5bdc81_93c1_11cf_8f20_00805f2cd064 0000000180026c90     ElectronicValueRW.obj
 0002:00000ca0       ?pPropMap@?1??GetPropertyMap@COPOSElectronicValueRW@@SAPEBUATL_PROPMAP_ENTRY@ATL@@XZ@4QBU34@B 0000000180026ca0     ElectronicValueRW.obj
 0002:00000d48       ??_C@_17DGDADEHL@?$AA_?$AAc?$AAx@ 0000000180026d48     ElectronicValueRW.obj
 0002:00000d50       ??_C@_17IOIMFDBO@?$AA_?$AAc?$AAy@ 0000000180026d50     ElectronicValueRW.obj
 0002:00000d58       ??_C@_1M@KANJNLFF@?$AAC?$AAL?$AAS?$AAI?$AAD@ 0000000180026d58     ElectronicValueRW.obj
 0002:00000d68       _GUID_0000010e_0000_0000_c000_000000000046 0000000180026d68     ElectronicValueRW.obj
 0002:00000d78       _GUID_b196b288_bab4_101a_b69c_00aa00341d07 0000000180026d78     ElectronicValueRW.obj
 0002:00000d88       ??_C@_1M@EJNEECMJ@?$AAA?$AAp?$AAp?$AAI?$AAD@ 0000000180026d88     ElectronicValueRW.obj
 0002:00000d98       ??_7?$CComObjectCached@VCComClassFactory@ATL@@@ATL@@6B@ 0000000180026d98     ElectronicValueRW.obj
 0002:00000dc8       ??_C@_1CA@BFAKJMNP@?$AAT?$AAr?$AAa?$AAn?$AAs?$AAi?$AAt?$AAi?$AAo?$AAn?$AAE?$AAv?$AAe?$AAn?$AAt@ 0000000180026dc8     ElectronicValueRW.obj
 0002:00000de8       ??_C@_1CE@PGFMOFKI@?$AAS?$AAt?$AAa?$AAt?$AAu?$AAs?$AAU?$AAp?$AAd?$AAa?$AAt?$AAe?$AAE?$AAv?$AAe@ 0000000180026de8     ElectronicValueRW.obj
 0002:00000e10       ??_C@_1CI@HLBJDONE@?$AAO?$AAu?$AAt?$AAp?$AAu?$AAt?$AAC?$AAo?$AAm?$AAp?$AAl?$AAe?$AAt?$AAe?$AAE@ 0000000180026e10     ElectronicValueRW.obj
 0002:00000e38       ??_C@_1BG@LODEBHDD@?$AAE?$AAr?$AAr?$AAo?$AAr?$AAE?$AAv?$AAe?$AAn?$AAt@ 0000000180026e38     ElectronicValueRW.obj
 0002:00000e50       ??_C@_1BM@CBGEBBBJ@?$AAD?$AAi?$AAr?$AAe?$AAc?$AAt?$AAI?$AAO?$AAE?$AAv?$AAe?$AAn?$AAt@ 0000000180026e50     ElectronicValueRW.obj
 0002:00000e70       ?rgszNeverDelete@CRegParser@ATL@@1QBQEB_WB 0000000180026e70     ElectronicValueRW.obj
 0002:00000ed0       ??_C@_1BE@IEBMACEM@?$AAD?$AAa?$AAt?$AAa?$AAE?$AAv?$AAe?$AAn?$AAt@ 0000000180026ed0     ElectronicValueRW.obj
 0002:00000ee8       _GUID_b196b286_bab4_101a_b69c_00aa00341d07 0000000180026ee8     ElectronicValueRW.obj
 0002:00000ef8       _GUID_00000113_0000_0000_c000_000000000046 0000000180026ef8     ElectronicValueRW.obj
 0002:00000f08       ??_7CRegObject@ATL@@6B@    0000000180026f08     ElectronicValueRW.obj
 0002:00000f38       ??_C@_1BC@ENICKDH@?$AAC?$AAo?$AAn?$AAt?$AAe?$AAn?$AAt?$AAs@ 0000000180026f38     ElectronicValueRW.obj
 0002:00000f50       _GUID_1c2056cc_5ef4_101b_8bc8_00aa003e3b29 0000000180026f50     ElectronicValueRW.obj
 0002:00000f60       ??_7?$CComObject@V?$CComEnum@UIEnumConnectionPoints@@$1?_GUID_b196b285_bab4_101a_b69c_00aa00341d07@@3U__s_GUID@@BPEAUIConnectionPoint@@V?$_CopyInterface@UIConnectionPoint@@@ATL@@VCComSingleThreadModel@6@@ATL@@@ATL@@6B@ 0000000180026f60     ElectronicValueRW.obj
 0002:00000fa0       ??_C@_1CK@OEKPKBNA@?$AAC?$AAo?$AAm?$AAp?$AAo?$AAn?$AAe?$AAn?$AAt?$AA?5?$AAC?$AAa?$AAt?$AAe?$AAg@ 0000000180026fa0     ElectronicValueRW.obj
 0002:00000fd0       ??_C@_1BC@NKMMNMGL@?$AAF?$AAi?$AAl?$AAe?$AAT?$AAy?$AAp?$AAe@ 0000000180026fd0     ElectronicValueRW.obj
 0002:00000fe8       ??_C@_1BE@EKPAFMCP@?$AAI?$AAn?$AAt?$AAe?$AAr?$AAf?$AAa?$AAc?$AAe@ 0000000180026fe8     ElectronicValueRW.obj
 0002:00001000       ??_C@_1BC@MAICEHGI@?$AAH?$AAa?$AAr?$AAd?$AAw?$AAa?$AAr?$AAe@ 0000000180027000     ElectronicValueRW.obj
 0002:00001018       ??_C@_19HLLLM@?$AAM?$AAi?$AAm?$AAe@ 0000000180027018     ElectronicValueRW.obj
 0002:00001028       ??_C@_17OMAOINJK@?$AAS?$AAA?$AAM@ 0000000180027028     ElectronicValueRW.obj
 0002:00001030       ??_C@_1BC@IBECJAAI@?$AAS?$AAE?$AAC?$AAU?$AAR?$AAI?$AAT?$AAY@ 0000000180027030     ElectronicValueRW.obj
 0002:00001048       ??_C@_1O@GBFINDKL@?$AAS?$AAY?$AAS?$AAT?$AAE?$AAM@ 0000000180027048     ElectronicValueRW.obj
 0002:00001058       ??_C@_1BC@EAHCMADO@?$AAS?$AAo?$AAf?$AAt?$AAw?$AAa?$AAr?$AAe@ 0000000180027058     ElectronicValueRW.obj
 0002:00001070       ??_C@_1BA@JIHHIEDE@?$AAT?$AAy?$AAp?$AAe?$AAL?$AAi?$AAb@ 0000000180027070     ElectronicValueRW.obj
 0002:00001080       _GUID_00000112_0000_0000_c000_000000000046 0000000180027080     ElectronicValueRW.obj
 0002:00001090       ?map@?1??HKeyFromString@CRegParser@ATL@@KAPEAUHKEY__@@PEA_W@Z@4QBUkeymap@?1??123@KAPEAU4@0@Z@B 0000000180027090     ElectronicValueRW.obj
 0002:00001170       ??_C@_19NCHLBIN@?$AAH?$AAK?$AAC?$AAR@ 0000000180027170     ElectronicValueRW.obj
 0002:00001180       ??_C@_19JAPAIJDE@?$AAH?$AAK?$AAC?$AAU@ 0000000180027180     ElectronicValueRW.obj
 0002:00001190       ??_C@_19PEALEEJB@?$AAH?$AAK?$AAL?$AAM@ 0000000180027190     ElectronicValueRW.obj
 0002:000011a0       ??_C@_17PJOJPMPB@?$AAH?$AAK?$AAU@ 00000001800271a0     ElectronicValueRW.obj
 0002:000011a8       ??_C@_19PNBHMJPL@?$AAH?$AAK?$AAP?$AAD@ 00000001800271a8     ElectronicValueRW.obj
 0002:000011b8       ??_C@_19GFFAIJHG@?$AAH?$AAK?$AAD?$AAD@ 00000001800271b8     ElectronicValueRW.obj
 0002:000011c8       ??_C@_19OFICIBHH@?$AAH?$AAK?$AAC?$AAC@ 00000001800271c8     ElectronicValueRW.obj
 0002:000011d8       ??_C@_1CE@PACHPJFI@?$AAH?$AAK?$AAE?$AAY?$AA_?$AAC?$AAL?$AAA?$AAS?$AAS?$AAE?$AAS?$AA_?$AAR?$AAO@ 00000001800271d8     ElectronicValueRW.obj
 0002:00001200       ??_C@_1CE@HLHNCBPM@?$AAH?$AAK?$AAE?$AAY?$AA_?$AAC?$AAU?$AAR?$AAR?$AAE?$AAN?$AAT?$AA_?$AAU?$AAS@ 0000000180027200     ElectronicValueRW.obj
 0002:00001228       ??_C@_1CG@GFBEANJL@?$AAH?$AAK?$AAE?$AAY?$AA_?$AAL?$AAO?$AAC?$AAA?$AAL?$AA_?$AAM?$AAA?$AAC?$AAH@ 0000000180027228     ElectronicValueRW.obj
 0002:00001250       ??_C@_1BG@BGODANIO@?$AAH?$AAK?$AAE?$AAY?$AA_?$AAU?$AAS?$AAE?$AAR?$AAS@ 0000000180027250     ElectronicValueRW.obj
 0002:00001268       ??_C@_1CM@KHNNAOIC@?$AAH?$AAK?$AAE?$AAY?$AA_?$AAP?$AAE?$AAR?$AAF?$AAO?$AAR?$AAM?$AAA?$AAN?$AAC@ 0000000180027268     ElectronicValueRW.obj
 0002:00001298       _GUID_3af24292_0c96_11ce_a0cf_00aa00600ab8 0000000180027298     ElectronicValueRW.obj
 0002:000012a8       ??_C@_1BM@HAGMMHIA@?$AAH?$AAK?$AAE?$AAY?$AA_?$AAD?$AAY?$AAN?$AA_?$AAD?$AAA?$AAT?$AAA@ 00000001800272a8     ElectronicValueRW.obj
 0002:000012c8       ??_C@_1CI@BBJOACGG@?$AAH?$AAK?$AAE?$AAY?$AA_?$AAC?$AAU?$AAR?$AAR?$AAE?$AAN?$AAT?$AA_?$AAC?$AAO@ 00000001800272c8     ElectronicValueRW.obj
 0002:000012f0       _GUID_00000127_0000_0000_c000_000000000046 00000001800272f0     ElectronicValueRW.obj
 0002:00001300       _GUID_0000010d_0000_0000_c000_000000000046 0000000180027300     ElectronicValueRW.obj
 0002:00001310       _GUID_00000109_0000_0000_c000_000000000046 0000000180027310     ElectronicValueRW.obj
 0002:00001320       _GUID_7fd52380_4e07_101b_ae2d_08002b2ec713 0000000180027320     ElectronicValueRW.obj
 0002:00001330       ??_C@_1EA@NHKLICFA@?$AAH?$AAK?$AAC?$AAU?$AA?$AN?$AA?6?$AA?$HL?$AA?7?$AAS?$AAo?$AAf?$AAt?$AAw?$AAa?$AAr@ 0000000180027330     ElectronicValueRW.obj
 0002:00001370       ??_C@_1BE@LJOLIMEM@?$AA?$AN?$AA?6?$AA?7?$AA?$HN?$AA?$AN?$AA?6?$AA?$HN?$AA?$AN?$AA?6@ 0000000180027370     ElectronicValueRW.obj
 0002:00001388       ??_C@_1O@MNLDABAF@?$AAM?$AAo?$AAd?$AAu?$AAl?$AAe@ 0000000180027388     ElectronicValueRW.obj
 0002:00001398       ??_C@_1BG@JBACFMF@?$AAM?$AAo?$AAd?$AAu?$AAl?$AAe?$AA_?$AAR?$AAa?$AAw@ 0000000180027398     ElectronicValueRW.obj
 0002:000013b0       ??_C@_1BC@KAILKFFG@?$AAR?$AAE?$AAG?$AAI?$AAS?$AAT?$AAR?$AAY@ 00000001800273b0     ElectronicValueRW.obj
 0002:000013c8       ??_C@_1O@GBFKGNEO@?$AAA?$AAT?$AAL?$AA?3?$AA?$CF?$AAp@ 00000001800273c8     ElectronicValueRW.obj
 0002:000013d8       ??_C@_1BA@PICGEGJB@?$AAD?$AAI?$AAS?$AAP?$AAL?$AAA?$AAY@ 00000001800273d8     ElectronicValueRW.obj
 0002:000013e8       _GUID_9bfbbc02_eff1_101a_84ed_00aa00341d07 00000001800273e8     ElectronicValueRW.obj
 0002:000013f8       ??_C@_1M@PPPPCDEP@?$AAA?$AAP?$AAP?$AAI?$AAD@ 00000001800273f8     ElectronicValueRW.obj
 0002:00001408       _GUID_b196b284_bab4_101a_b69c_00aa00341d07 0000000180027408     ElectronicValueRW.obj
 0002:00001418       ??_7?$CComContainedObject@VCOPOSElectronicValueRW@@@ATL@@6B?$IDispatchImpl@UIOPOSElectronicValueRW@@$1?IID_IOPOSElectronicValueRW@@3U_GUID@@B$1?LIBID_OposElectronicValueRW_CCO@@3U3@B$00$0A@VCComTypeInfoHolder@ATL@@@1@@ 0000000180027418     ElectronicValueRW.obj
 0002:000019d0       ??_7?$CComContainedObject@VCOPOSElectronicValueRW@@@ATL@@6BCComControlBase@1@@ 00000001800279d0     ElectronicValueRW.obj
 0002:000019f8       ??_7?$CComContainedObject@VCOPOSElectronicValueRW@@@ATL@@6B?$CWindowImpl@VCOPOSElectronicValueRW@@VCWindow@ATL@@V?$CWinTraits@$0FGAAAAAA@$0A@@3@@1@@ 00000001800279f8     ElectronicValueRW.obj
 0002:00001a18       ??_7?$CComContainedObject@VCOPOSElectronicValueRW@@@ATL@@6B?$IPersistStreamInitImpl@VCOPOSElectronicValueRW@@@1@@ 0000000180027a18     ElectronicValueRW.obj
 0002:00001a60       ??_7?$CComContainedObject@VCOPOSElectronicValueRW@@@ATL@@6B?$IOleControlImpl@VCOPOSElectronicValueRW@@@1@@ 0000000180027a60     ElectronicValueRW.obj
 0002:00001a98       ??_7?$CComContainedObject@VCOPOSElectronicValueRW@@@ATL@@6B?$IOleObjectImpl@VCOPOSElectronicValueRW@@@1@@ 0000000180027a98     ElectronicValueRW.obj
 0002:00001b58       ??_7?$CComContainedObject@VCOPOSElectronicValueRW@@@ATL@@6B?$IOleInPlaceActiveObjectImpl@VCOPOSElectronicValueRW@@@1@@ 0000000180027b58     ElectronicValueRW.obj
 0002:00001ba8       ??_7?$CComContainedObject@VCOPOSElectronicValueRW@@@ATL@@6B?$IViewObjectExImpl@VCOPOSElectronicValueRW@@@1@@ 0000000180027ba8     ElectronicValueRW.obj
 0002:00001c20       ??_7?$CComContainedObject@VCOPOSElectronicValueRW@@@ATL@@6B?$IOleInPlaceObjectWindowlessImpl@VCOPOSElectronicValueRW@@@1@@ 0000000180027c20     ElectronicValueRW.obj
 0002:00001c78       ??_7?$CComContainedObject@VCOPOSElectronicValueRW@@@ATL@@6B?$IConnectionPointContainerImpl@VCOPOSElectronicValueRW@@@1@@ 0000000180027c78     ElectronicValueRW.obj
 0002:00001ca0       ??_7?$CComContainedObject@VCOPOSElectronicValueRW@@@ATL@@6B?$IPersistStorageImpl@VCOPOSElectronicValueRW@@@1@@ 0000000180027ca0     ElectronicValueRW.obj
 0002:00001cf0       ??_7?$CComContainedObject@VCOPOSElectronicValueRW@@@ATL@@6B?$ISpecifyPropertyPagesImpl@VCOPOSElectronicValueRW@@@1@@ 0000000180027cf0     ElectronicValueRW.obj
 0002:00001d10       ??_7?$CComContainedObject@VCOPOSElectronicValueRW@@@ATL@@6B?$IQuickActivateImpl@VCOPOSElectronicValueRW@@@1@@ 0000000180027d10     ElectronicValueRW.obj
 0002:00001d40       ??_7?$CComContainedObject@VCOPOSElectronicValueRW@@@ATL@@6B?$IDataObjectImpl@VCOPOSElectronicValueRW@@@1@@ 0000000180027d40     ElectronicValueRW.obj
 0002:00001da0       ??_7?$CComContainedObject@VCOPOSElectronicValueRW@@@ATL@@6B?$IProvideClassInfo2Impl@$1?CLSID_OPOSElectronicValueRW@@3U_GUID@@B$1?DIID__IOPOSElectronicValueRWEvents@@3U2@B$1?LIBID_OposElectronicValueRW_CCO@@3U2@B$00$0A@VCComTypeInfoHolder@ATL@@@1@@ 0000000180027da0     ElectronicValueRW.obj
 0002:00001dc8       ??_7?$CComContainedObject@VCOPOSElectronicValueRW@@@ATL@@6B?$IObjectSafetyImpl@VCOPOSElectronicValueRW@@$02@1@@ 0000000180027dc8     ElectronicValueRW.obj
 0002:00001df8       ??_7?$CComContainedObject@VCOPOSElectronicValueRW@@@ATL@@6B?$IPropertyNotifySinkCP@VCOPOSElectronicValueRW@@VCComDynamicUnkArray@ATL@@@1@@ 0000000180027df8     ElectronicValueRW.obj
 0002:00001e38       ??_7?$CComContainedObject@VCOPOSElectronicValueRW@@@ATL@@6B?$CProxy_IOPOSEvents@VCOPOSElectronicValueRW@@@@@ 0000000180027e38     ElectronicValueRW.obj
 0002:00001e78       ??_7?$CComAggObject@VCOPOSElectronicValueRW@@@ATL@@6B@ 0000000180027e78     ElectronicValueRW.obj
 0002:00001e98       ??_7?$CComObject@VCOPOSElectronicValueRW@@@ATL@@6B?$IDispatchImpl@UIOPOSElectronicValueRW@@$1?IID_IOPOSElectronicValueRW@@3U_GUID@@B$1?LIBID_OposElectronicValueRW_CCO@@3U3@B$00$0A@VCComTypeInfoHolder@ATL@@@1@@ 0000000180027e98     ElectronicValueRW.obj
 0002:00002450       ??_7?$CComObject@VCOPOSElectronicValueRW@@@ATL@@6BCComControlBase@1@@ 0000000180028450     ElectronicValueRW.obj
 0002:00002478       ??_7?$CComObject@VCOPOSElectronicValueRW@@@ATL@@6B?$CWindowImpl@VCOPOSElectronicValueRW@@VCWindow@ATL@@V?$CWinTraits@$0FGAAAAAA@$0A@@3@@1@@ 0000000180028478     ElectronicValueRW.obj
 0002:00002498       ??_7?$CComObject@VCOPOSElectronicValueRW@@@ATL@@6B?$IPersistStreamInitImpl@VCOPOSElectronicValueRW@@@1@@ 0000000180028498     ElectronicValueRW.obj
 0002:000024e0       ??_7?$CComObject@VCOPOSElectronicValueRW@@@ATL@@6B?$IOleControlImpl@VCOPOSElectronicValueRW@@@1@@ 00000001800284e0     ElectronicValueRW.obj
 0002:00002518       ??_7?$CComObject@VCOPOSElectronicValueRW@@@ATL@@6B?$IOleObjectImpl@VCOPOSElectronicValueRW@@@1@@ 0000000180028518     ElectronicValueRW.obj
 0002:000025d8       ??_7?$CComObject@VCOPOSElectronicValueRW@@@ATL@@6B?$IOleInPlaceActiveObjectImpl@VCOPOSElectronicValueRW@@@1@@ 00000001800285d8     ElectronicValueRW.obj
 0002:00002628       ??_7?$CComObject@VCOPOSElectronicValueRW@@@ATL@@6B?$IViewObjectExImpl@VCOPOSElectronicValueRW@@@1@@ 0000000180028628     ElectronicValueRW.obj
 0002:000026a0       ??_7?$CComObject@VCOPOSElectronicValueRW@@@ATL@@6B?$IOleInPlaceObjectWindowlessImpl@VCOPOSElectronicValueRW@@@1@@ 00000001800286a0     ElectronicValueRW.obj
 0002:000026f8       ??_7?$CComObject@VCOPOSElectronicValueRW@@@ATL@@6B?$IConnectionPointContainerImpl@VCOPOSElectronicValueRW@@@1@@ 00000001800286f8     ElectronicValueRW.obj
 0002:00002720       ??_7?$CComObject@VCOPOSElectronicValueRW@@@ATL@@6B?$IPersistStorageImpl@VCOPOSElectronicValueRW@@@1@@ 0000000180028720     ElectronicValueRW.obj
 0002:00002770       ??_7?$CComObject@VCOPOSElectronicValueRW@@@ATL@@6B?$ISpecifyPropertyPagesImpl@VCOPOSElectronicValueRW@@@1@@ 0000000180028770     ElectronicValueRW.obj
 0002:00002790       ??_7?$CComObject@VCOPOSElectronicValueRW@@@ATL@@6B?$IQuickActivateImpl@VCOPOSElectronicValueRW@@@1@@ 0000000180028790     ElectronicValueRW.obj
 0002:000027c0       ??_7?$CComObject@VCOPOSElectronicValueRW@@@ATL@@6B?$IDataObjectImpl@VCOPOSElectronicValueRW@@@1@@ 00000001800287c0     ElectronicValueRW.obj
 0002:00002820       ??_7?$CComObject@VCOPOSElectronicValueRW@@@ATL@@6B?$IProvideClassInfo2Impl@$1?CLSID_OPOSElectronicValueRW@@3U_GUID@@B$1?DIID__IOPOSElectronicValueRWEvents@@3U2@B$1?LIBID_OposElectronicValueRW_CCO@@3U2@B$00$0A@VCComTypeInfoHolder@ATL@@@1@@ 0000000180028820     ElectronicValueRW.obj
 0002:00002848       ??_7?$CComObject@VCOPOSElectronicValueRW@@@ATL@@6B?$IObjectSafetyImpl@VCOPOSElectronicValueRW@@$02@1@@ 0000000180028848     ElectronicValueRW.obj
 0002:00002878       ??_7?$CComObject@VCOPOSElectronicValueRW@@@ATL@@6B?$IPropertyNotifySinkCP@VCOPOSElectronicValueRW@@VCComDynamicUnkArray@ATL@@@1@@ 0000000180028878     ElectronicValueRW.obj
 0002:000028b8       ??_7?$CComObject@VCOPOSElectronicValueRW@@@ATL@@6B?$CProxy_IOPOSEvents@VCOPOSElectronicValueRW@@@@@ 00000001800288b8     ElectronicValueRW.obj
 0002:000028f8       _GUID_55980ba0_35aa_11cf_b671_00aa004cd6d8 00000001800288f8     ElectronicValueRW.obj
 0002:00002908       _GUID_b196b28b_bab4_101a_b69c_00aa00341d07 0000000180028908     ElectronicValueRW.obj
 0002:00002918       ?_entries@?1??_GetEntries@?$CComEnum@UIEnumConnectionPoints@@$1?_GUID_b196b285_bab4_101a_b69c_00aa00341d07@@3U__s_GUID@@BPEAUIConnectionPoint@@V?$_CopyInterface@UIConnectionPoint@@@ATL@@VCComSingleThreadModel@6@@ATL@@SAPEBU_ATL_INTMAP_ENTRY@3@XZ@4QBU43@B 0000000180028918     ElectronicValueRW.obj
 0002:00002948       _GUID_00020412_0000_0000_c000_000000000046 0000000180028948     ElectronicValueRW.obj
 0002:00002958       _GUID_00020401_0000_0000_c000_000000000046 0000000180028958     ElectronicValueRW.obj
 0002:00002968       ??_7CComClassFactory@ATL@@6B@ 0000000180028968     ElectronicValueRW.obj
 0002:00002998       ?_entries@?1??_GetEntries@CComClassFactory@ATL@@SAPEBU_ATL_INTMAP_ENTRY@3@XZ@4QBU43@B 0000000180028998     ElectronicValueRW.obj
 0002:000029c8       _GUID_00000001_0000_0000_c000_000000000046 00000001800289c8     ElectronicValueRW.obj
 0002:000029d8       ??_7?$CComObject@V?$CComEnum@UIEnumConnections@@$1?_GUID_b196b287_bab4_101a_b69c_00aa00341d07@@3U__s_GUID@@BUtagCONNECTDATA@@V?$_Copy@UtagCONNECTDATA@@@ATL@@VCComSingleThreadModel@6@@ATL@@@ATL@@6B@ 00000001800289d8     ElectronicValueRW.obj
 0002:00002a18       ??_C@_0BG@EKFFMJIO@RegOpenKeyTransactedW@ 0000000180028a18     ElectronicValueRW.obj
 0002:00002a30       ??_C@_0BI@HAKLOOGP@RegDeleteKeyTransactedW@ 0000000180028a30     ElectronicValueRW.obj
 0002:00002a48       ??_C@_0BA@LILAPHGE@RegDeleteKeyExW@ 0000000180028a48     ElectronicValueRW.obj
 0002:00002a58       ??_C@_19ILOCMLCJ@?$AA?4?$AAt?$AAl?$AAb@ 0000000180028a58     ElectronicValueRW.obj
 0002:00002a68       _GUID_0002e012_0000_0000_c000_000000000046 0000000180028a68     ElectronicValueRW.obj
 0002:00002a78       ??_C@_1O@FHBGLCIO@?$AAC?$AAL?$AAS?$AAI?$AAD?$AA?2@ 0000000180028a78     ElectronicValueRW.obj
 0002:00002a88       ??_C@_1CK@IFBKBFAA@?$AA?2?$AAR?$AAe?$AAq?$AAu?$AAi?$AAr?$AAe?$AAd?$AA?5?$AAC?$AAa?$AAt?$AAe?$AAg@ 0000000180028a88     ElectronicValueRW.obj
 0002:00002ab8       ??_C@_1DA@BIHALFED@?$AA?2?$AAI?$AAm?$AAp?$AAl?$AAe?$AAm?$AAe?$AAn?$AAt?$AAe?$AAd?$AA?5?$AAC?$AAa@ 0000000180028ab8     ElectronicValueRW.obj
 0002:00002ae8       ??_C@_1BK@EDKOLFBJ@?$AAO?$AAL?$AAE?$AAA?$AAU?$AAT?$AA3?$AA2?$AA?4?$AAD?$AAL?$AAL@ 0000000180028ae8     ElectronicValueRW.obj
 0002:00002b08       ??_C@_0BJ@CNLFOMHB@UnRegisterTypeLibForUser@ 0000000180028b08     ElectronicValueRW.obj
 0002:00002b28       ??_C@_0BH@LBOMMKPJ@RegisterTypeLibForUser@ 0000000180028b28     ElectronicValueRW.obj
 0002:00002b40       ??_C@_0P@MMNMMLGK@COFreezeEvents@ 0000000180028b40     ElectronicValueRWImpl.obj
 0002:00002b50       ??_C@_0BC@OGCGGIMP@GetPropertyNumber@ 0000000180028b50     ElectronicValueRWImpl.obj
 0002:00002b68       ??_C@_0BC@MDCNODNB@SetPropertyNumber@ 0000000180028b68     ElectronicValueRWImpl.obj
 0002:00002b80       ??_C@_0BC@CFCCMIMD@GetPropertyString@ 0000000180028b80     ElectronicValueRWImpl.obj
 0002:00002b98       ??_C@_0BC@CJEDNN@SetPropertyString@ 0000000180028b98     ElectronicValueRWImpl.obj
 0002:00002bb0       ??_C@_0M@LNPKKKDA@OpenService@ 0000000180028bb0     ElectronicValueRWImpl.obj
 0002:00002bc0       ??_C@_0M@PCMCHHMH@CheckHealth@ 0000000180028bc0     ElectronicValueRWImpl.obj
 0002:00002bd0       ??_C@_0M@JGMIDNEK@ClaimDevice@ 0000000180028bd0     ElectronicValueRWImpl.obj
 0002:00002be0       ??_C@_0L@BNEIFEJC@ClearInput@ 0000000180028be0     ElectronicValueRWImpl.obj
 0002:00002bf0       ??_C@_0M@JMBCPNGJ@ClearOutput@ 0000000180028bf0     ElectronicValueRWImpl.obj
 0002:00002c00       ??_C@_0N@DDFIIBMP@CloseService@ 0000000180028c00     ElectronicValueRWImpl.obj
 0002:00002c10       ??_C@_08EEIHICPC@DirectIO@ 0000000180028c10     ElectronicValueRWImpl.obj
 0002:00002c20       ??_C@_0O@BCPMENMJ@ReleaseDevice@ 0000000180028c20     ElectronicValueRWImpl.obj
 0002:00002c30       ??_C@_0BA@GFABKEEE@ResetStatistics@ 0000000180028c30     ElectronicValueRWImpl.obj
 0002:00002c40       ??_C@_0BD@DPALHJGC@RetrieveStatistics@ 0000000180028c40     ElectronicValueRWImpl.obj
 0002:00002c58       ??_C@_0BB@KOHIKNFC@UpdateStatistics@ 0000000180028c58     ElectronicValueRWImpl.obj
 0002:00002c70       ??_C@_0BH@PBKBNMGB@CompareFirmwareVersion@ 0000000180028c70     ElectronicValueRWImpl.obj
 0002:00002c88       ??_C@_0P@FBPDPIPA@UpdateFirmware@ 0000000180028c88     ElectronicValueRWImpl.obj
 0002:00002c98       ??_C@_0BF@CMAPCJGM@ClearInputProperties@ 0000000180028c98     ElectronicValueRWImpl.obj
 0002:00002cb0       ??_C@_09EGHCFIHC@GetAmount@ 0000000180028cb0     ElectronicValueRWImpl.obj
 0002:00002cc0       ??_C@_09GIDHHJOA@SetAmount@ 0000000180028cc0     ElectronicValueRWImpl.obj
 0002:00002cd0       ??_C@_0L@OFHFGGCE@GetBalance@ 0000000180028cd0     ElectronicValueRWImpl.obj
 0002:00002ce0       ??_C@_0BC@HFMPIMNJ@GetBalanceOfPoint@ 0000000180028ce0     ElectronicValueRWImpl.obj
 0002:00002cf8       ??_C@_08HLPBNFEC@GetPoint@ 0000000180028cf8     ElectronicValueRWImpl.obj
 0002:00002d08       ??_C@_08IKNNMGDP@SetPoint@ 0000000180028d08     ElectronicValueRWImpl.obj
 0002:00002d18       ??_C@_0BB@DEPMOCKF@GetSettledAmount@ 0000000180028d18     ElectronicValueRWImpl.obj
 0002:00002d30       ??_C@_0BA@PCCMIHIE@GetSettledPoint@ 0000000180028d30     ElectronicValueRWImpl.obj
 0002:00002d40       ??_C@_09EDIPBOE@AccessLog@ 0000000180028d40     ElectronicValueRWImpl.obj
 0002:00002d50       ??_C@_0BA@CPKFOAIG@ActivateService@ 0000000180028d50     ElectronicValueRWImpl.obj
 0002:00002d60       ??_C@_08LOICPCFH@AddValue@ 0000000180028d60     ElectronicValueRWImpl.obj
 0002:00002d70       ??_C@_0P@IKCODGEO@BeginDetection@ 0000000180028d70     ElectronicValueRWImpl.obj
 0002:00002d80       ??_C@_0N@PCJLGBKP@BeginRemoval@ 0000000180028d80     ElectronicValueRWImpl.obj
 0002:00002d90       ??_C@_0M@GJJFNMHB@CancelValue@ 0000000180028d90     ElectronicValueRWImpl.obj
 0002:00002da0       ??_C@_0M@ENIGCFE@CaptureCard@ 0000000180028da0     ElectronicValueRWImpl.obj
 0002:00002db0       ??_C@_0N@HNJPBHDG@EndDetection@ 0000000180028db0     ElectronicValueRWImpl.obj
 0002:00002dc0       ??_C@_0L@FCEKAOMI@EndRemoval@ 0000000180028dc0     ElectronicValueRWImpl.obj
 0002:00002dd0       ??_C@_0BG@DBMDMKJM@EnumerateCardServices@ 0000000180028dd0     ElectronicValueRWImpl.obj
 0002:00002de8       ??_C@_0N@NKOFBOHJ@LockTerminal@ 0000000180028de8     ElectronicValueRWImpl.obj
 0002:00002df8       ??_C@_09JBBNAFDB@ReadValue@ 0000000180028df8     ElectronicValueRWImpl.obj
 0002:00002e08       ??_C@_0O@OCEFCPNI@SubtractValue@ 0000000180028e08     ElectronicValueRWImpl.obj
 0002:00002e18       ??_C@_0BC@FMEIPINL@TransactionAccess@ 0000000180028e18     ElectronicValueRWImpl.obj
 0002:00002e30       ??_C@_0P@ELGEJAPJ@UnlockTerminal@ 0000000180028e30     ElectronicValueRWImpl.obj
 0002:00002e40       ??_C@_09PHBOFDOC@UpdateKey@ 0000000180028e40     ElectronicValueRWImpl.obj
 0002:00002e50       ??_C@_0L@HDNANADD@WriteValue@ 0000000180028e50     ElectronicValueRWImpl.obj
 0002:00002e60       ??_C@_0BK@JLGGNCBA@ClearParameterInformation@ 0000000180028e60     ElectronicValueRWImpl.obj
 0002:00002e80       ??_C@_0CF@BOMLKPAA@QueryLastSuccessfulTransactionR@ 0000000180028e80     ElectronicValueRWImpl.obj
 0002:00002ea8       ??_C@_0BK@ILMAJPBB@RetrieveResultInformation@ 0000000180028ea8     ElectronicValueRWImpl.obj
 0002:00002ec8       ??_C@_0BI@DOFOAILE@SetParameterInformation@ 0000000180028ec8     ElectronicValueRWImpl.obj
 0002:00002ee0       ??_C@_0L@BFEKGFKN@AccessData@ 0000000180028ee0     ElectronicValueRWImpl.obj
 0002:00002ef0       ??_C@_0BC@EKOJKELK@ActivateEVService@ 0000000180028ef0     ElectronicValueRWImpl.obj
 0002:00002f08       ??_C@_0CB@MMCGCA@CheckServiceRegistrationToMediu@ 0000000180028f08     ElectronicValueRWImpl.obj
 0002:00002f30       ??_C@_0BE@KLAJMPGL@CloseDailyEVService@ 0000000180028f30     ElectronicValueRWImpl.obj
 0002:00002f48       ??_C@_0BE@FBHCBEID@DeactivateEVService@ 0000000180028f48     ElectronicValueRWImpl.obj
 0002:00002f60       ??_C@_0BD@FDDFHNFA@OpenDailyEVService@ 0000000180028f60     ElectronicValueRWImpl.obj
 0002:00002f78       ??_C@_0BI@MFJBMGKE@RegisterServiceToMedium@ 0000000180028f78     ElectronicValueRWImpl.obj
 0002:00002f90       ??_C@_0BK@NILIGKOK@UnregisterServiceToMedium@ 0000000180028f90     ElectronicValueRWImpl.obj
 0002:00002fb0       ??_C@_0L@DHPPFEDE@UpdateData@ 0000000180028fb0     ElectronicValueRWImpl.obj
 0002:00002fc0       ??_C@_0P@GAPGHBOB@AccessDailyLog@ 0000000180028fc0     ElectronicValueRWImpl.obj
 0002:00002fd0       ??_C@_0BE@DCPICDJJ@AuthorizeCompletion@ 0000000180028fd0     ElectronicValueRWImpl.obj
 0002:00002fe8       ??_C@_0BC@BFIHDIME@AuthorizePreSales@ 0000000180028fe8     ElectronicValueRWImpl.obj
 0002:00003000       ??_C@_0BA@MIHOKOFD@AuthorizeRefund@ 0000000180029000     ElectronicValueRWImpl.obj
 0002:00003010       ??_C@_0P@FBALCMBO@AuthorizeSales@ 0000000180029010     ElectronicValueRWImpl.obj
 0002:00003020       ??_C@_0O@CLMPAPFO@AuthorizeVoid@ 0000000180029020     ElectronicValueRWImpl.obj
 0002:00003030       ??_C@_0BG@LAFENIFB@AuthorizeVoidPreSales@ 0000000180029030     ElectronicValueRWImpl.obj
 0002:00003048       ??_C@_0M@LJIOAJGI@CashDeposit@ 0000000180029048     ElectronicValueRWImpl.obj
 0002:00003058       ??_C@_09EAIKPMK@CheckCard@ 0000000180029058     ElectronicValueRWImpl.obj
 0002:00003068       ??_7?$CProxy_IOPOSEvents@VCOPOSElectronicValueRW@@@@6B@ 0000000180029068     ElectronicValueRWImpl.obj
 0002:000030a8       ??_C@_1BA@IFHENID@?$AA?$FL?$AAE?$AAr?$AAr?$AAo?$AAr?$AA?$FN@ 00000001800290a8     ElectronicValueRWImpl.obj
 0002:000030b8       ??_C@_0DE@PJGMIIKM@SOFTWARE?2OLEforRetail?2ServiceOP@ 00000001800290b8     ElectronicValueRWImpl.obj
 0002:000030f0       ??_C@_1M@IAIJHCCH@?$AAC?$AAl?$AAo?$AAs?$AAe@ 00000001800290f0     ElectronicValueRWImpl.obj
 0002:00003100       ??_C@_1M@PCPKGJAH@?$AAC?$AAl?$AAa?$AAi?$AAm@ 0000000180029100     ElectronicValueRWImpl.obj
 0002:00003110       ??_C@_1BA@NDFKIOCP@?$AAR?$AAe?$AAl?$AAe?$AAa?$AAs?$AAe@ 0000000180029110     ElectronicValueRWImpl.obj
 0002:00003120       ??_C@_0BC@GPJAGDJO@ElectronicValueRW@ 0000000180029120     ElectronicValueRWImpl.obj
 0002:00003138       ??_C@_1BM@IJMNMBPK@?$AAG?$AAe?$AAt?$AAO?$AAp?$AAe?$AAn?$AAR?$AAe?$AAs?$AAu?$AAl?$AAt@ 0000000180029138     ElectronicValueRWImpl.obj
 0002:00003158       IID_IDispatch              0000000180029158     uuid:oaidl_i.obj
 0002:00003168       IID_IPropertyNotifySink    0000000180029168     uuid:ocidl_i.obj
 0002:00003178       GUID_NULL                  0000000180029178     uuid:cguid_i.obj
 0002:00003188       CLSID_StdGlobalInterfaceTable 0000000180029188     uuid:cguid_i.obj
 0002:00003198       CLSID_StdComponentCategoriesMgr 0000000180029198     uuid:ieguids.obj
 0002:000031a8       IID_IUnknown               00000001800291a8     uuid:unknwn_i.obj
 0002:000031c0       __xmm@ffffffffffffffffffffffffffffffff 00000001800291c0     LIBCMT:utility.obj
 0002:000031d0       ??_C@_1EC@JIJBPKFM@?$AAa?$AAp?$AAi?$AA?9?$AAm?$AAs?$AA?9?$AAw?$AAi?$AAn?$AA?9?$AAc?$AAo?$AAr?$AAe@ 00000001800291d0     LIBCMT:thread_safe_statics.obj
 0002:00003218       ??_C@_1BK@MGMFAEKH@?$AAk?$AAe?$AAr?$AAn?$AAe?$AAl?$AA3?$AA2?$AA?4?$AAd?$AAl?$AAl@ 0000000180029218     LIBCMT:thread_safe_statics.obj
 0002:00003238       ??_C@_0BJ@JEBJOJFJ@SleepConditionVariableCS@ 0000000180029238     LIBCMT:thread_safe_statics.obj
 0002:00003258       ??_C@_0BJ@PGPPEPCC@WakeAllConditionVariable@ 0000000180029258     LIBCMT:thread_safe_statics.obj
 0002:00003271       ?nothrow@std@@3Unothrow_t@1@B 0000000180029271     LIBCMT:std_nothrow.obj
 0002:00003288       _pRawDllMain               0000000180029288     LIBCMT:dll_dllmain.obj
 0002:00003288       _pDefaultRawDllMain        0000000180029288     LIBCMT:dll_dllmain.obj
 0002:00003298       ??_7exception@std@@6B@     0000000180029298     LIBCMT:throw_bad_alloc.obj
 0002:000032a8       ??_C@_0BC@EOODALEL@Unknown?5exception@ 00000001800292a8     LIBCMT:throw_bad_alloc.obj
 0002:000032c8       ??_7bad_alloc@std@@6B@     00000001800292c8     LIBCMT:throw_bad_alloc.obj
 0002:000032d8       ??_C@_0P@GHFPNOJB@bad?5allocation@ 00000001800292d8     LIBCMT:throw_bad_alloc.obj
 0002:000032f0       ??_7bad_array_new_length@std@@6B@ 00000001800292f0     LIBCMT:throw_bad_alloc.obj
 0002:00003300       ??_C@_0BF@KINCDENJ@bad?5array?5new?5length@ 0000000180029300     LIBCMT:throw_bad_alloc.obj
 0002:00003320       ??_7type_info@@6B@         0000000180029320     LIBCMT:std_type_info_static.obj
 0002:00003328       GUID_ATLVer110             0000000180029328     atls:atlbase.obj
 0002:00003340       ??_C@_1IC@ONKHOIDK@?$AAE?$AAR?$AAR?$AAO?$AAR?$AA?5?$AA?3?$AA?5?$AAU?$AAn?$AAa?$AAb?$AAl?$AAe?$AA?5@ 0000000180029340     atls:atlbase.obj
 0002:000033c8       ??_C@_0N@FJEPLCIH@atlthunk?4dll@ 00000001800293c8     atls:atlthunk.obj
 0002:000033d8       ??_C@_0BG@GAKFHCBM@AtlThunk_AllocateData@ 00000001800293d8     atls:atlthunk.obj
 0002:000033f0       ??_C@_0BC@JKONFIAH@AtlThunk_InitData@ 00000001800293f0     atls:atlthunk.obj
 0002:00003408       ??_C@_0BE@IAOEELAK@AtlThunk_DataToCode@ 0000000180029408     atls:atlthunk.obj
 0002:00003420       ??_C@_0BC@GBGKAIPI@AtlThunk_FreeData@ 0000000180029420     atls:atlthunk.obj
 0002:00003438       ?s_negLengthTab@FH4@@3QBCB 0000000180029438     libvcruntime:risctrnsctrl.obj
 0002:00003448       ?s_shiftTab@FH4@@3QBEB     0000000180029448     libvcruntime:risctrnsctrl.obj
 0002:000034f8       _pDestructExceptionObject  00000001800294f8     libvcruntime:ehhelpers.obj
 0002:00003508       ??_7bad_exception@std@@6B@ 0000000180029508     libvcruntime:frame.obj
 0002:00003518       ??_C@_0O@DPKOEFFH@bad?5exception@ 0000000180029518     libvcruntime:frame.obj
 0002:00003c30       ??_C@_08EHJDFFNH@__based?$CI@ 0000000180029c30     libvcruntime:undname.obj
 0002:00003c40       ??_C@_07KOLFKCDI@__cdecl@  0000000180029c40     libvcruntime:undname.obj
 0002:00003c48       ??_C@_08GHMPAG@__pascal@   0000000180029c48     libvcruntime:undname.obj
 0002:00003c58       ??_C@_09IFJBGAPI@__stdcall@ 0000000180029c58     libvcruntime:undname.obj
 0002:00003c68       ??_C@_0L@NPHFGOKO@__thiscall@ 0000000180029c68     libvcruntime:undname.obj
 0002:00003c78       ??_C@_0L@JMKHOMEK@__fastcall@ 0000000180029c78     libvcruntime:undname.obj
 0002:00003c88       ??_C@_0N@BCKKPABJ@__vectorcall@ 0000000180029c88     libvcruntime:undname.obj
 0002:00003c98       ??_C@_09HIJEGCPM@__clrcall@ 0000000180029c98     libvcruntime:undname.obj
 0002:00003ca4       ??_C@_06GHPCKEAG@__eabi@   0000000180029ca4     libvcruntime:undname.obj
 0002:00003cb0       ??_C@_09IOPIDJLG@__swift_1@ 0000000180029cb0     libvcruntime:undname.obj
 0002:00003cc0       ??_C@_09KFNFGKHF@__swift_2@ 0000000180029cc0     libvcruntime:undname.obj
 0002:00003cd0       ??_C@_07JOMMBBKO@__ptr64@  0000000180029cd0     libvcruntime:undname.obj
 0002:00003cd8       ??_C@_0L@PILCLIHE@__restrict@ 0000000180029cd8     libvcruntime:undname.obj
 0002:00003ce8       ??_C@_0M@GFIIJFMG@__unaligned@ 0000000180029ce8     libvcruntime:undname.obj
 0002:00003cf8       ??_C@_09DHDLOLLB@restrict?$CI@ 0000000180029cf8     libvcruntime:undname.obj
 0002:00003d02       ??_C@_00CNPNBAHC@@         0000000180029d02     libvcruntime:undname.obj
 0002:00003d04       ??_C@_04NIHEBCM@?5new@     0000000180029d04     libvcruntime:undname.obj
 0002:00003d10       ??_C@_07FPCDHGMM@?5delete@ 0000000180029d10     libvcruntime:undname.obj
 0002:00003d18       ??_C@_01NEMOKFLO@?$DN@     0000000180029d18     libvcruntime:undname.obj
 0002:00003d1c       ??_C@_02GPIOPFAK@?$DO?$DO@ 0000000180029d1c     libvcruntime:undname.obj
 0002:00003d20       ??_C@_02FODMEDOG@?$DM?$DM@ 0000000180029d20     libvcruntime:undname.obj
 0002:00003d24       ??_C@_01DCLJPIOD@?$CB@     0000000180029d24     libvcruntime:undname.obj
 0002:00003d28       ??_C@_02EGOFBIJA@?$DN?$DN@ 0000000180029d28     libvcruntime:undname.obj
 0002:00003d2c       ??_C@_02FDNJECIE@?$CB?$DN@ 0000000180029d2c     libvcruntime:undname.obj
 0002:00003d30       ??_C@_02GPECMEKF@?$FL?$FN@ 0000000180029d30     libvcruntime:undname.obj
 0002:00003d38       ??_C@_08LHJFAFGD@operator@ 0000000180029d38     libvcruntime:undname.obj
 0002:00003d44       ??_C@_02HBOOOICD@?9?$DO@   0000000180029d44     libvcruntime:undname.obj
 0002:00003d48       ??_C@_01NBENCBCI@?$CK@     0000000180029d48     libvcruntime:undname.obj
 0002:00003d4c       ??_C@_02ECNGHCIF@?$CL?$CL@ 0000000180029d4c     libvcruntime:undname.obj
 0002:00003d50       ??_C@_02BAABKJLB@?9?9@     0000000180029d50     libvcruntime:undname.obj
 0002:00003d54       ??_C@_01JOAMLHOP@?9@       0000000180029d54     libvcruntime:undname.obj
 0002:00003d58       ??_C@_01MIFGBAGJ@?$CL@     0000000180029d58     libvcruntime:undname.obj
 0002:00003d5c       ??_C@_01HNPIGOCE@?$CG@     0000000180029d5c     libvcruntime:undname.obj
 0002:00003d60       ??_C@_03MNHNFDLC@?9?$DO?$CK@ 0000000180029d60     libvcruntime:undname.obj
 0002:00003d64       ??_C@_01KMDKNFGN@?1@       0000000180029d64     libvcruntime:undname.obj
 0002:00003d68       ??_C@_01FGNFDNOH@?$CF@     0000000180029d68     libvcruntime:undname.obj
 0002:00003d6c       ??_C@_01MNNFJEPP@?$DM@     0000000180029d6c     libvcruntime:undname.obj
 0002:00003d70       ??_C@_02EHCHHCKH@?$DM?$DN@ 0000000180029d70     libvcruntime:undname.obj
 0002:00003d74       ??_C@_01PPODPGHN@?$DO@     0000000180029d74     libvcruntime:undname.obj
 0002:00003d78       ??_C@_02EEKDKGMJ@?$DO?$DN@ 0000000180029d78     libvcruntime:undname.obj
 0002:00003d7c       ??_C@_01IHBHIGKO@?0@       0000000180029d7c     libvcruntime:undname.obj
 0002:00003d80       ??_C@_02HCKGKOFO@?$CI?$CJ@ 0000000180029d80     libvcruntime:undname.obj
 0002:00003d84       ??_C@_01PJKLJHI@?$HO@      0000000180029d84     libvcruntime:undname.obj
 0002:00003d88       ??_C@_01JKBOJNNK@?$FO@     0000000180029d88     libvcruntime:undname.obj
 0002:00003d8c       ??_C@_01DNKMNLPK@?$HM@     0000000180029d8c     libvcruntime:undname.obj
 0002:00003d90       ??_C@_02PPKAJPJL@?$CG?$CG@ 0000000180029d90     libvcruntime:undname.obj
 0002:00003d94       ??_C@_02NONPIBCD@?$HM?$HM@ 0000000180029d94     libvcruntime:undname.obj
 0002:00003d98       ??_C@_02FPIMKNGF@?$CK?$DN@ 0000000180029d98     libvcruntime:undname.obj
 0002:00003d9c       ??_C@_02FOEOMHFC@?$CL?$DN@ 0000000180029d9c     libvcruntime:undname.obj
 0002:00003da0       ??_C@_02FKMDLLOA@?9?$DN@   0000000180029da0     libvcruntime:undname.obj
 0002:00003da4       ??_C@_02FJEHGPIO@?1?$DN@   0000000180029da4     libvcruntime:undname.obj
 0002:00003da8       ??_C@_02FENAOKFI@?$CF?$DN@ 0000000180029da8     libvcruntime:undname.obj
 0002:00003dac       ??_C@_03IKFCCPFF@?$DO?$DO?$DN@ 0000000180029dac     libvcruntime:undname.obj
 0002:00003db0       ??_C@_03CDNPDDLA@?$DM?$DM?$DN@ 0000000180029db0     libvcruntime:undname.obj
 0002:00003db4       ??_C@_02FGJGFEAB@?$CG?$DN@ 0000000180029db4     libvcruntime:undname.obj
 0002:00003db8       ??_C@_02DHLNPPGH@?$HM?$DN@ 0000000180029db8     libvcruntime:undname.obj
 0002:00003dbc       ??_C@_02MHEGNOJ@?$FO?$DN@  0000000180029dbc     libvcruntime:undname.obj
 0002:00003dc0       ??_C@_09IFPLHPGF@?$GAvftable?8@ 0000000180029dc0     libvcruntime:undname.obj
 0002:00003dd0       ??_C@_09BLBHBJP@?$GAvbtable?8@ 0000000180029dd0     libvcruntime:undname.obj
 0002:00003de0       ??_C@_07FEEIOKP@?$GAvcall?8@ 0000000180029de0     libvcruntime:undname.obj
 0002:00003de8       ??_C@_08LLFFHHDJ@?$GAtypeof?8@ 0000000180029de8     libvcruntime:undname.obj
 0002:00003df8       ??_C@_0BF@KDPPACIK@?$GAlocal?5static?5guard?8@ 0000000180029df8     libvcruntime:undname.obj
 0002:00003e10       ??_C@_08OBABFOLI@?$GAstring?8@ 0000000180029e10     libvcruntime:undname.obj
 0002:00003e20       ??_C@_0BD@JDLKDPAB@?$GAvbase?5destructor?8@ 0000000180029e20     libvcruntime:undname.obj
 0002:00003e38       ??_C@_0BN@DEGPLNFK@?$GAvector?5deleting?5destructor?8@ 0000000180029e38     libvcruntime:undname.obj
 0002:00003e58       ??_C@_0BO@OBMKPJIG@?$GAdefault?5constructor?5closure?8@ 0000000180029e58     libvcruntime:undname.obj
 0002:00003e78       ??_C@_0BN@IMDCHIKM@?$GAscalar?5deleting?5destructor?8@ 0000000180029e78     libvcruntime:undname.obj
 0002:00003e98       ??_C@_0BO@PFGOCPJJ@?$GAvector?5constructor?5iterator?8@ 0000000180029e98     libvcruntime:undname.obj
 0002:00003eb8       ??_C@_0BN@LFPFMEDL@?$GAvector?5destructor?5iterator?8@ 0000000180029eb8     libvcruntime:undname.obj
 0002:00003ed8       ??_C@_0CE@IKBNEHA@?$GAvector?5vbase?5constructor?5itera@ 0000000180029ed8     libvcruntime:undname.obj
 0002:00003f00       ??_C@_0BL@NILFHHPC@?$GAvirtual?5displacement?5map?8@ 0000000180029f00     libvcruntime:undname.obj
 0002:00003f20       ??_C@_0CB@JONCMFFK@?$GAeh?5vector?5constructor?5iterator@ 0000000180029f20     libvcruntime:undname.obj
 0002:00003f48       ??_C@_0CA@GCEOPDGL@?$GAeh?5vector?5destructor?5iterator?8@ 0000000180029f48     libvcruntime:undname.obj
 0002:00003f68       ??_C@_0CH@OOJPLCPH@?$GAeh?5vector?5vbase?5constructor?5it@ 0000000180029f68     libvcruntime:undname.obj
 0002:00003f90       ??_C@_0BL@LLKPOHJI@?$GAcopy?5constructor?5closure?8@ 0000000180029f90     libvcruntime:undname.obj
 0002:00003fb0       ??_C@_0BA@KBCDOMBN@?$GAudt?5returning?8@ 0000000180029fb0     libvcruntime:undname.obj
 0002:00003fc0       ??_C@_03KLGMFNMG@?$GAEH@   0000000180029fc0     libvcruntime:undname.obj
 0002:00003fc4       ??_C@_05KHLCHHI@?$GARTTI@  0000000180029fc4     libvcruntime:undname.obj
 0002:00003fd0       ??_C@_0BA@KKLDJDLB@?$GAlocal?5vftable?8@ 0000000180029fd0     libvcruntime:undname.obj
 0002:00003fe0       ??_C@_0CE@IIHCMGGL@?$GAlocal?5vftable?5constructor?5clos@ 0000000180029fe0     libvcruntime:undname.obj
 0002:00004004       ??_C@_06FHBGPFGH@?5new?$FL?$FN@ 000000018002a004     libvcruntime:undname.obj
 0002:00004010       ??_C@_09LBNFPBCA@?5delete?$FL?$FN@ 000000018002a010     libvcruntime:undname.obj
 0002:00004020       ??_C@_0P@HJKNJFNN@?$GAomni?5callsig?8@ 000000018002a020     libvcruntime:undname.obj
 0002:00004030       ??_C@_0BL@CNOONJFP@?$GAplacement?5delete?5closure?8@ 000000018002a030     libvcruntime:undname.obj
 0002:00004050       ??_C@_0BN@CKNJLHMB@?$GAplacement?5delete?$FL?$FN?5closure?8@ 000000018002a050     libvcruntime:undname.obj
 0002:00004070       ??_C@_0CG@CFDHKGGD@?$GAmanaged?5vector?5constructor?5ite@ 000000018002a070     libvcruntime:undname.obj
 0002:00004098       ??_C@_0CF@IMGKMJNO@?$GAmanaged?5vector?5destructor?5iter@ 000000018002a098     libvcruntime:undname.obj
 0002:000040c0       ??_C@_0CG@HLDDJMAG@?$GAeh?5vector?5copy?5constructor?5ite@ 000000018002a0c0     libvcruntime:undname.obj
 0002:000040e8       ??_C@_0CM@FCBBDIGB@?$GAeh?5vector?5vbase?5copy?5construct@ 000000018002a0e8     libvcruntime:undname.obj
 0002:00004118       ??_C@_0BL@CLIPGLGB@?$GAdynamic?5initializer?5for?5?8@ 000000018002a118     libvcruntime:undname.obj
 0002:00004138       ??_C@_0CB@PDBIFEP@?$GAdynamic?5atexit?5destructor?5for?5@ 000000018002a138     libvcruntime:undname.obj
 0002:00004160       ??_C@_0CD@CGAJBKEJ@?$GAvector?5copy?5constructor?5iterat@ 000000018002a160     libvcruntime:undname.obj
 0002:00004188       ??_C@_0CJ@GJELGAMM@?$GAvector?5vbase?5copy?5constructor?5@ 000000018002a188     libvcruntime:undname.obj
 0002:000041b8       ??_C@_0CL@FGIJHLCE@?$GAmanaged?5vector?5copy?5constructo@ 000000018002a1b8     libvcruntime:undname.obj
 0002:000041e8       ??_C@_0BM@PMGGMLDN@?$GAlocal?5static?5thread?5guard?8@ 000000018002a1e8     libvcruntime:undname.obj
 0002:00004208       ??_C@_0N@BDNMDMOL@operator?5?$CC?$CC?5@ 000000018002a208     libvcruntime:undname.obj
 0002:00004218       ??_C@_0BC@GGEBGALA@operator?5co_await@ 000000018002a218     libvcruntime:undname.obj
 0002:00004230       ??_C@_0M@GAAIMMOH@operator?$DM?$DN?$DO@ 000000018002a230     libvcruntime:undname.obj
 0002:00004240       ??_C@_0BC@DAFEJGAK@?5Type?5Descriptor?8@ 000000018002a240     libvcruntime:undname.obj
 0002:00004258       ??_C@_0BM@LDKODKLH@?5Base?5Class?5Descriptor?5at?5?$CI@ 000000018002a258     libvcruntime:undname.obj
 0002:00004278       ??_C@_0BD@LGICGFMM@?5Base?5Class?5Array?8@ 000000018002a278     libvcruntime:undname.obj
 0002:00004290       ??_C@_0BN@MECKDCOJ@?5Class?5Hierarchy?5Descriptor?8@ 000000018002a290     libvcruntime:undname.obj
 0002:000042b0       ??_C@_0BK@CFCOFLF@?5Complete?5Object?5Locator?8@ 000000018002a2b0     libvcruntime:undname.obj
 0002:000042d0       ??_C@_0BG@JNJLAMPM@?$GAanonymous?5namespace?8@ 000000018002a2d0     libvcruntime:undname.obj
 0002:00004300       ??_C@_1DM@KHCHBNEB@?$AAa?$AAp?$AAi?$AA?9?$AAm?$AAs?$AA?9?$AAw?$AAi?$AAn?$AA?9?$AAc?$AAo?$AAr?$AAe@ 000000018002a300     libvcruntime:winapi_downlevel.obj
 0002:00004340       ??_C@_1DK@LPPGFMPP@?$AAa?$AAp?$AAi?$AA?9?$AAm?$AAs?$AA?9?$AAw?$AAi?$AAn?$AA?9?$AAc?$AAo?$AAr?$AAe@ 000000018002a340     libvcruntime:winapi_downlevel.obj
 0002:00004380       ??_C@_1BC@GDMECMAK@?$AAk?$AAe?$AAr?$AAn?$AAe?$AAl?$AA3?$AA2@ 000000018002a380     libvcruntime:winapi_downlevel.obj
 0002:00004398       ??_C@_1BA@PFFKHIOG@?$AAa?$AAp?$AAi?$AA?9?$AAm?$AAs?$AA?9@ 000000018002a398     libvcruntime:winapi_downlevel.obj
 0002:000043b0       ??_C@_08KNHFBNJ@FlsAlloc@  000000018002a3b0     libvcruntime:winapi_downlevel.obj
 0002:000043c8       ??_C@_07PEJMOBNF@FlsFree@  000000018002a3c8     libvcruntime:winapi_downlevel.obj
 0002:000043d8       ??_C@_0M@GDNOONDI@FlsGetValue@ 000000018002a3d8     libvcruntime:winapi_downlevel.obj
 0002:000043f0       ??_C@_0M@JCPCPOEF@FlsSetValue@ 000000018002a3f0     libvcruntime:winapi_downlevel.obj
 0002:00004408       ??_C@_0BM@HCFOFFN@InitializeCriticalSectionEx@ 000000018002a408     libvcruntime:winapi_downlevel.obj
 0002:000045a0       ?format_validation_lookup_table_spectre@__crt_stdio_output@@3V?$spectre_mitigated_lookup_table@Ustate_transition_pair@__crt_stdio_output@@$0IA@@1@B 000000018002a5a0     libucrt:output.obj
 0002:000049a0       ??_C@_1O@CEDCILHN@?$AA?$CI?$AAn?$AAu?$AAl?$AAl?$AA?$CJ@ 000000018002a9a0     libucrt:output.obj
 0002:000049b0       ??_C@_06OJHGLDPL@?$CInull?$CJ@ 000000018002a9b0     libucrt:output.obj
 0002:000049c0       __acrt_exception_action_table 000000018002a9c0     libucrt:exception_filter.obj
 0002:00004a80       __acrt_signal_action_table_count 000000018002aa80     libucrt:exception_filter.obj
 0002:00004a88       __acrt_signal_action_first_fpe_index 000000018002aa88     libucrt:exception_filter.obj
 0002:00004a90       __acrt_signal_action_fpe_count 000000018002aa90     libucrt:exception_filter.obj
 0002:00004a98       ??_C@_1BI@BGOHAHKC@?$AAm?$AAs?$AAc?$AAo?$AAr?$AAe?$AAe?$AA?4?$AAd?$AAl?$AAl@ 000000018002aa98     libucrt:exit.obj
 0002:00004ab0       ??_C@_0P@MIGLKIOC@CorExitProcess@ 000000018002aab0     libucrt:exit.obj
 0002:00004c60       ??_C@_1EA@JGEFHKEI@?$AAa?$AAp?$AAi?$AA?9?$AAm?$AAs?$AA?9?$AAw?$AAi?$AAn?$AA?9?$AAc?$AAo?$AAr?$AAe@ 000000018002ac60     libucrt:winapi_thunks.obj
 0002:00004ca0       ??_C@_1DI@IJCEHOCB@?$AAa?$AAp?$AAi?$AA?9?$AAm?$AAs?$AA?9?$AAw?$AAi?$AAn?$AA?9?$AAc?$AAo?$AAr?$AAe@ 000000018002aca0     libucrt:winapi_thunks.obj
 0002:00004ce0       ??_C@_1EI@MPIAOHOC@?$AAa?$AAp?$AAi?$AA?9?$AAm?$AAs?$AA?9?$AAw?$AAi?$AAn?$AA?9?$AAc?$AAo?$AAr?$AAe@ 000000018002ace0     libucrt:winapi_thunks.obj
 0002:00004d30       ??_C@_1FK@FPHCKFIE@?$AAa?$AAp?$AAi?$AA?9?$AAm?$AAs?$AA?9?$AAw?$AAi?$AAn?$AA?9?$AAc?$AAo?$AAr?$AAe@ 000000018002ad30     libucrt:winapi_thunks.obj
 0002:00004d90       ??_C@_1EM@DILCGIIO@?$AAa?$AAp?$AAi?$AA?9?$AAm?$AAs?$AA?9?$AAw?$AAi?$AAn?$AA?9?$AAc?$AAo?$AAr?$AAe@ 000000018002ad90     libucrt:winapi_thunks.obj
 0002:00004de0       ??_C@_1DM@LNCGDDPN@?$AAa?$AAp?$AAi?$AA?9?$AAm?$AAs?$AA?9?$AAw?$AAi?$AAn?$AA?9?$AAc?$AAo?$AAr?$AAe@ 000000018002ade0     libucrt:winapi_thunks.obj
 0002:00004e20       ??_C@_1DO@FPAPJEMD@?$AAa?$AAp?$AAi?$AA?9?$AAm?$AAs?$AA?9?$AAw?$AAi?$AAn?$AA?9?$AAc?$AAo?$AAr?$AAe@ 000000018002ae20     libucrt:winapi_thunks.obj
 0002:00004e60       ??_C@_1DK@NDHNAHIO@?$AAa?$AAp?$AAi?$AA?9?$AAm?$AAs?$AA?9?$AAw?$AAi?$AAn?$AA?9?$AAc?$AAo?$AAr?$AAe@ 000000018002ae60     libucrt:winapi_thunks.obj
 0002:00004ea0       ??_C@_1DM@KGHDGBCM@?$AAa?$AAp?$AAi?$AA?9?$AAm?$AAs?$AA?9?$AAw?$AAi?$AAn?$AA?9?$AAc?$AAo?$AAr?$AAe@ 000000018002aea0     libucrt:winapi_thunks.obj
 0002:00004ee0       ??_C@_1EO@IJIOEFOH@?$AAa?$AAp?$AAi?$AA?9?$AAm?$AAs?$AA?9?$AAw?$AAi?$AAn?$AA?9?$AAr?$AAt?$AAc?$AAo@ 000000018002aee0     libucrt:winapi_thunks.obj
 0002:00004f30       ??_C@_1FG@HHGEKANL@?$AAa?$AAp?$AAi?$AA?9?$AAm?$AAs?$AA?9?$AAw?$AAi?$AAn?$AA?9?$AAs?$AAe?$AAc?$AAu@ 000000018002af30     libucrt:winapi_thunks.obj
 0002:00004f90       ??_C@_1EG@DBIOJECG@?$AAe?$AAx?$AAt?$AA?9?$AAm?$AAs?$AA?9?$AAw?$AAi?$AAn?$AA?9?$AAn?$AAt?$AAu?$AAs@ 000000018002af90     libucrt:winapi_thunks.obj
 0002:00004fe0       ??_C@_1EO@FIHMJCLF@?$AAe?$AAx?$AAt?$AA?9?$AAm?$AAs?$AA?9?$AAw?$AAi?$AAn?$AA?9?$AAn?$AAt?$AAu?$AAs@ 000000018002afe0     libucrt:winapi_thunks.obj
 0002:00005030       ??_C@_1BC@DNHGCMLG@?$AAa?$AAd?$AAv?$AAa?$AAp?$AAi?$AA3?$AA2@ 000000018002b030     libucrt:winapi_thunks.obj
 0002:00005048       ??_C@_1M@OAIMIKLP@?$AAn?$AAt?$AAd?$AAl?$AAl@ 000000018002b048     libucrt:winapi_thunks.obj
 0002:00005060       ??_C@_1EG@DPGNFKGC@?$AAa?$AAp?$AAi?$AA?9?$AAm?$AAs?$AA?9?$AAw?$AAi?$AAn?$AA?9?$AAa?$AAp?$AAp?$AAm@ 000000018002b060     libucrt:winapi_thunks.obj
 0002:000050a8       ??_C@_1O@BCCLBEOE@?$AAu?$AAs?$AAe?$AAr?$AA3?$AA2@ 000000018002b0a8     libucrt:winapi_thunks.obj
 0002:000050b8       ??_C@_1BA@IAIFMGEF@?$AAe?$AAx?$AAt?$AA?9?$AAm?$AAs?$AA?9@ 000000018002b0b8     libucrt:winapi_thunks.obj
 0002:000050d0       ??_C@_0BA@FHFNEAED@AreFileApisANSI@ 000000018002b0d0     libucrt:winapi_thunks.obj
 0002:00005110       ??_C@_0O@KKBNKAPF@LCMapStringEx@ 000000018002b110     libucrt:winapi_thunks.obj
 0002:00005128       ??_C@_0BB@HBDEELFH@LocaleNameToLCID@ 000000018002b128     libucrt:winapi_thunks.obj
 0002:00005140       ??_C@_0CF@OJOFEIGO@AppPolicyGetProcessTerminationM@ 000000018002b140     libucrt:winapi_thunks.obj
 0002:00005170       ??_C@_0BI@BKLFFAPO@SetThreadStackGuarantee@ 000000018002b170     libucrt:winapi_thunks.obj
 0002:00005210       ??_C@_03OEIAHPBN@INF@      000000018002b210     libucrt:cvt.obj
 0002:00005214       ??_C@_03OJHLLCGB@inf@      000000018002b214     libucrt:cvt.obj
 0002:00005218       ??_C@_03LKNCIKJB@NAN@      000000018002b218     libucrt:cvt.obj
 0002:0000521c       ??_C@_03LHCJEHON@nan@      000000018002b21c     libucrt:cvt.obj
 0002:00005220       ??_C@_09OFJJIMPC@NAN?$CISNAN?$CJ@ 000000018002b220     libucrt:cvt.obj
 0002:00005230       ??_C@_09IPFBKMDL@nan?$CIsnan?$CJ@ 000000018002b230     libucrt:cvt.obj
 0002:00005240       ??_C@_08IKHNHAJ@NAN?$CIIND?$CJ@ 000000018002b240     libucrt:cvt.obj
 0002:00005250       ??_C@_08OFCDMILK@nan?$CIind?$CJ@ 000000018002b250     libucrt:cvt.obj
 0002:0000525c       ??_C@_05KLBDPFGC@e?$CL000@ 000000018002b25c     libucrt:cvt.obj
 0002:00005270       __lc_time_c                000000018002b270     libucrt:nlsdata.obj
 0002:00005530       ??_C@_03KOEHGMDN@Sun@      000000018002b530     libucrt:nlsdata.obj
 0002:00005534       ??_C@_03PDAGKDH@Mon@       000000018002b534     libucrt:nlsdata.obj
 0002:00005538       ??_C@_03NAGEINEP@Tue@      000000018002b538     libucrt:nlsdata.obj
 0002:0000553c       ??_C@_03MHOMLAJA@Wed@      000000018002b53c     libucrt:nlsdata.obj
 0002:00005540       ??_C@_03IOFIKPDN@Thu@      000000018002b540     libucrt:nlsdata.obj
 0002:00005544       ??_C@_03IDIOELNC@Fri@      000000018002b544     libucrt:nlsdata.obj
 0002:00005548       ??_C@_03FEFJNEK@Sat@       000000018002b548     libucrt:nlsdata.obj
 0002:0000554c       ??_C@_06OOPIFAJ@Sunday@    000000018002b54c     libucrt:nlsdata.obj
 0002:00005554       ??_C@_06JLEDEDGH@Monday@   000000018002b554     libucrt:nlsdata.obj
 0002:00005560       ??_C@_07BAAGCFCM@Tuesday@  000000018002b560     libucrt:nlsdata.obj
 0002:00005568       ??_C@_09DLIGFAKA@Wednesday@ 000000018002b568     libucrt:nlsdata.obj
 0002:00005578       ??_C@_08HACCIKIA@Thursday@ 000000018002b578     libucrt:nlsdata.obj
 0002:00005584       ??_C@_06JECMNKMI@Friday@   000000018002b584     libucrt:nlsdata.obj
 0002:00005590       ??_C@_08INBOOONO@Saturday@ 000000018002b590     libucrt:nlsdata.obj
 0002:0000559c       ??_C@_03JIHJHPIE@Jan@      000000018002b59c     libucrt:nlsdata.obj
 0002:000055a0       ??_C@_03HJBDCHOM@Feb@      000000018002b5a0     libucrt:nlsdata.obj
 0002:000055a4       ??_C@_03ODNJBKGA@Mar@      000000018002b5a4     libucrt:nlsdata.obj
 0002:000055a8       ??_C@_03LEOLGMJP@Apr@      000000018002b5a8     libucrt:nlsdata.obj
 0002:000055ac       ??_C@_03CNMDKL@May@        000000018002b5ac     libucrt:nlsdata.obj
 0002:000055b0       ??_C@_03IDFGHECI@Jun@      000000018002b5b0     libucrt:nlsdata.obj
 0002:000055b4       ??_C@_03LBGABGKK@Jul@      000000018002b5b4     libucrt:nlsdata.obj
 0002:000055b8       ??_C@_03IFJFEIGA@Aug@      000000018002b5b8     libucrt:nlsdata.obj
 0002:000055bc       ??_C@_03GGCAPAJC@Sep@      000000018002b5bc     libucrt:nlsdata.obj
 0002:000055c0       ??_C@_03BMAOKBAD@Oct@      000000018002b5c0     libucrt:nlsdata.obj
 0002:000055c4       ??_C@_03JPJOFNIA@Nov@      000000018002b5c4     libucrt:nlsdata.obj
 0002:000055c8       ??_C@_03MKABNOCG@Dec@      000000018002b5c8     libucrt:nlsdata.obj
 0002:000055d0       ??_C@_07CGJPFGJA@January@  000000018002b5d0     libucrt:nlsdata.obj
 0002:000055d8       ??_C@_08GNJGEPFN@February@ 000000018002b5d8     libucrt:nlsdata.obj
 0002:000055e4       ??_C@_05HPCKOFNC@March@    000000018002b5e4     libucrt:nlsdata.obj
 0002:000055ec       ??_C@_05DMJDNLEJ@April@    000000018002b5ec     libucrt:nlsdata.obj
 0002:000055f4       ??_C@_04CNLMGBGM@June@     000000018002b5f4     libucrt:nlsdata.obj
 0002:000055fc       ??_C@_04MIEPOIFP@July@     000000018002b5fc     libucrt:nlsdata.obj
 0002:00005604       ??_C@_06LBBHFDDG@August@   000000018002b604     libucrt:nlsdata.obj
 0002:00005610       ??_C@_09BHHEALKD@September@ 000000018002b610     libucrt:nlsdata.obj
 0002:00005620       ??_C@_07JJNFCEND@October@  000000018002b620     libucrt:nlsdata.obj
 0002:00005628       ??_C@_08HCHEGEOA@November@ 000000018002b628     libucrt:nlsdata.obj
 0002:00005638       ??_C@_08EDHMEBNP@December@ 000000018002b638     libucrt:nlsdata.obj
 0002:00005644       ??_C@_02DEDBPAFC@AM@       000000018002b644     libucrt:nlsdata.obj
 0002:00005648       ??_C@_02CJNFDJBF@PM@       000000018002b648     libucrt:nlsdata.obj
 0002:00005650       ??_C@_08BPBNCDIB@MM?1dd?1yy@ 000000018002b650     libucrt:nlsdata.obj
 0002:00005660       ??_C@_0BE@CKGJFCPC@dddd?0?5MMMM?5dd?0?5yyyy@ 000000018002b660     libucrt:nlsdata.obj
 0002:00005678       ??_C@_08JCCMCCIL@HH?3mm?3ss@ 000000018002b678     libucrt:nlsdata.obj
 0002:00005688       ??_C@_17MBGCMIPB@?$AAS?$AAu?$AAn@ 000000018002b688     libucrt:nlsdata.obj
 0002:00005690       ??_C@_17KBOMKBF@?$AAM?$AAo?$AAn@ 000000018002b690     libucrt:nlsdata.obj
 0002:00005698       ??_C@_17BMKGEGOJ@?$AAT?$AAu?$AAe@ 000000018002b698     libucrt:nlsdata.obj
 0002:000056a0       ??_C@_17CJEDCEPE@?$AAW?$AAe?$AAd@ 000000018002b6a0     libucrt:nlsdata.obj
 0002:000056a8       ??_C@_17PDPHAADD@?$AAT?$AAh?$AAu@ 000000018002b6a8     libucrt:nlsdata.obj
 0002:000056b0       ??_C@_17HFOLPPLP@?$AAF?$AAr?$AAi@ 000000018002b6b0     libucrt:nlsdata.obj
 0002:000056b8       ??_C@_17GGIBDPIH@?$AAS?$AAa?$AAt@ 000000018002b6b8     libucrt:nlsdata.obj
 0002:000056c0       ??_C@_1O@IHNHDHPB@?$AAS?$AAu?$AAn?$AAd?$AAa?$AAy@ 000000018002b6c0     libucrt:nlsdata.obj
 0002:000056d0       ??_C@_1O@MMNBFLIA@?$AAM?$AAo?$AAn?$AAd?$AAa?$AAy@ 000000018002b6d0     libucrt:nlsdata.obj
 0002:000056e0       ??_C@_1BA@ENFBFFEK@?$AAT?$AAu?$AAe?$AAs?$AAd?$AAa?$AAy@ 000000018002b6e0     libucrt:nlsdata.obj
 0002:000056f0       ??_C@_1BE@EBOGMDOH@?$AAW?$AAe?$AAd?$AAn?$AAe?$AAs?$AAd?$AAa?$AAy@ 000000018002b6f0     libucrt:nlsdata.obj
 0002:00005708       ??_C@_1BC@HHMNLIHE@?$AAT?$AAh?$AAu?$AAr?$AAs?$AAd?$AAa?$AAy@ 000000018002b708     libucrt:nlsdata.obj
 0002:00005720       ??_C@_1O@PDICJHAG@?$AAF?$AAr?$AAi?$AAd?$AAa?$AAy@ 000000018002b720     libucrt:nlsdata.obj
 0002:00005730       ??_C@_1BC@ENMNNPAJ@?$AAS?$AAa?$AAt?$AAu?$AAr?$AAd?$AAa?$AAy@ 000000018002b730     libucrt:nlsdata.obj
 0002:00005748       ??_C@_17DKNBKCHM@?$AAJ?$AAa?$AAn@ 000000018002b748     libucrt:nlsdata.obj
 0002:00005750       ??_C@_17LMDJEKJN@?$AAF?$AAe?$AAb@ 000000018002b750     libucrt:nlsdata.obj
 0002:00005758       ??_C@_17CKNLEDEC@?$AAM?$AAa?$AAr@ 000000018002b758     libucrt:nlsdata.obj
 0002:00005760       ??_C@_17LFPOIHDD@?$AAA?$AAp?$AAr@ 000000018002b760     libucrt:nlsdata.obj
 0002:00005768       ??_C@_17PNNKMEED@?$AAM?$AAa?$AAy@ 000000018002b768     libucrt:nlsdata.obj
 0002:00005770       ??_C@_17KCJGOCPB@?$AAJ?$AAu?$AAn@ 000000018002b770     libucrt:nlsdata.obj
 0002:00005778       ??_C@_17IJPCKHK@?$AAJ?$AAu?$AAl@ 000000018002b778     libucrt:nlsdata.obj
 0002:00005780       ??_C@_17ICPELBCN@?$AAA?$AAu?$AAg@ 000000018002b780     libucrt:nlsdata.obj
 0002:00005788       ??_C@_17HCHCOKMG@?$AAS?$AAe?$AAp@ 000000018002b788     libucrt:nlsdata.obj
 0002:00005790       ??_C@_17FNLKOI@?$AAO?$AAc?$AAt@ 000000018002b790     libucrt:nlsdata.obj
 0002:00005798       ??_C@_17BBDMLCIG@?$AAN?$AAo?$AAv@ 000000018002b798     libucrt:nlsdata.obj
 0002:000057a0       ??_C@_17EGKACKIF@?$AAD?$AAe?$AAc@ 000000018002b7a0     libucrt:nlsdata.obj
 0002:000057a8       ??_C@_1BA@EFMEIEBA@?$AAJ?$AAa?$AAn?$AAu?$AAa?$AAr?$AAy@ 000000018002b7a8     libucrt:nlsdata.obj
 0002:000057b8       ??_C@_1BC@JGDDFFAM@?$AAF?$AAe?$AAb?$AAr?$AAu?$AAa?$AAr?$AAy@ 000000018002b7b8     libucrt:nlsdata.obj
 0002:000057d0       ??_C@_1M@IKEENEDF@?$AAM?$AAa?$AAr?$AAc?$AAh@ 000000018002b7d0     libucrt:nlsdata.obj
 0002:000057e0       ??_C@_1M@GJNLMHFD@?$AAA?$AAp?$AAr?$AAi?$AAl@ 000000018002b7e0     libucrt:nlsdata.obj
 0002:000057f0       ??_C@_19EPFLPGAP@?$AAJ?$AAu?$AAn?$AAe@ 000000018002b7f0     libucrt:nlsdata.obj
 0002:00005800       ??_C@_19BIFMLPCD@?$AAJ?$AAu?$AAl?$AAy@ 000000018002b800     libucrt:nlsdata.obj
 0002:00005810       ??_C@_1O@PAHLKOAC@?$AAA?$AAu?$AAg?$AAu?$AAs?$AAt@ 000000018002b810     libucrt:nlsdata.obj
 0002:00005820       ??_C@_1BE@DKAAMBJL@?$AAS?$AAe?$AAp?$AAt?$AAe?$AAm?$AAb?$AAe?$AAr@ 000000018002b820     libucrt:nlsdata.obj
 0002:00005838       ??_C@_1BA@EPANDLNG@?$AAO?$AAc?$AAt?$AAo?$AAb?$AAe?$AAr@ 000000018002b838     libucrt:nlsdata.obj
 0002:00005848       ??_C@_1BC@BGLIFPF@?$AAN?$AAo?$AAv?$AAe?$AAm?$AAb?$AAe?$AAr@ 000000018002b848     libucrt:nlsdata.obj
 0002:00005860       ??_C@_1BC@FEMKIFH@?$AAD?$AAe?$AAc?$AAe?$AAm?$AAb?$AAe?$AAr@ 000000018002b860     libucrt:nlsdata.obj
 0002:00005874       ??_C@_15ODEHAHHF@?$AAA?$AAM@ 000000018002b874     libucrt:nlsdata.obj
 0002:0000587c       ??_C@_15CLMNNGEL@?$AAP?$AAM@ 000000018002b87c     libucrt:nlsdata.obj
 0002:00005888       ??_C@_1BC@IEBCMHCM@?$AAM?$AAM?$AA?1?$AAd?$AAd?$AA?1?$AAy?$AAy@ 000000018002b888     libucrt:nlsdata.obj
 0002:000058a0       ??_C@_1CI@KNAKOEBC@?$AAd?$AAd?$AAd?$AAd?$AA?0?$AA?5?$AAM?$AAM?$AAM?$AAM?$AA?5?$AAd?$AAd?$AA?0?$AA?5@ 000000018002b8a0     libucrt:nlsdata.obj
 0002:000058c8       ??_C@_1BC@GDGBMEMK@?$AAH?$AAH?$AA?3?$AAm?$AAm?$AA?3?$AAs?$AAs@ 000000018002b8c8     libucrt:nlsdata.obj
 0002:000058e0       ??_C@_1M@BMHNFIME@?$AAe?$AAn?$AA?9?$AAU?$AAS@ 000000018002b8e0     libucrt:nlsdata.obj
 0002:00005910       ??_C@_1M@HPNHIDJI@?$AAj?$AAa?$AA?9?$AAJ?$AAP@ 000000018002b910     libucrt:mbctype.obj
 0002:00005920       ??_C@_1M@BIBDDEMK@?$AAz?$AAh?$AA?9?$AAC?$AAN@ 000000018002b920     libucrt:mbctype.obj
 0002:00005930       ??_C@_1M@JLOOOEGK@?$AAk?$AAo?$AA?9?$AAK?$AAR@ 000000018002b930     libucrt:mbctype.obj
 0002:00005940       ??_C@_1M@CLNBBOPM@?$AAz?$AAh?$AA?9?$AAT?$AAW@ 000000018002b940     libucrt:mbctype.obj
 0002:00005950       __newctype                 000000018002b950     libucrt:ctype.obj
 0002:00005c50       __newclmap                 000000018002bc50     libucrt:ctype.obj
 0002:00005dd0       __newcumap                 000000018002bdd0     libucrt:ctype.obj
 0002:00005f50       _wctype                    000000018002bf50     libucrt:ctype.obj
 0002:00006fa0       ??_C@_15EMKDOKLE@?$AAa?$AAr@ 000000018002cfa0     libucrt:lcidtoname_downlevel.obj
 0002:00006fa8       ??_C@_15KNPADPLH@?$AAb?$AAg@ 000000018002cfa8     libucrt:lcidtoname_downlevel.obj
 0002:00006fb0       ??_C@_15EDMHLDMO@?$AAc?$AAa@ 000000018002cfb0     libucrt:lcidtoname_downlevel.obj
 0002:00006fb8       ??_C@_1O@BPEAJADD@?$AAz?$AAh?$AA?9?$AAC?$AAH?$AAS@ 000000018002cfb8     libucrt:lcidtoname_downlevel.obj
 0002:00006fc8       ??_C@_15LJNHCMNK@?$AAc?$AAs@ 000000018002cfc8     libucrt:lcidtoname_downlevel.obj
 0002:00006fd0       ??_C@_15FOMCIDHG@?$AAd?$AAa@ 000000018002cfd0     libucrt:lcidtoname_downlevel.obj
 0002:00006fd8       ??_C@_15NBKABECB@?$AAd?$AAe@ 000000018002cfd8     libucrt:lcidtoname_downlevel.obj
 0002:00006fe0       ??_C@_15GHPEIIAO@?$AAe?$AAl@ 000000018002cfe0     libucrt:lcidtoname_downlevel.obj
 0002:00006fe8       ??_C@_15MNPNEAIF@?$AAe?$AAn@ 000000018002cfe8     libucrt:lcidtoname_downlevel.obj
 0002:00006ff0       ??_C@_15GPIOMPMH@?$AAe?$AAs@ 000000018002cff0     libucrt:lcidtoname_downlevel.obj
 0002:00006ff8       ??_C@_15NGLOAKJC@?$AAf?$AAi@ 000000018002cff8     libucrt:lcidtoname_downlevel.obj
 0002:00007000       ??_C@_15FBKGNKAM@?$AAf?$AAr@ 000000018002d000     libucrt:lcidtoname_downlevel.obj
 0002:00007008       ??_C@_15KGGCNEFK@?$AAh?$AAe@ 000000018002d008     libucrt:lcidtoname_downlevel.obj
 0002:00007010       ??_C@_15PGHLIDMF@?$AAh?$AAu@ 000000018002d010     libucrt:lcidtoname_downlevel.obj
 0002:00007018       ??_C@_15BIEMAPLM@?$AAi?$AAs@ 000000018002d018     libucrt:lcidtoname_downlevel.obj
 0002:00007020       ??_C@_15IFJLDHAF@?$AAi?$AAt@ 000000018002d020     libucrt:lcidtoname_downlevel.obj
 0002:00007028       ??_C@_15GEMIOCAG@?$AAj?$AAa@ 000000018002d028     libucrt:lcidtoname_downlevel.obj
 0002:00007030       ??_C@_15EPELEGJA@?$AAk?$AAo@ 000000018002d030     libucrt:lcidtoname_downlevel.obj
 0002:00007038       ??_C@_15NDDHIMN@?$AAn?$AAl@ 000000018002d038     libucrt:lcidtoname_downlevel.obj
 0002:00007040       ??_C@_15BPIGNHCD@?$AAn?$AAo@ 000000018002d040     libucrt:lcidtoname_downlevel.obj
 0002:00007048       ??_C@_15DEOPBLCG@?$AAp?$AAl@ 000000018002d048     libucrt:lcidtoname_downlevel.obj
 0002:00007050       ??_C@_15KBECGEFG@?$AAp?$AAt@ 000000018002d050     libucrt:lcidtoname_downlevel.obj
 0002:00007058       ??_C@_15GLJCBFMD@?$AAr?$AAo@ 000000018002d058     libucrt:lcidtoname_downlevel.obj
 0002:00007060       ??_C@_15FEDGKCDI@?$AAr?$AAu@ 000000018002d060     libucrt:lcidtoname_downlevel.obj
 0002:00007068       ??_C@_15GLKMLLHM@?$AAh?$AAr@ 000000018002d068     libucrt:lcidtoname_downlevel.obj
 0002:00007070       ??_C@_15CPKMFBDB@?$AAs?$AAk@ 000000018002d070     libucrt:lcidtoname_downlevel.obj
 0002:00007078       ??_C@_15BAAIOGMK@?$AAs?$AAq@ 000000018002d078     libucrt:lcidtoname_downlevel.obj
 0002:00007080       ??_C@_15INNPNOHD@?$AAs?$AAv@ 000000018002d080     libucrt:lcidtoname_downlevel.obj
 0002:00007088       ??_C@_15CABMMOGH@?$AAt?$AAh@ 000000018002d088     libucrt:lcidtoname_downlevel.obj
 0002:00007090       ??_C@_15BPLIHJJM@?$AAt?$AAr@ 000000018002d090     libucrt:lcidtoname_downlevel.obj
 0002:00007098       ??_C@_15NEOEKKDJ@?$AAu?$AAr@ 000000018002d098     libucrt:lcidtoname_downlevel.obj
 0002:000070a0       ??_C@_15NFICGAJK@?$AAi?$AAd@ 000000018002d0a0     libucrt:lcidtoname_downlevel.obj
 0002:000070a8       ??_C@_15PJPFLCCM@?$AAu?$AAk@ 000000018002d0a8     libucrt:lcidtoname_downlevel.obj
 0002:000070b0       ??_C@_15HPJPHDM@?$AAb?$AAe@ 000000018002d0b0     libucrt:lcidtoname_downlevel.obj
 0002:000070b8       ??_C@_15LCHLGJII@?$AAs?$AAl@ 000000018002d0b8     libucrt:lcidtoname_downlevel.obj
 0002:000070c0       ??_C@_15PCFJPHHO@?$AAe?$AAt@ 000000018002d0c0     libucrt:lcidtoname_downlevel.obj
 0002:000070c8       ??_C@_15HPFPGODN@?$AAl?$AAv@ 000000018002d0c8     libucrt:lcidtoname_downlevel.obj
 0002:000070d0       ??_C@_15NFFGKGLG@?$AAl?$AAt@ 000000018002d0d0     libucrt:lcidtoname_downlevel.obj
 0002:000070d8       ??_C@_15BDAKCCHN@?$AAf?$AAa@ 000000018002d0d8     libucrt:lcidtoname_downlevel.obj
 0002:000070e0       ??_C@_15NFGIAIAJ@?$AAv?$AAi@ 000000018002d0e0     libucrt:lcidtoname_downlevel.obj
 0002:000070e8       ??_C@_15LMKNDMHN@?$AAh?$AAy@ 000000018002d0e8     libucrt:lcidtoname_downlevel.obj
 0002:000070f0       ??_C@_15IJBHMCFL@?$AAa?$AAz@ 000000018002d0f0     libucrt:lcidtoname_downlevel.obj
 0002:000070f8       ??_C@_15EKOFJABL@?$AAe?$AAu@ 000000018002d0f8     libucrt:lcidtoname_downlevel.obj
 0002:00007100       ??_C@_15BGHADCNK@?$AAm?$AAk@ 000000018002d100     libucrt:lcidtoname_downlevel.obj
 0002:00007108       ??_C@_15JDNICKHM@?$AAa?$AAf@ 000000018002d108     libucrt:lcidtoname_downlevel.obj
 0002:00007110       ??_C@_15KPJEDBKD@?$AAk?$AAa@ 000000018002d110     libucrt:lcidtoname_downlevel.obj
 0002:00007118       ??_C@_15PDNFFFEO@?$AAf?$AAo@ 000000018002d118     libucrt:lcidtoname_downlevel.obj
 0002:00007120       ??_C@_15OMLEGLOC@?$AAh?$AAi@ 000000018002d120     libucrt:lcidtoname_downlevel.obj
 0002:00007128       ??_C@_15IDNNENKK@?$AAm?$AAs@ 000000018002d128     libucrt:lcidtoname_downlevel.obj
 0002:00007130       ??_C@_15MACJNBMH@?$AAk?$AAk@ 000000018002d130     libucrt:lcidtoname_downlevel.obj
 0002:00007138       ??_C@_15DKDJEOND@?$AAk?$AAy@ 000000018002d138     libucrt:lcidtoname_downlevel.obj
 0002:00007140       ??_C@_15DFGDLJBG@?$AAs?$AAw@ 000000018002d140     libucrt:lcidtoname_downlevel.obj
 0002:00007148       ??_C@_15BBFAICNG@?$AAu?$AAz@ 000000018002d148     libucrt:lcidtoname_downlevel.obj
 0002:00007150       ??_C@_15DKNDCGEA@?$AAt?$AAt@ 000000018002d150     libucrt:lcidtoname_downlevel.obj
 0002:00007158       ??_C@_15MGIFMDPL@?$AAp?$AAa@ 000000018002d158     libucrt:lcidtoname_downlevel.obj
 0002:00007160       ??_C@_15HCNDBBA@?$AAg?$AAu@ 000000018002d160     libucrt:lcidtoname_downlevel.obj
 0002:00007168       ??_C@_15FNBEIBON@?$AAt?$AAa@ 000000018002d168     libucrt:lcidtoname_downlevel.obj
 0002:00007170       ??_C@_15NCHGBGLK@?$AAt?$AAe@ 000000018002d170     libucrt:lcidtoname_downlevel.obj
 0002:00007178       ??_C@_15PHPHCBPF@?$AAk?$AAn@ 000000018002d178     libucrt:lcidtoname_downlevel.obj
 0002:00007180       ??_C@_15DLGBCKMP@?$AAm?$AAr@ 000000018002d180     libucrt:lcidtoname_downlevel.obj
 0002:00007188       ??_C@_15EABBLBFF@?$AAs?$AAa@ 000000018002d188     libucrt:lcidtoname_downlevel.obj
 0002:00007190       ??_C@_15CBKOMCOI@?$AAm?$AAn@ 000000018002d190     libucrt:lcidtoname_downlevel.obj
 0002:00007198       ??_C@_15CKDMCJAF@?$AAg?$AAl@ 000000018002d198     libucrt:lcidtoname_downlevel.obj
 0002:000071a0       ??_C@_17CNJFBPG@?$AAk?$AAo?$AAk@ 000000018002d1a0     libucrt:lcidtoname_downlevel.obj
 0002:000071a8       ??_C@_17FFBJICPL@?$AAs?$AAy?$AAr@ 000000018002d1a8     libucrt:lcidtoname_downlevel.obj
 0002:000071b0       ??_C@_17KPNDCPAF@?$AAd?$AAi?$AAv@ 000000018002d1b0     libucrt:lcidtoname_downlevel.obj
 0002:000071b8       ??_C@_1M@OKAHONE@?$AAa?$AAr?$AA?9?$AAS?$AAA@ 000000018002d1b8     libucrt:lcidtoname_downlevel.obj
 0002:000071c8       ??_C@_1M@FFFIGIGK@?$AAb?$AAg?$AA?9?$AAB?$AAG@ 000000018002d1c8     libucrt:lcidtoname_downlevel.obj
 0002:000071d8       ??_C@_1M@BJNKEDC@?$AAc?$AAa?$AA?9?$AAE?$AAS@ 000000018002d1d8     libucrt:lcidtoname_downlevel.obj
 0002:000071e8       ??_C@_1M@IJJHFJHA@?$AAc?$AAs?$AA?9?$AAC?$AAZ@ 000000018002d1e8     libucrt:lcidtoname_downlevel.obj
 0002:000071f8       ??_C@_1M@CLPEOBGI@?$AAd?$AAa?$AA?9?$AAD?$AAK@ 000000018002d1f8     libucrt:lcidtoname_downlevel.obj
 0002:00007208       ??_C@_1M@MCMADGCB@?$AAd?$AAe?$AA?9?$AAD?$AAE@ 000000018002d208     libucrt:lcidtoname_downlevel.obj
 0002:00007218       ??_C@_1M@OOCKEMAM@?$AAe?$AAl?$AA?9?$AAG?$AAR@ 000000018002d218     libucrt:lcidtoname_downlevel.obj
 0002:00007228       ??_C@_1M@DDNJFGID@?$AAf?$AAi?$AA?9?$AAF?$AAI@ 000000018002d228     libucrt:lcidtoname_downlevel.obj
 0002:00007238       ??_C@_1M@GLIPPMAC@?$AAf?$AAr?$AA?9?$AAF?$AAR@ 000000018002d238     libucrt:lcidtoname_downlevel.obj
 0002:00007248       ??_C@_1M@GFMCHPE@?$AAh?$AAe?$AA?9?$AAI?$AAL@ 000000018002d248     libucrt:lcidtoname_downlevel.obj
 0002:00007258       ??_C@_1M@MHLPGNKM@?$AAh?$AAu?$AA?9?$AAH?$AAU@ 000000018002d258     libucrt:lcidtoname_downlevel.obj
 0002:00007268       ??_C@_1M@LPDDNNPN@?$AAi?$AAs?$AA?9?$AAI?$AAS@ 000000018002d268     libucrt:lcidtoname_downlevel.obj
 0002:00007278       ??_C@_1M@MADIPODN@?$AAi?$AAt?$AA?9?$AAI?$AAT@ 000000018002d278     libucrt:lcidtoname_downlevel.obj
 0002:00007288       ??_C@_1M@IHBJJGG@?$AAn?$AAl?$AA?9?$AAN?$AAL@ 000000018002d288     libucrt:lcidtoname_downlevel.obj
 0002:00007298       ??_C@_1M@EANAGDL@?$AAn?$AAb?$AA?9?$AAN?$AAO@ 000000018002d298     libucrt:lcidtoname_downlevel.obj
 0002:000072a8       ??_C@_1M@NEIEMEGP@?$AAp?$AAl?$AA?9?$AAP?$AAL@ 000000018002d2a8     libucrt:lcidtoname_downlevel.obj
 0002:000072b8       ??_C@_1M@BOCFIGEP@?$AAp?$AAt?$AA?9?$AAB?$AAR@ 000000018002d2b8     libucrt:lcidtoname_downlevel.obj
 0002:000072c8       ??_C@_1M@IMPFOPBG@?$AAr?$AAo?$AA?9?$AAR?$AAO@ 000000018002d2c8     libucrt:lcidtoname_downlevel.obj
 0002:000072d8       ??_C@_1M@IDNNEJMM@?$AAr?$AAu?$AA?9?$AAR?$AAU@ 000000018002d2d8     libucrt:lcidtoname_downlevel.obj
 0002:000072e8       ??_C@_1M@LILEEOGM@?$AAh?$AAr?$AA?9?$AAH?$AAR@ 000000018002d2e8     libucrt:lcidtoname_downlevel.obj
 0002:000072f8       ??_C@_1M@FKIFEHPB@?$AAs?$AAk?$AA?9?$AAS?$AAK@ 000000018002d2f8     libucrt:lcidtoname_downlevel.obj
 0002:00007308       ??_C@_1M@LJMAMNPJ@?$AAs?$AAq?$AA?9?$AAA?$AAL@ 000000018002d308     libucrt:lcidtoname_downlevel.obj
 0002:00007318       ??_C@_1M@GIAKDKJK@?$AAs?$AAv?$AA?9?$AAS?$AAE@ 000000018002d318     libucrt:lcidtoname_downlevel.obj
 0002:00007328       ??_C@_1M@MKJKIKCL@?$AAt?$AAh?$AA?9?$AAT?$AAH@ 000000018002d328     libucrt:lcidtoname_downlevel.obj
 0002:00007338       ??_C@_1M@MFLCCMPB@?$AAt?$AAr?$AA?9?$AAT?$AAR@ 000000018002d338     libucrt:lcidtoname_downlevel.obj
 0002:00007348       ??_C@_1M@OIJHDKJN@?$AAu?$AAr?$AA?9?$AAP?$AAK@ 000000018002d348     libucrt:lcidtoname_downlevel.obj
 0002:00007358       ??_C@_1M@LHIPCIEK@?$AAi?$AAd?$AA?9?$AAI?$AAD@ 000000018002d358     libucrt:lcidtoname_downlevel.obj
 0002:00007368       ??_C@_1M@MFMOBGI@?$AAu?$AAk?$AA?9?$AAU?$AAA@ 000000018002d368     libucrt:lcidtoname_downlevel.obj
 0002:00007378       ??_C@_1M@OBGLJIPL@?$AAb?$AAe?$AA?9?$AAB?$AAY@ 000000018002d378     libucrt:lcidtoname_downlevel.obj
 0002:00007388       ??_C@_1M@BCFAJEAD@?$AAs?$AAl?$AA?9?$AAS?$AAI@ 000000018002d388     libucrt:lcidtoname_downlevel.obj
 0002:00007398       ??_C@_1M@FKFFEDDN@?$AAe?$AAt?$AA?9?$AAE?$AAE@ 000000018002d398     libucrt:lcidtoname_downlevel.obj
 0002:000073a8       ??_C@_1M@KGKKAACI@?$AAl?$AAv?$AA?9?$AAL?$AAV@ 000000018002d3a8     libucrt:lcidtoname_downlevel.obj
 0002:000073b8       ??_C@_1M@IFGBIJO@?$AAl?$AAt?$AA?9?$AAL?$AAT@ 000000018002d3b8     libucrt:lcidtoname_downlevel.obj
 0002:000073c8       ??_C@_1M@FGEAHEDM@?$AAf?$AAa?$AA?9?$AAI?$AAR@ 000000018002d3c8     libucrt:lcidtoname_downlevel.obj
 0002:000073d8       ??_C@_1M@KBMAIBFN@?$AAv?$AAi?$AA?9?$AAV?$AAN@ 000000018002d3d8     libucrt:lcidtoname_downlevel.obj
 0002:000073e8       ??_C@_1M@GPCBKDJK@?$AAh?$AAy?$AA?9?$AAA?$AAM@ 000000018002d3e8     libucrt:lcidtoname_downlevel.obj
 0002:000073f8       ??_C@_1BG@BECMDDJB@?$AAa?$AAz?$AA?9?$AAA?$AAZ?$AA?9?$AAL?$AAa?$AAt?$AAn@ 000000018002d3f8     libucrt:lcidtoname_downlevel.obj
 0002:00007410       ??_C@_1M@MAOFCAEA@?$AAe?$AAu?$AA?9?$AAE?$AAS@ 000000018002d410     libucrt:lcidtoname_downlevel.obj
 0002:00007420       ??_C@_1M@IGHABKPI@?$AAm?$AAk?$AA?9?$AAM?$AAK@ 000000018002d420     libucrt:lcidtoname_downlevel.obj
 0002:00007430       ??_C@_1M@IAIGNEJG@?$AAt?$AAn?$AA?9?$AAZ?$AAA@ 000000018002d430     libucrt:lcidtoname_downlevel.obj
 0002:00007440       ??_C@_1M@IIJCOJFA@?$AAx?$AAh?$AA?9?$AAZ?$AAA@ 000000018002d440     libucrt:lcidtoname_downlevel.obj
 0002:00007450       ??_C@_1M@LGPJHNJH@?$AAz?$AAu?$AA?9?$AAZ?$AAA@ 000000018002d450     libucrt:lcidtoname_downlevel.obj
 0002:00007460       ??_C@_1M@HOKAOIO@?$AAa?$AAf?$AA?9?$AAZ?$AAA@ 000000018002d460     libucrt:lcidtoname_downlevel.obj
 0002:00007470       ??_C@_1M@DPCLHLIE@?$AAk?$AAa?$AA?9?$AAG?$AAE@ 000000018002d470     libucrt:lcidtoname_downlevel.obj
 0002:00007480       ??_C@_1M@BLKMHJBI@?$AAf?$AAo?$AA?9?$AAF?$AAO@ 000000018002d480     libucrt:lcidtoname_downlevel.obj
 0002:00007490       ??_C@_1M@LGGJAPPB@?$AAh?$AAi?$AA?9?$AAI?$AAN@ 000000018002d490     libucrt:lcidtoname_downlevel.obj
 0002:000074a0       ??_C@_1M@FIKPIHFE@?$AAm?$AAt?$AA?9?$AAM?$AAT@ 000000018002d4a0     libucrt:lcidtoname_downlevel.obj
 0002:000074b0       ??_C@_1M@HEGGPBFA@?$AAs?$AAe?$AA?9?$AAN?$AAO@ 000000018002d4b0     libucrt:lcidtoname_downlevel.obj
 0002:000074c0       ??_C@_1M@EIBJEEPA@?$AAm?$AAs?$AA?9?$AAM?$AAY@ 000000018002d4c0     libucrt:lcidtoname_downlevel.obj
 0002:000074d0       ??_C@_1M@FHLBGMPP@?$AAk?$AAk?$AA?9?$AAK?$AAZ@ 000000018002d4d0     libucrt:lcidtoname_downlevel.obj
 0002:000074e0       ??_C@_1M@NGJJLCGI@?$AAk?$AAy?$AA?9?$AAK?$AAG@ 000000018002d4e0     libucrt:lcidtoname_downlevel.obj
 0002:000074f0       ??_C@_1M@GIENNBFC@?$AAs?$AAw?$AA?9?$AAK?$AAE@ 000000018002d4f0     libucrt:lcidtoname_downlevel.obj
 0002:00007500       ??_C@_1BG@NDGMJIMJ@?$AAu?$AAz?$AA?9?$AAU?$AAZ?$AA?9?$AAL?$AAa?$AAt?$AAn@ 000000018002d500     libucrt:lcidtoname_downlevel.obj
 0002:00007518       ??_C@_1M@IDCCIHBC@?$AAt?$AAt?$AA?9?$AAR?$AAU@ 000000018002d518     libucrt:lcidtoname_downlevel.obj
 0002:00007528       ??_C@_1M@LOICPMOJ@?$AAb?$AAn?$AA?9?$AAI?$AAN@ 000000018002d528     libucrt:lcidtoname_downlevel.obj
 0002:00007538       ??_C@_1M@KPKKNEAH@?$AAp?$AAa?$AA?9?$AAI?$AAN@ 000000018002d538     libucrt:lcidtoname_downlevel.obj
 0002:00007548       ??_C@_1M@PJGPPBOG@?$AAg?$AAu?$AA?9?$AAI?$AAN@ 000000018002d548     libucrt:lcidtoname_downlevel.obj
 0002:00007558       ??_C@_1M@KMKMOPHI@?$AAt?$AAa?$AA?9?$AAI?$AAN@ 000000018002d558     libucrt:lcidtoname_downlevel.obj
 0002:00007568       ??_C@_1M@KFEHEPAC@?$AAt?$AAe?$AA?9?$AAI?$AAN@ 000000018002d568     libucrt:lcidtoname_downlevel.obj
 0002:00007578       ??_C@_1M@CDCLMGHI@?$AAk?$AAn?$AA?9?$AAI?$AAN@ 000000018002d578     libucrt:lcidtoname_downlevel.obj
 0002:00007588       ??_C@_1M@MIODLDKF@?$AAm?$AAl?$AA?9?$AAI?$AAN@ 000000018002d588     libucrt:lcidtoname_downlevel.obj
 0002:00007598       ??_C@_1M@PBIEACPO@?$AAm?$AAr?$AA?9?$AAI?$AAN@ 000000018002d598     libucrt:lcidtoname_downlevel.obj
 0002:000075a8       ??_C@_1M@NIDEAGPH@?$AAs?$AAa?$AA?9?$AAI?$AAN@ 000000018002d5a8     libucrt:lcidtoname_downlevel.obj
 0002:000075b8       ??_C@_1M@FHIHCBIO@?$AAm?$AAn?$AA?9?$AAM?$AAN@ 000000018002d5b8     libucrt:lcidtoname_downlevel.obj
 0002:000075c8       ??_C@_1M@JAIJPENP@?$AAc?$AAy?$AA?9?$AAG?$AAB@ 000000018002d5c8     libucrt:lcidtoname_downlevel.obj
 0002:000075d8       ??_C@_1M@PHGFBEPN@?$AAg?$AAl?$AA?9?$AAE?$AAS@ 000000018002d5d8     libucrt:lcidtoname_downlevel.obj
 0002:000075e8       ??_C@_1O@KPIPDNCP@?$AAk?$AAo?$AAk?$AA?9?$AAI?$AAN@ 000000018002d5e8     libucrt:lcidtoname_downlevel.obj
 0002:000075f8       ??_C@_1O@KNHJLDJA@?$AAs?$AAy?$AAr?$AA?9?$AAS?$AAY@ 000000018002d5f8     libucrt:lcidtoname_downlevel.obj
 0002:00007608       ??_C@_1O@MKEKBLAH@?$AAd?$AAi?$AAv?$AA?9?$AAM?$AAV@ 000000018002d608     libucrt:lcidtoname_downlevel.obj
 0002:00007618       ??_C@_1O@OHDCKDDF@?$AAq?$AAu?$AAz?$AA?9?$AAB?$AAO@ 000000018002d618     libucrt:lcidtoname_downlevel.obj
 0002:00007628       ??_C@_1M@LEPJNLFD@?$AAn?$AAs?$AA?9?$AAZ?$AAA@ 000000018002d628     libucrt:lcidtoname_downlevel.obj
 0002:00007638       ??_C@_1M@OMLEIIJB@?$AAm?$AAi?$AA?9?$AAN?$AAZ@ 000000018002d638     libucrt:lcidtoname_downlevel.obj
 0002:00007648       ??_C@_1M@PMPEAILG@?$AAa?$AAr?$AA?9?$AAI?$AAQ@ 000000018002d648     libucrt:lcidtoname_downlevel.obj
 0002:00007658       ??_C@_1M@CNKPNOEE@?$AAd?$AAe?$AA?9?$AAC?$AAH@ 000000018002d658     libucrt:lcidtoname_downlevel.obj
 0002:00007668       ??_C@_1M@LKMGMLKO@?$AAe?$AAn?$AA?9?$AAG?$AAB@ 000000018002d668     libucrt:lcidtoname_downlevel.obj
 0002:00007678       ??_C@_1M@PGKJFFGL@?$AAe?$AAs?$AA?9?$AAM?$AAX@ 000000018002d678     libucrt:lcidtoname_downlevel.obj
 0002:00007688       ??_C@_1M@DNNANBDC@?$AAf?$AAr?$AA?9?$AAB?$AAE@ 000000018002d688     libucrt:lcidtoname_downlevel.obj
 0002:00007698       ??_C@_1M@HLGMDFHM@?$AAi?$AAt?$AA?9?$AAC?$AAH@ 000000018002d698     libucrt:lcidtoname_downlevel.obj
 0002:000076a8       ??_C@_1M@CLLBGJH@?$AAn?$AAl?$AA?9?$AAB?$AAE@ 000000018002d6a8     libucrt:lcidtoname_downlevel.obj
 0002:000076b8       ??_C@_1M@BODBOGLF@?$AAn?$AAn?$AA?9?$AAN?$AAO@ 000000018002d6b8     libucrt:lcidtoname_downlevel.obj
 0002:000076c8       ??_C@_1M@HFFAHKAD@?$AAp?$AAt?$AA?9?$AAP?$AAT@ 000000018002d6c8     libucrt:lcidtoname_downlevel.obj
 0002:000076d8       ??_C@_1BG@LNOAKHIE@?$AAs?$AAr?$AA?9?$AAS?$AAP?$AA?9?$AAL?$AAa?$AAt?$AAn@ 000000018002d6d8     libucrt:lcidtoname_downlevel.obj
 0002:000076f0       ??_C@_1M@HBMHBGAK@?$AAs?$AAv?$AA?9?$AAF?$AAI@ 000000018002d6f0     libucrt:lcidtoname_downlevel.obj
 0002:00007700       ??_C@_1BG@DGCJGJBE@?$AAa?$AAz?$AA?9?$AAA?$AAZ?$AA?9?$AAC?$AAy?$AAr?$AAl@ 000000018002d700     libucrt:lcidtoname_downlevel.obj
 0002:00007718       ??_C@_1M@KEJDAAHB@?$AAs?$AAe?$AA?9?$AAS?$AAE@ 000000018002d718     libucrt:lcidtoname_downlevel.obj
 0002:00007728       ??_C@_1M@HEIBJJAD@?$AAm?$AAs?$AA?9?$AAB?$AAN@ 000000018002d728     libucrt:lcidtoname_downlevel.obj
 0002:00007738       ??_C@_1BG@PBGJMCEM@?$AAu?$AAz?$AA?9?$AAU?$AAZ?$AA?9?$AAC?$AAy?$AAr?$AAl@ 000000018002d738     libucrt:lcidtoname_downlevel.obj
 0002:00007750       ??_C@_1O@LAOBCMDF@?$AAq?$AAu?$AAz?$AA?9?$AAE?$AAC@ 000000018002d750     libucrt:lcidtoname_downlevel.obj
 0002:00007760       ??_C@_1M@POEEMAIO@?$AAa?$AAr?$AA?9?$AAE?$AAG@ 000000018002d760     libucrt:lcidtoname_downlevel.obj
 0002:00007770       ??_C@_1M@EFAKDEDL@?$AAz?$AAh?$AA?9?$AAH?$AAK@ 000000018002d770     libucrt:lcidtoname_downlevel.obj
 0002:00007780       ??_C@_1M@HKKIJHGI@?$AAd?$AAe?$AA?9?$AAA?$AAT@ 000000018002d780     libucrt:lcidtoname_downlevel.obj
 0002:00007790       ??_C@_1M@KBFBEHJF@?$AAe?$AAn?$AA?9?$AAA?$AAU@ 000000018002d790     libucrt:lcidtoname_downlevel.obj
 0002:000077a0       ??_C@_1M@MNPLFAAH@?$AAe?$AAs?$AA?9?$AAE?$AAS@ 000000018002d7a0     libucrt:lcidtoname_downlevel.obj
 0002:000077b0       ??_C@_1M@HJOOJFMA@?$AAf?$AAr?$AA?9?$AAC?$AAA@ 000000018002d7b0     libucrt:lcidtoname_downlevel.obj
 0002:000077c0       ??_C@_1BG@JPOFPNAB@?$AAs?$AAr?$AA?9?$AAS?$AAP?$AA?9?$AAC?$AAy?$AAr?$AAl@ 000000018002d7c0     libucrt:lcidtoname_downlevel.obj
 0002:000077d8       ??_C@_1M@LNFOCMOB@?$AAs?$AAe?$AA?9?$AAF?$AAI@ 000000018002d7d8     libucrt:lcidtoname_downlevel.obj
 0002:000077e8       ??_C@_1O@MGJBOAMB@?$AAq?$AAu?$AAz?$AA?9?$AAP?$AAE@ 000000018002d7e8     libucrt:lcidtoname_downlevel.obj
 0002:000077f8       ??_C@_1M@GJINLBOK@?$AAa?$AAr?$AA?9?$AAL?$AAY@ 000000018002d7f8     libucrt:lcidtoname_downlevel.obj
 0002:00007808       ??_C@_1M@GGMNHJNL@?$AAz?$AAh?$AA?9?$AAS?$AAG@ 000000018002d808     libucrt:lcidtoname_downlevel.obj
 0002:00007818       ??_C@_1M@HOIKODND@?$AAd?$AAe?$AA?9?$AAL?$AAU@ 000000018002d818     libucrt:lcidtoname_downlevel.obj
 0002:00007828       ??_C@_1M@DDOCCGFG@?$AAe?$AAn?$AA?9?$AAC?$AAA@ 000000018002d828     libucrt:lcidtoname_downlevel.obj
 0002:00007838       ??_C@_1M@BNOEMJLF@?$AAe?$AAs?$AA?9?$AAG?$AAT@ 000000018002d838     libucrt:lcidtoname_downlevel.obj
 0002:00007848       ??_C@_1M@EOGNKEK@?$AAf?$AAr?$AA?9?$AAC?$AAH@ 000000018002d848     libucrt:lcidtoname_downlevel.obj
 0002:00007858       ??_C@_1M@FLIDJFHL@?$AAh?$AAr?$AA?9?$AAB?$AAA@ 000000018002d858     libucrt:lcidtoname_downlevel.obj
 0002:00007868       ??_C@_1O@FMCELNAJ@?$AAs?$AAm?$AAj?$AA?9?$AAN?$AAO@ 000000018002d868     libucrt:lcidtoname_downlevel.obj
 0002:00007878       ??_C@_1M@JHGLJMGJ@?$AAa?$AAr?$AA?9?$AAD?$AAZ@ 000000018002d878     libucrt:lcidtoname_downlevel.obj
 0002:00007888       ??_C@_1M@JKKFDCNP@?$AAz?$AAh?$AA?9?$AAM?$AAO@ 000000018002d888     libucrt:lcidtoname_downlevel.obj
 0002:00007898       ??_C@_1M@GEEFALPE@?$AAd?$AAe?$AA?9?$AAL?$AAI@ 000000018002d898     libucrt:lcidtoname_downlevel.obj
 0002:000078a8       ??_C@_1M@IGEOFBG@?$AAe?$AAn?$AA?9?$AAN?$AAZ@ 000000018002d8a8     libucrt:lcidtoname_downlevel.obj
 0002:000078b8       ??_C@_1M@KDBONEHP@?$AAe?$AAs?$AA?9?$AAC?$AAR@ 000000018002d8b8     libucrt:lcidtoname_downlevel.obj
 0002:000078c8       ??_C@_1M@FHMDOHNN@?$AAf?$AAr?$AA?9?$AAL?$AAU@ 000000018002d8c8     libucrt:lcidtoname_downlevel.obj
 0002:000078d8       ??_C@_1BG@NFKKMAFG@?$AAb?$AAs?$AA?9?$AAB?$AAA?$AA?9?$AAL?$AAa?$AAt?$AAn@ 000000018002d8d8     libucrt:lcidtoname_downlevel.obj
 0002:000078f0       ??_C@_1O@IMNBEMCI@?$AAs?$AAm?$AAj?$AA?9?$AAS?$AAE@ 000000018002d8f0     libucrt:lcidtoname_downlevel.obj
 0002:00007900       ??_C@_1M@DHHMBNDP@?$AAa?$AAr?$AA?9?$AAM?$AAA@ 000000018002d900     libucrt:lcidtoname_downlevel.obj
 0002:00007910       ??_C@_1M@BNBLJCGH@?$AAe?$AAn?$AA?9?$AAI?$AAE@ 000000018002d910     libucrt:lcidtoname_downlevel.obj
 0002:00007920       ??_C@_1M@GEPAFMDL@?$AAe?$AAs?$AA?9?$AAP?$AAA@ 000000018002d920     libucrt:lcidtoname_downlevel.obj
 0002:00007930       ??_C@_1M@OJONDMDL@?$AAf?$AAr?$AA?9?$AAM?$AAC@ 000000018002d930     libucrt:lcidtoname_downlevel.obj
 0002:00007940       ??_C@_1BG@OBCNFJB@?$AAs?$AAr?$AA?9?$AAB?$AAA?$AA?9?$AAL?$AAa?$AAt?$AAn@ 000000018002d940     libucrt:lcidtoname_downlevel.obj
 0002:00007958       ??_C@_1O@KEMEEGPO@?$AAs?$AAm?$AAa?$AA?9?$AAN?$AAO@ 000000018002d958     libucrt:lcidtoname_downlevel.obj
 0002:00007968       ??_C@_1M@ELMGFODK@?$AAa?$AAr?$AA?9?$AAT?$AAN@ 000000018002d968     libucrt:lcidtoname_downlevel.obj
 0002:00007978       ??_C@_1M@BHDLHFAF@?$AAe?$AAn?$AA?9?$AAZ?$AAA@ 000000018002d978     libucrt:lcidtoname_downlevel.obj
 0002:00007988       ??_C@_1M@BMGIGLIF@?$AAe?$AAs?$AA?9?$AAD?$AAO@ 000000018002d988     libucrt:lcidtoname_downlevel.obj
 0002:00007998       ??_C@_1BG@CMBHIPBE@?$AAs?$AAr?$AA?9?$AAB?$AAA?$AA?9?$AAC?$AAy?$AAr?$AAl@ 000000018002d998     libucrt:lcidtoname_downlevel.obj
 0002:000079b0       ??_C@_1O@HEDBLHNP@?$AAs?$AAm?$AAa?$AA?9?$AAS?$AAE@ 000000018002d9b0     libucrt:lcidtoname_downlevel.obj
 0002:000079c0       ??_C@_1M@DAGCADIM@?$AAa?$AAr?$AA?9?$AAO?$AAM@ 000000018002d9c0     libucrt:lcidtoname_downlevel.obj
 0002:000079d0       ??_C@_1M@FODLMICG@?$AAe?$AAn?$AA?9?$AAJ?$AAM@ 000000018002d9d0     libucrt:lcidtoname_downlevel.obj
 0002:000079e0       ??_C@_1M@DNMLCIHB@?$AAe?$AAs?$AA?9?$AAV?$AAE@ 000000018002d9e0     libucrt:lcidtoname_downlevel.obj
 0002:000079f0       ??_C@_1O@EOKHMKJK@?$AAs?$AAm?$AAs?$AA?9?$AAF?$AAI@ 000000018002d9f0     libucrt:lcidtoname_downlevel.obj
 0002:00007a00       ??_C@_1M@CAFJMKOF@?$AAa?$AAr?$AA?9?$AAY?$AAE@ 000000018002da00     libucrt:lcidtoname_downlevel.obj
 0002:00007a10       ??_C@_1M@CBFHIJLI@?$AAe?$AAn?$AA?9?$AAC?$AAB@ 000000018002da10     libucrt:lcidtoname_downlevel.obj
 0002:00007a20       ??_C@_1M@BGNFLDN@?$AAe?$AAs?$AA?9?$AAC?$AAO@ 000000018002da20     libucrt:lcidtoname_downlevel.obj
 0002:00007a30       ??_C@_1O@JMPHMAMC@?$AAs?$AAm?$AAn?$AA?9?$AAF?$AAI@ 000000018002da30     libucrt:lcidtoname_downlevel.obj
 0002:00007a40       ??_C@_1M@JLANABKE@?$AAa?$AAr?$AA?9?$AAS?$AAY@ 000000018002da40     libucrt:lcidtoname_downlevel.obj
 0002:00007a50       ??_C@_1M@HPKGCFGN@?$AAe?$AAn?$AA?9?$AAB?$AAZ@ 000000018002da50     libucrt:lcidtoname_downlevel.obj
 0002:00007a60       ??_C@_1M@OLJCMLGM@?$AAe?$AAs?$AA?9?$AAP?$AAE@ 000000018002da60     libucrt:lcidtoname_downlevel.obj
 0002:00007a70       ??_C@_1M@MKKGFKLE@?$AAa?$AAr?$AA?9?$AAJ?$AAO@ 000000018002da70     libucrt:lcidtoname_downlevel.obj
 0002:00007a80       ??_C@_1M@EKPGLDNI@?$AAe?$AAn?$AA?9?$AAT?$AAT@ 000000018002da80     libucrt:lcidtoname_downlevel.obj
 0002:00007a90       ??_C@_1M@OONGHFHE@?$AAe?$AAs?$AA?9?$AAA?$AAR@ 000000018002da90     libucrt:lcidtoname_downlevel.obj
 0002:00007aa0       ??_C@_1M@OOJFGBHE@?$AAa?$AAr?$AA?9?$AAL?$AAB@ 000000018002daa0     libucrt:lcidtoname_downlevel.obj
 0002:00007ab0       ??_C@_1M@GCEJHNEG@?$AAe?$AAn?$AA?9?$AAZ?$AAW@ 000000018002dab0     libucrt:lcidtoname_downlevel.obj
 0002:00007ac0       ??_C@_1M@JNOCAHJI@?$AAe?$AAs?$AA?9?$AAE?$AAC@ 000000018002dac0     libucrt:lcidtoname_downlevel.obj
 0002:00007ad0       ??_C@_1M@JEFHPGGB@?$AAa?$AAr?$AA?9?$AAK?$AAW@ 000000018002dad0     libucrt:lcidtoname_downlevel.obj
 0002:00007ae0       ??_C@_1M@MLKIBJOJ@?$AAe?$AAn?$AA?9?$AAP?$AAH@ 000000018002dae0     libucrt:lcidtoname_downlevel.obj
 0002:00007af0       ??_C@_1M@BDNIPEND@?$AAe?$AAs?$AA?9?$AAC?$AAL@ 000000018002daf0     libucrt:lcidtoname_downlevel.obj
 0002:00007b00       ??_C@_1M@MPNMEKBD@?$AAa?$AAr?$AA?9?$AAA?$AAE@ 000000018002db00     libucrt:lcidtoname_downlevel.obj
 0002:00007b10       ??_C@_1M@KBJALCPI@?$AAe?$AAs?$AA?9?$AAU?$AAY@ 000000018002db10     libucrt:lcidtoname_downlevel.obj
 0002:00007b20       ??_C@_1M@LLCCOAGA@?$AAa?$AAr?$AA?9?$AAB?$AAH@ 000000018002db20     libucrt:lcidtoname_downlevel.obj
 0002:00007b30       ??_C@_1M@PBFNCDEL@?$AAe?$AAs?$AA?9?$AAP?$AAY@ 000000018002db30     libucrt:lcidtoname_downlevel.obj
 0002:00007b40       ??_C@_1M@EDGINPNP@?$AAa?$AAr?$AA?9?$AAQ?$AAA@ 000000018002db40     libucrt:lcidtoname_downlevel.obj
 0002:00007b50       ??_C@_1M@MKDBIIJI@?$AAe?$AAs?$AA?9?$AAB?$AAO@ 000000018002db50     libucrt:lcidtoname_downlevel.obj
 0002:00007b60       ??_C@_1M@CPKKEBLD@?$AAe?$AAs?$AA?9?$AAS?$AAV@ 000000018002db60     libucrt:lcidtoname_downlevel.obj
 0002:00007b70       ??_C@_1M@NDBGMMJL@?$AAe?$AAs?$AA?9?$AAH?$AAN@ 000000018002db70     libucrt:lcidtoname_downlevel.obj
 0002:00007b80       ??_C@_1M@JIJIBHDP@?$AAe?$AAs?$AA?9?$AAN?$AAI@ 000000018002db80     libucrt:lcidtoname_downlevel.obj
 0002:00007b90       ??_C@_1M@CGFMKEEK@?$AAe?$AAs?$AA?9?$AAP?$AAR@ 000000018002db90     libucrt:lcidtoname_downlevel.obj
 0002:00007ba0       ??_C@_1O@ICJHKIIK@?$AAz?$AAh?$AA?9?$AAC?$AAH?$AAT@ 000000018002dba0     libucrt:lcidtoname_downlevel.obj
 0002:00007bb0       ??_C@_15CLNEJCE@?$AAs?$AAr@ 000000018002dbb0     libucrt:lcidtoname_downlevel.obj
 0002:00008a00       ??_C@_1M@KAHEKEIG@?$AAa?$AAf?$AA?9?$AAz?$AAa@ 000000018002ea00     libucrt:lcidtoname_downlevel.obj
 0002:00008a10       ??_C@_1M@GIECOABL@?$AAa?$AAr?$AA?9?$AAa?$AAe@ 000000018002ea10     libucrt:lcidtoname_downlevel.obj
 0002:00008a20       ??_C@_1M@BMLMEKGI@?$AAa?$AAr?$AA?9?$AAb?$AAh@ 000000018002ea20     libucrt:lcidtoname_downlevel.obj
 0002:00008a30       ??_C@_1M@DAPFDGGB@?$AAa?$AAr?$AA?9?$AAd?$AAz@ 000000018002ea30     libucrt:lcidtoname_downlevel.obj
 0002:00008a40       ??_C@_1M@FJNKGKIG@?$AAa?$AAr?$AA?9?$AAe?$AAg@ 000000018002ea40     libucrt:lcidtoname_downlevel.obj
 0002:00008a50       ??_C@_1M@FLGKKCLO@?$AAa?$AAr?$AA?9?$AAi?$AAq@ 000000018002ea50     libucrt:lcidtoname_downlevel.obj
 0002:00008a60       ??_C@_1M@GNDIPALM@?$AAa?$AAr?$AA?9?$AAj?$AAo@ 000000018002ea60     libucrt:lcidtoname_downlevel.obj
 0002:00008a70       ??_C@_1M@DDMJFMGJ@?$AAa?$AAr?$AA?9?$AAk?$AAw@ 000000018002ea70     libucrt:lcidtoname_downlevel.obj
 0002:00008a80       ??_C@_1M@EJALMLHM@?$AAa?$AAr?$AA?9?$AAl?$AAb@ 000000018002ea80     libucrt:lcidtoname_downlevel.obj
 0002:00008a90       ??_C@_1M@MOBDBLOC@?$AAa?$AAr?$AA?9?$AAl?$AAy@ 000000018002ea90     libucrt:lcidtoname_downlevel.obj
 0002:00008aa0       ??_C@_1M@JAOCLHDH@?$AAa?$AAr?$AA?9?$AAm?$AAa@ 000000018002eaa0     libucrt:lcidtoname_downlevel.obj
 0002:00008ab0       ??_C@_1M@JHPMKJIE@?$AAa?$AAr?$AA?9?$AAo?$AAm@ 000000018002eab0     libucrt:lcidtoname_downlevel.obj
 0002:00008ac0       ??_C@_1M@OEPGHFNH@?$AAa?$AAr?$AA?9?$AAq?$AAa@ 000000018002eac0     libucrt:lcidtoname_downlevel.obj
 0002:00008ad0       ??_C@_1M@KJDONENM@?$AAa?$AAr?$AA?9?$AAs?$AAa@ 000000018002ead0     libucrt:lcidtoname_downlevel.obj
 0002:00008ae0       ??_C@_1M@DMJDKLKM@?$AAa?$AAr?$AA?9?$AAs?$AAy@ 000000018002eae0     libucrt:lcidtoname_downlevel.obj
 0002:00008af0       ??_C@_1M@OMFIPEDC@?$AAa?$AAr?$AA?9?$AAt?$AAn@ 000000018002eaf0     libucrt:lcidtoname_downlevel.obj
 0002:00008b00       ??_C@_1M@IHMHGAON@?$AAa?$AAr?$AA?9?$AAy?$AAe@ 000000018002eb00     libucrt:lcidtoname_downlevel.obj
 0002:00008b10       ??_C@_1BG@KDCPGJGB@?$AAa?$AAz?$AA?9?$AAa?$AAz?$AA?9?$AAc?$AAy?$AAr?$AAl@ 000000018002eb10     libucrt:lcidtoname_downlevel.obj
 0002:00008b28       ??_C@_1BG@IBCKDDOE@?$AAa?$AAz?$AA?9?$AAa?$AAz?$AA?9?$AAl?$AAa?$AAt?$AAn@ 000000018002eb28     libucrt:lcidtoname_downlevel.obj
 0002:00008b40       ??_C@_1M@EGPFDCPD@?$AAb?$AAe?$AA?9?$AAb?$AAy@ 000000018002eb40     libucrt:lcidtoname_downlevel.obj
 0002:00008b50       ??_C@_1M@PCMGMCGC@?$AAb?$AAg?$AA?9?$AAb?$AAg@ 000000018002eb50     libucrt:lcidtoname_downlevel.obj
 0002:00008b60       ??_C@_1M@BJBMFGOB@?$AAb?$AAn?$AA?9?$AAi?$AAn@ 000000018002eb60     libucrt:lcidtoname_downlevel.obj
 0002:00008b70       ??_C@_1BG@EAKMMACD@?$AAb?$AAs?$AA?9?$AAb?$AAa?$AA?9?$AAl?$AAa?$AAt?$AAn@ 000000018002eb70     libucrt:lcidtoname_downlevel.obj
 0002:00008b88       ??_C@_1M@KGADAODK@?$AAc?$AAa?$AA?9?$AAe?$AAs@ 000000018002eb88     libucrt:lcidtoname_downlevel.obj
 0002:00008b98       ??_C@_1M@COAJPDHI@?$AAc?$AAs?$AA?9?$AAc?$AAz@ 000000018002eb98     libucrt:lcidtoname_downlevel.obj
 0002:00008ba8       ??_C@_1M@DHBHFONH@?$AAc?$AAy?$AA?9?$AAg?$AAb@ 000000018002eba8     libucrt:lcidtoname_downlevel.obj
 0002:00008bb8       ??_C@_1M@IMGKELGA@?$AAd?$AAa?$AA?9?$AAd?$AAk@ 000000018002ebb8     libucrt:lcidtoname_downlevel.obj
 0002:00008bc8       ??_C@_1M@NNDGDNGA@?$AAd?$AAe?$AA?9?$AAa?$AAt@ 000000018002ebc8     libucrt:lcidtoname_downlevel.obj
 0002:00008bd8       ??_C@_1M@IKDBHEEM@?$AAd?$AAe?$AA?9?$AAc?$AAh@ 000000018002ebd8     libucrt:lcidtoname_downlevel.obj
 0002:00008be8       ??_C@_1M@GFFOJMCJ@?$AAd?$AAe?$AA?9?$AAd?$AAe@ 000000018002ebe8     libucrt:lcidtoname_downlevel.obj
 0002:00008bf8       ??_C@_1M@MDNLKBPM@?$AAd?$AAe?$AA?9?$AAl?$AAi@ 000000018002ebf8     libucrt:lcidtoname_downlevel.obj
 0002:00008c08       ??_C@_1M@NJBEEJNL@?$AAd?$AAe?$AA?9?$AAl?$AAu@ 000000018002ec08     libucrt:lcidtoname_downlevel.obj
 0002:00008c18       ??_C@_1O@GNNELBAP@?$AAd?$AAi?$AAv?$AA?9?$AAm?$AAv@ 000000018002ec18     libucrt:lcidtoname_downlevel.obj
 0002:00008c28       ??_C@_1M@EJLEOGAE@?$AAe?$AAl?$AA?9?$AAg?$AAr@ 000000018002ec28     libucrt:lcidtoname_downlevel.obj
 0002:00008c38       ??_C@_1M@GMPONJN@?$AAe?$AAn?$AA?9?$AAa?$AAu@ 000000018002ec38     libucrt:lcidtoname_downlevel.obj
 0002:00008c48       ??_C@_1M@NIDIIPGF@?$AAe?$AAn?$AA?9?$AAb?$AAz@ 000000018002ec48     libucrt:lcidtoname_downlevel.obj
 0002:00008c58       ??_C@_1M@JEHMIMFO@?$AAe?$AAn?$AA?9?$AAc?$AAa@ 000000018002ec58     libucrt:lcidtoname_downlevel.obj
 0002:00008c68       ??_C@_1M@IGMJCDLA@?$AAe?$AAn?$AA?9?$AAc?$AAb@ 000000018002ec68     libucrt:lcidtoname_downlevel.obj
 0002:00008c78       ??_C@_1M@BNFIGBKG@?$AAe?$AAn?$AA?9?$AAg?$AAb@ 000000018002ec78     libucrt:lcidtoname_downlevel.obj
 0002:00008c88       ??_C@_1M@LKIFDIGP@?$AAe?$AAn?$AA?9?$AAi?$AAe@ 000000018002ec88     libucrt:lcidtoname_downlevel.obj
 0002:00008c98       ??_C@_1M@PJKFGCCO@?$AAe?$AAn?$AA?9?$AAj?$AAm@ 000000018002ec98     libucrt:lcidtoname_downlevel.obj
 0002:00008ca8       ??_C@_1M@KPPKEPBO@?$AAe?$AAn?$AA?9?$AAn?$AAz@ 000000018002eca8     libucrt:lcidtoname_downlevel.obj
 0002:00008cb8       ??_C@_1M@GMDGLDOB@?$AAe?$AAn?$AA?9?$AAp?$AAh@ 000000018002ecb8     libucrt:lcidtoname_downlevel.obj
 0002:00008cc8       ??_C@_1M@ONGIBJNA@?$AAe?$AAn?$AA?9?$AAt?$AAt@ 000000018002ecc8     libucrt:lcidtoname_downlevel.obj
 0002:00008cd8       ??_C@_1M@LLODPCMM@?$AAe?$AAn?$AA?9?$AAu?$AAs@ 000000018002ecd8     libucrt:lcidtoname_downlevel.obj
 0002:00008ce8       ??_C@_1M@LAKFNPAN@?$AAe?$AAn?$AA?9?$AAz?$AAa@ 000000018002ece8     libucrt:lcidtoname_downlevel.obj
 0002:00008cf8       ??_C@_1M@MFNHNHEO@?$AAe?$AAn?$AA?9?$AAz?$AAw@ 000000018002ecf8     libucrt:lcidtoname_downlevel.obj
 0002:00008d08       ??_C@_1M@EJEINPHM@?$AAe?$AAs?$AA?9?$AAa?$AAr@ 000000018002ed08     libucrt:lcidtoname_downlevel.obj
 0002:00008d18       ??_C@_1M@GNKPCCJA@?$AAe?$AAs?$AA?9?$AAb?$AAo@ 000000018002ed18     libucrt:lcidtoname_downlevel.obj
 0002:00008d28       ??_C@_1M@LEEGFONL@?$AAe?$AAs?$AA?9?$AAc?$AAl@ 000000018002ed28     libucrt:lcidtoname_downlevel.obj
 0002:00008d38       ??_C@_1M@KGPDPBDF@?$AAe?$AAs?$AA?9?$AAc?$AAo@ 000000018002ed38     libucrt:lcidtoname_downlevel.obj
 0002:00008d48       ??_C@_1M@EIAHOHH@?$AAe?$AAs?$AA?9?$AAc?$AAr@ 000000018002ed48     libucrt:lcidtoname_downlevel.obj
 0002:00008d58       ??_C@_1M@LLPGMBIN@?$AAe?$AAs?$AA?9?$AAd?$AAo@ 000000018002ed58     libucrt:lcidtoname_downlevel.obj
 0002:00008d68       ??_C@_1M@DKHMKNJA@?$AAe?$AAs?$AA?9?$AAe?$AAc@ 000000018002ed68     libucrt:lcidtoname_downlevel.obj
 0002:00008d78       ??_C@_1M@GKGFPKAP@?$AAe?$AAs?$AA?9?$AAe?$AAs@ 000000018002ed78     libucrt:lcidtoname_downlevel.obj
 0002:00008d88       ??_C@_1M@LKHKGDLN@?$AAe?$AAs?$AA?9?$AAg?$AAt@ 000000018002ed88     libucrt:lcidtoname_downlevel.obj
 0002:00008d98       ??_C@_1M@HEIIGGJD@?$AAe?$AAs?$AA?9?$AAh?$AAn@ 000000018002ed98     libucrt:lcidtoname_downlevel.obj
 0002:00008da8       ??_C@_1M@FBDHPPGD@?$AAe?$AAs?$AA?9?$AAm?$AAx@ 000000018002eda8     libucrt:lcidtoname_downlevel.obj
 0002:00008db8       ??_C@_1M@DPAGLNDH@?$AAe?$AAs?$AA?9?$AAn?$AAi@ 000000018002edb8     libucrt:lcidtoname_downlevel.obj
 0002:00008dc8       ??_C@_1M@MDGOPGDD@?$AAe?$AAs?$AA?9?$AAp?$AAa@ 000000018002edc8     libucrt:lcidtoname_downlevel.obj
 0002:00008dd8       ??_C@_1M@EMAMGBGE@?$AAe?$AAs?$AA?9?$AAp?$AAe@ 000000018002edd8     libucrt:lcidtoname_downlevel.obj
 0002:00008de8       ??_C@_1M@IBMCAOEC@?$AAe?$AAs?$AA?9?$AAp?$AAr@ 000000018002ede8     libucrt:lcidtoname_downlevel.obj
 0002:00008df8       ??_C@_1M@FGMDIJED@?$AAe?$AAs?$AA?9?$AAp?$AAy@ 000000018002edf8     libucrt:lcidtoname_downlevel.obj
 0002:00008e08       ??_C@_1M@IIDEOLLL@?$AAe?$AAs?$AA?9?$AAs?$AAv@ 000000018002ee08     libucrt:lcidtoname_downlevel.obj
 0002:00008e18       ??_C@_1M@GAOBIPA@?$AAe?$AAs?$AA?9?$AAu?$AAy@ 000000018002ee18     libucrt:lcidtoname_downlevel.obj
 0002:00008e28       ??_C@_1M@JKFFICHJ@?$AAe?$AAs?$AA?9?$AAv?$AAe@ 000000018002ee28     libucrt:lcidtoname_downlevel.obj
 0002:00008e38       ??_C@_1M@PNMLOJDF@?$AAe?$AAt?$AA?9?$AAe?$AAe@ 000000018002ee38     libucrt:lcidtoname_downlevel.obj
 0002:00008e48       ??_C@_1M@GHHLIKEI@?$AAe?$AAu?$AA?9?$AAe?$AAs@ 000000018002ee48     libucrt:lcidtoname_downlevel.obj
 0002:00008e58       ??_C@_1M@PBNONODE@?$AAf?$AAa?$AA?9?$AAi?$AAr@ 000000018002ee58     libucrt:lcidtoname_downlevel.obj
 0002:00008e68       ??_C@_1M@JEEHPMIL@?$AAf?$AAi?$AA?9?$AAf?$AAi@ 000000018002ee68     libucrt:lcidtoname_downlevel.obj
 0002:00008e78       ??_C@_1M@LMDCNDBA@?$AAf?$AAo?$AA?9?$AAf?$AAo@ 000000018002ee78     libucrt:lcidtoname_downlevel.obj
 0002:00008e88       ??_C@_1M@JKEOHLDK@?$AAf?$AAr?$AA?9?$AAb?$AAe@ 000000018002ee88     libucrt:lcidtoname_downlevel.obj
 0002:00008e98       ??_C@_1M@NOHADPMI@?$AAf?$AAr?$AA?9?$AAc?$AAa@ 000000018002ee98     libucrt:lcidtoname_downlevel.obj
 0002:00008ea8       ??_C@_1M@KDHIHAEC@?$AAf?$AAr?$AA?9?$AAc?$AAh@ 000000018002eea8     libucrt:lcidtoname_downlevel.obj
 0002:00008eb8       ??_C@_1M@MMBBFGAK@?$AAf?$AAr?$AA?9?$AAf?$AAr@ 000000018002eeb8     libucrt:lcidtoname_downlevel.obj
 0002:00008ec8       ??_C@_1M@PAFNENNF@?$AAf?$AAr?$AA?9?$AAl?$AAu@ 000000018002eec8     libucrt:lcidtoname_downlevel.obj
 0002:00008ed8       ??_C@_1M@EOHDJGDD@?$AAf?$AAr?$AA?9?$AAm?$AAc@ 000000018002eed8     libucrt:lcidtoname_downlevel.obj
 0002:00008ee8       ??_C@_1M@FAPLLOPF@?$AAg?$AAl?$AA?9?$AAe?$AAs@ 000000018002eee8     libucrt:lcidtoname_downlevel.obj
 0002:00008ef8       ??_C@_1M@FOPBFLOO@?$AAg?$AAu?$AA?9?$AAi?$AAn@ 000000018002eef8     libucrt:lcidtoname_downlevel.obj
 0002:00008f08       ??_C@_1M@KBMCINPM@?$AAh?$AAe?$AA?9?$AAi?$AAl@ 000000018002ef08     libucrt:lcidtoname_downlevel.obj
 0002:00008f18       ??_C@_1M@BBPHKFPJ@?$AAh?$AAi?$AA?9?$AAi?$AAn@ 000000018002ef18     libucrt:lcidtoname_downlevel.obj
 0002:00008f28       ??_C@_1M@PMBNDPHD@?$AAh?$AAr?$AA?9?$AAb?$AAa@ 000000018002ef28     libucrt:lcidtoname_downlevel.obj
 0002:00008f38       ??_C@_1M@BPCKOEGE@?$AAh?$AAr?$AA?9?$AAh?$AAr@ 000000018002ef38     libucrt:lcidtoname_downlevel.obj
 0002:00008f48       ??_C@_1M@GACBMHKE@?$AAh?$AAu?$AA?9?$AAh?$AAu@ 000000018002ef48     libucrt:lcidtoname_downlevel.obj
 0002:00008f58       ??_C@_1M@MILPAJJC@?$AAh?$AAy?$AA?9?$AAa?$AAm@ 000000018002ef58     libucrt:lcidtoname_downlevel.obj
 0002:00008f68       ??_C@_1M@BABBICEC@?$AAi?$AAd?$AA?9?$AAi?$AAd@ 000000018002ef68     libucrt:lcidtoname_downlevel.obj
 0002:00008f78       ??_C@_1M@BIKNHHPF@?$AAi?$AAs?$AA?9?$AAi?$AAs@ 000000018002ef78     libucrt:lcidtoname_downlevel.obj
 0002:00008f88       ??_C@_1M@NMPCJPHE@?$AAi?$AAt?$AA?9?$AAc?$AAh@ 000000018002ef88     libucrt:lcidtoname_downlevel.obj
 0002:00008f98       ??_C@_1M@GHKGFEDF@?$AAi?$AAt?$AA?9?$AAi?$AAt@ 000000018002ef98     libucrt:lcidtoname_downlevel.obj
 0002:00008fa8       ??_C@_1M@NIEJCJJA@?$AAj?$AAa?$AA?9?$AAj?$AAp@ 000000018002efa8     libucrt:lcidtoname_downlevel.obj
 0002:00008fb8       ??_C@_1M@JILFNBIM@?$AAk?$AAa?$AA?9?$AAg?$AAe@ 000000018002efb8     libucrt:lcidtoname_downlevel.obj
 0002:00008fc8       ??_C@_1M@PACPMGPH@?$AAk?$AAk?$AA?9?$AAk?$AAz@ 000000018002efc8     libucrt:lcidtoname_downlevel.obj
 0002:00008fd8       ??_C@_1M@IELFGMHA@?$AAk?$AAn?$AA?9?$AAi?$AAn@ 000000018002efd8     libucrt:lcidtoname_downlevel.obj
 0002:00008fe8       ??_C@_1O@IBBJHCH@?$AAk?$AAo?$AAk?$AA?9?$AAi?$AAn@ 000000018002efe8     libucrt:lcidtoname_downlevel.obj
 0002:00008ff8       ??_C@_1M@DMHAEOGC@?$AAk?$AAo?$AA?9?$AAk?$AAr@ 000000018002eff8     libucrt:lcidtoname_downlevel.obj
 0002:00009008       ??_C@_1M@HBAHBIGA@?$AAk?$AAy?$AA?9?$AAk?$AAg@ 000000018002f008     libucrt:lcidtoname_downlevel.obj
 0002:00009018       ??_C@_1M@KPMILCJG@?$AAl?$AAt?$AA?9?$AAl?$AAt@ 000000018002f018     libucrt:lcidtoname_downlevel.obj
 0002:00009028       ??_C@_1M@BDEKKCA@?$AAl?$AAv?$AA?9?$AAl?$AAv@ 000000018002f028     libucrt:lcidtoname_downlevel.obj
 0002:00009038       ??_C@_1M@ELCKCCJJ@?$AAm?$AAi?$AA?9?$AAn?$AAz@ 000000018002f038     libucrt:lcidtoname_downlevel.obj
 0002:00009048       ??_C@_1M@CBOOLAPA@?$AAm?$AAk?$AA?9?$AAm?$AAk@ 000000018002f048     libucrt:lcidtoname_downlevel.obj
 0002:00009058       ??_C@_1M@GPHNBJKN@?$AAm?$AAl?$AA?9?$AAi?$AAn@ 000000018002f058     libucrt:lcidtoname_downlevel.obj
 0002:00009068       ??_C@_1M@PABJILIG@?$AAm?$AAn?$AA?9?$AAm?$AAn@ 000000018002f068     libucrt:lcidtoname_downlevel.obj
 0002:00009078       ??_C@_1M@FGBKKIPG@?$AAm?$AAr?$AA?9?$AAi?$AAn@ 000000018002f078     libucrt:lcidtoname_downlevel.obj
 0002:00009088       ??_C@_1M@NDBPDDAL@?$AAm?$AAs?$AA?9?$AAb?$AAn@ 000000018002f088     libucrt:lcidtoname_downlevel.obj
 0002:00009098       ??_C@_1M@OPIHOOPI@?$AAm?$AAs?$AA?9?$AAm?$AAy@ 000000018002f098     libucrt:lcidtoname_downlevel.obj
 0002:000090a8       ??_C@_1M@PPDBCNFM@?$AAm?$AAt?$AA?9?$AAm?$AAt@ 000000018002f0a8     libucrt:lcidtoname_downlevel.obj
 0002:000090b8       ??_C@_1M@KDJDKMDD@?$AAn?$AAb?$AA?9?$AAn?$AAo@ 000000018002f0b8     libucrt:lcidtoname_downlevel.obj
 0002:000090c8       ??_C@_1M@KFCFLMJP@?$AAn?$AAl?$AA?9?$AAb?$AAe@ 000000018002f0c8     libucrt:lcidtoname_downlevel.obj
 0002:000090d8       ??_C@_1M@KPOPDDGO@?$AAn?$AAl?$AA?9?$AAn?$AAl@ 000000018002f0d8     libucrt:lcidtoname_downlevel.obj
 0002:000090e8       ??_C@_1M@LJKPEMLN@?$AAn?$AAn?$AA?9?$AAn?$AAo@ 000000018002f0e8     libucrt:lcidtoname_downlevel.obj
 0002:000090f8       ??_C@_1M@BDGHHBFL@?$AAn?$AAs?$AA?9?$AAz?$AAa@ 000000018002f0f8     libucrt:lcidtoname_downlevel.obj
 0002:00009108       ??_C@_1M@IDEHOAP@?$AAp?$AAa?$AA?9?$AAi?$AAn@ 000000018002f108     libucrt:lcidtoname_downlevel.obj
 0002:00009118       ??_C@_1M@HDBKGOGH@?$AAp?$AAl?$AA?9?$AAp?$AAl@ 000000018002f118     libucrt:lcidtoname_downlevel.obj
 0002:00009128       ??_C@_1M@LJLLCMEH@?$AAp?$AAt?$AA?9?$AAb?$AAr@ 000000018002f128     libucrt:lcidtoname_downlevel.obj
 0002:00009138       ??_C@_1M@NCMONAAL@?$AAp?$AAt?$AA?9?$AAp?$AAt@ 000000018002f138     libucrt:lcidtoname_downlevel.obj
 0002:00009148       ??_C@_1O@EAKMAJDN@?$AAq?$AAu?$AAz?$AA?9?$AAb?$AAo@ 000000018002f148     libucrt:lcidtoname_downlevel.obj
 0002:00009158       ??_C@_1O@BHHPIGDN@?$AAq?$AAu?$AAz?$AA?9?$AAe?$AAc@ 000000018002f158     libucrt:lcidtoname_downlevel.obj
 0002:00009168       ??_C@_1O@GBAPEKMJ@?$AAq?$AAu?$AAz?$AA?9?$AAp?$AAe@ 000000018002f168     libucrt:lcidtoname_downlevel.obj
 0002:00009178       ??_C@_1M@CLGLEFBO@?$AAr?$AAo?$AA?9?$AAr?$AAo@ 000000018002f178     libucrt:lcidtoname_downlevel.obj
 0002:00009188       ??_C@_1M@CEEDODME@?$AAr?$AAu?$AA?9?$AAr?$AAu@ 000000018002f188     libucrt:lcidtoname_downlevel.obj
 0002:00009198       ??_C@_1M@HPKKKMPP@?$AAs?$AAa?$AA?9?$AAi?$AAn@ 000000018002f198     libucrt:lcidtoname_downlevel.obj
 0002:000091a8       ??_C@_1M@BKMAIGOJ@?$AAs?$AAe?$AA?9?$AAf?$AAi@ 000000018002f1a8     libucrt:lcidtoname_downlevel.obj
 0002:000091b8       ??_C@_1M@NDPIFLFI@?$AAs?$AAe?$AA?9?$AAn?$AAo@ 000000018002f1b8     libucrt:lcidtoname_downlevel.obj
 0002:000091c8       ??_C@_1M@DANKKHJ@?$AAs?$AAe?$AA?9?$AAs?$AAe@ 000000018002f1c8     libucrt:lcidtoname_downlevel.obj
 0002:000091d8       ??_C@_1M@PNBLONPJ@?$AAs?$AAk?$AA?9?$AAs?$AAk@ 000000018002f1d8     libucrt:lcidtoname_downlevel.obj
 0002:000091e8       ??_C@_1M@LFMODOAL@?$AAs?$AAl?$AA?9?$AAs?$AAi@ 000000018002f1e8     libucrt:lcidtoname_downlevel.obj
 0002:000091f8       ??_C@_1O@DFKOMPG@?$AAs?$AAm?$AAa?$AA?9?$AAn?$AAo@ 000000018002f1f8     libucrt:lcidtoname_downlevel.obj
 0002:00009208       ??_C@_1O@NDKPBNNH@?$AAs?$AAm?$AAa?$AA?9?$AAs?$AAe@ 000000018002f208     libucrt:lcidtoname_downlevel.obj
 0002:00009218       ??_C@_1O@PLLKBHAB@?$AAs?$AAm?$AAj?$AA?9?$AAn?$AAo@ 000000018002f218     libucrt:lcidtoname_downlevel.obj
 0002:00009228       ??_C@_1O@CLEPOGCA@?$AAs?$AAm?$AAj?$AA?9?$AAs?$AAe@ 000000018002f228     libucrt:lcidtoname_downlevel.obj
 0002:00009238       ??_C@_1O@DLGJGKMK@?$AAs?$AAm?$AAn?$AA?9?$AAf?$AAi@ 000000018002f238     libucrt:lcidtoname_downlevel.obj
 0002:00009248       ??_C@_1O@OJDJGAJC@?$AAs?$AAm?$AAs?$AA?9?$AAf?$AAi@ 000000018002f248     libucrt:lcidtoname_downlevel.obj
 0002:00009258       ??_C@_1M@BOFOGHPB@?$AAs?$AAq?$AA?9?$AAa?$AAl@ 000000018002f258     libucrt:lcidtoname_downlevel.obj
 0002:00009268       ??_C@_1BG@LJBBIPGB@?$AAs?$AAr?$AA?9?$AAb?$AAa?$AA?9?$AAc?$AAy?$AAr?$AAl@ 000000018002f268     libucrt:lcidtoname_downlevel.obj
 0002:00009280       ??_C@_1BG@JLBENFOE@?$AAs?$AAr?$AA?9?$AAb?$AAa?$AA?9?$AAl?$AAa?$AAt?$AAn@ 000000018002f280     libucrt:lcidtoname_downlevel.obj
 0002:00009298       ??_C@_1BG@KODPNHE@?$AAs?$AAr?$AA?9?$AAs?$AAp?$AA?9?$AAc?$AAy?$AAr?$AAl@ 000000018002f298     libucrt:lcidtoname_downlevel.obj
 0002:000092b0       ??_C@_1BG@CIOGKHPB@?$AAs?$AAr?$AA?9?$AAs?$AAp?$AA?9?$AAl?$AAa?$AAt?$AAn@ 000000018002f2b0     libucrt:lcidtoname_downlevel.obj
 0002:000092c8       ??_C@_1M@NGFJLMAC@?$AAs?$AAv?$AA?9?$AAf?$AAi@ 000000018002f2c8     libucrt:lcidtoname_downlevel.obj
 0002:000092d8       ??_C@_1M@MPJEJAJC@?$AAs?$AAv?$AA?9?$AAs?$AAe@ 000000018002f2d8     libucrt:lcidtoname_downlevel.obj
 0002:000092e8       ??_C@_1M@MPNDHLFK@?$AAs?$AAw?$AA?9?$AAk?$AAe@ 000000018002f2e8     libucrt:lcidtoname_downlevel.obj
 0002:000092f8       ??_C@_1O@KOHBJJI@?$AAs?$AAy?$AAr?$AA?9?$AAs?$AAy@ 000000018002f2f8     libucrt:lcidtoname_downlevel.obj
 0002:00009308       ??_C@_1M@LDCEFHA@?$AAt?$AAa?$AA?9?$AAi?$AAn@ 000000018002f308     libucrt:lcidtoname_downlevel.obj
 0002:00009318       ??_C@_1M@CNJOFAK@?$AAt?$AAe?$AA?9?$AAi?$AAn@ 000000018002f318     libucrt:lcidtoname_downlevel.obj
 0002:00009328       ??_C@_1M@GNAECACD@?$AAt?$AAh?$AA?9?$AAt?$AAh@ 000000018002f328     libucrt:lcidtoname_downlevel.obj
 0002:00009338       ??_C@_1M@CHBIHOJO@?$AAt?$AAn?$AA?9?$AAz?$AAa@ 000000018002f338     libucrt:lcidtoname_downlevel.obj
 0002:00009348       ??_C@_1M@GCCMIGPJ@?$AAt?$AAr?$AA?9?$AAt?$AAr@ 000000018002f348     libucrt:lcidtoname_downlevel.obj
 0002:00009358       ??_C@_1M@CELMCNBK@?$AAt?$AAt?$AA?9?$AAr?$AAu@ 000000018002f358     libucrt:lcidtoname_downlevel.obj
 0002:00009368       ??_C@_1M@KLMCELGA@?$AAu?$AAk?$AA?9?$AAu?$AAa@ 000000018002f368     libucrt:lcidtoname_downlevel.obj
 0002:00009378       ??_C@_1M@EPAJJAJF@?$AAu?$AAr?$AA?9?$AAp?$AAk@ 000000018002f378     libucrt:lcidtoname_downlevel.obj
 0002:00009388       ??_C@_1BG@GEGPMCDJ@?$AAu?$AAz?$AA?9?$AAu?$AAz?$AA?9?$AAc?$AAy?$AAr?$AAl@ 000000018002f388     libucrt:lcidtoname_downlevel.obj
 0002:000093a0       ??_C@_1BG@EGGKJILM@?$AAu?$AAz?$AA?9?$AAu?$AAz?$AA?9?$AAl?$AAa?$AAt?$AAn@ 000000018002f3a0     libucrt:lcidtoname_downlevel.obj
 0002:000093b8       ??_C@_1M@GFOCLFF@?$AAv?$AAi?$AA?9?$AAv?$AAn@ 000000018002f3b8     libucrt:lcidtoname_downlevel.obj
 0002:000093c8       ??_C@_1M@CPAMEDFI@?$AAx?$AAh?$AA?9?$AAz?$AAa@ 000000018002f3c8     libucrt:lcidtoname_downlevel.obj
 0002:000093d8       ??_C@_1O@EBKIFIGN@?$AAz?$AAh?$AA?9?$AAc?$AAh?$AAs@ 000000018002f3d8     libucrt:lcidtoname_downlevel.obj
 0002:000093e8       ??_C@_1O@NMHPGANE@?$AAz?$AAh?$AA?9?$AAc?$AAh?$AAt@ 000000018002f3e8     libucrt:lcidtoname_downlevel.obj
 0002:000093f8       ??_C@_1M@LPINJOMC@?$AAz?$AAh?$AA?9?$AAc?$AAn@ 000000018002f3f8     libucrt:lcidtoname_downlevel.obj
 0002:00009408       ??_C@_1M@OCJEJODD@?$AAz?$AAh?$AA?9?$AAh?$AAk@ 000000018002f408     libucrt:lcidtoname_downlevel.obj
 0002:00009418       ??_C@_1M@DNDLJINH@?$AAz?$AAh?$AA?9?$AAm?$AAo@ 000000018002f418     libucrt:lcidtoname_downlevel.obj
 0002:00009428       ??_C@_1M@MBFDNDND@?$AAz?$AAh?$AA?9?$AAs?$AAg@ 000000018002f428     libucrt:lcidtoname_downlevel.obj
 0002:00009438       ??_C@_1M@IMEPLEPE@?$AAz?$AAh?$AA?9?$AAt?$AAw@ 000000018002f438     libucrt:lcidtoname_downlevel.obj
 0002:00009448       ??_C@_1M@BBGHNHJP@?$AAz?$AAu?$AA?9?$AAz?$AAa@ 000000018002f448     libucrt:lcidtoname_downlevel.obj
 0002:00009460       ?large_power_data@?1??multiply_by_power_of_ten@__crt_strtox@@YA_NAEAUbig_integer@2@I@Z@4QBIB 000000018002f460     libucrt:cfout.obj
 0002:00009d70       ?large_power_indices@?1??multiply_by_power_of_ten@__crt_strtox@@YA_NAEAUbig_integer@2@I@Z@4QBUunpack_index@?1??12@YA_N0I@Z@B 000000018002fd70     libucrt:cfout.obj
 0002:00009e08       ?small_powers_of_ten@?1??multiply_by_power_of_ten@__crt_strtox@@YA_NAEAUbig_integer@2@I@Z@4QBIB 000000018002fe08     libucrt:cfout.obj
 0002:00009e2c       ??_C@_01GBGANLPD@0@        000000018002fe2c     libucrt:cfout.obj
 0002:00009e30       ??_C@_05DNEBIAHO@1?$CDINF@ 000000018002fe30     libucrt:cfout.obj
 0002:00009e38       ??_C@_06IMKFLFPG@1?$CDQNAN@ 000000018002fe38     libucrt:cfout.obj
 0002:00009e40       ??_C@_06PGGFOGJG@1?$CDSNAN@ 000000018002fe40     libucrt:cfout.obj
 0002:00009e48       ??_C@_05PHHOCPM@1?$CDIND@  000000018002fe48     libucrt:cfout.obj
 0002:00009e50       __real@3ff0000000000000    000000018002fe50     libucrt:ceil.obj
 0002:0000a0b0       __log10_256_lead           00000001800300b0     libucrt:log10_256_lead_tail_table.obj
 0002:0000a8c0       __log10_256_tail           00000001800308c0     libucrt:log10_256_lead_tail_table.obj
 0002:0000b0d0       __log_F_inv_qword          00000001800310d0     libucrt:log_f_inv_qword_table.obj
 0002:0000b8e0       ??_C@_05HGHHAHAP@log10@    00000001800318e0     libucrt:log_special.obj
 0002:0000b8e8       ??_C@_1BA@BALFACEM@?$AAC?$AAO?$AAN?$AAO?$AAU?$AAT?$AA$@ 00000001800318e8     libucrt:initcon.obj
 0002:0000b970       _load_config_used          0000000180031970     LIBCMT:loadcfg.obj
 0002:0000bb00       _tls_used                  0000000180031b00     LIBCMT:tlssup.obj
 0002:0000bb28       ??_R4exception@std@@6B@    0000000180031b28     LIBCMT:throw_bad_alloc.obj
 0002:0000bb50       ??_R3exception@std@@8      0000000180031b50     LIBCMT:throw_bad_alloc.obj
 0002:0000bb68       ??_R2exception@std@@8      0000000180031b68     LIBCMT:throw_bad_alloc.obj
 0002:0000bb78       ??_R1A@?0A@EA@exception@std@@8 0000000180031b78     LIBCMT:throw_bad_alloc.obj
 0002:0000bba0       ??_R4bad_alloc@std@@6B@    0000000180031ba0     LIBCMT:throw_bad_alloc.obj
 0002:0000bbc8       ??_R3bad_alloc@std@@8      0000000180031bc8     LIBCMT:throw_bad_alloc.obj
 0002:0000bbe0       ??_R2bad_alloc@std@@8      0000000180031be0     LIBCMT:throw_bad_alloc.obj
 0002:0000bbf8       ??_R1A@?0A@EA@bad_alloc@std@@8 0000000180031bf8     LIBCMT:throw_bad_alloc.obj
 0002:0000bc20       ??_R4bad_array_new_length@std@@6B@ 0000000180031c20     LIBCMT:throw_bad_alloc.obj
 0002:0000bc48       ??_R3bad_array_new_length@std@@8 0000000180031c48     LIBCMT:throw_bad_alloc.obj
 0002:0000bc60       ??_R2bad_array_new_length@std@@8 0000000180031c60     LIBCMT:throw_bad_alloc.obj
 0002:0000bc80       ??_R1A@?0A@EA@bad_array_new_length@std@@8 0000000180031c80     LIBCMT:throw_bad_alloc.obj
 0002:0000bca8       ??_R4type_info@@6B@        0000000180031ca8     LIBCMT:std_type_info_static.obj
 0002:0000bcd0       ??_R3type_info@@8          0000000180031cd0     LIBCMT:std_type_info_static.obj
 0002:0000bce8       ??_R2type_info@@8          0000000180031ce8     LIBCMT:std_type_info_static.obj
 0002:0000bcf8       ??_R1A@?0A@EA@type_info@@8 0000000180031cf8     LIBCMT:std_type_info_static.obj
 0002:0000bd20       ??_R4bad_exception@std@@6B@ 0000000180031d20     libvcruntime:frame.obj
 0002:0000bd48       ??_R3bad_exception@std@@8  0000000180031d48     libvcruntime:frame.obj
 0002:0000bd60       ??_R2bad_exception@std@@8  0000000180031d60     libvcruntime:frame.obj
 0002:0000bd78       ??_R1A@?0A@EA@bad_exception@std@@8 0000000180031d78     libvcruntime:frame.obj
 0002:0000c1b0       __rtc_iaa                  00000001800321b0     LIBCMT:initsect.obj
 0002:0000c1b8       __rtc_izz                  00000001800321b8     LIBCMT:initsect.obj
 0002:0000c1c0       __rtc_taa                  00000001800321c0     LIBCMT:initsect.obj
 0002:0000c1c8       __rtc_tzz                  00000001800321c8     LIBCMT:initsect.obj
 0002:0000c1d0       _tls_start                 00000001800321d0     LIBCMT:tlssup.obj
 0002:0000c1d4       _Init_thread_epoch         00000001800321d4     LIBCMT:thread_safe_statics.obj
 0002:0000c1d8       _tls_end                   00000001800321d8     LIBCMT:tlssup.obj
 0002:0000d910       _TI2?AVbad_alloc@std@@     0000000180033910     LIBCMT:throw_bad_alloc.obj
 0002:0000d930       _CTA2?AVbad_alloc@std@@    0000000180033930     LIBCMT:throw_bad_alloc.obj
 0002:0000d948       _CT??_R0?AVbad_alloc@std@@@8??0bad_alloc@std@@QEAA@AEBV01@@Z24 0000000180033948     LIBCMT:throw_bad_alloc.obj
 0002:0000d970       _CT??_R0?AVexception@std@@@8??0exception@std@@QEAA@AEBV01@@Z24 0000000180033970     LIBCMT:throw_bad_alloc.obj
 0002:0000d998       _TI3?AVbad_array_new_length@std@@ 0000000180033998     LIBCMT:throw_bad_alloc.obj
 0002:0000d9b8       _CTA3?AVbad_array_new_length@std@@ 00000001800339b8     LIBCMT:throw_bad_alloc.obj
 0002:0000d9d8       _CT??_R0?AVbad_array_new_length@std@@@8??0bad_array_new_length@std@@QEAA@AEBV01@@Z24 00000001800339d8     LIBCMT:throw_bad_alloc.obj
 0002:0000da00       _TI2?AVbad_exception@std@@ 0000000180033a00     libvcruntime:frame.obj
 0002:0000da20       _CTA2?AVbad_exception@std@@ 0000000180033a20     libvcruntime:frame.obj
 0002:0000da38       _CT??_R0?AVbad_exception@std@@@8??0bad_exception@std@@QEAA@AEBV01@@Z24 0000000180033a38     libvcruntime:frame.obj
 0002:0000da60       __pobjMapEntryFirst        0000000180033a60     OposVariant.obj
 0002:0000da68       __pobjMapEntryLast         0000000180033a68     OposVariant.obj
 0002:0000db24       __IMPORT_DESCRIPTOR_KERNEL32 0000000180033b24     kernel32:KERNEL32.dll
 0002:0000db38       __IMPORT_DESCRIPTOR_USER32 0000000180033b38     user32:USER32.dll
 0002:0000db4c       __IMPORT_DESCRIPTOR_GDI32  0000000180033b4c     gdi32:GDI32.dll
 0002:0000db60       __IMPORT_DESCRIPTOR_ADVAPI32 0000000180033b60     advapi32:ADVAPI32.dll
 0002:0000db74       __IMPORT_DESCRIPTOR_ole32  0000000180033b74     ole32:ole32.dll
 0002:0000db88       __IMPORT_DESCRIPTOR_OLEAUT32 0000000180033b88     oleaut32:OLEAUT32.dll
 0002:0000db9c       __NULL_IMPORT_DESCRIPTOR   0000000180033b9c     kernel32:KERNEL32.dll
 0003:00000000       ?s_Claim@?7??GetIDsOfNames@CComTypeInfoHolder@ATL@@QEAAJAEBU_GUID@@PEAPEA_WIKPEAJ@Z@4PA_WA 0000000180035000     ElectronicValueRW.obj
 0003:00000018       ?s_Release@?7??GetIDsOfNames@CComTypeInfoHolder@ATL@@QEAAJAEBU_GUID@@PEAPEA_WIKPEAJ@Z@4PA_WA 0000000180035018     ElectronicValueRW.obj
 0003:00000038       ?_tih@?$IDispatchImpl@UIOPOSElectronicValueRW@@$1?IID_IOPOSElectronicValueRW@@3U_GUID@@B$1?LIBID_OposElectronicValueRW_CCO@@3U3@B$00$0A@VCComTypeInfoHolder@ATL@@@ATL@@1VCComTypeInfoHolder@2@A 0000000180035038     ElectronicValueRW.obj
 0003:00000070       ?_tih@?$IProvideClassInfo2Impl@$1?CLSID_OPOSElectronicValueRW@@3U_GUID@@B$1?DIID__IOPOSElectronicValueRWEvents@@3U2@B$1?LIBID_OposElectronicValueRW_CCO@@3U2@B$00$0A@VCComTypeInfoHolder@ATL@@@ATL@@1VCComTypeInfoHolder@2@A 0000000180035070     ElectronicValueRW.obj
 0003:000000a8       ?vszContents@?6??Save@?$IPersistStorageImpl@VCOPOSElectronicValueRW@@@ATL@@UEAAJPEAUIStorage@@H@Z@4PEB_WEB 00000001800350a8     ElectronicValueRW.obj
 0003:000000b0       ?rcDefault@CWindow@ATL@@2UtagRECT@@A 00000001800350b0     ElectronicValueRW.obj
 0003:000000c0       ?wc@?1??GetWndClassInfo@?$CWindowImpl@VCOPOSElectronicValueRW@@VCWindow@ATL@@V?$CWinTraits@$0FGAAAAAA@$0A@@3@@ATL@@SAAEAU_ATL_WNDCLASSINFOW@3@XZ@4U43@A 00000001800350c0     ElectronicValueRW.obj
 0003:00000250       ?g_WindowName@@3PA_WA      0000000180035250     ElectronicValueRWImpl.obj
 0003:00000290       ?g_ControlDescription@@3PADA 0000000180035290     ElectronicValueRWImpl.obj
 0003:000002e4       ?g_ControlVersion@@3JA     00000001800352e4     ElectronicValueRWImpl.obj
 0003:00000518       __scrt_native_dllmain_reason 0000000180035518     LIBCMT:utility.obj
 0003:0000051c       _Init_global_epoch         000000018003551c     LIBCMT:thread_safe_statics.obj
 0003:00000520       __security_cookie_complement 0000000180035520     LIBCMT:gs_cookie.obj
 0003:00000528       __security_cookie          0000000180035528     LIBCMT:gs_cookie.obj
 0003:00000530       __isa_available            0000000180035530     LIBCMT:cpu_disp.obj
 0003:00000534       __isa_enabled              0000000180035534     LIBCMT:cpu_disp.obj
 0003:00000538       __memcpy_nt_iters          0000000180035538     LIBCMT:cpu_disp.obj
 0003:00000540       __memset_nt_iters          0000000180035540     LIBCMT:cpu_disp.obj
 0003:00000568       __abort_behavior           0000000180035568     libucrt:abort.obj
 0003:00000580       _iob                       0000000180035580     libucrt:_file.obj
 0003:00000690       __acrt_initial_locale_data 0000000180035690     libucrt:nlsdata.obj
 0003:000007e8       __acrt_initial_locale_pointers 00000001800357e8     libucrt:nlsdata.obj
 0003:000007f8       __acrt_wide_c_locale_string 00000001800357f8     libucrt:nlsdata.obj
 0003:00000800       __acrt_initial_multibyte_data 0000000180035800     libucrt:mbctype.obj
 0003:00000d40       _pwctype                   0000000180035d40     libucrt:ctype.obj
 0003:00000d48       __globallocalestatus       0000000180035d48     libucrt:glstatus.obj
 0003:00000d50       __acrt_lconv_c             0000000180035d50     libucrt:localeconv.obj
 0003:00000de8       __acrt_lconv_static_decimal 0000000180035de8     libucrt:localeconv.obj
 0003:00000dec       __acrt_lconv_static_W_decimal 0000000180035dec     libucrt:localeconv.obj
 0003:00000df0       _lookuptrailbytes          0000000180035df0     libucrt:read.obj
 0003:00000f14       _fltused                   0000000180035f14     LIBCMT:fltused.obj
 0003:00000f18       ??_R0?AVbad_alloc@std@@@8  0000000180035f18     LIBCMT:throw_bad_alloc.obj
 0003:00000f40       ??_R0?AVexception@std@@@8  0000000180035f40     LIBCMT:throw_bad_alloc.obj
 0003:00000f68       ??_R0?AVbad_array_new_length@std@@@8 0000000180035f68     LIBCMT:throw_bad_alloc.obj
 0003:00000f98       ??_R0?AVtype_info@@@8      0000000180035f98     LIBCMT:std_type_info_static.obj
 0003:00000fb8       ??_R0?AVbad_exception@std@@@8 0000000180035fb8     libvcruntime:frame.obj
 0003:00000fe0       ?_pPerfRegFunc@ATL@@3P6AJPEAUHINSTANCE__@@@ZEA 0000000180035fe0     OposVariant.obj
 0003:00000fe8       ?_pPerfUnRegFunc@ATL@@3P6AJXZEA 0000000180035fe8     OposVariant.obj
 0003:00000ff0       ?_AtlRegisterPerUser@ATL@@3_NA 0000000180035ff0     OposVariant.obj
 0003:00000ff8       ?_pAtlModule@ATL@@3PEAVCAtlModule@1@EA 0000000180035ff8     OposVariant.obj
 0003:00001000       ?_pModule@ATL@@3PEAVCComModule@1@EA 0000000180036000     OposVariant.obj
 0003:00001008       ?m_bInitFailed@CAtlBaseModule@ATL@@2_NA 0000000180036008     OposVariant.obj
 0003:00001010       ?_AtlComModule@ATL@@3VCAtlComModule@1@A 0000000180036010     OposVariant.obj
 0003:00001060       ?_AtlWinModule@ATL@@3VCAtlWinModule@1@A 0000000180036060     OposVariant.obj
 0003:000010a8       ?m_libid@CAtlModule@ATL@@2U_GUID@@A 00000001800360a8     ElectronicValueRW.obj
 0003:000010b8       ?_entries@?1??GetConnMap@COPOSElectronicValueRW@@SAPEBU_ATL_CONNMAP_ENTRY@ATL@@PEAH@Z@4QBU34@B 00000001800360b8     ElectronicValueRW.obj
 0003:000010d0       ?$TSS0@?1??GetConnMap@COPOSElectronicValueRW@@SAPEBU_ATL_CONNMAP_ENTRY@ATL@@PEAH@Z@4HA 00000001800360d0     ElectronicValueRW.obj
 0003:000010d8       ?_OptionsStorage@?1??__local_stdio_printf_options@@9@4_KA 00000001800360d8     ElectronicValueRW.obj
 0003:000010e0       ?pfnRegDeleteKeyEx@?1??DeleteSubKey@CRegKey@ATL@@QEAAJPEB_W@Z@4P6AJPEAUHKEY__@@0KK@ZEA 00000001800360e0     ElectronicValueRW.obj
 0003:000010e8       ?bInitialized@?1??DeleteSubKey@CRegKey@ATL@@QEAAJPEB_W@Z@4_NA 00000001800360e8     ElectronicValueRW.obj
 0003:000010f0       ?_Module@@3VCComModule@ATL@@A 00000001800360f0     ElectronicValueRW.obj
 0003:00001140       ?pConnMap@?$IConnectionPointContainerImpl@VCOPOSElectronicValueRW@@@ATL@@0PEBU_ATL_CONNMAP_ENTRY@2@EB 0000000180036140     ElectronicValueRW.obj
 0003:00001148       ?s_nInstances@COPOSElectronicValueRW@@1HA 0000000180036148     ElectronicValueRWImpl.obj
 0003:00001150       __scrt_current_native_startup_state 0000000180036150     LIBCMT:utility.obj
 0003:00001158       __scrt_native_startup_lock 0000000180036158     LIBCMT:utility.obj
 0003:00001750       _tls_index                 0000000180036750     LIBCMT:tlssup.obj
 0003:00001758       __favor                    0000000180036758     LIBCMT:cpu_disp.obj
 0003:0000175c       __scrt_debugger_hook_flag  000000018003675c     LIBCMT:utility_desktop.obj
 0003:00001760       __castguard_check_failure_os_handled_fptr 0000000180036760     LIBCMT:guard_support.obj
 0003:00001770       ?__type_info_root_node@@3U__type_info_node@@A 0000000180036770     LIBCMT:tncleanup.obj
 0003:00001780       ?_OptionsStorage@?1??__local_stdio_scanf_options@@9@4_KA 0000000180036780     LIBCMT:default_local_stdio_options.obj
 0003:00001790       ?_AtlBaseModule@ATL@@3VCAtlBaseModule@1@A 0000000180036790     atls:atlbase.obj
 0003:000017f0       ?__AtlThunkPool@@3PEAT_SLIST_HEADER@@EA 00000001800367f0     atls:atlthunk.obj
 0003:0000181c       __@@_PchSym_@00@UztvmgUPdlipUGDUhUrmgvinvwrzgvUexgllohUzgohOmzgrevkilqPBACIAJCBDBUlyqiUznwGEUhgwzucOlyq@4B2008FD98C1DD4 000000018003681c     atls:stdafx.obj
 0003:00001820       ?__WinRTOutOfMemoryExceptionCallback@@3P6APEAXXZEA 0000000180036820     libvcruntime:ehhelpers.obj
 0003:00001828       __pPurecall                0000000180036828     libvcruntime:purevirt_data.obj
 0003:000018e0       ?pArgList@UnDecorator@@0PEAVReplicator@@EA 00000001800368e0     libvcruntime:undname.obj
 0003:000018e8       ?pZNameList@UnDecorator@@0PEAVReplicator@@EA 00000001800368e8     libvcruntime:undname.obj
 0003:000018f0       ?pTemplateArgList@UnDecorator@@0PEAVReplicator@@EA 00000001800368f0     libvcruntime:undname.obj
 0003:000018f8       ?gName@UnDecorator@@0PEBDEB 00000001800368f8     libvcruntime:undname.obj
 0003:00001900       ?name@UnDecorator@@0PEBDEB 0000000180036900     libvcruntime:undname.obj
 0003:00001908       ?disableFlags@UnDecorator@@0KA 0000000180036908     libvcruntime:undname.obj
 0003:0000190c       ?fExplicitTemplateParams@UnDecorator@@0_NA 000000018003690c     libvcruntime:undname.obj
 0003:0000190d       ?fGetTemplateArgumentList@UnDecorator@@0_NA 000000018003690d     libvcruntime:undname.obj
 0003:00001910       ?m_pGetParameter@UnDecorator@@0P6APEADJ@ZEA 0000000180036910     libvcruntime:undname.obj
 0003:00001918       ?m_CHPENameOffset@UnDecorator@@0KA 0000000180036918     libvcruntime:undname.obj
 0003:0000191c       ?m_recursionLevel@UnDecorator@@0KA 000000018003691c     libvcruntime:undname.obj
 0003:000019a0       ?c_exit_complete@?1???R<lambda_6e4b09c48022b2350581041d5f6b0c4c>@@QEBA@XZ@4_NA 00000001800369a0     libucrt:exit.obj
 0003:00001ab8       _environ_table             0000000180036ab8     libucrt:environment_initialization.obj
 0003:00001ac0       _wenviron_table            0000000180036ac0     libucrt:environment_initialization.obj
 0003:00001ac8       __dcrt_initial_wide_environment 0000000180036ac8     libucrt:environment_initialization.obj
 0003:00001ad0       __dcrt_initial_narrow_environment 0000000180036ad0     libucrt:environment_initialization.obj
 0003:00001ad8       __acrt_atexit_table        0000000180036ad8     libucrt:onexit.obj
 0003:00001af0       __acrt_at_quick_exit_table 0000000180036af0     libucrt:onexit.obj
 0003:00001cc8       _nstream                   0000000180036cc8     libucrt:_file.obj
 0003:00001cd0       __piob                     0000000180036cd0     libucrt:_file.obj
 0003:00001ce0       __acrt_stdout_buffer       0000000180036ce0     libucrt:_sftbuf.obj
 0003:00001ce8       __acrt_stderr_buffer       0000000180036ce8     libucrt:_sftbuf.obj
 0003:00001cf0       __acrt_locale_changed_data 0000000180036cf0     libucrt:wsetlocale.obj
 0003:00001cf8       __acrt_current_locale_data 0000000180036cf8     libucrt:nlsdata.obj
 0003:00001d00       __pioinfo                  0000000180036d00     libucrt:ioinit.obj
 0003:00002100       _nhandle                   0000000180037100     libucrt:ioinit.obj
 0003:00002348       _mbctype                   0000000180037348     libucrt:mbctype.obj
 0003:00002350       _mbcasemap                 0000000180037350     libucrt:mbctype.obj
 0003:00002358       __acrt_current_multibyte_data 0000000180037358     libucrt:mbctype.obj
 0003:00002368       _pgmptr                    0000000180037368     libucrt:argv_data.obj
 0003:00002370       __argc                     0000000180037370     libucrt:argv_data.obj
 0003:00002378       __argv                     0000000180037378     libucrt:argv_data.obj
 0003:00002380       __wargv                    0000000180037380     libucrt:argv_data.obj
 0003:00002388       _acmdln                    0000000180037388     libucrt:argv_data.obj
 0003:00002390       _wcmdln                    0000000180037390     libucrt:argv_data.obj
 0003:00002398       __acrt_heap                0000000180037398     libucrt:heap_handle.obj
 0003:000023cc       __acrt_lconv_static_null   00000001800373cc     libucrt:localeconv.obj
 0003:000023d0       __acrt_lconv_static_W_null 00000001800373d0     libucrt:localeconv.obj
 0003:000023e4       __fma3_is_available        00000001800373e4     libucrt:fma3_available.obj
 0003:000023e8       __use_fma3_lib             00000001800373e8     libucrt:fma3_available.obj
 0003:000023f0       __dyn_tls_init_callback    00000001800373f0     <common>
 0003:000023f8       __scrt_ucrt_dll_is_in_use  00000001800373f8     <common>

 entry point at        0001:00011d04

 Static symbols

 0000:fffba000       .debug$S                   0000000180000000     OPOSElectronicValueRW.exp
 0000:fffba000       .debug$S                   0000000180000000     advapi32:ADVAPI32.dll
 0000:fffba000       .debug$S                   0000000180000000     advapi32:ADVAPI32.dll
 0000:fffba000       .debug$S                   0000000180000000     advapi32:ADVAPI32.dll
 0000:fffba000       .debug$S                   0000000180000000     advapi32:ADVAPI32.dll
 0000:fffba000       .debug$S                   0000000180000000     advapi32:ADVAPI32.dll
 0000:fffba000       .debug$S                   0000000180000000     advapi32:ADVAPI32.dll
 0000:fffba000       .debug$S                   0000000180000000     advapi32:ADVAPI32.dll
 0000:fffba000       .debug$S                   0000000180000000     advapi32:ADVAPI32.dll
 0000:fffba000       .debug$S                   0000000180000000     advapi32:ADVAPI32.dll
 0000:fffba000       .debug$S                   0000000180000000     gdi32:GDI32.dll
 0000:fffba000       .debug$S                   0000000180000000     gdi32:GDI32.dll
 0000:fffba000       .debug$S                   0000000180000000     gdi32:GDI32.dll
 0000:fffba000       .debug$S                   0000000180000000     gdi32:GDI32.dll
 0000:fffba000       .debug$S                   0000000180000000     gdi32:GDI32.dll
 0000:fffba000       .debug$S                   0000000180000000     gdi32:GDI32.dll
 0000:fffba000       .debug$S                   0000000180000000     gdi32:GDI32.dll
 0000:fffba000       .debug$S                   0000000180000000     gdi32:GDI32.dll
 0000:fffba000       .debug$S                   0000000180000000     gdi32:GDI32.dll
 0000:fffba000       .debug$S                   0000000180000000     gdi32:GDI32.dll
 0000:fffba000       .debug$S                   0000000180000000     gdi32:GDI32.dll
 0000:fffba000       .debug$S                   0000000180000000     gdi32:GDI32.dll
 0000:fffba000       .debug$S                   0000000180000000     gdi32:GDI32.dll
 0000:fffba000       .debug$S                   0000000180000000     gdi32:GDI32.dll
 0000:fffba000       .debug$S                   0000000180000000     gdi32:GDI32.dll
 0000:fffba000       .debug$S                   0000000180000000     gdi32:GDI32.dll
 0000:fffba000       .debug$S                   0000000180000000     gdi32:GDI32.dll
 0000:fffba000       .debug$S                   0000000180000000     gdi32:GDI32.dll
 0000:fffba000       .debug$S                   0000000180000000     gdi32:GDI32.dll
 0000:fffba000       .debug$S                   0000000180000000     kernel32:KERNEL32.dll
 0000:fffba000       .debug$S                   0000000180000000     kernel32:KERNEL32.dll
 0000:fffba000       .debug$S                   0000000180000000     kernel32:KERNEL32.dll
 0000:fffba000       .debug$S                   0000000180000000     kernel32:KERNEL32.dll
 0000:fffba000       .debug$S                   0000000180000000     kernel32:KERNEL32.dll
 0000:fffba000       .debug$S                   0000000180000000     kernel32:KERNEL32.dll
 0000:fffba000       .debug$S                   0000000180000000     kernel32:KERNEL32.dll
 0000:fffba000       .debug$S                   0000000180000000     kernel32:KERNEL32.dll
 0000:fffba000       .debug$S                   0000000180000000     kernel32:KERNEL32.dll
 0000:fffba000       .debug$S                   0000000180000000     kernel32:KERNEL32.dll
 0000:fffba000       .debug$S                   0000000180000000     kernel32:KERNEL32.dll
 0000:fffba000       .debug$S                   0000000180000000     kernel32:KERNEL32.dll
 0000:fffba000       .debug$S                   0000000180000000     kernel32:KERNEL32.dll
 0000:fffba000       .debug$S                   0000000180000000     kernel32:KERNEL32.dll
 0000:fffba000       .debug$S                   0000000180000000     kernel32:KERNEL32.dll
 0000:fffba000       .debug$S                   0000000180000000     kernel32:KERNEL32.dll
 0000:fffba000       .debug$S                   0000000180000000     kernel32:KERNEL32.dll
 0000:fffba000       .debug$S                   0000000180000000     kernel32:KERNEL32.dll
 0000:fffba000       .debug$S                   0000000180000000     kernel32:KERNEL32.dll
 0000:fffba000       .debug$S                   0000000180000000     kernel32:KERNEL32.dll
 0000:fffba000       .debug$S                   0000000180000000     kernel32:KERNEL32.dll
 0000:fffba000       .debug$S                   0000000180000000     kernel32:KERNEL32.dll
 0000:fffba000       .debug$S                   0000000180000000     kernel32:KERNEL32.dll
 0000:fffba000       .debug$S                   0000000180000000     kernel32:KERNEL32.dll
 0000:fffba000       .debug$S                   0000000180000000     kernel32:KERNEL32.dll
 0000:fffba000       .debug$S                   0000000180000000     kernel32:KERNEL32.dll
 0000:fffba000       .debug$S                   0000000180000000     kernel32:KERNEL32.dll
 0000:fffba000       .debug$S                   0000000180000000     kernel32:KERNEL32.dll
 0000:fffba000       .debug$S                   0000000180000000     kernel32:KERNEL32.dll
 0000:fffba000       .debug$S                   0000000180000000     kernel32:KERNEL32.dll
 0000:fffba000       .debug$S                   0000000180000000     kernel32:KERNEL32.dll
 0000:fffba000       .debug$S                   0000000180000000     kernel32:KERNEL32.dll
 0000:fffba000       .debug$S                   0000000180000000     kernel32:KERNEL32.dll
 0000:fffba000       .debug$S                   0000000180000000     kernel32:KERNEL32.dll
 0000:fffba000       .debug$S                   0000000180000000     kernel32:KERNEL32.dll
 0000:fffba000       .debug$S                   0000000180000000     kernel32:KERNEL32.dll
 0000:fffba000       .debug$S                   0000000180000000     kernel32:KERNEL32.dll
 0000:fffba000       .debug$S                   0000000180000000     kernel32:KERNEL32.dll
 0000:fffba000       .debug$S                   0000000180000000     kernel32:KERNEL32.dll
 0000:fffba000       .debug$S                   0000000180000000     kernel32:KERNEL32.dll
 0000:fffba000       .debug$S                   0000000180000000     kernel32:KERNEL32.dll
 0000:fffba000       .debug$S                   0000000180000000     kernel32:KERNEL32.dll
 0000:fffba000       .debug$S                   0000000180000000     kernel32:KERNEL32.dll
 0000:fffba000       .debug$S                   0000000180000000     kernel32:KERNEL32.dll
 0000:fffba000       .debug$S                   0000000180000000     kernel32:KERNEL32.dll
 0000:fffba000       .debug$S                   0000000180000000     kernel32:KERNEL32.dll
 0000:fffba000       .debug$S                   0000000180000000     kernel32:KERNEL32.dll
 0000:fffba000       .debug$S                   0000000180000000     kernel32:KERNEL32.dll
 0000:fffba000       .debug$S                   0000000180000000     kernel32:KERNEL32.dll
 0000:fffba000       .debug$S                   0000000180000000     kernel32:KERNEL32.dll
 0000:fffba000       .debug$S                   0000000180000000     kernel32:KERNEL32.dll
 0000:fffba000       .debug$S                   0000000180000000     kernel32:KERNEL32.dll
 0000:fffba000       .debug$S                   0000000180000000     kernel32:KERNEL32.dll
 0000:fffba000       .debug$S                   0000000180000000     kernel32:KERNEL32.dll
 0000:fffba000       .debug$S                   0000000180000000     kernel32:KERNEL32.dll
 0000:fffba000       .debug$S                   0000000180000000     kernel32:KERNEL32.dll
 0000:fffba000       .debug$S                   0000000180000000     kernel32:KERNEL32.dll
 0000:fffba000       .debug$S                   0000000180000000     kernel32:KERNEL32.dll
 0000:fffba000       .debug$S                   0000000180000000     kernel32:KERNEL32.dll
 0000:fffba000       .debug$S                   0000000180000000     kernel32:KERNEL32.dll
 0000:fffba000       .debug$S                   0000000180000000     kernel32:KERNEL32.dll
 0000:fffba000       .debug$S                   0000000180000000     kernel32:KERNEL32.dll
 0000:fffba000       .debug$S                   0000000180000000     kernel32:KERNEL32.dll
 0000:fffba000       .debug$S                   0000000180000000     kernel32:KERNEL32.dll
 0000:fffba000       .debug$S                   0000000180000000     kernel32:KERNEL32.dll
 0000:fffba000       .debug$S                   0000000180000000     kernel32:KERNEL32.dll
 0000:fffba000       .debug$S                   0000000180000000     kernel32:KERNEL32.dll
 0000:fffba000       .debug$S                   0000000180000000     kernel32:KERNEL32.dll
 0000:fffba000       .debug$S                   0000000180000000     kernel32:KERNEL32.dll
 0000:fffba000       .debug$S                   0000000180000000     kernel32:KERNEL32.dll
 0000:fffba000       .debug$S                   0000000180000000     kernel32:KERNEL32.dll
 0000:fffba000       .debug$S                   0000000180000000     kernel32:KERNEL32.dll
 0000:fffba000       .debug$S                   0000000180000000     kernel32:KERNEL32.dll
 0000:fffba000       .debug$S                   0000000180000000     kernel32:KERNEL32.dll
 0000:fffba000       .debug$S                   0000000180000000     kernel32:KERNEL32.dll
 0000:fffba000       .debug$S                   0000000180000000     kernel32:KERNEL32.dll
 0000:fffba000       .debug$S                   0000000180000000     kernel32:KERNEL32.dll
 0000:fffba000       .debug$S                   0000000180000000     kernel32:KERNEL32.dll
 0000:fffba000       .debug$S                   0000000180000000     kernel32:KERNEL32.dll
 0000:fffba000       .debug$S                   0000000180000000     kernel32:KERNEL32.dll
 0000:fffba000       .debug$S                   0000000180000000     kernel32:KERNEL32.dll
 0000:fffba000       .debug$S                   0000000180000000     kernel32:KERNEL32.dll
 0000:fffba000       .debug$S                   0000000180000000     kernel32:KERNEL32.dll
 0000:fffba000       .debug$S                   0000000180000000     kernel32:KERNEL32.dll
 0000:fffba000       .debug$S                   0000000180000000     kernel32:KERNEL32.dll
 0000:fffba000       .debug$S                   0000000180000000     kernel32:KERNEL32.dll
 0000:fffba000       .debug$S                   0000000180000000     kernel32:KERNEL32.dll
 0000:fffba000       .debug$S                   0000000180000000     kernel32:KERNEL32.dll
 0000:fffba000       .debug$S                   0000000180000000     kernel32:KERNEL32.dll
 0000:fffba000       .debug$S                   0000000180000000     kernel32:KERNEL32.dll
 0000:fffba000       .debug$S                   0000000180000000     kernel32:KERNEL32.dll
 0000:fffba000       .debug$S                   0000000180000000     kernel32:KERNEL32.dll
 0000:fffba000       .debug$S                   0000000180000000     kernel32:KERNEL32.dll
 0000:fffba000       .debug$S                   0000000180000000     kernel32:KERNEL32.dll
 0000:fffba000       .debug$S                   0000000180000000     kernel32:KERNEL32.dll
 0000:fffba000       .debug$S                   0000000180000000     kernel32:KERNEL32.dll
 0000:fffba000       .debug$S                   0000000180000000     kernel32:KERNEL32.dll
 0000:fffba000       .debug$S                   0000000180000000     kernel32:KERNEL32.dll
 0000:fffba000       .debug$S                   0000000180000000     kernel32:KERNEL32.dll
 0000:fffba000       .debug$S                   0000000180000000     kernel32:KERNEL32.dll
 0000:fffba000       .debug$S                   0000000180000000     kernel32:KERNEL32.dll
 0000:fffba000       .debug$S                   0000000180000000     kernel32:KERNEL32.dll
 0000:fffba000       .debug$S                   0000000180000000     kernel32:KERNEL32.dll
 0000:fffba000       .debug$S                   0000000180000000     kernel32:KERNEL32.dll
 0000:fffba000       .debug$S                   0000000180000000     kernel32:KERNEL32.dll
 0000:fffba000       .debug$S                   0000000180000000     kernel32:KERNEL32.dll
 0000:fffba000       .debug$S                   0000000180000000     kernel32:KERNEL32.dll
 0000:fffba000       .debug$S                   0000000180000000     kernel32:KERNEL32.dll
 0000:fffba000       .debug$S                   0000000180000000     kernel32:KERNEL32.dll
 0000:fffba000       .debug$S                   0000000180000000     kernel32:KERNEL32.dll
 0000:fffba000       .debug$S                   0000000180000000     kernel32:KERNEL32.dll
 0000:fffba000       .debug$S                   0000000180000000     ole32:ole32.dll
 0000:fffba000       .debug$S                   0000000180000000     ole32:ole32.dll
 0000:fffba000       .debug$S                   0000000180000000     ole32:ole32.dll
 0000:fffba000       .debug$S                   0000000180000000     ole32:ole32.dll
 0000:fffba000       .debug$S                   0000000180000000     ole32:ole32.dll
 0000:fffba000       .debug$S                   0000000180000000     ole32:ole32.dll
 0000:fffba000       .debug$S                   0000000180000000     ole32:ole32.dll
 0000:fffba000       .debug$S                   0000000180000000     ole32:ole32.dll
 0000:fffba000       .debug$S                   0000000180000000     ole32:ole32.dll
 0000:fffba000       .debug$S                   0000000180000000     ole32:ole32.dll
 0000:fffba000       .debug$S                   0000000180000000     ole32:ole32.dll
 0000:fffba000       .debug$S                   0000000180000000     ole32:ole32.dll
 0000:fffba000       .debug$S                   0000000180000000     ole32:ole32.dll
 0000:fffba000       .debug$S                   0000000180000000     ole32:ole32.dll
 0000:fffba000       .debug$S                   0000000180000000     oleaut32:OLEAUT32.dll
 0000:fffba000       .debug$S                   0000000180000000     oleaut32:OLEAUT32.dll
 0000:fffba000       .debug$S                   0000000180000000     oleaut32:OLEAUT32.dll
 0000:fffba000       .debug$S                   0000000180000000     oleaut32:OLEAUT32.dll
 0000:fffba000       .debug$S                   0000000180000000     oleaut32:OLEAUT32.dll
 0000:fffba000       .debug$S                   0000000180000000     oleaut32:OLEAUT32.dll
 0000:fffba000       .debug$S                   0000000180000000     oleaut32:OLEAUT32.dll
 0000:fffba000       .debug$S                   0000000180000000     oleaut32:OLEAUT32.dll
 0000:fffba000       .debug$S                   0000000180000000     oleaut32:OLEAUT32.dll
 0000:fffba000       .debug$S                   0000000180000000     oleaut32:OLEAUT32.dll
 0000:fffba000       .debug$S                   0000000180000000     oleaut32:OLEAUT32.dll
 0000:fffba000       .debug$S                   0000000180000000     oleaut32:OLEAUT32.dll
 0000:fffba000       .debug$S                   0000000180000000     oleaut32:OLEAUT32.dll
 0000:fffba000       .debug$S                   0000000180000000     oleaut32:OLEAUT32.dll
 0000:fffba000       .debug$S                   0000000180000000     oleaut32:OLEAUT32.dll
 0000:fffba000       .debug$S                   0000000180000000     oleaut32:OLEAUT32.dll
 0000:fffba000       .debug$S                   0000000180000000     user32:USER32.dll
 0000:fffba000       .debug$S                   0000000180000000     user32:USER32.dll
 0000:fffba000       .debug$S                   0000000180000000     user32:USER32.dll
 0000:fffba000       .debug$S                   0000000180000000     user32:USER32.dll
 0000:fffba000       .debug$S                   0000000180000000     user32:USER32.dll
 0000:fffba000       .debug$S                   0000000180000000     user32:USER32.dll
 0000:fffba000       .debug$S                   0000000180000000     user32:USER32.dll
 0000:fffba000       .debug$S                   0000000180000000     user32:USER32.dll
 0000:fffba000       .debug$S                   0000000180000000     user32:USER32.dll
 0000:fffba000       .debug$S                   0000000180000000     user32:USER32.dll
 0000:fffba000       .debug$S                   0000000180000000     user32:USER32.dll
 0000:fffba000       .debug$S                   0000000180000000     user32:USER32.dll
 0000:fffba000       .debug$S                   0000000180000000     user32:USER32.dll
 0000:fffba000       .debug$S                   0000000180000000     user32:USER32.dll
 0000:fffba000       .debug$S                   0000000180000000     user32:USER32.dll
 0000:fffba000       .debug$S                   0000000180000000     user32:USER32.dll
 0000:fffba000       .debug$S                   0000000180000000     user32:USER32.dll
 0000:fffba000       .debug$S                   0000000180000000     user32:USER32.dll
 0000:fffba000       .debug$S                   0000000180000000     user32:USER32.dll
 0000:fffba000       .debug$S                   0000000180000000     user32:USER32.dll
 0000:fffba000       .debug$S                   0000000180000000     user32:USER32.dll
 0000:fffba000       .debug$S                   0000000180000000     user32:USER32.dll
 0000:fffba000       .debug$S                   0000000180000000     user32:USER32.dll
 0000:fffba000       .debug$S                   0000000180000000     user32:USER32.dll
 0000:fffba000       .debug$S                   0000000180000000     user32:USER32.dll
 0000:fffba000       .debug$S                   0000000180000000     user32:USER32.dll
 0000:fffba000       .debug$S                   0000000180000000     user32:USER32.dll
 0000:fffba000       .debug$S                   0000000180000000     user32:USER32.dll
 0000:fffba000       .debug$S                   0000000180000000     user32:USER32.dll
 0000:fffba000       .debug$S                   0000000180000000     user32:USER32.dll
 0000:fffba000       .debug$S                   0000000180000000     user32:USER32.dll
 0000:fffba000       .debug$S                   0000000180000000     user32:USER32.dll
 0000:fffba000       .debug$S                   0000000180000000     user32:USER32.dll
 0000:fffba000       .debug$S                   0000000180000000     user32:USER32.dll
 0000:fffba000       .debug$S                   0000000180000000     user32:USER32.dll
 0001:00000000       ??__E_AtlComModule@ATL@@YAXXZ 0000000180001000 f   OposVariant.obj
 0001:00000020       ??__E_AtlWinModule@ATL@@YAXXZ 0000000180001020 f   OposVariant.obj
 0001:00000040       ??__E?pConnMap@?$IConnectionPointContainerImpl@VCOPOSElectronicValueRW@@@ATL@@0PEBU_ATL_CONNMAP_ENTRY@2@EB@@YAXXZ 0000000180001040 f   ElectronicValueRW.obj
 0001:00000058       ??__E_Module@@YAXXZ        0000000180001058 f   ElectronicValueRW.obj
 0001:00000094       ??__E_AtlBaseModule@ATL@@YAXXZ 0000000180001094 f   atls:atlbase.obj
 0001:00011314       ?__scrt_initialize_thread_safe_statics@@YAHXZ 0000000180012314 f   LIBCMT:thread_safe_statics.obj
 0001:000113e4       ?__scrt_uninitialize_thread_safe_statics@@YAXXZ 00000001800123e4 f   LIBCMT:thread_safe_statics.obj
 0001:00011734       capture_current_context    0000000180012734 f   LIBCMT:gs_report.obj
 0001:000117a4       capture_previous_context   00000001800127a4 f   LIBCMT:gs_report.obj
 0001:00011940       $$000000                   0000000180012940     LIBCMT:chkstk.obj
 0001:000119b0       $$000000                   00000001800129b0     LIBCMT:amdsecgs.obj
 0001:000119e4       ?dllmain_crt_dispatch@@YAHQEAUHINSTANCE__@@KQEAX@Z 00000001800129e4 f   LIBCMT:dll_dllmain.obj
 0001:00011a34       ?dllmain_crt_process_attach@@YAHQEAUHINSTANCE__@@QEAX@Z 0000000180012a34 f   LIBCMT:dll_dllmain.obj
 0001:00011b4c       ?dllmain_crt_process_detach@@YAH_N@Z 0000000180012b4c f   LIBCMT:dll_dllmain.obj
 0001:00011bd0       ?dllmain_dispatch@@YAHQEAUHINSTANCE__@@KQEAX@Z 0000000180012bd0 f   LIBCMT:dll_dllmain.obj
 0001:00012498       ??$GetProcAddressAll@P6AP6A_JPEAUHWND__@@I_K_J@ZPEAUAtlThunkData_t@@@Z@@YAP6AP6A_JPEAUHWND__@@I_K_J@ZPEAUAtlThunkData_t@@@ZPEAP6AP6A_J0I12@Z3@Z@Z 0000000180013498 f   atls:atlthunk.obj
 0001:00012498       ??$GetProcAddressAll@P6APEAUAtlThunkData_t@@XZ@@YAP6APEAUAtlThunkData_t@@XZPEAP6APEAU0@XZ@Z 0000000180013498 f   atls:atlthunk.obj
 0001:00012498       ??$GetProcAddressAll@P6AXPEAUAtlThunkData_t@@@Z@@YAP6AXPEAUAtlThunkData_t@@@ZPEAP6AX0@Z@Z 0000000180013498 f   atls:atlthunk.obj
 0001:00012498       ??$GetProcAddressAll@P6AXPEAUAtlThunkData_t@@PEAX_K@Z@@YAP6AXPEAUAtlThunkData_t@@PEAX_K@ZPEAP6AX012@Z@Z 0000000180013498 f   atls:atlthunk.obj
 0001:00012670       ?__InitializeThunkPool@@YAHXZ 0000000180013670 f   atls:atlthunk.obj
 0001:00012b10       $$000000                   0000000180013b10     libvcruntime:memcmp.obj
 0001:00012bf0       $$000000                   0000000180013bf0     libvcruntime:memcpy.obj
 0001:00013000       $$000000                   0000000180014000     libvcruntime:memset.obj
 0001:00014110       $$000000                   0000000180015110     libvcruntime:notify.obj
 0001:0001427c       ??$BuildCatchObjectHelperInternal@V__FrameHandler4@@@@YAHPEAUEHExceptionRecord@@PEAXPEAUHandlerType4@FH4@@PEBU_s_CatchableType@@@Z 000000018001527c f   libvcruntime:frame.obj
 0001:00014480       ??$BuildCatchObjectInternal@V__FrameHandler4@@@@YAXPEAUEHExceptionRecord@@PEAXPEAUHandlerType4@FH4@@PEBU_s_CatchableType@@@Z 0000000180015480 f   libvcruntime:frame.obj
 0001:00014544       ??$CatchIt@V__FrameHandler4@@@@YAXPEAUEHExceptionRecord@@PEA_KPEAU_CONTEXT@@PEAU_xDISPATCHER_CONTEXT@@PEAUFuncInfo4@FH4@@PEAUHandlerType4@4@PEBU_s_CatchableType@@PEAUTryBlockMapEntry4@4@H1EE@Z 0000000180015544 f   libvcruntime:frame.obj
 0001:00014618       ??$FindHandler@V__FrameHandler4@@@@YAXPEAUEHExceptionRecord@@PEA_KPEAU_CONTEXT@@PEAU_xDISPATCHER_CONTEXT@@PEAUFuncInfo4@FH4@@EH1@Z 0000000180015618 f   libvcruntime:frame.obj
 0001:00014b28       ??$FindHandlerForForeignException@V__FrameHandler4@@@@YAXPEAUEHExceptionRecord@@PEA_KPEAU_CONTEXT@@PEAU_xDISPATCHER_CONTEXT@@PEAUFuncInfo4@FH4@@HH1@Z 0000000180015b28 f   libvcruntime:frame.obj
 0001:000158b8       ?ExFilterRethrow@@YAHPEAU_EXCEPTION_POINTERS@@PEAUEHExceptionRecord@@PEAH@Z 00000001800168b8 f   libvcruntime:frame.obj
 0001:00015940       ?ExFilterRethrowFH4@@YAHPEAU_EXCEPTION_POINTERS@@PEAUEHExceptionRecord@@HPEAH@Z 0000000180016940 f   libvcruntime:frame.obj
 0001:00015c58       ?IsInExceptionSpec@@YAEPEAUEHExceptionRecord@@PEBU_s_ESTypeList@@@Z 0000000180016c58 f   libvcruntime:frame.obj
 0001:00015d48       ?Is_bad_exception_allowed@@YAEPEBU_s_ESTypeList@@@Z 0000000180016d48 f   libvcruntime:frame.obj
 0001:00016024       ?try_get_function@@YAPEAXW4function_id@?A0x84e3c32f@@QEBDQEBW4module_id@2@2@Z 0000000180017024 f   libvcruntime:winapi_downlevel.obj
 0001:00016300       $$000000                   0000000180017300     libvcruntime:handlers.obj
 0001:00016b18       ??$common_vsprintf@Vformat_validation_base@__crt_stdio_output@@_W@@YAH_KQEA_W0QEB_WQEAU__crt_locale_pointers@@QEAD@Z 0000000180017b18 f   libucrt:output.obj
 0001:000179b8       $LN17                      00000001800189b8     libucrt:output.obj
 0001:0001835c       ??$?RV<lambda_d80eeec6fff315bfe5c115232f3240e3>@@AEAV<lambda_6e4b09c48022b2350581041d5f6b0c4c>@@V<lambda_2358e3775559c9db80273638284d5e45>@@@?$__crt_seh_guarded_call@X@@QEAAX$$QEAV<lambda_d80eeec6fff315bfe5c115232f3240e3>@@AEAV<lambda_6e4b09c48022b2350581041d5f6b0c4c>@@$$QEAV<lambda_2358e3775559c9db80273638284d5e45>@@@Z 000000018001935c f   libucrt:exit.obj
 0001:00018394       ??R<lambda_6e4b09c48022b2350581041d5f6b0c4c>@@QEBA@XZ 0000000180019394 f   libucrt:exit.obj
 0001:00018458       ?atexit_exception_filter@@YAHK@Z 0000000180019458 f   libucrt:exit.obj
 0001:00018464       ?common_exit@@YAXHW4_crt_exit_cleanup_mode@@W4_crt_exit_return_mode@@@Z 0000000180019464 f   libucrt:exit.obj
 0001:00018520       ?exit_or_terminate_process@@YAXI@Z 0000000180019520 f   libucrt:exit.obj
 0001:0001856c       ?try_cor_exit_process@@YAXI@Z 000000018001956c f   libucrt:exit.obj
 0001:000185f4       ??$parse_command_line@D@@YAXPEADPEAPEAD0PEA_K2@Z 00000001800195f4 f   libucrt:argv_parsing.obj
 0001:0001899c       ??$common_initialize_environment_nolock@D@@YAHXZ 000000018001999c f   libucrt:environment_initialization.obj
 0001:00018a08       ??$create_environment@D@@YAQEAPEADQEAD@Z 0000000180019a08 f   libucrt:environment_initialization.obj
 0001:00018b10       ??$free_environment@D@@YAXQEAPEAD@Z 0000000180019b10 f   libucrt:environment_initialization.obj
 0001:00018b10       ??$free_environment@_W@@YAXQEAPEA_W@Z 0000000180019b10 f   libucrt:environment_initialization.obj
 0001:00018b54       ??$uninitialize_environment_internal@D@@YAXAEAPEAPEAD@Z 0000000180019b54 f   libucrt:environment_initialization.obj
 0001:00018b70       ??$uninitialize_environment_internal@_W@@YAXAEAPEAPEA_W@Z 0000000180019b70 f   libucrt:environment_initialization.obj
 0001:00018bcc       ??$?RV<lambda_638799b9deba96c50f710eeac98168cd>@@AEAV<lambda_22ebabd17bc4fa466a2aca6d8deb888d>@@V<lambda_a6f7d7db0129f75315ebf26d50c089f1>@@@?$__crt_seh_guarded_call@H@@QEAAH$$QEAV<lambda_638799b9deba96c50f710eeac98168cd>@@AEAV<lambda_22ebabd17bc4fa466a2aca6d8deb888d>@@$$QEAV<lambda_a6f7d7db0129f75315ebf26d50c089f1>@@@Z 0000000180019bcc f   libucrt:onexit.obj
 0001:00018c08       ??$?RV<lambda_7777bce6b2f8c936911f934f8298dc43>@@AEAV<lambda_f03950bc5685219e0bcd2087efbe011e>@@V<lambda_3883c3dff614d5e0c5f61bb1ac94921c>@@@?$__crt_seh_guarded_call@H@@QEAAH$$QEAV<lambda_7777bce6b2f8c936911f934f8298dc43>@@AEAV<lambda_f03950bc5685219e0bcd2087efbe011e>@@$$QEAV<lambda_3883c3dff614d5e0c5f61bb1ac94921c>@@@Z 0000000180019c08 f   libucrt:onexit.obj
 0001:00018c44       ??R<lambda_22ebabd17bc4fa466a2aca6d8deb888d>@@QEBAHXZ 0000000180019c44 f   libucrt:onexit.obj
 0001:00018df4       ??R<lambda_f03950bc5685219e0bcd2087efbe011e>@@QEBAHXZ 0000000180019df4 f   libucrt:onexit.obj
 0001:00018fc8       initialize_global_variables 0000000180019fc8 f   libucrt:initialization.obj
 0001:00018fdc       initialize_c               0000000180019fdc f   libucrt:initialization.obj
 0001:00019000       initialize_environment     000000018001a000 f   libucrt:initialization.obj
 0001:00019000       initialize_global_state_isolation 000000018001a000 f   libucrt:initialization.obj
 0001:00019000       report_memory_leaks        000000018001a000 f   libucrt:initialization.obj
 0001:00019000       uninitialize_c             000000018001a000 f   libucrt:initialization.obj
 0001:00019000       uninitialize_global_state_isolation 000000018001a000 f   libucrt:initialization.obj
 0001:00019004       uninitialize_environment   000000018001a004 f   libucrt:initialization.obj
 0001:00019014       initialize_pointers        000000018001a014 f   libucrt:initialization.obj
 0001:00019054       uninitialize_vcruntime     000000018001a054 f   libucrt:initialization.obj
 0001:0001905c       uninitialize_allocated_memory 000000018001a05c f   libucrt:initialization.obj
 0001:0001909c       uninitialize_allocated_io_buffers 000000018001a09c f   libucrt:initialization.obj
 0001:00019a10       $$000000                   000000018001aa10     libucrt:strncmp.obj
 0001:00019b0c       ??$?RV<lambda_0ae27a3a962d80f24befdcbee591983d>@@AEAV<lambda_8d0ee55de4b1038c4002e0adecdf1839>@@V<lambda_dc504788e8f1664fe9b84e20bfb512f2>@@@?$__crt_seh_guarded_call@X@@QEAAX$$QEAV<lambda_0ae27a3a962d80f24befdcbee591983d>@@AEAV<lambda_8d0ee55de4b1038c4002e0adecdf1839>@@$$QEAV<lambda_dc504788e8f1664fe9b84e20bfb512f2>@@@Z 000000018001ab0c f   libucrt:per_thread_data.obj
 0001:00019b4c       ??$?RV<lambda_2d41944a1d46af3157314b8a01080d33>@@AEAV<lambda_8f455de75cd7d7f24b4096f044d8b9e6>@@V<lambda_aa500f224e6afead328df44964fe2772>@@@?$__crt_seh_guarded_call@X@@QEAAX$$QEAV<lambda_2d41944a1d46af3157314b8a01080d33>@@AEAV<lambda_8f455de75cd7d7f24b4096f044d8b9e6>@@$$QEAV<lambda_aa500f224e6afead328df44964fe2772>@@@Z 000000018001ab4c f   libucrt:per_thread_data.obj
 0001:00019b8c       ??$?RV<lambda_aa87e3671a710a21b5dc78c0bdf72e11>@@AEAV<lambda_92619d2358a28f41a33ba319515a20b9>@@V<lambda_6992ecaafeb10aed2b74cb1fae11a551>@@@?$__crt_seh_guarded_call@X@@QEAAX$$QEAV<lambda_aa87e3671a710a21b5dc78c0bdf72e11>@@AEAV<lambda_92619d2358a28f41a33ba319515a20b9>@@$$QEAV<lambda_6992ecaafeb10aed2b74cb1fae11a551>@@@Z 000000018001ab8c f   libucrt:per_thread_data.obj
 0001:00019bd4       ??$?RV<lambda_f2e299630e499de9f9a165e60fcd3db5>@@AEAV<lambda_2ae9d31cdba2644fcbeaf08da7c24588>@@V<lambda_40d01ff24d0e7b3814fdbdcee8eab3c7>@@@?$__crt_seh_guarded_call@X@@QEAAX$$QEAV<lambda_f2e299630e499de9f9a165e60fcd3db5>@@AEAV<lambda_2ae9d31cdba2644fcbeaf08da7c24588>@@$$QEAV<lambda_40d01ff24d0e7b3814fdbdcee8eab3c7>@@@Z 000000018001abd4 f   libucrt:per_thread_data.obj
 0001:00019c34       ?construct_ptd_array@@YAXQEAU__acrt_ptd@@@Z 000000018001ac34 f   libucrt:per_thread_data.obj
 0001:00019d04       ?destroy_fls@@YAXPEAX@Z    000000018001ad04 f   libucrt:per_thread_data.obj
 0001:00019d24       ?destroy_ptd_array@@YAXQEAU__acrt_ptd@@@Z 000000018001ad24 f   libucrt:per_thread_data.obj
 0001:00019e1c       ?replace_current_thread_locale_nolock@@YAXQEAU__acrt_ptd@@QEAU__crt_locale_data@@@Z 000000018001ae1c f   libucrt:per_thread_data.obj
 0001:0001a300       ?try_get_function@@YAPEAXW4function_id@?A0x391cf84c@@QEBDQEBW4module_id@2@2@Z 000000018001b300 f   libucrt:winapi_thunks.obj
 0001:0001acd0       ?fp_format_a@@YAHQEBNPEAD_KQEAD2H_NIQEAU__crt_locale_pointers@@W4__acrt_rounding_mode@@@Z 000000018001bcd0 f   libucrt:cvt.obj
 0001:0001b050       ?fp_format_e@@YAHQEBNQEAD_K12H_NIQEAU__crt_locale_pointers@@W4__acrt_rounding_mode@@@Z 000000018001c050 f   libucrt:cvt.obj
 0001:0001b140       ?fp_format_e_internal@@YAHQEAD_KH_NIQEAU_strflt@@2QEAU__crt_locale_pointers@@@Z 000000018001c140 f   libucrt:cvt.obj
 0001:0001b314       ?fp_format_f_internal@@YAHQEAD_KHQEAU_strflt@@_NQEAU__crt_locale_pointers@@@Z 000000018001c314 f   libucrt:cvt.obj
 0001:0001b47c       ?fp_format_g@@YAHQEBNQEAD_K12H_NIQEAU__crt_locale_pointers@@@Z 000000018001c47c f   libucrt:cvt.obj
 0001:0001b5bc       ?should_round_up@@YA_NQEBN_KFW4__acrt_rounding_mode@@@Z 000000018001c5bc f   libucrt:cvt.obj
 0001:0001bbe0       ??$?RV<lambda_410d79af7f07d98d83a3f525b3859a53>@@AEAV<lambda_3e16ef9562a7dcce91392c22ab16ea36>@@V<lambda_38119f0e861e05405d8a144b9b982f0a>@@@?$__crt_seh_guarded_call@X@@QEAAX$$QEAV<lambda_410d79af7f07d98d83a3f525b3859a53>@@AEAV<lambda_3e16ef9562a7dcce91392c22ab16ea36>@@$$QEAV<lambda_38119f0e861e05405d8a144b9b982f0a>@@@Z 000000018001cbe0 f   libucrt:wsetlocale.obj
 0001:0001bc8c       ?initialize_inherited_file_handles_nolock@@YAXXZ 000000018001cc8c f   libucrt:ioinit.obj
 0001:0001bd7c       ?initialize_stdio_handles_nolock@@YAXXZ 000000018001cd7c f   libucrt:ioinit.obj
 0001:0001bff8       ?<lambda_invoker_cdecl>@<lambda_a1ce4c8ae42411fd470c77163914f50e>@@CAHPEBX0@Z 000000018001cff8 f   libucrt:argv_wildcards.obj
 0001:0001c310       ??$common_expand_argv_wildcards@D@@YAHQEAPEADQEAPEAPEAD@Z 000000018001d310 f   libucrt:argv_wildcards.obj
 0001:0001c51c       ??$copy_and_add_argument_to_buffer@D@@YAHQEBD0_KAEAV?$argument_list@D@?A0x5f5c8891@@@Z 000000018001d51c f   libucrt:argv_wildcards.obj
 0001:0001c6a4       ??$expand_argument_wildcards@D@@YAHQEAD0AEAV?$argument_list@D@?A0x5f5c8891@@@Z 000000018001d6a4 f   libucrt:argv_wildcards.obj
 0001:0001cbf0       ??$?RV<lambda_efdfa57d1f175319df784efa44bb7b81>@@AEAV<lambda_5f0a4c1567f8adc6734073e5d1e1b35c>@@V<lambda_2e8a7d3640ea6ccb4c2413664c2db6fd>@@@?$__crt_seh_guarded_call@X@@QEAAX$$QEAV<lambda_efdfa57d1f175319df784efa44bb7b81>@@AEAV<lambda_5f0a4c1567f8adc6734073e5d1e1b35c>@@$$QEAV<lambda_2e8a7d3640ea6ccb4c2413664c2db6fd>@@@Z 000000018001dbf0 f   libucrt:mbctype.obj
 0001:0001cdac       ?getSystemCP@@YAHH@Z       000000018001ddac f   libucrt:mbctype.obj
 0001:0001ce2c       ?setSBCS@@YAXPEAU__crt_multibyte_data@@@Z 000000018001de2c f   libucrt:mbctype.obj
 0001:0001cebc       ?setSBUpLow@@YAXPEAU__crt_multibyte_data@@@Z 000000018001debc f   libucrt:mbctype.obj
 0001:0001d0a0       ?setmbcp_internal@@YAHH_NQEAU__acrt_ptd@@QEAPEAU__crt_multibyte_data@@@Z 000000018001e0a0 f   libucrt:mbctype.obj
 0001:0001d260       ?update_thread_multibyte_data_internal@@YAPEAU__crt_multibyte_data@@QEAU__acrt_ptd@@QEAPEAU1@@Z 000000018001e260 f   libucrt:mbctype.obj
 0001:0001d650       ?x_ismbbtype_l@@YAHPEAU__crt_locale_pointers@@IHH@Z 000000018001e650 f   libucrt:ismbbyte.obj
 0001:0001d9f8       ??$?RV<lambda_450d765d439847d4c735a33c368b5fc0>@@AEAV<lambda_44731a7d0e6d81c3e6aa82d741081786>@@V<lambda_601a2a7da3b7a96e9554ac7215c4b07c>@@@?$__crt_seh_guarded_call@P6AXH@Z@@QEAAP6AXH@Z$$QEAV<lambda_450d765d439847d4c735a33c368b5fc0>@@AEAV<lambda_44731a7d0e6d81c3e6aa82d741081786>@@$$QEAV<lambda_601a2a7da3b7a96e9554ac7215c4b07c>@@@Z 000000018001e9f8 f   libucrt:signal.obj
 0001:0001dd54       ??$?RV<lambda_842d9ff0dc9ef11c61343bbaebe7f885>@@AEAV<lambda_c5860995281e5c4ce005b3de8f5874ee>@@V<lambda_d90129c13df834fdcbf8d2b88dafcf2d>@@@?$__crt_seh_guarded_call@X@@QEAAX$$QEAV<lambda_842d9ff0dc9ef11c61343bbaebe7f885>@@AEAV<lambda_c5860995281e5c4ce005b3de8f5874ee>@@$$QEAV<lambda_d90129c13df834fdcbf8d2b88dafcf2d>@@@Z 000000018001ed54 f   libucrt:fflush.obj
 0001:0001ddf0       ??$?RV<lambda_886d6c58226a84441f68b9f2b8217b83>@@AEAV<lambda_ab61a845afdef5b7c387490eaf3616ee>@@V<lambda_f7f22ab5edc0698d5f6905b0d3f44752>@@@?$__crt_seh_guarded_call@X@@QEAAX$$QEAV<lambda_886d6c58226a84441f68b9f2b8217b83>@@AEAV<lambda_ab61a845afdef5b7c387490eaf3616ee>@@$$QEAV<lambda_f7f22ab5edc0698d5f6905b0d3f44752>@@@Z 000000018001edf0 f   libucrt:fflush.obj
 0001:0001ded0       ?common_flush_all@@YAH_N@Z 000000018001eed0 f   libucrt:fflush.obj
 0001:0001ff20       memcpy_s                   0000000180020f20 f   libucrt:cfout.obj
 0001:00020288       ?free_crt_array_internal@@YAXQEAPEBX_K@Z 0000000180021288 f   libucrt:inittime.obj
 0001:00020d14       fallbackMethod             0000000180021d14 f   libucrt:strpbrk.obj
 0001:000210cc       $LN78                      00000001800220cc     libucrt:strpbrk.obj
 0001:00021108       $LN77                      0000000180022108     libucrt:strpbrk.obj
 0001:00021148       $LN76                      0000000180022148     libucrt:strpbrk.obj
 0001:00021224       ?__acrt_LCMapStringA_stat@@YAHPEAU__crt_locale_pointers@@PEB_WKPEBDHPEADHHH@Z 0000000180022224 f   libucrt:lcmapstringa.obj
 0001:000215d4       ?initialize_multibyte@@YAHXZ 00000001800225d4 f   libucrt:multibyte_initializer.obj
 0001:000215ec       ??$?RV<lambda_a37b2b86f63e897a80ea819b0eb08c01>@@AEAV<lambda_38ce7e780aa69e748d6df282ebc68efe>@@V<lambda_99fb1378e971ab6e7edea83e3a7a83a2>@@@?$__crt_seh_guarded_call@H@@QEAAH$$QEAV<lambda_a37b2b86f63e897a80ea819b0eb08c01>@@AEAV<lambda_38ce7e780aa69e748d6df282ebc68efe>@@$$QEAV<lambda_99fb1378e971ab6e7edea83e3a7a83a2>@@@Z 00000001800225ec f   libucrt:commit.obj
 0001:0002170c       ?write_double_translated_ansi_nolock@@YA?AUwrite_result@?A0x17268360@@HQEBDI@Z 000000018002270c f   libucrt:write.obj
 0001:00021bf8       ?write_text_ansi_nolock@@YA?AUwrite_result@?A0x17268360@@HQEBDI@Z 0000000180022bf8 f   libucrt:write.obj
 0001:00021cfc       ?write_text_utf16le_nolock@@YA?AUwrite_result@?A0x17268360@@HQEBDI@Z 0000000180022cfc f   libucrt:write.obj
 0001:00021e18       ?write_text_utf8_nolock@@YA?AUwrite_result@?A0x17268360@@HQEBDI@Z 0000000180022e18 f   libucrt:write.obj
 0001:00022770       $$000000                   0000000180023770     libucrt:log10.obj
 0001:0002303c       ??$common_lseek_nolock@_J@@YA_JH_JH@Z 000000018002403c f   libucrt:lseek.obj
 0001:0002329c       common_control87           000000018002429c f   libucrt:ieee.obj
 0001:0002355c       _call_matherr              000000018002455c f   libucrt:libm_error.obj
 0001:000235c4       _exception_enabled         00000001800245c4 f   libucrt:libm_error.obj
 0001:00023860       _log_special_common        0000000180024860 f   libucrt:log_special.obj
 0001:000238f8       ??$?RV<lambda_751a882b2c74d4b022dec766aa51a29a>@@AEAV<lambda_628dfdc04ba53c8bfc02c9951375f3f5>@@V<lambda_f6c7be5f7998530c34de24c7437d6b54>@@@?$__crt_seh_guarded_call@H@@QEAAH$$QEAV<lambda_751a882b2c74d4b022dec766aa51a29a>@@AEAV<lambda_628dfdc04ba53c8bfc02c9951375f3f5>@@$$QEAV<lambda_f6c7be5f7998530c34de24c7437d6b54>@@@Z 00000001800248f8 f   libucrt:close.obj
 0001:00023c20       $$000000                   0000000180024c20     libucrt:fpsr.obj
 0001:000242c0       $$000000                   00000001800252c0     LIBCMT:guard_dispatch.obj
 0001:000242e0       $$000000                   00000001800252e0     LIBCMT:guard_xfg_dispatch.obj
 0001:00024300       ?filt$0@?0??_AtlVerifyStackAvailable@_ATL_SAFE_ALLOCA_IMPL@ATL@@YA_N_K@Z@4HA 0000000180025300 f   ElectronicValueRW.obj
 0001:00024321       __scrt_is_nonwritable_in_current_image$filt$0 0000000180025321 f   LIBCMT:utility.obj
 0001:00024339       ?catch$0@?0???2@YAPEAX_KAEBUnothrow_t@std@@@Z@4HA 0000000180025339 f   LIBCMT:new_scalar_nothrow.obj
 0001:00024346       __catch$??2@YAPEAX_KAEBUnothrow_t@std@@@Z$0 0000000180025346 f   LIBCMT:new_scalar_nothrow.obj
 0001:00024357       ?fin$0@?0??dllmain_crt_process_attach@@YAHQEAUHINSTANCE__@@QEAX@Z@4HA 0000000180025357 f   LIBCMT:dll_dllmain.obj
 0001:0002436e       ?fin$0@?0??dllmain_crt_process_detach@@YAH_N@Z@4HA 000000018002536e f   LIBCMT:dll_dllmain.obj
 0001:00024387       ?fin$1@?0??dllmain_crt_process_detach@@YAH_N@Z@4HA 0000000180025387 f   LIBCMT:dll_dllmain.obj
 0001:0002439b       ?filt$0@?0??dllmain_dispatch@@YAHQEAUHINSTANCE__@@KQEAX@Z@4HA 000000018002539b f   LIBCMT:dll_dllmain.obj
 0001:000243d1       ?filt$0@?0???$_CallSETranslator@V__FrameHandler4@@@@YAHPEAUEHExceptionRecord@@PEA_KPEAU_CONTEXT@@PEAU_xDISPATCHER_CONTEXT@@PEAUFuncInfo4@FH4@@K1H@Z@4HA 00000001800253d1 f   libvcruntime:risctrnsctrl.obj
 0001:00024470       __DestructExceptionObject$filt$0 0000000180025470 f   libvcruntime:ehhelpers.obj
 0001:00024506       ?filt$0@?0??CxxCallCatchBlock@__FrameHandler4@@SAPEAXPEAU_EXCEPTION_RECORD@@@Z@4HA 0000000180025506 f   libvcruntime:frame.obj
 0001:00024535       ?fin$1@?0??CxxCallCatchBlock@__FrameHandler4@@SAPEAXPEAU_EXCEPTION_RECORD@@@Z@4HA 0000000180025535 f   libvcruntime:frame.obj
 0001:000245b8       ?filt$0@?0??FrameUnwindToState@__FrameHandler4@@SAXPEA_KPEAU_xDISPATCHER_CONTEXT@@PEAUFuncInfo4@FH4@@H@Z@4HA 00000001800255b8 f   libvcruntime:frame.obj
 0001:000245ce       ?fin$1@?0??FrameUnwindToState@__FrameHandler4@@SAXPEA_KPEAU_xDISPATCHER_CONTEXT@@PEAUFuncInfo4@FH4@@H@Z@4HA 00000001800255ce f   libvcruntime:frame.obj
 0001:000245f1       ?fin$0@?0???$?RV<lambda_0ae27a3a962d80f24befdcbee591983d>@@AEAV<lambda_8d0ee55de4b1038c4002e0adecdf1839>@@V<lambda_dc504788e8f1664fe9b84e20bfb512f2>@@@?$__crt_seh_guarded_call@X@@QEAAX$$QEAV<lambda_0ae27a3a962d80f24befdcbee591983d>@@AEAV<lambda_8d0ee55de4b1038c4002e0adecdf1839>@@$$QEAV<lambda_dc504788e8f1664fe9b84e20bfb512f2>@@@Z@4HA 00000001800255f1 f   libucrt:per_thread_data.obj
 0001:000245f1       ?fin$0@?0???$?RV<lambda_2d41944a1d46af3157314b8a01080d33>@@AEAV<lambda_8f455de75cd7d7f24b4096f044d8b9e6>@@V<lambda_aa500f224e6afead328df44964fe2772>@@@?$__crt_seh_guarded_call@X@@QEAAX$$QEAV<lambda_2d41944a1d46af3157314b8a01080d33>@@AEAV<lambda_8f455de75cd7d7f24b4096f044d8b9e6>@@$$QEAV<lambda_aa500f224e6afead328df44964fe2772>@@@Z@4HA 00000001800255f1 f   libucrt:per_thread_data.obj
 0001:000245f1       ?fin$0@?0???$?RV<lambda_aa87e3671a710a21b5dc78c0bdf72e11>@@AEAV<lambda_92619d2358a28f41a33ba319515a20b9>@@V<lambda_6992ecaafeb10aed2b74cb1fae11a551>@@@?$__crt_seh_guarded_call@X@@QEAAX$$QEAV<lambda_aa87e3671a710a21b5dc78c0bdf72e11>@@AEAV<lambda_92619d2358a28f41a33ba319515a20b9>@@$$QEAV<lambda_6992ecaafeb10aed2b74cb1fae11a551>@@@Z@4HA 00000001800255f1 f   libucrt:per_thread_data.obj
 0001:000245f1       ?fin$0@?0???$?RV<lambda_f2e299630e499de9f9a165e60fcd3db5>@@AEAV<lambda_2ae9d31cdba2644fcbeaf08da7c24588>@@V<lambda_40d01ff24d0e7b3814fdbdcee8eab3c7>@@@?$__crt_seh_guarded_call@X@@QEAAX$$QEAV<lambda_f2e299630e499de9f9a165e60fcd3db5>@@AEAV<lambda_2ae9d31cdba2644fcbeaf08da7c24588>@@$$QEAV<lambda_40d01ff24d0e7b3814fdbdcee8eab3c7>@@@Z@4HA 00000001800255f1 f   libucrt:per_thread_data.obj
 0001:000245f1       ?fin$0@?0???$?RV<lambda_efdfa57d1f175319df784efa44bb7b81>@@AEAV<lambda_5f0a4c1567f8adc6734073e5d1e1b35c>@@V<lambda_2e8a7d3640ea6ccb4c2413664c2db6fd>@@@?$__crt_seh_guarded_call@X@@QEAAX$$QEAV<lambda_efdfa57d1f175319df784efa44bb7b81>@@AEAV<lambda_5f0a4c1567f8adc6734073e5d1e1b35c>@@$$QEAV<lambda_2e8a7d3640ea6ccb4c2413664c2db6fd>@@@Z@4HA 00000001800255f1 f   libucrt:mbctype.obj
 0001:000245f1       ?fin$0@?0???$?RV<lambda_450d765d439847d4c735a33c368b5fc0>@@AEAV<lambda_44731a7d0e6d81c3e6aa82d741081786>@@V<lambda_601a2a7da3b7a96e9554ac7215c4b07c>@@@?$__crt_seh_guarded_call@P6AXH@Z@@QEAAP6AXH@Z$$QEAV<lambda_450d765d439847d4c735a33c368b5fc0>@@AEAV<lambda_44731a7d0e6d81c3e6aa82d741081786>@@$$QEAV<lambda_601a2a7da3b7a96e9554ac7215c4b07c>@@@Z@4HA 00000001800255f1 f   libucrt:signal.obj
 0001:000245f1       ?fin$0@?0???$?RV<lambda_d80eeec6fff315bfe5c115232f3240e3>@@AEAV<lambda_6e4b09c48022b2350581041d5f6b0c4c>@@V<lambda_2358e3775559c9db80273638284d5e45>@@@?$__crt_seh_guarded_call@X@@QEAAX$$QEAV<lambda_d80eeec6fff315bfe5c115232f3240e3>@@AEAV<lambda_6e4b09c48022b2350581041d5f6b0c4c>@@$$QEAV<lambda_2358e3775559c9db80273638284d5e45>@@@Z@4HA 00000001800255f1 f   libucrt:exit.obj
 0001:000245f1       ?fin$0@?0???$?RV<lambda_638799b9deba96c50f710eeac98168cd>@@AEAV<lambda_22ebabd17bc4fa466a2aca6d8deb888d>@@V<lambda_a6f7d7db0129f75315ebf26d50c089f1>@@@?$__crt_seh_guarded_call@H@@QEAAH$$QEAV<lambda_638799b9deba96c50f710eeac98168cd>@@AEAV<lambda_22ebabd17bc4fa466a2aca6d8deb888d>@@$$QEAV<lambda_a6f7d7db0129f75315ebf26d50c089f1>@@@Z@4HA 00000001800255f1 f   libucrt:onexit.obj
 0001:000245f1       ?fin$0@?0???$?RV<lambda_7777bce6b2f8c936911f934f8298dc43>@@AEAV<lambda_f03950bc5685219e0bcd2087efbe011e>@@V<lambda_3883c3dff614d5e0c5f61bb1ac94921c>@@@?$__crt_seh_guarded_call@H@@QEAAH$$QEAV<lambda_7777bce6b2f8c936911f934f8298dc43>@@AEAV<lambda_f03950bc5685219e0bcd2087efbe011e>@@$$QEAV<lambda_3883c3dff614d5e0c5f61bb1ac94921c>@@@Z@4HA 00000001800255f1 f   libucrt:onexit.obj
 0001:0002460b       ?filt$0@?0???R<lambda_6e4b09c48022b2350581041d5f6b0c4c>@@QEBA@XZ@4HA 000000018002560b f   libucrt:exit.obj
 0001:00024626       _query_new_handler$fin$0   0000000180025626 f   libucrt:new_handler.obj
 0001:0002463c       ?fin$0@?0???$?RV<lambda_410d79af7f07d98d83a3f525b3859a53>@@AEAV<lambda_3e16ef9562a7dcce91392c22ab16ea36>@@V<lambda_38119f0e861e05405d8a144b9b982f0a>@@@?$__crt_seh_guarded_call@X@@QEAAX$$QEAV<lambda_410d79af7f07d98d83a3f525b3859a53>@@AEAV<lambda_3e16ef9562a7dcce91392c22ab16ea36>@@$$QEAV<lambda_38119f0e861e05405d8a144b9b982f0a>@@@Z@4HA 000000018002563c f   libucrt:wsetlocale.obj
 0001:00024656       __acrt_initialize_lowio$fin$0 0000000180025656 f   libucrt:ioinit.obj
 0001:00024656       __acrt_lowio_ensure_fh_exists$fin$0 0000000180025656 f   libucrt:osfinfo.obj
 0001:0002466f       ?fin$0@?0??update_thread_multibyte_data_internal@@YAPEAU__crt_multibyte_data@@QEAU__acrt_ptd@@QEAPEAU1@@Z@4HA 000000018002566f f   libucrt:mbctype.obj
 0001:00024688       raise$fin$0                0000000180025688 f   libucrt:signal.obj
 0001:000246a9       ?fin$0@?0???$?RV<lambda_842d9ff0dc9ef11c61343bbaebe7f885>@@AEAV<lambda_c5860995281e5c4ce005b3de8f5874ee>@@V<lambda_d90129c13df834fdcbf8d2b88dafcf2d>@@@?$__crt_seh_guarded_call@X@@QEAAX$$QEAV<lambda_842d9ff0dc9ef11c61343bbaebe7f885>@@AEAV<lambda_c5860995281e5c4ce005b3de8f5874ee>@@$$QEAV<lambda_d90129c13df834fdcbf8d2b88dafcf2d>@@@Z@4HA 00000001800256a9 f   libucrt:fflush.obj
 0001:000246c4       ?fin$0@?0???$?RV<lambda_886d6c58226a84441f68b9f2b8217b83>@@AEAV<lambda_ab61a845afdef5b7c387490eaf3616ee>@@V<lambda_f7f22ab5edc0698d5f6905b0d3f44752>@@@?$__crt_seh_guarded_call@X@@QEAAX$$QEAV<lambda_886d6c58226a84441f68b9f2b8217b83>@@AEAV<lambda_ab61a845afdef5b7c387490eaf3616ee>@@$$QEAV<lambda_f7f22ab5edc0698d5f6905b0d3f44752>@@@Z@4HA 00000001800256c4 f   libucrt:fflush.obj
 0001:000246e1       __acrt_update_thread_locale_data$fin$0 00000001800256e1 f   libucrt:locale_refcounting.obj
 0001:000246fa       _fcloseall$fin$0           00000001800256fa f   libucrt:closeall.obj
 0001:00024713       ?fin$0@?0???$?RV<lambda_751a882b2c74d4b022dec766aa51a29a>@@AEAV<lambda_628dfdc04ba53c8bfc02c9951375f3f5>@@V<lambda_f6c7be5f7998530c34de24c7437d6b54>@@@?$__crt_seh_guarded_call@H@@QEAAH$$QEAV<lambda_751a882b2c74d4b022dec766aa51a29a>@@AEAV<lambda_628dfdc04ba53c8bfc02c9951375f3f5>@@$$QEAV<lambda_f6c7be5f7998530c34de24c7437d6b54>@@@Z@4HA 0000000180025713 f   libucrt:close.obj
 0001:00024713       ?fin$0@?0???$?RV<lambda_a37b2b86f63e897a80ea819b0eb08c01>@@AEAV<lambda_38ce7e780aa69e748d6df282ebc68efe>@@V<lambda_99fb1378e971ab6e7edea83e3a7a83a2>@@@?$__crt_seh_guarded_call@H@@QEAAH$$QEAV<lambda_a37b2b86f63e897a80ea819b0eb08c01>@@AEAV<lambda_38ce7e780aa69e748d6df282ebc68efe>@@$$QEAV<lambda_99fb1378e971ab6e7edea83e3a7a83a2>@@@Z@4HA 0000000180025713 f   libucrt:commit.obj
 0001:0002472d       _write$fin$0               000000018002572d f   libucrt:write.obj
 0001:00024744       fclose$fin$0               0000000180025744 f   libucrt:fclose.obj
 0001:0002475c       _ctrlfp$filt$0             000000018002575c f   libucrt:fpctrl.obj
 0001:0002475c       common_control87$filt$0    000000018002575c f   libucrt:ieee.obj
 0001:00024790       _IsNonwritableInCurrentImage$filt$0 0000000180025790 f   LIBCMT:pesect.obj
 0001:000247b0       ??__F_AtlComModule@ATL@@YAXXZ 00000001800257b0 f   OposVariant.obj
 0001:000247bc       ??__F_AtlWinModule@ATL@@YAXXZ 00000001800257bc f   OposVariant.obj
 0001:00024800       ??__F_Module@@YAXXZ        0000000180025800 f   ElectronicValueRW.obj
 0001:0002481c       ??__F_AtlBaseModule@ATL@@YAXXZ 000000018002581c f   atls:atlbase.obj
 0002:00000648       ?_AtlBaseModule$initializer$@ATL@@3P6AXXZEA 0000000180026648     atls:atlbase.obj
 0002:00000650       ?_AtlComModule$initializer$@ATL@@3P6AXXZEA 0000000180026650     OposVariant.obj
 0002:00000658       ?_AtlWinModule$initializer$@ATL@@3P6AXXZEA 0000000180026658     OposVariant.obj
 0002:00000660       ?_Module$initializer$@@3P6AXXZEA 0000000180026660     ElectronicValueRW.obj
 0002:00000668       ??pConnMap$initializer$@?$IConnectionPointContainerImpl@VCOPOSElectronicValueRW@@@ATL@@0P6AXXZEA@@3P6AXXZEA 0000000180026668     ElectronicValueRW.obj
 0002:00000680       ?__scrt_initialize_tss_var@@3P6AHXZEA 0000000180026680     LIBCMT:thread_safe_statics.obj
 0002:00003278       GS_ExceptionPointers       0000000180029278     LIBCMT:gs_report.obj
 0002:00003460       ?ExceptionTemplate@?1??UnwindNestedFrames@__FrameHandler4@@SAXPEA_KPEAUEHExceptionRecord@@PEAU_CONTEXT@@0PEAXPEAUFuncInfo4@FH4@@HHPEAUHandlerType4@6@PEAU_xDISPATCHER_CONTEXT@@E@Z@4U_EXCEPTION_RECORD@@B 0000000180029460     libvcruntime:risctrnsctrl.obj
 0002:00003530       ?tokenTable@@3QBUStringLiteral@@B 0000000180029530     libvcruntime:undname.obj
 0002:00003630       ?nameTable@@3QBUStringLiteral@@B 0000000180029630     libvcruntime:undname.obj
 0002:00003b60       ?rttiTable@@3QBUStringLiteral@@B 0000000180029b60     libvcruntime:undname.obj
 0002:00003bb0       ?IndirectionName@@3QBUStringLiteral@@B 0000000180029bb0     libvcruntime:undname.obj
 0002:00003c10       ?PrefixName@@3QBUStringLiteral@@B 0000000180029c10     libvcruntime:undname.obj
 0002:000042e8       ?module_names@?A0x84e3c32f@@3QBQEB_WB 000000018002a2e8     libvcruntime:winapi_downlevel.obj
 0002:000043a8       ?candidate_modules@?1??try_get_FlsAlloc@@YAP6AKP6AXPEAX@Z@ZXZ@4QBW4module_id@?A0x84e3c32f@@B 000000018002a3a8     libvcruntime:winapi_downlevel.obj
 0002:000043c0       ?candidate_modules@?1??try_get_FlsFree@@YAP6AHK@ZXZ@4QBW4module_id@?A0x84e3c32f@@B 000000018002a3c0     libvcruntime:winapi_downlevel.obj
 0002:000043d0       ?candidate_modules@?1??try_get_FlsGetValue@@YAP6APEAXK@ZXZ@4QBW4module_id@?A0x84e3c32f@@B 000000018002a3d0     libvcruntime:winapi_downlevel.obj
 0002:000043e8       ?candidate_modules@?1??try_get_FlsSetValue@@YAP6AHKPEAX@ZXZ@4QBW4module_id@?A0x84e3c32f@@B 000000018002a3e8     libvcruntime:winapi_downlevel.obj
 0002:00004400       ?candidate_modules@?1??try_get_InitializeCriticalSectionEx@@YAP6AHPEAU_RTL_CRITICAL_SECTION@@KK@ZXZ@4QBW4module_id@?A0x84e3c32f@@B 000000018002a400     libvcruntime:winapi_downlevel.obj
 0002:00004430       ?errtable@@3QBUerrentry@?A0x31fdb9ec@@B 000000018002a430     libucrt:errno.obj
 0002:00004ac0       __acrt_initializers        000000018002aac0     libucrt:initialization.obj
 0002:00004bc0       ?module_names@?A0x391cf84c@@3QBQEB_WB 000000018002abc0     libucrt:winapi_thunks.obj
 0002:000050c8       ?candidate_modules@?1??try_get_AreFileApisANSI@@YAP6AHXZXZ@4QBW4module_id@?A0x391cf84c@@B 000000018002b0c8     libucrt:winapi_thunks.obj
 0002:000050e0       ?candidate_modules@?1??try_get_FlsAlloc@@YAP6AKP6AXPEAX@Z@ZXZ@4QBW4module_id@?A0x391cf84c@@B 000000018002b0e0     libucrt:winapi_thunks.obj
 0002:000050e8       ?candidate_modules@?1??try_get_FlsFree@@YAP6AHK@ZXZ@4QBW4module_id@?A0x391cf84c@@B 000000018002b0e8     libucrt:winapi_thunks.obj
 0002:000050f0       ?candidate_modules@?1??try_get_FlsGetValue@@YAP6APEAXK@ZXZ@4QBW4module_id@?A0x391cf84c@@B 000000018002b0f0     libucrt:winapi_thunks.obj
 0002:000050f8       ?candidate_modules@?1??try_get_FlsSetValue@@YAP6AHKPEAX@ZXZ@4QBW4module_id@?A0x391cf84c@@B 000000018002b0f8     libucrt:winapi_thunks.obj
 0002:00005100       ?candidate_modules@?1??try_get_InitializeCriticalSectionEx@@YAP6AHPEAU_RTL_CRITICAL_SECTION@@KK@ZXZ@4QBW4module_id@?A0x391cf84c@@B 000000018002b100     libucrt:winapi_thunks.obj
 0002:00005108       ?candidate_modules@?1??try_get_LCMapStringEx@@YAP6AHPEB_WK0HPEA_WHPEAU_nlsversioninfo@@PEAX_J@ZXZ@4QBW4module_id@?A0x391cf84c@@B 000000018002b108     libucrt:winapi_thunks.obj
 0002:00005120       ?candidate_modules@?1??try_get_LocaleNameToLCID@@YAP6AKPEB_WK@ZXZ@4QBW4module_id@?A0x391cf84c@@B 000000018002b120     libucrt:winapi_thunks.obj
 0002:0000513c       ?candidate_modules@?1??try_get_AppPolicyGetProcessTerminationMethod@@YAP6AJPEAXPEAW4AppPolicyProcessTerminationMethod@@@ZXZ@4QBW4module_id@?A0x391cf84c@@B 000000018002b13c     libucrt:winapi_thunks.obj
 0002:00005168       ?candidate_modules@?1??try_get_SetThreadStackGuarantee@@YAP6AHPEAK@ZXZ@4QBW4module_id@?A0x391cf84c@@B 000000018002b168     libucrt:winapi_thunks.obj
 0002:00005190       ?strings@?1??fp_format_nan_or_infinity@@YAHW4__acrt_fp_class@@_NPEAD_K1@Z@4QAY03QEBDA 000000018002b190     libucrt:cvt.obj
 0002:000058f0       ?_mb_locale_names@@3QBQEB_WB 000000018002b8f0     libucrt:mbctype.obj
 0002:00006160       ?LcidToLocaleNameTable@?A0x881e4c05@@3QBULcidToLocaleName@1@B 000000018002c160     libucrt:lcidtoname_downlevel.obj
 0002:00007bc0       ?LocaleNameToIndexTable@?A0x881e4c05@@3QBULocaleNameIndex@1@B 000000018002dbc0     libucrt:lcidtoname_downlevel.obj
 0002:00009e60       __real_ninf                000000018002fe60     libucrt:log10.obj
 0002:00009e70       __real_inf                 000000018002fe70     libucrt:log10.obj
 0002:00009e80       __real_neg_qnan            000000018002fe80     libucrt:log10.obj
 0002:00009e90       __real_qnanbit             000000018002fe90     libucrt:log10.obj
 0002:00009ea0       __int_1023                 000000018002fea0     libucrt:log10.obj
 0002:00009eb0       __mask_001                 000000018002feb0     libucrt:log10.obj
 0002:00009ec0       __mask_mant                000000018002fec0     libucrt:log10.obj
 0002:00009ed0       __mask_mant_top8           000000018002fed0     libucrt:log10.obj
 0002:00009ee0       __mask_mant9               000000018002fee0     libucrt:log10.obj
 0002:00009ef0       __real_log10_e             000000018002fef0     libucrt:log10.obj
 0002:00009f00       __real_log10_e_lead        000000018002ff00     libucrt:log10.obj
 0002:00009f10       __real_log10_e_tail        000000018002ff10     libucrt:log10.obj
 0002:00009f20       __real_log10_2_lead        000000018002ff20     libucrt:log10.obj
 0002:00009f30       __real_log10_2_tail        000000018002ff30     libucrt:log10.obj
 0002:00009f40       __real_two                 000000018002ff40     libucrt:log10.obj
 0002:00009f50       __real_one                 000000018002ff50     libucrt:log10.obj
 0002:00009f60       __real_half                000000018002ff60     libucrt:log10.obj
 0002:00009f70       __mask_100                 000000018002ff70     libucrt:log10.obj
 0002:00009f80       __real_1_over_512          000000018002ff80     libucrt:log10.obj
 0002:00009f90       __real_1_over_2            000000018002ff90     libucrt:log10.obj
 0002:00009fa0       __real_1_over_3            000000018002ffa0     libucrt:log10.obj
 0002:00009fb0       __real_1_over_4            000000018002ffb0     libucrt:log10.obj
 0002:00009fc0       __real_1_over_5            000000018002ffc0     libucrt:log10.obj
 0002:00009fd0       __real_1_over_6            000000018002ffd0     libucrt:log10.obj
 0002:00009fe0       __real_neg_1023            000000018002ffe0     libucrt:log10.obj
 0002:00009ff0       __mask_2045                000000018002fff0     libucrt:log10.obj
 0002:0000a000       __real_threshold           0000000180030000     libucrt:log10.obj
 0002:0000a010       __real_near_one_lt         0000000180030010     libucrt:log10.obj
 0002:0000a020       __real_near_one_gt         0000000180030020     libucrt:log10.obj
 0002:0000a030       __real_min_norm            0000000180030030     libucrt:log10.obj
 0002:0000a040       __real_notsign             0000000180030040     libucrt:log10.obj
 0002:0000a050       __real_ca1                 0000000180030050     libucrt:log10.obj
 0002:0000a060       __real_ca2                 0000000180030060     libucrt:log10.obj
 0002:0000a070       __real_ca3                 0000000180030070     libucrt:log10.obj
 0002:0000a080       __real_ca4                 0000000180030080     libucrt:log10.obj
 0002:0000a090       __mask_lower               0000000180030090     libucrt:log10.obj
 0002:0000a0a0       __flag_x_zero              00000001800300a0     libucrt:log10.obj
 0002:0000a0a4       __flag_x_neg               00000001800300a4     libucrt:log10.obj
 0002:0000a0a8       __flag_x_nan               00000001800300a8     libucrt:log10.obj
 0002:0000b900       __real@433fffffffffffff    0000000180031900     libucrt:fpsr.obj
 0002:0000b908       __real@c33fffffffffffff    0000000180031908     libucrt:fpsr.obj
 0002:0000c1e0       $unwind$?cw_memcpy@@YAHPEA_WPEBDH@Z 00000001800321e0     CWString.obj
 0002:0000c1e0       $unwind$?ProcessWindowMessage@?$CComControl@VCOPOSElectronicValueRW@@V?$CWindowImpl@VCOPOSElectronicValueRW@@VCWindow@ATL@@V?$CWinTraits@$0FGAAAAAA@$0A@@3@@ATL@@@ATL@@UEAAHPEAUHWND__@@I_K_JAEA_JK@Z 00000001800321e0     ElectronicValueRW.obj
 0002:0000c1e0       $unwind$wcstol             00000001800321e0     libucrt:strtox.obj
 0002:0000c1e0       $unwind$_invalid_parameter_noinfo 00000001800321e0     libucrt:invalid_parameter.obj
 0002:0000c1e0       $unwind$_log10_special     00000001800321e0     libucrt:log_special.obj
 0002:0000c1e8       $unwind$?cw_strcpy@@YAHPEA_WPEBD@Z 00000001800321e8     CWString.obj
 0002:0000c1e8       $unwind$??__E?pConnMap@?$IConnectionPointContainerImpl@VCOPOSElectronicValueRW@@@ATL@@0PEBU_ATL_CONNMAP_ENTRY@2@EB@@YAXXZ 00000001800321e8     ElectronicValueRW.obj
 0002:0000c1e8       $unwind$?AddReplacement@CRegObject@ATL@@UEAAJPEB_W0@Z 00000001800321e8     ElectronicValueRW.obj
 0002:0000c1e8       $unwind$?AtlHresultFromLastError@ATL@@YAJXZ 00000001800321e8     ElectronicValueRW.obj
 0002:0000c1e8       $unwind$?AtlThrowImpl@ATL@@YAXJ@Z 00000001800321e8     ElectronicValueRW.obj
 0002:0000c1e8       $unwind$?CreateInstance@CComClassFactory@ATL@@UEAAJPEAUIUnknown@@AEBU_GUID@@PEAPEAX@Z 00000001800321e8     ElectronicValueRW.obj
 0002:0000c1e8       $unwind$?DefaultReflectionHandler@?$CWindowImplRoot@VCWindow@ATL@@@ATL@@SAHPEAUHWND__@@I_K_JAEA_J@Z 00000001800321e8     ElectronicValueRW.obj
 0002:0000c1e8       $unwind$?EnumAdvise@?$IOleObjectImpl@VCOPOSElectronicValueRW@@@ATL@@UEAAJPEAPEAUIEnumSTATDATA@@@Z 00000001800321e8     ElectronicValueRW.obj
 0002:0000c1e8       $unwind$?FireViewChange@CComControlBase@ATL@@QEAAJXZ 00000001800321e8     ElectronicValueRW.obj
 0002:0000c1e8       $unwind$?GetAdvise@?$IViewObjectExImpl@VCOPOSElectronicValueRW@@@ATL@@UEAAJPEAK0PEAPEAUIAdviseSink@@@Z 00000001800321e8     ElectronicValueRW.obj
 0002:0000c1e8       $unwind$?LockServer@CComClassFactory@ATL@@UEAAJH@Z 00000001800321e8     ElectronicValueRW.obj
 0002:0000c1e8       $unwind$?OnDocWindowActivate@?$IOleInPlaceActiveObjectImpl@VCOPOSElectronicValueRW@@@ATL@@UEAAJH@Z 00000001800321e8     ElectronicValueRW.obj
 0002:0000c1e8       $unwind$?Unadvise@?$IOleObjectImpl@VCOPOSElectronicValueRW@@@ATL@@UEAAJK@Z 00000001800321e8     ElectronicValueRW.obj
 0002:0000c1e8       $unwind$?_LocCPQueryInterface@?$IConnectionPointImpl@VCOPOSElectronicValueRW@@$1?DIID__IOPOSElectronicValueRWEvents@@3U_GUID@@BVCComDynamicUnkArray@ATL@@@ATL@@UEAAJAEBU_GUID@@PEAPEAX@Z 00000001800321e8     ElectronicValueRW.obj
 0002:0000c1e8       $unwind$?_LocCPQueryInterface@?$IConnectionPointImpl@VCOPOSElectronicValueRW@@$1?IID_IPropertyNotifySink@@3U_GUID@@BVCComDynamicUnkArray@ATL@@@ATL@@UEAAJAEBU_GUID@@PEAPEAX@Z 00000001800321e8     ElectronicValueRW.obj
 0002:0000c1e8       $unwind$?FinalConstruct@COPOSElectronicValueRW@@QEAAJXZ 00000001800321e8     ElectronicValueRWImpl.obj
 0002:0000c1e8       $unwind$?get_ResultCode@COPOSElectronicValueRW@@UEAAJPEAJ@Z 00000001800321e8     ElectronicValueRWImpl.obj
 0002:0000c1e8       $unwind$?get_State@COPOSElectronicValueRW@@UEAAJPEAJ@Z 00000001800321e8     ElectronicValueRWImpl.obj
 0002:0000c1e8       $unwind$??1OposDispParms@@QEAA@XZ 00000001800321e8     OposVariant.obj
 0002:0000c1e8       $unwind$??__E_AtlComModule@ATL@@YAXXZ 00000001800321e8     OposVariant.obj
 0002:0000c1e8       $unwind$??__E_AtlWinModule@ATL@@YAXXZ 00000001800321e8     OposVariant.obj
 0002:0000c1e8       $unwind$??__F_AtlWinModule@ATL@@YAXXZ 00000001800321e8     OposVariant.obj
 0002:0000c1e8       $unwind$?GetLONG@OposVariant@@QEAAJXZ 00000001800321e8     OposVariant.obj
 0002:0000c1e8       $unwind$??__E_AtlBaseModule@ATL@@YAXXZ 00000001800321e8     atls:atlbase.obj
 0002:0000c1e8       $unwind$__scrt_initialize_default_local_stdio_options 00000001800321e8     LIBCMT:default_local_stdio_options.obj
 0002:0000c1e8       $unwind$?dllmain_crt_dispatch@@YAHQEAUHINSTANCE__@@KQEAX@Z 00000001800321e8     LIBCMT:dll_dllmain.obj
 0002:0000c1e8       $unwind$__report_rangecheckfailure 00000001800321e8     LIBCMT:gs_report.obj
 0002:0000c1e8       $unwind$__GSHandlerCheck   00000001800321e8     LIBCMT:gshandler.obj
 0002:0000c1e8       $unwind$?__scrt_uninitialize_thread_safe_statics@@YAXXZ 00000001800321e8     LIBCMT:thread_safe_statics.obj
 0002:0000c1e8       $unwind$_Init_thread_notify 00000001800321e8     LIBCMT:thread_safe_statics.obj
 0002:0000c1e8       $unwind$__scrt_acquire_startup_lock 00000001800321e8     LIBCMT:utility.obj
 0002:0000c1e8       $unwind$__scrt_dllmain_after_initialize_c 00000001800321e8     LIBCMT:utility.obj
 0002:0000c1e8       $unwind$__scrt_dllmain_before_initialize_c 00000001800321e8     LIBCMT:utility.obj
 0002:0000c1e8       $unwind$__scrt_dllmain_crt_thread_attach 00000001800321e8     LIBCMT:utility.obj
 0002:0000c1e8       $unwind$__scrt_dllmain_crt_thread_detach 00000001800321e8     LIBCMT:utility.obj
 0002:0000c1e8       $unwind$__scrt_dllmain_uninitialize_c 00000001800321e8     LIBCMT:utility.obj
 0002:0000c1e8       $unwind$__scrt_dllmain_uninitialize_critical 00000001800321e8     LIBCMT:utility.obj
 0002:0000c1e8       $unwind$atexit             00000001800321e8     LIBCMT:utility.obj
 0002:0000c1e8       $unwind$__vcrt_initialize  00000001800321e8     libvcruntime:initialization.obj
 0002:0000c1e8       $unwind$__vcrt_thread_attach 00000001800321e8     libvcruntime:initialization.obj
 0002:0000c1e8       $unwind$__vcrt_thread_detach 00000001800321e8     libvcruntime:initialization.obj
 0002:0000c1e8       $unwind$__vcrt_uninitialize 00000001800321e8     libvcruntime:initialization.obj
 0002:0000c1e8       $unwind$__vcrt_uninitialize_critical 00000001800321e8     libvcruntime:initialization.obj
 0002:0000c1e8       $unwind$__vcrt_initialize_locks 00000001800321e8     libvcruntime:locks.obj
 0002:0000c1e8       $unwind$__vcrt_freefls     00000001800321e8     libvcruntime:per_thread_data.obj
 0002:0000c1e8       $unwind$__vcrt_getptd      00000001800321e8     libvcruntime:per_thread_data.obj
 0002:0000c1e8       $unwind$__vcrt_initialize_ptd 00000001800321e8     libvcruntime:per_thread_data.obj
 0002:0000c1e8       $unwind$__vcrt_uninitialize_ptd 00000001800321e8     libvcruntime:per_thread_data.obj
 0002:0000c1e8       $unwind$_purecall          00000001800321e8     libvcruntime:purevirt.obj
 0002:0000c1e8       $unwind$?FrameUnwindToEmptyState@__FrameHandler4@@SAXPEA_KPEAU_xDISPATCHER_CONTEXT@@PEAUFuncInfo4@FH4@@@Z 00000001800321e8     libvcruntime:risctrnsctrl.obj
 0002:0000c1e8       $unwind$_GetImageBase      00000001800321e8     libvcruntime:risctrnsctrl.obj
 0002:0000c1e8       $unwind$_GetThrowImageBase 00000001800321e8     libvcruntime:risctrnsctrl.obj
 0002:0000c1e8       $unwind$__dcrt_terminate_console_output 00000001800321e8     libucrt:initcon.obj
 0002:0000c1e8       $unwind$??$uninitialize_environment_internal@D@@YAXAEAPEAPEAD@Z 00000001800321e8     libucrt:environment_initialization.obj
 0002:0000c1e8       $unwind$??$uninitialize_environment_internal@_W@@YAXAEAPEAPEA_W@Z 00000001800321e8     libucrt:environment_initialization.obj
 0002:0000c1e8       $unwind$__dcrt_uninitialize_environments_nolock 00000001800321e8     libucrt:environment_initialization.obj
 0002:0000c1e8       $unwind$__acrt_initialize_heap 00000001800321e8     libucrt:heap_handle.obj
 0002:0000c1e8       $unwind$_msize_base        00000001800321e8     libucrt:msize.obj
 0002:0000c1e8       $unwind$?initialize_multibyte@@YAHXZ 00000001800321e8     libucrt:multibyte_initializer.obj
 0002:0000c1e8       $unwind$__acrt_thread_attach 00000001800321e8     libucrt:initialization.obj
 0002:0000c1e8       $unwind$__acrt_thread_detach 00000001800321e8     libucrt:initialization.obj
 0002:0000c1e8       $unwind$__acrt_uninitialize 00000001800321e8     libucrt:initialization.obj
 0002:0000c1e8       $unwind$__acrt_uninitialize_critical 00000001800321e8     libucrt:initialization.obj
 0002:0000c1e8       $unwind$initialize_c       00000001800321e8     libucrt:initialization.obj
 0002:0000c1e8       $unwind$uninitialize_allocated_io_buffers 00000001800321e8     libucrt:initialization.obj
 0002:0000c1e8       $unwind$uninitialize_environment 00000001800321e8     libucrt:initialization.obj
 0002:0000c1e8       $unwind$__acrt_initialize_ptd 00000001800321e8     libucrt:per_thread_data.obj
 0002:0000c1e8       $unwind$__acrt_uninitialize_ptd 00000001800321e8     libucrt:per_thread_data.obj
 0002:0000c1e8       $unwind$__acrt_AreFileApisANSI 00000001800321e8     libucrt:winapi_thunks.obj
 0002:0000c1e8       $unwind$__pctype_func      00000001800321e8     libucrt:ctype.obj
 0002:0000c1e8       $unwind$__acrt_release_locale_ref 00000001800321e8     libucrt:locale_refcounting.obj
 0002:0000c1e8       $unwind$_isatty            00000001800321e8     libucrt:isatty.obj
 0002:0000c1e8       $unwind$_get_osfhandle     00000001800321e8     libucrt:osfinfo.obj
 0002:0000c1e8       $unwind$__acrt_initialize_multibyte 00000001800321e8     libucrt:mbctype.obj
 0002:0000c1e8       $unwind$__acrt_update_thread_multibyte_data 00000001800321e8     libucrt:mbctype.obj
 0002:0000c1e8       $unwind$__doserrno         00000001800321e8     libucrt:errno.obj
 0002:0000c1e8       $unwind$_errno             00000001800321e8     libucrt:errno.obj
 0002:0000c1e8       $unwind$_invoke_watson     00000001800321e8     libucrt:invalid_parameter.obj
 0002:0000c1e8       $unwind$abort              00000001800321e8     libucrt:abort.obj
 0002:0000c1e8       $unwind$__acrt_initialize_command_line 00000001800321e8     libucrt:argv_data.obj
 0002:0000c1e8       $unwind$_fileno            00000001800321e8     libucrt:fileno.obj
 0002:0000c1e8       $unwind$?state_case_size@?$output_processor@_WV?$string_output_adapter@_W@__crt_stdio_output@@V?$format_validation_base@_WV?$string_output_adapter@_W@__crt_stdio_output@@@2@@__crt_stdio_output@@AEAA_NXZ 00000001800321e8     libucrt:output.obj
 0002:0000c1e8       $unwind$_statfp            00000001800321e8     libucrt:fpctrl.obj
 0002:0000c1e8       $unwind$fegetround         00000001800321e8     libucrt:fegetround.obj
 0002:0000c1e8       $unwind$_set_errno_from_matherr 00000001800321e8     libucrt:fpexcept.obj
 0002:0000c1f0       $unwind$?cw_dup@@YAXPEBDAEAHAEAPEA_W1@Z 00000001800321f0     CWString.obj
 0002:0000c1f0       $unwind$?DAdvise@?$IDataObjectImpl@VCOPOSElectronicValueRW@@@ATL@@UEAAJPEAUtagFORMATETC@@KPEAUIAdviseSink@@PEAK@Z 00000001800321f0     ElectronicValueRW.obj
 0002:0000c1f0       $unwind$??$__acrt_mbs_to_wcs_cp@U__crt_win32_buffer_internal_dynamic_resizing@@@@YAHQEBDAEAV?$__crt_win32_buffer@_WU__crt_win32_buffer_internal_dynamic_resizing@@@@I@Z 00000001800321f0     libucrt:argv_wildcards.obj
 0002:0000c208       $unwind$?DupWide@_CW@@AEAAXXZ 0000000180032208     CWString.obj
 0002:0000c208       $unwind$??0?$CComObject@VCOPOSElectronicValueRW@@@ATL@@QEAA@PEAX@Z 0000000180032208     ElectronicValueRW.obj
 0002:0000c208       $unwind$??0CAtlModule@ATL@@QEAA@XZ 0000000180032208     ElectronicValueRW.obj
 0002:0000c208       $unwind$??1?$CComObject@VCOPOSElectronicValueRW@@@ATL@@UEAA@XZ 0000000180032208     ElectronicValueRW.obj
 0002:0000c208       $unwind$??__E_Module@@YAXXZ 0000000180032208     ElectronicValueRW.obj
 0002:0000c208       $unwind$?AddRef@?$CComObjectCached@VCComClassFactory@ATL@@@ATL@@UEAAKXZ 0000000180032208     ElectronicValueRW.obj
 0002:0000c208       $unwind$?AllocateHeap@?$CTempBuffer@E$0BAA@VCCRTAllocator@ATL@@@ATL@@AEAAX_K@Z 0000000180032208     ElectronicValueRW.obj
 0002:0000c208       $unwind$?AllocateHeap@?$CTempBuffer@_W$0BAA@VCCRTAllocator@ATL@@@ATL@@AEAAX_K@Z 0000000180032208     ElectronicValueRW.obj
 0002:0000c208       $unwind$?AllocateHeap@?$CTempBuffer@_W$0EAA@VCCRTAllocator@ATL@@@ATL@@AEAAX_K@Z 0000000180032208     ElectronicValueRW.obj
 0002:0000c208       $unwind$?GetClassInfoW@?$IProvideClassInfo2Impl@$1?CLSID_OPOSElectronicValueRW@@3U_GUID@@B$1?DIID__IOPOSElectronicValueRWEvents@@3U2@B$1?LIBID_OposElectronicValueRW_CCO@@3U2@B$00$0A@VCComTypeInfoHolder@ATL@@@ATL@@UEAAJPEAPEAUITypeInfo@@@Z 0000000180032208     ElectronicValueRW.obj
 0002:0000c208       $unwind$?GetClientSite@?$IOleObjectImpl@VCOPOSElectronicValueRW@@@ATL@@UEAAJPEAPEAUIOleClientSite@@@Z 0000000180032208     ElectronicValueRW.obj
 0002:0000c208       $unwind$?GetConnMap@COPOSElectronicValueRW@@SAPEBU_ATL_CONNMAP_ENTRY@ATL@@PEAH@Z 0000000180032208     ElectronicValueRW.obj
 0002:0000c208       $unwind$?GetTypeInfo@?$IDispatchImpl@UIOPOSElectronicValueRW@@$1?IID_IOPOSElectronicValueRW@@3U_GUID@@B$1?LIBID_OposElectronicValueRW_CCO@@3U3@B$00$0A@VCComTypeInfoHolder@ATL@@@ATL@@UEAAJIKPEAPEAUITypeInfo@@@Z 0000000180032208     ElectronicValueRW.obj
 0002:0000c208       $unwind$?IOleInPlaceObject_InPlaceDeactivate@CComControlBase@ATL@@QEAAJXZ 0000000180032208     ElectronicValueRW.obj
 0002:0000c208       $unwind$?IOleObject_SetExtent@CComControlBase@ATL@@QEAAJKPEAUtagSIZE@@@Z 0000000180032208     ElectronicValueRW.obj
 0002:0000c208       $unwind$?IsEqualObject@?$CComPtrBase@UIOleClientSite@@@ATL@@QEAA_NPEAUIUnknown@@@Z 0000000180032208     ElectronicValueRW.obj
 0002:0000c208       $unwind$?QueryHitPoint@?$IViewObjectExImpl@VCOPOSElectronicValueRW@@@ATL@@UEAAJKPEBUtagRECT@@UtagPOINT@@JPEAK@Z 0000000180032208     ElectronicValueRW.obj
 0002:0000c208       $unwind$?QueryInterface@?$CComAggObject@VCOPOSElectronicValueRW@@@ATL@@UEAAJAEBU_GUID@@PEAPEAX@Z 0000000180032208     ElectronicValueRW.obj
 0002:0000c208       $unwind$?Release@?$CComObjectCached@VCComClassFactory@ATL@@@ATL@@UEAAKXZ 0000000180032208     ElectronicValueRW.obj
 0002:0000c208       $unwind$?Unadvise@?$IConnectionPointImpl@VCOPOSElectronicValueRW@@$1?DIID__IOPOSElectronicValueRWEvents@@3U_GUID@@BVCComDynamicUnkArray@ATL@@@ATL@@UEAAJK@Z 0000000180032208     ElectronicValueRW.obj
 0002:0000c208       $unwind$?Unadvise@?$IConnectionPointImpl@VCOPOSElectronicValueRW@@$1?IID_IPropertyNotifySink@@3U_GUID@@BVCComDynamicUnkArray@ATL@@@ATL@@UEAAJK@Z 0000000180032208     ElectronicValueRW.obj
 0002:0000c208       $unwind$??1CComControlBase@ATL@@UEAA@XZ 0000000180032208     ElectronicValueRWImpl.obj
 0002:0000c208       $unwind$??1COPOSElectronicValueRW@@UEAA@XZ 0000000180032208     ElectronicValueRWImpl.obj
 0002:0000c208       $unwind$?EventUninit@COPOSElectronicValueRW@@IEAAXXZ 0000000180032208     ElectronicValueRWImpl.obj
 0002:0000c208       $unwind$?FreezeEvents@COPOSElectronicValueRW@@MEAAJH@Z 0000000180032208     ElectronicValueRWImpl.obj
 0002:0000c208       $unwind$?SOProcessID@COPOSElectronicValueRW@@UEAAJPEAJ@Z 0000000180032208     ElectronicValueRWImpl.obj
 0002:0000c208       $unwind$?get_AsyncMode@COPOSElectronicValueRW@@UEAAJPEAF@Z 0000000180032208     ElectronicValueRWImpl.obj
 0002:0000c208       $unwind$?get_AutoDisable@COPOSElectronicValueRW@@UEAAJPEAF@Z 0000000180032208     ElectronicValueRWImpl.obj
 0002:0000c208       $unwind$?get_CapActivateService@COPOSElectronicValueRW@@UEAAJPEAF@Z 0000000180032208     ElectronicValueRWImpl.obj
 0002:0000c208       $unwind$?get_CapAddValue@COPOSElectronicValueRW@@UEAAJPEAF@Z 0000000180032208     ElectronicValueRWImpl.obj
 0002:0000c208       $unwind$?get_CapAdditionalSecurityInformation@COPOSElectronicValueRW@@UEAAJPEAF@Z 0000000180032208     ElectronicValueRWImpl.obj
 0002:0000c208       $unwind$?get_CapAuthorizeCompletion@COPOSElectronicValueRW@@UEAAJPEAF@Z 0000000180032208     ElectronicValueRWImpl.obj
 0002:0000c208       $unwind$?get_CapAuthorizePreSales@COPOSElectronicValueRW@@UEAAJPEAF@Z 0000000180032208     ElectronicValueRWImpl.obj
 0002:0000c208       $unwind$?get_CapAuthorizeRefund@COPOSElectronicValueRW@@UEAAJPEAF@Z 0000000180032208     ElectronicValueRWImpl.obj
 0002:0000c208       $unwind$?get_CapAuthorizeVoid@COPOSElectronicValueRW@@UEAAJPEAF@Z 0000000180032208     ElectronicValueRWImpl.obj
 0002:0000c208       $unwind$?get_CapAuthorizeVoidPreSales@COPOSElectronicValueRW@@UEAAJPEAF@Z 0000000180032208     ElectronicValueRWImpl.obj
 0002:0000c208       $unwind$?get_CapCancelValue@COPOSElectronicValueRW@@UEAAJPEAF@Z 0000000180032208     ElectronicValueRWImpl.obj
 0002:0000c208       $unwind$?get_CapCashDeposit@COPOSElectronicValueRW@@UEAAJPEAF@Z 0000000180032208     ElectronicValueRWImpl.obj
 0002:0000c208       $unwind$?get_CapCenterResultCode@COPOSElectronicValueRW@@UEAAJPEAF@Z 0000000180032208     ElectronicValueRWImpl.obj
 0002:0000c208       $unwind$?get_CapCheckCard@COPOSElectronicValueRW@@UEAAJPEAF@Z 0000000180032208     ElectronicValueRWImpl.obj
 0002:0000c208       $unwind$?get_CapCompareFirmwareVersion@COPOSElectronicValueRW@@UEAAJPEAF@Z 0000000180032208     ElectronicValueRWImpl.obj
 0002:0000c208       $unwind$?get_CapElectronicMoney@COPOSElectronicValueRW@@UEAAJPEAF@Z 0000000180032208     ElectronicValueRWImpl.obj
 0002:0000c208       $unwind$?get_CapEnumerateCardServices@COPOSElectronicValueRW@@UEAAJPEAF@Z 0000000180032208     ElectronicValueRWImpl.obj
 0002:0000c208       $unwind$?get_CapIndirectTransactionLog@COPOSElectronicValueRW@@UEAAJPEAF@Z 0000000180032208     ElectronicValueRWImpl.obj
 0002:0000c208       $unwind$?get_CapInstallments@COPOSElectronicValueRW@@UEAAJPEAF@Z 0000000180032208     ElectronicValueRWImpl.obj
 0002:0000c208       $unwind$?get_CapLockTerminal@COPOSElectronicValueRW@@UEAAJPEAF@Z 0000000180032208     ElectronicValueRWImpl.obj
 0002:0000c208       $unwind$?get_CapLogStatus@COPOSElectronicValueRW@@UEAAJPEAF@Z 0000000180032208     ElectronicValueRWImpl.obj
 0002:0000c208       $unwind$?get_CapMediumID@COPOSElectronicValueRW@@UEAAJPEAF@Z 0000000180032208     ElectronicValueRWImpl.obj
 0002:0000c208       $unwind$?get_CapMembershipCertificate@COPOSElectronicValueRW@@UEAAJPEAF@Z 0000000180032208     ElectronicValueRWImpl.obj
 0002:0000c208       $unwind$?get_CapPINDevice@COPOSElectronicValueRW@@UEAAJPEAF@Z 0000000180032208     ElectronicValueRWImpl.obj
 0002:0000c208       $unwind$?get_CapPaymentDetail@COPOSElectronicValueRW@@UEAAJPEAF@Z 0000000180032208     ElectronicValueRWImpl.obj
 0002:0000c208       $unwind$?get_CapPoint@COPOSElectronicValueRW@@UEAAJPEAF@Z 0000000180032208     ElectronicValueRWImpl.obj
 0002:0000c208       $unwind$?get_CapStatisticsReporting@COPOSElectronicValueRW@@UEAAJPEAF@Z 0000000180032208     ElectronicValueRWImpl.obj
 0002:0000c208       $unwind$?get_CapSubtractValue@COPOSElectronicValueRW@@UEAAJPEAF@Z 0000000180032208     ElectronicValueRWImpl.obj
 0002:0000c208       $unwind$?get_CapTaxOthers@COPOSElectronicValueRW@@UEAAJPEAF@Z 0000000180032208     ElectronicValueRWImpl.obj
 0002:0000c208       $unwind$?get_CapTrainingMode@COPOSElectronicValueRW@@UEAAJPEAF@Z 0000000180032208     ElectronicValueRWImpl.obj
 0002:0000c208       $unwind$?get_CapTransaction@COPOSElectronicValueRW@@UEAAJPEAF@Z 0000000180032208     ElectronicValueRWImpl.obj
 0002:0000c208       $unwind$?get_CapTransactionLog@COPOSElectronicValueRW@@UEAAJPEAF@Z 0000000180032208     ElectronicValueRWImpl.obj
 0002:0000c208       $unwind$?get_CapTransactionNumber@COPOSElectronicValueRW@@UEAAJPEAF@Z 0000000180032208     ElectronicValueRWImpl.obj
 0002:0000c208       $unwind$?get_CapUnlockTerminal@COPOSElectronicValueRW@@UEAAJPEAF@Z 0000000180032208     ElectronicValueRWImpl.obj
 0002:0000c208       $unwind$?get_CapUpdateFirmware@COPOSElectronicValueRW@@UEAAJPEAF@Z 0000000180032208     ElectronicValueRWImpl.obj
 0002:0000c208       $unwind$?get_CapUpdateKey@COPOSElectronicValueRW@@UEAAJPEAF@Z 0000000180032208     ElectronicValueRWImpl.obj
 0002:0000c208       $unwind$?get_CapUpdateStatistics@COPOSElectronicValueRW@@UEAAJPEAF@Z 0000000180032208     ElectronicValueRWImpl.obj
 0002:0000c208       $unwind$?get_CapVoucher@COPOSElectronicValueRW@@UEAAJPEAF@Z 0000000180032208     ElectronicValueRWImpl.obj
 0002:0000c208       $unwind$?get_CapWriteValue@COPOSElectronicValueRW@@UEAAJPEAF@Z 0000000180032208     ElectronicValueRWImpl.obj
 0002:0000c208       $unwind$?get_Claimed@COPOSElectronicValueRW@@UEAAJPEAF@Z 0000000180032208     ElectronicValueRWImpl.obj
 0002:0000c208       $unwind$?get_DataEventEnabled@COPOSElectronicValueRW@@UEAAJPEAF@Z 0000000180032208     ElectronicValueRWImpl.obj
 0002:0000c208       $unwind$?get_DetectionControl@COPOSElectronicValueRW@@UEAAJPEAF@Z 0000000180032208     ElectronicValueRWImpl.obj
 0002:0000c208       $unwind$?get_DeviceEnabled@COPOSElectronicValueRW@@UEAAJPEAF@Z 0000000180032208     ElectronicValueRWImpl.obj
 0002:0000c208       $unwind$?get_FreezeEvents@COPOSElectronicValueRW@@UEAAJPEAF@Z 0000000180032208     ElectronicValueRWImpl.obj
 0002:0000c208       $unwind$?put_FreezeEvents@COPOSElectronicValueRW@@UEAAJF@Z 0000000180032208     ElectronicValueRWImpl.obj
 0002:0000c208       $unwind$??0CAtlComModule@ATL@@QEAA@XZ 0000000180032208     OposVariant.obj
 0002:0000c208       $unwind$??0CAtlWinModule@ATL@@QEAA@XZ 0000000180032208     OposVariant.obj
 0002:0000c208       $unwind$??1CAtlBaseModule@ATL@@QEAA@XZ 0000000180032208     atls:atlbase.obj
 0002:0000c208       $unwind$AtlThunk_AllocateData 0000000180032208     atls:atlthunk.obj
 0002:0000c208       $unwind$__raise_securityfailure 0000000180032208     LIBCMT:gs_report.obj
 0002:0000c208       $unwind$??2@YAPEAX_K@Z     0000000180032208     LIBCMT:new_scalar.obj
 0002:0000c208       $unwind$??_Gtype_info@@UEAAPEAXI@Z 0000000180032208     LIBCMT:std_type_info_static.obj
 0002:0000c208       $unwind$_Init_thread_footer 0000000180032208     LIBCMT:thread_safe_statics.obj
 0002:0000c208       $unwind$_Init_thread_header 0000000180032208     LIBCMT:thread_safe_statics.obj
 0002:0000c208       $unwind$_Init_thread_wait  0000000180032208     LIBCMT:thread_safe_statics.obj
 0002:0000c208       $unwind$??0bad_alloc@std@@QEAA@AEBV01@@Z 0000000180032208     LIBCMT:throw_bad_alloc.obj
 0002:0000c208       $unwind$??0bad_array_new_length@std@@QEAA@AEBV01@@Z 0000000180032208     LIBCMT:throw_bad_alloc.obj
 0002:0000c208       $unwind$??0exception@std@@QEAA@AEBV01@@Z 0000000180032208     LIBCMT:throw_bad_alloc.obj
 0002:0000c208       $unwind$__scrt_initialize_crt 0000000180032208     LIBCMT:utility.obj
 0002:0000c208       $unwind$__scrt_initialize_onexit_tables 0000000180032208     LIBCMT:utility.obj
 0002:0000c208       $unwind$__scrt_release_startup_lock 0000000180032208     LIBCMT:utility.obj
 0002:0000c208       $unwind$__scrt_uninitialize_crt 0000000180032208     LIBCMT:utility.obj
 0002:0000c208       $unwind$_onexit            0000000180032208     LIBCMT:utility.obj
 0002:0000c208       $unwind$_IsExceptionObjectToBeDestroyed 0000000180032208     libvcruntime:ehhelpers.obj
 0002:0000c208       $unwind$??0HandlerMap4@FH4@@QEAA@PEBUTryBlockMapEntry4@1@_KH@Z 0000000180032208     libvcruntime:frame.obj
 0002:0000c208       $unwind$??0bad_exception@std@@QEAA@AEBV01@@Z 0000000180032208     libvcruntime:frame.obj
 0002:0000c208       $unwind$?ExFilterRethrow@@YAHPEAU_EXCEPTION_POINTERS@@PEAUEHExceptionRecord@@PEAH@Z 0000000180032208     libvcruntime:frame.obj
 0002:0000c208       $unwind$__vcrt_uninitialize_locks 0000000180032208     libvcruntime:locks.obj
 0002:0000c208       $unwind$__vcrt_freeptd     0000000180032208     libvcruntime:per_thread_data.obj
 0002:0000c208       $unwind$_CreateFrameInfo   0000000180032208     libvcruntime:risctrnsctrl.obj
 0002:0000c208       $unwind$_SetImageBase      0000000180032208     libvcruntime:risctrnsctrl.obj
 0002:0000c208       $unwind$_SetThrowImageBase 0000000180032208     libvcruntime:risctrnsctrl.obj
 0002:0000c208       $unwind$__std_exception_destroy 0000000180032208     libvcruntime:std_exception.obj
 0002:0000c208       $unwind$__std_type_info_destroy_list 0000000180032208     libvcruntime:std_type_info.obj
 0002:0000c208       $unwind$__vcrt_FlsAlloc    0000000180032208     libvcruntime:winapi_downlevel.obj
 0002:0000c208       $unwind$__vcrt_FlsFree     0000000180032208     libvcruntime:winapi_downlevel.obj
 0002:0000c208       $unwind$__vcrt_FlsGetValue 0000000180032208     libvcruntime:winapi_downlevel.obj
 0002:0000c208       $unwind$_calloc_base       0000000180032208     libucrt:calloc_base.obj
 0002:0000c208       $unwind$_malloc_base       0000000180032208     libucrt:malloc_base.obj
 0002:0000c208       $unwind$_callnewh          0000000180032208     libucrt:new_handler.obj
 0002:0000c208       $unwind$initialize_pointers 0000000180032208     libucrt:initialization.obj
 0002:0000c208       $unwind$uninitialize_allocated_memory 0000000180032208     libucrt:initialization.obj
 0002:0000c208       $unwind$__acrt_initialize_locks 0000000180032208     libucrt:locks.obj
 0002:0000c208       $unwind$__acrt_uninitialize_locks 0000000180032208     libucrt:locks.obj
 0002:0000c208       $unwind$__acrt_freeptd     0000000180032208     libucrt:per_thread_data.obj
 0002:0000c208       $unwind$__acrt_getptd_head 0000000180032208     libucrt:per_thread_data.obj
 0002:0000c208       $unwind$__acrt_get_process_end_policy 0000000180032208     libucrt:win_policies.obj
 0002:0000c208       $unwind$__acrt_AppPolicyGetProcessTerminationMethodInternal 0000000180032208     libucrt:winapi_thunks.obj
 0002:0000c208       $unwind$__acrt_FlsAlloc    0000000180032208     libucrt:winapi_thunks.obj
 0002:0000c208       $unwind$__acrt_FlsFree     0000000180032208     libucrt:winapi_thunks.obj
 0002:0000c208       $unwind$__acrt_FlsGetValue 0000000180032208     libucrt:winapi_thunks.obj
 0002:0000c208       $unwind$__acrt_SetThreadStackGuarantee 0000000180032208     libucrt:winapi_thunks.obj
 0002:0000c208       $unwind$__acrt_uninitialize_winapi_thunks 0000000180032208     libucrt:winapi_thunks.obj
 0002:0000c208       $unwind$__acrt_update_locale_info 0000000180032208     libucrt:locale_update.obj
 0002:0000c208       $unwind$__acrt_update_multibyte_info 0000000180032208     libucrt:locale_update.obj
 0002:0000c208       $unwind$__acrt_allocate_buffer_for_argv 0000000180032208     libucrt:argv_parsing.obj
 0002:0000c208       $unwind$?exit_or_terminate_process@@YAXI@Z 0000000180032208     libucrt:exit.obj
 0002:0000c208       $unwind$?try_cor_exit_process@@YAXI@Z 0000000180032208     libucrt:exit.obj
 0002:0000c208       $unwind$__acrt_uninitialize_stdio 0000000180032208     libucrt:_file.obj
 0002:0000c208       $unwind$__acrt_stdio_free_buffer_nolock 0000000180032208     libucrt:_freebuf.obj
 0002:0000c208       $unwind$_fflush_nolock     0000000180032208     libucrt:fflush.obj
 0002:0000c208       $unwind$strcpy_s           0000000180032208     libucrt:strcpy_s.obj
 0002:0000c208       $unwind$wcscat_s           0000000180032208     libucrt:wcscat_s.obj
 0002:0000c208       $unwind$wcscpy_s           0000000180032208     libucrt:wcscpy_s.obj
 0002:0000c208       $unwind$_clrfp             0000000180032208     libucrt:fpctrl.obj
 0002:0000c208       $unwind$_set_statfp        0000000180032208     libucrt:fpctrl.obj
 0002:0000c208       $unwind$_clearfp           0000000180032208     libucrt:ieee.obj
 0002:0000c208       $unwind$_controlfp_s       0000000180032208     libucrt:contrlfp.obj
 0002:0000c208       $unwind$fegetenv           0000000180032208     libucrt:fegetenv.obj
 0002:0000c208       $unwind$feholdexcept       0000000180032208     libucrt:feholdexcept.obj
 0002:0000c208       $unwind$fesetenv           0000000180032208     libucrt:fesetenv.obj
 0002:0000c210       $unwind$?AtlWinModuleExtractCreateWndData@ATL@@YAPEAXPEAU_ATL_WIN_MODULE70@1@@Z 0000000180032210     ElectronicValueRW.obj
 0002:0000c210       $unwind$?CreateInstance@?$CComCreator@V?$CComObject@VCOPOSElectronicValueRW@@@ATL@@@ATL@@SAJPEAXAEBU_GUID@@PEAPEAX@Z 0000000180032210     ElectronicValueRW.obj
 0002:0000c210       $unwind$?DoEvent@COPOSElectronicValueRW@@IEAAXI_K_J@Z 0000000180032210     ElectronicValueRW.obj
 0002:0000c210       $unwind$?DoVerb@?$IOleObjectImpl@VCOPOSElectronicValueRW@@@ATL@@UEAAJJPEAUtagMSG@@PEAUIOleClientSite@@JPEAUHWND__@@PEBUtagRECT@@@Z 0000000180032210     ElectronicValueRW.obj
 0002:0000c210       $unwind$?HKeyFromString@CRegParser@ATL@@KAPEAUHKEY__@@PEA_W@Z 0000000180032210     ElectronicValueRW.obj
 0002:0000c210       $unwind$?Next@?$CComEnumImpl@UIEnumConnectionPoints@@$1?_GUID_b196b285_bab4_101a_b69c_00aa00341d07@@3U__s_GUID@@BPEAUIConnectionPoint@@V?$_CopyInterface@UIConnectionPoint@@@ATL@@@ATL@@UEAAJKPEAPEAUIConnectionPoint@@PEAK@Z 0000000180032210     ElectronicValueRW.obj
 0002:0000c210       $unwind$?Next@?$CComEnumImpl@UIEnumConnections@@$1?_GUID_b196b287_bab4_101a_b69c_00aa00341d07@@3U__s_GUID@@BUtagCONNECTDATA@@V?$_Copy@UtagCONNECTDATA@@@ATL@@@ATL@@UEAAJKPEAUtagCONNECTDATA@@PEAK@Z 0000000180032210     ElectronicValueRW.obj
 0002:0000c210       $unwind$?SODirectIO@COPOSElectronicValueRW@@MEAAJJPEAJPEAPEA_W@Z 0000000180032210     ElectronicValueRW.obj
 0002:0000c210       $unwind$?SOTransition@COPOSElectronicValueRW@@MEAAJJPEAJPEAPEA_W@Z 0000000180032210     ElectronicValueRW.obj
 0002:0000c210       $unwind$?SetControlFocus@CComControlBase@ATL@@QEAAHH@Z 0000000180032210     ElectronicValueRW.obj
 0002:0000c210       $unwind$?ocscpy_s@@YA_NPEA_W_KPEB_W@Z 0000000180032210     ElectronicValueRW.obj
 0002:0000c210       $unwind$?s_EventWindowProc@COPOSElectronicValueRW@@KA_JPEAUHWND__@@I_K_J@Z 0000000180032210     ElectronicValueRWImpl.obj
 0002:0000c210       $unwind$?AtlWinModuleTerm@ATL@@YAJPEAU_ATL_WIN_MODULE70@1@PEAUHINSTANCE__@@@Z 0000000180032210     OposVariant.obj
 0002:0000c210       $unwind$__scrt_dllmain_exception_filter 0000000180032210     LIBCMT:utility.obj
 0002:0000c210       $unwind$?Is_bad_exception_allowed@@YAEPEBU_s_ESTypeList@@@Z 0000000180032210     libvcruntime:frame.obj
 0002:0000c210       $unwind$_recalloc_base     0000000180032210     libucrt:recalloc.obj
 0002:0000c210       $unwind$__acrt_free_locale 0000000180032210     libucrt:locale_refcounting.obj
 0002:0000c210       $unwind$__acrt_lowio_create_handle_array 0000000180032210     libucrt:osfinfo.obj
 0002:0000c210       $unwind$?setSBCS@@YAXPEAU__crt_multibyte_data@@@Z 0000000180032210     libucrt:mbctype.obj
 0002:0000c210       $unwind$_seh_filter_exe    0000000180032210     libucrt:exception_filter.obj
 0002:0000c210       $unwind$_initterm          0000000180032210     libucrt:initterm.obj
 0002:0000c210       $unwind$??$ensure_buffer_is_big_enough@D@formatting_buffer@__crt_stdio_output@@QEAA_N_K@Z 0000000180032210     libucrt:output.obj
 0002:0000c210       $unwind$??$ensure_buffer_is_big_enough@_W@formatting_buffer@__crt_stdio_output@@QEAA_N_K@Z 0000000180032210     libucrt:output.obj
 0002:0000c224       $unwind$??_GCRegObject@ATL@@UEAAPEAXI@Z 0000000180032224     ElectronicValueRW.obj
 0002:0000c224       $unwind$?Add@?$CSimpleArray@GV?$CSimpleArrayEqualHelper@G@ATL@@@ATL@@QEAAHAEBG@Z 0000000180032224     ElectronicValueRW.obj
 0002:0000c224       $unwind$?Add@?$CSimpleMap@PEA_WPEA_WVCExpansionVectorEqualHelper@ATL@@@ATL@@QEAAHAEBQEA_W0@Z 0000000180032224     ElectronicValueRW.obj
 0002:0000c224       $unwind$?Add@CComDynamicUnkArray@ATL@@QEAAKPEAUIUnknown@@@Z 0000000180032224     ElectronicValueRW.obj
 0002:0000c224       $unwind$?Advise@?$IOleObjectImpl@VCOPOSElectronicValueRW@@@ATL@@UEAAJPEAUIAdviseSink@@PEAK@Z 0000000180032224     ElectronicValueRW.obj
 0002:0000c224       $unwind$?ClearReplacements@CExpansionVector@ATL@@QEAAJXZ 0000000180032224     ElectronicValueRW.obj
 0002:0000c224       $unwind$?CreateInstance@?$CComObject@V?$CComEnum@UIEnumConnectionPoints@@$1?_GUID_b196b285_bab4_101a_b69c_00aa00341d07@@3U__s_GUID@@BPEAUIConnectionPoint@@V?$_CopyInterface@UIConnectionPoint@@@ATL@@VCComSingleThreadModel@6@@ATL@@@ATL@@SAJPEAPEAV12@@Z 0000000180032224     ElectronicValueRW.obj
 0002:0000c224       $unwind$?CreateInstance@?$CComObject@V?$CComEnum@UIEnumConnections@@$1?_GUID_b196b287_bab4_101a_b69c_00aa00341d07@@3U__s_GUID@@BUtagCONNECTDATA@@V?$_Copy@UtagCONNECTDATA@@@ATL@@VCComSingleThreadModel@6@@ATL@@@ATL@@SAJPEAPEAV12@@Z 0000000180032224     ElectronicValueRW.obj
 0002:0000c224       $unwind$?RegisterServer@CComModule@ATL@@QEAAJHPEBU_GUID@@@Z 0000000180032224     ElectronicValueRW.obj
 0002:0000c224       $unwind$?Term@CAtlModule@ATL@@QEAAXXZ 0000000180032224     ElectronicValueRW.obj
 0002:0000c224       $unwind$?UnregisterServer@CComModule@ATL@@QEAAJHPEBU_GUID@@@Z 0000000180032224     ElectronicValueRW.obj
 0002:0000c224       $unwind$?VTFromRegType@CRegParser@ATL@@KAHPEB_WAEAG@Z 0000000180032224     ElectronicValueRW.obj
 0002:0000c224       $unwind$??0OposDispParms@@QEAA@PEAVOposVariant@@H@Z 0000000180032224     OposVariant.obj
 0002:0000c224       $unwind$?SetBSTR_Copy@OposVariant@@QEAAXPEA_WAEAJ@Z 0000000180032224     OposVariant.obj
 0002:0000c224       $unwind$?SetBSTR_InOutPtr@OposVariant@@QEAA_NPEAPEA_WAEAJ@Z 0000000180032224     OposVariant.obj
 0002:0000c224       $unwind$?SetDispatch_Ptr@OposVariant@@QEAAXPEAUIDispatch@@AEAJ@Z 0000000180032224     OposVariant.obj
 0002:0000c224       $unwind$?SetLONG_Ptr@OposVariant@@QEAAXPEAJAEAJ@Z 0000000180032224     OposVariant.obj
 0002:0000c224       $unwind$?SetString@OposVariant@@QEAAXPEB_WAEAJ@Z 0000000180032224     OposVariant.obj
 0002:0000c224       $unwind$?Term@CAtlComModule@ATL@@QEAAXXZ 0000000180032224     OposVariant.obj
 0002:0000c224       $unwind$_DllMainCRTStartup 0000000180032224     LIBCMT:dll_dllmain.obj
 0002:0000c224       $unwind$__vcrt_getptd_noexit 0000000180032224     libvcruntime:per_thread_data.obj
 0002:0000c224       $unwind$__vcrt_InitializeCriticalSectionEx 0000000180032224     libvcruntime:winapi_downlevel.obj
 0002:0000c224       $unwind$memcpy_s           0000000180032224     libucrt:cfout.obj
 0002:0000c224       $unwind$__acrt_getptd      0000000180032224     libucrt:per_thread_data.obj
 0002:0000c224       $unwind$__acrt_getptd_noexit 0000000180032224     libucrt:per_thread_data.obj
 0002:0000c224       $unwind$__acrt_execute_initializers 0000000180032224     libucrt:shared_initialization.obj
 0002:0000c224       $unwind$__acrt_InitializeCriticalSectionEx 0000000180032224     libucrt:winapi_thunks.obj
 0002:0000c224       $unwind$?free_crt_array_internal@@YAXQEAPEBX_K@Z 0000000180032224     libucrt:inittime.obj
 0002:0000c224       $unwind$??$common_lseek_nolock@_J@@YA_JH_JH@Z 0000000180032224     libucrt:lseek.obj
 0002:0000c224       $unwind$__acrt_stdio_flush_nolock 0000000180032224     libucrt:fflush.obj
 0002:0000c224       $unwind$??0_LocaleUpdate@@QEAA@QEAU__crt_locale_pointers@@@Z 0000000180032224     libucrt:output.obj
 0002:0000c224       $unwind$?type_case_Z@?$output_processor@_WV?$string_output_adapter@_W@__crt_stdio_output@@V?$format_validation_base@_WV?$string_output_adapter@_W@__crt_stdio_output@@@2@@__crt_stdio_output@@AEAA_NXZ 0000000180032224     libucrt:output.obj
 0002:0000c224       $unwind$?type_case_s@?$output_processor@_WV?$string_output_adapter@_W@__crt_stdio_output@@V?$format_validation_base@_WV?$string_output_adapter@_W@__crt_stdio_output@@@2@@__crt_stdio_output@@AEAA_NXZ 0000000180032224     libucrt:output.obj
 0002:0000c224       $unwind$_exception_enabled 0000000180032224     libucrt:libm_error.obj
 0002:0000c234       $unwind$?AddTermFunc@CAtlModule@ATL@@QEAAJP6AX_K@Z0@Z 0000000180032234     ElectronicValueRW.obj
 0002:0000c234       $unwind$?AtlComModuleRegisterServer@ATL@@YAJPEAU_ATL_COM_MODULE70@1@HPEBU_GUID@@@Z 0000000180032234     ElectronicValueRW.obj
 0002:0000c234       $unwind$?AtlComModuleUnregisterServer@ATL@@YAJPEAU_ATL_COM_MODULE70@1@HPEBU_GUID@@@Z 0000000180032234     ElectronicValueRW.obj
 0002:0000c234       $unwind$?CreateInstance@?$CComCreator@V?$CComAggObject@VCOPOSElectronicValueRW@@@ATL@@@ATL@@SAJPEAXAEBU_GUID@@PEAPEAX@Z 0000000180032234     ElectronicValueRW.obj
 0002:0000c234       $unwind$?CreateInstance@?$CComCreator@V?$CComObjectCached@VCComClassFactory@ATL@@@ATL@@@ATL@@SAJPEAXAEBU_GUID@@PEAPEAX@Z 0000000180032234     ElectronicValueRW.obj
 0002:0000c234       $unwind$?GetPagesHelper@?$ISpecifyPropertyPagesImpl@VCOPOSElectronicValueRW@@@ATL@@IEAAJPEAUtagCAUUID@@PEBUATL_PROPMAP_ENTRY@2@@Z 0000000180032234     ElectronicValueRW.obj
 0002:0000c234       $unwind$??_Estringdispid@CComTypeInfoHolder@ATL@@QEAAPEAXI@Z 0000000180032234     OposVariant.obj
 0002:0000c234       $unwind$__GSHandlerCheck_SEH 0000000180032234     LIBCMT:gshandlerseh.obj
 0002:0000c234       $unwind$??$TypeMatchHelper@V__FrameHandler3@@@@YAHPEBU_s_HandlerType@@PEBU_s_CatchableType@@PEBU_s_ThrowInfo@@@Z 0000000180032234     libvcruntime:frame.obj
 0002:0000c234       $unwind$??$TypeMatchHelper@V__FrameHandler4@@@@YAHPEAUHandlerType4@FH4@@PEBU_s_CatchableType@@PEBU_s_ThrowInfo@@@Z 0000000180032234     libvcruntime:frame.obj
 0002:0000c234       $unwind$?initialize_stdio_handles_nolock@@YAXXZ 0000000180032234     libucrt:ioinit.obj
 0002:0000c234       $unwind$__acrt_initialize_stdio 0000000180032234     libucrt:_file.obj
 0002:0000c234       $unwind$?process@?$output_processor@_WV?$string_output_adapter@_W@__crt_stdio_output@@V?$format_validation_base@_WV?$string_output_adapter@_W@__crt_stdio_output@@@2@@__crt_stdio_output@@QEAAHXZ 0000000180032234     libucrt:output.obj
 0002:0000c234       $unwind$?type_case_integer@?$output_processor@_WV?$string_output_adapter@_W@__crt_stdio_output@@V?$format_validation_base@_WV?$string_output_adapter@_W@__crt_stdio_output@@@2@@__crt_stdio_output@@AEAA_NI_N@Z 0000000180032234     libucrt:output.obj
 0002:0000c24c       $unwind$??0?$CComContainedObject@VCOPOSElectronicValueRW@@@ATL@@QEAA@PEAX@Z 000000018003224c     ElectronicValueRW.obj
 0002:0000c24c       $unwind$??1?$CComEnumImpl@UIEnumConnectionPoints@@$1?_GUID_b196b285_bab4_101a_b69c_00aa00341d07@@3U__s_GUID@@BPEAUIConnectionPoint@@V?$_CopyInterface@UIConnectionPoint@@@ATL@@@ATL@@UEAA@XZ 000000018003224c     ElectronicValueRW.obj
 0002:0000c24c       $unwind$??1?$CComEnumImpl@UIEnumConnections@@$1?_GUID_b196b287_bab4_101a_b69c_00aa00341d07@@3U__s_GUID@@BUtagCONNECTDATA@@V?$_Copy@UtagCONNECTDATA@@@ATL@@@ATL@@UEAA@XZ 000000018003224c     ElectronicValueRW.obj
 0002:0000c24c       $unwind$??_G?$CComAggObject@VCOPOSElectronicValueRW@@@ATL@@UEAAPEAXI@Z 000000018003224c     ElectronicValueRW.obj
 0002:0000c24c       $unwind$??_G?$CComContainedObject@VCOPOSElectronicValueRW@@@ATL@@UEAAPEAXI@Z 000000018003224c     ElectronicValueRW.obj
 0002:0000c24c       $unwind$??_G?$CComObject@V?$CComEnum@UIEnumConnectionPoints@@$1?_GUID_b196b285_bab4_101a_b69c_00aa00341d07@@3U__s_GUID@@BPEAUIConnectionPoint@@V?$_CopyInterface@UIConnectionPoint@@@ATL@@VCComSingleThreadModel@6@@ATL@@@ATL@@UEAAPEAXI@Z 000000018003224c     ElectronicValueRW.obj
 0002:0000c24c       $unwind$??_G?$CComObject@V?$CComEnum@UIEnumConnections@@$1?_GUID_b196b287_bab4_101a_b69c_00aa00341d07@@3U__s_GUID@@BUtagCONNECTDATA@@V?$_Copy@UtagCONNECTDATA@@@ATL@@VCComSingleThreadModel@6@@ATL@@@ATL@@UEAAPEAXI@Z 000000018003224c     ElectronicValueRW.obj
 0002:0000c24c       $unwind$??_G?$CComObject@VCOPOSElectronicValueRW@@@ATL@@UEAAPEAXI@Z 000000018003224c     ElectronicValueRW.obj
 0002:0000c24c       $unwind$??_G?$CComObjectCached@VCComClassFactory@ATL@@@ATL@@UEAAPEAXI@Z 000000018003224c     ElectronicValueRW.obj
 0002:0000c24c       $unwind$??_GCComClassFactory@ATL@@UEAAPEAXI@Z 000000018003224c     ElectronicValueRW.obj
 0002:0000c24c       $unwind$??_GCComModule@ATL@@UEAAPEAXI@Z 000000018003224c     ElectronicValueRW.obj
 0002:0000c24c       $unwind$?DeleteSubKey@CRegKey@ATL@@QEAAJPEB_W@Z 000000018003224c     ElectronicValueRW.obj
 0002:0000c24c       $unwind$?IOleObject_SetClientSite@CComControlBase@ATL@@QEAAJPEAUIOleClientSite@@@Z 000000018003224c     ElectronicValueRW.obj
 0002:0000c24c       $unwind$?InitNew@?$IPersistStorageImpl@VCOPOSElectronicValueRW@@@ATL@@UEAAJPEAUIStorage@@@Z 000000018003224c     ElectronicValueRW.obj
 0002:0000c24c       $unwind$?IsDirty@?$IPersistStorageImpl@VCOPOSElectronicValueRW@@@ATL@@UEAAJXZ 000000018003224c     ElectronicValueRW.obj
 0002:0000c24c       $unwind$?Release@?$CComAggObject@VCOPOSElectronicValueRW@@@ATL@@UEAAKXZ 000000018003224c     ElectronicValueRW.obj
 0002:0000c24c       $unwind$?Release@?$CComObject@V?$CComEnum@UIEnumConnectionPoints@@$1?_GUID_b196b285_bab4_101a_b69c_00aa00341d07@@3U__s_GUID@@BPEAUIConnectionPoint@@V?$_CopyInterface@UIConnectionPoint@@@ATL@@VCComSingleThreadModel@6@@ATL@@@ATL@@UEAAKXZ 000000018003224c     ElectronicValueRW.obj
 0002:0000c24c       $unwind$?Release@?$CComObject@V?$CComEnum@UIEnumConnections@@$1?_GUID_b196b287_bab4_101a_b69c_00aa00341d07@@3U__s_GUID@@BUtagCONNECTDATA@@V?$_Copy@UtagCONNECTDATA@@@ATL@@VCComSingleThreadModel@6@@ATL@@@ATL@@UEAAKXZ 000000018003224c     ElectronicValueRW.obj
 0002:0000c24c       $unwind$?Release@?$CComObject@VCOPOSElectronicValueRW@@@ATL@@UEAAKXZ 000000018003224c     ElectronicValueRW.obj
 0002:0000c24c       $unwind$?SOData@COPOSElectronicValueRW@@MEAAJJ@Z 000000018003224c     ElectronicValueRW.obj
 0002:0000c24c       $unwind$?SOOutputComplete@COPOSElectronicValueRW@@MEAAJJ@Z 000000018003224c     ElectronicValueRW.obj
 0002:0000c24c       $unwind$?SOStatusUpdate@COPOSElectronicValueRW@@MEAAJJ@Z 000000018003224c     ElectronicValueRW.obj
 0002:0000c24c       $unwind$?SetAdvise@?$IViewObjectExImpl@VCOPOSElectronicValueRW@@@ATL@@UEAAJKKPEAUIAdviseSink@@@Z 000000018003224c     ElectronicValueRW.obj
 0002:0000c24c       $unwind$?Term@CComModule@ATL@@QEAAXXZ 000000018003224c     ElectronicValueRW.obj
 0002:0000c24c       $unwind$DllMain            000000018003224c     ElectronicValueRW.obj
 0002:0000c24c       $unwind$??1?$IConnectionPointImpl@VCOPOSElectronicValueRW@@$1?DIID__IOPOSElectronicValueRWEvents@@3U_GUID@@BVCComDynamicUnkArray@ATL@@@ATL@@QEAA@XZ 000000018003224c     ElectronicValueRWImpl.obj
 0002:0000c24c       $unwind$??1?$IConnectionPointImpl@VCOPOSElectronicValueRW@@$1?IID_IPropertyNotifySink@@3U_GUID@@BVCComDynamicUnkArray@ATL@@@ATL@@QEAA@XZ 000000018003224c     ElectronicValueRWImpl.obj
 0002:0000c24c       $unwind$?SetBSTR@OposVariant@@QEAAXPEA_WAEAJ@Z 000000018003224c     OposVariant.obj
 0002:0000c24c       $unwind$?SetCURRENCY@OposVariant@@QEAAXTtagCY@@@Z 000000018003224c     OposVariant.obj
 0002:0000c24c       $unwind$?SetLONG@OposVariant@@QEAAXJ@Z 000000018003224c     OposVariant.obj
 0002:0000c24c       $unwind$?SetVARIANT_BOOL@OposVariant@@QEAAXF@Z 000000018003224c     OposVariant.obj
 0002:0000c24c       $unwind$??0CAtlBaseModule@ATL@@QEAA@XZ 000000018003224c     atls:atlbase.obj
 0002:0000c24c       $unwind$??$GetProcAddressAll@P6AP6A_JPEAUHWND__@@I_K_J@ZPEAUAtlThunkData_t@@@Z@@YAP6AP6A_JPEAUHWND__@@I_K_J@ZPEAUAtlThunkData_t@@@ZPEAP6AP6A_J0I12@Z3@Z@Z 000000018003224c     atls:atlthunk.obj
 0002:0000c24c       $unwind$??$GetProcAddressAll@P6APEAUAtlThunkData_t@@XZ@@YAP6APEAUAtlThunkData_t@@XZPEAP6APEAU0@XZ@Z 000000018003224c     atls:atlthunk.obj
 0002:0000c24c       $unwind$??$GetProcAddressAll@P6AXPEAUAtlThunkData_t@@@Z@@YAP6AXPEAUAtlThunkData_t@@@ZPEAP6AX0@Z@Z 000000018003224c     atls:atlthunk.obj
 0002:0000c24c       $unwind$??$GetProcAddressAll@P6AXPEAUAtlThunkData_t@@PEAX_K@Z@@YAP6AXPEAUAtlThunkData_t@@PEAX_K@ZPEAP6AX012@Z@Z 000000018003224c     atls:atlthunk.obj
 0002:0000c24c       $unwind$?__AllocStdCallThunk_cmn@@YAPEAXXZ 000000018003224c     atls:atlthunk.obj
 0002:0000c24c       $unwind$?__InitializeThunkPool@@YAHXZ 000000018003224c     atls:atlthunk.obj
 0002:0000c24c       $unwind$AtlThunk_DataToCode 000000018003224c     atls:atlthunk.obj
 0002:0000c24c       $unwind$_RTC_Initialize    000000018003224c     LIBCMT:initsect.obj
 0002:0000c24c       $unwind$_RTC_Terminate     000000018003224c     LIBCMT:initsect.obj
 0002:0000c24c       $unwind$?__scrt_initialize_thread_safe_statics@@YAHXZ 000000018003224c     LIBCMT:thread_safe_statics.obj
 0002:0000c24c       $unwind$??_Gbad_alloc@std@@UEAAPEAXI@Z 000000018003224c     LIBCMT:throw_bad_alloc.obj
 0002:0000c24c       $unwind$??_Gbad_array_new_length@std@@UEAAPEAXI@Z 000000018003224c     LIBCMT:throw_bad_alloc.obj
 0002:0000c24c       $unwind$??_Gexception@std@@UEAAPEAXI@Z 000000018003224c     LIBCMT:throw_bad_alloc.obj
 0002:0000c24c       $unwind$__FrameUnwindFilter 000000018003224c     libvcruntime:ehhelpers.obj
 0002:0000c24c       $unwind$??_Gbad_exception@std@@UEAAPEAXI@Z 000000018003224c     libvcruntime:frame.obj
 0002:0000c24c       $unwind$?ExFilterRethrowFH4@@YAHPEAU_EXCEPTION_POINTERS@@PEAUEHExceptionRecord@@HPEAH@Z 000000018003224c     libvcruntime:frame.obj
 0002:0000c24c       $unwind$_FindAndUnlinkFrame 000000018003224c     libvcruntime:risctrnsctrl.obj
 0002:0000c24c       $unwind$__vcrt_FlsSetValue 000000018003224c     libvcruntime:winapi_downlevel.obj
 0002:0000c24c       $unwind$??$common_initialize_environment_nolock@D@@YAHXZ 000000018003224c     libucrt:environment_initialization.obj
 0002:0000c24c       $unwind$_realloc_base      000000018003224c     libucrt:realloc_base.obj
 0002:0000c24c       $unwind$?replace_current_thread_locale_nolock@@YAXQEAU__acrt_ptd@@QEAU__crt_locale_data@@@Z 000000018003224c     libucrt:per_thread_data.obj
 0002:0000c24c       $unwind$__acrt_execute_uninitializers 000000018003224c     libucrt:shared_initialization.obj
 0002:0000c24c       $unwind$__acrt_FlsSetValue 000000018003224c     libucrt:winapi_thunks.obj
 0002:0000c24c       $unwind$__acrt_LocaleNameToLCID 000000018003224c     libucrt:winapi_thunks.obj
 0002:0000c24c       $unwind$_updatetlocinfoEx_nolock 000000018003224c     libucrt:locale_refcounting.obj
 0002:0000c24c       $unwind$_close_nolock      000000018003224c     libucrt:close.obj
 0002:0000c24c       $unwind$__acrt_uninitialize_lowio 000000018003224c     libucrt:ioinit.obj
 0002:0000c24c       $unwind$__acrt_errno_map_os_error 000000018003224c     libucrt:errno.obj
 0002:0000c24c       $unwind$_initterm_e        000000018003224c     libucrt:initterm.obj
 0002:0000c24c       $unwind$_fclose_nolock     000000018003224c     libucrt:fclose.obj
 0002:0000c24c       $unwind$?type_case_n@?$output_processor@_WV?$string_output_adapter@_W@__crt_stdio_output@@V?$format_validation_base@_WV?$string_output_adapter@_W@__crt_stdio_output@@@2@@__crt_stdio_output@@AEAA_NXZ 000000018003224c     libucrt:output.obj
 0002:0000c24c       $unwind$strncpy_s          000000018003224c     libucrt:strncpy_s.obj
 0002:0000c24c       $unwind$wcsncpy_s          000000018003224c     libucrt:wcsncpy_s.obj
 0002:0000c258       $unwind$?ChangeBSTR@OposVariant@@QEAAXPEAPEA_WAEAJ@Z 0000000180032258     OposVariant.obj
 0002:0000c258       $unwind$?ChangeCURRENCY@OposVariant@@QEAAXPEATtagCY@@AEAJ@Z 0000000180032258     OposVariant.obj
 0002:0000c258       $unwind$?ChangeLONG@OposVariant@@QEAAXPEAJAEAJ@Z 0000000180032258     OposVariant.obj
 0002:0000c258       $unwind$?x_ismbbtype_l@@YAHPEAU__crt_locale_pointers@@IHH@Z 0000000180032258     libucrt:ismbbyte.obj
 0002:0000c268       $unwind$swprintf_s         0000000180032268     ElectronicValueRW.obj
 0002:0000c278       $unwind$?_AtlVerifyStackAvailable@_ATL_SAFE_ALLOCA_IMPL@ATL@@YA_N_K@Z 0000000180032278     ElectronicValueRW.obj
 0002:0000c2a4       $unwind$?filt$0@?0??_AtlVerifyStackAvailable@_ATL_SAFE_ALLOCA_IMPL@ATL@@YA_N_K@Z@4HA 00000001800322a4     ElectronicValueRW.obj
 0002:0000c2a4       $unwind$?fin$0@?0??dllmain_crt_process_attach@@YAHQEAUHINSTANCE__@@QEAX@Z@4HA 00000001800322a4     LIBCMT:dll_dllmain.obj
 0002:0000c2a4       $unwind$?fin$0@?0??dllmain_crt_process_detach@@YAH_N@Z@4HA 00000001800322a4     LIBCMT:dll_dllmain.obj
 0002:0000c2a4       $unwind$?fin$1@?0??dllmain_crt_process_detach@@YAH_N@Z@4HA 00000001800322a4     LIBCMT:dll_dllmain.obj
 0002:0000c2a4       $unwind$_IsNonwritableInCurrentImage$filt$0 00000001800322a4     LIBCMT:pesect.obj
 0002:0000c2a4       $unwind$?filt$0@?0??CxxCallCatchBlock@__FrameHandler4@@SAPEAXPEAU_EXCEPTION_RECORD@@@Z@4HA 00000001800322a4     libvcruntime:frame.obj
 0002:0000c2a4       $unwind$_query_new_handler$fin$0 00000001800322a4     libucrt:new_handler.obj
 0002:0000c2a4       $unwind$?fin$0@?0???$?RV<lambda_0ae27a3a962d80f24befdcbee591983d>@@AEAV<lambda_8d0ee55de4b1038c4002e0adecdf1839>@@V<lambda_dc504788e8f1664fe9b84e20bfb512f2>@@@?$__crt_seh_guarded_call@X@@QEAAX$$QEAV<lambda_0ae27a3a962d80f24befdcbee591983d>@@AEAV<lambda_8d0ee55de4b1038c4002e0adecdf1839>@@$$QEAV<lambda_dc504788e8f1664fe9b84e20bfb512f2>@@@Z@4HA 00000001800322a4     libucrt:per_thread_data.obj
 0002:0000c2a4       $unwind$?fin$0@?0???$?RV<lambda_2d41944a1d46af3157314b8a01080d33>@@AEAV<lambda_8f455de75cd7d7f24b4096f044d8b9e6>@@V<lambda_aa500f224e6afead328df44964fe2772>@@@?$__crt_seh_guarded_call@X@@QEAAX$$QEAV<lambda_2d41944a1d46af3157314b8a01080d33>@@AEAV<lambda_8f455de75cd7d7f24b4096f044d8b9e6>@@$$QEAV<lambda_aa500f224e6afead328df44964fe2772>@@@Z@4HA 00000001800322a4     libucrt:per_thread_data.obj
 0002:0000c2a4       $unwind$?fin$0@?0???$?RV<lambda_aa87e3671a710a21b5dc78c0bdf72e11>@@AEAV<lambda_92619d2358a28f41a33ba319515a20b9>@@V<lambda_6992ecaafeb10aed2b74cb1fae11a551>@@@?$__crt_seh_guarded_call@X@@QEAAX$$QEAV<lambda_aa87e3671a710a21b5dc78c0bdf72e11>@@AEAV<lambda_92619d2358a28f41a33ba319515a20b9>@@$$QEAV<lambda_6992ecaafeb10aed2b74cb1fae11a551>@@@Z@4HA 00000001800322a4     libucrt:per_thread_data.obj
 0002:0000c2a4       $unwind$?fin$0@?0???$?RV<lambda_f2e299630e499de9f9a165e60fcd3db5>@@AEAV<lambda_2ae9d31cdba2644fcbeaf08da7c24588>@@V<lambda_40d01ff24d0e7b3814fdbdcee8eab3c7>@@@?$__crt_seh_guarded_call@X@@QEAAX$$QEAV<lambda_f2e299630e499de9f9a165e60fcd3db5>@@AEAV<lambda_2ae9d31cdba2644fcbeaf08da7c24588>@@$$QEAV<lambda_40d01ff24d0e7b3814fdbdcee8eab3c7>@@@Z@4HA 00000001800322a4     libucrt:per_thread_data.obj
 0002:0000c2a4       $unwind$__acrt_update_thread_locale_data$fin$0 00000001800322a4     libucrt:locale_refcounting.obj
 0002:0000c2a4       $unwind$?fin$0@?0???$?RV<lambda_410d79af7f07d98d83a3f525b3859a53>@@AEAV<lambda_3e16ef9562a7dcce91392c22ab16ea36>@@V<lambda_38119f0e861e05405d8a144b9b982f0a>@@@?$__crt_seh_guarded_call@X@@QEAAX$$QEAV<lambda_410d79af7f07d98d83a3f525b3859a53>@@AEAV<lambda_3e16ef9562a7dcce91392c22ab16ea36>@@$$QEAV<lambda_38119f0e861e05405d8a144b9b982f0a>@@@Z@4HA 00000001800322a4     libucrt:wsetlocale.obj
 0002:0000c2a4       $unwind$?fin$0@?0???$?RV<lambda_751a882b2c74d4b022dec766aa51a29a>@@AEAV<lambda_628dfdc04ba53c8bfc02c9951375f3f5>@@V<lambda_f6c7be5f7998530c34de24c7437d6b54>@@@?$__crt_seh_guarded_call@H@@QEAAH$$QEAV<lambda_751a882b2c74d4b022dec766aa51a29a>@@AEAV<lambda_628dfdc04ba53c8bfc02c9951375f3f5>@@$$QEAV<lambda_f6c7be5f7998530c34de24c7437d6b54>@@@Z@4HA 00000001800322a4     libucrt:close.obj
 0002:0000c2a4       $unwind$?fin$0@?0???$?RV<lambda_a37b2b86f63e897a80ea819b0eb08c01>@@AEAV<lambda_38ce7e780aa69e748d6df282ebc68efe>@@V<lambda_99fb1378e971ab6e7edea83e3a7a83a2>@@@?$__crt_seh_guarded_call@H@@QEAAH$$QEAV<lambda_a37b2b86f63e897a80ea819b0eb08c01>@@AEAV<lambda_38ce7e780aa69e748d6df282ebc68efe>@@$$QEAV<lambda_99fb1378e971ab6e7edea83e3a7a83a2>@@@Z@4HA 00000001800322a4     libucrt:commit.obj
 0002:0000c2a4       $unwind$__acrt_initialize_lowio$fin$0 00000001800322a4     libucrt:ioinit.obj
 0002:0000c2a4       $unwind$__acrt_lowio_ensure_fh_exists$fin$0 00000001800322a4     libucrt:osfinfo.obj
 0002:0000c2a4       $unwind$_write$fin$0       00000001800322a4     libucrt:write.obj
 0002:0000c2a4       $unwind$?fin$0@?0???$?RV<lambda_efdfa57d1f175319df784efa44bb7b81>@@AEAV<lambda_5f0a4c1567f8adc6734073e5d1e1b35c>@@V<lambda_2e8a7d3640ea6ccb4c2413664c2db6fd>@@@?$__crt_seh_guarded_call@X@@QEAAX$$QEAV<lambda_efdfa57d1f175319df784efa44bb7b81>@@AEAV<lambda_5f0a4c1567f8adc6734073e5d1e1b35c>@@$$QEAV<lambda_2e8a7d3640ea6ccb4c2413664c2db6fd>@@@Z@4HA 00000001800322a4     libucrt:mbctype.obj
 0002:0000c2a4       $unwind$?fin$0@?0??update_thread_multibyte_data_internal@@YAPEAU__crt_multibyte_data@@QEAU__acrt_ptd@@QEAPEAU1@@Z@4HA 00000001800322a4     libucrt:mbctype.obj
 0002:0000c2a4       $unwind$?fin$0@?0???$?RV<lambda_450d765d439847d4c735a33c368b5fc0>@@AEAV<lambda_44731a7d0e6d81c3e6aa82d741081786>@@V<lambda_601a2a7da3b7a96e9554ac7215c4b07c>@@@?$__crt_seh_guarded_call@P6AXH@Z@@QEAAP6AXH@Z$$QEAV<lambda_450d765d439847d4c735a33c368b5fc0>@@AEAV<lambda_44731a7d0e6d81c3e6aa82d741081786>@@$$QEAV<lambda_601a2a7da3b7a96e9554ac7215c4b07c>@@@Z@4HA 00000001800322a4     libucrt:signal.obj
 0002:0000c2a4       $unwind$raise$fin$0        00000001800322a4     libucrt:signal.obj
 0002:0000c2a4       $unwind$?filt$0@?0???R<lambda_6e4b09c48022b2350581041d5f6b0c4c>@@QEBA@XZ@4HA 00000001800322a4     libucrt:exit.obj
 0002:0000c2a4       $unwind$?fin$0@?0???$?RV<lambda_d80eeec6fff315bfe5c115232f3240e3>@@AEAV<lambda_6e4b09c48022b2350581041d5f6b0c4c>@@V<lambda_2358e3775559c9db80273638284d5e45>@@@?$__crt_seh_guarded_call@X@@QEAAX$$QEAV<lambda_d80eeec6fff315bfe5c115232f3240e3>@@AEAV<lambda_6e4b09c48022b2350581041d5f6b0c4c>@@$$QEAV<lambda_2358e3775559c9db80273638284d5e45>@@@Z@4HA 00000001800322a4     libucrt:exit.obj
 0002:0000c2a4       $unwind$?fin$0@?0???$?RV<lambda_638799b9deba96c50f710eeac98168cd>@@AEAV<lambda_22ebabd17bc4fa466a2aca6d8deb888d>@@V<lambda_a6f7d7db0129f75315ebf26d50c089f1>@@@?$__crt_seh_guarded_call@H@@QEAAH$$QEAV<lambda_638799b9deba96c50f710eeac98168cd>@@AEAV<lambda_22ebabd17bc4fa466a2aca6d8deb888d>@@$$QEAV<lambda_a6f7d7db0129f75315ebf26d50c089f1>@@@Z@4HA 00000001800322a4     libucrt:onexit.obj
 0002:0000c2a4       $unwind$?fin$0@?0???$?RV<lambda_7777bce6b2f8c936911f934f8298dc43>@@AEAV<lambda_f03950bc5685219e0bcd2087efbe011e>@@V<lambda_3883c3dff614d5e0c5f61bb1ac94921c>@@@?$__crt_seh_guarded_call@H@@QEAAH$$QEAV<lambda_7777bce6b2f8c936911f934f8298dc43>@@AEAV<lambda_f03950bc5685219e0bcd2087efbe011e>@@$$QEAV<lambda_3883c3dff614d5e0c5f61bb1ac94921c>@@@Z@4HA 00000001800322a4     libucrt:onexit.obj
 0002:0000c2a4       $unwind$_fcloseall$fin$0   00000001800322a4     libucrt:closeall.obj
 0002:0000c2a4       $unwind$fclose$fin$0       00000001800322a4     libucrt:fclose.obj
 0002:0000c2a4       $unwind$?fin$0@?0???$?RV<lambda_842d9ff0dc9ef11c61343bbaebe7f885>@@AEAV<lambda_c5860995281e5c4ce005b3de8f5874ee>@@V<lambda_d90129c13df834fdcbf8d2b88dafcf2d>@@@?$__crt_seh_guarded_call@X@@QEAAX$$QEAV<lambda_842d9ff0dc9ef11c61343bbaebe7f885>@@AEAV<lambda_c5860995281e5c4ce005b3de8f5874ee>@@$$QEAV<lambda_d90129c13df834fdcbf8d2b88dafcf2d>@@@Z@4HA 00000001800322a4     libucrt:fflush.obj
 0002:0000c2a4       $unwind$?fin$0@?0???$?RV<lambda_886d6c58226a84441f68b9f2b8217b83>@@AEAV<lambda_ab61a845afdef5b7c387490eaf3616ee>@@V<lambda_f7f22ab5edc0698d5f6905b0d3f44752>@@@?$__crt_seh_guarded_call@X@@QEAAX$$QEAV<lambda_886d6c58226a84441f68b9f2b8217b83>@@AEAV<lambda_ab61a845afdef5b7c387490eaf3616ee>@@$$QEAV<lambda_f7f22ab5edc0698d5f6905b0d3f44752>@@@Z@4HA 00000001800322a4     libucrt:fflush.obj
 0002:0000c2a4       $unwind$_ctrlfp$filt$0     00000001800322a4     libucrt:fpctrl.obj
 0002:0000c2a4       $unwind$common_control87$filt$0 00000001800322a4     libucrt:ieee.obj
 0002:0000c2ac       $unwind$?AtlInternalOleLoadFromStream@ATL@@YAJPEAUIStream@@AEBU_GUID@@PEAPEAXTClassesAllowedInStream@1@K@Z 00000001800322ac     ElectronicValueRW.obj
 0002:0000c2c8       $unwind$?ReadFromStream@CComBSTR@ATL@@QEAAJPEAUIStream@@@Z 00000001800322c8     ElectronicValueRW.obj
 0002:0000c2c8       $unwind$_configure_narrow_argv 00000001800322c8     libucrt:argv_parsing.obj
 0002:0000c2dc       $unwind$?WriteToStream@CComVariant@ATL@@QEAAJPEAUIStream@@@Z 00000001800322dc     ElectronicValueRW.obj
 0002:0000c2f0       $unwind$?RegOpenKeyExW@CAtlTransactionManager@ATL@@QEAAJPEAUHKEY__@@PEB_WKKPEAPEAU3@@Z 00000001800322f0     ElectronicValueRW.obj
 0002:0000c2f0       $unwind$?WriteToStream@CComVariant@ATL@@QEAAJPEAUIStream@@G@Z 00000001800322f0     ElectronicValueRW.obj
 0002:0000c2f0       $unwind$__dcrt_write_console 00000001800322f0     libucrt:initcon.obj
 0002:0000c2f0       $unwind$??$__acrt_wcs_to_mbs_cp@U__crt_win32_buffer_no_resizing@@@@YAHQEB_WAEAV?$__crt_win32_buffer@DU__crt_win32_buffer_no_resizing@@@@I@Z 00000001800322f0     libucrt:getmodulefilenamea.obj
 0002:0000c304       $unwind$?ReadFromStream@CComVariant@ATL@@QEAAJPEAUIStream@@GTClassesAllowedInStream@2@K@Z 0000000180032304     ElectronicValueRW.obj
 0002:0000c31c       $unwind$?GetSizeMax@CComVariant@ATL@@QEBAJPEAT_ULARGE_INTEGER@@@Z 000000018003231c     ElectronicValueRW.obj
 0002:0000c334       $unwind$?RegCreateKeyExW@CAtlTransactionManager@ATL@@QEAAJPEAUHKEY__@@PEB_WKPEA_WKKQEAU_SECURITY_ATTRIBUTES@@PEAPEAU3@PEAK@Z 0000000180032334     ElectronicValueRW.obj
 0002:0000c348       $unwind$?GetGITPtr@CAtlModule@ATL@@UEAAJPEAPEAUIGlobalInterfaceTable@@@Z 0000000180032348     ElectronicValueRW.obj
 0002:0000c348       $unwind$?RegDeleteKeyW@CAtlTransactionManager@ATL@@QEAAJPEAUHKEY__@@PEB_W@Z 0000000180032348     ElectronicValueRW.obj
 0002:0000c348       $unwind$?getStateFromIterators@UWMap4@FH4@@SAHAEBViterator@12@H0H0@Z 0000000180032348     libvcruntime:frame.obj
 0002:0000c358       $unwind$?AtlHiMetricToPixel@ATL@@YAXPEBUtagSIZE@@PEAU2@@Z 0000000180032358     ElectronicValueRW.obj
 0002:0000c358       $unwind$?AtlInternalQueryInterface@ATL@@YAJPEAXPEBU_ATL_INTMAP_ENTRY@1@AEBU_GUID@@PEAPEAX@Z 0000000180032358     ElectronicValueRW.obj
 0002:0000c370       $unwind$?Append@CParseBuffer@CRegParser@ATL@@QEAAHPEB_WH@Z 0000000180032370     ElectronicValueRW.obj
 0002:0000c370       $unwind$?AtlComModuleGetClassObject@ATL@@YAJPEAU_ATL_COM_MODULE70@1@AEBU_GUID@@1PEAPEAX@Z 0000000180032370     ElectronicValueRW.obj
 0002:0000c370       $unwind$?EnumConnections@?$IConnectionPointImpl@VCOPOSElectronicValueRW@@$1?DIID__IOPOSElectronicValueRWEvents@@3U_GUID@@BVCComDynamicUnkArray@ATL@@@ATL@@UEAAJPEAPEAUIEnumConnections@@@Z 0000000180032370     ElectronicValueRW.obj
 0002:0000c370       $unwind$?EnumConnections@?$IConnectionPointImpl@VCOPOSElectronicValueRW@@$1?IID_IPropertyNotifySink@@3U_GUID@@BVCComDynamicUnkArray@ATL@@@ATL@@UEAAJPEAPEAUIEnumConnections@@@Z 0000000180032370     ElectronicValueRW.obj
 0002:0000c370       $unwind$?GetClassObject@CComModule@ATL@@QEAAJAEBU_GUID@@0PEAPEAX@Z 0000000180032370     ElectronicValueRW.obj
 0002:0000c370       $unwind$?Init@?$CComEnumImpl@UIEnumConnectionPoints@@$1?_GUID_b196b285_bab4_101a_b69c_00aa00341d07@@3U__s_GUID@@BPEAUIConnectionPoint@@V?$_CopyInterface@UIConnectionPoint@@@ATL@@@ATL@@QEAAJPEAPEAUIConnectionPoint@@0PEAUIUnknown@@W4CComEnumFlags@2@@Z 0000000180032370     ElectronicValueRW.obj
 0002:0000c370       $unwind$?Init@?$CComEnumImpl@UIEnumConnections@@$1?_GUID_b196b287_bab4_101a_b69c_00aa00341d07@@3U__s_GUID@@BUtagCONNECTDATA@@V?$_Copy@UtagCONNECTDATA@@@ATL@@@ATL@@QEAAJPEAUtagCONNECTDATA@@0PEAUIUnknown@@W4CComEnumFlags@2@@Z 0000000180032370     ElectronicValueRW.obj
 0002:0000c370       $unwind$?NextToken@CRegParser@ATL@@IEAAJPEA_W@Z 0000000180032370     ElectronicValueRW.obj
 0002:0000c370       $unwind$__acrt_fp_strflt_to_string 0000000180032370     libucrt:_fptostr.obj
 0002:0000c370       $unwind$__acrt_DownlevelLocaleNameToLCID 0000000180032370     libucrt:lcidtoname_downlevel.obj
 0002:0000c370       $unwind$??R<lambda_f03950bc5685219e0bcd2087efbe011e>@@QEBAHXZ 0000000180032370     libucrt:onexit.obj
 0002:0000c388       $unwind$?AtlRegisterClassCategoriesHelper@ATL@@YAJAEBU_GUID@@PEBU_ATL_CATMAP_ENTRY@1@H@Z 0000000180032388     ElectronicValueRW.obj
 0002:0000c3ac       $unwind$?AtlLoadTypeLib@ATL@@YAJPEAUHINSTANCE__@@PEB_WPEAPEA_WPEAPEAUITypeLib@@@Z 00000001800323ac     ElectronicValueRW.obj
 0002:0000c3cc       $unwind$?AtlRegisterTypeLib@ATL@@YAJPEAUHINSTANCE__@@PEB_W@Z 00000001800323cc     ElectronicValueRW.obj
 0002:0000c3e8       $unwind$?AtlUnRegisterTypeLib@ATL@@YAJPEAUHINSTANCE__@@PEB_W@Z 00000001800323e8     ElectronicValueRW.obj
 0002:0000c3f0       $unwind$?GetTI@CComTypeInfoHolder@ATL@@QEAAJK@Z 00000001800323f0     ElectronicValueRW.obj
 0002:0000c3f0       $unwind$?RecurseDeleteKey@CRegKey@ATL@@QEAAJPEB_W@Z 00000001800323f0     ElectronicValueRW.obj
 0002:0000c410       $unwind$?UpdateRegistryFromResource@CAtlModule@ATL@@QEAAJIHPEAU_ATL_REGMAP_ENTRY@2@@Z 0000000180032410     ElectronicValueRW.obj
 0002:0000c410       $unwind$?UpdateRegistryFromResource@CAtlModule@ATL@@QEAAJPEB_WHPEAU_ATL_REGMAP_ENTRY@2@@Z 0000000180032410     ElectronicValueRW.obj
 0002:0000c430       $unwind$?Lookup@?$CSimpleMap@PEA_WPEA_WVCExpansionVectorEqualHelper@ATL@@@ATL@@QEBAPEA_WAEBQEA_W@Z 0000000180032430     ElectronicValueRW.obj
 0002:0000c430       $unwind$__std_exception_copy 0000000180032430     libvcruntime:std_exception.obj
 0002:0000c430       $unwind$_free_osfhnd       0000000180032430     libucrt:osfinfo.obj
 0002:0000c444       $unwind$?Add@CExpansionVector@ATL@@QEAAHPEB_W0@Z 0000000180032444     ElectronicValueRW.obj
 0002:0000c45c       $unwind$?PreProcessBuffer@CRegParser@ATL@@QEAAJPEA_WPEAPEA_W@Z 000000018003245c     ElectronicValueRW.obj
 0002:0000c480       $unwind$?RegisterBuffer@CRegParser@ATL@@QEAAJPEA_WH@Z 0000000180032480     ElectronicValueRW.obj
 0002:0000c4a0       $unwind$?AddValue@CRegParser@ATL@@IEAAJAEAVCRegKey@2@PEB_WPEA_W@Z 00000001800324a0     ElectronicValueRW.obj
 0002:0000c4c0       $unwind$?RegisterSubkeys@CRegParser@ATL@@IEAAJPEA_WPEAUHKEY__@@HH@Z 00000001800324c0     ElectronicValueRW.obj
 0002:0000c4e0       $unwind$?SkipAssignment@CRegParser@ATL@@IEAAJPEA_W@Z 00000001800324e0     ElectronicValueRW.obj
 0002:0000c4f8       $unwind$?RegisterFromResource@CRegObject@ATL@@IEAAJPEB_W00H@Z 00000001800324f8     ElectronicValueRW.obj
 0002:0000c518       $unwind$?Cleanup@CComTypeInfoHolder@ATL@@SAX_K@Z 0000000180032518     ElectronicValueRW.obj
 0002:0000c518       $unwind$AtlThunk_FreeData  0000000180032518     atls:atlthunk.obj
 0002:0000c518       $unwind$_free_base         0000000180032518     libucrt:free_base.obj
 0002:0000c518       $unwind$?destroy_fls@@YAXPEAX@Z 0000000180032518     libucrt:per_thread_data.obj
 0002:0000c518       $unwind$__acrt_locale_free_numeric 0000000180032518     libucrt:initnum.obj
 0002:0000c518       $unwind$__acrt_locale_free_lc_time_if_unreferenced 0000000180032518     libucrt:locale_refcounting.obj
 0002:0000c520       $unwind$?GetIDsOfNames@CComTypeInfoHolder@ATL@@QEAAJAEBU_GUID@@PEAPEA_WIKPEAJ@Z 0000000180032520     ElectronicValueRW.obj
 0002:0000c53c       $unwind$?LoadNameCache@CComTypeInfoHolder@ATL@@QEAAJPEAUITypeInfo@@@Z 000000018003253c     ElectronicValueRW.obj
 0002:0000c550       $unwind$?StartWindowProc@?$CWindowImplBaseT@VCWindow@ATL@@V?$CWinTraits@$0FGAAAAAA@$0A@@2@@ATL@@SA_JPEAUHWND__@@I_K_J@Z 0000000180032550     ElectronicValueRW.obj
 0002:0000c550       $unwind$?should_round_up@@YA_NQEBN_KFW4__acrt_rounding_mode@@@Z 0000000180032550     libucrt:cvt.obj
 0002:0000c550       $unwind$??$parse_command_line@D@@YAXPEADPEAPEAD0PEA_K2@Z 0000000180032550     libucrt:argv_parsing.obj
 0002:0000c56c       $unwind$?WindowProc@?$CWindowImplBaseT@VCWindow@ATL@@V?$CWinTraits@$0FGAAAAAA@$0A@@2@@ATL@@SA_JPEAUHWND__@@I_K_J@Z 000000018003256c     ElectronicValueRW.obj
 0002:0000c584       $unwind$?atlCreate@?$CWindowImplBaseT@VCWindow@ATL@@V?$CWinTraits@$0FGAAAAAA@$0A@@2@@ATL@@QEAAPEAUHWND__@@PEAU3@V_U_RECT@2@PEB_WKKV_U_MENUorID@2@GPEAX@Z 0000000180032584     ElectronicValueRW.obj
 0002:0000c59c       $unwind$??$AtlModuleRegisterWndClassInfoT@VAtlModuleRegisterWndClassInfoParamW@ATL@@@ATL@@YAGPEAU_ATL_BASE_MODULE70@0@PEAU_ATL_WIN_MODULE70@0@PEAU_ATL_WNDCLASSINFOW@0@PEAP6A_JPEAUHWND__@@I_K_J@ZVAtlModuleRegisterWndClassInfoParamW@0@@Z 000000018003259c     ElectronicValueRW.obj
 0002:0000c5bc       $unwind$?GetZoomInfo@CComControlBase@ATL@@QEAAXAEAUATL_DRAWINFO@@@Z 00000001800325bc     ElectronicValueRW.obj
 0002:0000c5bc       $unwind$?OnKillFocus@CComControlBase@ATL@@QEAA_JI_K_JAEAH@Z 00000001800325bc     ElectronicValueRW.obj
 0002:0000c5bc       $unwind$iswctype           00000001800325bc     libucrt:iswctype.obj
 0002:0000c5c8       $unwind$?SendOnDataChange@CComControlBase@ATL@@QEAAJK@Z 00000001800325c8     ElectronicValueRW.obj
 0002:0000c5d8       $unwind$?OnSetFocus@CComControlBase@ATL@@QEAA_JI_K_JAEAH@Z 00000001800325d8     ElectronicValueRW.obj
 0002:0000c5e8       $unwind$?OnMouseActivate@CComControlBase@ATL@@QEAA_JI_K_JAEAH@Z 00000001800325e8     ElectronicValueRW.obj
 0002:0000c5f0       $unwind$?GetAmbientLocaleID@CComControlBase@ATL@@QEAAJAEAK@Z 00000001800325f0     ElectronicValueRW.obj
 0002:0000c5f0       $unwind$?GetAmbientUserMode@CComControlBase@ATL@@QEAAJAEAH@Z 00000001800325f0     ElectronicValueRW.obj
 0002:0000c600       $unwind$?IQuickActivate_QuickActivate@CComControlBase@ATL@@QEAAJPEAUtagQACONTAINER@@PEAUtagQACONTROL@@@Z 0000000180032600     ElectronicValueRW.obj
 0002:0000c618       $unwind$?DoVerbProperties@CComControlBase@ATL@@QEAAJPEBUtagRECT@@PEAUHWND__@@@Z 0000000180032618     ElectronicValueRW.obj
 0002:0000c630       $unwind$?InPlaceActivate@CComControlBase@ATL@@QEAAJJPEBUtagRECT@@@Z 0000000180032630     ElectronicValueRW.obj
 0002:0000c650       $unwind$?IOleObject_Close@CComControlBase@ATL@@QEAAJK@Z 0000000180032650     ElectronicValueRW.obj
 0002:0000c650       $unwind$?type_case_c_tchar@?$output_processor@_WV?$string_output_adapter@_W@__crt_stdio_output@@V?$format_validation_base@_WV?$string_output_adapter@_W@__crt_stdio_output@@@2@@__crt_stdio_output@@AEAA_N_W@Z 0000000180032650     libucrt:output.obj
 0002:0000c660       $unwind$?IOleInPlaceObject_UIDeactivate@CComControlBase@ATL@@QEAAJXZ 0000000180032660     ElectronicValueRW.obj
 0002:0000c678       $unwind$?IOleInPlaceObject_SetObjectRects@CComControlBase@ATL@@QEAAJPEBUtagRECT@@0@Z 0000000180032678     ElectronicValueRW.obj
 0002:0000c68c       $unwind$?IViewObject_Draw@CComControlBase@ATL@@QEAAJKJPEAXPEAUtagDVTARGETDEVICE@@PEAUHDC__@@2PEBU_RECTL@@3@Z 000000018003268c     ElectronicValueRW.obj
 0002:0000c6a8       $unwind$?IDataObject_GetData@CComControlBase@ATL@@QEAAJPEAUtagFORMATETC@@PEAUtagSTGMEDIUM@@@Z 00000001800326a8     ElectronicValueRW.obj
 0002:0000c6c8       $unwind$?OnPaint@CComControlBase@ATL@@QEAA_JI_K_JAEAH@Z 00000001800326c8     ElectronicValueRW.obj
 0002:0000c6e4       $unwind$?OnDrawAdvanced@CComControlBase@ATL@@UEAAJAEAUATL_DRAWINFO@@@Z 00000001800326e4     ElectronicValueRW.obj
 0002:0000c700       $unwind$?Invoke@?$IDispatchImpl@UIOPOSElectronicValueRW@@$1?IID_IOPOSElectronicValueRW@@3U_GUID@@B$1?LIBID_OposElectronicValueRW_CCO@@3U3@B$00$0A@VCComTypeInfoHolder@ATL@@@ATL@@UEAAJJAEBU_GUID@@KGPEAUtagDISPPARAMS@@PEAUtagVARIANT@@PEAUtagEXCEPINFO@@PEAI@Z 0000000180032700     ElectronicValueRW.obj
 0002:0000c700       $unwind$?ReleaseDevice@COPOSElectronicValueRW@@UEAAJPEAJ@Z 0000000180032700     ElectronicValueRWImpl.obj
 0002:0000c700       $unwind$_mbsdec_l          0000000180032700     libucrt:mbsdec.obj
 0002:0000c70c       $unwind$?atlCreate@?$CWindowImpl@VCOPOSElectronicValueRW@@VCWindow@ATL@@V?$CWinTraits@$0FGAAAAAA@$0A@@3@@ATL@@QEAAPEAUHWND__@@PEAU3@V_U_RECT@2@PEB_WKKV_U_MENUorID@2@PEAX@Z 000000018003270c     ElectronicValueRW.obj
 0002:0000c70c       $unwind$?fp_format_e@@YAHQEBNQEAD_K12H_NIQEAU__crt_locale_pointers@@W4__acrt_rounding_mode@@@Z 000000018003270c     libucrt:cvt.obj
 0002:0000c70c       $unwind$_mbtowc_l          000000018003270c     libucrt:mbtowc.obj
 0002:0000c70c       $unwind$__acrt_LCMapStringEx 000000018003270c     libucrt:winapi_thunks.obj
 0002:0000c720       $unwind$?CreateControlWindow@?$CComControl@VCOPOSElectronicValueRW@@V?$CWindowImpl@VCOPOSElectronicValueRW@@VCWindow@ATL@@V?$CWinTraits@$0FGAAAAAA@$0A@@3@@ATL@@@ATL@@UEAAPEAUHWND__@@PEAU3@AEAUtagRECT@@@Z 0000000180032720     ElectronicValueRW.obj
 0002:0000c720       $unwind$?CaptureCard@COPOSElectronicValueRW@@UEAAJPEAJ@Z 0000000180032720     ElectronicValueRWImpl.obj
 0002:0000c720       $unwind$?ClearInput@COPOSElectronicValueRW@@UEAAJPEAJ@Z 0000000180032720     ElectronicValueRWImpl.obj
 0002:0000c720       $unwind$?ClearInputProperties@COPOSElectronicValueRW@@UEAAJPEAJ@Z 0000000180032720     ElectronicValueRWImpl.obj
 0002:0000c720       $unwind$?ClearOutput@COPOSElectronicValueRW@@UEAAJPEAJ@Z 0000000180032720     ElectronicValueRWImpl.obj
 0002:0000c720       $unwind$?ClearParameterInformation@COPOSElectronicValueRW@@UEAAJPEAJ@Z 0000000180032720     ElectronicValueRWImpl.obj
 0002:0000c720       $unwind$?EndDetection@COPOSElectronicValueRW@@UEAAJPEAJ@Z 0000000180032720     ElectronicValueRWImpl.obj
 0002:0000c720       $unwind$?EndRemoval@COPOSElectronicValueRW@@UEAAJPEAJ@Z 0000000180032720     ElectronicValueRWImpl.obj
 0002:0000c720       $unwind$?EnumerateCardServices@COPOSElectronicValueRW@@UEAAJPEAJ@Z 0000000180032720     ElectronicValueRWImpl.obj
 0002:0000c720       $unwind$?LockTerminal@COPOSElectronicValueRW@@UEAAJPEAJ@Z 0000000180032720     ElectronicValueRWImpl.obj
 0002:0000c720       $unwind$?QueryLastSuccessfulTransactionResult@COPOSElectronicValueRW@@UEAAJPEAJ@Z 0000000180032720     ElectronicValueRWImpl.obj
 0002:0000c720       $unwind$?UnlockTerminal@COPOSElectronicValueRW@@UEAAJPEAJ@Z 0000000180032720     ElectronicValueRWImpl.obj
 0002:0000c720       $unwind$?__scrt_throw_std_bad_alloc@@YAXXZ 0000000180032720     LIBCMT:throw_bad_alloc.obj
 0002:0000c720       $unwind$?__scrt_throw_std_bad_array_new_length@@YAXXZ 0000000180032720     LIBCMT:throw_bad_alloc.obj
 0002:0000c720       $unwind$_raise_exc         0000000180032720     libucrt:fpexcept.obj
 0002:0000c728       $unwind$?GetSizeMax@?$IPersistStreamInitImpl@VCOPOSElectronicValueRW@@@ATL@@UEAAJPEAT_ULARGE_INTEGER@@@Z 0000000180032728     ElectronicValueRW.obj
 0002:0000c740       $unwind$?IPersistStreamInit_Load@?$IPersistStreamInitImpl@VCOPOSElectronicValueRW@@@ATL@@QEAAJPEAUIStream@@PEBUATL_PROPMAP_ENTRY@2@@Z 0000000180032740     ElectronicValueRW.obj
 0002:0000c75c       $unwind$?IPersistStreamInit_Save@?$IPersistStreamInitImpl@VCOPOSElectronicValueRW@@@ATL@@QEAAJPEAUIStream@@HPEBUATL_PROPMAP_ENTRY@2@@Z 000000018003275c     ElectronicValueRW.obj
 0002:0000c778       $unwind$?DoVerbPrimary@?$IOleObjectImpl@VCOPOSElectronicValueRW@@@ATL@@QEAAJPEBUtagRECT@@PEAUHWND__@@@Z 0000000180032778     ElectronicValueRW.obj
 0002:0000c778       $unwind$?AddValue@COPOSElectronicValueRW@@UEAAJJJPEAJ@Z 0000000180032778     ElectronicValueRWImpl.obj
 0002:0000c778       $unwind$?BeginDetection@COPOSElectronicValueRW@@UEAAJJJPEAJ@Z 0000000180032778     ElectronicValueRWImpl.obj
 0002:0000c778       $unwind$?CancelValue@COPOSElectronicValueRW@@UEAAJJJPEAJ@Z 0000000180032778     ElectronicValueRWImpl.obj
 0002:0000c778       $unwind$?CheckCard@COPOSElectronicValueRW@@UEAAJJJPEAJ@Z 0000000180032778     ElectronicValueRWImpl.obj
 0002:0000c778       $unwind$?CheckServiceRegistrationToMedium@COPOSElectronicValueRW@@UEAAJJJPEAJ@Z 0000000180032778     ElectronicValueRWImpl.obj
 0002:0000c778       $unwind$?ReadValue@COPOSElectronicValueRW@@UEAAJJJPEAJ@Z 0000000180032778     ElectronicValueRWImpl.obj
 0002:0000c778       $unwind$?RegisterServiceToMedium@COPOSElectronicValueRW@@UEAAJJJPEAJ@Z 0000000180032778     ElectronicValueRWImpl.obj
 0002:0000c778       $unwind$?SubtractValue@COPOSElectronicValueRW@@UEAAJJJPEAJ@Z 0000000180032778     ElectronicValueRWImpl.obj
 0002:0000c778       $unwind$?UnregisterServiceToMedium@COPOSElectronicValueRW@@UEAAJJJPEAJ@Z 0000000180032778     ElectronicValueRWImpl.obj
 0002:0000c778       $unwind$?WriteValue@COPOSElectronicValueRW@@UEAAJJJPEAJ@Z 0000000180032778     ElectronicValueRWImpl.obj
 0002:0000c790       $unwind$?TranslateAcceleratorW@?$IOleInPlaceActiveObjectImpl@VCOPOSElectronicValueRW@@@ATL@@UEAAJPEAUtagMSG@@@Z 0000000180032790     ElectronicValueRW.obj
 0002:0000c79c       $unwind$?Draw@?$IViewObjectExImpl@VCOPOSElectronicValueRW@@@ATL@@UEAAJKJPEAXPEAUtagDVTARGETDEVICE@@PEAUHDC__@@2PEBU_RECTL@@3P6AH_K@Z4@Z 000000018003279c     ElectronicValueRW.obj
 0002:0000c7a4       $unwind$?QueryHitRect@?$IViewObjectExImpl@VCOPOSElectronicValueRW@@@ATL@@UEAAJKPEBUtagRECT@@0JPEAK@Z 00000001800327a4     ElectronicValueRW.obj
 0002:0000c7b4       $unwind$?OnWindowMessage@?$IOleInPlaceObjectWindowlessImpl@VCOPOSElectronicValueRW@@@ATL@@UEAAJI_K_JPEA_J@Z 00000001800327b4     ElectronicValueRW.obj
 0002:0000c7c8       $unwind$?EnumConnectionPoints@?$IConnectionPointContainerImpl@VCOPOSElectronicValueRW@@@ATL@@UEAAJPEAPEAUIEnumConnectionPoints@@@Z 00000001800327c8     ElectronicValueRW.obj
 0002:0000c7f0       $unwind$?FindConnectionPoint@?$IConnectionPointContainerImpl@VCOPOSElectronicValueRW@@@ATL@@UEAAJAEBU_GUID@@PEAPEAUIConnectionPoint@@@Z 00000001800327f0     ElectronicValueRW.obj
 0002:0000c7f0       $unwind$?__mbrtoc32_utf8@__crt_mbstring@@YA_KPEA_UPEBD_KPEAU_Mbstatet@@@Z 00000001800327f0     libucrt:mbrtoc32.obj
 0002:0000c80c       $unwind$?Load@?$IPersistStorageImpl@VCOPOSElectronicValueRW@@@ATL@@UEAAJPEAUIStorage@@@Z 000000018003280c     ElectronicValueRW.obj
 0002:0000c81c       $unwind$?Save@?$IPersistStorageImpl@VCOPOSElectronicValueRW@@@ATL@@UEAAJPEAUIStorage@@H@Z 000000018003281c     ElectronicValueRW.obj
 0002:0000c830       $unwind$?IPSI_GetIPersistStreamInit@?$IPersistStorageImpl@VCOPOSElectronicValueRW@@@ATL@@AEAAPEAUIPersistStreamInit@@XZ 0000000180032830     ElectronicValueRW.obj
 0002:0000c830       $unwind$?parse_int_from_format_string@?$output_processor@_WV?$string_output_adapter@_W@__crt_stdio_output@@V?$format_validation_base@_WV?$string_output_adapter@_W@__crt_stdio_output@@@2@@__crt_stdio_output@@AEAA_NQEAH@Z 0000000180032830     libucrt:output.obj
 0002:0000c844       $unwind$?GetInterfaceSafetyOptions@?$IObjectSafetyImpl@VCOPOSElectronicValueRW@@$02@ATL@@UEAAJAEBU_GUID@@PEAK1@Z 0000000180032844     ElectronicValueRW.obj
 0002:0000c858       $unwind$?SetInterfaceSafetyOptions@?$IObjectSafetyImpl@VCOPOSElectronicValueRW@@$02@ATL@@UEAAJAEBU_GUID@@KK@Z 0000000180032858     ElectronicValueRW.obj
 0002:0000c86c       $unwind$?Advise@?$IConnectionPointImpl@VCOPOSElectronicValueRW@@$1?DIID__IOPOSElectronicValueRWEvents@@3U_GUID@@BVCComDynamicUnkArray@ATL@@@ATL@@UEAAJPEAUIUnknown@@PEAK@Z 000000018003286c     ElectronicValueRW.obj
 0002:0000c86c       $unwind$?Advise@?$IConnectionPointImpl@VCOPOSElectronicValueRW@@$1?IID_IPropertyNotifySink@@3U_GUID@@BVCComDynamicUnkArray@ATL@@@ATL@@UEAAJPEAUIUnknown@@PEAK@Z 000000018003286c     ElectronicValueRW.obj
 0002:0000c880       $unwind$?Fire_DataEvent@?$CProxy_IOPOSEvents@VCOPOSElectronicValueRW@@@@QEAAXJ@Z 0000000180032880     ElectronicValueRW.obj
 0002:0000c880       $unwind$?Fire_OutputCompleteEvent@?$CProxy_IOPOSEvents@VCOPOSElectronicValueRW@@@@QEAAXJ@Z 0000000180032880     ElectronicValueRW.obj
 0002:0000c880       $unwind$?Fire_StatusUpdateEvent@?$CProxy_IOPOSEvents@VCOPOSElectronicValueRW@@@@QEAAXJ@Z 0000000180032880     ElectronicValueRW.obj
 0002:0000c898       $unwind$?Fire_DirectIOEvent@?$CProxy_IOPOSEvents@VCOPOSElectronicValueRW@@@@QEAAXJPEAJPEAPEA_W@Z 0000000180032898     ElectronicValueRW.obj
 0002:0000c898       $unwind$?Fire_TransitionEvent@?$CProxy_IOPOSEvents@VCOPOSElectronicValueRW@@@@QEAAXJPEAJPEAPEA_W@Z 0000000180032898     ElectronicValueRW.obj
 0002:0000c8b8       $unwind$?Fire_ErrorEvent@?$CProxy_IOPOSEvents@VCOPOSElectronicValueRW@@@@QEAAXJJJPEAJ@Z 00000001800328b8     ElectronicValueRW.obj
 0002:0000c8d8       $unwind$?FireTheEvent@?$CProxy_IOPOSEvents@VCOPOSElectronicValueRW@@@@IEAAXPEAVOposVariant@@IAEAJPEB_WJ@Z 00000001800328d8     ElectronicValueRW.obj
 0002:0000c8e8       $unwind$?ProcessWindowMessage@COPOSElectronicValueRW@@UEAAHPEAUHWND__@@I_K_JAEA_JK@Z 00000001800328e8     ElectronicValueRW.obj
 0002:0000c8e8       $unwind$__dcrt_get_narrow_environment_from_os 00000001800328e8     libucrt:get_environment_from_os.obj
 0002:0000c8e8       $unwind$?fp_format_f_internal@@YAHQEAD_KHQEAU_strflt@@_NQEAU__crt_locale_pointers@@@Z 00000001800328e8     libucrt:cvt.obj
 0002:0000c8e8       $unwind$??$__acrt_wcs_to_mbs_cp@U__crt_win32_buffer_internal_dynamic_resizing@@@@YAHQEB_WAEAV?$__crt_win32_buffer@DU__crt_win32_buffer_internal_dynamic_resizing@@@@I@Z 00000001800328e8     libucrt:argv_wildcards.obj
 0002:0000c900       $unwind$?SOError@COPOSElectronicValueRW@@MEAAJJJJPEAJ@Z 0000000180032900     ElectronicValueRW.obj
 0002:0000c900       $unwind$_invalid_parameter 0000000180032900     libucrt:invalid_parameter.obj
 0002:0000c914       $unwind$?Clone@?$CComEnumImpl@UIEnumConnectionPoints@@$1?_GUID_b196b285_bab4_101a_b69c_00aa00341d07@@3U__s_GUID@@BPEAUIConnectionPoint@@V?$_CopyInterface@UIConnectionPoint@@@ATL@@@ATL@@UEAAJPEAPEAUIEnumConnectionPoints@@@Z 0000000180032914     ElectronicValueRW.obj
 0002:0000c914       $unwind$?Clone@?$CComEnumImpl@UIEnumConnections@@$1?_GUID_b196b287_bab4_101a_b69c_00aa00341d07@@3U__s_GUID@@BUtagCONNECTDATA@@V?$_Copy@UtagCONNECTDATA@@@ATL@@@ATL@@UEAAJPEAPEAUIEnumConnections@@@Z 0000000180032914     ElectronicValueRW.obj
 0002:0000c92c       $unwind$?GetOposProp@COPOSElectronicValueRW@@IEAAJJPEAJJ@Z 000000018003292c     ElectronicValueRWImpl.obj
 0002:0000c92c       $unwind$?GetOposProp@COPOSElectronicValueRW@@IEAAJJPEAPEA_WJ@Z 000000018003292c     ElectronicValueRWImpl.obj
 0002:0000c944       $unwind$?SetOposProp@COPOSElectronicValueRW@@IEAAJJJJ@Z 0000000180032944     ElectronicValueRWImpl.obj
 0002:0000c964       $unwind$?SetOposProp@COPOSElectronicValueRW@@IEAAJJPEA_WJ@Z 0000000180032964     ElectronicValueRWImpl.obj
 0002:0000c980       $unwind$?DoInvoke@COPOSElectronicValueRW@@IEAAJJPEAVOposVariant@@IHPEAJ_N@Z 0000000180032980     ElectronicValueRWImpl.obj
 0002:0000c998       $unwind$?SetCOFreezeEvents@COPOSElectronicValueRW@@IEAAXF@Z 0000000180032998     ElectronicValueRWImpl.obj
 0002:0000c9ac       $unwind$?OnDraw@COPOSElectronicValueRW@@MEAAJAEAUATL_DRAWINFO@@@Z 00000001800329ac     ElectronicValueRWImpl.obj
 0002:0000c9c4       $unwind$?EventInit@COPOSElectronicValueRW@@IEAAJXZ 00000001800329c4     ElectronicValueRWImpl.obj
 0002:0000c9d8       $unwind$?EventWindowProc@COPOSElectronicValueRW@@IEAA_JI_K_J@Z 00000001800329d8     ElectronicValueRWImpl.obj
 0002:0000c9d8       $unwind$__stdio_common_vswprintf_s 00000001800329d8     libucrt:output.obj
 0002:0000c9e4       $unwind$?get_ControlObjectDescription@COPOSElectronicValueRW@@UEAAJPEAPEA_W@Z 00000001800329e4     ElectronicValueRWImpl.obj
 0002:0000c9e4       $unwind$__dcrt_lowio_ensure_console_output_initialized 00000001800329e4     libucrt:initcon.obj
 0002:0000c9e4       $unwind$_isleadbyte_l      00000001800329e4     libucrt:_wctype.obj
 0002:0000c9e4       $unwind$?getSystemCP@@YAHH@Z 00000001800329e4     libucrt:mbctype.obj
 0002:0000c9ec       $unwind$?BeginRemoval@COPOSElectronicValueRW@@UEAAJJPEAJ@Z 00000001800329ec     ElectronicValueRWImpl.obj
 0002:0000c9ec       $unwind$?CheckHealth@COPOSElectronicValueRW@@UEAAJJPEAJ@Z 00000001800329ec     ElectronicValueRWImpl.obj
 0002:0000c9ec       $unwind$?ResetStatistics@COPOSElectronicValueRW@@UEAAJPEA_WPEAJ@Z 00000001800329ec     ElectronicValueRWImpl.obj
 0002:0000c9ec       $unwind$?RetrieveStatistics@COPOSElectronicValueRW@@UEAAJPEAPEA_WPEAJ@Z 00000001800329ec     ElectronicValueRWImpl.obj
 0002:0000c9ec       $unwind$?TransactionAccess@COPOSElectronicValueRW@@UEAAJJPEAJ@Z 00000001800329ec     ElectronicValueRWImpl.obj
 0002:0000c9ec       $unwind$?UpdateFirmware@COPOSElectronicValueRW@@UEAAJPEA_WPEAJ@Z 00000001800329ec     ElectronicValueRWImpl.obj
 0002:0000c9ec       $unwind$?UpdateStatistics@COPOSElectronicValueRW@@UEAAJPEA_WPEAJ@Z 00000001800329ec     ElectronicValueRWImpl.obj
 0002:0000c9fc       $unwind$?ClaimDevice@COPOSElectronicValueRW@@UEAAJJPEAJ@Z 00000001800329fc     ElectronicValueRWImpl.obj
 0002:0000ca0c       $unwind$?Close@COPOSElectronicValueRW@@UEAAJPEAJ@Z 0000000180032a0c     ElectronicValueRWImpl.obj
 0002:0000ca18       $unwind$?AccessData@COPOSElectronicValueRW@@UEAAJJPEAJPEAPEA_W0@Z 0000000180032a18     ElectronicValueRWImpl.obj
 0002:0000ca18       $unwind$?DirectIO@COPOSElectronicValueRW@@UEAAJJPEAJPEAPEA_W0@Z 0000000180032a18     ElectronicValueRWImpl.obj
 0002:0000ca18       $unwind$?UpdateData@COPOSElectronicValueRW@@UEAAJJPEAJPEAPEA_W0@Z 0000000180032a18     ElectronicValueRWImpl.obj
 0002:0000ca34       $unwind$?Open@COPOSElectronicValueRW@@UEAAJPEA_WPEAJ@Z 0000000180032a34     ElectronicValueRWImpl.obj
 0002:0000ca58       $unwind$?ActivateEVService@COPOSElectronicValueRW@@UEAAJPEAJPEAPEA_W0@Z 0000000180032a58     ElectronicValueRWImpl.obj
 0002:0000ca58       $unwind$?ActivateService@COPOSElectronicValueRW@@UEAAJPEAJPEAPEA_W0@Z 0000000180032a58     ElectronicValueRWImpl.obj
 0002:0000ca58       $unwind$?CloseDailyEVService@COPOSElectronicValueRW@@UEAAJPEAJPEAPEA_W0@Z 0000000180032a58     ElectronicValueRWImpl.obj
 0002:0000ca58       $unwind$?CompareFirmwareVersion@COPOSElectronicValueRW@@UEAAJPEA_WPEAJ1@Z 0000000180032a58     ElectronicValueRWImpl.obj
 0002:0000ca58       $unwind$?DeactivateEVService@COPOSElectronicValueRW@@UEAAJPEAJPEAPEA_W0@Z 0000000180032a58     ElectronicValueRWImpl.obj
 0002:0000ca58       $unwind$?OpenDailyEVService@COPOSElectronicValueRW@@UEAAJPEAJPEAPEA_W0@Z 0000000180032a58     ElectronicValueRWImpl.obj
 0002:0000ca58       $unwind$?RetrieveResultInformation@COPOSElectronicValueRW@@UEAAJPEA_WPEAPEA_WPEAJ@Z 0000000180032a58     ElectronicValueRWImpl.obj
 0002:0000ca58       $unwind$?SetParameterInformation@COPOSElectronicValueRW@@UEAAJPEA_W0PEAJ@Z 0000000180032a58     ElectronicValueRWImpl.obj
 0002:0000ca58       $unwind$?UpdateKey@COPOSElectronicValueRW@@UEAAJPEAJPEAPEA_W0@Z 0000000180032a58     ElectronicValueRWImpl.obj
 0002:0000ca58       $unwind$?initialize_inherited_file_handles_nolock@@YAXXZ 0000000180032a58     libucrt:ioinit.obj
 0002:0000ca74       $unwind$?get_Amount@COPOSElectronicValueRW@@UEAAJPEATtagCY@@@Z 0000000180032a74     ElectronicValueRWImpl.obj
 0002:0000ca74       $unwind$?get_Balance@COPOSElectronicValueRW@@UEAAJPEATtagCY@@@Z 0000000180032a74     ElectronicValueRWImpl.obj
 0002:0000ca74       $unwind$?get_BalanceOfPoint@COPOSElectronicValueRW@@UEAAJPEATtagCY@@@Z 0000000180032a74     ElectronicValueRWImpl.obj
 0002:0000ca74       $unwind$?get_Point@COPOSElectronicValueRW@@UEAAJPEATtagCY@@@Z 0000000180032a74     ElectronicValueRWImpl.obj
 0002:0000ca74       $unwind$?get_SettledAmount@COPOSElectronicValueRW@@UEAAJPEATtagCY@@@Z 0000000180032a74     ElectronicValueRWImpl.obj
 0002:0000ca74       $unwind$?get_SettledPoint@COPOSElectronicValueRW@@UEAAJPEATtagCY@@@Z 0000000180032a74     ElectronicValueRWImpl.obj
 0002:0000ca88       $unwind$?put_Amount@COPOSElectronicValueRW@@UEAAJTtagCY@@@Z 0000000180032a88     ElectronicValueRWImpl.obj
 0002:0000ca88       $unwind$?put_Point@COPOSElectronicValueRW@@UEAAJTtagCY@@@Z 0000000180032a88     ElectronicValueRWImpl.obj
 0002:0000caa0       $unwind$?AccessDailyLog@COPOSElectronicValueRW@@UEAAJJJJPEAJ@Z 0000000180032aa0     ElectronicValueRWImpl.obj
 0002:0000caa0       $unwind$?AccessLog@COPOSElectronicValueRW@@UEAAJJJJPEAJ@Z 0000000180032aa0     ElectronicValueRWImpl.obj
 0002:0000caa0       $unwind$?CashDeposit@COPOSElectronicValueRW@@UEAAJJTtagCY@@JPEAJ@Z 0000000180032aa0     ElectronicValueRWImpl.obj
 0002:0000cabc       $unwind$?AuthorizeCompletion@COPOSElectronicValueRW@@UEAAJJTtagCY@@0JPEAJ@Z 0000000180032abc     ElectronicValueRWImpl.obj
 0002:0000cabc       $unwind$?AuthorizePreSales@COPOSElectronicValueRW@@UEAAJJTtagCY@@0JPEAJ@Z 0000000180032abc     ElectronicValueRWImpl.obj
 0002:0000cabc       $unwind$?AuthorizeRefund@COPOSElectronicValueRW@@UEAAJJTtagCY@@0JPEAJ@Z 0000000180032abc     ElectronicValueRWImpl.obj
 0002:0000cabc       $unwind$?AuthorizeSales@COPOSElectronicValueRW@@UEAAJJTtagCY@@0JPEAJ@Z 0000000180032abc     ElectronicValueRWImpl.obj
 0002:0000cabc       $unwind$?AuthorizeVoid@COPOSElectronicValueRW@@UEAAJJTtagCY@@0JPEAJ@Z 0000000180032abc     ElectronicValueRWImpl.obj
 0002:0000cabc       $unwind$?AuthorizeVoidPreSales@COPOSElectronicValueRW@@UEAAJJTtagCY@@0JPEAJ@Z 0000000180032abc     ElectronicValueRWImpl.obj
 0002:0000cad8       $unwind$__scrt_is_nonwritable_in_current_image 0000000180032ad8     LIBCMT:utility.obj
 0002:0000caf8       $unwind$__scrt_is_nonwritable_in_current_image$filt$0 0000000180032af8     LIBCMT:utility.obj
 0002:0000cb00       $unwind$__report_securityfailure 0000000180032b00     LIBCMT:gs_report.obj
 0002:0000cb08       $unwind$__report_gsfailure 0000000180032b08     LIBCMT:gs_report.obj
 0002:0000cb10       $unwind$capture_current_context 0000000180032b10     LIBCMT:gs_report.obj
 0002:0000cb1c       $unwind$capture_previous_context 0000000180032b1c     LIBCMT:gs_report.obj
 0002:0000cb28       $unwind$??2@YAPEAX_KAEBUnothrow_t@std@@@Z 0000000180032b28     LIBCMT:new_scalar_nothrow.obj
 0002:0000cb38       $cppxdata$??2@YAPEAX_KAEBUnothrow_t@std@@@Z 0000000180032b38     LIBCMT:new_scalar_nothrow.obj
 0002:0000cb45       $stateUnwindMap$??2@YAPEAX_KAEBUnothrow_t@std@@@Z 0000000180032b45     LIBCMT:new_scalar_nothrow.obj
 0002:0000cb48       $tryMap$??2@YAPEAX_KAEBUnothrow_t@std@@@Z 0000000180032b48     LIBCMT:new_scalar_nothrow.obj
 0002:0000cb50       $handlerMap$??2@YAPEAX_KAEBUnothrow_t@std@@@Z 0000000180032b50     LIBCMT:new_scalar_nothrow.obj
 0002:0000cb58       $ip2state$??2@YAPEAX_KAEBUnothrow_t@std@@@Z 0000000180032b58     LIBCMT:new_scalar_nothrow.obj
 0002:0000cb5c       $unwind$?catch$0@?0???2@YAPEAX_KAEBUnothrow_t@std@@@Z@4HA 0000000180032b5c     LIBCMT:new_scalar_nothrow.obj
 0002:0000cb6c       $cppxdata$?catch$0@?0???2@YAPEAX_KAEBUnothrow_t@std@@@Z@4HA 0000000180032b6c     LIBCMT:new_scalar_nothrow.obj
 0002:0000cb76       $stateUnwindMap$?catch$0@?0???2@YAPEAX_KAEBUnothrow_t@std@@@Z@4HA 0000000180032b76     LIBCMT:new_scalar_nothrow.obj
 0002:0000cb78       $ip2state$?catch$0@?0???2@YAPEAX_KAEBUnothrow_t@std@@@Z@4HA 0000000180032b78     LIBCMT:new_scalar_nothrow.obj
 0002:0000cb7c       $unwind$__GSHandlerCheckCommon 0000000180032b7c     LIBCMT:gshandler.obj
 0002:0000cb88       $xdatasym                  0000000180032b88     LIBCMT:chkstk.obj
 0002:0000cb90       $xdatasym                  0000000180032b90     LIBCMT:amdsecgs.obj
 0002:0000cb94       $unwind$?dllmain_crt_process_attach@@YAHQEAUHINSTANCE__@@QEAX@Z 0000000180032b94     LIBCMT:dll_dllmain.obj
 0002:0000cbd0       $unwind$?dllmain_crt_process_detach@@YAH_N@Z 0000000180032bd0     LIBCMT:dll_dllmain.obj
 0002:0000cc24       $unwind$?dllmain_dispatch@@YAHQEAUHINSTANCE__@@KQEAX@Z 0000000180032c24     LIBCMT:dll_dllmain.obj
 0002:0000cc4c       $unwind$?filt$0@?0??dllmain_dispatch@@YAHQEAUHINSTANCE__@@KQEAX@Z@4HA 0000000180032c4c     LIBCMT:dll_dllmain.obj
 0002:0000cc4c       $unwind$?filt$0@?0??FrameUnwindToState@__FrameHandler4@@SAXPEA_KPEAU_xDISPATCHER_CONTEXT@@PEAUFuncInfo4@FH4@@H@Z@4HA 0000000180032c4c     libvcruntime:frame.obj
 0002:0000cc4c       $unwind$?fin$1@?0??FrameUnwindToState@__FrameHandler4@@SAXPEA_KPEAU_xDISPATCHER_CONTEXT@@PEAUFuncInfo4@FH4@@H@Z@4HA 0000000180032c4c     libvcruntime:frame.obj
 0002:0000cc54       $unwind$__isa_available_init 0000000180032c54     LIBCMT:cpu_disp.obj
 0002:0000cc64       $unwind$__scrt_fastfail    0000000180032c64     LIBCMT:utility_desktop.obj
 0002:0000cc74       $unwind$__security_init_cookie 0000000180032c74     LIBCMT:gs_support.obj
 0002:0000cc80       $xdatasym                  0000000180032c80     LIBCMT:guard_dispatch.obj
 0002:0000cc88       $xdatasym                  0000000180032c88     LIBCMT:guard_xfg_dispatch.obj
 0002:0000cc8c       $unwind$AtlThunk_InitData  0000000180032c8c     atls:atlthunk.obj
 0002:0000cca0       $unwind$wcsstr             0000000180032ca0     libvcruntime:wcsstr.obj
 0002:0000ccb8       $xdatasym                  0000000180032cb8     libvcruntime:memcmp.obj
 0002:0000ccc0       $xdatasym                  0000000180032cc0     libvcruntime:memcpy.obj
 0002:0000ccd0       $xdatasym                  0000000180032cd0     libvcruntime:memset.obj
 0002:0000cce0       $unwind$__C_specific_handler 0000000180032ce0     libvcruntime:riscchandler.obj
 0002:0000ccfc       $unwind$?DecompFuncInfo@FH4@@YA_JPEAEAEAUFuncInfo4@1@_KH_N@Z 0000000180032cfc     libvcruntime:risctrnsctrl.obj
 0002:0000cd14       $unwind$?UnwindNestedFrames@__FrameHandler4@@SAXPEA_KPEAUEHExceptionRecord@@PEAU_CONTEXT@@0PEAXPEAUFuncInfo4@FH4@@HHPEAUHandlerType4@5@PEAU_xDISPATCHER_CONTEXT@@E@Z 0000000180032d14     libvcruntime:risctrnsctrl.obj
 0002:0000cd28       $unwind$?GetRangeOfTrysToCheck@__FrameHandler4@@SA?AU?$pair@Viterator@TryBlockMap4@FH4@@V123@@std@@AEAVTryBlockMap4@FH4@@HPEAU_xDISPATCHER_CONTEXT@@PEAUFuncInfo4@5@H@Z 0000000180032d28     libvcruntime:risctrnsctrl.obj
 0002:0000cd44       $unwind$__CxxFrameHandler4 0000000180032d44     libvcruntime:risctrnsctrl.obj
 0002:0000cd58       $unwind$??$_CallSETranslator@V__FrameHandler4@@@@YAHPEAUEHExceptionRecord@@PEA_KPEAU_CONTEXT@@PEAU_xDISPATCHER_CONTEXT@@PEAUFuncInfo4@FH4@@K1H@Z 0000000180032d58     libvcruntime:risctrnsctrl.obj
 0002:0000cd78       $unwind$?filt$0@?0???$_CallSETranslator@V__FrameHandler4@@@@YAHPEAUEHExceptionRecord@@PEA_KPEAU_CONTEXT@@PEAU_xDISPATCHER_CONTEXT@@PEAUFuncInfo4@FH4@@K1H@Z@4HA 0000000180032d78     libvcruntime:risctrnsctrl.obj
 0002:0000cd84       $unwind$__DestructExceptionObject 0000000180032d84     libvcruntime:ehhelpers.obj
 0002:0000cda4       $unwind$__DestructExceptionObject$filt$0 0000000180032da4     libvcruntime:ehhelpers.obj
 0002:0000cda4       $unwind$?fin$1@?0??CxxCallCatchBlock@__FrameHandler4@@SAPEAXPEAU_EXCEPTION_RECORD@@@Z@4HA 0000000180032da4     libvcruntime:frame.obj
 0002:0000cdb0       $unwind$_CxxThrowException 0000000180032db0     libvcruntime:throw.obj
 0002:0000cdc0       $xdatasym                  0000000180032dc0     libvcruntime:notify.obj
 0002:0000cdcc       $unwind$?StateFromIp@__FrameHandler4@@SAHPEAUFuncInfo4@FH4@@PEAU_xDISPATCHER_CONTEXT@@_K@Z 0000000180032dcc     libvcruntime:ehstate.obj
 0002:0000cde0       $unwind$?getStartStop@UWMap4@FH4@@QEAAXHHAEAViterator@12@0@Z 0000000180032de0     libvcruntime:frame.obj
 0002:0000cdf8       $unwind$?FrameUnwindToState@__FrameHandler4@@SAXPEA_KPEAU_xDISPATCHER_CONTEXT@@PEAUFuncInfo4@FH4@@H@Z 0000000180032df8     libvcruntime:frame.obj
 0002:0000ce40       $unwind$?CxxCallCatchBlock@__FrameHandler4@@SAPEAXPEAU_EXCEPTION_RECORD@@@Z 0000000180032e40     libvcruntime:frame.obj
 0002:0000ce9c       $unwind$?IsInExceptionSpec@@YAEPEAUEHExceptionRecord@@PEBU_s_ESTypeList@@@Z 0000000180032e9c     libvcruntime:frame.obj
 0002:0000ceb8       $unwind$??$__InternalCxxFrameHandler@V__FrameHandler4@@@@YA?AW4_EXCEPTION_DISPOSITION@@PEAUEHExceptionRecord@@PEA_KPEAU_CONTEXT@@PEAU_xDISPATCHER_CONTEXT@@PEAUFuncInfo4@FH4@@H1E@Z 0000000180032eb8     libvcruntime:frame.obj
 0002:0000ced0       $unwind$??$BuildCatchObjectHelperInternal@V__FrameHandler4@@@@YAHPEAUEHExceptionRecord@@PEAXPEAUHandlerType4@FH4@@PEBU_s_CatchableType@@@Z 0000000180032ed0     libvcruntime:frame.obj
 0002:0000cf10       $unwind$??$BuildCatchObjectInternal@V__FrameHandler4@@@@YAXPEAUEHExceptionRecord@@PEAXPEAUHandlerType4@FH4@@PEBU_s_CatchableType@@@Z 0000000180032f10     libvcruntime:frame.obj
 0002:0000cf3c       $unwind$??$FindHandler@V__FrameHandler4@@@@YAXPEAUEHExceptionRecord@@PEA_KPEAU_CONTEXT@@PEAU_xDISPATCHER_CONTEXT@@PEAUFuncInfo4@FH4@@EH1@Z 0000000180032f3c     libvcruntime:frame.obj
 0002:0000cf5c       $unwind$??$CatchIt@V__FrameHandler4@@@@YAXPEAUEHExceptionRecord@@PEA_KPEAU_CONTEXT@@PEAU_xDISPATCHER_CONTEXT@@PEAUFuncInfo4@FH4@@PEAUHandlerType4@4@PEBU_s_CatchableType@@PEAUTryBlockMapEntry4@4@H1EE@Z 0000000180032f5c     libvcruntime:frame.obj
 0002:0000cf74       $unwind$??$FindHandlerForForeignException@V__FrameHandler4@@@@YAXPEAUEHExceptionRecord@@PEA_KPEAU_CONTEXT@@PEAU_xDISPATCHER_CONTEXT@@PEAUFuncInfo4@FH4@@HH1@Z 0000000180032f74     libvcruntime:frame.obj
 0002:0000cf94       $unwind$?try_get_function@@YAPEAXW4function_id@?A0x84e3c32f@@QEBDQEBW4module_id@2@2@Z 0000000180032f94     libvcruntime:winapi_downlevel.obj
 0002:0000cf94       $unwind$?try_get_function@@YAPEAXW4function_id@?A0x391cf84c@@QEBDQEBW4module_id@2@2@Z 0000000180032f94     libucrt:winapi_thunks.obj
 0002:0000cfb0       $xdatasym                  0000000180032fb0     libvcruntime:handlers.obj
 0002:0000cfd0       $unwind$__acrt_call_reportfault 0000000180032fd0     libucrt:invalid_parameter.obj
 0002:0000cff0       $unwind$_resetstkoflw      0000000180032ff0     libucrt:resetstk.obj
 0002:0000d014       $unwind$?write_string@?$string_output_adapter@_W@__crt_stdio_output@@QEBAXQEB_WHQEAHAEAV__crt_deferred_errno_cache@@@Z 0000000180033014     libucrt:output.obj
 0002:0000d02c       $unwind$??$common_vsprintf@Vformat_validation_base@__crt_stdio_output@@_W@@YAH_KQEA_W0QEB_WQEAU__crt_locale_pointers@@QEAD@Z 000000018003302c     libucrt:output.obj
 0002:0000d04c       $unwind$??$write_multiple_characters@V?$string_output_adapter@_W@__crt_stdio_output@@D@__crt_stdio_output@@YAXAEBV?$string_output_adapter@_W@0@DHQEAH@Z 000000018003304c     libucrt:output.obj
 0002:0000d058       $unwind$?state_case_type@?$output_processor@_WV?$string_output_adapter@_W@__crt_stdio_output@@V?$format_validation_base@_WV?$string_output_adapter@_W@__crt_stdio_output@@@2@@__crt_stdio_output@@AEAA_NXZ 0000000180033058     libucrt:output.obj
 0002:0000d07c       $unwind$?type_case_a@?$output_processor@_WV?$string_output_adapter@_W@__crt_stdio_output@@V?$format_validation_base@_WV?$string_output_adapter@_W@__crt_stdio_output@@@2@@__crt_stdio_output@@AEAA_NXZ 000000018003307c     libucrt:output.obj
 0002:0000d08c       $unwind$?write_stored_string_tchar@?$output_processor@_WV?$string_output_adapter@_W@__crt_stdio_output@@V?$format_validation_base@_WV?$string_output_adapter@_W@__crt_stdio_output@@@2@@__crt_stdio_output@@AEAA_N_W@Z 000000018003308c     libucrt:output.obj
 0002:0000d0a0       $unwind$??$type_case_integer_parse_into_buffer@I@?$output_processor@_WV?$string_output_adapter@_W@__crt_stdio_output@@V?$format_validation_base@_WV?$string_output_adapter@_W@__crt_stdio_output@@@2@@__crt_stdio_output@@AEAAXII_N@Z 00000001800330a0     libucrt:output.obj
 0002:0000d0a0       $unwind$??$type_case_integer_parse_into_buffer@_K@?$output_processor@_WV?$string_output_adapter@_W@__crt_stdio_output@@V?$format_validation_base@_WV?$string_output_adapter@_W@__crt_stdio_output@@@2@@__crt_stdio_output@@AEAAX_KI_N@Z 00000001800330a0     libucrt:output.obj
 0002:0000d0a8       $unwind$?common_exit@@YAXHW4_crt_exit_cleanup_mode@@W4_crt_exit_return_mode@@@Z 00000001800330a8     libucrt:exit.obj
 0002:0000d0b4       $unwind$??R<lambda_6e4b09c48022b2350581041d5f6b0c4c>@@QEBA@XZ 00000001800330b4     libucrt:exit.obj
 0002:0000d0d4       $unwind$??$?RV<lambda_d80eeec6fff315bfe5c115232f3240e3>@@AEAV<lambda_6e4b09c48022b2350581041d5f6b0c4c>@@V<lambda_2358e3775559c9db80273638284d5e45>@@@?$__crt_seh_guarded_call@X@@QEAAX$$QEAV<lambda_d80eeec6fff315bfe5c115232f3240e3>@@AEAV<lambda_6e4b09c48022b2350581041d5f6b0c4c>@@$$QEAV<lambda_2358e3775559c9db80273638284d5e45>@@@Z 00000001800330d4     libucrt:exit.obj
 0002:0000d0f8       $unwind$??$free_environment@D@@YAXQEAPEAD@Z 00000001800330f8     libucrt:environment_initialization.obj
 0002:0000d0f8       $unwind$??$free_environment@_W@@YAXQEAPEA_W@Z 00000001800330f8     libucrt:environment_initialization.obj
 0002:0000d104       $unwind$??$create_environment@D@@YAQEAPEADQEAD@Z 0000000180033104     libucrt:environment_initialization.obj
 0002:0000d11c       $unwind$_register_onexit_function 000000018003311c     libucrt:onexit.obj
 0002:0000d124       $unwind$_execute_onexit_table 0000000180033124     libucrt:onexit.obj
 0002:0000d12c       $unwind$??R<lambda_22ebabd17bc4fa466a2aca6d8deb888d>@@QEBAHXZ 000000018003312c     libucrt:onexit.obj
 0002:0000d144       $unwind$??$?RV<lambda_638799b9deba96c50f710eeac98168cd>@@AEAV<lambda_22ebabd17bc4fa466a2aca6d8deb888d>@@V<lambda_a6f7d7db0129f75315ebf26d50c089f1>@@@?$__crt_seh_guarded_call@H@@QEAAH$$QEAV<lambda_638799b9deba96c50f710eeac98168cd>@@AEAV<lambda_22ebabd17bc4fa466a2aca6d8deb888d>@@$$QEAV<lambda_a6f7d7db0129f75315ebf26d50c089f1>@@@Z 0000000180033144     libucrt:onexit.obj
 0002:0000d168       $unwind$??$?RV<lambda_7777bce6b2f8c936911f934f8298dc43>@@AEAV<lambda_f03950bc5685219e0bcd2087efbe011e>@@V<lambda_3883c3dff614d5e0c5f61bb1ac94921c>@@@?$__crt_seh_guarded_call@H@@QEAAH$$QEAV<lambda_7777bce6b2f8c936911f934f8298dc43>@@AEAV<lambda_f03950bc5685219e0bcd2087efbe011e>@@$$QEAV<lambda_3883c3dff614d5e0c5f61bb1ac94921c>@@@Z 0000000180033168     libucrt:onexit.obj
 0002:0000d18c       $unwind$_query_new_handler 000000018003318c     libucrt:new_handler.obj
 0002:0000d1ac       $unwind$terminate          00000001800331ac     libucrt:terminate.obj
 0002:0000d1cc       $unwind$??$parse_integer@KV?$c_string_character_source@_W@__crt_strtox@@@__crt_strtox@@YAKQEAU__crt_locale_pointers@@V?$c_string_character_source@_W@0@H_N@Z 00000001800331cc     libucrt:atox.obj
 0002:0000d1e8       $xdatasym                  00000001800331e8     libucrt:strncmp.obj
 0002:0000d1ec       $unwind$?construct_ptd_array@@YAXQEAU__acrt_ptd@@@Z 00000001800331ec     libucrt:per_thread_data.obj
 0002:0000d1f4       $unwind$?destroy_ptd_array@@YAXQEAU__acrt_ptd@@@Z 00000001800331f4     libucrt:per_thread_data.obj
 0002:0000d1fc       $unwind$??$?RV<lambda_0ae27a3a962d80f24befdcbee591983d>@@AEAV<lambda_8d0ee55de4b1038c4002e0adecdf1839>@@V<lambda_dc504788e8f1664fe9b84e20bfb512f2>@@@?$__crt_seh_guarded_call@X@@QEAAX$$QEAV<lambda_0ae27a3a962d80f24befdcbee591983d>@@AEAV<lambda_8d0ee55de4b1038c4002e0adecdf1839>@@$$QEAV<lambda_dc504788e8f1664fe9b84e20bfb512f2>@@@Z 00000001800331fc     libucrt:per_thread_data.obj
 0002:0000d220       $unwind$??$?RV<lambda_aa87e3671a710a21b5dc78c0bdf72e11>@@AEAV<lambda_92619d2358a28f41a33ba319515a20b9>@@V<lambda_6992ecaafeb10aed2b74cb1fae11a551>@@@?$__crt_seh_guarded_call@X@@QEAAX$$QEAV<lambda_aa87e3671a710a21b5dc78c0bdf72e11>@@AEAV<lambda_92619d2358a28f41a33ba319515a20b9>@@$$QEAV<lambda_6992ecaafeb10aed2b74cb1fae11a551>@@@Z 0000000180033220     libucrt:per_thread_data.obj
 0002:0000d244       $unwind$??$?RV<lambda_f2e299630e499de9f9a165e60fcd3db5>@@AEAV<lambda_2ae9d31cdba2644fcbeaf08da7c24588>@@V<lambda_40d01ff24d0e7b3814fdbdcee8eab3c7>@@@?$__crt_seh_guarded_call@X@@QEAAX$$QEAV<lambda_f2e299630e499de9f9a165e60fcd3db5>@@AEAV<lambda_2ae9d31cdba2644fcbeaf08da7c24588>@@$$QEAV<lambda_40d01ff24d0e7b3814fdbdcee8eab3c7>@@@Z 0000000180033244     libucrt:per_thread_data.obj
 0002:0000d268       $unwind$??$?RV<lambda_2d41944a1d46af3157314b8a01080d33>@@AEAV<lambda_8f455de75cd7d7f24b4096f044d8b9e6>@@V<lambda_aa500f224e6afead328df44964fe2772>@@@?$__crt_seh_guarded_call@X@@QEAAX$$QEAV<lambda_2d41944a1d46af3157314b8a01080d33>@@AEAV<lambda_8f455de75cd7d7f24b4096f044d8b9e6>@@$$QEAV<lambda_aa500f224e6afead328df44964fe2772>@@@Z 0000000180033268     libucrt:per_thread_data.obj
 0002:0000d28c       $unwind$__acrt_initialize_winapi_thunks 000000018003328c     libucrt:winapi_thunks.obj
 0002:0000d294       $unwind$__acrt_fp_format   0000000180033294     libucrt:cvt.obj
 0002:0000d2ac       $unwind$?fp_format_e_internal@@YAHQEAD_KH_NIQEAU_strflt@@2QEAU__crt_locale_pointers@@@Z 00000001800332ac     libucrt:cvt.obj
 0002:0000d2c4       $unwind$?fp_format_a@@YAHQEBNPEAD_KQEAD2H_NIQEAU__crt_locale_pointers@@W4__acrt_rounding_mode@@@Z 00000001800332c4     libucrt:cvt.obj
 0002:0000d2e0       $unwind$?fp_format_g@@YAHQEBNQEAD_K12H_NIQEAU__crt_locale_pointers@@@Z 00000001800332e0     libucrt:cvt.obj
 0002:0000d2f4       $unwind$__acrt_uninitialize_locale 00000001800332f4     libucrt:wsetlocale.obj
 0002:0000d2f4       $unwind$__acrt_get_sigabrt_handler 00000001800332f4     libucrt:signal.obj
 0002:0000d2fc       $unwind$??$?RV<lambda_410d79af7f07d98d83a3f525b3859a53>@@AEAV<lambda_3e16ef9562a7dcce91392c22ab16ea36>@@V<lambda_38119f0e861e05405d8a144b9b982f0a>@@@?$__crt_seh_guarded_call@X@@QEAAX$$QEAV<lambda_410d79af7f07d98d83a3f525b3859a53>@@AEAV<lambda_3e16ef9562a7dcce91392c22ab16ea36>@@$$QEAV<lambda_38119f0e861e05405d8a144b9b982f0a>@@@Z 00000001800332fc     libucrt:wsetlocale.obj
 0002:0000d324       $unwind$__acrt_initialize_lowio 0000000180033324     libucrt:ioinit.obj
 0002:0000d344       $unwind$??$common_expand_argv_wildcards@D@@YAHQEAPEADQEAPEAPEAD@Z 0000000180033344     libucrt:argv_wildcards.obj
 0002:0000d35c       $unwind$??$copy_and_add_argument_to_buffer@D@@YAHQEBD0_KAEAV?$argument_list@D@?A0x5f5c8891@@@Z 000000018003335c     libucrt:argv_wildcards.obj
 0002:0000d378       $unwind$??$expand_argument_wildcards@D@@YAHQEAD0AEAV?$argument_list@D@?A0x5f5c8891@@@Z 0000000180033378     libucrt:argv_wildcards.obj
 0002:0000d39c       $unwind$__acrt_GetModuleFileNameA 000000018003339c     libucrt:getmodulefilenamea.obj
 0002:0000d3b8       $unwind$_setmbcp_nolock    00000001800333b8     libucrt:mbctype.obj
 0002:0000d3d8       $unwind$?update_thread_multibyte_data_internal@@YAPEAU__crt_multibyte_data@@QEAU__acrt_ptd@@QEAPEAU1@@Z 00000001800333d8     libucrt:mbctype.obj
 0002:0000d400       $unwind$?setmbcp_internal@@YAHH_NQEAU__acrt_ptd@@QEAPEAU__crt_multibyte_data@@@Z 0000000180033400     libucrt:mbctype.obj
 0002:0000d410       $unwind$?setSBUpLow@@YAXPEAU__crt_multibyte_data@@@Z 0000000180033410     libucrt:mbctype.obj
 0002:0000d42c       $unwind$??$?RV<lambda_efdfa57d1f175319df784efa44bb7b81>@@AEAV<lambda_5f0a4c1567f8adc6734073e5d1e1b35c>@@V<lambda_2e8a7d3640ea6ccb4c2413664c2db6fd>@@@?$__crt_seh_guarded_call@X@@QEAAX$$QEAV<lambda_efdfa57d1f175319df784efa44bb7b81>@@AEAV<lambda_5f0a4c1567f8adc6734073e5d1e1b35c>@@$$QEAV<lambda_2e8a7d3640ea6ccb4c2413664c2db6fd>@@@Z 000000018003342c     libucrt:mbctype.obj
 0002:0000d450       $unwind$__acrt_WideCharToMultiByte 0000000180033450     libucrt:widechartomultibyte.obj
 0002:0000d45c       $unwind$raise              000000018003345c     libucrt:signal.obj
 0002:0000d498       $unwind$??$?RV<lambda_450d765d439847d4c735a33c368b5fc0>@@AEAV<lambda_44731a7d0e6d81c3e6aa82d741081786>@@V<lambda_601a2a7da3b7a96e9554ac7215c4b07c>@@@?$__crt_seh_guarded_call@P6AXH@Z@@QEAAP6AXH@Z$$QEAV<lambda_450d765d439847d4c735a33c368b5fc0>@@AEAV<lambda_44731a7d0e6d81c3e6aa82d741081786>@@$$QEAV<lambda_601a2a7da3b7a96e9554ac7215c4b07c>@@@Z 0000000180033498     libucrt:signal.obj
 0002:0000d4bc       $unwind$?common_flush_all@@YAH_N@Z 00000001800334bc     libucrt:fflush.obj
 0002:0000d4c4       $unwind$??$?RV<lambda_842d9ff0dc9ef11c61343bbaebe7f885>@@AEAV<lambda_c5860995281e5c4ce005b3de8f5874ee>@@V<lambda_d90129c13df834fdcbf8d2b88dafcf2d>@@@?$__crt_seh_guarded_call@X@@QEAAX$$QEAV<lambda_842d9ff0dc9ef11c61343bbaebe7f885>@@AEAV<lambda_c5860995281e5c4ce005b3de8f5874ee>@@$$QEAV<lambda_d90129c13df834fdcbf8d2b88dafcf2d>@@@Z 00000001800334c4     libucrt:fflush.obj
 0002:0000d4e8       $unwind$??$?RV<lambda_886d6c58226a84441f68b9f2b8217b83>@@AEAV<lambda_ab61a845afdef5b7c387490eaf3616ee>@@V<lambda_f7f22ab5edc0698d5f6905b0d3f44752>@@@?$__crt_seh_guarded_call@X@@QEAAX$$QEAV<lambda_886d6c58226a84441f68b9f2b8217b83>@@AEAV<lambda_ab61a845afdef5b7c387490eaf3616ee>@@$$QEAV<lambda_f7f22ab5edc0698d5f6905b0d3f44752>@@@Z 00000001800334e8     libucrt:fflush.obj
 0002:0000d510       $unwind$__acrt_update_thread_locale_data 0000000180033510     libucrt:locale_refcounting.obj
 0002:0000d534       $unwind$?__mbrtowc_utf8@__crt_mbstring@@YA_KPEA_WPEBD_KPEAU_Mbstatet@@@Z 0000000180033534     libucrt:mbrtowc.obj
 0002:0000d53c       $unwind$?__mbsrtowcs_utf8@__crt_mbstring@@YA_KPEA_WPEAPEBD_KPEAU_Mbstatet@@@Z 000000018003353c     libucrt:mbrtowc.obj
 0002:0000d554       $unwind$__acrt_fltout      0000000180033554     libucrt:cfout.obj
 0002:0000d574       $unwind$?divide@__crt_strtox@@YA_KAEAUbig_integer@1@AEBU21@@Z 0000000180033574     libucrt:cfout.obj
 0002:0000d58c       $chain$0$?divide@__crt_strtox@@YA_KAEAUbig_integer@1@AEBU21@@Z 000000018003358c     libucrt:cfout.obj
 0002:0000d5a0       $chain$1$?divide@__crt_strtox@@YA_KAEAUbig_integer@1@AEBU21@@Z 00000001800335a0     libucrt:cfout.obj
 0002:0000d5b0       $unwind$_fcloseall         00000001800335b0     libucrt:closeall.obj
 0002:0000d5d4       $unwind$__acrt_locale_free_monetary 00000001800335d4     libucrt:initmon.obj
 0002:0000d5dc       $unwind$__acrt_locale_free_time 00000001800335dc     libucrt:inittime.obj
 0002:0000d5ec       $unwind$__acrt_GetStringTypeA 00000001800335ec     libucrt:getstringtypea.obj
 0002:0000d614       $unwind$__acrt_lowio_destroy_handle_array 0000000180033614     libucrt:osfinfo.obj
 0002:0000d624       $unwind$__acrt_lowio_ensure_fh_exists 0000000180033624     libucrt:osfinfo.obj
 0002:0000d650       $unwind$qsort              0000000180033650     libucrt:qsort.obj
 0002:0000d668       $chain$4$qsort             0000000180033668     libucrt:qsort.obj
 0002:0000d68c       $chain$5$qsort             000000018003368c     libucrt:qsort.obj
 0002:0000d69c       $unwind$strpbrk            000000018003369c     libucrt:strpbrk.obj
 0002:0000d6ac       $unwind$fallbackMethod     00000001800336ac     libucrt:strpbrk.obj
 0002:0000d6bc       $unwind$__acrt_LCMapStringA 00000001800336bc     libucrt:lcmapstringa.obj
 0002:0000d6cc       $unwind$?__acrt_LCMapStringA_stat@@YAHPEAU__crt_locale_pointers@@PEB_WKPEBDHPEADHHH@Z 00000001800336cc     libucrt:lcmapstringa.obj
 0002:0000d6f4       $unwind$_close             00000001800336f4     libucrt:close.obj
 0002:0000d6f4       $unwind$_commit            00000001800336f4     libucrt:commit.obj
 0002:0000d6fc       $unwind$??$?RV<lambda_a37b2b86f63e897a80ea819b0eb08c01>@@AEAV<lambda_38ce7e780aa69e748d6df282ebc68efe>@@V<lambda_99fb1378e971ab6e7edea83e3a7a83a2>@@@?$__crt_seh_guarded_call@H@@QEAAH$$QEAV<lambda_a37b2b86f63e897a80ea819b0eb08c01>@@AEAV<lambda_38ce7e780aa69e748d6df282ebc68efe>@@$$QEAV<lambda_99fb1378e971ab6e7edea83e3a7a83a2>@@@Z 00000001800336fc     libucrt:commit.obj
 0002:0000d720       $unwind$_write             0000000180033720     libucrt:write.obj
 0002:0000d750       $unwind$_write_nolock      0000000180033750     libucrt:write.obj
 0002:0000d768       $unwind$?write_double_translated_ansi_nolock@@YA?AUwrite_result@?A0x17268360@@HQEBDI@Z 0000000180033768     libucrt:write.obj
 0002:0000d78c       $unwind$?write_text_ansi_nolock@@YA?AUwrite_result@?A0x17268360@@HQEBDI@Z 000000018003378c     libucrt:write.obj
 0002:0000d78c       $unwind$?write_text_utf16le_nolock@@YA?AUwrite_result@?A0x17268360@@HQEBDI@Z 000000018003378c     libucrt:write.obj
 0002:0000d7ac       $unwind$?write_text_utf8_nolock@@YA?AUwrite_result@?A0x17268360@@HQEBDI@Z 00000001800337ac     libucrt:write.obj
 0002:0000d7d0       $xdatasym                  00000001800337d0     libucrt:log10.obj
 0002:0000d7dc       $unwind$__acrt_fenv_set_control 00000001800337dc     libucrt:_fenvutils.obj
 0002:0000d7ec       $unwind$fclose             00000001800337ec     libucrt:fclose.obj
 0002:0000d810       $unwind$_putwch_nolock     0000000180033810     libucrt:putwch.obj
 0002:0000d818       $unwind$common_control87   0000000180033818     libucrt:ieee.obj
 0002:0000d844       $unwind$_call_matherr      0000000180033844     libucrt:libm_error.obj
 0002:0000d84c       $unwind$_handle_error      000000018003384c     libucrt:libm_error.obj
 0002:0000d86c       $unwind$__acrt_initialize_fma3 000000018003386c     libucrt:fma3_available.obj
 0002:0000d874       $unwind$_log_special_common 0000000180033874     libucrt:log_special.obj
 0002:0000d880       $unwind$??$?RV<lambda_751a882b2c74d4b022dec766aa51a29a>@@AEAV<lambda_628dfdc04ba53c8bfc02c9951375f3f5>@@V<lambda_f6c7be5f7998530c34de24c7437d6b54>@@@?$__crt_seh_guarded_call@H@@QEAAH$$QEAV<lambda_751a882b2c74d4b022dec766aa51a29a>@@AEAV<lambda_628dfdc04ba53c8bfc02c9951375f3f5>@@$$QEAV<lambda_f6c7be5f7998530c34de24c7437d6b54>@@@Z 0000000180033880     libucrt:close.obj
 0002:0000d8a8       $xdatasym                  00000001800338a8     libucrt:fpsr.obj
 0002:0000d8b0       $unwind$_raise_exc_ex      00000001800338b0     libucrt:fpexcept.obj
 0002:0000d8c4       $unwind$_ctrlfp            00000001800338c4     libucrt:fpctrl.obj
 0002:0000d8ec       $unwind$_IsNonwritableInCurrentImage 00000001800338ec     LIBCMT:pesect.obj
 0002:0000da70       .edata                     0000000180033a70     OPOSElectronicValueRW.exp
 0002:0000da98       rgpv                       0000000180033a98     OPOSElectronicValueRW.exp
 0002:0000daa8       rgszName                   0000000180033aa8     OPOSElectronicValueRW.exp
 0002:0000dab8       rgwOrd                     0000000180033ab8     OPOSElectronicValueRW.exp
 0002:0000dac0       szName                     0000000180033ac0     OPOSElectronicValueRW.exp
 0002:0000dada       $N00001                    0000000180033ada     OPOSElectronicValueRW.exp
 0002:0000daea       $N00002                    0000000180033aea     OPOSElectronicValueRW.exp
 0002:0000dafc       $N00003                    0000000180033afc     OPOSElectronicValueRW.exp
 0002:0000db0e       $N00004                    0000000180033b0e     OPOSElectronicValueRW.exp
 0002:0000e43a       .idata$6                   000000018003443a     kernel32:KERNEL32.dll
 0002:0000e652       .idata$6                   0000000180034652     user32:USER32.dll
 0002:0000e786       .idata$6                   0000000180034786     gdi32:GDI32.dll
 0002:0000e82c       .idata$6                   000000018003482c     advapi32:ADVAPI32.dll
 0002:0000e948       .idata$6                   0000000180034948     ole32:ole32.dll
 0002:0000e952       .idata$6                   0000000180034952     oleaut32:OLEAUT32.dll
 0003:000001c0       ?ObjectMap@@3PAU_ATL_OBJMAP_ENTRY30@ATL@@A 00000001800351c0     ElectronicValueRW.obj
 0003:000002e8       ?s_RequiredMethodsPerRelease@@3PAHA 00000001800352e8     ElectronicValueRWImpl.obj
 0003:00000300       ?s_SOMethodNames@@3PAPEADA 0000000180035300     ElectronicValueRWImpl.obj
 0003:00000550       ?__vcrt_flsindex@@3KA      0000000180035550     libvcruntime:per_thread_data.obj
 0003:00000560       ?errno_no_memory@@3HA      0000000180035560     libucrt:errno.obj
 0003:00000564       ?doserrno_no_memory@@3KA   0000000180035564     libucrt:errno.obj
 0003:00000570       ?__acrt_flsindex@@3KA      0000000180035570     libucrt:per_thread_data.obj
 0003:00000a30       _mbctypes                  0000000180035a30     libucrt:mbctype.obj
 0003:00000b40       _mbcasemaps                0000000180035b40     libucrt:mbctype.obj
 0003:00000c40       ?__rgctypeflag@@3PADA      0000000180035c40     libucrt:mbctype.obj
 0003:00000c50       ?__rgcode_page_info@@3PAUcode_page_info@@A 0000000180035c50     libucrt:mbctype.obj
 0003:00000ef0       ?dazSupported@?1??common_control87@@9@9 0000000180035ef0     libucrt:ieee.obj
 0003:00000f00       ?__dcrt_lowio_console_output_handle@@3PEAXEA 0000000180035f00     libucrt:initcon.obj
 0003:00000f10       ?dazSupported@?1??_ctrlfp@@9@9 0000000180035f10     libucrt:fpctrl.obj
 0003:00001160       ?is_initialized_as_dll@@3_NA 0000000180036160     LIBCMT:utility.obj
 0003:00001161       ?module_local_atexit_table_initialized@@3_NA 0000000180036161     LIBCMT:utility.obj
 0003:00001168       ?module_local_atexit_table@@3U_onexit_table_t@@A 0000000180036168     LIBCMT:utility.obj
 0003:00001180       ?module_local_at_quick_exit_table@@3U_onexit_table_t@@A 0000000180036180     LIBCMT:utility.obj
 0003:00001198       ?g_tss_cv@@3U_RTL_CONDITION_VARIABLE@@A 0000000180036198     LIBCMT:thread_safe_statics.obj
 0003:000011a0       ?g_tss_event@@3PEAXEA      00000001800361a0     LIBCMT:thread_safe_statics.obj
 0003:000011a8       ?g_tss_mutex@@3U_RTL_CRITICAL_SECTION@@A 00000001800361a8     LIBCMT:thread_safe_statics.obj
 0003:000011d0       ?g_sleep_condition_variable_cs@@3P6AHPEAU_RTL_CONDITION_VARIABLE@@PEAU_RTL_CRITICAL_SECTION@@K@ZEA 00000001800361d0     LIBCMT:thread_safe_statics.obj
 0003:000011d8       ?g_wake_all_condition_variable@@3P6AXPEAU_RTL_CONDITION_VARIABLE@@@ZEA 00000001800361d8     LIBCMT:thread_safe_statics.obj
 0003:000011e0       GS_ExceptionRecord         00000001800361e0     LIBCMT:gs_report.obj
 0003:00001280       GS_ContextRecord           0000000180036280     LIBCMT:gs_report.obj
 0003:00001754       ?__proc_attached@@3HA      0000000180036754     LIBCMT:dll_dllmain.obj
 0003:000017f8       ?AllocateData@@3P6APEAUAtlThunkData_t@@XZEA 00000001800367f8     atls:atlthunk.obj
 0003:00001800       ?InitData@@3P6AXPEAUAtlThunkData_t@@PEAX_K@ZEA 0000000180036800     atls:atlthunk.obj
 0003:00001808       ?DataToCode@@3P6AP6A_JPEAUHWND__@@I_K_J@ZPEAUAtlThunkData_t@@@ZEA 0000000180036808     atls:atlthunk.obj
 0003:00001810       ?FreeData@@3P6AXPEAUAtlThunkData_t@@@ZEA 0000000180036810     atls:atlthunk.obj
 0003:00001818       ?Initialized@@3_NA         0000000180036818     atls:atlthunk.obj
 0003:00001830       ?__vcrt_startup_thread_ptd@@3U__vcrt_ptd@@A 0000000180036830     libvcruntime:per_thread_data.obj
 0003:000018b0       __vcrt_lock_table          00000001800368b0     libvcruntime:locks.obj
 0003:000018d8       __vcrt_locks_initialized   00000001800368d8     libvcruntime:locks.obj
 0003:00001920       ?heap@@3V_HeapManager@@A   0000000180036920     libvcruntime:undname.obj
 0003:00001948       ?module_handles@@3PAPEAUHINSTANCE__@@A 0000000180036948     libvcruntime:winapi_downlevel.obj
 0003:00001960       ?function_pointers@@3PAPEAXA 0000000180036960     libvcruntime:winapi_downlevel.obj
 0003:00001988       ?__acrt_invalid_parameter_handler@@3V?$dual_state_global@P6AXPEB_W00I_K@Z@__crt_state_management@@A 0000000180036988     libucrt:invalid_parameter.obj
 0003:00001990       ?c_termination_complete@@3JA 0000000180036990     libucrt:exit.obj
 0003:00001998       ?thread_local_exit_callback_func@@3P6AXPEAXK0@ZEA 0000000180036998     libucrt:exit.obj
 0003:000019b0       ?program_name@?1???$common_configure_argv@D@@YAHW4_crt_argv_mode@@@Z@4PADA 00000001800369b0     libucrt:argv_parsing.obj
 0003:00001b08       ?__acrt_new_handler@@3V?$dual_state_global@P6AH_K@Z@__crt_state_management@@A 0000000180036b08     libucrt:new_handler.obj
 0003:00001b10       ?module_handles@@3PAPEAUHINSTANCE__@@A 0000000180036b10     libucrt:winapi_thunks.obj
 0003:00001bb0       ?encoded_function_pointers@@3PAPEAXA 0000000180036bb0     libucrt:winapi_thunks.obj
 0003:00001cc0       ?internal_state@?1??_mbtowc_l@@9@4U_Mbstatet@@A 0000000180036cc0     libucrt:mbtowc.obj
 0003:00001cd8       ?enable_percent_n@@3_KA    0000000180036cd8     libucrt:printf_count_output.obj
 0003:00002110       ?__acrt_lock_table@@3PAU_RTL_CRITICAL_SECTION@@A 0000000180037110     libucrt:locks.obj
 0003:00002340       ?__acrt_locks_initialized@@3IA 0000000180037340     libucrt:locks.obj
 0003:00002360       ?fSystemSet@@3HA           0000000180037360     libucrt:mbctype.obj
 0003:00002364       ?initialized@?1??__acrt_initialize_multibyte@@9@4_NA 0000000180037364     libucrt:mbctype.obj
 0003:000023a0       ?ctrlc_action@@3V?$dual_state_global@P6AXH@Z@__crt_state_management@@A 00000001800373a0     libucrt:signal.obj
 0003:000023a8       ?ctrlbreak_action@@3V?$dual_state_global@P6AXH@Z@__crt_state_management@@A 00000001800373a8     libucrt:signal.obj
 0003:000023b0       ?abort_action@@3V?$dual_state_global@P6AXH@Z@__crt_state_management@@A 00000001800373b0     libucrt:signal.obj
 0003:000023b8       ?term_action@@3V?$dual_state_global@P6AXH@Z@__crt_state_management@@A 00000001800373b8     libucrt:signal.obj
 0003:000023c0       ?user_matherr@@3V?$dual_state_global@P6AHPEAU_exception@@@Z@__crt_state_management@@A 00000001800373c0     libucrt:matherr.obj
 0003:000023c8       ?__acrt_global_new_mode@@3V?$dual_state_global@J@__crt_state_management@@A 00000001800373c8     libucrt:new_mode.obj
 0003:000023d8       ?internal_pst@?1??__mbrtoc32_utf8@__crt_mbstring@@YA_KPEA_UPEBD_KPEAU_Mbstatet@@@Z@4U3@A 00000001800373d8     libucrt:mbrtoc32.obj
 0003:000023e0       ?__acrt_app_type@@3W4_crt_app_type@@A 00000001800373e0     libucrt:report_runtime_error.obj
 0005:00000000       MoveSmall                  000000018003b000     libvcruntime:memcpy.obj
 0005:00000050       MsetTab                    000000018003b050     libvcruntime:memset.obj
 0006:00000220       $R000000                   000000018003c220     ElectronicValueRW.res
 0006:00000be0       $R0009C0                   000000018003cbe0     ElectronicValueRW.res
 0006:00000cc8       $R000AA8                   000000018003ccc8     ElectronicValueRW.res
 0006:00000f30       $R000D10                   000000018003cf30     ElectronicValueRW.res
 0006:00001470       $R001250                   000000018003d470     ElectronicValueRW.res
 0006:00007f50       $R007D30                   0000000180043f50     ElectronicValueRW.res
 0006:00007f98       $R007D78                   0000000180043f98     ElectronicValueRW.res
