 OPOSScale

 Timestamp is 5ed459af (Mon Jun  1 10:28:15 2020)

 Preferred load address is 0000000180000000

 Start         Length     Name                   Class
 0001:00000000 000000c0H .text$di                CODE
 0001:000000c0 00021df0H .text$mn                CODE
 0001:00021eb0 00000040H .text$mn$00             CODE
 0001:00021ef0 000004b0H .text$x                 CODE
 0001:000223a0 00000078H .text$yd                CODE
 0002:00000000 00000618H .idata$5                DATA
 0002:00000618 00000028H .00cfg                  DATA
 0002:00000640 00000008H .CRT$XCA                DATA
 0002:00000648 00000008H .CRT$XCL                DATA
 0002:00000650 00000020H .CRT$XCU                DATA
 0002:00000670 00000008H .CRT$XCZ                DATA
 0002:00000678 00000008H .CRT$XIA                DATA
 0002:00000680 00000020H .CRT$XIC                DATA
 0002:000006a0 00000008H .CRT$XIZ                DATA
 0002:000006a8 00000008H .CRT$XLA                DATA
 0002:000006b0 00000008H .CRT$XLZ                DATA
 0002:000006b8 00000008H .CRT$XPA                DATA
 0002:000006c0 00000010H .CRT$XPX                DATA
 0002:000006d0 00000008H .CRT$XPXA               DATA
 0002:000006d8 00000008H .CRT$XPZ                DATA
 0002:000006e0 00000008H .CRT$XTA                DATA
 0002:000006e8 00000008H .CRT$XTZ                DATA
 0002:000006f0 00000000H .gfids$y                DATA
 0002:000006f0 0000aae0H .rdata                  DATA
 0002:0000b1d0 00000028H .rdata$T                DATA
 0002:0000b1f8 00000274H .rdata$r                DATA
 0002:0000b46c 00000404H .rdata$zzzdbg           DATA
 0002:0000b870 00000008H .rtc$IAA                DATA
 0002:0000b878 00000008H .rtc$IZZ                DATA
 0002:0000b880 00000008H .rtc$TAA                DATA
 0002:0000b888 00000008H .rtc$TZZ                DATA
 0002:0000b890 00000004H .tls                    DATA
 0002:0000b894 00000004H .tls$                   DATA
 0002:0000b898 00000008H .tls$ZZZ                DATA
 0002:0000b8a0 00001718H .xdata                  DATA
 0002:0000cfb8 00000150H .xdata$x                DATA
 0002:0000d108 00000008H ATL$__a                 DATA
 0002:0000d110 00000010H ATL$__z                 DATA
 0002:0000d120 000000a8H .edata                  DATA
 0002:0000d1c8 00000078H .idata$2                DATA
 0002:0000d240 00000018H .idata$3                DATA
 0002:0000d258 00000618H .idata$4                DATA
 0002:0000d870 00000c2aH .idata$6                DATA
 0003:00000000 00000df8H .data                   DATA
 0003:00000df8 000000c8H .data$r                 DATA
 0003:00000ec0 0000140cH .bss                    DATA
 0004:00000000 00001f8cH .pdata                  DATA
 0005:00000000 00000094H _RDATA                  DATA
 0006:00000000 00000220H .rsrc$01                DATA
 0006:00000220 000050b0H .rsrc$02                DATA

  Address         Publics by Value              Rva+Base               Lib:Object

 0000:00000000       __guard_fids_count         0000000000000000     <absolute>
 0000:00000000       __x64_code_ranges_to_entry_points 0000000000000000     <absolute>
 0000:00000000       __guard_longjmp_count      0000000000000000     <absolute>
 0000:00000000       __guard_longjmp_table      0000000000000000     <absolute>
 0000:00000000       __arm64x_redirection_metadata 0000000000000000     <absolute>
 0000:00000000       __hybrid_code_map          0000000000000000     <absolute>
 0000:00000000       __guard_iat_count          0000000000000000     <absolute>
 0000:00000000       __guard_eh_cont_count      0000000000000000     <absolute>
 0000:00000000       __guard_iat_table          0000000000000000     <absolute>
 0000:00000000       __arm64x_native_entrypoint 0000000000000000     <absolute>
 0000:00000000       __volatile_metadata        0000000000000000     <absolute>
 0000:00000000       __hybrid_code_map_count    0000000000000000     <absolute>
 0000:00000000       __guard_eh_cont_table      0000000000000000     <absolute>
 0000:00000000       __enclave_config           0000000000000000     <absolute>
 0000:00000000       ___safe_se_handler_count   0000000000000000     <absolute>
 0000:00000000       __AbsoluteZero             0000000000000000     <absolute>
 0000:00000000       ___safe_se_handler_table   0000000000000000     <absolute>
 0000:00000000       __dynamic_value_reloc_table 0000000000000000     <absolute>
 0000:00000000       __guard_fids_table         0000000000000000     <absolute>
 0000:00000000       __hybrid_auxiliary_iat     0000000000000000     <absolute>
 0000:00000100       __guard_flags              0000000000000100     <absolute>
 0000:00000000       __ImageBase                0000000180000000     <linker-defined>
 0001:000000c0       ?DupWide@_CW@@AEAAXXZ      00000001800010c0 f   CWString.obj
 0001:000000e8       ?cw_dup@@YAXPEBDAEAHAEAPEA_W1@Z 00000001800010e8 f   CWString.obj
 0001:000001c8       ?cw_memcpy@@YAHPEA_WPEBDH@Z 00000001800011c8 f   CWString.obj
 0001:00000214       ?cw_strcpy@@YAHPEA_WPEBD@Z 0000000180001214 f   CWString.obj
 0001:00000228       ??0CAtlComModule@ATL@@QEAA@XZ 0000000180001228 f i OposVariant.obj
 0001:000002a8       ??0CAtlWinModule@ATL@@QEAA@XZ 00000001800012a8 f i OposVariant.obj
 0001:00000314       ??0OposDispParms@@QEAA@PEAVOposVariant@@H@Z 0000000180001314 f   OposVariant.obj
 0001:000003bc       ??1OposDispParms@@QEAA@XZ  00000001800013bc f   OposVariant.obj
 0001:000003d4       ??_Estringdispid@CComTypeInfoHolder@ATL@@QEAAPEAXI@Z 00000001800013d4 f i OposVariant.obj
 0001:00000478       ?AtlWinModuleTerm@ATL@@YAJPEAU_ATL_WIN_MODULE70@1@PEAUHINSTANCE__@@@Z 0000000180001478 f i OposVariant.obj
 0001:00000528       ?ChangeBSTR@OposVariant@@QEAAXPEAPEA_WAEAJ@Z 0000000180001528 f   OposVariant.obj
 0001:00000588       ?ChangeCURRENCY@OposVariant@@QEAAXPEATtagCY@@AEAJ@Z 0000000180001588 f   OposVariant.obj
 0001:000005e8       ?ChangeLONG@OposVariant@@QEAAXPEAJAEAJ@Z 00000001800015e8 f   OposVariant.obj
 0001:00000644       ?GetLONG@OposVariant@@QEAAJXZ 0000000180001644 f   OposVariant.obj
 0001:00000668       ?SetBSTR@OposVariant@@QEAAXPEA_WAEAJ@Z 0000000180001668 f   OposVariant.obj
 0001:000006a8       ?SetBSTR_Copy@OposVariant@@QEAAXPEA_WAEAJ@Z 00000001800016a8 f   OposVariant.obj
 0001:00000718       ?SetBSTR_InOutPtr@OposVariant@@QEAA_NPEAPEA_WAEAJ@Z 0000000180001718 f   OposVariant.obj
 0001:00000768       ?SetCURRENCY@OposVariant@@QEAAXTtagCY@@@Z 0000000180001768 f   OposVariant.obj
 0001:0000079c       ?SetCURRENCY_Ptr@OposVariant@@QEAAXPEATtagCY@@AEAJ@Z 000000018000179c f   OposVariant.obj
 0001:000007e8       ?SetDispatch_Ptr@OposVariant@@QEAAXPEAUIDispatch@@AEAJ@Z 00000001800017e8 f   OposVariant.obj
 0001:00000840       ?SetLONG@OposVariant@@QEAAXJ@Z 0000000180001840 f   OposVariant.obj
 0001:00000870       ?SetLONG_Ptr@OposVariant@@QEAAXPEAJAEAJ@Z 0000000180001870 f   OposVariant.obj
 0001:000008bc       ?SetString@OposVariant@@QEAAXPEB_WAEAJ@Z 00000001800018bc f   OposVariant.obj
 0001:00000920       ?SetVARIANT_BOOL@OposVariant@@QEAAXF@Z 0000000180001920 f   OposVariant.obj
 0001:00000958       ?Term@CAtlComModule@ATL@@QEAAXXZ 0000000180001958 f i OposVariant.obj
 0001:000009c8       ?_AtlInitializeCriticalSectionEx@ATL@@YAHPEAU_RTL_CRITICAL_SECTION@@KK@Z 00000001800019c8 f i OposVariant.obj
 0001:000009d0       ?_AtlRaiseException@ATL@@YAXKK@Z 00000001800019d0 f i OposVariant.obj
 0001:000009e0       ?GetWindowProc@?$CWindowImplBaseT@VCWindow@ATL@@V?$CWinTraits@$0FGAAAAAA@$0A@@2@@ATL@@UEAAP6A_JPEAUHWND__@@I_K_J@ZXZ 00000001800019e0 f i Scale.obj
 0001:000009e8       ?StartWindowProc@?$CWindowImplBaseT@VCWindow@ATL@@V?$CWinTraits@$0FGAAAAAA@$0A@@2@@ATL@@SA_JPEAUHWND__@@I_K_J@Z 00000001800019e8 f i Scale.obj
 0001:00000aac       _guard_check_icall_nop     0000000180001aac f i LIBCMT:guard_support.obj
 0001:00000aac       ?OnFinalMessage@?$CWindowImplBaseT@VCWindow@ATL@@V?$CWinTraits@$0FGAAAAAA@$0A@@2@@ATL@@UEAAXPEAUHWND__@@@Z 0000000180001aac f i Scale.obj
 0001:00000aac       ?ObjectMain@CComObjectRootBase@ATL@@SAX_N@Z 0000000180001aac f i Scale.obj
 0001:00000ab0       ?GetTypeInfoCount@?$IDispatchImpl@UIOPOSScale@@$1?IID_IOPOSScale@@3U_GUID@@B$1?LIBID_OposScale_CCO@@3U3@B$00$0A@VCComTypeInfoHolder@ATL@@@ATL@@UEAAJPEAI@Z 0000000180001ab0 f i Scale.obj
 0001:00000ac4       ?GetTypeInfo@?$IDispatchImpl@UIOPOSScale@@$1?IID_IOPOSScale@@3U_GUID@@B$1?LIBID_OposScale_CCO@@3U3@B$00$0A@VCComTypeInfoHolder@ATL@@@ATL@@UEAAJIKPEAPEAUITypeInfo@@@Z 0000000180001ac4 f i Scale.obj
 0001:00000b28       ?GetIDsOfNames@?$IDispatchImpl@UIOPOSScale@@$1?IID_IOPOSScale@@3U_GUID@@B$1?LIBID_OposScale_CCO@@3U3@B$00$0A@VCComTypeInfoHolder@ATL@@@ATL@@UEAAJAEBU_GUID@@PEAPEA_WIKPEAJ@Z 0000000180001b28 f i Scale.obj
 0001:00000b34       ?Invoke@?$IDispatchImpl@UIOPOSScale@@$1?IID_IOPOSScale@@3U_GUID@@B$1?LIBID_OposScale_CCO@@3U3@B$00$0A@VCComTypeInfoHolder@ATL@@@ATL@@UEAAJJAEBU_GUID@@KGPEAUtagDISPPARAMS@@PEAUtagVARIANT@@PEAUtagEXCEPINFO@@PEAI@Z 0000000180001b34 f i Scale.obj
 0001:00000bc4       ?CreateControlWindow@?$CComControl@VCOPOSScale@@V?$CWindowImpl@VCOPOSScale@@VCWindow@ATL@@V?$CWinTraits@$0FGAAAAAA@$0A@@3@@ATL@@@ATL@@UEAAPEAUHWND__@@PEAU3@AEAUtagRECT@@@Z 0000000180001bc4 f i Scale.obj
 0001:00000bfc       ?ControlQueryInterface@?$CComControl@VCOPOSScale@@V?$CWindowImpl@VCOPOSScale@@VCWindow@ATL@@V?$CWinTraits@$0FGAAAAAA@$0A@@3@@ATL@@@ATL@@UEAAJAEBU_GUID@@PEAPEAX@Z 0000000180001bfc f i Scale.obj
 0001:00000c10       ?GetUserClassID@?$IOleObjectImpl@VCOPOSScale@@@ATL@@UEAAJPEAU_GUID@@@Z 0000000180001c10 f i Scale.obj
 0001:00000c10       ?GetClassID@?$IPersistStreamInitImpl@VCOPOSScale@@@ATL@@UEAAJPEAU_GUID@@@Z 0000000180001c10 f i Scale.obj
 0001:00000c10       ?GetClassID@?$IPersistStorageImpl@VCOPOSScale@@@ATL@@UEAAJPEAU_GUID@@@Z 0000000180001c10 f i Scale.obj
 0001:00000c2c       ?IsDirty@?$IPersistStreamInitImpl@VCOPOSScale@@@ATL@@UEAAJXZ 0000000180001c2c f i Scale.obj
 0001:00000c48       ?Load@?$IPersistStreamInitImpl@VCOPOSScale@@@ATL@@UEAAJPEAUIStream@@@Z 0000000180001c48 f i Scale.obj
 0001:00000c60       ?Save@?$IPersistStreamInitImpl@VCOPOSScale@@@ATL@@UEAAJPEAUIStream@@H@Z 0000000180001c60 f i Scale.obj
 0001:00000c78       ?GetSizeMax@?$IPersistStreamInitImpl@VCOPOSScale@@@ATL@@UEAAJPEAT_ULARGE_INTEGER@@@Z 0000000180001c78 f i Scale.obj
 0001:00000ea4       ?InitNew@?$IPersistStreamInitImpl@VCOPOSScale@@@ATL@@UEAAJXZ 0000000180001ea4 f i Scale.obj
 0001:00000ebc       ?GetClipboardData@?$IOleObjectImpl@VCOPOSScale@@@ATL@@UEAAJKPEAPEAUIDataObject@@@Z 0000000180001ebc f i Scale.obj
 0001:00000ebc       ?InitFromData@?$IOleObjectImpl@VCOPOSScale@@@ATL@@UEAAJPEAUIDataObject@@HK@Z 0000000180001ebc f i Scale.obj
 0001:00000ebc       ?ContextSensitiveHelp@?$IOleInPlaceActiveObjectImpl@VCOPOSScale@@@ATL@@UEAAJH@Z 0000000180001ebc f i Scale.obj
 0001:00000ebc       ?GetControlInfo@?$IOleControlImpl@VCOPOSScale@@@ATL@@UEAAJPEAUtagCONTROLINFO@@@Z 0000000180001ebc f i Scale.obj
 0001:00000ebc       ?SetMoniker@?$IOleObjectImpl@VCOPOSScale@@@ATL@@UEAAJKPEAUIMoniker@@@Z 0000000180001ebc f i Scale.obj
 0001:00000ebc       ?QueryGetData@?$IDataObjectImpl@VCOPOSScale@@@ATL@@UEAAJPEAUtagFORMATETC@@@Z 0000000180001ebc f i Scale.obj
 0001:00000ebc       ?QueryInterface@CRegObject@ATL@@UEAAJAEBU_GUID@@PEAPEAX@Z 0000000180001ebc f i Scale.obj
 0001:00000ebc       ?GetRect@?$IViewObjectExImpl@VCOPOSScale@@@ATL@@UEAAJKPEAU_RECTL@@@Z 0000000180001ebc f i Scale.obj
 0001:00000ebc       ?Unfreeze@?$IViewObjectExImpl@VCOPOSScale@@@ATL@@UEAAJK@Z 0000000180001ebc f i Scale.obj
 0001:00000ebc       ?GetColorSet@?$IViewObjectExImpl@VCOPOSScale@@@ATL@@UEAAJKJPEAXPEAUtagDVTARGETDEVICE@@PEAUHDC__@@PEAPEAUtagLOGPALETTE@@@Z 0000000180001ebc f i Scale.obj
 0001:00000ebc       ?GetDropTarget@?$IOleInPlaceObjectWindowlessImpl@VCOPOSScale@@@ATL@@UEAAJPEAPEAUIDropTarget@@@Z 0000000180001ebc f i Scale.obj
 0001:00000ebc       ?SOOutputCompleteDummy@COPOSScale@@MEAAJJ@Z 0000000180001ebc f i Scale.obj
 0001:00000ebc       ?SetColorScheme@?$IOleObjectImpl@VCOPOSScale@@@ATL@@UEAAJPEAUtagLOGPALETTE@@@Z 0000000180001ebc f i Scale.obj
 0001:00000ebc       ?SetData@?$IDataObjectImpl@VCOPOSScale@@@ATL@@UEAAJPEAUtagFORMATETC@@PEAUtagSTGMEDIUM@@H@Z 0000000180001ebc f i Scale.obj
 0001:00000ebc       ?ContextSensitiveHelp@?$IOleInPlaceObjectWindowlessImpl@VCOPOSScale@@@ATL@@UEAAJH@Z 0000000180001ebc f i Scale.obj
 0001:00000ebc       ?GetCanonicalFormatEtc@?$IDataObjectImpl@VCOPOSScale@@@ATL@@UEAAJPEAUtagFORMATETC@@0@Z 0000000180001ebc f i Scale.obj
 0001:00000ebc       ?ReactivateAndUndo@?$IOleInPlaceObjectWindowlessImpl@VCOPOSScale@@@ATL@@UEAAJXZ 0000000180001ebc f i Scale.obj
 0001:00000ebc       ?EnumFormatEtc@?$IDataObjectImpl@VCOPOSScale@@@ATL@@UEAAJKPEAPEAUIEnumFORMATETC@@@Z 0000000180001ebc f i Scale.obj
 0001:00000ebc       ?GetMoniker@?$IOleObjectImpl@VCOPOSScale@@@ATL@@UEAAJKKPEAPEAUIMoniker@@@Z 0000000180001ebc f i Scale.obj
 0001:00000ebc       ?OnMnemonic@?$IOleControlImpl@VCOPOSScale@@@ATL@@UEAAJPEAUtagMSG@@@Z 0000000180001ebc f i Scale.obj
 0001:00000ebc       ?GetDataHere@?$IDataObjectImpl@VCOPOSScale@@@ATL@@UEAAJPEAUtagFORMATETC@@PEAUtagSTGMEDIUM@@@Z 0000000180001ebc f i Scale.obj
 0001:00000ebc       ?Freeze@?$IViewObjectExImpl@VCOPOSScale@@@ATL@@UEAAJKJPEAXPEAK@Z 0000000180001ebc f i Scale.obj
 0001:00000ec4       ?IsUpToDate@?$IOleObjectImpl@VCOPOSScale@@@ATL@@UEAAJXZ 0000000180001ec4 f i Scale.obj
 0001:00000ec4       ?Release@CRegObject@ATL@@UEAAKXZ 0000000180001ec4 f i Scale.obj
 0001:00000ec4       ?OnAmbientPropertyChange@?$IOleControlImpl@VCOPOSScale@@@ATL@@UEAAJJ@Z 0000000180001ec4 f i Scale.obj
 0001:00000ec4       ?SaveCompleted@?$IPersistStorageImpl@VCOPOSScale@@@ATL@@UEAAJPEAUIStorage@@@Z 0000000180001ec4 f i Scale.obj
 0001:00000ec4       ?EnableModeless@?$IOleInPlaceActiveObjectImpl@VCOPOSScale@@@ATL@@UEAAJH@Z 0000000180001ec4 f i Scale.obj
 0001:00000ec4       ?SetHostNames@?$IOleObjectImpl@VCOPOSScale@@@ATL@@UEAAJPEB_W0@Z 0000000180001ec4 f i Scale.obj
 0001:00000ec4       ?OnFrameWindowActivate@?$IOleInPlaceActiveObjectImpl@VCOPOSScale@@@ATL@@UEAAJH@Z 0000000180001ec4 f i Scale.obj
 0001:00000ec4       ?GetCategoryMap@CComObjectRootBase@ATL@@SAPEBU_ATL_CATMAP_ENTRY@2@XZ 0000000180001ec4 f i Scale.obj
 0001:00000ec4       ?Update@?$IOleObjectImpl@VCOPOSScale@@@ATL@@UEAAJXZ 0000000180001ec4 f i Scale.obj
 0001:00000ec4       ?HandsOffStorage@?$IPersistStorageImpl@VCOPOSScale@@@ATL@@UEAAJXZ 0000000180001ec4 f i Scale.obj
 0001:00000ec4       ?ResizeBorder@?$IOleInPlaceActiveObjectImpl@VCOPOSScale@@@ATL@@UEAAJPEBUtagRECT@@PEAUIOleInPlaceUIWindow@@H@Z 0000000180001ec4 f i Scale.obj
 0001:00000ec4       ?GetObjectDescription@?$CComCoClass@VCOPOSScale@@$1?CLSID_OPOSScale@@3U_GUID@@B@ATL@@SAPEB_WXZ 0000000180001ec4 f i Scale.obj
 0001:00000ec8       ?SetClientSite@?$IOleObjectImpl@VCOPOSScale@@@ATL@@UEAAJPEAUIOleClientSite@@@Z 0000000180001ec8 f i Scale.obj
 0001:00000ee4       ?GetClientSite@?$IOleObjectImpl@VCOPOSScale@@@ATL@@UEAAJPEAPEAUIOleClientSite@@@Z 0000000180001ee4 f i Scale.obj
 0001:00000f2c       ?Close@?$IOleObjectImpl@VCOPOSScale@@@ATL@@UEAAJK@Z 0000000180001f2c f i Scale.obj
 0001:00000f48       ?DoVerb@?$IOleObjectImpl@VCOPOSScale@@@ATL@@UEAAJJPEAUtagMSG@@PEAUIOleClientSite@@JPEAUHWND__@@PEBUtagRECT@@@Z 0000000180001f48 f i Scale.obj
 0001:000010ec       ?EnumVerbs@?$IOleObjectImpl@VCOPOSScale@@@ATL@@UEAAJPEAPEAUIEnumOLEVERB@@@Z 00000001800020ec f i Scale.obj
 0001:00001108       ?GetUserType@?$IOleObjectImpl@VCOPOSScale@@@ATL@@UEAAJKPEAPEA_W@Z 0000000180002108 f i Scale.obj
 0001:00001118       ?SetExtent@?$IOleObjectImpl@VCOPOSScale@@@ATL@@UEAAJKPEAUtagSIZE@@@Z 0000000180002118 f i Scale.obj
 0001:00001134       ?GetExtent@?$IOleObjectImpl@VCOPOSScale@@@ATL@@UEAAJKPEAUtagSIZE@@@Z 0000000180002134 f i Scale.obj
 0001:00001164       ?Advise@?$IOleObjectImpl@VCOPOSScale@@@ATL@@UEAAJPEAUIAdviseSink@@PEAK@Z 0000000180002164 f i Scale.obj
 0001:000011c0       ?Unadvise@?$IOleObjectImpl@VCOPOSScale@@@ATL@@UEAAJK@Z 00000001800021c0 f i Scale.obj
 0001:000011f8       ?EnumAdvise@?$IOleObjectImpl@VCOPOSScale@@@ATL@@UEAAJPEAPEAUIEnumSTATDATA@@@Z 00000001800021f8 f i Scale.obj
 0001:00001240       ?GetMiscStatus@?$IOleObjectImpl@VCOPOSScale@@@ATL@@UEAAJKPEAK@Z 0000000180002240 f i Scale.obj
 0001:00001250       ?GetWindow@?$IOleInPlaceActiveObjectImpl@VCOPOSScale@@@ATL@@UEAAJPEAPEAUHWND__@@@Z 0000000180002250 f i Scale.obj
 0001:000012a4       ?TranslateAcceleratorW@?$IOleInPlaceActiveObjectImpl@VCOPOSScale@@@ATL@@UEAAJPEAUtagMSG@@@Z 00000001800022a4 f i Scale.obj
 0001:00001398       ?OnDocWindowActivate@?$IOleInPlaceActiveObjectImpl@VCOPOSScale@@@ATL@@UEAAJH@Z 0000000180002398 f i Scale.obj
 0001:000013c4       ?Draw@?$IViewObjectExImpl@VCOPOSScale@@@ATL@@UEAAJKJPEAXPEAUtagDVTARGETDEVICE@@PEAUHDC__@@2PEBU_RECTL@@3P6AH_K@Z4@Z 00000001800023c4 f i Scale.obj
 0001:00001428       ?SetAdvise@?$IViewObjectExImpl@VCOPOSScale@@@ATL@@UEAAJKKPEAUIAdviseSink@@@Z 0000000180002428 f i Scale.obj
 0001:0000147c       ?GetAdvise@?$IViewObjectExImpl@VCOPOSScale@@@ATL@@UEAAJPEAK0PEAPEAUIAdviseSink@@@Z 000000018000247c f i Scale.obj
 0001:000014b8       ?GetExtent@?$IViewObjectExImpl@VCOPOSScale@@@ATL@@UEAAJKJPEAUtagDVTARGETDEVICE@@PEAUtagSIZE@@@Z 00000001800024b8 f i Scale.obj
 0001:000014e8       ?GetViewStatus@?$IViewObjectExImpl@VCOPOSScale@@@ATL@@UEAAJPEAK@Z 00000001800024e8 f i Scale.obj
 0001:000014fc       ?QueryHitPoint@?$IViewObjectExImpl@VCOPOSScale@@@ATL@@UEAAJKPEBUtagRECT@@UtagPOINT@@JPEAK@Z 00000001800024fc f i Scale.obj
 0001:00001540       ?QueryHitRect@?$IViewObjectExImpl@VCOPOSScale@@@ATL@@UEAAJKPEBUtagRECT@@0JPEAK@Z 0000000180002540 f i Scale.obj
 0001:000015a8       ?GetNaturalExtent@?$IViewObjectExImpl@VCOPOSScale@@@ATL@@UEAAJKJPEAUtagDVTARGETDEVICE@@PEAUHDC__@@PEAUtagExtentInfo@@PEAUtagSIZE@@@Z 00000001800025a8 f i Scale.obj
 0001:000015f0       ?GetWindow@?$IOleInPlaceObjectWindowlessImpl@VCOPOSScale@@@ATL@@UEAAJPEAPEAUHWND__@@@Z 00000001800025f0 f i Scale.obj
 0001:00001644       ?InPlaceDeactivate@?$IOleInPlaceObjectWindowlessImpl@VCOPOSScale@@@ATL@@UEAAJXZ 0000000180002644 f i Scale.obj
 0001:00001660       ?UIDeactivate@?$IOleInPlaceObjectWindowlessImpl@VCOPOSScale@@@ATL@@UEAAJXZ 0000000180002660 f i Scale.obj
 0001:0000167c       ?SetObjectRects@?$IOleInPlaceObjectWindowlessImpl@VCOPOSScale@@@ATL@@UEAAJPEBUtagRECT@@0@Z 000000018000267c f i Scale.obj
 0001:00001698       ?OnWindowMessage@?$IOleInPlaceObjectWindowlessImpl@VCOPOSScale@@@ATL@@UEAAJI_K_JPEA_J@Z 0000000180002698 f i Scale.obj
 0001:00001760       ?EnumConnectionPoints@?$IConnectionPointContainerImpl@VCOPOSScale@@@ATL@@UEAAJPEAPEAUIEnumConnectionPoints@@@Z 0000000180002760 f i Scale.obj
 0001:000019ac       ?FindConnectionPoint@?$IConnectionPointContainerImpl@VCOPOSScale@@@ATL@@UEAAJAEBU_GUID@@PEAPEAUIConnectionPoint@@@Z 00000001800029ac f i Scale.obj
 0001:00001a7c       ?IsDirty@?$IPersistStorageImpl@VCOPOSScale@@@ATL@@UEAAJXZ 0000000180002a7c f i Scale.obj
 0001:00001abc       ?InitNew@?$IPersistStorageImpl@VCOPOSScale@@@ATL@@UEAAJPEAUIStorage@@@Z 0000000180002abc f i Scale.obj
 0001:00001afc       ?Load@?$IPersistStorageImpl@VCOPOSScale@@@ATL@@UEAAJPEAUIStorage@@@Z 0000000180002afc f i Scale.obj
 0001:00001b9c       ?Save@?$IPersistStorageImpl@VCOPOSScale@@@ATL@@UEAAJPEAUIStorage@@H@Z 0000000180002b9c f i Scale.obj
 0001:00001c4c       ?GetPages@?$ISpecifyPropertyPagesImpl@VCOPOSScale@@@ATL@@UEAAJPEAUtagCAUUID@@@Z 0000000180002c4c f i Scale.obj
 0001:00001c58       ?QuickActivate@?$IQuickActivateImpl@VCOPOSScale@@@ATL@@UEAAJPEAUtagQACONTAINER@@PEAUtagQACONTROL@@@Z 0000000180002c58 f i Scale.obj
 0001:00001c74       ?SetContentExtent@?$IQuickActivateImpl@VCOPOSScale@@@ATL@@UEAAJPEAUtagSIZE@@@Z 0000000180002c74 f i Scale.obj
 0001:00001ca8       ?GetContentExtent@?$IQuickActivateImpl@VCOPOSScale@@@ATL@@UEAAJPEAUtagSIZE@@@Z 0000000180002ca8 f i Scale.obj
 0001:00001ce0       ?GetData@?$IDataObjectImpl@VCOPOSScale@@@ATL@@UEAAJPEAUtagFORMATETC@@PEAUtagSTGMEDIUM@@@Z 0000000180002ce0 f i Scale.obj
 0001:00001cfc       ?DAdvise@?$IDataObjectImpl@VCOPOSScale@@@ATL@@UEAAJPEAUtagFORMATETC@@KPEAUIAdviseSink@@PEAK@Z 0000000180002cfc f i Scale.obj
 0001:00001d84       ?DUnadvise@?$IDataObjectImpl@VCOPOSScale@@@ATL@@UEAAJK@Z 0000000180002d84 f i Scale.obj
 0001:00001db0       ?EnumDAdvise@?$IDataObjectImpl@VCOPOSScale@@@ATL@@UEAAJPEAPEAUIEnumSTATDATA@@@Z 0000000180002db0 f i Scale.obj
 0001:00001dec       ?GetClassInfoW@?$IProvideClassInfo2Impl@$1?CLSID_OPOSScale@@3U_GUID@@B$1?DIID__IOPOSScaleEvents@@3U2@B$1?LIBID_OposScale_CCO@@3U2@B$00$0A@VCComTypeInfoHolder@ATL@@@ATL@@UEAAJPEAPEAUITypeInfo@@@Z 0000000180002dec f i Scale.obj
 0001:00001e44       ?GetGUID@?$IProvideClassInfo2Impl@$1?CLSID_OPOSScale@@3U_GUID@@B$1?DIID__IOPOSScaleEvents@@3U2@B$1?LIBID_OposScale_CCO@@3U2@B$00$0A@VCComTypeInfoHolder@ATL@@@ATL@@UEAAJKPEAU_GUID@@@Z 0000000180002e44 f i Scale.obj
 0001:00001e78       ?AddRef@CRegObject@ATL@@UEAAKXZ 0000000180002e78 f i Scale.obj
 0001:00001e78       ?FAccessAllowed@?$IObjectSafetyImpl@VCOPOSScale@@$02@ATL@@MEAAHXZ 0000000180002e78 f i Scale.obj
 0001:00001e78       _get_startup_argv_mode     0000000180002e78 f i LIBCMT:argv_mode.obj
 0001:00001e80       ?GetInterfaceSafetyOptions@?$IObjectSafetyImpl@VCOPOSScale@@$02@ATL@@UEAAJAEBU_GUID@@PEAK1@Z 0000000180002e80 f i Scale.obj
 0001:00001f14       ?SetInterfaceSafetyOptions@?$IObjectSafetyImpl@VCOPOSScale@@$02@ATL@@UEAAJAEBU_GUID@@KK@Z 0000000180002f14 f i Scale.obj
 0001:00001fb8       ?_LocCPQueryInterface@?$IConnectionPointImpl@VCOPOSScale@@$1?IID_IPropertyNotifySink@@3U_GUID@@BVCComDynamicUnkArray@ATL@@@ATL@@UEAAJAEBU_GUID@@PEAPEAX@Z 0000000180002fb8 f i Scale.obj
 0001:00001fb8       ?_LocCPQueryInterface@?$IConnectionPointImpl@VCOPOSScale@@$1?DIID__IOPOSScaleEvents@@3U_GUID@@BVCComDynamicUnkArray@ATL@@@ATL@@UEAAJAEBU_GUID@@PEAPEAX@Z 0000000180002fb8 f i Scale.obj
 0001:00002028       ?GetConnectionInterface@?$IConnectionPointImpl@VCOPOSScale@@$1?IID_IPropertyNotifySink@@3U_GUID@@BVCComDynamicUnkArray@ATL@@@ATL@@UEAAJPEAU_GUID@@@Z 0000000180003028 f i Scale.obj
 0001:00002044       ?GetConnectionPointContainer@?$IConnectionPointImpl@VCOPOSScale@@$1?IID_IPropertyNotifySink@@3U_GUID@@BVCComDynamicUnkArray@ATL@@@ATL@@UEAAJPEAPEAUIConnectionPointContainer@@@Z 0000000180003044 f i Scale.obj
 0001:00002064       ?Advise@?$IConnectionPointImpl@VCOPOSScale@@$1?DIID__IOPOSScaleEvents@@3U_GUID@@BVCComDynamicUnkArray@ATL@@@ATL@@UEAAJPEAUIUnknown@@PEAK@Z 0000000180003064 f i Scale.obj
 0001:00002064       ?Advise@?$IConnectionPointImpl@VCOPOSScale@@$1?IID_IPropertyNotifySink@@3U_GUID@@BVCComDynamicUnkArray@ATL@@@ATL@@UEAAJPEAUIUnknown@@PEAK@Z 0000000180003064 f i Scale.obj
 0001:00002120       ?Unadvise@?$IConnectionPointImpl@VCOPOSScale@@$1?DIID__IOPOSScaleEvents@@3U_GUID@@BVCComDynamicUnkArray@ATL@@@ATL@@UEAAJK@Z 0000000180003120 f i Scale.obj
 0001:00002120       ?Unadvise@?$IConnectionPointImpl@VCOPOSScale@@$1?IID_IPropertyNotifySink@@3U_GUID@@BVCComDynamicUnkArray@ATL@@@ATL@@UEAAJK@Z 0000000180003120 f i Scale.obj
 0001:00002188       ?EnumConnections@?$IConnectionPointImpl@VCOPOSScale@@$1?IID_IPropertyNotifySink@@3U_GUID@@BVCComDynamicUnkArray@ATL@@@ATL@@UEAAJPEAPEAUIEnumConnections@@@Z 0000000180003188 f i Scale.obj
 0001:00002188       ?EnumConnections@?$IConnectionPointImpl@VCOPOSScale@@$1?DIID__IOPOSScaleEvents@@3U_GUID@@BVCComDynamicUnkArray@ATL@@@ATL@@UEAAJPEAPEAUIEnumConnections@@@Z 0000000180003188 f i Scale.obj
 0001:00002334       ?GetConnectionInterface@?$IConnectionPointImpl@VCOPOSScale@@$1?DIID__IOPOSScaleEvents@@3U_GUID@@BVCComDynamicUnkArray@ATL@@@ATL@@UEAAJPEAU_GUID@@@Z 0000000180003334 f i Scale.obj
 0001:00002350       ?GetConnectionPointContainer@?$IConnectionPointImpl@VCOPOSScale@@$1?DIID__IOPOSScaleEvents@@3U_GUID@@BVCComDynamicUnkArray@ATL@@@ATL@@UEAAJPEAPEAUIConnectionPointContainer@@@Z 0000000180003350 f i Scale.obj
 0001:00002370       ?UpdateRegistry@COPOSScale@@SAJH@Z 0000000180003370 f i Scale.obj
 0001:00002388       ?ProcessWindowMessage@COPOSScale@@UEAAHPEAUHWND__@@I_K_JAEA_JK@Z 0000000180003388 f i Scale.obj
 0001:00002410       ?SOData@COPOSScale@@MEAAJJ@Z 0000000180003410 f i Scale.obj
 0001:00002460       ?SODirectIO@COPOSScale@@MEAAJJPEAJPEAPEA_W@Z 0000000180003460 f i Scale.obj
 0001:000024d8       ?SOError@COPOSScale@@MEAAJJJJPEAJ@Z 00000001800034d8 f i Scale.obj
 0001:00002560       ?SOStatusUpdate@COPOSScale@@MEAAJJ@Z 0000000180003560 f i Scale.obj
 0001:000025b0       ?Lock@CAtlModule@ATL@@UEAAJXZ 00000001800035b0 f i Scale.obj
 0001:000025c0       ?Unlock@CAtlModule@ATL@@UEAAJXZ 00000001800035c0 f i Scale.obj
 0001:000025cc       ?GetLockCount@CAtlModule@ATL@@UEAAJXZ 00000001800035cc f i Scale.obj
 0001:000025d0       ?GetGITPtr@CAtlModule@ATL@@UEAAJPEAPEAUIGlobalInterfaceTable@@@Z 00000001800035d0 f i Scale.obj
 0001:00002640       ?AddCommonRGSReplacements@?$CAtlModuleT@VCComModule@ATL@@@ATL@@UEAAJPEAUIRegistrarBase@@@Z 0000000180003640 f i Scale.obj
 0001:00002658       ?UpdateRegistryFromResourceD@CComModule@ATL@@UEAAJIHPEAU_ATL_REGMAP_ENTRY@2@@Z 0000000180003658 f i Scale.obj
 0001:00002658       ?UpdateRegistryFromResourceD@CComModule@ATL@@UEAAJPEB_WHPEAU_ATL_REGMAP_ENTRY@2@@Z 0000000180003658 f i Scale.obj
 0001:00002660       ?UpdateRegistryFromResource@CComModule@ATL@@UEAAJPEB_WHPEAU_ATL_REGMAP_ENTRY@2@@Z 0000000180003660 f i Scale.obj
 0001:00002668       ?UpdateRegistryFromResource@CComModule@ATL@@UEAAJIHPEAU_ATL_REGMAP_ENTRY@2@@Z 0000000180003668 f i Scale.obj
 0001:00002670       ?CreateInstance@?$CComCreator@V?$CComObjectCached@VCComClassFactory@ATL@@@ATL@@@ATL@@SAJPEAXAEBU_GUID@@PEAPEAX@Z 0000000180003670 f i Scale.obj
 0001:00002794       ?CreateInstance@?$CComCreator2@V?$CComCreator@V?$CComObject@VCOPOSScale@@@ATL@@@ATL@@V?$CComCreator@V?$CComAggObject@VCOPOSScale@@@ATL@@@2@@ATL@@SAJPEAXAEBU_GUID@@PEAPEAX@Z 0000000180003794 f i Scale.obj
 0001:000027a4       ??_GCComModule@ATL@@UEAAPEAXI@Z 00000001800037a4 f i Scale.obj
 0001:000027a4       ??_ECComModule@ATL@@UEAAPEAXI@Z 00000001800037a4 f i Scale.obj
 0001:000027e4       ?AddRef@?$CComObjectCached@VCComClassFactory@ATL@@@ATL@@UEAAKXZ 00000001800037e4 f i Scale.obj
 0001:00002810       ?Release@?$CComObjectCached@VCComClassFactory@ATL@@@ATL@@UEAAKXZ 0000000180003810 f i Scale.obj
 0001:00002850       ?QueryInterface@?$CComObjectCached@VCComClassFactory@ATL@@@ATL@@UEAAJAEBU_GUID@@PEAPEAX@Z 0000000180003850 f i Scale.obj
 0001:00002864       ??_G?$CComObjectCached@VCComClassFactory@ATL@@@ATL@@UEAAPEAXI@Z 0000000180003864 f i Scale.obj
 0001:00002864       ??_E?$CComObjectCached@VCComClassFactory@ATL@@@ATL@@UEAAPEAXI@Z 0000000180003864 f i Scale.obj
 0001:000028bc       ?Next@?$CComEnumImpl@UIEnumConnectionPoints@@$1?_GUID_b196b285_bab4_101a_b69c_00aa00341d07@@3U__s_GUID@@BPEAUIConnectionPoint@@V?$_CopyInterface@UIConnectionPoint@@@ATL@@@ATL@@UEAAJKPEAPEAUIConnectionPoint@@PEAK@Z 00000001800038bc f i Scale.obj
 0001:00002988       ?Skip@?$CComEnumImpl@UIEnumConnectionPoints@@$1?_GUID_b196b285_bab4_101a_b69c_00aa00341d07@@3U__s_GUID@@BPEAUIConnectionPoint@@V?$_CopyInterface@UIConnectionPoint@@@ATL@@@ATL@@UEAAJK@Z 0000000180003988 f i Scale.obj
 0001:000029b4       ?Reset@?$CComEnumImpl@UIEnumConnectionPoints@@$1?_GUID_b196b285_bab4_101a_b69c_00aa00341d07@@3U__s_GUID@@BPEAUIConnectionPoint@@V?$_CopyInterface@UIConnectionPoint@@@ATL@@@ATL@@UEAAJXZ 00000001800039b4 f i Scale.obj
 0001:000029b4       ?Reset@?$CComEnumImpl@UIEnumConnections@@$1?_GUID_b196b287_bab4_101a_b69c_00aa00341d07@@3U__s_GUID@@BUtagCONNECTDATA@@V?$_Copy@UtagCONNECTDATA@@@ATL@@@ATL@@UEAAJXZ 00000001800039b4 f i Scale.obj
 0001:000029c0       ?Clone@?$CComEnumImpl@UIEnumConnectionPoints@@$1?_GUID_b196b285_bab4_101a_b69c_00aa00341d07@@3U__s_GUID@@BPEAUIConnectionPoint@@V?$_CopyInterface@UIConnectionPoint@@@ATL@@@ATL@@UEAAJPEAPEAUIEnumConnectionPoints@@@Z 00000001800039c0 f i Scale.obj
 0001:00002aec       ?AddRef@?$CComObject@V?$CComEnum@UIEnumConnectionPoints@@$1?_GUID_b196b285_bab4_101a_b69c_00aa00341d07@@3U__s_GUID@@BPEAUIConnectionPoint@@V?$_CopyInterface@UIConnectionPoint@@@ATL@@VCComSingleThreadModel@6@@ATL@@@ATL@@UEAAKXZ 0000000180003aec f i Scale.obj
 0001:00002aec       ?AddRef@?$CComObject@V?$CComEnum@UIEnumConnections@@$1?_GUID_b196b287_bab4_101a_b69c_00aa00341d07@@3U__s_GUID@@BUtagCONNECTDATA@@V?$_Copy@UtagCONNECTDATA@@@ATL@@VCComSingleThreadModel@6@@ATL@@@ATL@@UEAAKXZ 0000000180003aec f i Scale.obj
 0001:00002af8       ?Release@?$CComObject@V?$CComEnum@UIEnumConnectionPoints@@$1?_GUID_b196b285_bab4_101a_b69c_00aa00341d07@@3U__s_GUID@@BPEAUIConnectionPoint@@V?$_CopyInterface@UIConnectionPoint@@@ATL@@VCComSingleThreadModel@6@@ATL@@@ATL@@UEAAKXZ 0000000180003af8 f i Scale.obj
 0001:00002af8       ?Release@?$CComObject@V?$CComEnum@UIEnumConnections@@$1?_GUID_b196b287_bab4_101a_b69c_00aa00341d07@@3U__s_GUID@@BUtagCONNECTDATA@@V?$_Copy@UtagCONNECTDATA@@@ATL@@VCComSingleThreadModel@6@@ATL@@@ATL@@UEAAKXZ 0000000180003af8 f i Scale.obj
 0001:00002b4c       ?QueryInterface@?$CComObject@V?$CComEnum@UIEnumConnectionPoints@@$1?_GUID_b196b285_bab4_101a_b69c_00aa00341d07@@3U__s_GUID@@BPEAUIConnectionPoint@@V?$_CopyInterface@UIConnectionPoint@@@ATL@@VCComSingleThreadModel@6@@ATL@@@ATL@@UEAAJAEBU_GUID@@PEAPEAX@Z 0000000180003b4c f i Scale.obj
 0001:00002b60       ??_G?$CComObject@V?$CComEnum@UIEnumConnectionPoints@@$1?_GUID_b196b285_bab4_101a_b69c_00aa00341d07@@3U__s_GUID@@BPEAUIConnectionPoint@@V?$_CopyInterface@UIConnectionPoint@@@ATL@@VCComSingleThreadModel@6@@ATL@@@ATL@@UEAAPEAXI@Z 0000000180003b60 f i Scale.obj
 0001:00002b60       ??_E?$CComObject@V?$CComEnum@UIEnumConnectionPoints@@$1?_GUID_b196b285_bab4_101a_b69c_00aa00341d07@@3U__s_GUID@@BPEAUIConnectionPoint@@V?$_CopyInterface@UIConnectionPoint@@@ATL@@VCComSingleThreadModel@6@@ATL@@@ATL@@UEAAPEAXI@Z 0000000180003b60 f i Scale.obj
 0001:00002bb8       ?AddReplacement@CRegObject@ATL@@UEAAJPEB_W0@Z 0000000180003bb8 f i Scale.obj
 0001:00002be8       ?ClearReplacements@CRegObject@ATL@@UEAAJXZ 0000000180003be8 f i Scale.obj
 0001:00002bf4       ??_GCRegObject@ATL@@UEAAPEAXI@Z 0000000180003bf4 f i Scale.obj
 0001:00002bf4       ??_ECRegObject@ATL@@UEAAPEAXI@Z 0000000180003bf4 f i Scale.obj
 0001:00002c74       ?AddRef@?$CComAggObject@VCOPOSScale@@@ATL@@UEAAKXZ 0000000180003c74 f i Scale.obj
 0001:00002c80       ?Release@?$CComAggObject@VCOPOSScale@@@ATL@@UEAAKXZ 0000000180003c80 f i Scale.obj
 0001:00002cd4       ?QueryInterface@?$CComAggObject@VCOPOSScale@@@ATL@@UEAAJAEBU_GUID@@PEAPEAX@Z 0000000180003cd4 f i Scale.obj
 0001:00002d34       ?AddRef@?$CComContainedObject@VCOPOSScale@@@ATL@@UEAAKXZ 0000000180003d34 f i Scale.obj
 0001:00002d44       ?Release@?$CComContainedObject@VCOPOSScale@@@ATL@@UEAAKXZ 0000000180003d44 f i Scale.obj
 0001:00002d54       ?QueryInterface@?$CComContainedObject@VCOPOSScale@@@ATL@@UEAAJAEBU_GUID@@PEAPEAX@Z 0000000180003d54 f i Scale.obj
 0001:00002d64       ??_E?$CComAggObject@VCOPOSScale@@@ATL@@UEAAPEAXI@Z 0000000180003d64 f i Scale.obj
 0001:00002d64       ??_G?$CComAggObject@VCOPOSScale@@@ATL@@UEAAPEAXI@Z 0000000180003d64 f i Scale.obj
 0001:00002dbc       ?AddRef@?$CComObject@VCOPOSScale@@@ATL@@UEAAKXZ 0000000180003dbc f i Scale.obj
 0001:00002dcc       ?Release@?$CComObject@VCOPOSScale@@@ATL@@UEAAKXZ 0000000180003dcc f i Scale.obj
 0001:00002e24       ?QueryInterface@?$CComObject@VCOPOSScale@@@ATL@@UEAAJAEBU_GUID@@PEAPEAX@Z 0000000180003e24 f i Scale.obj
 0001:00002e38       ?OnDrawAdvanced@CComControlBase@ATL@@UEAAJAEAUATL_DRAWINFO@@@Z 0000000180003e38 f i Scale.obj
 0001:00002fc4       ?Next@?$CComEnumImpl@UIEnumConnections@@$1?_GUID_b196b287_bab4_101a_b69c_00aa00341d07@@3U__s_GUID@@BUtagCONNECTDATA@@V?$_Copy@UtagCONNECTDATA@@@ATL@@@ATL@@UEAAJKPEAUtagCONNECTDATA@@PEAK@Z 0000000180003fc4 f i Scale.obj
 0001:00003098       ?Skip@?$CComEnumImpl@UIEnumConnections@@$1?_GUID_b196b287_bab4_101a_b69c_00aa00341d07@@3U__s_GUID@@BUtagCONNECTDATA@@V?$_Copy@UtagCONNECTDATA@@@ATL@@@ATL@@UEAAJK@Z 0000000180004098 f i Scale.obj
 0001:000030c4       ?Clone@?$CComEnumImpl@UIEnumConnections@@$1?_GUID_b196b287_bab4_101a_b69c_00aa00341d07@@3U__s_GUID@@BUtagCONNECTDATA@@V?$_Copy@UtagCONNECTDATA@@@ATL@@@ATL@@UEAAJPEAPEAUIEnumConnections@@@Z 00000001800040c4 f i Scale.obj
 0001:000031f0       ?QueryInterface@?$CComObject@V?$CComEnum@UIEnumConnections@@$1?_GUID_b196b287_bab4_101a_b69c_00aa00341d07@@3U__s_GUID@@BUtagCONNECTDATA@@V?$_Copy@UtagCONNECTDATA@@@ATL@@VCComSingleThreadModel@6@@ATL@@@ATL@@UEAAJAEBU_GUID@@PEAPEAX@Z 00000001800041f0 f i Scale.obj
 0001:00003204       ??_E?$CComObject@V?$CComEnum@UIEnumConnections@@$1?_GUID_b196b287_bab4_101a_b69c_00aa00341d07@@3U__s_GUID@@BUtagCONNECTDATA@@V?$_Copy@UtagCONNECTDATA@@@ATL@@VCComSingleThreadModel@6@@ATL@@@ATL@@UEAAPEAXI@Z 0000000180004204 f i Scale.obj
 0001:00003204       ??_G?$CComObject@V?$CComEnum@UIEnumConnections@@$1?_GUID_b196b287_bab4_101a_b69c_00aa00341d07@@3U__s_GUID@@BUtagCONNECTDATA@@V?$_Copy@UtagCONNECTDATA@@@ATL@@VCComSingleThreadModel@6@@ATL@@@ATL@@UEAAPEAXI@Z 0000000180004204 f i Scale.obj
 0001:0000325c       ??_E?$CComObject@VCOPOSScale@@@ATL@@W7EAAPEAXI@Z 000000018000425c f i Scale.obj
 0001:00003268       ??_E?$CComObject@VCOPOSScale@@@ATL@@WHA@EAAPEAXI@Z 0000000180004268 f i Scale.obj
 0001:00003274       ?QueryInterface@?$CComObject@VCOPOSScale@@@ATL@@WLI@EAAJAEBU_GUID@@PEAPEAX@Z 0000000180004274 f i Scale.obj
 0001:00003280       ?AddRef@?$CComObject@VCOPOSScale@@@ATL@@WLI@EAAKXZ 0000000180004280 f i Scale.obj
 0001:0000328c       ?Release@?$CComObject@VCOPOSScale@@@ATL@@WLI@EAAKXZ 000000018000428c f i Scale.obj
 0001:00003298       ?QueryInterface@?$CComObject@VCOPOSScale@@@ATL@@WMA@EAAJAEBU_GUID@@PEAPEAX@Z 0000000180004298 f i Scale.obj
 0001:000032a4       ?AddRef@?$CComObject@VCOPOSScale@@@ATL@@WMA@EAAKXZ 00000001800042a4 f i Scale.obj
 0001:000032b0       ?Release@?$CComObject@VCOPOSScale@@@ATL@@WMA@EAAKXZ 00000001800042b0 f i Scale.obj
 0001:000032bc       ?QueryInterface@?$CComObject@VCOPOSScale@@@ATL@@WMI@EAAJAEBU_GUID@@PEAPEAX@Z 00000001800042bc f i Scale.obj
 0001:000032c8       ?AddRef@?$CComObject@VCOPOSScale@@@ATL@@WMI@EAAKXZ 00000001800042c8 f i Scale.obj
 0001:000032d4       ?Release@?$CComObject@VCOPOSScale@@@ATL@@WMI@EAAKXZ 00000001800042d4 f i Scale.obj
 0001:000032e0       ?QueryInterface@?$CComObject@VCOPOSScale@@@ATL@@WNA@EAAJAEBU_GUID@@PEAPEAX@Z 00000001800042e0 f i Scale.obj
 0001:000032ec       ?AddRef@?$CComObject@VCOPOSScale@@@ATL@@WNA@EAAKXZ 00000001800042ec f i Scale.obj
 0001:000032f8       ?Release@?$CComObject@VCOPOSScale@@@ATL@@WNA@EAAKXZ 00000001800042f8 f i Scale.obj
 0001:00003304       ?QueryInterface@?$CComObject@VCOPOSScale@@@ATL@@WNI@EAAJAEBU_GUID@@PEAPEAX@Z 0000000180004304 f i Scale.obj
 0001:00003310       ?AddRef@?$CComObject@VCOPOSScale@@@ATL@@WNI@EAAKXZ 0000000180004310 f i Scale.obj
 0001:0000331c       ?Release@?$CComObject@VCOPOSScale@@@ATL@@WNI@EAAKXZ 000000018000431c f i Scale.obj
 0001:00003328       ?QueryInterface@?$CComObject@VCOPOSScale@@@ATL@@WOA@EAAJAEBU_GUID@@PEAPEAX@Z 0000000180004328 f i Scale.obj
 0001:00003334       ?AddRef@?$CComObject@VCOPOSScale@@@ATL@@WOA@EAAKXZ 0000000180004334 f i Scale.obj
 0001:00003340       ?Release@?$CComObject@VCOPOSScale@@@ATL@@WOA@EAAKXZ 0000000180004340 f i Scale.obj
 0001:0000334c       ?QueryInterface@?$CComObject@VCOPOSScale@@@ATL@@WOI@EAAJAEBU_GUID@@PEAPEAX@Z 000000018000434c f i Scale.obj
 0001:00003358       ?AddRef@?$CComObject@VCOPOSScale@@@ATL@@WOI@EAAKXZ 0000000180004358 f i Scale.obj
 0001:00003364       ?Release@?$CComObject@VCOPOSScale@@@ATL@@WOI@EAAKXZ 0000000180004364 f i Scale.obj
 0001:00003370       ?QueryInterface@?$CComObject@VCOPOSScale@@@ATL@@WPA@EAAJAEBU_GUID@@PEAPEAX@Z 0000000180004370 f i Scale.obj
 0001:0000337c       ?AddRef@?$CComObject@VCOPOSScale@@@ATL@@WPA@EAAKXZ 000000018000437c f i Scale.obj
 0001:00003388       ?Release@?$CComObject@VCOPOSScale@@@ATL@@WPA@EAAKXZ 0000000180004388 f i Scale.obj
 0001:00003394       ?QueryInterface@?$CComObject@VCOPOSScale@@@ATL@@WPI@EAAJAEBU_GUID@@PEAPEAX@Z 0000000180004394 f i Scale.obj
 0001:000033a0       ?AddRef@?$CComObject@VCOPOSScale@@@ATL@@WPI@EAAKXZ 00000001800043a0 f i Scale.obj
 0001:000033ac       ?Release@?$CComObject@VCOPOSScale@@@ATL@@WPI@EAAKXZ 00000001800043ac f i Scale.obj
 0001:000033b8       ?QueryInterface@?$CComObject@VCOPOSScale@@@ATL@@WBAA@EAAJAEBU_GUID@@PEAPEAX@Z 00000001800043b8 f i Scale.obj
 0001:000033c4       ?AddRef@?$CComObject@VCOPOSScale@@@ATL@@WBAA@EAAKXZ 00000001800043c4 f i Scale.obj
 0001:000033d0       ?Release@?$CComObject@VCOPOSScale@@@ATL@@WBAA@EAAKXZ 00000001800043d0 f i Scale.obj
 0001:000033dc       ?QueryInterface@?$CComObject@VCOPOSScale@@@ATL@@WBAI@EAAJAEBU_GUID@@PEAPEAX@Z 00000001800043dc f i Scale.obj
 0001:000033e8       ?AddRef@?$CComObject@VCOPOSScale@@@ATL@@WBAI@EAAKXZ 00000001800043e8 f i Scale.obj
 0001:000033f4       ?Release@?$CComObject@VCOPOSScale@@@ATL@@WBAI@EAAKXZ 00000001800043f4 f i Scale.obj
 0001:00003400       ?QueryInterface@?$CComObject@VCOPOSScale@@@ATL@@WBBA@EAAJAEBU_GUID@@PEAPEAX@Z 0000000180004400 f i Scale.obj
 0001:0000340c       ?AddRef@?$CComObject@VCOPOSScale@@@ATL@@WBBA@EAAKXZ 000000018000440c f i Scale.obj
 0001:00003418       ?Release@?$CComObject@VCOPOSScale@@@ATL@@WBBA@EAAKXZ 0000000180004418 f i Scale.obj
 0001:00003424       ?QueryInterface@?$CComObject@VCOPOSScale@@@ATL@@WBBI@EAAJAEBU_GUID@@PEAPEAX@Z 0000000180004424 f i Scale.obj
 0001:00003430       ?AddRef@?$CComObject@VCOPOSScale@@@ATL@@WBBI@EAAKXZ 0000000180004430 f i Scale.obj
 0001:0000343c       ?Release@?$CComObject@VCOPOSScale@@@ATL@@WBBI@EAAKXZ 000000018000443c f i Scale.obj
 0001:00003448       ?AddRef@?$CComObject@VCOPOSScale@@@ATL@@WBCI@EAAKXZ 0000000180004448 f i Scale.obj
 0001:00003454       ?Release@?$CComObject@VCOPOSScale@@@ATL@@WBCI@EAAKXZ 0000000180004454 f i Scale.obj
 0001:00003460       ?AddRef@?$CComObject@VCOPOSScale@@@ATL@@WBEA@EAAKXZ 0000000180004460 f i Scale.obj
 0001:0000346c       ?Release@?$CComObject@VCOPOSScale@@@ATL@@WBEA@EAAKXZ 000000018000446c f i Scale.obj
 0001:00003478       ??_E?$CComContainedObject@VCOPOSScale@@@ATL@@W7EAAPEAXI@Z 0000000180004478 f i Scale.obj
 0001:00003484       ??_E?$CComContainedObject@VCOPOSScale@@@ATL@@WHA@EAAPEAXI@Z 0000000180004484 f i Scale.obj
 0001:00003490       ?QueryInterface@?$CComContainedObject@VCOPOSScale@@@ATL@@WLI@EAAJAEBU_GUID@@PEAPEAX@Z 0000000180004490 f i Scale.obj
 0001:0000349c       ?AddRef@?$CComContainedObject@VCOPOSScale@@@ATL@@WLI@EAAKXZ 000000018000449c f i Scale.obj
 0001:000034a8       ?Release@?$CComContainedObject@VCOPOSScale@@@ATL@@WLI@EAAKXZ 00000001800044a8 f i Scale.obj
 0001:000034b4       ?QueryInterface@?$CComContainedObject@VCOPOSScale@@@ATL@@WMA@EAAJAEBU_GUID@@PEAPEAX@Z 00000001800044b4 f i Scale.obj
 0001:000034c0       ?AddRef@?$CComContainedObject@VCOPOSScale@@@ATL@@WMA@EAAKXZ 00000001800044c0 f i Scale.obj
 0001:000034cc       ?Release@?$CComContainedObject@VCOPOSScale@@@ATL@@WMA@EAAKXZ 00000001800044cc f i Scale.obj
 0001:000034d8       ?QueryInterface@?$CComContainedObject@VCOPOSScale@@@ATL@@WMI@EAAJAEBU_GUID@@PEAPEAX@Z 00000001800044d8 f i Scale.obj
 0001:000034e4       ?AddRef@?$CComContainedObject@VCOPOSScale@@@ATL@@WMI@EAAKXZ 00000001800044e4 f i Scale.obj
 0001:000034f0       ?Release@?$CComContainedObject@VCOPOSScale@@@ATL@@WMI@EAAKXZ 00000001800044f0 f i Scale.obj
 0001:000034fc       ?QueryInterface@?$CComContainedObject@VCOPOSScale@@@ATL@@WNA@EAAJAEBU_GUID@@PEAPEAX@Z 00000001800044fc f i Scale.obj
 0001:00003508       ?AddRef@?$CComContainedObject@VCOPOSScale@@@ATL@@WNA@EAAKXZ 0000000180004508 f i Scale.obj
 0001:00003514       ?Release@?$CComContainedObject@VCOPOSScale@@@ATL@@WNA@EAAKXZ 0000000180004514 f i Scale.obj
 0001:00003520       ?QueryInterface@?$CComContainedObject@VCOPOSScale@@@ATL@@WNI@EAAJAEBU_GUID@@PEAPEAX@Z 0000000180004520 f i Scale.obj
 0001:0000352c       ?AddRef@?$CComContainedObject@VCOPOSScale@@@ATL@@WNI@EAAKXZ 000000018000452c f i Scale.obj
 0001:00003538       ?Release@?$CComContainedObject@VCOPOSScale@@@ATL@@WNI@EAAKXZ 0000000180004538 f i Scale.obj
 0001:00003544       ?QueryInterface@?$CComContainedObject@VCOPOSScale@@@ATL@@WOA@EAAJAEBU_GUID@@PEAPEAX@Z 0000000180004544 f i Scale.obj
 0001:00003550       ?AddRef@?$CComContainedObject@VCOPOSScale@@@ATL@@WOA@EAAKXZ 0000000180004550 f i Scale.obj
 0001:0000355c       ?Release@?$CComContainedObject@VCOPOSScale@@@ATL@@WOA@EAAKXZ 000000018000455c f i Scale.obj
 0001:00003568       ?QueryInterface@?$CComContainedObject@VCOPOSScale@@@ATL@@WOI@EAAJAEBU_GUID@@PEAPEAX@Z 0000000180004568 f i Scale.obj
 0001:00003574       ?AddRef@?$CComContainedObject@VCOPOSScale@@@ATL@@WOI@EAAKXZ 0000000180004574 f i Scale.obj
 0001:00003580       ?Release@?$CComContainedObject@VCOPOSScale@@@ATL@@WOI@EAAKXZ 0000000180004580 f i Scale.obj
 0001:0000358c       ?QueryInterface@?$CComContainedObject@VCOPOSScale@@@ATL@@WPA@EAAJAEBU_GUID@@PEAPEAX@Z 000000018000458c f i Scale.obj
 0001:00003598       ?AddRef@?$CComContainedObject@VCOPOSScale@@@ATL@@WPA@EAAKXZ 0000000180004598 f i Scale.obj
 0001:000035a4       ?Release@?$CComContainedObject@VCOPOSScale@@@ATL@@WPA@EAAKXZ 00000001800045a4 f i Scale.obj
 0001:000035b0       ?QueryInterface@?$CComContainedObject@VCOPOSScale@@@ATL@@WPI@EAAJAEBU_GUID@@PEAPEAX@Z 00000001800045b0 f i Scale.obj
 0001:000035bc       ?AddRef@?$CComContainedObject@VCOPOSScale@@@ATL@@WPI@EAAKXZ 00000001800045bc f i Scale.obj
 0001:000035c8       ?Release@?$CComContainedObject@VCOPOSScale@@@ATL@@WPI@EAAKXZ 00000001800045c8 f i Scale.obj
 0001:000035d4       ?QueryInterface@?$CComContainedObject@VCOPOSScale@@@ATL@@WBAA@EAAJAEBU_GUID@@PEAPEAX@Z 00000001800045d4 f i Scale.obj
 0001:000035e0       ?AddRef@?$CComContainedObject@VCOPOSScale@@@ATL@@WBAA@EAAKXZ 00000001800045e0 f i Scale.obj
 0001:000035ec       ?Release@?$CComContainedObject@VCOPOSScale@@@ATL@@WBAA@EAAKXZ 00000001800045ec f i Scale.obj
 0001:000035f8       ?QueryInterface@?$CComContainedObject@VCOPOSScale@@@ATL@@WBAI@EAAJAEBU_GUID@@PEAPEAX@Z 00000001800045f8 f i Scale.obj
 0001:00003604       ?AddRef@?$CComContainedObject@VCOPOSScale@@@ATL@@WBAI@EAAKXZ 0000000180004604 f i Scale.obj
 0001:00003610       ?Release@?$CComContainedObject@VCOPOSScale@@@ATL@@WBAI@EAAKXZ 0000000180004610 f i Scale.obj
 0001:0000361c       ?QueryInterface@?$CComContainedObject@VCOPOSScale@@@ATL@@WBBA@EAAJAEBU_GUID@@PEAPEAX@Z 000000018000461c f i Scale.obj
 0001:00003628       ?AddRef@?$CComContainedObject@VCOPOSScale@@@ATL@@WBBA@EAAKXZ 0000000180004628 f i Scale.obj
 0001:00003634       ?Release@?$CComContainedObject@VCOPOSScale@@@ATL@@WBBA@EAAKXZ 0000000180004634 f i Scale.obj
 0001:00003640       ?QueryInterface@?$CComContainedObject@VCOPOSScale@@@ATL@@WBBI@EAAJAEBU_GUID@@PEAPEAX@Z 0000000180004640 f i Scale.obj
 0001:0000364c       ?AddRef@?$CComContainedObject@VCOPOSScale@@@ATL@@WBBI@EAAKXZ 000000018000464c f i Scale.obj
 0001:00003658       ?Release@?$CComContainedObject@VCOPOSScale@@@ATL@@WBBI@EAAKXZ 0000000180004658 f i Scale.obj
 0001:00003664       ?AddRef@?$CComContainedObject@VCOPOSScale@@@ATL@@WBCI@EAAKXZ 0000000180004664 f i Scale.obj
 0001:00003670       ?Release@?$CComContainedObject@VCOPOSScale@@@ATL@@WBCI@EAAKXZ 0000000180004670 f i Scale.obj
 0001:0000367c       ?AddRef@?$CComContainedObject@VCOPOSScale@@@ATL@@WBEA@EAAKXZ 000000018000467c f i Scale.obj
 0001:00003688       ?Release@?$CComContainedObject@VCOPOSScale@@@ATL@@WBEA@EAAKXZ 0000000180004688 f i Scale.obj
 0001:00003694       ?CreateInstance@CComClassFactory@ATL@@UEAAJPEAUIUnknown@@AEBU_GUID@@PEAPEAX@Z 0000000180004694 f i Scale.obj
 0001:000036f4       ?LockServer@CComClassFactory@ATL@@UEAAJH@Z 00000001800046f4 f i Scale.obj
 0001:00003718       ??_ECComClassFactory@ATL@@UEAAPEAXI@Z 0000000180004718 f i Scale.obj
 0001:00003718       ??_GCComClassFactory@ATL@@UEAAPEAXI@Z 0000000180004718 f i Scale.obj
 0001:00003768       ??$AtlModuleRegisterWndClassInfoT@VAtlModuleRegisterWndClassInfoParamW@ATL@@@ATL@@YAGPEAU_ATL_BASE_MODULE70@0@PEAU_ATL_WIN_MODULE70@0@PEAU_ATL_WNDCLASSINFOW@0@PEAP6A_JPEAUHWND__@@I_K_J@ZVAtlModuleRegisterWndClassInfoParamW@0@@Z 0000000180004768 f i Scale.obj
 0001:00003968       ??0?$CComContainedObject@VCOPOSScale@@@ATL@@QEAA@PEAX@Z 0000000180004968 f i Scale.obj
 0001:00003a84       ??0?$CComObject@VCOPOSScale@@@ATL@@QEAA@PEAX@Z 0000000180004a84 f i Scale.obj
 0001:00003b9c       ??0CAtlModule@ATL@@QEAA@XZ 0000000180004b9c f i Scale.obj
 0001:00003c10       ??1?$CComEnumImpl@UIEnumConnectionPoints@@$1?_GUID_b196b285_bab4_101a_b69c_00aa00341d07@@3U__s_GUID@@BPEAUIConnectionPoint@@V?$_CopyInterface@UIConnectionPoint@@@ATL@@@ATL@@UEAA@XZ 0000000180004c10 f i Scale.obj
 0001:00003c6c       ??1?$CComEnumImpl@UIEnumConnections@@$1?_GUID_b196b287_bab4_101a_b69c_00aa00341d07@@3U__s_GUID@@BUtagCONNECTDATA@@V?$_Copy@UtagCONNECTDATA@@@ATL@@@ATL@@UEAA@XZ 0000000180004c6c f i Scale.obj
 0001:00003cc8       ??1?$CComObject@VCOPOSScale@@@ATL@@UEAA@XZ 0000000180004cc8 f i Scale.obj
 0001:00003de8       ??_G?$CComContainedObject@VCOPOSScale@@@ATL@@UEAAPEAXI@Z 0000000180004de8 f i Scale.obj
 0001:00003de8       ??_E?$CComContainedObject@VCOPOSScale@@@ATL@@UEAAPEAXI@Z 0000000180004de8 f i Scale.obj
 0001:00003e1c       ??_G?$CComObject@VCOPOSScale@@@ATL@@UEAAPEAXI@Z 0000000180004e1c f i Scale.obj
 0001:00003e1c       ??_E?$CComObject@VCOPOSScale@@@ATL@@UEAAPEAXI@Z 0000000180004e1c f i Scale.obj
 0001:00003e50       ?Add@?$CSimpleArray@GV?$CSimpleArrayEqualHelper@G@ATL@@@ATL@@QEAAHAEBG@Z 0000000180004e50 f i Scale.obj
 0001:00003f04       ?Add@?$CSimpleMap@PEA_WPEA_WVCExpansionVectorEqualHelper@ATL@@@ATL@@QEAAHAEBQEA_W0@Z 0000000180004f04 f i Scale.obj
 0001:00003fa4       ?Add@CComDynamicUnkArray@ATL@@QEAAKPEAUIUnknown@@@Z 0000000180004fa4 f i Scale.obj
 0001:00004090       ?Add@CExpansionVector@ATL@@QEAAHPEB_W0@Z 0000000180005090 f i Scale.obj
 0001:000041c4       ?AddTermFunc@CAtlModule@ATL@@QEAAJP6AX_K@Z0@Z 00000001800051c4 f i Scale.obj
 0001:00004260       ?AddValue@CRegParser@ATL@@IEAAJAEAVCRegKey@2@PEB_WPEA_W@Z 0000000180005260 f i Scale.obj
 0001:000046a8       ?AllocateHeap@?$CTempBuffer@E$0BAA@VCCRTAllocator@ATL@@@ATL@@AEAAX_K@Z 00000001800056a8 f i Scale.obj
 0001:000046a8       ?AllocateHeap@?$CTempBuffer@_W$0EAA@VCCRTAllocator@ATL@@@ATL@@AEAAX_K@Z 00000001800056a8 f i Scale.obj
 0001:000046a8       ?AllocateHeap@?$CTempBuffer@_W$0BAA@VCCRTAllocator@ATL@@@ATL@@AEAAX_K@Z 00000001800056a8 f i Scale.obj
 0001:000046d4       ?Append@CParseBuffer@CRegParser@ATL@@QEAAHPEB_WH@Z 00000001800056d4 f i Scale.obj
 0001:0000481c       ?AtlComModuleGetClassObject@ATL@@YAJPEAU_ATL_COM_MODULE70@1@AEBU_GUID@@1PEAPEAX@Z 000000018000581c f i Scale.obj
 0001:0000495c       ?AtlComModuleRegisterServer@ATL@@YAJPEAU_ATL_COM_MODULE70@1@HPEBU_GUID@@@Z 000000018000595c f i Scale.obj
 0001:00004a1c       ?AtlComModuleUnregisterServer@ATL@@YAJPEAU_ATL_COM_MODULE70@1@HPEBU_GUID@@@Z 0000000180005a1c f i Scale.obj
 0001:00004ad8       ?AtlHiMetricToPixel@ATL@@YAXPEBUtagSIZE@@PEAU2@@Z 0000000180005ad8 f i Scale.obj
 0001:00004b88       ?AtlHresultFromLastError@ATL@@YAJXZ 0000000180005b88 f i Scale.obj
 0001:00004ba8       ?AtlHresultFromWin32@ATL@@YAJK@Z 0000000180005ba8 f i Scale.obj
 0001:00004bb8       ?AtlInternalOleLoadFromStream@ATL@@YAJPEAUIStream@@AEBU_GUID@@PEAPEAXTClassesAllowedInStream@1@K@Z 0000000180005bb8 f i Scale.obj
 0001:00004cfc       ?AtlInternalQueryInterface@ATL@@YAJPEAXPEBU_ATL_INTMAP_ENTRY@1@AEBU_GUID@@PEAPEAX@Z 0000000180005cfc f i Scale.obj
 0001:00004e04       ?AtlLoadTypeLib@ATL@@YAJPEAUHINSTANCE__@@PEB_WPEAPEA_WPEAPEAUITypeLib@@@Z 0000000180005e04 f i Scale.obj
 0001:00005060       ?AtlRegisterClassCategoriesHelper@ATL@@YAJAEBU_GUID@@PEBU_ATL_CATMAP_ENTRY@1@H@Z 0000000180006060 f i Scale.obj
 0001:000054e4       ?AtlRegisterTypeLib@ATL@@YAJPEAUHINSTANCE__@@PEB_W@Z 00000001800064e4 f i Scale.obj
 0001:000056e0       ?AtlThrowImpl@ATL@@YAXJ@Z  00000001800066e0 f i Scale.obj
 0001:00005704       ?AtlUnRegisterTypeLib@ATL@@YAJPEAUHINSTANCE__@@PEB_W@Z 0000000180006704 f i Scale.obj
 0001:000057cc       ?AtlWinModuleExtractCreateWndData@ATL@@YAPEAXPEAU_ATL_WIN_MODULE70@1@@Z 00000001800067cc f i Scale.obj
 0001:00005858       ?Cleanup@CComTypeInfoHolder@ATL@@SAX_K@Z 0000000180006858 f i Scale.obj
 0001:00005898       ?ClearReplacements@CExpansionVector@ATL@@QEAAJXZ 0000000180006898 f i Scale.obj
 0001:00005934       ?CreateInstance@?$CComCreator@V?$CComAggObject@VCOPOSScale@@@ATL@@@ATL@@SAJPEAXAEBU_GUID@@PEAPEAX@Z 0000000180006934 f i Scale.obj
 0001:00005a18       ?CreateInstance@?$CComCreator@V?$CComObject@VCOPOSScale@@@ATL@@@ATL@@SAJPEAXAEBU_GUID@@PEAPEAX@Z 0000000180006a18 f i Scale.obj
 0001:00005acc       ?CreateInstance@?$CComObject@V?$CComEnum@UIEnumConnectionPoints@@$1?_GUID_b196b285_bab4_101a_b69c_00aa00341d07@@3U__s_GUID@@BPEAUIConnectionPoint@@V?$_CopyInterface@UIConnectionPoint@@@ATL@@VCComSingleThreadModel@6@@ATL@@@ATL@@SAJPEAPEAV12@@Z 0000000180006acc f i Scale.obj
 0001:00005b5c       ?CreateInstance@?$CComObject@V?$CComEnum@UIEnumConnections@@$1?_GUID_b196b287_bab4_101a_b69c_00aa00341d07@@3U__s_GUID@@BUtagCONNECTDATA@@V?$_Copy@UtagCONNECTDATA@@@ATL@@VCComSingleThreadModel@6@@ATL@@@ATL@@SAJPEAPEAV12@@Z 0000000180006b5c f i Scale.obj
 0001:00005bec       ?DefaultReflectionHandler@?$CWindowImplRoot@VCWindow@ATL@@@ATL@@SAHPEAUHWND__@@I_K_JAEA_J@Z 0000000180006bec f i Scale.obj
 0001:00005c50       ?DeleteSubKey@CRegKey@ATL@@QEAAJPEB_W@Z 0000000180006c50 f i Scale.obj
 0001:00005ce8       ?DoEvent@COPOSScale@@IEAAXI_K_J@Z 0000000180006ce8 f i Scale.obj
 0001:00005d9c       ?DoVerbPrimary@?$IOleObjectImpl@VCOPOSScale@@@ATL@@QEAAJPEBUtagRECT@@PEAUHWND__@@@Z 0000000180006d9c f i Scale.obj
 0001:00005ec8       ?DoVerbProperties@CComControlBase@ATL@@QEAAJPEBUtagRECT@@PEAUHWND__@@@Z 0000000180006ec8 f i Scale.obj
 0001:000060f0       ?FireTheEvent@?$CProxy_IOPOSEvents@VCOPOSScale@@@@IEAAXPEAVOposVariant@@IAEAJPEB_WJ@Z 00000001800070f0 f i Scale.obj
 0001:000061dc       ?FireViewChange@CComControlBase@ATL@@QEAAJXZ 00000001800071dc f i Scale.obj
 0001:00006240       ?Fire_DataEvent@?$CProxy_IOPOSEvents@VCOPOSScale@@@@QEAAXJ@Z 0000000180007240 f i Scale.obj
 0001:0000632c       ?Fire_DirectIOEvent@?$CProxy_IOPOSEvents@VCOPOSScale@@@@QEAAXJPEAJPEAPEA_W@Z 000000018000732c f i Scale.obj
 0001:0000648c       ?Fire_ErrorEvent@?$CProxy_IOPOSEvents@VCOPOSScale@@@@QEAAXJJJPEAJ@Z 000000018000748c f i Scale.obj
 0001:00006600       ?Fire_StatusUpdateEvent@?$CProxy_IOPOSEvents@VCOPOSScale@@@@QEAAXJ@Z 0000000180007600 f i Scale.obj
 0001:000066ec       ?FreeHeap@?$CTempBuffer@_W$0EAA@VCCRTAllocator@ATL@@@ATL@@AEAAXXZ 00000001800076ec f i Scale.obj
 0001:000066ec       ?FreeHeap@?$CTempBuffer@E$0BAA@VCCRTAllocator@ATL@@@ATL@@AEAAXXZ 00000001800076ec f i Scale.obj
 0001:000066ec       ?FreeHeap@?$CTempBuffer@_W$0BAA@VCCRTAllocator@ATL@@@ATL@@AEAAXXZ 00000001800076ec f i Scale.obj
 0001:000066f4       ?GetAmbientLocaleID@CComControlBase@ATL@@QEAAJAEAK@Z 00000001800076f4 f i Scale.obj
 0001:000067b4       ?GetAmbientUserMode@CComControlBase@ATL@@QEAAJAEAH@Z 00000001800077b4 f i Scale.obj
 0001:00006884       ?GetClassObject@CComModule@ATL@@QEAAJAEBU_GUID@@0PEAPEAX@Z 0000000180007884 f i Scale.obj
 0001:00006978       ?GetConnMap@COPOSScale@@SAPEBU_ATL_CONNMAP_ENTRY@ATL@@PEAH@Z 0000000180007978 f i Scale.obj
 0001:00006a00       ?GetIDsOfNames@CComTypeInfoHolder@ATL@@QEAAJAEBU_GUID@@PEAPEA_WIKPEAJ@Z 0000000180007a00 f i Scale.obj
 0001:00006b78       ?GetPagesHelper@?$ISpecifyPropertyPagesImpl@VCOPOSScale@@@ATL@@IEAAJPEAUtagCAUUID@@PEBUATL_PROPMAP_ENTRY@2@@Z 0000000180007b78 f i Scale.obj
 0001:00006d18       ?GetSizeMax@CComVariant@ATL@@QEBAJPEAT_ULARGE_INTEGER@@@Z 0000000180007d18 f i Scale.obj
 0001:00006f48       ?GetTI@CComTypeInfoHolder@ATL@@QEAAJK@Z 0000000180007f48 f i Scale.obj
 0001:00007230       ?GetZoomInfo@CComControlBase@ATL@@QEAAXAEAUATL_DRAWINFO@@@Z 0000000180008230 f i Scale.obj
 0001:000072d4       ?HKeyFromString@CRegParser@ATL@@KAPEAUHKEY__@@PEA_W@Z 00000001800082d4 f i Scale.obj
 0001:00007338       ?IDataObject_GetData@CComControlBase@ATL@@QEAAJPEAUtagFORMATETC@@PEAUtagSTGMEDIUM@@@Z 0000000180008338 f i Scale.obj
 0001:0000752c       ?IOleInPlaceObject_InPlaceDeactivate@CComControlBase@ATL@@QEAAJXZ 000000018000852c f i Scale.obj
 0001:000075cc       ?IOleInPlaceObject_SetObjectRects@CComControlBase@ATL@@QEAAJPEBUtagRECT@@0@Z 00000001800085cc f i Scale.obj
 0001:000076bc       ?IOleInPlaceObject_UIDeactivate@CComControlBase@ATL@@QEAAJXZ 00000001800086bc f i Scale.obj
 0001:000077c8       ?IOleObject_Close@CComControlBase@ATL@@QEAAJK@Z 00000001800087c8 f i Scale.obj
 0001:000078e0       ?IOleObject_SetClientSite@CComControlBase@ATL@@QEAAJPEAUIOleClientSite@@@Z 00000001800088e0 f i Scale.obj
 0001:00007958       ?IOleObject_SetExtent@CComControlBase@ATL@@QEAAJKPEAUtagSIZE@@@Z 0000000180008958 f i Scale.obj
 0001:000079f0       ?IPSI_GetIPersistStreamInit@?$IPersistStorageImpl@VCOPOSScale@@@ATL@@AEAAPEAUIPersistStreamInit@@XZ 00000001800089f0 f i Scale.obj
 0001:00007ad8       ?IPersistStreamInit_Load@?$IPersistStreamInitImpl@VCOPOSScale@@@ATL@@QEAAJPEAUIStream@@PEBUATL_PROPMAP_ENTRY@2@@Z 0000000180008ad8 f i Scale.obj
 0001:00007e04       ?IPersistStreamInit_Save@?$IPersistStreamInitImpl@VCOPOSScale@@@ATL@@QEAAJPEAUIStream@@HPEBUATL_PROPMAP_ENTRY@2@@Z 0000000180008e04 f i Scale.obj
 0001:000080a4       ?IQuickActivate_QuickActivate@CComControlBase@ATL@@QEAAJPEAUtagQACONTAINER@@PEAUtagQACONTROL@@@Z 00000001800090a4 f i Scale.obj
 0001:00008368       ?IViewObject_Draw@CComControlBase@ATL@@QEAAJKJPEAXPEAUtagDVTARGETDEVICE@@PEAUHDC__@@2PEBU_RECTL@@3@Z 0000000180009368 f i Scale.obj
 0001:0000847c       ?InPlaceActivate@CComControlBase@ATL@@QEAAJJPEBUtagRECT@@@Z 000000018000947c f i Scale.obj
 0001:000087b0       ?Init@?$CComEnumImpl@UIEnumConnectionPoints@@$1?_GUID_b196b285_bab4_101a_b69c_00aa00341d07@@3U__s_GUID@@BPEAUIConnectionPoint@@V?$_CopyInterface@UIConnectionPoint@@@ATL@@@ATL@@QEAAJPEAPEAUIConnectionPoint@@0PEAUIUnknown@@W4CComEnumFlags@2@@Z 00000001800097b0 f i Scale.obj
 0001:000088d0       ?Init@?$CComEnumImpl@UIEnumConnections@@$1?_GUID_b196b287_bab4_101a_b69c_00aa00341d07@@3U__s_GUID@@BUtagCONNECTDATA@@V?$_Copy@UtagCONNECTDATA@@@ATL@@@ATL@@QEAAJPEAUtagCONNECTDATA@@0PEAUIUnknown@@W4CComEnumFlags@2@@Z 00000001800098d0 f i Scale.obj
 0001:000089f4       ?IsEqualObject@?$CComPtrBase@UIOleClientSite@@@ATL@@QEAA_NPEAUIUnknown@@@Z 00000001800099f4 f i Scale.obj
 0001:00008a80       ?LoadNameCache@CComTypeInfoHolder@ATL@@QEAAJPEAUITypeInfo@@@Z 0000000180009a80 f i Scale.obj
 0001:00008c00       ?Lookup@?$CSimpleMap@PEA_WPEA_WVCExpansionVectorEqualHelper@ATL@@@ATL@@QEBAPEA_WAEBQEA_W@Z 0000000180009c00 f i Scale.obj
 0001:00008c88       ?NextToken@CRegParser@ATL@@IEAAJPEA_W@Z 0000000180009c88 f i Scale.obj
 0001:00008e40       ?OnKillFocus@CComControlBase@ATL@@QEAA_JI_K_JAEAH@Z 0000000180009e40 f i Scale.obj
 0001:00008edc       ?OnMouseActivate@CComControlBase@ATL@@QEAA_JI_K_JAEAH@Z 0000000180009edc f i Scale.obj
 0001:00008f7c       ?OnPaint@CComControlBase@ATL@@QEAA_JI_K_JAEAH@Z 0000000180009f7c f i Scale.obj
 0001:00009068       ?OnSetFocus@CComControlBase@ATL@@QEAA_JI_K_JAEAH@Z 000000018000a068 f i Scale.obj
 0001:00009164       ?PreProcessBuffer@CRegParser@ATL@@QEAAJPEA_WPEAPEA_W@Z 000000018000a164 f i Scale.obj
 0001:000094f0       ?ProcessWindowMessage@?$CComControl@VCOPOSScale@@V?$CWindowImpl@VCOPOSScale@@VCWindow@ATL@@V?$CWinTraits@$0FGAAAAAA@$0A@@3@@ATL@@@ATL@@UEAAHPEAUHWND__@@I_K_JAEA_JK@Z 000000018000a4f0 f i Scale.obj
 0001:000095d4       ?ReadFromStream@CComBSTR@ATL@@QEAAJPEAUIStream@@@Z 000000018000a5d4 f i Scale.obj
 0001:00009724       ?ReadFromStream@CComVariant@ATL@@QEAAJPEAUIStream@@GTClassesAllowedInStream@2@K@Z 000000018000a724 f i Scale.obj
 0001:00009948       ?RecurseDeleteKey@CRegKey@ATL@@QEAAJPEB_W@Z 000000018000a948 f i Scale.obj
 0001:00009aa0       ?RegCreateKeyExW@CAtlTransactionManager@ATL@@QEAAJPEAUHKEY__@@PEB_WKPEA_WKKQEAU_SECURITY_ATTRIBUTES@@PEAPEAU3@PEAK@Z 000000018000aaa0 f i Scale.obj
 0001:00009bd4       ?RegDeleteKeyW@CAtlTransactionManager@ATL@@QEAAJPEAUHKEY__@@PEB_W@Z 000000018000abd4 f i Scale.obj
 0001:00009c60       ?RegOpenKeyExW@CAtlTransactionManager@ATL@@QEAAJPEAUHKEY__@@PEB_WKKPEAPEAU3@@Z 000000018000ac60 f i Scale.obj
 0001:00009d18       ?RegisterBuffer@CRegParser@ATL@@QEAAJPEA_WH@Z 000000018000ad18 f i Scale.obj
 0001:00009e80       ?RegisterFromResource@CRegObject@ATL@@IEAAJPEB_W00H@Z 000000018000ae80 f i Scale.obj
 0001:0000a03c       ?RegisterServer@CComModule@ATL@@QEAAJHPEBU_GUID@@@Z 000000018000b03c f i Scale.obj
 0001:0000a0fc       ?RegisterSubkeys@CRegParser@ATL@@IEAAJPEA_WPEAUHKEY__@@HH@Z 000000018000b0fc f i Scale.obj
 0001:0000a968       ?SendOnDataChange@CComControlBase@ATL@@QEAAJK@Z 000000018000b968 f i Scale.obj
 0001:0000a9d8       ?SetControlFocus@CComControlBase@ATL@@QEAAHH@Z 000000018000b9d8 f i Scale.obj
 0001:0000aab4       ?SkipAssignment@CRegParser@ATL@@IEAAJPEA_W@Z 000000018000bab4 f i Scale.obj
 0001:0000ab58       ?Term@CAtlModule@ATL@@QEAAXXZ 000000018000bb58 f i Scale.obj
 0001:0000abd8       ?Term@CComModule@ATL@@QEAAXXZ 000000018000bbd8 f i Scale.obj
 0001:0000ac54       ?UnregisterServer@CComModule@ATL@@QEAAJHPEBU_GUID@@@Z 000000018000bc54 f i Scale.obj
 0001:0000ad04       ?UpdateRegistryFromResource@CAtlModule@ATL@@QEAAJIHPEAU_ATL_REGMAP_ENTRY@2@@Z 000000018000bd04 f i Scale.obj
 0001:0000b010       ?UpdateRegistryFromResource@CAtlModule@ATL@@QEAAJPEB_WHPEAU_ATL_REGMAP_ENTRY@2@@Z 000000018000c010 f i Scale.obj
 0001:0000b334       ?VTFromRegType@CRegParser@ATL@@KAHPEB_WAEAG@Z 000000018000c334 f i Scale.obj
 0001:0000b3d0       ?WindowProc@?$CWindowImplBaseT@VCWindow@ATL@@V?$CWinTraits@$0FGAAAAAA@$0A@@2@@ATL@@SA_JPEAUHWND__@@I_K_J@Z 000000018000c3d0 f i Scale.obj
 0001:0000b53c       ?WriteToStream@CComVariant@ATL@@QEAAJPEAUIStream@@@Z 000000018000c53c f i Scale.obj
 0001:0000b7b8       ?WriteToStream@CComVariant@ATL@@QEAAJPEAUIStream@@G@Z 000000018000c7b8 f i Scale.obj
 0001:0000b850       ?_AtlVerifyStackAvailable@_ATL_SAFE_ALLOCA_IMPL@ATL@@YA_N_K@Z 000000018000c850 f i Scale.obj
 0001:0000b8d4       ?atlCreate@?$CWindowImpl@VCOPOSScale@@VCWindow@ATL@@V?$CWinTraits@$0FGAAAAAA@$0A@@3@@ATL@@QEAAPEAUHWND__@@PEAU3@V_U_RECT@2@PEB_WKKV_U_MENUorID@2@PEAX@Z 000000018000c8d4 f i Scale.obj
 0001:0000b984       ?atlCreate@?$CWindowImplBaseT@VCWindow@ATL@@V?$CWinTraits@$0FGAAAAAA@$0A@@2@@ATL@@QEAAPEAUHWND__@@PEAU3@V_U_RECT@2@PEB_WKKV_U_MENUorID@2@GPEAX@Z 000000018000c984 f i Scale.obj
 0001:0000baf4       ?ocscpy_s@@YA_NPEA_W_KPEB_W@Z 000000018000caf4 f i Scale.obj
 0001:0000bba4       DllCanUnloadNow            000000018000cba4 f   Scale.obj
 0001:0000bbb0       DllGetClassObject          000000018000cbb0 f   Scale.obj
 0001:0000bbc8       DllMain                    000000018000cbc8 f   Scale.obj
 0001:0000bc70       DllRegisterServer          000000018000cc70 f   Scale.obj
 0001:0000bc84       DllUnregisterServer        000000018000cc84 f   Scale.obj
 0001:0000bc98       __local_stdio_printf_options 000000018000cc98 f i Scale.obj
 0001:0000bca0       swprintf_s                 000000018000cca0 f i Scale.obj
 0001:0000bcf4       ??0COPOSScale@@QEAA@XZ     000000018000ccf4 f   ScaleImpl.obj
 0001:0000bdbc       ??1?$IConnectionPointImpl@VCOPOSScale@@$1?IID_IPropertyNotifySink@@3U_GUID@@BVCComDynamicUnkArray@ATL@@@ATL@@QEAA@XZ 000000018000cdbc f i ScaleImpl.obj
 0001:0000bdbc       ??1?$IConnectionPointImpl@VCOPOSScale@@$1?DIID__IOPOSScaleEvents@@3U_GUID@@BVCComDynamicUnkArray@ATL@@@ATL@@QEAA@XZ 000000018000cdbc f i ScaleImpl.obj
 0001:0000be18       ??1CComControlBase@ATL@@UEAA@XZ 000000018000ce18 f i ScaleImpl.obj
 0001:0000be94       ??1COPOSScale@@UEAA@XZ     000000018000ce94 f   ScaleImpl.obj
 0001:0000bef8       ?CheckHealth@COPOSScale@@UEAAJJPEAJ@Z 000000018000cef8 f   ScaleImpl.obj
 0001:0000bf74       ?ClaimDevice@COPOSScale@@UEAAJJPEAJ@Z 000000018000cf74 f   ScaleImpl.obj
 0001:0000c014       ?ClearInput@COPOSScale@@UEAAJPEAJ@Z 000000018000d014 f   ScaleImpl.obj
 0001:0000c03c       ?Close@COPOSScale@@UEAAJPEAJ@Z 000000018000d03c f   ScaleImpl.obj
 0001:0000c0f4       ?CompareFirmwareVersion@COPOSScale@@UEAAJPEA_WPEAJ1@Z 000000018000d0f4 f   ScaleImpl.obj
 0001:0000c1d0       ?DirectIO@COPOSScale@@UEAAJJPEAJPEAPEA_W0@Z 000000018000d1d0 f   ScaleImpl.obj
 0001:0000c2cc       ?DisplayText@COPOSScale@@UEAAJPEA_WPEAJ@Z 000000018000d2cc f   ScaleImpl.obj
 0001:0000c354       ?DoInvoke@COPOSScale@@IEAAJJPEAVOposVariant@@IHPEAJ_N@Z 000000018000d354 f   ScaleImpl.obj
 0001:0000c488       ?DoPriceCalculating@COPOSScale@@UEAAJPEAJ0PEATtagCY@@10001J0@Z 000000018000d488 f   ScaleImpl.obj
 0001:0000c630       ?EventInit@COPOSScale@@IEAAJXZ 000000018000d630 f i ScaleImpl.obj
 0001:0000c778       ?EventUninit@COPOSScale@@IEAAXXZ 000000018000d778 f i ScaleImpl.obj
 0001:0000c7dc       ?EventWindowProc@COPOSScale@@IEAA_JI_K_J@Z 000000018000d7dc f i ScaleImpl.obj
 0001:0000c954       ?FinalConstruct@COPOSScale@@QEAAJXZ 000000018000d954 f   ScaleImpl.obj
 0001:0000c990       ?FreezeEvents@COPOSScale@@MEAAJH@Z 000000018000d990 f   ScaleImpl.obj
 0001:0000ca04       ?FreezeValue@COPOSScale@@UEAAJJFPEAJ@Z 000000018000da04 f   ScaleImpl.obj
 0001:0000cad0       ?GetOposProp@COPOSScale@@IEAAJJPEAJJ@Z 000000018000dad0 f   ScaleImpl.obj
 0001:0000cbec       ?GetOposProp@COPOSScale@@IEAAJJPEAPEA_WJ@Z 000000018000dbec f   ScaleImpl.obj
 0001:0000cd18       ?OnDraw@COPOSScale@@MEAAJAEAUATL_DRAWINFO@@@Z 000000018000dd18 f   ScaleImpl.obj
 0001:0000ce04       ?Open@COPOSScale@@UEAAJPEA_WPEAJ@Z 000000018000de04 f   ScaleImpl.obj
 0001:0000d68c       ?ReadLiveWeightWithTare@COPOSScale@@UEAAJPEAJ0J0@Z 000000018000e68c f   ScaleImpl.obj
 0001:0000d788       ?ReadWeight@COPOSScale@@UEAAJPEAJJ0@Z 000000018000e788 f   ScaleImpl.obj
 0001:0000d860       ?ReleaseDevice@COPOSScale@@UEAAJPEAJ@Z 000000018000e860 f   ScaleImpl.obj
 0001:0000d8cc       ?ResetStatistics@COPOSScale@@UEAAJPEA_WPEAJ@Z 000000018000e8cc f   ScaleImpl.obj
 0001:0000d954       ?RetrieveStatistics@COPOSScale@@UEAAJPEAPEA_WPEAJ@Z 000000018000e954 f   ScaleImpl.obj
 0001:0000d9dc       ?SOProcessID@COPOSScale@@UEAAJPEAJ@Z 000000018000e9dc f   ScaleImpl.obj
 0001:0000d9f8       ?SetCOFreezeEvents@COPOSScale@@IEAAXF@Z 000000018000e9f8 f   ScaleImpl.obj
 0001:0000dadc       ?SetOposProp@COPOSScale@@IEAAJJJJ@Z 000000018000eadc f   ScaleImpl.obj
 0001:0000dc3c       ?SetPriceCalculationMode@COPOSScale@@UEAAJJPEAJ@Z 000000018000ec3c f   ScaleImpl.obj
 0001:0000dcb8       ?SetSpecialTare@COPOSScale@@UEAAJJJPEAJ@Z 000000018000ecb8 f   ScaleImpl.obj
 0001:0000dd84       ?SetTarePriority@COPOSScale@@UEAAJJPEAJ@Z 000000018000ed84 f   ScaleImpl.obj
 0001:0000de00       ?SetUnitPriceWithWeightUnit@COPOSScale@@UEAAJTtagCY@@JJJPEAJ@Z 000000018000ee00 f   ScaleImpl.obj
 0001:0000defc       ?UpdateFirmware@COPOSScale@@UEAAJPEA_WPEAJ@Z 000000018000eefc f   ScaleImpl.obj
 0001:0000df84       ?UpdateStatistics@COPOSScale@@UEAAJPEA_WPEAJ@Z 000000018000ef84 f   ScaleImpl.obj
 0001:0000e00c       ?ZeroScale@COPOSScale@@UEAAJPEAJ@Z 000000018000f00c f   ScaleImpl.obj
 0001:0000e034       ?get_AsyncMode@COPOSScale@@UEAAJPEAF@Z 000000018000f034 f   ScaleImpl.obj
 0001:0000e068       ?get_AutoDisable@COPOSScale@@UEAAJPEAF@Z 000000018000f068 f   ScaleImpl.obj
 0001:0000e09c       ?get_BinaryConversion@COPOSScale@@UEAAJPEAJ@Z 000000018000f09c f   ScaleImpl.obj
 0001:0000e0b0       ?get_CapCompareFirmwareVersion@COPOSScale@@UEAAJPEAF@Z 000000018000f0b0 f   ScaleImpl.obj
 0001:0000e0e4       ?get_CapDisplay@COPOSScale@@UEAAJPEAF@Z 000000018000f0e4 f   ScaleImpl.obj
 0001:0000e118       ?get_CapDisplayText@COPOSScale@@UEAAJPEAF@Z 000000018000f118 f   ScaleImpl.obj
 0001:0000e14c       ?get_CapFreezeValue@COPOSScale@@UEAAJPEAF@Z 000000018000f14c f   ScaleImpl.obj
 0001:0000e180       ?get_CapPowerReporting@COPOSScale@@UEAAJPEAJ@Z 000000018000f180 f   ScaleImpl.obj
 0001:0000e194       ?get_CapPriceCalculating@COPOSScale@@UEAAJPEAF@Z 000000018000f194 f   ScaleImpl.obj
 0001:0000e1c8       ?get_CapReadLiveWeightWithTare@COPOSScale@@UEAAJPEAF@Z 000000018000f1c8 f   ScaleImpl.obj
 0001:0000e1fc       ?get_CapSetPriceCalculationMode@COPOSScale@@UEAAJPEAF@Z 000000018000f1fc f   ScaleImpl.obj
 0001:0000e230       ?get_CapSetUnitPriceWithWeightUnit@COPOSScale@@UEAAJPEAF@Z 000000018000f230 f   ScaleImpl.obj
 0001:0000e264       ?get_CapSpecialTare@COPOSScale@@UEAAJPEAF@Z 000000018000f264 f   ScaleImpl.obj
 0001:0000e298       ?get_CapStatisticsReporting@COPOSScale@@UEAAJPEAF@Z 000000018000f298 f   ScaleImpl.obj
 0001:0000e2cc       ?get_CapStatusUpdate@COPOSScale@@UEAAJPEAF@Z 000000018000f2cc f   ScaleImpl.obj
 0001:0000e300       ?get_CapTarePriority@COPOSScale@@UEAAJPEAF@Z 000000018000f300 f   ScaleImpl.obj
 0001:0000e334       ?get_CapTareWeight@COPOSScale@@UEAAJPEAF@Z 000000018000f334 f   ScaleImpl.obj
 0001:0000e368       ?get_CapUpdateFirmware@COPOSScale@@UEAAJPEAF@Z 000000018000f368 f   ScaleImpl.obj
 0001:0000e39c       ?get_CapUpdateStatistics@COPOSScale@@UEAAJPEAF@Z 000000018000f39c f   ScaleImpl.obj
 0001:0000e3d0       ?get_CapZeroScale@COPOSScale@@UEAAJPEAF@Z 000000018000f3d0 f   ScaleImpl.obj
 0001:0000e404       ?get_CheckHealthText@COPOSScale@@UEAAJPEAPEA_W@Z 000000018000f404 f   ScaleImpl.obj
 0001:0000e414       ?get_Claimed@COPOSScale@@UEAAJPEAF@Z 000000018000f414 f   ScaleImpl.obj
 0001:0000e444       ?get_ControlObjectDescription@COPOSScale@@UEAAJPEAPEA_W@Z 000000018000f444 f   ScaleImpl.obj
 0001:0000e4a8       ?get_ControlObjectVersion@COPOSScale@@UEAAJPEAJ@Z 000000018000f4a8 f   ScaleImpl.obj
 0001:0000e4b4       ?get_DataCount@COPOSScale@@UEAAJPEAJ@Z 000000018000f4b4 f   ScaleImpl.obj
 0001:0000e4c8       ?get_DataEventEnabled@COPOSScale@@UEAAJPEAF@Z 000000018000f4c8 f   ScaleImpl.obj
 0001:0000e4fc       ?get_DeviceDescription@COPOSScale@@UEAAJPEAPEA_W@Z 000000018000f4fc f   ScaleImpl.obj
 0001:0000e50c       ?get_DeviceEnabled@COPOSScale@@UEAAJPEAF@Z 000000018000f50c f   ScaleImpl.obj
 0001:0000e53c       ?get_DeviceName@COPOSScale@@UEAAJPEAPEA_W@Z 000000018000f53c f   ScaleImpl.obj
 0001:0000e54c       ?get_FreezeEvents@COPOSScale@@UEAAJPEAF@Z 000000018000f54c f   ScaleImpl.obj
 0001:0000e57c       ?get_MaxDisplayTextChars@COPOSScale@@UEAAJPEAJ@Z 000000018000f57c f   ScaleImpl.obj
 0001:0000e590       ?get_MaximumWeight@COPOSScale@@UEAAJPEAJ@Z 000000018000f590 f   ScaleImpl.obj
 0001:0000e5a0       ?get_MinimumWeight@COPOSScale@@UEAAJPEAJ@Z 000000018000f5a0 f   ScaleImpl.obj
 0001:0000e5b4       ?get_OpenResult@COPOSScale@@UEAAJPEAJ@Z 000000018000f5b4 f   ScaleImpl.obj
 0001:0000e5c0       ?get_PowerNotify@COPOSScale@@UEAAJPEAJ@Z 000000018000f5c0 f   ScaleImpl.obj
 0001:0000e5d4       ?get_PowerState@COPOSScale@@UEAAJPEAJ@Z 000000018000f5d4 f   ScaleImpl.obj
 0001:0000e5e8       ?get_ResultCode@COPOSScale@@UEAAJPEAJ@Z 000000018000f5e8 f   ScaleImpl.obj
 0001:0000e624       ?get_ResultCodeExtended@COPOSScale@@UEAAJPEAJ@Z 000000018000f624 f   ScaleImpl.obj
 0001:0000e634       ?get_SalesPrice@COPOSScale@@UEAAJPEATtagCY@@@Z 000000018000f634 f   ScaleImpl.obj
 0001:0000e714       ?get_ScaleLiveWeight@COPOSScale@@UEAAJPEAJ@Z 000000018000f714 f   ScaleImpl.obj
 0001:0000e728       ?get_ServiceObjectDescription@COPOSScale@@UEAAJPEAPEA_W@Z 000000018000f728 f   ScaleImpl.obj
 0001:0000e738       ?get_ServiceObjectVersion@COPOSScale@@UEAAJPEAJ@Z 000000018000f738 f   ScaleImpl.obj
 0001:0000e748       ?get_State@COPOSScale@@UEAAJPEAJ@Z 000000018000f748 f   ScaleImpl.obj
 0001:0000e774       ?get_StatusNotify@COPOSScale@@UEAAJPEAJ@Z 000000018000f774 f   ScaleImpl.obj
 0001:0000e788       ?get_TareWeight@COPOSScale@@UEAAJPEAJ@Z 000000018000f788 f   ScaleImpl.obj
 0001:0000e79c       ?get_UnitPrice@COPOSScale@@UEAAJPEATtagCY@@@Z 000000018000f79c f   ScaleImpl.obj
 0001:0000e87c       ?get_WeightUnits@COPOSScale@@UEAAJPEAJ@Z 000000018000f87c f   ScaleImpl.obj
 0001:0000e87c       ?get_WeightUnit@COPOSScale@@UEAAJPEAJ@Z 000000018000f87c f   ScaleImpl.obj
 0001:0000e88c       ?get_ZeroValid@COPOSScale@@UEAAJPEAF@Z 000000018000f88c f   ScaleImpl.obj
 0001:0000e8c0       ?put_AsyncMode@COPOSScale@@UEAAJF@Z 000000018000f8c0 f   ScaleImpl.obj
 0001:0000e8dc       ?put_AutoDisable@COPOSScale@@UEAAJF@Z 000000018000f8dc f   ScaleImpl.obj
 0001:0000e8f4       ?put_BinaryConversion@COPOSScale@@UEAAJJ@Z 000000018000f8f4 f   ScaleImpl.obj
 0001:0000e908       ?put_DataEventEnabled@COPOSScale@@UEAAJF@Z 000000018000f908 f   ScaleImpl.obj
 0001:0000e920       ?put_DeviceEnabled@COPOSScale@@UEAAJF@Z 000000018000f920 f   ScaleImpl.obj
 0001:0000e938       ?put_FreezeEvents@COPOSScale@@UEAAJF@Z 000000018000f938 f   ScaleImpl.obj
 0001:0000e988       ?put_PowerNotify@COPOSScale@@UEAAJJ@Z 000000018000f988 f   ScaleImpl.obj
 0001:0000e99c       ?put_StatusNotify@COPOSScale@@UEAAJJ@Z 000000018000f99c f   ScaleImpl.obj
 0001:0000e9b0       ?put_TareWeight@COPOSScale@@UEAAJJ@Z 000000018000f9b0 f   ScaleImpl.obj
 0001:0000e9c4       ?put_UnitPrice@COPOSScale@@UEAAJTtagCY@@@Z 000000018000f9c4 f   ScaleImpl.obj
 0001:0000eac8       ?put_ZeroValid@COPOSScale@@UEAAJF@Z 000000018000fac8 f   ScaleImpl.obj
 0001:0000eae4       ?s_EventWindowProc@COPOSScale@@KA_JPEAUHWND__@@I_K_J@Z 000000018000fae4 f i ScaleImpl.obj
 0001:0000eb60       ??_U@YAPEAX_K@Z            000000018000fb60 f   LIBCMT:new_array.obj
 0001:0000eb68       ??3@YAXPEAX_K@Z            000000018000fb68 f   LIBCMT:delete_scalar_size.obj
 0001:0000eb68       ??_V@YAXPEAX@Z             000000018000fb68 f   LIBCMT:delete_array.obj
 0001:0000eb70       ??_V@YAXPEAX_K@Z           000000018000fb70 f   LIBCMT:delete_array_size.obj
 0001:0000eb78       __scrt_acquire_startup_lock 000000018000fb78 f   LIBCMT:utility.obj
 0001:0000ebb4       __scrt_dllmain_after_initialize_c 000000018000fbb4 f   LIBCMT:utility.obj
 0001:0000ebe8       __scrt_dllmain_before_initialize_c 000000018000fbe8 f   LIBCMT:utility.obj
 0001:0000ec00       __scrt_dllmain_crt_thread_attach 000000018000fc00 f   LIBCMT:utility.obj
 0001:0000ec28       __scrt_dllmain_crt_thread_detach 000000018000fc28 f   LIBCMT:utility.obj
 0001:0000ec40       __scrt_dllmain_exception_filter 000000018000fc40 f   LIBCMT:utility.obj
 0001:0000eca0       __scrt_dllmain_uninitialize_c 000000018000fca0 f   LIBCMT:utility.obj
 0001:0000ecd0       __scrt_dllmain_uninitialize_critical 000000018000fcd0 f   LIBCMT:utility.obj
 0001:0000ece4       __scrt_initialize_crt      000000018000fce4 f   LIBCMT:utility.obj
 0001:0000ed30       __scrt_initialize_onexit_tables 000000018000fd30 f   LIBCMT:utility.obj
 0001:0000edbc       __scrt_is_nonwritable_in_current_image 000000018000fdbc f   LIBCMT:utility.obj
 0001:0000ee54       __scrt_release_startup_lock 000000018000fe54 f   LIBCMT:utility.obj
 0001:0000ee78       __scrt_uninitialize_crt    000000018000fe78 f   LIBCMT:utility.obj
 0001:0000eea4       _onexit                    000000018000fea4 f   LIBCMT:utility.obj
 0001:0000eee0       atexit                     000000018000fee0 f   LIBCMT:utility.obj
 0001:0000eef8       ??3@YAXPEAX@Z              000000018000fef8 f   LIBCMT:delete_scalar.obj
 0001:0000eff8       _Init_thread_footer        000000018000fff8 f   LIBCMT:thread_safe_statics.obj
 0001:0000f058       _Init_thread_header        0000000180010058 f   LIBCMT:thread_safe_statics.obj
 0001:0000f0c0       _Init_thread_notify        00000001800100c0 f   LIBCMT:thread_safe_statics.obj
 0001:0000f104       _Init_thread_wait          0000000180010104 f   LIBCMT:thread_safe_statics.obj
 0001:0000f168       __raise_securityfailure    0000000180010168 f   LIBCMT:gs_report.obj
 0001:0000f19c       __report_gsfailure         000000018001019c f   LIBCMT:gs_report.obj
 0001:0000f270       __report_rangecheckfailure 0000000180010270 f   LIBCMT:gs_report.obj
 0001:0000f284       __report_securityfailure   0000000180010284 f   LIBCMT:gs_report.obj
 0001:0000f404       ??2@YAPEAX_KAEBUnothrow_t@std@@@Z 0000000180010404 f   LIBCMT:new_scalar_nothrow.obj
 0001:0000f418       ??_U@YAPEAX_KAEBUnothrow_t@std@@@Z 0000000180010418 f   LIBCMT:new_array_nothrow.obj
 0001:0000f420       __GSHandlerCheck           0000000180010420 f   LIBCMT:gshandler.obj
 0001:0000f440       __GSHandlerCheckCommon     0000000180010440 f   LIBCMT:gshandler.obj
 0001:0000f49c       __GSHandlerCheck_SEH       000000018001049c f   LIBCMT:gshandlerseh.obj
 0001:0000f540       _alloca_probe              0000000180010540 f   LIBCMT:chkstk.obj
 0001:0000f540       __chkstk                   0000000180010540 f   LIBCMT:chkstk.obj
 0001:0000f5b0       __security_check_cookie    00000001800105b0 f   LIBCMT:amdsecgs.obj
 0001:0000f8f4       _DllMainCRTStartup         00000001800108f4 f   LIBCMT:dll_dllmain.obj
 0001:0000f934       ??2@YAPEAX_K@Z             0000000180010934 f   LIBCMT:new_scalar.obj
 0001:0000f970       __isa_available_init       0000000180010970 f   LIBCMT:cpu_disp.obj
 0001:0000fb14       __scrt_is_ucrt_dll_in_use  0000000180010b14 f   LIBCMT:ucrt_detection.obj
 0001:0000fb20       __crt_debugger_hook        0000000180010b20 f   LIBCMT:utility_desktop.obj
 0001:0000fb28       __scrt_fastfail            0000000180010b28 f   LIBCMT:utility_desktop.obj
 0001:0000fc74       __security_init_cookie     0000000180010c74 f   LIBCMT:gs_support.obj
 0001:0000fd20       ?__scrt_initialize_type_info@@YAXXZ 0000000180010d20 f   LIBCMT:tncleanup.obj
 0001:0000fd30       ?__scrt_uninitialize_type_info@@YAXXZ 0000000180010d30 f   LIBCMT:tncleanup.obj
 0001:0000fd3c       __local_stdio_scanf_options 0000000180010d3c f i LIBCMT:default_local_stdio_options.obj
 0001:0000fd44       __scrt_initialize_default_local_stdio_options 0000000180010d44 f   LIBCMT:default_local_stdio_options.obj
 0001:0000fd60       __scrt_get_dyn_tls_init_callback 0000000180010d60 f   LIBCMT:dyn_tls_init.obj
 0001:0000fd68       _RTC_Initialize            0000000180010d68 f   LIBCMT:initsect.obj
 0001:0000fda4       _RTC_Terminate             0000000180010da4 f   LIBCMT:initsect.obj
 0001:0000fde0       ??0bad_alloc@std@@QEAA@AEBV01@@Z 0000000180010de0 f i LIBCMT:throw_bad_alloc.obj
 0001:0000fe1c       ??0bad_alloc@std@@QEAA@XZ  0000000180010e1c f i LIBCMT:throw_bad_alloc.obj
 0001:0000fe3c       ??0bad_array_new_length@std@@QEAA@AEBV01@@Z 0000000180010e3c f i LIBCMT:throw_bad_alloc.obj
 0001:0000fe78       ??0bad_array_new_length@std@@QEAA@XZ 0000000180010e78 f i LIBCMT:throw_bad_alloc.obj
 0001:0000fe98       ??0exception@std@@QEAA@AEBV01@@Z 0000000180010e98 f i LIBCMT:throw_bad_alloc.obj
 0001:0000fecc       ??1bad_exception@std@@UEAA@XZ 0000000180010ecc f i libvcruntime:frame.obj
 0001:0000fecc       ??1bad_array_new_length@std@@UEAA@XZ 0000000180010ecc f i LIBCMT:throw_bad_alloc.obj
 0001:0000fecc       ??1bad_alloc@std@@UEAA@XZ  0000000180010ecc f i LIBCMT:throw_bad_alloc.obj
 0001:0000fee0       ??_Ebad_exception@std@@UEAAPEAXI@Z 0000000180010ee0 f i libvcruntime:frame.obj
 0001:0000fee0       ??_Gbad_exception@std@@UEAAPEAXI@Z 0000000180010ee0 f i libvcruntime:frame.obj
 0001:0000fee0       ??_Gbad_alloc@std@@UEAAPEAXI@Z 0000000180010ee0 f i LIBCMT:throw_bad_alloc.obj
 0001:0000fee0       ??_Eexception@std@@UEAAPEAXI@Z 0000000180010ee0 f i LIBCMT:throw_bad_alloc.obj
 0001:0000fee0       ??_Gexception@std@@UEAAPEAXI@Z 0000000180010ee0 f i LIBCMT:throw_bad_alloc.obj
 0001:0000fee0       ??_Ebad_array_new_length@std@@UEAAPEAXI@Z 0000000180010ee0 f i LIBCMT:throw_bad_alloc.obj
 0001:0000fee0       ??_Ebad_alloc@std@@UEAAPEAXI@Z 0000000180010ee0 f i LIBCMT:throw_bad_alloc.obj
 0001:0000fee0       ??_Gbad_array_new_length@std@@UEAAPEAXI@Z 0000000180010ee0 f i LIBCMT:throw_bad_alloc.obj
 0001:0000ff24       ?__scrt_throw_std_bad_alloc@@YAXXZ 0000000180010f24 f   LIBCMT:throw_bad_alloc.obj
 0001:0000ff44       ?__scrt_throw_std_bad_array_new_length@@YAXXZ 0000000180010f44 f   LIBCMT:throw_bad_alloc.obj
 0001:0000ff64       ?what@exception@std@@UEBAPEBDXZ 0000000180010f64 f i LIBCMT:throw_bad_alloc.obj
 0001:0000ff80       ??_Gtype_info@@UEAAPEAXI@Z 0000000180010f80 f i LIBCMT:std_type_info_static.obj
 0001:0000ff80       ??_Etype_info@@UEAAPEAXI@Z 0000000180010f80 f i LIBCMT:std_type_info_static.obj
 0001:0000ffac       ??0CAtlBaseModule@ATL@@QEAA@XZ 0000000180010fac f   atls:atlbase.obj
 0001:00010054       ??1CAtlBaseModule@ATL@@QEAA@XZ 0000000180011054 f   atls:atlbase.obj
 0001:00010188       ?__AllocStdCallThunk_cmn@@YAPEAXXZ 0000000180011188 f   atls:atlthunk.obj
 0001:000102e0       AtlThunk_AllocateData      00000001800112e0 f   atls:atlthunk.obj
 0001:0001035c       AtlThunk_DataToCode        000000018001135c f   atls:atlthunk.obj
 0001:000103b0       AtlThunk_FreeData          00000001800113b0 f   atls:atlthunk.obj
 0001:00010410       AtlThunk_InitData          0000000180011410 f   atls:atlthunk.obj
 0001:000104b8       _get_purecall_handler      00000001800114b8 f   libvcruntime:purevirt.obj
 0001:000104c0       _purecall                  00000001800114c0 f   libvcruntime:purevirt.obj
 0001:000104dc       wcsstr                     00000001800114dc f   libvcruntime:wcsstr.obj
 0001:00010710       memcmp                     0000000180011710 f   libvcruntime:memcmp.obj
 0001:000107f0       memcpy_repmovs             00000001800117f0 f   libvcruntime:memcpy.obj
 0001:00010810       memmove                    0000000180011810 f   libvcruntime:memcpy.obj
 0001:00010810       memcpy                     0000000180011810 f   libvcruntime:memcpy.obj
 0001:00010c00       memset_repmovs             0000000180011c00 f   libvcruntime:memset.obj
 0001:00010c20       memset                     0000000180011c20 f   libvcruntime:memset.obj
 0001:00010db0       __vcrt_initialize          0000000180011db0 f   libvcruntime:initialization.obj
 0001:00010dd8       __vcrt_thread_attach       0000000180011dd8 f   libvcruntime:initialization.obj
 0001:00010dec       __vcrt_thread_detach       0000000180011dec f   libvcruntime:initialization.obj
 0001:00010e00       __vcrt_uninitialize        0000000180011e00 f   libvcruntime:initialization.obj
 0001:00010e1c       __vcrt_uninitialize_critical 0000000180011e1c f   libvcruntime:initialization.obj
 0001:00010e2c       __C_specific_handler       0000000180011e2c f   libvcruntime:riscchandler.obj
 0001:00011038       ??$_CallSETranslator@V__FrameHandler4@@@@YAHPEAUEHExceptionRecord@@PEA_KPEAU_CONTEXT@@PEAU_xDISPATCHER_CONTEXT@@PEAUFuncInfo4@FH4@@K1H@Z 0000000180012038 f i libvcruntime:risctrnsctrl.obj
 0001:0001108c       ?DecompFuncInfo@FH4@@YA_JPEAEAEAUFuncInfo4@1@_KH_N@Z 000000018001208c f i libvcruntime:risctrnsctrl.obj
 0001:000111b0       ?ExecutionInCatch@__FrameHandler4@@SA_NPEAU_xDISPATCHER_CONTEXT@@PEAUFuncInfo4@FH4@@@Z 00000001800121b0 f   libvcruntime:risctrnsctrl.obj
 0001:000111b8       ?FrameUnwindToEmptyState@__FrameHandler4@@SAXPEA_KPEAU_xDISPATCHER_CONTEXT@@PEAUFuncInfo4@FH4@@@Z 00000001800121b8 f   libvcruntime:risctrnsctrl.obj
 0001:000111ec       ?GetEstablisherFrame@__FrameHandler4@@SAPEA_KPEA_KPEAU_xDISPATCHER_CONTEXT@@PEAUFuncInfo4@FH4@@0@Z 00000001800121ec f   libvcruntime:risctrnsctrl.obj
 0001:00011210       ?GetRangeOfTrysToCheck@__FrameHandler4@@SA?AU?$pair@Viterator@TryBlockMap4@FH4@@V123@@std@@AEAVTryBlockMap4@FH4@@HPEAU_xDISPATCHER_CONTEXT@@PEAUFuncInfo4@5@H@Z 0000000180012210 f   libvcruntime:risctrnsctrl.obj
 0001:0001136c       ?UnwindNestedFrames@__FrameHandler4@@SAXPEA_KPEAUEHExceptionRecord@@PEAU_CONTEXT@@0PEAXPEAUFuncInfo4@FH4@@HHPEAUHandlerType4@5@PEAU_xDISPATCHER_CONTEXT@@E@Z 000000018001236c f   libvcruntime:risctrnsctrl.obj
 0001:0001148c       ?setBuffer@TryBlockMap4@FH4@@QEAAXViterator@12@@Z 000000018001248c f i libvcruntime:risctrnsctrl.obj
 0001:00011650       _CreateFrameInfo           0000000180012650 f   libvcruntime:risctrnsctrl.obj
 0001:0001168c       _FindAndUnlinkFrame        000000018001268c f   libvcruntime:risctrnsctrl.obj
 0001:000116e0       _GetImageBase              00000001800126e0 f   libvcruntime:risctrnsctrl.obj
 0001:000116f4       _GetThrowImageBase         00000001800126f4 f   libvcruntime:risctrnsctrl.obj
 0001:00011708       _SetImageBase              0000000180012708 f   libvcruntime:risctrnsctrl.obj
 0001:00011720       _SetThrowImageBase         0000000180012720 f   libvcruntime:risctrnsctrl.obj
 0001:00011738       __CxxFrameHandler4         0000000180012738 f   libvcruntime:risctrnsctrl.obj
 0001:000117f8       __DestructExceptionObject  00000001800127f8 f   libvcruntime:ehhelpers.obj
 0001:00011868       ?_CallMemberFunction0@@YAXQEAX0@Z 0000000180012868 f i libvcruntime:ehhelpers.obj
 0001:0001186c       _IsExceptionObjectToBeDestroyed 000000018001286c f   libvcruntime:ehhelpers.obj
 0001:0001189c       __AdjustPointer            000000018001289c f   libvcruntime:ehhelpers.obj
 0001:000118c0       __FrameUnwindFilter        00000001800128c0 f   libvcruntime:ehhelpers.obj
 0001:00011928       __std_type_info_compare    0000000180012928 f   libvcruntime:std_type_info.obj
 0001:00011950       __std_type_info_destroy_list 0000000180012950 f   libvcruntime:std_type_info.obj
 0001:0001197c       __std_exception_copy       000000018001297c f   libvcruntime:std_exception.obj
 0001:00011a0c       __std_exception_destroy    0000000180012a0c f   libvcruntime:std_exception.obj
 0001:00011a34       _CxxThrowException         0000000180012a34 f   libvcruntime:throw.obj
 0001:00011ad4       __vcrt_freefls             0000000180012ad4 f   libvcruntime:per_thread_data.obj
 0001:00011af4       __vcrt_freeptd             0000000180012af4 f   libvcruntime:per_thread_data.obj
 0001:00011b44       __vcrt_getptd              0000000180012b44 f   libvcruntime:per_thread_data.obj
 0001:00011b60       __vcrt_getptd_noexit       0000000180012b60 f   libvcruntime:per_thread_data.obj
 0001:00011c20       __vcrt_initialize_ptd      0000000180012c20 f   libvcruntime:per_thread_data.obj
 0001:00011c68       __vcrt_uninitialize_ptd    0000000180012c68 f   libvcruntime:per_thread_data.obj
 0001:00011c8c       __vcrt_initialize_locks    0000000180012c8c f   libvcruntime:locks.obj
 0001:00011cc0       __vcrt_uninitialize_locks  0000000180012cc0 f   libvcruntime:locks.obj
 0001:00011d10       _NLG_Notify                0000000180012d10 f   libvcruntime:notify.obj
 0001:00011d30       __NLG_Dispatch2            0000000180012d30 f   libvcruntime:notify.obj
 0001:00011d40       __NLG_Return2              0000000180012d40 f   libvcruntime:notify.obj
 0001:00011d44       __except_validate_context_record 0000000180012d44 f   libvcruntime:jbcxrval.obj
 0001:00011d7c       ?StateFromControlPc@__FrameHandler4@@SAHPEAUFuncInfo4@FH4@@PEAU_xDISPATCHER_CONTEXT@@@Z 0000000180012d7c f   libvcruntime:ehstate.obj
 0001:00011d84       ?StateFromIp@__FrameHandler4@@SAHPEAUFuncInfo4@FH4@@PEAU_xDISPATCHER_CONTEXT@@_K@Z 0000000180012d84 f   libvcruntime:ehstate.obj
 0001:00012a08       ??$TypeMatchHelper@V__FrameHandler3@@@@YAHPEBU_s_HandlerType@@PEBU_s_CatchableType@@PEBU_s_ThrowInfo@@@Z 0000000180013a08 f i libvcruntime:frame.obj
 0001:00012b48       ??$TypeMatchHelper@V__FrameHandler4@@@@YAHPEAUHandlerType4@FH4@@PEBU_s_CatchableType@@PEBU_s_ThrowInfo@@@Z 0000000180013b48 f i libvcruntime:frame.obj
 0001:00012c8c       ??$__InternalCxxFrameHandler@V__FrameHandler4@@@@YA?AW4_EXCEPTION_DISPOSITION@@PEAUEHExceptionRecord@@PEA_KPEAU_CONTEXT@@PEAU_xDISPATCHER_CONTEXT@@PEAUFuncInfo4@FH4@@H1E@Z 0000000180013c8c f i libvcruntime:frame.obj
 0001:00012f20       ??0HandlerMap4@FH4@@QEAA@PEBUTryBlockMapEntry4@1@_KH@Z 0000000180013f20 f i libvcruntime:frame.obj
 0001:00012f9c       ??0TryBlockMap4@FH4@@QEAA@PEBUFuncInfo4@1@_K@Z 0000000180013f9c f i libvcruntime:frame.obj
 0001:00013074       ??0bad_exception@std@@QEAA@AEBV01@@Z 0000000180014074 f i libvcruntime:frame.obj
 0001:000130b0       ??0bad_exception@std@@QEAA@XZ 00000001800140b0 f i libvcruntime:frame.obj
 0001:000130d0       ?CxxCallCatchBlock@__FrameHandler4@@SAPEAXPEAU_EXCEPTION_RECORD@@@Z 00000001800140d0 f   libvcruntime:frame.obj
 0001:00013320       ?DecompHandler@HandlerMap4@FH4@@AEAAXXZ 0000000180014320 f i libvcruntime:frame.obj
 0001:00013560       ?FrameUnwindToState@__FrameHandler4@@SAXPEA_KPEAU_xDISPATCHER_CONTEXT@@PEAUFuncInfo4@FH4@@H@Z 0000000180014560 f   libvcruntime:frame.obj
 0001:000139bc       ?ReadEntry@UWMap4@FH4@@AEAAXPEAPEAE@Z 00000001800149bc f i libvcruntime:frame.obj
 0001:00013a5c       ?_CallMemberFunction1@@YAXQEAX00@Z 0000000180014a5c f i libvcruntime:frame.obj
 0001:00013a68       ?_CallMemberFunction2@@YAXQEAX00H@Z 0000000180014a68 f i libvcruntime:frame.obj
 0001:00013a78       ?getStartStop@UWMap4@FH4@@QEAAXHHAEAViterator@12@0@Z 0000000180014a78 f i libvcruntime:frame.obj
 0001:00013b48       ?getStateFromIterators@UWMap4@FH4@@SAHAEBViterator@12@H0H0@Z 0000000180014b48 f i libvcruntime:frame.obj
 0001:00013d5c       __vcrt_FlsAlloc            0000000180014d5c f   libvcruntime:winapi_downlevel.obj
 0001:00013da4       __vcrt_FlsFree             0000000180014da4 f   libvcruntime:winapi_downlevel.obj
 0001:00013dec       __vcrt_FlsGetValue         0000000180014dec f   libvcruntime:winapi_downlevel.obj
 0001:00013e34       __vcrt_FlsSetValue         0000000180014e34 f   libvcruntime:winapi_downlevel.obj
 0001:00013e88       __vcrt_InitializeCriticalSectionEx 0000000180014e88 f   libvcruntime:winapi_downlevel.obj
 0001:00013f00       _CallSettingFrame          0000000180014f00 f   libvcruntime:handlers.obj
 0001:00013f50       _CallSettingFrame_LookupContinuationIndex 0000000180014f50 f   libvcruntime:handlers.obj
 0001:00013f80       _CallSettingFrame_NotifyContinuationAddr 0000000180014f80 f   libvcruntime:handlers.obj
 0001:00013fb0       _CallSettingFrameEncoded   0000000180014fb0 f   libvcruntime:handlers.obj
 0001:00013ff8       free                       0000000180014ff8 f   libucrt:free.obj
 0001:0001400c       __acrt_call_reportfault    000000018001500c f   libucrt:invalid_parameter.obj
 0001:00014168       __acrt_initialize_invalid_parameter_handler 0000000180015168 f   libucrt:invalid_parameter.obj
 0001:00014170       _invalid_parameter         0000000180015170 f   libucrt:invalid_parameter.obj
 0001:00014220       _invalid_parameter_noinfo  0000000180015220 f   libucrt:invalid_parameter.obj
 0001:00014240       _invoke_watson             0000000180015240 f   libucrt:invalid_parameter.obj
 0001:00014288       __acrt_errno_from_os_error 0000000180015288 f   libucrt:errno.obj
 0001:000142d0       __acrt_errno_map_os_error  00000001800152d0 f   libucrt:errno.obj
 0001:00014320       __doserrno                 0000000180015320 f   libucrt:errno.obj
 0001:00014340       _errno                     0000000180015340 f   libucrt:errno.obj
 0001:00014360       calloc                     0000000180015360 f   libucrt:calloc.obj
 0001:00014368       malloc                     0000000180015368 f   libucrt:malloc.obj
 0001:00014370       _recalloc                  0000000180015370 f   libucrt:recalloc.obj
 0001:00014378       _recalloc_base             0000000180015378 f   libucrt:recalloc.obj
 0001:00014410       _resetstkoflw              0000000180015410 f   libucrt:resetstk.obj
 0001:0001453c       wcscat_s                   000000018001553c f   libucrt:wcscat_s.obj
 0001:000145bc       wcscpy_s                   00000001800155bc f   libucrt:wcscpy_s.obj
 0001:00014624       wcsncpy_s                  0000000180015624 f   libucrt:wcsncpy_s.obj
 0001:000148dc       ??$ensure_buffer_is_big_enough@D@formatting_buffer@__crt_stdio_output@@QEAA_N_K@Z 00000001800158dc f i libucrt:output.obj
 0001:00014984       ??$ensure_buffer_is_big_enough@_W@formatting_buffer@__crt_stdio_output@@QEAA_N_K@Z 0000000180015984 f i libucrt:output.obj
 0001:00014a30       ??$is_wide_character_specifier@_W@__crt_stdio_output@@YA_N_K_WW4length_modifier@0@@Z 0000000180015a30 f i libucrt:output.obj
 0001:00014a70       ??$type_case_integer_parse_into_buffer@I@?$output_processor@_WV?$string_output_adapter@_W@__crt_stdio_output@@V?$format_validation_base@_WV?$string_output_adapter@_W@__crt_stdio_output@@@2@@__crt_stdio_output@@AEAAXII_N@Z 0000000180015a70 f i libucrt:output.obj
 0001:00014b14       ??$type_case_integer_parse_into_buffer@_K@?$output_processor@_WV?$string_output_adapter@_W@__crt_stdio_output@@V?$format_validation_base@_WV?$string_output_adapter@_W@__crt_stdio_output@@@2@@__crt_stdio_output@@AEAAX_KI_N@Z 0000000180015b14 f i libucrt:output.obj
 0001:00014bb8       ??$write_multiple_characters@V?$string_output_adapter@_W@__crt_stdio_output@@D@__crt_stdio_output@@YAXAEBV?$string_output_adapter@_W@0@DHQEAH@Z 0000000180015bb8 f i libucrt:output.obj
 0001:00014c30       ??0_LocaleUpdate@@QEAA@QEAU__crt_locale_pointers@@@Z 0000000180015c30 f i libucrt:output.obj
 0001:00014cd0       ?crop_zeroes@__crt_stdio_output@@YAXPEADQEAU__crt_locale_pointers@@@Z 0000000180015cd0 f i libucrt:output.obj
 0001:00014d70       ?force_decimal_point@__crt_stdio_output@@YAXPEADQEAU__crt_locale_pointers@@@Z 0000000180015d70 f i libucrt:output.obj
 0001:00014de8       ?parse_int_from_format_string@?$output_processor@_WV?$string_output_adapter@_W@__crt_stdio_output@@V?$format_validation_base@_WV?$string_output_adapter@_W@__crt_stdio_output@@@2@@__crt_stdio_output@@AEAA_NQEAH@Z 0000000180015de8 f i libucrt:output.obj
 0001:00014e8c       ?process@?$output_processor@_WV?$string_output_adapter@_W@__crt_stdio_output@@V?$format_validation_base@_WV?$string_output_adapter@_W@__crt_stdio_output@@@2@@__crt_stdio_output@@QEAAHXZ 0000000180015e8c f i libucrt:output.obj
 0001:00015104       ?state_case_size@?$output_processor@_WV?$string_output_adapter@_W@__crt_stdio_output@@V?$format_validation_base@_WV?$string_output_adapter@_W@__crt_stdio_output@@@2@@__crt_stdio_output@@AEAA_NXZ 0000000180016104 f i libucrt:output.obj
 0001:00015298       ?state_case_type@?$output_processor@_WV?$string_output_adapter@_W@__crt_stdio_output@@V?$format_validation_base@_WV?$string_output_adapter@_W@__crt_stdio_output@@@2@@__crt_stdio_output@@AEAA_NXZ 0000000180016298 f i libucrt:output.obj
 0001:00015570       ?to_integer_size@__crt_stdio_output@@YA_KW4length_modifier@1@@Z 0000000180016570 f i libucrt:output.obj
 0001:000155d8       ?type_case_Z@?$output_processor@_WV?$string_output_adapter@_W@__crt_stdio_output@@V?$format_validation_base@_WV?$string_output_adapter@_W@__crt_stdio_output@@@2@@__crt_stdio_output@@AEAA_NXZ 00000001800165d8 f i libucrt:output.obj
 0001:00015654       ?type_case_a@?$output_processor@_WV?$string_output_adapter@_W@__crt_stdio_output@@V?$format_validation_base@_WV?$string_output_adapter@_W@__crt_stdio_output@@@2@@__crt_stdio_output@@AEAA_NXZ 0000000180016654 f i libucrt:output.obj
 0001:00015834       ?type_case_c_tchar@?$output_processor@_WV?$string_output_adapter@_W@__crt_stdio_output@@V?$format_validation_base@_WV?$string_output_adapter@_W@__crt_stdio_output@@@2@@__crt_stdio_output@@AEAA_N_W@Z 0000000180016834 f i libucrt:output.obj
 0001:000158dc       ?type_case_integer@?$output_processor@_WV?$string_output_adapter@_W@__crt_stdio_output@@V?$format_validation_base@_WV?$string_output_adapter@_W@__crt_stdio_output@@@2@@__crt_stdio_output@@AEAA_NI_N@Z 00000001800168dc f i libucrt:output.obj
 0001:00015a64       ?type_case_n@?$output_processor@_WV?$string_output_adapter@_W@__crt_stdio_output@@V?$format_validation_base@_WV?$string_output_adapter@_W@__crt_stdio_output@@@2@@__crt_stdio_output@@AEAA_NXZ 0000000180016a64 f i libucrt:output.obj
 0001:00015aec       ?type_case_s@?$output_processor@_WV?$string_output_adapter@_W@__crt_stdio_output@@V?$format_validation_base@_WV?$string_output_adapter@_W@__crt_stdio_output@@@2@@__crt_stdio_output@@AEAA_NXZ 0000000180016aec f i libucrt:output.obj
 0001:00015bb4       ?write_stored_string_tchar@?$output_processor@_WV?$string_output_adapter@_W@__crt_stdio_output@@V?$format_validation_base@_WV?$string_output_adapter@_W@__crt_stdio_output@@@2@@__crt_stdio_output@@AEAA_N_W@Z 0000000180016bb4 f i libucrt:output.obj
 0001:00015c9c       ?write_string@?$string_output_adapter@_W@__crt_stdio_output@@QEBAXQEB_WHQEAHAEAV__crt_deferred_errno_cache@@@Z 0000000180016c9c f i libucrt:output.obj
 0001:00015d44       __stdio_common_vswprintf_s 0000000180016d44 f   libucrt:output.obj
 0001:00015db4       _seh_filter_dll            0000000180016db4 f   libucrt:exception_filter.obj
 0001:00015dc8       _seh_filter_exe            0000000180016dc8 f   libucrt:exception_filter.obj
 0001:000161b8       __acrt_initialize_thread_local_exit_callback 00000001800171b8 f   libucrt:exit.obj
 0001:000161c0       _cexit                     00000001800171c0 f   libucrt:exit.obj
 0001:000161d0       _exit                      00000001800171d0 f   libucrt:exit.obj
 0001:000161dc       _is_c_termination_complete 00000001800171dc f   libucrt:exit.obj
 0001:000163a4       __acrt_allocate_buffer_for_argv 00000001800173a4 f   libucrt:argv_parsing.obj
 0001:00016404       _configure_narrow_argv     0000000180017404 f   libucrt:argv_parsing.obj
 0001:0001677c       __dcrt_uninitialize_environments_nolock 000000018001777c f   libucrt:environment_initialization.obj
 0001:000167b4       _initialize_narrow_environment 00000001800177b4 f   libucrt:environment_initialization.obj
 0001:00016afc       _crt_atexit                0000000180017afc f   libucrt:onexit.obj
 0001:00016b0c       _execute_onexit_table      0000000180017b0c f   libucrt:onexit.obj
 0001:00016b48       _initialize_onexit_table   0000000180017b48 f   libucrt:onexit.obj
 0001:00016b70       _register_onexit_function  0000000180017b70 f   libucrt:onexit.obj
 0001:00016bf0       __acrt_uninitialize_command_line 0000000180017bf0 f   libucrt:argv_data.obj
 0001:00016ce8       __acrt_initialize          0000000180017ce8 f   libucrt:initialization.obj
 0001:00016cfc       __acrt_thread_attach       0000000180017cfc f   libucrt:initialization.obj
 0001:00016d10       __acrt_thread_detach       0000000180017d10 f   libucrt:initialization.obj
 0001:00016d20       __acrt_uninitialize        0000000180017d20 f   libucrt:initialization.obj
 0001:00016d58       __acrt_uninitialize_critical 0000000180017d58 f   libucrt:initialization.obj
 0001:00016d68       _initterm                  0000000180017d68 f   libucrt:initterm.obj
 0001:00016dcc       _initterm_e                0000000180017dcc f   libucrt:initterm.obj
 0001:00016e0c       __acrt_initialize_new_handler 0000000180017e0c f   libucrt:new_handler.obj
 0001:00016e14       _callnewh                  0000000180017e14 f   libucrt:new_handler.obj
 0001:00016e44       _query_new_handler         0000000180017e44 f   libucrt:new_handler.obj
 0001:00016e78       terminate                  0000000180017e78 f   libucrt:terminate.obj
 0001:00016e98       abort                      0000000180017e98 f   libucrt:abort.obj
 0001:00016ef0       strcpy_s                   0000000180017ef0 f   libucrt:strcpy_s.obj
 0001:00016f50       ??$parse_integer@KV?$c_string_character_source@_W@__crt_strtox@@@__crt_strtox@@YAKQEAU__crt_locale_pointers@@V?$c_string_character_source@_W@0@H_N@Z 0000000180017f50 f i libucrt:atox.obj
 0001:00017610       strncmp                    0000000180018610 f   libucrt:strncmp.obj
 0001:00017690       wcsncmp                    0000000180018690 f   libucrt:wcsncmp.obj
 0001:000176bc       _free_base                 00000001800186bc f   libucrt:free_base.obj
 0001:00017a74       __acrt_freeptd             0000000180018a74 f   libucrt:per_thread_data.obj
 0001:00017ab8       __acrt_getptd              0000000180018ab8 f   libucrt:per_thread_data.obj
 0001:00017b8c       __acrt_getptd_head         0000000180018b8c f   libucrt:per_thread_data.obj
 0001:00017c34       __acrt_getptd_noexit       0000000180018c34 f   libucrt:per_thread_data.obj
 0001:00017d00       __acrt_initialize_ptd      0000000180018d00 f   libucrt:per_thread_data.obj
 0001:00017d3c       __acrt_uninitialize_ptd    0000000180018d3c f   libucrt:per_thread_data.obj
 0001:00017d60       _calloc_base               0000000180018d60 f   libucrt:calloc_base.obj
 0001:00017dd8       _malloc_base               0000000180018dd8 f   libucrt:malloc_base.obj
 0001:00017e38       _msize_base                0000000180018e38 f   libucrt:msize.obj
 0001:00017e74       _realloc_base              0000000180018e74 f   libucrt:realloc_base.obj
 0001:000180c8       __acrt_AppPolicyGetProcessTerminationMethodInternal 00000001800190c8 f   libucrt:winapi_thunks.obj
 0001:00018118       __acrt_AreFileApisANSI     0000000180019118 f   libucrt:winapi_thunks.obj
 0001:00018154       __acrt_FlsAlloc            0000000180019154 f   libucrt:winapi_thunks.obj
 0001:0001819c       __acrt_FlsFree             000000018001919c f   libucrt:winapi_thunks.obj
 0001:000181e4       __acrt_FlsGetValue         00000001800191e4 f   libucrt:winapi_thunks.obj
 0001:0001822c       __acrt_FlsSetValue         000000018001922c f   libucrt:winapi_thunks.obj
 0001:00018280       __acrt_InitializeCriticalSectionEx 0000000180019280 f   libucrt:winapi_thunks.obj
 0001:000182e4       __acrt_LCMapStringEx       00000001800192e4 f   libucrt:winapi_thunks.obj
 0001:000183c0       __acrt_LocaleNameToLCID    00000001800193c0 f   libucrt:winapi_thunks.obj
 0001:00018410       __acrt_SetThreadStackGuarantee 0000000180019410 f   libucrt:winapi_thunks.obj
 0001:00018454       __acrt_initialize_winapi_thunks 0000000180019454 f   libucrt:winapi_thunks.obj
 0001:00018488       __acrt_uninitialize_winapi_thunks 0000000180019488 f   libucrt:winapi_thunks.obj
 0001:000184cc       wcstol                     00000001800194cc f   libucrt:strtox.obj
 0001:000184f8       _mbtowc_l                  00000001800194f8 f   libucrt:mbtowc.obj
 0001:00018678       mbtowc                     0000000180019678 f   libucrt:mbtowc.obj
 0001:00018680       wcsnlen                    0000000180019680 f   libucrt:strnlen.obj
 0001:00018858       __acrt_update_locale_info  0000000180019858 f   libucrt:locale_update.obj
 0001:0001888c       __acrt_update_multibyte_info 000000018001988c f   libucrt:locale_update.obj
 0001:000192c4       __acrt_fp_format           000000018001a2c4 f   libucrt:cvt.obj
 0001:000195fc       _fileno                    000000018001a5fc f   libucrt:fileno.obj
 0001:00019624       __acrt_initialize_stdio    000000018001a624 f   libucrt:_file.obj
 0001:00019744       __acrt_uninitialize_stdio  000000018001a744 f   libucrt:_file.obj
 0001:000197a0       _lock_file                 000000018001a7a0 f   libucrt:_file.obj
 0001:000197ac       _unlock_file               000000018001a7ac f   libucrt:_file.obj
 0001:000197b8       _get_printf_count_output   000000018001a7b8 f   libucrt:printf_count_output.obj
 0001:00019840       __acrt_set_locale_changed  000000018001a840 f   libucrt:wsetlocale.obj
 0001:0001984c       __acrt_uninitialize_locale 000000018001a84c f   libucrt:wsetlocale.obj
 0001:00019a78       __acrt_initialize_lowio    000000018001aa78 f   libucrt:ioinit.obj
 0001:00019ab4       __acrt_uninitialize_lowio  000000018001aab4 f   libucrt:ioinit.obj
 0001:00019af4       __acrt_initialize_locks    000000018001aaf4 f   libucrt:locks.obj
 0001:00019b3c       __acrt_lock                000000018001ab3c f   libucrt:locks.obj
 0001:00019b58       __acrt_uninitialize_locks  000000018001ab58 f   libucrt:locks.obj
 0001:00019b90       __acrt_unlock              000000018001ab90 f   libucrt:locks.obj
 0001:00019bac       __acrt_get_process_end_policy 000000018001abac f   libucrt:win_policies.obj
 0001:00019bfc       ??$__acrt_mbs_to_wcs_cp@U__crt_win32_buffer_internal_dynamic_resizing@@@@YAHQEBDAEAV?$__crt_win32_buffer@_WU__crt_win32_buffer_internal_dynamic_resizing@@@@I@Z 000000018001abfc f i libucrt:argv_wildcards.obj
 0001:00019d74       ??$__acrt_wcs_to_mbs_cp@U__crt_win32_buffer_internal_dynamic_resizing@@@@YAHQEB_WAEAV?$__crt_win32_buffer@DU__crt_win32_buffer_internal_dynamic_resizing@@@@I@Z 000000018001ad74 f i libucrt:argv_wildcards.obj
 0001:0001a5a4       __acrt_expand_narrow_argv_wildcards 000000018001b5a4 f   libucrt:argv_wildcards.obj
 0001:0001a5ac       ??$__acrt_wcs_to_mbs_cp@U__crt_win32_buffer_no_resizing@@@@YAHQEB_WAEAV?$__crt_win32_buffer@DU__crt_win32_buffer_no_resizing@@@@I@Z 000000018001b5ac f i libucrt:getmodulefilenamea.obj
 0001:0001a6c0       __acrt_GetModuleFileNameA  000000018001b6c0 f   libucrt:getmodulefilenamea.obj
 0001:0001af08       __acrt_initialize_multibyte 000000018001bf08 f   libucrt:mbctype.obj
 0001:0001af68       __acrt_update_thread_multibyte_data 000000018001bf68 f   libucrt:mbctype.obj
 0001:0001af84       _setmbcp_nolock            000000018001bf84 f   libucrt:mbctype.obj
 0001:0001b2b8       _ismbblead                 000000018001c2b8 f   libucrt:ismbbyte.obj
 0001:0001b2cc       __acrt_initialize_command_line 000000018001c2cc f   libucrt:argv_data.obj
 0001:0001b2f4       __acrt_MultiByteToWideChar 000000018001c2f4 f   libucrt:multibytetowidechar.obj
 0001:0001b350       __acrt_WideCharToMultiByte 000000018001c350 f   libucrt:widechartomultibyte.obj
 0001:0001b400       __dcrt_get_narrow_environment_from_os 000000018001c400 f   libucrt:get_environment_from_os.obj
 0001:0001b504       __acrt_initialize_heap     000000018001c504 f   libucrt:heap_handle.obj
 0001:0001b520       __acrt_uninitialize_heap   000000018001c520 f   libucrt:heap_handle.obj
 0001:0001b52c       __acrt_execute_initializers 000000018001c52c f   libucrt:shared_initialization.obj
 0001:0001b5ac       __acrt_execute_uninitializers 000000018001c5ac f   libucrt:shared_initialization.obj
 0001:0001b630       __acrt_get_sigabrt_handler 000000018001c630 f   libucrt:signal.obj
 0001:0001b660       __acrt_initialize_signal_handlers 000000018001c660 f   libucrt:signal.obj
 0001:0001b680       raise                      000000018001c680 f   libucrt:signal.obj
 0001:0001b8ec       __acrt_has_user_matherr    000000018001c8ec f   libucrt:matherr.obj
 0001:0001b90c       __acrt_initialize_user_matherr 000000018001c90c f   libucrt:matherr.obj
 0001:0001b914       __acrt_invoke_user_matherr 000000018001c914 f   libucrt:matherr.obj
 0001:0001bb20       __acrt_stdio_flush_nolock  000000018001cb20 f   libucrt:fflush.obj
 0001:0001bb9c       _fflush_nolock             000000018001cb9c f   libucrt:fflush.obj
 0001:0001bbe8       _flushall                  000000018001cbe8 f   libucrt:fflush.obj
 0001:0001bbf0       __pctype_func              000000018001cbf0 f   libucrt:ctype.obj
 0001:0001bc20       iswctype                   000000018001cc20 f   libucrt:iswctype.obj
 0001:0001bc8c       __acrt_add_locale_ref      000000018001cc8c f   libucrt:locale_refcounting.obj
 0001:0001bd18       __acrt_free_locale         000000018001cd18 f   libucrt:locale_refcounting.obj
 0001:0001be90       __acrt_locale_add_lc_time_reference 000000018001ce90 f   libucrt:locale_refcounting.obj
 0001:0001beb8       __acrt_locale_free_lc_time_if_unreferenced 000000018001ceb8 f   libucrt:locale_refcounting.obj
 0001:0001bef0       __acrt_locale_release_lc_time_reference 000000018001cef0 f   libucrt:locale_refcounting.obj
 0001:0001bf18       __acrt_release_locale_ref  000000018001cf18 f   libucrt:locale_refcounting.obj
 0001:0001bfc0       __acrt_update_thread_locale_data 000000018001cfc0 f   libucrt:locale_refcounting.obj
 0001:0001c030       _updatetlocinfoEx_nolock   000000018001d030 f   libucrt:locale_refcounting.obj
 0001:0001c098       _query_new_mode            000000018001d098 f   libucrt:new_mode.obj
 0001:0001c0a0       __acrt_DownlevelLocaleNameToLCID 000000018001d0a0 f   libucrt:lcidtoname_downlevel.obj
 0001:0001c150       _isleadbyte_l              000000018001d150 f i libucrt:_wctype.obj
 0001:0001c19c       ?__mbrtowc_utf8@__crt_mbstring@@YA_KPEA_WPEBD_KPEAU_Mbstatet@@@Z 000000018001d19c f   libucrt:mbrtowc.obj
 0001:0001c1d8       ?__mbsrtowcs_utf8@__crt_mbstring@@YA_KPEA_WPEAPEBD_KPEAU_Mbstatet@@@Z 000000018001d1d8 f   libucrt:mbrtowc.obj
 0001:0001c350       __acrt_fp_strflt_to_string 000000018001d350 f   libucrt:_fptostr.obj
 0001:0001c4a0       ?divide@__crt_strtox@@YA_KAEAUbig_integer@1@AEBU21@@Z 000000018001d4a0 f i libucrt:cfout.obj
 0001:0001c8cc       __acrt_fltout              000000018001d8cc f   libucrt:cfout.obj
 0001:0001db98       fegetround                 000000018001eb98 f   libucrt:fegetround.obj
 0001:0001dbac       _fcloseall                 000000018001ebac f   libucrt:closeall.obj
 0001:0001dc60       __acrt_stdio_free_buffer_nolock 000000018001ec60 f   libucrt:_freebuf.obj
 0001:0001dca0       _isatty                    000000018001eca0 f   libucrt:isatty.obj
 0001:0001dd00       __acrt_locale_free_monetary 000000018001ed00 f   libucrt:initmon.obj
 0001:0001de0c       __acrt_locale_free_numeric 000000018001ee0c f   libucrt:initnum.obj
 0001:0001ded0       __acrt_locale_free_time    000000018001eed0 f   libucrt:inittime.obj
 0001:0001dfd8       __acrt_GetStringTypeA      000000018001efd8 f   libucrt:getstringtypea.obj
 0001:0001e168       __acrt_lowio_create_handle_array 000000018001f168 f   libucrt:osfinfo.obj
 0001:0001e210       __acrt_lowio_destroy_handle_array 000000018001f210 f   libucrt:osfinfo.obj
 0001:0001e260       __acrt_lowio_ensure_fh_exists 000000018001f260 f   libucrt:osfinfo.obj
 0001:0001e308       __acrt_lowio_lock_fh       000000018001f308 f   libucrt:osfinfo.obj
 0001:0001e330       __acrt_lowio_unlock_fh     000000018001f330 f   libucrt:osfinfo.obj
 0001:0001e358       _free_osfhnd               000000018001f358 f   libucrt:osfinfo.obj
 0001:0001e414       _get_osfhandle             000000018001f414 f   libucrt:osfinfo.obj
 0001:0001e490       qsort                      000000018001f490 f   libucrt:qsort.obj
 0001:0001e830       strncpy_s                  000000018001f830 f   libucrt:strncpy_s.obj
 0001:0001e9b0       strpbrk                    000000018001f9b0 f   libucrt:strpbrk.obj
 0001:0001ed78       _mbsdec                    000000018001fd78 f   libucrt:mbsdec.obj
 0001:0001ed80       _mbsdec_l                  000000018001fd80 f   libucrt:mbsdec.obj
 0001:0001f12c       __acrt_LCMapStringA        000000018002012c f   libucrt:lcmapstringa.obj
 0001:0001f268       _commit                    0000000180020268 f   libucrt:commit.obj
 0001:0001fb78       _write                     0000000180020b78 f   libucrt:write.obj
 0001:0001fc64       _write_nolock              0000000180020c64 f   libucrt:write.obj
 0001:0001ff48       __acrt_GetStringTypeW      0000000180020f48 f   libucrt:getstringtypew.obj
 0001:0001ff50       __ascii_wcsnicmp           0000000180020f50 f   libucrt:wcsnicmp.obj
 0001:0001ff9c       ?__mbrtoc32_utf8@__crt_mbstring@@YA_KPEA_UPEBD_KPEAU_Mbstatet@@@Z 0000000180020f9c f   libucrt:mbrtoc32.obj
 0001:00020174       _controlfp_s               0000000180021174 f   libucrt:contrlfp.obj
 0001:000201d8       fegetenv                   00000001800211d8 f   libucrt:fegetenv.obj
 0001:000201f8       fesetenv                   00000001800211f8 f   libucrt:fesetenv.obj
 0001:00020244       feholdexcept               0000000180021244 f   libucrt:feholdexcept.obj
 0001:00020294       ceil                       0000000180021294 f   libucrt:ceil.obj
 0001:00020360       log10                      0000000180021360 f   libucrt:log10.obj
 0001:0002090c       __acrt_fenv_get_common_round_control 000000018002190c f   libucrt:_fenvutils.obj
 0001:00020918       __acrt_fenv_get_control    0000000180021918 f   libucrt:_fenvutils.obj
 0001:00020a0c       __acrt_fenv_get_status     0000000180021a0c f   libucrt:_fenvutils.obj
 0001:00020a60       __acrt_fenv_set_control    0000000180021a60 f   libucrt:_fenvutils.obj
 0001:00020ba8       __acrt_fenv_set_status     0000000180021ba8 f   libucrt:_fenvutils.obj
 0001:00020cc8       _lseeki64_nolock           0000000180021cc8 f   libucrt:lseek.obj
 0001:00020cd0       _fclose_nolock             0000000180021cd0 f   libucrt:fclose.obj
 0001:00020d54       fclose                     0000000180021d54 f   libucrt:fclose.obj
 0001:00020db8       _query_app_type            0000000180021db8 f   libucrt:report_runtime_error.obj
 0001:00020dc0       __strncnt                  0000000180021dc0 f   libucrt:strncnt.obj
 0001:00020dd8       _putwch_nolock             0000000180021dd8 f   libucrt:putwch.obj
 0001:00020e14       _clearfp                   0000000180021e14 f   libucrt:ieee.obj
 0001:00020e84       _control87                 0000000180021e84 f   libucrt:ieee.obj
 0001:00021270       _handle_error              0000000180022270 f   libucrt:libm_error.obj
 0001:00021398       _handle_nan                0000000180022398 f   libucrt:libm_error.obj
 0001:000213c0       __acrt_initialize_fma3     00000001800223c0 f   libucrt:fma3_available.obj
 0001:00021430       _log10_special             0000000180022430 f   libucrt:log_special.obj
 0001:0002155c       _close                     000000018002255c f   libucrt:close.obj
 0001:00021600       _close_nolock              0000000180022600 f   libucrt:close.obj
 0001:000216c0       ?__acrt_stdio_free_stream@@YAXV__crt_stdio_stream@@@Z 00000001800226c0 f   libucrt:stream.obj
 0001:000216dc       __dcrt_lowio_ensure_console_output_initialized 00000001800226dc f   libucrt:initcon.obj
 0001:00021730       __dcrt_terminate_console_output 0000000180022730 f   libucrt:initcon.obj
 0001:0002174c       __dcrt_write_console       000000018002274c f   libucrt:initcon.obj
 0001:00021820       _get_fpsr                  0000000180022820 f   libucrt:fpsr.obj
 0001:00021830       _set_fpsr                  0000000180022830 f   libucrt:fpsr.obj
 0001:0002183a       _fclrf                     000000018002283a f   libucrt:fpsr.obj
 0001:0002184e       _frnd                      000000018002284e f   libucrt:fpsr.obj
 0001:00021870       _raise_exc                 0000000180022870 f   libucrt:fpexcept.obj
 0001:00021898       _raise_exc_ex              0000000180022898 f   libucrt:fpexcept.obj
 0001:00021ba8       _set_errno_from_matherr    0000000180022ba8 f   libucrt:fpexcept.obj
 0001:00021bd8       _clrfp                     0000000180022bd8 f   libucrt:fpctrl.obj
 0001:00021bf8       _ctrlfp                    0000000180022bf8 f   libucrt:fpctrl.obj
 0001:00021c74       _set_statfp                0000000180022c74 f   libucrt:fpctrl.obj
 0001:00021c94       _statfp                    0000000180022c94 f   libucrt:fpctrl.obj
 0001:00021ca5       IsProcessorFeaturePresent  0000000180022ca5 f   kernel32:KERNEL32.dll
 0001:00021cb0       _FindPESection             0000000180022cb0 f   LIBCMT:pesect.obj
 0001:00021d00       _IsNonwritableInCurrentImage 0000000180022d00 f   LIBCMT:pesect.obj
 0001:00021d50       _ValidateImageBase         0000000180022d50 f   LIBCMT:pesect.obj
 0001:00021d80       strrchr                    0000000180022d80 f   libvcruntime:strrchr.obj
 0001:00021ec0       _guard_dispatch_icall_nop  0000000180022ec0 f   LIBCMT:guard_dispatch.obj
 0001:00021ee0       _guard_xfg_dispatch_icall_nop 0000000180022ee0 f   LIBCMT:guard_xfg_dispatch.obj
 0002:00000000       __imp_RegQueryValueExW     0000000180024000     advapi32:ADVAPI32.dll
 0002:00000008       __imp_RegSetValueExW       0000000180024008     advapi32:ADVAPI32.dll
 0002:00000010       __imp_RegQueryInfoKeyW     0000000180024010     advapi32:ADVAPI32.dll
 0002:00000018       __imp_RegOpenKeyExW        0000000180024018     advapi32:ADVAPI32.dll
 0002:00000020       __imp_RegEnumKeyExW        0000000180024020     advapi32:ADVAPI32.dll
 0002:00000028       __imp_RegDeleteValueW      0000000180024028     advapi32:ADVAPI32.dll
 0002:00000030       __imp_RegDeleteKeyW        0000000180024030     advapi32:ADVAPI32.dll
 0002:00000038       __imp_RegCreateKeyExW      0000000180024038     advapi32:ADVAPI32.dll
 0002:00000040       __imp_RegCloseKey          0000000180024040     advapi32:ADVAPI32.dll
 0002:00000048       \177ADVAPI32_NULL_THUNK_DATA 0000000180024048     advapi32:ADVAPI32.dll
 0002:00000050       __imp_GetObjectW           0000000180024050     gdi32:GDI32.dll
 0002:00000058       __imp_SelectObject         0000000180024058     gdi32:GDI32.dll
 0002:00000060       __imp_DeleteObject         0000000180024060     gdi32:GDI32.dll
 0002:00000068       __imp_CreateCompatibleDC   0000000180024068     gdi32:GDI32.dll
 0002:00000070       __imp_BitBlt               0000000180024070     gdi32:GDI32.dll
 0002:00000078       __imp_SetWindowOrgEx       0000000180024078     gdi32:GDI32.dll
 0002:00000080       __imp_SetWindowExtEx       0000000180024080     gdi32:GDI32.dll
 0002:00000088       __imp_SetViewportOrgEx     0000000180024088     gdi32:GDI32.dll
 0002:00000090       __imp_LPtoDP               0000000180024090     gdi32:GDI32.dll
 0002:00000098       __imp_SetMapMode           0000000180024098     gdi32:GDI32.dll
 0002:000000a0       __imp_SaveDC               00000001800240a0     gdi32:GDI32.dll
 0002:000000a8       __imp_RestoreDC            00000001800240a8     gdi32:GDI32.dll
 0002:000000b0       __imp_GetDeviceCaps        00000001800240b0     gdi32:GDI32.dll
 0002:000000b8       __imp_DeleteMetaFile       00000001800240b8     gdi32:GDI32.dll
 0002:000000c0       __imp_DeleteDC             00000001800240c0     gdi32:GDI32.dll
 0002:000000c8       __imp_CreateRectRgnIndirect 00000001800240c8     gdi32:GDI32.dll
 0002:000000d0       __imp_CreateMetaFileW      00000001800240d0     gdi32:GDI32.dll
 0002:000000d8       __imp_CreateDCW            00000001800240d8     gdi32:GDI32.dll
 0002:000000e0       __imp_CloseMetaFile        00000001800240e0     gdi32:GDI32.dll
 0002:000000e8       \177GDI32_NULL_THUNK_DATA  00000001800240e8     gdi32:GDI32.dll
 0002:000000f0       __imp_CloseHandle          00000001800240f0     kernel32:KERNEL32.dll
 0002:000000f8       __imp_SetEvent             00000001800240f8     kernel32:KERNEL32.dll
 0002:00000100       __imp_CreateMutexW         0000000180024100     kernel32:KERNEL32.dll
 0002:00000108       __imp_CreateEventW         0000000180024108     kernel32:KERNEL32.dll
 0002:00000110       __imp_GetCurrentProcessId  0000000180024110     kernel32:KERNEL32.dll
 0002:00000118       __imp_WriteConsoleW        0000000180024118     kernel32:KERNEL32.dll
 0002:00000120       __imp_CreateFileW          0000000180024120     kernel32:KERNEL32.dll
 0002:00000128       __imp_GetConsoleMode       0000000180024128     kernel32:KERNEL32.dll
 0002:00000130       __imp_GetConsoleOutputCP   0000000180024130     kernel32:KERNEL32.dll
 0002:00000138       __imp_WriteFile            0000000180024138     kernel32:KERNEL32.dll
 0002:00000140       __imp_FlushFileBuffers     0000000180024140     kernel32:KERNEL32.dll
 0002:00000148       __imp_SetStdHandle         0000000180024148     kernel32:KERNEL32.dll
 0002:00000150       __imp_GetStringTypeW       0000000180024150     kernel32:KERNEL32.dll
 0002:00000158       __imp_SetFilePointerEx     0000000180024158     kernel32:KERNEL32.dll
 0002:00000160       __imp_FreeEnvironmentStringsW 0000000180024160     kernel32:KERNEL32.dll
 0002:00000168       __imp_lstrcmpiW            0000000180024168     kernel32:KERNEL32.dll
 0002:00000170       __imp_GetCommandLineW      0000000180024170     kernel32:KERNEL32.dll
 0002:00000178       __imp_GetCommandLineA      0000000180024178     kernel32:KERNEL32.dll
 0002:00000180       __imp_GetCPInfo            0000000180024180     kernel32:KERNEL32.dll
 0002:00000188       __imp_GetOEMCP             0000000180024188     kernel32:KERNEL32.dll
 0002:00000190       __imp_GetACP               0000000180024190     kernel32:KERNEL32.dll
 0002:00000198       __imp_IsValidCodePage      0000000180024198     kernel32:KERNEL32.dll
 0002:000001a0       __imp_FindNextFileW        00000001800241a0     kernel32:KERNEL32.dll
 0002:000001a8       __imp_FindFirstFileExW     00000001800241a8     kernel32:KERNEL32.dll
 0002:000001b0       __imp_FindClose            00000001800241b0     kernel32:KERNEL32.dll
 0002:000001b8       __imp_GetFileType          00000001800241b8     kernel32:KERNEL32.dll
 0002:000001c0       __imp_GetStdHandle         00000001800241c0     kernel32:KERNEL32.dll
 0002:000001c8       __imp_LCMapStringW         00000001800241c8     kernel32:KERNEL32.dll
 0002:000001d0       __imp_HeapReAlloc          00000001800241d0     kernel32:KERNEL32.dll
 0002:000001d8       __imp_HeapSize             00000001800241d8     kernel32:KERNEL32.dll
 0002:000001e0       __imp_MulDiv               00000001800241e0     kernel32:KERNEL32.dll
 0002:000001e8       __imp_GlobalLock           00000001800241e8     kernel32:KERNEL32.dll
 0002:000001f0       __imp_GlobalUnlock         00000001800241f0     kernel32:KERNEL32.dll
 0002:000001f8       __imp_GlobalAlloc          00000001800241f8     kernel32:KERNEL32.dll
 0002:00000200       __imp_FindResourceW        0000000180024200     kernel32:KERNEL32.dll
 0002:00000208       __imp_SizeofResource       0000000180024208     kernel32:KERNEL32.dll
 0002:00000210       __imp_LoadResource         0000000180024210     kernel32:KERNEL32.dll
 0002:00000218       __imp_LoadLibraryExW       0000000180024218     kernel32:KERNEL32.dll
 0002:00000220       __imp_GetProcAddress       0000000180024220     kernel32:KERNEL32.dll
 0002:00000228       __imp_GetModuleHandleW     0000000180024228     kernel32:KERNEL32.dll
 0002:00000230       __imp_GetModuleFileNameW   0000000180024230     kernel32:KERNEL32.dll
 0002:00000238       __imp_FreeLibrary          0000000180024238     kernel32:KERNEL32.dll
 0002:00000240       __imp_DisableThreadLibraryCalls 0000000180024240     kernel32:KERNEL32.dll
 0002:00000248       __imp_GetCurrentThreadId   0000000180024248     kernel32:KERNEL32.dll
 0002:00000250       __imp_Sleep                0000000180024250     kernel32:KERNEL32.dll
 0002:00000258       __imp_WaitForSingleObject  0000000180024258     kernel32:KERNEL32.dll
 0002:00000260       __imp_ReleaseMutex         0000000180024260     kernel32:KERNEL32.dll
 0002:00000268       __imp_ResetEvent           0000000180024268     kernel32:KERNEL32.dll
 0002:00000270       __imp_EnterCriticalSection 0000000180024270     kernel32:KERNEL32.dll
 0002:00000278       __imp_LeaveCriticalSection 0000000180024278     kernel32:KERNEL32.dll
 0002:00000280       __imp_SetLastError         0000000180024280     kernel32:KERNEL32.dll
 0002:00000288       __imp_EncodePointer        0000000180024288     kernel32:KERNEL32.dll
 0002:00000290       __imp_DeleteCriticalSection 0000000180024290     kernel32:KERNEL32.dll
 0002:00000298       __imp_InitializeCriticalSectionEx 0000000180024298     kernel32:KERNEL32.dll
 0002:000002a0       __imp_GetLastError         00000001800242a0     kernel32:KERNEL32.dll
 0002:000002a8       __imp_RaiseException       00000001800242a8     kernel32:KERNEL32.dll
 0002:000002b0       __imp_DecodePointer        00000001800242b0     kernel32:KERNEL32.dll
 0002:000002b8       __imp_WideCharToMultiByte  00000001800242b8     kernel32:KERNEL32.dll
 0002:000002c0       __imp_GetEnvironmentStringsW 00000001800242c0     kernel32:KERNEL32.dll
 0002:000002c8       __imp_MultiByteToWideChar  00000001800242c8     kernel32:KERNEL32.dll
 0002:000002d0       __imp_GetModuleHandleExW   00000001800242d0     kernel32:KERNEL32.dll
 0002:000002d8       __imp_ExitProcess          00000001800242d8     kernel32:KERNEL32.dll
 0002:000002e0       __imp_VirtualQuery         00000001800242e0     kernel32:KERNEL32.dll
 0002:000002e8       __imp_VirtualProtect       00000001800242e8     kernel32:KERNEL32.dll
 0002:000002f0       __imp_GetSystemInfo        00000001800242f0     kernel32:KERNEL32.dll
 0002:000002f8       __imp_TlsFree              00000001800242f8     kernel32:KERNEL32.dll
 0002:00000300       __imp_TlsSetValue          0000000180024300     kernel32:KERNEL32.dll
 0002:00000308       __imp_TlsGetValue          0000000180024308     kernel32:KERNEL32.dll
 0002:00000310       __imp_TlsAlloc             0000000180024310     kernel32:KERNEL32.dll
 0002:00000318       __imp_RtlPcToFileHeader    0000000180024318     kernel32:KERNEL32.dll
 0002:00000320       __imp_InterlockedFlushSList 0000000180024320     kernel32:KERNEL32.dll
 0002:00000328       __imp_RtlUnwindEx          0000000180024328     kernel32:KERNEL32.dll
 0002:00000330       __imp_LoadLibraryExA       0000000180024330     kernel32:KERNEL32.dll
 0002:00000338       __imp_VirtualFree          0000000180024338     kernel32:KERNEL32.dll
 0002:00000340       __imp_VirtualAlloc         0000000180024340     kernel32:KERNEL32.dll
 0002:00000348       __imp_FlushInstructionCache 0000000180024348     kernel32:KERNEL32.dll
 0002:00000350       __imp_InterlockedPushEntrySList 0000000180024350     kernel32:KERNEL32.dll
 0002:00000358       __imp_InterlockedPopEntrySList 0000000180024358     kernel32:KERNEL32.dll
 0002:00000360       __imp_GetProcessHeap       0000000180024360     kernel32:KERNEL32.dll
 0002:00000368       __imp_HeapFree             0000000180024368     kernel32:KERNEL32.dll
 0002:00000370       __imp_HeapAlloc            0000000180024370     kernel32:KERNEL32.dll
 0002:00000378       __imp_OutputDebugStringW   0000000180024378     kernel32:KERNEL32.dll
 0002:00000380       __imp_InitializeSListHead  0000000180024380     kernel32:KERNEL32.dll
 0002:00000388       __imp_GetSystemTimeAsFileTime 0000000180024388     kernel32:KERNEL32.dll
 0002:00000390       __imp_QueryPerformanceCounter 0000000180024390     kernel32:KERNEL32.dll
 0002:00000398       __imp_GetStartupInfoW      0000000180024398     kernel32:KERNEL32.dll
 0002:000003a0       __imp_IsDebuggerPresent    00000001800243a0     kernel32:KERNEL32.dll
 0002:000003a8       __imp_IsProcessorFeaturePresent 00000001800243a8     kernel32:KERNEL32.dll
 0002:000003b0       __imp_TerminateProcess     00000001800243b0     kernel32:KERNEL32.dll
 0002:000003b8       __imp_GetCurrentProcess    00000001800243b8     kernel32:KERNEL32.dll
 0002:000003c0       __imp_InitializeCriticalSectionAndSpinCount 00000001800243c0     kernel32:KERNEL32.dll
 0002:000003c8       __imp_WaitForSingleObjectEx 00000001800243c8     kernel32:KERNEL32.dll
 0002:000003d0       __imp_RtlCaptureContext    00000001800243d0     kernel32:KERNEL32.dll
 0002:000003d8       __imp_RtlLookupFunctionEntry 00000001800243d8     kernel32:KERNEL32.dll
 0002:000003e0       __imp_RtlVirtualUnwind     00000001800243e0     kernel32:KERNEL32.dll
 0002:000003e8       __imp_UnhandledExceptionFilter 00000001800243e8     kernel32:KERNEL32.dll
 0002:000003f0       __imp_SetUnhandledExceptionFilter 00000001800243f0     kernel32:KERNEL32.dll
 0002:000003f8       \177KERNEL32_NULL_THUNK_DATA 00000001800243f8     kernel32:KERNEL32.dll
 0002:00000400       __imp_OleCreatePropertyFrame 0000000180024400     oleaut32:OLEAUT32.dll
 0002:00000408       __imp_UnRegisterTypeLib    0000000180024408     oleaut32:OLEAUT32.dll
 0002:00000410       __imp_RegisterTypeLib      0000000180024410     oleaut32:OLEAUT32.dll
 0002:00000418       __imp_LoadRegTypeLib       0000000180024418     oleaut32:OLEAUT32.dll
 0002:00000420       __imp_LoadTypeLib          0000000180024420     oleaut32:OLEAUT32.dll
 0002:00000428       __imp_VarUI4FromStr        0000000180024428     oleaut32:OLEAUT32.dll
 0002:00000430       __imp_VariantInit          0000000180024430     oleaut32:OLEAUT32.dll
 0002:00000438       __imp_SysAllocStringByteLen 0000000180024438     oleaut32:OLEAUT32.dll
 0002:00000440       __imp_SysStringByteLen     0000000180024440     oleaut32:OLEAUT32.dll
 0002:00000448       __imp_VariantChangeType    0000000180024448     oleaut32:OLEAUT32.dll
 0002:00000450       __imp_VariantClear         0000000180024450     oleaut32:OLEAUT32.dll
 0002:00000458       __imp_SysStringLen         0000000180024458     oleaut32:OLEAUT32.dll
 0002:00000460       __imp_SysFreeString        0000000180024460     oleaut32:OLEAUT32.dll
 0002:00000468       __imp_SysAllocStringLen    0000000180024468     oleaut32:OLEAUT32.dll
 0002:00000470       __imp_SysAllocString       0000000180024470     oleaut32:OLEAUT32.dll
 0002:00000478       \177OLEAUT32_NULL_THUNK_DATA 0000000180024478     oleaut32:OLEAUT32.dll
 0002:00000480       __imp_UnregisterClassW     0000000180024480     user32:USER32.dll
 0002:00000488       __imp_PostMessageW         0000000180024488     user32:USER32.dll
 0002:00000490       __imp_DefWindowProcW       0000000180024490     user32:USER32.dll
 0002:00000498       __imp_CallWindowProcW      0000000180024498     user32:USER32.dll
 0002:000004a0       __imp_RegisterClassExW     00000001800244a0     user32:USER32.dll
 0002:000004a8       __imp_GetClassInfoExW      00000001800244a8     user32:USER32.dll
 0002:000004b0       __imp_CreateWindowExW      00000001800244b0     user32:USER32.dll
 0002:000004b8       __imp_IsWindow             00000001800244b8     user32:USER32.dll
 0002:000004c0       __imp_IsChild              00000001800244c0     user32:USER32.dll
 0002:000004c8       __imp_DestroyWindow        00000001800244c8     user32:USER32.dll
 0002:000004d0       __imp_ShowWindow           00000001800244d0     user32:USER32.dll
 0002:000004d8       __imp_SetWindowPos         00000001800244d8     user32:USER32.dll
 0002:000004e0       __imp_CharNextW            00000001800244e0     user32:USER32.dll
 0002:000004e8       __imp_SetFocus             00000001800244e8     user32:USER32.dll
 0002:000004f0       __imp_LoadBitmapW          00000001800244f0     user32:USER32.dll
 0002:000004f8       __imp_RegisterClassW       00000001800244f8     user32:USER32.dll
 0002:00000500       __imp_PeekMessageW         0000000180024500     user32:USER32.dll
 0002:00000508       __imp_LoadCursorW          0000000180024508     user32:USER32.dll
 0002:00000510       __imp_GetParent            0000000180024510     user32:USER32.dll
 0002:00000518       __imp_SetWindowLongPtrW    0000000180024518     user32:USER32.dll
 0002:00000520       __imp_GetWindowLongPtrW    0000000180024520     user32:USER32.dll
 0002:00000528       __imp_PtInRect             0000000180024528     user32:USER32.dll
 0002:00000530       __imp_EqualRect            0000000180024530     user32:USER32.dll
 0002:00000538       __imp_OffsetRect           0000000180024538     user32:USER32.dll
 0002:00000540       __imp_UnionRect            0000000180024540     user32:USER32.dll
 0002:00000548       __imp_IntersectRect        0000000180024548     user32:USER32.dll
 0002:00000550       __imp_GetClientRect        0000000180024550     user32:USER32.dll
 0002:00000558       __imp_InvalidateRect       0000000180024558     user32:USER32.dll
 0002:00000560       __imp_SetWindowRgn         0000000180024560     user32:USER32.dll
 0002:00000568       __imp_EndPaint             0000000180024568     user32:USER32.dll
 0002:00000570       __imp_BeginPaint           0000000180024570     user32:USER32.dll
 0002:00000578       __imp_ReleaseDC            0000000180024578     user32:USER32.dll
 0002:00000580       __imp_GetDC                0000000180024580     user32:USER32.dll
 0002:00000588       __imp_GetKeyState          0000000180024588     user32:USER32.dll
 0002:00000590       __imp_GetFocus             0000000180024590     user32:USER32.dll
 0002:00000598       \177USER32_NULL_THUNK_DATA 0000000180024598     user32:USER32.dll
 0002:000005a0       __imp_CoCreateInstance     00000001800245a0     ole32:ole32.dll
 0002:000005a8       __imp_StringFromGUID2      00000001800245a8     ole32:ole32.dll
 0002:000005b0       __imp_CoTaskMemAlloc       00000001800245b0     ole32:ole32.dll
 0002:000005b8       __imp_CoTaskMemFree        00000001800245b8     ole32:ole32.dll
 0002:000005c0       __imp_ReadClassStm         00000001800245c0     ole32:ole32.dll
 0002:000005c8       __imp_WriteClassStm        00000001800245c8     ole32:ole32.dll
 0002:000005d0       __imp_CreateDataAdviseHolder 00000001800245d0     ole32:ole32.dll
 0002:000005d8       __imp_OleSaveToStream      00000001800245d8     ole32:ole32.dll
 0002:000005e0       __imp_CreateOleAdviseHolder 00000001800245e0     ole32:ole32.dll
 0002:000005e8       __imp_OleRegGetUserType    00000001800245e8     ole32:ole32.dll
 0002:000005f0       __imp_OleRegGetMiscStatus  00000001800245f0     ole32:ole32.dll
 0002:000005f8       __imp_OleRegEnumVerbs      00000001800245f8     ole32:ole32.dll
 0002:00000600       __imp_CLSIDFromProgID      0000000180024600     ole32:ole32.dll
 0002:00000608       __imp_CoTaskMemRealloc     0000000180024608     ole32:ole32.dll
 0002:00000610       \177ole32_NULL_THUNK_DATA  0000000180024610     ole32:ole32.dll
 0002:00000618       __guard_check_icall_fptr   0000000180024618     LIBCMT:guard_support.obj
 0002:00000620       __guard_xfg_check_icall_fptr 0000000180024620     LIBCMT:guard_support.obj
 0002:00000628       __guard_dispatch_icall_fptr 0000000180024628     LIBCMT:guard_support.obj
 0002:00000630       __guard_xfg_dispatch_icall_fptr 0000000180024630     LIBCMT:guard_support.obj
 0002:00000638       __guard_xfg_table_dispatch_icall_fptr 0000000180024638     LIBCMT:guard_support.obj
 0002:00000640       __xc_a                     0000000180024640     LIBCMT:initializers.obj
 0002:00000670       __xc_z                     0000000180024670     LIBCMT:initializers.obj
 0002:00000678       __xi_a                     0000000180024678     LIBCMT:initializers.obj
 0002:00000688       __acrt_stdio_initializer   0000000180024688     libucrt:stdio_initializer.obj
 0002:00000690       __acrt_multibyte_initializer 0000000180024690     libucrt:multibyte_initializer.obj
 0002:00000698       __acrt_tran_fma3_initializer 0000000180024698     libucrt:fma3_initializer.obj
 0002:000006a0       __xi_z                     00000001800246a0     LIBCMT:initializers.obj
 0002:000006a8       __xl_a                     00000001800246a8     LIBCMT:tlssup.obj
 0002:000006b0       __xl_z                     00000001800246b0     LIBCMT:tlssup.obj
 0002:000006b8       __xp_a                     00000001800246b8     LIBCMT:initializers.obj
 0002:000006c0       __acrt_locale_terminator   00000001800246c0     libucrt:locale_initializer.obj
 0002:000006c8       __dcrt_console_output_terminator 00000001800246c8     libucrt:console_output_initializer.obj
 0002:000006d0       __acrt_stdio_terminator    00000001800246d0     libucrt:stdio_initializer.obj
 0002:000006d8       __xp_z                     00000001800246d8     LIBCMT:initializers.obj
 0002:000006e0       __xt_a                     00000001800246e0     LIBCMT:initializers.obj
 0002:000006e8       __xt_z                     00000001800246e8     LIBCMT:initializers.obj
 0002:000006f0       ??_C@_13HADIAKP@?$AAS@     00000001800246f0     OposVariant.obj
 0002:000006f4       ??_C@_13LHMFKAAD@?$AAM@    00000001800246f4     OposVariant.obj
 0002:000006f8       ??_C@_13MKMNOPIJ@?$AAD@    00000001800246f8     OposVariant.obj
 0002:000006fc       ??_C@_13OPKGLAFF@?$AAB@    00000001800246fc     OposVariant.obj
 0002:00000700       ??_C@_17LLMMEOJD@?$AAV?$AAa?$AAl@ 0000000180024700     OposVariant.obj
 0002:00000708       ??_C@_1BI@JFAIJMHL@?$AAF?$AAo?$AAr?$AAc?$AAe?$AAR?$AAe?$AAm?$AAo?$AAv?$AAe@ 0000000180024708     OposVariant.obj
 0002:00000720       ??_C@_1BC@GCKHIPE@?$AAN?$AAo?$AAR?$AAe?$AAm?$AAo?$AAv?$AAe@ 0000000180024720     OposVariant.obj
 0002:00000738       ??_C@_1O@JDLOHAN@?$AAD?$AAe?$AAl?$AAe?$AAt?$AAe@ 0000000180024738     OposVariant.obj
 0002:00000748       ??_C@_11LOCGONAA@@         0000000180024748     OposVariant.obj
 0002:00000750       IID_IOPOSScale_1_5         0000000180024750     Scale.obj
 0002:00000760       IID_IOPOSScale_1_8         0000000180024760     Scale.obj
 0002:00000770       IID_IOPOSScale_1_9         0000000180024770     Scale.obj
 0002:00000780       IID_IOPOSScale_1_9_zz      0000000180024780     Scale.obj
 0002:00000790       IID_IOPOSScale_1_13        0000000180024790     Scale.obj
 0002:000007a0       IID_IOPOSScale_1_13_zz     00000001800247a0     Scale.obj
 0002:000007b0       IID_IOPOSScale_1_14        00000001800247b0     Scale.obj
 0002:000007c0       IID_IOPOSScale             00000001800247c0     Scale.obj
 0002:000007d0       LIBID_OposScale_CCO        00000001800247d0     Scale.obj
 0002:000007e0       DIID__IOPOSScaleEvents     00000001800247e0     Scale.obj
 0002:000007f0       CLSID_OPOSScale            00000001800247f0     Scale.obj
 0002:00000800       _GUID_00000114_0000_0000_c000_000000000046 0000000180024800     Scale.obj
 0002:00000810       ??_C@_1BK@BIGILECK@?$AAA?$AAd?$AAv?$AAa?$AAp?$AAi?$AA3?$AA2?$AA?4?$AAd?$AAl?$AAl@ 0000000180024810     Scale.obj
 0002:00000830       ??_C@_0BI@MNCFCPFK@RegCreateKeyTransactedW@ 0000000180024830     Scale.obj
 0002:00000848       _GUID_b196b287_bab4_101a_b69c_00aa00341d07 0000000180024848     Scale.obj
 0002:00000858       _GUID_b196b285_bab4_101a_b69c_00aa00341d07 0000000180024858     Scale.obj
 0002:00000868       _GUID_a6bc3ac0_dbaa_11ce_9de3_00aa004bb851 0000000180024868     Scale.obj
 0002:00000878       _GUID_0000010c_0000_0000_c000_000000000046 0000000180024878     Scale.obj
 0002:00000888       _GUID_00000146_0000_0000_c000_000000000046 0000000180024888     Scale.obj
 0002:000008a0       ?_entries@?1??_GetEntries@COPOSScale@@SAPEBU_ATL_INTMAP_ENTRY@ATL@@XZ@4QBU34@B 00000001800248a0     Scale.obj
 0002:00000b70       _GUID_cf51ed10_62fe_11cf_bf86_00a0c9034836 0000000180024b70     Scale.obj
 0002:00000b80       _GUID_0000010a_0000_0000_c000_000000000046 0000000180024b80     Scale.obj
 0002:00000b90       _GUID_b196b283_bab4_101a_b69c_00aa00341d07 0000000180024b90     Scale.obj
 0002:00000ba0       _GUID_922eada0_3424_11cf_b670_00aa004cd6d8 0000000180024ba0     Scale.obj
 0002:00000bb0       _GUID_9c2cad80_3424_11cf_b670_00aa004cd6d8 0000000180024bb0     Scale.obj
 0002:00000bc0       _GUID_cb5bdc81_93c1_11cf_8f20_00805f2cd064 0000000180024bc0     Scale.obj
 0002:00000bd0       _GUID_00000119_0000_0000_c000_000000000046 0000000180024bd0     Scale.obj
 0002:00000be0       ?pPropMap@?1??GetPropertyMap@COPOSScale@@SAPEBUATL_PROPMAP_ENTRY@ATL@@XZ@4QBU34@B 0000000180024be0     Scale.obj
 0002:00000c88       _GUID_b196b289_bab4_101a_b69c_00aa00341d07 0000000180024c88     Scale.obj
 0002:00000c98       ??_C@_17DGDADEHL@?$AA_?$AAc?$AAx@ 0000000180024c98     Scale.obj
 0002:00000ca0       ??_C@_17IOIMFDBO@?$AA_?$AAc?$AAy@ 0000000180024ca0     Scale.obj
 0002:00000ca8       _GUID_00000117_0000_0000_c000_000000000046 0000000180024ca8     Scale.obj
 0002:00000cb8       ??_7CComModule@ATL@@6B@    0000000180024cb8     Scale.obj
 0002:00000d08       ??_7?$CComObjectCached@VCComClassFactory@ATL@@@ATL@@6B@ 0000000180024d08     Scale.obj
 0002:00000d38       ??_C@_1CE@PGFMOFKI@?$AAS?$AAt?$AAa?$AAt?$AAu?$AAs?$AAU?$AAp?$AAd?$AAa?$AAt?$AAe?$AAE?$AAv?$AAe@ 0000000180024d38     Scale.obj
 0002:00000d60       ??_C@_1BG@LODEBHDD@?$AAE?$AAr?$AAr?$AAo?$AAr?$AAE?$AAv?$AAe?$AAn?$AAt@ 0000000180024d60     Scale.obj
 0002:00000d78       ??_C@_1BM@CBGEBBBJ@?$AAD?$AAi?$AAr?$AAe?$AAc?$AAt?$AAI?$AAO?$AAE?$AAv?$AAe?$AAn?$AAt@ 0000000180024d78     Scale.obj
 0002:00000d98       ??_C@_1BE@IEBMACEM@?$AAD?$AAa?$AAt?$AAa?$AAE?$AAv?$AAe?$AAn?$AAt@ 0000000180024d98     Scale.obj
 0002:00000db0       _GUID_b196b286_bab4_101a_b69c_00aa00341d07 0000000180024db0     Scale.obj
 0002:00000dc0       _GUID_00000000_0000_0000_c000_000000000046 0000000180024dc0     Scale.obj
 0002:00000dd0       _GUID_00020400_0000_0000_c000_000000000046 0000000180024dd0     Scale.obj
 0002:00000de0       ??_C@_1BC@ENICKDH@?$AAC?$AAo?$AAn?$AAt?$AAe?$AAn?$AAt?$AAs@ 0000000180024de0     Scale.obj
 0002:00000df8       ??_7?$CComObject@V?$CComEnum@UIEnumConnectionPoints@@$1?_GUID_b196b285_bab4_101a_b69c_00aa00341d07@@3U__s_GUID@@BPEAUIConnectionPoint@@V?$_CopyInterface@UIConnectionPoint@@@ATL@@VCComSingleThreadModel@6@@ATL@@@ATL@@6B@ 0000000180024df8     Scale.obj
 0002:00000e38       _GUID_0000010e_0000_0000_c000_000000000046 0000000180024e38     Scale.obj
 0002:00000e48       _GUID_b196b288_bab4_101a_b69c_00aa00341d07 0000000180024e48     Scale.obj
 0002:00000e58       ??_C@_1M@KANJNLFF@?$AAC?$AAL?$AAS?$AAI?$AAD@ 0000000180024e58     Scale.obj
 0002:00000e68       ??_C@_1M@EJNEECMJ@?$AAA?$AAp?$AAp?$AAI?$AAD@ 0000000180024e68     Scale.obj
 0002:00000e78       _GUID_00000113_0000_0000_c000_000000000046 0000000180024e78     Scale.obj
 0002:00000e90       ?rgszNeverDelete@CRegParser@ATL@@1QBQEB_WB 0000000180024e90     Scale.obj
 0002:00000ef0       _GUID_1c2056cc_5ef4_101b_8bc8_00aa003e3b29 0000000180024ef0     Scale.obj
 0002:00000f00       ??_7CRegObject@ATL@@6B@    0000000180024f00     Scale.obj
 0002:00000f30       _GUID_00000112_0000_0000_c000_000000000046 0000000180024f30     Scale.obj
 0002:00000f40       _GUID_3af24292_0c96_11ce_a0cf_00aa00600ab8 0000000180024f40     Scale.obj
 0002:00000f50       _GUID_00000127_0000_0000_c000_000000000046 0000000180024f50     Scale.obj
 0002:00000f60       _GUID_0000010d_0000_0000_c000_000000000046 0000000180024f60     Scale.obj
 0002:00000f70       ??_C@_1CK@OEKPKBNA@?$AAC?$AAo?$AAm?$AAp?$AAo?$AAn?$AAe?$AAn?$AAt?$AA?5?$AAC?$AAa?$AAt?$AAe?$AAg@ 0000000180024f70     Scale.obj
 0002:00000fa0       ??_C@_1BC@NKMMNMGL@?$AAF?$AAi?$AAl?$AAe?$AAT?$AAy?$AAp?$AAe@ 0000000180024fa0     Scale.obj
 0002:00000fb8       ??_C@_1BE@EKPAFMCP@?$AAI?$AAn?$AAt?$AAe?$AAr?$AAf?$AAa?$AAc?$AAe@ 0000000180024fb8     Scale.obj
 0002:00000fd0       ??_C@_1BC@MAICEHGI@?$AAH?$AAa?$AAr?$AAd?$AAw?$AAa?$AAr?$AAe@ 0000000180024fd0     Scale.obj
 0002:00000fe8       ??_C@_19HLLLM@?$AAM?$AAi?$AAm?$AAe@ 0000000180024fe8     Scale.obj
 0002:00000ff8       ??_C@_17OMAOINJK@?$AAS?$AAA?$AAM@ 0000000180024ff8     Scale.obj
 0002:00001000       ??_C@_1BC@IBECJAAI@?$AAS?$AAE?$AAC?$AAU?$AAR?$AAI?$AAT?$AAY@ 0000000180025000     Scale.obj
 0002:00001018       ??_C@_1O@GBFINDKL@?$AAS?$AAY?$AAS?$AAT?$AAE?$AAM@ 0000000180025018     Scale.obj
 0002:00001028       ??_C@_1BC@EAHCMADO@?$AAS?$AAo?$AAf?$AAt?$AAw?$AAa?$AAr?$AAe@ 0000000180025028     Scale.obj
 0002:00001040       ??_C@_1BA@JIHHIEDE@?$AAT?$AAy?$AAp?$AAe?$AAL?$AAi?$AAb@ 0000000180025040     Scale.obj
 0002:00001050       ?map@?1??HKeyFromString@CRegParser@ATL@@KAPEAUHKEY__@@PEA_W@Z@4QBUkeymap@?1??123@KAPEAU4@0@Z@B 0000000180025050     Scale.obj
 0002:00001130       ??_C@_19NCHLBIN@?$AAH?$AAK?$AAC?$AAR@ 0000000180025130     Scale.obj
 0002:00001140       ??_C@_19JAPAIJDE@?$AAH?$AAK?$AAC?$AAU@ 0000000180025140     Scale.obj
 0002:00001150       ??_C@_19PEALEEJB@?$AAH?$AAK?$AAL?$AAM@ 0000000180025150     Scale.obj
 0002:00001160       ??_C@_17PJOJPMPB@?$AAH?$AAK?$AAU@ 0000000180025160     Scale.obj
 0002:00001168       ??_C@_19PNBHMJPL@?$AAH?$AAK?$AAP?$AAD@ 0000000180025168     Scale.obj
 0002:00001178       ??_C@_19GFFAIJHG@?$AAH?$AAK?$AAD?$AAD@ 0000000180025178     Scale.obj
 0002:00001188       ??_C@_19OFICIBHH@?$AAH?$AAK?$AAC?$AAC@ 0000000180025188     Scale.obj
 0002:00001198       ??_C@_1CE@PACHPJFI@?$AAH?$AAK?$AAE?$AAY?$AA_?$AAC?$AAL?$AAA?$AAS?$AAS?$AAE?$AAS?$AA_?$AAR?$AAO@ 0000000180025198     Scale.obj
 0002:000011c0       ??_C@_1CE@HLHNCBPM@?$AAH?$AAK?$AAE?$AAY?$AA_?$AAC?$AAU?$AAR?$AAR?$AAE?$AAN?$AAT?$AA_?$AAU?$AAS@ 00000001800251c0     Scale.obj
 0002:000011e8       ??_C@_1CG@GFBEANJL@?$AAH?$AAK?$AAE?$AAY?$AA_?$AAL?$AAO?$AAC?$AAA?$AAL?$AA_?$AAM?$AAA?$AAC?$AAH@ 00000001800251e8     Scale.obj
 0002:00001210       ??_C@_1BG@BGODANIO@?$AAH?$AAK?$AAE?$AAY?$AA_?$AAU?$AAS?$AAE?$AAR?$AAS@ 0000000180025210     Scale.obj
 0002:00001228       ??_C@_1CM@KHNNAOIC@?$AAH?$AAK?$AAE?$AAY?$AA_?$AAP?$AAE?$AAR?$AAF?$AAO?$AAR?$AAM?$AAA?$AAN?$AAC@ 0000000180025228     Scale.obj
 0002:00001258       ??_C@_1BM@HAGMMHIA@?$AAH?$AAK?$AAE?$AAY?$AA_?$AAD?$AAY?$AAN?$AA_?$AAD?$AAA?$AAT?$AAA@ 0000000180025258     Scale.obj
 0002:00001278       ??_C@_1CI@BBJOACGG@?$AAH?$AAK?$AAE?$AAY?$AA_?$AAC?$AAU?$AAR?$AAR?$AAE?$AAN?$AAT?$AA_?$AAC?$AAO@ 0000000180025278     Scale.obj
 0002:000012a0       _GUID_00000109_0000_0000_c000_000000000046 00000001800252a0     Scale.obj
 0002:000012b0       _GUID_7fd52380_4e07_101b_ae2d_08002b2ec713 00000001800252b0     Scale.obj
 0002:000012c0       ??_C@_1M@PPPPCDEP@?$AAA?$AAP?$AAP?$AAI?$AAD@ 00000001800252c0     Scale.obj
 0002:000012d0       ??_C@_1EA@NHKLICFA@?$AAH?$AAK?$AAC?$AAU?$AA?$AN?$AA?6?$AA?$HL?$AA?7?$AAS?$AAo?$AAf?$AAt?$AAw?$AAa?$AAr@ 00000001800252d0     Scale.obj
 0002:00001310       ??_C@_1BE@LJOLIMEM@?$AA?$AN?$AA?6?$AA?7?$AA?$HN?$AA?$AN?$AA?6?$AA?$HN?$AA?$AN?$AA?6@ 0000000180025310     Scale.obj
 0002:00001328       ??_C@_1O@MNLDABAF@?$AAM?$AAo?$AAd?$AAu?$AAl?$AAe@ 0000000180025328     Scale.obj
 0002:00001338       ??_C@_1BG@JBACFMF@?$AAM?$AAo?$AAd?$AAu?$AAl?$AAe?$AA_?$AAR?$AAa?$AAw@ 0000000180025338     Scale.obj
 0002:00001350       ??_C@_1BC@KAILKFFG@?$AAR?$AAE?$AAG?$AAI?$AAS?$AAT?$AAR?$AAY@ 0000000180025350     Scale.obj
 0002:00001368       ??_7?$CComContainedObject@VCOPOSScale@@@ATL@@6B?$IDispatchImpl@UIOPOSScale@@$1?IID_IOPOSScale@@3U_GUID@@B$1?LIBID_OposScale_CCO@@3U3@B$00$0A@VCComTypeInfoHolder@ATL@@@1@@ 0000000180025368     Scale.obj
 0002:00001660       ??_7?$CComContainedObject@VCOPOSScale@@@ATL@@6BCComControlBase@1@@ 0000000180025660     Scale.obj
 0002:00001688       ??_7?$CComContainedObject@VCOPOSScale@@@ATL@@6B?$CWindowImpl@VCOPOSScale@@VCWindow@ATL@@V?$CWinTraits@$0FGAAAAAA@$0A@@3@@1@@ 0000000180025688     Scale.obj
 0002:000016a8       ??_7?$CComContainedObject@VCOPOSScale@@@ATL@@6B?$IPersistStreamInitImpl@VCOPOSScale@@@1@@ 00000001800256a8     Scale.obj
 0002:000016f0       ??_7?$CComContainedObject@VCOPOSScale@@@ATL@@6B?$IOleControlImpl@VCOPOSScale@@@1@@ 00000001800256f0     Scale.obj
 0002:00001728       ??_7?$CComContainedObject@VCOPOSScale@@@ATL@@6B?$IOleObjectImpl@VCOPOSScale@@@1@@ 0000000180025728     Scale.obj
 0002:000017e8       ??_7?$CComContainedObject@VCOPOSScale@@@ATL@@6B?$IOleInPlaceActiveObjectImpl@VCOPOSScale@@@1@@ 00000001800257e8     Scale.obj
 0002:00001838       ??_7?$CComContainedObject@VCOPOSScale@@@ATL@@6B?$IViewObjectExImpl@VCOPOSScale@@@1@@ 0000000180025838     Scale.obj
 0002:000018b0       ??_7?$CComContainedObject@VCOPOSScale@@@ATL@@6B?$IOleInPlaceObjectWindowlessImpl@VCOPOSScale@@@1@@ 00000001800258b0     Scale.obj
 0002:00001908       ??_7?$CComContainedObject@VCOPOSScale@@@ATL@@6B?$IConnectionPointContainerImpl@VCOPOSScale@@@1@@ 0000000180025908     Scale.obj
 0002:00001930       ??_7?$CComContainedObject@VCOPOSScale@@@ATL@@6B?$IPersistStorageImpl@VCOPOSScale@@@1@@ 0000000180025930     Scale.obj
 0002:00001980       ??_7?$CComContainedObject@VCOPOSScale@@@ATL@@6B?$ISpecifyPropertyPagesImpl@VCOPOSScale@@@1@@ 0000000180025980     Scale.obj
 0002:000019a0       ??_7?$CComContainedObject@VCOPOSScale@@@ATL@@6B?$IQuickActivateImpl@VCOPOSScale@@@1@@ 00000001800259a0     Scale.obj
 0002:000019d0       ??_7?$CComContainedObject@VCOPOSScale@@@ATL@@6B?$IDataObjectImpl@VCOPOSScale@@@1@@ 00000001800259d0     Scale.obj
 0002:00001a30       ??_7?$CComContainedObject@VCOPOSScale@@@ATL@@6B?$IProvideClassInfo2Impl@$1?CLSID_OPOSScale@@3U_GUID@@B$1?DIID__IOPOSScaleEvents@@3U2@B$1?LIBID_OposScale_CCO@@3U2@B$00$0A@VCComTypeInfoHolder@ATL@@@1@@ 0000000180025a30     Scale.obj
 0002:00001a58       ??_7?$CComContainedObject@VCOPOSScale@@@ATL@@6B?$IObjectSafetyImpl@VCOPOSScale@@$02@1@@ 0000000180025a58     Scale.obj
 0002:00001a88       ??_7?$CComContainedObject@VCOPOSScale@@@ATL@@6B?$IPropertyNotifySinkCP@VCOPOSScale@@VCComDynamicUnkArray@ATL@@@1@@ 0000000180025a88     Scale.obj
 0002:00001ac8       ??_7?$CComContainedObject@VCOPOSScale@@@ATL@@6B?$CProxy_IOPOSEvents@VCOPOSScale@@@@@ 0000000180025ac8     Scale.obj
 0002:00001b08       ??_7?$CComAggObject@VCOPOSScale@@@ATL@@6B@ 0000000180025b08     Scale.obj
 0002:00001b28       ??_7?$CComObject@VCOPOSScale@@@ATL@@6B?$IDispatchImpl@UIOPOSScale@@$1?IID_IOPOSScale@@3U_GUID@@B$1?LIBID_OposScale_CCO@@3U3@B$00$0A@VCComTypeInfoHolder@ATL@@@1@@ 0000000180025b28     Scale.obj
 0002:00001e20       ??_7?$CComObject@VCOPOSScale@@@ATL@@6BCComControlBase@1@@ 0000000180025e20     Scale.obj
 0002:00001e48       ??_7?$CComObject@VCOPOSScale@@@ATL@@6B?$CWindowImpl@VCOPOSScale@@VCWindow@ATL@@V?$CWinTraits@$0FGAAAAAA@$0A@@3@@1@@ 0000000180025e48     Scale.obj
 0002:00001e68       ??_7?$CComObject@VCOPOSScale@@@ATL@@6B?$IPersistStreamInitImpl@VCOPOSScale@@@1@@ 0000000180025e68     Scale.obj
 0002:00001eb0       ??_7?$CComObject@VCOPOSScale@@@ATL@@6B?$IOleControlImpl@VCOPOSScale@@@1@@ 0000000180025eb0     Scale.obj
 0002:00001ee8       ??_7?$CComObject@VCOPOSScale@@@ATL@@6B?$IOleObjectImpl@VCOPOSScale@@@1@@ 0000000180025ee8     Scale.obj
 0002:00001fa8       ??_7?$CComObject@VCOPOSScale@@@ATL@@6B?$IOleInPlaceActiveObjectImpl@VCOPOSScale@@@1@@ 0000000180025fa8     Scale.obj
 0002:00001ff8       ??_7?$CComObject@VCOPOSScale@@@ATL@@6B?$IViewObjectExImpl@VCOPOSScale@@@1@@ 0000000180025ff8     Scale.obj
 0002:00002070       ??_7?$CComObject@VCOPOSScale@@@ATL@@6B?$IOleInPlaceObjectWindowlessImpl@VCOPOSScale@@@1@@ 0000000180026070     Scale.obj
 0002:000020c8       ??_7?$CComObject@VCOPOSScale@@@ATL@@6B?$IConnectionPointContainerImpl@VCOPOSScale@@@1@@ 00000001800260c8     Scale.obj
 0002:000020f0       ??_7?$CComObject@VCOPOSScale@@@ATL@@6B?$IPersistStorageImpl@VCOPOSScale@@@1@@ 00000001800260f0     Scale.obj
 0002:00002140       ??_7?$CComObject@VCOPOSScale@@@ATL@@6B?$ISpecifyPropertyPagesImpl@VCOPOSScale@@@1@@ 0000000180026140     Scale.obj
 0002:00002160       ??_7?$CComObject@VCOPOSScale@@@ATL@@6B?$IQuickActivateImpl@VCOPOSScale@@@1@@ 0000000180026160     Scale.obj
 0002:00002190       ??_7?$CComObject@VCOPOSScale@@@ATL@@6B?$IDataObjectImpl@VCOPOSScale@@@1@@ 0000000180026190     Scale.obj
 0002:000021f0       ??_7?$CComObject@VCOPOSScale@@@ATL@@6B?$IProvideClassInfo2Impl@$1?CLSID_OPOSScale@@3U_GUID@@B$1?DIID__IOPOSScaleEvents@@3U2@B$1?LIBID_OposScale_CCO@@3U2@B$00$0A@VCComTypeInfoHolder@ATL@@@1@@ 00000001800261f0     Scale.obj
 0002:00002218       ??_7?$CComObject@VCOPOSScale@@@ATL@@6B?$IObjectSafetyImpl@VCOPOSScale@@$02@1@@ 0000000180026218     Scale.obj
 0002:00002248       ??_7?$CComObject@VCOPOSScale@@@ATL@@6B?$IPropertyNotifySinkCP@VCOPOSScale@@VCComDynamicUnkArray@ATL@@@1@@ 0000000180026248     Scale.obj
 0002:00002288       ??_7?$CComObject@VCOPOSScale@@@ATL@@6B?$CProxy_IOPOSEvents@VCOPOSScale@@@@@ 0000000180026288     Scale.obj
 0002:000022c8       ??_C@_1O@GBFKGNEO@?$AAA?$AAT?$AAL?$AA?3?$AA?$CF?$AAp@ 00000001800262c8     Scale.obj
 0002:000022d8       ??_C@_1BA@PICGEGJB@?$AAD?$AAI?$AAS?$AAP?$AAL?$AAA?$AAY@ 00000001800262d8     Scale.obj
 0002:000022e8       _GUID_9bfbbc02_eff1_101a_84ed_00aa00341d07 00000001800262e8     Scale.obj
 0002:000022f8       ?_entries@?1??_GetEntries@?$CComEnum@UIEnumConnectionPoints@@$1?_GUID_b196b285_bab4_101a_b69c_00aa00341d07@@3U__s_GUID@@BPEAUIConnectionPoint@@V?$_CopyInterface@UIConnectionPoint@@@ATL@@VCComSingleThreadModel@6@@ATL@@SAPEBU_ATL_INTMAP_ENTRY@3@XZ@4QBU43@B 00000001800262f8     Scale.obj
 0002:00002328       _GUID_b196b284_bab4_101a_b69c_00aa00341d07 0000000180026328     Scale.obj
 0002:00002338       _GUID_00020412_0000_0000_c000_000000000046 0000000180026338     Scale.obj
 0002:00002348       _GUID_00020401_0000_0000_c000_000000000046 0000000180026348     Scale.obj
 0002:00002358       _GUID_55980ba0_35aa_11cf_b671_00aa004cd6d8 0000000180026358     Scale.obj
 0002:00002368       _GUID_b196b28b_bab4_101a_b69c_00aa00341d07 0000000180026368     Scale.obj
 0002:00002378       ??_7?$CComObject@V?$CComEnum@UIEnumConnections@@$1?_GUID_b196b287_bab4_101a_b69c_00aa00341d07@@3U__s_GUID@@BUtagCONNECTDATA@@V?$_Copy@UtagCONNECTDATA@@@ATL@@VCComSingleThreadModel@6@@ATL@@@ATL@@6B@ 0000000180026378     Scale.obj
 0002:000023b8       ?_entries@?1??_GetEntries@?$CComEnum@UIEnumConnections@@$1?_GUID_b196b287_bab4_101a_b69c_00aa00341d07@@3U__s_GUID@@BUtagCONNECTDATA@@V?$_Copy@UtagCONNECTDATA@@@ATL@@VCComSingleThreadModel@6@@ATL@@SAPEBU_ATL_INTMAP_ENTRY@3@XZ@4QBU43@B 00000001800263b8     Scale.obj
 0002:000023e8       ??_7CComClassFactory@ATL@@6B@ 00000001800263e8     Scale.obj
 0002:00002418       ?_entries@?1??_GetEntries@CComClassFactory@ATL@@SAPEBU_ATL_INTMAP_ENTRY@3@XZ@4QBU43@B 0000000180026418     Scale.obj
 0002:00002448       _GUID_00000001_0000_0000_c000_000000000046 0000000180026448     Scale.obj
 0002:00002458       ??_C@_0BG@EKFFMJIO@RegOpenKeyTransactedW@ 0000000180026458     Scale.obj
 0002:00002470       ??_C@_0BI@HAKLOOGP@RegDeleteKeyTransactedW@ 0000000180026470     Scale.obj
 0002:00002488       ??_C@_0BA@LILAPHGE@RegDeleteKeyExW@ 0000000180026488     Scale.obj
 0002:00002498       ??_C@_19ILOCMLCJ@?$AA?4?$AAt?$AAl?$AAb@ 0000000180026498     Scale.obj
 0002:000024a8       _GUID_0002e012_0000_0000_c000_000000000046 00000001800264a8     Scale.obj
 0002:000024b8       ??_C@_1O@FHBGLCIO@?$AAC?$AAL?$AAS?$AAI?$AAD?$AA?2@ 00000001800264b8     Scale.obj
 0002:000024c8       ??_C@_1CK@IFBKBFAA@?$AA?2?$AAR?$AAe?$AAq?$AAu?$AAi?$AAr?$AAe?$AAd?$AA?5?$AAC?$AAa?$AAt?$AAe?$AAg@ 00000001800264c8     Scale.obj
 0002:000024f8       ??_C@_1DA@BIHALFED@?$AA?2?$AAI?$AAm?$AAp?$AAl?$AAe?$AAm?$AAe?$AAn?$AAt?$AAe?$AAd?$AA?5?$AAC?$AAa@ 00000001800264f8     Scale.obj
 0002:00002528       ??_C@_1BK@EDKOLFBJ@?$AAO?$AAL?$AAE?$AAA?$AAU?$AAT?$AA3?$AA2?$AA?4?$AAD?$AAL?$AAL@ 0000000180026528     Scale.obj
 0002:00002548       ??_C@_0BJ@CNLFOMHB@UnRegisterTypeLibForUser@ 0000000180026548     Scale.obj
 0002:00002568       ??_C@_0BH@LBOMMKPJ@RegisterTypeLibForUser@ 0000000180026568     Scale.obj
 0002:00002580       ??_C@_0P@MMNMMLGK@COFreezeEvents@ 0000000180026580     ScaleImpl.obj
 0002:00002590       ??_C@_0BC@OGCGGIMP@GetPropertyNumber@ 0000000180026590     ScaleImpl.obj
 0002:000025a8       ??_C@_0BC@MDCNODNB@SetPropertyNumber@ 00000001800265a8     ScaleImpl.obj
 0002:000025c0       ??_C@_0BC@CFCCMIMD@GetPropertyString@ 00000001800265c0     ScaleImpl.obj
 0002:000025d8       ??_C@_0BC@CJEDNN@SetPropertyString@ 00000001800265d8     ScaleImpl.obj
 0002:000025f0       ??_C@_0M@LNPKKKDA@OpenService@ 00000001800265f0     ScaleImpl.obj
 0002:00002600       ??_C@_0M@PCMCHHMH@CheckHealth@ 0000000180026600     ScaleImpl.obj
 0002:00002610       ??_C@_0M@JGMIDNEK@ClaimDevice@ 0000000180026610     ScaleImpl.obj
 0002:00002620       ??_C@_0N@DDFIIBMP@CloseService@ 0000000180026620     ScaleImpl.obj
 0002:00002630       ??_C@_08EEIHICPC@DirectIO@ 0000000180026630     ScaleImpl.obj
 0002:00002640       ??_C@_0O@BCPMENMJ@ReleaseDevice@ 0000000180026640     ScaleImpl.obj
 0002:00002650       ??_C@_0L@BNNCGLFI@ReadWeight@ 0000000180026650     ScaleImpl.obj
 0002:00002660       ??_C@_0L@BNEIFEJC@ClearInput@ 0000000180026660     ScaleImpl.obj
 0002:00002670       ??_C@_0O@IFKMCDDH@GetSalesPrice@ 0000000180026670     ScaleImpl.obj
 0002:00002680       ??_C@_0N@EJMJKFDP@GetUnitPrice@ 0000000180026680     ScaleImpl.obj
 0002:00002690       ??_C@_0N@DNHHGJHD@SetUnitPrice@ 0000000180026690     ScaleImpl.obj
 0002:000026a0       ??_C@_0M@CHHJKFGA@DisplayText@ 00000001800266a0     ScaleImpl.obj
 0002:000026b0       ??_C@_09LJGJKFAG@ZeroScale@ 00000001800266b0     ScaleImpl.obj
 0002:000026c0       ??_C@_0BA@GFABKEEE@ResetStatistics@ 00000001800266c0     ScaleImpl.obj
 0002:000026d0       ??_C@_0BD@DPALHJGC@RetrieveStatistics@ 00000001800266d0     ScaleImpl.obj
 0002:000026e8       ??_C@_0BB@KOHIKNFC@UpdateStatistics@ 00000001800266e8     ScaleImpl.obj
 0002:00002700       ??_C@_0BH@PBKBNMGB@CompareFirmwareVersion@ 0000000180026700     ScaleImpl.obj
 0002:00002718       ??_C@_0P@FBPDPIPA@UpdateFirmware@ 0000000180026718     ScaleImpl.obj
 0002:00002728       ??_C@_0BD@GEMLLFJD@DoPriceCalculating@ 0000000180026728     ScaleImpl.obj
 0002:00002740       ??_C@_0M@HNNLONIC@FreezeValue@ 0000000180026740     ScaleImpl.obj
 0002:00002750       ??_C@_0BH@DLLMBNFC@ReadLiveWeightWithTare@ 0000000180026750     ScaleImpl.obj
 0002:00002768       ??_C@_0BI@HLCJOBDD@SetPriceCalculationMode@ 0000000180026768     ScaleImpl.obj
 0002:00002780       ??_C@_0P@LOLJMEAO@SetSpecialTare@ 0000000180026780     ScaleImpl.obj
 0002:00002790       ??_C@_0BA@IIHJDMLL@SetTarePriority@ 0000000180026790     ScaleImpl.obj
 0002:000027a0       ??_C@_0BL@IMFEOHKA@SetUnitPriceWithWeightUnit@ 00000001800267a0     ScaleImpl.obj
 0002:000027c0       ??_7?$CProxy_IOPOSEvents@VCOPOSScale@@@@6B@ 00000001800267c0     ScaleImpl.obj
 0002:00002800       ??_C@_1BA@IFHENID@?$AA?$FL?$AAE?$AAr?$AAr?$AAo?$AAr?$AA?$FN@ 0000000180026800     ScaleImpl.obj
 0002:00002810       ??_C@_0CI@KKEBJNPN@SOFTWARE?2OLEforRetail?2ServiceOP@ 0000000180026810     ScaleImpl.obj
 0002:00002838       ??_C@_1M@IAIJHCCH@?$AAC?$AAl?$AAo?$AAs?$AAe@ 0000000180026838     ScaleImpl.obj
 0002:00002848       ??_C@_1M@PCPKGJAH@?$AAC?$AAl?$AAa?$AAi?$AAm@ 0000000180026848     ScaleImpl.obj
 0002:00002858       ??_C@_1BA@NDFKIOCP@?$AAR?$AAe?$AAl?$AAe?$AAa?$AAs?$AAe@ 0000000180026858     ScaleImpl.obj
 0002:00002868       ??_C@_05MAGIBEFI@Scale@    0000000180026868     ScaleImpl.obj
 0002:00002870       ??_C@_1BM@IJMNMBPK@?$AAG?$AAe?$AAt?$AAO?$AAp?$AAe?$AAn?$AAR?$AAe?$AAs?$AAu?$AAl?$AAt@ 0000000180026870     ScaleImpl.obj
 0002:00002890       IID_IDispatch              0000000180026890     uuid:oaidl_i.obj
 0002:000028a0       IID_IPropertyNotifySink    00000001800268a0     uuid:ocidl_i.obj
 0002:000028b0       GUID_NULL                  00000001800268b0     uuid:cguid_i.obj
 0002:000028c0       CLSID_StdGlobalInterfaceTable 00000001800268c0     uuid:cguid_i.obj
 0002:000028d0       CLSID_StdComponentCategoriesMgr 00000001800268d0     uuid:ieguids.obj
 0002:000028e0       IID_IUnknown               00000001800268e0     uuid:unknwn_i.obj
 0002:000028f0       __xmm@ffffffffffffffffffffffffffffffff 00000001800268f0     LIBCMT:utility.obj
 0002:00002900       ??_C@_1EC@JIJBPKFM@?$AAa?$AAp?$AAi?$AA?9?$AAm?$AAs?$AA?9?$AAw?$AAi?$AAn?$AA?9?$AAc?$AAo?$AAr?$AAe@ 0000000180026900     LIBCMT:thread_safe_statics.obj
 0002:00002948       ??_C@_1BK@MGMFAEKH@?$AAk?$AAe?$AAr?$AAn?$AAe?$AAl?$AA3?$AA2?$AA?4?$AAd?$AAl?$AAl@ 0000000180026948     LIBCMT:thread_safe_statics.obj
 0002:00002968       ??_C@_0BJ@JEBJOJFJ@SleepConditionVariableCS@ 0000000180026968     LIBCMT:thread_safe_statics.obj
 0002:00002988       ??_C@_0BJ@PGPPEPCC@WakeAllConditionVariable@ 0000000180026988     LIBCMT:thread_safe_statics.obj
 0002:000029a1       ?nothrow@std@@3Unothrow_t@1@B 00000001800269a1     LIBCMT:std_nothrow.obj
 0002:000029b8       _pRawDllMain               00000001800269b8     LIBCMT:dll_dllmain.obj
 0002:000029b8       _pDefaultRawDllMain        00000001800269b8     LIBCMT:dll_dllmain.obj
 0002:000029c8       ??_7exception@std@@6B@     00000001800269c8     LIBCMT:throw_bad_alloc.obj
 0002:000029d8       ??_C@_0BC@EOODALEL@Unknown?5exception@ 00000001800269d8     LIBCMT:throw_bad_alloc.obj
 0002:000029f8       ??_7bad_alloc@std@@6B@     00000001800269f8     LIBCMT:throw_bad_alloc.obj
 0002:00002a08       ??_C@_0P@GHFPNOJB@bad?5allocation@ 0000000180026a08     LIBCMT:throw_bad_alloc.obj
 0002:00002a20       ??_7bad_array_new_length@std@@6B@ 0000000180026a20     LIBCMT:throw_bad_alloc.obj
 0002:00002a30       ??_C@_0BF@KINCDENJ@bad?5array?5new?5length@ 0000000180026a30     LIBCMT:throw_bad_alloc.obj
 0002:00002a50       ??_7type_info@@6B@         0000000180026a50     LIBCMT:std_type_info_static.obj
 0002:00002a58       GUID_ATLVer110             0000000180026a58     atls:atlbase.obj
 0002:00002a70       ??_C@_1IC@ONKHOIDK@?$AAE?$AAR?$AAR?$AAO?$AAR?$AA?5?$AA?3?$AA?5?$AAU?$AAn?$AAa?$AAb?$AAl?$AAe?$AA?5@ 0000000180026a70     atls:atlbase.obj
 0002:00002af8       ??_C@_0N@FJEPLCIH@atlthunk?4dll@ 0000000180026af8     atls:atlthunk.obj
 0002:00002b08       ??_C@_0BG@GAKFHCBM@AtlThunk_AllocateData@ 0000000180026b08     atls:atlthunk.obj
 0002:00002b20       ??_C@_0BC@JKONFIAH@AtlThunk_InitData@ 0000000180026b20     atls:atlthunk.obj
 0002:00002b38       ??_C@_0BE@IAOEELAK@AtlThunk_DataToCode@ 0000000180026b38     atls:atlthunk.obj
 0002:00002b50       ??_C@_0BC@GBGKAIPI@AtlThunk_FreeData@ 0000000180026b50     atls:atlthunk.obj
 0002:00002b68       ?s_negLengthTab@FH4@@3QBCB 0000000180026b68     libvcruntime:risctrnsctrl.obj
 0002:00002b78       ?s_shiftTab@FH4@@3QBEB     0000000180026b78     libvcruntime:risctrnsctrl.obj
 0002:00002c28       _pDestructExceptionObject  0000000180026c28     libvcruntime:ehhelpers.obj
 0002:00002c38       ??_7bad_exception@std@@6B@ 0000000180026c38     libvcruntime:frame.obj
 0002:00002c48       ??_C@_0O@DPKOEFFH@bad?5exception@ 0000000180026c48     libvcruntime:frame.obj
 0002:00003360       ??_C@_08EHJDFFNH@__based?$CI@ 0000000180027360     libvcruntime:undname.obj
 0002:00003370       ??_C@_07KOLFKCDI@__cdecl@  0000000180027370     libvcruntime:undname.obj
 0002:00003378       ??_C@_08GHMPAG@__pascal@   0000000180027378     libvcruntime:undname.obj
 0002:00003388       ??_C@_09IFJBGAPI@__stdcall@ 0000000180027388     libvcruntime:undname.obj
 0002:00003398       ??_C@_0L@NPHFGOKO@__thiscall@ 0000000180027398     libvcruntime:undname.obj
 0002:000033a8       ??_C@_0L@JMKHOMEK@__fastcall@ 00000001800273a8     libvcruntime:undname.obj
 0002:000033b8       ??_C@_0N@BCKKPABJ@__vectorcall@ 00000001800273b8     libvcruntime:undname.obj
 0002:000033c8       ??_C@_09HIJEGCPM@__clrcall@ 00000001800273c8     libvcruntime:undname.obj
 0002:000033d4       ??_C@_06GHPCKEAG@__eabi@   00000001800273d4     libvcruntime:undname.obj
 0002:000033e0       ??_C@_09IOPIDJLG@__swift_1@ 00000001800273e0     libvcruntime:undname.obj
 0002:000033f0       ??_C@_09KFNFGKHF@__swift_2@ 00000001800273f0     libvcruntime:undname.obj
 0002:00003400       ??_C@_07JOMMBBKO@__ptr64@  0000000180027400     libvcruntime:undname.obj
 0002:00003408       ??_C@_0L@PILCLIHE@__restrict@ 0000000180027408     libvcruntime:undname.obj
 0002:00003418       ??_C@_0M@GFIIJFMG@__unaligned@ 0000000180027418     libvcruntime:undname.obj
 0002:00003428       ??_C@_09DHDLOLLB@restrict?$CI@ 0000000180027428     libvcruntime:undname.obj
 0002:00003432       ??_C@_00CNPNBAHC@@         0000000180027432     libvcruntime:undname.obj
 0002:00003434       ??_C@_04NIHEBCM@?5new@     0000000180027434     libvcruntime:undname.obj
 0002:00003440       ??_C@_07FPCDHGMM@?5delete@ 0000000180027440     libvcruntime:undname.obj
 0002:00003448       ??_C@_01NEMOKFLO@?$DN@     0000000180027448     libvcruntime:undname.obj
 0002:0000344c       ??_C@_02GPIOPFAK@?$DO?$DO@ 000000018002744c     libvcruntime:undname.obj
 0002:00003450       ??_C@_02FODMEDOG@?$DM?$DM@ 0000000180027450     libvcruntime:undname.obj
 0002:00003454       ??_C@_01DCLJPIOD@?$CB@     0000000180027454     libvcruntime:undname.obj
 0002:00003458       ??_C@_02EGOFBIJA@?$DN?$DN@ 0000000180027458     libvcruntime:undname.obj
 0002:0000345c       ??_C@_02FDNJECIE@?$CB?$DN@ 000000018002745c     libvcruntime:undname.obj
 0002:00003460       ??_C@_02GPECMEKF@?$FL?$FN@ 0000000180027460     libvcruntime:undname.obj
 0002:00003468       ??_C@_08LHJFAFGD@operator@ 0000000180027468     libvcruntime:undname.obj
 0002:00003474       ??_C@_02HBOOOICD@?9?$DO@   0000000180027474     libvcruntime:undname.obj
 0002:00003478       ??_C@_01NBENCBCI@?$CK@     0000000180027478     libvcruntime:undname.obj
 0002:0000347c       ??_C@_02ECNGHCIF@?$CL?$CL@ 000000018002747c     libvcruntime:undname.obj
 0002:00003480       ??_C@_02BAABKJLB@?9?9@     0000000180027480     libvcruntime:undname.obj
 0002:00003484       ??_C@_01JOAMLHOP@?9@       0000000180027484     libvcruntime:undname.obj
 0002:00003488       ??_C@_01MIFGBAGJ@?$CL@     0000000180027488     libvcruntime:undname.obj
 0002:0000348c       ??_C@_01HNPIGOCE@?$CG@     000000018002748c     libvcruntime:undname.obj
 0002:00003490       ??_C@_03MNHNFDLC@?9?$DO?$CK@ 0000000180027490     libvcruntime:undname.obj
 0002:00003494       ??_C@_01KMDKNFGN@?1@       0000000180027494     libvcruntime:undname.obj
 0002:00003498       ??_C@_01FGNFDNOH@?$CF@     0000000180027498     libvcruntime:undname.obj
 0002:0000349c       ??_C@_01MNNFJEPP@?$DM@     000000018002749c     libvcruntime:undname.obj
 0002:000034a0       ??_C@_02EHCHHCKH@?$DM?$DN@ 00000001800274a0     libvcruntime:undname.obj
 0002:000034a4       ??_C@_01PPODPGHN@?$DO@     00000001800274a4     libvcruntime:undname.obj
 0002:000034a8       ??_C@_02EEKDKGMJ@?$DO?$DN@ 00000001800274a8     libvcruntime:undname.obj
 0002:000034ac       ??_C@_01IHBHIGKO@?0@       00000001800274ac     libvcruntime:undname.obj
 0002:000034b0       ??_C@_02HCKGKOFO@?$CI?$CJ@ 00000001800274b0     libvcruntime:undname.obj
 0002:000034b4       ??_C@_01PJKLJHI@?$HO@      00000001800274b4     libvcruntime:undname.obj
 0002:000034b8       ??_C@_01JKBOJNNK@?$FO@     00000001800274b8     libvcruntime:undname.obj
 0002:000034bc       ??_C@_01DNKMNLPK@?$HM@     00000001800274bc     libvcruntime:undname.obj
 0002:000034c0       ??_C@_02PPKAJPJL@?$CG?$CG@ 00000001800274c0     libvcruntime:undname.obj
 0002:000034c4       ??_C@_02NONPIBCD@?$HM?$HM@ 00000001800274c4     libvcruntime:undname.obj
 0002:000034c8       ??_C@_02FPIMKNGF@?$CK?$DN@ 00000001800274c8     libvcruntime:undname.obj
 0002:000034cc       ??_C@_02FOEOMHFC@?$CL?$DN@ 00000001800274cc     libvcruntime:undname.obj
 0002:000034d0       ??_C@_02FKMDLLOA@?9?$DN@   00000001800274d0     libvcruntime:undname.obj
 0002:000034d4       ??_C@_02FJEHGPIO@?1?$DN@   00000001800274d4     libvcruntime:undname.obj
 0002:000034d8       ??_C@_02FENAOKFI@?$CF?$DN@ 00000001800274d8     libvcruntime:undname.obj
 0002:000034dc       ??_C@_03IKFCCPFF@?$DO?$DO?$DN@ 00000001800274dc     libvcruntime:undname.obj
 0002:000034e0       ??_C@_03CDNPDDLA@?$DM?$DM?$DN@ 00000001800274e0     libvcruntime:undname.obj
 0002:000034e4       ??_C@_02FGJGFEAB@?$CG?$DN@ 00000001800274e4     libvcruntime:undname.obj
 0002:000034e8       ??_C@_02DHLNPPGH@?$HM?$DN@ 00000001800274e8     libvcruntime:undname.obj
 0002:000034ec       ??_C@_02MHEGNOJ@?$FO?$DN@  00000001800274ec     libvcruntime:undname.obj
 0002:000034f0       ??_C@_09IFPLHPGF@?$GAvftable?8@ 00000001800274f0     libvcruntime:undname.obj
 0002:00003500       ??_C@_09BLBHBJP@?$GAvbtable?8@ 0000000180027500     libvcruntime:undname.obj
 0002:00003510       ??_C@_07FEEIOKP@?$GAvcall?8@ 0000000180027510     libvcruntime:undname.obj
 0002:00003518       ??_C@_08LLFFHHDJ@?$GAtypeof?8@ 0000000180027518     libvcruntime:undname.obj
 0002:00003528       ??_C@_0BF@KDPPACIK@?$GAlocal?5static?5guard?8@ 0000000180027528     libvcruntime:undname.obj
 0002:00003540       ??_C@_08OBABFOLI@?$GAstring?8@ 0000000180027540     libvcruntime:undname.obj
 0002:00003550       ??_C@_0BD@JDLKDPAB@?$GAvbase?5destructor?8@ 0000000180027550     libvcruntime:undname.obj
 0002:00003568       ??_C@_0BN@DEGPLNFK@?$GAvector?5deleting?5destructor?8@ 0000000180027568     libvcruntime:undname.obj
 0002:00003588       ??_C@_0BO@OBMKPJIG@?$GAdefault?5constructor?5closure?8@ 0000000180027588     libvcruntime:undname.obj
 0002:000035a8       ??_C@_0BN@IMDCHIKM@?$GAscalar?5deleting?5destructor?8@ 00000001800275a8     libvcruntime:undname.obj
 0002:000035c8       ??_C@_0BO@PFGOCPJJ@?$GAvector?5constructor?5iterator?8@ 00000001800275c8     libvcruntime:undname.obj
 0002:000035e8       ??_C@_0BN@LFPFMEDL@?$GAvector?5destructor?5iterator?8@ 00000001800275e8     libvcruntime:undname.obj
 0002:00003608       ??_C@_0CE@IKBNEHA@?$GAvector?5vbase?5constructor?5itera@ 0000000180027608     libvcruntime:undname.obj
 0002:00003630       ??_C@_0BL@NILFHHPC@?$GAvirtual?5displacement?5map?8@ 0000000180027630     libvcruntime:undname.obj
 0002:00003650       ??_C@_0CB@JONCMFFK@?$GAeh?5vector?5constructor?5iterator@ 0000000180027650     libvcruntime:undname.obj
 0002:00003678       ??_C@_0CA@GCEOPDGL@?$GAeh?5vector?5destructor?5iterator?8@ 0000000180027678     libvcruntime:undname.obj
 0002:00003698       ??_C@_0CH@OOJPLCPH@?$GAeh?5vector?5vbase?5constructor?5it@ 0000000180027698     libvcruntime:undname.obj
 0002:000036c0       ??_C@_0BL@LLKPOHJI@?$GAcopy?5constructor?5closure?8@ 00000001800276c0     libvcruntime:undname.obj
 0002:000036e0       ??_C@_0BA@KBCDOMBN@?$GAudt?5returning?8@ 00000001800276e0     libvcruntime:undname.obj
 0002:000036f0       ??_C@_03KLGMFNMG@?$GAEH@   00000001800276f0     libvcruntime:undname.obj
 0002:000036f4       ??_C@_05KHLCHHI@?$GARTTI@  00000001800276f4     libvcruntime:undname.obj
 0002:00003700       ??_C@_0BA@KKLDJDLB@?$GAlocal?5vftable?8@ 0000000180027700     libvcruntime:undname.obj
 0002:00003710       ??_C@_0CE@IIHCMGGL@?$GAlocal?5vftable?5constructor?5clos@ 0000000180027710     libvcruntime:undname.obj
 0002:00003734       ??_C@_06FHBGPFGH@?5new?$FL?$FN@ 0000000180027734     libvcruntime:undname.obj
 0002:00003740       ??_C@_09LBNFPBCA@?5delete?$FL?$FN@ 0000000180027740     libvcruntime:undname.obj
 0002:00003750       ??_C@_0P@HJKNJFNN@?$GAomni?5callsig?8@ 0000000180027750     libvcruntime:undname.obj
 0002:00003760       ??_C@_0BL@CNOONJFP@?$GAplacement?5delete?5closure?8@ 0000000180027760     libvcruntime:undname.obj
 0002:00003780       ??_C@_0BN@CKNJLHMB@?$GAplacement?5delete?$FL?$FN?5closure?8@ 0000000180027780     libvcruntime:undname.obj
 0002:000037a0       ??_C@_0CG@CFDHKGGD@?$GAmanaged?5vector?5constructor?5ite@ 00000001800277a0     libvcruntime:undname.obj
 0002:000037c8       ??_C@_0CF@IMGKMJNO@?$GAmanaged?5vector?5destructor?5iter@ 00000001800277c8     libvcruntime:undname.obj
 0002:000037f0       ??_C@_0CG@HLDDJMAG@?$GAeh?5vector?5copy?5constructor?5ite@ 00000001800277f0     libvcruntime:undname.obj
 0002:00003818       ??_C@_0CM@FCBBDIGB@?$GAeh?5vector?5vbase?5copy?5construct@ 0000000180027818     libvcruntime:undname.obj
 0002:00003848       ??_C@_0BL@CLIPGLGB@?$GAdynamic?5initializer?5for?5?8@ 0000000180027848     libvcruntime:undname.obj
 0002:00003868       ??_C@_0CB@PDBIFEP@?$GAdynamic?5atexit?5destructor?5for?5@ 0000000180027868     libvcruntime:undname.obj
 0002:00003890       ??_C@_0CD@CGAJBKEJ@?$GAvector?5copy?5constructor?5iterat@ 0000000180027890     libvcruntime:undname.obj
 0002:000038b8       ??_C@_0CJ@GJELGAMM@?$GAvector?5vbase?5copy?5constructor?5@ 00000001800278b8     libvcruntime:undname.obj
 0002:000038e8       ??_C@_0CL@FGIJHLCE@?$GAmanaged?5vector?5copy?5constructo@ 00000001800278e8     libvcruntime:undname.obj
 0002:00003918       ??_C@_0BM@PMGGMLDN@?$GAlocal?5static?5thread?5guard?8@ 0000000180027918     libvcruntime:undname.obj
 0002:00003938       ??_C@_0N@BDNMDMOL@operator?5?$CC?$CC?5@ 0000000180027938     libvcruntime:undname.obj
 0002:00003948       ??_C@_0BC@GGEBGALA@operator?5co_await@ 0000000180027948     libvcruntime:undname.obj
 0002:00003960       ??_C@_0M@GAAIMMOH@operator?$DM?$DN?$DO@ 0000000180027960     libvcruntime:undname.obj
 0002:00003970       ??_C@_0BC@DAFEJGAK@?5Type?5Descriptor?8@ 0000000180027970     libvcruntime:undname.obj
 0002:00003988       ??_C@_0BM@LDKODKLH@?5Base?5Class?5Descriptor?5at?5?$CI@ 0000000180027988     libvcruntime:undname.obj
 0002:000039a8       ??_C@_0BD@LGICGFMM@?5Base?5Class?5Array?8@ 00000001800279a8     libvcruntime:undname.obj
 0002:000039c0       ??_C@_0BN@MECKDCOJ@?5Class?5Hierarchy?5Descriptor?8@ 00000001800279c0     libvcruntime:undname.obj
 0002:000039e0       ??_C@_0BK@CFCOFLF@?5Complete?5Object?5Locator?8@ 00000001800279e0     libvcruntime:undname.obj
 0002:00003a00       ??_C@_0BG@JNJLAMPM@?$GAanonymous?5namespace?8@ 0000000180027a00     libvcruntime:undname.obj
 0002:00003a30       ??_C@_1DM@KHCHBNEB@?$AAa?$AAp?$AAi?$AA?9?$AAm?$AAs?$AA?9?$AAw?$AAi?$AAn?$AA?9?$AAc?$AAo?$AAr?$AAe@ 0000000180027a30     libvcruntime:winapi_downlevel.obj
 0002:00003a70       ??_C@_1DK@LPPGFMPP@?$AAa?$AAp?$AAi?$AA?9?$AAm?$AAs?$AA?9?$AAw?$AAi?$AAn?$AA?9?$AAc?$AAo?$AAr?$AAe@ 0000000180027a70     libvcruntime:winapi_downlevel.obj
 0002:00003ab0       ??_C@_1BC@GDMECMAK@?$AAk?$AAe?$AAr?$AAn?$AAe?$AAl?$AA3?$AA2@ 0000000180027ab0     libvcruntime:winapi_downlevel.obj
 0002:00003ac8       ??_C@_1BA@PFFKHIOG@?$AAa?$AAp?$AAi?$AA?9?$AAm?$AAs?$AA?9@ 0000000180027ac8     libvcruntime:winapi_downlevel.obj
 0002:00003ae0       ??_C@_08KNHFBNJ@FlsAlloc@  0000000180027ae0     libvcruntime:winapi_downlevel.obj
 0002:00003af8       ??_C@_07PEJMOBNF@FlsFree@  0000000180027af8     libvcruntime:winapi_downlevel.obj
 0002:00003b08       ??_C@_0M@GDNOONDI@FlsGetValue@ 0000000180027b08     libvcruntime:winapi_downlevel.obj
 0002:00003b20       ??_C@_0M@JCPCPOEF@FlsSetValue@ 0000000180027b20     libvcruntime:winapi_downlevel.obj
 0002:00003b38       ??_C@_0BM@HCFOFFN@InitializeCriticalSectionEx@ 0000000180027b38     libvcruntime:winapi_downlevel.obj
 0002:00003cd0       ?format_validation_lookup_table_spectre@__crt_stdio_output@@3V?$spectre_mitigated_lookup_table@Ustate_transition_pair@__crt_stdio_output@@$0IA@@1@B 0000000180027cd0     libucrt:output.obj
 0002:000040d0       ??_C@_1O@CEDCILHN@?$AA?$CI?$AAn?$AAu?$AAl?$AAl?$AA?$CJ@ 00000001800280d0     libucrt:output.obj
 0002:000040e0       ??_C@_06OJHGLDPL@?$CInull?$CJ@ 00000001800280e0     libucrt:output.obj
 0002:000040f0       __acrt_exception_action_table 00000001800280f0     libucrt:exception_filter.obj
 0002:000041b0       __acrt_signal_action_table_count 00000001800281b0     libucrt:exception_filter.obj
 0002:000041b8       __acrt_signal_action_first_fpe_index 00000001800281b8     libucrt:exception_filter.obj
 0002:000041c0       __acrt_signal_action_fpe_count 00000001800281c0     libucrt:exception_filter.obj
 0002:000041c8       ??_C@_1BI@BGOHAHKC@?$AAm?$AAs?$AAc?$AAo?$AAr?$AAe?$AAe?$AA?4?$AAd?$AAl?$AAl@ 00000001800281c8     libucrt:exit.obj
 0002:000041e0       ??_C@_0P@MIGLKIOC@CorExitProcess@ 00000001800281e0     libucrt:exit.obj
 0002:00004390       ??_C@_1EA@JGEFHKEI@?$AAa?$AAp?$AAi?$AA?9?$AAm?$AAs?$AA?9?$AAw?$AAi?$AAn?$AA?9?$AAc?$AAo?$AAr?$AAe@ 0000000180028390     libucrt:winapi_thunks.obj
 0002:000043d0       ??_C@_1DI@IJCEHOCB@?$AAa?$AAp?$AAi?$AA?9?$AAm?$AAs?$AA?9?$AAw?$AAi?$AAn?$AA?9?$AAc?$AAo?$AAr?$AAe@ 00000001800283d0     libucrt:winapi_thunks.obj
 0002:00004410       ??_C@_1EI@MPIAOHOC@?$AAa?$AAp?$AAi?$AA?9?$AAm?$AAs?$AA?9?$AAw?$AAi?$AAn?$AA?9?$AAc?$AAo?$AAr?$AAe@ 0000000180028410     libucrt:winapi_thunks.obj
 0002:00004460       ??_C@_1FK@FPHCKFIE@?$AAa?$AAp?$AAi?$AA?9?$AAm?$AAs?$AA?9?$AAw?$AAi?$AAn?$AA?9?$AAc?$AAo?$AAr?$AAe@ 0000000180028460     libucrt:winapi_thunks.obj
 0002:000044c0       ??_C@_1EM@DILCGIIO@?$AAa?$AAp?$AAi?$AA?9?$AAm?$AAs?$AA?9?$AAw?$AAi?$AAn?$AA?9?$AAc?$AAo?$AAr?$AAe@ 00000001800284c0     libucrt:winapi_thunks.obj
 0002:00004510       ??_C@_1DM@LNCGDDPN@?$AAa?$AAp?$AAi?$AA?9?$AAm?$AAs?$AA?9?$AAw?$AAi?$AAn?$AA?9?$AAc?$AAo?$AAr?$AAe@ 0000000180028510     libucrt:winapi_thunks.obj
 0002:00004550       ??_C@_1DO@FPAPJEMD@?$AAa?$AAp?$AAi?$AA?9?$AAm?$AAs?$AA?9?$AAw?$AAi?$AAn?$AA?9?$AAc?$AAo?$AAr?$AAe@ 0000000180028550     libucrt:winapi_thunks.obj
 0002:00004590       ??_C@_1DK@NDHNAHIO@?$AAa?$AAp?$AAi?$AA?9?$AAm?$AAs?$AA?9?$AAw?$AAi?$AAn?$AA?9?$AAc?$AAo?$AAr?$AAe@ 0000000180028590     libucrt:winapi_thunks.obj
 0002:000045d0       ??_C@_1DM@KGHDGBCM@?$AAa?$AAp?$AAi?$AA?9?$AAm?$AAs?$AA?9?$AAw?$AAi?$AAn?$AA?9?$AAc?$AAo?$AAr?$AAe@ 00000001800285d0     libucrt:winapi_thunks.obj
 0002:00004610       ??_C@_1EO@IJIOEFOH@?$AAa?$AAp?$AAi?$AA?9?$AAm?$AAs?$AA?9?$AAw?$AAi?$AAn?$AA?9?$AAr?$AAt?$AAc?$AAo@ 0000000180028610     libucrt:winapi_thunks.obj
 0002:00004660       ??_C@_1FG@HHGEKANL@?$AAa?$AAp?$AAi?$AA?9?$AAm?$AAs?$AA?9?$AAw?$AAi?$AAn?$AA?9?$AAs?$AAe?$AAc?$AAu@ 0000000180028660     libucrt:winapi_thunks.obj
 0002:000046c0       ??_C@_1EG@DBIOJECG@?$AAe?$AAx?$AAt?$AA?9?$AAm?$AAs?$AA?9?$AAw?$AAi?$AAn?$AA?9?$AAn?$AAt?$AAu?$AAs@ 00000001800286c0     libucrt:winapi_thunks.obj
 0002:00004710       ??_C@_1EO@FIHMJCLF@?$AAe?$AAx?$AAt?$AA?9?$AAm?$AAs?$AA?9?$AAw?$AAi?$AAn?$AA?9?$AAn?$AAt?$AAu?$AAs@ 0000000180028710     libucrt:winapi_thunks.obj
 0002:00004760       ??_C@_1BC@DNHGCMLG@?$AAa?$AAd?$AAv?$AAa?$AAp?$AAi?$AA3?$AA2@ 0000000180028760     libucrt:winapi_thunks.obj
 0002:00004778       ??_C@_1M@OAIMIKLP@?$AAn?$AAt?$AAd?$AAl?$AAl@ 0000000180028778     libucrt:winapi_thunks.obj
 0002:00004790       ??_C@_1EG@DPGNFKGC@?$AAa?$AAp?$AAi?$AA?9?$AAm?$AAs?$AA?9?$AAw?$AAi?$AAn?$AA?9?$AAa?$AAp?$AAp?$AAm@ 0000000180028790     libucrt:winapi_thunks.obj
 0002:000047d8       ??_C@_1O@BCCLBEOE@?$AAu?$AAs?$AAe?$AAr?$AA3?$AA2@ 00000001800287d8     libucrt:winapi_thunks.obj
 0002:000047e8       ??_C@_1BA@IAIFMGEF@?$AAe?$AAx?$AAt?$AA?9?$AAm?$AAs?$AA?9@ 00000001800287e8     libucrt:winapi_thunks.obj
 0002:00004800       ??_C@_0BA@FHFNEAED@AreFileApisANSI@ 0000000180028800     libucrt:winapi_thunks.obj
 0002:00004840       ??_C@_0O@KKBNKAPF@LCMapStringEx@ 0000000180028840     libucrt:winapi_thunks.obj
 0002:00004858       ??_C@_0BB@HBDEELFH@LocaleNameToLCID@ 0000000180028858     libucrt:winapi_thunks.obj
 0002:00004870       ??_C@_0CF@OJOFEIGO@AppPolicyGetProcessTerminationM@ 0000000180028870     libucrt:winapi_thunks.obj
 0002:000048a0       ??_C@_0BI@BKLFFAPO@SetThreadStackGuarantee@ 00000001800288a0     libucrt:winapi_thunks.obj
 0002:00004940       ??_C@_03OEIAHPBN@INF@      0000000180028940     libucrt:cvt.obj
 0002:00004944       ??_C@_03OJHLLCGB@inf@      0000000180028944     libucrt:cvt.obj
 0002:00004948       ??_C@_03LKNCIKJB@NAN@      0000000180028948     libucrt:cvt.obj
 0002:0000494c       ??_C@_03LHCJEHON@nan@      000000018002894c     libucrt:cvt.obj
 0002:00004950       ??_C@_09OFJJIMPC@NAN?$CISNAN?$CJ@ 0000000180028950     libucrt:cvt.obj
 0002:00004960       ??_C@_09IPFBKMDL@nan?$CIsnan?$CJ@ 0000000180028960     libucrt:cvt.obj
 0002:00004970       ??_C@_08IKHNHAJ@NAN?$CIIND?$CJ@ 0000000180028970     libucrt:cvt.obj
 0002:00004980       ??_C@_08OFCDMILK@nan?$CIind?$CJ@ 0000000180028980     libucrt:cvt.obj
 0002:0000498c       ??_C@_05KLBDPFGC@e?$CL000@ 000000018002898c     libucrt:cvt.obj
 0002:000049a0       __lc_time_c                00000001800289a0     libucrt:nlsdata.obj
 0002:00004c60       ??_C@_03KOEHGMDN@Sun@      0000000180028c60     libucrt:nlsdata.obj
 0002:00004c64       ??_C@_03PDAGKDH@Mon@       0000000180028c64     libucrt:nlsdata.obj
 0002:00004c68       ??_C@_03NAGEINEP@Tue@      0000000180028c68     libucrt:nlsdata.obj
 0002:00004c6c       ??_C@_03MHOMLAJA@Wed@      0000000180028c6c     libucrt:nlsdata.obj
 0002:00004c70       ??_C@_03IOFIKPDN@Thu@      0000000180028c70     libucrt:nlsdata.obj
 0002:00004c74       ??_C@_03IDIOELNC@Fri@      0000000180028c74     libucrt:nlsdata.obj
 0002:00004c78       ??_C@_03FEFJNEK@Sat@       0000000180028c78     libucrt:nlsdata.obj
 0002:00004c7c       ??_C@_06OOPIFAJ@Sunday@    0000000180028c7c     libucrt:nlsdata.obj
 0002:00004c84       ??_C@_06JLEDEDGH@Monday@   0000000180028c84     libucrt:nlsdata.obj
 0002:00004c90       ??_C@_07BAAGCFCM@Tuesday@  0000000180028c90     libucrt:nlsdata.obj
 0002:00004c98       ??_C@_09DLIGFAKA@Wednesday@ 0000000180028c98     libucrt:nlsdata.obj
 0002:00004ca8       ??_C@_08HACCIKIA@Thursday@ 0000000180028ca8     libucrt:nlsdata.obj
 0002:00004cb4       ??_C@_06JECMNKMI@Friday@   0000000180028cb4     libucrt:nlsdata.obj
 0002:00004cc0       ??_C@_08INBOOONO@Saturday@ 0000000180028cc0     libucrt:nlsdata.obj
 0002:00004ccc       ??_C@_03JIHJHPIE@Jan@      0000000180028ccc     libucrt:nlsdata.obj
 0002:00004cd0       ??_C@_03HJBDCHOM@Feb@      0000000180028cd0     libucrt:nlsdata.obj
 0002:00004cd4       ??_C@_03ODNJBKGA@Mar@      0000000180028cd4     libucrt:nlsdata.obj
 0002:00004cd8       ??_C@_03LEOLGMJP@Apr@      0000000180028cd8     libucrt:nlsdata.obj
 0002:00004cdc       ??_C@_03CNMDKL@May@        0000000180028cdc     libucrt:nlsdata.obj
 0002:00004ce0       ??_C@_03IDFGHECI@Jun@      0000000180028ce0     libucrt:nlsdata.obj
 0002:00004ce4       ??_C@_03LBGABGKK@Jul@      0000000180028ce4     libucrt:nlsdata.obj
 0002:00004ce8       ??_C@_03IFJFEIGA@Aug@      0000000180028ce8     libucrt:nlsdata.obj
 0002:00004cec       ??_C@_03GGCAPAJC@Sep@      0000000180028cec     libucrt:nlsdata.obj
 0002:00004cf0       ??_C@_03BMAOKBAD@Oct@      0000000180028cf0     libucrt:nlsdata.obj
 0002:00004cf4       ??_C@_03JPJOFNIA@Nov@      0000000180028cf4     libucrt:nlsdata.obj
 0002:00004cf8       ??_C@_03MKABNOCG@Dec@      0000000180028cf8     libucrt:nlsdata.obj
 0002:00004d00       ??_C@_07CGJPFGJA@January@  0000000180028d00     libucrt:nlsdata.obj
 0002:00004d08       ??_C@_08GNJGEPFN@February@ 0000000180028d08     libucrt:nlsdata.obj
 0002:00004d14       ??_C@_05HPCKOFNC@March@    0000000180028d14     libucrt:nlsdata.obj
 0002:00004d1c       ??_C@_05DMJDNLEJ@April@    0000000180028d1c     libucrt:nlsdata.obj
 0002:00004d24       ??_C@_04CNLMGBGM@June@     0000000180028d24     libucrt:nlsdata.obj
 0002:00004d2c       ??_C@_04MIEPOIFP@July@     0000000180028d2c     libucrt:nlsdata.obj
 0002:00004d34       ??_C@_06LBBHFDDG@August@   0000000180028d34     libucrt:nlsdata.obj
 0002:00004d40       ??_C@_09BHHEALKD@September@ 0000000180028d40     libucrt:nlsdata.obj
 0002:00004d50       ??_C@_07JJNFCEND@October@  0000000180028d50     libucrt:nlsdata.obj
 0002:00004d58       ??_C@_08HCHEGEOA@November@ 0000000180028d58     libucrt:nlsdata.obj
 0002:00004d68       ??_C@_08EDHMEBNP@December@ 0000000180028d68     libucrt:nlsdata.obj
 0002:00004d74       ??_C@_02DEDBPAFC@AM@       0000000180028d74     libucrt:nlsdata.obj
 0002:00004d78       ??_C@_02CJNFDJBF@PM@       0000000180028d78     libucrt:nlsdata.obj
 0002:00004d80       ??_C@_08BPBNCDIB@MM?1dd?1yy@ 0000000180028d80     libucrt:nlsdata.obj
 0002:00004d90       ??_C@_0BE@CKGJFCPC@dddd?0?5MMMM?5dd?0?5yyyy@ 0000000180028d90     libucrt:nlsdata.obj
 0002:00004da8       ??_C@_08JCCMCCIL@HH?3mm?3ss@ 0000000180028da8     libucrt:nlsdata.obj
 0002:00004db8       ??_C@_17MBGCMIPB@?$AAS?$AAu?$AAn@ 0000000180028db8     libucrt:nlsdata.obj
 0002:00004dc0       ??_C@_17KBOMKBF@?$AAM?$AAo?$AAn@ 0000000180028dc0     libucrt:nlsdata.obj
 0002:00004dc8       ??_C@_17BMKGEGOJ@?$AAT?$AAu?$AAe@ 0000000180028dc8     libucrt:nlsdata.obj
 0002:00004dd0       ??_C@_17CJEDCEPE@?$AAW?$AAe?$AAd@ 0000000180028dd0     libucrt:nlsdata.obj
 0002:00004dd8       ??_C@_17PDPHAADD@?$AAT?$AAh?$AAu@ 0000000180028dd8     libucrt:nlsdata.obj
 0002:00004de0       ??_C@_17HFOLPPLP@?$AAF?$AAr?$AAi@ 0000000180028de0     libucrt:nlsdata.obj
 0002:00004de8       ??_C@_17GGIBDPIH@?$AAS?$AAa?$AAt@ 0000000180028de8     libucrt:nlsdata.obj
 0002:00004df0       ??_C@_1O@IHNHDHPB@?$AAS?$AAu?$AAn?$AAd?$AAa?$AAy@ 0000000180028df0     libucrt:nlsdata.obj
 0002:00004e00       ??_C@_1O@MMNBFLIA@?$AAM?$AAo?$AAn?$AAd?$AAa?$AAy@ 0000000180028e00     libucrt:nlsdata.obj
 0002:00004e10       ??_C@_1BA@ENFBFFEK@?$AAT?$AAu?$AAe?$AAs?$AAd?$AAa?$AAy@ 0000000180028e10     libucrt:nlsdata.obj
 0002:00004e20       ??_C@_1BE@EBOGMDOH@?$AAW?$AAe?$AAd?$AAn?$AAe?$AAs?$AAd?$AAa?$AAy@ 0000000180028e20     libucrt:nlsdata.obj
 0002:00004e38       ??_C@_1BC@HHMNLIHE@?$AAT?$AAh?$AAu?$AAr?$AAs?$AAd?$AAa?$AAy@ 0000000180028e38     libucrt:nlsdata.obj
 0002:00004e50       ??_C@_1O@PDICJHAG@?$AAF?$AAr?$AAi?$AAd?$AAa?$AAy@ 0000000180028e50     libucrt:nlsdata.obj
 0002:00004e60       ??_C@_1BC@ENMNNPAJ@?$AAS?$AAa?$AAt?$AAu?$AAr?$AAd?$AAa?$AAy@ 0000000180028e60     libucrt:nlsdata.obj
 0002:00004e78       ??_C@_17DKNBKCHM@?$AAJ?$AAa?$AAn@ 0000000180028e78     libucrt:nlsdata.obj
 0002:00004e80       ??_C@_17LMDJEKJN@?$AAF?$AAe?$AAb@ 0000000180028e80     libucrt:nlsdata.obj
 0002:00004e88       ??_C@_17CKNLEDEC@?$AAM?$AAa?$AAr@ 0000000180028e88     libucrt:nlsdata.obj
 0002:00004e90       ??_C@_17LFPOIHDD@?$AAA?$AAp?$AAr@ 0000000180028e90     libucrt:nlsdata.obj
 0002:00004e98       ??_C@_17PNNKMEED@?$AAM?$AAa?$AAy@ 0000000180028e98     libucrt:nlsdata.obj
 0002:00004ea0       ??_C@_17KCJGOCPB@?$AAJ?$AAu?$AAn@ 0000000180028ea0     libucrt:nlsdata.obj
 0002:00004ea8       ??_C@_17IJPCKHK@?$AAJ?$AAu?$AAl@ 0000000180028ea8     libucrt:nlsdata.obj
 0002:00004eb0       ??_C@_17ICPELBCN@?$AAA?$AAu?$AAg@ 0000000180028eb0     libucrt:nlsdata.obj
 0002:00004eb8       ??_C@_17HCHCOKMG@?$AAS?$AAe?$AAp@ 0000000180028eb8     libucrt:nlsdata.obj
 0002:00004ec0       ??_C@_17FNLKOI@?$AAO?$AAc?$AAt@ 0000000180028ec0     libucrt:nlsdata.obj
 0002:00004ec8       ??_C@_17BBDMLCIG@?$AAN?$AAo?$AAv@ 0000000180028ec8     libucrt:nlsdata.obj
 0002:00004ed0       ??_C@_17EGKACKIF@?$AAD?$AAe?$AAc@ 0000000180028ed0     libucrt:nlsdata.obj
 0002:00004ed8       ??_C@_1BA@EFMEIEBA@?$AAJ?$AAa?$AAn?$AAu?$AAa?$AAr?$AAy@ 0000000180028ed8     libucrt:nlsdata.obj
 0002:00004ee8       ??_C@_1BC@JGDDFFAM@?$AAF?$AAe?$AAb?$AAr?$AAu?$AAa?$AAr?$AAy@ 0000000180028ee8     libucrt:nlsdata.obj
 0002:00004f00       ??_C@_1M@IKEENEDF@?$AAM?$AAa?$AAr?$AAc?$AAh@ 0000000180028f00     libucrt:nlsdata.obj
 0002:00004f10       ??_C@_1M@GJNLMHFD@?$AAA?$AAp?$AAr?$AAi?$AAl@ 0000000180028f10     libucrt:nlsdata.obj
 0002:00004f20       ??_C@_19EPFLPGAP@?$AAJ?$AAu?$AAn?$AAe@ 0000000180028f20     libucrt:nlsdata.obj
 0002:00004f30       ??_C@_19BIFMLPCD@?$AAJ?$AAu?$AAl?$AAy@ 0000000180028f30     libucrt:nlsdata.obj
 0002:00004f40       ??_C@_1O@PAHLKOAC@?$AAA?$AAu?$AAg?$AAu?$AAs?$AAt@ 0000000180028f40     libucrt:nlsdata.obj
 0002:00004f50       ??_C@_1BE@DKAAMBJL@?$AAS?$AAe?$AAp?$AAt?$AAe?$AAm?$AAb?$AAe?$AAr@ 0000000180028f50     libucrt:nlsdata.obj
 0002:00004f68       ??_C@_1BA@EPANDLNG@?$AAO?$AAc?$AAt?$AAo?$AAb?$AAe?$AAr@ 0000000180028f68     libucrt:nlsdata.obj
 0002:00004f78       ??_C@_1BC@BGLIFPF@?$AAN?$AAo?$AAv?$AAe?$AAm?$AAb?$AAe?$AAr@ 0000000180028f78     libucrt:nlsdata.obj
 0002:00004f90       ??_C@_1BC@FEMKIFH@?$AAD?$AAe?$AAc?$AAe?$AAm?$AAb?$AAe?$AAr@ 0000000180028f90     libucrt:nlsdata.obj
 0002:00004fa4       ??_C@_15ODEHAHHF@?$AAA?$AAM@ 0000000180028fa4     libucrt:nlsdata.obj
 0002:00004fac       ??_C@_15CLMNNGEL@?$AAP?$AAM@ 0000000180028fac     libucrt:nlsdata.obj
 0002:00004fb8       ??_C@_1BC@IEBCMHCM@?$AAM?$AAM?$AA?1?$AAd?$AAd?$AA?1?$AAy?$AAy@ 0000000180028fb8     libucrt:nlsdata.obj
 0002:00004fd0       ??_C@_1CI@KNAKOEBC@?$AAd?$AAd?$AAd?$AAd?$AA?0?$AA?5?$AAM?$AAM?$AAM?$AAM?$AA?5?$AAd?$AAd?$AA?0?$AA?5@ 0000000180028fd0     libucrt:nlsdata.obj
 0002:00004ff8       ??_C@_1BC@GDGBMEMK@?$AAH?$AAH?$AA?3?$AAm?$AAm?$AA?3?$AAs?$AAs@ 0000000180028ff8     libucrt:nlsdata.obj
 0002:00005010       ??_C@_1M@BMHNFIME@?$AAe?$AAn?$AA?9?$AAU?$AAS@ 0000000180029010     libucrt:nlsdata.obj
 0002:00005040       ??_C@_1M@HPNHIDJI@?$AAj?$AAa?$AA?9?$AAJ?$AAP@ 0000000180029040     libucrt:mbctype.obj
 0002:00005050       ??_C@_1M@BIBDDEMK@?$AAz?$AAh?$AA?9?$AAC?$AAN@ 0000000180029050     libucrt:mbctype.obj
 0002:00005060       ??_C@_1M@JLOOOEGK@?$AAk?$AAo?$AA?9?$AAK?$AAR@ 0000000180029060     libucrt:mbctype.obj
 0002:00005070       ??_C@_1M@CLNBBOPM@?$AAz?$AAh?$AA?9?$AAT?$AAW@ 0000000180029070     libucrt:mbctype.obj
 0002:00005080       __newctype                 0000000180029080     libucrt:ctype.obj
 0002:00005380       __newclmap                 0000000180029380     libucrt:ctype.obj
 0002:00005500       __newcumap                 0000000180029500     libucrt:ctype.obj
 0002:00005680       _wctype                    0000000180029680     libucrt:ctype.obj
 0002:000066d0       ??_C@_15EMKDOKLE@?$AAa?$AAr@ 000000018002a6d0     libucrt:lcidtoname_downlevel.obj
 0002:000066d8       ??_C@_15KNPADPLH@?$AAb?$AAg@ 000000018002a6d8     libucrt:lcidtoname_downlevel.obj
 0002:000066e0       ??_C@_15EDMHLDMO@?$AAc?$AAa@ 000000018002a6e0     libucrt:lcidtoname_downlevel.obj
 0002:000066e8       ??_C@_1O@BPEAJADD@?$AAz?$AAh?$AA?9?$AAC?$AAH?$AAS@ 000000018002a6e8     libucrt:lcidtoname_downlevel.obj
 0002:000066f8       ??_C@_15LJNHCMNK@?$AAc?$AAs@ 000000018002a6f8     libucrt:lcidtoname_downlevel.obj
 0002:00006700       ??_C@_15FOMCIDHG@?$AAd?$AAa@ 000000018002a700     libucrt:lcidtoname_downlevel.obj
 0002:00006708       ??_C@_15NBKABECB@?$AAd?$AAe@ 000000018002a708     libucrt:lcidtoname_downlevel.obj
 0002:00006710       ??_C@_15GHPEIIAO@?$AAe?$AAl@ 000000018002a710     libucrt:lcidtoname_downlevel.obj
 0002:00006718       ??_C@_15MNPNEAIF@?$AAe?$AAn@ 000000018002a718     libucrt:lcidtoname_downlevel.obj
 0002:00006720       ??_C@_15GPIOMPMH@?$AAe?$AAs@ 000000018002a720     libucrt:lcidtoname_downlevel.obj
 0002:00006728       ??_C@_15NGLOAKJC@?$AAf?$AAi@ 000000018002a728     libucrt:lcidtoname_downlevel.obj
 0002:00006730       ??_C@_15FBKGNKAM@?$AAf?$AAr@ 000000018002a730     libucrt:lcidtoname_downlevel.obj
 0002:00006738       ??_C@_15KGGCNEFK@?$AAh?$AAe@ 000000018002a738     libucrt:lcidtoname_downlevel.obj
 0002:00006740       ??_C@_15PGHLIDMF@?$AAh?$AAu@ 000000018002a740     libucrt:lcidtoname_downlevel.obj
 0002:00006748       ??_C@_15BIEMAPLM@?$AAi?$AAs@ 000000018002a748     libucrt:lcidtoname_downlevel.obj
 0002:00006750       ??_C@_15IFJLDHAF@?$AAi?$AAt@ 000000018002a750     libucrt:lcidtoname_downlevel.obj
 0002:00006758       ??_C@_15GEMIOCAG@?$AAj?$AAa@ 000000018002a758     libucrt:lcidtoname_downlevel.obj
 0002:00006760       ??_C@_15EPELEGJA@?$AAk?$AAo@ 000000018002a760     libucrt:lcidtoname_downlevel.obj
 0002:00006768       ??_C@_15NDDHIMN@?$AAn?$AAl@ 000000018002a768     libucrt:lcidtoname_downlevel.obj
 0002:00006770       ??_C@_15BPIGNHCD@?$AAn?$AAo@ 000000018002a770     libucrt:lcidtoname_downlevel.obj
 0002:00006778       ??_C@_15DEOPBLCG@?$AAp?$AAl@ 000000018002a778     libucrt:lcidtoname_downlevel.obj
 0002:00006780       ??_C@_15KBECGEFG@?$AAp?$AAt@ 000000018002a780     libucrt:lcidtoname_downlevel.obj
 0002:00006788       ??_C@_15GLJCBFMD@?$AAr?$AAo@ 000000018002a788     libucrt:lcidtoname_downlevel.obj
 0002:00006790       ??_C@_15FEDGKCDI@?$AAr?$AAu@ 000000018002a790     libucrt:lcidtoname_downlevel.obj
 0002:00006798       ??_C@_15GLKMLLHM@?$AAh?$AAr@ 000000018002a798     libucrt:lcidtoname_downlevel.obj
 0002:000067a0       ??_C@_15CPKMFBDB@?$AAs?$AAk@ 000000018002a7a0     libucrt:lcidtoname_downlevel.obj
 0002:000067a8       ??_C@_15BAAIOGMK@?$AAs?$AAq@ 000000018002a7a8     libucrt:lcidtoname_downlevel.obj
 0002:000067b0       ??_C@_15INNPNOHD@?$AAs?$AAv@ 000000018002a7b0     libucrt:lcidtoname_downlevel.obj
 0002:000067b8       ??_C@_15CABMMOGH@?$AAt?$AAh@ 000000018002a7b8     libucrt:lcidtoname_downlevel.obj
 0002:000067c0       ??_C@_15BPLIHJJM@?$AAt?$AAr@ 000000018002a7c0     libucrt:lcidtoname_downlevel.obj
 0002:000067c8       ??_C@_15NEOEKKDJ@?$AAu?$AAr@ 000000018002a7c8     libucrt:lcidtoname_downlevel.obj
 0002:000067d0       ??_C@_15NFICGAJK@?$AAi?$AAd@ 000000018002a7d0     libucrt:lcidtoname_downlevel.obj
 0002:000067d8       ??_C@_15PJPFLCCM@?$AAu?$AAk@ 000000018002a7d8     libucrt:lcidtoname_downlevel.obj
 0002:000067e0       ??_C@_15HPJPHDM@?$AAb?$AAe@ 000000018002a7e0     libucrt:lcidtoname_downlevel.obj
 0002:000067e8       ??_C@_15LCHLGJII@?$AAs?$AAl@ 000000018002a7e8     libucrt:lcidtoname_downlevel.obj
 0002:000067f0       ??_C@_15PCFJPHHO@?$AAe?$AAt@ 000000018002a7f0     libucrt:lcidtoname_downlevel.obj
 0002:000067f8       ??_C@_15HPFPGODN@?$AAl?$AAv@ 000000018002a7f8     libucrt:lcidtoname_downlevel.obj
 0002:00006800       ??_C@_15NFFGKGLG@?$AAl?$AAt@ 000000018002a800     libucrt:lcidtoname_downlevel.obj
 0002:00006808       ??_C@_15BDAKCCHN@?$AAf?$AAa@ 000000018002a808     libucrt:lcidtoname_downlevel.obj
 0002:00006810       ??_C@_15NFGIAIAJ@?$AAv?$AAi@ 000000018002a810     libucrt:lcidtoname_downlevel.obj
 0002:00006818       ??_C@_15LMKNDMHN@?$AAh?$AAy@ 000000018002a818     libucrt:lcidtoname_downlevel.obj
 0002:00006820       ??_C@_15IJBHMCFL@?$AAa?$AAz@ 000000018002a820     libucrt:lcidtoname_downlevel.obj
 0002:00006828       ??_C@_15EKOFJABL@?$AAe?$AAu@ 000000018002a828     libucrt:lcidtoname_downlevel.obj
 0002:00006830       ??_C@_15BGHADCNK@?$AAm?$AAk@ 000000018002a830     libucrt:lcidtoname_downlevel.obj
 0002:00006838       ??_C@_15JDNICKHM@?$AAa?$AAf@ 000000018002a838     libucrt:lcidtoname_downlevel.obj
 0002:00006840       ??_C@_15KPJEDBKD@?$AAk?$AAa@ 000000018002a840     libucrt:lcidtoname_downlevel.obj
 0002:00006848       ??_C@_15PDNFFFEO@?$AAf?$AAo@ 000000018002a848     libucrt:lcidtoname_downlevel.obj
 0002:00006850       ??_C@_15OMLEGLOC@?$AAh?$AAi@ 000000018002a850     libucrt:lcidtoname_downlevel.obj
 0002:00006858       ??_C@_15IDNNENKK@?$AAm?$AAs@ 000000018002a858     libucrt:lcidtoname_downlevel.obj
 0002:00006860       ??_C@_15MACJNBMH@?$AAk?$AAk@ 000000018002a860     libucrt:lcidtoname_downlevel.obj
 0002:00006868       ??_C@_15DKDJEOND@?$AAk?$AAy@ 000000018002a868     libucrt:lcidtoname_downlevel.obj
 0002:00006870       ??_C@_15DFGDLJBG@?$AAs?$AAw@ 000000018002a870     libucrt:lcidtoname_downlevel.obj
 0002:00006878       ??_C@_15BBFAICNG@?$AAu?$AAz@ 000000018002a878     libucrt:lcidtoname_downlevel.obj
 0002:00006880       ??_C@_15DKNDCGEA@?$AAt?$AAt@ 000000018002a880     libucrt:lcidtoname_downlevel.obj
 0002:00006888       ??_C@_15MGIFMDPL@?$AAp?$AAa@ 000000018002a888     libucrt:lcidtoname_downlevel.obj
 0002:00006890       ??_C@_15HCNDBBA@?$AAg?$AAu@ 000000018002a890     libucrt:lcidtoname_downlevel.obj
 0002:00006898       ??_C@_15FNBEIBON@?$AAt?$AAa@ 000000018002a898     libucrt:lcidtoname_downlevel.obj
 0002:000068a0       ??_C@_15NCHGBGLK@?$AAt?$AAe@ 000000018002a8a0     libucrt:lcidtoname_downlevel.obj
 0002:000068a8       ??_C@_15PHPHCBPF@?$AAk?$AAn@ 000000018002a8a8     libucrt:lcidtoname_downlevel.obj
 0002:000068b0       ??_C@_15DLGBCKMP@?$AAm?$AAr@ 000000018002a8b0     libucrt:lcidtoname_downlevel.obj
 0002:000068b8       ??_C@_15EABBLBFF@?$AAs?$AAa@ 000000018002a8b8     libucrt:lcidtoname_downlevel.obj
 0002:000068c0       ??_C@_15CBKOMCOI@?$AAm?$AAn@ 000000018002a8c0     libucrt:lcidtoname_downlevel.obj
 0002:000068c8       ??_C@_15CKDMCJAF@?$AAg?$AAl@ 000000018002a8c8     libucrt:lcidtoname_downlevel.obj
 0002:000068d0       ??_C@_17CNJFBPG@?$AAk?$AAo?$AAk@ 000000018002a8d0     libucrt:lcidtoname_downlevel.obj
 0002:000068d8       ??_C@_17FFBJICPL@?$AAs?$AAy?$AAr@ 000000018002a8d8     libucrt:lcidtoname_downlevel.obj
 0002:000068e0       ??_C@_17KPNDCPAF@?$AAd?$AAi?$AAv@ 000000018002a8e0     libucrt:lcidtoname_downlevel.obj
 0002:000068e8       ??_C@_1M@OKAHONE@?$AAa?$AAr?$AA?9?$AAS?$AAA@ 000000018002a8e8     libucrt:lcidtoname_downlevel.obj
 0002:000068f8       ??_C@_1M@FFFIGIGK@?$AAb?$AAg?$AA?9?$AAB?$AAG@ 000000018002a8f8     libucrt:lcidtoname_downlevel.obj
 0002:00006908       ??_C@_1M@BJNKEDC@?$AAc?$AAa?$AA?9?$AAE?$AAS@ 000000018002a908     libucrt:lcidtoname_downlevel.obj
 0002:00006918       ??_C@_1M@IJJHFJHA@?$AAc?$AAs?$AA?9?$AAC?$AAZ@ 000000018002a918     libucrt:lcidtoname_downlevel.obj
 0002:00006928       ??_C@_1M@CLPEOBGI@?$AAd?$AAa?$AA?9?$AAD?$AAK@ 000000018002a928     libucrt:lcidtoname_downlevel.obj
 0002:00006938       ??_C@_1M@MCMADGCB@?$AAd?$AAe?$AA?9?$AAD?$AAE@ 000000018002a938     libucrt:lcidtoname_downlevel.obj
 0002:00006948       ??_C@_1M@OOCKEMAM@?$AAe?$AAl?$AA?9?$AAG?$AAR@ 000000018002a948     libucrt:lcidtoname_downlevel.obj
 0002:00006958       ??_C@_1M@DDNJFGID@?$AAf?$AAi?$AA?9?$AAF?$AAI@ 000000018002a958     libucrt:lcidtoname_downlevel.obj
 0002:00006968       ??_C@_1M@GLIPPMAC@?$AAf?$AAr?$AA?9?$AAF?$AAR@ 000000018002a968     libucrt:lcidtoname_downlevel.obj
 0002:00006978       ??_C@_1M@GFMCHPE@?$AAh?$AAe?$AA?9?$AAI?$AAL@ 000000018002a978     libucrt:lcidtoname_downlevel.obj
 0002:00006988       ??_C@_1M@MHLPGNKM@?$AAh?$AAu?$AA?9?$AAH?$AAU@ 000000018002a988     libucrt:lcidtoname_downlevel.obj
 0002:00006998       ??_C@_1M@LPDDNNPN@?$AAi?$AAs?$AA?9?$AAI?$AAS@ 000000018002a998     libucrt:lcidtoname_downlevel.obj
 0002:000069a8       ??_C@_1M@MADIPODN@?$AAi?$AAt?$AA?9?$AAI?$AAT@ 000000018002a9a8     libucrt:lcidtoname_downlevel.obj
 0002:000069b8       ??_C@_1M@IHBJJGG@?$AAn?$AAl?$AA?9?$AAN?$AAL@ 000000018002a9b8     libucrt:lcidtoname_downlevel.obj
 0002:000069c8       ??_C@_1M@EANAGDL@?$AAn?$AAb?$AA?9?$AAN?$AAO@ 000000018002a9c8     libucrt:lcidtoname_downlevel.obj
 0002:000069d8       ??_C@_1M@NEIEMEGP@?$AAp?$AAl?$AA?9?$AAP?$AAL@ 000000018002a9d8     libucrt:lcidtoname_downlevel.obj
 0002:000069e8       ??_C@_1M@BOCFIGEP@?$AAp?$AAt?$AA?9?$AAB?$AAR@ 000000018002a9e8     libucrt:lcidtoname_downlevel.obj
 0002:000069f8       ??_C@_1M@IMPFOPBG@?$AAr?$AAo?$AA?9?$AAR?$AAO@ 000000018002a9f8     libucrt:lcidtoname_downlevel.obj
 0002:00006a08       ??_C@_1M@IDNNEJMM@?$AAr?$AAu?$AA?9?$AAR?$AAU@ 000000018002aa08     libucrt:lcidtoname_downlevel.obj
 0002:00006a18       ??_C@_1M@LILEEOGM@?$AAh?$AAr?$AA?9?$AAH?$AAR@ 000000018002aa18     libucrt:lcidtoname_downlevel.obj
 0002:00006a28       ??_C@_1M@FKIFEHPB@?$AAs?$AAk?$AA?9?$AAS?$AAK@ 000000018002aa28     libucrt:lcidtoname_downlevel.obj
 0002:00006a38       ??_C@_1M@LJMAMNPJ@?$AAs?$AAq?$AA?9?$AAA?$AAL@ 000000018002aa38     libucrt:lcidtoname_downlevel.obj
 0002:00006a48       ??_C@_1M@GIAKDKJK@?$AAs?$AAv?$AA?9?$AAS?$AAE@ 000000018002aa48     libucrt:lcidtoname_downlevel.obj
 0002:00006a58       ??_C@_1M@MKJKIKCL@?$AAt?$AAh?$AA?9?$AAT?$AAH@ 000000018002aa58     libucrt:lcidtoname_downlevel.obj
 0002:00006a68       ??_C@_1M@MFLCCMPB@?$AAt?$AAr?$AA?9?$AAT?$AAR@ 000000018002aa68     libucrt:lcidtoname_downlevel.obj
 0002:00006a78       ??_C@_1M@OIJHDKJN@?$AAu?$AAr?$AA?9?$AAP?$AAK@ 000000018002aa78     libucrt:lcidtoname_downlevel.obj
 0002:00006a88       ??_C@_1M@LHIPCIEK@?$AAi?$AAd?$AA?9?$AAI?$AAD@ 000000018002aa88     libucrt:lcidtoname_downlevel.obj
 0002:00006a98       ??_C@_1M@MFMOBGI@?$AAu?$AAk?$AA?9?$AAU?$AAA@ 000000018002aa98     libucrt:lcidtoname_downlevel.obj
 0002:00006aa8       ??_C@_1M@OBGLJIPL@?$AAb?$AAe?$AA?9?$AAB?$AAY@ 000000018002aaa8     libucrt:lcidtoname_downlevel.obj
 0002:00006ab8       ??_C@_1M@BCFAJEAD@?$AAs?$AAl?$AA?9?$AAS?$AAI@ 000000018002aab8     libucrt:lcidtoname_downlevel.obj
 0002:00006ac8       ??_C@_1M@FKFFEDDN@?$AAe?$AAt?$AA?9?$AAE?$AAE@ 000000018002aac8     libucrt:lcidtoname_downlevel.obj
 0002:00006ad8       ??_C@_1M@KGKKAACI@?$AAl?$AAv?$AA?9?$AAL?$AAV@ 000000018002aad8     libucrt:lcidtoname_downlevel.obj
 0002:00006ae8       ??_C@_1M@IFGBIJO@?$AAl?$AAt?$AA?9?$AAL?$AAT@ 000000018002aae8     libucrt:lcidtoname_downlevel.obj
 0002:00006af8       ??_C@_1M@FGEAHEDM@?$AAf?$AAa?$AA?9?$AAI?$AAR@ 000000018002aaf8     libucrt:lcidtoname_downlevel.obj
 0002:00006b08       ??_C@_1M@KBMAIBFN@?$AAv?$AAi?$AA?9?$AAV?$AAN@ 000000018002ab08     libucrt:lcidtoname_downlevel.obj
 0002:00006b18       ??_C@_1M@GPCBKDJK@?$AAh?$AAy?$AA?9?$AAA?$AAM@ 000000018002ab18     libucrt:lcidtoname_downlevel.obj
 0002:00006b28       ??_C@_1BG@BECMDDJB@?$AAa?$AAz?$AA?9?$AAA?$AAZ?$AA?9?$AAL?$AAa?$AAt?$AAn@ 000000018002ab28     libucrt:lcidtoname_downlevel.obj
 0002:00006b40       ??_C@_1M@MAOFCAEA@?$AAe?$AAu?$AA?9?$AAE?$AAS@ 000000018002ab40     libucrt:lcidtoname_downlevel.obj
 0002:00006b50       ??_C@_1M@IGHABKPI@?$AAm?$AAk?$AA?9?$AAM?$AAK@ 000000018002ab50     libucrt:lcidtoname_downlevel.obj
 0002:00006b60       ??_C@_1M@IAIGNEJG@?$AAt?$AAn?$AA?9?$AAZ?$AAA@ 000000018002ab60     libucrt:lcidtoname_downlevel.obj
 0002:00006b70       ??_C@_1M@IIJCOJFA@?$AAx?$AAh?$AA?9?$AAZ?$AAA@ 000000018002ab70     libucrt:lcidtoname_downlevel.obj
 0002:00006b80       ??_C@_1M@LGPJHNJH@?$AAz?$AAu?$AA?9?$AAZ?$AAA@ 000000018002ab80     libucrt:lcidtoname_downlevel.obj
 0002:00006b90       ??_C@_1M@HOKAOIO@?$AAa?$AAf?$AA?9?$AAZ?$AAA@ 000000018002ab90     libucrt:lcidtoname_downlevel.obj
 0002:00006ba0       ??_C@_1M@DPCLHLIE@?$AAk?$AAa?$AA?9?$AAG?$AAE@ 000000018002aba0     libucrt:lcidtoname_downlevel.obj
 0002:00006bb0       ??_C@_1M@BLKMHJBI@?$AAf?$AAo?$AA?9?$AAF?$AAO@ 000000018002abb0     libucrt:lcidtoname_downlevel.obj
 0002:00006bc0       ??_C@_1M@LGGJAPPB@?$AAh?$AAi?$AA?9?$AAI?$AAN@ 000000018002abc0     libucrt:lcidtoname_downlevel.obj
 0002:00006bd0       ??_C@_1M@FIKPIHFE@?$AAm?$AAt?$AA?9?$AAM?$AAT@ 000000018002abd0     libucrt:lcidtoname_downlevel.obj
 0002:00006be0       ??_C@_1M@HEGGPBFA@?$AAs?$AAe?$AA?9?$AAN?$AAO@ 000000018002abe0     libucrt:lcidtoname_downlevel.obj
 0002:00006bf0       ??_C@_1M@EIBJEEPA@?$AAm?$AAs?$AA?9?$AAM?$AAY@ 000000018002abf0     libucrt:lcidtoname_downlevel.obj
 0002:00006c00       ??_C@_1M@FHLBGMPP@?$AAk?$AAk?$AA?9?$AAK?$AAZ@ 000000018002ac00     libucrt:lcidtoname_downlevel.obj
 0002:00006c10       ??_C@_1M@NGJJLCGI@?$AAk?$AAy?$AA?9?$AAK?$AAG@ 000000018002ac10     libucrt:lcidtoname_downlevel.obj
 0002:00006c20       ??_C@_1M@GIENNBFC@?$AAs?$AAw?$AA?9?$AAK?$AAE@ 000000018002ac20     libucrt:lcidtoname_downlevel.obj
 0002:00006c30       ??_C@_1BG@NDGMJIMJ@?$AAu?$AAz?$AA?9?$AAU?$AAZ?$AA?9?$AAL?$AAa?$AAt?$AAn@ 000000018002ac30     libucrt:lcidtoname_downlevel.obj
 0002:00006c48       ??_C@_1M@IDCCIHBC@?$AAt?$AAt?$AA?9?$AAR?$AAU@ 000000018002ac48     libucrt:lcidtoname_downlevel.obj
 0002:00006c58       ??_C@_1M@LOICPMOJ@?$AAb?$AAn?$AA?9?$AAI?$AAN@ 000000018002ac58     libucrt:lcidtoname_downlevel.obj
 0002:00006c68       ??_C@_1M@KPKKNEAH@?$AAp?$AAa?$AA?9?$AAI?$AAN@ 000000018002ac68     libucrt:lcidtoname_downlevel.obj
 0002:00006c78       ??_C@_1M@PJGPPBOG@?$AAg?$AAu?$AA?9?$AAI?$AAN@ 000000018002ac78     libucrt:lcidtoname_downlevel.obj
 0002:00006c88       ??_C@_1M@KMKMOPHI@?$AAt?$AAa?$AA?9?$AAI?$AAN@ 000000018002ac88     libucrt:lcidtoname_downlevel.obj
 0002:00006c98       ??_C@_1M@KFEHEPAC@?$AAt?$AAe?$AA?9?$AAI?$AAN@ 000000018002ac98     libucrt:lcidtoname_downlevel.obj
 0002:00006ca8       ??_C@_1M@CDCLMGHI@?$AAk?$AAn?$AA?9?$AAI?$AAN@ 000000018002aca8     libucrt:lcidtoname_downlevel.obj
 0002:00006cb8       ??_C@_1M@MIODLDKF@?$AAm?$AAl?$AA?9?$AAI?$AAN@ 000000018002acb8     libucrt:lcidtoname_downlevel.obj
 0002:00006cc8       ??_C@_1M@PBIEACPO@?$AAm?$AAr?$AA?9?$AAI?$AAN@ 000000018002acc8     libucrt:lcidtoname_downlevel.obj
 0002:00006cd8       ??_C@_1M@NIDEAGPH@?$AAs?$AAa?$AA?9?$AAI?$AAN@ 000000018002acd8     libucrt:lcidtoname_downlevel.obj
 0002:00006ce8       ??_C@_1M@FHIHCBIO@?$AAm?$AAn?$AA?9?$AAM?$AAN@ 000000018002ace8     libucrt:lcidtoname_downlevel.obj
 0002:00006cf8       ??_C@_1M@JAIJPENP@?$AAc?$AAy?$AA?9?$AAG?$AAB@ 000000018002acf8     libucrt:lcidtoname_downlevel.obj
 0002:00006d08       ??_C@_1M@PHGFBEPN@?$AAg?$AAl?$AA?9?$AAE?$AAS@ 000000018002ad08     libucrt:lcidtoname_downlevel.obj
 0002:00006d18       ??_C@_1O@KPIPDNCP@?$AAk?$AAo?$AAk?$AA?9?$AAI?$AAN@ 000000018002ad18     libucrt:lcidtoname_downlevel.obj
 0002:00006d28       ??_C@_1O@KNHJLDJA@?$AAs?$AAy?$AAr?$AA?9?$AAS?$AAY@ 000000018002ad28     libucrt:lcidtoname_downlevel.obj
 0002:00006d38       ??_C@_1O@MKEKBLAH@?$AAd?$AAi?$AAv?$AA?9?$AAM?$AAV@ 000000018002ad38     libucrt:lcidtoname_downlevel.obj
 0002:00006d48       ??_C@_1O@OHDCKDDF@?$AAq?$AAu?$AAz?$AA?9?$AAB?$AAO@ 000000018002ad48     libucrt:lcidtoname_downlevel.obj
 0002:00006d58       ??_C@_1M@LEPJNLFD@?$AAn?$AAs?$AA?9?$AAZ?$AAA@ 000000018002ad58     libucrt:lcidtoname_downlevel.obj
 0002:00006d68       ??_C@_1M@OMLEIIJB@?$AAm?$AAi?$AA?9?$AAN?$AAZ@ 000000018002ad68     libucrt:lcidtoname_downlevel.obj
 0002:00006d78       ??_C@_1M@PMPEAILG@?$AAa?$AAr?$AA?9?$AAI?$AAQ@ 000000018002ad78     libucrt:lcidtoname_downlevel.obj
 0002:00006d88       ??_C@_1M@CNKPNOEE@?$AAd?$AAe?$AA?9?$AAC?$AAH@ 000000018002ad88     libucrt:lcidtoname_downlevel.obj
 0002:00006d98       ??_C@_1M@LKMGMLKO@?$AAe?$AAn?$AA?9?$AAG?$AAB@ 000000018002ad98     libucrt:lcidtoname_downlevel.obj
 0002:00006da8       ??_C@_1M@PGKJFFGL@?$AAe?$AAs?$AA?9?$AAM?$AAX@ 000000018002ada8     libucrt:lcidtoname_downlevel.obj
 0002:00006db8       ??_C@_1M@DNNANBDC@?$AAf?$AAr?$AA?9?$AAB?$AAE@ 000000018002adb8     libucrt:lcidtoname_downlevel.obj
 0002:00006dc8       ??_C@_1M@HLGMDFHM@?$AAi?$AAt?$AA?9?$AAC?$AAH@ 000000018002adc8     libucrt:lcidtoname_downlevel.obj
 0002:00006dd8       ??_C@_1M@CLLBGJH@?$AAn?$AAl?$AA?9?$AAB?$AAE@ 000000018002add8     libucrt:lcidtoname_downlevel.obj
 0002:00006de8       ??_C@_1M@BODBOGLF@?$AAn?$AAn?$AA?9?$AAN?$AAO@ 000000018002ade8     libucrt:lcidtoname_downlevel.obj
 0002:00006df8       ??_C@_1M@HFFAHKAD@?$AAp?$AAt?$AA?9?$AAP?$AAT@ 000000018002adf8     libucrt:lcidtoname_downlevel.obj
 0002:00006e08       ??_C@_1BG@LNOAKHIE@?$AAs?$AAr?$AA?9?$AAS?$AAP?$AA?9?$AAL?$AAa?$AAt?$AAn@ 000000018002ae08     libucrt:lcidtoname_downlevel.obj
 0002:00006e20       ??_C@_1M@HBMHBGAK@?$AAs?$AAv?$AA?9?$AAF?$AAI@ 000000018002ae20     libucrt:lcidtoname_downlevel.obj
 0002:00006e30       ??_C@_1BG@DGCJGJBE@?$AAa?$AAz?$AA?9?$AAA?$AAZ?$AA?9?$AAC?$AAy?$AAr?$AAl@ 000000018002ae30     libucrt:lcidtoname_downlevel.obj
 0002:00006e48       ??_C@_1M@KEJDAAHB@?$AAs?$AAe?$AA?9?$AAS?$AAE@ 000000018002ae48     libucrt:lcidtoname_downlevel.obj
 0002:00006e58       ??_C@_1M@HEIBJJAD@?$AAm?$AAs?$AA?9?$AAB?$AAN@ 000000018002ae58     libucrt:lcidtoname_downlevel.obj
 0002:00006e68       ??_C@_1BG@PBGJMCEM@?$AAu?$AAz?$AA?9?$AAU?$AAZ?$AA?9?$AAC?$AAy?$AAr?$AAl@ 000000018002ae68     libucrt:lcidtoname_downlevel.obj
 0002:00006e80       ??_C@_1O@LAOBCMDF@?$AAq?$AAu?$AAz?$AA?9?$AAE?$AAC@ 000000018002ae80     libucrt:lcidtoname_downlevel.obj
 0002:00006e90       ??_C@_1M@POEEMAIO@?$AAa?$AAr?$AA?9?$AAE?$AAG@ 000000018002ae90     libucrt:lcidtoname_downlevel.obj
 0002:00006ea0       ??_C@_1M@EFAKDEDL@?$AAz?$AAh?$AA?9?$AAH?$AAK@ 000000018002aea0     libucrt:lcidtoname_downlevel.obj
 0002:00006eb0       ??_C@_1M@HKKIJHGI@?$AAd?$AAe?$AA?9?$AAA?$AAT@ 000000018002aeb0     libucrt:lcidtoname_downlevel.obj
 0002:00006ec0       ??_C@_1M@KBFBEHJF@?$AAe?$AAn?$AA?9?$AAA?$AAU@ 000000018002aec0     libucrt:lcidtoname_downlevel.obj
 0002:00006ed0       ??_C@_1M@MNPLFAAH@?$AAe?$AAs?$AA?9?$AAE?$AAS@ 000000018002aed0     libucrt:lcidtoname_downlevel.obj
 0002:00006ee0       ??_C@_1M@HJOOJFMA@?$AAf?$AAr?$AA?9?$AAC?$AAA@ 000000018002aee0     libucrt:lcidtoname_downlevel.obj
 0002:00006ef0       ??_C@_1BG@JPOFPNAB@?$AAs?$AAr?$AA?9?$AAS?$AAP?$AA?9?$AAC?$AAy?$AAr?$AAl@ 000000018002aef0     libucrt:lcidtoname_downlevel.obj
 0002:00006f08       ??_C@_1M@LNFOCMOB@?$AAs?$AAe?$AA?9?$AAF?$AAI@ 000000018002af08     libucrt:lcidtoname_downlevel.obj
 0002:00006f18       ??_C@_1O@MGJBOAMB@?$AAq?$AAu?$AAz?$AA?9?$AAP?$AAE@ 000000018002af18     libucrt:lcidtoname_downlevel.obj
 0002:00006f28       ??_C@_1M@GJINLBOK@?$AAa?$AAr?$AA?9?$AAL?$AAY@ 000000018002af28     libucrt:lcidtoname_downlevel.obj
 0002:00006f38       ??_C@_1M@GGMNHJNL@?$AAz?$AAh?$AA?9?$AAS?$AAG@ 000000018002af38     libucrt:lcidtoname_downlevel.obj
 0002:00006f48       ??_C@_1M@HOIKODND@?$AAd?$AAe?$AA?9?$AAL?$AAU@ 000000018002af48     libucrt:lcidtoname_downlevel.obj
 0002:00006f58       ??_C@_1M@DDOCCGFG@?$AAe?$AAn?$AA?9?$AAC?$AAA@ 000000018002af58     libucrt:lcidtoname_downlevel.obj
 0002:00006f68       ??_C@_1M@BNOEMJLF@?$AAe?$AAs?$AA?9?$AAG?$AAT@ 000000018002af68     libucrt:lcidtoname_downlevel.obj
 0002:00006f78       ??_C@_1M@EOGNKEK@?$AAf?$AAr?$AA?9?$AAC?$AAH@ 000000018002af78     libucrt:lcidtoname_downlevel.obj
 0002:00006f88       ??_C@_1M@FLIDJFHL@?$AAh?$AAr?$AA?9?$AAB?$AAA@ 000000018002af88     libucrt:lcidtoname_downlevel.obj
 0002:00006f98       ??_C@_1O@FMCELNAJ@?$AAs?$AAm?$AAj?$AA?9?$AAN?$AAO@ 000000018002af98     libucrt:lcidtoname_downlevel.obj
 0002:00006fa8       ??_C@_1M@JHGLJMGJ@?$AAa?$AAr?$AA?9?$AAD?$AAZ@ 000000018002afa8     libucrt:lcidtoname_downlevel.obj
 0002:00006fb8       ??_C@_1M@JKKFDCNP@?$AAz?$AAh?$AA?9?$AAM?$AAO@ 000000018002afb8     libucrt:lcidtoname_downlevel.obj
 0002:00006fc8       ??_C@_1M@GEEFALPE@?$AAd?$AAe?$AA?9?$AAL?$AAI@ 000000018002afc8     libucrt:lcidtoname_downlevel.obj
 0002:00006fd8       ??_C@_1M@IGEOFBG@?$AAe?$AAn?$AA?9?$AAN?$AAZ@ 000000018002afd8     libucrt:lcidtoname_downlevel.obj
 0002:00006fe8       ??_C@_1M@KDBONEHP@?$AAe?$AAs?$AA?9?$AAC?$AAR@ 000000018002afe8     libucrt:lcidtoname_downlevel.obj
 0002:00006ff8       ??_C@_1M@FHMDOHNN@?$AAf?$AAr?$AA?9?$AAL?$AAU@ 000000018002aff8     libucrt:lcidtoname_downlevel.obj
 0002:00007008       ??_C@_1BG@NFKKMAFG@?$AAb?$AAs?$AA?9?$AAB?$AAA?$AA?9?$AAL?$AAa?$AAt?$AAn@ 000000018002b008     libucrt:lcidtoname_downlevel.obj
 0002:00007020       ??_C@_1O@IMNBEMCI@?$AAs?$AAm?$AAj?$AA?9?$AAS?$AAE@ 000000018002b020     libucrt:lcidtoname_downlevel.obj
 0002:00007030       ??_C@_1M@DHHMBNDP@?$AAa?$AAr?$AA?9?$AAM?$AAA@ 000000018002b030     libucrt:lcidtoname_downlevel.obj
 0002:00007040       ??_C@_1M@BNBLJCGH@?$AAe?$AAn?$AA?9?$AAI?$AAE@ 000000018002b040     libucrt:lcidtoname_downlevel.obj
 0002:00007050       ??_C@_1M@GEPAFMDL@?$AAe?$AAs?$AA?9?$AAP?$AAA@ 000000018002b050     libucrt:lcidtoname_downlevel.obj
 0002:00007060       ??_C@_1M@OJONDMDL@?$AAf?$AAr?$AA?9?$AAM?$AAC@ 000000018002b060     libucrt:lcidtoname_downlevel.obj
 0002:00007070       ??_C@_1BG@OBCNFJB@?$AAs?$AAr?$AA?9?$AAB?$AAA?$AA?9?$AAL?$AAa?$AAt?$AAn@ 000000018002b070     libucrt:lcidtoname_downlevel.obj
 0002:00007088       ??_C@_1O@KEMEEGPO@?$AAs?$AAm?$AAa?$AA?9?$AAN?$AAO@ 000000018002b088     libucrt:lcidtoname_downlevel.obj
 0002:00007098       ??_C@_1M@ELMGFODK@?$AAa?$AAr?$AA?9?$AAT?$AAN@ 000000018002b098     libucrt:lcidtoname_downlevel.obj
 0002:000070a8       ??_C@_1M@BHDLHFAF@?$AAe?$AAn?$AA?9?$AAZ?$AAA@ 000000018002b0a8     libucrt:lcidtoname_downlevel.obj
 0002:000070b8       ??_C@_1M@BMGIGLIF@?$AAe?$AAs?$AA?9?$AAD?$AAO@ 000000018002b0b8     libucrt:lcidtoname_downlevel.obj
 0002:000070c8       ??_C@_1BG@CMBHIPBE@?$AAs?$AAr?$AA?9?$AAB?$AAA?$AA?9?$AAC?$AAy?$AAr?$AAl@ 000000018002b0c8     libucrt:lcidtoname_downlevel.obj
 0002:000070e0       ??_C@_1O@HEDBLHNP@?$AAs?$AAm?$AAa?$AA?9?$AAS?$AAE@ 000000018002b0e0     libucrt:lcidtoname_downlevel.obj
 0002:000070f0       ??_C@_1M@DAGCADIM@?$AAa?$AAr?$AA?9?$AAO?$AAM@ 000000018002b0f0     libucrt:lcidtoname_downlevel.obj
 0002:00007100       ??_C@_1M@FODLMICG@?$AAe?$AAn?$AA?9?$AAJ?$AAM@ 000000018002b100     libucrt:lcidtoname_downlevel.obj
 0002:00007110       ??_C@_1M@DNMLCIHB@?$AAe?$AAs?$AA?9?$AAV?$AAE@ 000000018002b110     libucrt:lcidtoname_downlevel.obj
 0002:00007120       ??_C@_1O@EOKHMKJK@?$AAs?$AAm?$AAs?$AA?9?$AAF?$AAI@ 000000018002b120     libucrt:lcidtoname_downlevel.obj
 0002:00007130       ??_C@_1M@CAFJMKOF@?$AAa?$AAr?$AA?9?$AAY?$AAE@ 000000018002b130     libucrt:lcidtoname_downlevel.obj
 0002:00007140       ??_C@_1M@CBFHIJLI@?$AAe?$AAn?$AA?9?$AAC?$AAB@ 000000018002b140     libucrt:lcidtoname_downlevel.obj
 0002:00007150       ??_C@_1M@BGNFLDN@?$AAe?$AAs?$AA?9?$AAC?$AAO@ 000000018002b150     libucrt:lcidtoname_downlevel.obj
 0002:00007160       ??_C@_1O@JMPHMAMC@?$AAs?$AAm?$AAn?$AA?9?$AAF?$AAI@ 000000018002b160     libucrt:lcidtoname_downlevel.obj
 0002:00007170       ??_C@_1M@JLANABKE@?$AAa?$AAr?$AA?9?$AAS?$AAY@ 000000018002b170     libucrt:lcidtoname_downlevel.obj
 0002:00007180       ??_C@_1M@HPKGCFGN@?$AAe?$AAn?$AA?9?$AAB?$AAZ@ 000000018002b180     libucrt:lcidtoname_downlevel.obj
 0002:00007190       ??_C@_1M@OLJCMLGM@?$AAe?$AAs?$AA?9?$AAP?$AAE@ 000000018002b190     libucrt:lcidtoname_downlevel.obj
 0002:000071a0       ??_C@_1M@MKKGFKLE@?$AAa?$AAr?$AA?9?$AAJ?$AAO@ 000000018002b1a0     libucrt:lcidtoname_downlevel.obj
 0002:000071b0       ??_C@_1M@EKPGLDNI@?$AAe?$AAn?$AA?9?$AAT?$AAT@ 000000018002b1b0     libucrt:lcidtoname_downlevel.obj
 0002:000071c0       ??_C@_1M@OONGHFHE@?$AAe?$AAs?$AA?9?$AAA?$AAR@ 000000018002b1c0     libucrt:lcidtoname_downlevel.obj
 0002:000071d0       ??_C@_1M@OOJFGBHE@?$AAa?$AAr?$AA?9?$AAL?$AAB@ 000000018002b1d0     libucrt:lcidtoname_downlevel.obj
 0002:000071e0       ??_C@_1M@GCEJHNEG@?$AAe?$AAn?$AA?9?$AAZ?$AAW@ 000000018002b1e0     libucrt:lcidtoname_downlevel.obj
 0002:000071f0       ??_C@_1M@JNOCAHJI@?$AAe?$AAs?$AA?9?$AAE?$AAC@ 000000018002b1f0     libucrt:lcidtoname_downlevel.obj
 0002:00007200       ??_C@_1M@JEFHPGGB@?$AAa?$AAr?$AA?9?$AAK?$AAW@ 000000018002b200     libucrt:lcidtoname_downlevel.obj
 0002:00007210       ??_C@_1M@MLKIBJOJ@?$AAe?$AAn?$AA?9?$AAP?$AAH@ 000000018002b210     libucrt:lcidtoname_downlevel.obj
 0002:00007220       ??_C@_1M@BDNIPEND@?$AAe?$AAs?$AA?9?$AAC?$AAL@ 000000018002b220     libucrt:lcidtoname_downlevel.obj
 0002:00007230       ??_C@_1M@MPNMEKBD@?$AAa?$AAr?$AA?9?$AAA?$AAE@ 000000018002b230     libucrt:lcidtoname_downlevel.obj
 0002:00007240       ??_C@_1M@KBJALCPI@?$AAe?$AAs?$AA?9?$AAU?$AAY@ 000000018002b240     libucrt:lcidtoname_downlevel.obj
 0002:00007250       ??_C@_1M@LLCCOAGA@?$AAa?$AAr?$AA?9?$AAB?$AAH@ 000000018002b250     libucrt:lcidtoname_downlevel.obj
 0002:00007260       ??_C@_1M@PBFNCDEL@?$AAe?$AAs?$AA?9?$AAP?$AAY@ 000000018002b260     libucrt:lcidtoname_downlevel.obj
 0002:00007270       ??_C@_1M@EDGINPNP@?$AAa?$AAr?$AA?9?$AAQ?$AAA@ 000000018002b270     libucrt:lcidtoname_downlevel.obj
 0002:00007280       ??_C@_1M@MKDBIIJI@?$AAe?$AAs?$AA?9?$AAB?$AAO@ 000000018002b280     libucrt:lcidtoname_downlevel.obj
 0002:00007290       ??_C@_1M@CPKKEBLD@?$AAe?$AAs?$AA?9?$AAS?$AAV@ 000000018002b290     libucrt:lcidtoname_downlevel.obj
 0002:000072a0       ??_C@_1M@NDBGMMJL@?$AAe?$AAs?$AA?9?$AAH?$AAN@ 000000018002b2a0     libucrt:lcidtoname_downlevel.obj
 0002:000072b0       ??_C@_1M@JIJIBHDP@?$AAe?$AAs?$AA?9?$AAN?$AAI@ 000000018002b2b0     libucrt:lcidtoname_downlevel.obj
 0002:000072c0       ??_C@_1M@CGFMKEEK@?$AAe?$AAs?$AA?9?$AAP?$AAR@ 000000018002b2c0     libucrt:lcidtoname_downlevel.obj
 0002:000072d0       ??_C@_1O@ICJHKIIK@?$AAz?$AAh?$AA?9?$AAC?$AAH?$AAT@ 000000018002b2d0     libucrt:lcidtoname_downlevel.obj
 0002:000072e0       ??_C@_15CLNEJCE@?$AAs?$AAr@ 000000018002b2e0     libucrt:lcidtoname_downlevel.obj
 0002:00008130       ??_C@_1M@KAHEKEIG@?$AAa?$AAf?$AA?9?$AAz?$AAa@ 000000018002c130     libucrt:lcidtoname_downlevel.obj
 0002:00008140       ??_C@_1M@GIECOABL@?$AAa?$AAr?$AA?9?$AAa?$AAe@ 000000018002c140     libucrt:lcidtoname_downlevel.obj
 0002:00008150       ??_C@_1M@BMLMEKGI@?$AAa?$AAr?$AA?9?$AAb?$AAh@ 000000018002c150     libucrt:lcidtoname_downlevel.obj
 0002:00008160       ??_C@_1M@DAPFDGGB@?$AAa?$AAr?$AA?9?$AAd?$AAz@ 000000018002c160     libucrt:lcidtoname_downlevel.obj
 0002:00008170       ??_C@_1M@FJNKGKIG@?$AAa?$AAr?$AA?9?$AAe?$AAg@ 000000018002c170     libucrt:lcidtoname_downlevel.obj
 0002:00008180       ??_C@_1M@FLGKKCLO@?$AAa?$AAr?$AA?9?$AAi?$AAq@ 000000018002c180     libucrt:lcidtoname_downlevel.obj
 0002:00008190       ??_C@_1M@GNDIPALM@?$AAa?$AAr?$AA?9?$AAj?$AAo@ 000000018002c190     libucrt:lcidtoname_downlevel.obj
 0002:000081a0       ??_C@_1M@DDMJFMGJ@?$AAa?$AAr?$AA?9?$AAk?$AAw@ 000000018002c1a0     libucrt:lcidtoname_downlevel.obj
 0002:000081b0       ??_C@_1M@EJALMLHM@?$AAa?$AAr?$AA?9?$AAl?$AAb@ 000000018002c1b0     libucrt:lcidtoname_downlevel.obj
 0002:000081c0       ??_C@_1M@MOBDBLOC@?$AAa?$AAr?$AA?9?$AAl?$AAy@ 000000018002c1c0     libucrt:lcidtoname_downlevel.obj
 0002:000081d0       ??_C@_1M@JAOCLHDH@?$AAa?$AAr?$AA?9?$AAm?$AAa@ 000000018002c1d0     libucrt:lcidtoname_downlevel.obj
 0002:000081e0       ??_C@_1M@JHPMKJIE@?$AAa?$AAr?$AA?9?$AAo?$AAm@ 000000018002c1e0     libucrt:lcidtoname_downlevel.obj
 0002:000081f0       ??_C@_1M@OEPGHFNH@?$AAa?$AAr?$AA?9?$AAq?$AAa@ 000000018002c1f0     libucrt:lcidtoname_downlevel.obj
 0002:00008200       ??_C@_1M@KJDONENM@?$AAa?$AAr?$AA?9?$AAs?$AAa@ 000000018002c200     libucrt:lcidtoname_downlevel.obj
 0002:00008210       ??_C@_1M@DMJDKLKM@?$AAa?$AAr?$AA?9?$AAs?$AAy@ 000000018002c210     libucrt:lcidtoname_downlevel.obj
 0002:00008220       ??_C@_1M@OMFIPEDC@?$AAa?$AAr?$AA?9?$AAt?$AAn@ 000000018002c220     libucrt:lcidtoname_downlevel.obj
 0002:00008230       ??_C@_1M@IHMHGAON@?$AAa?$AAr?$AA?9?$AAy?$AAe@ 000000018002c230     libucrt:lcidtoname_downlevel.obj
 0002:00008240       ??_C@_1BG@KDCPGJGB@?$AAa?$AAz?$AA?9?$AAa?$AAz?$AA?9?$AAc?$AAy?$AAr?$AAl@ 000000018002c240     libucrt:lcidtoname_downlevel.obj
 0002:00008258       ??_C@_1BG@IBCKDDOE@?$AAa?$AAz?$AA?9?$AAa?$AAz?$AA?9?$AAl?$AAa?$AAt?$AAn@ 000000018002c258     libucrt:lcidtoname_downlevel.obj
 0002:00008270       ??_C@_1M@EGPFDCPD@?$AAb?$AAe?$AA?9?$AAb?$AAy@ 000000018002c270     libucrt:lcidtoname_downlevel.obj
 0002:00008280       ??_C@_1M@PCMGMCGC@?$AAb?$AAg?$AA?9?$AAb?$AAg@ 000000018002c280     libucrt:lcidtoname_downlevel.obj
 0002:00008290       ??_C@_1M@BJBMFGOB@?$AAb?$AAn?$AA?9?$AAi?$AAn@ 000000018002c290     libucrt:lcidtoname_downlevel.obj
 0002:000082a0       ??_C@_1BG@EAKMMACD@?$AAb?$AAs?$AA?9?$AAb?$AAa?$AA?9?$AAl?$AAa?$AAt?$AAn@ 000000018002c2a0     libucrt:lcidtoname_downlevel.obj
 0002:000082b8       ??_C@_1M@KGADAODK@?$AAc?$AAa?$AA?9?$AAe?$AAs@ 000000018002c2b8     libucrt:lcidtoname_downlevel.obj
 0002:000082c8       ??_C@_1M@COAJPDHI@?$AAc?$AAs?$AA?9?$AAc?$AAz@ 000000018002c2c8     libucrt:lcidtoname_downlevel.obj
 0002:000082d8       ??_C@_1M@DHBHFONH@?$AAc?$AAy?$AA?9?$AAg?$AAb@ 000000018002c2d8     libucrt:lcidtoname_downlevel.obj
 0002:000082e8       ??_C@_1M@IMGKELGA@?$AAd?$AAa?$AA?9?$AAd?$AAk@ 000000018002c2e8     libucrt:lcidtoname_downlevel.obj
 0002:000082f8       ??_C@_1M@NNDGDNGA@?$AAd?$AAe?$AA?9?$AAa?$AAt@ 000000018002c2f8     libucrt:lcidtoname_downlevel.obj
 0002:00008308       ??_C@_1M@IKDBHEEM@?$AAd?$AAe?$AA?9?$AAc?$AAh@ 000000018002c308     libucrt:lcidtoname_downlevel.obj
 0002:00008318       ??_C@_1M@GFFOJMCJ@?$AAd?$AAe?$AA?9?$AAd?$AAe@ 000000018002c318     libucrt:lcidtoname_downlevel.obj
 0002:00008328       ??_C@_1M@MDNLKBPM@?$AAd?$AAe?$AA?9?$AAl?$AAi@ 000000018002c328     libucrt:lcidtoname_downlevel.obj
 0002:00008338       ??_C@_1M@NJBEEJNL@?$AAd?$AAe?$AA?9?$AAl?$AAu@ 000000018002c338     libucrt:lcidtoname_downlevel.obj
 0002:00008348       ??_C@_1O@GNNELBAP@?$AAd?$AAi?$AAv?$AA?9?$AAm?$AAv@ 000000018002c348     libucrt:lcidtoname_downlevel.obj
 0002:00008358       ??_C@_1M@EJLEOGAE@?$AAe?$AAl?$AA?9?$AAg?$AAr@ 000000018002c358     libucrt:lcidtoname_downlevel.obj
 0002:00008368       ??_C@_1M@GMPONJN@?$AAe?$AAn?$AA?9?$AAa?$AAu@ 000000018002c368     libucrt:lcidtoname_downlevel.obj
 0002:00008378       ??_C@_1M@NIDIIPGF@?$AAe?$AAn?$AA?9?$AAb?$AAz@ 000000018002c378     libucrt:lcidtoname_downlevel.obj
 0002:00008388       ??_C@_1M@JEHMIMFO@?$AAe?$AAn?$AA?9?$AAc?$AAa@ 000000018002c388     libucrt:lcidtoname_downlevel.obj
 0002:00008398       ??_C@_1M@IGMJCDLA@?$AAe?$AAn?$AA?9?$AAc?$AAb@ 000000018002c398     libucrt:lcidtoname_downlevel.obj
 0002:000083a8       ??_C@_1M@BNFIGBKG@?$AAe?$AAn?$AA?9?$AAg?$AAb@ 000000018002c3a8     libucrt:lcidtoname_downlevel.obj
 0002:000083b8       ??_C@_1M@LKIFDIGP@?$AAe?$AAn?$AA?9?$AAi?$AAe@ 000000018002c3b8     libucrt:lcidtoname_downlevel.obj
 0002:000083c8       ??_C@_1M@PJKFGCCO@?$AAe?$AAn?$AA?9?$AAj?$AAm@ 000000018002c3c8     libucrt:lcidtoname_downlevel.obj
 0002:000083d8       ??_C@_1M@KPPKEPBO@?$AAe?$AAn?$AA?9?$AAn?$AAz@ 000000018002c3d8     libucrt:lcidtoname_downlevel.obj
 0002:000083e8       ??_C@_1M@GMDGLDOB@?$AAe?$AAn?$AA?9?$AAp?$AAh@ 000000018002c3e8     libucrt:lcidtoname_downlevel.obj
 0002:000083f8       ??_C@_1M@ONGIBJNA@?$AAe?$AAn?$AA?9?$AAt?$AAt@ 000000018002c3f8     libucrt:lcidtoname_downlevel.obj
 0002:00008408       ??_C@_1M@LLODPCMM@?$AAe?$AAn?$AA?9?$AAu?$AAs@ 000000018002c408     libucrt:lcidtoname_downlevel.obj
 0002:00008418       ??_C@_1M@LAKFNPAN@?$AAe?$AAn?$AA?9?$AAz?$AAa@ 000000018002c418     libucrt:lcidtoname_downlevel.obj
 0002:00008428       ??_C@_1M@MFNHNHEO@?$AAe?$AAn?$AA?9?$AAz?$AAw@ 000000018002c428     libucrt:lcidtoname_downlevel.obj
 0002:00008438       ??_C@_1M@EJEINPHM@?$AAe?$AAs?$AA?9?$AAa?$AAr@ 000000018002c438     libucrt:lcidtoname_downlevel.obj
 0002:00008448       ??_C@_1M@GNKPCCJA@?$AAe?$AAs?$AA?9?$AAb?$AAo@ 000000018002c448     libucrt:lcidtoname_downlevel.obj
 0002:00008458       ??_C@_1M@LEEGFONL@?$AAe?$AAs?$AA?9?$AAc?$AAl@ 000000018002c458     libucrt:lcidtoname_downlevel.obj
 0002:00008468       ??_C@_1M@KGPDPBDF@?$AAe?$AAs?$AA?9?$AAc?$AAo@ 000000018002c468     libucrt:lcidtoname_downlevel.obj
 0002:00008478       ??_C@_1M@EIAHOHH@?$AAe?$AAs?$AA?9?$AAc?$AAr@ 000000018002c478     libucrt:lcidtoname_downlevel.obj
 0002:00008488       ??_C@_1M@LLPGMBIN@?$AAe?$AAs?$AA?9?$AAd?$AAo@ 000000018002c488     libucrt:lcidtoname_downlevel.obj
 0002:00008498       ??_C@_1M@DKHMKNJA@?$AAe?$AAs?$AA?9?$AAe?$AAc@ 000000018002c498     libucrt:lcidtoname_downlevel.obj
 0002:000084a8       ??_C@_1M@GKGFPKAP@?$AAe?$AAs?$AA?9?$AAe?$AAs@ 000000018002c4a8     libucrt:lcidtoname_downlevel.obj
 0002:000084b8       ??_C@_1M@LKHKGDLN@?$AAe?$AAs?$AA?9?$AAg?$AAt@ 000000018002c4b8     libucrt:lcidtoname_downlevel.obj
 0002:000084c8       ??_C@_1M@HEIIGGJD@?$AAe?$AAs?$AA?9?$AAh?$AAn@ 000000018002c4c8     libucrt:lcidtoname_downlevel.obj
 0002:000084d8       ??_C@_1M@FBDHPPGD@?$AAe?$AAs?$AA?9?$AAm?$AAx@ 000000018002c4d8     libucrt:lcidtoname_downlevel.obj
 0002:000084e8       ??_C@_1M@DPAGLNDH@?$AAe?$AAs?$AA?9?$AAn?$AAi@ 000000018002c4e8     libucrt:lcidtoname_downlevel.obj
 0002:000084f8       ??_C@_1M@MDGOPGDD@?$AAe?$AAs?$AA?9?$AAp?$AAa@ 000000018002c4f8     libucrt:lcidtoname_downlevel.obj
 0002:00008508       ??_C@_1M@EMAMGBGE@?$AAe?$AAs?$AA?9?$AAp?$AAe@ 000000018002c508     libucrt:lcidtoname_downlevel.obj
 0002:00008518       ??_C@_1M@IBMCAOEC@?$AAe?$AAs?$AA?9?$AAp?$AAr@ 000000018002c518     libucrt:lcidtoname_downlevel.obj
 0002:00008528       ??_C@_1M@FGMDIJED@?$AAe?$AAs?$AA?9?$AAp?$AAy@ 000000018002c528     libucrt:lcidtoname_downlevel.obj
 0002:00008538       ??_C@_1M@IIDEOLLL@?$AAe?$AAs?$AA?9?$AAs?$AAv@ 000000018002c538     libucrt:lcidtoname_downlevel.obj
 0002:00008548       ??_C@_1M@GAOBIPA@?$AAe?$AAs?$AA?9?$AAu?$AAy@ 000000018002c548     libucrt:lcidtoname_downlevel.obj
 0002:00008558       ??_C@_1M@JKFFICHJ@?$AAe?$AAs?$AA?9?$AAv?$AAe@ 000000018002c558     libucrt:lcidtoname_downlevel.obj
 0002:00008568       ??_C@_1M@PNMLOJDF@?$AAe?$AAt?$AA?9?$AAe?$AAe@ 000000018002c568     libucrt:lcidtoname_downlevel.obj
 0002:00008578       ??_C@_1M@GHHLIKEI@?$AAe?$AAu?$AA?9?$AAe?$AAs@ 000000018002c578     libucrt:lcidtoname_downlevel.obj
 0002:00008588       ??_C@_1M@PBNONODE@?$AAf?$AAa?$AA?9?$AAi?$AAr@ 000000018002c588     libucrt:lcidtoname_downlevel.obj
 0002:00008598       ??_C@_1M@JEEHPMIL@?$AAf?$AAi?$AA?9?$AAf?$AAi@ 000000018002c598     libucrt:lcidtoname_downlevel.obj
 0002:000085a8       ??_C@_1M@LMDCNDBA@?$AAf?$AAo?$AA?9?$AAf?$AAo@ 000000018002c5a8     libucrt:lcidtoname_downlevel.obj
 0002:000085b8       ??_C@_1M@JKEOHLDK@?$AAf?$AAr?$AA?9?$AAb?$AAe@ 000000018002c5b8     libucrt:lcidtoname_downlevel.obj
 0002:000085c8       ??_C@_1M@NOHADPMI@?$AAf?$AAr?$AA?9?$AAc?$AAa@ 000000018002c5c8     libucrt:lcidtoname_downlevel.obj
 0002:000085d8       ??_C@_1M@KDHIHAEC@?$AAf?$AAr?$AA?9?$AAc?$AAh@ 000000018002c5d8     libucrt:lcidtoname_downlevel.obj
 0002:000085e8       ??_C@_1M@MMBBFGAK@?$AAf?$AAr?$AA?9?$AAf?$AAr@ 000000018002c5e8     libucrt:lcidtoname_downlevel.obj
 0002:000085f8       ??_C@_1M@PAFNENNF@?$AAf?$AAr?$AA?9?$AAl?$AAu@ 000000018002c5f8     libucrt:lcidtoname_downlevel.obj
 0002:00008608       ??_C@_1M@EOHDJGDD@?$AAf?$AAr?$AA?9?$AAm?$AAc@ 000000018002c608     libucrt:lcidtoname_downlevel.obj
 0002:00008618       ??_C@_1M@FAPLLOPF@?$AAg?$AAl?$AA?9?$AAe?$AAs@ 000000018002c618     libucrt:lcidtoname_downlevel.obj
 0002:00008628       ??_C@_1M@FOPBFLOO@?$AAg?$AAu?$AA?9?$AAi?$AAn@ 000000018002c628     libucrt:lcidtoname_downlevel.obj
 0002:00008638       ??_C@_1M@KBMCINPM@?$AAh?$AAe?$AA?9?$AAi?$AAl@ 000000018002c638     libucrt:lcidtoname_downlevel.obj
 0002:00008648       ??_C@_1M@BBPHKFPJ@?$AAh?$AAi?$AA?9?$AAi?$AAn@ 000000018002c648     libucrt:lcidtoname_downlevel.obj
 0002:00008658       ??_C@_1M@PMBNDPHD@?$AAh?$AAr?$AA?9?$AAb?$AAa@ 000000018002c658     libucrt:lcidtoname_downlevel.obj
 0002:00008668       ??_C@_1M@BPCKOEGE@?$AAh?$AAr?$AA?9?$AAh?$AAr@ 000000018002c668     libucrt:lcidtoname_downlevel.obj
 0002:00008678       ??_C@_1M@GACBMHKE@?$AAh?$AAu?$AA?9?$AAh?$AAu@ 000000018002c678     libucrt:lcidtoname_downlevel.obj
 0002:00008688       ??_C@_1M@MILPAJJC@?$AAh?$AAy?$AA?9?$AAa?$AAm@ 000000018002c688     libucrt:lcidtoname_downlevel.obj
 0002:00008698       ??_C@_1M@BABBICEC@?$AAi?$AAd?$AA?9?$AAi?$AAd@ 000000018002c698     libucrt:lcidtoname_downlevel.obj
 0002:000086a8       ??_C@_1M@BIKNHHPF@?$AAi?$AAs?$AA?9?$AAi?$AAs@ 000000018002c6a8     libucrt:lcidtoname_downlevel.obj
 0002:000086b8       ??_C@_1M@NMPCJPHE@?$AAi?$AAt?$AA?9?$AAc?$AAh@ 000000018002c6b8     libucrt:lcidtoname_downlevel.obj
 0002:000086c8       ??_C@_1M@GHKGFEDF@?$AAi?$AAt?$AA?9?$AAi?$AAt@ 000000018002c6c8     libucrt:lcidtoname_downlevel.obj
 0002:000086d8       ??_C@_1M@NIEJCJJA@?$AAj?$AAa?$AA?9?$AAj?$AAp@ 000000018002c6d8     libucrt:lcidtoname_downlevel.obj
 0002:000086e8       ??_C@_1M@JILFNBIM@?$AAk?$AAa?$AA?9?$AAg?$AAe@ 000000018002c6e8     libucrt:lcidtoname_downlevel.obj
 0002:000086f8       ??_C@_1M@PACPMGPH@?$AAk?$AAk?$AA?9?$AAk?$AAz@ 000000018002c6f8     libucrt:lcidtoname_downlevel.obj
 0002:00008708       ??_C@_1M@IELFGMHA@?$AAk?$AAn?$AA?9?$AAi?$AAn@ 000000018002c708     libucrt:lcidtoname_downlevel.obj
 0002:00008718       ??_C@_1O@IBBJHCH@?$AAk?$AAo?$AAk?$AA?9?$AAi?$AAn@ 000000018002c718     libucrt:lcidtoname_downlevel.obj
 0002:00008728       ??_C@_1M@DMHAEOGC@?$AAk?$AAo?$AA?9?$AAk?$AAr@ 000000018002c728     libucrt:lcidtoname_downlevel.obj
 0002:00008738       ??_C@_1M@HBAHBIGA@?$AAk?$AAy?$AA?9?$AAk?$AAg@ 000000018002c738     libucrt:lcidtoname_downlevel.obj
 0002:00008748       ??_C@_1M@KPMILCJG@?$AAl?$AAt?$AA?9?$AAl?$AAt@ 000000018002c748     libucrt:lcidtoname_downlevel.obj
 0002:00008758       ??_C@_1M@BDEKKCA@?$AAl?$AAv?$AA?9?$AAl?$AAv@ 000000018002c758     libucrt:lcidtoname_downlevel.obj
 0002:00008768       ??_C@_1M@ELCKCCJJ@?$AAm?$AAi?$AA?9?$AAn?$AAz@ 000000018002c768     libucrt:lcidtoname_downlevel.obj
 0002:00008778       ??_C@_1M@CBOOLAPA@?$AAm?$AAk?$AA?9?$AAm?$AAk@ 000000018002c778     libucrt:lcidtoname_downlevel.obj
 0002:00008788       ??_C@_1M@GPHNBJKN@?$AAm?$AAl?$AA?9?$AAi?$AAn@ 000000018002c788     libucrt:lcidtoname_downlevel.obj
 0002:00008798       ??_C@_1M@PABJILIG@?$AAm?$AAn?$AA?9?$AAm?$AAn@ 000000018002c798     libucrt:lcidtoname_downlevel.obj
 0002:000087a8       ??_C@_1M@FGBKKIPG@?$AAm?$AAr?$AA?9?$AAi?$AAn@ 000000018002c7a8     libucrt:lcidtoname_downlevel.obj
 0002:000087b8       ??_C@_1M@NDBPDDAL@?$AAm?$AAs?$AA?9?$AAb?$AAn@ 000000018002c7b8     libucrt:lcidtoname_downlevel.obj
 0002:000087c8       ??_C@_1M@OPIHOOPI@?$AAm?$AAs?$AA?9?$AAm?$AAy@ 000000018002c7c8     libucrt:lcidtoname_downlevel.obj
 0002:000087d8       ??_C@_1M@PPDBCNFM@?$AAm?$AAt?$AA?9?$AAm?$AAt@ 000000018002c7d8     libucrt:lcidtoname_downlevel.obj
 0002:000087e8       ??_C@_1M@KDJDKMDD@?$AAn?$AAb?$AA?9?$AAn?$AAo@ 000000018002c7e8     libucrt:lcidtoname_downlevel.obj
 0002:000087f8       ??_C@_1M@KFCFLMJP@?$AAn?$AAl?$AA?9?$AAb?$AAe@ 000000018002c7f8     libucrt:lcidtoname_downlevel.obj
 0002:00008808       ??_C@_1M@KPOPDDGO@?$AAn?$AAl?$AA?9?$AAn?$AAl@ 000000018002c808     libucrt:lcidtoname_downlevel.obj
 0002:00008818       ??_C@_1M@LJKPEMLN@?$AAn?$AAn?$AA?9?$AAn?$AAo@ 000000018002c818     libucrt:lcidtoname_downlevel.obj
 0002:00008828       ??_C@_1M@BDGHHBFL@?$AAn?$AAs?$AA?9?$AAz?$AAa@ 000000018002c828     libucrt:lcidtoname_downlevel.obj
 0002:00008838       ??_C@_1M@IDEHOAP@?$AAp?$AAa?$AA?9?$AAi?$AAn@ 000000018002c838     libucrt:lcidtoname_downlevel.obj
 0002:00008848       ??_C@_1M@HDBKGOGH@?$AAp?$AAl?$AA?9?$AAp?$AAl@ 000000018002c848     libucrt:lcidtoname_downlevel.obj
 0002:00008858       ??_C@_1M@LJLLCMEH@?$AAp?$AAt?$AA?9?$AAb?$AAr@ 000000018002c858     libucrt:lcidtoname_downlevel.obj
 0002:00008868       ??_C@_1M@NCMONAAL@?$AAp?$AAt?$AA?9?$AAp?$AAt@ 000000018002c868     libucrt:lcidtoname_downlevel.obj
 0002:00008878       ??_C@_1O@EAKMAJDN@?$AAq?$AAu?$AAz?$AA?9?$AAb?$AAo@ 000000018002c878     libucrt:lcidtoname_downlevel.obj
 0002:00008888       ??_C@_1O@BHHPIGDN@?$AAq?$AAu?$AAz?$AA?9?$AAe?$AAc@ 000000018002c888     libucrt:lcidtoname_downlevel.obj
 0002:00008898       ??_C@_1O@GBAPEKMJ@?$AAq?$AAu?$AAz?$AA?9?$AAp?$AAe@ 000000018002c898     libucrt:lcidtoname_downlevel.obj
 0002:000088a8       ??_C@_1M@CLGLEFBO@?$AAr?$AAo?$AA?9?$AAr?$AAo@ 000000018002c8a8     libucrt:lcidtoname_downlevel.obj
 0002:000088b8       ??_C@_1M@CEEDODME@?$AAr?$AAu?$AA?9?$AAr?$AAu@ 000000018002c8b8     libucrt:lcidtoname_downlevel.obj
 0002:000088c8       ??_C@_1M@HPKKKMPP@?$AAs?$AAa?$AA?9?$AAi?$AAn@ 000000018002c8c8     libucrt:lcidtoname_downlevel.obj
 0002:000088d8       ??_C@_1M@BKMAIGOJ@?$AAs?$AAe?$AA?9?$AAf?$AAi@ 000000018002c8d8     libucrt:lcidtoname_downlevel.obj
 0002:000088e8       ??_C@_1M@NDPIFLFI@?$AAs?$AAe?$AA?9?$AAn?$AAo@ 000000018002c8e8     libucrt:lcidtoname_downlevel.obj
 0002:000088f8       ??_C@_1M@DANKKHJ@?$AAs?$AAe?$AA?9?$AAs?$AAe@ 000000018002c8f8     libucrt:lcidtoname_downlevel.obj
 0002:00008908       ??_C@_1M@PNBLONPJ@?$AAs?$AAk?$AA?9?$AAs?$AAk@ 000000018002c908     libucrt:lcidtoname_downlevel.obj
 0002:00008918       ??_C@_1M@LFMODOAL@?$AAs?$AAl?$AA?9?$AAs?$AAi@ 000000018002c918     libucrt:lcidtoname_downlevel.obj
 0002:00008928       ??_C@_1O@DFKOMPG@?$AAs?$AAm?$AAa?$AA?9?$AAn?$AAo@ 000000018002c928     libucrt:lcidtoname_downlevel.obj
 0002:00008938       ??_C@_1O@NDKPBNNH@?$AAs?$AAm?$AAa?$AA?9?$AAs?$AAe@ 000000018002c938     libucrt:lcidtoname_downlevel.obj
 0002:00008948       ??_C@_1O@PLLKBHAB@?$AAs?$AAm?$AAj?$AA?9?$AAn?$AAo@ 000000018002c948     libucrt:lcidtoname_downlevel.obj
 0002:00008958       ??_C@_1O@CLEPOGCA@?$AAs?$AAm?$AAj?$AA?9?$AAs?$AAe@ 000000018002c958     libucrt:lcidtoname_downlevel.obj
 0002:00008968       ??_C@_1O@DLGJGKMK@?$AAs?$AAm?$AAn?$AA?9?$AAf?$AAi@ 000000018002c968     libucrt:lcidtoname_downlevel.obj
 0002:00008978       ??_C@_1O@OJDJGAJC@?$AAs?$AAm?$AAs?$AA?9?$AAf?$AAi@ 000000018002c978     libucrt:lcidtoname_downlevel.obj
 0002:00008988       ??_C@_1M@BOFOGHPB@?$AAs?$AAq?$AA?9?$AAa?$AAl@ 000000018002c988     libucrt:lcidtoname_downlevel.obj
 0002:00008998       ??_C@_1BG@LJBBIPGB@?$AAs?$AAr?$AA?9?$AAb?$AAa?$AA?9?$AAc?$AAy?$AAr?$AAl@ 000000018002c998     libucrt:lcidtoname_downlevel.obj
 0002:000089b0       ??_C@_1BG@JLBENFOE@?$AAs?$AAr?$AA?9?$AAb?$AAa?$AA?9?$AAl?$AAa?$AAt?$AAn@ 000000018002c9b0     libucrt:lcidtoname_downlevel.obj
 0002:000089c8       ??_C@_1BG@KODPNHE@?$AAs?$AAr?$AA?9?$AAs?$AAp?$AA?9?$AAc?$AAy?$AAr?$AAl@ 000000018002c9c8     libucrt:lcidtoname_downlevel.obj
 0002:000089e0       ??_C@_1BG@CIOGKHPB@?$AAs?$AAr?$AA?9?$AAs?$AAp?$AA?9?$AAl?$AAa?$AAt?$AAn@ 000000018002c9e0     libucrt:lcidtoname_downlevel.obj
 0002:000089f8       ??_C@_1M@NGFJLMAC@?$AAs?$AAv?$AA?9?$AAf?$AAi@ 000000018002c9f8     libucrt:lcidtoname_downlevel.obj
 0002:00008a08       ??_C@_1M@MPJEJAJC@?$AAs?$AAv?$AA?9?$AAs?$AAe@ 000000018002ca08     libucrt:lcidtoname_downlevel.obj
 0002:00008a18       ??_C@_1M@MPNDHLFK@?$AAs?$AAw?$AA?9?$AAk?$AAe@ 000000018002ca18     libucrt:lcidtoname_downlevel.obj
 0002:00008a28       ??_C@_1O@KOHBJJI@?$AAs?$AAy?$AAr?$AA?9?$AAs?$AAy@ 000000018002ca28     libucrt:lcidtoname_downlevel.obj
 0002:00008a38       ??_C@_1M@LDCEFHA@?$AAt?$AAa?$AA?9?$AAi?$AAn@ 000000018002ca38     libucrt:lcidtoname_downlevel.obj
 0002:00008a48       ??_C@_1M@CNJOFAK@?$AAt?$AAe?$AA?9?$AAi?$AAn@ 000000018002ca48     libucrt:lcidtoname_downlevel.obj
 0002:00008a58       ??_C@_1M@GNAECACD@?$AAt?$AAh?$AA?9?$AAt?$AAh@ 000000018002ca58     libucrt:lcidtoname_downlevel.obj
 0002:00008a68       ??_C@_1M@CHBIHOJO@?$AAt?$AAn?$AA?9?$AAz?$AAa@ 000000018002ca68     libucrt:lcidtoname_downlevel.obj
 0002:00008a78       ??_C@_1M@GCCMIGPJ@?$AAt?$AAr?$AA?9?$AAt?$AAr@ 000000018002ca78     libucrt:lcidtoname_downlevel.obj
 0002:00008a88       ??_C@_1M@CELMCNBK@?$AAt?$AAt?$AA?9?$AAr?$AAu@ 000000018002ca88     libucrt:lcidtoname_downlevel.obj
 0002:00008a98       ??_C@_1M@KLMCELGA@?$AAu?$AAk?$AA?9?$AAu?$AAa@ 000000018002ca98     libucrt:lcidtoname_downlevel.obj
 0002:00008aa8       ??_C@_1M@EPAJJAJF@?$AAu?$AAr?$AA?9?$AAp?$AAk@ 000000018002caa8     libucrt:lcidtoname_downlevel.obj
 0002:00008ab8       ??_C@_1BG@GEGPMCDJ@?$AAu?$AAz?$AA?9?$AAu?$AAz?$AA?9?$AAc?$AAy?$AAr?$AAl@ 000000018002cab8     libucrt:lcidtoname_downlevel.obj
 0002:00008ad0       ??_C@_1BG@EGGKJILM@?$AAu?$AAz?$AA?9?$AAu?$AAz?$AA?9?$AAl?$AAa?$AAt?$AAn@ 000000018002cad0     libucrt:lcidtoname_downlevel.obj
 0002:00008ae8       ??_C@_1M@GFOCLFF@?$AAv?$AAi?$AA?9?$AAv?$AAn@ 000000018002cae8     libucrt:lcidtoname_downlevel.obj
 0002:00008af8       ??_C@_1M@CPAMEDFI@?$AAx?$AAh?$AA?9?$AAz?$AAa@ 000000018002caf8     libucrt:lcidtoname_downlevel.obj
 0002:00008b08       ??_C@_1O@EBKIFIGN@?$AAz?$AAh?$AA?9?$AAc?$AAh?$AAs@ 000000018002cb08     libucrt:lcidtoname_downlevel.obj
 0002:00008b18       ??_C@_1O@NMHPGANE@?$AAz?$AAh?$AA?9?$AAc?$AAh?$AAt@ 000000018002cb18     libucrt:lcidtoname_downlevel.obj
 0002:00008b28       ??_C@_1M@LPINJOMC@?$AAz?$AAh?$AA?9?$AAc?$AAn@ 000000018002cb28     libucrt:lcidtoname_downlevel.obj
 0002:00008b38       ??_C@_1M@OCJEJODD@?$AAz?$AAh?$AA?9?$AAh?$AAk@ 000000018002cb38     libucrt:lcidtoname_downlevel.obj
 0002:00008b48       ??_C@_1M@DNDLJINH@?$AAz?$AAh?$AA?9?$AAm?$AAo@ 000000018002cb48     libucrt:lcidtoname_downlevel.obj
 0002:00008b58       ??_C@_1M@MBFDNDND@?$AAz?$AAh?$AA?9?$AAs?$AAg@ 000000018002cb58     libucrt:lcidtoname_downlevel.obj
 0002:00008b68       ??_C@_1M@IMEPLEPE@?$AAz?$AAh?$AA?9?$AAt?$AAw@ 000000018002cb68     libucrt:lcidtoname_downlevel.obj
 0002:00008b78       ??_C@_1M@BBGHNHJP@?$AAz?$AAu?$AA?9?$AAz?$AAa@ 000000018002cb78     libucrt:lcidtoname_downlevel.obj
 0002:00008b90       ?large_power_data@?1??multiply_by_power_of_ten@__crt_strtox@@YA_NAEAUbig_integer@2@I@Z@4QBIB 000000018002cb90     libucrt:cfout.obj
 0002:000094a0       ?large_power_indices@?1??multiply_by_power_of_ten@__crt_strtox@@YA_NAEAUbig_integer@2@I@Z@4QBUunpack_index@?1??12@YA_N0I@Z@B 000000018002d4a0     libucrt:cfout.obj
 0002:00009538       ?small_powers_of_ten@?1??multiply_by_power_of_ten@__crt_strtox@@YA_NAEAUbig_integer@2@I@Z@4QBIB 000000018002d538     libucrt:cfout.obj
 0002:0000955c       ??_C@_01GBGANLPD@0@        000000018002d55c     libucrt:cfout.obj
 0002:00009560       ??_C@_05DNEBIAHO@1?$CDINF@ 000000018002d560     libucrt:cfout.obj
 0002:00009568       ??_C@_06IMKFLFPG@1?$CDQNAN@ 000000018002d568     libucrt:cfout.obj
 0002:00009570       ??_C@_06PGGFOGJG@1?$CDSNAN@ 000000018002d570     libucrt:cfout.obj
 0002:00009578       ??_C@_05PHHOCPM@1?$CDIND@  000000018002d578     libucrt:cfout.obj
 0002:00009580       __real@3ff0000000000000    000000018002d580     libucrt:ceil.obj
 0002:000097e0       __log10_256_lead           000000018002d7e0     libucrt:log10_256_lead_tail_table.obj
 0002:00009ff0       __log10_256_tail           000000018002dff0     libucrt:log10_256_lead_tail_table.obj
 0002:0000a800       __log_F_inv_qword          000000018002e800     libucrt:log_f_inv_qword_table.obj
 0002:0000b010       ??_C@_05HGHHAHAP@log10@    000000018002f010     libucrt:log_special.obj
 0002:0000b018       ??_C@_1BA@BALFACEM@?$AAC?$AAO?$AAN?$AAO?$AAU?$AAT?$AA$@ 000000018002f018     libucrt:initcon.obj
 0002:0000b0a0       _load_config_used          000000018002f0a0     LIBCMT:loadcfg.obj
 0002:0000b1d0       _tls_used                  000000018002f1d0     LIBCMT:tlssup.obj
 0002:0000b1f8       ??_R4exception@std@@6B@    000000018002f1f8     LIBCMT:throw_bad_alloc.obj
 0002:0000b220       ??_R3exception@std@@8      000000018002f220     LIBCMT:throw_bad_alloc.obj
 0002:0000b238       ??_R2exception@std@@8      000000018002f238     LIBCMT:throw_bad_alloc.obj
 0002:0000b248       ??_R1A@?0A@EA@exception@std@@8 000000018002f248     LIBCMT:throw_bad_alloc.obj
 0002:0000b270       ??_R4bad_alloc@std@@6B@    000000018002f270     LIBCMT:throw_bad_alloc.obj
 0002:0000b298       ??_R3bad_alloc@std@@8      000000018002f298     LIBCMT:throw_bad_alloc.obj
 0002:0000b2b0       ??_R2bad_alloc@std@@8      000000018002f2b0     LIBCMT:throw_bad_alloc.obj
 0002:0000b2c8       ??_R1A@?0A@EA@bad_alloc@std@@8 000000018002f2c8     LIBCMT:throw_bad_alloc.obj
 0002:0000b2f0       ??_R4bad_array_new_length@std@@6B@ 000000018002f2f0     LIBCMT:throw_bad_alloc.obj
 0002:0000b318       ??_R3bad_array_new_length@std@@8 000000018002f318     LIBCMT:throw_bad_alloc.obj
 0002:0000b330       ??_R2bad_array_new_length@std@@8 000000018002f330     LIBCMT:throw_bad_alloc.obj
 0002:0000b350       ??_R1A@?0A@EA@bad_array_new_length@std@@8 000000018002f350     LIBCMT:throw_bad_alloc.obj
 0002:0000b378       ??_R4type_info@@6B@        000000018002f378     LIBCMT:std_type_info_static.obj
 0002:0000b3a0       ??_R3type_info@@8          000000018002f3a0     LIBCMT:std_type_info_static.obj
 0002:0000b3b8       ??_R2type_info@@8          000000018002f3b8     LIBCMT:std_type_info_static.obj
 0002:0000b3c8       ??_R1A@?0A@EA@type_info@@8 000000018002f3c8     LIBCMT:std_type_info_static.obj
 0002:0000b3f0       ??_R4bad_exception@std@@6B@ 000000018002f3f0     libvcruntime:frame.obj
 0002:0000b418       ??_R3bad_exception@std@@8  000000018002f418     libvcruntime:frame.obj
 0002:0000b430       ??_R2bad_exception@std@@8  000000018002f430     libvcruntime:frame.obj
 0002:0000b448       ??_R1A@?0A@EA@bad_exception@std@@8 000000018002f448     libvcruntime:frame.obj
 0002:0000b870       __rtc_iaa                  000000018002f870     LIBCMT:initsect.obj
 0002:0000b878       __rtc_izz                  000000018002f878     LIBCMT:initsect.obj
 0002:0000b880       __rtc_taa                  000000018002f880     LIBCMT:initsect.obj
 0002:0000b888       __rtc_tzz                  000000018002f888     LIBCMT:initsect.obj
 0002:0000b890       _tls_start                 000000018002f890     LIBCMT:tlssup.obj
 0002:0000b894       _Init_thread_epoch         000000018002f894     LIBCMT:thread_safe_statics.obj
 0002:0000b898       _tls_end                   000000018002f898     LIBCMT:tlssup.obj
 0002:0000cfb8       _TI2?AVbad_alloc@std@@     0000000180030fb8     LIBCMT:throw_bad_alloc.obj
 0002:0000cfd8       _CTA2?AVbad_alloc@std@@    0000000180030fd8     LIBCMT:throw_bad_alloc.obj
 0002:0000cff0       _CT??_R0?AVbad_alloc@std@@@8??0bad_alloc@std@@QEAA@AEBV01@@Z24 0000000180030ff0     LIBCMT:throw_bad_alloc.obj
 0002:0000d018       _CT??_R0?AVexception@std@@@8??0exception@std@@QEAA@AEBV01@@Z24 0000000180031018     LIBCMT:throw_bad_alloc.obj
 0002:0000d040       _TI3?AVbad_array_new_length@std@@ 0000000180031040     LIBCMT:throw_bad_alloc.obj
 0002:0000d060       _CTA3?AVbad_array_new_length@std@@ 0000000180031060     LIBCMT:throw_bad_alloc.obj
 0002:0000d080       _CT??_R0?AVbad_array_new_length@std@@@8??0bad_array_new_length@std@@QEAA@AEBV01@@Z24 0000000180031080     LIBCMT:throw_bad_alloc.obj
 0002:0000d0a8       _TI2?AVbad_exception@std@@ 00000001800310a8     libvcruntime:frame.obj
 0002:0000d0c8       _CTA2?AVbad_exception@std@@ 00000001800310c8     libvcruntime:frame.obj
 0002:0000d0e0       _CT??_R0?AVbad_exception@std@@@8??0bad_exception@std@@QEAA@AEBV01@@Z24 00000001800310e0     libvcruntime:frame.obj
 0002:0000d108       __pobjMapEntryFirst        0000000180031108     OposVariant.obj
 0002:0000d110       __pobjMapEntryLast         0000000180031110     OposVariant.obj
 0002:0000d1c8       __IMPORT_DESCRIPTOR_KERNEL32 00000001800311c8     kernel32:KERNEL32.dll
 0002:0000d1dc       __IMPORT_DESCRIPTOR_USER32 00000001800311dc     user32:USER32.dll
 0002:0000d1f0       __IMPORT_DESCRIPTOR_GDI32  00000001800311f0     gdi32:GDI32.dll
 0002:0000d204       __IMPORT_DESCRIPTOR_ADVAPI32 0000000180031204     advapi32:ADVAPI32.dll
 0002:0000d218       __IMPORT_DESCRIPTOR_ole32  0000000180031218     ole32:ole32.dll
 0002:0000d22c       __IMPORT_DESCRIPTOR_OLEAUT32 000000018003122c     oleaut32:OLEAUT32.dll
 0002:0000d240       __NULL_IMPORT_DESCRIPTOR   0000000180031240     kernel32:KERNEL32.dll
 0003:00000000       ?s_Claim@?7??GetIDsOfNames@CComTypeInfoHolder@ATL@@QEAAJAEBU_GUID@@PEAPEA_WIKPEAJ@Z@4PA_WA 0000000180033000     Scale.obj
 0003:00000018       ?s_Release@?7??GetIDsOfNames@CComTypeInfoHolder@ATL@@QEAAJAEBU_GUID@@PEAPEA_WIKPEAJ@Z@4PA_WA 0000000180033018     Scale.obj
 0003:00000038       ?_tih@?$IDispatchImpl@UIOPOSScale@@$1?IID_IOPOSScale@@3U_GUID@@B$1?LIBID_OposScale_CCO@@3U3@B$00$0A@VCComTypeInfoHolder@ATL@@@ATL@@1VCComTypeInfoHolder@2@A 0000000180033038     Scale.obj
 0003:00000070       ?_tih@?$IProvideClassInfo2Impl@$1?CLSID_OPOSScale@@3U_GUID@@B$1?DIID__IOPOSScaleEvents@@3U2@B$1?LIBID_OposScale_CCO@@3U2@B$00$0A@VCComTypeInfoHolder@ATL@@@ATL@@1VCComTypeInfoHolder@2@A 0000000180033070     Scale.obj
 0003:000000a8       ?vszContents@?6??Save@?$IPersistStorageImpl@VCOPOSScale@@@ATL@@UEAAJPEAUIStorage@@H@Z@4PEB_WEB 00000001800330a8     Scale.obj
 0003:000000b0       ?wc@?1??GetWndClassInfo@?$CWindowImpl@VCOPOSScale@@VCWindow@ATL@@V?$CWinTraits@$0FGAAAAAA@$0A@@3@@ATL@@SAAEAU_ATL_WNDCLASSINFOW@3@XZ@4U43@A 00000001800330b0     Scale.obj
 0003:000001a8       ?rcDefault@CWindow@ATL@@2UtagRECT@@A 00000001800331a8     Scale.obj
 0003:00000250       ?g_WindowName@@3PA_WA      0000000180033250     ScaleImpl.obj
 0003:00000270       ?g_ControlDescription@@3PADA 0000000180033270     ScaleImpl.obj
 0003:000002b8       ?g_ControlVersion@@3JA     00000001800332b8     ScaleImpl.obj
 0003:000003f4       __scrt_native_dllmain_reason 00000001800333f4     LIBCMT:utility.obj
 0003:000003f8       _Init_global_epoch         00000001800333f8     LIBCMT:thread_safe_statics.obj
 0003:00000400       __security_cookie_complement 0000000180033400     LIBCMT:gs_cookie.obj
 0003:00000408       __security_cookie          0000000180033408     LIBCMT:gs_cookie.obj
 0003:00000410       __isa_available            0000000180033410     LIBCMT:cpu_disp.obj
 0003:00000414       __isa_enabled              0000000180033414     LIBCMT:cpu_disp.obj
 0003:00000418       __memcpy_nt_iters          0000000180033418     LIBCMT:cpu_disp.obj
 0003:00000420       __memset_nt_iters          0000000180033420     LIBCMT:cpu_disp.obj
 0003:00000448       __abort_behavior           0000000180033448     libucrt:abort.obj
 0003:00000460       _iob                       0000000180033460     libucrt:_file.obj
 0003:00000570       __acrt_initial_locale_data 0000000180033570     libucrt:nlsdata.obj
 0003:000006c8       __acrt_initial_locale_pointers 00000001800336c8     libucrt:nlsdata.obj
 0003:000006d8       __acrt_wide_c_locale_string 00000001800336d8     libucrt:nlsdata.obj
 0003:000006e0       __acrt_initial_multibyte_data 00000001800336e0     libucrt:mbctype.obj
 0003:00000c20       _pwctype                   0000000180033c20     libucrt:ctype.obj
 0003:00000c28       __globallocalestatus       0000000180033c28     libucrt:glstatus.obj
 0003:00000c30       __acrt_lconv_c             0000000180033c30     libucrt:localeconv.obj
 0003:00000cc8       __acrt_lconv_static_decimal 0000000180033cc8     libucrt:localeconv.obj
 0003:00000ccc       __acrt_lconv_static_W_decimal 0000000180033ccc     libucrt:localeconv.obj
 0003:00000cd0       _lookuptrailbytes          0000000180033cd0     libucrt:read.obj
 0003:00000df4       _fltused                   0000000180033df4     LIBCMT:fltused.obj
 0003:00000df8       ??_R0?AVbad_alloc@std@@@8  0000000180033df8     LIBCMT:throw_bad_alloc.obj
 0003:00000e20       ??_R0?AVexception@std@@@8  0000000180033e20     LIBCMT:throw_bad_alloc.obj
 0003:00000e48       ??_R0?AVbad_array_new_length@std@@@8 0000000180033e48     LIBCMT:throw_bad_alloc.obj
 0003:00000e78       ??_R0?AVtype_info@@@8      0000000180033e78     LIBCMT:std_type_info_static.obj
 0003:00000e98       ??_R0?AVbad_exception@std@@@8 0000000180033e98     libvcruntime:frame.obj
 0003:00000ec0       ?_pPerfRegFunc@ATL@@3P6AJPEAUHINSTANCE__@@@ZEA 0000000180033ec0     OposVariant.obj
 0003:00000ec8       ?_pPerfUnRegFunc@ATL@@3P6AJXZEA 0000000180033ec8     OposVariant.obj
 0003:00000ed0       ?_AtlRegisterPerUser@ATL@@3_NA 0000000180033ed0     OposVariant.obj
 0003:00000ed8       ?_pAtlModule@ATL@@3PEAVCAtlModule@1@EA 0000000180033ed8     OposVariant.obj
 0003:00000ee0       ?_pModule@ATL@@3PEAVCComModule@1@EA 0000000180033ee0     OposVariant.obj
 0003:00000ee8       ?m_bInitFailed@CAtlBaseModule@ATL@@2_NA 0000000180033ee8     OposVariant.obj
 0003:00000ef0       ?_AtlComModule@ATL@@3VCAtlComModule@1@A 0000000180033ef0     OposVariant.obj
 0003:00000f40       ?_AtlWinModule@ATL@@3VCAtlWinModule@1@A 0000000180033f40     OposVariant.obj
 0003:00000f88       ?m_libid@CAtlModule@ATL@@2U_GUID@@A 0000000180033f88     Scale.obj
 0003:00000f98       ?_entries@?1??GetConnMap@COPOSScale@@SAPEBU_ATL_CONNMAP_ENTRY@ATL@@PEAH@Z@4QBU34@B 0000000180033f98     Scale.obj
 0003:00000fb0       ?$TSS0@?1??GetConnMap@COPOSScale@@SAPEBU_ATL_CONNMAP_ENTRY@ATL@@PEAH@Z@4HA 0000000180033fb0     Scale.obj
 0003:00000fb8       ?_OptionsStorage@?1??__local_stdio_printf_options@@9@4_KA 0000000180033fb8     Scale.obj
 0003:00000fc0       ?pfnRegDeleteKeyEx@?1??DeleteSubKey@CRegKey@ATL@@QEAAJPEB_W@Z@4P6AJPEAUHKEY__@@0KK@ZEA 0000000180033fc0     Scale.obj
 0003:00000fc8       ?bInitialized@?1??DeleteSubKey@CRegKey@ATL@@QEAAJPEB_W@Z@4_NA 0000000180033fc8     Scale.obj
 0003:00000fd0       ?_Module@@3VCComModule@ATL@@A 0000000180033fd0     Scale.obj
 0003:00001020       ?pConnMap@?$IConnectionPointContainerImpl@VCOPOSScale@@@ATL@@0PEBU_ATL_CONNMAP_ENTRY@2@EB 0000000180034020     Scale.obj
 0003:00001028       ?s_nInstances@COPOSScale@@1HA 0000000180034028     ScaleImpl.obj
 0003:00001030       __scrt_current_native_startup_state 0000000180034030     LIBCMT:utility.obj
 0003:00001038       __scrt_native_startup_lock 0000000180034038     LIBCMT:utility.obj
 0003:00001630       _tls_index                 0000000180034630     LIBCMT:tlssup.obj
 0003:00001638       __favor                    0000000180034638     LIBCMT:cpu_disp.obj
 0003:0000163c       __scrt_debugger_hook_flag  000000018003463c     LIBCMT:utility_desktop.obj
 0003:00001640       ?__type_info_root_node@@3U__type_info_node@@A 0000000180034640     LIBCMT:tncleanup.obj
 0003:00001650       ?_OptionsStorage@?1??__local_stdio_scanf_options@@9@4_KA 0000000180034650     LIBCMT:default_local_stdio_options.obj
 0003:00001660       ?_AtlBaseModule@ATL@@3VCAtlBaseModule@1@A 0000000180034660     atls:atlbase.obj
 0003:000016c0       ?__AtlThunkPool@@3PEAT_SLIST_HEADER@@EA 00000001800346c0     atls:atlthunk.obj
 0003:000016ec       __@@_PchSym_@00@UzABUPdlipUGUhUrmgvinvwrzgvUexgllohUzgohOmzgrevkilqPBACIAJCBDBUlyqiUznwGEUhgwzucOlyq@4B2008FD98C1DD4 00000001800346ec     atls:stdafx.obj
 0003:000016f0       ?__WinRTOutOfMemoryExceptionCallback@@3P6APEAXXZEA 00000001800346f0     libvcruntime:ehhelpers.obj
 0003:000016f8       __pPurecall                00000001800346f8     libvcruntime:purevirt_data.obj
 0003:000017b0       ?pArgList@UnDecorator@@0PEAVReplicator@@EA 00000001800347b0     libvcruntime:undname.obj
 0003:000017b8       ?pZNameList@UnDecorator@@0PEAVReplicator@@EA 00000001800347b8     libvcruntime:undname.obj
 0003:000017c0       ?pTemplateArgList@UnDecorator@@0PEAVReplicator@@EA 00000001800347c0     libvcruntime:undname.obj
 0003:000017c8       ?gName@UnDecorator@@0PEBDEB 00000001800347c8     libvcruntime:undname.obj
 0003:000017d0       ?name@UnDecorator@@0PEBDEB 00000001800347d0     libvcruntime:undname.obj
 0003:000017d8       ?disableFlags@UnDecorator@@0KA 00000001800347d8     libvcruntime:undname.obj
 0003:000017dc       ?fExplicitTemplateParams@UnDecorator@@0_NA 00000001800347dc     libvcruntime:undname.obj
 0003:000017dd       ?fGetTemplateArgumentList@UnDecorator@@0_NA 00000001800347dd     libvcruntime:undname.obj
 0003:000017e0       ?m_pGetParameter@UnDecorator@@0P6APEADJ@ZEA 00000001800347e0     libvcruntime:undname.obj
 0003:000017e8       ?m_CHPENameOffset@UnDecorator@@0KA 00000001800347e8     libvcruntime:undname.obj
 0003:000017ec       ?m_recursionLevel@UnDecorator@@0KA 00000001800347ec     libvcruntime:undname.obj
 0003:00001870       ?c_exit_complete@?1???R<lambda_6e4b09c48022b2350581041d5f6b0c4c>@@QEBA@XZ@4_NA 0000000180034870     libucrt:exit.obj
 0003:00001988       _environ_table             0000000180034988     libucrt:environment_initialization.obj
 0003:00001990       _wenviron_table            0000000180034990     libucrt:environment_initialization.obj
 0003:00001998       __dcrt_initial_wide_environment 0000000180034998     libucrt:environment_initialization.obj
 0003:000019a0       __dcrt_initial_narrow_environment 00000001800349a0     libucrt:environment_initialization.obj
 0003:000019a8       __acrt_atexit_table        00000001800349a8     libucrt:onexit.obj
 0003:000019c0       __acrt_at_quick_exit_table 00000001800349c0     libucrt:onexit.obj
 0003:00001b98       _nstream                   0000000180034b98     libucrt:_file.obj
 0003:00001ba0       __piob                     0000000180034ba0     libucrt:_file.obj
 0003:00001bb0       __acrt_stdout_buffer       0000000180034bb0     libucrt:_sftbuf.obj
 0003:00001bb8       __acrt_stderr_buffer       0000000180034bb8     libucrt:_sftbuf.obj
 0003:00001bc0       __acrt_locale_changed_data 0000000180034bc0     libucrt:wsetlocale.obj
 0003:00001bc8       __acrt_current_locale_data 0000000180034bc8     libucrt:nlsdata.obj
 0003:00001bd0       __pioinfo                  0000000180034bd0     libucrt:ioinit.obj
 0003:00001fd0       _nhandle                   0000000180034fd0     libucrt:ioinit.obj
 0003:00002218       _mbctype                   0000000180035218     libucrt:mbctype.obj
 0003:00002220       _mbcasemap                 0000000180035220     libucrt:mbctype.obj
 0003:00002228       __acrt_current_multibyte_data 0000000180035228     libucrt:mbctype.obj
 0003:00002238       _pgmptr                    0000000180035238     libucrt:argv_data.obj
 0003:00002240       __argc                     0000000180035240     libucrt:argv_data.obj
 0003:00002248       __argv                     0000000180035248     libucrt:argv_data.obj
 0003:00002250       __wargv                    0000000180035250     libucrt:argv_data.obj
 0003:00002258       _acmdln                    0000000180035258     libucrt:argv_data.obj
 0003:00002260       _wcmdln                    0000000180035260     libucrt:argv_data.obj
 0003:00002268       __acrt_heap                0000000180035268     libucrt:heap_handle.obj
 0003:0000229c       __acrt_lconv_static_null   000000018003529c     libucrt:localeconv.obj
 0003:000022a0       __acrt_lconv_static_W_null 00000001800352a0     libucrt:localeconv.obj
 0003:000022b4       __fma3_is_available        00000001800352b4     libucrt:fma3_available.obj
 0003:000022b8       __use_fma3_lib             00000001800352b8     libucrt:fma3_available.obj
 0003:000022c0       __dyn_tls_init_callback    00000001800352c0     <common>
 0003:000022c8       __scrt_ucrt_dll_is_in_use  00000001800352c8     <common>

 entry point at        0001:0000f8f4

 Static symbols

 0000:fffc0000       .debug$S                   0000000180000000     OPOSScale.exp
 0000:fffc0000       .debug$S                   0000000180000000     advapi32:ADVAPI32.dll
 0000:fffc0000       .debug$S                   0000000180000000     advapi32:ADVAPI32.dll
 0000:fffc0000       .debug$S                   0000000180000000     advapi32:ADVAPI32.dll
 0000:fffc0000       .debug$S                   0000000180000000     advapi32:ADVAPI32.dll
 0000:fffc0000       .debug$S                   0000000180000000     advapi32:ADVAPI32.dll
 0000:fffc0000       .debug$S                   0000000180000000     advapi32:ADVAPI32.dll
 0000:fffc0000       .debug$S                   0000000180000000     advapi32:ADVAPI32.dll
 0000:fffc0000       .debug$S                   0000000180000000     advapi32:ADVAPI32.dll
 0000:fffc0000       .debug$S                   0000000180000000     advapi32:ADVAPI32.dll
 0000:fffc0000       .debug$S                   0000000180000000     gdi32:GDI32.dll
 0000:fffc0000       .debug$S                   0000000180000000     gdi32:GDI32.dll
 0000:fffc0000       .debug$S                   0000000180000000     gdi32:GDI32.dll
 0000:fffc0000       .debug$S                   0000000180000000     gdi32:GDI32.dll
 0000:fffc0000       .debug$S                   0000000180000000     gdi32:GDI32.dll
 0000:fffc0000       .debug$S                   0000000180000000     gdi32:GDI32.dll
 0000:fffc0000       .debug$S                   0000000180000000     gdi32:GDI32.dll
 0000:fffc0000       .debug$S                   0000000180000000     gdi32:GDI32.dll
 0000:fffc0000       .debug$S                   0000000180000000     gdi32:GDI32.dll
 0000:fffc0000       .debug$S                   0000000180000000     gdi32:GDI32.dll
 0000:fffc0000       .debug$S                   0000000180000000     gdi32:GDI32.dll
 0000:fffc0000       .debug$S                   0000000180000000     gdi32:GDI32.dll
 0000:fffc0000       .debug$S                   0000000180000000     gdi32:GDI32.dll
 0000:fffc0000       .debug$S                   0000000180000000     gdi32:GDI32.dll
 0000:fffc0000       .debug$S                   0000000180000000     gdi32:GDI32.dll
 0000:fffc0000       .debug$S                   0000000180000000     gdi32:GDI32.dll
 0000:fffc0000       .debug$S                   0000000180000000     gdi32:GDI32.dll
 0000:fffc0000       .debug$S                   0000000180000000     gdi32:GDI32.dll
 0000:fffc0000       .debug$S                   0000000180000000     gdi32:GDI32.dll
 0000:fffc0000       .debug$S                   0000000180000000     kernel32:KERNEL32.dll
 0000:fffc0000       .debug$S                   0000000180000000     kernel32:KERNEL32.dll
 0000:fffc0000       .debug$S                   0000000180000000     kernel32:KERNEL32.dll
 0000:fffc0000       .debug$S                   0000000180000000     kernel32:KERNEL32.dll
 0000:fffc0000       .debug$S                   0000000180000000     kernel32:KERNEL32.dll
 0000:fffc0000       .debug$S                   0000000180000000     kernel32:KERNEL32.dll
 0000:fffc0000       .debug$S                   0000000180000000     kernel32:KERNEL32.dll
 0000:fffc0000       .debug$S                   0000000180000000     kernel32:KERNEL32.dll
 0000:fffc0000       .debug$S                   0000000180000000     kernel32:KERNEL32.dll
 0000:fffc0000       .debug$S                   0000000180000000     kernel32:KERNEL32.dll
 0000:fffc0000       .debug$S                   0000000180000000     kernel32:KERNEL32.dll
 0000:fffc0000       .debug$S                   0000000180000000     kernel32:KERNEL32.dll
 0000:fffc0000       .debug$S                   0000000180000000     kernel32:KERNEL32.dll
 0000:fffc0000       .debug$S                   0000000180000000     kernel32:KERNEL32.dll
 0000:fffc0000       .debug$S                   0000000180000000     kernel32:KERNEL32.dll
 0000:fffc0000       .debug$S                   0000000180000000     kernel32:KERNEL32.dll
 0000:fffc0000       .debug$S                   0000000180000000     kernel32:KERNEL32.dll
 0000:fffc0000       .debug$S                   0000000180000000     kernel32:KERNEL32.dll
 0000:fffc0000       .debug$S                   0000000180000000     kernel32:KERNEL32.dll
 0000:fffc0000       .debug$S                   0000000180000000     kernel32:KERNEL32.dll
 0000:fffc0000       .debug$S                   0000000180000000     kernel32:KERNEL32.dll
 0000:fffc0000       .debug$S                   0000000180000000     kernel32:KERNEL32.dll
 0000:fffc0000       .debug$S                   0000000180000000     kernel32:KERNEL32.dll
 0000:fffc0000       .debug$S                   0000000180000000     kernel32:KERNEL32.dll
 0000:fffc0000       .debug$S                   0000000180000000     kernel32:KERNEL32.dll
 0000:fffc0000       .debug$S                   0000000180000000     kernel32:KERNEL32.dll
 0000:fffc0000       .debug$S                   0000000180000000     kernel32:KERNEL32.dll
 0000:fffc0000       .debug$S                   0000000180000000     kernel32:KERNEL32.dll
 0000:fffc0000       .debug$S                   0000000180000000     kernel32:KERNEL32.dll
 0000:fffc0000       .debug$S                   0000000180000000     kernel32:KERNEL32.dll
 0000:fffc0000       .debug$S                   0000000180000000     kernel32:KERNEL32.dll
 0000:fffc0000       .debug$S                   0000000180000000     kernel32:KERNEL32.dll
 0000:fffc0000       .debug$S                   0000000180000000     kernel32:KERNEL32.dll
 0000:fffc0000       .debug$S                   0000000180000000     kernel32:KERNEL32.dll
 0000:fffc0000       .debug$S                   0000000180000000     kernel32:KERNEL32.dll
 0000:fffc0000       .debug$S                   0000000180000000     kernel32:KERNEL32.dll
 0000:fffc0000       .debug$S                   0000000180000000     kernel32:KERNEL32.dll
 0000:fffc0000       .debug$S                   0000000180000000     kernel32:KERNEL32.dll
 0000:fffc0000       .debug$S                   0000000180000000     kernel32:KERNEL32.dll
 0000:fffc0000       .debug$S                   0000000180000000     kernel32:KERNEL32.dll
 0000:fffc0000       .debug$S                   0000000180000000     kernel32:KERNEL32.dll
 0000:fffc0000       .debug$S                   0000000180000000     kernel32:KERNEL32.dll
 0000:fffc0000       .debug$S                   0000000180000000     kernel32:KERNEL32.dll
 0000:fffc0000       .debug$S                   0000000180000000     kernel32:KERNEL32.dll
 0000:fffc0000       .debug$S                   0000000180000000     kernel32:KERNEL32.dll
 0000:fffc0000       .debug$S                   0000000180000000     kernel32:KERNEL32.dll
 0000:fffc0000       .debug$S                   0000000180000000     kernel32:KERNEL32.dll
 0000:fffc0000       .debug$S                   0000000180000000     kernel32:KERNEL32.dll
 0000:fffc0000       .debug$S                   0000000180000000     kernel32:KERNEL32.dll
 0000:fffc0000       .debug$S                   0000000180000000     kernel32:KERNEL32.dll
 0000:fffc0000       .debug$S                   0000000180000000     kernel32:KERNEL32.dll
 0000:fffc0000       .debug$S                   0000000180000000     kernel32:KERNEL32.dll
 0000:fffc0000       .debug$S                   0000000180000000     kernel32:KERNEL32.dll
 0000:fffc0000       .debug$S                   0000000180000000     kernel32:KERNEL32.dll
 0000:fffc0000       .debug$S                   0000000180000000     kernel32:KERNEL32.dll
 0000:fffc0000       .debug$S                   0000000180000000     kernel32:KERNEL32.dll
 0000:fffc0000       .debug$S                   0000000180000000     kernel32:KERNEL32.dll
 0000:fffc0000       .debug$S                   0000000180000000     kernel32:KERNEL32.dll
 0000:fffc0000       .debug$S                   0000000180000000     kernel32:KERNEL32.dll
 0000:fffc0000       .debug$S                   0000000180000000     kernel32:KERNEL32.dll
 0000:fffc0000       .debug$S                   0000000180000000     kernel32:KERNEL32.dll
 0000:fffc0000       .debug$S                   0000000180000000     kernel32:KERNEL32.dll
 0000:fffc0000       .debug$S                   0000000180000000     kernel32:KERNEL32.dll
 0000:fffc0000       .debug$S                   0000000180000000     kernel32:KERNEL32.dll
 0000:fffc0000       .debug$S                   0000000180000000     kernel32:KERNEL32.dll
 0000:fffc0000       .debug$S                   0000000180000000     kernel32:KERNEL32.dll
 0000:fffc0000       .debug$S                   0000000180000000     kernel32:KERNEL32.dll
 0000:fffc0000       .debug$S                   0000000180000000     kernel32:KERNEL32.dll
 0000:fffc0000       .debug$S                   0000000180000000     kernel32:KERNEL32.dll
 0000:fffc0000       .debug$S                   0000000180000000     kernel32:KERNEL32.dll
 0000:fffc0000       .debug$S                   0000000180000000     kernel32:KERNEL32.dll
 0000:fffc0000       .debug$S                   0000000180000000     kernel32:KERNEL32.dll
 0000:fffc0000       .debug$S                   0000000180000000     kernel32:KERNEL32.dll
 0000:fffc0000       .debug$S                   0000000180000000     kernel32:KERNEL32.dll
 0000:fffc0000       .debug$S                   0000000180000000     kernel32:KERNEL32.dll
 0000:fffc0000       .debug$S                   0000000180000000     kernel32:KERNEL32.dll
 0000:fffc0000       .debug$S                   0000000180000000     kernel32:KERNEL32.dll
 0000:fffc0000       .debug$S                   0000000180000000     kernel32:KERNEL32.dll
 0000:fffc0000       .debug$S                   0000000180000000     kernel32:KERNEL32.dll
 0000:fffc0000       .debug$S                   0000000180000000     kernel32:KERNEL32.dll
 0000:fffc0000       .debug$S                   0000000180000000     kernel32:KERNEL32.dll
 0000:fffc0000       .debug$S                   0000000180000000     kernel32:KERNEL32.dll
 0000:fffc0000       .debug$S                   0000000180000000     kernel32:KERNEL32.dll
 0000:fffc0000       .debug$S                   0000000180000000     kernel32:KERNEL32.dll
 0000:fffc0000       .debug$S                   0000000180000000     kernel32:KERNEL32.dll
 0000:fffc0000       .debug$S                   0000000180000000     kernel32:KERNEL32.dll
 0000:fffc0000       .debug$S                   0000000180000000     kernel32:KERNEL32.dll
 0000:fffc0000       .debug$S                   0000000180000000     kernel32:KERNEL32.dll
 0000:fffc0000       .debug$S                   0000000180000000     kernel32:KERNEL32.dll
 0000:fffc0000       .debug$S                   0000000180000000     kernel32:KERNEL32.dll
 0000:fffc0000       .debug$S                   0000000180000000     kernel32:KERNEL32.dll
 0000:fffc0000       .debug$S                   0000000180000000     kernel32:KERNEL32.dll
 0000:fffc0000       .debug$S                   0000000180000000     kernel32:KERNEL32.dll
 0000:fffc0000       .debug$S                   0000000180000000     kernel32:KERNEL32.dll
 0000:fffc0000       .debug$S                   0000000180000000     kernel32:KERNEL32.dll
 0000:fffc0000       .debug$S                   0000000180000000     kernel32:KERNEL32.dll
 0000:fffc0000       .debug$S                   0000000180000000     kernel32:KERNEL32.dll
 0000:fffc0000       .debug$S                   0000000180000000     kernel32:KERNEL32.dll
 0000:fffc0000       .debug$S                   0000000180000000     kernel32:KERNEL32.dll
 0000:fffc0000       .debug$S                   0000000180000000     kernel32:KERNEL32.dll
 0000:fffc0000       .debug$S                   0000000180000000     kernel32:KERNEL32.dll
 0000:fffc0000       .debug$S                   0000000180000000     kernel32:KERNEL32.dll
 0000:fffc0000       .debug$S                   0000000180000000     kernel32:KERNEL32.dll
 0000:fffc0000       .debug$S                   0000000180000000     kernel32:KERNEL32.dll
 0000:fffc0000       .debug$S                   0000000180000000     kernel32:KERNEL32.dll
 0000:fffc0000       .debug$S                   0000000180000000     kernel32:KERNEL32.dll
 0000:fffc0000       .debug$S                   0000000180000000     kernel32:KERNEL32.dll
 0000:fffc0000       .debug$S                   0000000180000000     kernel32:KERNEL32.dll
 0000:fffc0000       .debug$S                   0000000180000000     kernel32:KERNEL32.dll
 0000:fffc0000       .debug$S                   0000000180000000     kernel32:KERNEL32.dll
 0000:fffc0000       .debug$S                   0000000180000000     kernel32:KERNEL32.dll
 0000:fffc0000       .debug$S                   0000000180000000     ole32:ole32.dll
 0000:fffc0000       .debug$S                   0000000180000000     ole32:ole32.dll
 0000:fffc0000       .debug$S                   0000000180000000     ole32:ole32.dll
 0000:fffc0000       .debug$S                   0000000180000000     ole32:ole32.dll
 0000:fffc0000       .debug$S                   0000000180000000     ole32:ole32.dll
 0000:fffc0000       .debug$S                   0000000180000000     ole32:ole32.dll
 0000:fffc0000       .debug$S                   0000000180000000     ole32:ole32.dll
 0000:fffc0000       .debug$S                   0000000180000000     ole32:ole32.dll
 0000:fffc0000       .debug$S                   0000000180000000     ole32:ole32.dll
 0000:fffc0000       .debug$S                   0000000180000000     ole32:ole32.dll
 0000:fffc0000       .debug$S                   0000000180000000     ole32:ole32.dll
 0000:fffc0000       .debug$S                   0000000180000000     ole32:ole32.dll
 0000:fffc0000       .debug$S                   0000000180000000     ole32:ole32.dll
 0000:fffc0000       .debug$S                   0000000180000000     ole32:ole32.dll
 0000:fffc0000       .debug$S                   0000000180000000     oleaut32:OLEAUT32.dll
 0000:fffc0000       .debug$S                   0000000180000000     oleaut32:OLEAUT32.dll
 0000:fffc0000       .debug$S                   0000000180000000     oleaut32:OLEAUT32.dll
 0000:fffc0000       .debug$S                   0000000180000000     oleaut32:OLEAUT32.dll
 0000:fffc0000       .debug$S                   0000000180000000     oleaut32:OLEAUT32.dll
 0000:fffc0000       .debug$S                   0000000180000000     oleaut32:OLEAUT32.dll
 0000:fffc0000       .debug$S                   0000000180000000     oleaut32:OLEAUT32.dll
 0000:fffc0000       .debug$S                   0000000180000000     oleaut32:OLEAUT32.dll
 0000:fffc0000       .debug$S                   0000000180000000     oleaut32:OLEAUT32.dll
 0000:fffc0000       .debug$S                   0000000180000000     oleaut32:OLEAUT32.dll
 0000:fffc0000       .debug$S                   0000000180000000     oleaut32:OLEAUT32.dll
 0000:fffc0000       .debug$S                   0000000180000000     oleaut32:OLEAUT32.dll
 0000:fffc0000       .debug$S                   0000000180000000     oleaut32:OLEAUT32.dll
 0000:fffc0000       .debug$S                   0000000180000000     oleaut32:OLEAUT32.dll
 0000:fffc0000       .debug$S                   0000000180000000     oleaut32:OLEAUT32.dll
 0000:fffc0000       .debug$S                   0000000180000000     oleaut32:OLEAUT32.dll
 0000:fffc0000       .debug$S                   0000000180000000     user32:USER32.dll
 0000:fffc0000       .debug$S                   0000000180000000     user32:USER32.dll
 0000:fffc0000       .debug$S                   0000000180000000     user32:USER32.dll
 0000:fffc0000       .debug$S                   0000000180000000     user32:USER32.dll
 0000:fffc0000       .debug$S                   0000000180000000     user32:USER32.dll
 0000:fffc0000       .debug$S                   0000000180000000     user32:USER32.dll
 0000:fffc0000       .debug$S                   0000000180000000     user32:USER32.dll
 0000:fffc0000       .debug$S                   0000000180000000     user32:USER32.dll
 0000:fffc0000       .debug$S                   0000000180000000     user32:USER32.dll
 0000:fffc0000       .debug$S                   0000000180000000     user32:USER32.dll
 0000:fffc0000       .debug$S                   0000000180000000     user32:USER32.dll
 0000:fffc0000       .debug$S                   0000000180000000     user32:USER32.dll
 0000:fffc0000       .debug$S                   0000000180000000     user32:USER32.dll
 0000:fffc0000       .debug$S                   0000000180000000     user32:USER32.dll
 0000:fffc0000       .debug$S                   0000000180000000     user32:USER32.dll
 0000:fffc0000       .debug$S                   0000000180000000     user32:USER32.dll
 0000:fffc0000       .debug$S                   0000000180000000     user32:USER32.dll
 0000:fffc0000       .debug$S                   0000000180000000     user32:USER32.dll
 0000:fffc0000       .debug$S                   0000000180000000     user32:USER32.dll
 0000:fffc0000       .debug$S                   0000000180000000     user32:USER32.dll
 0000:fffc0000       .debug$S                   0000000180000000     user32:USER32.dll
 0000:fffc0000       .debug$S                   0000000180000000     user32:USER32.dll
 0000:fffc0000       .debug$S                   0000000180000000     user32:USER32.dll
 0000:fffc0000       .debug$S                   0000000180000000     user32:USER32.dll
 0000:fffc0000       .debug$S                   0000000180000000     user32:USER32.dll
 0000:fffc0000       .debug$S                   0000000180000000     user32:USER32.dll
 0000:fffc0000       .debug$S                   0000000180000000     user32:USER32.dll
 0000:fffc0000       .debug$S                   0000000180000000     user32:USER32.dll
 0000:fffc0000       .debug$S                   0000000180000000     user32:USER32.dll
 0000:fffc0000       .debug$S                   0000000180000000     user32:USER32.dll
 0000:fffc0000       .debug$S                   0000000180000000     user32:USER32.dll
 0000:fffc0000       .debug$S                   0000000180000000     user32:USER32.dll
 0000:fffc0000       .debug$S                   0000000180000000     user32:USER32.dll
 0000:fffc0000       .debug$S                   0000000180000000     user32:USER32.dll
 0000:fffc0000       .debug$S                   0000000180000000     user32:USER32.dll
 0001:00000000       ??__E_AtlComModule@ATL@@YAXXZ 0000000180001000 f   OposVariant.obj
 0001:00000020       ??__E_AtlWinModule@ATL@@YAXXZ 0000000180001020 f   OposVariant.obj
 0001:00000040       ??__E?pConnMap@?$IConnectionPointContainerImpl@VCOPOSScale@@@ATL@@0PEBU_ATL_CONNMAP_ENTRY@2@EB@@YAXXZ 0000000180001040 f   Scale.obj
 0001:00000058       ??__E_Module@@YAXXZ        0000000180001058 f   Scale.obj
 0001:00000094       ??__E_AtlBaseModule@ATL@@YAXXZ 0000000180001094 f   atls:atlbase.obj
 0001:0000ef00       ?__scrt_initialize_thread_safe_statics@@YAHXZ 000000018000ff00 f   LIBCMT:thread_safe_statics.obj
 0001:0000efd0       ?__scrt_uninitialize_thread_safe_statics@@YAXXZ 000000018000ffd0 f   LIBCMT:thread_safe_statics.obj
 0001:0000f320       capture_current_context    0000000180010320 f   LIBCMT:gs_report.obj
 0001:0000f390       capture_previous_context   0000000180010390 f   LIBCMT:gs_report.obj
 0001:0000f530       $$000000                   0000000180010530     LIBCMT:chkstk.obj
 0001:0000f5a0       $$000000                   00000001800105a0     LIBCMT:amdsecgs.obj
 0001:0000f5d4       ?dllmain_crt_dispatch@@YAHQEAUHINSTANCE__@@KQEAX@Z 00000001800105d4 f   LIBCMT:dll_dllmain.obj
 0001:0000f624       ?dllmain_crt_process_attach@@YAHQEAUHINSTANCE__@@QEAX@Z 0000000180010624 f   LIBCMT:dll_dllmain.obj
 0001:0000f73c       ?dllmain_crt_process_detach@@YAH_N@Z 000000018001073c f   LIBCMT:dll_dllmain.obj
 0001:0000f7c0       ?dllmain_dispatch@@YAHQEAUHINSTANCE__@@KQEAX@Z 00000001800107c0 f   LIBCMT:dll_dllmain.obj
 0001:00010088       ??$GetProcAddressAll@P6AP6A_JPEAUHWND__@@I_K_J@ZPEAUAtlThunkData_t@@@Z@@YAP6AP6A_JPEAUHWND__@@I_K_J@ZPEAUAtlThunkData_t@@@ZPEAP6AP6A_J0I12@Z3@Z@Z 0000000180011088 f   atls:atlthunk.obj
 0001:00010088       ??$GetProcAddressAll@P6APEAUAtlThunkData_t@@XZ@@YAP6APEAUAtlThunkData_t@@XZPEAP6APEAU0@XZ@Z 0000000180011088 f   atls:atlthunk.obj
 0001:00010088       ??$GetProcAddressAll@P6AXPEAUAtlThunkData_t@@@Z@@YAP6AXPEAUAtlThunkData_t@@@ZPEAP6AX0@Z@Z 0000000180011088 f   atls:atlthunk.obj
 0001:00010088       ??$GetProcAddressAll@P6AXPEAUAtlThunkData_t@@PEAX_K@Z@@YAP6AXPEAUAtlThunkData_t@@PEAX_K@ZPEAP6AX012@Z@Z 0000000180011088 f   atls:atlthunk.obj
 0001:00010260       ?__InitializeThunkPool@@YAHXZ 0000000180011260 f   atls:atlthunk.obj
 0001:00010700       $$000000                   0000000180011700     libvcruntime:memcmp.obj
 0001:000107e0       $$000000                   00000001800117e0     libvcruntime:memcpy.obj
 0001:00010bf0       $$000000                   0000000180011bf0     libvcruntime:memset.obj
 0001:00011d00       $$000000                   0000000180012d00     libvcruntime:notify.obj
 0001:00011e6c       ??$BuildCatchObjectHelperInternal@V__FrameHandler4@@@@YAHPEAUEHExceptionRecord@@PEAXPEAUHandlerType4@FH4@@PEBU_s_CatchableType@@@Z 0000000180012e6c f   libvcruntime:frame.obj
 0001:00012070       ??$BuildCatchObjectInternal@V__FrameHandler4@@@@YAXPEAUEHExceptionRecord@@PEAXPEAUHandlerType4@FH4@@PEBU_s_CatchableType@@@Z 0000000180013070 f   libvcruntime:frame.obj
 0001:00012134       ??$CatchIt@V__FrameHandler4@@@@YAXPEAUEHExceptionRecord@@PEA_KPEAU_CONTEXT@@PEAU_xDISPATCHER_CONTEXT@@PEAUFuncInfo4@FH4@@PEAUHandlerType4@4@PEBU_s_CatchableType@@PEAUTryBlockMapEntry4@4@H1EE@Z 0000000180013134 f   libvcruntime:frame.obj
 0001:00012208       ??$FindHandler@V__FrameHandler4@@@@YAXPEAUEHExceptionRecord@@PEA_KPEAU_CONTEXT@@PEAU_xDISPATCHER_CONTEXT@@PEAUFuncInfo4@FH4@@EH1@Z 0000000180013208 f   libvcruntime:frame.obj
 0001:00012718       ??$FindHandlerForForeignException@V__FrameHandler4@@@@YAXPEAUEHExceptionRecord@@PEA_KPEAU_CONTEXT@@PEAU_xDISPATCHER_CONTEXT@@PEAUFuncInfo4@FH4@@HH1@Z 0000000180013718 f   libvcruntime:frame.obj
 0001:000134a8       ?ExFilterRethrow@@YAHPEAU_EXCEPTION_POINTERS@@PEAUEHExceptionRecord@@PEAH@Z 00000001800144a8 f   libvcruntime:frame.obj
 0001:00013530       ?ExFilterRethrowFH4@@YAHPEAU_EXCEPTION_POINTERS@@PEAUEHExceptionRecord@@HPEAH@Z 0000000180014530 f   libvcruntime:frame.obj
 0001:00013848       ?IsInExceptionSpec@@YAEPEAUEHExceptionRecord@@PEBU_s_ESTypeList@@@Z 0000000180014848 f   libvcruntime:frame.obj
 0001:00013934       ?Is_bad_exception_allowed@@YAEPEBU_s_ESTypeList@@@Z 0000000180014934 f   libvcruntime:frame.obj
 0001:00013c10       ?try_get_function@@YAPEAXW4function_id@?A0x5302d918@@QEBDQEBW4module_id@2@2@Z 0000000180014c10 f   libvcruntime:winapi_downlevel.obj
 0001:00013ef0       $$000000                   0000000180014ef0     libvcruntime:handlers.obj
 0001:00014708       ??$common_vsprintf@Vformat_validation_base@__crt_stdio_output@@_W@@YAH_KQEA_W0QEB_WQEAU__crt_locale_pointers@@QEAD@Z 0000000180015708 f   libucrt:output.obj
 0001:000155a8       $LN17                      00000001800165a8     libucrt:output.obj
 0001:00015f4c       ??$?RV<lambda_d80eeec6fff315bfe5c115232f3240e3>@@AEAV<lambda_6e4b09c48022b2350581041d5f6b0c4c>@@V<lambda_2358e3775559c9db80273638284d5e45>@@@?$__crt_seh_guarded_call@X@@QEAAX$$QEAV<lambda_d80eeec6fff315bfe5c115232f3240e3>@@AEAV<lambda_6e4b09c48022b2350581041d5f6b0c4c>@@$$QEAV<lambda_2358e3775559c9db80273638284d5e45>@@@Z 0000000180016f4c f   libucrt:exit.obj
 0001:00015f84       ??R<lambda_6e4b09c48022b2350581041d5f6b0c4c>@@QEBA@XZ 0000000180016f84 f   libucrt:exit.obj
 0001:00016048       ?atexit_exception_filter@@YAHK@Z 0000000180017048 f   libucrt:exit.obj
 0001:00016054       ?common_exit@@YAXHW4_crt_exit_cleanup_mode@@W4_crt_exit_return_mode@@@Z 0000000180017054 f   libucrt:exit.obj
 0001:00016110       ?exit_or_terminate_process@@YAXI@Z 0000000180017110 f   libucrt:exit.obj
 0001:0001615c       ?try_cor_exit_process@@YAXI@Z 000000018001715c f   libucrt:exit.obj
 0001:000161e4       ??$parse_command_line@D@@YAXPEADPEAPEAD0PEA_K2@Z 00000001800171e4 f   libucrt:argv_parsing.obj
 0001:0001658c       ??$common_initialize_environment_nolock@D@@YAHXZ 000000018001758c f   libucrt:environment_initialization.obj
 0001:000165f8       ??$create_environment@D@@YAQEAPEADQEAD@Z 00000001800175f8 f   libucrt:environment_initialization.obj
 0001:00016700       ??$free_environment@D@@YAXQEAPEAD@Z 0000000180017700 f   libucrt:environment_initialization.obj
 0001:00016700       ??$free_environment@_W@@YAXQEAPEA_W@Z 0000000180017700 f   libucrt:environment_initialization.obj
 0001:00016744       ??$uninitialize_environment_internal@D@@YAXAEAPEAPEAD@Z 0000000180017744 f   libucrt:environment_initialization.obj
 0001:00016760       ??$uninitialize_environment_internal@_W@@YAXAEAPEAPEA_W@Z 0000000180017760 f   libucrt:environment_initialization.obj
 0001:000167bc       ??$?RV<lambda_638799b9deba96c50f710eeac98168cd>@@AEAV<lambda_22ebabd17bc4fa466a2aca6d8deb888d>@@V<lambda_a6f7d7db0129f75315ebf26d50c089f1>@@@?$__crt_seh_guarded_call@H@@QEAAH$$QEAV<lambda_638799b9deba96c50f710eeac98168cd>@@AEAV<lambda_22ebabd17bc4fa466a2aca6d8deb888d>@@$$QEAV<lambda_a6f7d7db0129f75315ebf26d50c089f1>@@@Z 00000001800177bc f   libucrt:onexit.obj
 0001:000167f8       ??$?RV<lambda_7777bce6b2f8c936911f934f8298dc43>@@AEAV<lambda_f03950bc5685219e0bcd2087efbe011e>@@V<lambda_3883c3dff614d5e0c5f61bb1ac94921c>@@@?$__crt_seh_guarded_call@H@@QEAAH$$QEAV<lambda_7777bce6b2f8c936911f934f8298dc43>@@AEAV<lambda_f03950bc5685219e0bcd2087efbe011e>@@$$QEAV<lambda_3883c3dff614d5e0c5f61bb1ac94921c>@@@Z 00000001800177f8 f   libucrt:onexit.obj
 0001:00016834       ??R<lambda_22ebabd17bc4fa466a2aca6d8deb888d>@@QEBAHXZ 0000000180017834 f   libucrt:onexit.obj
 0001:000169e4       ??R<lambda_f03950bc5685219e0bcd2087efbe011e>@@QEBAHXZ 00000001800179e4 f   libucrt:onexit.obj
 0001:00016bb8       initialize_global_variables 0000000180017bb8 f   libucrt:initialization.obj
 0001:00016bcc       initialize_c               0000000180017bcc f   libucrt:initialization.obj
 0001:00016bf0       initialize_environment     0000000180017bf0 f   libucrt:initialization.obj
 0001:00016bf0       initialize_global_state_isolation 0000000180017bf0 f   libucrt:initialization.obj
 0001:00016bf0       report_memory_leaks        0000000180017bf0 f   libucrt:initialization.obj
 0001:00016bf0       uninitialize_c             0000000180017bf0 f   libucrt:initialization.obj
 0001:00016bf0       uninitialize_global_state_isolation 0000000180017bf0 f   libucrt:initialization.obj
 0001:00016bf4       uninitialize_environment   0000000180017bf4 f   libucrt:initialization.obj
 0001:00016c04       initialize_pointers        0000000180017c04 f   libucrt:initialization.obj
 0001:00016c44       uninitialize_vcruntime     0000000180017c44 f   libucrt:initialization.obj
 0001:00016c4c       uninitialize_allocated_memory 0000000180017c4c f   libucrt:initialization.obj
 0001:00016c8c       uninitialize_allocated_io_buffers 0000000180017c8c f   libucrt:initialization.obj
 0001:00017600       $$000000                   0000000180018600     libucrt:strncmp.obj
 0001:000176fc       ??$?RV<lambda_0ae27a3a962d80f24befdcbee591983d>@@AEAV<lambda_8d0ee55de4b1038c4002e0adecdf1839>@@V<lambda_dc504788e8f1664fe9b84e20bfb512f2>@@@?$__crt_seh_guarded_call@X@@QEAAX$$QEAV<lambda_0ae27a3a962d80f24befdcbee591983d>@@AEAV<lambda_8d0ee55de4b1038c4002e0adecdf1839>@@$$QEAV<lambda_dc504788e8f1664fe9b84e20bfb512f2>@@@Z 00000001800186fc f   libucrt:per_thread_data.obj
 0001:0001773c       ??$?RV<lambda_2d41944a1d46af3157314b8a01080d33>@@AEAV<lambda_8f455de75cd7d7f24b4096f044d8b9e6>@@V<lambda_aa500f224e6afead328df44964fe2772>@@@?$__crt_seh_guarded_call@X@@QEAAX$$QEAV<lambda_2d41944a1d46af3157314b8a01080d33>@@AEAV<lambda_8f455de75cd7d7f24b4096f044d8b9e6>@@$$QEAV<lambda_aa500f224e6afead328df44964fe2772>@@@Z 000000018001873c f   libucrt:per_thread_data.obj
 0001:0001777c       ??$?RV<lambda_aa87e3671a710a21b5dc78c0bdf72e11>@@AEAV<lambda_92619d2358a28f41a33ba319515a20b9>@@V<lambda_6992ecaafeb10aed2b74cb1fae11a551>@@@?$__crt_seh_guarded_call@X@@QEAAX$$QEAV<lambda_aa87e3671a710a21b5dc78c0bdf72e11>@@AEAV<lambda_92619d2358a28f41a33ba319515a20b9>@@$$QEAV<lambda_6992ecaafeb10aed2b74cb1fae11a551>@@@Z 000000018001877c f   libucrt:per_thread_data.obj
 0001:000177c4       ??$?RV<lambda_f2e299630e499de9f9a165e60fcd3db5>@@AEAV<lambda_2ae9d31cdba2644fcbeaf08da7c24588>@@V<lambda_40d01ff24d0e7b3814fdbdcee8eab3c7>@@@?$__crt_seh_guarded_call@X@@QEAAX$$QEAV<lambda_f2e299630e499de9f9a165e60fcd3db5>@@AEAV<lambda_2ae9d31cdba2644fcbeaf08da7c24588>@@$$QEAV<lambda_40d01ff24d0e7b3814fdbdcee8eab3c7>@@@Z 00000001800187c4 f   libucrt:per_thread_data.obj
 0001:00017824       ?construct_ptd_array@@YAXQEAU__acrt_ptd@@@Z 0000000180018824 f   libucrt:per_thread_data.obj
 0001:000178f4       ?destroy_fls@@YAXPEAX@Z    00000001800188f4 f   libucrt:per_thread_data.obj
 0001:00017914       ?destroy_ptd_array@@YAXQEAU__acrt_ptd@@@Z 0000000180018914 f   libucrt:per_thread_data.obj
 0001:00017a0c       ?replace_current_thread_locale_nolock@@YAXQEAU__acrt_ptd@@QEAU__crt_locale_data@@@Z 0000000180018a0c f   libucrt:per_thread_data.obj
 0001:00017ef0       ?try_get_function@@YAPEAXW4function_id@?A0x391cf84c@@QEBDQEBW4module_id@2@2@Z 0000000180018ef0 f   libucrt:winapi_thunks.obj
 0001:000188c0       ?fp_format_a@@YAHQEBNPEAD_KQEAD2H_NIQEAU__crt_locale_pointers@@W4__acrt_rounding_mode@@@Z 00000001800198c0 f   libucrt:cvt.obj
 0001:00018c40       ?fp_format_e@@YAHQEBNQEAD_K12H_NIQEAU__crt_locale_pointers@@W4__acrt_rounding_mode@@@Z 0000000180019c40 f   libucrt:cvt.obj
 0001:00018d30       ?fp_format_e_internal@@YAHQEAD_KH_NIQEAU_strflt@@2QEAU__crt_locale_pointers@@@Z 0000000180019d30 f   libucrt:cvt.obj
 0001:00018f04       ?fp_format_f_internal@@YAHQEAD_KHQEAU_strflt@@_NQEAU__crt_locale_pointers@@@Z 0000000180019f04 f   libucrt:cvt.obj
 0001:0001906c       ?fp_format_g@@YAHQEBNQEAD_K12H_NIQEAU__crt_locale_pointers@@@Z 000000018001a06c f   libucrt:cvt.obj
 0001:000191ac       ?should_round_up@@YA_NQEBN_KFW4__acrt_rounding_mode@@@Z 000000018001a1ac f   libucrt:cvt.obj
 0001:000197d0       ??$?RV<lambda_410d79af7f07d98d83a3f525b3859a53>@@AEAV<lambda_3e16ef9562a7dcce91392c22ab16ea36>@@V<lambda_38119f0e861e05405d8a144b9b982f0a>@@@?$__crt_seh_guarded_call@X@@QEAAX$$QEAV<lambda_410d79af7f07d98d83a3f525b3859a53>@@AEAV<lambda_3e16ef9562a7dcce91392c22ab16ea36>@@$$QEAV<lambda_38119f0e861e05405d8a144b9b982f0a>@@@Z 000000018001a7d0 f   libucrt:wsetlocale.obj
 0001:0001987c       ?initialize_inherited_file_handles_nolock@@YAXXZ 000000018001a87c f   libucrt:ioinit.obj
 0001:0001996c       ?initialize_stdio_handles_nolock@@YAXXZ 000000018001a96c f   libucrt:ioinit.obj
 0001:00019be8       ?<lambda_invoker_cdecl>@<lambda_a1ce4c8ae42411fd470c77163914f50e>@@CAHPEBX0@Z 000000018001abe8 f   libucrt:argv_wildcards.obj
 0001:00019f00       ??$common_expand_argv_wildcards@D@@YAHQEAPEADQEAPEAPEAD@Z 000000018001af00 f   libucrt:argv_wildcards.obj
 0001:0001a10c       ??$copy_and_add_argument_to_buffer@D@@YAHQEBD0_KAEAV?$argument_list@D@?A0x5f5c8891@@@Z 000000018001b10c f   libucrt:argv_wildcards.obj
 0001:0001a294       ??$expand_argument_wildcards@D@@YAHQEAD0AEAV?$argument_list@D@?A0x5f5c8891@@@Z 000000018001b294 f   libucrt:argv_wildcards.obj
 0001:0001a7e0       ??$?RV<lambda_efdfa57d1f175319df784efa44bb7b81>@@AEAV<lambda_5f0a4c1567f8adc6734073e5d1e1b35c>@@V<lambda_2e8a7d3640ea6ccb4c2413664c2db6fd>@@@?$__crt_seh_guarded_call@X@@QEAAX$$QEAV<lambda_efdfa57d1f175319df784efa44bb7b81>@@AEAV<lambda_5f0a4c1567f8adc6734073e5d1e1b35c>@@$$QEAV<lambda_2e8a7d3640ea6ccb4c2413664c2db6fd>@@@Z 000000018001b7e0 f   libucrt:mbctype.obj
 0001:0001a99c       ?getSystemCP@@YAHH@Z       000000018001b99c f   libucrt:mbctype.obj
 0001:0001aa1c       ?setSBCS@@YAXPEAU__crt_multibyte_data@@@Z 000000018001ba1c f   libucrt:mbctype.obj
 0001:0001aaac       ?setSBUpLow@@YAXPEAU__crt_multibyte_data@@@Z 000000018001baac f   libucrt:mbctype.obj
 0001:0001ac90       ?setmbcp_internal@@YAHH_NQEAU__acrt_ptd@@QEAPEAU__crt_multibyte_data@@@Z 000000018001bc90 f   libucrt:mbctype.obj
 0001:0001ae50       ?update_thread_multibyte_data_internal@@YAPEAU__crt_multibyte_data@@QEAU__acrt_ptd@@QEAPEAU1@@Z 000000018001be50 f   libucrt:mbctype.obj
 0001:0001b240       ?x_ismbbtype_l@@YAHPEAU__crt_locale_pointers@@IHH@Z 000000018001c240 f   libucrt:ismbbyte.obj
 0001:0001b5e8       ??$?RV<lambda_450d765d439847d4c735a33c368b5fc0>@@AEAV<lambda_44731a7d0e6d81c3e6aa82d741081786>@@V<lambda_601a2a7da3b7a96e9554ac7215c4b07c>@@@?$__crt_seh_guarded_call@P6AXH@Z@@QEAAP6AXH@Z$$QEAV<lambda_450d765d439847d4c735a33c368b5fc0>@@AEAV<lambda_44731a7d0e6d81c3e6aa82d741081786>@@$$QEAV<lambda_601a2a7da3b7a96e9554ac7215c4b07c>@@@Z 000000018001c5e8 f   libucrt:signal.obj
 0001:0001b944       ??$?RV<lambda_842d9ff0dc9ef11c61343bbaebe7f885>@@AEAV<lambda_c5860995281e5c4ce005b3de8f5874ee>@@V<lambda_d90129c13df834fdcbf8d2b88dafcf2d>@@@?$__crt_seh_guarded_call@X@@QEAAX$$QEAV<lambda_842d9ff0dc9ef11c61343bbaebe7f885>@@AEAV<lambda_c5860995281e5c4ce005b3de8f5874ee>@@$$QEAV<lambda_d90129c13df834fdcbf8d2b88dafcf2d>@@@Z 000000018001c944 f   libucrt:fflush.obj
 0001:0001b9e0       ??$?RV<lambda_886d6c58226a84441f68b9f2b8217b83>@@AEAV<lambda_ab61a845afdef5b7c387490eaf3616ee>@@V<lambda_f7f22ab5edc0698d5f6905b0d3f44752>@@@?$__crt_seh_guarded_call@X@@QEAAX$$QEAV<lambda_886d6c58226a84441f68b9f2b8217b83>@@AEAV<lambda_ab61a845afdef5b7c387490eaf3616ee>@@$$QEAV<lambda_f7f22ab5edc0698d5f6905b0d3f44752>@@@Z 000000018001c9e0 f   libucrt:fflush.obj
 0001:0001bac0       ?common_flush_all@@YAH_N@Z 000000018001cac0 f   libucrt:fflush.obj
 0001:0001db10       memcpy_s                   000000018001eb10 f   libucrt:cfout.obj
 0001:0001de78       ?free_crt_array_internal@@YAXQEAPEBX_K@Z 000000018001ee78 f   libucrt:inittime.obj
 0001:0001e904       fallbackMethod             000000018001f904 f   libucrt:strpbrk.obj
 0001:0001ecbc       $LN78                      000000018001fcbc     libucrt:strpbrk.obj
 0001:0001ecf8       $LN77                      000000018001fcf8     libucrt:strpbrk.obj
 0001:0001ed38       $LN76                      000000018001fd38     libucrt:strpbrk.obj
 0001:0001ee14       ?__acrt_LCMapStringA_stat@@YAHPEAU__crt_locale_pointers@@PEB_WKPEBDHPEADHHH@Z 000000018001fe14 f   libucrt:lcmapstringa.obj
 0001:0001f1c4       ?initialize_multibyte@@YAHXZ 00000001800201c4 f   libucrt:multibyte_initializer.obj
 0001:0001f1dc       ??$?RV<lambda_a37b2b86f63e897a80ea819b0eb08c01>@@AEAV<lambda_38ce7e780aa69e748d6df282ebc68efe>@@V<lambda_99fb1378e971ab6e7edea83e3a7a83a2>@@@?$__crt_seh_guarded_call@H@@QEAAH$$QEAV<lambda_a37b2b86f63e897a80ea819b0eb08c01>@@AEAV<lambda_38ce7e780aa69e748d6df282ebc68efe>@@$$QEAV<lambda_99fb1378e971ab6e7edea83e3a7a83a2>@@@Z 00000001800201dc f   libucrt:commit.obj
 0001:0001f2fc       ?write_double_translated_ansi_nolock@@YA?AUwrite_result@?A0x17268360@@HQEBDI@Z 00000001800202fc f   libucrt:write.obj
 0001:0001f7e8       ?write_text_ansi_nolock@@YA?AUwrite_result@?A0x17268360@@HQEBDI@Z 00000001800207e8 f   libucrt:write.obj
 0001:0001f8ec       ?write_text_utf16le_nolock@@YA?AUwrite_result@?A0x17268360@@HQEBDI@Z 00000001800208ec f   libucrt:write.obj
 0001:0001fa08       ?write_text_utf8_nolock@@YA?AUwrite_result@?A0x17268360@@HQEBDI@Z 0000000180020a08 f   libucrt:write.obj
 0001:00020360       $$000000                   0000000180021360     libucrt:log10.obj
 0001:00020c2c       ??$common_lseek_nolock@_J@@YA_JH_JH@Z 0000000180021c2c f   libucrt:lseek.obj
 0001:00020e8c       common_control87           0000000180021e8c f   libucrt:ieee.obj
 0001:0002114c       _call_matherr              000000018002214c f   libucrt:libm_error.obj
 0001:000211b4       _exception_enabled         00000001800221b4 f   libucrt:libm_error.obj
 0001:00021450       _log_special_common        0000000180022450 f   libucrt:log_special.obj
 0001:000214e8       ??$?RV<lambda_751a882b2c74d4b022dec766aa51a29a>@@AEAV<lambda_628dfdc04ba53c8bfc02c9951375f3f5>@@V<lambda_f6c7be5f7998530c34de24c7437d6b54>@@@?$__crt_seh_guarded_call@H@@QEAAH$$QEAV<lambda_751a882b2c74d4b022dec766aa51a29a>@@AEAV<lambda_628dfdc04ba53c8bfc02c9951375f3f5>@@$$QEAV<lambda_f6c7be5f7998530c34de24c7437d6b54>@@@Z 00000001800224e8 f   libucrt:close.obj
 0001:00021810       $$000000                   0000000180022810     libucrt:fpsr.obj
 0001:00021eb0       $$000000                   0000000180022eb0     LIBCMT:guard_dispatch.obj
 0001:00021ed0       $$000000                   0000000180022ed0     LIBCMT:guard_xfg_dispatch.obj
 0001:00021ef0       ?filt$0@?0??_AtlVerifyStackAvailable@_ATL_SAFE_ALLOCA_IMPL@ATL@@YA_N_K@Z@4HA 0000000180022ef0 f   Scale.obj
 0001:00021f11       __scrt_is_nonwritable_in_current_image$filt$0 0000000180022f11 f   LIBCMT:utility.obj
 0001:00021f29       ?catch$0@?0???2@YAPEAX_KAEBUnothrow_t@std@@@Z@4HA 0000000180022f29 f   LIBCMT:new_scalar_nothrow.obj
 0001:00021f36       __catch$??2@YAPEAX_KAEBUnothrow_t@std@@@Z$0 0000000180022f36 f   LIBCMT:new_scalar_nothrow.obj
 0001:00021f47       ?fin$0@?0??dllmain_crt_process_attach@@YAHQEAUHINSTANCE__@@QEAX@Z@4HA 0000000180022f47 f   LIBCMT:dll_dllmain.obj
 0001:00021f5e       ?fin$0@?0??dllmain_crt_process_detach@@YAH_N@Z@4HA 0000000180022f5e f   LIBCMT:dll_dllmain.obj
 0001:00021f77       ?fin$1@?0??dllmain_crt_process_detach@@YAH_N@Z@4HA 0000000180022f77 f   LIBCMT:dll_dllmain.obj
 0001:00021f8b       ?filt$0@?0??dllmain_dispatch@@YAHQEAUHINSTANCE__@@KQEAX@Z@4HA 0000000180022f8b f   LIBCMT:dll_dllmain.obj
 0001:00021fc1       ?filt$0@?0???$_CallSETranslator@V__FrameHandler4@@@@YAHPEAUEHExceptionRecord@@PEA_KPEAU_CONTEXT@@PEAU_xDISPATCHER_CONTEXT@@PEAUFuncInfo4@FH4@@K1H@Z@4HA 0000000180022fc1 f   libvcruntime:risctrnsctrl.obj
 0001:00022060       __DestructExceptionObject$filt$0 0000000180023060 f   libvcruntime:ehhelpers.obj
 0001:000220f6       ?filt$0@?0??CxxCallCatchBlock@__FrameHandler4@@SAPEAXPEAU_EXCEPTION_RECORD@@@Z@4HA 00000001800230f6 f   libvcruntime:frame.obj
 0001:00022125       ?fin$1@?0??CxxCallCatchBlock@__FrameHandler4@@SAPEAXPEAU_EXCEPTION_RECORD@@@Z@4HA 0000000180023125 f   libvcruntime:frame.obj
 0001:000221a8       ?filt$0@?0??FrameUnwindToState@__FrameHandler4@@SAXPEA_KPEAU_xDISPATCHER_CONTEXT@@PEAUFuncInfo4@FH4@@H@Z@4HA 00000001800231a8 f   libvcruntime:frame.obj
 0001:000221be       ?fin$1@?0??FrameUnwindToState@__FrameHandler4@@SAXPEA_KPEAU_xDISPATCHER_CONTEXT@@PEAUFuncInfo4@FH4@@H@Z@4HA 00000001800231be f   libvcruntime:frame.obj
 0001:000221e1       ?fin$0@?0???$?RV<lambda_0ae27a3a962d80f24befdcbee591983d>@@AEAV<lambda_8d0ee55de4b1038c4002e0adecdf1839>@@V<lambda_dc504788e8f1664fe9b84e20bfb512f2>@@@?$__crt_seh_guarded_call@X@@QEAAX$$QEAV<lambda_0ae27a3a962d80f24befdcbee591983d>@@AEAV<lambda_8d0ee55de4b1038c4002e0adecdf1839>@@$$QEAV<lambda_dc504788e8f1664fe9b84e20bfb512f2>@@@Z@4HA 00000001800231e1 f   libucrt:per_thread_data.obj
 0001:000221e1       ?fin$0@?0???$?RV<lambda_2d41944a1d46af3157314b8a01080d33>@@AEAV<lambda_8f455de75cd7d7f24b4096f044d8b9e6>@@V<lambda_aa500f224e6afead328df44964fe2772>@@@?$__crt_seh_guarded_call@X@@QEAAX$$QEAV<lambda_2d41944a1d46af3157314b8a01080d33>@@AEAV<lambda_8f455de75cd7d7f24b4096f044d8b9e6>@@$$QEAV<lambda_aa500f224e6afead328df44964fe2772>@@@Z@4HA 00000001800231e1 f   libucrt:per_thread_data.obj
 0001:000221e1       ?fin$0@?0???$?RV<lambda_aa87e3671a710a21b5dc78c0bdf72e11>@@AEAV<lambda_92619d2358a28f41a33ba319515a20b9>@@V<lambda_6992ecaafeb10aed2b74cb1fae11a551>@@@?$__crt_seh_guarded_call@X@@QEAAX$$QEAV<lambda_aa87e3671a710a21b5dc78c0bdf72e11>@@AEAV<lambda_92619d2358a28f41a33ba319515a20b9>@@$$QEAV<lambda_6992ecaafeb10aed2b74cb1fae11a551>@@@Z@4HA 00000001800231e1 f   libucrt:per_thread_data.obj
 0001:000221e1       ?fin$0@?0???$?RV<lambda_f2e299630e499de9f9a165e60fcd3db5>@@AEAV<lambda_2ae9d31cdba2644fcbeaf08da7c24588>@@V<lambda_40d01ff24d0e7b3814fdbdcee8eab3c7>@@@?$__crt_seh_guarded_call@X@@QEAAX$$QEAV<lambda_f2e299630e499de9f9a165e60fcd3db5>@@AEAV<lambda_2ae9d31cdba2644fcbeaf08da7c24588>@@$$QEAV<lambda_40d01ff24d0e7b3814fdbdcee8eab3c7>@@@Z@4HA 00000001800231e1 f   libucrt:per_thread_data.obj
 0001:000221e1       ?fin$0@?0???$?RV<lambda_efdfa57d1f175319df784efa44bb7b81>@@AEAV<lambda_5f0a4c1567f8adc6734073e5d1e1b35c>@@V<lambda_2e8a7d3640ea6ccb4c2413664c2db6fd>@@@?$__crt_seh_guarded_call@X@@QEAAX$$QEAV<lambda_efdfa57d1f175319df784efa44bb7b81>@@AEAV<lambda_5f0a4c1567f8adc6734073e5d1e1b35c>@@$$QEAV<lambda_2e8a7d3640ea6ccb4c2413664c2db6fd>@@@Z@4HA 00000001800231e1 f   libucrt:mbctype.obj
 0001:000221e1       ?fin$0@?0???$?RV<lambda_450d765d439847d4c735a33c368b5fc0>@@AEAV<lambda_44731a7d0e6d81c3e6aa82d741081786>@@V<lambda_601a2a7da3b7a96e9554ac7215c4b07c>@@@?$__crt_seh_guarded_call@P6AXH@Z@@QEAAP6AXH@Z$$QEAV<lambda_450d765d439847d4c735a33c368b5fc0>@@AEAV<lambda_44731a7d0e6d81c3e6aa82d741081786>@@$$QEAV<lambda_601a2a7da3b7a96e9554ac7215c4b07c>@@@Z@4HA 00000001800231e1 f   libucrt:signal.obj
 0001:000221e1       ?fin$0@?0???$?RV<lambda_d80eeec6fff315bfe5c115232f3240e3>@@AEAV<lambda_6e4b09c48022b2350581041d5f6b0c4c>@@V<lambda_2358e3775559c9db80273638284d5e45>@@@?$__crt_seh_guarded_call@X@@QEAAX$$QEAV<lambda_d80eeec6fff315bfe5c115232f3240e3>@@AEAV<lambda_6e4b09c48022b2350581041d5f6b0c4c>@@$$QEAV<lambda_2358e3775559c9db80273638284d5e45>@@@Z@4HA 00000001800231e1 f   libucrt:exit.obj
 0001:000221e1       ?fin$0@?0???$?RV<lambda_638799b9deba96c50f710eeac98168cd>@@AEAV<lambda_22ebabd17bc4fa466a2aca6d8deb888d>@@V<lambda_a6f7d7db0129f75315ebf26d50c089f1>@@@?$__crt_seh_guarded_call@H@@QEAAH$$QEAV<lambda_638799b9deba96c50f710eeac98168cd>@@AEAV<lambda_22ebabd17bc4fa466a2aca6d8deb888d>@@$$QEAV<lambda_a6f7d7db0129f75315ebf26d50c089f1>@@@Z@4HA 00000001800231e1 f   libucrt:onexit.obj
 0001:000221e1       ?fin$0@?0???$?RV<lambda_7777bce6b2f8c936911f934f8298dc43>@@AEAV<lambda_f03950bc5685219e0bcd2087efbe011e>@@V<lambda_3883c3dff614d5e0c5f61bb1ac94921c>@@@?$__crt_seh_guarded_call@H@@QEAAH$$QEAV<lambda_7777bce6b2f8c936911f934f8298dc43>@@AEAV<lambda_f03950bc5685219e0bcd2087efbe011e>@@$$QEAV<lambda_3883c3dff614d5e0c5f61bb1ac94921c>@@@Z@4HA 00000001800231e1 f   libucrt:onexit.obj
 0001:000221fb       ?filt$0@?0???R<lambda_6e4b09c48022b2350581041d5f6b0c4c>@@QEBA@XZ@4HA 00000001800231fb f   libucrt:exit.obj
 0001:00022216       _query_new_handler$fin$0   0000000180023216 f   libucrt:new_handler.obj
 0001:0002222c       ?fin$0@?0???$?RV<lambda_410d79af7f07d98d83a3f525b3859a53>@@AEAV<lambda_3e16ef9562a7dcce91392c22ab16ea36>@@V<lambda_38119f0e861e05405d8a144b9b982f0a>@@@?$__crt_seh_guarded_call@X@@QEAAX$$QEAV<lambda_410d79af7f07d98d83a3f525b3859a53>@@AEAV<lambda_3e16ef9562a7dcce91392c22ab16ea36>@@$$QEAV<lambda_38119f0e861e05405d8a144b9b982f0a>@@@Z@4HA 000000018002322c f   libucrt:wsetlocale.obj
 0001:00022246       __acrt_initialize_lowio$fin$0 0000000180023246 f   libucrt:ioinit.obj
 0001:00022246       __acrt_lowio_ensure_fh_exists$fin$0 0000000180023246 f   libucrt:osfinfo.obj
 0001:0002225f       ?fin$0@?0??update_thread_multibyte_data_internal@@YAPEAU__crt_multibyte_data@@QEAU__acrt_ptd@@QEAPEAU1@@Z@4HA 000000018002325f f   libucrt:mbctype.obj
 0001:00022278       raise$fin$0                0000000180023278 f   libucrt:signal.obj
 0001:00022299       ?fin$0@?0???$?RV<lambda_842d9ff0dc9ef11c61343bbaebe7f885>@@AEAV<lambda_c5860995281e5c4ce005b3de8f5874ee>@@V<lambda_d90129c13df834fdcbf8d2b88dafcf2d>@@@?$__crt_seh_guarded_call@X@@QEAAX$$QEAV<lambda_842d9ff0dc9ef11c61343bbaebe7f885>@@AEAV<lambda_c5860995281e5c4ce005b3de8f5874ee>@@$$QEAV<lambda_d90129c13df834fdcbf8d2b88dafcf2d>@@@Z@4HA 0000000180023299 f   libucrt:fflush.obj
 0001:000222b4       ?fin$0@?0???$?RV<lambda_886d6c58226a84441f68b9f2b8217b83>@@AEAV<lambda_ab61a845afdef5b7c387490eaf3616ee>@@V<lambda_f7f22ab5edc0698d5f6905b0d3f44752>@@@?$__crt_seh_guarded_call@X@@QEAAX$$QEAV<lambda_886d6c58226a84441f68b9f2b8217b83>@@AEAV<lambda_ab61a845afdef5b7c387490eaf3616ee>@@$$QEAV<lambda_f7f22ab5edc0698d5f6905b0d3f44752>@@@Z@4HA 00000001800232b4 f   libucrt:fflush.obj
 0001:000222d1       __acrt_update_thread_locale_data$fin$0 00000001800232d1 f   libucrt:locale_refcounting.obj
 0001:000222ea       _fcloseall$fin$0           00000001800232ea f   libucrt:closeall.obj
 0001:00022303       ?fin$0@?0???$?RV<lambda_751a882b2c74d4b022dec766aa51a29a>@@AEAV<lambda_628dfdc04ba53c8bfc02c9951375f3f5>@@V<lambda_f6c7be5f7998530c34de24c7437d6b54>@@@?$__crt_seh_guarded_call@H@@QEAAH$$QEAV<lambda_751a882b2c74d4b022dec766aa51a29a>@@AEAV<lambda_628dfdc04ba53c8bfc02c9951375f3f5>@@$$QEAV<lambda_f6c7be5f7998530c34de24c7437d6b54>@@@Z@4HA 0000000180023303 f   libucrt:close.obj
 0001:00022303       ?fin$0@?0???$?RV<lambda_a37b2b86f63e897a80ea819b0eb08c01>@@AEAV<lambda_38ce7e780aa69e748d6df282ebc68efe>@@V<lambda_99fb1378e971ab6e7edea83e3a7a83a2>@@@?$__crt_seh_guarded_call@H@@QEAAH$$QEAV<lambda_a37b2b86f63e897a80ea819b0eb08c01>@@AEAV<lambda_38ce7e780aa69e748d6df282ebc68efe>@@$$QEAV<lambda_99fb1378e971ab6e7edea83e3a7a83a2>@@@Z@4HA 0000000180023303 f   libucrt:commit.obj
 0001:0002231d       _write$fin$0               000000018002331d f   libucrt:write.obj
 0001:00022334       fclose$fin$0               0000000180023334 f   libucrt:fclose.obj
 0001:0002234c       _ctrlfp$filt$0             000000018002334c f   libucrt:fpctrl.obj
 0001:0002234c       common_control87$filt$0    000000018002334c f   libucrt:ieee.obj
 0001:00022380       _IsNonwritableInCurrentImage$filt$0 0000000180023380 f   LIBCMT:pesect.obj
 0001:000223a0       ??__F_AtlComModule@ATL@@YAXXZ 00000001800233a0 f   OposVariant.obj
 0001:000223ac       ??__F_AtlWinModule@ATL@@YAXXZ 00000001800233ac f   OposVariant.obj
 0001:000223f0       ??__F_Module@@YAXXZ        00000001800233f0 f   Scale.obj
 0001:0002240c       ??__F_AtlBaseModule@ATL@@YAXXZ 000000018002340c f   atls:atlbase.obj
 0002:00000648       ?_AtlBaseModule$initializer$@ATL@@3P6AXXZEA 0000000180024648     atls:atlbase.obj
 0002:00000650       ?_AtlComModule$initializer$@ATL@@3P6AXXZEA 0000000180024650     OposVariant.obj
 0002:00000658       ?_AtlWinModule$initializer$@ATL@@3P6AXXZEA 0000000180024658     OposVariant.obj
 0002:00000660       ?_Module$initializer$@@3P6AXXZEA 0000000180024660     Scale.obj
 0002:00000668       ??pConnMap$initializer$@?$IConnectionPointContainerImpl@VCOPOSScale@@@ATL@@0P6AXXZEA@@3P6AXXZEA 0000000180024668     Scale.obj
 0002:00000680       ?__scrt_initialize_tss_var@@3P6AHXZEA 0000000180024680     LIBCMT:thread_safe_statics.obj
 0002:000029a8       GS_ExceptionPointers       00000001800269a8     LIBCMT:gs_report.obj
 0002:00002b90       ?ExceptionTemplate@?1??UnwindNestedFrames@__FrameHandler4@@SAXPEA_KPEAUEHExceptionRecord@@PEAU_CONTEXT@@0PEAXPEAUFuncInfo4@FH4@@HHPEAUHandlerType4@6@PEAU_xDISPATCHER_CONTEXT@@E@Z@4U_EXCEPTION_RECORD@@B 0000000180026b90     libvcruntime:risctrnsctrl.obj
 0002:00002c60       ?tokenTable@@3QBUStringLiteral@@B 0000000180026c60     libvcruntime:undname.obj
 0002:00002d60       ?nameTable@@3QBUStringLiteral@@B 0000000180026d60     libvcruntime:undname.obj
 0002:00003290       ?rttiTable@@3QBUStringLiteral@@B 0000000180027290     libvcruntime:undname.obj
 0002:000032e0       ?IndirectionName@@3QBUStringLiteral@@B 00000001800272e0     libvcruntime:undname.obj
 0002:00003340       ?PrefixName@@3QBUStringLiteral@@B 0000000180027340     libvcruntime:undname.obj
 0002:00003a18       ?module_names@?A0x5302d918@@3QBQEB_WB 0000000180027a18     libvcruntime:winapi_downlevel.obj
 0002:00003ad8       ?candidate_modules@?1??try_get_FlsAlloc@@YAP6AKP6AXPEAX@Z@ZXZ@4QBW4module_id@?A0x5302d918@@B 0000000180027ad8     libvcruntime:winapi_downlevel.obj
 0002:00003af0       ?candidate_modules@?1??try_get_FlsFree@@YAP6AHK@ZXZ@4QBW4module_id@?A0x5302d918@@B 0000000180027af0     libvcruntime:winapi_downlevel.obj
 0002:00003b00       ?candidate_modules@?1??try_get_FlsGetValue@@YAP6APEAXK@ZXZ@4QBW4module_id@?A0x5302d918@@B 0000000180027b00     libvcruntime:winapi_downlevel.obj
 0002:00003b18       ?candidate_modules@?1??try_get_FlsSetValue@@YAP6AHKPEAX@ZXZ@4QBW4module_id@?A0x5302d918@@B 0000000180027b18     libvcruntime:winapi_downlevel.obj
 0002:00003b30       ?candidate_modules@?1??try_get_InitializeCriticalSectionEx@@YAP6AHPEAU_RTL_CRITICAL_SECTION@@KK@ZXZ@4QBW4module_id@?A0x5302d918@@B 0000000180027b30     libvcruntime:winapi_downlevel.obj
 0002:00003b60       ?errtable@@3QBUerrentry@?A0x31fdb9ec@@B 0000000180027b60     libucrt:errno.obj
 0002:000041f0       __acrt_initializers        00000001800281f0     libucrt:initialization.obj
 0002:000042f0       ?module_names@?A0x391cf84c@@3QBQEB_WB 00000001800282f0     libucrt:winapi_thunks.obj
 0002:000047f8       ?candidate_modules@?1??try_get_AreFileApisANSI@@YAP6AHXZXZ@4QBW4module_id@?A0x391cf84c@@B 00000001800287f8     libucrt:winapi_thunks.obj
 0002:00004810       ?candidate_modules@?1??try_get_FlsAlloc@@YAP6AKP6AXPEAX@Z@ZXZ@4QBW4module_id@?A0x391cf84c@@B 0000000180028810     libucrt:winapi_thunks.obj
 0002:00004818       ?candidate_modules@?1??try_get_FlsFree@@YAP6AHK@ZXZ@4QBW4module_id@?A0x391cf84c@@B 0000000180028818     libucrt:winapi_thunks.obj
 0002:00004820       ?candidate_modules@?1??try_get_FlsGetValue@@YAP6APEAXK@ZXZ@4QBW4module_id@?A0x391cf84c@@B 0000000180028820     libucrt:winapi_thunks.obj
 0002:00004828       ?candidate_modules@?1??try_get_FlsSetValue@@YAP6AHKPEAX@ZXZ@4QBW4module_id@?A0x391cf84c@@B 0000000180028828     libucrt:winapi_thunks.obj
 0002:00004830       ?candidate_modules@?1??try_get_InitializeCriticalSectionEx@@YAP6AHPEAU_RTL_CRITICAL_SECTION@@KK@ZXZ@4QBW4module_id@?A0x391cf84c@@B 0000000180028830     libucrt:winapi_thunks.obj
 0002:00004838       ?candidate_modules@?1??try_get_LCMapStringEx@@YAP6AHPEB_WK0HPEA_WHPEAU_nlsversioninfo@@PEAX_J@ZXZ@4QBW4module_id@?A0x391cf84c@@B 0000000180028838     libucrt:winapi_thunks.obj
 0002:00004850       ?candidate_modules@?1??try_get_LocaleNameToLCID@@YAP6AKPEB_WK@ZXZ@4QBW4module_id@?A0x391cf84c@@B 0000000180028850     libucrt:winapi_thunks.obj
 0002:0000486c       ?candidate_modules@?1??try_get_AppPolicyGetProcessTerminationMethod@@YAP6AJPEAXPEAW4AppPolicyProcessTerminationMethod@@@ZXZ@4QBW4module_id@?A0x391cf84c@@B 000000018002886c     libucrt:winapi_thunks.obj
 0002:00004898       ?candidate_modules@?1??try_get_SetThreadStackGuarantee@@YAP6AHPEAK@ZXZ@4QBW4module_id@?A0x391cf84c@@B 0000000180028898     libucrt:winapi_thunks.obj
 0002:000048c0       ?strings@?1??fp_format_nan_or_infinity@@YAHW4__acrt_fp_class@@_NPEAD_K1@Z@4QAY03QEBDA 00000001800288c0     libucrt:cvt.obj
 0002:00005020       ?_mb_locale_names@@3QBQEB_WB 0000000180029020     libucrt:mbctype.obj
 0002:00005890       ?LcidToLocaleNameTable@?A0x881e4c05@@3QBULcidToLocaleName@1@B 0000000180029890     libucrt:lcidtoname_downlevel.obj
 0002:000072f0       ?LocaleNameToIndexTable@?A0x881e4c05@@3QBULocaleNameIndex@1@B 000000018002b2f0     libucrt:lcidtoname_downlevel.obj
 0002:00009590       __real_ninf                000000018002d590     libucrt:log10.obj
 0002:000095a0       __real_inf                 000000018002d5a0     libucrt:log10.obj
 0002:000095b0       __real_neg_qnan            000000018002d5b0     libucrt:log10.obj
 0002:000095c0       __real_qnanbit             000000018002d5c0     libucrt:log10.obj
 0002:000095d0       __int_1023                 000000018002d5d0     libucrt:log10.obj
 0002:000095e0       __mask_001                 000000018002d5e0     libucrt:log10.obj
 0002:000095f0       __mask_mant                000000018002d5f0     libucrt:log10.obj
 0002:00009600       __mask_mant_top8           000000018002d600     libucrt:log10.obj
 0002:00009610       __mask_mant9               000000018002d610     libucrt:log10.obj
 0002:00009620       __real_log10_e             000000018002d620     libucrt:log10.obj
 0002:00009630       __real_log10_e_lead        000000018002d630     libucrt:log10.obj
 0002:00009640       __real_log10_e_tail        000000018002d640     libucrt:log10.obj
 0002:00009650       __real_log10_2_lead        000000018002d650     libucrt:log10.obj
 0002:00009660       __real_log10_2_tail        000000018002d660     libucrt:log10.obj
 0002:00009670       __real_two                 000000018002d670     libucrt:log10.obj
 0002:00009680       __real_one                 000000018002d680     libucrt:log10.obj
 0002:00009690       __real_half                000000018002d690     libucrt:log10.obj
 0002:000096a0       __mask_100                 000000018002d6a0     libucrt:log10.obj
 0002:000096b0       __real_1_over_512          000000018002d6b0     libucrt:log10.obj
 0002:000096c0       __real_1_over_2            000000018002d6c0     libucrt:log10.obj
 0002:000096d0       __real_1_over_3            000000018002d6d0     libucrt:log10.obj
 0002:000096e0       __real_1_over_4            000000018002d6e0     libucrt:log10.obj
 0002:000096f0       __real_1_over_5            000000018002d6f0     libucrt:log10.obj
 0002:00009700       __real_1_over_6            000000018002d700     libucrt:log10.obj
 0002:00009710       __real_neg_1023            000000018002d710     libucrt:log10.obj
 0002:00009720       __mask_2045                000000018002d720     libucrt:log10.obj
 0002:00009730       __real_threshold           000000018002d730     libucrt:log10.obj
 0002:00009740       __real_near_one_lt         000000018002d740     libucrt:log10.obj
 0002:00009750       __real_near_one_gt         000000018002d750     libucrt:log10.obj
 0002:00009760       __real_min_norm            000000018002d760     libucrt:log10.obj
 0002:00009770       __real_notsign             000000018002d770     libucrt:log10.obj
 0002:00009780       __real_ca1                 000000018002d780     libucrt:log10.obj
 0002:00009790       __real_ca2                 000000018002d790     libucrt:log10.obj
 0002:000097a0       __real_ca3                 000000018002d7a0     libucrt:log10.obj
 0002:000097b0       __real_ca4                 000000018002d7b0     libucrt:log10.obj
 0002:000097c0       __mask_lower               000000018002d7c0     libucrt:log10.obj
 0002:000097d0       __flag_x_zero              000000018002d7d0     libucrt:log10.obj
 0002:000097d4       __flag_x_neg               000000018002d7d4     libucrt:log10.obj
 0002:000097d8       __flag_x_nan               000000018002d7d8     libucrt:log10.obj
 0002:0000b030       __real@433fffffffffffff    000000018002f030     libucrt:fpsr.obj
 0002:0000b038       __real@c33fffffffffffff    000000018002f038     libucrt:fpsr.obj
 0002:0000b8a0       $unwind$?cw_memcpy@@YAHPEA_WPEBDH@Z 000000018002f8a0     CWString.obj
 0002:0000b8a0       $unwind$?ProcessWindowMessage@?$CComControl@VCOPOSScale@@V?$CWindowImpl@VCOPOSScale@@VCWindow@ATL@@V?$CWinTraits@$0FGAAAAAA@$0A@@3@@ATL@@@ATL@@UEAAHPEAUHWND__@@I_K_JAEA_JK@Z 000000018002f8a0     Scale.obj
 0002:0000b8a0       $unwind$wcstol             000000018002f8a0     libucrt:strtox.obj
 0002:0000b8a0       $unwind$_invalid_parameter_noinfo 000000018002f8a0     libucrt:invalid_parameter.obj
 0002:0000b8a0       $unwind$_log10_special     000000018002f8a0     libucrt:log_special.obj
 0002:0000b8a8       $unwind$?cw_strcpy@@YAHPEA_WPEBD@Z 000000018002f8a8     CWString.obj
 0002:0000b8a8       $unwind$??1OposDispParms@@QEAA@XZ 000000018002f8a8     OposVariant.obj
 0002:0000b8a8       $unwind$??__E_AtlComModule@ATL@@YAXXZ 000000018002f8a8     OposVariant.obj
 0002:0000b8a8       $unwind$??__E_AtlWinModule@ATL@@YAXXZ 000000018002f8a8     OposVariant.obj
 0002:0000b8a8       $unwind$??__F_AtlWinModule@ATL@@YAXXZ 000000018002f8a8     OposVariant.obj
 0002:0000b8a8       $unwind$?GetLONG@OposVariant@@QEAAJXZ 000000018002f8a8     OposVariant.obj
 0002:0000b8a8       $unwind$??__E?pConnMap@?$IConnectionPointContainerImpl@VCOPOSScale@@@ATL@@0PEBU_ATL_CONNMAP_ENTRY@2@EB@@YAXXZ 000000018002f8a8     Scale.obj
 0002:0000b8a8       $unwind$?AddReplacement@CRegObject@ATL@@UEAAJPEB_W0@Z 000000018002f8a8     Scale.obj
 0002:0000b8a8       $unwind$?AtlHresultFromLastError@ATL@@YAJXZ 000000018002f8a8     Scale.obj
 0002:0000b8a8       $unwind$?AtlThrowImpl@ATL@@YAXJ@Z 000000018002f8a8     Scale.obj
 0002:0000b8a8       $unwind$?CreateInstance@CComClassFactory@ATL@@UEAAJPEAUIUnknown@@AEBU_GUID@@PEAPEAX@Z 000000018002f8a8     Scale.obj
 0002:0000b8a8       $unwind$?DefaultReflectionHandler@?$CWindowImplRoot@VCWindow@ATL@@@ATL@@SAHPEAUHWND__@@I_K_JAEA_J@Z 000000018002f8a8     Scale.obj
 0002:0000b8a8       $unwind$?EnumAdvise@?$IOleObjectImpl@VCOPOSScale@@@ATL@@UEAAJPEAPEAUIEnumSTATDATA@@@Z 000000018002f8a8     Scale.obj
 0002:0000b8a8       $unwind$?FireViewChange@CComControlBase@ATL@@QEAAJXZ 000000018002f8a8     Scale.obj
 0002:0000b8a8       $unwind$?GetAdvise@?$IViewObjectExImpl@VCOPOSScale@@@ATL@@UEAAJPEAK0PEAPEAUIAdviseSink@@@Z 000000018002f8a8     Scale.obj
 0002:0000b8a8       $unwind$?LockServer@CComClassFactory@ATL@@UEAAJH@Z 000000018002f8a8     Scale.obj
 0002:0000b8a8       $unwind$?OnDocWindowActivate@?$IOleInPlaceActiveObjectImpl@VCOPOSScale@@@ATL@@UEAAJH@Z 000000018002f8a8     Scale.obj
 0002:0000b8a8       $unwind$?Unadvise@?$IOleObjectImpl@VCOPOSScale@@@ATL@@UEAAJK@Z 000000018002f8a8     Scale.obj
 0002:0000b8a8       $unwind$?_LocCPQueryInterface@?$IConnectionPointImpl@VCOPOSScale@@$1?DIID__IOPOSScaleEvents@@3U_GUID@@BVCComDynamicUnkArray@ATL@@@ATL@@UEAAJAEBU_GUID@@PEAPEAX@Z 000000018002f8a8     Scale.obj
 0002:0000b8a8       $unwind$?_LocCPQueryInterface@?$IConnectionPointImpl@VCOPOSScale@@$1?IID_IPropertyNotifySink@@3U_GUID@@BVCComDynamicUnkArray@ATL@@@ATL@@UEAAJAEBU_GUID@@PEAPEAX@Z 000000018002f8a8     Scale.obj
 0002:0000b8a8       $unwind$?FinalConstruct@COPOSScale@@QEAAJXZ 000000018002f8a8     ScaleImpl.obj
 0002:0000b8a8       $unwind$?get_ResultCode@COPOSScale@@UEAAJPEAJ@Z 000000018002f8a8     ScaleImpl.obj
 0002:0000b8a8       $unwind$?get_State@COPOSScale@@UEAAJPEAJ@Z 000000018002f8a8     ScaleImpl.obj
 0002:0000b8a8       $unwind$??__E_AtlBaseModule@ATL@@YAXXZ 000000018002f8a8     atls:atlbase.obj
 0002:0000b8a8       $unwind$__scrt_initialize_default_local_stdio_options 000000018002f8a8     LIBCMT:default_local_stdio_options.obj
 0002:0000b8a8       $unwind$?dllmain_crt_dispatch@@YAHQEAUHINSTANCE__@@KQEAX@Z 000000018002f8a8     LIBCMT:dll_dllmain.obj
 0002:0000b8a8       $unwind$__report_rangecheckfailure 000000018002f8a8     LIBCMT:gs_report.obj
 0002:0000b8a8       $unwind$__GSHandlerCheck   000000018002f8a8     LIBCMT:gshandler.obj
 0002:0000b8a8       $unwind$?__scrt_uninitialize_thread_safe_statics@@YAXXZ 000000018002f8a8     LIBCMT:thread_safe_statics.obj
 0002:0000b8a8       $unwind$_Init_thread_notify 000000018002f8a8     LIBCMT:thread_safe_statics.obj
 0002:0000b8a8       $unwind$__scrt_acquire_startup_lock 000000018002f8a8     LIBCMT:utility.obj
 0002:0000b8a8       $unwind$__scrt_dllmain_after_initialize_c 000000018002f8a8     LIBCMT:utility.obj
 0002:0000b8a8       $unwind$__scrt_dllmain_before_initialize_c 000000018002f8a8     LIBCMT:utility.obj
 0002:0000b8a8       $unwind$__scrt_dllmain_crt_thread_attach 000000018002f8a8     LIBCMT:utility.obj
 0002:0000b8a8       $unwind$__scrt_dllmain_crt_thread_detach 000000018002f8a8     LIBCMT:utility.obj
 0002:0000b8a8       $unwind$__scrt_dllmain_uninitialize_c 000000018002f8a8     LIBCMT:utility.obj
 0002:0000b8a8       $unwind$__scrt_dllmain_uninitialize_critical 000000018002f8a8     LIBCMT:utility.obj
 0002:0000b8a8       $unwind$atexit             000000018002f8a8     LIBCMT:utility.obj
 0002:0000b8a8       $unwind$__vcrt_initialize  000000018002f8a8     libvcruntime:initialization.obj
 0002:0000b8a8       $unwind$__vcrt_thread_attach 000000018002f8a8     libvcruntime:initialization.obj
 0002:0000b8a8       $unwind$__vcrt_thread_detach 000000018002f8a8     libvcruntime:initialization.obj
 0002:0000b8a8       $unwind$__vcrt_uninitialize 000000018002f8a8     libvcruntime:initialization.obj
 0002:0000b8a8       $unwind$__vcrt_uninitialize_critical 000000018002f8a8     libvcruntime:initialization.obj
 0002:0000b8a8       $unwind$__vcrt_initialize_locks 000000018002f8a8     libvcruntime:locks.obj
 0002:0000b8a8       $unwind$__vcrt_freefls     000000018002f8a8     libvcruntime:per_thread_data.obj
 0002:0000b8a8       $unwind$__vcrt_getptd      000000018002f8a8     libvcruntime:per_thread_data.obj
 0002:0000b8a8       $unwind$__vcrt_initialize_ptd 000000018002f8a8     libvcruntime:per_thread_data.obj
 0002:0000b8a8       $unwind$__vcrt_uninitialize_ptd 000000018002f8a8     libvcruntime:per_thread_data.obj
 0002:0000b8a8       $unwind$_purecall          000000018002f8a8     libvcruntime:purevirt.obj
 0002:0000b8a8       $unwind$?FrameUnwindToEmptyState@__FrameHandler4@@SAXPEA_KPEAU_xDISPATCHER_CONTEXT@@PEAUFuncInfo4@FH4@@@Z 000000018002f8a8     libvcruntime:risctrnsctrl.obj
 0002:0000b8a8       $unwind$_GetImageBase      000000018002f8a8     libvcruntime:risctrnsctrl.obj
 0002:0000b8a8       $unwind$_GetThrowImageBase 000000018002f8a8     libvcruntime:risctrnsctrl.obj
 0002:0000b8a8       $unwind$__dcrt_terminate_console_output 000000018002f8a8     libucrt:initcon.obj
 0002:0000b8a8       $unwind$??$uninitialize_environment_internal@D@@YAXAEAPEAPEAD@Z 000000018002f8a8     libucrt:environment_initialization.obj
 0002:0000b8a8       $unwind$??$uninitialize_environment_internal@_W@@YAXAEAPEAPEA_W@Z 000000018002f8a8     libucrt:environment_initialization.obj
 0002:0000b8a8       $unwind$__dcrt_uninitialize_environments_nolock 000000018002f8a8     libucrt:environment_initialization.obj
 0002:0000b8a8       $unwind$__acrt_initialize_heap 000000018002f8a8     libucrt:heap_handle.obj
 0002:0000b8a8       $unwind$_msize_base        000000018002f8a8     libucrt:msize.obj
 0002:0000b8a8       $unwind$?initialize_multibyte@@YAHXZ 000000018002f8a8     libucrt:multibyte_initializer.obj
 0002:0000b8a8       $unwind$__acrt_thread_attach 000000018002f8a8     libucrt:initialization.obj
 0002:0000b8a8       $unwind$__acrt_thread_detach 000000018002f8a8     libucrt:initialization.obj
 0002:0000b8a8       $unwind$__acrt_uninitialize 000000018002f8a8     libucrt:initialization.obj
 0002:0000b8a8       $unwind$__acrt_uninitialize_critical 000000018002f8a8     libucrt:initialization.obj
 0002:0000b8a8       $unwind$initialize_c       000000018002f8a8     libucrt:initialization.obj
 0002:0000b8a8       $unwind$uninitialize_allocated_io_buffers 000000018002f8a8     libucrt:initialization.obj
 0002:0000b8a8       $unwind$uninitialize_environment 000000018002f8a8     libucrt:initialization.obj
 0002:0000b8a8       $unwind$__acrt_initialize_ptd 000000018002f8a8     libucrt:per_thread_data.obj
 0002:0000b8a8       $unwind$__acrt_uninitialize_ptd 000000018002f8a8     libucrt:per_thread_data.obj
 0002:0000b8a8       $unwind$__acrt_AreFileApisANSI 000000018002f8a8     libucrt:winapi_thunks.obj
 0002:0000b8a8       $unwind$__pctype_func      000000018002f8a8     libucrt:ctype.obj
 0002:0000b8a8       $unwind$__acrt_release_locale_ref 000000018002f8a8     libucrt:locale_refcounting.obj
 0002:0000b8a8       $unwind$_isatty            000000018002f8a8     libucrt:isatty.obj
 0002:0000b8a8       $unwind$_get_osfhandle     000000018002f8a8     libucrt:osfinfo.obj
 0002:0000b8a8       $unwind$__acrt_initialize_multibyte 000000018002f8a8     libucrt:mbctype.obj
 0002:0000b8a8       $unwind$__acrt_update_thread_multibyte_data 000000018002f8a8     libucrt:mbctype.obj
 0002:0000b8a8       $unwind$__doserrno         000000018002f8a8     libucrt:errno.obj
 0002:0000b8a8       $unwind$_errno             000000018002f8a8     libucrt:errno.obj
 0002:0000b8a8       $unwind$_invoke_watson     000000018002f8a8     libucrt:invalid_parameter.obj
 0002:0000b8a8       $unwind$abort              000000018002f8a8     libucrt:abort.obj
 0002:0000b8a8       $unwind$__acrt_initialize_command_line 000000018002f8a8     libucrt:argv_data.obj
 0002:0000b8a8       $unwind$_fileno            000000018002f8a8     libucrt:fileno.obj
 0002:0000b8a8       $unwind$?state_case_size@?$output_processor@_WV?$string_output_adapter@_W@__crt_stdio_output@@V?$format_validation_base@_WV?$string_output_adapter@_W@__crt_stdio_output@@@2@@__crt_stdio_output@@AEAA_NXZ 000000018002f8a8     libucrt:output.obj
 0002:0000b8a8       $unwind$_statfp            000000018002f8a8     libucrt:fpctrl.obj
 0002:0000b8a8       $unwind$fegetround         000000018002f8a8     libucrt:fegetround.obj
 0002:0000b8a8       $unwind$_set_errno_from_matherr 000000018002f8a8     libucrt:fpexcept.obj
 0002:0000b8b0       $unwind$?cw_dup@@YAXPEBDAEAHAEAPEA_W1@Z 000000018002f8b0     CWString.obj
 0002:0000b8b0       $unwind$?DAdvise@?$IDataObjectImpl@VCOPOSScale@@@ATL@@UEAAJPEAUtagFORMATETC@@KPEAUIAdviseSink@@PEAK@Z 000000018002f8b0     Scale.obj
 0002:0000b8b0       $unwind$??$__acrt_mbs_to_wcs_cp@U__crt_win32_buffer_internal_dynamic_resizing@@@@YAHQEBDAEAV?$__crt_win32_buffer@_WU__crt_win32_buffer_internal_dynamic_resizing@@@@I@Z 000000018002f8b0     libucrt:argv_wildcards.obj
 0002:0000b8c8       $unwind$?DupWide@_CW@@AEAAXXZ 000000018002f8c8     CWString.obj
 0002:0000b8c8       $unwind$??0CAtlComModule@ATL@@QEAA@XZ 000000018002f8c8     OposVariant.obj
 0002:0000b8c8       $unwind$??0CAtlWinModule@ATL@@QEAA@XZ 000000018002f8c8     OposVariant.obj
 0002:0000b8c8       $unwind$??0?$CComObject@VCOPOSScale@@@ATL@@QEAA@PEAX@Z 000000018002f8c8     Scale.obj
 0002:0000b8c8       $unwind$??0CAtlModule@ATL@@QEAA@XZ 000000018002f8c8     Scale.obj
 0002:0000b8c8       $unwind$??1?$CComObject@VCOPOSScale@@@ATL@@UEAA@XZ 000000018002f8c8     Scale.obj
 0002:0000b8c8       $unwind$??__E_Module@@YAXXZ 000000018002f8c8     Scale.obj
 0002:0000b8c8       $unwind$?AddRef@?$CComObjectCached@VCComClassFactory@ATL@@@ATL@@UEAAKXZ 000000018002f8c8     Scale.obj
 0002:0000b8c8       $unwind$?AllocateHeap@?$CTempBuffer@E$0BAA@VCCRTAllocator@ATL@@@ATL@@AEAAX_K@Z 000000018002f8c8     Scale.obj
 0002:0000b8c8       $unwind$?AllocateHeap@?$CTempBuffer@_W$0BAA@VCCRTAllocator@ATL@@@ATL@@AEAAX_K@Z 000000018002f8c8     Scale.obj
 0002:0000b8c8       $unwind$?AllocateHeap@?$CTempBuffer@_W$0EAA@VCCRTAllocator@ATL@@@ATL@@AEAAX_K@Z 000000018002f8c8     Scale.obj
 0002:0000b8c8       $unwind$?GetClassInfoW@?$IProvideClassInfo2Impl@$1?CLSID_OPOSScale@@3U_GUID@@B$1?DIID__IOPOSScaleEvents@@3U2@B$1?LIBID_OposScale_CCO@@3U2@B$00$0A@VCComTypeInfoHolder@ATL@@@ATL@@UEAAJPEAPEAUITypeInfo@@@Z 000000018002f8c8     Scale.obj
 0002:0000b8c8       $unwind$?GetClientSite@?$IOleObjectImpl@VCOPOSScale@@@ATL@@UEAAJPEAPEAUIOleClientSite@@@Z 000000018002f8c8     Scale.obj
 0002:0000b8c8       $unwind$?GetConnMap@COPOSScale@@SAPEBU_ATL_CONNMAP_ENTRY@ATL@@PEAH@Z 000000018002f8c8     Scale.obj
 0002:0000b8c8       $unwind$?GetTypeInfo@?$IDispatchImpl@UIOPOSScale@@$1?IID_IOPOSScale@@3U_GUID@@B$1?LIBID_OposScale_CCO@@3U3@B$00$0A@VCComTypeInfoHolder@ATL@@@ATL@@UEAAJIKPEAPEAUITypeInfo@@@Z 000000018002f8c8     Scale.obj
 0002:0000b8c8       $unwind$?IOleInPlaceObject_InPlaceDeactivate@CComControlBase@ATL@@QEAAJXZ 000000018002f8c8     Scale.obj
 0002:0000b8c8       $unwind$?IOleObject_SetExtent@CComControlBase@ATL@@QEAAJKPEAUtagSIZE@@@Z 000000018002f8c8     Scale.obj
 0002:0000b8c8       $unwind$?IsEqualObject@?$CComPtrBase@UIOleClientSite@@@ATL@@QEAA_NPEAUIUnknown@@@Z 000000018002f8c8     Scale.obj
 0002:0000b8c8       $unwind$?QueryHitPoint@?$IViewObjectExImpl@VCOPOSScale@@@ATL@@UEAAJKPEBUtagRECT@@UtagPOINT@@JPEAK@Z 000000018002f8c8     Scale.obj
 0002:0000b8c8       $unwind$?QueryInterface@?$CComAggObject@VCOPOSScale@@@ATL@@UEAAJAEBU_GUID@@PEAPEAX@Z 000000018002f8c8     Scale.obj
 0002:0000b8c8       $unwind$?Release@?$CComObjectCached@VCComClassFactory@ATL@@@ATL@@UEAAKXZ 000000018002f8c8     Scale.obj
 0002:0000b8c8       $unwind$?Unadvise@?$IConnectionPointImpl@VCOPOSScale@@$1?DIID__IOPOSScaleEvents@@3U_GUID@@BVCComDynamicUnkArray@ATL@@@ATL@@UEAAJK@Z 000000018002f8c8     Scale.obj
 0002:0000b8c8       $unwind$?Unadvise@?$IConnectionPointImpl@VCOPOSScale@@$1?IID_IPropertyNotifySink@@3U_GUID@@BVCComDynamicUnkArray@ATL@@@ATL@@UEAAJK@Z 000000018002f8c8     Scale.obj
 0002:0000b8c8       $unwind$??1CComControlBase@ATL@@UEAA@XZ 000000018002f8c8     ScaleImpl.obj
 0002:0000b8c8       $unwind$??1COPOSScale@@UEAA@XZ 000000018002f8c8     ScaleImpl.obj
 0002:0000b8c8       $unwind$?EventUninit@COPOSScale@@IEAAXXZ 000000018002f8c8     ScaleImpl.obj
 0002:0000b8c8       $unwind$?FreezeEvents@COPOSScale@@MEAAJH@Z 000000018002f8c8     ScaleImpl.obj
 0002:0000b8c8       $unwind$?SOProcessID@COPOSScale@@UEAAJPEAJ@Z 000000018002f8c8     ScaleImpl.obj
 0002:0000b8c8       $unwind$?get_AsyncMode@COPOSScale@@UEAAJPEAF@Z 000000018002f8c8     ScaleImpl.obj
 0002:0000b8c8       $unwind$?get_AutoDisable@COPOSScale@@UEAAJPEAF@Z 000000018002f8c8     ScaleImpl.obj
 0002:0000b8c8       $unwind$?get_CapCompareFirmwareVersion@COPOSScale@@UEAAJPEAF@Z 000000018002f8c8     ScaleImpl.obj
 0002:0000b8c8       $unwind$?get_CapDisplay@COPOSScale@@UEAAJPEAF@Z 000000018002f8c8     ScaleImpl.obj
 0002:0000b8c8       $unwind$?get_CapDisplayText@COPOSScale@@UEAAJPEAF@Z 000000018002f8c8     ScaleImpl.obj
 0002:0000b8c8       $unwind$?get_CapFreezeValue@COPOSScale@@UEAAJPEAF@Z 000000018002f8c8     ScaleImpl.obj
 0002:0000b8c8       $unwind$?get_CapPriceCalculating@COPOSScale@@UEAAJPEAF@Z 000000018002f8c8     ScaleImpl.obj
 0002:0000b8c8       $unwind$?get_CapReadLiveWeightWithTare@COPOSScale@@UEAAJPEAF@Z 000000018002f8c8     ScaleImpl.obj
 0002:0000b8c8       $unwind$?get_CapSetPriceCalculationMode@COPOSScale@@UEAAJPEAF@Z 000000018002f8c8     ScaleImpl.obj
 0002:0000b8c8       $unwind$?get_CapSetUnitPriceWithWeightUnit@COPOSScale@@UEAAJPEAF@Z 000000018002f8c8     ScaleImpl.obj
 0002:0000b8c8       $unwind$?get_CapSpecialTare@COPOSScale@@UEAAJPEAF@Z 000000018002f8c8     ScaleImpl.obj
 0002:0000b8c8       $unwind$?get_CapStatisticsReporting@COPOSScale@@UEAAJPEAF@Z 000000018002f8c8     ScaleImpl.obj
 0002:0000b8c8       $unwind$?get_CapStatusUpdate@COPOSScale@@UEAAJPEAF@Z 000000018002f8c8     ScaleImpl.obj
 0002:0000b8c8       $unwind$?get_CapTarePriority@COPOSScale@@UEAAJPEAF@Z 000000018002f8c8     ScaleImpl.obj
 0002:0000b8c8       $unwind$?get_CapTareWeight@COPOSScale@@UEAAJPEAF@Z 000000018002f8c8     ScaleImpl.obj
 0002:0000b8c8       $unwind$?get_CapUpdateFirmware@COPOSScale@@UEAAJPEAF@Z 000000018002f8c8     ScaleImpl.obj
 0002:0000b8c8       $unwind$?get_CapUpdateStatistics@COPOSScale@@UEAAJPEAF@Z 000000018002f8c8     ScaleImpl.obj
 0002:0000b8c8       $unwind$?get_CapZeroScale@COPOSScale@@UEAAJPEAF@Z 000000018002f8c8     ScaleImpl.obj
 0002:0000b8c8       $unwind$?get_Claimed@COPOSScale@@UEAAJPEAF@Z 000000018002f8c8     ScaleImpl.obj
 0002:0000b8c8       $unwind$?get_DataEventEnabled@COPOSScale@@UEAAJPEAF@Z 000000018002f8c8     ScaleImpl.obj
 0002:0000b8c8       $unwind$?get_DeviceEnabled@COPOSScale@@UEAAJPEAF@Z 000000018002f8c8     ScaleImpl.obj
 0002:0000b8c8       $unwind$?get_FreezeEvents@COPOSScale@@UEAAJPEAF@Z 000000018002f8c8     ScaleImpl.obj
 0002:0000b8c8       $unwind$?get_ZeroValid@COPOSScale@@UEAAJPEAF@Z 000000018002f8c8     ScaleImpl.obj
 0002:0000b8c8       $unwind$?put_FreezeEvents@COPOSScale@@UEAAJF@Z 000000018002f8c8     ScaleImpl.obj
 0002:0000b8c8       $unwind$??1CAtlBaseModule@ATL@@QEAA@XZ 000000018002f8c8     atls:atlbase.obj
 0002:0000b8c8       $unwind$AtlThunk_AllocateData 000000018002f8c8     atls:atlthunk.obj
 0002:0000b8c8       $unwind$__raise_securityfailure 000000018002f8c8     LIBCMT:gs_report.obj
 0002:0000b8c8       $unwind$??2@YAPEAX_K@Z     000000018002f8c8     LIBCMT:new_scalar.obj
 0002:0000b8c8       $unwind$??_Gtype_info@@UEAAPEAXI@Z 000000018002f8c8     LIBCMT:std_type_info_static.obj
 0002:0000b8c8       $unwind$_Init_thread_footer 000000018002f8c8     LIBCMT:thread_safe_statics.obj
 0002:0000b8c8       $unwind$_Init_thread_header 000000018002f8c8     LIBCMT:thread_safe_statics.obj
 0002:0000b8c8       $unwind$_Init_thread_wait  000000018002f8c8     LIBCMT:thread_safe_statics.obj
 0002:0000b8c8       $unwind$??0bad_alloc@std@@QEAA@AEBV01@@Z 000000018002f8c8     LIBCMT:throw_bad_alloc.obj
 0002:0000b8c8       $unwind$??0bad_array_new_length@std@@QEAA@AEBV01@@Z 000000018002f8c8     LIBCMT:throw_bad_alloc.obj
 0002:0000b8c8       $unwind$??0exception@std@@QEAA@AEBV01@@Z 000000018002f8c8     LIBCMT:throw_bad_alloc.obj
 0002:0000b8c8       $unwind$__scrt_initialize_crt 000000018002f8c8     LIBCMT:utility.obj
 0002:0000b8c8       $unwind$__scrt_initialize_onexit_tables 000000018002f8c8     LIBCMT:utility.obj
 0002:0000b8c8       $unwind$__scrt_release_startup_lock 000000018002f8c8     LIBCMT:utility.obj
 0002:0000b8c8       $unwind$__scrt_uninitialize_crt 000000018002f8c8     LIBCMT:utility.obj
 0002:0000b8c8       $unwind$_onexit            000000018002f8c8     LIBCMT:utility.obj
 0002:0000b8c8       $unwind$_IsExceptionObjectToBeDestroyed 000000018002f8c8     libvcruntime:ehhelpers.obj
 0002:0000b8c8       $unwind$??0HandlerMap4@FH4@@QEAA@PEBUTryBlockMapEntry4@1@_KH@Z 000000018002f8c8     libvcruntime:frame.obj
 0002:0000b8c8       $unwind$??0bad_exception@std@@QEAA@AEBV01@@Z 000000018002f8c8     libvcruntime:frame.obj
 0002:0000b8c8       $unwind$?ExFilterRethrow@@YAHPEAU_EXCEPTION_POINTERS@@PEAUEHExceptionRecord@@PEAH@Z 000000018002f8c8     libvcruntime:frame.obj
 0002:0000b8c8       $unwind$__vcrt_uninitialize_locks 000000018002f8c8     libvcruntime:locks.obj
 0002:0000b8c8       $unwind$__vcrt_freeptd     000000018002f8c8     libvcruntime:per_thread_data.obj
 0002:0000b8c8       $unwind$_CreateFrameInfo   000000018002f8c8     libvcruntime:risctrnsctrl.obj
 0002:0000b8c8       $unwind$_SetImageBase      000000018002f8c8     libvcruntime:risctrnsctrl.obj
 0002:0000b8c8       $unwind$_SetThrowImageBase 000000018002f8c8     libvcruntime:risctrnsctrl.obj
 0002:0000b8c8       $unwind$__std_exception_destroy 000000018002f8c8     libvcruntime:std_exception.obj
 0002:0000b8c8       $unwind$__std_type_info_destroy_list 000000018002f8c8     libvcruntime:std_type_info.obj
 0002:0000b8c8       $unwind$__vcrt_FlsAlloc    000000018002f8c8     libvcruntime:winapi_downlevel.obj
 0002:0000b8c8       $unwind$__vcrt_FlsFree     000000018002f8c8     libvcruntime:winapi_downlevel.obj
 0002:0000b8c8       $unwind$__vcrt_FlsGetValue 000000018002f8c8     libvcruntime:winapi_downlevel.obj
 0002:0000b8c8       $unwind$_calloc_base       000000018002f8c8     libucrt:calloc_base.obj
 0002:0000b8c8       $unwind$_malloc_base       000000018002f8c8     libucrt:malloc_base.obj
 0002:0000b8c8       $unwind$_callnewh          000000018002f8c8     libucrt:new_handler.obj
 0002:0000b8c8       $unwind$initialize_pointers 000000018002f8c8     libucrt:initialization.obj
 0002:0000b8c8       $unwind$uninitialize_allocated_memory 000000018002f8c8     libucrt:initialization.obj
 0002:0000b8c8       $unwind$__acrt_initialize_locks 000000018002f8c8     libucrt:locks.obj
 0002:0000b8c8       $unwind$__acrt_uninitialize_locks 000000018002f8c8     libucrt:locks.obj
 0002:0000b8c8       $unwind$__acrt_freeptd     000000018002f8c8     libucrt:per_thread_data.obj
 0002:0000b8c8       $unwind$__acrt_getptd_head 000000018002f8c8     libucrt:per_thread_data.obj
 0002:0000b8c8       $unwind$__acrt_get_process_end_policy 000000018002f8c8     libucrt:win_policies.obj
 0002:0000b8c8       $unwind$__acrt_AppPolicyGetProcessTerminationMethodInternal 000000018002f8c8     libucrt:winapi_thunks.obj
 0002:0000b8c8       $unwind$__acrt_FlsAlloc    000000018002f8c8     libucrt:winapi_thunks.obj
 0002:0000b8c8       $unwind$__acrt_FlsFree     000000018002f8c8     libucrt:winapi_thunks.obj
 0002:0000b8c8       $unwind$__acrt_FlsGetValue 000000018002f8c8     libucrt:winapi_thunks.obj
 0002:0000b8c8       $unwind$__acrt_SetThreadStackGuarantee 000000018002f8c8     libucrt:winapi_thunks.obj
 0002:0000b8c8       $unwind$__acrt_uninitialize_winapi_thunks 000000018002f8c8     libucrt:winapi_thunks.obj
 0002:0000b8c8       $unwind$__acrt_update_locale_info 000000018002f8c8     libucrt:locale_update.obj
 0002:0000b8c8       $unwind$__acrt_update_multibyte_info 000000018002f8c8     libucrt:locale_update.obj
 0002:0000b8c8       $unwind$__acrt_allocate_buffer_for_argv 000000018002f8c8     libucrt:argv_parsing.obj
 0002:0000b8c8       $unwind$?exit_or_terminate_process@@YAXI@Z 000000018002f8c8     libucrt:exit.obj
 0002:0000b8c8       $unwind$?try_cor_exit_process@@YAXI@Z 000000018002f8c8     libucrt:exit.obj
 0002:0000b8c8       $unwind$__acrt_uninitialize_stdio 000000018002f8c8     libucrt:_file.obj
 0002:0000b8c8       $unwind$__acrt_stdio_free_buffer_nolock 000000018002f8c8     libucrt:_freebuf.obj
 0002:0000b8c8       $unwind$_fflush_nolock     000000018002f8c8     libucrt:fflush.obj
 0002:0000b8c8       $unwind$strcpy_s           000000018002f8c8     libucrt:strcpy_s.obj
 0002:0000b8c8       $unwind$wcscat_s           000000018002f8c8     libucrt:wcscat_s.obj
 0002:0000b8c8       $unwind$wcscpy_s           000000018002f8c8     libucrt:wcscpy_s.obj
 0002:0000b8c8       $unwind$_clrfp             000000018002f8c8     libucrt:fpctrl.obj
 0002:0000b8c8       $unwind$_set_statfp        000000018002f8c8     libucrt:fpctrl.obj
 0002:0000b8c8       $unwind$_clearfp           000000018002f8c8     libucrt:ieee.obj
 0002:0000b8c8       $unwind$_controlfp_s       000000018002f8c8     libucrt:contrlfp.obj
 0002:0000b8c8       $unwind$fegetenv           000000018002f8c8     libucrt:fegetenv.obj
 0002:0000b8c8       $unwind$feholdexcept       000000018002f8c8     libucrt:feholdexcept.obj
 0002:0000b8c8       $unwind$fesetenv           000000018002f8c8     libucrt:fesetenv.obj
 0002:0000b8d0       $unwind$?AtlWinModuleTerm@ATL@@YAJPEAU_ATL_WIN_MODULE70@1@PEAUHINSTANCE__@@@Z 000000018002f8d0     OposVariant.obj
 0002:0000b8d0       $unwind$?AtlWinModuleExtractCreateWndData@ATL@@YAPEAXPEAU_ATL_WIN_MODULE70@1@@Z 000000018002f8d0     Scale.obj
 0002:0000b8d0       $unwind$?CreateInstance@?$CComCreator@V?$CComObject@VCOPOSScale@@@ATL@@@ATL@@SAJPEAXAEBU_GUID@@PEAPEAX@Z 000000018002f8d0     Scale.obj
 0002:0000b8d0       $unwind$?DoEvent@COPOSScale@@IEAAXI_K_J@Z 000000018002f8d0     Scale.obj
 0002:0000b8d0       $unwind$?DoVerb@?$IOleObjectImpl@VCOPOSScale@@@ATL@@UEAAJJPEAUtagMSG@@PEAUIOleClientSite@@JPEAUHWND__@@PEBUtagRECT@@@Z 000000018002f8d0     Scale.obj
 0002:0000b8d0       $unwind$?HKeyFromString@CRegParser@ATL@@KAPEAUHKEY__@@PEA_W@Z 000000018002f8d0     Scale.obj
 0002:0000b8d0       $unwind$?Next@?$CComEnumImpl@UIEnumConnectionPoints@@$1?_GUID_b196b285_bab4_101a_b69c_00aa00341d07@@3U__s_GUID@@BPEAUIConnectionPoint@@V?$_CopyInterface@UIConnectionPoint@@@ATL@@@ATL@@UEAAJKPEAPEAUIConnectionPoint@@PEAK@Z 000000018002f8d0     Scale.obj
 0002:0000b8d0       $unwind$?Next@?$CComEnumImpl@UIEnumConnections@@$1?_GUID_b196b287_bab4_101a_b69c_00aa00341d07@@3U__s_GUID@@BUtagCONNECTDATA@@V?$_Copy@UtagCONNECTDATA@@@ATL@@@ATL@@UEAAJKPEAUtagCONNECTDATA@@PEAK@Z 000000018002f8d0     Scale.obj
 0002:0000b8d0       $unwind$?SODirectIO@COPOSScale@@MEAAJJPEAJPEAPEA_W@Z 000000018002f8d0     Scale.obj
 0002:0000b8d0       $unwind$?SetControlFocus@CComControlBase@ATL@@QEAAHH@Z 000000018002f8d0     Scale.obj
 0002:0000b8d0       $unwind$?ocscpy_s@@YA_NPEA_W_KPEB_W@Z 000000018002f8d0     Scale.obj
 0002:0000b8d0       $unwind$?s_EventWindowProc@COPOSScale@@KA_JPEAUHWND__@@I_K_J@Z 000000018002f8d0     ScaleImpl.obj
 0002:0000b8d0       $unwind$__scrt_dllmain_exception_filter 000000018002f8d0     LIBCMT:utility.obj
 0002:0000b8d0       $unwind$?Is_bad_exception_allowed@@YAEPEBU_s_ESTypeList@@@Z 000000018002f8d0     libvcruntime:frame.obj
 0002:0000b8d0       $unwind$_recalloc_base     000000018002f8d0     libucrt:recalloc.obj
 0002:0000b8d0       $unwind$__acrt_free_locale 000000018002f8d0     libucrt:locale_refcounting.obj
 0002:0000b8d0       $unwind$__acrt_lowio_create_handle_array 000000018002f8d0     libucrt:osfinfo.obj
 0002:0000b8d0       $unwind$?setSBCS@@YAXPEAU__crt_multibyte_data@@@Z 000000018002f8d0     libucrt:mbctype.obj
 0002:0000b8d0       $unwind$_seh_filter_exe    000000018002f8d0     libucrt:exception_filter.obj
 0002:0000b8d0       $unwind$_initterm          000000018002f8d0     libucrt:initterm.obj
 0002:0000b8d0       $unwind$??$ensure_buffer_is_big_enough@D@formatting_buffer@__crt_stdio_output@@QEAA_N_K@Z 000000018002f8d0     libucrt:output.obj
 0002:0000b8d0       $unwind$??$ensure_buffer_is_big_enough@_W@formatting_buffer@__crt_stdio_output@@QEAA_N_K@Z 000000018002f8d0     libucrt:output.obj
 0002:0000b8e4       $unwind$??0OposDispParms@@QEAA@PEAVOposVariant@@H@Z 000000018002f8e4     OposVariant.obj
 0002:0000b8e4       $unwind$?SetBSTR_Copy@OposVariant@@QEAAXPEA_WAEAJ@Z 000000018002f8e4     OposVariant.obj
 0002:0000b8e4       $unwind$?SetBSTR_InOutPtr@OposVariant@@QEAA_NPEAPEA_WAEAJ@Z 000000018002f8e4     OposVariant.obj
 0002:0000b8e4       $unwind$?SetCURRENCY_Ptr@OposVariant@@QEAAXPEATtagCY@@AEAJ@Z 000000018002f8e4     OposVariant.obj
 0002:0000b8e4       $unwind$?SetDispatch_Ptr@OposVariant@@QEAAXPEAUIDispatch@@AEAJ@Z 000000018002f8e4     OposVariant.obj
 0002:0000b8e4       $unwind$?SetLONG_Ptr@OposVariant@@QEAAXPEAJAEAJ@Z 000000018002f8e4     OposVariant.obj
 0002:0000b8e4       $unwind$?SetString@OposVariant@@QEAAXPEB_WAEAJ@Z 000000018002f8e4     OposVariant.obj
 0002:0000b8e4       $unwind$?Term@CAtlComModule@ATL@@QEAAXXZ 000000018002f8e4     OposVariant.obj
 0002:0000b8e4       $unwind$??_GCRegObject@ATL@@UEAAPEAXI@Z 000000018002f8e4     Scale.obj
 0002:0000b8e4       $unwind$?Add@?$CSimpleArray@GV?$CSimpleArrayEqualHelper@G@ATL@@@ATL@@QEAAHAEBG@Z 000000018002f8e4     Scale.obj
 0002:0000b8e4       $unwind$?Add@?$CSimpleMap@PEA_WPEA_WVCExpansionVectorEqualHelper@ATL@@@ATL@@QEAAHAEBQEA_W0@Z 000000018002f8e4     Scale.obj
 0002:0000b8e4       $unwind$?Add@CComDynamicUnkArray@ATL@@QEAAKPEAUIUnknown@@@Z 000000018002f8e4     Scale.obj
 0002:0000b8e4       $unwind$?Advise@?$IOleObjectImpl@VCOPOSScale@@@ATL@@UEAAJPEAUIAdviseSink@@PEAK@Z 000000018002f8e4     Scale.obj
 0002:0000b8e4       $unwind$?ClearReplacements@CExpansionVector@ATL@@QEAAJXZ 000000018002f8e4     Scale.obj
 0002:0000b8e4       $unwind$?CreateInstance@?$CComObject@V?$CComEnum@UIEnumConnectionPoints@@$1?_GUID_b196b285_bab4_101a_b69c_00aa00341d07@@3U__s_GUID@@BPEAUIConnectionPoint@@V?$_CopyInterface@UIConnectionPoint@@@ATL@@VCComSingleThreadModel@6@@ATL@@@ATL@@SAJPEAPEAV12@@Z 000000018002f8e4     Scale.obj
 0002:0000b8e4       $unwind$?CreateInstance@?$CComObject@V?$CComEnum@UIEnumConnections@@$1?_GUID_b196b287_bab4_101a_b69c_00aa00341d07@@3U__s_GUID@@BUtagCONNECTDATA@@V?$_Copy@UtagCONNECTDATA@@@ATL@@VCComSingleThreadModel@6@@ATL@@@ATL@@SAJPEAPEAV12@@Z 000000018002f8e4     Scale.obj
 0002:0000b8e4       $unwind$?RegisterServer@CComModule@ATL@@QEAAJHPEBU_GUID@@@Z 000000018002f8e4     Scale.obj
 0002:0000b8e4       $unwind$?Term@CAtlModule@ATL@@QEAAXXZ 000000018002f8e4     Scale.obj
 0002:0000b8e4       $unwind$?UnregisterServer@CComModule@ATL@@QEAAJHPEBU_GUID@@@Z 000000018002f8e4     Scale.obj
 0002:0000b8e4       $unwind$?VTFromRegType@CRegParser@ATL@@KAHPEB_WAEAG@Z 000000018002f8e4     Scale.obj
 0002:0000b8e4       $unwind$_DllMainCRTStartup 000000018002f8e4     LIBCMT:dll_dllmain.obj
 0002:0000b8e4       $unwind$__vcrt_getptd_noexit 000000018002f8e4     libvcruntime:per_thread_data.obj
 0002:0000b8e4       $unwind$__vcrt_InitializeCriticalSectionEx 000000018002f8e4     libvcruntime:winapi_downlevel.obj
 0002:0000b8e4       $unwind$memcpy_s           000000018002f8e4     libucrt:cfout.obj
 0002:0000b8e4       $unwind$__acrt_getptd      000000018002f8e4     libucrt:per_thread_data.obj
 0002:0000b8e4       $unwind$__acrt_getptd_noexit 000000018002f8e4     libucrt:per_thread_data.obj
 0002:0000b8e4       $unwind$__acrt_execute_initializers 000000018002f8e4     libucrt:shared_initialization.obj
 0002:0000b8e4       $unwind$__acrt_InitializeCriticalSectionEx 000000018002f8e4     libucrt:winapi_thunks.obj
 0002:0000b8e4       $unwind$?free_crt_array_internal@@YAXQEAPEBX_K@Z 000000018002f8e4     libucrt:inittime.obj
 0002:0000b8e4       $unwind$??$common_lseek_nolock@_J@@YA_JH_JH@Z 000000018002f8e4     libucrt:lseek.obj
 0002:0000b8e4       $unwind$__acrt_stdio_flush_nolock 000000018002f8e4     libucrt:fflush.obj
 0002:0000b8e4       $unwind$??0_LocaleUpdate@@QEAA@QEAU__crt_locale_pointers@@@Z 000000018002f8e4     libucrt:output.obj
 0002:0000b8e4       $unwind$?type_case_Z@?$output_processor@_WV?$string_output_adapter@_W@__crt_stdio_output@@V?$format_validation_base@_WV?$string_output_adapter@_W@__crt_stdio_output@@@2@@__crt_stdio_output@@AEAA_NXZ 000000018002f8e4     libucrt:output.obj
 0002:0000b8e4       $unwind$?type_case_s@?$output_processor@_WV?$string_output_adapter@_W@__crt_stdio_output@@V?$format_validation_base@_WV?$string_output_adapter@_W@__crt_stdio_output@@@2@@__crt_stdio_output@@AEAA_NXZ 000000018002f8e4     libucrt:output.obj
 0002:0000b8e4       $unwind$_exception_enabled 000000018002f8e4     libucrt:libm_error.obj
 0002:0000b8f4       $unwind$??_Estringdispid@CComTypeInfoHolder@ATL@@QEAAPEAXI@Z 000000018002f8f4     OposVariant.obj
 0002:0000b8f4       $unwind$?AddTermFunc@CAtlModule@ATL@@QEAAJP6AX_K@Z0@Z 000000018002f8f4     Scale.obj
 0002:0000b8f4       $unwind$?AtlComModuleRegisterServer@ATL@@YAJPEAU_ATL_COM_MODULE70@1@HPEBU_GUID@@@Z 000000018002f8f4     Scale.obj
 0002:0000b8f4       $unwind$?AtlComModuleUnregisterServer@ATL@@YAJPEAU_ATL_COM_MODULE70@1@HPEBU_GUID@@@Z 000000018002f8f4     Scale.obj
 0002:0000b8f4       $unwind$?CreateInstance@?$CComCreator@V?$CComAggObject@VCOPOSScale@@@ATL@@@ATL@@SAJPEAXAEBU_GUID@@PEAPEAX@Z 000000018002f8f4     Scale.obj
 0002:0000b8f4       $unwind$?CreateInstance@?$CComCreator@V?$CComObjectCached@VCComClassFactory@ATL@@@ATL@@@ATL@@SAJPEAXAEBU_GUID@@PEAPEAX@Z 000000018002f8f4     Scale.obj
 0002:0000b8f4       $unwind$?GetPagesHelper@?$ISpecifyPropertyPagesImpl@VCOPOSScale@@@ATL@@IEAAJPEAUtagCAUUID@@PEBUATL_PROPMAP_ENTRY@2@@Z 000000018002f8f4     Scale.obj
 0002:0000b8f4       $unwind$__GSHandlerCheck_SEH 000000018002f8f4     LIBCMT:gshandlerseh.obj
 0002:0000b8f4       $unwind$??$TypeMatchHelper@V__FrameHandler3@@@@YAHPEBU_s_HandlerType@@PEBU_s_CatchableType@@PEBU_s_ThrowInfo@@@Z 000000018002f8f4     libvcruntime:frame.obj
 0002:0000b8f4       $unwind$??$TypeMatchHelper@V__FrameHandler4@@@@YAHPEAUHandlerType4@FH4@@PEBU_s_CatchableType@@PEBU_s_ThrowInfo@@@Z 000000018002f8f4     libvcruntime:frame.obj
 0002:0000b8f4       $unwind$?initialize_stdio_handles_nolock@@YAXXZ 000000018002f8f4     libucrt:ioinit.obj
 0002:0000b8f4       $unwind$__acrt_initialize_stdio 000000018002f8f4     libucrt:_file.obj
 0002:0000b8f4       $unwind$?process@?$output_processor@_WV?$string_output_adapter@_W@__crt_stdio_output@@V?$format_validation_base@_WV?$string_output_adapter@_W@__crt_stdio_output@@@2@@__crt_stdio_output@@QEAAHXZ 000000018002f8f4     libucrt:output.obj
 0002:0000b8f4       $unwind$?type_case_integer@?$output_processor@_WV?$string_output_adapter@_W@__crt_stdio_output@@V?$format_validation_base@_WV?$string_output_adapter@_W@__crt_stdio_output@@@2@@__crt_stdio_output@@AEAA_NI_N@Z 000000018002f8f4     libucrt:output.obj
 0002:0000b90c       $unwind$?SetBSTR@OposVariant@@QEAAXPEA_WAEAJ@Z 000000018002f90c     OposVariant.obj
 0002:0000b90c       $unwind$?SetCURRENCY@OposVariant@@QEAAXTtagCY@@@Z 000000018002f90c     OposVariant.obj
 0002:0000b90c       $unwind$?SetLONG@OposVariant@@QEAAXJ@Z 000000018002f90c     OposVariant.obj
 0002:0000b90c       $unwind$?SetVARIANT_BOOL@OposVariant@@QEAAXF@Z 000000018002f90c     OposVariant.obj
 0002:0000b90c       $unwind$??0?$CComContainedObject@VCOPOSScale@@@ATL@@QEAA@PEAX@Z 000000018002f90c     Scale.obj
 0002:0000b90c       $unwind$??1?$CComEnumImpl@UIEnumConnectionPoints@@$1?_GUID_b196b285_bab4_101a_b69c_00aa00341d07@@3U__s_GUID@@BPEAUIConnectionPoint@@V?$_CopyInterface@UIConnectionPoint@@@ATL@@@ATL@@UEAA@XZ 000000018002f90c     Scale.obj
 0002:0000b90c       $unwind$??1?$CComEnumImpl@UIEnumConnections@@$1?_GUID_b196b287_bab4_101a_b69c_00aa00341d07@@3U__s_GUID@@BUtagCONNECTDATA@@V?$_Copy@UtagCONNECTDATA@@@ATL@@@ATL@@UEAA@XZ 000000018002f90c     Scale.obj
 0002:0000b90c       $unwind$??_G?$CComAggObject@VCOPOSScale@@@ATL@@UEAAPEAXI@Z 000000018002f90c     Scale.obj
 0002:0000b90c       $unwind$??_G?$CComContainedObject@VCOPOSScale@@@ATL@@UEAAPEAXI@Z 000000018002f90c     Scale.obj
 0002:0000b90c       $unwind$??_G?$CComObject@V?$CComEnum@UIEnumConnectionPoints@@$1?_GUID_b196b285_bab4_101a_b69c_00aa00341d07@@3U__s_GUID@@BPEAUIConnectionPoint@@V?$_CopyInterface@UIConnectionPoint@@@ATL@@VCComSingleThreadModel@6@@ATL@@@ATL@@UEAAPEAXI@Z 000000018002f90c     Scale.obj
 0002:0000b90c       $unwind$??_G?$CComObject@V?$CComEnum@UIEnumConnections@@$1?_GUID_b196b287_bab4_101a_b69c_00aa00341d07@@3U__s_GUID@@BUtagCONNECTDATA@@V?$_Copy@UtagCONNECTDATA@@@ATL@@VCComSingleThreadModel@6@@ATL@@@ATL@@UEAAPEAXI@Z 000000018002f90c     Scale.obj
 0002:0000b90c       $unwind$??_G?$CComObject@VCOPOSScale@@@ATL@@UEAAPEAXI@Z 000000018002f90c     Scale.obj
 0002:0000b90c       $unwind$??_G?$CComObjectCached@VCComClassFactory@ATL@@@ATL@@UEAAPEAXI@Z 000000018002f90c     Scale.obj
 0002:0000b90c       $unwind$??_GCComClassFactory@ATL@@UEAAPEAXI@Z 000000018002f90c     Scale.obj
 0002:0000b90c       $unwind$??_GCComModule@ATL@@UEAAPEAXI@Z 000000018002f90c     Scale.obj
 0002:0000b90c       $unwind$?DeleteSubKey@CRegKey@ATL@@QEAAJPEB_W@Z 000000018002f90c     Scale.obj
 0002:0000b90c       $unwind$?IOleObject_SetClientSite@CComControlBase@ATL@@QEAAJPEAUIOleClientSite@@@Z 000000018002f90c     Scale.obj
 0002:0000b90c       $unwind$?InitNew@?$IPersistStorageImpl@VCOPOSScale@@@ATL@@UEAAJPEAUIStorage@@@Z 000000018002f90c     Scale.obj
 0002:0000b90c       $unwind$?IsDirty@?$IPersistStorageImpl@VCOPOSScale@@@ATL@@UEAAJXZ 000000018002f90c     Scale.obj
 0002:0000b90c       $unwind$?Release@?$CComAggObject@VCOPOSScale@@@ATL@@UEAAKXZ 000000018002f90c     Scale.obj
 0002:0000b90c       $unwind$?Release@?$CComObject@V?$CComEnum@UIEnumConnectionPoints@@$1?_GUID_b196b285_bab4_101a_b69c_00aa00341d07@@3U__s_GUID@@BPEAUIConnectionPoint@@V?$_CopyInterface@UIConnectionPoint@@@ATL@@VCComSingleThreadModel@6@@ATL@@@ATL@@UEAAKXZ 000000018002f90c     Scale.obj
 0002:0000b90c       $unwind$?Release@?$CComObject@V?$CComEnum@UIEnumConnections@@$1?_GUID_b196b287_bab4_101a_b69c_00aa00341d07@@3U__s_GUID@@BUtagCONNECTDATA@@V?$_Copy@UtagCONNECTDATA@@@ATL@@VCComSingleThreadModel@6@@ATL@@@ATL@@UEAAKXZ 000000018002f90c     Scale.obj
 0002:0000b90c       $unwind$?Release@?$CComObject@VCOPOSScale@@@ATL@@UEAAKXZ 000000018002f90c     Scale.obj
 0002:0000b90c       $unwind$?SOData@COPOSScale@@MEAAJJ@Z 000000018002f90c     Scale.obj
 0002:0000b90c       $unwind$?SOStatusUpdate@COPOSScale@@MEAAJJ@Z 000000018002f90c     Scale.obj
 0002:0000b90c       $unwind$?SetAdvise@?$IViewObjectExImpl@VCOPOSScale@@@ATL@@UEAAJKKPEAUIAdviseSink@@@Z 000000018002f90c     Scale.obj
 0002:0000b90c       $unwind$?Term@CComModule@ATL@@QEAAXXZ 000000018002f90c     Scale.obj
 0002:0000b90c       $unwind$DllMain            000000018002f90c     Scale.obj
 0002:0000b90c       $unwind$??1?$IConnectionPointImpl@VCOPOSScale@@$1?DIID__IOPOSScaleEvents@@3U_GUID@@BVCComDynamicUnkArray@ATL@@@ATL@@QEAA@XZ 000000018002f90c     ScaleImpl.obj
 0002:0000b90c       $unwind$??1?$IConnectionPointImpl@VCOPOSScale@@$1?IID_IPropertyNotifySink@@3U_GUID@@BVCComDynamicUnkArray@ATL@@@ATL@@QEAA@XZ 000000018002f90c     ScaleImpl.obj
 0002:0000b90c       $unwind$??0CAtlBaseModule@ATL@@QEAA@XZ 000000018002f90c     atls:atlbase.obj
 0002:0000b90c       $unwind$??$GetProcAddressAll@P6AP6A_JPEAUHWND__@@I_K_J@ZPEAUAtlThunkData_t@@@Z@@YAP6AP6A_JPEAUHWND__@@I_K_J@ZPEAUAtlThunkData_t@@@ZPEAP6AP6A_J0I12@Z3@Z@Z 000000018002f90c     atls:atlthunk.obj
 0002:0000b90c       $unwind$??$GetProcAddressAll@P6APEAUAtlThunkData_t@@XZ@@YAP6APEAUAtlThunkData_t@@XZPEAP6APEAU0@XZ@Z 000000018002f90c     atls:atlthunk.obj
 0002:0000b90c       $unwind$??$GetProcAddressAll@P6AXPEAUAtlThunkData_t@@@Z@@YAP6AXPEAUAtlThunkData_t@@@ZPEAP6AX0@Z@Z 000000018002f90c     atls:atlthunk.obj
 0002:0000b90c       $unwind$??$GetProcAddressAll@P6AXPEAUAtlThunkData_t@@PEAX_K@Z@@YAP6AXPEAUAtlThunkData_t@@PEAX_K@ZPEAP6AX012@Z@Z 000000018002f90c     atls:atlthunk.obj
 0002:0000b90c       $unwind$?__AllocStdCallThunk_cmn@@YAPEAXXZ 000000018002f90c     atls:atlthunk.obj
 0002:0000b90c       $unwind$?__InitializeThunkPool@@YAHXZ 000000018002f90c     atls:atlthunk.obj
 0002:0000b90c       $unwind$AtlThunk_DataToCode 000000018002f90c     atls:atlthunk.obj
 0002:0000b90c       $unwind$_RTC_Initialize    000000018002f90c     LIBCMT:initsect.obj
 0002:0000b90c       $unwind$_RTC_Terminate     000000018002f90c     LIBCMT:initsect.obj
 0002:0000b90c       $unwind$?__scrt_initialize_thread_safe_statics@@YAHXZ 000000018002f90c     LIBCMT:thread_safe_statics.obj
 0002:0000b90c       $unwind$??_Gbad_alloc@std@@UEAAPEAXI@Z 000000018002f90c     LIBCMT:throw_bad_alloc.obj
 0002:0000b90c       $unwind$??_Gbad_array_new_length@std@@UEAAPEAXI@Z 000000018002f90c     LIBCMT:throw_bad_alloc.obj
 0002:0000b90c       $unwind$??_Gexception@std@@UEAAPEAXI@Z 000000018002f90c     LIBCMT:throw_bad_alloc.obj
 0002:0000b90c       $unwind$__FrameUnwindFilter 000000018002f90c     libvcruntime:ehhelpers.obj
 0002:0000b90c       $unwind$??_Gbad_exception@std@@UEAAPEAXI@Z 000000018002f90c     libvcruntime:frame.obj
 0002:0000b90c       $unwind$?ExFilterRethrowFH4@@YAHPEAU_EXCEPTION_POINTERS@@PEAUEHExceptionRecord@@HPEAH@Z 000000018002f90c     libvcruntime:frame.obj
 0002:0000b90c       $unwind$_FindAndUnlinkFrame 000000018002f90c     libvcruntime:risctrnsctrl.obj
 0002:0000b90c       $unwind$__vcrt_FlsSetValue 000000018002f90c     libvcruntime:winapi_downlevel.obj
 0002:0000b90c       $unwind$??$common_initialize_environment_nolock@D@@YAHXZ 000000018002f90c     libucrt:environment_initialization.obj
 0002:0000b90c       $unwind$_realloc_base      000000018002f90c     libucrt:realloc_base.obj
 0002:0000b90c       $unwind$?replace_current_thread_locale_nolock@@YAXQEAU__acrt_ptd@@QEAU__crt_locale_data@@@Z 000000018002f90c     libucrt:per_thread_data.obj
 0002:0000b90c       $unwind$__acrt_execute_uninitializers 000000018002f90c     libucrt:shared_initialization.obj
 0002:0000b90c       $unwind$__acrt_FlsSetValue 000000018002f90c     libucrt:winapi_thunks.obj
 0002:0000b90c       $unwind$__acrt_LocaleNameToLCID 000000018002f90c     libucrt:winapi_thunks.obj
 0002:0000b90c       $unwind$_updatetlocinfoEx_nolock 000000018002f90c     libucrt:locale_refcounting.obj
 0002:0000b90c       $unwind$_close_nolock      000000018002f90c     libucrt:close.obj
 0002:0000b90c       $unwind$__acrt_uninitialize_lowio 000000018002f90c     libucrt:ioinit.obj
 0002:0000b90c       $unwind$__acrt_errno_map_os_error 000000018002f90c     libucrt:errno.obj
 0002:0000b90c       $unwind$_initterm_e        000000018002f90c     libucrt:initterm.obj
 0002:0000b90c       $unwind$_fclose_nolock     000000018002f90c     libucrt:fclose.obj
 0002:0000b90c       $unwind$?type_case_n@?$output_processor@_WV?$string_output_adapter@_W@__crt_stdio_output@@V?$format_validation_base@_WV?$string_output_adapter@_W@__crt_stdio_output@@@2@@__crt_stdio_output@@AEAA_NXZ 000000018002f90c     libucrt:output.obj
 0002:0000b90c       $unwind$strncpy_s          000000018002f90c     libucrt:strncpy_s.obj
 0002:0000b90c       $unwind$wcsncpy_s          000000018002f90c     libucrt:wcsncpy_s.obj
 0002:0000b918       $unwind$?ChangeBSTR@OposVariant@@QEAAXPEAPEA_WAEAJ@Z 000000018002f918     OposVariant.obj
 0002:0000b918       $unwind$?ChangeCURRENCY@OposVariant@@QEAAXPEATtagCY@@AEAJ@Z 000000018002f918     OposVariant.obj
 0002:0000b918       $unwind$?ChangeLONG@OposVariant@@QEAAXPEAJAEAJ@Z 000000018002f918     OposVariant.obj
 0002:0000b918       $unwind$?x_ismbbtype_l@@YAHPEAU__crt_locale_pointers@@IHH@Z 000000018002f918     libucrt:ismbbyte.obj
 0002:0000b928       $unwind$swprintf_s         000000018002f928     Scale.obj
 0002:0000b938       $unwind$?_AtlVerifyStackAvailable@_ATL_SAFE_ALLOCA_IMPL@ATL@@YA_N_K@Z 000000018002f938     Scale.obj
 0002:0000b964       $unwind$?filt$0@?0??_AtlVerifyStackAvailable@_ATL_SAFE_ALLOCA_IMPL@ATL@@YA_N_K@Z@4HA 000000018002f964     Scale.obj
 0002:0000b964       $unwind$?fin$0@?0??dllmain_crt_process_attach@@YAHQEAUHINSTANCE__@@QEAX@Z@4HA 000000018002f964     LIBCMT:dll_dllmain.obj
 0002:0000b964       $unwind$?fin$0@?0??dllmain_crt_process_detach@@YAH_N@Z@4HA 000000018002f964     LIBCMT:dll_dllmain.obj
 0002:0000b964       $unwind$?fin$1@?0??dllmain_crt_process_detach@@YAH_N@Z@4HA 000000018002f964     LIBCMT:dll_dllmain.obj
 0002:0000b964       $unwind$_IsNonwritableInCurrentImage$filt$0 000000018002f964     LIBCMT:pesect.obj
 0002:0000b964       $unwind$?filt$0@?0??CxxCallCatchBlock@__FrameHandler4@@SAPEAXPEAU_EXCEPTION_RECORD@@@Z@4HA 000000018002f964     libvcruntime:frame.obj
 0002:0000b964       $unwind$_query_new_handler$fin$0 000000018002f964     libucrt:new_handler.obj
 0002:0000b964       $unwind$?fin$0@?0???$?RV<lambda_0ae27a3a962d80f24befdcbee591983d>@@AEAV<lambda_8d0ee55de4b1038c4002e0adecdf1839>@@V<lambda_dc504788e8f1664fe9b84e20bfb512f2>@@@?$__crt_seh_guarded_call@X@@QEAAX$$QEAV<lambda_0ae27a3a962d80f24befdcbee591983d>@@AEAV<lambda_8d0ee55de4b1038c4002e0adecdf1839>@@$$QEAV<lambda_dc504788e8f1664fe9b84e20bfb512f2>@@@Z@4HA 000000018002f964     libucrt:per_thread_data.obj
 0002:0000b964       $unwind$?fin$0@?0???$?RV<lambda_2d41944a1d46af3157314b8a01080d33>@@AEAV<lambda_8f455de75cd7d7f24b4096f044d8b9e6>@@V<lambda_aa500f224e6afead328df44964fe2772>@@@?$__crt_seh_guarded_call@X@@QEAAX$$QEAV<lambda_2d41944a1d46af3157314b8a01080d33>@@AEAV<lambda_8f455de75cd7d7f24b4096f044d8b9e6>@@$$QEAV<lambda_aa500f224e6afead328df44964fe2772>@@@Z@4HA 000000018002f964     libucrt:per_thread_data.obj
 0002:0000b964       $unwind$?fin$0@?0???$?RV<lambda_aa87e3671a710a21b5dc78c0bdf72e11>@@AEAV<lambda_92619d2358a28f41a33ba319515a20b9>@@V<lambda_6992ecaafeb10aed2b74cb1fae11a551>@@@?$__crt_seh_guarded_call@X@@QEAAX$$QEAV<lambda_aa87e3671a710a21b5dc78c0bdf72e11>@@AEAV<lambda_92619d2358a28f41a33ba319515a20b9>@@$$QEAV<lambda_6992ecaafeb10aed2b74cb1fae11a551>@@@Z@4HA 000000018002f964     libucrt:per_thread_data.obj
 0002:0000b964       $unwind$?fin$0@?0???$?RV<lambda_f2e299630e499de9f9a165e60fcd3db5>@@AEAV<lambda_2ae9d31cdba2644fcbeaf08da7c24588>@@V<lambda_40d01ff24d0e7b3814fdbdcee8eab3c7>@@@?$__crt_seh_guarded_call@X@@QEAAX$$QEAV<lambda_f2e299630e499de9f9a165e60fcd3db5>@@AEAV<lambda_2ae9d31cdba2644fcbeaf08da7c24588>@@$$QEAV<lambda_40d01ff24d0e7b3814fdbdcee8eab3c7>@@@Z@4HA 000000018002f964     libucrt:per_thread_data.obj
 0002:0000b964       $unwind$__acrt_update_thread_locale_data$fin$0 000000018002f964     libucrt:locale_refcounting.obj
 0002:0000b964       $unwind$?fin$0@?0???$?RV<lambda_410d79af7f07d98d83a3f525b3859a53>@@AEAV<lambda_3e16ef9562a7dcce91392c22ab16ea36>@@V<lambda_38119f0e861e05405d8a144b9b982f0a>@@@?$__crt_seh_guarded_call@X@@QEAAX$$QEAV<lambda_410d79af7f07d98d83a3f525b3859a53>@@AEAV<lambda_3e16ef9562a7dcce91392c22ab16ea36>@@$$QEAV<lambda_38119f0e861e05405d8a144b9b982f0a>@@@Z@4HA 000000018002f964     libucrt:wsetlocale.obj
 0002:0000b964       $unwind$?fin$0@?0???$?RV<lambda_751a882b2c74d4b022dec766aa51a29a>@@AEAV<lambda_628dfdc04ba53c8bfc02c9951375f3f5>@@V<lambda_f6c7be5f7998530c34de24c7437d6b54>@@@?$__crt_seh_guarded_call@H@@QEAAH$$QEAV<lambda_751a882b2c74d4b022dec766aa51a29a>@@AEAV<lambda_628dfdc04ba53c8bfc02c9951375f3f5>@@$$QEAV<lambda_f6c7be5f7998530c34de24c7437d6b54>@@@Z@4HA 000000018002f964     libucrt:close.obj
 0002:0000b964       $unwind$?fin$0@?0???$?RV<lambda_a37b2b86f63e897a80ea819b0eb08c01>@@AEAV<lambda_38ce7e780aa69e748d6df282ebc68efe>@@V<lambda_99fb1378e971ab6e7edea83e3a7a83a2>@@@?$__crt_seh_guarded_call@H@@QEAAH$$QEAV<lambda_a37b2b86f63e897a80ea819b0eb08c01>@@AEAV<lambda_38ce7e780aa69e748d6df282ebc68efe>@@$$QEAV<lambda_99fb1378e971ab6e7edea83e3a7a83a2>@@@Z@4HA 000000018002f964     libucrt:commit.obj
 0002:0000b964       $unwind$__acrt_initialize_lowio$fin$0 000000018002f964     libucrt:ioinit.obj
 0002:0000b964       $unwind$__acrt_lowio_ensure_fh_exists$fin$0 000000018002f964     libucrt:osfinfo.obj
 0002:0000b964       $unwind$_write$fin$0       000000018002f964     libucrt:write.obj
 0002:0000b964       $unwind$?fin$0@?0???$?RV<lambda_efdfa57d1f175319df784efa44bb7b81>@@AEAV<lambda_5f0a4c1567f8adc6734073e5d1e1b35c>@@V<lambda_2e8a7d3640ea6ccb4c2413664c2db6fd>@@@?$__crt_seh_guarded_call@X@@QEAAX$$QEAV<lambda_efdfa57d1f175319df784efa44bb7b81>@@AEAV<lambda_5f0a4c1567f8adc6734073e5d1e1b35c>@@$$QEAV<lambda_2e8a7d3640ea6ccb4c2413664c2db6fd>@@@Z@4HA 000000018002f964     libucrt:mbctype.obj
 0002:0000b964       $unwind$?fin$0@?0??update_thread_multibyte_data_internal@@YAPEAU__crt_multibyte_data@@QEAU__acrt_ptd@@QEAPEAU1@@Z@4HA 000000018002f964     libucrt:mbctype.obj
 0002:0000b964       $unwind$?fin$0@?0???$?RV<lambda_450d765d439847d4c735a33c368b5fc0>@@AEAV<lambda_44731a7d0e6d81c3e6aa82d741081786>@@V<lambda_601a2a7da3b7a96e9554ac7215c4b07c>@@@?$__crt_seh_guarded_call@P6AXH@Z@@QEAAP6AXH@Z$$QEAV<lambda_450d765d439847d4c735a33c368b5fc0>@@AEAV<lambda_44731a7d0e6d81c3e6aa82d741081786>@@$$QEAV<lambda_601a2a7da3b7a96e9554ac7215c4b07c>@@@Z@4HA 000000018002f964     libucrt:signal.obj
 0002:0000b964       $unwind$raise$fin$0        000000018002f964     libucrt:signal.obj
 0002:0000b964       $unwind$?filt$0@?0???R<lambda_6e4b09c48022b2350581041d5f6b0c4c>@@QEBA@XZ@4HA 000000018002f964     libucrt:exit.obj
 0002:0000b964       $unwind$?fin$0@?0???$?RV<lambda_d80eeec6fff315bfe5c115232f3240e3>@@AEAV<lambda_6e4b09c48022b2350581041d5f6b0c4c>@@V<lambda_2358e3775559c9db80273638284d5e45>@@@?$__crt_seh_guarded_call@X@@QEAAX$$QEAV<lambda_d80eeec6fff315bfe5c115232f3240e3>@@AEAV<lambda_6e4b09c48022b2350581041d5f6b0c4c>@@$$QEAV<lambda_2358e3775559c9db80273638284d5e45>@@@Z@4HA 000000018002f964     libucrt:exit.obj
 0002:0000b964       $unwind$?fin$0@?0???$?RV<lambda_638799b9deba96c50f710eeac98168cd>@@AEAV<lambda_22ebabd17bc4fa466a2aca6d8deb888d>@@V<lambda_a6f7d7db0129f75315ebf26d50c089f1>@@@?$__crt_seh_guarded_call@H@@QEAAH$$QEAV<lambda_638799b9deba96c50f710eeac98168cd>@@AEAV<lambda_22ebabd17bc4fa466a2aca6d8deb888d>@@$$QEAV<lambda_a6f7d7db0129f75315ebf26d50c089f1>@@@Z@4HA 000000018002f964     libucrt:onexit.obj
 0002:0000b964       $unwind$?fin$0@?0???$?RV<lambda_7777bce6b2f8c936911f934f8298dc43>@@AEAV<lambda_f03950bc5685219e0bcd2087efbe011e>@@V<lambda_3883c3dff614d5e0c5f61bb1ac94921c>@@@?$__crt_seh_guarded_call@H@@QEAAH$$QEAV<lambda_7777bce6b2f8c936911f934f8298dc43>@@AEAV<lambda_f03950bc5685219e0bcd2087efbe011e>@@$$QEAV<lambda_3883c3dff614d5e0c5f61bb1ac94921c>@@@Z@4HA 000000018002f964     libucrt:onexit.obj
 0002:0000b964       $unwind$_fcloseall$fin$0   000000018002f964     libucrt:closeall.obj
 0002:0000b964       $unwind$fclose$fin$0       000000018002f964     libucrt:fclose.obj
 0002:0000b964       $unwind$?fin$0@?0???$?RV<lambda_842d9ff0dc9ef11c61343bbaebe7f885>@@AEAV<lambda_c5860995281e5c4ce005b3de8f5874ee>@@V<lambda_d90129c13df834fdcbf8d2b88dafcf2d>@@@?$__crt_seh_guarded_call@X@@QEAAX$$QEAV<lambda_842d9ff0dc9ef11c61343bbaebe7f885>@@AEAV<lambda_c5860995281e5c4ce005b3de8f5874ee>@@$$QEAV<lambda_d90129c13df834fdcbf8d2b88dafcf2d>@@@Z@4HA 000000018002f964     libucrt:fflush.obj
 0002:0000b964       $unwind$?fin$0@?0???$?RV<lambda_886d6c58226a84441f68b9f2b8217b83>@@AEAV<lambda_ab61a845afdef5b7c387490eaf3616ee>@@V<lambda_f7f22ab5edc0698d5f6905b0d3f44752>@@@?$__crt_seh_guarded_call@X@@QEAAX$$QEAV<lambda_886d6c58226a84441f68b9f2b8217b83>@@AEAV<lambda_ab61a845afdef5b7c387490eaf3616ee>@@$$QEAV<lambda_f7f22ab5edc0698d5f6905b0d3f44752>@@@Z@4HA 000000018002f964     libucrt:fflush.obj
 0002:0000b964       $unwind$_ctrlfp$filt$0     000000018002f964     libucrt:fpctrl.obj
 0002:0000b964       $unwind$common_control87$filt$0 000000018002f964     libucrt:ieee.obj
 0002:0000b96c       $unwind$?AtlInternalOleLoadFromStream@ATL@@YAJPEAUIStream@@AEBU_GUID@@PEAPEAXTClassesAllowedInStream@1@K@Z 000000018002f96c     Scale.obj
 0002:0000b988       $unwind$?ReadFromStream@CComBSTR@ATL@@QEAAJPEAUIStream@@@Z 000000018002f988     Scale.obj
 0002:0000b988       $unwind$_configure_narrow_argv 000000018002f988     libucrt:argv_parsing.obj
 0002:0000b99c       $unwind$?WriteToStream@CComVariant@ATL@@QEAAJPEAUIStream@@@Z 000000018002f99c     Scale.obj
 0002:0000b9b0       $unwind$?RegOpenKeyExW@CAtlTransactionManager@ATL@@QEAAJPEAUHKEY__@@PEB_WKKPEAPEAU3@@Z 000000018002f9b0     Scale.obj
 0002:0000b9b0       $unwind$?WriteToStream@CComVariant@ATL@@QEAAJPEAUIStream@@G@Z 000000018002f9b0     Scale.obj
 0002:0000b9b0       $unwind$__dcrt_write_console 000000018002f9b0     libucrt:initcon.obj
 0002:0000b9b0       $unwind$??$__acrt_wcs_to_mbs_cp@U__crt_win32_buffer_no_resizing@@@@YAHQEB_WAEAV?$__crt_win32_buffer@DU__crt_win32_buffer_no_resizing@@@@I@Z 000000018002f9b0     libucrt:getmodulefilenamea.obj
 0002:0000b9c4       $unwind$?ReadFromStream@CComVariant@ATL@@QEAAJPEAUIStream@@GTClassesAllowedInStream@2@K@Z 000000018002f9c4     Scale.obj
 0002:0000b9dc       $unwind$?GetSizeMax@CComVariant@ATL@@QEBAJPEAT_ULARGE_INTEGER@@@Z 000000018002f9dc     Scale.obj
 0002:0000b9f4       $unwind$?RegCreateKeyExW@CAtlTransactionManager@ATL@@QEAAJPEAUHKEY__@@PEB_WKPEA_WKKQEAU_SECURITY_ATTRIBUTES@@PEAPEAU3@PEAK@Z 000000018002f9f4     Scale.obj
 0002:0000ba08       $unwind$?GetGITPtr@CAtlModule@ATL@@UEAAJPEAPEAUIGlobalInterfaceTable@@@Z 000000018002fa08     Scale.obj
 0002:0000ba08       $unwind$?RegDeleteKeyW@CAtlTransactionManager@ATL@@QEAAJPEAUHKEY__@@PEB_W@Z 000000018002fa08     Scale.obj
 0002:0000ba08       $unwind$?getStateFromIterators@UWMap4@FH4@@SAHAEBViterator@12@H0H0@Z 000000018002fa08     libvcruntime:frame.obj
 0002:0000ba18       $unwind$?AtlHiMetricToPixel@ATL@@YAXPEBUtagSIZE@@PEAU2@@Z 000000018002fa18     Scale.obj
 0002:0000ba18       $unwind$?AtlInternalQueryInterface@ATL@@YAJPEAXPEBU_ATL_INTMAP_ENTRY@1@AEBU_GUID@@PEAPEAX@Z 000000018002fa18     Scale.obj
 0002:0000ba30       $unwind$?Append@CParseBuffer@CRegParser@ATL@@QEAAHPEB_WH@Z 000000018002fa30     Scale.obj
 0002:0000ba30       $unwind$?AtlComModuleGetClassObject@ATL@@YAJPEAU_ATL_COM_MODULE70@1@AEBU_GUID@@1PEAPEAX@Z 000000018002fa30     Scale.obj
 0002:0000ba30       $unwind$?EnumConnections@?$IConnectionPointImpl@VCOPOSScale@@$1?DIID__IOPOSScaleEvents@@3U_GUID@@BVCComDynamicUnkArray@ATL@@@ATL@@UEAAJPEAPEAUIEnumConnections@@@Z 000000018002fa30     Scale.obj
 0002:0000ba30       $unwind$?EnumConnections@?$IConnectionPointImpl@VCOPOSScale@@$1?IID_IPropertyNotifySink@@3U_GUID@@BVCComDynamicUnkArray@ATL@@@ATL@@UEAAJPEAPEAUIEnumConnections@@@Z 000000018002fa30     Scale.obj
 0002:0000ba30       $unwind$?GetClassObject@CComModule@ATL@@QEAAJAEBU_GUID@@0PEAPEAX@Z 000000018002fa30     Scale.obj
 0002:0000ba30       $unwind$?Init@?$CComEnumImpl@UIEnumConnectionPoints@@$1?_GUID_b196b285_bab4_101a_b69c_00aa00341d07@@3U__s_GUID@@BPEAUIConnectionPoint@@V?$_CopyInterface@UIConnectionPoint@@@ATL@@@ATL@@QEAAJPEAPEAUIConnectionPoint@@0PEAUIUnknown@@W4CComEnumFlags@2@@Z 000000018002fa30     Scale.obj
 0002:0000ba30       $unwind$?Init@?$CComEnumImpl@UIEnumConnections@@$1?_GUID_b196b287_bab4_101a_b69c_00aa00341d07@@3U__s_GUID@@BUtagCONNECTDATA@@V?$_Copy@UtagCONNECTDATA@@@ATL@@@ATL@@QEAAJPEAUtagCONNECTDATA@@0PEAUIUnknown@@W4CComEnumFlags@2@@Z 000000018002fa30     Scale.obj
 0002:0000ba30       $unwind$?NextToken@CRegParser@ATL@@IEAAJPEA_W@Z 000000018002fa30     Scale.obj
 0002:0000ba30       $unwind$__acrt_fp_strflt_to_string 000000018002fa30     libucrt:_fptostr.obj
 0002:0000ba30       $unwind$__acrt_DownlevelLocaleNameToLCID 000000018002fa30     libucrt:lcidtoname_downlevel.obj
 0002:0000ba30       $unwind$??R<lambda_f03950bc5685219e0bcd2087efbe011e>@@QEBAHXZ 000000018002fa30     libucrt:onexit.obj
 0002:0000ba48       $unwind$?AtlRegisterClassCategoriesHelper@ATL@@YAJAEBU_GUID@@PEBU_ATL_CATMAP_ENTRY@1@H@Z 000000018002fa48     Scale.obj
 0002:0000ba6c       $unwind$?AtlLoadTypeLib@ATL@@YAJPEAUHINSTANCE__@@PEB_WPEAPEA_WPEAPEAUITypeLib@@@Z 000000018002fa6c     Scale.obj
 0002:0000ba8c       $unwind$?AtlRegisterTypeLib@ATL@@YAJPEAUHINSTANCE__@@PEB_W@Z 000000018002fa8c     Scale.obj
 0002:0000baa8       $unwind$?AtlUnRegisterTypeLib@ATL@@YAJPEAUHINSTANCE__@@PEB_W@Z 000000018002faa8     Scale.obj
 0002:0000bab0       $unwind$?GetTI@CComTypeInfoHolder@ATL@@QEAAJK@Z 000000018002fab0     Scale.obj
 0002:0000bab0       $unwind$?RecurseDeleteKey@CRegKey@ATL@@QEAAJPEB_W@Z 000000018002fab0     Scale.obj
 0002:0000bad0       $unwind$?UpdateRegistryFromResource@CAtlModule@ATL@@QEAAJIHPEAU_ATL_REGMAP_ENTRY@2@@Z 000000018002fad0     Scale.obj
 0002:0000bad0       $unwind$?UpdateRegistryFromResource@CAtlModule@ATL@@QEAAJPEB_WHPEAU_ATL_REGMAP_ENTRY@2@@Z 000000018002fad0     Scale.obj
 0002:0000baf0       $unwind$?Lookup@?$CSimpleMap@PEA_WPEA_WVCExpansionVectorEqualHelper@ATL@@@ATL@@QEBAPEA_WAEBQEA_W@Z 000000018002faf0     Scale.obj
 0002:0000baf0       $unwind$__std_exception_copy 000000018002faf0     libvcruntime:std_exception.obj
 0002:0000baf0       $unwind$_free_osfhnd       000000018002faf0     libucrt:osfinfo.obj
 0002:0000bb04       $unwind$?Add@CExpansionVector@ATL@@QEAAHPEB_W0@Z 000000018002fb04     Scale.obj
 0002:0000bb1c       $unwind$?PreProcessBuffer@CRegParser@ATL@@QEAAJPEA_WPEAPEA_W@Z 000000018002fb1c     Scale.obj
 0002:0000bb40       $unwind$?RegisterBuffer@CRegParser@ATL@@QEAAJPEA_WH@Z 000000018002fb40     Scale.obj
 0002:0000bb60       $unwind$?AddValue@CRegParser@ATL@@IEAAJAEAVCRegKey@2@PEB_WPEA_W@Z 000000018002fb60     Scale.obj
 0002:0000bb80       $unwind$?RegisterSubkeys@CRegParser@ATL@@IEAAJPEA_WPEAUHKEY__@@HH@Z 000000018002fb80     Scale.obj
 0002:0000bba0       $unwind$?SkipAssignment@CRegParser@ATL@@IEAAJPEA_W@Z 000000018002fba0     Scale.obj
 0002:0000bbb8       $unwind$?RegisterFromResource@CRegObject@ATL@@IEAAJPEB_W00H@Z 000000018002fbb8     Scale.obj
 0002:0000bbd8       $unwind$?Cleanup@CComTypeInfoHolder@ATL@@SAX_K@Z 000000018002fbd8     Scale.obj
 0002:0000bbd8       $unwind$AtlThunk_FreeData  000000018002fbd8     atls:atlthunk.obj
 0002:0000bbd8       $unwind$_free_base         000000018002fbd8     libucrt:free_base.obj
 0002:0000bbd8       $unwind$?destroy_fls@@YAXPEAX@Z 000000018002fbd8     libucrt:per_thread_data.obj
 0002:0000bbd8       $unwind$__acrt_locale_free_numeric 000000018002fbd8     libucrt:initnum.obj
 0002:0000bbd8       $unwind$__acrt_locale_free_lc_time_if_unreferenced 000000018002fbd8     libucrt:locale_refcounting.obj
 0002:0000bbe0       $unwind$?GetIDsOfNames@CComTypeInfoHolder@ATL@@QEAAJAEBU_GUID@@PEAPEA_WIKPEAJ@Z 000000018002fbe0     Scale.obj
 0002:0000bbfc       $unwind$?LoadNameCache@CComTypeInfoHolder@ATL@@QEAAJPEAUITypeInfo@@@Z 000000018002fbfc     Scale.obj
 0002:0000bc10       $unwind$?StartWindowProc@?$CWindowImplBaseT@VCWindow@ATL@@V?$CWinTraits@$0FGAAAAAA@$0A@@2@@ATL@@SA_JPEAUHWND__@@I_K_J@Z 000000018002fc10     Scale.obj
 0002:0000bc10       $unwind$?should_round_up@@YA_NQEBN_KFW4__acrt_rounding_mode@@@Z 000000018002fc10     libucrt:cvt.obj
 0002:0000bc10       $unwind$??$parse_command_line@D@@YAXPEADPEAPEAD0PEA_K2@Z 000000018002fc10     libucrt:argv_parsing.obj
 0002:0000bc2c       $unwind$?WindowProc@?$CWindowImplBaseT@VCWindow@ATL@@V?$CWinTraits@$0FGAAAAAA@$0A@@2@@ATL@@SA_JPEAUHWND__@@I_K_J@Z 000000018002fc2c     Scale.obj
 0002:0000bc44       $unwind$?atlCreate@?$CWindowImplBaseT@VCWindow@ATL@@V?$CWinTraits@$0FGAAAAAA@$0A@@2@@ATL@@QEAAPEAUHWND__@@PEAU3@V_U_RECT@2@PEB_WKKV_U_MENUorID@2@GPEAX@Z 000000018002fc44     Scale.obj
 0002:0000bc5c       $unwind$??$AtlModuleRegisterWndClassInfoT@VAtlModuleRegisterWndClassInfoParamW@ATL@@@ATL@@YAGPEAU_ATL_BASE_MODULE70@0@PEAU_ATL_WIN_MODULE70@0@PEAU_ATL_WNDCLASSINFOW@0@PEAP6A_JPEAUHWND__@@I_K_J@ZVAtlModuleRegisterWndClassInfoParamW@0@@Z 000000018002fc5c     Scale.obj
 0002:0000bc7c       $unwind$?GetZoomInfo@CComControlBase@ATL@@QEAAXAEAUATL_DRAWINFO@@@Z 000000018002fc7c     Scale.obj
 0002:0000bc7c       $unwind$?OnKillFocus@CComControlBase@ATL@@QEAA_JI_K_JAEAH@Z 000000018002fc7c     Scale.obj
 0002:0000bc7c       $unwind$iswctype           000000018002fc7c     libucrt:iswctype.obj
 0002:0000bc88       $unwind$?SendOnDataChange@CComControlBase@ATL@@QEAAJK@Z 000000018002fc88     Scale.obj
 0002:0000bc98       $unwind$?OnSetFocus@CComControlBase@ATL@@QEAA_JI_K_JAEAH@Z 000000018002fc98     Scale.obj
 0002:0000bca8       $unwind$?OnMouseActivate@CComControlBase@ATL@@QEAA_JI_K_JAEAH@Z 000000018002fca8     Scale.obj
 0002:0000bcb0       $unwind$?GetAmbientLocaleID@CComControlBase@ATL@@QEAAJAEAK@Z 000000018002fcb0     Scale.obj
 0002:0000bcb0       $unwind$?GetAmbientUserMode@CComControlBase@ATL@@QEAAJAEAH@Z 000000018002fcb0     Scale.obj
 0002:0000bcc0       $unwind$?IQuickActivate_QuickActivate@CComControlBase@ATL@@QEAAJPEAUtagQACONTAINER@@PEAUtagQACONTROL@@@Z 000000018002fcc0     Scale.obj
 0002:0000bcd8       $unwind$?DoVerbProperties@CComControlBase@ATL@@QEAAJPEBUtagRECT@@PEAUHWND__@@@Z 000000018002fcd8     Scale.obj
 0002:0000bcf0       $unwind$?InPlaceActivate@CComControlBase@ATL@@QEAAJJPEBUtagRECT@@@Z 000000018002fcf0     Scale.obj
 0002:0000bd10       $unwind$?IOleObject_Close@CComControlBase@ATL@@QEAAJK@Z 000000018002fd10     Scale.obj
 0002:0000bd10       $unwind$?type_case_c_tchar@?$output_processor@_WV?$string_output_adapter@_W@__crt_stdio_output@@V?$format_validation_base@_WV?$string_output_adapter@_W@__crt_stdio_output@@@2@@__crt_stdio_output@@AEAA_N_W@Z 000000018002fd10     libucrt:output.obj
 0002:0000bd20       $unwind$?IOleInPlaceObject_UIDeactivate@CComControlBase@ATL@@QEAAJXZ 000000018002fd20     Scale.obj
 0002:0000bd38       $unwind$?IOleInPlaceObject_SetObjectRects@CComControlBase@ATL@@QEAAJPEBUtagRECT@@0@Z 000000018002fd38     Scale.obj
 0002:0000bd4c       $unwind$?IViewObject_Draw@CComControlBase@ATL@@QEAAJKJPEAXPEAUtagDVTARGETDEVICE@@PEAUHDC__@@2PEBU_RECTL@@3@Z 000000018002fd4c     Scale.obj
 0002:0000bd68       $unwind$?IDataObject_GetData@CComControlBase@ATL@@QEAAJPEAUtagFORMATETC@@PEAUtagSTGMEDIUM@@@Z 000000018002fd68     Scale.obj
 0002:0000bd88       $unwind$?OnPaint@CComControlBase@ATL@@QEAA_JI_K_JAEAH@Z 000000018002fd88     Scale.obj
 0002:0000bda4       $unwind$?OnDrawAdvanced@CComControlBase@ATL@@UEAAJAEAUATL_DRAWINFO@@@Z 000000018002fda4     Scale.obj
 0002:0000bdc0       $unwind$?Invoke@?$IDispatchImpl@UIOPOSScale@@$1?IID_IOPOSScale@@3U_GUID@@B$1?LIBID_OposScale_CCO@@3U3@B$00$0A@VCComTypeInfoHolder@ATL@@@ATL@@UEAAJJAEBU_GUID@@KGPEAUtagDISPPARAMS@@PEAUtagVARIANT@@PEAUtagEXCEPINFO@@PEAI@Z 000000018002fdc0     Scale.obj
 0002:0000bdc0       $unwind$?ReleaseDevice@COPOSScale@@UEAAJPEAJ@Z 000000018002fdc0     ScaleImpl.obj
 0002:0000bdc0       $unwind$_mbsdec_l          000000018002fdc0     libucrt:mbsdec.obj
 0002:0000bdcc       $unwind$?atlCreate@?$CWindowImpl@VCOPOSScale@@VCWindow@ATL@@V?$CWinTraits@$0FGAAAAAA@$0A@@3@@ATL@@QEAAPEAUHWND__@@PEAU3@V_U_RECT@2@PEB_WKKV_U_MENUorID@2@PEAX@Z 000000018002fdcc     Scale.obj
 0002:0000bdcc       $unwind$?fp_format_e@@YAHQEBNQEAD_K12H_NIQEAU__crt_locale_pointers@@W4__acrt_rounding_mode@@@Z 000000018002fdcc     libucrt:cvt.obj
 0002:0000bdcc       $unwind$_mbtowc_l          000000018002fdcc     libucrt:mbtowc.obj
 0002:0000bdcc       $unwind$__acrt_LCMapStringEx 000000018002fdcc     libucrt:winapi_thunks.obj
 0002:0000bde0       $unwind$?CreateControlWindow@?$CComControl@VCOPOSScale@@V?$CWindowImpl@VCOPOSScale@@VCWindow@ATL@@V?$CWinTraits@$0FGAAAAAA@$0A@@3@@ATL@@@ATL@@UEAAPEAUHWND__@@PEAU3@AEAUtagRECT@@@Z 000000018002fde0     Scale.obj
 0002:0000bde0       $unwind$?ClearInput@COPOSScale@@UEAAJPEAJ@Z 000000018002fde0     ScaleImpl.obj
 0002:0000bde0       $unwind$?ZeroScale@COPOSScale@@UEAAJPEAJ@Z 000000018002fde0     ScaleImpl.obj
 0002:0000bde0       $unwind$?__scrt_throw_std_bad_alloc@@YAXXZ 000000018002fde0     LIBCMT:throw_bad_alloc.obj
 0002:0000bde0       $unwind$?__scrt_throw_std_bad_array_new_length@@YAXXZ 000000018002fde0     LIBCMT:throw_bad_alloc.obj
 0002:0000bde0       $unwind$_raise_exc         000000018002fde0     libucrt:fpexcept.obj
 0002:0000bde8       $unwind$?GetSizeMax@?$IPersistStreamInitImpl@VCOPOSScale@@@ATL@@UEAAJPEAT_ULARGE_INTEGER@@@Z 000000018002fde8     Scale.obj
 0002:0000be00       $unwind$?IPersistStreamInit_Load@?$IPersistStreamInitImpl@VCOPOSScale@@@ATL@@QEAAJPEAUIStream@@PEBUATL_PROPMAP_ENTRY@2@@Z 000000018002fe00     Scale.obj
 0002:0000be1c       $unwind$?IPersistStreamInit_Save@?$IPersistStreamInitImpl@VCOPOSScale@@@ATL@@QEAAJPEAUIStream@@HPEBUATL_PROPMAP_ENTRY@2@@Z 000000018002fe1c     Scale.obj
 0002:0000be38       $unwind$?DoVerbPrimary@?$IOleObjectImpl@VCOPOSScale@@@ATL@@QEAAJPEBUtagRECT@@PEAUHWND__@@@Z 000000018002fe38     Scale.obj
 0002:0000be38       $unwind$?FreezeValue@COPOSScale@@UEAAJJFPEAJ@Z 000000018002fe38     ScaleImpl.obj
 0002:0000be38       $unwind$?SetSpecialTare@COPOSScale@@UEAAJJJPEAJ@Z 000000018002fe38     ScaleImpl.obj
 0002:0000be50       $unwind$?TranslateAcceleratorW@?$IOleInPlaceActiveObjectImpl@VCOPOSScale@@@ATL@@UEAAJPEAUtagMSG@@@Z 000000018002fe50     Scale.obj
 0002:0000be5c       $unwind$?Draw@?$IViewObjectExImpl@VCOPOSScale@@@ATL@@UEAAJKJPEAXPEAUtagDVTARGETDEVICE@@PEAUHDC__@@2PEBU_RECTL@@3P6AH_K@Z4@Z 000000018002fe5c     Scale.obj
 0002:0000be64       $unwind$?QueryHitRect@?$IViewObjectExImpl@VCOPOSScale@@@ATL@@UEAAJKPEBUtagRECT@@0JPEAK@Z 000000018002fe64     Scale.obj
 0002:0000be74       $unwind$?OnWindowMessage@?$IOleInPlaceObjectWindowlessImpl@VCOPOSScale@@@ATL@@UEAAJI_K_JPEA_J@Z 000000018002fe74     Scale.obj
 0002:0000be88       $unwind$?EnumConnectionPoints@?$IConnectionPointContainerImpl@VCOPOSScale@@@ATL@@UEAAJPEAPEAUIEnumConnectionPoints@@@Z 000000018002fe88     Scale.obj
 0002:0000beb0       $unwind$?FindConnectionPoint@?$IConnectionPointContainerImpl@VCOPOSScale@@@ATL@@UEAAJAEBU_GUID@@PEAPEAUIConnectionPoint@@@Z 000000018002feb0     Scale.obj
 0002:0000beb0       $unwind$?__mbrtoc32_utf8@__crt_mbstring@@YA_KPEA_UPEBD_KPEAU_Mbstatet@@@Z 000000018002feb0     libucrt:mbrtoc32.obj
 0002:0000becc       $unwind$?Load@?$IPersistStorageImpl@VCOPOSScale@@@ATL@@UEAAJPEAUIStorage@@@Z 000000018002fecc     Scale.obj
 0002:0000bedc       $unwind$?Save@?$IPersistStorageImpl@VCOPOSScale@@@ATL@@UEAAJPEAUIStorage@@H@Z 000000018002fedc     Scale.obj
 0002:0000bef0       $unwind$?IPSI_GetIPersistStreamInit@?$IPersistStorageImpl@VCOPOSScale@@@ATL@@AEAAPEAUIPersistStreamInit@@XZ 000000018002fef0     Scale.obj
 0002:0000bef0       $unwind$?parse_int_from_format_string@?$output_processor@_WV?$string_output_adapter@_W@__crt_stdio_output@@V?$format_validation_base@_WV?$string_output_adapter@_W@__crt_stdio_output@@@2@@__crt_stdio_output@@AEAA_NQEAH@Z 000000018002fef0     libucrt:output.obj
 0002:0000bf04       $unwind$?GetInterfaceSafetyOptions@?$IObjectSafetyImpl@VCOPOSScale@@$02@ATL@@UEAAJAEBU_GUID@@PEAK1@Z 000000018002ff04     Scale.obj
 0002:0000bf18       $unwind$?SetInterfaceSafetyOptions@?$IObjectSafetyImpl@VCOPOSScale@@$02@ATL@@UEAAJAEBU_GUID@@KK@Z 000000018002ff18     Scale.obj
 0002:0000bf2c       $unwind$?Advise@?$IConnectionPointImpl@VCOPOSScale@@$1?DIID__IOPOSScaleEvents@@3U_GUID@@BVCComDynamicUnkArray@ATL@@@ATL@@UEAAJPEAUIUnknown@@PEAK@Z 000000018002ff2c     Scale.obj
 0002:0000bf2c       $unwind$?Advise@?$IConnectionPointImpl@VCOPOSScale@@$1?IID_IPropertyNotifySink@@3U_GUID@@BVCComDynamicUnkArray@ATL@@@ATL@@UEAAJPEAUIUnknown@@PEAK@Z 000000018002ff2c     Scale.obj
 0002:0000bf40       $unwind$?Fire_DataEvent@?$CProxy_IOPOSEvents@VCOPOSScale@@@@QEAAXJ@Z 000000018002ff40     Scale.obj
 0002:0000bf40       $unwind$?Fire_StatusUpdateEvent@?$CProxy_IOPOSEvents@VCOPOSScale@@@@QEAAXJ@Z 000000018002ff40     Scale.obj
 0002:0000bf58       $unwind$?Fire_DirectIOEvent@?$CProxy_IOPOSEvents@VCOPOSScale@@@@QEAAXJPEAJPEAPEA_W@Z 000000018002ff58     Scale.obj
 0002:0000bf78       $unwind$?Fire_ErrorEvent@?$CProxy_IOPOSEvents@VCOPOSScale@@@@QEAAXJJJPEAJ@Z 000000018002ff78     Scale.obj
 0002:0000bf98       $unwind$?FireTheEvent@?$CProxy_IOPOSEvents@VCOPOSScale@@@@IEAAXPEAVOposVariant@@IAEAJPEB_WJ@Z 000000018002ff98     Scale.obj
 0002:0000bfa8       $unwind$?ProcessWindowMessage@COPOSScale@@UEAAHPEAUHWND__@@I_K_JAEA_JK@Z 000000018002ffa8     Scale.obj
 0002:0000bfa8       $unwind$__dcrt_get_narrow_environment_from_os 000000018002ffa8     libucrt:get_environment_from_os.obj
 0002:0000bfa8       $unwind$?fp_format_f_internal@@YAHQEAD_KHQEAU_strflt@@_NQEAU__crt_locale_pointers@@@Z 000000018002ffa8     libucrt:cvt.obj
 0002:0000bfa8       $unwind$??$__acrt_wcs_to_mbs_cp@U__crt_win32_buffer_internal_dynamic_resizing@@@@YAHQEB_WAEAV?$__crt_win32_buffer@DU__crt_win32_buffer_internal_dynamic_resizing@@@@I@Z 000000018002ffa8     libucrt:argv_wildcards.obj
 0002:0000bfc0       $unwind$?SOError@COPOSScale@@MEAAJJJJPEAJ@Z 000000018002ffc0     Scale.obj
 0002:0000bfc0       $unwind$_invalid_parameter 000000018002ffc0     libucrt:invalid_parameter.obj
 0002:0000bfd4       $unwind$?Clone@?$CComEnumImpl@UIEnumConnectionPoints@@$1?_GUID_b196b285_bab4_101a_b69c_00aa00341d07@@3U__s_GUID@@BPEAUIConnectionPoint@@V?$_CopyInterface@UIConnectionPoint@@@ATL@@@ATL@@UEAAJPEAPEAUIEnumConnectionPoints@@@Z 000000018002ffd4     Scale.obj
 0002:0000bfd4       $unwind$?Clone@?$CComEnumImpl@UIEnumConnections@@$1?_GUID_b196b287_bab4_101a_b69c_00aa00341d07@@3U__s_GUID@@BUtagCONNECTDATA@@V?$_Copy@UtagCONNECTDATA@@@ATL@@@ATL@@UEAAJPEAPEAUIEnumConnections@@@Z 000000018002ffd4     Scale.obj
 0002:0000bfec       $unwind$?GetOposProp@COPOSScale@@IEAAJJPEAJJ@Z 000000018002ffec     ScaleImpl.obj
 0002:0000bfec       $unwind$?GetOposProp@COPOSScale@@IEAAJJPEAPEA_WJ@Z 000000018002ffec     ScaleImpl.obj
 0002:0000c004       $unwind$?SetOposProp@COPOSScale@@IEAAJJJJ@Z 0000000180030004     ScaleImpl.obj
 0002:0000c024       $unwind$?DoInvoke@COPOSScale@@IEAAJJPEAVOposVariant@@IHPEAJ_N@Z 0000000180030024     ScaleImpl.obj
 0002:0000c03c       $unwind$?SetCOFreezeEvents@COPOSScale@@IEAAXF@Z 000000018003003c     ScaleImpl.obj
 0002:0000c050       $unwind$?OnDraw@COPOSScale@@MEAAJAEAUATL_DRAWINFO@@@Z 0000000180030050     ScaleImpl.obj
 0002:0000c068       $unwind$?EventInit@COPOSScale@@IEAAJXZ 0000000180030068     ScaleImpl.obj
 0002:0000c07c       $unwind$?EventWindowProc@COPOSScale@@IEAA_JI_K_J@Z 000000018003007c     ScaleImpl.obj
 0002:0000c07c       $unwind$__stdio_common_vswprintf_s 000000018003007c     libucrt:output.obj
 0002:0000c088       $unwind$?get_ControlObjectDescription@COPOSScale@@UEAAJPEAPEA_W@Z 0000000180030088     ScaleImpl.obj
 0002:0000c088       $unwind$__dcrt_lowio_ensure_console_output_initialized 0000000180030088     libucrt:initcon.obj
 0002:0000c088       $unwind$_isleadbyte_l      0000000180030088     libucrt:_wctype.obj
 0002:0000c088       $unwind$?getSystemCP@@YAHH@Z 0000000180030088     libucrt:mbctype.obj
 0002:0000c090       $unwind$?CheckHealth@COPOSScale@@UEAAJJPEAJ@Z 0000000180030090     ScaleImpl.obj
 0002:0000c090       $unwind$?DisplayText@COPOSScale@@UEAAJPEA_WPEAJ@Z 0000000180030090     ScaleImpl.obj
 0002:0000c090       $unwind$?ResetStatistics@COPOSScale@@UEAAJPEA_WPEAJ@Z 0000000180030090     ScaleImpl.obj
 0002:0000c090       $unwind$?RetrieveStatistics@COPOSScale@@UEAAJPEAPEA_WPEAJ@Z 0000000180030090     ScaleImpl.obj
 0002:0000c090       $unwind$?SetPriceCalculationMode@COPOSScale@@UEAAJJPEAJ@Z 0000000180030090     ScaleImpl.obj
 0002:0000c090       $unwind$?SetTarePriority@COPOSScale@@UEAAJJPEAJ@Z 0000000180030090     ScaleImpl.obj
 0002:0000c090       $unwind$?UpdateFirmware@COPOSScale@@UEAAJPEA_WPEAJ@Z 0000000180030090     ScaleImpl.obj
 0002:0000c090       $unwind$?UpdateStatistics@COPOSScale@@UEAAJPEA_WPEAJ@Z 0000000180030090     ScaleImpl.obj
 0002:0000c0a0       $unwind$?ClaimDevice@COPOSScale@@UEAAJJPEAJ@Z 00000001800300a0     ScaleImpl.obj
 0002:0000c0b0       $unwind$?Close@COPOSScale@@UEAAJPEAJ@Z 00000001800300b0     ScaleImpl.obj
 0002:0000c0bc       $unwind$?DirectIO@COPOSScale@@UEAAJJPEAJPEAPEA_W0@Z 00000001800300bc     ScaleImpl.obj
 0002:0000c0bc       $unwind$?ReadLiveWeightWithTare@COPOSScale@@UEAAJPEAJ0J0@Z 00000001800300bc     ScaleImpl.obj
 0002:0000c0d8       $unwind$?Open@COPOSScale@@UEAAJPEA_WPEAJ@Z 00000001800300d8     ScaleImpl.obj
 0002:0000c0fc       $unwind$?CompareFirmwareVersion@COPOSScale@@UEAAJPEA_WPEAJ1@Z 00000001800300fc     ScaleImpl.obj
 0002:0000c0fc       $unwind$?ReadWeight@COPOSScale@@UEAAJPEAJJ0@Z 00000001800300fc     ScaleImpl.obj
 0002:0000c0fc       $unwind$?initialize_inherited_file_handles_nolock@@YAXXZ 00000001800300fc     libucrt:ioinit.obj
 0002:0000c118       $unwind$?get_SalesPrice@COPOSScale@@UEAAJPEATtagCY@@@Z 0000000180030118     ScaleImpl.obj
 0002:0000c118       $unwind$?get_UnitPrice@COPOSScale@@UEAAJPEATtagCY@@@Z 0000000180030118     ScaleImpl.obj
 0002:0000c12c       $unwind$?put_UnitPrice@COPOSScale@@UEAAJTtagCY@@@Z 000000018003012c     ScaleImpl.obj
 0002:0000c144       $unwind$?DoPriceCalculating@COPOSScale@@UEAAJPEAJ0PEATtagCY@@10001J0@Z 0000000180030144     ScaleImpl.obj
 0002:0000c164       $unwind$?SetUnitPriceWithWeightUnit@COPOSScale@@UEAAJTtagCY@@JJJPEAJ@Z 0000000180030164     ScaleImpl.obj
 0002:0000c180       $unwind$__scrt_is_nonwritable_in_current_image 0000000180030180     LIBCMT:utility.obj
 0002:0000c1a0       $unwind$__scrt_is_nonwritable_in_current_image$filt$0 00000001800301a0     LIBCMT:utility.obj
 0002:0000c1a8       $unwind$__report_securityfailure 00000001800301a8     LIBCMT:gs_report.obj
 0002:0000c1b0       $unwind$__report_gsfailure 00000001800301b0     LIBCMT:gs_report.obj
 0002:0000c1b8       $unwind$capture_current_context 00000001800301b8     LIBCMT:gs_report.obj
 0002:0000c1c4       $unwind$capture_previous_context 00000001800301c4     LIBCMT:gs_report.obj
 0002:0000c1d0       $unwind$??2@YAPEAX_KAEBUnothrow_t@std@@@Z 00000001800301d0     LIBCMT:new_scalar_nothrow.obj
 0002:0000c1e0       $cppxdata$??2@YAPEAX_KAEBUnothrow_t@std@@@Z 00000001800301e0     LIBCMT:new_scalar_nothrow.obj
 0002:0000c1ed       $stateUnwindMap$??2@YAPEAX_KAEBUnothrow_t@std@@@Z 00000001800301ed     LIBCMT:new_scalar_nothrow.obj
 0002:0000c1f0       $tryMap$??2@YAPEAX_KAEBUnothrow_t@std@@@Z 00000001800301f0     LIBCMT:new_scalar_nothrow.obj
 0002:0000c1f8       $handlerMap$??2@YAPEAX_KAEBUnothrow_t@std@@@Z 00000001800301f8     LIBCMT:new_scalar_nothrow.obj
 0002:0000c200       $ip2state$??2@YAPEAX_KAEBUnothrow_t@std@@@Z 0000000180030200     LIBCMT:new_scalar_nothrow.obj
 0002:0000c204       $unwind$?catch$0@?0???2@YAPEAX_KAEBUnothrow_t@std@@@Z@4HA 0000000180030204     LIBCMT:new_scalar_nothrow.obj
 0002:0000c214       $cppxdata$?catch$0@?0???2@YAPEAX_KAEBUnothrow_t@std@@@Z@4HA 0000000180030214     LIBCMT:new_scalar_nothrow.obj
 0002:0000c21e       $stateUnwindMap$?catch$0@?0???2@YAPEAX_KAEBUnothrow_t@std@@@Z@4HA 000000018003021e     LIBCMT:new_scalar_nothrow.obj
 0002:0000c220       $ip2state$?catch$0@?0???2@YAPEAX_KAEBUnothrow_t@std@@@Z@4HA 0000000180030220     LIBCMT:new_scalar_nothrow.obj
 0002:0000c224       $unwind$__GSHandlerCheckCommon 0000000180030224     LIBCMT:gshandler.obj
 0002:0000c230       $xdatasym                  0000000180030230     LIBCMT:chkstk.obj
 0002:0000c238       $xdatasym                  0000000180030238     LIBCMT:amdsecgs.obj
 0002:0000c23c       $unwind$?dllmain_crt_process_attach@@YAHQEAUHINSTANCE__@@QEAX@Z 000000018003023c     LIBCMT:dll_dllmain.obj
 0002:0000c278       $unwind$?dllmain_crt_process_detach@@YAH_N@Z 0000000180030278     LIBCMT:dll_dllmain.obj
 0002:0000c2cc       $unwind$?dllmain_dispatch@@YAHQEAUHINSTANCE__@@KQEAX@Z 00000001800302cc     LIBCMT:dll_dllmain.obj
 0002:0000c2f4       $unwind$?filt$0@?0??dllmain_dispatch@@YAHQEAUHINSTANCE__@@KQEAX@Z@4HA 00000001800302f4     LIBCMT:dll_dllmain.obj
 0002:0000c2f4       $unwind$?filt$0@?0??FrameUnwindToState@__FrameHandler4@@SAXPEA_KPEAU_xDISPATCHER_CONTEXT@@PEAUFuncInfo4@FH4@@H@Z@4HA 00000001800302f4     libvcruntime:frame.obj
 0002:0000c2f4       $unwind$?fin$1@?0??FrameUnwindToState@__FrameHandler4@@SAXPEA_KPEAU_xDISPATCHER_CONTEXT@@PEAUFuncInfo4@FH4@@H@Z@4HA 00000001800302f4     libvcruntime:frame.obj
 0002:0000c2fc       $unwind$__isa_available_init 00000001800302fc     LIBCMT:cpu_disp.obj
 0002:0000c30c       $unwind$__scrt_fastfail    000000018003030c     LIBCMT:utility_desktop.obj
 0002:0000c31c       $unwind$__security_init_cookie 000000018003031c     LIBCMT:gs_support.obj
 0002:0000c328       $xdatasym                  0000000180030328     LIBCMT:guard_dispatch.obj
 0002:0000c330       $xdatasym                  0000000180030330     LIBCMT:guard_xfg_dispatch.obj
 0002:0000c334       $unwind$AtlThunk_InitData  0000000180030334     atls:atlthunk.obj
 0002:0000c348       $unwind$wcsstr             0000000180030348     libvcruntime:wcsstr.obj
 0002:0000c360       $xdatasym                  0000000180030360     libvcruntime:memcmp.obj
 0002:0000c368       $xdatasym                  0000000180030368     libvcruntime:memcpy.obj
 0002:0000c378       $xdatasym                  0000000180030378     libvcruntime:memset.obj
 0002:0000c388       $unwind$__C_specific_handler 0000000180030388     libvcruntime:riscchandler.obj
 0002:0000c3a4       $unwind$?DecompFuncInfo@FH4@@YA_JPEAEAEAUFuncInfo4@1@_KH_N@Z 00000001800303a4     libvcruntime:risctrnsctrl.obj
 0002:0000c3bc       $unwind$?UnwindNestedFrames@__FrameHandler4@@SAXPEA_KPEAUEHExceptionRecord@@PEAU_CONTEXT@@0PEAXPEAUFuncInfo4@FH4@@HHPEAUHandlerType4@5@PEAU_xDISPATCHER_CONTEXT@@E@Z 00000001800303bc     libvcruntime:risctrnsctrl.obj
 0002:0000c3d0       $unwind$?GetRangeOfTrysToCheck@__FrameHandler4@@SA?AU?$pair@Viterator@TryBlockMap4@FH4@@V123@@std@@AEAVTryBlockMap4@FH4@@HPEAU_xDISPATCHER_CONTEXT@@PEAUFuncInfo4@5@H@Z 00000001800303d0     libvcruntime:risctrnsctrl.obj
 0002:0000c3ec       $unwind$__CxxFrameHandler4 00000001800303ec     libvcruntime:risctrnsctrl.obj
 0002:0000c400       $unwind$??$_CallSETranslator@V__FrameHandler4@@@@YAHPEAUEHExceptionRecord@@PEA_KPEAU_CONTEXT@@PEAU_xDISPATCHER_CONTEXT@@PEAUFuncInfo4@FH4@@K1H@Z 0000000180030400     libvcruntime:risctrnsctrl.obj
 0002:0000c420       $unwind$?filt$0@?0???$_CallSETranslator@V__FrameHandler4@@@@YAHPEAUEHExceptionRecord@@PEA_KPEAU_CONTEXT@@PEAU_xDISPATCHER_CONTEXT@@PEAUFuncInfo4@FH4@@K1H@Z@4HA 0000000180030420     libvcruntime:risctrnsctrl.obj
 0002:0000c42c       $unwind$__DestructExceptionObject 000000018003042c     libvcruntime:ehhelpers.obj
 0002:0000c44c       $unwind$__DestructExceptionObject$filt$0 000000018003044c     libvcruntime:ehhelpers.obj
 0002:0000c44c       $unwind$?fin$1@?0??CxxCallCatchBlock@__FrameHandler4@@SAPEAXPEAU_EXCEPTION_RECORD@@@Z@4HA 000000018003044c     libvcruntime:frame.obj
 0002:0000c458       $unwind$_CxxThrowException 0000000180030458     libvcruntime:throw.obj
 0002:0000c468       $xdatasym                  0000000180030468     libvcruntime:notify.obj
 0002:0000c474       $unwind$?StateFromIp@__FrameHandler4@@SAHPEAUFuncInfo4@FH4@@PEAU_xDISPATCHER_CONTEXT@@_K@Z 0000000180030474     libvcruntime:ehstate.obj
 0002:0000c488       $unwind$?getStartStop@UWMap4@FH4@@QEAAXHHAEAViterator@12@0@Z 0000000180030488     libvcruntime:frame.obj
 0002:0000c4a0       $unwind$?FrameUnwindToState@__FrameHandler4@@SAXPEA_KPEAU_xDISPATCHER_CONTEXT@@PEAUFuncInfo4@FH4@@H@Z 00000001800304a0     libvcruntime:frame.obj
 0002:0000c4e8       $unwind$?CxxCallCatchBlock@__FrameHandler4@@SAPEAXPEAU_EXCEPTION_RECORD@@@Z 00000001800304e8     libvcruntime:frame.obj
 0002:0000c544       $unwind$?IsInExceptionSpec@@YAEPEAUEHExceptionRecord@@PEBU_s_ESTypeList@@@Z 0000000180030544     libvcruntime:frame.obj
 0002:0000c560       $unwind$??$__InternalCxxFrameHandler@V__FrameHandler4@@@@YA?AW4_EXCEPTION_DISPOSITION@@PEAUEHExceptionRecord@@PEA_KPEAU_CONTEXT@@PEAU_xDISPATCHER_CONTEXT@@PEAUFuncInfo4@FH4@@H1E@Z 0000000180030560     libvcruntime:frame.obj
 0002:0000c578       $unwind$??$BuildCatchObjectHelperInternal@V__FrameHandler4@@@@YAHPEAUEHExceptionRecord@@PEAXPEAUHandlerType4@FH4@@PEBU_s_CatchableType@@@Z 0000000180030578     libvcruntime:frame.obj
 0002:0000c5b8       $unwind$??$BuildCatchObjectInternal@V__FrameHandler4@@@@YAXPEAUEHExceptionRecord@@PEAXPEAUHandlerType4@FH4@@PEBU_s_CatchableType@@@Z 00000001800305b8     libvcruntime:frame.obj
 0002:0000c5e4       $unwind$??$FindHandler@V__FrameHandler4@@@@YAXPEAUEHExceptionRecord@@PEA_KPEAU_CONTEXT@@PEAU_xDISPATCHER_CONTEXT@@PEAUFuncInfo4@FH4@@EH1@Z 00000001800305e4     libvcruntime:frame.obj
 0002:0000c604       $unwind$??$CatchIt@V__FrameHandler4@@@@YAXPEAUEHExceptionRecord@@PEA_KPEAU_CONTEXT@@PEAU_xDISPATCHER_CONTEXT@@PEAUFuncInfo4@FH4@@PEAUHandlerType4@4@PEBU_s_CatchableType@@PEAUTryBlockMapEntry4@4@H1EE@Z 0000000180030604     libvcruntime:frame.obj
 0002:0000c61c       $unwind$??$FindHandlerForForeignException@V__FrameHandler4@@@@YAXPEAUEHExceptionRecord@@PEA_KPEAU_CONTEXT@@PEAU_xDISPATCHER_CONTEXT@@PEAUFuncInfo4@FH4@@HH1@Z 000000018003061c     libvcruntime:frame.obj
 0002:0000c63c       $unwind$?try_get_function@@YAPEAXW4function_id@?A0x5302d918@@QEBDQEBW4module_id@2@2@Z 000000018003063c     libvcruntime:winapi_downlevel.obj
 0002:0000c63c       $unwind$?try_get_function@@YAPEAXW4function_id@?A0x391cf84c@@QEBDQEBW4module_id@2@2@Z 000000018003063c     libucrt:winapi_thunks.obj
 0002:0000c658       $xdatasym                  0000000180030658     libvcruntime:handlers.obj
 0002:0000c678       $unwind$__acrt_call_reportfault 0000000180030678     libucrt:invalid_parameter.obj
 0002:0000c698       $unwind$_resetstkoflw      0000000180030698     libucrt:resetstk.obj
 0002:0000c6bc       $unwind$?write_string@?$string_output_adapter@_W@__crt_stdio_output@@QEBAXQEB_WHQEAHAEAV__crt_deferred_errno_cache@@@Z 00000001800306bc     libucrt:output.obj
 0002:0000c6d4       $unwind$??$common_vsprintf@Vformat_validation_base@__crt_stdio_output@@_W@@YAH_KQEA_W0QEB_WQEAU__crt_locale_pointers@@QEAD@Z 00000001800306d4     libucrt:output.obj
 0002:0000c6f4       $unwind$??$write_multiple_characters@V?$string_output_adapter@_W@__crt_stdio_output@@D@__crt_stdio_output@@YAXAEBV?$string_output_adapter@_W@0@DHQEAH@Z 00000001800306f4     libucrt:output.obj
 0002:0000c700       $unwind$?state_case_type@?$output_processor@_WV?$string_output_adapter@_W@__crt_stdio_output@@V?$format_validation_base@_WV?$string_output_adapter@_W@__crt_stdio_output@@@2@@__crt_stdio_output@@AEAA_NXZ 0000000180030700     libucrt:output.obj
 0002:0000c724       $unwind$?type_case_a@?$output_processor@_WV?$string_output_adapter@_W@__crt_stdio_output@@V?$format_validation_base@_WV?$string_output_adapter@_W@__crt_stdio_output@@@2@@__crt_stdio_output@@AEAA_NXZ 0000000180030724     libucrt:output.obj
 0002:0000c734       $unwind$?write_stored_string_tchar@?$output_processor@_WV?$string_output_adapter@_W@__crt_stdio_output@@V?$format_validation_base@_WV?$string_output_adapter@_W@__crt_stdio_output@@@2@@__crt_stdio_output@@AEAA_N_W@Z 0000000180030734     libucrt:output.obj
 0002:0000c748       $unwind$??$type_case_integer_parse_into_buffer@I@?$output_processor@_WV?$string_output_adapter@_W@__crt_stdio_output@@V?$format_validation_base@_WV?$string_output_adapter@_W@__crt_stdio_output@@@2@@__crt_stdio_output@@AEAAXII_N@Z 0000000180030748     libucrt:output.obj
 0002:0000c748       $unwind$??$type_case_integer_parse_into_buffer@_K@?$output_processor@_WV?$string_output_adapter@_W@__crt_stdio_output@@V?$format_validation_base@_WV?$string_output_adapter@_W@__crt_stdio_output@@@2@@__crt_stdio_output@@AEAAX_KI_N@Z 0000000180030748     libucrt:output.obj
 0002:0000c750       $unwind$?common_exit@@YAXHW4_crt_exit_cleanup_mode@@W4_crt_exit_return_mode@@@Z 0000000180030750     libucrt:exit.obj
 0002:0000c75c       $unwind$??R<lambda_6e4b09c48022b2350581041d5f6b0c4c>@@QEBA@XZ 000000018003075c     libucrt:exit.obj
 0002:0000c77c       $unwind$??$?RV<lambda_d80eeec6fff315bfe5c115232f3240e3>@@AEAV<lambda_6e4b09c48022b2350581041d5f6b0c4c>@@V<lambda_2358e3775559c9db80273638284d5e45>@@@?$__crt_seh_guarded_call@X@@QEAAX$$QEAV<lambda_d80eeec6fff315bfe5c115232f3240e3>@@AEAV<lambda_6e4b09c48022b2350581041d5f6b0c4c>@@$$QEAV<lambda_2358e3775559c9db80273638284d5e45>@@@Z 000000018003077c     libucrt:exit.obj
 0002:0000c7a0       $unwind$??$free_environment@D@@YAXQEAPEAD@Z 00000001800307a0     libucrt:environment_initialization.obj
 0002:0000c7a0       $unwind$??$free_environment@_W@@YAXQEAPEA_W@Z 00000001800307a0     libucrt:environment_initialization.obj
 0002:0000c7ac       $unwind$??$create_environment@D@@YAQEAPEADQEAD@Z 00000001800307ac     libucrt:environment_initialization.obj
 0002:0000c7c4       $unwind$_register_onexit_function 00000001800307c4     libucrt:onexit.obj
 0002:0000c7cc       $unwind$_execute_onexit_table 00000001800307cc     libucrt:onexit.obj
 0002:0000c7d4       $unwind$??R<lambda_22ebabd17bc4fa466a2aca6d8deb888d>@@QEBAHXZ 00000001800307d4     libucrt:onexit.obj
 0002:0000c7ec       $unwind$??$?RV<lambda_638799b9deba96c50f710eeac98168cd>@@AEAV<lambda_22ebabd17bc4fa466a2aca6d8deb888d>@@V<lambda_a6f7d7db0129f75315ebf26d50c089f1>@@@?$__crt_seh_guarded_call@H@@QEAAH$$QEAV<lambda_638799b9deba96c50f710eeac98168cd>@@AEAV<lambda_22ebabd17bc4fa466a2aca6d8deb888d>@@$$QEAV<lambda_a6f7d7db0129f75315ebf26d50c089f1>@@@Z 00000001800307ec     libucrt:onexit.obj
 0002:0000c810       $unwind$??$?RV<lambda_7777bce6b2f8c936911f934f8298dc43>@@AEAV<lambda_f03950bc5685219e0bcd2087efbe011e>@@V<lambda_3883c3dff614d5e0c5f61bb1ac94921c>@@@?$__crt_seh_guarded_call@H@@QEAAH$$QEAV<lambda_7777bce6b2f8c936911f934f8298dc43>@@AEAV<lambda_f03950bc5685219e0bcd2087efbe011e>@@$$QEAV<lambda_3883c3dff614d5e0c5f61bb1ac94921c>@@@Z 0000000180030810     libucrt:onexit.obj
 0002:0000c834       $unwind$_query_new_handler 0000000180030834     libucrt:new_handler.obj
 0002:0000c854       $unwind$terminate          0000000180030854     libucrt:terminate.obj
 0002:0000c874       $unwind$??$parse_integer@KV?$c_string_character_source@_W@__crt_strtox@@@__crt_strtox@@YAKQEAU__crt_locale_pointers@@V?$c_string_character_source@_W@0@H_N@Z 0000000180030874     libucrt:atox.obj
 0002:0000c890       $xdatasym                  0000000180030890     libucrt:strncmp.obj
 0002:0000c894       $unwind$?construct_ptd_array@@YAXQEAU__acrt_ptd@@@Z 0000000180030894     libucrt:per_thread_data.obj
 0002:0000c89c       $unwind$?destroy_ptd_array@@YAXQEAU__acrt_ptd@@@Z 000000018003089c     libucrt:per_thread_data.obj
 0002:0000c8a4       $unwind$??$?RV<lambda_0ae27a3a962d80f24befdcbee591983d>@@AEAV<lambda_8d0ee55de4b1038c4002e0adecdf1839>@@V<lambda_dc504788e8f1664fe9b84e20bfb512f2>@@@?$__crt_seh_guarded_call@X@@QEAAX$$QEAV<lambda_0ae27a3a962d80f24befdcbee591983d>@@AEAV<lambda_8d0ee55de4b1038c4002e0adecdf1839>@@$$QEAV<lambda_dc504788e8f1664fe9b84e20bfb512f2>@@@Z 00000001800308a4     libucrt:per_thread_data.obj
 0002:0000c8c8       $unwind$??$?RV<lambda_aa87e3671a710a21b5dc78c0bdf72e11>@@AEAV<lambda_92619d2358a28f41a33ba319515a20b9>@@V<lambda_6992ecaafeb10aed2b74cb1fae11a551>@@@?$__crt_seh_guarded_call@X@@QEAAX$$QEAV<lambda_aa87e3671a710a21b5dc78c0bdf72e11>@@AEAV<lambda_92619d2358a28f41a33ba319515a20b9>@@$$QEAV<lambda_6992ecaafeb10aed2b74cb1fae11a551>@@@Z 00000001800308c8     libucrt:per_thread_data.obj
 0002:0000c8ec       $unwind$??$?RV<lambda_f2e299630e499de9f9a165e60fcd3db5>@@AEAV<lambda_2ae9d31cdba2644fcbeaf08da7c24588>@@V<lambda_40d01ff24d0e7b3814fdbdcee8eab3c7>@@@?$__crt_seh_guarded_call@X@@QEAAX$$QEAV<lambda_f2e299630e499de9f9a165e60fcd3db5>@@AEAV<lambda_2ae9d31cdba2644fcbeaf08da7c24588>@@$$QEAV<lambda_40d01ff24d0e7b3814fdbdcee8eab3c7>@@@Z 00000001800308ec     libucrt:per_thread_data.obj
 0002:0000c910       $unwind$??$?RV<lambda_2d41944a1d46af3157314b8a01080d33>@@AEAV<lambda_8f455de75cd7d7f24b4096f044d8b9e6>@@V<lambda_aa500f224e6afead328df44964fe2772>@@@?$__crt_seh_guarded_call@X@@QEAAX$$QEAV<lambda_2d41944a1d46af3157314b8a01080d33>@@AEAV<lambda_8f455de75cd7d7f24b4096f044d8b9e6>@@$$QEAV<lambda_aa500f224e6afead328df44964fe2772>@@@Z 0000000180030910     libucrt:per_thread_data.obj
 0002:0000c934       $unwind$__acrt_initialize_winapi_thunks 0000000180030934     libucrt:winapi_thunks.obj
 0002:0000c93c       $unwind$__acrt_fp_format   000000018003093c     libucrt:cvt.obj
 0002:0000c954       $unwind$?fp_format_e_internal@@YAHQEAD_KH_NIQEAU_strflt@@2QEAU__crt_locale_pointers@@@Z 0000000180030954     libucrt:cvt.obj
 0002:0000c96c       $unwind$?fp_format_a@@YAHQEBNPEAD_KQEAD2H_NIQEAU__crt_locale_pointers@@W4__acrt_rounding_mode@@@Z 000000018003096c     libucrt:cvt.obj
 0002:0000c988       $unwind$?fp_format_g@@YAHQEBNQEAD_K12H_NIQEAU__crt_locale_pointers@@@Z 0000000180030988     libucrt:cvt.obj
 0002:0000c99c       $unwind$__acrt_uninitialize_locale 000000018003099c     libucrt:wsetlocale.obj
 0002:0000c99c       $unwind$__acrt_get_sigabrt_handler 000000018003099c     libucrt:signal.obj
 0002:0000c9a4       $unwind$??$?RV<lambda_410d79af7f07d98d83a3f525b3859a53>@@AEAV<lambda_3e16ef9562a7dcce91392c22ab16ea36>@@V<lambda_38119f0e861e05405d8a144b9b982f0a>@@@?$__crt_seh_guarded_call@X@@QEAAX$$QEAV<lambda_410d79af7f07d98d83a3f525b3859a53>@@AEAV<lambda_3e16ef9562a7dcce91392c22ab16ea36>@@$$QEAV<lambda_38119f0e861e05405d8a144b9b982f0a>@@@Z 00000001800309a4     libucrt:wsetlocale.obj
 0002:0000c9cc       $unwind$__acrt_initialize_lowio 00000001800309cc     libucrt:ioinit.obj
 0002:0000c9ec       $unwind$??$common_expand_argv_wildcards@D@@YAHQEAPEADQEAPEAPEAD@Z 00000001800309ec     libucrt:argv_wildcards.obj
 0002:0000ca04       $unwind$??$copy_and_add_argument_to_buffer@D@@YAHQEBD0_KAEAV?$argument_list@D@?A0x5f5c8891@@@Z 0000000180030a04     libucrt:argv_wildcards.obj
 0002:0000ca20       $unwind$??$expand_argument_wildcards@D@@YAHQEAD0AEAV?$argument_list@D@?A0x5f5c8891@@@Z 0000000180030a20     libucrt:argv_wildcards.obj
 0002:0000ca44       $unwind$__acrt_GetModuleFileNameA 0000000180030a44     libucrt:getmodulefilenamea.obj
 0002:0000ca60       $unwind$_setmbcp_nolock    0000000180030a60     libucrt:mbctype.obj
 0002:0000ca80       $unwind$?update_thread_multibyte_data_internal@@YAPEAU__crt_multibyte_data@@QEAU__acrt_ptd@@QEAPEAU1@@Z 0000000180030a80     libucrt:mbctype.obj
 0002:0000caa8       $unwind$?setmbcp_internal@@YAHH_NQEAU__acrt_ptd@@QEAPEAU__crt_multibyte_data@@@Z 0000000180030aa8     libucrt:mbctype.obj
 0002:0000cab8       $unwind$?setSBUpLow@@YAXPEAU__crt_multibyte_data@@@Z 0000000180030ab8     libucrt:mbctype.obj
 0002:0000cad4       $unwind$??$?RV<lambda_efdfa57d1f175319df784efa44bb7b81>@@AEAV<lambda_5f0a4c1567f8adc6734073e5d1e1b35c>@@V<lambda_2e8a7d3640ea6ccb4c2413664c2db6fd>@@@?$__crt_seh_guarded_call@X@@QEAAX$$QEAV<lambda_efdfa57d1f175319df784efa44bb7b81>@@AEAV<lambda_5f0a4c1567f8adc6734073e5d1e1b35c>@@$$QEAV<lambda_2e8a7d3640ea6ccb4c2413664c2db6fd>@@@Z 0000000180030ad4     libucrt:mbctype.obj
 0002:0000caf8       $unwind$__acrt_WideCharToMultiByte 0000000180030af8     libucrt:widechartomultibyte.obj
 0002:0000cb04       $unwind$raise              0000000180030b04     libucrt:signal.obj
 0002:0000cb40       $unwind$??$?RV<lambda_450d765d439847d4c735a33c368b5fc0>@@AEAV<lambda_44731a7d0e6d81c3e6aa82d741081786>@@V<lambda_601a2a7da3b7a96e9554ac7215c4b07c>@@@?$__crt_seh_guarded_call@P6AXH@Z@@QEAAP6AXH@Z$$QEAV<lambda_450d765d439847d4c735a33c368b5fc0>@@AEAV<lambda_44731a7d0e6d81c3e6aa82d741081786>@@$$QEAV<lambda_601a2a7da3b7a96e9554ac7215c4b07c>@@@Z 0000000180030b40     libucrt:signal.obj
 0002:0000cb64       $unwind$?common_flush_all@@YAH_N@Z 0000000180030b64     libucrt:fflush.obj
 0002:0000cb6c       $unwind$??$?RV<lambda_842d9ff0dc9ef11c61343bbaebe7f885>@@AEAV<lambda_c5860995281e5c4ce005b3de8f5874ee>@@V<lambda_d90129c13df834fdcbf8d2b88dafcf2d>@@@?$__crt_seh_guarded_call@X@@QEAAX$$QEAV<lambda_842d9ff0dc9ef11c61343bbaebe7f885>@@AEAV<lambda_c5860995281e5c4ce005b3de8f5874ee>@@$$QEAV<lambda_d90129c13df834fdcbf8d2b88dafcf2d>@@@Z 0000000180030b6c     libucrt:fflush.obj
 0002:0000cb90       $unwind$??$?RV<lambda_886d6c58226a84441f68b9f2b8217b83>@@AEAV<lambda_ab61a845afdef5b7c387490eaf3616ee>@@V<lambda_f7f22ab5edc0698d5f6905b0d3f44752>@@@?$__crt_seh_guarded_call@X@@QEAAX$$QEAV<lambda_886d6c58226a84441f68b9f2b8217b83>@@AEAV<lambda_ab61a845afdef5b7c387490eaf3616ee>@@$$QEAV<lambda_f7f22ab5edc0698d5f6905b0d3f44752>@@@Z 0000000180030b90     libucrt:fflush.obj
 0002:0000cbb8       $unwind$__acrt_update_thread_locale_data 0000000180030bb8     libucrt:locale_refcounting.obj
 0002:0000cbdc       $unwind$?__mbrtowc_utf8@__crt_mbstring@@YA_KPEA_WPEBD_KPEAU_Mbstatet@@@Z 0000000180030bdc     libucrt:mbrtowc.obj
 0002:0000cbe4       $unwind$?__mbsrtowcs_utf8@__crt_mbstring@@YA_KPEA_WPEAPEBD_KPEAU_Mbstatet@@@Z 0000000180030be4     libucrt:mbrtowc.obj
 0002:0000cbfc       $unwind$__acrt_fltout      0000000180030bfc     libucrt:cfout.obj
 0002:0000cc1c       $unwind$?divide@__crt_strtox@@YA_KAEAUbig_integer@1@AEBU21@@Z 0000000180030c1c     libucrt:cfout.obj
 0002:0000cc34       $chain$0$?divide@__crt_strtox@@YA_KAEAUbig_integer@1@AEBU21@@Z 0000000180030c34     libucrt:cfout.obj
 0002:0000cc48       $chain$1$?divide@__crt_strtox@@YA_KAEAUbig_integer@1@AEBU21@@Z 0000000180030c48     libucrt:cfout.obj
 0002:0000cc58       $unwind$_fcloseall         0000000180030c58     libucrt:closeall.obj
 0002:0000cc7c       $unwind$__acrt_locale_free_monetary 0000000180030c7c     libucrt:initmon.obj
 0002:0000cc84       $unwind$__acrt_locale_free_time 0000000180030c84     libucrt:inittime.obj
 0002:0000cc94       $unwind$__acrt_GetStringTypeA 0000000180030c94     libucrt:getstringtypea.obj
 0002:0000ccbc       $unwind$__acrt_lowio_destroy_handle_array 0000000180030cbc     libucrt:osfinfo.obj
 0002:0000cccc       $unwind$__acrt_lowio_ensure_fh_exists 0000000180030ccc     libucrt:osfinfo.obj
 0002:0000ccf8       $unwind$qsort              0000000180030cf8     libucrt:qsort.obj
 0002:0000cd10       $chain$4$qsort             0000000180030d10     libucrt:qsort.obj
 0002:0000cd34       $chain$5$qsort             0000000180030d34     libucrt:qsort.obj
 0002:0000cd44       $unwind$strpbrk            0000000180030d44     libucrt:strpbrk.obj
 0002:0000cd54       $unwind$fallbackMethod     0000000180030d54     libucrt:strpbrk.obj
 0002:0000cd64       $unwind$__acrt_LCMapStringA 0000000180030d64     libucrt:lcmapstringa.obj
 0002:0000cd74       $unwind$?__acrt_LCMapStringA_stat@@YAHPEAU__crt_locale_pointers@@PEB_WKPEBDHPEADHHH@Z 0000000180030d74     libucrt:lcmapstringa.obj
 0002:0000cd9c       $unwind$_close             0000000180030d9c     libucrt:close.obj
 0002:0000cd9c       $unwind$_commit            0000000180030d9c     libucrt:commit.obj
 0002:0000cda4       $unwind$??$?RV<lambda_a37b2b86f63e897a80ea819b0eb08c01>@@AEAV<lambda_38ce7e780aa69e748d6df282ebc68efe>@@V<lambda_99fb1378e971ab6e7edea83e3a7a83a2>@@@?$__crt_seh_guarded_call@H@@QEAAH$$QEAV<lambda_a37b2b86f63e897a80ea819b0eb08c01>@@AEAV<lambda_38ce7e780aa69e748d6df282ebc68efe>@@$$QEAV<lambda_99fb1378e971ab6e7edea83e3a7a83a2>@@@Z 0000000180030da4     libucrt:commit.obj
 0002:0000cdc8       $unwind$_write             0000000180030dc8     libucrt:write.obj
 0002:0000cdf8       $unwind$_write_nolock      0000000180030df8     libucrt:write.obj
 0002:0000ce10       $unwind$?write_double_translated_ansi_nolock@@YA?AUwrite_result@?A0x17268360@@HQEBDI@Z 0000000180030e10     libucrt:write.obj
 0002:0000ce34       $unwind$?write_text_ansi_nolock@@YA?AUwrite_result@?A0x17268360@@HQEBDI@Z 0000000180030e34     libucrt:write.obj
 0002:0000ce34       $unwind$?write_text_utf16le_nolock@@YA?AUwrite_result@?A0x17268360@@HQEBDI@Z 0000000180030e34     libucrt:write.obj
 0002:0000ce54       $unwind$?write_text_utf8_nolock@@YA?AUwrite_result@?A0x17268360@@HQEBDI@Z 0000000180030e54     libucrt:write.obj
 0002:0000ce78       $xdatasym                  0000000180030e78     libucrt:log10.obj
 0002:0000ce84       $unwind$__acrt_fenv_set_control 0000000180030e84     libucrt:_fenvutils.obj
 0002:0000ce94       $unwind$fclose             0000000180030e94     libucrt:fclose.obj
 0002:0000ceb8       $unwind$_putwch_nolock     0000000180030eb8     libucrt:putwch.obj
 0002:0000cec0       $unwind$common_control87   0000000180030ec0     libucrt:ieee.obj
 0002:0000ceec       $unwind$_call_matherr      0000000180030eec     libucrt:libm_error.obj
 0002:0000cef4       $unwind$_handle_error      0000000180030ef4     libucrt:libm_error.obj
 0002:0000cf14       $unwind$__acrt_initialize_fma3 0000000180030f14     libucrt:fma3_available.obj
 0002:0000cf1c       $unwind$_log_special_common 0000000180030f1c     libucrt:log_special.obj
 0002:0000cf28       $unwind$??$?RV<lambda_751a882b2c74d4b022dec766aa51a29a>@@AEAV<lambda_628dfdc04ba53c8bfc02c9951375f3f5>@@V<lambda_f6c7be5f7998530c34de24c7437d6b54>@@@?$__crt_seh_guarded_call@H@@QEAAH$$QEAV<lambda_751a882b2c74d4b022dec766aa51a29a>@@AEAV<lambda_628dfdc04ba53c8bfc02c9951375f3f5>@@$$QEAV<lambda_f6c7be5f7998530c34de24c7437d6b54>@@@Z 0000000180030f28     libucrt:close.obj
 0002:0000cf50       $xdatasym                  0000000180030f50     libucrt:fpsr.obj
 0002:0000cf58       $unwind$_raise_exc_ex      0000000180030f58     libucrt:fpexcept.obj
 0002:0000cf6c       $unwind$_ctrlfp            0000000180030f6c     libucrt:fpctrl.obj
 0002:0000cf94       $unwind$_IsNonwritableInCurrentImage 0000000180030f94     LIBCMT:pesect.obj
 0002:0000d120       .edata                     0000000180031120     OPOSScale.exp
 0002:0000d148       rgpv                       0000000180031148     OPOSScale.exp
 0002:0000d158       rgszName                   0000000180031158     OPOSScale.exp
 0002:0000d168       rgwOrd                     0000000180031168     OPOSScale.exp
 0002:0000d170       szName                     0000000180031170     OPOSScale.exp
 0002:0000d17e       $N00001                    000000018003117e     OPOSScale.exp
 0002:0000d18e       $N00002                    000000018003118e     OPOSScale.exp
 0002:0000d1a0       $N00003                    00000001800311a0     OPOSScale.exp
 0002:0000d1b2       $N00004                    00000001800311b2     OPOSScale.exp
 0002:0000dae2       .idata$6                   0000000180031ae2     kernel32:KERNEL32.dll
 0002:0000dcfa       .idata$6                   0000000180031cfa     user32:USER32.dll
 0002:0000de2e       .idata$6                   0000000180031e2e     gdi32:GDI32.dll
 0002:0000ded4       .idata$6                   0000000180031ed4     advapi32:ADVAPI32.dll
 0002:0000dff0       .idata$6                   0000000180031ff0     ole32:ole32.dll
 0002:0000dffa       .idata$6                   0000000180031ffa     oleaut32:OLEAUT32.dll
 0003:000001c0       ?ObjectMap@@3PAU_ATL_OBJMAP_ENTRY30@ATL@@A 00000001800331c0     Scale.obj
 0003:000002c0       ?s_SOMethodNames@@3PAPEADA 00000001800332c0     ScaleImpl.obj
 0003:000003b8       ?s_RequiredMethodsPerRelease@@3PAHA 00000001800333b8     ScaleImpl.obj
 0003:00000430       ?__vcrt_flsindex@@3KA      0000000180033430     libvcruntime:per_thread_data.obj
 0003:00000440       ?errno_no_memory@@3HA      0000000180033440     libucrt:errno.obj
 0003:00000444       ?doserrno_no_memory@@3KA   0000000180033444     libucrt:errno.obj
 0003:00000450       ?__acrt_flsindex@@3KA      0000000180033450     libucrt:per_thread_data.obj
 0003:00000910       _mbctypes                  0000000180033910     libucrt:mbctype.obj
 0003:00000a20       _mbcasemaps                0000000180033a20     libucrt:mbctype.obj
 0003:00000b20       ?__rgctypeflag@@3PADA      0000000180033b20     libucrt:mbctype.obj
 0003:00000b30       ?__rgcode_page_info@@3PAUcode_page_info@@A 0000000180033b30     libucrt:mbctype.obj
 0003:00000dd0       ?dazSupported@?1??common_control87@@9@9 0000000180033dd0     libucrt:ieee.obj
 0003:00000de0       ?__dcrt_lowio_console_output_handle@@3PEAXEA 0000000180033de0     libucrt:initcon.obj
 0003:00000df0       ?dazSupported@?1??_ctrlfp@@9@9 0000000180033df0     libucrt:fpctrl.obj
 0003:00001040       ?is_initialized_as_dll@@3_NA 0000000180034040     LIBCMT:utility.obj
 0003:00001041       ?module_local_atexit_table_initialized@@3_NA 0000000180034041     LIBCMT:utility.obj
 0003:00001048       ?module_local_atexit_table@@3U_onexit_table_t@@A 0000000180034048     LIBCMT:utility.obj
 0003:00001060       ?module_local_at_quick_exit_table@@3U_onexit_table_t@@A 0000000180034060     LIBCMT:utility.obj
 0003:00001078       ?g_tss_cv@@3U_RTL_CONDITION_VARIABLE@@A 0000000180034078     LIBCMT:thread_safe_statics.obj
 0003:00001080       ?g_tss_event@@3PEAXEA      0000000180034080     LIBCMT:thread_safe_statics.obj
 0003:00001088       ?g_tss_mutex@@3U_RTL_CRITICAL_SECTION@@A 0000000180034088     LIBCMT:thread_safe_statics.obj
 0003:000010b0       ?g_sleep_condition_variable_cs@@3P6AHPEAU_RTL_CONDITION_VARIABLE@@PEAU_RTL_CRITICAL_SECTION@@K@ZEA 00000001800340b0     LIBCMT:thread_safe_statics.obj
 0003:000010b8       ?g_wake_all_condition_variable@@3P6AXPEAU_RTL_CONDITION_VARIABLE@@@ZEA 00000001800340b8     LIBCMT:thread_safe_statics.obj
 0003:000010c0       GS_ExceptionRecord         00000001800340c0     LIBCMT:gs_report.obj
 0003:00001160       GS_ContextRecord           0000000180034160     LIBCMT:gs_report.obj
 0003:00001634       ?__proc_attached@@3HA      0000000180034634     LIBCMT:dll_dllmain.obj
 0003:000016c8       ?AllocateData@@3P6APEAUAtlThunkData_t@@XZEA 00000001800346c8     atls:atlthunk.obj
 0003:000016d0       ?InitData@@3P6AXPEAUAtlThunkData_t@@PEAX_K@ZEA 00000001800346d0     atls:atlthunk.obj
 0003:000016d8       ?DataToCode@@3P6AP6A_JPEAUHWND__@@I_K_J@ZPEAUAtlThunkData_t@@@ZEA 00000001800346d8     atls:atlthunk.obj
 0003:000016e0       ?FreeData@@3P6AXPEAUAtlThunkData_t@@@ZEA 00000001800346e0     atls:atlthunk.obj
 0003:000016e8       ?Initialized@@3_NA         00000001800346e8     atls:atlthunk.obj
 0003:00001700       ?__vcrt_startup_thread_ptd@@3U__vcrt_ptd@@A 0000000180034700     libvcruntime:per_thread_data.obj
 0003:00001780       __vcrt_lock_table          0000000180034780     libvcruntime:locks.obj
 0003:000017a8       __vcrt_locks_initialized   00000001800347a8     libvcruntime:locks.obj
 0003:000017f0       ?heap@@3V_HeapManager@@A   00000001800347f0     libvcruntime:undname.obj
 0003:00001818       ?module_handles@@3PAPEAUHINSTANCE__@@A 0000000180034818     libvcruntime:winapi_downlevel.obj
 0003:00001830       ?function_pointers@@3PAPEAXA 0000000180034830     libvcruntime:winapi_downlevel.obj
 0003:00001858       ?__acrt_invalid_parameter_handler@@3V?$dual_state_global@P6AXPEB_W00I_K@Z@__crt_state_management@@A 0000000180034858     libucrt:invalid_parameter.obj
 0003:00001860       ?c_termination_complete@@3JA 0000000180034860     libucrt:exit.obj
 0003:00001868       ?thread_local_exit_callback_func@@3P6AXPEAXK0@ZEA 0000000180034868     libucrt:exit.obj
 0003:00001880       ?program_name@?1???$common_configure_argv@D@@YAHW4_crt_argv_mode@@@Z@4PADA 0000000180034880     libucrt:argv_parsing.obj
 0003:000019d8       ?__acrt_new_handler@@3V?$dual_state_global@P6AH_K@Z@__crt_state_management@@A 00000001800349d8     libucrt:new_handler.obj
 0003:000019e0       ?module_handles@@3PAPEAUHINSTANCE__@@A 00000001800349e0     libucrt:winapi_thunks.obj
 0003:00001a80       ?encoded_function_pointers@@3PAPEAXA 0000000180034a80     libucrt:winapi_thunks.obj
 0003:00001b90       ?internal_state@?1??_mbtowc_l@@9@4U_Mbstatet@@A 0000000180034b90     libucrt:mbtowc.obj
 0003:00001ba8       ?enable_percent_n@@3_KA    0000000180034ba8     libucrt:printf_count_output.obj
 0003:00001fe0       ?__acrt_lock_table@@3PAU_RTL_CRITICAL_SECTION@@A 0000000180034fe0     libucrt:locks.obj
 0003:00002210       ?__acrt_locks_initialized@@3IA 0000000180035210     libucrt:locks.obj
 0003:00002230       ?fSystemSet@@3HA           0000000180035230     libucrt:mbctype.obj
 0003:00002234       ?initialized@?1??__acrt_initialize_multibyte@@9@4_NA 0000000180035234     libucrt:mbctype.obj
 0003:00002270       ?ctrlc_action@@3V?$dual_state_global@P6AXH@Z@__crt_state_management@@A 0000000180035270     libucrt:signal.obj
 0003:00002278       ?ctrlbreak_action@@3V?$dual_state_global@P6AXH@Z@__crt_state_management@@A 0000000180035278     libucrt:signal.obj
 0003:00002280       ?abort_action@@3V?$dual_state_global@P6AXH@Z@__crt_state_management@@A 0000000180035280     libucrt:signal.obj
 0003:00002288       ?term_action@@3V?$dual_state_global@P6AXH@Z@__crt_state_management@@A 0000000180035288     libucrt:signal.obj
 0003:00002290       ?user_matherr@@3V?$dual_state_global@P6AHPEAU_exception@@@Z@__crt_state_management@@A 0000000180035290     libucrt:matherr.obj
 0003:00002298       ?__acrt_global_new_mode@@3V?$dual_state_global@J@__crt_state_management@@A 0000000180035298     libucrt:new_mode.obj
 0003:000022a8       ?internal_pst@?1??__mbrtoc32_utf8@__crt_mbstring@@YA_KPEA_UPEBD_KPEAU_Mbstatet@@@Z@4U3@A 00000001800352a8     libucrt:mbrtoc32.obj
 0003:000022b0       ?__acrt_app_type@@3W4_crt_app_type@@A 00000001800352b0     libucrt:report_runtime_error.obj
 0004:00000000       $pdata$?cw_memcpy@@YAHPEA_WPEBDH@Z 0000000180036000     CWString.obj
 0004:0000000c       $pdata$?cw_strcpy@@YAHPEA_WPEBD@Z 000000018003600c     CWString.obj
 0004:00000018       $pdata$?cw_dup@@YAXPEBDAEAHAEAPEA_W1@Z 0000000180036018     CWString.obj
 0004:00000024       $pdata$?DupWide@_CW@@AEAAXXZ 0000000180036024     CWString.obj
 0004:00000030       $pdata$?AtlWinModuleTerm@ATL@@YAJPEAU_ATL_WIN_MODULE70@1@PEAUHINSTANCE__@@@Z 0000000180036030     OposVariant.obj
 0004:0000003c       $pdata$??0CAtlComModule@ATL@@QEAA@XZ 000000018003603c     OposVariant.obj
 0004:00000048       $pdata$?Term@CAtlComModule@ATL@@QEAAXXZ 0000000180036048     OposVariant.obj
 0004:00000054       $pdata$??__E_AtlComModule@ATL@@YAXXZ 0000000180036054     OposVariant.obj
 0004:00000060       $pdata$??0CAtlWinModule@ATL@@QEAA@XZ 0000000180036060     OposVariant.obj
 0004:0000006c       $pdata$??__E_AtlWinModule@ATL@@YAXXZ 000000018003606c     OposVariant.obj
 0004:00000078       $pdata$??__F_AtlWinModule@ATL@@YAXXZ 0000000180036078     OposVariant.obj
 0004:00000084       $pdata$??_Estringdispid@CComTypeInfoHolder@ATL@@QEAAPEAXI@Z 0000000180036084     OposVariant.obj
 0004:00000090       $pdata$?SetVARIANT_BOOL@OposVariant@@QEAAXF@Z 0000000180036090     OposVariant.obj
 0004:0000009c       $pdata$?GetLONG@OposVariant@@QEAAJXZ 000000018003609c     OposVariant.obj
 0004:000000a8       $pdata$?ChangeLONG@OposVariant@@QEAAXPEAJAEAJ@Z 00000001800360a8     OposVariant.obj
 0004:000000b4       $pdata$?SetLONG@OposVariant@@QEAAXJ@Z 00000001800360b4     OposVariant.obj
 0004:000000c0       $pdata$?SetLONG_Ptr@OposVariant@@QEAAXPEAJAEAJ@Z 00000001800360c0     OposVariant.obj
 0004:000000cc       $pdata$?ChangeCURRENCY@OposVariant@@QEAAXPEATtagCY@@AEAJ@Z 00000001800360cc     OposVariant.obj
 0004:000000d8       $pdata$?SetCURRENCY@OposVariant@@QEAAXTtagCY@@@Z 00000001800360d8     OposVariant.obj
 0004:000000e4       $pdata$?SetCURRENCY_Ptr@OposVariant@@QEAAXPEATtagCY@@AEAJ@Z 00000001800360e4     OposVariant.obj
 0004:000000f0       $pdata$?ChangeBSTR@OposVariant@@QEAAXPEAPEA_WAEAJ@Z 00000001800360f0     OposVariant.obj
 0004:000000fc       $pdata$?SetBSTR@OposVariant@@QEAAXPEA_WAEAJ@Z 00000001800360fc     OposVariant.obj
 0004:00000108       $pdata$?SetBSTR_Copy@OposVariant@@QEAAXPEA_WAEAJ@Z 0000000180036108     OposVariant.obj
 0004:00000114       $pdata$?SetBSTR_InOutPtr@OposVariant@@QEAA_NPEAPEA_WAEAJ@Z 0000000180036114     OposVariant.obj
 0004:00000120       $pdata$?SetString@OposVariant@@QEAAXPEB_WAEAJ@Z 0000000180036120     OposVariant.obj
 0004:0000012c       $pdata$?SetDispatch_Ptr@OposVariant@@QEAAXPEAUIDispatch@@AEAJ@Z 000000018003612c     OposVariant.obj
 0004:00000138       $pdata$??0OposDispParms@@QEAA@PEAVOposVariant@@H@Z 0000000180036138     OposVariant.obj
 0004:00000144       $pdata$??1OposDispParms@@QEAA@XZ 0000000180036144     OposVariant.obj
 0004:00000150       $pdata$?AtlThrowImpl@ATL@@YAXJ@Z 0000000180036150     Scale.obj
 0004:0000015c       $pdata$swprintf_s          000000018003615c     Scale.obj
 0004:00000168       $pdata$?_AtlVerifyStackAvailable@_ATL_SAFE_ALLOCA_IMPL@ATL@@YA_N_K@Z 0000000180036168     Scale.obj
 0004:00000174       $pdata$?filt$0@?0??_AtlVerifyStackAvailable@_ATL_SAFE_ALLOCA_IMPL@ATL@@YA_N_K@Z@4HA 0000000180036174     Scale.obj
 0004:00000180       $pdata$?ocscpy_s@@YA_NPEA_W_KPEB_W@Z 0000000180036180     Scale.obj
 0004:0000018c       $pdata$?AtlHresultFromLastError@ATL@@YAJXZ 000000018003618c     Scale.obj
 0004:00000198       $pdata$?AtlInternalOleLoadFromStream@ATL@@YAJPEAUIStream@@AEBU_GUID@@PEAPEAXTClassesAllowedInStream@1@K@Z 0000000180036198     Scale.obj
 0004:000001a4       $pdata$?ReadFromStream@CComBSTR@ATL@@QEAAJPEAUIStream@@@Z 00000001800361a4     Scale.obj
 0004:000001b0       $pdata$?WriteToStream@CComVariant@ATL@@QEAAJPEAUIStream@@@Z 00000001800361b0     Scale.obj
 0004:000001bc       $pdata$?WriteToStream@CComVariant@ATL@@QEAAJPEAUIStream@@G@Z 00000001800361bc     Scale.obj
 0004:000001c8       $pdata$?ReadFromStream@CComVariant@ATL@@QEAAJPEAUIStream@@GTClassesAllowedInStream@2@K@Z 00000001800361c8     Scale.obj
 0004:000001d4       $pdata$?GetSizeMax@CComVariant@ATL@@QEBAJPEAT_ULARGE_INTEGER@@@Z 00000001800361d4     Scale.obj
 0004:000001e0       $pdata$?RegCreateKeyExW@CAtlTransactionManager@ATL@@QEAAJPEAUHKEY__@@PEB_WKPEA_WKKQEAU_SECURITY_ATTRIBUTES@@PEAPEAU3@PEAK@Z 00000001800361e0     Scale.obj
 0004:000001ec       $pdata$?RegOpenKeyExW@CAtlTransactionManager@ATL@@QEAAJPEAUHKEY__@@PEB_WKKPEAPEAU3@@Z 00000001800361ec     Scale.obj
 0004:000001f8       $pdata$?RegDeleteKeyW@CAtlTransactionManager@ATL@@QEAAJPEAUHKEY__@@PEB_W@Z 00000001800361f8     Scale.obj
 0004:00000204       $pdata$?Add@?$CSimpleArray@GV?$CSimpleArrayEqualHelper@G@ATL@@@ATL@@QEAAHAEBG@Z 0000000180036204     Scale.obj
 0004:00000210       $pdata$?AtlInternalQueryInterface@ATL@@YAJPEAXPEBU_ATL_INTMAP_ENTRY@1@AEBU_GUID@@PEAPEAX@Z 0000000180036210     Scale.obj
 0004:0000021c       $pdata$?AtlComModuleGetClassObject@ATL@@YAJPEAU_ATL_COM_MODULE70@1@AEBU_GUID@@1PEAPEAX@Z 000000018003621c     Scale.obj
 0004:00000228       $pdata$?AtlRegisterClassCategoriesHelper@ATL@@YAJAEBU_GUID@@PEBU_ATL_CATMAP_ENTRY@1@H@Z 0000000180036228     Scale.obj
 0004:00000234       $pdata$?AtlLoadTypeLib@ATL@@YAJPEAUHINSTANCE__@@PEB_WPEAPEA_WPEAPEAUITypeLib@@@Z 0000000180036234     Scale.obj
 0004:00000240       $pdata$?AtlRegisterTypeLib@ATL@@YAJPEAUHINSTANCE__@@PEB_W@Z 0000000180036240     Scale.obj
 0004:0000024c       $pdata$?AtlUnRegisterTypeLib@ATL@@YAJPEAUHINSTANCE__@@PEB_W@Z 000000018003624c     Scale.obj
 0004:00000258       $pdata$?AtlComModuleRegisterServer@ATL@@YAJPEAU_ATL_COM_MODULE70@1@HPEBU_GUID@@@Z 0000000180036258     Scale.obj
 0004:00000264       $pdata$?AtlComModuleUnregisterServer@ATL@@YAJPEAU_ATL_COM_MODULE70@1@HPEBU_GUID@@@Z 0000000180036264     Scale.obj
 0004:00000270       $pdata$?AtlWinModuleExtractCreateWndData@ATL@@YAPEAXPEAU_ATL_WIN_MODULE70@1@@Z 0000000180036270     Scale.obj
 0004:0000027c       $pdata$?DeleteSubKey@CRegKey@ATL@@QEAAJPEB_W@Z 000000018003627c     Scale.obj
 0004:00000288       $pdata$?RecurseDeleteKey@CRegKey@ATL@@QEAAJPEB_W@Z 0000000180036288     Scale.obj
 0004:00000294       $pdata$??0CAtlModule@ATL@@QEAA@XZ 0000000180036294     Scale.obj
 0004:000002a0       $pdata$?Term@CAtlModule@ATL@@QEAAXXZ 00000001800362a0     Scale.obj
 0004:000002ac       $pdata$?AddTermFunc@CAtlModule@ATL@@QEAAJP6AX_K@Z0@Z 00000001800362ac     Scale.obj
 0004:000002b8       $pdata$?GetGITPtr@CAtlModule@ATL@@UEAAJPEAPEAUIGlobalInterfaceTable@@@Z 00000001800362b8     Scale.obj
 0004:000002c4       $pdata$?UpdateRegistryFromResource@CAtlModule@ATL@@QEAAJPEB_WHPEAU_ATL_REGMAP_ENTRY@2@@Z 00000001800362c4     Scale.obj
 0004:000002d0       $pdata$?UpdateRegistryFromResource@CAtlModule@ATL@@QEAAJIHPEAU_ATL_REGMAP_ENTRY@2@@Z 00000001800362d0     Scale.obj
 0004:000002dc       $pdata$?Term@CComModule@ATL@@QEAAXXZ 00000001800362dc     Scale.obj
 0004:000002e8       $pdata$?GetClassObject@CComModule@ATL@@QEAAJAEBU_GUID@@0PEAPEAX@Z 00000001800362e8     Scale.obj
 0004:000002f4       $pdata$?RegisterServer@CComModule@ATL@@QEAAJHPEBU_GUID@@@Z 00000001800362f4     Scale.obj
 0004:00000300       $pdata$?UnregisterServer@CComModule@ATL@@QEAAJHPEBU_GUID@@@Z 0000000180036300     Scale.obj
 0004:0000030c       $pdata$??_GCComModule@ATL@@UEAAPEAXI@Z 000000018003630c     Scale.obj
 0004:00000318       $pdata$?Add@?$CSimpleMap@PEA_WPEA_WVCExpansionVectorEqualHelper@ATL@@@ATL@@QEAAHAEBQEA_W0@Z 0000000180036318     Scale.obj
 0004:00000324       $pdata$?Lookup@?$CSimpleMap@PEA_WPEA_WVCExpansionVectorEqualHelper@ATL@@@ATL@@QEBAPEA_WAEBQEA_W@Z 0000000180036324     Scale.obj
 0004:00000330       $pdata$?Add@CExpansionVector@ATL@@QEAAHPEB_W0@Z 0000000180036330     Scale.obj
 0004:0000033c       $pdata$?ClearReplacements@CExpansionVector@ATL@@QEAAJXZ 000000018003633c     Scale.obj
 0004:00000348       $pdata$?PreProcessBuffer@CRegParser@ATL@@QEAAJPEA_WPEAPEA_W@Z 0000000180036348     Scale.obj
 0004:00000354       $pdata$?RegisterBuffer@CRegParser@ATL@@QEAAJPEA_WH@Z 0000000180036354     Scale.obj
 0004:00000360       $pdata$?NextToken@CRegParser@ATL@@IEAAJPEA_W@Z 0000000180036360     Scale.obj
 0004:0000036c       $pdata$?AddValue@CRegParser@ATL@@IEAAJAEAVCRegKey@2@PEB_WPEA_W@Z 000000018003636c     Scale.obj
 0004:00000378       $pdata$?RegisterSubkeys@CRegParser@ATL@@IEAAJPEA_WPEAUHKEY__@@HH@Z 0000000180036378     Scale.obj
 0004:00000384       $pdata$?SkipAssignment@CRegParser@ATL@@IEAAJPEA_W@Z 0000000180036384     Scale.obj
 0004:00000390       $pdata$?HKeyFromString@CRegParser@ATL@@KAPEAUHKEY__@@PEA_W@Z 0000000180036390     Scale.obj
 0004:0000039c       $pdata$?VTFromRegType@CRegParser@ATL@@KAHPEB_WAEAG@Z 000000018003639c     Scale.obj
 0004:000003a8       $pdata$?Append@CParseBuffer@CRegParser@ATL@@QEAAHPEB_WH@Z 00000001800363a8     Scale.obj
 0004:000003b4       $pdata$?AddReplacement@CRegObject@ATL@@UEAAJPEB_W0@Z 00000001800363b4     Scale.obj
 0004:000003c0       $pdata$?RegisterFromResource@CRegObject@ATL@@IEAAJPEB_W00H@Z 00000001800363c0     Scale.obj
 0004:000003cc       $pdata$??_GCRegObject@ATL@@UEAAPEAXI@Z 00000001800363cc     Scale.obj
 0004:000003d8       $pdata$?AllocateHeap@?$CTempBuffer@E$0BAA@VCCRTAllocator@ATL@@@ATL@@AEAAX_K@Z 00000001800363d8     Scale.obj
 0004:000003d8       $pdata$?AllocateHeap@?$CTempBuffer@_W$0BAA@VCCRTAllocator@ATL@@@ATL@@AEAAX_K@Z 00000001800363d8     Scale.obj
 0004:000003d8       $pdata$?AllocateHeap@?$CTempBuffer@_W$0EAA@VCCRTAllocator@ATL@@@ATL@@AEAAX_K@Z 00000001800363d8     Scale.obj
 0004:000003e4       $pdata$?CreateInstance@CComClassFactory@ATL@@UEAAJPEAUIUnknown@@AEBU_GUID@@PEAPEAX@Z 00000001800363e4     Scale.obj
 0004:000003f0       $pdata$?LockServer@CComClassFactory@ATL@@UEAAJH@Z 00000001800363f0     Scale.obj
 0004:000003fc       $pdata$??_GCComClassFactory@ATL@@UEAAPEAXI@Z 00000001800363fc     Scale.obj
 0004:00000408       $pdata$?GetTI@CComTypeInfoHolder@ATL@@QEAAJK@Z 0000000180036408     Scale.obj
 0004:00000414       $pdata$?Cleanup@CComTypeInfoHolder@ATL@@SAX_K@Z 0000000180036414     Scale.obj
 0004:00000420       $pdata$?GetIDsOfNames@CComTypeInfoHolder@ATL@@QEAAJAEBU_GUID@@PEAPEA_WIKPEAJ@Z 0000000180036420     Scale.obj
 0004:0000042c       $pdata$?LoadNameCache@CComTypeInfoHolder@ATL@@QEAAJPEAUITypeInfo@@@Z 000000018003642c     Scale.obj
 0004:00000438       $pdata$?Add@CComDynamicUnkArray@ATL@@QEAAKPEAUIUnknown@@@Z 0000000180036438     Scale.obj
 0004:00000444       $pdata$?AtlHiMetricToPixel@ATL@@YAXPEBUtagSIZE@@PEAU2@@Z 0000000180036444     Scale.obj
 0004:00000450       $pdata$?DefaultReflectionHandler@?$CWindowImplRoot@VCWindow@ATL@@@ATL@@SAHPEAUHWND__@@I_K_JAEA_J@Z 0000000180036450     Scale.obj
 0004:0000045c       $pdata$?StartWindowProc@?$CWindowImplBaseT@VCWindow@ATL@@V?$CWinTraits@$0FGAAAAAA@$0A@@2@@ATL@@SA_JPEAUHWND__@@I_K_J@Z 000000018003645c     Scale.obj
 0004:00000468       $pdata$?WindowProc@?$CWindowImplBaseT@VCWindow@ATL@@V?$CWinTraits@$0FGAAAAAA@$0A@@2@@ATL@@SA_JPEAUHWND__@@I_K_J@Z 0000000180036468     Scale.obj
 0004:00000474       $pdata$?atlCreate@?$CWindowImplBaseT@VCWindow@ATL@@V?$CWinTraits@$0FGAAAAAA@$0A@@2@@ATL@@QEAAPEAUHWND__@@PEAU3@V_U_RECT@2@PEB_WKKV_U_MENUorID@2@GPEAX@Z 0000000180036474     Scale.obj
 0004:00000480       $pdata$?IsEqualObject@?$CComPtrBase@UIOleClientSite@@@ATL@@QEAA_NPEAUIUnknown@@@Z 0000000180036480     Scale.obj
 0004:0000048c       $pdata$??$AtlModuleRegisterWndClassInfoT@VAtlModuleRegisterWndClassInfoParamW@ATL@@@ATL@@YAGPEAU_ATL_BASE_MODULE70@0@PEAU_ATL_WIN_MODULE70@0@PEAU_ATL_WNDCLASSINFOW@0@PEAP6A_JPEAUHWND__@@I_K_J@ZVAtlModuleRegisterWndClassInfoParamW@0@@Z 000000018003648c     Scale.obj
 0004:00000498       $pdata$?GetZoomInfo@CComControlBase@ATL@@QEAAXAEAUATL_DRAWINFO@@@Z 0000000180036498     Scale.obj
 0004:000004a4       $pdata$?SendOnDataChange@CComControlBase@ATL@@QEAAJK@Z 00000001800364a4     Scale.obj
 0004:000004b0       $pdata$?OnSetFocus@CComControlBase@ATL@@QEAA_JI_K_JAEAH@Z 00000001800364b0     Scale.obj
 0004:000004bc       $pdata$?OnKillFocus@CComControlBase@ATL@@QEAA_JI_K_JAEAH@Z 00000001800364bc     Scale.obj
 0004:000004c8       $pdata$?OnMouseActivate@CComControlBase@ATL@@QEAA_JI_K_JAEAH@Z 00000001800364c8     Scale.obj
 0004:000004d4       $pdata$?GetAmbientLocaleID@CComControlBase@ATL@@QEAAJAEAK@Z 00000001800364d4     Scale.obj
 0004:000004e0       $pdata$?GetAmbientUserMode@CComControlBase@ATL@@QEAAJAEAH@Z 00000001800364e0     Scale.obj
 0004:000004ec       $pdata$?SetControlFocus@CComControlBase@ATL@@QEAAHH@Z 00000001800364ec     Scale.obj
 0004:000004f8       $pdata$?IQuickActivate_QuickActivate@CComControlBase@ATL@@QEAAJPEAUtagQACONTAINER@@PEAUtagQACONTROL@@@Z 00000001800364f8     Scale.obj
 0004:00000504       $pdata$?DoVerbProperties@CComControlBase@ATL@@QEAAJPEBUtagRECT@@PEAUHWND__@@@Z 0000000180036504     Scale.obj
 0004:00000510       $pdata$?InPlaceActivate@CComControlBase@ATL@@QEAAJJPEBUtagRECT@@@Z 0000000180036510     Scale.obj
 0004:0000051c       $pdata$?IOleObject_SetClientSite@CComControlBase@ATL@@QEAAJPEAUIOleClientSite@@@Z 000000018003651c     Scale.obj
 0004:00000528       $pdata$?IOleObject_Close@CComControlBase@ATL@@QEAAJK@Z 0000000180036528     Scale.obj
 0004:00000534       $pdata$?IOleObject_SetExtent@CComControlBase@ATL@@QEAAJKPEAUtagSIZE@@@Z 0000000180036534     Scale.obj
 0004:00000540       $pdata$?IOleInPlaceObject_InPlaceDeactivate@CComControlBase@ATL@@QEAAJXZ 0000000180036540     Scale.obj
 0004:0000054c       $pdata$?IOleInPlaceObject_UIDeactivate@CComControlBase@ATL@@QEAAJXZ 000000018003654c     Scale.obj
 0004:00000558       $pdata$?IOleInPlaceObject_SetObjectRects@CComControlBase@ATL@@QEAAJPEBUtagRECT@@0@Z 0000000180036558     Scale.obj
 0004:00000564       $pdata$?IViewObject_Draw@CComControlBase@ATL@@QEAAJKJPEAXPEAUtagDVTARGETDEVICE@@PEAUHDC__@@2PEBU_RECTL@@3@Z 0000000180036564     Scale.obj
 0004:00000570       $pdata$?IDataObject_GetData@CComControlBase@ATL@@QEAAJPEAUtagFORMATETC@@PEAUtagSTGMEDIUM@@@Z 0000000180036570     Scale.obj
 0004:0000057c       $pdata$?FireViewChange@CComControlBase@ATL@@QEAAJXZ 000000018003657c     Scale.obj
 0004:00000588       $pdata$?OnPaint@CComControlBase@ATL@@QEAA_JI_K_JAEAH@Z 0000000180036588     Scale.obj
 0004:00000594       $pdata$?OnDrawAdvanced@CComControlBase@ATL@@UEAAJAEAUATL_DRAWINFO@@@Z 0000000180036594     Scale.obj
 0004:000005a0       $pdata$?GetTypeInfo@?$IDispatchImpl@UIOPOSScale@@$1?IID_IOPOSScale@@3U_GUID@@B$1?LIBID_OposScale_CCO@@3U3@B$00$0A@VCComTypeInfoHolder@ATL@@@ATL@@UEAAJIKPEAPEAUITypeInfo@@@Z 00000001800365a0     Scale.obj
 0004:000005ac       $pdata$?Invoke@?$IDispatchImpl@UIOPOSScale@@$1?IID_IOPOSScale@@3U_GUID@@B$1?LIBID_OposScale_CCO@@3U3@B$00$0A@VCComTypeInfoHolder@ATL@@@ATL@@UEAAJJAEBU_GUID@@KGPEAUtagDISPPARAMS@@PEAUtagVARIANT@@PEAUtagEXCEPINFO@@PEAI@Z 00000001800365ac     Scale.obj
 0004:000005b8       $pdata$?atlCreate@?$CWindowImpl@VCOPOSScale@@VCWindow@ATL@@V?$CWinTraits@$0FGAAAAAA@$0A@@3@@ATL@@QEAAPEAUHWND__@@PEAU3@V_U_RECT@2@PEB_WKKV_U_MENUorID@2@PEAX@Z 00000001800365b8     Scale.obj
 0004:000005c4       $pdata$?CreateControlWindow@?$CComControl@VCOPOSScale@@V?$CWindowImpl@VCOPOSScale@@VCWindow@ATL@@V?$CWinTraits@$0FGAAAAAA@$0A@@3@@ATL@@@ATL@@UEAAPEAUHWND__@@PEAU3@AEAUtagRECT@@@Z 00000001800365c4     Scale.obj
 0004:000005d0       $pdata$?ProcessWindowMessage@?$CComControl@VCOPOSScale@@V?$CWindowImpl@VCOPOSScale@@VCWindow@ATL@@V?$CWinTraits@$0FGAAAAAA@$0A@@3@@ATL@@@ATL@@UEAAHPEAUHWND__@@I_K_JAEA_JK@Z 00000001800365d0     Scale.obj
 0004:000005dc       $pdata$?GetSizeMax@?$IPersistStreamInitImpl@VCOPOSScale@@@ATL@@UEAAJPEAT_ULARGE_INTEGER@@@Z 00000001800365dc     Scale.obj
 0004:000005e8       $pdata$?IPersistStreamInit_Load@?$IPersistStreamInitImpl@VCOPOSScale@@@ATL@@QEAAJPEAUIStream@@PEBUATL_PROPMAP_ENTRY@2@@Z 00000001800365e8     Scale.obj
 0004:000005f4       $pdata$?IPersistStreamInit_Save@?$IPersistStreamInitImpl@VCOPOSScale@@@ATL@@QEAAJPEAUIStream@@HPEBUATL_PROPMAP_ENTRY@2@@Z 00000001800365f4     Scale.obj
 0004:00000600       $pdata$?GetClientSite@?$IOleObjectImpl@VCOPOSScale@@@ATL@@UEAAJPEAPEAUIOleClientSite@@@Z 0000000180036600     Scale.obj
 0004:0000060c       $pdata$?DoVerbPrimary@?$IOleObjectImpl@VCOPOSScale@@@ATL@@QEAAJPEBUtagRECT@@PEAUHWND__@@@Z 000000018003660c     Scale.obj
 0004:00000618       $pdata$?DoVerb@?$IOleObjectImpl@VCOPOSScale@@@ATL@@UEAAJJPEAUtagMSG@@PEAUIOleClientSite@@JPEAUHWND__@@PEBUtagRECT@@@Z 0000000180036618     Scale.obj
 0004:00000624       $pdata$?Advise@?$IOleObjectImpl@VCOPOSScale@@@ATL@@UEAAJPEAUIAdviseSink@@PEAK@Z 0000000180036624     Scale.obj
 0004:00000630       $pdata$?Unadvise@?$IOleObjectImpl@VCOPOSScale@@@ATL@@UEAAJK@Z 0000000180036630     Scale.obj
 0004:0000063c       $pdata$?EnumAdvise@?$IOleObjectImpl@VCOPOSScale@@@ATL@@UEAAJPEAPEAUIEnumSTATDATA@@@Z 000000018003663c     Scale.obj
 0004:00000648       $pdata$?TranslateAcceleratorW@?$IOleInPlaceActiveObjectImpl@VCOPOSScale@@@ATL@@UEAAJPEAUtagMSG@@@Z 0000000180036648     Scale.obj
 0004:00000654       $pdata$?OnDocWindowActivate@?$IOleInPlaceActiveObjectImpl@VCOPOSScale@@@ATL@@UEAAJH@Z 0000000180036654     Scale.obj
 0004:00000660       $pdata$?Draw@?$IViewObjectExImpl@VCOPOSScale@@@ATL@@UEAAJKJPEAXPEAUtagDVTARGETDEVICE@@PEAUHDC__@@2PEBU_RECTL@@3P6AH_K@Z4@Z 0000000180036660     Scale.obj
 0004:0000066c       $pdata$?SetAdvise@?$IViewObjectExImpl@VCOPOSScale@@@ATL@@UEAAJKKPEAUIAdviseSink@@@Z 000000018003666c     Scale.obj
 0004:00000678       $pdata$?GetAdvise@?$IViewObjectExImpl@VCOPOSScale@@@ATL@@UEAAJPEAK0PEAPEAUIAdviseSink@@@Z 0000000180036678     Scale.obj
 0004:00000684       $pdata$?QueryHitPoint@?$IViewObjectExImpl@VCOPOSScale@@@ATL@@UEAAJKPEBUtagRECT@@UtagPOINT@@JPEAK@Z 0000000180036684     Scale.obj
 0004:00000690       $pdata$?QueryHitRect@?$IViewObjectExImpl@VCOPOSScale@@@ATL@@UEAAJKPEBUtagRECT@@0JPEAK@Z 0000000180036690     Scale.obj
 0004:0000069c       $pdata$?OnWindowMessage@?$IOleInPlaceObjectWindowlessImpl@VCOPOSScale@@@ATL@@UEAAJI_K_JPEA_J@Z 000000018003669c     Scale.obj
 0004:000006a8       $pdata$?EnumConnectionPoints@?$IConnectionPointContainerImpl@VCOPOSScale@@@ATL@@UEAAJPEAPEAUIEnumConnectionPoints@@@Z 00000001800366a8     Scale.obj
 0004:000006b4       $pdata$?FindConnectionPoint@?$IConnectionPointContainerImpl@VCOPOSScale@@@ATL@@UEAAJAEBU_GUID@@PEAPEAUIConnectionPoint@@@Z 00000001800366b4     Scale.obj
 0004:000006c0       $pdata$?IsDirty@?$IPersistStorageImpl@VCOPOSScale@@@ATL@@UEAAJXZ 00000001800366c0     Scale.obj
 0004:000006cc       $pdata$?InitNew@?$IPersistStorageImpl@VCOPOSScale@@@ATL@@UEAAJPEAUIStorage@@@Z 00000001800366cc     Scale.obj
 0004:000006d8       $pdata$?Load@?$IPersistStorageImpl@VCOPOSScale@@@ATL@@UEAAJPEAUIStorage@@@Z 00000001800366d8     Scale.obj
 0004:000006e4       $pdata$?Save@?$IPersistStorageImpl@VCOPOSScale@@@ATL@@UEAAJPEAUIStorage@@H@Z 00000001800366e4     Scale.obj
 0004:000006f0       $pdata$?IPSI_GetIPersistStreamInit@?$IPersistStorageImpl@VCOPOSScale@@@ATL@@AEAAPEAUIPersistStreamInit@@XZ 00000001800366f0     Scale.obj
 0004:000006fc       $pdata$?GetPagesHelper@?$ISpecifyPropertyPagesImpl@VCOPOSScale@@@ATL@@IEAAJPEAUtagCAUUID@@PEBUATL_PROPMAP_ENTRY@2@@Z 00000001800366fc     Scale.obj
 0004:00000708       $pdata$?DAdvise@?$IDataObjectImpl@VCOPOSScale@@@ATL@@UEAAJPEAUtagFORMATETC@@KPEAUIAdviseSink@@PEAK@Z 0000000180036708     Scale.obj
 0004:00000714       $pdata$?GetClassInfoW@?$IProvideClassInfo2Impl@$1?CLSID_OPOSScale@@3U_GUID@@B$1?DIID__IOPOSScaleEvents@@3U2@B$1?LIBID_OposScale_CCO@@3U2@B$00$0A@VCComTypeInfoHolder@ATL@@@ATL@@UEAAJPEAPEAUITypeInfo@@@Z 0000000180036714     Scale.obj
 0004:00000720       $pdata$?GetInterfaceSafetyOptions@?$IObjectSafetyImpl@VCOPOSScale@@$02@ATL@@UEAAJAEBU_GUID@@PEAK1@Z 0000000180036720     Scale.obj
 0004:0000072c       $pdata$?SetInterfaceSafetyOptions@?$IObjectSafetyImpl@VCOPOSScale@@$02@ATL@@UEAAJAEBU_GUID@@KK@Z 000000018003672c     Scale.obj
 0004:00000738       $pdata$?_LocCPQueryInterface@?$IConnectionPointImpl@VCOPOSScale@@$1?DIID__IOPOSScaleEvents@@3U_GUID@@BVCComDynamicUnkArray@ATL@@@ATL@@UEAAJAEBU_GUID@@PEAPEAX@Z 0000000180036738     Scale.obj
 0004:00000738       $pdata$?_LocCPQueryInterface@?$IConnectionPointImpl@VCOPOSScale@@$1?IID_IPropertyNotifySink@@3U_GUID@@BVCComDynamicUnkArray@ATL@@@ATL@@UEAAJAEBU_GUID@@PEAPEAX@Z 0000000180036738     Scale.obj
 0004:00000744       $pdata$?Advise@?$IConnectionPointImpl@VCOPOSScale@@$1?DIID__IOPOSScaleEvents@@3U_GUID@@BVCComDynamicUnkArray@ATL@@@ATL@@UEAAJPEAUIUnknown@@PEAK@Z 0000000180036744     Scale.obj
 0004:00000744       $pdata$?Advise@?$IConnectionPointImpl@VCOPOSScale@@$1?IID_IPropertyNotifySink@@3U_GUID@@BVCComDynamicUnkArray@ATL@@@ATL@@UEAAJPEAUIUnknown@@PEAK@Z 0000000180036744     Scale.obj
 0004:00000750       $pdata$?Unadvise@?$IConnectionPointImpl@VCOPOSScale@@$1?DIID__IOPOSScaleEvents@@3U_GUID@@BVCComDynamicUnkArray@ATL@@@ATL@@UEAAJK@Z 0000000180036750     Scale.obj
 0004:00000750       $pdata$?Unadvise@?$IConnectionPointImpl@VCOPOSScale@@$1?IID_IPropertyNotifySink@@3U_GUID@@BVCComDynamicUnkArray@ATL@@@ATL@@UEAAJK@Z 0000000180036750     Scale.obj
 0004:0000075c       $pdata$?EnumConnections@?$IConnectionPointImpl@VCOPOSScale@@$1?DIID__IOPOSScaleEvents@@3U_GUID@@BVCComDynamicUnkArray@ATL@@@ATL@@UEAAJPEAPEAUIEnumConnections@@@Z 000000018003675c     Scale.obj
 0004:0000075c       $pdata$?EnumConnections@?$IConnectionPointImpl@VCOPOSScale@@$1?IID_IPropertyNotifySink@@3U_GUID@@BVCComDynamicUnkArray@ATL@@@ATL@@UEAAJPEAPEAUIEnumConnections@@@Z 000000018003675c     Scale.obj
 0004:00000768       $pdata$?Fire_DataEvent@?$CProxy_IOPOSEvents@VCOPOSScale@@@@QEAAXJ@Z 0000000180036768     Scale.obj
 0004:00000774       $pdata$?Fire_DirectIOEvent@?$CProxy_IOPOSEvents@VCOPOSScale@@@@QEAAXJPEAJPEAPEA_W@Z 0000000180036774     Scale.obj
 0004:00000780       $pdata$?Fire_ErrorEvent@?$CProxy_IOPOSEvents@VCOPOSScale@@@@QEAAXJJJPEAJ@Z 0000000180036780     Scale.obj
 0004:0000078c       $pdata$?Fire_StatusUpdateEvent@?$CProxy_IOPOSEvents@VCOPOSScale@@@@QEAAXJ@Z 000000018003678c     Scale.obj
 0004:00000798       $pdata$?FireTheEvent@?$CProxy_IOPOSEvents@VCOPOSScale@@@@IEAAXPEAVOposVariant@@IAEAJPEB_WJ@Z 0000000180036798     Scale.obj
 0004:000007a4       $pdata$?GetConnMap@COPOSScale@@SAPEBU_ATL_CONNMAP_ENTRY@ATL@@PEAH@Z 00000001800367a4     Scale.obj
 0004:000007b0       $pdata$?ProcessWindowMessage@COPOSScale@@UEAAHPEAUHWND__@@I_K_JAEA_JK@Z 00000001800367b0     Scale.obj
 0004:000007bc       $pdata$?SOData@COPOSScale@@MEAAJJ@Z 00000001800367bc     Scale.obj
 0004:000007c8       $pdata$?SODirectIO@COPOSScale@@MEAAJJPEAJPEAPEA_W@Z 00000001800367c8     Scale.obj
 0004:000007d4       $pdata$?SOError@COPOSScale@@MEAAJJJJPEAJ@Z 00000001800367d4     Scale.obj
 0004:000007e0       $pdata$?SOStatusUpdate@COPOSScale@@MEAAJJ@Z 00000001800367e0     Scale.obj
 0004:000007ec       $pdata$?DoEvent@COPOSScale@@IEAAXI_K_J@Z 00000001800367ec     Scale.obj
 0004:000007f8       $pdata$??__E_Module@@YAXXZ 00000001800367f8     Scale.obj
 0004:00000804       $pdata$?CreateInstance@?$CComCreator@V?$CComObjectCached@VCComClassFactory@ATL@@@ATL@@@ATL@@SAJPEAXAEBU_GUID@@PEAPEAX@Z 0000000180036804     Scale.obj
 0004:00000810       $pdata$DllMain             0000000180036810     Scale.obj
 0004:0000081c       $pdata$?CreateInstance@?$CComCreator@V?$CComObject@VCOPOSScale@@@ATL@@@ATL@@SAJPEAXAEBU_GUID@@PEAPEAX@Z 000000018003681c     Scale.obj
 0004:00000828       $pdata$?CreateInstance@?$CComCreator@V?$CComAggObject@VCOPOSScale@@@ATL@@@ATL@@SAJPEAXAEBU_GUID@@PEAPEAX@Z 0000000180036828     Scale.obj
 0004:00000834       $pdata$?AddRef@?$CComObjectCached@VCComClassFactory@ATL@@@ATL@@UEAAKXZ 0000000180036834     Scale.obj
 0004:00000840       $pdata$?Release@?$CComObjectCached@VCComClassFactory@ATL@@@ATL@@UEAAKXZ 0000000180036840     Scale.obj
 0004:0000084c       $pdata$??_G?$CComObjectCached@VCComClassFactory@ATL@@@ATL@@UEAAPEAXI@Z 000000018003684c     Scale.obj
 0004:00000858       $pdata$??1?$CComEnumImpl@UIEnumConnectionPoints@@$1?_GUID_b196b285_bab4_101a_b69c_00aa00341d07@@3U__s_GUID@@BPEAUIConnectionPoint@@V?$_CopyInterface@UIConnectionPoint@@@ATL@@@ATL@@UEAA@XZ 0000000180036858     Scale.obj
 0004:00000864       $pdata$?Next@?$CComEnumImpl@UIEnumConnectionPoints@@$1?_GUID_b196b285_bab4_101a_b69c_00aa00341d07@@3U__s_GUID@@BPEAUIConnectionPoint@@V?$_CopyInterface@UIConnectionPoint@@@ATL@@@ATL@@UEAAJKPEAPEAUIConnectionPoint@@PEAK@Z 0000000180036864     Scale.obj
 0004:00000870       $pdata$?Clone@?$CComEnumImpl@UIEnumConnectionPoints@@$1?_GUID_b196b285_bab4_101a_b69c_00aa00341d07@@3U__s_GUID@@BPEAUIConnectionPoint@@V?$_CopyInterface@UIConnectionPoint@@@ATL@@@ATL@@UEAAJPEAPEAUIEnumConnectionPoints@@@Z 0000000180036870     Scale.obj
 0004:0000087c       $pdata$?Init@?$CComEnumImpl@UIEnumConnectionPoints@@$1?_GUID_b196b285_bab4_101a_b69c_00aa00341d07@@3U__s_GUID@@BPEAUIConnectionPoint@@V?$_CopyInterface@UIConnectionPoint@@@ATL@@@ATL@@QEAAJPEAPEAUIConnectionPoint@@0PEAUIUnknown@@W4CComEnumFlags@2@@Z 000000018003687c     Scale.obj
 0004:00000888       $pdata$?Release@?$CComObject@V?$CComEnum@UIEnumConnectionPoints@@$1?_GUID_b196b285_bab4_101a_b69c_00aa00341d07@@3U__s_GUID@@BPEAUIConnectionPoint@@V?$_CopyInterface@UIConnectionPoint@@@ATL@@VCComSingleThreadModel@6@@ATL@@@ATL@@UEAAKXZ 0000000180036888     Scale.obj
 0004:00000888       $pdata$?Release@?$CComObject@V?$CComEnum@UIEnumConnections@@$1?_GUID_b196b287_bab4_101a_b69c_00aa00341d07@@3U__s_GUID@@BUtagCONNECTDATA@@V?$_Copy@UtagCONNECTDATA@@@ATL@@VCComSingleThreadModel@6@@ATL@@@ATL@@UEAAKXZ 0000000180036888     Scale.obj
 0004:00000894       $pdata$?CreateInstance@?$CComObject@V?$CComEnum@UIEnumConnectionPoints@@$1?_GUID_b196b285_bab4_101a_b69c_00aa00341d07@@3U__s_GUID@@BPEAUIConnectionPoint@@V?$_CopyInterface@UIConnectionPoint@@@ATL@@VCComSingleThreadModel@6@@ATL@@@ATL@@SAJPEAPEAV12@@Z 0000000180036894     Scale.obj
 0004:000008a0       $pdata$??_G?$CComObject@V?$CComEnum@UIEnumConnectionPoints@@$1?_GUID_b196b285_bab4_101a_b69c_00aa00341d07@@3U__s_GUID@@BPEAUIConnectionPoint@@V?$_CopyInterface@UIConnectionPoint@@@ATL@@VCComSingleThreadModel@6@@ATL@@@ATL@@UEAAPEAXI@Z 00000001800368a0     Scale.obj
 0004:000008ac       $pdata$?Release@?$CComAggObject@VCOPOSScale@@@ATL@@UEAAKXZ 00000001800368ac     Scale.obj
 0004:000008b8       $pdata$?QueryInterface@?$CComAggObject@VCOPOSScale@@@ATL@@UEAAJAEBU_GUID@@PEAPEAX@Z 00000001800368b8     Scale.obj
 0004:000008c4       $pdata$??0?$CComContainedObject@VCOPOSScale@@@ATL@@QEAA@PEAX@Z 00000001800368c4     Scale.obj
 0004:000008d0       $pdata$??_G?$CComContainedObject@VCOPOSScale@@@ATL@@UEAAPEAXI@Z 00000001800368d0     Scale.obj
 0004:000008dc       $pdata$??_G?$CComAggObject@VCOPOSScale@@@ATL@@UEAAPEAXI@Z 00000001800368dc     Scale.obj
 0004:000008e8       $pdata$??0?$CComObject@VCOPOSScale@@@ATL@@QEAA@PEAX@Z 00000001800368e8     Scale.obj
 0004:000008f4       $pdata$??1?$CComObject@VCOPOSScale@@@ATL@@UEAA@XZ 00000001800368f4     Scale.obj
 0004:00000900       $pdata$?Release@?$CComObject@VCOPOSScale@@@ATL@@UEAAKXZ 0000000180036900     Scale.obj
 0004:0000090c       $pdata$??_G?$CComObject@VCOPOSScale@@@ATL@@UEAAPEAXI@Z 000000018003690c     Scale.obj
 0004:00000918       $pdata$??__E?pConnMap@?$IConnectionPointContainerImpl@VCOPOSScale@@@ATL@@0PEBU_ATL_CONNMAP_ENTRY@2@EB@@YAXXZ 0000000180036918     Scale.obj
 0004:00000924       $pdata$??1?$CComEnumImpl@UIEnumConnections@@$1?_GUID_b196b287_bab4_101a_b69c_00aa00341d07@@3U__s_GUID@@BUtagCONNECTDATA@@V?$_Copy@UtagCONNECTDATA@@@ATL@@@ATL@@UEAA@XZ 0000000180036924     Scale.obj
 0004:00000930       $pdata$?Next@?$CComEnumImpl@UIEnumConnections@@$1?_GUID_b196b287_bab4_101a_b69c_00aa00341d07@@3U__s_GUID@@BUtagCONNECTDATA@@V?$_Copy@UtagCONNECTDATA@@@ATL@@@ATL@@UEAAJKPEAUtagCONNECTDATA@@PEAK@Z 0000000180036930     Scale.obj
 0004:0000093c       $pdata$?Clone@?$CComEnumImpl@UIEnumConnections@@$1?_GUID_b196b287_bab4_101a_b69c_00aa00341d07@@3U__s_GUID@@BUtagCONNECTDATA@@V?$_Copy@UtagCONNECTDATA@@@ATL@@@ATL@@UEAAJPEAPEAUIEnumConnections@@@Z 000000018003693c     Scale.obj
 0004:00000948       $pdata$?Init@?$CComEnumImpl@UIEnumConnections@@$1?_GUID_b196b287_bab4_101a_b69c_00aa00341d07@@3U__s_GUID@@BUtagCONNECTDATA@@V?$_Copy@UtagCONNECTDATA@@@ATL@@@ATL@@QEAAJPEAUtagCONNECTDATA@@0PEAUIUnknown@@W4CComEnumFlags@2@@Z 0000000180036948     Scale.obj
 0004:00000954       $pdata$?CreateInstance@?$CComObject@V?$CComEnum@UIEnumConnections@@$1?_GUID_b196b287_bab4_101a_b69c_00aa00341d07@@3U__s_GUID@@BUtagCONNECTDATA@@V?$_Copy@UtagCONNECTDATA@@@ATL@@VCComSingleThreadModel@6@@ATL@@@ATL@@SAJPEAPEAV12@@Z 0000000180036954     Scale.obj
 0004:00000960       $pdata$??_G?$CComObject@V?$CComEnum@UIEnumConnections@@$1?_GUID_b196b287_bab4_101a_b69c_00aa00341d07@@3U__s_GUID@@BUtagCONNECTDATA@@V?$_Copy@UtagCONNECTDATA@@@ATL@@VCComSingleThreadModel@6@@ATL@@@ATL@@UEAAPEAXI@Z 0000000180036960     Scale.obj
 0004:0000096c       $pdata$??1CComControlBase@ATL@@UEAA@XZ 000000018003696c     ScaleImpl.obj
 0004:00000978       $pdata$??1?$IConnectionPointImpl@VCOPOSScale@@$1?DIID__IOPOSScaleEvents@@3U_GUID@@BVCComDynamicUnkArray@ATL@@@ATL@@QEAA@XZ 0000000180036978     ScaleImpl.obj
 0004:00000978       $pdata$??1?$IConnectionPointImpl@VCOPOSScale@@$1?IID_IPropertyNotifySink@@3U_GUID@@BVCComDynamicUnkArray@ATL@@@ATL@@QEAA@XZ 0000000180036978     ScaleImpl.obj
 0004:00000984       $pdata$?FinalConstruct@COPOSScale@@QEAAJXZ 0000000180036984     ScaleImpl.obj
 0004:00000990       $pdata$??1COPOSScale@@UEAA@XZ 0000000180036990     ScaleImpl.obj
 0004:0000099c       $pdata$?GetOposProp@COPOSScale@@IEAAJJPEAJJ@Z 000000018003699c     ScaleImpl.obj
 0004:000009a8       $pdata$?SetOposProp@COPOSScale@@IEAAJJJJ@Z 00000001800369a8     ScaleImpl.obj
 0004:000009b4       $pdata$?GetOposProp@COPOSScale@@IEAAJJPEAPEA_WJ@Z 00000001800369b4     ScaleImpl.obj
 0004:000009c0       $pdata$?DoInvoke@COPOSScale@@IEAAJJPEAVOposVariant@@IHPEAJ_N@Z 00000001800369c0     ScaleImpl.obj
 0004:000009cc       $pdata$?SetCOFreezeEvents@COPOSScale@@IEAAXF@Z 00000001800369cc     ScaleImpl.obj
 0004:000009d8       $pdata$?FreezeEvents@COPOSScale@@MEAAJH@Z 00000001800369d8     ScaleImpl.obj
 0004:000009e4       $pdata$?OnDraw@COPOSScale@@MEAAJAEAUATL_DRAWINFO@@@Z 00000001800369e4     ScaleImpl.obj
 0004:000009f0       $pdata$?EventInit@COPOSScale@@IEAAJXZ 00000001800369f0     ScaleImpl.obj
 0004:000009fc       $pdata$?EventUninit@COPOSScale@@IEAAXXZ 00000001800369fc     ScaleImpl.obj
 0004:00000a08       $pdata$?s_EventWindowProc@COPOSScale@@KA_JPEAUHWND__@@I_K_J@Z 0000000180036a08     ScaleImpl.obj
 0004:00000a14       $pdata$?EventWindowProc@COPOSScale@@IEAA_JI_K_J@Z 0000000180036a14     ScaleImpl.obj
 0004:00000a20       $pdata$?SOProcessID@COPOSScale@@UEAAJPEAJ@Z 0000000180036a20     ScaleImpl.obj
 0004:00000a2c       $pdata$?get_Claimed@COPOSScale@@UEAAJPEAF@Z 0000000180036a2c     ScaleImpl.obj
 0004:00000a38       $pdata$?get_DeviceEnabled@COPOSScale@@UEAAJPEAF@Z 0000000180036a38     ScaleImpl.obj
 0004:00000a44       $pdata$?get_FreezeEvents@COPOSScale@@UEAAJPEAF@Z 0000000180036a44     ScaleImpl.obj
 0004:00000a50       $pdata$?put_FreezeEvents@COPOSScale@@UEAAJF@Z 0000000180036a50     ScaleImpl.obj
 0004:00000a5c       $pdata$?get_ResultCode@COPOSScale@@UEAAJPEAJ@Z 0000000180036a5c     ScaleImpl.obj
 0004:00000a68       $pdata$?get_State@COPOSScale@@UEAAJPEAJ@Z 0000000180036a68     ScaleImpl.obj
 0004:00000a74       $pdata$?get_ControlObjectDescription@COPOSScale@@UEAAJPEAPEA_W@Z 0000000180036a74     ScaleImpl.obj
 0004:00000a80       $pdata$?CheckHealth@COPOSScale@@UEAAJJPEAJ@Z 0000000180036a80     ScaleImpl.obj
 0004:00000a8c       $pdata$?ClaimDevice@COPOSScale@@UEAAJJPEAJ@Z 0000000180036a8c     ScaleImpl.obj
 0004:00000a98       $pdata$?Close@COPOSScale@@UEAAJPEAJ@Z 0000000180036a98     ScaleImpl.obj
 0004:00000aa4       $pdata$?DirectIO@COPOSScale@@UEAAJJPEAJPEAPEA_W0@Z 0000000180036aa4     ScaleImpl.obj
 0004:00000ab0       $pdata$?Open@COPOSScale@@UEAAJPEA_WPEAJ@Z 0000000180036ab0     ScaleImpl.obj
 0004:00000abc       $pdata$?ReleaseDevice@COPOSScale@@UEAAJPEAJ@Z 0000000180036abc     ScaleImpl.obj
 0004:00000ac8       $pdata$?ReadWeight@COPOSScale@@UEAAJPEAJJ0@Z 0000000180036ac8     ScaleImpl.obj
 0004:00000ad4       $pdata$?get_CapDisplay@COPOSScale@@UEAAJPEAF@Z 0000000180036ad4     ScaleImpl.obj
 0004:00000ae0       $pdata$?get_AutoDisable@COPOSScale@@UEAAJPEAF@Z 0000000180036ae0     ScaleImpl.obj
 0004:00000aec       $pdata$?get_DataEventEnabled@COPOSScale@@UEAAJPEAF@Z 0000000180036aec     ScaleImpl.obj
 0004:00000af8       $pdata$?ClearInput@COPOSScale@@UEAAJPEAJ@Z 0000000180036af8     ScaleImpl.obj
 0004:00000b04       $pdata$?get_AsyncMode@COPOSScale@@UEAAJPEAF@Z 0000000180036b04     ScaleImpl.obj
 0004:00000b10       $pdata$?get_CapDisplayText@COPOSScale@@UEAAJPEAF@Z 0000000180036b10     ScaleImpl.obj
 0004:00000b1c       $pdata$?get_CapPriceCalculating@COPOSScale@@UEAAJPEAF@Z 0000000180036b1c     ScaleImpl.obj
 0004:00000b28       $pdata$?get_CapTareWeight@COPOSScale@@UEAAJPEAF@Z 0000000180036b28     ScaleImpl.obj
 0004:00000b34       $pdata$?get_CapZeroScale@COPOSScale@@UEAAJPEAF@Z 0000000180036b34     ScaleImpl.obj
 0004:00000b40       $pdata$?get_SalesPrice@COPOSScale@@UEAAJPEATtagCY@@@Z 0000000180036b40     ScaleImpl.obj
 0004:00000b4c       $pdata$?get_UnitPrice@COPOSScale@@UEAAJPEATtagCY@@@Z 0000000180036b4c     ScaleImpl.obj
 0004:00000b58       $pdata$?put_UnitPrice@COPOSScale@@UEAAJTtagCY@@@Z 0000000180036b58     ScaleImpl.obj
 0004:00000b64       $pdata$?DisplayText@COPOSScale@@UEAAJPEA_WPEAJ@Z 0000000180036b64     ScaleImpl.obj
 0004:00000b70       $pdata$?ZeroScale@COPOSScale@@UEAAJPEAJ@Z 0000000180036b70     ScaleImpl.obj
 0004:00000b7c       $pdata$?get_CapStatisticsReporting@COPOSScale@@UEAAJPEAF@Z 0000000180036b7c     ScaleImpl.obj
 0004:00000b88       $pdata$?get_CapUpdateStatistics@COPOSScale@@UEAAJPEAF@Z 0000000180036b88     ScaleImpl.obj
 0004:00000b94       $pdata$?ResetStatistics@COPOSScale@@UEAAJPEA_WPEAJ@Z 0000000180036b94     ScaleImpl.obj
 0004:00000ba0       $pdata$?RetrieveStatistics@COPOSScale@@UEAAJPEAPEA_WPEAJ@Z 0000000180036ba0     ScaleImpl.obj
 0004:00000bac       $pdata$?UpdateStatistics@COPOSScale@@UEAAJPEA_WPEAJ@Z 0000000180036bac     ScaleImpl.obj
 0004:00000bb8       $pdata$?get_CapCompareFirmwareVersion@COPOSScale@@UEAAJPEAF@Z 0000000180036bb8     ScaleImpl.obj
 0004:00000bc4       $pdata$?get_CapUpdateFirmware@COPOSScale@@UEAAJPEAF@Z 0000000180036bc4     ScaleImpl.obj
 0004:00000bd0       $pdata$?CompareFirmwareVersion@COPOSScale@@UEAAJPEA_WPEAJ1@Z 0000000180036bd0     ScaleImpl.obj
 0004:00000bdc       $pdata$?UpdateFirmware@COPOSScale@@UEAAJPEA_WPEAJ@Z 0000000180036bdc     ScaleImpl.obj
 0004:00000be8       $pdata$?get_CapStatusUpdate@COPOSScale@@UEAAJPEAF@Z 0000000180036be8     ScaleImpl.obj
 0004:00000bf4       $pdata$?get_ZeroValid@COPOSScale@@UEAAJPEAF@Z 0000000180036bf4     ScaleImpl.obj
 0004:00000c00       $pdata$?get_CapFreezeValue@COPOSScale@@UEAAJPEAF@Z 0000000180036c00     ScaleImpl.obj
 0004:00000c0c       $pdata$?get_CapReadLiveWeightWithTare@COPOSScale@@UEAAJPEAF@Z 0000000180036c0c     ScaleImpl.obj
 0004:00000c18       $pdata$?get_CapSetPriceCalculationMode@COPOSScale@@UEAAJPEAF@Z 0000000180036c18     ScaleImpl.obj
 0004:00000c24       $pdata$?get_CapSetUnitPriceWithWeightUnit@COPOSScale@@UEAAJPEAF@Z 0000000180036c24     ScaleImpl.obj
 0004:00000c30       $pdata$?get_CapSpecialTare@COPOSScale@@UEAAJPEAF@Z 0000000180036c30     ScaleImpl.obj
 0004:00000c3c       $pdata$?get_CapTarePriority@COPOSScale@@UEAAJPEAF@Z 0000000180036c3c     ScaleImpl.obj
 0004:00000c48       $pdata$?DoPriceCalculating@COPOSScale@@UEAAJPEAJ0PEATtagCY@@10001J0@Z 0000000180036c48     ScaleImpl.obj
 0004:00000c54       $pdata$?FreezeValue@COPOSScale@@UEAAJJFPEAJ@Z 0000000180036c54     ScaleImpl.obj
 0004:00000c60       $pdata$?ReadLiveWeightWithTare@COPOSScale@@UEAAJPEAJ0J0@Z 0000000180036c60     ScaleImpl.obj
 0004:00000c6c       $pdata$?SetPriceCalculationMode@COPOSScale@@UEAAJJPEAJ@Z 0000000180036c6c     ScaleImpl.obj
 0004:00000c78       $pdata$?SetSpecialTare@COPOSScale@@UEAAJJJPEAJ@Z 0000000180036c78     ScaleImpl.obj
 0004:00000c84       $pdata$?SetTarePriority@COPOSScale@@UEAAJJPEAJ@Z 0000000180036c84     ScaleImpl.obj
 0004:00000c90       $pdata$?SetUnitPriceWithWeightUnit@COPOSScale@@UEAAJTtagCY@@JJJPEAJ@Z 0000000180036c90     ScaleImpl.obj
 0004:00000c9c       $pdata$atexit              0000000180036c9c     LIBCMT:utility.obj
 0004:00000ca8       $pdata$_onexit             0000000180036ca8     LIBCMT:utility.obj
 0004:00000cb4       $pdata$__scrt_is_nonwritable_in_current_image 0000000180036cb4     LIBCMT:utility.obj
 0004:00000cc0       $pdata$__scrt_is_nonwritable_in_current_image$filt$0 0000000180036cc0     LIBCMT:utility.obj
 0004:00000ccc       $pdata$__scrt_acquire_startup_lock 0000000180036ccc     LIBCMT:utility.obj
 0004:00000cd8       $pdata$__scrt_release_startup_lock 0000000180036cd8     LIBCMT:utility.obj
 0004:00000ce4       $pdata$__scrt_initialize_crt 0000000180036ce4     LIBCMT:utility.obj
 0004:00000cf0       $pdata$__scrt_uninitialize_crt 0000000180036cf0     LIBCMT:utility.obj
 0004:00000cfc       $pdata$__scrt_initialize_onexit_tables 0000000180036cfc     LIBCMT:utility.obj
 0004:00000d08       $pdata$__scrt_dllmain_exception_filter 0000000180036d08     LIBCMT:utility.obj
 0004:00000d14       $pdata$__scrt_dllmain_before_initialize_c 0000000180036d14     LIBCMT:utility.obj
 0004:00000d20       $pdata$__scrt_dllmain_after_initialize_c 0000000180036d20     LIBCMT:utility.obj
 0004:00000d2c       $pdata$__scrt_dllmain_uninitialize_c 0000000180036d2c     LIBCMT:utility.obj
 0004:00000d38       $pdata$__scrt_dllmain_uninitialize_critical 0000000180036d38     LIBCMT:utility.obj
 0004:00000d44       $pdata$__scrt_dllmain_crt_thread_attach 0000000180036d44     LIBCMT:utility.obj
 0004:00000d50       $pdata$__scrt_dllmain_crt_thread_detach 0000000180036d50     LIBCMT:utility.obj
 0004:00000d5c       $pdata$_Init_thread_header 0000000180036d5c     LIBCMT:thread_safe_statics.obj
 0004:00000d68       $pdata$_Init_thread_footer 0000000180036d68     LIBCMT:thread_safe_statics.obj
 0004:00000d74       $pdata$_Init_thread_wait   0000000180036d74     LIBCMT:thread_safe_statics.obj
 0004:00000d80       $pdata$_Init_thread_notify 0000000180036d80     LIBCMT:thread_safe_statics.obj
 0004:00000d8c       $pdata$?__scrt_uninitialize_thread_safe_statics@@YAXXZ 0000000180036d8c     LIBCMT:thread_safe_statics.obj
 0004:00000d98       $pdata$?__scrt_initialize_thread_safe_statics@@YAHXZ 0000000180036d98     LIBCMT:thread_safe_statics.obj
 0004:00000da4       $pdata$__report_securityfailure 0000000180036da4     LIBCMT:gs_report.obj
 0004:00000db0       $pdata$__report_rangecheckfailure 0000000180036db0     LIBCMT:gs_report.obj
 0004:00000dbc       $pdata$__report_gsfailure  0000000180036dbc     LIBCMT:gs_report.obj
 0004:00000dc8       $pdata$capture_current_context 0000000180036dc8     LIBCMT:gs_report.obj
 0004:00000dd4       $pdata$capture_previous_context 0000000180036dd4     LIBCMT:gs_report.obj
 0004:00000de0       $pdata$__raise_securityfailure 0000000180036de0     LIBCMT:gs_report.obj
 0004:00000dec       $pdata$??2@YAPEAX_KAEBUnothrow_t@std@@@Z 0000000180036dec     LIBCMT:new_scalar_nothrow.obj
 0004:00000df8       $pdata$?catch$0@?0???2@YAPEAX_KAEBUnothrow_t@std@@@Z@4HA 0000000180036df8     LIBCMT:new_scalar_nothrow.obj
 0004:00000e04       $pdata$__GSHandlerCheckCommon 0000000180036e04     LIBCMT:gshandler.obj
 0004:00000e10       $pdata$__GSHandlerCheck    0000000180036e10     LIBCMT:gshandler.obj
 0004:00000e1c       $pdata$__GSHandlerCheck_SEH 0000000180036e1c     LIBCMT:gshandlerseh.obj
 0004:00000e40       $pdata$?dllmain_crt_process_attach@@YAHQEAUHINSTANCE__@@QEAX@Z 0000000180036e40     LIBCMT:dll_dllmain.obj
 0004:00000e4c       $pdata$?fin$0@?0??dllmain_crt_process_attach@@YAHQEAUHINSTANCE__@@QEAX@Z@4HA 0000000180036e4c     LIBCMT:dll_dllmain.obj
 0004:00000e58       $pdata$?dllmain_crt_process_detach@@YAH_N@Z 0000000180036e58     LIBCMT:dll_dllmain.obj
 0004:00000e64       $pdata$?fin$0@?0??dllmain_crt_process_detach@@YAH_N@Z@4HA 0000000180036e64     LIBCMT:dll_dllmain.obj
 0004:00000e70       $pdata$?fin$1@?0??dllmain_crt_process_detach@@YAH_N@Z@4HA 0000000180036e70     LIBCMT:dll_dllmain.obj
 0004:00000e7c       $pdata$?dllmain_crt_dispatch@@YAHQEAUHINSTANCE__@@KQEAX@Z 0000000180036e7c     LIBCMT:dll_dllmain.obj
 0004:00000e88       $pdata$?dllmain_dispatch@@YAHQEAUHINSTANCE__@@KQEAX@Z 0000000180036e88     LIBCMT:dll_dllmain.obj
 0004:00000e94       $pdata$?filt$0@?0??dllmain_dispatch@@YAHQEAUHINSTANCE__@@KQEAX@Z@4HA 0000000180036e94     LIBCMT:dll_dllmain.obj
 0004:00000ea0       $pdata$_DllMainCRTStartup  0000000180036ea0     LIBCMT:dll_dllmain.obj
 0004:00000eac       $pdata$??2@YAPEAX_K@Z      0000000180036eac     LIBCMT:new_scalar.obj
 0004:00000eb8       $pdata$__isa_available_init 0000000180036eb8     LIBCMT:cpu_disp.obj
 0004:00000ec4       $pdata$__scrt_fastfail     0000000180036ec4     LIBCMT:utility_desktop.obj
 0004:00000ed0       $pdata$__security_init_cookie 0000000180036ed0     LIBCMT:gs_support.obj
 0004:00000edc       $pdata$__scrt_initialize_default_local_stdio_options 0000000180036edc     LIBCMT:default_local_stdio_options.obj
 0004:00000ee8       $pdata$_RTC_Initialize     0000000180036ee8     LIBCMT:initsect.obj
 0004:00000ef4       $pdata$_RTC_Terminate      0000000180036ef4     LIBCMT:initsect.obj
 0004:00000f00       $pdata$??0exception@std@@QEAA@AEBV01@@Z 0000000180036f00     LIBCMT:throw_bad_alloc.obj
 0004:00000f0c       $pdata$??_Gbad_alloc@std@@UEAAPEAXI@Z 0000000180036f0c     LIBCMT:throw_bad_alloc.obj
 0004:00000f0c       $pdata$??_Gbad_array_new_length@std@@UEAAPEAXI@Z 0000000180036f0c     LIBCMT:throw_bad_alloc.obj
 0004:00000f0c       $pdata$??_Gexception@std@@UEAAPEAXI@Z 0000000180036f0c     LIBCMT:throw_bad_alloc.obj
 0004:00000f0c       $pdata$??_Gbad_exception@std@@UEAAPEAXI@Z 0000000180036f0c     libvcruntime:frame.obj
 0004:00000f18       $pdata$??0bad_alloc@std@@QEAA@AEBV01@@Z 0000000180036f18     LIBCMT:throw_bad_alloc.obj
 0004:00000f24       $pdata$??0bad_array_new_length@std@@QEAA@AEBV01@@Z 0000000180036f24     LIBCMT:throw_bad_alloc.obj
 0004:00000f30       $pdata$?__scrt_throw_std_bad_alloc@@YAXXZ 0000000180036f30     LIBCMT:throw_bad_alloc.obj
 0004:00000f3c       $pdata$?__scrt_throw_std_bad_array_new_length@@YAXXZ 0000000180036f3c     LIBCMT:throw_bad_alloc.obj
 0004:00000f60       $pdata$??_Gtype_info@@UEAAPEAXI@Z 0000000180036f60     LIBCMT:std_type_info_static.obj
 0004:00000f6c       $pdata$??0CAtlBaseModule@ATL@@QEAA@XZ 0000000180036f6c     atls:atlbase.obj
 0004:00000f78       $pdata$??1CAtlBaseModule@ATL@@QEAA@XZ 0000000180036f78     atls:atlbase.obj
 0004:00000f84       $pdata$??__E_AtlBaseModule@ATL@@YAXXZ 0000000180036f84     atls:atlbase.obj
 0004:00000f90       $pdata$AtlThunk_AllocateData 0000000180036f90     atls:atlthunk.obj
 0004:00000f9c       $pdata$AtlThunk_InitData   0000000180036f9c     atls:atlthunk.obj
 0004:00000fa8       $pdata$AtlThunk_DataToCode 0000000180036fa8     atls:atlthunk.obj
 0004:00000fb4       $pdata$AtlThunk_FreeData   0000000180036fb4     atls:atlthunk.obj
 0004:00000fc0       $pdata$?__InitializeThunkPool@@YAHXZ 0000000180036fc0     atls:atlthunk.obj
 0004:00000fcc       $pdata$?__AllocStdCallThunk_cmn@@YAPEAXXZ 0000000180036fcc     atls:atlthunk.obj
 0004:00000fd8       $pdata$??$GetProcAddressAll@P6AP6A_JPEAUHWND__@@I_K_J@ZPEAUAtlThunkData_t@@@Z@@YAP6AP6A_JPEAUHWND__@@I_K_J@ZPEAUAtlThunkData_t@@@ZPEAP6AP6A_J0I12@Z3@Z@Z 0000000180036fd8     atls:atlthunk.obj
 0004:00000fd8       $pdata$??$GetProcAddressAll@P6APEAUAtlThunkData_t@@XZ@@YAP6APEAUAtlThunkData_t@@XZPEAP6APEAU0@XZ@Z 0000000180036fd8     atls:atlthunk.obj
 0004:00000fd8       $pdata$??$GetProcAddressAll@P6AXPEAUAtlThunkData_t@@@Z@@YAP6AXPEAUAtlThunkData_t@@@ZPEAP6AX0@Z@Z 0000000180036fd8     atls:atlthunk.obj
 0004:00000fd8       $pdata$??$GetProcAddressAll@P6AXPEAUAtlThunkData_t@@PEAX_K@Z@@YAP6AXPEAUAtlThunkData_t@@PEAX_K@ZPEAP6AX012@Z@Z 0000000180036fd8     atls:atlthunk.obj
 0004:00000fe4       $pdata$_purecall           0000000180036fe4     libvcruntime:purevirt.obj
 0004:00000ff0       $pdata$wcsstr              0000000180036ff0     libvcruntime:wcsstr.obj
 0004:00001038       $pdata$__vcrt_initialize   0000000180037038     libvcruntime:initialization.obj
 0004:00001044       $pdata$__vcrt_uninitialize 0000000180037044     libvcruntime:initialization.obj
 0004:00001050       $pdata$__vcrt_uninitialize_critical 0000000180037050     libvcruntime:initialization.obj
 0004:0000105c       $pdata$__vcrt_thread_attach 000000018003705c     libvcruntime:initialization.obj
 0004:00001068       $pdata$__vcrt_thread_detach 0000000180037068     libvcruntime:initialization.obj
 0004:00001074       $pdata$__C_specific_handler 0000000180037074     libvcruntime:riscchandler.obj
 0004:00001080       $pdata$?DecompFuncInfo@FH4@@YA_JPEAEAEAUFuncInfo4@1@_KH_N@Z 0000000180037080     libvcruntime:risctrnsctrl.obj
 0004:0000108c       $pdata$?FrameUnwindToEmptyState@__FrameHandler4@@SAXPEA_KPEAU_xDISPATCHER_CONTEXT@@PEAUFuncInfo4@FH4@@@Z 000000018003708c     libvcruntime:risctrnsctrl.obj
 0004:00001098       $pdata$?UnwindNestedFrames@__FrameHandler4@@SAXPEA_KPEAUEHExceptionRecord@@PEAU_CONTEXT@@0PEAXPEAUFuncInfo4@FH4@@HHPEAUHandlerType4@5@PEAU_xDISPATCHER_CONTEXT@@E@Z 0000000180037098     libvcruntime:risctrnsctrl.obj
 0004:000010a4       $pdata$?GetRangeOfTrysToCheck@__FrameHandler4@@SA?AU?$pair@Viterator@TryBlockMap4@FH4@@V123@@std@@AEAVTryBlockMap4@FH4@@HPEAU_xDISPATCHER_CONTEXT@@PEAUFuncInfo4@5@H@Z 00000001800370a4     libvcruntime:risctrnsctrl.obj
 0004:000010b0       $pdata$_GetImageBase       00000001800370b0     libvcruntime:risctrnsctrl.obj
 0004:000010bc       $pdata$_SetImageBase       00000001800370bc     libvcruntime:risctrnsctrl.obj
 0004:000010c8       $pdata$_GetThrowImageBase  00000001800370c8     libvcruntime:risctrnsctrl.obj
 0004:000010d4       $pdata$_SetThrowImageBase  00000001800370d4     libvcruntime:risctrnsctrl.obj
 0004:000010e0       $pdata$_CreateFrameInfo    00000001800370e0     libvcruntime:risctrnsctrl.obj
 0004:000010ec       $pdata$_FindAndUnlinkFrame 00000001800370ec     libvcruntime:risctrnsctrl.obj
 0004:000010f8       $pdata$__CxxFrameHandler4  00000001800370f8     libvcruntime:risctrnsctrl.obj
 0004:00001104       $pdata$??$_CallSETranslator@V__FrameHandler4@@@@YAHPEAUEHExceptionRecord@@PEA_KPEAU_CONTEXT@@PEAU_xDISPATCHER_CONTEXT@@PEAUFuncInfo4@FH4@@K1H@Z 0000000180037104     libvcruntime:risctrnsctrl.obj
 0004:00001110       $pdata$?filt$0@?0???$_CallSETranslator@V__FrameHandler4@@@@YAHPEAUEHExceptionRecord@@PEA_KPEAU_CONTEXT@@PEAU_xDISPATCHER_CONTEXT@@PEAUFuncInfo4@FH4@@K1H@Z@4HA 0000000180037110     libvcruntime:risctrnsctrl.obj
 0004:0000111c       $pdata$_IsExceptionObjectToBeDestroyed 000000018003711c     libvcruntime:ehhelpers.obj
 0004:00001128       $pdata$__FrameUnwindFilter 0000000180037128     libvcruntime:ehhelpers.obj
 0004:00001134       $pdata$__DestructExceptionObject 0000000180037134     libvcruntime:ehhelpers.obj
 0004:00001140       $pdata$__DestructExceptionObject$filt$0 0000000180037140     libvcruntime:ehhelpers.obj
 0004:0000114c       $pdata$__std_type_info_destroy_list 000000018003714c     libvcruntime:std_type_info.obj
 0004:00001158       $pdata$__std_exception_copy 0000000180037158     libvcruntime:std_exception.obj
 0004:00001164       $pdata$__std_exception_destroy 0000000180037164     libvcruntime:std_exception.obj
 0004:00001170       $pdata$_CxxThrowException  0000000180037170     libvcruntime:throw.obj
 0004:0000117c       $pdata$__vcrt_initialize_ptd 000000018003717c     libvcruntime:per_thread_data.obj
 0004:00001188       $pdata$__vcrt_uninitialize_ptd 0000000180037188     libvcruntime:per_thread_data.obj
 0004:00001194       $pdata$__vcrt_getptd       0000000180037194     libvcruntime:per_thread_data.obj
 0004:000011a0       $pdata$__vcrt_getptd_noexit 00000001800371a0     libvcruntime:per_thread_data.obj
 0004:000011ac       $pdata$__vcrt_freeptd      00000001800371ac     libvcruntime:per_thread_data.obj
 0004:000011b8       $pdata$__vcrt_freefls      00000001800371b8     libvcruntime:per_thread_data.obj
 0004:000011c4       $pdata$__vcrt_initialize_locks 00000001800371c4     libvcruntime:locks.obj
 0004:000011d0       $pdata$__vcrt_uninitialize_locks 00000001800371d0     libvcruntime:locks.obj
 0004:00001200       $pdata$?StateFromIp@__FrameHandler4@@SAHPEAUFuncInfo4@FH4@@PEAU_xDISPATCHER_CONTEXT@@_K@Z 0000000180037200     libvcruntime:ehstate.obj
 0004:0000120c       $pdata$?getStartStop@UWMap4@FH4@@QEAAXHHAEAViterator@12@0@Z 000000018003720c     libvcruntime:frame.obj
 0004:00001218       $pdata$?getStateFromIterators@UWMap4@FH4@@SAHAEBViterator@12@H0H0@Z 0000000180037218     libvcruntime:frame.obj
 0004:00001224       $pdata$??0HandlerMap4@FH4@@QEAA@PEBUTryBlockMapEntry4@1@_KH@Z 0000000180037224     libvcruntime:frame.obj
 0004:00001230       $pdata$?FrameUnwindToState@__FrameHandler4@@SAXPEA_KPEAU_xDISPATCHER_CONTEXT@@PEAUFuncInfo4@FH4@@H@Z 0000000180037230     libvcruntime:frame.obj
 0004:0000123c       $pdata$?filt$0@?0??FrameUnwindToState@__FrameHandler4@@SAXPEA_KPEAU_xDISPATCHER_CONTEXT@@PEAUFuncInfo4@FH4@@H@Z@4HA 000000018003723c     libvcruntime:frame.obj
 0004:00001248       $pdata$?fin$1@?0??FrameUnwindToState@__FrameHandler4@@SAXPEA_KPEAU_xDISPATCHER_CONTEXT@@PEAUFuncInfo4@FH4@@H@Z@4HA 0000000180037248     libvcruntime:frame.obj
 0004:00001254       $pdata$?CxxCallCatchBlock@__FrameHandler4@@SAPEAXPEAU_EXCEPTION_RECORD@@@Z 0000000180037254     libvcruntime:frame.obj
 0004:00001260       $pdata$?filt$0@?0??CxxCallCatchBlock@__FrameHandler4@@SAPEAXPEAU_EXCEPTION_RECORD@@@Z@4HA 0000000180037260     libvcruntime:frame.obj
 0004:0000126c       $pdata$?fin$1@?0??CxxCallCatchBlock@__FrameHandler4@@SAPEAXPEAU_EXCEPTION_RECORD@@@Z@4HA 000000018003726c     libvcruntime:frame.obj
 0004:00001278       $pdata$??0bad_exception@std@@QEAA@AEBV01@@Z 0000000180037278     libvcruntime:frame.obj
 0004:00001284       $pdata$?ExFilterRethrow@@YAHPEAU_EXCEPTION_POINTERS@@PEAUEHExceptionRecord@@PEAH@Z 0000000180037284     libvcruntime:frame.obj
 0004:00001290       $pdata$?ExFilterRethrowFH4@@YAHPEAU_EXCEPTION_POINTERS@@PEAUEHExceptionRecord@@HPEAH@Z 0000000180037290     libvcruntime:frame.obj
 0004:0000129c       $pdata$?IsInExceptionSpec@@YAEPEAUEHExceptionRecord@@PEBU_s_ESTypeList@@@Z 000000018003729c     libvcruntime:frame.obj
 0004:000012a8       $pdata$?Is_bad_exception_allowed@@YAEPEBU_s_ESTypeList@@@Z 00000001800372a8     libvcruntime:frame.obj
 0004:000012b4       $pdata$??$__InternalCxxFrameHandler@V__FrameHandler4@@@@YA?AW4_EXCEPTION_DISPOSITION@@PEAUEHExceptionRecord@@PEA_KPEAU_CONTEXT@@PEAU_xDISPATCHER_CONTEXT@@PEAUFuncInfo4@FH4@@H1E@Z 00000001800372b4     libvcruntime:frame.obj
 0004:000012c0       $pdata$??$TypeMatchHelper@V__FrameHandler3@@@@YAHPEBU_s_HandlerType@@PEBU_s_CatchableType@@PEBU_s_ThrowInfo@@@Z 00000001800372c0     libvcruntime:frame.obj
 0004:000012cc       $pdata$??$TypeMatchHelper@V__FrameHandler4@@@@YAHPEAUHandlerType4@FH4@@PEBU_s_CatchableType@@PEBU_s_ThrowInfo@@@Z 00000001800372cc     libvcruntime:frame.obj
 0004:000012d8       $pdata$??$BuildCatchObjectHelperInternal@V__FrameHandler4@@@@YAHPEAUEHExceptionRecord@@PEAXPEAUHandlerType4@FH4@@PEBU_s_CatchableType@@@Z 00000001800372d8     libvcruntime:frame.obj
 0004:000012e4       $pdata$??$BuildCatchObjectInternal@V__FrameHandler4@@@@YAXPEAUEHExceptionRecord@@PEAXPEAUHandlerType4@FH4@@PEBU_s_CatchableType@@@Z 00000001800372e4     libvcruntime:frame.obj
 0004:000012f0       $pdata$??$FindHandler@V__FrameHandler4@@@@YAXPEAUEHExceptionRecord@@PEA_KPEAU_CONTEXT@@PEAU_xDISPATCHER_CONTEXT@@PEAUFuncInfo4@FH4@@EH1@Z 00000001800372f0     libvcruntime:frame.obj
 0004:000012fc       $pdata$??$CatchIt@V__FrameHandler4@@@@YAXPEAUEHExceptionRecord@@PEA_KPEAU_CONTEXT@@PEAU_xDISPATCHER_CONTEXT@@PEAUFuncInfo4@FH4@@PEAUHandlerType4@4@PEBU_s_CatchableType@@PEAUTryBlockMapEntry4@4@H1EE@Z 00000001800372fc     libvcruntime:frame.obj
 0004:00001308       $pdata$??$FindHandlerForForeignException@V__FrameHandler4@@@@YAXPEAUEHExceptionRecord@@PEA_KPEAU_CONTEXT@@PEAU_xDISPATCHER_CONTEXT@@PEAUFuncInfo4@FH4@@HH1@Z 0000000180037308     libvcruntime:frame.obj
 0004:00001314       $pdata$__vcrt_FlsAlloc     0000000180037314     libvcruntime:winapi_downlevel.obj
 0004:00001320       $pdata$__vcrt_FlsFree      0000000180037320     libvcruntime:winapi_downlevel.obj
 0004:0000132c       $pdata$__vcrt_FlsGetValue  000000018003732c     libvcruntime:winapi_downlevel.obj
 0004:00001338       $pdata$__vcrt_FlsSetValue  0000000180037338     libvcruntime:winapi_downlevel.obj
 0004:00001344       $pdata$__vcrt_InitializeCriticalSectionEx 0000000180037344     libvcruntime:winapi_downlevel.obj
 0004:00001350       $pdata$?try_get_function@@YAPEAXW4function_id@?A0x5302d918@@QEBDQEBW4module_id@2@2@Z 0000000180037350     libvcruntime:winapi_downlevel.obj
 0004:0000138c       $pdata$_invalid_parameter_noinfo 000000018003738c     libucrt:invalid_parameter.obj
 0004:00001398       $pdata$_invoke_watson      0000000180037398     libucrt:invalid_parameter.obj
 0004:000013a4       $pdata$__acrt_call_reportfault 00000001800373a4     libucrt:invalid_parameter.obj
 0004:000013b0       $pdata$_invalid_parameter  00000001800373b0     libucrt:invalid_parameter.obj
 0004:000013bc       $pdata$_errno              00000001800373bc     libucrt:errno.obj
 0004:000013c8       $pdata$__doserrno          00000001800373c8     libucrt:errno.obj
 0004:000013d4       $pdata$__acrt_errno_map_os_error 00000001800373d4     libucrt:errno.obj
 0004:000013e0       $pdata$_recalloc_base      00000001800373e0     libucrt:recalloc.obj
 0004:000013ec       $pdata$_resetstkoflw       00000001800373ec     libucrt:resetstk.obj
 0004:000013f8       $pdata$wcscat_s            00000001800373f8     libucrt:wcscat_s.obj
 0004:00001404       $pdata$wcscpy_s            0000000180037404     libucrt:wcscpy_s.obj
 0004:00001410       $pdata$wcsncpy_s           0000000180037410     libucrt:wcsncpy_s.obj
 0004:0000141c       $pdata$??0_LocaleUpdate@@QEAA@QEAU__crt_locale_pointers@@@Z 000000018003741c     libucrt:output.obj
 0004:00001428       $pdata$__stdio_common_vswprintf_s 0000000180037428     libucrt:output.obj
 0004:00001434       $pdata$?write_string@?$string_output_adapter@_W@__crt_stdio_output@@QEBAXQEB_WHQEAHAEAV__crt_deferred_errno_cache@@@Z 0000000180037434     libucrt:output.obj
 0004:00001440       $pdata$??$common_vsprintf@Vformat_validation_base@__crt_stdio_output@@_W@@YAH_KQEA_W0QEB_WQEAU__crt_locale_pointers@@QEAD@Z 0000000180037440     libucrt:output.obj
 0004:0000144c       $pdata$??$write_multiple_characters@V?$string_output_adapter@_W@__crt_stdio_output@@D@__crt_stdio_output@@YAXAEBV?$string_output_adapter@_W@0@DHQEAH@Z 000000018003744c     libucrt:output.obj
 0004:00001458       $pdata$??$ensure_buffer_is_big_enough@D@formatting_buffer@__crt_stdio_output@@QEAA_N_K@Z 0000000180037458     libucrt:output.obj
 0004:00001464       $pdata$??$ensure_buffer_is_big_enough@_W@formatting_buffer@__crt_stdio_output@@QEAA_N_K@Z 0000000180037464     libucrt:output.obj
 0004:00001470       $pdata$?process@?$output_processor@_WV?$string_output_adapter@_W@__crt_stdio_output@@V?$format_validation_base@_WV?$string_output_adapter@_W@__crt_stdio_output@@@2@@__crt_stdio_output@@QEAAHXZ 0000000180037470     libucrt:output.obj
 0004:0000147c       $pdata$?parse_int_from_format_string@?$output_processor@_WV?$string_output_adapter@_W@__crt_stdio_output@@V?$format_validation_base@_WV?$string_output_adapter@_W@__crt_stdio_output@@@2@@__crt_stdio_output@@AEAA_NQEAH@Z 000000018003747c     libucrt:output.obj
 0004:00001488       $pdata$?state_case_size@?$output_processor@_WV?$string_output_adapter@_W@__crt_stdio_output@@V?$format_validation_base@_WV?$string_output_adapter@_W@__crt_stdio_output@@@2@@__crt_stdio_output@@AEAA_NXZ 0000000180037488     libucrt:output.obj
 0004:00001494       $pdata$?state_case_type@?$output_processor@_WV?$string_output_adapter@_W@__crt_stdio_output@@V?$format_validation_base@_WV?$string_output_adapter@_W@__crt_stdio_output@@@2@@__crt_stdio_output@@AEAA_NXZ 0000000180037494     libucrt:output.obj
 0004:000014a0       $pdata$?type_case_c_tchar@?$output_processor@_WV?$string_output_adapter@_W@__crt_stdio_output@@V?$format_validation_base@_WV?$string_output_adapter@_W@__crt_stdio_output@@@2@@__crt_stdio_output@@AEAA_N_W@Z 00000001800374a0     libucrt:output.obj
 0004:000014ac       $pdata$?type_case_Z@?$output_processor@_WV?$string_output_adapter@_W@__crt_stdio_output@@V?$format_validation_base@_WV?$string_output_adapter@_W@__crt_stdio_output@@@2@@__crt_stdio_output@@AEAA_NXZ 00000001800374ac     libucrt:output.obj
 0004:000014b8       $pdata$?type_case_s@?$output_processor@_WV?$string_output_adapter@_W@__crt_stdio_output@@V?$format_validation_base@_WV?$string_output_adapter@_W@__crt_stdio_output@@@2@@__crt_stdio_output@@AEAA_NXZ 00000001800374b8     libucrt:output.obj
 0004:000014c4       $pdata$?type_case_a@?$output_processor@_WV?$string_output_adapter@_W@__crt_stdio_output@@V?$format_validation_base@_WV?$string_output_adapter@_W@__crt_stdio_output@@@2@@__crt_stdio_output@@AEAA_NXZ 00000001800374c4     libucrt:output.obj
 0004:000014d0       $pdata$?type_case_integer@?$output_processor@_WV?$string_output_adapter@_W@__crt_stdio_output@@V?$format_validation_base@_WV?$string_output_adapter@_W@__crt_stdio_output@@@2@@__crt_stdio_output@@AEAA_NI_N@Z 00000001800374d0     libucrt:output.obj
 0004:000014dc       $pdata$?type_case_n@?$output_processor@_WV?$string_output_adapter@_W@__crt_stdio_output@@V?$format_validation_base@_WV?$string_output_adapter@_W@__crt_stdio_output@@@2@@__crt_stdio_output@@AEAA_NXZ 00000001800374dc     libucrt:output.obj
 0004:000014e8       $pdata$?write_stored_string_tchar@?$output_processor@_WV?$string_output_adapter@_W@__crt_stdio_output@@V?$format_validation_base@_WV?$string_output_adapter@_W@__crt_stdio_output@@@2@@__crt_stdio_output@@AEAA_N_W@Z 00000001800374e8     libucrt:output.obj
 0004:000014f4       $pdata$??$type_case_integer_parse_into_buffer@_K@?$output_processor@_WV?$string_output_adapter@_W@__crt_stdio_output@@V?$format_validation_base@_WV?$string_output_adapter@_W@__crt_stdio_output@@@2@@__crt_stdio_output@@AEAAX_KI_N@Z 00000001800374f4     libucrt:output.obj
 0004:00001500       $pdata$??$type_case_integer_parse_into_buffer@I@?$output_processor@_WV?$string_output_adapter@_W@__crt_stdio_output@@V?$format_validation_base@_WV?$string_output_adapter@_W@__crt_stdio_output@@@2@@__crt_stdio_output@@AEAAXII_N@Z 0000000180037500     libucrt:output.obj
 0004:0000150c       $pdata$_seh_filter_exe     000000018003750c     libucrt:exception_filter.obj
 0004:00001518       $pdata$?try_cor_exit_process@@YAXI@Z 0000000180037518     libucrt:exit.obj
 0004:00001524       $pdata$?exit_or_terminate_process@@YAXI@Z 0000000180037524     libucrt:exit.obj
 0004:00001530       $pdata$?common_exit@@YAXHW4_crt_exit_cleanup_mode@@W4_crt_exit_return_mode@@@Z 0000000180037530     libucrt:exit.obj
 0004:0000153c       $pdata$??R<lambda_6e4b09c48022b2350581041d5f6b0c4c>@@QEBA@XZ 000000018003753c     libucrt:exit.obj
 0004:00001548       $pdata$?filt$0@?0???R<lambda_6e4b09c48022b2350581041d5f6b0c4c>@@QEBA@XZ@4HA 0000000180037548     libucrt:exit.obj
 0004:00001554       $pdata$??$?RV<lambda_d80eeec6fff315bfe5c115232f3240e3>@@AEAV<lambda_6e4b09c48022b2350581041d5f6b0c4c>@@V<lambda_2358e3775559c9db80273638284d5e45>@@@?$__crt_seh_guarded_call@X@@QEAAX$$QEAV<lambda_d80eeec6fff315bfe5c115232f3240e3>@@AEAV<lambda_6e4b09c48022b2350581041d5f6b0c4c>@@$$QEAV<lambda_2358e3775559c9db80273638284d5e45>@@@Z 0000000180037554     libucrt:exit.obj
 0004:00001560       $pdata$?fin$0@?0???$?RV<lambda_0ae27a3a962d80f24befdcbee591983d>@@AEAV<lambda_8d0ee55de4b1038c4002e0adecdf1839>@@V<lambda_dc504788e8f1664fe9b84e20bfb512f2>@@@?$__crt_seh_guarded_call@X@@QEAAX$$QEAV<lambda_0ae27a3a962d80f24befdcbee591983d>@@AEAV<lambda_8d0ee55de4b1038c4002e0adecdf1839>@@$$QEAV<lambda_dc504788e8f1664fe9b84e20bfb512f2>@@@Z@4HA 0000000180037560     libucrt:per_thread_data.obj
 0004:00001560       $pdata$?fin$0@?0???$?RV<lambda_2d41944a1d46af3157314b8a01080d33>@@AEAV<lambda_8f455de75cd7d7f24b4096f044d8b9e6>@@V<lambda_aa500f224e6afead328df44964fe2772>@@@?$__crt_seh_guarded_call@X@@QEAAX$$QEAV<lambda_2d41944a1d46af3157314b8a01080d33>@@AEAV<lambda_8f455de75cd7d7f24b4096f044d8b9e6>@@$$QEAV<lambda_aa500f224e6afead328df44964fe2772>@@@Z@4HA 0000000180037560     libucrt:per_thread_data.obj
 0004:00001560       $pdata$?fin$0@?0???$?RV<lambda_aa87e3671a710a21b5dc78c0bdf72e11>@@AEAV<lambda_92619d2358a28f41a33ba319515a20b9>@@V<lambda_6992ecaafeb10aed2b74cb1fae11a551>@@@?$__crt_seh_guarded_call@X@@QEAAX$$QEAV<lambda_aa87e3671a710a21b5dc78c0bdf72e11>@@AEAV<lambda_92619d2358a28f41a33ba319515a20b9>@@$$QEAV<lambda_6992ecaafeb10aed2b74cb1fae11a551>@@@Z@4HA 0000000180037560     libucrt:per_thread_data.obj
 0004:00001560       $pdata$?fin$0@?0???$?RV<lambda_f2e299630e499de9f9a165e60fcd3db5>@@AEAV<lambda_2ae9d31cdba2644fcbeaf08da7c24588>@@V<lambda_40d01ff24d0e7b3814fdbdcee8eab3c7>@@@?$__crt_seh_guarded_call@X@@QEAAX$$QEAV<lambda_f2e299630e499de9f9a165e60fcd3db5>@@AEAV<lambda_2ae9d31cdba2644fcbeaf08da7c24588>@@$$QEAV<lambda_40d01ff24d0e7b3814fdbdcee8eab3c7>@@@Z@4HA 0000000180037560     libucrt:per_thread_data.obj
 0004:00001560       $pdata$?fin$0@?0???$?RV<lambda_efdfa57d1f175319df784efa44bb7b81>@@AEAV<lambda_5f0a4c1567f8adc6734073e5d1e1b35c>@@V<lambda_2e8a7d3640ea6ccb4c2413664c2db6fd>@@@?$__crt_seh_guarded_call@X@@QEAAX$$QEAV<lambda_efdfa57d1f175319df784efa44bb7b81>@@AEAV<lambda_5f0a4c1567f8adc6734073e5d1e1b35c>@@$$QEAV<lambda_2e8a7d3640ea6ccb4c2413664c2db6fd>@@@Z@4HA 0000000180037560     libucrt:mbctype.obj
 0004:00001560       $pdata$?fin$0@?0???$?RV<lambda_450d765d439847d4c735a33c368b5fc0>@@AEAV<lambda_44731a7d0e6d81c3e6aa82d741081786>@@V<lambda_601a2a7da3b7a96e9554ac7215c4b07c>@@@?$__crt_seh_guarded_call@P6AXH@Z@@QEAAP6AXH@Z$$QEAV<lambda_450d765d439847d4c735a33c368b5fc0>@@AEAV<lambda_44731a7d0e6d81c3e6aa82d741081786>@@$$QEAV<lambda_601a2a7da3b7a96e9554ac7215c4b07c>@@@Z@4HA 0000000180037560     libucrt:signal.obj
 0004:00001560       $pdata$?fin$0@?0???$?RV<lambda_d80eeec6fff315bfe5c115232f3240e3>@@AEAV<lambda_6e4b09c48022b2350581041d5f6b0c4c>@@V<lambda_2358e3775559c9db80273638284d5e45>@@@?$__crt_seh_guarded_call@X@@QEAAX$$QEAV<lambda_d80eeec6fff315bfe5c115232f3240e3>@@AEAV<lambda_6e4b09c48022b2350581041d5f6b0c4c>@@$$QEAV<lambda_2358e3775559c9db80273638284d5e45>@@@Z@4HA 0000000180037560     libucrt:exit.obj
 0004:00001560       $pdata$?fin$0@?0???$?RV<lambda_638799b9deba96c50f710eeac98168cd>@@AEAV<lambda_22ebabd17bc4fa466a2aca6d8deb888d>@@V<lambda_a6f7d7db0129f75315ebf26d50c089f1>@@@?$__crt_seh_guarded_call@H@@QEAAH$$QEAV<lambda_638799b9deba96c50f710eeac98168cd>@@AEAV<lambda_22ebabd17bc4fa466a2aca6d8deb888d>@@$$QEAV<lambda_a6f7d7db0129f75315ebf26d50c089f1>@@@Z@4HA 0000000180037560     libucrt:onexit.obj
 0004:00001560       $pdata$?fin$0@?0???$?RV<lambda_7777bce6b2f8c936911f934f8298dc43>@@AEAV<lambda_f03950bc5685219e0bcd2087efbe011e>@@V<lambda_3883c3dff614d5e0c5f61bb1ac94921c>@@@?$__crt_seh_guarded_call@H@@QEAAH$$QEAV<lambda_7777bce6b2f8c936911f934f8298dc43>@@AEAV<lambda_f03950bc5685219e0bcd2087efbe011e>@@$$QEAV<lambda_3883c3dff614d5e0c5f61bb1ac94921c>@@@Z@4HA 0000000180037560     libucrt:onexit.obj
 0004:0000156c       $pdata$_configure_narrow_argv 000000018003756c     libucrt:argv_parsing.obj
 0004:00001578       $pdata$__acrt_allocate_buffer_for_argv 0000000180037578     libucrt:argv_parsing.obj
 0004:00001584       $pdata$??$parse_command_line@D@@YAXPEADPEAPEAD0PEA_K2@Z 0000000180037584     libucrt:argv_parsing.obj
 0004:00001590       $pdata$__dcrt_uninitialize_environments_nolock 0000000180037590     libucrt:environment_initialization.obj
 0004:0000159c       $pdata$??$common_initialize_environment_nolock@D@@YAHXZ 000000018003759c     libucrt:environment_initialization.obj
 0004:000015a8       $pdata$??$uninitialize_environment_internal@D@@YAXAEAPEAPEAD@Z 00000001800375a8     libucrt:environment_initialization.obj
 0004:000015b4       $pdata$??$uninitialize_environment_internal@_W@@YAXAEAPEAPEA_W@Z 00000001800375b4     libucrt:environment_initialization.obj
 0004:000015c0       $pdata$??$free_environment@D@@YAXQEAPEAD@Z 00000001800375c0     libucrt:environment_initialization.obj
 0004:000015c0       $pdata$??$free_environment@_W@@YAXQEAPEA_W@Z 00000001800375c0     libucrt:environment_initialization.obj
 0004:000015cc       $pdata$??$create_environment@D@@YAQEAPEADQEAD@Z 00000001800375cc     libucrt:environment_initialization.obj
 0004:000015d8       $pdata$_register_onexit_function 00000001800375d8     libucrt:onexit.obj
 0004:000015e4       $pdata$_execute_onexit_table 00000001800375e4     libucrt:onexit.obj
 0004:000015f0       $pdata$??R<lambda_22ebabd17bc4fa466a2aca6d8deb888d>@@QEBAHXZ 00000001800375f0     libucrt:onexit.obj
 0004:000015fc       $pdata$??R<lambda_f03950bc5685219e0bcd2087efbe011e>@@QEBAHXZ 00000001800375fc     libucrt:onexit.obj
 0004:00001608       $pdata$??$?RV<lambda_638799b9deba96c50f710eeac98168cd>@@AEAV<lambda_22ebabd17bc4fa466a2aca6d8deb888d>@@V<lambda_a6f7d7db0129f75315ebf26d50c089f1>@@@?$__crt_seh_guarded_call@H@@QEAAH$$QEAV<lambda_638799b9deba96c50f710eeac98168cd>@@AEAV<lambda_22ebabd17bc4fa466a2aca6d8deb888d>@@$$QEAV<lambda_a6f7d7db0129f75315ebf26d50c089f1>@@@Z 0000000180037608     libucrt:onexit.obj
 0004:00001614       $pdata$??$?RV<lambda_7777bce6b2f8c936911f934f8298dc43>@@AEAV<lambda_f03950bc5685219e0bcd2087efbe011e>@@V<lambda_3883c3dff614d5e0c5f61bb1ac94921c>@@@?$__crt_seh_guarded_call@H@@QEAAH$$QEAV<lambda_7777bce6b2f8c936911f934f8298dc43>@@AEAV<lambda_f03950bc5685219e0bcd2087efbe011e>@@$$QEAV<lambda_3883c3dff614d5e0c5f61bb1ac94921c>@@@Z 0000000180037614     libucrt:onexit.obj
 0004:00001620       $pdata$__acrt_uninitialize 0000000180037620     libucrt:initialization.obj
 0004:0000162c       $pdata$__acrt_uninitialize_critical 000000018003762c     libucrt:initialization.obj
 0004:00001638       $pdata$__acrt_thread_attach 0000000180037638     libucrt:initialization.obj
 0004:00001644       $pdata$__acrt_thread_detach 0000000180037644     libucrt:initialization.obj
 0004:00001650       $pdata$initialize_c        0000000180037650     libucrt:initialization.obj
 0004:0000165c       $pdata$uninitialize_environment 000000018003765c     libucrt:initialization.obj
 0004:00001668       $pdata$initialize_pointers 0000000180037668     libucrt:initialization.obj
 0004:00001674       $pdata$uninitialize_allocated_memory 0000000180037674     libucrt:initialization.obj
 0004:00001680       $pdata$uninitialize_allocated_io_buffers 0000000180037680     libucrt:initialization.obj
 0004:0000168c       $pdata$_initterm           000000018003768c     libucrt:initterm.obj
 0004:00001698       $pdata$_initterm_e         0000000180037698     libucrt:initterm.obj
 0004:000016a4       $pdata$_callnewh           00000001800376a4     libucrt:new_handler.obj
 0004:000016b0       $pdata$_query_new_handler  00000001800376b0     libucrt:new_handler.obj
 0004:000016bc       $pdata$_query_new_handler$fin$0 00000001800376bc     libucrt:new_handler.obj
 0004:000016c8       $pdata$terminate           00000001800376c8     libucrt:terminate.obj
 0004:000016d4       $pdata$abort               00000001800376d4     libucrt:abort.obj
 0004:000016e0       $pdata$strcpy_s            00000001800376e0     libucrt:strcpy_s.obj
 0004:000016ec       $pdata$??$parse_integer@KV?$c_string_character_source@_W@__crt_strtox@@@__crt_strtox@@YAKQEAU__crt_locale_pointers@@V?$c_string_character_source@_W@0@H_N@Z 00000001800376ec     libucrt:atox.obj
 0004:00001704       $pdata$_free_base          0000000180037704     libucrt:free_base.obj
 0004:00001710       $pdata$__acrt_initialize_ptd 0000000180037710     libucrt:per_thread_data.obj
 0004:0000171c       $pdata$__acrt_uninitialize_ptd 000000018003771c     libucrt:per_thread_data.obj
 0004:00001728       $pdata$__acrt_getptd       0000000180037728     libucrt:per_thread_data.obj
 0004:00001734       $pdata$__acrt_getptd_head  0000000180037734     libucrt:per_thread_data.obj
 0004:00001740       $pdata$__acrt_getptd_noexit 0000000180037740     libucrt:per_thread_data.obj
 0004:0000174c       $pdata$__acrt_freeptd      000000018003774c     libucrt:per_thread_data.obj
 0004:00001758       $pdata$?destroy_fls@@YAXPEAX@Z 0000000180037758     libucrt:per_thread_data.obj
 0004:00001764       $pdata$?replace_current_thread_locale_nolock@@YAXQEAU__acrt_ptd@@QEAU__crt_locale_data@@@Z 0000000180037764     libucrt:per_thread_data.obj
 0004:00001770       $pdata$?construct_ptd_array@@YAXQEAU__acrt_ptd@@@Z 0000000180037770     libucrt:per_thread_data.obj
 0004:0000177c       $pdata$?destroy_ptd_array@@YAXQEAU__acrt_ptd@@@Z 000000018003777c     libucrt:per_thread_data.obj
 0004:00001788       $pdata$??$?RV<lambda_0ae27a3a962d80f24befdcbee591983d>@@AEAV<lambda_8d0ee55de4b1038c4002e0adecdf1839>@@V<lambda_dc504788e8f1664fe9b84e20bfb512f2>@@@?$__crt_seh_guarded_call@X@@QEAAX$$QEAV<lambda_0ae27a3a962d80f24befdcbee591983d>@@AEAV<lambda_8d0ee55de4b1038c4002e0adecdf1839>@@$$QEAV<lambda_dc504788e8f1664fe9b84e20bfb512f2>@@@Z 0000000180037788     libucrt:per_thread_data.obj
 0004:00001794       $pdata$??$?RV<lambda_aa87e3671a710a21b5dc78c0bdf72e11>@@AEAV<lambda_92619d2358a28f41a33ba319515a20b9>@@V<lambda_6992ecaafeb10aed2b74cb1fae11a551>@@@?$__crt_seh_guarded_call@X@@QEAAX$$QEAV<lambda_aa87e3671a710a21b5dc78c0bdf72e11>@@AEAV<lambda_92619d2358a28f41a33ba319515a20b9>@@$$QEAV<lambda_6992ecaafeb10aed2b74cb1fae11a551>@@@Z 0000000180037794     libucrt:per_thread_data.obj
 0004:000017a0       $pdata$??$?RV<lambda_f2e299630e499de9f9a165e60fcd3db5>@@AEAV<lambda_2ae9d31cdba2644fcbeaf08da7c24588>@@V<lambda_40d01ff24d0e7b3814fdbdcee8eab3c7>@@@?$__crt_seh_guarded_call@X@@QEAAX$$QEAV<lambda_f2e299630e499de9f9a165e60fcd3db5>@@AEAV<lambda_2ae9d31cdba2644fcbeaf08da7c24588>@@$$QEAV<lambda_40d01ff24d0e7b3814fdbdcee8eab3c7>@@@Z 00000001800377a0     libucrt:per_thread_data.obj
 0004:000017ac       $pdata$??$?RV<lambda_2d41944a1d46af3157314b8a01080d33>@@AEAV<lambda_8f455de75cd7d7f24b4096f044d8b9e6>@@V<lambda_aa500f224e6afead328df44964fe2772>@@@?$__crt_seh_guarded_call@X@@QEAAX$$QEAV<lambda_2d41944a1d46af3157314b8a01080d33>@@AEAV<lambda_8f455de75cd7d7f24b4096f044d8b9e6>@@$$QEAV<lambda_aa500f224e6afead328df44964fe2772>@@@Z 00000001800377ac     libucrt:per_thread_data.obj
 0004:000017b8       $pdata$_calloc_base        00000001800377b8     libucrt:calloc_base.obj
 0004:000017c4       $pdata$_malloc_base        00000001800377c4     libucrt:malloc_base.obj
 0004:000017d0       $pdata$_msize_base         00000001800377d0     libucrt:msize.obj
 0004:000017dc       $pdata$_realloc_base       00000001800377dc     libucrt:realloc_base.obj
 0004:000017e8       $pdata$__acrt_initialize_winapi_thunks 00000001800377e8     libucrt:winapi_thunks.obj
 0004:000017f4       $pdata$__acrt_uninitialize_winapi_thunks 00000001800377f4     libucrt:winapi_thunks.obj
 0004:00001800       $pdata$__acrt_AreFileApisANSI 0000000180037800     libucrt:winapi_thunks.obj
 0004:0000180c       $pdata$__acrt_FlsAlloc     000000018003780c     libucrt:winapi_thunks.obj
 0004:00001818       $pdata$__acrt_FlsFree      0000000180037818     libucrt:winapi_thunks.obj
 0004:00001824       $pdata$__acrt_FlsGetValue  0000000180037824     libucrt:winapi_thunks.obj
 0004:00001830       $pdata$__acrt_FlsSetValue  0000000180037830     libucrt:winapi_thunks.obj
 0004:0000183c       $pdata$__acrt_InitializeCriticalSectionEx 000000018003783c     libucrt:winapi_thunks.obj
 0004:00001848       $pdata$__acrt_LCMapStringEx 0000000180037848     libucrt:winapi_thunks.obj
 0004:00001854       $pdata$__acrt_LocaleNameToLCID 0000000180037854     libucrt:winapi_thunks.obj
 0004:00001860       $pdata$__acrt_AppPolicyGetProcessTerminationMethodInternal 0000000180037860     libucrt:winapi_thunks.obj
 0004:0000186c       $pdata$__acrt_SetThreadStackGuarantee 000000018003786c     libucrt:winapi_thunks.obj
 0004:00001878       $pdata$?try_get_function@@YAPEAXW4function_id@?A0x391cf84c@@QEBDQEBW4module_id@2@2@Z 0000000180037878     libucrt:winapi_thunks.obj
 0004:00001884       $pdata$wcstol              0000000180037884     libucrt:strtox.obj
 0004:00001890       $pdata$_mbtowc_l           0000000180037890     libucrt:mbtowc.obj
 0004:0000189c       $pdata$__acrt_update_locale_info 000000018003789c     libucrt:locale_update.obj
 0004:000018a8       $pdata$__acrt_update_multibyte_info 00000001800378a8     libucrt:locale_update.obj
 0004:000018b4       $pdata$__acrt_fp_format    00000001800378b4     libucrt:cvt.obj
 0004:000018c0       $pdata$?fp_format_e_internal@@YAHQEAD_KH_NIQEAU_strflt@@2QEAU__crt_locale_pointers@@@Z 00000001800378c0     libucrt:cvt.obj
 0004:000018cc       $pdata$?fp_format_e@@YAHQEBNQEAD_K12H_NIQEAU__crt_locale_pointers@@W4__acrt_rounding_mode@@@Z 00000001800378cc     libucrt:cvt.obj
 0004:000018d8       $pdata$?should_round_up@@YA_NQEBN_KFW4__acrt_rounding_mode@@@Z 00000001800378d8     libucrt:cvt.obj
 0004:000018e4       $pdata$?fp_format_a@@YAHQEBNPEAD_KQEAD2H_NIQEAU__crt_locale_pointers@@W4__acrt_rounding_mode@@@Z 00000001800378e4     libucrt:cvt.obj
 0004:000018f0       $pdata$?fp_format_f_internal@@YAHQEAD_KHQEAU_strflt@@_NQEAU__crt_locale_pointers@@@Z 00000001800378f0     libucrt:cvt.obj
 0004:000018fc       $pdata$?fp_format_g@@YAHQEBNQEAD_K12H_NIQEAU__crt_locale_pointers@@@Z 00000001800378fc     libucrt:cvt.obj
 0004:00001908       $pdata$_fileno             0000000180037908     libucrt:fileno.obj
 0004:00001914       $pdata$__acrt_initialize_stdio 0000000180037914     libucrt:_file.obj
 0004:00001920       $pdata$__acrt_uninitialize_stdio 0000000180037920     libucrt:_file.obj
 0004:0000192c       $pdata$__acrt_uninitialize_locale 000000018003792c     libucrt:wsetlocale.obj
 0004:00001938       $pdata$??$?RV<lambda_410d79af7f07d98d83a3f525b3859a53>@@AEAV<lambda_3e16ef9562a7dcce91392c22ab16ea36>@@V<lambda_38119f0e861e05405d8a144b9b982f0a>@@@?$__crt_seh_guarded_call@X@@QEAAX$$QEAV<lambda_410d79af7f07d98d83a3f525b3859a53>@@AEAV<lambda_3e16ef9562a7dcce91392c22ab16ea36>@@$$QEAV<lambda_38119f0e861e05405d8a144b9b982f0a>@@@Z 0000000180037938     libucrt:wsetlocale.obj
 0004:00001944       $pdata$?fin$0@?0???$?RV<lambda_410d79af7f07d98d83a3f525b3859a53>@@AEAV<lambda_3e16ef9562a7dcce91392c22ab16ea36>@@V<lambda_38119f0e861e05405d8a144b9b982f0a>@@@?$__crt_seh_guarded_call@X@@QEAAX$$QEAV<lambda_410d79af7f07d98d83a3f525b3859a53>@@AEAV<lambda_3e16ef9562a7dcce91392c22ab16ea36>@@$$QEAV<lambda_38119f0e861e05405d8a144b9b982f0a>@@@Z@4HA 0000000180037944     libucrt:wsetlocale.obj
 0004:00001950       $pdata$__acrt_initialize_lowio 0000000180037950     libucrt:ioinit.obj
 0004:0000195c       $pdata$__acrt_initialize_lowio$fin$0 000000018003795c     libucrt:ioinit.obj
 0004:0000195c       $pdata$__acrt_lowio_ensure_fh_exists$fin$0 000000018003795c     libucrt:osfinfo.obj
 0004:00001968       $pdata$__acrt_uninitialize_lowio 0000000180037968     libucrt:ioinit.obj
 0004:00001974       $pdata$?initialize_inherited_file_handles_nolock@@YAXXZ 0000000180037974     libucrt:ioinit.obj
 0004:00001980       $pdata$?initialize_stdio_handles_nolock@@YAXXZ 0000000180037980     libucrt:ioinit.obj
 0004:0000198c       $pdata$__acrt_initialize_locks 000000018003798c     libucrt:locks.obj
 0004:00001998       $pdata$__acrt_uninitialize_locks 0000000180037998     libucrt:locks.obj
 0004:000019a4       $pdata$__acrt_get_process_end_policy 00000001800379a4     libucrt:win_policies.obj
 0004:000019b0       $pdata$??$__acrt_mbs_to_wcs_cp@U__crt_win32_buffer_internal_dynamic_resizing@@@@YAHQEBDAEAV?$__crt_win32_buffer@_WU__crt_win32_buffer_internal_dynamic_resizing@@@@I@Z 00000001800379b0     libucrt:argv_wildcards.obj
 0004:000019bc       $pdata$??$__acrt_wcs_to_mbs_cp@U__crt_win32_buffer_internal_dynamic_resizing@@@@YAHQEB_WAEAV?$__crt_win32_buffer@DU__crt_win32_buffer_internal_dynamic_resizing@@@@I@Z 00000001800379bc     libucrt:argv_wildcards.obj
 0004:000019c8       $pdata$??$common_expand_argv_wildcards@D@@YAHQEAPEADQEAPEAPEAD@Z 00000001800379c8     libucrt:argv_wildcards.obj
 0004:000019d4       $pdata$??$copy_and_add_argument_to_buffer@D@@YAHQEBD0_KAEAV?$argument_list@D@?A0x5f5c8891@@@Z 00000001800379d4     libucrt:argv_wildcards.obj
 0004:000019e0       $pdata$??$expand_argument_wildcards@D@@YAHQEAD0AEAV?$argument_list@D@?A0x5f5c8891@@@Z 00000001800379e0     libucrt:argv_wildcards.obj
 0004:000019ec       $pdata$__acrt_GetModuleFileNameA 00000001800379ec     libucrt:getmodulefilenamea.obj
 0004:000019f8       $pdata$??$__acrt_wcs_to_mbs_cp@U__crt_win32_buffer_no_resizing@@@@YAHQEB_WAEAV?$__crt_win32_buffer@DU__crt_win32_buffer_no_resizing@@@@I@Z 00000001800379f8     libucrt:getmodulefilenamea.obj
 0004:00001a04       $pdata$__acrt_update_thread_multibyte_data 0000000180037a04     libucrt:mbctype.obj
 0004:00001a10       $pdata$__acrt_initialize_multibyte 0000000180037a10     libucrt:mbctype.obj
 0004:00001a1c       $pdata$_setmbcp_nolock     0000000180037a1c     libucrt:mbctype.obj
 0004:00001a28       $pdata$?getSystemCP@@YAHH@Z 0000000180037a28     libucrt:mbctype.obj
 0004:00001a34       $pdata$?setSBCS@@YAXPEAU__crt_multibyte_data@@@Z 0000000180037a34     libucrt:mbctype.obj
 0004:00001a40       $pdata$?update_thread_multibyte_data_internal@@YAPEAU__crt_multibyte_data@@QEAU__acrt_ptd@@QEAPEAU1@@Z 0000000180037a40     libucrt:mbctype.obj
 0004:00001a4c       $pdata$?fin$0@?0??update_thread_multibyte_data_internal@@YAPEAU__crt_multibyte_data@@QEAU__acrt_ptd@@QEAPEAU1@@Z@4HA 0000000180037a4c     libucrt:mbctype.obj
 0004:00001a58       $pdata$?setmbcp_internal@@YAHH_NQEAU__acrt_ptd@@QEAPEAU__crt_multibyte_data@@@Z 0000000180037a58     libucrt:mbctype.obj
 0004:00001a64       $pdata$?setSBUpLow@@YAXPEAU__crt_multibyte_data@@@Z 0000000180037a64     libucrt:mbctype.obj
 0004:00001a70       $pdata$??$?RV<lambda_efdfa57d1f175319df784efa44bb7b81>@@AEAV<lambda_5f0a4c1567f8adc6734073e5d1e1b35c>@@V<lambda_2e8a7d3640ea6ccb4c2413664c2db6fd>@@@?$__crt_seh_guarded_call@X@@QEAAX$$QEAV<lambda_efdfa57d1f175319df784efa44bb7b81>@@AEAV<lambda_5f0a4c1567f8adc6734073e5d1e1b35c>@@$$QEAV<lambda_2e8a7d3640ea6ccb4c2413664c2db6fd>@@@Z 0000000180037a70     libucrt:mbctype.obj
 0004:00001a7c       $pdata$?x_ismbbtype_l@@YAHPEAU__crt_locale_pointers@@IHH@Z 0000000180037a7c     libucrt:ismbbyte.obj
 0004:00001a88       $pdata$__acrt_initialize_command_line 0000000180037a88     libucrt:argv_data.obj
 0004:00001a94       $pdata$__acrt_WideCharToMultiByte 0000000180037a94     libucrt:widechartomultibyte.obj
 0004:00001aa0       $pdata$__dcrt_get_narrow_environment_from_os 0000000180037aa0     libucrt:get_environment_from_os.obj
 0004:00001aac       $pdata$__acrt_initialize_heap 0000000180037aac     libucrt:heap_handle.obj
 0004:00001ab8       $pdata$__acrt_execute_initializers 0000000180037ab8     libucrt:shared_initialization.obj
 0004:00001ac4       $pdata$__acrt_execute_uninitializers 0000000180037ac4     libucrt:shared_initialization.obj
 0004:00001ad0       $pdata$__acrt_get_sigabrt_handler 0000000180037ad0     libucrt:signal.obj
 0004:00001adc       $pdata$raise               0000000180037adc     libucrt:signal.obj
 0004:00001ae8       $pdata$raise$fin$0         0000000180037ae8     libucrt:signal.obj
 0004:00001af4       $pdata$??$?RV<lambda_450d765d439847d4c735a33c368b5fc0>@@AEAV<lambda_44731a7d0e6d81c3e6aa82d741081786>@@V<lambda_601a2a7da3b7a96e9554ac7215c4b07c>@@@?$__crt_seh_guarded_call@P6AXH@Z@@QEAAP6AXH@Z$$QEAV<lambda_450d765d439847d4c735a33c368b5fc0>@@AEAV<lambda_44731a7d0e6d81c3e6aa82d741081786>@@$$QEAV<lambda_601a2a7da3b7a96e9554ac7215c4b07c>@@@Z 0000000180037af4     libucrt:signal.obj
 0004:00001b00       $pdata$_fflush_nolock      0000000180037b00     libucrt:fflush.obj
 0004:00001b0c       $pdata$__acrt_stdio_flush_nolock 0000000180037b0c     libucrt:fflush.obj
 0004:00001b18       $pdata$?common_flush_all@@YAH_N@Z 0000000180037b18     libucrt:fflush.obj
 0004:00001b24       $pdata$??$?RV<lambda_842d9ff0dc9ef11c61343bbaebe7f885>@@AEAV<lambda_c5860995281e5c4ce005b3de8f5874ee>@@V<lambda_d90129c13df834fdcbf8d2b88dafcf2d>@@@?$__crt_seh_guarded_call@X@@QEAAX$$QEAV<lambda_842d9ff0dc9ef11c61343bbaebe7f885>@@AEAV<lambda_c5860995281e5c4ce005b3de8f5874ee>@@$$QEAV<lambda_d90129c13df834fdcbf8d2b88dafcf2d>@@@Z 0000000180037b24     libucrt:fflush.obj
 0004:00001b30       $pdata$?fin$0@?0???$?RV<lambda_842d9ff0dc9ef11c61343bbaebe7f885>@@AEAV<lambda_c5860995281e5c4ce005b3de8f5874ee>@@V<lambda_d90129c13df834fdcbf8d2b88dafcf2d>@@@?$__crt_seh_guarded_call@X@@QEAAX$$QEAV<lambda_842d9ff0dc9ef11c61343bbaebe7f885>@@AEAV<lambda_c5860995281e5c4ce005b3de8f5874ee>@@$$QEAV<lambda_d90129c13df834fdcbf8d2b88dafcf2d>@@@Z@4HA 0000000180037b30     libucrt:fflush.obj
 0004:00001b3c       $pdata$??$?RV<lambda_886d6c58226a84441f68b9f2b8217b83>@@AEAV<lambda_ab61a845afdef5b7c387490eaf3616ee>@@V<lambda_f7f22ab5edc0698d5f6905b0d3f44752>@@@?$__crt_seh_guarded_call@X@@QEAAX$$QEAV<lambda_886d6c58226a84441f68b9f2b8217b83>@@AEAV<lambda_ab61a845afdef5b7c387490eaf3616ee>@@$$QEAV<lambda_f7f22ab5edc0698d5f6905b0d3f44752>@@@Z 0000000180037b3c     libucrt:fflush.obj
 0004:00001b48       $pdata$?fin$0@?0???$?RV<lambda_886d6c58226a84441f68b9f2b8217b83>@@AEAV<lambda_ab61a845afdef5b7c387490eaf3616ee>@@V<lambda_f7f22ab5edc0698d5f6905b0d3f44752>@@@?$__crt_seh_guarded_call@X@@QEAAX$$QEAV<lambda_886d6c58226a84441f68b9f2b8217b83>@@AEAV<lambda_ab61a845afdef5b7c387490eaf3616ee>@@$$QEAV<lambda_f7f22ab5edc0698d5f6905b0d3f44752>@@@Z@4HA 0000000180037b48     libucrt:fflush.obj
 0004:00001b54       $pdata$__pctype_func       0000000180037b54     libucrt:ctype.obj
 0004:00001b60       $pdata$iswctype            0000000180037b60     libucrt:iswctype.obj
 0004:00001b6c       $pdata$__acrt_release_locale_ref 0000000180037b6c     libucrt:locale_refcounting.obj
 0004:00001b78       $pdata$__acrt_free_locale  0000000180037b78     libucrt:locale_refcounting.obj
 0004:00001b84       $pdata$__acrt_locale_free_lc_time_if_unreferenced 0000000180037b84     libucrt:locale_refcounting.obj
 0004:00001b90       $pdata$__acrt_update_thread_locale_data 0000000180037b90     libucrt:locale_refcounting.obj
 0004:00001b9c       $pdata$__acrt_update_thread_locale_data$fin$0 0000000180037b9c     libucrt:locale_refcounting.obj
 0004:00001ba8       $pdata$_updatetlocinfoEx_nolock 0000000180037ba8     libucrt:locale_refcounting.obj
 0004:00001bb4       $pdata$__acrt_DownlevelLocaleNameToLCID 0000000180037bb4     libucrt:lcidtoname_downlevel.obj
 0004:00001bc0       $pdata$_isleadbyte_l       0000000180037bc0     libucrt:_wctype.obj
 0004:00001bcc       $pdata$?__mbrtowc_utf8@__crt_mbstring@@YA_KPEA_WPEBD_KPEAU_Mbstatet@@@Z 0000000180037bcc     libucrt:mbrtowc.obj
 0004:00001bd8       $pdata$?__mbsrtowcs_utf8@__crt_mbstring@@YA_KPEA_WPEAPEBD_KPEAU_Mbstatet@@@Z 0000000180037bd8     libucrt:mbrtowc.obj
 0004:00001be4       $pdata$__acrt_fp_strflt_to_string 0000000180037be4     libucrt:_fptostr.obj
 0004:00001bf0       $pdata$memcpy_s            0000000180037bf0     libucrt:cfout.obj
 0004:00001bfc       $pdata$__acrt_fltout       0000000180037bfc     libucrt:cfout.obj
 0004:00001c08       $pdata$?divide@__crt_strtox@@YA_KAEAUbig_integer@1@AEBU21@@Z 0000000180037c08     libucrt:cfout.obj
 0004:00001c14       $pdata$0$?divide@__crt_strtox@@YA_KAEAUbig_integer@1@AEBU21@@Z 0000000180037c14     libucrt:cfout.obj
 0004:00001c20       $pdata$1$?divide@__crt_strtox@@YA_KAEAUbig_integer@1@AEBU21@@Z 0000000180037c20     libucrt:cfout.obj
 0004:00001c2c       $pdata$fegetround          0000000180037c2c     libucrt:fegetround.obj
 0004:00001c38       $pdata$_fcloseall          0000000180037c38     libucrt:closeall.obj
 0004:00001c44       $pdata$_fcloseall$fin$0    0000000180037c44     libucrt:closeall.obj
 0004:00001c50       $pdata$__acrt_stdio_free_buffer_nolock 0000000180037c50     libucrt:_freebuf.obj
 0004:00001c5c       $pdata$_isatty             0000000180037c5c     libucrt:isatty.obj
 0004:00001c68       $pdata$__acrt_locale_free_monetary 0000000180037c68     libucrt:initmon.obj
 0004:00001c74       $pdata$__acrt_locale_free_numeric 0000000180037c74     libucrt:initnum.obj
 0004:00001c80       $pdata$__acrt_locale_free_time 0000000180037c80     libucrt:inittime.obj
 0004:00001c8c       $pdata$?free_crt_array_internal@@YAXQEAPEBX_K@Z 0000000180037c8c     libucrt:inittime.obj
 0004:00001c98       $pdata$__acrt_GetStringTypeA 0000000180037c98     libucrt:getstringtypea.obj
 0004:00001ca4       $pdata$_get_osfhandle      0000000180037ca4     libucrt:osfinfo.obj
 0004:00001cb0       $pdata$_free_osfhnd        0000000180037cb0     libucrt:osfinfo.obj
 0004:00001cbc       $pdata$__acrt_lowio_create_handle_array 0000000180037cbc     libucrt:osfinfo.obj
 0004:00001cc8       $pdata$__acrt_lowio_destroy_handle_array 0000000180037cc8     libucrt:osfinfo.obj
 0004:00001cd4       $pdata$__acrt_lowio_ensure_fh_exists 0000000180037cd4     libucrt:osfinfo.obj
 0004:00001ce0       $pdata$qsort               0000000180037ce0     libucrt:qsort.obj
 0004:00001cec       $pdata$4$qsort             0000000180037cec     libucrt:qsort.obj
 0004:00001cf8       $pdata$5$qsort             0000000180037cf8     libucrt:qsort.obj
 0004:00001d04       $pdata$strncpy_s           0000000180037d04     libucrt:strncpy_s.obj
 0004:00001d10       $pdata$strpbrk             0000000180037d10     libucrt:strpbrk.obj
 0004:00001d1c       $pdata$fallbackMethod      0000000180037d1c     libucrt:strpbrk.obj
 0004:00001d28       $pdata$_mbsdec_l           0000000180037d28     libucrt:mbsdec.obj
 0004:00001d34       $pdata$__acrt_LCMapStringA 0000000180037d34     libucrt:lcmapstringa.obj
 0004:00001d40       $pdata$?__acrt_LCMapStringA_stat@@YAHPEAU__crt_locale_pointers@@PEB_WKPEBDHPEADHHH@Z 0000000180037d40     libucrt:lcmapstringa.obj
 0004:00001d4c       $pdata$?initialize_multibyte@@YAHXZ 0000000180037d4c     libucrt:multibyte_initializer.obj
 0004:00001d58       $pdata$_commit             0000000180037d58     libucrt:commit.obj
 0004:00001d64       $pdata$??$?RV<lambda_a37b2b86f63e897a80ea819b0eb08c01>@@AEAV<lambda_38ce7e780aa69e748d6df282ebc68efe>@@V<lambda_99fb1378e971ab6e7edea83e3a7a83a2>@@@?$__crt_seh_guarded_call@H@@QEAAH$$QEAV<lambda_a37b2b86f63e897a80ea819b0eb08c01>@@AEAV<lambda_38ce7e780aa69e748d6df282ebc68efe>@@$$QEAV<lambda_99fb1378e971ab6e7edea83e3a7a83a2>@@@Z 0000000180037d64     libucrt:commit.obj
 0004:00001d70       $pdata$?fin$0@?0???$?RV<lambda_751a882b2c74d4b022dec766aa51a29a>@@AEAV<lambda_628dfdc04ba53c8bfc02c9951375f3f5>@@V<lambda_f6c7be5f7998530c34de24c7437d6b54>@@@?$__crt_seh_guarded_call@H@@QEAAH$$QEAV<lambda_751a882b2c74d4b022dec766aa51a29a>@@AEAV<lambda_628dfdc04ba53c8bfc02c9951375f3f5>@@$$QEAV<lambda_f6c7be5f7998530c34de24c7437d6b54>@@@Z@4HA 0000000180037d70     libucrt:close.obj
 0004:00001d70       $pdata$?fin$0@?0???$?RV<lambda_a37b2b86f63e897a80ea819b0eb08c01>@@AEAV<lambda_38ce7e780aa69e748d6df282ebc68efe>@@V<lambda_99fb1378e971ab6e7edea83e3a7a83a2>@@@?$__crt_seh_guarded_call@H@@QEAAH$$QEAV<lambda_a37b2b86f63e897a80ea819b0eb08c01>@@AEAV<lambda_38ce7e780aa69e748d6df282ebc68efe>@@$$QEAV<lambda_99fb1378e971ab6e7edea83e3a7a83a2>@@@Z@4HA 0000000180037d70     libucrt:commit.obj
 0004:00001d7c       $pdata$_write              0000000180037d7c     libucrt:write.obj
 0004:00001d88       $pdata$_write$fin$0        0000000180037d88     libucrt:write.obj
 0004:00001d94       $pdata$_write_nolock       0000000180037d94     libucrt:write.obj
 0004:00001da0       $pdata$?write_double_translated_ansi_nolock@@YA?AUwrite_result@?A0x17268360@@HQEBDI@Z 0000000180037da0     libucrt:write.obj
 0004:00001dac       $pdata$?write_text_ansi_nolock@@YA?AUwrite_result@?A0x17268360@@HQEBDI@Z 0000000180037dac     libucrt:write.obj
 0004:00001db8       $pdata$?write_text_utf16le_nolock@@YA?AUwrite_result@?A0x17268360@@HQEBDI@Z 0000000180037db8     libucrt:write.obj
 0004:00001dc4       $pdata$?write_text_utf8_nolock@@YA?AUwrite_result@?A0x17268360@@HQEBDI@Z 0000000180037dc4     libucrt:write.obj
 0004:00001dd0       $pdata$?__mbrtoc32_utf8@__crt_mbstring@@YA_KPEA_UPEBD_KPEAU_Mbstatet@@@Z 0000000180037dd0     libucrt:mbrtoc32.obj
 0004:00001ddc       $pdata$_controlfp_s        0000000180037ddc     libucrt:contrlfp.obj
 0004:00001de8       $pdata$fegetenv            0000000180037de8     libucrt:fegetenv.obj
 0004:00001df4       $pdata$fesetenv            0000000180037df4     libucrt:fesetenv.obj
 0004:00001e00       $pdata$feholdexcept        0000000180037e00     libucrt:feholdexcept.obj
 0004:00001e18       $pdata$__acrt_fenv_set_control 0000000180037e18     libucrt:_fenvutils.obj
 0004:00001e24       $pdata$??$common_lseek_nolock@_J@@YA_JH_JH@Z 0000000180037e24     libucrt:lseek.obj
 0004:00001e30       $pdata$fclose              0000000180037e30     libucrt:fclose.obj
 0004:00001e3c       $pdata$fclose$fin$0        0000000180037e3c     libucrt:fclose.obj
 0004:00001e48       $pdata$_fclose_nolock      0000000180037e48     libucrt:fclose.obj
 0004:00001e54       $pdata$_putwch_nolock      0000000180037e54     libucrt:putwch.obj
 0004:00001e60       $pdata$_clearfp            0000000180037e60     libucrt:ieee.obj
 0004:00001e6c       $pdata$common_control87    0000000180037e6c     libucrt:ieee.obj
 0004:00001e78       $pdata$_ctrlfp$filt$0      0000000180037e78     libucrt:fpctrl.obj
 0004:00001e78       $pdata$common_control87$filt$0 0000000180037e78     libucrt:ieee.obj
 0004:00001e84       $pdata$_call_matherr       0000000180037e84     libucrt:libm_error.obj
 0004:00001e90       $pdata$_exception_enabled  0000000180037e90     libucrt:libm_error.obj
 0004:00001e9c       $pdata$_handle_error       0000000180037e9c     libucrt:libm_error.obj
 0004:00001ea8       $pdata$__acrt_initialize_fma3 0000000180037ea8     libucrt:fma3_available.obj
 0004:00001eb4       $pdata$_log_special_common 0000000180037eb4     libucrt:log_special.obj
 0004:00001ec0       $pdata$_log10_special      0000000180037ec0     libucrt:log_special.obj
 0004:00001ecc       $pdata$_close              0000000180037ecc     libucrt:close.obj
 0004:00001ed8       $pdata$_close_nolock       0000000180037ed8     libucrt:close.obj
 0004:00001ee4       $pdata$??$?RV<lambda_751a882b2c74d4b022dec766aa51a29a>@@AEAV<lambda_628dfdc04ba53c8bfc02c9951375f3f5>@@V<lambda_f6c7be5f7998530c34de24c7437d6b54>@@@?$__crt_seh_guarded_call@H@@QEAAH$$QEAV<lambda_751a882b2c74d4b022dec766aa51a29a>@@AEAV<lambda_628dfdc04ba53c8bfc02c9951375f3f5>@@$$QEAV<lambda_f6c7be5f7998530c34de24c7437d6b54>@@@Z 0000000180037ee4     libucrt:close.obj
 0004:00001ef0       $pdata$__dcrt_lowio_ensure_console_output_initialized 0000000180037ef0     libucrt:initcon.obj
 0004:00001efc       $pdata$__dcrt_write_console 0000000180037efc     libucrt:initcon.obj
 0004:00001f08       $pdata$__dcrt_terminate_console_output 0000000180037f08     libucrt:initcon.obj
 0004:00001f20       $pdata$_set_errno_from_matherr 0000000180037f20     libucrt:fpexcept.obj
 0004:00001f2c       $pdata$_raise_exc          0000000180037f2c     libucrt:fpexcept.obj
 0004:00001f38       $pdata$_raise_exc_ex       0000000180037f38     libucrt:fpexcept.obj
 0004:00001f44       $pdata$_clrfp              0000000180037f44     libucrt:fpctrl.obj
 0004:00001f50       $pdata$_ctrlfp             0000000180037f50     libucrt:fpctrl.obj
 0004:00001f5c       $pdata$_statfp             0000000180037f5c     libucrt:fpctrl.obj
 0004:00001f68       $pdata$_set_statfp         0000000180037f68     libucrt:fpctrl.obj
 0004:00001f74       $pdata$_IsNonwritableInCurrentImage 0000000180037f74     LIBCMT:pesect.obj
 0004:00001f80       $pdata$_IsNonwritableInCurrentImage$filt$0 0000000180037f80     LIBCMT:pesect.obj
 0005:00000000       MoveSmall                  0000000180038000     libvcruntime:memcpy.obj
 0005:00000050       MsetTab                    0000000180038050     libvcruntime:memset.obj
 0006:00000220       $R000000                   0000000180039220     Scale.res
 0006:00000b98       $R000978                   0000000180039b98     Scale.res
 0006:00000c80       $R000A60                   0000000180039c80     Scale.res
 0006:00000ee8       $R000CC8                   0000000180039ee8     Scale.res
 0006:00001428       $R001208                   000000018003a428     Scale.res
 0006:00005120       $R004F00                   000000018003e120     Scale.res
 0006:00005150       $R004F30                   000000018003e150     Scale.res
