 OPOSBillDispenser

 Timestamp is 61a758dd (Wed Dec  1 20:13:33 2021)

 Preferred load address is 0000000180000000

 Start         Length     Name                   Class
 0001:00000000 000000c0H .text$di                CODE
 0001:000000c0 00023a60H .text$mn                CODE
 0001:00023b20 00000040H .text$mn$00             CODE
 0001:00023b60 00000660H .text$x                 CODE
 0001:000241c0 00000078H .text$yd                CODE
 0002:00000000 00000638H .idata$5                DATA
 0002:00000638 00000030H .00cfg                  DATA
 0002:00000668 00000008H .CRT$XCA                DATA
 0002:00000670 00000008H .CRT$XCL                DATA
 0002:00000678 00000020H .CRT$XCU                DATA
 0002:00000698 00000008H .CRT$XCZ                DATA
 0002:000006a0 00000008H .CRT$XIA                DATA
 0002:000006a8 00000020H .CRT$XIC                DATA
 0002:000006c8 00000008H .CRT$XIZ                DATA
 0002:000006d0 00000008H .CRT$XLA                DATA
 0002:000006d8 00000008H .CRT$XLZ                DATA
 0002:000006e0 00000008H .CRT$XPA                DATA
 0002:000006e8 00000010H .CRT$XPX                DATA
 0002:000006f8 00000008H .CRT$XPXA               DATA
 0002:00000700 00000008H .CRT$XPZ                DATA
 0002:00000708 00000008H .CRT$XTA                DATA
 0002:00000710 00000010H .CRT$XTZ                DATA
 0002:00000718 00000000H .gehcont$y              DATA
 0002:00000718 00000000H .gfids$y                DATA
 0002:00000720 0000a3e0H .rdata                  DATA
 0002:0000ab00 00000000H .rdata$CastGuardVftablesA DATA
 0002:0000ab00 00000000H .rdata$CastGuardVftablesC DATA
 0002:0000ab00 00000028H .rdata$T                DATA
 0002:0000ab28 00000274H .rdata$r                DATA
 0002:0000ad9c 00000048H .rdata$voltmd           DATA
 0002:0000ade4 0000043cH .rdata$zzzdbg           DATA
 0002:0000b220 00000008H .rtc$IAA                DATA
 0002:0000b228 00000008H .rtc$IZZ                DATA
 0002:0000b230 00000008H .rtc$TAA                DATA
 0002:0000b238 00000008H .rtc$TZZ                DATA
 0002:0000b240 00000004H .tls                    DATA
 0002:0000b244 00000004H .tls$                   DATA
 0002:0000b248 00000008H .tls$ZZZ                DATA
 0002:0000b250 00001918H .xdata                  DATA
 0002:0000cb68 00000150H .xdata$x                DATA
 0002:0000ccb8 00000008H ATL$__a                 DATA
 0002:0000ccc0 00000010H ATL$__z                 DATA
 0002:0000ccd0 000000b0H .edata                  DATA
 0002:0000cd80 00000078H .idata$2                DATA
 0002:0000cdf8 00000018H .idata$3                DATA
 0002:0000ce10 00000638H .idata$4                DATA
 0002:0000d448 00000c5cH .idata$6                DATA
 0003:00000000 00000d88H .data                   DATA
 0003:00000d88 000000a8H .data$r                 DATA
 0003:00000e30 00000020H .data$rs                DATA
 0003:00000e50 000013ecH .bss                    DATA
 0004:00000000 00001ff8H .pdata                  DATA
 0005:00000000 000000f4H _RDATA                  DATA
 0006:00000000 00000220H .rsrc$01                DATA
 0006:00000220 00003df0H .rsrc$02                DATA

  Address         Publics by Value              Rva+Base               Lib:Object

 0000:00000000       ___safe_se_handler_table   0000000000000000     <absolute>
 0000:00000000       __guard_longjmp_table      0000000000000000     <absolute>
 0000:00000000       __arm64x_redirection_metadata 0000000000000000     <absolute>
 0000:00000000       __x64_code_ranges_to_entry_points 0000000000000000     <absolute>
 0000:00000000       __guard_iat_table          0000000000000000     <absolute>
 0000:00000000       __guard_fids_count         0000000000000000     <absolute>
 0000:00000000       __arm64x_extra_rfe_table   0000000000000000     <absolute>
 0000:00000000       __guard_iat_count          0000000000000000     <absolute>
 0000:00000000       __guard_longjmp_count      0000000000000000     <absolute>
 0000:00000000       __dynamic_value_reloc_table 0000000000000000     <absolute>
 0000:00000000       __x64_code_ranges_to_entry_points_count 0000000000000000     <absolute>
 0000:00000000       __hybrid_auxiliary_iat     0000000000000000     <absolute>
 0000:00000000       __hybrid_code_map          0000000000000000     <absolute>
 0000:00000000       __hybrid_auxiliary_iat_copy 0000000000000000     <absolute>
 0000:00000000       __arm64x_extra_rfe_table_size 0000000000000000     <absolute>
 0000:00000000       ___safe_se_handler_count   0000000000000000     <absolute>
 0000:00000000       __AbsoluteZero             0000000000000000     <absolute>
 0000:00000000       __guard_check_icall_a64n_fptr 0000000000000000     <absolute>
 0000:00000000       __guard_eh_cont_count      0000000000000000     <absolute>
 0000:00000000       __guard_fids_table         0000000000000000     <absolute>
 0000:00000000       __arm64x_redirection_metadata_count 0000000000000000     <absolute>
 0000:00000000       __enclave_config           0000000000000000     <absolute>
 0000:00000000       __guard_eh_cont_table      0000000000000000     <absolute>
 0000:00000000       __arm64x_native_entrypoint 0000000000000000     <absolute>
 0000:00000000       __hybrid_code_map_count    0000000000000000     <absolute>
 0000:00000100       __guard_flags              0000000000000100     <absolute>
 0000:00000000       __ImageBase                0000000180000000     <linker-defined>
 0001:000000c0       ?DupWide@_CW@@AEAAXXZ      00000001800010c0 f   CWString.obj
 0001:000000e8       ?cw_dup@@YAXPEBDAEAHAEAPEA_W1@Z 00000001800010e8 f   CWString.obj
 0001:000001c8       ?cw_memcpy@@YAHPEA_WPEBDH@Z 00000001800011c8 f   CWString.obj
 0001:00000214       ?cw_strcpy@@YAHPEA_WPEBD@Z 0000000180001214 f   CWString.obj
 0001:00000228       ??0CAtlComModule@ATL@@QEAA@XZ 0000000180001228 f i OposVariant.obj
 0001:000002a8       ??0CAtlWinModule@ATL@@QEAA@XZ 00000001800012a8 f i OposVariant.obj
 0001:00000314       ??0OposDispParms@@QEAA@PEAVOposVariant@@H@Z 0000000180001314 f   OposVariant.obj
 0001:000003bc       ??1OposDispParms@@QEAA@XZ  00000001800013bc f   OposVariant.obj
 0001:000003d4       ??_Estringdispid@CComTypeInfoHolder@ATL@@QEAAPEAXI@Z 00000001800013d4 f i OposVariant.obj
 0001:00000478       ?AtlWinModuleTerm@ATL@@YAJPEAU_ATL_WIN_MODULE70@1@PEAUHINSTANCE__@@@Z 0000000180001478 f i OposVariant.obj
 0001:00000528       ?ChangeBSTR@OposVariant@@QEAAXPEAPEA_WAEAJ@Z 0000000180001528 f   OposVariant.obj
 0001:00000588       ?ChangeLONG@OposVariant@@QEAAXPEAJAEAJ@Z 0000000180001588 f   OposVariant.obj
 0001:000005e4       ?GetLONG@OposVariant@@QEAAJXZ 00000001800015e4 f   OposVariant.obj
 0001:00000608       ?SetBSTR@OposVariant@@QEAAXPEA_WAEAJ@Z 0000000180001608 f   OposVariant.obj
 0001:00000648       ?SetBSTR_Copy@OposVariant@@QEAAXPEA_WAEAJ@Z 0000000180001648 f   OposVariant.obj
 0001:000006b8       ?SetBSTR_InOutPtr@OposVariant@@QEAA_NPEAPEA_WAEAJ@Z 00000001800016b8 f   OposVariant.obj
 0001:00000708       ?SetBSTR_OutPtr@OposVariant@@QEAA_NPEAPEA_WAEAJ@Z 0000000180001708 f   OposVariant.obj
 0001:00000724       ?SetDispatch_Ptr@OposVariant@@QEAAXPEAUIDispatch@@AEAJ@Z 0000000180001724 f   OposVariant.obj
 0001:0000077c       ?SetLONG@OposVariant@@QEAAXJ@Z 000000018000177c f   OposVariant.obj
 0001:000007ac       ?SetLONG_Ptr@OposVariant@@QEAAXPEAJAEAJ@Z 00000001800017ac f   OposVariant.obj
 0001:000007f8       ?SetString@OposVariant@@QEAAXPEB_WAEAJ@Z 00000001800017f8 f   OposVariant.obj
 0001:0000085c       ?SetVARIANT_BOOL@OposVariant@@QEAAXF@Z 000000018000185c f   OposVariant.obj
 0001:00000894       ?SetVARIANT_BOOL_Ptr@OposVariant@@QEAAXPEAFAEAJ@Z 0000000180001894 f   OposVariant.obj
 0001:000008e0       ?Term@CAtlComModule@ATL@@QEAAXXZ 00000001800018e0 f i OposVariant.obj
 0001:00000950       ?_AtlInitializeCriticalSectionEx@ATL@@YAHPEAU_RTL_CRITICAL_SECTION@@KK@Z 0000000180001950 f i OposVariant.obj
 0001:00000958       ?_AtlRaiseException@ATL@@YAXKK@Z 0000000180001958 f i OposVariant.obj
 0001:00000968       ?Next@?$CComEnumImpl@UIEnumConnections@@$1?_GUID_b196b287_bab4_101a_b69c_00aa00341d07@@3U__s_GUID@@BUtagCONNECTDATA@@V?$_Copy@UtagCONNECTDATA@@@ATL@@@ATL@@UEAAJKPEAUtagCONNECTDATA@@PEAK@Z 0000000180001968 f i BillDispenser.obj
 0001:00000a30       ?Skip@?$CComEnumImpl@UIEnumConnections@@$1?_GUID_b196b287_bab4_101a_b69c_00aa00341d07@@3U__s_GUID@@BUtagCONNECTDATA@@V?$_Copy@UtagCONNECTDATA@@@ATL@@@ATL@@UEAAJK@Z 0000000180001a30 f i BillDispenser.obj
 0001:00000a5c       ?Reset@?$CComEnumImpl@UIEnumConnectionPoints@@$1?_GUID_b196b285_bab4_101a_b69c_00aa00341d07@@3U__s_GUID@@BPEAUIConnectionPoint@@V?$_CopyInterface@UIConnectionPoint@@@ATL@@@ATL@@UEAAJXZ 0000000180001a5c f i BillDispenser.obj
 0001:00000a5c       ?Reset@?$CComEnumImpl@UIEnumConnections@@$1?_GUID_b196b287_bab4_101a_b69c_00aa00341d07@@3U__s_GUID@@BUtagCONNECTDATA@@V?$_Copy@UtagCONNECTDATA@@@ATL@@@ATL@@UEAAJXZ 0000000180001a5c f i BillDispenser.obj
 0001:00000a68       ?Clone@?$CComEnumImpl@UIEnumConnections@@$1?_GUID_b196b287_bab4_101a_b69c_00aa00341d07@@3U__s_GUID@@BUtagCONNECTDATA@@V?$_Copy@UtagCONNECTDATA@@@ATL@@@ATL@@UEAAJPEAPEAUIEnumConnections@@@Z 0000000180001a68 f i BillDispenser.obj
 0001:00000b94       ?AddRef@?$CComObject@V?$CComEnum@UIEnumConnectionPoints@@$1?_GUID_b196b285_bab4_101a_b69c_00aa00341d07@@3U__s_GUID@@BPEAUIConnectionPoint@@V?$_CopyInterface@UIConnectionPoint@@@ATL@@VCComSingleThreadModel@6@@ATL@@@ATL@@UEAAKXZ 0000000180001b94 f i BillDispenser.obj
 0001:00000b94       ?AddRef@?$CComObject@V?$CComEnum@UIEnumConnections@@$1?_GUID_b196b287_bab4_101a_b69c_00aa00341d07@@3U__s_GUID@@BUtagCONNECTDATA@@V?$_Copy@UtagCONNECTDATA@@@ATL@@VCComSingleThreadModel@6@@ATL@@@ATL@@UEAAKXZ 0000000180001b94 f i BillDispenser.obj
 0001:00000ba0       ?Release@?$CComObject@V?$CComEnum@UIEnumConnections@@$1?_GUID_b196b287_bab4_101a_b69c_00aa00341d07@@3U__s_GUID@@BUtagCONNECTDATA@@V?$_Copy@UtagCONNECTDATA@@@ATL@@VCComSingleThreadModel@6@@ATL@@@ATL@@UEAAKXZ 0000000180001ba0 f i BillDispenser.obj
 0001:00000ba0       ?Release@?$CComObject@V?$CComEnum@UIEnumConnectionPoints@@$1?_GUID_b196b285_bab4_101a_b69c_00aa00341d07@@3U__s_GUID@@BPEAUIConnectionPoint@@V?$_CopyInterface@UIConnectionPoint@@@ATL@@VCComSingleThreadModel@6@@ATL@@@ATL@@UEAAKXZ 0000000180001ba0 f i BillDispenser.obj
 0001:00000bf4       ?QueryInterface@?$CComObject@V?$CComEnum@UIEnumConnections@@$1?_GUID_b196b287_bab4_101a_b69c_00aa00341d07@@3U__s_GUID@@BUtagCONNECTDATA@@V?$_Copy@UtagCONNECTDATA@@@ATL@@VCComSingleThreadModel@6@@ATL@@@ATL@@UEAAJAEBU_GUID@@PEAPEAX@Z 0000000180001bf4 f i BillDispenser.obj
 0001:00000c08       ??_E?$CComObject@V?$CComEnum@UIEnumConnections@@$1?_GUID_b196b287_bab4_101a_b69c_00aa00341d07@@3U__s_GUID@@BUtagCONNECTDATA@@V?$_Copy@UtagCONNECTDATA@@@ATL@@VCComSingleThreadModel@6@@ATL@@@ATL@@UEAAPEAXI@Z 0000000180001c08 f i BillDispenser.obj
 0001:00000c08       ??_G?$CComObject@V?$CComEnum@UIEnumConnections@@$1?_GUID_b196b287_bab4_101a_b69c_00aa00341d07@@3U__s_GUID@@BUtagCONNECTDATA@@V?$_Copy@UtagCONNECTDATA@@@ATL@@VCComSingleThreadModel@6@@ATL@@@ATL@@UEAAPEAXI@Z 0000000180001c08 f i BillDispenser.obj
 0001:00000c60       _guard_check_icall_nop     0000000180001c60 f i LIBCMT:guard_support.obj
 0001:00000c60       ?OnFinalMessage@?$CWindowImplBaseT@VCWindow@ATL@@V?$CWinTraits@$0FGAAAAAA@$0A@@2@@ATL@@UEAAXPEAUHWND__@@@Z 0000000180001c60 f i BillDispenser.obj
 0001:00000c60       ?ObjectMain@CComObjectRootBase@ATL@@SAX_N@Z 0000000180001c60 f i BillDispenser.obj
 0001:00000c64       ?GetObjectDescription@?$CComCoClass@VCOPOSBillDispenser@@$1?CLSID_OPOSBillDispenser@@3U_GUID@@B@ATL@@SAPEB_WXZ 0000000180001c64 f i BillDispenser.obj
 0001:00000c64       ?HandsOffStorage@?$IPersistStorageImpl@VCOPOSBillDispenser@@@ATL@@UEAAJXZ 0000000180001c64 f i BillDispenser.obj
 0001:00000c64       ?EnableModeless@?$IOleInPlaceActiveObjectImpl@VCOPOSBillDispenser@@@ATL@@UEAAJH@Z 0000000180001c64 f i BillDispenser.obj
 0001:00000c64       ?Update@?$IOleObjectImpl@VCOPOSBillDispenser@@@ATL@@UEAAJXZ 0000000180001c64 f i BillDispenser.obj
 0001:00000c64       ?ResizeBorder@?$IOleInPlaceActiveObjectImpl@VCOPOSBillDispenser@@@ATL@@UEAAJPEBUtagRECT@@PEAUIOleInPlaceUIWindow@@H@Z 0000000180001c64 f i BillDispenser.obj
 0001:00000c64       ?SetHostNames@?$IOleObjectImpl@VCOPOSBillDispenser@@@ATL@@UEAAJPEB_W0@Z 0000000180001c64 f i BillDispenser.obj
 0001:00000c64       ?Release@CRegObject@ATL@@UEAAKXZ 0000000180001c64 f i BillDispenser.obj
 0001:00000c64       ?OnFrameWindowActivate@?$IOleInPlaceActiveObjectImpl@VCOPOSBillDispenser@@@ATL@@UEAAJH@Z 0000000180001c64 f i BillDispenser.obj
 0001:00000c64       ?GetCategoryMap@CComObjectRootBase@ATL@@SAPEBU_ATL_CATMAP_ENTRY@2@XZ 0000000180001c64 f i BillDispenser.obj
 0001:00000c64       ?SaveCompleted@?$IPersistStorageImpl@VCOPOSBillDispenser@@@ATL@@UEAAJPEAUIStorage@@@Z 0000000180001c64 f i BillDispenser.obj
 0001:00000c64       ?OnAmbientPropertyChange@?$IOleControlImpl@VCOPOSBillDispenser@@@ATL@@UEAAJJ@Z 0000000180001c64 f i BillDispenser.obj
 0001:00000c64       ?IsUpToDate@?$IOleObjectImpl@VCOPOSBillDispenser@@@ATL@@UEAAJXZ 0000000180001c64 f i BillDispenser.obj
 0001:00000c68       ??_E?$CComObject@VCOPOSBillDispenser@@@ATL@@W7EAAPEAXI@Z 0000000180001c68 f i BillDispenser.obj
 0001:00000c74       ??_E?$CComObject@VCOPOSBillDispenser@@@ATL@@WHA@EAAPEAXI@Z 0000000180001c74 f i BillDispenser.obj
 0001:00000c80       ?QueryInterface@?$CComObject@VCOPOSBillDispenser@@@ATL@@WLI@EAAJAEBU_GUID@@PEAPEAX@Z 0000000180001c80 f i BillDispenser.obj
 0001:00000c8c       ?AddRef@?$CComObject@VCOPOSBillDispenser@@@ATL@@WLI@EAAKXZ 0000000180001c8c f i BillDispenser.obj
 0001:00000c98       ?Release@?$CComObject@VCOPOSBillDispenser@@@ATL@@WLI@EAAKXZ 0000000180001c98 f i BillDispenser.obj
 0001:00000ca4       ?QueryInterface@?$CComObject@VCOPOSBillDispenser@@@ATL@@WMA@EAAJAEBU_GUID@@PEAPEAX@Z 0000000180001ca4 f i BillDispenser.obj
 0001:00000cb0       ?AddRef@?$CComObject@VCOPOSBillDispenser@@@ATL@@WMA@EAAKXZ 0000000180001cb0 f i BillDispenser.obj
 0001:00000cbc       ?Release@?$CComObject@VCOPOSBillDispenser@@@ATL@@WMA@EAAKXZ 0000000180001cbc f i BillDispenser.obj
 0001:00000cc8       ?QueryInterface@?$CComObject@VCOPOSBillDispenser@@@ATL@@WMI@EAAJAEBU_GUID@@PEAPEAX@Z 0000000180001cc8 f i BillDispenser.obj
 0001:00000cd4       ?AddRef@?$CComObject@VCOPOSBillDispenser@@@ATL@@WMI@EAAKXZ 0000000180001cd4 f i BillDispenser.obj
 0001:00000ce0       ?Release@?$CComObject@VCOPOSBillDispenser@@@ATL@@WMI@EAAKXZ 0000000180001ce0 f i BillDispenser.obj
 0001:00000cec       ?QueryInterface@?$CComObject@VCOPOSBillDispenser@@@ATL@@WNA@EAAJAEBU_GUID@@PEAPEAX@Z 0000000180001cec f i BillDispenser.obj
 0001:00000cf8       ?AddRef@?$CComObject@VCOPOSBillDispenser@@@ATL@@WNA@EAAKXZ 0000000180001cf8 f i BillDispenser.obj
 0001:00000d04       ?Release@?$CComObject@VCOPOSBillDispenser@@@ATL@@WNA@EAAKXZ 0000000180001d04 f i BillDispenser.obj
 0001:00000d10       ?QueryInterface@?$CComObject@VCOPOSBillDispenser@@@ATL@@WNI@EAAJAEBU_GUID@@PEAPEAX@Z 0000000180001d10 f i BillDispenser.obj
 0001:00000d1c       ?AddRef@?$CComObject@VCOPOSBillDispenser@@@ATL@@WNI@EAAKXZ 0000000180001d1c f i BillDispenser.obj
 0001:00000d28       ?Release@?$CComObject@VCOPOSBillDispenser@@@ATL@@WNI@EAAKXZ 0000000180001d28 f i BillDispenser.obj
 0001:00000d34       ?QueryInterface@?$CComObject@VCOPOSBillDispenser@@@ATL@@WOA@EAAJAEBU_GUID@@PEAPEAX@Z 0000000180001d34 f i BillDispenser.obj
 0001:00000d40       ?AddRef@?$CComObject@VCOPOSBillDispenser@@@ATL@@WOA@EAAKXZ 0000000180001d40 f i BillDispenser.obj
 0001:00000d4c       ?Release@?$CComObject@VCOPOSBillDispenser@@@ATL@@WOA@EAAKXZ 0000000180001d4c f i BillDispenser.obj
 0001:00000d58       ?QueryInterface@?$CComObject@VCOPOSBillDispenser@@@ATL@@WOI@EAAJAEBU_GUID@@PEAPEAX@Z 0000000180001d58 f i BillDispenser.obj
 0001:00000d64       ?AddRef@?$CComObject@VCOPOSBillDispenser@@@ATL@@WOI@EAAKXZ 0000000180001d64 f i BillDispenser.obj
 0001:00000d70       ?Release@?$CComObject@VCOPOSBillDispenser@@@ATL@@WOI@EAAKXZ 0000000180001d70 f i BillDispenser.obj
 0001:00000d7c       ?QueryInterface@?$CComObject@VCOPOSBillDispenser@@@ATL@@WPA@EAAJAEBU_GUID@@PEAPEAX@Z 0000000180001d7c f i BillDispenser.obj
 0001:00000d88       ?AddRef@?$CComObject@VCOPOSBillDispenser@@@ATL@@WPA@EAAKXZ 0000000180001d88 f i BillDispenser.obj
 0001:00000d94       ?Release@?$CComObject@VCOPOSBillDispenser@@@ATL@@WPA@EAAKXZ 0000000180001d94 f i BillDispenser.obj
 0001:00000da0       ?QueryInterface@?$CComObject@VCOPOSBillDispenser@@@ATL@@WPI@EAAJAEBU_GUID@@PEAPEAX@Z 0000000180001da0 f i BillDispenser.obj
 0001:00000dac       ?AddRef@?$CComObject@VCOPOSBillDispenser@@@ATL@@WPI@EAAKXZ 0000000180001dac f i BillDispenser.obj
 0001:00000db8       ?Release@?$CComObject@VCOPOSBillDispenser@@@ATL@@WPI@EAAKXZ 0000000180001db8 f i BillDispenser.obj
 0001:00000dc4       ?QueryInterface@?$CComObject@VCOPOSBillDispenser@@@ATL@@WBAA@EAAJAEBU_GUID@@PEAPEAX@Z 0000000180001dc4 f i BillDispenser.obj
 0001:00000dd0       ?AddRef@?$CComObject@VCOPOSBillDispenser@@@ATL@@WBAA@EAAKXZ 0000000180001dd0 f i BillDispenser.obj
 0001:00000ddc       ?Release@?$CComObject@VCOPOSBillDispenser@@@ATL@@WBAA@EAAKXZ 0000000180001ddc f i BillDispenser.obj
 0001:00000de8       ?QueryInterface@?$CComObject@VCOPOSBillDispenser@@@ATL@@WBAI@EAAJAEBU_GUID@@PEAPEAX@Z 0000000180001de8 f i BillDispenser.obj
 0001:00000df4       ?AddRef@?$CComObject@VCOPOSBillDispenser@@@ATL@@WBAI@EAAKXZ 0000000180001df4 f i BillDispenser.obj
 0001:00000e00       ?Release@?$CComObject@VCOPOSBillDispenser@@@ATL@@WBAI@EAAKXZ 0000000180001e00 f i BillDispenser.obj
 0001:00000e0c       ?QueryInterface@?$CComObject@VCOPOSBillDispenser@@@ATL@@WBBA@EAAJAEBU_GUID@@PEAPEAX@Z 0000000180001e0c f i BillDispenser.obj
 0001:00000e18       ?AddRef@?$CComObject@VCOPOSBillDispenser@@@ATL@@WBBA@EAAKXZ 0000000180001e18 f i BillDispenser.obj
 0001:00000e24       ?Release@?$CComObject@VCOPOSBillDispenser@@@ATL@@WBBA@EAAKXZ 0000000180001e24 f i BillDispenser.obj
 0001:00000e30       ?QueryInterface@?$CComObject@VCOPOSBillDispenser@@@ATL@@WBBI@EAAJAEBU_GUID@@PEAPEAX@Z 0000000180001e30 f i BillDispenser.obj
 0001:00000e3c       ?AddRef@?$CComObject@VCOPOSBillDispenser@@@ATL@@WBBI@EAAKXZ 0000000180001e3c f i BillDispenser.obj
 0001:00000e48       ?Release@?$CComObject@VCOPOSBillDispenser@@@ATL@@WBBI@EAAKXZ 0000000180001e48 f i BillDispenser.obj
 0001:00000e54       ?AddRef@?$CComObject@VCOPOSBillDispenser@@@ATL@@WBCI@EAAKXZ 0000000180001e54 f i BillDispenser.obj
 0001:00000e60       ?Release@?$CComObject@VCOPOSBillDispenser@@@ATL@@WBCI@EAAKXZ 0000000180001e60 f i BillDispenser.obj
 0001:00000e6c       ?AddRef@?$CComObject@VCOPOSBillDispenser@@@ATL@@WBEA@EAAKXZ 0000000180001e6c f i BillDispenser.obj
 0001:00000e78       ?Release@?$CComObject@VCOPOSBillDispenser@@@ATL@@WBEA@EAAKXZ 0000000180001e78 f i BillDispenser.obj
 0001:00000e84       ??_E?$CComContainedObject@VCOPOSBillDispenser@@@ATL@@W7EAAPEAXI@Z 0000000180001e84 f i BillDispenser.obj
 0001:00000e90       ??_E?$CComContainedObject@VCOPOSBillDispenser@@@ATL@@WHA@EAAPEAXI@Z 0000000180001e90 f i BillDispenser.obj
 0001:00000e9c       ?QueryInterface@?$CComContainedObject@VCOPOSBillDispenser@@@ATL@@WLI@EAAJAEBU_GUID@@PEAPEAX@Z 0000000180001e9c f i BillDispenser.obj
 0001:00000ea8       ?AddRef@?$CComContainedObject@VCOPOSBillDispenser@@@ATL@@WLI@EAAKXZ 0000000180001ea8 f i BillDispenser.obj
 0001:00000eb4       ?Release@?$CComContainedObject@VCOPOSBillDispenser@@@ATL@@WLI@EAAKXZ 0000000180001eb4 f i BillDispenser.obj
 0001:00000ec0       ?QueryInterface@?$CComContainedObject@VCOPOSBillDispenser@@@ATL@@WMA@EAAJAEBU_GUID@@PEAPEAX@Z 0000000180001ec0 f i BillDispenser.obj
 0001:00000ecc       ?AddRef@?$CComContainedObject@VCOPOSBillDispenser@@@ATL@@WMA@EAAKXZ 0000000180001ecc f i BillDispenser.obj
 0001:00000ed8       ?Release@?$CComContainedObject@VCOPOSBillDispenser@@@ATL@@WMA@EAAKXZ 0000000180001ed8 f i BillDispenser.obj
 0001:00000ee4       ?QueryInterface@?$CComContainedObject@VCOPOSBillDispenser@@@ATL@@WMI@EAAJAEBU_GUID@@PEAPEAX@Z 0000000180001ee4 f i BillDispenser.obj
 0001:00000ef0       ?AddRef@?$CComContainedObject@VCOPOSBillDispenser@@@ATL@@WMI@EAAKXZ 0000000180001ef0 f i BillDispenser.obj
 0001:00000efc       ?Release@?$CComContainedObject@VCOPOSBillDispenser@@@ATL@@WMI@EAAKXZ 0000000180001efc f i BillDispenser.obj
 0001:00000f08       ?QueryInterface@?$CComContainedObject@VCOPOSBillDispenser@@@ATL@@WNA@EAAJAEBU_GUID@@PEAPEAX@Z 0000000180001f08 f i BillDispenser.obj
 0001:00000f14       ?AddRef@?$CComContainedObject@VCOPOSBillDispenser@@@ATL@@WNA@EAAKXZ 0000000180001f14 f i BillDispenser.obj
 0001:00000f20       ?Release@?$CComContainedObject@VCOPOSBillDispenser@@@ATL@@WNA@EAAKXZ 0000000180001f20 f i BillDispenser.obj
 0001:00000f2c       ?QueryInterface@?$CComContainedObject@VCOPOSBillDispenser@@@ATL@@WNI@EAAJAEBU_GUID@@PEAPEAX@Z 0000000180001f2c f i BillDispenser.obj
 0001:00000f38       ?AddRef@?$CComContainedObject@VCOPOSBillDispenser@@@ATL@@WNI@EAAKXZ 0000000180001f38 f i BillDispenser.obj
 0001:00000f44       ?Release@?$CComContainedObject@VCOPOSBillDispenser@@@ATL@@WNI@EAAKXZ 0000000180001f44 f i BillDispenser.obj
 0001:00000f50       ?QueryInterface@?$CComContainedObject@VCOPOSBillDispenser@@@ATL@@WOA@EAAJAEBU_GUID@@PEAPEAX@Z 0000000180001f50 f i BillDispenser.obj
 0001:00000f5c       ?AddRef@?$CComContainedObject@VCOPOSBillDispenser@@@ATL@@WOA@EAAKXZ 0000000180001f5c f i BillDispenser.obj
 0001:00000f68       ?Release@?$CComContainedObject@VCOPOSBillDispenser@@@ATL@@WOA@EAAKXZ 0000000180001f68 f i BillDispenser.obj
 0001:00000f74       ?QueryInterface@?$CComContainedObject@VCOPOSBillDispenser@@@ATL@@WOI@EAAJAEBU_GUID@@PEAPEAX@Z 0000000180001f74 f i BillDispenser.obj
 0001:00000f80       ?AddRef@?$CComContainedObject@VCOPOSBillDispenser@@@ATL@@WOI@EAAKXZ 0000000180001f80 f i BillDispenser.obj
 0001:00000f8c       ?Release@?$CComContainedObject@VCOPOSBillDispenser@@@ATL@@WOI@EAAKXZ 0000000180001f8c f i BillDispenser.obj
 0001:00000f98       ?QueryInterface@?$CComContainedObject@VCOPOSBillDispenser@@@ATL@@WPA@EAAJAEBU_GUID@@PEAPEAX@Z 0000000180001f98 f i BillDispenser.obj
 0001:00000fa4       ?AddRef@?$CComContainedObject@VCOPOSBillDispenser@@@ATL@@WPA@EAAKXZ 0000000180001fa4 f i BillDispenser.obj
 0001:00000fb0       ?Release@?$CComContainedObject@VCOPOSBillDispenser@@@ATL@@WPA@EAAKXZ 0000000180001fb0 f i BillDispenser.obj
 0001:00000fbc       ?QueryInterface@?$CComContainedObject@VCOPOSBillDispenser@@@ATL@@WPI@EAAJAEBU_GUID@@PEAPEAX@Z 0000000180001fbc f i BillDispenser.obj
 0001:00000fc8       ?AddRef@?$CComContainedObject@VCOPOSBillDispenser@@@ATL@@WPI@EAAKXZ 0000000180001fc8 f i BillDispenser.obj
 0001:00000fd4       ?Release@?$CComContainedObject@VCOPOSBillDispenser@@@ATL@@WPI@EAAKXZ 0000000180001fd4 f i BillDispenser.obj
 0001:00000fe0       ?QueryInterface@?$CComContainedObject@VCOPOSBillDispenser@@@ATL@@WBAA@EAAJAEBU_GUID@@PEAPEAX@Z 0000000180001fe0 f i BillDispenser.obj
 0001:00000fec       ?AddRef@?$CComContainedObject@VCOPOSBillDispenser@@@ATL@@WBAA@EAAKXZ 0000000180001fec f i BillDispenser.obj
 0001:00000ff8       ?Release@?$CComContainedObject@VCOPOSBillDispenser@@@ATL@@WBAA@EAAKXZ 0000000180001ff8 f i BillDispenser.obj
 0001:00001004       ?QueryInterface@?$CComContainedObject@VCOPOSBillDispenser@@@ATL@@WBAI@EAAJAEBU_GUID@@PEAPEAX@Z 0000000180002004 f i BillDispenser.obj
 0001:00001010       ?AddRef@?$CComContainedObject@VCOPOSBillDispenser@@@ATL@@WBAI@EAAKXZ 0000000180002010 f i BillDispenser.obj
 0001:0000101c       ?Release@?$CComContainedObject@VCOPOSBillDispenser@@@ATL@@WBAI@EAAKXZ 000000018000201c f i BillDispenser.obj
 0001:00001028       ?QueryInterface@?$CComContainedObject@VCOPOSBillDispenser@@@ATL@@WBBA@EAAJAEBU_GUID@@PEAPEAX@Z 0000000180002028 f i BillDispenser.obj
 0001:00001034       ?AddRef@?$CComContainedObject@VCOPOSBillDispenser@@@ATL@@WBBA@EAAKXZ 0000000180002034 f i BillDispenser.obj
 0001:00001040       ?Release@?$CComContainedObject@VCOPOSBillDispenser@@@ATL@@WBBA@EAAKXZ 0000000180002040 f i BillDispenser.obj
 0001:0000104c       ?QueryInterface@?$CComContainedObject@VCOPOSBillDispenser@@@ATL@@WBBI@EAAJAEBU_GUID@@PEAPEAX@Z 000000018000204c f i BillDispenser.obj
 0001:00001058       ?AddRef@?$CComContainedObject@VCOPOSBillDispenser@@@ATL@@WBBI@EAAKXZ 0000000180002058 f i BillDispenser.obj
 0001:00001064       ?Release@?$CComContainedObject@VCOPOSBillDispenser@@@ATL@@WBBI@EAAKXZ 0000000180002064 f i BillDispenser.obj
 0001:00001070       ?AddRef@?$CComContainedObject@VCOPOSBillDispenser@@@ATL@@WBCI@EAAKXZ 0000000180002070 f i BillDispenser.obj
 0001:0000107c       ?Release@?$CComContainedObject@VCOPOSBillDispenser@@@ATL@@WBCI@EAAKXZ 000000018000207c f i BillDispenser.obj
 0001:00001088       ?AddRef@?$CComContainedObject@VCOPOSBillDispenser@@@ATL@@WBEA@EAAKXZ 0000000180002088 f i BillDispenser.obj
 0001:00001094       ?Release@?$CComContainedObject@VCOPOSBillDispenser@@@ATL@@WBEA@EAAKXZ 0000000180002094 f i BillDispenser.obj
 0001:000010a0       ?CreateInstance@CComClassFactory@ATL@@UEAAJPEAUIUnknown@@AEBU_GUID@@PEAPEAX@Z 00000001800020a0 f i BillDispenser.obj
 0001:00001100       ?LockServer@CComClassFactory@ATL@@UEAAJH@Z 0000000180002100 f i BillDispenser.obj
 0001:00001124       ??_ECComClassFactory@ATL@@UEAAPEAXI@Z 0000000180002124 f i BillDispenser.obj
 0001:00001124       ??_GCComClassFactory@ATL@@UEAAPEAXI@Z 0000000180002124 f i BillDispenser.obj
 0001:00001174       ?GetWindowProc@?$CWindowImplBaseT@VCWindow@ATL@@V?$CWinTraits@$0FGAAAAAA@$0A@@2@@ATL@@UEAAP6A_JPEAUHWND__@@I_K_J@ZXZ 0000000180002174 f i BillDispenser.obj
 0001:0000117c       ?StartWindowProc@?$CWindowImplBaseT@VCWindow@ATL@@V?$CWinTraits@$0FGAAAAAA@$0A@@2@@ATL@@SA_JPEAUHWND__@@I_K_J@Z 000000018000217c f i BillDispenser.obj
 0001:00001230       ?GetTypeInfoCount@?$IDispatchImpl@UIOPOSBillDispenser@@$1?IID_IOPOSBillDispenser@@3U_GUID@@B$1?LIBID_OposBillDispenser_CCO@@3U3@B$00$0A@VCComTypeInfoHolder@ATL@@@ATL@@UEAAJPEAI@Z 0000000180002230 f i BillDispenser.obj
 0001:00001244       ?GetTypeInfo@?$IDispatchImpl@UIOPOSBillDispenser@@$1?IID_IOPOSBillDispenser@@3U_GUID@@B$1?LIBID_OposBillDispenser_CCO@@3U3@B$00$0A@VCComTypeInfoHolder@ATL@@@ATL@@UEAAJIKPEAPEAUITypeInfo@@@Z 0000000180002244 f i BillDispenser.obj
 0001:000012a8       ?GetIDsOfNames@?$IDispatchImpl@UIOPOSBillDispenser@@$1?IID_IOPOSBillDispenser@@3U_GUID@@B$1?LIBID_OposBillDispenser_CCO@@3U3@B$00$0A@VCComTypeInfoHolder@ATL@@@ATL@@UEAAJAEBU_GUID@@PEAPEA_WIKPEAJ@Z 00000001800022a8 f i BillDispenser.obj
 0001:000012b4       ?Invoke@?$IDispatchImpl@UIOPOSBillDispenser@@$1?IID_IOPOSBillDispenser@@3U_GUID@@B$1?LIBID_OposBillDispenser_CCO@@3U3@B$00$0A@VCComTypeInfoHolder@ATL@@@ATL@@UEAAJJAEBU_GUID@@KGPEAUtagDISPPARAMS@@PEAUtagVARIANT@@PEAUtagEXCEPINFO@@PEAI@Z 00000001800022b4 f i BillDispenser.obj
 0001:00001344       ?CreateControlWindow@?$CComControl@VCOPOSBillDispenser@@V?$CWindowImpl@VCOPOSBillDispenser@@VCWindow@ATL@@V?$CWinTraits@$0FGAAAAAA@$0A@@3@@ATL@@@ATL@@UEAAPEAUHWND__@@PEAU3@AEAUtagRECT@@@Z 0000000180002344 f i BillDispenser.obj
 0001:0000137c       ?ControlQueryInterface@?$CComControl@VCOPOSBillDispenser@@V?$CWindowImpl@VCOPOSBillDispenser@@VCWindow@ATL@@V?$CWinTraits@$0FGAAAAAA@$0A@@3@@ATL@@@ATL@@UEAAJAEBU_GUID@@PEAPEAX@Z 000000018000237c f i BillDispenser.obj
 0001:00001390       ?GetUserClassID@?$IOleObjectImpl@VCOPOSBillDispenser@@@ATL@@UEAAJPEAU_GUID@@@Z 0000000180002390 f i BillDispenser.obj
 0001:00001390       ?GetClassID@?$IPersistStreamInitImpl@VCOPOSBillDispenser@@@ATL@@UEAAJPEAU_GUID@@@Z 0000000180002390 f i BillDispenser.obj
 0001:00001390       ?GetClassID@?$IPersistStorageImpl@VCOPOSBillDispenser@@@ATL@@UEAAJPEAU_GUID@@@Z 0000000180002390 f i BillDispenser.obj
 0001:000013ac       ?IsDirty@?$IPersistStreamInitImpl@VCOPOSBillDispenser@@@ATL@@UEAAJXZ 00000001800023ac f i BillDispenser.obj
 0001:000013c8       ?Load@?$IPersistStreamInitImpl@VCOPOSBillDispenser@@@ATL@@UEAAJPEAUIStream@@@Z 00000001800023c8 f i BillDispenser.obj
 0001:000013e0       ?Save@?$IPersistStreamInitImpl@VCOPOSBillDispenser@@@ATL@@UEAAJPEAUIStream@@H@Z 00000001800023e0 f i BillDispenser.obj
 0001:000013f8       ?GetSizeMax@?$IPersistStreamInitImpl@VCOPOSBillDispenser@@@ATL@@UEAAJPEAT_ULARGE_INTEGER@@@Z 00000001800023f8 f i BillDispenser.obj
 0001:0000161c       ?InitNew@?$IPersistStreamInitImpl@VCOPOSBillDispenser@@@ATL@@UEAAJXZ 000000018000261c f i BillDispenser.obj
 0001:00001634       ?OnMnemonic@?$IOleControlImpl@VCOPOSBillDispenser@@@ATL@@UEAAJPEAUtagMSG@@@Z 0000000180002634 f i BillDispenser.obj
 0001:00001634       ?SOOutputCompleteDummy@COPOSBillDispenser@@MEAAJJ@Z 0000000180002634 f i BillDispenser.obj
 0001:00001634       ?GetRect@?$IViewObjectExImpl@VCOPOSBillDispenser@@@ATL@@UEAAJKPEAU_RECTL@@@Z 0000000180002634 f i BillDispenser.obj
 0001:00001634       ?GetColorSet@?$IViewObjectExImpl@VCOPOSBillDispenser@@@ATL@@UEAAJKJPEAXPEAUtagDVTARGETDEVICE@@PEAUHDC__@@PEAPEAUtagLOGPALETTE@@@Z 0000000180002634 f i BillDispenser.obj
 0001:00001634       ?GetClipboardData@?$IOleObjectImpl@VCOPOSBillDispenser@@@ATL@@UEAAJKPEAPEAUIDataObject@@@Z 0000000180002634 f i BillDispenser.obj
 0001:00001634       ?SetMoniker@?$IOleObjectImpl@VCOPOSBillDispenser@@@ATL@@UEAAJKPEAUIMoniker@@@Z 0000000180002634 f i BillDispenser.obj
 0001:00001634       ?QueryGetData@?$IDataObjectImpl@VCOPOSBillDispenser@@@ATL@@UEAAJPEAUtagFORMATETC@@@Z 0000000180002634 f i BillDispenser.obj
 0001:00001634       ?QueryInterface@CRegObject@ATL@@UEAAJAEBU_GUID@@PEAPEAX@Z 0000000180002634 f i BillDispenser.obj
 0001:00001634       ?GetDataHere@?$IDataObjectImpl@VCOPOSBillDispenser@@@ATL@@UEAAJPEAUtagFORMATETC@@PEAUtagSTGMEDIUM@@@Z 0000000180002634 f i BillDispenser.obj
 0001:00001634       ?GetDropTarget@?$IOleInPlaceObjectWindowlessImpl@VCOPOSBillDispenser@@@ATL@@UEAAJPEAPEAUIDropTarget@@@Z 0000000180002634 f i BillDispenser.obj
 0001:00001634       ?Unfreeze@?$IViewObjectExImpl@VCOPOSBillDispenser@@@ATL@@UEAAJK@Z 0000000180002634 f i BillDispenser.obj
 0001:00001634       ?SetData@?$IDataObjectImpl@VCOPOSBillDispenser@@@ATL@@UEAAJPEAUtagFORMATETC@@PEAUtagSTGMEDIUM@@H@Z 0000000180002634 f i BillDispenser.obj
 0001:00001634       ?InitFromData@?$IOleObjectImpl@VCOPOSBillDispenser@@@ATL@@UEAAJPEAUIDataObject@@HK@Z 0000000180002634 f i BillDispenser.obj
 0001:00001634       ?EnumFormatEtc@?$IDataObjectImpl@VCOPOSBillDispenser@@@ATL@@UEAAJKPEAPEAUIEnumFORMATETC@@@Z 0000000180002634 f i BillDispenser.obj
 0001:00001634       ?GetCanonicalFormatEtc@?$IDataObjectImpl@VCOPOSBillDispenser@@@ATL@@UEAAJPEAUtagFORMATETC@@0@Z 0000000180002634 f i BillDispenser.obj
 0001:00001634       ?SOErrorDummy@COPOSBillDispenser@@MEAAJJJJPEAJ@Z 0000000180002634 f i BillDispenser.obj
 0001:00001634       ?SODataDummy@COPOSBillDispenser@@MEAAJJ@Z 0000000180002634 f i BillDispenser.obj
 0001:00001634       ?ContextSensitiveHelp@?$IOleInPlaceActiveObjectImpl@VCOPOSBillDispenser@@@ATL@@UEAAJH@Z 0000000180002634 f i BillDispenser.obj
 0001:00001634       ?ReactivateAndUndo@?$IOleInPlaceObjectWindowlessImpl@VCOPOSBillDispenser@@@ATL@@UEAAJXZ 0000000180002634 f i BillDispenser.obj
 0001:00001634       ?GetMoniker@?$IOleObjectImpl@VCOPOSBillDispenser@@@ATL@@UEAAJKKPEAPEAUIMoniker@@@Z 0000000180002634 f i BillDispenser.obj
 0001:00001634       ?GetControlInfo@?$IOleControlImpl@VCOPOSBillDispenser@@@ATL@@UEAAJPEAUtagCONTROLINFO@@@Z 0000000180002634 f i BillDispenser.obj
 0001:00001634       ?ContextSensitiveHelp@?$IOleInPlaceObjectWindowlessImpl@VCOPOSBillDispenser@@@ATL@@UEAAJH@Z 0000000180002634 f i BillDispenser.obj
 0001:00001634       ?SetColorScheme@?$IOleObjectImpl@VCOPOSBillDispenser@@@ATL@@UEAAJPEAUtagLOGPALETTE@@@Z 0000000180002634 f i BillDispenser.obj
 0001:00001634       ?Freeze@?$IViewObjectExImpl@VCOPOSBillDispenser@@@ATL@@UEAAJKJPEAXPEAK@Z 0000000180002634 f i BillDispenser.obj
 0001:0000163c       ?SetClientSite@?$IOleObjectImpl@VCOPOSBillDispenser@@@ATL@@UEAAJPEAUIOleClientSite@@@Z 000000018000263c f i BillDispenser.obj
 0001:00001658       ?GetClientSite@?$IOleObjectImpl@VCOPOSBillDispenser@@@ATL@@UEAAJPEAPEAUIOleClientSite@@@Z 0000000180002658 f i BillDispenser.obj
 0001:000016a0       ?Close@?$IOleObjectImpl@VCOPOSBillDispenser@@@ATL@@UEAAJK@Z 00000001800026a0 f i BillDispenser.obj
 0001:000016bc       ?DoVerb@?$IOleObjectImpl@VCOPOSBillDispenser@@@ATL@@UEAAJJPEAUtagMSG@@PEAUIOleClientSite@@JPEAUHWND__@@PEBUtagRECT@@@Z 00000001800026bc f i BillDispenser.obj
 0001:00001860       ?EnumVerbs@?$IOleObjectImpl@VCOPOSBillDispenser@@@ATL@@UEAAJPEAPEAUIEnumOLEVERB@@@Z 0000000180002860 f i BillDispenser.obj
 0001:0000187c       ?GetUserType@?$IOleObjectImpl@VCOPOSBillDispenser@@@ATL@@UEAAJKPEAPEA_W@Z 000000018000287c f i BillDispenser.obj
 0001:0000188c       ?SetExtent@?$IOleObjectImpl@VCOPOSBillDispenser@@@ATL@@UEAAJKPEAUtagSIZE@@@Z 000000018000288c f i BillDispenser.obj
 0001:000018a8       ?GetExtent@?$IOleObjectImpl@VCOPOSBillDispenser@@@ATL@@UEAAJKPEAUtagSIZE@@@Z 00000001800028a8 f i BillDispenser.obj
 0001:000018d8       ?Advise@?$IOleObjectImpl@VCOPOSBillDispenser@@@ATL@@UEAAJPEAUIAdviseSink@@PEAK@Z 00000001800028d8 f i BillDispenser.obj
 0001:00001934       ?Unadvise@?$IOleObjectImpl@VCOPOSBillDispenser@@@ATL@@UEAAJK@Z 0000000180002934 f i BillDispenser.obj
 0001:0000196c       ?EnumAdvise@?$IOleObjectImpl@VCOPOSBillDispenser@@@ATL@@UEAAJPEAPEAUIEnumSTATDATA@@@Z 000000018000296c f i BillDispenser.obj
 0001:000019b4       ?GetMiscStatus@?$IOleObjectImpl@VCOPOSBillDispenser@@@ATL@@UEAAJKPEAK@Z 00000001800029b4 f i BillDispenser.obj
 0001:000019c4       ?GetWindow@?$IOleInPlaceActiveObjectImpl@VCOPOSBillDispenser@@@ATL@@UEAAJPEAPEAUHWND__@@@Z 00000001800029c4 f i BillDispenser.obj
 0001:00001a18       ?TranslateAcceleratorW@?$IOleInPlaceActiveObjectImpl@VCOPOSBillDispenser@@@ATL@@UEAAJPEAUtagMSG@@@Z 0000000180002a18 f i BillDispenser.obj
 0001:00001b0c       ?OnDocWindowActivate@?$IOleInPlaceActiveObjectImpl@VCOPOSBillDispenser@@@ATL@@UEAAJH@Z 0000000180002b0c f i BillDispenser.obj
 0001:00001b38       ?Draw@?$IViewObjectExImpl@VCOPOSBillDispenser@@@ATL@@UEAAJKJPEAXPEAUtagDVTARGETDEVICE@@PEAUHDC__@@2PEBU_RECTL@@3P6AH_K@Z4@Z 0000000180002b38 f i BillDispenser.obj
 0001:00001b9c       ?SetAdvise@?$IViewObjectExImpl@VCOPOSBillDispenser@@@ATL@@UEAAJKKPEAUIAdviseSink@@@Z 0000000180002b9c f i BillDispenser.obj
 0001:00001bf0       ?GetAdvise@?$IViewObjectExImpl@VCOPOSBillDispenser@@@ATL@@UEAAJPEAK0PEAPEAUIAdviseSink@@@Z 0000000180002bf0 f i BillDispenser.obj
 0001:00001c2c       ?GetExtent@?$IViewObjectExImpl@VCOPOSBillDispenser@@@ATL@@UEAAJKJPEAUtagDVTARGETDEVICE@@PEAUtagSIZE@@@Z 0000000180002c2c f i BillDispenser.obj
 0001:00001c5c       ?GetViewStatus@?$IViewObjectExImpl@VCOPOSBillDispenser@@@ATL@@UEAAJPEAK@Z 0000000180002c5c f i BillDispenser.obj
 0001:00001c70       ?QueryHitPoint@?$IViewObjectExImpl@VCOPOSBillDispenser@@@ATL@@UEAAJKPEBUtagRECT@@UtagPOINT@@JPEAK@Z 0000000180002c70 f i BillDispenser.obj
 0001:00001cb4       ?QueryHitRect@?$IViewObjectExImpl@VCOPOSBillDispenser@@@ATL@@UEAAJKPEBUtagRECT@@0JPEAK@Z 0000000180002cb4 f i BillDispenser.obj
 0001:00001d1c       ?GetNaturalExtent@?$IViewObjectExImpl@VCOPOSBillDispenser@@@ATL@@UEAAJKJPEAUtagDVTARGETDEVICE@@PEAUHDC__@@PEAUtagExtentInfo@@PEAUtagSIZE@@@Z 0000000180002d1c f i BillDispenser.obj
 0001:00001d64       ?GetWindow@?$IOleInPlaceObjectWindowlessImpl@VCOPOSBillDispenser@@@ATL@@UEAAJPEAPEAUHWND__@@@Z 0000000180002d64 f i BillDispenser.obj
 0001:00001db8       ?InPlaceDeactivate@?$IOleInPlaceObjectWindowlessImpl@VCOPOSBillDispenser@@@ATL@@UEAAJXZ 0000000180002db8 f i BillDispenser.obj
 0001:00001dd4       ?UIDeactivate@?$IOleInPlaceObjectWindowlessImpl@VCOPOSBillDispenser@@@ATL@@UEAAJXZ 0000000180002dd4 f i BillDispenser.obj
 0001:00001df0       ?SetObjectRects@?$IOleInPlaceObjectWindowlessImpl@VCOPOSBillDispenser@@@ATL@@UEAAJPEBUtagRECT@@0@Z 0000000180002df0 f i BillDispenser.obj
 0001:00001e0c       ?OnWindowMessage@?$IOleInPlaceObjectWindowlessImpl@VCOPOSBillDispenser@@@ATL@@UEAAJI_K_JPEA_J@Z 0000000180002e0c f i BillDispenser.obj
 0001:00001ed4       ?EnumConnectionPoints@?$IConnectionPointContainerImpl@VCOPOSBillDispenser@@@ATL@@UEAAJPEAPEAUIEnumConnectionPoints@@@Z 0000000180002ed4 f i BillDispenser.obj
 0001:0000211c       ?FindConnectionPoint@?$IConnectionPointContainerImpl@VCOPOSBillDispenser@@@ATL@@UEAAJAEBU_GUID@@PEAPEAUIConnectionPoint@@@Z 000000018000311c f i BillDispenser.obj
 0001:000021ec       ?IsDirty@?$IPersistStorageImpl@VCOPOSBillDispenser@@@ATL@@UEAAJXZ 00000001800031ec f i BillDispenser.obj
 0001:0000222c       ?InitNew@?$IPersistStorageImpl@VCOPOSBillDispenser@@@ATL@@UEAAJPEAUIStorage@@@Z 000000018000322c f i BillDispenser.obj
 0001:0000226c       ?Load@?$IPersistStorageImpl@VCOPOSBillDispenser@@@ATL@@UEAAJPEAUIStorage@@@Z 000000018000326c f i BillDispenser.obj
 0001:0000230c       ?Save@?$IPersistStorageImpl@VCOPOSBillDispenser@@@ATL@@UEAAJPEAUIStorage@@H@Z 000000018000330c f i BillDispenser.obj
 0001:000023bc       ?GetPages@?$ISpecifyPropertyPagesImpl@VCOPOSBillDispenser@@@ATL@@UEAAJPEAUtagCAUUID@@@Z 00000001800033bc f i BillDispenser.obj
 0001:000023c8       ?QuickActivate@?$IQuickActivateImpl@VCOPOSBillDispenser@@@ATL@@UEAAJPEAUtagQACONTAINER@@PEAUtagQACONTROL@@@Z 00000001800033c8 f i BillDispenser.obj
 0001:000023e4       ?SetContentExtent@?$IQuickActivateImpl@VCOPOSBillDispenser@@@ATL@@UEAAJPEAUtagSIZE@@@Z 00000001800033e4 f i BillDispenser.obj
 0001:00002418       ?GetContentExtent@?$IQuickActivateImpl@VCOPOSBillDispenser@@@ATL@@UEAAJPEAUtagSIZE@@@Z 0000000180003418 f i BillDispenser.obj
 0001:00002450       ?GetData@?$IDataObjectImpl@VCOPOSBillDispenser@@@ATL@@UEAAJPEAUtagFORMATETC@@PEAUtagSTGMEDIUM@@@Z 0000000180003450 f i BillDispenser.obj
 0001:0000246c       ?DAdvise@?$IDataObjectImpl@VCOPOSBillDispenser@@@ATL@@UEAAJPEAUtagFORMATETC@@KPEAUIAdviseSink@@PEAK@Z 000000018000346c f i BillDispenser.obj
 0001:000024f4       ?DUnadvise@?$IDataObjectImpl@VCOPOSBillDispenser@@@ATL@@UEAAJK@Z 00000001800034f4 f i BillDispenser.obj
 0001:00002520       ?EnumDAdvise@?$IDataObjectImpl@VCOPOSBillDispenser@@@ATL@@UEAAJPEAPEAUIEnumSTATDATA@@@Z 0000000180003520 f i BillDispenser.obj
 0001:0000255c       ?GetClassInfoW@?$IProvideClassInfo2Impl@$1?CLSID_OPOSBillDispenser@@3U_GUID@@B$1?DIID__IOPOSBillDispenserEvents@@3U2@B$1?LIBID_OposBillDispenser_CCO@@3U2@B$00$0A@VCComTypeInfoHolder@ATL@@@ATL@@UEAAJPEAPEAUITypeInfo@@@Z 000000018000355c f i BillDispenser.obj
 0001:000025b4       ?GetGUID@?$IProvideClassInfo2Impl@$1?CLSID_OPOSBillDispenser@@3U_GUID@@B$1?DIID__IOPOSBillDispenserEvents@@3U2@B$1?LIBID_OposBillDispenser_CCO@@3U2@B$00$0A@VCComTypeInfoHolder@ATL@@@ATL@@UEAAJKPEAU_GUID@@@Z 00000001800035b4 f i BillDispenser.obj
 0001:000025e8       _get_startup_argv_mode     00000001800035e8 f i LIBCMT:argv_mode.obj
 0001:000025e8       ?FAccessAllowed@?$IObjectSafetyImpl@VCOPOSBillDispenser@@$02@ATL@@MEAAHXZ 00000001800035e8 f i BillDispenser.obj
 0001:000025e8       ?AddRef@CRegObject@ATL@@UEAAKXZ 00000001800035e8 f i BillDispenser.obj
 0001:000025f0       ?GetInterfaceSafetyOptions@?$IObjectSafetyImpl@VCOPOSBillDispenser@@$02@ATL@@UEAAJAEBU_GUID@@PEAK1@Z 00000001800035f0 f i BillDispenser.obj
 0001:00002684       ?SetInterfaceSafetyOptions@?$IObjectSafetyImpl@VCOPOSBillDispenser@@$02@ATL@@UEAAJAEBU_GUID@@KK@Z 0000000180003684 f i BillDispenser.obj
 0001:00002728       ?_LocCPQueryInterface@?$IConnectionPointImpl@VCOPOSBillDispenser@@$1?IID_IPropertyNotifySink@@3U_GUID@@BVCComDynamicUnkArray@ATL@@@ATL@@UEAAJAEBU_GUID@@PEAPEAX@Z 0000000180003728 f i BillDispenser.obj
 0001:00002728       ?_LocCPQueryInterface@?$IConnectionPointImpl@VCOPOSBillDispenser@@$1?DIID__IOPOSBillDispenserEvents@@3U_GUID@@BVCComDynamicUnkArray@ATL@@@ATL@@UEAAJAEBU_GUID@@PEAPEAX@Z 0000000180003728 f i BillDispenser.obj
 0001:0000279c       ?GetConnectionInterface@?$IConnectionPointImpl@VCOPOSBillDispenser@@$1?IID_IPropertyNotifySink@@3U_GUID@@BVCComDynamicUnkArray@ATL@@@ATL@@UEAAJPEAU_GUID@@@Z 000000018000379c f i BillDispenser.obj
 0001:000027b8       ?GetConnectionPointContainer@?$IConnectionPointImpl@VCOPOSBillDispenser@@$1?IID_IPropertyNotifySink@@3U_GUID@@BVCComDynamicUnkArray@ATL@@@ATL@@UEAAJPEAPEAUIConnectionPointContainer@@@Z 00000001800037b8 f i BillDispenser.obj
 0001:000027d8       ?Advise@?$IConnectionPointImpl@VCOPOSBillDispenser@@$1?DIID__IOPOSBillDispenserEvents@@3U_GUID@@BVCComDynamicUnkArray@ATL@@@ATL@@UEAAJPEAUIUnknown@@PEAK@Z 00000001800037d8 f i BillDispenser.obj
 0001:000027d8       ?Advise@?$IConnectionPointImpl@VCOPOSBillDispenser@@$1?IID_IPropertyNotifySink@@3U_GUID@@BVCComDynamicUnkArray@ATL@@@ATL@@UEAAJPEAUIUnknown@@PEAK@Z 00000001800037d8 f i BillDispenser.obj
 0001:00002894       ?Unadvise@?$IConnectionPointImpl@VCOPOSBillDispenser@@$1?DIID__IOPOSBillDispenserEvents@@3U_GUID@@BVCComDynamicUnkArray@ATL@@@ATL@@UEAAJK@Z 0000000180003894 f i BillDispenser.obj
 0001:00002894       ?Unadvise@?$IConnectionPointImpl@VCOPOSBillDispenser@@$1?IID_IPropertyNotifySink@@3U_GUID@@BVCComDynamicUnkArray@ATL@@@ATL@@UEAAJK@Z 0000000180003894 f i BillDispenser.obj
 0001:000028fc       ?EnumConnections@?$IConnectionPointImpl@VCOPOSBillDispenser@@$1?DIID__IOPOSBillDispenserEvents@@3U_GUID@@BVCComDynamicUnkArray@ATL@@@ATL@@UEAAJPEAPEAUIEnumConnections@@@Z 00000001800038fc f i BillDispenser.obj
 0001:000028fc       ?EnumConnections@?$IConnectionPointImpl@VCOPOSBillDispenser@@$1?IID_IPropertyNotifySink@@3U_GUID@@BVCComDynamicUnkArray@ATL@@@ATL@@UEAAJPEAPEAUIEnumConnections@@@Z 00000001800038fc f i BillDispenser.obj
 0001:00002a90       ?GetConnectionInterface@?$IConnectionPointImpl@VCOPOSBillDispenser@@$1?DIID__IOPOSBillDispenserEvents@@3U_GUID@@BVCComDynamicUnkArray@ATL@@@ATL@@UEAAJPEAU_GUID@@@Z 0000000180003a90 f i BillDispenser.obj
 0001:00002aac       ?GetConnectionPointContainer@?$IConnectionPointImpl@VCOPOSBillDispenser@@$1?DIID__IOPOSBillDispenserEvents@@3U_GUID@@BVCComDynamicUnkArray@ATL@@@ATL@@UEAAJPEAPEAUIConnectionPointContainer@@@Z 0000000180003aac f i BillDispenser.obj
 0001:00002acc       ?Lock@CAtlModule@ATL@@UEAAJXZ 0000000180003acc f i BillDispenser.obj
 0001:00002adc       ?Unlock@CAtlModule@ATL@@UEAAJXZ 0000000180003adc f i BillDispenser.obj
 0001:00002ae8       ?GetLockCount@CAtlModule@ATL@@UEAAJXZ 0000000180003ae8 f i BillDispenser.obj
 0001:00002aec       ?GetGITPtr@CAtlModule@ATL@@UEAAJPEAPEAUIGlobalInterfaceTable@@@Z 0000000180003aec f i BillDispenser.obj
 0001:00002b5c       ?UpdateRegistry@COPOSBillDispenser@@SAJH@Z 0000000180003b5c f i BillDispenser.obj
 0001:00002b74       ?ProcessWindowMessage@COPOSBillDispenser@@UEAAHPEAUHWND__@@I_K_JAEA_JK@Z 0000000180003b74 f i BillDispenser.obj
 0001:00002c04       ?SODirectIO@COPOSBillDispenser@@MEAAJJPEAJPEAPEA_W@Z 0000000180003c04 f i BillDispenser.obj
 0001:00002c7c       ?SOStatusUpdate@COPOSBillDispenser@@MEAAJJ@Z 0000000180003c7c f i BillDispenser.obj
 0001:00002ccc       ?AddCommonRGSReplacements@?$CAtlModuleT@VCComModule@ATL@@@ATL@@UEAAJPEAUIRegistrarBase@@@Z 0000000180003ccc f i BillDispenser.obj
 0001:00002ce4       ?UpdateRegistryFromResourceD@CComModule@ATL@@UEAAJPEB_WHPEAU_ATL_REGMAP_ENTRY@2@@Z 0000000180003ce4 f i BillDispenser.obj
 0001:00002ce4       ?UpdateRegistryFromResourceD@CComModule@ATL@@UEAAJIHPEAU_ATL_REGMAP_ENTRY@2@@Z 0000000180003ce4 f i BillDispenser.obj
 0001:00002cec       ?UpdateRegistryFromResource@CComModule@ATL@@UEAAJPEB_WHPEAU_ATL_REGMAP_ENTRY@2@@Z 0000000180003cec f i BillDispenser.obj
 0001:00002cf4       ?UpdateRegistryFromResource@CComModule@ATL@@UEAAJIHPEAU_ATL_REGMAP_ENTRY@2@@Z 0000000180003cf4 f i BillDispenser.obj
 0001:00002cfc       ??_ECComModule@ATL@@UEAAPEAXI@Z 0000000180003cfc f i BillDispenser.obj
 0001:00002cfc       ??_GCComModule@ATL@@UEAAPEAXI@Z 0000000180003cfc f i BillDispenser.obj
 0001:00002d3c       ?CreateInstance@?$CComCreator@V?$CComObjectCached@VCComClassFactory@ATL@@@ATL@@@ATL@@SAJPEAXAEBU_GUID@@PEAPEAX@Z 0000000180003d3c f i BillDispenser.obj
 0001:00002e60       ?CreateInstance@?$CComCreator2@V?$CComCreator@V?$CComObject@VCOPOSBillDispenser@@@ATL@@@ATL@@V?$CComCreator@V?$CComAggObject@VCOPOSBillDispenser@@@ATL@@@2@@ATL@@SAJPEAXAEBU_GUID@@PEAPEAX@Z 0000000180003e60 f i BillDispenser.obj
 0001:00002e70       ?AddRef@?$CComObjectCached@VCComClassFactory@ATL@@@ATL@@UEAAKXZ 0000000180003e70 f i BillDispenser.obj
 0001:00002e9c       ?Release@?$CComObjectCached@VCComClassFactory@ATL@@@ATL@@UEAAKXZ 0000000180003e9c f i BillDispenser.obj
 0001:00002edc       ?QueryInterface@?$CComObjectCached@VCComClassFactory@ATL@@@ATL@@UEAAJAEBU_GUID@@PEAPEAX@Z 0000000180003edc f i BillDispenser.obj
 0001:00002ef0       ??_G?$CComObjectCached@VCComClassFactory@ATL@@@ATL@@UEAAPEAXI@Z 0000000180003ef0 f i BillDispenser.obj
 0001:00002ef0       ??_E?$CComObjectCached@VCComClassFactory@ATL@@@ATL@@UEAAPEAXI@Z 0000000180003ef0 f i BillDispenser.obj
 0001:00002f48       ?Next@?$CComEnumImpl@UIEnumConnectionPoints@@$1?_GUID_b196b285_bab4_101a_b69c_00aa00341d07@@3U__s_GUID@@BPEAUIConnectionPoint@@V?$_CopyInterface@UIConnectionPoint@@@ATL@@@ATL@@UEAAJKPEAPEAUIConnectionPoint@@PEAK@Z 0000000180003f48 f i BillDispenser.obj
 0001:0000300c       ?Skip@?$CComEnumImpl@UIEnumConnectionPoints@@$1?_GUID_b196b285_bab4_101a_b69c_00aa00341d07@@3U__s_GUID@@BPEAUIConnectionPoint@@V?$_CopyInterface@UIConnectionPoint@@@ATL@@@ATL@@UEAAJK@Z 000000018000400c f i BillDispenser.obj
 0001:00003038       ?Clone@?$CComEnumImpl@UIEnumConnectionPoints@@$1?_GUID_b196b285_bab4_101a_b69c_00aa00341d07@@3U__s_GUID@@BPEAUIConnectionPoint@@V?$_CopyInterface@UIConnectionPoint@@@ATL@@@ATL@@UEAAJPEAPEAUIEnumConnectionPoints@@@Z 0000000180004038 f i BillDispenser.obj
 0001:00003164       ?QueryInterface@?$CComObject@V?$CComEnum@UIEnumConnectionPoints@@$1?_GUID_b196b285_bab4_101a_b69c_00aa00341d07@@3U__s_GUID@@BPEAUIConnectionPoint@@V?$_CopyInterface@UIConnectionPoint@@@ATL@@VCComSingleThreadModel@6@@ATL@@@ATL@@UEAAJAEBU_GUID@@PEAPEAX@Z 0000000180004164 f i BillDispenser.obj
 0001:00003178       ??_G?$CComObject@V?$CComEnum@UIEnumConnectionPoints@@$1?_GUID_b196b285_bab4_101a_b69c_00aa00341d07@@3U__s_GUID@@BPEAUIConnectionPoint@@V?$_CopyInterface@UIConnectionPoint@@@ATL@@VCComSingleThreadModel@6@@ATL@@@ATL@@UEAAPEAXI@Z 0000000180004178 f i BillDispenser.obj
 0001:00003178       ??_E?$CComObject@V?$CComEnum@UIEnumConnectionPoints@@$1?_GUID_b196b285_bab4_101a_b69c_00aa00341d07@@3U__s_GUID@@BPEAUIConnectionPoint@@V?$_CopyInterface@UIConnectionPoint@@@ATL@@VCComSingleThreadModel@6@@ATL@@@ATL@@UEAAPEAXI@Z 0000000180004178 f i BillDispenser.obj
 0001:000031d0       ?AddReplacement@CRegObject@ATL@@UEAAJPEB_W0@Z 00000001800041d0 f i BillDispenser.obj
 0001:00003200       ?ClearReplacements@CRegObject@ATL@@UEAAJXZ 0000000180004200 f i BillDispenser.obj
 0001:0000320c       ??_GCRegObject@ATL@@UEAAPEAXI@Z 000000018000420c f i BillDispenser.obj
 0001:0000320c       ??_ECRegObject@ATL@@UEAAPEAXI@Z 000000018000420c f i BillDispenser.obj
 0001:0000328c       ?AddRef@?$CComAggObject@VCOPOSBillDispenser@@@ATL@@UEAAKXZ 000000018000428c f i BillDispenser.obj
 0001:00003298       ?Release@?$CComAggObject@VCOPOSBillDispenser@@@ATL@@UEAAKXZ 0000000180004298 f i BillDispenser.obj
 0001:000032ec       ?QueryInterface@?$CComAggObject@VCOPOSBillDispenser@@@ATL@@UEAAJAEBU_GUID@@PEAPEAX@Z 00000001800042ec f i BillDispenser.obj
 0001:0000334c       ?AddRef@?$CComContainedObject@VCOPOSBillDispenser@@@ATL@@UEAAKXZ 000000018000434c f i BillDispenser.obj
 0001:0000335c       ?Release@?$CComContainedObject@VCOPOSBillDispenser@@@ATL@@UEAAKXZ 000000018000435c f i BillDispenser.obj
 0001:0000336c       ?QueryInterface@?$CComContainedObject@VCOPOSBillDispenser@@@ATL@@UEAAJAEBU_GUID@@PEAPEAX@Z 000000018000436c f i BillDispenser.obj
 0001:0000337c       ??_G?$CComAggObject@VCOPOSBillDispenser@@@ATL@@UEAAPEAXI@Z 000000018000437c f i BillDispenser.obj
 0001:0000337c       ??_E?$CComAggObject@VCOPOSBillDispenser@@@ATL@@UEAAPEAXI@Z 000000018000437c f i BillDispenser.obj
 0001:000033d4       ?AddRef@?$CComObject@VCOPOSBillDispenser@@@ATL@@UEAAKXZ 00000001800043d4 f i BillDispenser.obj
 0001:000033e4       ?Release@?$CComObject@VCOPOSBillDispenser@@@ATL@@UEAAKXZ 00000001800043e4 f i BillDispenser.obj
 0001:0000343c       ?QueryInterface@?$CComObject@VCOPOSBillDispenser@@@ATL@@UEAAJAEBU_GUID@@PEAPEAX@Z 000000018000443c f i BillDispenser.obj
 0001:00003450       ?OnDrawAdvanced@CComControlBase@ATL@@UEAAJAEAUATL_DRAWINFO@@@Z 0000000180004450 f i BillDispenser.obj
 0001:000035dc       ??$AtlModuleRegisterWndClassInfoT@VAtlModuleRegisterWndClassInfoParamW@ATL@@@ATL@@YAGPEAU_ATL_BASE_MODULE70@0@PEAU_ATL_WIN_MODULE70@0@PEAU_ATL_WNDCLASSINFOW@0@PEAP6A_JPEAUHWND__@@I_K_J@ZVAtlModuleRegisterWndClassInfoParamW@0@@Z 00000001800045dc f i BillDispenser.obj
 0001:000037dc       ??0?$CComContainedObject@VCOPOSBillDispenser@@@ATL@@QEAA@PEAX@Z 00000001800047dc f i BillDispenser.obj
 0001:000038f8       ??0?$CComObject@VCOPOSBillDispenser@@@ATL@@QEAA@PEAX@Z 00000001800048f8 f i BillDispenser.obj
 0001:00003a10       ??0CAtlModule@ATL@@QEAA@XZ 0000000180004a10 f i BillDispenser.obj
 0001:00003a84       ??1?$CComEnumImpl@UIEnumConnectionPoints@@$1?_GUID_b196b285_bab4_101a_b69c_00aa00341d07@@3U__s_GUID@@BPEAUIConnectionPoint@@V?$_CopyInterface@UIConnectionPoint@@@ATL@@@ATL@@UEAA@XZ 0000000180004a84 f i BillDispenser.obj
 0001:00003adc       ??1?$CComEnumImpl@UIEnumConnections@@$1?_GUID_b196b287_bab4_101a_b69c_00aa00341d07@@3U__s_GUID@@BUtagCONNECTDATA@@V?$_Copy@UtagCONNECTDATA@@@ATL@@@ATL@@UEAA@XZ 0000000180004adc f i BillDispenser.obj
 0001:00003b34       ??1?$CComObject@VCOPOSBillDispenser@@@ATL@@UEAA@XZ 0000000180004b34 f i BillDispenser.obj
 0001:00003c54       ??_G?$CComContainedObject@VCOPOSBillDispenser@@@ATL@@UEAAPEAXI@Z 0000000180004c54 f i BillDispenser.obj
 0001:00003c54       ??_E?$CComContainedObject@VCOPOSBillDispenser@@@ATL@@UEAAPEAXI@Z 0000000180004c54 f i BillDispenser.obj
 0001:00003c88       ??_G?$CComObject@VCOPOSBillDispenser@@@ATL@@UEAAPEAXI@Z 0000000180004c88 f i BillDispenser.obj
 0001:00003c88       ??_E?$CComObject@VCOPOSBillDispenser@@@ATL@@UEAAPEAXI@Z 0000000180004c88 f i BillDispenser.obj
 0001:00003cbc       ?Add@?$CSimpleArray@GV?$CSimpleArrayEqualHelper@G@ATL@@@ATL@@QEAAHAEBG@Z 0000000180004cbc f i BillDispenser.obj
 0001:00003d5c       ?Add@?$CSimpleMap@PEA_WPEA_WVCExpansionVectorEqualHelper@ATL@@@ATL@@QEAAHAEBQEA_W0@Z 0000000180004d5c f i BillDispenser.obj
 0001:00003df8       ?Add@CComDynamicUnkArray@ATL@@QEAAKPEAUIUnknown@@@Z 0000000180004df8 f i BillDispenser.obj
 0001:00003edc       ?Add@CExpansionVector@ATL@@QEAAHPEB_W0@Z 0000000180004edc f i BillDispenser.obj
 0001:00004010       ?AddTermFunc@CAtlModule@ATL@@QEAAJP6AX_K@Z0@Z 0000000180005010 f i BillDispenser.obj
 0001:000040ac       ?AddValue@CRegParser@ATL@@IEAAJAEAVCRegKey@2@PEB_WPEA_W@Z 00000001800050ac f i BillDispenser.obj
 0001:000044bc       ?AllocateHeap@?$CTempBuffer@_W$0EAA@VCCRTAllocator@ATL@@@ATL@@AEAAX_K@Z 00000001800054bc f i BillDispenser.obj
 0001:000044bc       ?AllocateHeap@?$CTempBuffer@E$0BAA@VCCRTAllocator@ATL@@@ATL@@AEAAX_K@Z 00000001800054bc f i BillDispenser.obj
 0001:000044bc       ?AllocateHeap@?$CTempBuffer@_W$0BAA@VCCRTAllocator@ATL@@@ATL@@AEAAX_K@Z 00000001800054bc f i BillDispenser.obj
 0001:000044e8       ?Append@CParseBuffer@CRegParser@ATL@@QEAAHPEB_WH@Z 00000001800054e8 f i BillDispenser.obj
 0001:0000461c       ?AtlComModuleGetClassObject@ATL@@YAJPEAU_ATL_COM_MODULE70@1@AEBU_GUID@@1PEAPEAX@Z 000000018000561c f i BillDispenser.obj
 0001:00004758       ?AtlComModuleRegisterServer@ATL@@YAJPEAU_ATL_COM_MODULE70@1@HPEBU_GUID@@@Z 0000000180005758 f i BillDispenser.obj
 0001:00004818       ?AtlComModuleUnregisterServer@ATL@@YAJPEAU_ATL_COM_MODULE70@1@HPEBU_GUID@@@Z 0000000180005818 f i BillDispenser.obj
 0001:000048d4       ?AtlHiMetricToPixel@ATL@@YAXPEBUtagSIZE@@PEAU2@@Z 00000001800058d4 f i BillDispenser.obj
 0001:00004984       ?AtlHresultFromLastError@ATL@@YAJXZ 0000000180005984 f i BillDispenser.obj
 0001:000049a4       ?AtlHresultFromWin32@ATL@@YAJK@Z 00000001800059a4 f i BillDispenser.obj
 0001:000049b4       ?AtlInternalOleLoadFromStream@ATL@@YAJPEAUIStream@@AEBU_GUID@@PEAPEAXTClassesAllowedInStream@1@K@Z 00000001800059b4 f i BillDispenser.obj
 0001:00004b04       ?AtlInternalQueryInterface@ATL@@YAJPEAXPEBU_ATL_INTMAP_ENTRY@1@AEBU_GUID@@PEAPEAX@Z 0000000180005b04 f i BillDispenser.obj
 0001:00004c0c       ?AtlLoadTypeLib@ATL@@YAJPEAUHINSTANCE__@@PEB_WPEAPEA_WPEAPEAUITypeLib@@@Z 0000000180005c0c f i BillDispenser.obj
 0001:00004e68       ?AtlRegisterClassCategoriesHelper@ATL@@YAJAEBU_GUID@@PEBU_ATL_CATMAP_ENTRY@1@H@Z 0000000180005e68 f i BillDispenser.obj
 0001:000052ec       ?AtlRegisterTypeLib@ATL@@YAJPEAUHINSTANCE__@@PEB_W@Z 00000001800062ec f i BillDispenser.obj
 0001:000054e8       ?AtlThrowImpl@ATL@@YAXJ@Z  00000001800064e8 f i BillDispenser.obj
 0001:0000550c       ?AtlUnRegisterTypeLib@ATL@@YAJPEAUHINSTANCE__@@PEB_W@Z 000000018000650c f i BillDispenser.obj
 0001:000055d4       ?AtlWinModuleExtractCreateWndData@ATL@@YAPEAXPEAU_ATL_WIN_MODULE70@1@@Z 00000001800065d4 f i BillDispenser.obj
 0001:00005660       ?ChToByte@CRegParser@ATL@@KAE_W@Z 0000000180006660 f i BillDispenser.obj
 0001:000056ec       ?Cleanup@CComTypeInfoHolder@ATL@@SAX_K@Z 00000001800066ec f i BillDispenser.obj
 0001:0000572c       ?ClearReplacements@CExpansionVector@ATL@@QEAAJXZ 000000018000672c f i BillDispenser.obj
 0001:000057c8       ?CreateInstance@?$CComCreator@V?$CComAggObject@VCOPOSBillDispenser@@@ATL@@@ATL@@SAJPEAXAEBU_GUID@@PEAPEAX@Z 00000001800067c8 f i BillDispenser.obj
 0001:000058ac       ?CreateInstance@?$CComCreator@V?$CComObject@VCOPOSBillDispenser@@@ATL@@@ATL@@SAJPEAXAEBU_GUID@@PEAPEAX@Z 00000001800068ac f i BillDispenser.obj
 0001:0000596c       ?CreateInstance@?$CComObject@V?$CComEnum@UIEnumConnectionPoints@@$1?_GUID_b196b285_bab4_101a_b69c_00aa00341d07@@3U__s_GUID@@BPEAUIConnectionPoint@@V?$_CopyInterface@UIConnectionPoint@@@ATL@@VCComSingleThreadModel@6@@ATL@@@ATL@@SAJPEAPEAV12@@Z 000000018000696c f i BillDispenser.obj
 0001:000059fc       ?CreateInstance@?$CComObject@V?$CComEnum@UIEnumConnections@@$1?_GUID_b196b287_bab4_101a_b69c_00aa00341d07@@3U__s_GUID@@BUtagCONNECTDATA@@V?$_Copy@UtagCONNECTDATA@@@ATL@@VCComSingleThreadModel@6@@ATL@@@ATL@@SAJPEAPEAV12@@Z 00000001800069fc f i BillDispenser.obj
 0001:00005a8c       ?DefaultReflectionHandler@?$CWindowImplRoot@VCWindow@ATL@@@ATL@@SAHPEAUHWND__@@I_K_JAEA_J@Z 0000000180006a8c f i BillDispenser.obj
 0001:00005b20       ?DeleteSubKey@CRegKey@ATL@@QEAAJPEB_W@Z 0000000180006b20 f i BillDispenser.obj
 0001:00005bb8       ?DoEvent@COPOSBillDispenser@@IEAAXI_K_J@Z 0000000180006bb8 f i BillDispenser.obj
 0001:00005c6c       ?DoVerbPrimary@?$IOleObjectImpl@VCOPOSBillDispenser@@@ATL@@QEAAJPEBUtagRECT@@PEAUHWND__@@@Z 0000000180006c6c f i BillDispenser.obj
 0001:00005d98       ?DoVerbProperties@CComControlBase@ATL@@QEAAJPEBUtagRECT@@PEAUHWND__@@@Z 0000000180006d98 f i BillDispenser.obj
 0001:00005fc0       ?FireTheEvent@?$CProxy_IOPOSEvents@VCOPOSBillDispenser@@@@IEAAXPEAVOposVariant@@IAEAJPEB_WJ@Z 0000000180006fc0 f i BillDispenser.obj
 0001:000060ac       ?FireViewChange@CComControlBase@ATL@@QEAAJXZ 00000001800070ac f i BillDispenser.obj
 0001:00006110       ?Fire_DirectIOEvent@?$CProxy_IOPOSEvents@VCOPOSBillDispenser@@@@QEAAXJPEAJPEAPEA_W@Z 0000000180007110 f i BillDispenser.obj
 0001:00006270       ?Fire_StatusUpdateEvent@?$CProxy_IOPOSEvents@VCOPOSBillDispenser@@@@QEAAXJ@Z 0000000180007270 f i BillDispenser.obj
 0001:0000635c       ?FreeHeap@?$CTempBuffer@_W$0EAA@VCCRTAllocator@ATL@@@ATL@@AEAAXXZ 000000018000735c f i BillDispenser.obj
 0001:0000635c       ?FreeHeap@?$CTempBuffer@E$0BAA@VCCRTAllocator@ATL@@@ATL@@AEAAXXZ 000000018000735c f i BillDispenser.obj
 0001:0000635c       ?FreeHeap@?$CTempBuffer@_W$0BAA@VCCRTAllocator@ATL@@@ATL@@AEAAXXZ 000000018000735c f i BillDispenser.obj
 0001:00006364       ?GetAmbientLocaleID@CComControlBase@ATL@@QEAAJAEAK@Z 0000000180007364 f i BillDispenser.obj
 0001:00006424       ?GetAmbientUserMode@CComControlBase@ATL@@QEAAJAEAH@Z 0000000180007424 f i BillDispenser.obj
 0001:000064f4       ?GetClassObject@CComModule@ATL@@QEAAJAEBU_GUID@@0PEAPEAX@Z 00000001800074f4 f i BillDispenser.obj
 0001:000065e8       ?GetConnMap@COPOSBillDispenser@@SAPEBU_ATL_CONNMAP_ENTRY@ATL@@PEAH@Z 00000001800075e8 f i BillDispenser.obj
 0001:00006670       ?GetIDsOfNames@CComTypeInfoHolder@ATL@@QEAAJAEBU_GUID@@PEAPEA_WIKPEAJ@Z 0000000180007670 f i BillDispenser.obj
 0001:000067e0       ?GetPagesHelper@?$ISpecifyPropertyPagesImpl@VCOPOSBillDispenser@@@ATL@@IEAAJPEAUtagCAUUID@@PEBUATL_PROPMAP_ENTRY@2@@Z 00000001800077e0 f i BillDispenser.obj
 0001:00006980       ?GetSizeMax@CComVariant@ATL@@QEBAJPEAT_ULARGE_INTEGER@@@Z 0000000180007980 f i BillDispenser.obj
 0001:00006bb0       ?GetTI@CComTypeInfoHolder@ATL@@QEAAJK@Z 0000000180007bb0 f i BillDispenser.obj
 0001:00006e94       ?GetZoomInfo@CComControlBase@ATL@@QEAAXAEAUATL_DRAWINFO@@@Z 0000000180007e94 f i BillDispenser.obj
 0001:00006f38       ?HKeyFromString@CRegParser@ATL@@KAPEAUHKEY__@@PEA_W@Z 0000000180007f38 f i BillDispenser.obj
 0001:00006f9c       ?IDataObject_GetData@CComControlBase@ATL@@QEAAJPEAUtagFORMATETC@@PEAUtagSTGMEDIUM@@@Z 0000000180007f9c f i BillDispenser.obj
 0001:00007190       ?IOleInPlaceObject_InPlaceDeactivate@CComControlBase@ATL@@QEAAJXZ 0000000180008190 f i BillDispenser.obj
 0001:00007230       ?IOleInPlaceObject_SetObjectRects@CComControlBase@ATL@@QEAAJPEBUtagRECT@@0@Z 0000000180008230 f i BillDispenser.obj
 0001:00007320       ?IOleInPlaceObject_UIDeactivate@CComControlBase@ATL@@QEAAJXZ 0000000180008320 f i BillDispenser.obj
 0001:0000742c       ?IOleObject_Close@CComControlBase@ATL@@QEAAJK@Z 000000018000842c f i BillDispenser.obj
 0001:00007544       ?IOleObject_SetClientSite@CComControlBase@ATL@@QEAAJPEAUIOleClientSite@@@Z 0000000180008544 f i BillDispenser.obj
 0001:000075b8       ?IOleObject_SetExtent@CComControlBase@ATL@@QEAAJKPEAUtagSIZE@@@Z 00000001800085b8 f i BillDispenser.obj
 0001:00007650       ?IPSI_GetIPersistStreamInit@?$IPersistStorageImpl@VCOPOSBillDispenser@@@ATL@@AEAAPEAUIPersistStreamInit@@XZ 0000000180008650 f i BillDispenser.obj
 0001:00007738       ?IPersistStreamInit_Load@?$IPersistStreamInitImpl@VCOPOSBillDispenser@@@ATL@@QEAAJPEAUIStream@@PEBUATL_PROPMAP_ENTRY@2@@Z 0000000180008738 f i BillDispenser.obj
 0001:00007a60       ?IPersistStreamInit_Save@?$IPersistStreamInitImpl@VCOPOSBillDispenser@@@ATL@@QEAAJPEAUIStream@@HPEBUATL_PROPMAP_ENTRY@2@@Z 0000000180008a60 f i BillDispenser.obj
 0001:00007cfc       ?IQuickActivate_QuickActivate@CComControlBase@ATL@@QEAAJPEAUtagQACONTAINER@@PEAUtagQACONTROL@@@Z 0000000180008cfc f i BillDispenser.obj
 0001:00007fc0       ?IViewObject_Draw@CComControlBase@ATL@@QEAAJKJPEAXPEAUtagDVTARGETDEVICE@@PEAUHDC__@@2PEBU_RECTL@@3@Z 0000000180008fc0 f i BillDispenser.obj
 0001:000080d4       ?InPlaceActivate@CComControlBase@ATL@@QEAAJJPEBUtagRECT@@@Z 00000001800090d4 f i BillDispenser.obj
 0001:00008404       ?Init@?$CComEnumImpl@UIEnumConnectionPoints@@$1?_GUID_b196b285_bab4_101a_b69c_00aa00341d07@@3U__s_GUID@@BPEAUIConnectionPoint@@V?$_CopyInterface@UIConnectionPoint@@@ATL@@@ATL@@QEAAJPEAPEAUIConnectionPoint@@0PEAUIUnknown@@W4CComEnumFlags@2@@Z 0000000180009404 f i BillDispenser.obj
 0001:00008520       ?Init@?$CComEnumImpl@UIEnumConnections@@$1?_GUID_b196b287_bab4_101a_b69c_00aa00341d07@@3U__s_GUID@@BUtagCONNECTDATA@@V?$_Copy@UtagCONNECTDATA@@@ATL@@@ATL@@QEAAJPEAUtagCONNECTDATA@@0PEAUIUnknown@@W4CComEnumFlags@2@@Z 0000000180009520 f i BillDispenser.obj
 0001:00008640       ?IsEqualObject@?$CComPtrBase@UIOleClientSite@@@ATL@@QEAA_NPEAUIUnknown@@@Z 0000000180009640 f i BillDispenser.obj
 0001:000086cc       ?LoadNameCache@CComTypeInfoHolder@ATL@@QEAAJPEAUITypeInfo@@@Z 00000001800096cc f i BillDispenser.obj
 0001:0000885c       ?Lookup@?$CSimpleMap@PEA_WPEA_WVCExpansionVectorEqualHelper@ATL@@@ATL@@QEBAPEA_WAEBQEA_W@Z 000000018000985c f i BillDispenser.obj
 0001:000088e4       ?NextToken@CRegParser@ATL@@IEAAJPEA_W@Z 00000001800098e4 f i BillDispenser.obj
 0001:00008a80       ?OnKillFocus@CComControlBase@ATL@@QEAA_JI_K_JAEAH@Z 0000000180009a80 f i BillDispenser.obj
 0001:00008b1c       ?OnMouseActivate@CComControlBase@ATL@@QEAA_JI_K_JAEAH@Z 0000000180009b1c f i BillDispenser.obj
 0001:00008bbc       ?OnPaint@CComControlBase@ATL@@QEAA_JI_K_JAEAH@Z 0000000180009bbc f i BillDispenser.obj
 0001:00008ca8       ?OnSetFocus@CComControlBase@ATL@@QEAA_JI_K_JAEAH@Z 0000000180009ca8 f i BillDispenser.obj
 0001:00008db0       ?PreProcessBuffer@CRegParser@ATL@@QEAAJPEA_WPEAPEA_W@Z 0000000180009db0 f i BillDispenser.obj
 0001:00009138       ?ProcessWindowMessage@?$CComControl@VCOPOSBillDispenser@@V?$CWindowImpl@VCOPOSBillDispenser@@VCWindow@ATL@@V?$CWinTraits@$0FGAAAAAA@$0A@@3@@ATL@@@ATL@@UEAAHPEAUHWND__@@I_K_JAEA_JK@Z 000000018000a138 f i BillDispenser.obj
 0001:00009224       ?ReadFromStream@CComBSTR@ATL@@QEAAJPEAUIStream@@@Z 000000018000a224 f i BillDispenser.obj
 0001:00009374       ?ReadFromStream@CComVariant@ATL@@QEAAJPEAUIStream@@GTClassesAllowedInStream@2@K@Z 000000018000a374 f i BillDispenser.obj
 0001:000095b8       ?RecurseDeleteKey@CRegKey@ATL@@QEAAJPEB_W@Z 000000018000a5b8 f i BillDispenser.obj
 0001:00009710       ?RegCreateKeyExW@CAtlTransactionManager@ATL@@QEAAJPEAUHKEY__@@PEB_WKPEA_WKKQEAU_SECURITY_ATTRIBUTES@@PEAPEAU3@PEAK@Z 000000018000a710 f i BillDispenser.obj
 0001:00009844       ?RegDeleteKeyW@CAtlTransactionManager@ATL@@QEAAJPEAUHKEY__@@PEB_W@Z 000000018000a844 f i BillDispenser.obj
 0001:000098d0       ?RegOpenKeyExW@CAtlTransactionManager@ATL@@QEAAJPEAUHKEY__@@PEB_WKKPEAPEAU3@@Z 000000018000a8d0 f i BillDispenser.obj
 0001:00009988       ?RegisterBuffer@CRegParser@ATL@@QEAAJPEA_WH@Z 000000018000a988 f i BillDispenser.obj
 0001:00009af4       ?RegisterFromResource@CRegObject@ATL@@IEAAJPEB_W00H@Z 000000018000aaf4 f i BillDispenser.obj
 0001:00009cb0       ?RegisterServer@CComModule@ATL@@QEAAJHPEBU_GUID@@@Z 000000018000acb0 f i BillDispenser.obj
 0001:00009d6c       ?RegisterSubkeys@CRegParser@ATL@@IEAAJPEA_WPEAUHKEY__@@HH@Z 000000018000ad6c f i BillDispenser.obj
 0001:0000a5ec       ?SendOnDataChange@CComControlBase@ATL@@QEAAJK@Z 000000018000b5ec f i BillDispenser.obj
 0001:0000a65c       ?SetControlFocus@CComControlBase@ATL@@QEAAHH@Z 000000018000b65c f i BillDispenser.obj
 0001:0000a72c       ?SkipAssignment@CRegParser@ATL@@IEAAJPEA_W@Z 000000018000b72c f i BillDispenser.obj
 0001:0000a7e4       ?Term@CAtlModule@ATL@@QEAAXXZ 000000018000b7e4 f i BillDispenser.obj
 0001:0000a89c       ?Term@CComModule@ATL@@QEAAXXZ 000000018000b89c f i BillDispenser.obj
 0001:0000a918       ?UnregisterServer@CComModule@ATL@@QEAAJHPEBU_GUID@@@Z 000000018000b918 f i BillDispenser.obj
 0001:0000a9c8       ?UpdateRegistryFromResource@CAtlModule@ATL@@QEAAJIHPEAU_ATL_REGMAP_ENTRY@2@@Z 000000018000b9c8 f i BillDispenser.obj
 0001:0000acd4       ?UpdateRegistryFromResource@CAtlModule@ATL@@QEAAJPEB_WHPEAU_ATL_REGMAP_ENTRY@2@@Z 000000018000bcd4 f i BillDispenser.obj
 0001:0000aff8       ?VTFromRegType@CRegParser@ATL@@KAHPEB_WAEAG@Z 000000018000bff8 f i BillDispenser.obj
 0001:0000b094       ?WindowProc@?$CWindowImplBaseT@VCWindow@ATL@@V?$CWinTraits@$0FGAAAAAA@$0A@@2@@ATL@@SA_JPEAUHWND__@@I_K_J@Z 000000018000c094 f i BillDispenser.obj
 0001:0000b200       ?WriteToStream@CComVariant@ATL@@QEAAJPEAUIStream@@@Z 000000018000c200 f i BillDispenser.obj
 0001:0000b46c       ?WriteToStream@CComVariant@ATL@@QEAAJPEAUIStream@@G@Z 000000018000c46c f i BillDispenser.obj
 0001:0000b504       ?_AtlVerifyStackAvailable@_ATL_SAFE_ALLOCA_IMPL@ATL@@YA_N_K@Z 000000018000c504 f i BillDispenser.obj
 0001:0000b588       ?atlCreate@?$CWindowImpl@VCOPOSBillDispenser@@VCWindow@ATL@@V?$CWinTraits@$0FGAAAAAA@$0A@@3@@ATL@@QEAAPEAUHWND__@@PEAU3@V_U_RECT@2@PEB_WKKV_U_MENUorID@2@PEAX@Z 000000018000c588 f i BillDispenser.obj
 0001:0000b644       ?atlCreate@?$CWindowImplBaseT@VCWindow@ATL@@V?$CWinTraits@$0FGAAAAAA@$0A@@2@@ATL@@QEAAPEAUHWND__@@PEAU3@V_U_RECT@2@PEB_WKKV_U_MENUorID@2@GPEAX@Z 000000018000c644 f i BillDispenser.obj
 0001:0000b7b4       ?ocscpy_s@@YA_NPEA_W_KPEB_W@Z 000000018000c7b4 f i BillDispenser.obj
 0001:0000b864       DllCanUnloadNow            000000018000c864 f   BillDispenser.obj
 0001:0000b870       DllGetClassObject          000000018000c870 f   BillDispenser.obj
 0001:0000b888       DllMain                    000000018000c888 f   BillDispenser.obj
 0001:0000b930       DllRegisterServer          000000018000c930 f   BillDispenser.obj
 0001:0000b944       DllUnregisterServer        000000018000c944 f   BillDispenser.obj
 0001:0000b958       __local_stdio_printf_options 000000018000c958 f i BillDispenser.obj
 0001:0000b960       swprintf_s                 000000018000c960 f i BillDispenser.obj
 0001:0000b9b4       ??0COPOSBillDispenser@@QEAA@XZ 000000018000c9b4 f   BillDispenserImpl.obj
 0001:0000ba70       ??1?$IConnectionPointImpl@VCOPOSBillDispenser@@$1?IID_IPropertyNotifySink@@3U_GUID@@BVCComDynamicUnkArray@ATL@@@ATL@@QEAA@XZ 000000018000ca70 f i BillDispenserImpl.obj
 0001:0000ba70       ??1?$IConnectionPointImpl@VCOPOSBillDispenser@@$1?DIID__IOPOSBillDispenserEvents@@3U_GUID@@BVCComDynamicUnkArray@ATL@@@ATL@@QEAA@XZ 000000018000ca70 f i BillDispenserImpl.obj
 0001:0000bacc       ??1CComControlBase@ATL@@UEAA@XZ 000000018000cacc f i BillDispenserImpl.obj
 0001:0000bb48       ??1COPOSBillDispenser@@UEAA@XZ 000000018000cb48 f   BillDispenserImpl.obj
 0001:0000bbac       ?AdjustCashCounts@COPOSBillDispenser@@UEAAJPEA_WPEAJ@Z 000000018000cbac f   BillDispenserImpl.obj
 0001:0000bc34       ?CheckHealth@COPOSBillDispenser@@UEAAJJPEAJ@Z 000000018000cc34 f   BillDispenserImpl.obj
 0001:0000bcb0       ?ClaimDevice@COPOSBillDispenser@@UEAAJJPEAJ@Z 000000018000ccb0 f   BillDispenserImpl.obj
 0001:0000bd50       ?Close@COPOSBillDispenser@@UEAAJPEAJ@Z 000000018000cd50 f   BillDispenserImpl.obj
 0001:0000be08       ?CompareFirmwareVersion@COPOSBillDispenser@@UEAAJPEA_WPEAJ1@Z 000000018000ce08 f   BillDispenserImpl.obj
 0001:0000bee4       ?DirectIO@COPOSBillDispenser@@UEAAJJPEAJPEAPEA_W0@Z 000000018000cee4 f   BillDispenserImpl.obj
 0001:0000bfe0       ?DispenseCash@COPOSBillDispenser@@UEAAJPEA_WPEAJ@Z 000000018000cfe0 f   BillDispenserImpl.obj
 0001:0000c068       ?DoInvoke@COPOSBillDispenser@@IEAAJJPEAVOposVariant@@IHPEAJ_N@Z 000000018000d068 f   BillDispenserImpl.obj
 0001:0000c19c       ?EventInit@COPOSBillDispenser@@IEAAJXZ 000000018000d19c f i BillDispenserImpl.obj
 0001:0000c2ec       ?EventUninit@COPOSBillDispenser@@IEAAXXZ 000000018000d2ec f i BillDispenserImpl.obj
 0001:0000c350       ?EventWindowProc@COPOSBillDispenser@@IEAA_JI_K_J@Z 000000018000d350 f i BillDispenserImpl.obj
 0001:0000c414       ?FinalConstruct@COPOSBillDispenser@@QEAAJXZ 000000018000d414 f   BillDispenserImpl.obj
 0001:0000c450       ?FreezeEvents@COPOSBillDispenser@@MEAAJH@Z 000000018000d450 f   BillDispenserImpl.obj
 0001:0000c4bc       ?GetOposProp@COPOSBillDispenser@@IEAAJJPEAJJ@Z 000000018000d4bc f   BillDispenserImpl.obj
 0001:0000c5d8       ?GetOposProp@COPOSBillDispenser@@IEAAJJPEAPEA_WJ@Z 000000018000d5d8 f   BillDispenserImpl.obj
 0001:0000c704       ?OnDraw@COPOSBillDispenser@@MEAAJAEAUATL_DRAWINFO@@@Z 000000018000d704 f   BillDispenserImpl.obj
 0001:0000c7f0       ?Open@COPOSBillDispenser@@UEAAJPEA_WPEAJ@Z 000000018000d7f0 f   BillDispenserImpl.obj
 0001:0000d060       ?ReadCashCounts@COPOSBillDispenser@@UEAAJPEAPEA_WPEAFPEAJ@Z 000000018000e060 f   BillDispenserImpl.obj
 0001:0000d13c       ?ReleaseDevice@COPOSBillDispenser@@UEAAJPEAJ@Z 000000018000e13c f   BillDispenserImpl.obj
 0001:0000d1a8       ?ResetStatistics@COPOSBillDispenser@@UEAAJPEA_WPEAJ@Z 000000018000e1a8 f   BillDispenserImpl.obj
 0001:0000d230       ?RetrieveStatistics@COPOSBillDispenser@@UEAAJPEAPEA_WPEAJ@Z 000000018000e230 f   BillDispenserImpl.obj
 0001:0000d2b8       ?SOProcessID@COPOSBillDispenser@@UEAAJPEAJ@Z 000000018000e2b8 f   BillDispenserImpl.obj
 0001:0000d2d4       ?SetCOFreezeEvents@COPOSBillDispenser@@IEAAXF@Z 000000018000e2d4 f   BillDispenserImpl.obj
 0001:0000d3b8       ?SetOposProp@COPOSBillDispenser@@IEAAJJJJ@Z 000000018000e3b8 f   BillDispenserImpl.obj
 0001:0000d518       ?SetOposProp@COPOSBillDispenser@@IEAAJJPEA_WJ@Z 000000018000e518 f   BillDispenserImpl.obj
 0001:0000d670       ?UpdateFirmware@COPOSBillDispenser@@UEAAJPEA_WPEAJ@Z 000000018000e670 f   BillDispenserImpl.obj
 0001:0000d6f8       ?UpdateStatistics@COPOSBillDispenser@@UEAAJPEA_WPEAJ@Z 000000018000e6f8 f   BillDispenserImpl.obj
 0001:0000d780       ?get_AsyncMode@COPOSBillDispenser@@UEAAJPEAF@Z 000000018000e780 f   BillDispenserImpl.obj
 0001:0000d7b4       ?get_AsyncResultCode@COPOSBillDispenser@@UEAAJPEAJ@Z 000000018000e7b4 f   BillDispenserImpl.obj
 0001:0000d7c8       ?get_AsyncResultCodeExtended@COPOSBillDispenser@@UEAAJPEAJ@Z 000000018000e7c8 f   BillDispenserImpl.obj
 0001:0000d7dc       ?get_BinaryConversion@COPOSBillDispenser@@UEAAJPEAJ@Z 000000018000e7dc f   BillDispenserImpl.obj
 0001:0000d7f0       ?get_CapCompareFirmwareVersion@COPOSBillDispenser@@UEAAJPEAF@Z 000000018000e7f0 f   BillDispenserImpl.obj
 0001:0000d824       ?get_CapDiscrepancy@COPOSBillDispenser@@UEAAJPEAF@Z 000000018000e824 f   BillDispenserImpl.obj
 0001:0000d858       ?get_CapEmptySensor@COPOSBillDispenser@@UEAAJPEAF@Z 000000018000e858 f   BillDispenserImpl.obj
 0001:0000d88c       ?get_CapJamSensor@COPOSBillDispenser@@UEAAJPEAF@Z 000000018000e88c f   BillDispenserImpl.obj
 0001:0000d8c0       ?get_CapNearEmptySensor@COPOSBillDispenser@@UEAAJPEAF@Z 000000018000e8c0 f   BillDispenserImpl.obj
 0001:0000d8f4       ?get_CapPowerReporting@COPOSBillDispenser@@UEAAJPEAJ@Z 000000018000e8f4 f   BillDispenserImpl.obj
 0001:0000d908       ?get_CapStatisticsReporting@COPOSBillDispenser@@UEAAJPEAF@Z 000000018000e908 f   BillDispenserImpl.obj
 0001:0000d93c       ?get_CapUpdateFirmware@COPOSBillDispenser@@UEAAJPEAF@Z 000000018000e93c f   BillDispenserImpl.obj
 0001:0000d970       ?get_CapUpdateStatistics@COPOSBillDispenser@@UEAAJPEAF@Z 000000018000e970 f   BillDispenserImpl.obj
 0001:0000d9a4       ?get_CheckHealthText@COPOSBillDispenser@@UEAAJPEAPEA_W@Z 000000018000e9a4 f   BillDispenserImpl.obj
 0001:0000d9b8       ?get_Claimed@COPOSBillDispenser@@UEAAJPEAF@Z 000000018000e9b8 f   BillDispenserImpl.obj
 0001:0000d9ec       ?get_ControlObjectDescription@COPOSBillDispenser@@UEAAJPEAPEA_W@Z 000000018000e9ec f   BillDispenserImpl.obj
 0001:0000da50       ?get_ControlObjectVersion@COPOSBillDispenser@@UEAAJPEAJ@Z 000000018000ea50 f   BillDispenserImpl.obj
 0001:0000da5c       ?get_CurrencyCashList@COPOSBillDispenser@@UEAAJPEAPEA_W@Z 000000018000ea5c f   BillDispenserImpl.obj
 0001:0000da70       ?get_CurrencyCode@COPOSBillDispenser@@UEAAJPEAPEA_W@Z 000000018000ea70 f   BillDispenserImpl.obj
 0001:0000da84       ?get_CurrencyCodeList@COPOSBillDispenser@@UEAAJPEAPEA_W@Z 000000018000ea84 f   BillDispenserImpl.obj
 0001:0000da98       ?get_CurrentExit@COPOSBillDispenser@@UEAAJPEAJ@Z 000000018000ea98 f   BillDispenserImpl.obj
 0001:0000daac       ?get_DeviceDescription@COPOSBillDispenser@@UEAAJPEAPEA_W@Z 000000018000eaac f   BillDispenserImpl.obj
 0001:0000dac0       ?get_DeviceEnabled@COPOSBillDispenser@@UEAAJPEAF@Z 000000018000eac0 f   BillDispenserImpl.obj
 0001:0000daf4       ?get_DeviceExits@COPOSBillDispenser@@UEAAJPEAJ@Z 000000018000eaf4 f   BillDispenserImpl.obj
 0001:0000db08       ?get_DeviceName@COPOSBillDispenser@@UEAAJPEAPEA_W@Z 000000018000eb08 f   BillDispenserImpl.obj
 0001:0000db1c       ?get_DeviceStatus@COPOSBillDispenser@@UEAAJPEAJ@Z 000000018000eb1c f   BillDispenserImpl.obj
 0001:0000db30       ?get_ExitCashList@COPOSBillDispenser@@UEAAJPEAPEA_W@Z 000000018000eb30 f   BillDispenserImpl.obj
 0001:0000db44       ?get_FreezeEvents@COPOSBillDispenser@@UEAAJPEAF@Z 000000018000eb44 f   BillDispenserImpl.obj
 0001:0000db74       ?get_OpenResult@COPOSBillDispenser@@UEAAJPEAJ@Z 000000018000eb74 f   BillDispenserImpl.obj
 0001:0000db80       ?get_PowerNotify@COPOSBillDispenser@@UEAAJPEAJ@Z 000000018000eb80 f   BillDispenserImpl.obj
 0001:0000db94       ?get_PowerState@COPOSBillDispenser@@UEAAJPEAJ@Z 000000018000eb94 f   BillDispenserImpl.obj
 0001:0000dba8       ?get_ResultCode@COPOSBillDispenser@@UEAAJPEAJ@Z 000000018000eba8 f   BillDispenserImpl.obj
 0001:0000dbe4       ?get_ResultCodeExtended@COPOSBillDispenser@@UEAAJPEAJ@Z 000000018000ebe4 f   BillDispenserImpl.obj
 0001:0000dbf8       ?get_ServiceObjectDescription@COPOSBillDispenser@@UEAAJPEAPEA_W@Z 000000018000ebf8 f   BillDispenserImpl.obj
 0001:0000dc0c       ?get_ServiceObjectVersion@COPOSBillDispenser@@UEAAJPEAJ@Z 000000018000ec0c f   BillDispenserImpl.obj
 0001:0000dc20       ?get_State@COPOSBillDispenser@@UEAAJPEAJ@Z 000000018000ec20 f   BillDispenserImpl.obj
 0001:0000dc4c       ?put_AsyncMode@COPOSBillDispenser@@UEAAJF@Z 000000018000ec4c f   BillDispenserImpl.obj
 0001:0000dc68       ?put_BinaryConversion@COPOSBillDispenser@@UEAAJJ@Z 000000018000ec68 f   BillDispenserImpl.obj
 0001:0000dc7c       ?put_CurrencyCode@COPOSBillDispenser@@UEAAJPEA_W@Z 000000018000ec7c f   BillDispenserImpl.obj
 0001:0000dc90       ?put_CurrentExit@COPOSBillDispenser@@UEAAJJ@Z 000000018000ec90 f   BillDispenserImpl.obj
 0001:0000dca4       ?put_DeviceEnabled@COPOSBillDispenser@@UEAAJF@Z 000000018000eca4 f   BillDispenserImpl.obj
 0001:0000dcbc       ?put_FreezeEvents@COPOSBillDispenser@@UEAAJF@Z 000000018000ecbc f   BillDispenserImpl.obj
 0001:0000dd0c       ?put_PowerNotify@COPOSBillDispenser@@UEAAJJ@Z 000000018000ed0c f   BillDispenserImpl.obj
 0001:0000dd20       ?s_EventWindowProc@COPOSBillDispenser@@KA_JPEAUHWND__@@I_K_J@Z 000000018000ed20 f i BillDispenserImpl.obj
 0001:0000dd9c       ??_U@YAPEAX_K@Z            000000018000ed9c f   LIBCMT:new_array.obj
 0001:0000dda4       ??_V@YAXPEAX@Z             000000018000eda4 f   LIBCMT:delete_array.obj
 0001:0000dda4       ??3@YAXPEAX_K@Z            000000018000eda4 f   LIBCMT:delete_scalar_size.obj
 0001:0000ddac       ??_V@YAXPEAX_K@Z           000000018000edac f   LIBCMT:delete_array_size.obj
 0001:0000ddb4       __scrt_acquire_startup_lock 000000018000edb4 f   LIBCMT:utility.obj
 0001:0000ddf0       __scrt_dllmain_after_initialize_c 000000018000edf0 f   LIBCMT:utility.obj
 0001:0000de24       __scrt_dllmain_before_initialize_c 000000018000ee24 f   LIBCMT:utility.obj
 0001:0000de3c       __scrt_dllmain_crt_thread_attach 000000018000ee3c f   LIBCMT:utility.obj
 0001:0000de64       __scrt_dllmain_crt_thread_detach 000000018000ee64 f   LIBCMT:utility.obj
 0001:0000de7c       __scrt_dllmain_exception_filter 000000018000ee7c f   LIBCMT:utility.obj
 0001:0000dedc       __scrt_dllmain_uninitialize_c 000000018000eedc f   LIBCMT:utility.obj
 0001:0000df0c       __scrt_dllmain_uninitialize_critical 000000018000ef0c f   LIBCMT:utility.obj
 0001:0000df20       __scrt_initialize_crt      000000018000ef20 f   LIBCMT:utility.obj
 0001:0000df6c       __scrt_initialize_onexit_tables 000000018000ef6c f   LIBCMT:utility.obj
 0001:0000dff8       __scrt_is_nonwritable_in_current_image 000000018000eff8 f   LIBCMT:utility.obj
 0001:0000e090       __scrt_release_startup_lock 000000018000f090 f   LIBCMT:utility.obj
 0001:0000e0b4       __scrt_uninitialize_crt    000000018000f0b4 f   LIBCMT:utility.obj
 0001:0000e0e0       _onexit                    000000018000f0e0 f   LIBCMT:utility.obj
 0001:0000e11c       atexit                     000000018000f11c f   LIBCMT:utility.obj
 0001:0000e134       ??3@YAXPEAX@Z              000000018000f134 f   LIBCMT:delete_scalar.obj
 0001:0000e234       _Init_thread_footer        000000018000f234 f   LIBCMT:thread_safe_statics.obj
 0001:0000e294       _Init_thread_header        000000018000f294 f   LIBCMT:thread_safe_statics.obj
 0001:0000e2fc       _Init_thread_notify        000000018000f2fc f   LIBCMT:thread_safe_statics.obj
 0001:0000e340       _Init_thread_wait          000000018000f340 f   LIBCMT:thread_safe_statics.obj
 0001:0000e3a4       __raise_securityfailure    000000018000f3a4 f   LIBCMT:gs_report.obj
 0001:0000e3d8       __report_gsfailure         000000018000f3d8 f   LIBCMT:gs_report.obj
 0001:0000e4ac       __report_rangecheckfailure 000000018000f4ac f   LIBCMT:gs_report.obj
 0001:0000e4c0       __report_securityfailure   000000018000f4c0 f   LIBCMT:gs_report.obj
 0001:0000e640       ??2@YAPEAX_KAEBUnothrow_t@std@@@Z 000000018000f640 f   LIBCMT:new_scalar_nothrow.obj
 0001:0000e654       ??_U@YAPEAX_KAEBUnothrow_t@std@@@Z 000000018000f654 f   LIBCMT:new_array_nothrow.obj
 0001:0000e65c       __GSHandlerCheck           000000018000f65c f   LIBCMT:gshandler.obj
 0001:0000e67c       __GSHandlerCheckCommon     000000018000f67c f   LIBCMT:gshandler.obj
 0001:0000e6d8       __GSHandlerCheck_SEH       000000018000f6d8 f   LIBCMT:gshandlerseh.obj
 0001:0000e770       _alloca_probe              000000018000f770 f   LIBCMT:chkstk.obj
 0001:0000e770       __chkstk                   000000018000f770 f   LIBCMT:chkstk.obj
 0001:0000e7d0       __security_check_cookie    000000018000f7d0 f   LIBCMT:amdsecgs.obj
 0001:0000eb10       _DllMainCRTStartup         000000018000fb10 f   LIBCMT:dll_dllmain.obj
 0001:0000eb50       ??2@YAPEAX_K@Z             000000018000fb50 f   LIBCMT:new_scalar.obj
 0001:0000eb8c       __isa_available_init       000000018000fb8c f   LIBCMT:cpu_disp.obj
 0001:0000ed30       __scrt_is_ucrt_dll_in_use  000000018000fd30 f   LIBCMT:ucrt_detection.obj
 0001:0000ed3c       __crt_debugger_hook        000000018000fd3c f   LIBCMT:utility_desktop.obj
 0001:0000ed44       __scrt_fastfail            000000018000fd44 f   LIBCMT:utility_desktop.obj
 0001:0000ee90       __security_init_cookie     000000018000fe90 f   LIBCMT:gs_support.obj
 0001:0000ef3c       ?__scrt_initialize_type_info@@YAXXZ 000000018000ff3c f   LIBCMT:tncleanup.obj
 0001:0000ef4c       ?__scrt_uninitialize_type_info@@YAXXZ 000000018000ff4c f   LIBCMT:tncleanup.obj
 0001:0000ef58       __local_stdio_scanf_options 000000018000ff58 f i LIBCMT:default_local_stdio_options.obj
 0001:0000ef60       __scrt_initialize_default_local_stdio_options 000000018000ff60 f   LIBCMT:default_local_stdio_options.obj
 0001:0000ef7c       __scrt_get_dyn_tls_init_callback 000000018000ff7c f   LIBCMT:dyn_tls_init.obj
 0001:0000ef84       _RTC_Initialize            000000018000ff84 f   LIBCMT:initsect.obj
 0001:0000efc0       _RTC_Terminate             000000018000ffc0 f   LIBCMT:initsect.obj
 0001:0000effc       ??0bad_alloc@std@@QEAA@AEBV01@@Z 000000018000fffc f i LIBCMT:throw_bad_alloc.obj
 0001:0000f038       ??0bad_alloc@std@@QEAA@XZ  0000000180010038 f i LIBCMT:throw_bad_alloc.obj
 0001:0000f058       ??0bad_array_new_length@std@@QEAA@AEBV01@@Z 0000000180010058 f i LIBCMT:throw_bad_alloc.obj
 0001:0000f094       ??0bad_array_new_length@std@@QEAA@XZ 0000000180010094 f i LIBCMT:throw_bad_alloc.obj
 0001:0000f0b4       ??0exception@std@@QEAA@AEBV01@@Z 00000001800100b4 f i LIBCMT:throw_bad_alloc.obj
 0001:0000f0e8       ??1bad_array_new_length@std@@UEAA@XZ 00000001800100e8 f i LIBCMT:throw_bad_alloc.obj
 0001:0000f0e8       ??1bad_exception@std@@UEAA@XZ 00000001800100e8 f i libvcruntime:frame.obj
 0001:0000f0e8       ??1bad_alloc@std@@UEAA@XZ  00000001800100e8 f i LIBCMT:throw_bad_alloc.obj
 0001:0000f0fc       ??_Eexception@std@@UEAAPEAXI@Z 00000001800100fc f i LIBCMT:throw_bad_alloc.obj
 0001:0000f0fc       ??_Ebad_exception@std@@UEAAPEAXI@Z 00000001800100fc f i libvcruntime:frame.obj
 0001:0000f0fc       ??_Ebad_alloc@std@@UEAAPEAXI@Z 00000001800100fc f i LIBCMT:throw_bad_alloc.obj
 0001:0000f0fc       ??_Gbad_alloc@std@@UEAAPEAXI@Z 00000001800100fc f i LIBCMT:throw_bad_alloc.obj
 0001:0000f0fc       ??_Ebad_array_new_length@std@@UEAAPEAXI@Z 00000001800100fc f i LIBCMT:throw_bad_alloc.obj
 0001:0000f0fc       ??_Gexception@std@@UEAAPEAXI@Z 00000001800100fc f i LIBCMT:throw_bad_alloc.obj
 0001:0000f0fc       ??_Gbad_exception@std@@UEAAPEAXI@Z 00000001800100fc f i libvcruntime:frame.obj
 0001:0000f0fc       ??_Gbad_array_new_length@std@@UEAAPEAXI@Z 00000001800100fc f i LIBCMT:throw_bad_alloc.obj
 0001:0000f140       ?__scrt_throw_std_bad_alloc@@YAXXZ 0000000180010140 f   LIBCMT:throw_bad_alloc.obj
 0001:0000f160       ?__scrt_throw_std_bad_array_new_length@@YAXXZ 0000000180010160 f   LIBCMT:throw_bad_alloc.obj
 0001:0000f180       ?what@exception@std@@UEBAPEBDXZ 0000000180010180 f i LIBCMT:throw_bad_alloc.obj
 0001:0000f1a0       ??_Etype_info@@UEAAPEAXI@Z 00000001800101a0 f i LIBCMT:std_type_info_static.obj
 0001:0000f1a0       ??_Gtype_info@@UEAAPEAXI@Z 00000001800101a0 f i LIBCMT:std_type_info_static.obj
 0001:0000f1cc       ??0CAtlBaseModule@ATL@@QEAA@XZ 00000001800101cc f   atls:atlbase.obj
 0001:0000f274       ??1CAtlBaseModule@ATL@@QEAA@XZ 0000000180010274 f   atls:atlbase.obj
 0001:0000f3a8       ?__AllocStdCallThunk_cmn@@YAPEAXXZ 00000001800103a8 f   atls:atlthunk.obj
 0001:0000f500       AtlThunk_AllocateData      0000000180010500 f   atls:atlthunk.obj
 0001:0000f57c       AtlThunk_DataToCode        000000018001057c f   atls:atlthunk.obj
 0001:0000f5d0       AtlThunk_FreeData          00000001800105d0 f   atls:atlthunk.obj
 0001:0000f630       AtlThunk_InitData          0000000180010630 f   atls:atlthunk.obj
 0001:0000f6d8       _get_purecall_handler      00000001800106d8 f   libvcruntime:purevirt.obj
 0001:0000f6e4       _purecall                  00000001800106e4 f   libvcruntime:purevirt.obj
 0001:0000f700       wcsstr                     0000000180010700 f   libvcruntime:wcsstr.obj
 0001:0000f930       memcmp                     0000000180010930 f   libvcruntime:memcmp.obj
 0001:0000fa10       memcpy_repmovs             0000000180010a10 f   libvcruntime:memcpy.obj
 0001:0000fa30       memmove                    0000000180010a30 f   libvcruntime:memcpy.obj
 0001:0000fa30       memcpy                     0000000180010a30 f   libvcruntime:memcpy.obj
 0001:000100c0       memset_repmovs             00000001800110c0 f   libvcruntime:memset.obj
 0001:000100e0       memset                     00000001800110e0 f   libvcruntime:memset.obj
 0001:00010270       __vcrt_initialize          0000000180011270 f   libvcruntime:initialization.obj
 0001:00010298       __vcrt_thread_attach       0000000180011298 f   libvcruntime:initialization.obj
 0001:000102ac       __vcrt_thread_detach       00000001800112ac f   libvcruntime:initialization.obj
 0001:000102c0       __vcrt_uninitialize        00000001800112c0 f   libvcruntime:initialization.obj
 0001:000102dc       __vcrt_uninitialize_critical 00000001800112dc f   libvcruntime:initialization.obj
 0001:000102ec       __C_specific_handler       00000001800112ec f   libvcruntime:riscchandler.obj
 0001:000104e4       ??$_CallSETranslator@V__FrameHandler3@@@@YAHPEAUEHExceptionRecord@@PEA_KPEAU_CONTEXT@@PEAU_xDISPATCHER_CONTEXT@@PEBU_s_FuncInfo@@K1H@Z 00000001800114e4 f i libvcruntime:risctrnsctrl.obj
 0001:00010538       ??$_CallSETranslator@V__FrameHandler4@@@@YAHPEAUEHExceptionRecord@@PEA_KPEAU_CONTEXT@@PEAU_xDISPATCHER_CONTEXT@@PEAUFuncInfo4@FH4@@K1H@Z 0000000180011538 f i libvcruntime:risctrnsctrl.obj
 0001:0001058c       ?CatchTryBlock@__FrameHandler3@@SAPEBU_s_TryBlockMapEntry@@PEBU_s_FuncInfo@@H@Z 000000018001158c f   libvcruntime:risctrnsctrl.obj
 0001:000105f0       ?DecompFuncInfo@FH4@@YA_JPEAEAEAUFuncInfo4@1@_KH_N@Z 00000001800115f0 f i libvcruntime:risctrnsctrl.obj
 0001:00010714       ?ExecutionInCatch@__FrameHandler3@@SA_NPEAU_xDISPATCHER_CONTEXT@@PEBU_s_FuncInfo@@@Z 0000000180011714 f   libvcruntime:risctrnsctrl.obj
 0001:00010740       ?ExecutionInCatch@__FrameHandler4@@SA_NPEAU_xDISPATCHER_CONTEXT@@PEAUFuncInfo4@FH4@@@Z 0000000180011740 f   libvcruntime:risctrnsctrl.obj
 0001:00010748       ?FrameUnwindToEmptyState@__FrameHandler3@@SAXPEA_KPEAU_xDISPATCHER_CONTEXT@@PEBU_s_FuncInfo@@@Z 0000000180011748 f   libvcruntime:risctrnsctrl.obj
 0001:000107ac       ?FrameUnwindToEmptyState@__FrameHandler4@@SAXPEA_KPEAU_xDISPATCHER_CONTEXT@@PEAUFuncInfo4@FH4@@@Z 00000001800117ac f   libvcruntime:risctrnsctrl.obj
 0001:000107e0       ?GetEstablisherFrame@__FrameHandler3@@SAPEA_KPEA_KPEAU_xDISPATCHER_CONTEXT@@PEBU_s_FuncInfo@@0@Z 00000001800117e0 f   libvcruntime:risctrnsctrl.obj
 0001:000108ac       ?GetEstablisherFrame@__FrameHandler4@@SAPEA_KPEA_KPEAU_xDISPATCHER_CONTEXT@@PEAUFuncInfo4@FH4@@0@Z 00000001800118ac f   libvcruntime:risctrnsctrl.obj
 0001:000108d0       ?GetRangeOfTrysToCheck@__FrameHandler3@@SA?AU?$pair@Viterator@TryBlockMap@__FrameHandler3@@V123@@std@@AEAVTryBlockMap@1@HPEAU_xDISPATCHER_CONTEXT@@PEBU_s_FuncInfo@@H@Z 00000001800118d0 f   libvcruntime:risctrnsctrl.obj
 0001:00010a10       ?GetRangeOfTrysToCheck@__FrameHandler4@@SA?AU?$pair@Viterator@TryBlockMap4@FH4@@V123@@std@@AEAVTryBlockMap4@FH4@@HPEAU_xDISPATCHER_CONTEXT@@PEAUFuncInfo4@5@H@Z 0000000180011a10 f   libvcruntime:risctrnsctrl.obj
 0001:00010b7c       ?UnwindNestedFrames@__FrameHandler3@@SAXPEA_KPEAUEHExceptionRecord@@PEAU_CONTEXT@@0PEAXPEBU_s_FuncInfo@@HHPEBU_s_HandlerType@@PEAU_xDISPATCHER_CONTEXT@@E@Z 0000000180011b7c f   libvcruntime:risctrnsctrl.obj
 0001:00010c80       ?UnwindNestedFrames@__FrameHandler4@@SAXPEA_KPEAUEHExceptionRecord@@PEAU_CONTEXT@@0PEAXPEAUFuncInfo4@FH4@@HHPEAUHandlerType4@5@PEAU_xDISPATCHER_CONTEXT@@E@Z 0000000180011c80 f   libvcruntime:risctrnsctrl.obj
 0001:00010da0       ?setBuffer@TryBlockMap4@FH4@@QEAAXViterator@12@@Z 0000000180011da0 f i libvcruntime:risctrnsctrl.obj
 0001:00010f64       _CreateFrameInfo           0000000180011f64 f   libvcruntime:risctrnsctrl.obj
 0001:00010fa0       _FindAndUnlinkFrame        0000000180011fa0 f   libvcruntime:risctrnsctrl.obj
 0001:00010ff4       _GetImageBase              0000000180011ff4 f   libvcruntime:risctrnsctrl.obj
 0001:00011008       _GetThrowImageBase         0000000180012008 f   libvcruntime:risctrnsctrl.obj
 0001:0001101c       _SetImageBase              000000018001201c f   libvcruntime:risctrnsctrl.obj
 0001:00011034       _SetThrowImageBase         0000000180012034 f   libvcruntime:risctrnsctrl.obj
 0001:0001104c       __CxxFrameHandler3         000000018001204c f   libvcruntime:risctrnsctrl.obj
 0001:000110d4       __CxxFrameHandler4         00000001800120d4 f   libvcruntime:risctrnsctrl.obj
 0001:00011194       __DestructExceptionObject  0000000180012194 f   libvcruntime:ehhelpers.obj
 0001:00011204       ?_CallMemberFunction0@@YAXQEAX0@Z 0000000180012204 f i libvcruntime:ehhelpers.obj
 0001:00011208       _IsExceptionObjectToBeDestroyed 0000000180012208 f   libvcruntime:ehhelpers.obj
 0001:00011238       __AdjustPointer            0000000180012238 f   libvcruntime:ehhelpers.obj
 0001:0001125c       __FrameUnwindFilter        000000018001225c f   libvcruntime:ehhelpers.obj
 0001:000112c4       __std_terminate            00000001800122c4 f   libvcruntime:ehhelpers.obj
 0001:000112d0       __std_type_info_compare    00000001800122d0 f   libvcruntime:std_type_info.obj
 0001:000112f8       __std_type_info_destroy_list 00000001800122f8 f   libvcruntime:std_type_info.obj
 0001:00011324       __std_exception_copy       0000000180012324 f   libvcruntime:std_exception.obj
 0001:000113b4       __std_exception_destroy    00000001800123b4 f   libvcruntime:std_exception.obj
 0001:000113dc       _CxxThrowException         00000001800123dc f   libvcruntime:throw.obj
 0001:0001147c       __vcrt_freefls             000000018001247c f   libvcruntime:per_thread_data.obj
 0001:0001149c       __vcrt_freeptd             000000018001249c f   libvcruntime:per_thread_data.obj
 0001:000114ec       __vcrt_getptd              00000001800124ec f   libvcruntime:per_thread_data.obj
 0001:00011508       __vcrt_getptd_noexit       0000000180012508 f   libvcruntime:per_thread_data.obj
 0001:000115c8       __vcrt_initialize_ptd      00000001800125c8 f   libvcruntime:per_thread_data.obj
 0001:00011610       __vcrt_uninitialize_ptd    0000000180012610 f   libvcruntime:per_thread_data.obj
 0001:00011634       __vcrt_initialize_locks    0000000180012634 f   libvcruntime:locks.obj
 0001:0001167c       __vcrt_uninitialize_locks  000000018001267c f   libvcruntime:locks.obj
 0001:000116d0       _NLG_Notify                00000001800126d0 f   libvcruntime:notify.obj
 0001:000116f0       __NLG_Dispatch2            00000001800126f0 f   libvcruntime:notify.obj
 0001:00011700       __NLG_Return2              0000000180012700 f   libvcruntime:notify.obj
 0001:00011704       __except_validate_context_record 0000000180012704 f   libvcruntime:jbcxrval.obj
 0001:0001173c       ?GetCurrentState@__FrameHandler3@@SAHPEA_KPEAU_xDISPATCHER_CONTEXT@@PEBU_s_FuncInfo@@@Z 000000018001273c f   libvcruntime:ehstate.obj
 0001:00011764       ?GetUnwindTryBlock@__FrameHandler3@@SAHPEA_KPEAU_xDISPATCHER_CONTEXT@@PEBU_s_FuncInfo@@@Z 0000000180012764 f   libvcruntime:ehstate.obj
 0001:00011790       ?SetState@__FrameHandler3@@SAXPEA_KPEBU_s_FuncInfo@@H@Z 0000000180012790 f   libvcruntime:ehstate.obj
 0001:0001179c       ?SetUnwindTryBlock@__FrameHandler3@@SAXPEA_KPEAU_xDISPATCHER_CONTEXT@@PEBU_s_FuncInfo@@H@Z 000000018001279c f   libvcruntime:ehstate.obj
 0001:000117d8       ?StateFromControlPc@__FrameHandler3@@SAHPEBU_s_FuncInfo@@PEAU_xDISPATCHER_CONTEXT@@@Z 00000001800127d8 f   libvcruntime:ehstate.obj
 0001:000117e0       ?StateFromControlPc@__FrameHandler4@@SAHPEAUFuncInfo4@FH4@@PEAU_xDISPATCHER_CONTEXT@@@Z 00000001800127e0 f   libvcruntime:ehstate.obj
 0001:000117e8       ?StateFromIp@__FrameHandler3@@SAHPEBU_s_FuncInfo@@PEAU_xDISPATCHER_CONTEXT@@_K@Z 00000001800127e8 f   libvcruntime:ehstate.obj
 0001:00011850       ?StateFromIp@__FrameHandler4@@SAHPEAUFuncInfo4@FH4@@PEAU_xDISPATCHER_CONTEXT@@_K@Z 0000000180012850 f   libvcruntime:ehstate.obj
 0001:00012f50       ??$TypeMatchHelper@V__FrameHandler3@@@@YAHPEBU_s_HandlerType@@PEBU_s_CatchableType@@PEBU_s_ThrowInfo@@@Z 0000000180013f50 f i libvcruntime:frame.obj
 0001:00013090       ??$TypeMatchHelper@V__FrameHandler4@@@@YAHPEAUHandlerType4@FH4@@PEBU_s_CatchableType@@PEBU_s_ThrowInfo@@@Z 0000000180014090 f i libvcruntime:frame.obj
 0001:000131d4       ??$__InternalCxxFrameHandler@V__FrameHandler3@@@@YA?AW4_EXCEPTION_DISPOSITION@@PEAUEHExceptionRecord@@PEA_KPEAU_CONTEXT@@PEAU_xDISPATCHER_CONTEXT@@PEBU_s_FuncInfo@@H1E@Z 00000001800141d4 f i libvcruntime:frame.obj
 0001:0001340c       ??$__InternalCxxFrameHandler@V__FrameHandler4@@@@YA?AW4_EXCEPTION_DISPOSITION@@PEAUEHExceptionRecord@@PEA_KPEAU_CONTEXT@@PEAU_xDISPATCHER_CONTEXT@@PEAUFuncInfo4@FH4@@H1E@Z 000000018001440c f i libvcruntime:frame.obj
 0001:000136a0       ??0HandlerMap4@FH4@@QEAA@PEBUTryBlockMapEntry4@1@_KH@Z 00000001800146a0 f i libvcruntime:frame.obj
 0001:0001371c       ??0TryBlockMap4@FH4@@QEAA@PEBUFuncInfo4@1@_K@Z 000000018001471c f i libvcruntime:frame.obj
 0001:000137f4       ??0bad_exception@std@@QEAA@AEBV01@@Z 00000001800147f4 f i libvcruntime:frame.obj
 0001:00013830       ??0bad_exception@std@@QEAA@XZ 0000000180014830 f i libvcruntime:frame.obj
 0001:00013850       ?CxxCallCatchBlock@__FrameHandler3@@SAPEAXPEAU_EXCEPTION_RECORD@@@Z 0000000180014850 f   libvcruntime:frame.obj
 0001:00013a3c       ?CxxCallCatchBlock@__FrameHandler4@@SAPEAXPEAU_EXCEPTION_RECORD@@@Z 0000000180014a3c f   libvcruntime:frame.obj
 0001:00013c8c       ?DecompHandler@HandlerMap4@FH4@@AEAAXXZ 0000000180014c8c f i libvcruntime:frame.obj
 0001:00013ed8       ?FrameUnwindToState@__FrameHandler3@@SAXPEA_KPEAU_xDISPATCHER_CONTEXT@@PEBU_s_FuncInfo@@H@Z 0000000180014ed8 f   libvcruntime:frame.obj
 0001:00014064       ?FrameUnwindToState@__FrameHandler4@@SAXPEA_KPEAU_xDISPATCHER_CONTEXT@@PEAUFuncInfo4@FH4@@H@Z 0000000180015064 f   libvcruntime:frame.obj
 0001:00014360       ?GetHandlerSearchState@__FrameHandler3@@SAHPEA_KPEAU_xDISPATCHER_CONTEXT@@PEBU_s_FuncInfo@@@Z 0000000180015360 f i libvcruntime:frame.obj
 0001:00014570       ?ReadEntry@UWMap4@FH4@@AEAAXPEAPEAE@Z 0000000180015570 f i libvcruntime:frame.obj
 0001:0001460c       ?_CallMemberFunction1@@YAXQEAX00@Z 000000018001560c f i libvcruntime:frame.obj
 0001:00014618       ?_CallMemberFunction2@@YAXQEAX00H@Z 0000000180015618 f i libvcruntime:frame.obj
 0001:00014628       ?getStartStop@UWMap4@FH4@@QEAAXHHAEAViterator@12@0@Z 0000000180015628 f i libvcruntime:frame.obj
 0001:000146f8       ?getStateFromIterators@UWMap4@FH4@@SAHAEBViterator@12@H0H0@Z 00000001800156f8 f i libvcruntime:frame.obj
 0001:00014914       __vcrt_FlsAlloc            0000000180015914 f   libvcruntime:winapi_downlevel.obj
 0001:0001495c       __vcrt_FlsFree             000000018001595c f   libvcruntime:winapi_downlevel.obj
 0001:000149a4       __vcrt_FlsGetValue         00000001800159a4 f   libvcruntime:winapi_downlevel.obj
 0001:000149ec       __vcrt_FlsSetValue         00000001800159ec f   libvcruntime:winapi_downlevel.obj
 0001:00014a40       __vcrt_InitializeCriticalSectionEx 0000000180015a40 f   libvcruntime:winapi_downlevel.obj
 0001:00014ac0       _CallSettingFrame          0000000180015ac0 f   libvcruntime:handlers.obj
 0001:00014b10       _CallSettingFrame_LookupContinuationIndex 0000000180015b10 f   libvcruntime:handlers.obj
 0001:00014b40       _CallSettingFrame_NotifyContinuationAddr 0000000180015b40 f   libvcruntime:handlers.obj
 0001:00014b70       _CallSettingFrameEncoded   0000000180015b70 f   libvcruntime:handlers.obj
 0001:00014bb8       free                       0000000180015bb8 f   libucrt:free.obj
 0001:00014bcc       ?get_raw_ptd@__crt_cached_ptd_host@@QEAAPEAU__acrt_ptd@@XZ 0000000180015bcc f i libucrt:invalid_parameter.obj
 0001:00014c34       ?get_raw_ptd_noexit@__crt_cached_ptd_host@@QEAAPEAU__acrt_ptd@@XZ 0000000180015c34 f i libucrt:invalid_parameter.obj
 0001:00014ca0       ?value@?$dual_state_global@P6AXPEB_W00I_K@Z@__crt_state_management@@QEAAAEAP6AXPEB_W00I_K@ZAEAV__crt_cached_ptd_host@@@Z 0000000180015ca0 f i libucrt:invalid_parameter.obj
 0001:00014cec       __acrt_call_reportfault    0000000180015cec f   libucrt:invalid_parameter.obj
 0001:00014e48       __acrt_initialize_invalid_parameter_handler 0000000180015e48 f   libucrt:invalid_parameter.obj
 0001:00014e50       _invalid_parameter         0000000180015e50 f   libucrt:invalid_parameter.obj
 0001:00014eec       _invalid_parameter_internal 0000000180015eec f   libucrt:invalid_parameter.obj
 0001:00014fbc       _invalid_parameter_noinfo  0000000180015fbc f   libucrt:invalid_parameter.obj
 0001:00014fdc       _invoke_watson             0000000180015fdc f   libucrt:invalid_parameter.obj
 0001:00015024       __acrt_errno_from_os_error 0000000180016024 f   libucrt:errno.obj
 0001:0001506c       __acrt_errno_map_os_error  000000018001606c f   libucrt:errno.obj
 0001:000150b4       __acrt_errno_map_os_error_ptd 00000001800160b4 f   libucrt:errno.obj
 0001:000150d8       __doserrno                 00000001800160d8 f   libucrt:errno.obj
 0001:000150f8       _errno                     00000001800160f8 f   libucrt:errno.obj
 0001:00015118       calloc                     0000000180016118 f   libucrt:calloc.obj
 0001:00015120       malloc                     0000000180016120 f   libucrt:malloc.obj
 0001:00015128       _recalloc                  0000000180016128 f   libucrt:recalloc.obj
 0001:00015130       _recalloc_base             0000000180016130 f   libucrt:recalloc.obj
 0001:000151c8       _resetstkoflw              00000001800161c8 f   libucrt:resetstk.obj
 0001:000152f4       wcscat_s                   00000001800162f4 f   libucrt:wcscat_s.obj
 0001:00015378       wcscpy_s                   0000000180016378 f   libucrt:wcscpy_s.obj
 0001:000153e0       wcsncpy_s                  00000001800163e0 f   libucrt:wcsncpy_s.obj
 0001:00015694       ??$ensure_buffer_is_big_enough@D@formatting_buffer@__crt_stdio_output@@QEAA_N_KAEAV__crt_cached_ptd_host@@@Z 0000000180016694 f i libucrt:output.obj
 0001:0001573c       ??$ensure_buffer_is_big_enough@_W@formatting_buffer@__crt_stdio_output@@QEAA_N_KAEAV__crt_cached_ptd_host@@@Z 000000018001673c f i libucrt:output.obj
 0001:000157e8       ??$is_wide_character_specifier@_W@__crt_stdio_output@@YA_N_K_WW4length_modifier@0@@Z 00000001800167e8 f i libucrt:output.obj
 0001:00015828       ??$parse_integer@KV?$c_string_character_source@_W@__crt_strtox@@$0A@@__crt_strtox@@YAKAEAV__crt_cached_ptd_host@@V?$c_string_character_source@_W@0@H_N@Z 0000000180016828 f i libucrt:output.obj
 0001:00015f80       ??$type_case_integer@$07@?$output_processor@_WV?$string_output_adapter@_W@__crt_stdio_output@@V?$format_validation_base@_WV?$string_output_adapter@_W@__crt_stdio_output@@@2@@__crt_stdio_output@@AEAA_N_N@Z 0000000180016f80 f i libucrt:output.obj
 0001:0001616c       ??$type_case_integer@$09@?$output_processor@_WV?$string_output_adapter@_W@__crt_stdio_output@@V?$format_validation_base@_WV?$string_output_adapter@_W@__crt_stdio_output@@@2@@__crt_stdio_output@@AEAA_N_N@Z 000000018001716c f i libucrt:output.obj
 0001:00016358       ??$type_case_integer@$0BA@@?$output_processor@_WV?$string_output_adapter@_W@__crt_stdio_output@@V?$format_validation_base@_WV?$string_output_adapter@_W@__crt_stdio_output@@@2@@__crt_stdio_output@@AEAA_N_N@Z 0000000180017358 f i libucrt:output.obj
 0001:00016544       ??$type_case_integer_parse_into_buffer@I$07@?$output_processor@_WV?$string_output_adapter@_W@__crt_stdio_output@@V?$format_validation_base@_WV?$string_output_adapter@_W@__crt_stdio_output@@@2@@__crt_stdio_output@@AEAAXI_N@Z 0000000180017544 f i libucrt:output.obj
 0001:000165cc       ??$type_case_integer_parse_into_buffer@I$09@?$output_processor@_WV?$string_output_adapter@_W@__crt_stdio_output@@V?$format_validation_base@_WV?$string_output_adapter@_W@__crt_stdio_output@@@2@@__crt_stdio_output@@AEAAXI_N@Z 00000001800175cc f i libucrt:output.obj
 0001:00016684       ??$type_case_integer_parse_into_buffer@I$0BA@@?$output_processor@_WV?$string_output_adapter@_W@__crt_stdio_output@@V?$format_validation_base@_WV?$string_output_adapter@_W@__crt_stdio_output@@@2@@__crt_stdio_output@@AEAAXI_N@Z 0000000180017684 f i libucrt:output.obj
 0001:00016728       ??$type_case_integer_parse_into_buffer@_K$07@?$output_processor@_WV?$string_output_adapter@_W@__crt_stdio_output@@V?$format_validation_base@_WV?$string_output_adapter@_W@__crt_stdio_output@@@2@@__crt_stdio_output@@AEAAX_K_N@Z 0000000180017728 f i libucrt:output.obj
 0001:000167b0       ??$type_case_integer_parse_into_buffer@_K$09@?$output_processor@_WV?$string_output_adapter@_W@__crt_stdio_output@@V?$format_validation_base@_WV?$string_output_adapter@_W@__crt_stdio_output@@@2@@__crt_stdio_output@@AEAAX_K_N@Z 00000001800177b0 f i libucrt:output.obj
 0001:00016870       ??$type_case_integer_parse_into_buffer@_K$0BA@@?$output_processor@_WV?$string_output_adapter@_W@__crt_stdio_output@@V?$format_validation_base@_WV?$string_output_adapter@_W@__crt_stdio_output@@@2@@__crt_stdio_output@@AEAAX_K_N@Z 0000000180017870 f i libucrt:output.obj
 0001:00016914       ?crop_zeroes@__crt_stdio_output@@YAXPEADQEAU__crt_locale_pointers@@@Z 0000000180017914 f i libucrt:output.obj
 0001:00016980       ?parse_int_from_format_string@?$output_processor@_WV?$string_output_adapter@_W@__crt_stdio_output@@V?$format_validation_base@_WV?$string_output_adapter@_W@__crt_stdio_output@@@2@@__crt_stdio_output@@AEAA_NQEAH@Z 0000000180017980 f i libucrt:output.obj
 0001:00016a10       ?process@?$output_processor@_WV?$string_output_adapter@_W@__crt_stdio_output@@V?$format_validation_base@_WV?$string_output_adapter@_W@__crt_stdio_output@@@2@@__crt_stdio_output@@QEAAHXZ 0000000180017a10 f i libucrt:output.obj
 0001:00016cec       ?state_case_size@?$output_processor@_WV?$string_output_adapter@_W@__crt_stdio_output@@V?$format_validation_base@_WV?$string_output_adapter@_W@__crt_stdio_output@@@2@@__crt_stdio_output@@AEAA_NXZ 0000000180017cec f i libucrt:output.obj
 0001:00016e98       ?state_case_type@?$output_processor@_WV?$string_output_adapter@_W@__crt_stdio_output@@V?$format_validation_base@_WV?$string_output_adapter@_W@__crt_stdio_output@@@2@@__crt_stdio_output@@AEAA_NXZ 0000000180017e98 f i libucrt:output.obj
 0001:000172f4       ?type_case_Z@?$output_processor@_WV?$string_output_adapter@_W@__crt_stdio_output@@V?$format_validation_base@_WV?$string_output_adapter@_W@__crt_stdio_output@@@2@@__crt_stdio_output@@AEAA_NXZ 00000001800182f4 f i libucrt:output.obj
 0001:00017370       ?type_case_a@?$output_processor@_WV?$string_output_adapter@_W@__crt_stdio_output@@V?$format_validation_base@_WV?$string_output_adapter@_W@__crt_stdio_output@@@2@@__crt_stdio_output@@AEAA_NXZ 0000000180018370 f i libucrt:output.obj
 0001:000175d0       ?type_case_c_tchar@?$output_processor@_WV?$string_output_adapter@_W@__crt_stdio_output@@V?$format_validation_base@_WV?$string_output_adapter@_W@__crt_stdio_output@@@2@@__crt_stdio_output@@AEAA_N_W@Z 00000001800185d0 f i libucrt:output.obj
 0001:00017694       ?type_case_n@?$output_processor@_WV?$string_output_adapter@_W@__crt_stdio_output@@V?$format_validation_base@_WV?$string_output_adapter@_W@__crt_stdio_output@@@2@@__crt_stdio_output@@AEAA_NXZ 0000000180018694 f i libucrt:output.obj
 0001:00017748       ?type_case_s@?$output_processor@_WV?$string_output_adapter@_W@__crt_stdio_output@@V?$format_validation_base@_WV?$string_output_adapter@_W@__crt_stdio_output@@@2@@__crt_stdio_output@@AEAA_NXZ 0000000180018748 f i libucrt:output.obj
 0001:000177e0       ?type_case_s_compute_narrow_string_length@?$output_processor@_WV?$string_output_adapter@_W@__crt_stdio_output@@V?$format_validation_base@_WV?$string_output_adapter@_W@__crt_stdio_output@@@2@@__crt_stdio_output@@AEAAHH_W@Z 00000001800187e0 f i libucrt:output.obj
 0001:00017860       ?update_locale_slow@__crt_cached_ptd_host@@AEAAXXZ 0000000180018860 f i libucrt:output.obj
 0001:000178d8       ?write_string@?$string_output_adapter@_W@__crt_stdio_output@@QEBAXQEB_WHQEAHAEAV__crt_cached_ptd_host@@@Z 00000001800188d8 f i libucrt:output.obj
 0001:00017980       __stdio_common_vswprintf_s 0000000180018980 f   libucrt:output.obj
 0001:00017a94       _seh_filter_dll            0000000180018a94 f   libucrt:exception_filter.obj
 0001:00017aa8       _seh_filter_exe            0000000180018aa8 f   libucrt:exception_filter.obj
 0001:00017ecc       __acrt_initialize_thread_local_exit_callback 0000000180018ecc f   libucrt:exit.obj
 0001:00017ed4       _cexit                     0000000180018ed4 f   libucrt:exit.obj
 0001:00017ee4       _exit                      0000000180018ee4 f   libucrt:exit.obj
 0001:00017ef0       _is_c_termination_complete 0000000180018ef0 f   libucrt:exit.obj
 0001:000180b8       __acrt_allocate_buffer_for_argv 00000001800190b8 f   libucrt:argv_parsing.obj
 0001:00018118       _configure_narrow_argv     0000000180019118 f   libucrt:argv_parsing.obj
 0001:000184a0       __dcrt_uninitialize_environments_nolock 00000001800194a0 f   libucrt:environment_initialization.obj
 0001:000184e4       _initialize_narrow_environment 00000001800194e4 f   libucrt:environment_initialization.obj
 0001:00018834       _crt_atexit                0000000180019834 f   libucrt:onexit.obj
 0001:00018844       _execute_onexit_table      0000000180019844 f   libucrt:onexit.obj
 0001:00018888       _initialize_onexit_table   0000000180019888 f   libucrt:onexit.obj
 0001:000188b0       _register_onexit_function  00000001800198b0 f   libucrt:onexit.obj
 0001:00018930       __acrt_uninitialize_command_line 0000000180019930 f   libucrt:argv_data.obj
 0001:00018a28       __acrt_initialize          0000000180019a28 f   libucrt:initialization.obj
 0001:00018a3c       __acrt_thread_attach       0000000180019a3c f   libucrt:initialization.obj
 0001:00018a50       __acrt_thread_detach       0000000180019a50 f   libucrt:initialization.obj
 0001:00018a60       __acrt_uninitialize        0000000180019a60 f   libucrt:initialization.obj
 0001:00018a98       __acrt_uninitialize_critical 0000000180019a98 f   libucrt:initialization.obj
 0001:00018aa8       _initterm                  0000000180019aa8 f   libucrt:initterm.obj
 0001:00018aec       _initterm_e                0000000180019aec f   libucrt:initterm.obj
 0001:00018b34       __acrt_initialize_new_handler 0000000180019b34 f   libucrt:new_handler.obj
 0001:00018b3c       _callnewh                  0000000180019b3c f   libucrt:new_handler.obj
 0001:00018b78       _query_new_handler         0000000180019b78 f   libucrt:new_handler.obj
 0001:00018bac       terminate                  0000000180019bac f   libucrt:terminate.obj
 0001:00018bd8       abort                      0000000180019bd8 f   libucrt:abort.obj
 0001:00018c30       strcpy_s                   0000000180019c30 f   libucrt:strcpy_s.obj
 0001:00018ca0       strncmp                    0000000180019ca0 f   libucrt:strncmp.obj
 0001:00018d20       wcsncmp                    0000000180019d20 f   libucrt:wcsncmp.obj
 0001:00018d4c       _free_base                 0000000180019d4c f   libucrt:free_base.obj
 0001:00019100       __acrt_freeptd             000000018001a100 f   libucrt:per_thread_data.obj
 0001:00019144       __acrt_getptd              000000018001a144 f   libucrt:per_thread_data.obj
 0001:00019218       __acrt_getptd_head         000000018001a218 f   libucrt:per_thread_data.obj
 0001:000192bc       __acrt_getptd_noexit       000000018001a2bc f   libucrt:per_thread_data.obj
 0001:00019384       __acrt_getptd_noexit_explicit 000000018001a384 f   libucrt:per_thread_data.obj
 0001:00019444       __acrt_initialize_ptd      000000018001a444 f   libucrt:per_thread_data.obj
 0001:00019480       __acrt_uninitialize_ptd    000000018001a480 f   libucrt:per_thread_data.obj
 0001:00019514       __acrt_set_locale_changed  000000018001a514 f   libucrt:wsetlocale.obj
 0001:00019520       __acrt_uninitialize_locale 000000018001a520 f   libucrt:wsetlocale.obj
 0001:00019550       _calloc_base               000000018001a550 f   libucrt:calloc_base.obj
 0001:000195c8       _malloc_base               000000018001a5c8 f   libucrt:malloc_base.obj
 0001:00019628       _msize_base                000000018001a628 f   libucrt:msize.obj
 0001:00019664       _realloc_base              000000018001a664 f   libucrt:realloc_base.obj
 0001:000198a0       __acrt_AppPolicyGetProcessTerminationMethodInternal 000000018001a8a0 f   libucrt:winapi_thunks.obj
 0001:000198f8       __acrt_AreFileApisANSI     000000018001a8f8 f   libucrt:winapi_thunks.obj
 0001:0001993c       __acrt_FlsAlloc            000000018001a93c f   libucrt:winapi_thunks.obj
 0001:00019944       __acrt_FlsFree             000000018001a944 f   libucrt:winapi_thunks.obj
 0001:0001994c       __acrt_FlsGetValue         000000018001a94c f   libucrt:winapi_thunks.obj
 0001:00019954       __acrt_FlsSetValue         000000018001a954 f   libucrt:winapi_thunks.obj
 0001:0001995c       __acrt_InitializeCriticalSectionEx 000000018001a95c f   libucrt:winapi_thunks.obj
 0001:000199cc       __acrt_LCMapStringEx       000000018001a9cc f   libucrt:winapi_thunks.obj
 0001:00019ab8       __acrt_LocaleNameToLCID    000000018001aab8 f   libucrt:winapi_thunks.obj
 0001:00019b18       __acrt_SetThreadStackGuarantee 000000018001ab18 f   libucrt:winapi_thunks.obj
 0001:00019b64       __acrt_initialize_winapi_thunks 000000018001ab64 f   libucrt:winapi_thunks.obj
 0001:00019b88       __acrt_uninitialize_winapi_thunks 000000018001ab88 f   libucrt:winapi_thunks.obj
 0001:00019bcc       wcsnlen                    000000018001abcc f   libucrt:strnlen.obj
 0001:00019da4       __acrt_update_locale_info  000000018001ada4 f   libucrt:locale_update.obj
 0001:00019dd8       __acrt_update_locale_info_explicit 000000018001add8 f   libucrt:locale_update.obj
 0001:00019e10       __acrt_update_multibyte_info 000000018001ae10 f   libucrt:locale_update.obj
 0001:00019e44       __acrt_update_multibyte_info_explicit 000000018001ae44 f   libucrt:locale_update.obj
 0001:0001a9ac       __acrt_fp_format           000000018001b9ac f   libucrt:cvt.obj
 0001:0001ac94       _mbtowc_internal           000000018001bc94 f   libucrt:mbtowc.obj
 0001:0001ae0c       _fileno                    000000018001be0c f   libucrt:fileno.obj
 0001:0001ae34       __acrt_initialize_stdio    000000018001be34 f   libucrt:_file.obj
 0001:0001af54       __acrt_uninitialize_stdio  000000018001bf54 f   libucrt:_file.obj
 0001:0001afb0       _lock_file                 000000018001bfb0 f   libucrt:_file.obj
 0001:0001afbc       _unlock_file               000000018001bfbc f   libucrt:_file.obj
 0001:0001afc8       _get_printf_count_output   000000018001bfc8 f   libucrt:printf_count_output.obj
 0001:0001b1d8       __acrt_initialize_lowio    000000018001c1d8 f   libucrt:ioinit.obj
 0001:0001b214       __acrt_uninitialize_lowio  000000018001c214 f   libucrt:ioinit.obj
 0001:0001b254       __acrt_initialize_locks    000000018001c254 f   libucrt:locks.obj
 0001:0001b29c       __acrt_lock                000000018001c29c f   libucrt:locks.obj
 0001:0001b2b8       __acrt_uninitialize_locks  000000018001c2b8 f   libucrt:locks.obj
 0001:0001b2f0       __acrt_unlock              000000018001c2f0 f   libucrt:locks.obj
 0001:0001b30c       __acrt_get_process_end_policy 000000018001c30c f   libucrt:win_policies.obj
 0001:0001b35c       ??$__acrt_convert_wcs_mbs_cp@D_WV<lambda_7c9dea7b4ca7285d2cdb541a38da6275>@@U__crt_win32_buffer_internal_dynamic_resizing@@@@YAHQEBDAEAV?$__crt_win32_buffer@_WU__crt_win32_buffer_internal_dynamic_resizing@@@@AEBV<lambda_7c9dea7b4ca7285d2cdb541a38da6275>@@I@Z 000000018001c35c f i libucrt:argv_wildcards.obj
 0001:0001b4d8       ??$__acrt_convert_wcs_mbs_cp@_WDV<lambda_d8593a27d1aa8c02be35c86a17d324c4>@@U__crt_win32_buffer_internal_dynamic_resizing@@@@YAHQEB_WAEAV?$__crt_win32_buffer@DU__crt_win32_buffer_internal_dynamic_resizing@@@@AEBV<lambda_d8593a27d1aa8c02be35c86a17d324c4>@@I@Z 000000018001c4d8 f i libucrt:argv_wildcards.obj
 0001:0001bd80       ??0_LocaleUpdate@@QEAA@QEAU__crt_locale_pointers@@@Z 000000018001cd80 f i libucrt:argv_wildcards.obj
 0001:0001be1c       __acrt_expand_narrow_argv_wildcards 000000018001ce1c f   libucrt:argv_wildcards.obj
 0001:0001be24       ??$__acrt_convert_wcs_mbs_cp@_WDV<lambda_f788ae46380686e8b737efdd8c720d07>@@U__crt_win32_buffer_no_resizing@@@@YAHQEB_WAEAV?$__crt_win32_buffer@DU__crt_win32_buffer_no_resizing@@@@AEBV<lambda_f788ae46380686e8b737efdd8c720d07>@@I@Z 000000018001ce24 f i libucrt:getmodulefilenamea.obj
 0001:0001bf40       __acrt_GetModuleFileNameA  000000018001cf40 f   libucrt:getmodulefilenamea.obj
 0001:0001c85c       __acrt_initialize_multibyte 000000018001d85c f   libucrt:mbctype.obj
 0001:0001c8bc       __acrt_update_thread_multibyte_data 000000018001d8bc f   libucrt:mbctype.obj
 0001:0001c8d8       _setmbcp_nolock            000000018001d8d8 f   libucrt:mbctype.obj
 0001:0001cc0c       _ismbblead                 000000018001dc0c f   libucrt:ismbbyte.obj
 0001:0001cc20       __acrt_initialize_command_line 000000018001dc20 f   libucrt:argv_data.obj
 0001:0001cc48       __acrt_MultiByteToWideChar 000000018001dc48 f   libucrt:multibytetowidechar.obj
 0001:0001cca4       __acrt_WideCharToMultiByte 000000018001dca4 f   libucrt:widechartomultibyte.obj
 0001:0001cd54       __dcrt_get_narrow_environment_from_os 000000018001dd54 f   libucrt:get_environment_from_os.obj
 0001:0001ce64       __acrt_initialize_heap     000000018001de64 f   libucrt:heap_handle.obj
 0001:0001ce80       __acrt_uninitialize_heap   000000018001de80 f   libucrt:heap_handle.obj
 0001:0001ce8c       __acrt_execute_initializers 000000018001de8c f   libucrt:shared_initialization.obj
 0001:0001cf20       __acrt_execute_uninitializers 000000018001df20 f   libucrt:shared_initialization.obj
 0001:0001cfb0       __acrt_get_sigabrt_handler 000000018001dfb0 f   libucrt:signal.obj
 0001:0001cfe0       __acrt_initialize_signal_handlers 000000018001dfe0 f   libucrt:signal.obj
 0001:0001d000       raise                      000000018001e000 f   libucrt:signal.obj
 0001:0001d280       __acrt_has_user_matherr    000000018001e280 f   libucrt:matherr.obj
 0001:0001d2a0       __acrt_initialize_user_matherr 000000018001e2a0 f   libucrt:matherr.obj
 0001:0001d2a8       __acrt_invoke_user_matherr 000000018001e2a8 f   libucrt:matherr.obj
 0001:0001d4bc       __acrt_stdio_flush_nolock  000000018001e4bc f   libucrt:fflush.obj
 0001:0001d548       _fflush_nolock             000000018001e548 f   libucrt:fflush.obj
 0001:0001d61c       _flushall                  000000018001e61c f   libucrt:fflush.obj
 0001:0001d624       __acrt_add_locale_ref      000000018001e624 f   libucrt:locale_refcounting.obj
 0001:0001d6b0       __acrt_free_locale         000000018001e6b0 f   libucrt:locale_refcounting.obj
 0001:0001d828       __acrt_locale_add_lc_time_reference 000000018001e828 f   libucrt:locale_refcounting.obj
 0001:0001d850       __acrt_locale_free_lc_time_if_unreferenced 000000018001e850 f   libucrt:locale_refcounting.obj
 0001:0001d888       __acrt_locale_release_lc_time_reference 000000018001e888 f   libucrt:locale_refcounting.obj
 0001:0001d8b0       __acrt_release_locale_ref  000000018001e8b0 f   libucrt:locale_refcounting.obj
 0001:0001d958       __acrt_update_thread_locale_data 000000018001e958 f   libucrt:locale_refcounting.obj
 0001:0001d9c8       _updatetlocinfoEx_nolock   000000018001e9c8 f   libucrt:locale_refcounting.obj
 0001:0001da30       __acrt_locale_free_monetary 000000018001ea30 f   libucrt:initmon.obj
 0001:0001db3c       __acrt_locale_free_numeric 000000018001eb3c f   libucrt:initnum.obj
 0001:0001dbdc       __acrt_locale_free_time    000000018001ebdc f   libucrt:inittime.obj
 0001:0001dce4       __acrt_GetStringTypeA      000000018001ece4 f   libucrt:getstringtypea.obj
 0001:0001de80       _query_new_mode            000000018001ee80 f   libucrt:new_mode.obj
 0001:0001de88       __acrt_DownlevelLocaleNameToLCID 000000018001ee88 f   libucrt:lcidtoname_downlevel.obj
 0001:0001df30       __acrt_fp_strflt_to_string 000000018001ef30 f   libucrt:_fptostr.obj
 0001:0001e0c0       ?divide@__crt_strtox@@YA_KAEAUbig_integer@1@AEBU21@@Z 000000018001f0c0 f i libucrt:cfout.obj
 0001:0001e54c       __acrt_fltout              000000018001f54c f   libucrt:cfout.obj
 0001:0001f814       fegetround                 0000000180020814 f   libucrt:fegetround.obj
 0001:0001f828       ?__mbrtowc_utf8@__crt_mbstring@@YA_KPEA_WPEBD_KPEAU_Mbstatet@@AEAV__crt_cached_ptd_host@@@Z 0000000180020828 f   libucrt:mbrtowc.obj
 0001:0001f86c       ?__mbsrtowcs_utf8@__crt_mbstring@@YA_KPEA_WPEAPEBD_KPEAU_Mbstatet@@AEAV__crt_cached_ptd_host@@@Z 000000018002086c f   libucrt:mbrtowc.obj
 0001:0001fa10       _fcloseall                 0000000180020a10 f   libucrt:closeall.obj
 0001:0001fac4       __acrt_stdio_free_buffer_nolock 0000000180020ac4 f   libucrt:_freebuf.obj
 0001:0001fb04       _isatty                    0000000180020b04 f   libucrt:isatty.obj
 0001:0001fb64       __acrt_lowio_create_handle_array 0000000180020b64 f   libucrt:osfinfo.obj
 0001:0001fc0c       __acrt_lowio_destroy_handle_array 0000000180020c0c f   libucrt:osfinfo.obj
 0001:0001fc5c       __acrt_lowio_ensure_fh_exists 0000000180020c5c f   libucrt:osfinfo.obj
 0001:0001fd04       __acrt_lowio_lock_fh       0000000180020d04 f   libucrt:osfinfo.obj
 0001:0001fd2c       __acrt_lowio_unlock_fh     0000000180020d2c f   libucrt:osfinfo.obj
 0001:0001fd54       _free_osfhnd               0000000180020d54 f   libucrt:osfinfo.obj
 0001:0001fe10       _get_osfhandle             0000000180020e10 f   libucrt:osfinfo.obj
 0001:0001fe90       qsort                      0000000180020e90 f   libucrt:qsort.obj
 0001:000202a0       strncpy_s                  00000001800212a0 f   libucrt:strncpy_s.obj
 0001:00020430       strpbrk                    0000000180021430 f   libucrt:strpbrk.obj
 0001:000207f8       _mbsdec                    00000001800217f8 f   libucrt:mbsdec.obj
 0001:00020800       _mbsdec_l                  0000000180021800 f   libucrt:mbsdec.obj
 0001:00020bb4       __acrt_LCMapStringA        0000000180021bb4 f   libucrt:lcmapstringa.obj
 0001:00020cf0       _commit                    0000000180021cf0 f   libucrt:commit.obj
 0001:000215a0       _write_internal            00000001800225a0 f   libucrt:write.obj
 0001:000216c8       _write_nolock              00000001800226c8 f   libucrt:write.obj
 0001:000219d8       __ascii_wcsnicmp           00000001800229d8 f   libucrt:wcsnicmp.obj
 0001:00021a24       _controlfp_s               0000000180022a24 f   libucrt:contrlfp.obj
 0001:00021a88       fegetenv                   0000000180022a88 f   libucrt:fegetenv.obj
 0001:00021aa8       fesetenv                   0000000180022aa8 f   libucrt:fesetenv.obj
 0001:00021af4       feholdexcept               0000000180022af4 f   libucrt:feholdexcept.obj
 0001:00021b44       ceil                       0000000180022b44 f   libucrt:ceil.obj
 0001:00021c10       log10                      0000000180022c10 f   libucrt:log10.obj
 0001:000221bc       __acrt_fenv_get_common_round_control 00000001800231bc f   libucrt:_fenvutils.obj
 0001:000221c8       __acrt_fenv_get_control    00000001800231c8 f   libucrt:_fenvutils.obj
 0001:000222ac       __acrt_fenv_get_status     00000001800232ac f   libucrt:_fenvutils.obj
 0001:00022304       __acrt_fenv_set_control    0000000180023304 f   libucrt:_fenvutils.obj
 0001:00022440       __acrt_fenv_set_status     0000000180023440 f   libucrt:_fenvutils.obj
 0001:000224b4       ?reset_and_return@__crt_mbstring@@YA_K_KPEAU_Mbstatet@@@Z 00000001800234b4 f   libucrt:common_utf8.obj
 0001:000224bc       ?return_illegal_sequence@__crt_mbstring@@YA_KPEAU_Mbstatet@@AEAV__crt_cached_ptd_host@@@Z 00000001800234bc f   libucrt:common_utf8.obj
 0001:000224d0       ?__mbrtoc32_utf8@__crt_mbstring@@YA_KPEA_UPEBD_KPEAU_Mbstatet@@AEAV__crt_cached_ptd_host@@@Z 00000001800234d0 f   libucrt:mbrtoc32.obj
 0001:000227cc       fclose                     00000001800237cc f   libucrt:fclose.obj
 0001:00022910       _lseeki64_nolock_internal  0000000180023910 f   libucrt:lseek.obj
 0001:00022918       _query_app_type            0000000180023918 f   libucrt:report_runtime_error.obj
 0001:00022920       __strncnt                  0000000180023920 f   libucrt:strncnt.obj
 0001:00022938       _putwch_nolock             0000000180023938 f   libucrt:putwch.obj
 0001:00022974       _clearfp                   0000000180023974 f   libucrt:ieee.obj
 0001:000229e4       _control87                 00000001800239e4 f   libucrt:ieee.obj
 0001:00022dd0       _handle_error              0000000180023dd0 f   libucrt:libm_error.obj
 0001:00022ef8       _handle_nan                0000000180023ef8 f   libucrt:libm_error.obj
 0001:00022f20       __acrt_initialize_fma3     0000000180023f20 f   libucrt:fma3_available.obj
 0001:00022f90       _log10_special             0000000180023f90 f   libucrt:log_special.obj
 0001:000230c0       _close_internal            00000001800240c0 f   libucrt:close.obj
 0001:00023184       _close_nolock_internal     0000000180024184 f   libucrt:close.obj
 0001:00023254       ?__acrt_stdio_free_stream@@YAXV__crt_stdio_stream@@@Z 0000000180024254 f   libucrt:stream.obj
 0001:00023270       __dcrt_lowio_ensure_console_output_initialized 0000000180024270 f   libucrt:initcon.obj
 0001:000232c4       __dcrt_terminate_console_output 00000001800242c4 f   libucrt:initcon.obj
 0001:000232e0       __dcrt_write_console       00000001800242e0 f   libucrt:initcon.obj
 0001:000233b0       _get_fpsr                  00000001800243b0 f   libucrt:fpsr.obj
 0001:000233c0       _set_fpsr                  00000001800243c0 f   libucrt:fpsr.obj
 0001:000233ca       _fclrf                     00000001800243ca f   libucrt:fpsr.obj
 0001:000233de       _frnd                      00000001800243de f   libucrt:fpsr.obj
 0001:00023400       _raise_exc                 0000000180024400 f   libucrt:fpexcept.obj
 0001:00023428       _raise_exc_ex              0000000180024428 f   libucrt:fpexcept.obj
 0001:00023738       _set_errno_from_matherr    0000000180024738 f   libucrt:fpexcept.obj
 0001:00023768       _clrfp                     0000000180024768 f   libucrt:fpctrl.obj
 0001:00023788       _ctrlfp                    0000000180024788 f   libucrt:fpctrl.obj
 0001:00023804       _set_statfp                0000000180024804 f   libucrt:fpctrl.obj
 0001:00023824       _statfp                    0000000180024824 f   libucrt:fpctrl.obj
 0001:00023840       _FindPESection             0000000180024840 f   LIBCMT:pesect.obj
 0001:00023890       _IsNonwritableInCurrentImage 0000000180024890 f   LIBCMT:pesect.obj
 0001:000238e0       _ValidateImageBase         00000001800248e0 f   LIBCMT:pesect.obj
 0001:0002390c       __GSHandlerCheck_EH        000000018002490c f   LIBCMT:gshandlereh.obj
 0001:0002398c       __C_specific_handler_noexcept 000000018002498c f   libvcruntime:chandler_noexcept.obj
 0001:000239d8       strrchr                    00000001800249d8 f   libvcruntime:strrchr.obj
 0001:00023b30       _guard_dispatch_icall_nop  0000000180024b30 f   LIBCMT:guard_dispatch.obj
 0001:00023b50       _guard_xfg_dispatch_icall_nop 0000000180024b50 f   LIBCMT:guard_xfg_dispatch.obj
 0002:00000000       __imp_RegQueryValueExW     0000000180026000     advapi32:ADVAPI32.dll
 0002:00000008       __imp_RegSetValueExW       0000000180026008     advapi32:ADVAPI32.dll
 0002:00000010       __imp_RegQueryInfoKeyW     0000000180026010     advapi32:ADVAPI32.dll
 0002:00000018       __imp_RegOpenKeyExW        0000000180026018     advapi32:ADVAPI32.dll
 0002:00000020       __imp_RegEnumKeyExW        0000000180026020     advapi32:ADVAPI32.dll
 0002:00000028       __imp_RegDeleteValueW      0000000180026028     advapi32:ADVAPI32.dll
 0002:00000030       __imp_RegDeleteKeyW        0000000180026030     advapi32:ADVAPI32.dll
 0002:00000038       __imp_RegCreateKeyExW      0000000180026038     advapi32:ADVAPI32.dll
 0002:00000040       __imp_RegCloseKey          0000000180026040     advapi32:ADVAPI32.dll
 0002:00000048       \177ADVAPI32_NULL_THUNK_DATA 0000000180026048     advapi32:ADVAPI32.dll
 0002:00000050       __imp_GetObjectW           0000000180026050     gdi32:GDI32.dll
 0002:00000058       __imp_SelectObject         0000000180026058     gdi32:GDI32.dll
 0002:00000060       __imp_DeleteObject         0000000180026060     gdi32:GDI32.dll
 0002:00000068       __imp_CreateCompatibleDC   0000000180026068     gdi32:GDI32.dll
 0002:00000070       __imp_BitBlt               0000000180026070     gdi32:GDI32.dll
 0002:00000078       __imp_SetWindowOrgEx       0000000180026078     gdi32:GDI32.dll
 0002:00000080       __imp_SetWindowExtEx       0000000180026080     gdi32:GDI32.dll
 0002:00000088       __imp_SetViewportOrgEx     0000000180026088     gdi32:GDI32.dll
 0002:00000090       __imp_LPtoDP               0000000180026090     gdi32:GDI32.dll
 0002:00000098       __imp_SetMapMode           0000000180026098     gdi32:GDI32.dll
 0002:000000a0       __imp_SaveDC               00000001800260a0     gdi32:GDI32.dll
 0002:000000a8       __imp_RestoreDC            00000001800260a8     gdi32:GDI32.dll
 0002:000000b0       __imp_GetDeviceCaps        00000001800260b0     gdi32:GDI32.dll
 0002:000000b8       __imp_DeleteMetaFile       00000001800260b8     gdi32:GDI32.dll
 0002:000000c0       __imp_DeleteDC             00000001800260c0     gdi32:GDI32.dll
 0002:000000c8       __imp_CreateRectRgnIndirect 00000001800260c8     gdi32:GDI32.dll
 0002:000000d0       __imp_CreateMetaFileW      00000001800260d0     gdi32:GDI32.dll
 0002:000000d8       __imp_CreateDCW            00000001800260d8     gdi32:GDI32.dll
 0002:000000e0       __imp_CloseMetaFile        00000001800260e0     gdi32:GDI32.dll
 0002:000000e8       \177GDI32_NULL_THUNK_DATA  00000001800260e8     gdi32:GDI32.dll
 0002:000000f0       __imp_CloseHandle          00000001800260f0     kernel32:KERNEL32.dll
 0002:000000f8       __imp_SetEvent             00000001800260f8     kernel32:KERNEL32.dll
 0002:00000100       __imp_CreateMutexW         0000000180026100     kernel32:KERNEL32.dll
 0002:00000108       __imp_CreateEventW         0000000180026108     kernel32:KERNEL32.dll
 0002:00000110       __imp_GetCurrentProcessId  0000000180026110     kernel32:KERNEL32.dll
 0002:00000118       __imp_WriteConsoleW        0000000180026118     kernel32:KERNEL32.dll
 0002:00000120       __imp_CreateFileW          0000000180026120     kernel32:KERNEL32.dll
 0002:00000128       __imp_GetConsoleMode       0000000180026128     kernel32:KERNEL32.dll
 0002:00000130       __imp_GetConsoleOutputCP   0000000180026130     kernel32:KERNEL32.dll
 0002:00000138       __imp_WriteFile            0000000180026138     kernel32:KERNEL32.dll
 0002:00000140       __imp_FlushFileBuffers     0000000180026140     kernel32:KERNEL32.dll
 0002:00000148       __imp_SetStdHandle         0000000180026148     kernel32:KERNEL32.dll
 0002:00000150       __imp_SetFilePointerEx     0000000180026150     kernel32:KERNEL32.dll
 0002:00000158       __imp_GetStringTypeW       0000000180026158     kernel32:KERNEL32.dll
 0002:00000160       __imp_FreeEnvironmentStringsW 0000000180026160     kernel32:KERNEL32.dll
 0002:00000168       __imp_lstrcmpiW            0000000180026168     kernel32:KERNEL32.dll
 0002:00000170       __imp_GetCommandLineW      0000000180026170     kernel32:KERNEL32.dll
 0002:00000178       __imp_GetCommandLineA      0000000180026178     kernel32:KERNEL32.dll
 0002:00000180       __imp_GetCPInfo            0000000180026180     kernel32:KERNEL32.dll
 0002:00000188       __imp_GetOEMCP             0000000180026188     kernel32:KERNEL32.dll
 0002:00000190       __imp_GetACP               0000000180026190     kernel32:KERNEL32.dll
 0002:00000198       __imp_IsValidCodePage      0000000180026198     kernel32:KERNEL32.dll
 0002:000001a0       __imp_FindNextFileW        00000001800261a0     kernel32:KERNEL32.dll
 0002:000001a8       __imp_FindFirstFileExW     00000001800261a8     kernel32:KERNEL32.dll
 0002:000001b0       __imp_FindClose            00000001800261b0     kernel32:KERNEL32.dll
 0002:000001b8       __imp_GetFileType          00000001800261b8     kernel32:KERNEL32.dll
 0002:000001c0       __imp_GetStdHandle         00000001800261c0     kernel32:KERNEL32.dll
 0002:000001c8       __imp_LCMapStringW         00000001800261c8     kernel32:KERNEL32.dll
 0002:000001d0       __imp_FlsFree              00000001800261d0     kernel32:KERNEL32.dll
 0002:000001d8       __imp_FlsSetValue          00000001800261d8     kernel32:KERNEL32.dll
 0002:000001e0       __imp_MulDiv               00000001800261e0     kernel32:KERNEL32.dll
 0002:000001e8       __imp_GlobalLock           00000001800261e8     kernel32:KERNEL32.dll
 0002:000001f0       __imp_GlobalUnlock         00000001800261f0     kernel32:KERNEL32.dll
 0002:000001f8       __imp_GlobalAlloc          00000001800261f8     kernel32:KERNEL32.dll
 0002:00000200       __imp_FindResourceW        0000000180026200     kernel32:KERNEL32.dll
 0002:00000208       __imp_SizeofResource       0000000180026208     kernel32:KERNEL32.dll
 0002:00000210       __imp_LoadResource         0000000180026210     kernel32:KERNEL32.dll
 0002:00000218       __imp_LoadLibraryExW       0000000180026218     kernel32:KERNEL32.dll
 0002:00000220       __imp_GetProcAddress       0000000180026220     kernel32:KERNEL32.dll
 0002:00000228       __imp_GetModuleHandleW     0000000180026228     kernel32:KERNEL32.dll
 0002:00000230       __imp_GetModuleFileNameW   0000000180026230     kernel32:KERNEL32.dll
 0002:00000238       __imp_FreeLibrary          0000000180026238     kernel32:KERNEL32.dll
 0002:00000240       __imp_DisableThreadLibraryCalls 0000000180026240     kernel32:KERNEL32.dll
 0002:00000248       __imp_GetCurrentThreadId   0000000180026248     kernel32:KERNEL32.dll
 0002:00000250       __imp_Sleep                0000000180026250     kernel32:KERNEL32.dll
 0002:00000258       __imp_WaitForSingleObject  0000000180026258     kernel32:KERNEL32.dll
 0002:00000260       __imp_ReleaseMutex         0000000180026260     kernel32:KERNEL32.dll
 0002:00000268       __imp_ResetEvent           0000000180026268     kernel32:KERNEL32.dll
 0002:00000270       __imp_EnterCriticalSection 0000000180026270     kernel32:KERNEL32.dll
 0002:00000278       __imp_LeaveCriticalSection 0000000180026278     kernel32:KERNEL32.dll
 0002:00000280       __imp_SetLastError         0000000180026280     kernel32:KERNEL32.dll
 0002:00000288       __imp_EncodePointer        0000000180026288     kernel32:KERNEL32.dll
 0002:00000290       __imp_DeleteCriticalSection 0000000180026290     kernel32:KERNEL32.dll
 0002:00000298       __imp_InitializeCriticalSectionEx 0000000180026298     kernel32:KERNEL32.dll
 0002:000002a0       __imp_GetLastError         00000001800262a0     kernel32:KERNEL32.dll
 0002:000002a8       __imp_RaiseException       00000001800262a8     kernel32:KERNEL32.dll
 0002:000002b0       __imp_DecodePointer        00000001800262b0     kernel32:KERNEL32.dll
 0002:000002b8       __imp_WideCharToMultiByte  00000001800262b8     kernel32:KERNEL32.dll
 0002:000002c0       __imp_GetEnvironmentStringsW 00000001800262c0     kernel32:KERNEL32.dll
 0002:000002c8       __imp_MultiByteToWideChar  00000001800262c8     kernel32:KERNEL32.dll
 0002:000002d0       __imp_FlsGetValue          00000001800262d0     kernel32:KERNEL32.dll
 0002:000002d8       __imp_FlsAlloc             00000001800262d8     kernel32:KERNEL32.dll
 0002:000002e0       __imp_HeapReAlloc          00000001800262e0     kernel32:KERNEL32.dll
 0002:000002e8       __imp_HeapSize             00000001800262e8     kernel32:KERNEL32.dll
 0002:000002f0       __imp_GetModuleHandleExW   00000001800262f0     kernel32:KERNEL32.dll
 0002:000002f8       __imp_ExitProcess          00000001800262f8     kernel32:KERNEL32.dll
 0002:00000300       __imp_VirtualQuery         0000000180026300     kernel32:KERNEL32.dll
 0002:00000308       __imp_VirtualProtect       0000000180026308     kernel32:KERNEL32.dll
 0002:00000310       __imp_GetSystemInfo        0000000180026310     kernel32:KERNEL32.dll
 0002:00000318       __imp_TlsFree              0000000180026318     kernel32:KERNEL32.dll
 0002:00000320       __imp_TlsSetValue          0000000180026320     kernel32:KERNEL32.dll
 0002:00000328       __imp_TlsGetValue          0000000180026328     kernel32:KERNEL32.dll
 0002:00000330       __imp_TlsAlloc             0000000180026330     kernel32:KERNEL32.dll
 0002:00000338       __imp_RtlPcToFileHeader    0000000180026338     kernel32:KERNEL32.dll
 0002:00000340       __imp_InterlockedFlushSList 0000000180026340     kernel32:KERNEL32.dll
 0002:00000348       __imp_RtlUnwindEx          0000000180026348     kernel32:KERNEL32.dll
 0002:00000350       __imp_LoadLibraryExA       0000000180026350     kernel32:KERNEL32.dll
 0002:00000358       __imp_VirtualFree          0000000180026358     kernel32:KERNEL32.dll
 0002:00000360       __imp_VirtualAlloc         0000000180026360     kernel32:KERNEL32.dll
 0002:00000368       __imp_FlushInstructionCache 0000000180026368     kernel32:KERNEL32.dll
 0002:00000370       __imp_InterlockedPushEntrySList 0000000180026370     kernel32:KERNEL32.dll
 0002:00000378       __imp_InterlockedPopEntrySList 0000000180026378     kernel32:KERNEL32.dll
 0002:00000380       __imp_GetProcessHeap       0000000180026380     kernel32:KERNEL32.dll
 0002:00000388       __imp_HeapFree             0000000180026388     kernel32:KERNEL32.dll
 0002:00000390       __imp_HeapAlloc            0000000180026390     kernel32:KERNEL32.dll
 0002:00000398       __imp_OutputDebugStringW   0000000180026398     kernel32:KERNEL32.dll
 0002:000003a0       __imp_InitializeSListHead  00000001800263a0     kernel32:KERNEL32.dll
 0002:000003a8       __imp_GetSystemTimeAsFileTime 00000001800263a8     kernel32:KERNEL32.dll
 0002:000003b0       __imp_QueryPerformanceCounter 00000001800263b0     kernel32:KERNEL32.dll
 0002:000003b8       __imp_GetStartupInfoW      00000001800263b8     kernel32:KERNEL32.dll
 0002:000003c0       __imp_InitializeCriticalSectionAndSpinCount 00000001800263c0     kernel32:KERNEL32.dll
 0002:000003c8       __imp_WaitForSingleObjectEx 00000001800263c8     kernel32:KERNEL32.dll
 0002:000003d0       __imp_RtlCaptureContext    00000001800263d0     kernel32:KERNEL32.dll
 0002:000003d8       __imp_RtlLookupFunctionEntry 00000001800263d8     kernel32:KERNEL32.dll
 0002:000003e0       __imp_RtlVirtualUnwind     00000001800263e0     kernel32:KERNEL32.dll
 0002:000003e8       __imp_UnhandledExceptionFilter 00000001800263e8     kernel32:KERNEL32.dll
 0002:000003f0       __imp_SetUnhandledExceptionFilter 00000001800263f0     kernel32:KERNEL32.dll
 0002:000003f8       __imp_GetCurrentProcess    00000001800263f8     kernel32:KERNEL32.dll
 0002:00000400       __imp_TerminateProcess     0000000180026400     kernel32:KERNEL32.dll
 0002:00000408       __imp_IsProcessorFeaturePresent 0000000180026408     kernel32:KERNEL32.dll
 0002:00000410       __imp_IsDebuggerPresent    0000000180026410     kernel32:KERNEL32.dll
 0002:00000418       \177KERNEL32_NULL_THUNK_DATA 0000000180026418     kernel32:KERNEL32.dll
 0002:00000420       __imp_OleCreatePropertyFrame 0000000180026420     oleaut32:OLEAUT32.dll
 0002:00000428       __imp_UnRegisterTypeLib    0000000180026428     oleaut32:OLEAUT32.dll
 0002:00000430       __imp_RegisterTypeLib      0000000180026430     oleaut32:OLEAUT32.dll
 0002:00000438       __imp_LoadRegTypeLib       0000000180026438     oleaut32:OLEAUT32.dll
 0002:00000440       __imp_LoadTypeLib          0000000180026440     oleaut32:OLEAUT32.dll
 0002:00000448       __imp_VarUI4FromStr        0000000180026448     oleaut32:OLEAUT32.dll
 0002:00000450       __imp_VariantInit          0000000180026450     oleaut32:OLEAUT32.dll
 0002:00000458       __imp_SysAllocStringByteLen 0000000180026458     oleaut32:OLEAUT32.dll
 0002:00000460       __imp_SysStringByteLen     0000000180026460     oleaut32:OLEAUT32.dll
 0002:00000468       __imp_VariantChangeType    0000000180026468     oleaut32:OLEAUT32.dll
 0002:00000470       __imp_VariantClear         0000000180026470     oleaut32:OLEAUT32.dll
 0002:00000478       __imp_SysStringLen         0000000180026478     oleaut32:OLEAUT32.dll
 0002:00000480       __imp_SysFreeString        0000000180026480     oleaut32:OLEAUT32.dll
 0002:00000488       __imp_SysAllocStringLen    0000000180026488     oleaut32:OLEAUT32.dll
 0002:00000490       __imp_SysAllocString       0000000180026490     oleaut32:OLEAUT32.dll
 0002:00000498       \177OLEAUT32_NULL_THUNK_DATA 0000000180026498     oleaut32:OLEAUT32.dll
 0002:000004a0       __imp_UnregisterClassW     00000001800264a0     user32:USER32.dll
 0002:000004a8       __imp_PostMessageW         00000001800264a8     user32:USER32.dll
 0002:000004b0       __imp_DefWindowProcW       00000001800264b0     user32:USER32.dll
 0002:000004b8       __imp_CallWindowProcW      00000001800264b8     user32:USER32.dll
 0002:000004c0       __imp_RegisterClassExW     00000001800264c0     user32:USER32.dll
 0002:000004c8       __imp_GetClassInfoExW      00000001800264c8     user32:USER32.dll
 0002:000004d0       __imp_CreateWindowExW      00000001800264d0     user32:USER32.dll
 0002:000004d8       __imp_IsWindow             00000001800264d8     user32:USER32.dll
 0002:000004e0       __imp_IsChild              00000001800264e0     user32:USER32.dll
 0002:000004e8       __imp_DestroyWindow        00000001800264e8     user32:USER32.dll
 0002:000004f0       __imp_ShowWindow           00000001800264f0     user32:USER32.dll
 0002:000004f8       __imp_SetWindowPos         00000001800264f8     user32:USER32.dll
 0002:00000500       __imp_CharNextW            0000000180026500     user32:USER32.dll
 0002:00000508       __imp_SetFocus             0000000180026508     user32:USER32.dll
 0002:00000510       __imp_LoadBitmapW          0000000180026510     user32:USER32.dll
 0002:00000518       __imp_RegisterClassW       0000000180026518     user32:USER32.dll
 0002:00000520       __imp_PeekMessageW         0000000180026520     user32:USER32.dll
 0002:00000528       __imp_LoadCursorW          0000000180026528     user32:USER32.dll
 0002:00000530       __imp_GetParent            0000000180026530     user32:USER32.dll
 0002:00000538       __imp_SetWindowLongPtrW    0000000180026538     user32:USER32.dll
 0002:00000540       __imp_GetWindowLongPtrW    0000000180026540     user32:USER32.dll
 0002:00000548       __imp_PtInRect             0000000180026548     user32:USER32.dll
 0002:00000550       __imp_EqualRect            0000000180026550     user32:USER32.dll
 0002:00000558       __imp_OffsetRect           0000000180026558     user32:USER32.dll
 0002:00000560       __imp_UnionRect            0000000180026560     user32:USER32.dll
 0002:00000568       __imp_IntersectRect        0000000180026568     user32:USER32.dll
 0002:00000570       __imp_GetClientRect        0000000180026570     user32:USER32.dll
 0002:00000578       __imp_InvalidateRect       0000000180026578     user32:USER32.dll
 0002:00000580       __imp_SetWindowRgn         0000000180026580     user32:USER32.dll
 0002:00000588       __imp_EndPaint             0000000180026588     user32:USER32.dll
 0002:00000590       __imp_BeginPaint           0000000180026590     user32:USER32.dll
 0002:00000598       __imp_ReleaseDC            0000000180026598     user32:USER32.dll
 0002:000005a0       __imp_GetDC                00000001800265a0     user32:USER32.dll
 0002:000005a8       __imp_GetKeyState          00000001800265a8     user32:USER32.dll
 0002:000005b0       __imp_GetFocus             00000001800265b0     user32:USER32.dll
 0002:000005b8       \177USER32_NULL_THUNK_DATA 00000001800265b8     user32:USER32.dll
 0002:000005c0       __imp_CoCreateInstance     00000001800265c0     ole32:ole32.dll
 0002:000005c8       __imp_StringFromGUID2      00000001800265c8     ole32:ole32.dll
 0002:000005d0       __imp_CoTaskMemAlloc       00000001800265d0     ole32:ole32.dll
 0002:000005d8       __imp_CoTaskMemRealloc     00000001800265d8     ole32:ole32.dll
 0002:000005e0       __imp_CoTaskMemFree        00000001800265e0     ole32:ole32.dll
 0002:000005e8       __imp_WriteClassStm        00000001800265e8     ole32:ole32.dll
 0002:000005f0       __imp_CreateDataAdviseHolder 00000001800265f0     ole32:ole32.dll
 0002:000005f8       __imp_OleSaveToStream      00000001800265f8     ole32:ole32.dll
 0002:00000600       __imp_CreateOleAdviseHolder 0000000180026600     ole32:ole32.dll
 0002:00000608       __imp_OleRegGetUserType    0000000180026608     ole32:ole32.dll
 0002:00000610       __imp_OleRegGetMiscStatus  0000000180026610     ole32:ole32.dll
 0002:00000618       __imp_OleRegEnumVerbs      0000000180026618     ole32:ole32.dll
 0002:00000620       __imp_CLSIDFromProgID      0000000180026620     ole32:ole32.dll
 0002:00000628       __imp_ReadClassStm         0000000180026628     ole32:ole32.dll
 0002:00000630       \177ole32_NULL_THUNK_DATA  0000000180026630     ole32:ole32.dll
 0002:00000638       __guard_check_icall_fptr   0000000180026638     LIBCMT:guard_support.obj
 0002:00000640       __guard_xfg_check_icall_fptr 0000000180026640     LIBCMT:guard_support.obj
 0002:00000648       __guard_dispatch_icall_fptr 0000000180026648     LIBCMT:guard_support.obj
 0002:00000650       __guard_xfg_dispatch_icall_fptr 0000000180026650     LIBCMT:guard_support.obj
 0002:00000658       __guard_xfg_table_dispatch_icall_fptr 0000000180026658     LIBCMT:guard_support.obj
 0002:00000660       __castguard_check_failure_os_handled_fptr 0000000180026660     LIBCMT:guard_support.obj
 0002:00000668       __xc_a                     0000000180026668     LIBCMT:initializers.obj
 0002:00000698       __xc_z                     0000000180026698     LIBCMT:initializers.obj
 0002:000006a0       __xi_a                     00000001800266a0     LIBCMT:initializers.obj
 0002:000006b0       __acrt_stdio_initializer   00000001800266b0     libucrt:stdio_initializer.obj
 0002:000006b8       __acrt_multibyte_initializer 00000001800266b8     libucrt:multibyte_initializer.obj
 0002:000006c0       __acrt_tran_fma3_initializer 00000001800266c0     libucrt:fma3_initializer.obj
 0002:000006c8       __xi_z                     00000001800266c8     LIBCMT:initializers.obj
 0002:000006d0       __xl_a                     00000001800266d0     LIBCMT:tlssup.obj
 0002:000006d8       __xl_z                     00000001800266d8     LIBCMT:tlssup.obj
 0002:000006e0       __xp_a                     00000001800266e0     LIBCMT:initializers.obj
 0002:000006e8       __acrt_locale_terminator   00000001800266e8     libucrt:locale_initializer.obj
 0002:000006f0       __dcrt_console_output_terminator 00000001800266f0     libucrt:console_output_initializer.obj
 0002:000006f8       __acrt_stdio_terminator    00000001800266f8     libucrt:stdio_initializer.obj
 0002:00000700       __xp_z                     0000000180026700     LIBCMT:initializers.obj
 0002:00000708       __xt_a                     0000000180026708     LIBCMT:initializers.obj
 0002:00000710       __xt_z                     0000000180026710     LIBCMT:initializers.obj
 0002:00000720       ??_C@_13HADIAKP@?$AAS@     0000000180026720     OposVariant.obj
 0002:00000724       ??_C@_13LHMFKAAD@?$AAM@    0000000180026724     OposVariant.obj
 0002:00000728       ??_C@_13MKMNOPIJ@?$AAD@    0000000180026728     OposVariant.obj
 0002:0000072c       ??_C@_13OPKGLAFF@?$AAB@    000000018002672c     OposVariant.obj
 0002:00000730       ??_C@_17LLMMEOJD@?$AAV?$AAa?$AAl@ 0000000180026730     OposVariant.obj
 0002:00000738       ??_C@_1BI@JFAIJMHL@?$AAF?$AAo?$AAr?$AAc?$AAe?$AAR?$AAe?$AAm?$AAo?$AAv?$AAe@ 0000000180026738     OposVariant.obj
 0002:00000750       ??_C@_1BC@GCKHIPE@?$AAN?$AAo?$AAR?$AAe?$AAm?$AAo?$AAv?$AAe@ 0000000180026750     OposVariant.obj
 0002:00000768       ??_C@_1O@JDLOHAN@?$AAD?$AAe?$AAl?$AAe?$AAt?$AAe@ 0000000180026768     OposVariant.obj
 0002:00000778       ??_C@_11LOCGONAA@@         0000000180026778     OposVariant.obj
 0002:00000780       ??_7?$CComObject@V?$CComEnum@UIEnumConnections@@$1?_GUID_b196b287_bab4_101a_b69c_00aa00341d07@@3U__s_GUID@@BUtagCONNECTDATA@@V?$_Copy@UtagCONNECTDATA@@@ATL@@VCComSingleThreadModel@6@@ATL@@@ATL@@6B@ 0000000180026780     BillDispenser.obj
 0002:000007c0       _GUID_55980ba0_35aa_11cf_b671_00aa004cd6d8 00000001800267c0     BillDispenser.obj
 0002:000007d0       _GUID_b196b28b_bab4_101a_b69c_00aa00341d07 00000001800267d0     BillDispenser.obj
 0002:000007e0       ?_entries@?1??_GetEntries@?$CComEnum@UIEnumConnections@@$1?_GUID_b196b287_bab4_101a_b69c_00aa00341d07@@3U__s_GUID@@BUtagCONNECTDATA@@V?$_Copy@UtagCONNECTDATA@@@ATL@@VCComSingleThreadModel@6@@ATL@@SAPEBU_ATL_INTMAP_ENTRY@3@XZ@4QBU43@B 00000001800267e0     BillDispenser.obj
 0002:00000810       ??_7CComClassFactory@ATL@@6B@ 0000000180026810     BillDispenser.obj
 0002:00000840       ?_entries@?1??_GetEntries@CComClassFactory@ATL@@SAPEBU_ATL_INTMAP_ENTRY@3@XZ@4QBU43@B 0000000180026840     BillDispenser.obj
 0002:00000870       _GUID_00000001_0000_0000_c000_000000000046 0000000180026870     BillDispenser.obj
 0002:00000880       IID_IOPOSBillDispenser_1_11 0000000180026880     BillDispenser.obj
 0002:00000890       IID_IOPOSBillDispenser     0000000180026890     BillDispenser.obj
 0002:000008a0       LIBID_OposBillDispenser_CCO 00000001800268a0     BillDispenser.obj
 0002:000008b0       DIID__IOPOSBillDispenserEvents 00000001800268b0     BillDispenser.obj
 0002:000008c0       CLSID_OPOSBillDispenser    00000001800268c0     BillDispenser.obj
 0002:000008d0       ??_C@_1BK@BIGILECK@?$AAA?$AAd?$AAv?$AAa?$AAp?$AAi?$AA3?$AA2?$AA?4?$AAd?$AAl?$AAl@ 00000001800268d0     BillDispenser.obj
 0002:000008f0       ??_C@_0BI@MNCFCPFK@RegCreateKeyTransactedW@ 00000001800268f0     BillDispenser.obj
 0002:00000908       _GUID_00000114_0000_0000_c000_000000000046 0000000180026908     BillDispenser.obj
 0002:00000918       _GUID_b196b287_bab4_101a_b69c_00aa00341d07 0000000180026918     BillDispenser.obj
 0002:00000928       _GUID_b196b285_bab4_101a_b69c_00aa00341d07 0000000180026928     BillDispenser.obj
 0002:00000938       _GUID_a6bc3ac0_dbaa_11ce_9de3_00aa004bb851 0000000180026938     BillDispenser.obj
 0002:00000948       _GUID_0000010c_0000_0000_c000_000000000046 0000000180026948     BillDispenser.obj
 0002:00000958       _GUID_00000146_0000_0000_c000_000000000046 0000000180026958     BillDispenser.obj
 0002:00000970       ?_entries@?1??_GetEntries@COPOSBillDispenser@@SAPEBU_ATL_INTMAP_ENTRY@ATL@@XZ@4QBU34@B 0000000180026970     BillDispenser.obj
 0002:00000bb0       _GUID_cf51ed10_62fe_11cf_bf86_00a0c9034836 0000000180026bb0     BillDispenser.obj
 0002:00000bc0       _GUID_0000010a_0000_0000_c000_000000000046 0000000180026bc0     BillDispenser.obj
 0002:00000bd0       _GUID_b196b283_bab4_101a_b69c_00aa00341d07 0000000180026bd0     BillDispenser.obj
 0002:00000be0       _GUID_cb5bdc81_93c1_11cf_8f20_00805f2cd064 0000000180026be0     BillDispenser.obj
 0002:00000bf0       ?pPropMap@?1??GetPropertyMap@COPOSBillDispenser@@SAPEBUATL_PROPMAP_ENTRY@ATL@@XZ@4QBU34@B 0000000180026bf0     BillDispenser.obj
 0002:00000c98       ??_C@_17DGDADEHL@?$AA_?$AAc?$AAx@ 0000000180026c98     BillDispenser.obj
 0002:00000ca0       ??_C@_17IOIMFDBO@?$AA_?$AAc?$AAy@ 0000000180026ca0     BillDispenser.obj
 0002:00000ca8       ??_7CComModule@ATL@@6B@    0000000180026ca8     BillDispenser.obj
 0002:00000cf8       _GUID_00000000_0000_0000_c000_000000000046 0000000180026cf8     BillDispenser.obj
 0002:00000d08       _GUID_00020400_0000_0000_c000_000000000046 0000000180026d08     BillDispenser.obj
 0002:00000d18       _GUID_922eada0_3424_11cf_b670_00aa004cd6d8 0000000180026d18     BillDispenser.obj
 0002:00000d28       _GUID_9c2cad80_3424_11cf_b670_00aa004cd6d8 0000000180026d28     BillDispenser.obj
 0002:00000d38       _GUID_00000119_0000_0000_c000_000000000046 0000000180026d38     BillDispenser.obj
 0002:00000d48       ??_7?$CComObjectCached@VCComClassFactory@ATL@@@ATL@@6B@ 0000000180026d48     BillDispenser.obj
 0002:00000d78       _GUID_b196b289_bab4_101a_b69c_00aa00341d07 0000000180026d78     BillDispenser.obj
 0002:00000d88       ??_C@_1CE@PGFMOFKI@?$AAS?$AAt?$AAa?$AAt?$AAu?$AAs?$AAU?$AAp?$AAd?$AAa?$AAt?$AAe?$AAE?$AAv?$AAe@ 0000000180026d88     BillDispenser.obj
 0002:00000db0       ??_C@_1BM@CBGEBBBJ@?$AAD?$AAi?$AAr?$AAe?$AAc?$AAt?$AAI?$AAO?$AAE?$AAv?$AAe?$AAn?$AAt@ 0000000180026db0     BillDispenser.obj
 0002:00000dd0       _GUID_b196b286_bab4_101a_b69c_00aa00341d07 0000000180026dd0     BillDispenser.obj
 0002:00000de0       _GUID_00000117_0000_0000_c000_000000000046 0000000180026de0     BillDispenser.obj
 0002:00000df0       ??_C@_1BC@ENICKDH@?$AAC?$AAo?$AAn?$AAt?$AAe?$AAn?$AAt?$AAs@ 0000000180026df0     BillDispenser.obj
 0002:00000e08       ??_7?$CComObject@V?$CComEnum@UIEnumConnectionPoints@@$1?_GUID_b196b285_bab4_101a_b69c_00aa00341d07@@3U__s_GUID@@BPEAUIConnectionPoint@@V?$_CopyInterface@UIConnectionPoint@@@ATL@@VCComSingleThreadModel@6@@ATL@@@ATL@@6B@ 0000000180026e08     BillDispenser.obj
 0002:00000e48       ??_C@_1M@KANJNLFF@?$AAC?$AAL?$AAS?$AAI?$AAD@ 0000000180026e48     BillDispenser.obj
 0002:00000e58       ??_C@_1M@EJNEECMJ@?$AAA?$AAp?$AAp?$AAI?$AAD@ 0000000180026e58     BillDispenser.obj
 0002:00000e68       _GUID_0000010e_0000_0000_c000_000000000046 0000000180026e68     BillDispenser.obj
 0002:00000e80       ?rgszNeverDelete@CRegParser@ATL@@1QBQEB_WB 0000000180026e80     BillDispenser.obj
 0002:00000ee0       _GUID_b196b288_bab4_101a_b69c_00aa00341d07 0000000180026ee0     BillDispenser.obj
 0002:00000ef0       ??_7CRegObject@ATL@@6B@    0000000180026ef0     BillDispenser.obj
 0002:00000f20       _GUID_00000113_0000_0000_c000_000000000046 0000000180026f20     BillDispenser.obj
 0002:00000f30       ??_C@_1CK@OEKPKBNA@?$AAC?$AAo?$AAm?$AAp?$AAo?$AAn?$AAe?$AAn?$AAt?$AA?5?$AAC?$AAa?$AAt?$AAe?$AAg@ 0000000180026f30     BillDispenser.obj
 0002:00000f60       ??_C@_1BC@NKMMNMGL@?$AAF?$AAi?$AAl?$AAe?$AAT?$AAy?$AAp?$AAe@ 0000000180026f60     BillDispenser.obj
 0002:00000f78       ??_C@_1BE@EKPAFMCP@?$AAI?$AAn?$AAt?$AAe?$AAr?$AAf?$AAa?$AAc?$AAe@ 0000000180026f78     BillDispenser.obj
 0002:00000f90       ??_C@_1BC@MAICEHGI@?$AAH?$AAa?$AAr?$AAd?$AAw?$AAa?$AAr?$AAe@ 0000000180026f90     BillDispenser.obj
 0002:00000fa8       ??_C@_19HLLLM@?$AAM?$AAi?$AAm?$AAe@ 0000000180026fa8     BillDispenser.obj
 0002:00000fb8       ??_C@_17OMAOINJK@?$AAS?$AAA?$AAM@ 0000000180026fb8     BillDispenser.obj
 0002:00000fc0       ??_C@_1BC@IBECJAAI@?$AAS?$AAE?$AAC?$AAU?$AAR?$AAI?$AAT?$AAY@ 0000000180026fc0     BillDispenser.obj
 0002:00000fd8       ??_C@_1O@GBFINDKL@?$AAS?$AAY?$AAS?$AAT?$AAE?$AAM@ 0000000180026fd8     BillDispenser.obj
 0002:00000fe8       ??_C@_1BC@EAHCMADO@?$AAS?$AAo?$AAf?$AAt?$AAw?$AAa?$AAr?$AAe@ 0000000180026fe8     BillDispenser.obj
 0002:00001000       ??_C@_1BA@JIHHIEDE@?$AAT?$AAy?$AAp?$AAe?$AAL?$AAi?$AAb@ 0000000180027000     BillDispenser.obj
 0002:00001010       _GUID_1c2056cc_5ef4_101b_8bc8_00aa003e3b29 0000000180027010     BillDispenser.obj
 0002:00001020       ?map@?1??HKeyFromString@CRegParser@ATL@@KAPEAUHKEY__@@PEA_W@Z@4QBUkeymap@?1??123@KAPEAU4@0@Z@B 0000000180027020     BillDispenser.obj
 0002:00001100       ??_C@_19NCHLBIN@?$AAH?$AAK?$AAC?$AAR@ 0000000180027100     BillDispenser.obj
 0002:00001110       ??_C@_19JAPAIJDE@?$AAH?$AAK?$AAC?$AAU@ 0000000180027110     BillDispenser.obj
 0002:00001120       ??_C@_19PEALEEJB@?$AAH?$AAK?$AAL?$AAM@ 0000000180027120     BillDispenser.obj
 0002:00001130       ??_C@_17PJOJPMPB@?$AAH?$AAK?$AAU@ 0000000180027130     BillDispenser.obj
 0002:00001138       ??_C@_19PNBHMJPL@?$AAH?$AAK?$AAP?$AAD@ 0000000180027138     BillDispenser.obj
 0002:00001148       ??_C@_19GFFAIJHG@?$AAH?$AAK?$AAD?$AAD@ 0000000180027148     BillDispenser.obj
 0002:00001158       ??_C@_19OFICIBHH@?$AAH?$AAK?$AAC?$AAC@ 0000000180027158     BillDispenser.obj
 0002:00001168       ??_C@_1CE@PACHPJFI@?$AAH?$AAK?$AAE?$AAY?$AA_?$AAC?$AAL?$AAA?$AAS?$AAS?$AAE?$AAS?$AA_?$AAR?$AAO@ 0000000180027168     BillDispenser.obj
 0002:00001190       ??_C@_1CE@HLHNCBPM@?$AAH?$AAK?$AAE?$AAY?$AA_?$AAC?$AAU?$AAR?$AAR?$AAE?$AAN?$AAT?$AA_?$AAU?$AAS@ 0000000180027190     BillDispenser.obj
 0002:000011b8       ??_C@_1CG@GFBEANJL@?$AAH?$AAK?$AAE?$AAY?$AA_?$AAL?$AAO?$AAC?$AAA?$AAL?$AA_?$AAM?$AAA?$AAC?$AAH@ 00000001800271b8     BillDispenser.obj
 0002:000011e0       ??_C@_1BG@BGODANIO@?$AAH?$AAK?$AAE?$AAY?$AA_?$AAU?$AAS?$AAE?$AAR?$AAS@ 00000001800271e0     BillDispenser.obj
 0002:000011f8       ??_C@_1CM@KHNNAOIC@?$AAH?$AAK?$AAE?$AAY?$AA_?$AAP?$AAE?$AAR?$AAF?$AAO?$AAR?$AAM?$AAA?$AAN?$AAC@ 00000001800271f8     BillDispenser.obj
 0002:00001228       ??_C@_1BM@HAGMMHIA@?$AAH?$AAK?$AAE?$AAY?$AA_?$AAD?$AAY?$AAN?$AA_?$AAD?$AAA?$AAT?$AAA@ 0000000180027228     BillDispenser.obj
 0002:00001248       ??_C@_1CI@BBJOACGG@?$AAH?$AAK?$AAE?$AAY?$AA_?$AAC?$AAU?$AAR?$AAR?$AAE?$AAN?$AAT?$AA_?$AAC?$AAO@ 0000000180027248     BillDispenser.obj
 0002:00001270       _GUID_00000109_0000_0000_c000_000000000046 0000000180027270     BillDispenser.obj
 0002:00001280       _GUID_7fd52380_4e07_101b_ae2d_08002b2ec713 0000000180027280     BillDispenser.obj
 0002:00001290       _GUID_00000112_0000_0000_c000_000000000046 0000000180027290     BillDispenser.obj
 0002:000012a0       ??_C@_1EA@NHKLICFA@?$AAH?$AAK?$AAC?$AAU?$AA?$AN?$AA?6?$AA?$HL?$AA?7?$AAS?$AAo?$AAf?$AAt?$AAw?$AAa?$AAr@ 00000001800272a0     BillDispenser.obj
 0002:000012e0       ??_C@_1BE@LJOLIMEM@?$AA?$AN?$AA?6?$AA?7?$AA?$HN?$AA?$AN?$AA?6?$AA?$HN?$AA?$AN?$AA?6@ 00000001800272e0     BillDispenser.obj
 0002:000012f8       _GUID_3af24292_0c96_11ce_a0cf_00aa00600ab8 00000001800272f8     BillDispenser.obj
 0002:00001308       _GUID_00000127_0000_0000_c000_000000000046 0000000180027308     BillDispenser.obj
 0002:00001318       _GUID_0000010d_0000_0000_c000_000000000046 0000000180027318     BillDispenser.obj
 0002:00001328       ??_C@_1M@PPPPCDEP@?$AAA?$AAP?$AAP?$AAI?$AAD@ 0000000180027328     BillDispenser.obj
 0002:00001338       ??_C@_1O@MNLDABAF@?$AAM?$AAo?$AAd?$AAu?$AAl?$AAe@ 0000000180027338     BillDispenser.obj
 0002:00001348       ??_C@_1BG@JBACFMF@?$AAM?$AAo?$AAd?$AAu?$AAl?$AAe?$AA_?$AAR?$AAa?$AAw@ 0000000180027348     BillDispenser.obj
 0002:00001360       ??_C@_1BC@KAILKFFG@?$AAR?$AAE?$AAG?$AAI?$AAS?$AAT?$AAR?$AAY@ 0000000180027360     BillDispenser.obj
 0002:00001378       ??_7?$CComContainedObject@VCOPOSBillDispenser@@@ATL@@6B?$IDispatchImpl@UIOPOSBillDispenser@@$1?IID_IOPOSBillDispenser@@3U_GUID@@B$1?LIBID_OposBillDispenser_CCO@@3U3@B$00$0A@VCComTypeInfoHolder@ATL@@@1@@ 0000000180027378     BillDispenser.obj
 0002:000015a8       ??_7?$CComContainedObject@VCOPOSBillDispenser@@@ATL@@6BCComControlBase@1@@ 00000001800275a8     BillDispenser.obj
 0002:000015d0       ??_7?$CComContainedObject@VCOPOSBillDispenser@@@ATL@@6B?$CWindowImpl@VCOPOSBillDispenser@@VCWindow@ATL@@V?$CWinTraits@$0FGAAAAAA@$0A@@3@@1@@ 00000001800275d0     BillDispenser.obj
 0002:000015f0       ??_7?$CComContainedObject@VCOPOSBillDispenser@@@ATL@@6B?$IPersistStreamInitImpl@VCOPOSBillDispenser@@@1@@ 00000001800275f0     BillDispenser.obj
 0002:00001638       ??_7?$CComContainedObject@VCOPOSBillDispenser@@@ATL@@6B?$IOleControlImpl@VCOPOSBillDispenser@@@1@@ 0000000180027638     BillDispenser.obj
 0002:00001670       ??_7?$CComContainedObject@VCOPOSBillDispenser@@@ATL@@6B?$IOleObjectImpl@VCOPOSBillDispenser@@@1@@ 0000000180027670     BillDispenser.obj
 0002:00001730       ??_7?$CComContainedObject@VCOPOSBillDispenser@@@ATL@@6B?$IOleInPlaceActiveObjectImpl@VCOPOSBillDispenser@@@1@@ 0000000180027730     BillDispenser.obj
 0002:00001780       ??_7?$CComContainedObject@VCOPOSBillDispenser@@@ATL@@6B?$IViewObjectExImpl@VCOPOSBillDispenser@@@1@@ 0000000180027780     BillDispenser.obj
 0002:000017f8       ??_7?$CComContainedObject@VCOPOSBillDispenser@@@ATL@@6B?$IOleInPlaceObjectWindowlessImpl@VCOPOSBillDispenser@@@1@@ 00000001800277f8     BillDispenser.obj
 0002:00001850       ??_7?$CComContainedObject@VCOPOSBillDispenser@@@ATL@@6B?$IConnectionPointContainerImpl@VCOPOSBillDispenser@@@1@@ 0000000180027850     BillDispenser.obj
 0002:00001878       ??_7?$CComContainedObject@VCOPOSBillDispenser@@@ATL@@6B?$IPersistStorageImpl@VCOPOSBillDispenser@@@1@@ 0000000180027878     BillDispenser.obj
 0002:000018c8       ??_7?$CComContainedObject@VCOPOSBillDispenser@@@ATL@@6B?$ISpecifyPropertyPagesImpl@VCOPOSBillDispenser@@@1@@ 00000001800278c8     BillDispenser.obj
 0002:000018e8       ??_7?$CComContainedObject@VCOPOSBillDispenser@@@ATL@@6B?$IQuickActivateImpl@VCOPOSBillDispenser@@@1@@ 00000001800278e8     BillDispenser.obj
 0002:00001918       ??_7?$CComContainedObject@VCOPOSBillDispenser@@@ATL@@6B?$IDataObjectImpl@VCOPOSBillDispenser@@@1@@ 0000000180027918     BillDispenser.obj
 0002:00001978       ??_7?$CComContainedObject@VCOPOSBillDispenser@@@ATL@@6B?$IProvideClassInfo2Impl@$1?CLSID_OPOSBillDispenser@@3U_GUID@@B$1?DIID__IOPOSBillDispenserEvents@@3U2@B$1?LIBID_OposBillDispenser_CCO@@3U2@B$00$0A@VCComTypeInfoHolder@ATL@@@1@@ 0000000180027978     BillDispenser.obj
 0002:000019a0       ??_7?$CComContainedObject@VCOPOSBillDispenser@@@ATL@@6B?$IObjectSafetyImpl@VCOPOSBillDispenser@@$02@1@@ 00000001800279a0     BillDispenser.obj
 0002:000019d0       ??_7?$CComContainedObject@VCOPOSBillDispenser@@@ATL@@6B?$IPropertyNotifySinkCP@VCOPOSBillDispenser@@VCComDynamicUnkArray@ATL@@@1@@ 00000001800279d0     BillDispenser.obj
 0002:00001a10       ??_7?$CComContainedObject@VCOPOSBillDispenser@@@ATL@@6B?$CProxy_IOPOSEvents@VCOPOSBillDispenser@@@@@ 0000000180027a10     BillDispenser.obj
 0002:00001a50       ??_7?$CComAggObject@VCOPOSBillDispenser@@@ATL@@6B@ 0000000180027a50     BillDispenser.obj
 0002:00001a70       ??_7?$CComObject@VCOPOSBillDispenser@@@ATL@@6B?$IDispatchImpl@UIOPOSBillDispenser@@$1?IID_IOPOSBillDispenser@@3U_GUID@@B$1?LIBID_OposBillDispenser_CCO@@3U3@B$00$0A@VCComTypeInfoHolder@ATL@@@1@@ 0000000180027a70     BillDispenser.obj
 0002:00001ca0       ??_7?$CComObject@VCOPOSBillDispenser@@@ATL@@6BCComControlBase@1@@ 0000000180027ca0     BillDispenser.obj
 0002:00001cc8       ??_7?$CComObject@VCOPOSBillDispenser@@@ATL@@6B?$CWindowImpl@VCOPOSBillDispenser@@VCWindow@ATL@@V?$CWinTraits@$0FGAAAAAA@$0A@@3@@1@@ 0000000180027cc8     BillDispenser.obj
 0002:00001ce8       ??_7?$CComObject@VCOPOSBillDispenser@@@ATL@@6B?$IPersistStreamInitImpl@VCOPOSBillDispenser@@@1@@ 0000000180027ce8     BillDispenser.obj
 0002:00001d30       ??_7?$CComObject@VCOPOSBillDispenser@@@ATL@@6B?$IOleControlImpl@VCOPOSBillDispenser@@@1@@ 0000000180027d30     BillDispenser.obj
 0002:00001d68       ??_7?$CComObject@VCOPOSBillDispenser@@@ATL@@6B?$IOleObjectImpl@VCOPOSBillDispenser@@@1@@ 0000000180027d68     BillDispenser.obj
 0002:00001e28       ??_7?$CComObject@VCOPOSBillDispenser@@@ATL@@6B?$IOleInPlaceActiveObjectImpl@VCOPOSBillDispenser@@@1@@ 0000000180027e28     BillDispenser.obj
 0002:00001e78       ??_7?$CComObject@VCOPOSBillDispenser@@@ATL@@6B?$IViewObjectExImpl@VCOPOSBillDispenser@@@1@@ 0000000180027e78     BillDispenser.obj
 0002:00001ef0       ??_7?$CComObject@VCOPOSBillDispenser@@@ATL@@6B?$IOleInPlaceObjectWindowlessImpl@VCOPOSBillDispenser@@@1@@ 0000000180027ef0     BillDispenser.obj
 0002:00001f48       ??_7?$CComObject@VCOPOSBillDispenser@@@ATL@@6B?$IConnectionPointContainerImpl@VCOPOSBillDispenser@@@1@@ 0000000180027f48     BillDispenser.obj
 0002:00001f70       ??_7?$CComObject@VCOPOSBillDispenser@@@ATL@@6B?$IPersistStorageImpl@VCOPOSBillDispenser@@@1@@ 0000000180027f70     BillDispenser.obj
 0002:00001fc0       ??_7?$CComObject@VCOPOSBillDispenser@@@ATL@@6B?$ISpecifyPropertyPagesImpl@VCOPOSBillDispenser@@@1@@ 0000000180027fc0     BillDispenser.obj
 0002:00001fe0       ??_7?$CComObject@VCOPOSBillDispenser@@@ATL@@6B?$IQuickActivateImpl@VCOPOSBillDispenser@@@1@@ 0000000180027fe0     BillDispenser.obj
 0002:00002010       ??_7?$CComObject@VCOPOSBillDispenser@@@ATL@@6B?$IDataObjectImpl@VCOPOSBillDispenser@@@1@@ 0000000180028010     BillDispenser.obj
 0002:00002070       ??_7?$CComObject@VCOPOSBillDispenser@@@ATL@@6B?$IProvideClassInfo2Impl@$1?CLSID_OPOSBillDispenser@@3U_GUID@@B$1?DIID__IOPOSBillDispenserEvents@@3U2@B$1?LIBID_OposBillDispenser_CCO@@3U2@B$00$0A@VCComTypeInfoHolder@ATL@@@1@@ 0000000180028070     BillDispenser.obj
 0002:00002098       ??_7?$CComObject@VCOPOSBillDispenser@@@ATL@@6B?$IObjectSafetyImpl@VCOPOSBillDispenser@@$02@1@@ 0000000180028098     BillDispenser.obj
 0002:000020c8       ??_7?$CComObject@VCOPOSBillDispenser@@@ATL@@6B?$IPropertyNotifySinkCP@VCOPOSBillDispenser@@VCComDynamicUnkArray@ATL@@@1@@ 00000001800280c8     BillDispenser.obj
 0002:00002108       ??_7?$CComObject@VCOPOSBillDispenser@@@ATL@@6B?$CProxy_IOPOSEvents@VCOPOSBillDispenser@@@@@ 0000000180028108     BillDispenser.obj
 0002:00002148       ??_C@_1O@GBFKGNEO@?$AAA?$AAT?$AAL?$AA?3?$AA?$CF?$AAp@ 0000000180028148     BillDispenser.obj
 0002:00002158       ??_C@_1BA@PICGEGJB@?$AAD?$AAI?$AAS?$AAP?$AAL?$AAA?$AAY@ 0000000180028158     BillDispenser.obj
 0002:00002168       _GUID_b196b284_bab4_101a_b69c_00aa00341d07 0000000180028168     BillDispenser.obj
 0002:00002178       _GUID_9bfbbc02_eff1_101a_84ed_00aa00341d07 0000000180028178     BillDispenser.obj
 0002:00002188       ?_entries@?1??_GetEntries@?$CComEnum@UIEnumConnectionPoints@@$1?_GUID_b196b285_bab4_101a_b69c_00aa00341d07@@3U__s_GUID@@BPEAUIConnectionPoint@@V?$_CopyInterface@UIConnectionPoint@@@ATL@@VCComSingleThreadModel@6@@ATL@@SAPEBU_ATL_INTMAP_ENTRY@3@XZ@4QBU43@B 0000000180028188     BillDispenser.obj
 0002:000021b8       _GUID_00020412_0000_0000_c000_000000000046 00000001800281b8     BillDispenser.obj
 0002:000021c8       _GUID_00020401_0000_0000_c000_000000000046 00000001800281c8     BillDispenser.obj
 0002:000021d8       ??_C@_0BG@EKFFMJIO@RegOpenKeyTransactedW@ 00000001800281d8     BillDispenser.obj
 0002:000021f0       ??_C@_0BI@HAKLOOGP@RegDeleteKeyTransactedW@ 00000001800281f0     BillDispenser.obj
 0002:00002208       ??_C@_0BA@LILAPHGE@RegDeleteKeyExW@ 0000000180028208     BillDispenser.obj
 0002:00002218       ??_C@_19ILOCMLCJ@?$AA?4?$AAt?$AAl?$AAb@ 0000000180028218     BillDispenser.obj
 0002:00002228       _GUID_0002e012_0000_0000_c000_000000000046 0000000180028228     BillDispenser.obj
 0002:00002238       ??_C@_1O@FHBGLCIO@?$AAC?$AAL?$AAS?$AAI?$AAD?$AA?2@ 0000000180028238     BillDispenser.obj
 0002:00002248       ??_C@_1CK@IFBKBFAA@?$AA?2?$AAR?$AAe?$AAq?$AAu?$AAi?$AAr?$AAe?$AAd?$AA?5?$AAC?$AAa?$AAt?$AAe?$AAg@ 0000000180028248     BillDispenser.obj
 0002:00002278       ??_C@_1DA@BIHALFED@?$AA?2?$AAI?$AAm?$AAp?$AAl?$AAe?$AAm?$AAe?$AAn?$AAt?$AAe?$AAd?$AA?5?$AAC?$AAa@ 0000000180028278     BillDispenser.obj
 0002:000022a8       ??_C@_1BK@EDKOLFBJ@?$AAO?$AAL?$AAE?$AAA?$AAU?$AAT?$AA3?$AA2?$AA?4?$AAD?$AAL?$AAL@ 00000001800282a8     BillDispenser.obj
 0002:000022c8       ??_C@_0BJ@CNLFOMHB@UnRegisterTypeLibForUser@ 00000001800282c8     BillDispenser.obj
 0002:000022e8       ??_C@_0BH@LBOMMKPJ@RegisterTypeLibForUser@ 00000001800282e8     BillDispenser.obj
 0002:00002300       ??_C@_0P@MMNMMLGK@COFreezeEvents@ 0000000180028300     BillDispenserImpl.obj
 0002:00002310       ??_C@_0BC@OGCGGIMP@GetPropertyNumber@ 0000000180028310     BillDispenserImpl.obj
 0002:00002328       ??_C@_0BC@MDCNODNB@SetPropertyNumber@ 0000000180028328     BillDispenserImpl.obj
 0002:00002340       ??_C@_0BC@CFCCMIMD@GetPropertyString@ 0000000180028340     BillDispenserImpl.obj
 0002:00002358       ??_C@_0BC@CJEDNN@SetPropertyString@ 0000000180028358     BillDispenserImpl.obj
 0002:00002370       ??_C@_0M@LNPKKKDA@OpenService@ 0000000180028370     BillDispenserImpl.obj
 0002:00002380       ??_C@_0M@PCMCHHMH@CheckHealth@ 0000000180028380     BillDispenserImpl.obj
 0002:00002390       ??_C@_0M@JGMIDNEK@ClaimDevice@ 0000000180028390     BillDispenserImpl.obj
 0002:000023a0       ??_C@_0N@DDFIIBMP@CloseService@ 00000001800283a0     BillDispenserImpl.obj
 0002:000023b0       ??_C@_08EEIHICPC@DirectIO@ 00000001800283b0     BillDispenserImpl.obj
 0002:000023c0       ??_C@_0O@BCPMENMJ@ReleaseDevice@ 00000001800283c0     BillDispenserImpl.obj
 0002:000023d0       ??_C@_0BA@GFABKEEE@ResetStatistics@ 00000001800283d0     BillDispenserImpl.obj
 0002:000023e0       ??_C@_0BD@DPALHJGC@RetrieveStatistics@ 00000001800283e0     BillDispenserImpl.obj
 0002:000023f8       ??_C@_0BB@KOHIKNFC@UpdateStatistics@ 00000001800283f8     BillDispenserImpl.obj
 0002:00002410       ??_C@_0BH@PBKBNMGB@CompareFirmwareVersion@ 0000000180028410     BillDispenserImpl.obj
 0002:00002428       ??_C@_0P@FBPDPIPA@UpdateFirmware@ 0000000180028428     BillDispenserImpl.obj
 0002:00002438       ??_C@_0BB@OAMAKNAK@AdjustCashCounts@ 0000000180028438     BillDispenserImpl.obj
 0002:00002450       ??_C@_0N@JILLACNH@DispenseCash@ 0000000180028450     BillDispenserImpl.obj
 0002:00002460       ??_C@_0P@HELDJPLA@ReadCashCounts@ 0000000180028460     BillDispenserImpl.obj
 0002:00002470       ??_7?$CProxy_IOPOSEvents@VCOPOSBillDispenser@@@@6B@ 0000000180028470     BillDispenserImpl.obj
 0002:000024b0       ??_C@_1BA@IFHENID@?$AA?$FL?$AAE?$AAr?$AAr?$AAo?$AAr?$AA?$FN@ 00000001800284b0     BillDispenserImpl.obj
 0002:000024c0       ??_C@_0DA@IBODKBAK@SOFTWARE?2OLEforRetail?2ServiceOP@ 00000001800284c0     BillDispenserImpl.obj
 0002:000024f0       ??_C@_1M@IAIJHCCH@?$AAC?$AAl?$AAo?$AAs?$AAe@ 00000001800284f0     BillDispenserImpl.obj
 0002:00002500       ??_C@_1M@PCPKGJAH@?$AAC?$AAl?$AAa?$AAi?$AAm@ 0000000180028500     BillDispenserImpl.obj
 0002:00002510       ??_C@_1BA@NDFKIOCP@?$AAR?$AAe?$AAl?$AAe?$AAa?$AAs?$AAe@ 0000000180028510     BillDispenserImpl.obj
 0002:00002520       ??_C@_0O@INOBNMNB@BillDispenser@ 0000000180028520     BillDispenserImpl.obj
 0002:00002530       ??_C@_1BM@IJMNMBPK@?$AAG?$AAe?$AAt?$AAO?$AAp?$AAe?$AAn?$AAR?$AAe?$AAs?$AAu?$AAl?$AAt@ 0000000180028530     BillDispenserImpl.obj
 0002:00002550       IID_IDispatch              0000000180028550     uuid:oaidl_i.obj
 0002:00002560       IID_IPropertyNotifySink    0000000180028560     uuid:ocidl_i.obj
 0002:00002570       GUID_NULL                  0000000180028570     uuid:cguid_i.obj
 0002:00002580       CLSID_StdGlobalInterfaceTable 0000000180028580     uuid:cguid_i.obj
 0002:00002590       CLSID_StdComponentCategoriesMgr 0000000180028590     uuid:ieguids.obj
 0002:000025a0       IID_IUnknown               00000001800285a0     uuid:unknwn_i.obj
 0002:000025b0       __xmm@ffffffffffffffffffffffffffffffff 00000001800285b0     LIBCMT:utility.obj
 0002:000025c0       ??_C@_1EC@JIJBPKFM@?$AAa?$AAp?$AAi?$AA?9?$AAm?$AAs?$AA?9?$AAw?$AAi?$AAn?$AA?9?$AAc?$AAo?$AAr?$AAe@ 00000001800285c0     LIBCMT:thread_safe_statics.obj
 0002:00002608       ??_C@_1BK@MGMFAEKH@?$AAk?$AAe?$AAr?$AAn?$AAe?$AAl?$AA3?$AA2?$AA?4?$AAd?$AAl?$AAl@ 0000000180028608     LIBCMT:thread_safe_statics.obj
 0002:00002628       ??_C@_0BJ@JEBJOJFJ@SleepConditionVariableCS@ 0000000180028628     LIBCMT:thread_safe_statics.obj
 0002:00002648       ??_C@_0BJ@PGPPEPCC@WakeAllConditionVariable@ 0000000180028648     LIBCMT:thread_safe_statics.obj
 0002:00002661       ?nothrow@std@@3Unothrow_t@1@B 0000000180028661     LIBCMT:std_nothrow.obj
 0002:00002678       _pRawDllMain               0000000180028678     LIBCMT:dll_dllmain.obj
 0002:00002678       _pDefaultRawDllMain        0000000180028678     LIBCMT:dll_dllmain.obj
 0002:00002688       ??_7exception@std@@6B@     0000000180028688     LIBCMT:throw_bad_alloc.obj
 0002:00002698       ??_C@_0BC@EOODALEL@Unknown?5exception@ 0000000180028698     LIBCMT:throw_bad_alloc.obj
 0002:000026b8       ??_7bad_alloc@std@@6B@     00000001800286b8     LIBCMT:throw_bad_alloc.obj
 0002:000026c8       ??_C@_0P@GHFPNOJB@bad?5allocation@ 00000001800286c8     LIBCMT:throw_bad_alloc.obj
 0002:000026e0       ??_7bad_array_new_length@std@@6B@ 00000001800286e0     LIBCMT:throw_bad_alloc.obj
 0002:000026f0       ??_C@_0BF@KINCDENJ@bad?5array?5new?5length@ 00000001800286f0     LIBCMT:throw_bad_alloc.obj
 0002:00002710       ??_7type_info@@6B@         0000000180028710     LIBCMT:std_type_info_static.obj
 0002:00002718       GUID_ATLVer110             0000000180028718     atls:atlbase.obj
 0002:00002730       ??_C@_1IC@ONKHOIDK@?$AAE?$AAR?$AAR?$AAO?$AAR?$AA?5?$AA?3?$AA?5?$AAU?$AAn?$AAa?$AAb?$AAl?$AAe?$AA?5@ 0000000180028730     atls:atlbase.obj
 0002:000027b8       ??_C@_0N@FJEPLCIH@atlthunk?4dll@ 00000001800287b8     atls:atlthunk.obj
 0002:000027c8       ??_C@_0BG@GAKFHCBM@AtlThunk_AllocateData@ 00000001800287c8     atls:atlthunk.obj
 0002:000027e0       ??_C@_0BC@JKONFIAH@AtlThunk_InitData@ 00000001800287e0     atls:atlthunk.obj
 0002:000027f8       ??_C@_0BE@IAOEELAK@AtlThunk_DataToCode@ 00000001800287f8     atls:atlthunk.obj
 0002:00002810       ??_C@_0BC@GBGKAIPI@AtlThunk_FreeData@ 0000000180028810     atls:atlthunk.obj
 0002:00002828       ?s_negLengthTab@FH4@@3QBCB 0000000180028828     libvcruntime:risctrnsctrl.obj
 0002:00002838       ?s_shiftTab@FH4@@3QBEB     0000000180028838     libvcruntime:risctrnsctrl.obj
 0002:00002988       _pDestructExceptionObject  0000000180028988     libvcruntime:ehhelpers.obj
 0002:00002998       ??_7bad_exception@std@@6B@ 0000000180028998     libvcruntime:frame.obj
 0002:000029a8       ??_C@_0O@DPKOEFFH@bad?5exception@ 00000001800289a8     libvcruntime:frame.obj
 0002:000030d0       ??_C@_08EHJDFFNH@__based?$CI@ 00000001800290d0     libvcruntime:undname.obj
 0002:000030e0       ??_C@_07KOLFKCDI@__cdecl@  00000001800290e0     libvcruntime:undname.obj
 0002:000030e8       ??_C@_08GHMPAG@__pascal@   00000001800290e8     libvcruntime:undname.obj
 0002:000030f8       ??_C@_09IFJBGAPI@__stdcall@ 00000001800290f8     libvcruntime:undname.obj
 0002:00003108       ??_C@_0L@NPHFGOKO@__thiscall@ 0000000180029108     libvcruntime:undname.obj
 0002:00003118       ??_C@_0L@JMKHOMEK@__fastcall@ 0000000180029118     libvcruntime:undname.obj
 0002:00003128       ??_C@_0N@BCKKPABJ@__vectorcall@ 0000000180029128     libvcruntime:undname.obj
 0002:00003138       ??_C@_09HIJEGCPM@__clrcall@ 0000000180029138     libvcruntime:undname.obj
 0002:00003144       ??_C@_06GHPCKEAG@__eabi@   0000000180029144     libvcruntime:undname.obj
 0002:00003150       ??_C@_09IOPIDJLG@__swift_1@ 0000000180029150     libvcruntime:undname.obj
 0002:00003160       ??_C@_09KFNFGKHF@__swift_2@ 0000000180029160     libvcruntime:undname.obj
 0002:00003170       ??_C@_09LMMOFLDE@__swift_3@ 0000000180029170     libvcruntime:undname.obj
 0002:00003180       ??_C@_07JOMMBBKO@__ptr64@  0000000180029180     libvcruntime:undname.obj
 0002:00003188       ??_C@_0L@PILCLIHE@__restrict@ 0000000180029188     libvcruntime:undname.obj
 0002:00003198       ??_C@_0M@GFIIJFMG@__unaligned@ 0000000180029198     libvcruntime:undname.obj
 0002:000031a8       ??_C@_09DHDLOLLB@restrict?$CI@ 00000001800291a8     libvcruntime:undname.obj
 0002:000031b2       ??_C@_00CNPNBAHC@@         00000001800291b2     libvcruntime:undname.obj
 0002:000031b4       ??_C@_04NIHEBCM@?5new@     00000001800291b4     libvcruntime:undname.obj
 0002:000031c0       ??_C@_07FPCDHGMM@?5delete@ 00000001800291c0     libvcruntime:undname.obj
 0002:000031c8       ??_C@_01NEMOKFLO@?$DN@     00000001800291c8     libvcruntime:undname.obj
 0002:000031cc       ??_C@_02GPIOPFAK@?$DO?$DO@ 00000001800291cc     libvcruntime:undname.obj
 0002:000031d0       ??_C@_02FODMEDOG@?$DM?$DM@ 00000001800291d0     libvcruntime:undname.obj
 0002:000031d4       ??_C@_01DCLJPIOD@?$CB@     00000001800291d4     libvcruntime:undname.obj
 0002:000031d8       ??_C@_02EGOFBIJA@?$DN?$DN@ 00000001800291d8     libvcruntime:undname.obj
 0002:000031dc       ??_C@_02FDNJECIE@?$CB?$DN@ 00000001800291dc     libvcruntime:undname.obj
 0002:000031e0       ??_C@_02GPECMEKF@?$FL?$FN@ 00000001800291e0     libvcruntime:undname.obj
 0002:000031e8       ??_C@_08LHJFAFGD@operator@ 00000001800291e8     libvcruntime:undname.obj
 0002:000031f4       ??_C@_02HBOOOICD@?9?$DO@   00000001800291f4     libvcruntime:undname.obj
 0002:000031f8       ??_C@_01NBENCBCI@?$CK@     00000001800291f8     libvcruntime:undname.obj
 0002:000031fc       ??_C@_02ECNGHCIF@?$CL?$CL@ 00000001800291fc     libvcruntime:undname.obj
 0002:00003200       ??_C@_02BAABKJLB@?9?9@     0000000180029200     libvcruntime:undname.obj
 0002:00003204       ??_C@_01JOAMLHOP@?9@       0000000180029204     libvcruntime:undname.obj
 0002:00003208       ??_C@_01MIFGBAGJ@?$CL@     0000000180029208     libvcruntime:undname.obj
 0002:0000320c       ??_C@_01HNPIGOCE@?$CG@     000000018002920c     libvcruntime:undname.obj
 0002:00003210       ??_C@_03MNHNFDLC@?9?$DO?$CK@ 0000000180029210     libvcruntime:undname.obj
 0002:00003214       ??_C@_01KMDKNFGN@?1@       0000000180029214     libvcruntime:undname.obj
 0002:00003218       ??_C@_01FGNFDNOH@?$CF@     0000000180029218     libvcruntime:undname.obj
 0002:0000321c       ??_C@_01MNNFJEPP@?$DM@     000000018002921c     libvcruntime:undname.obj
 0002:00003220       ??_C@_02EHCHHCKH@?$DM?$DN@ 0000000180029220     libvcruntime:undname.obj
 0002:00003224       ??_C@_01PPODPGHN@?$DO@     0000000180029224     libvcruntime:undname.obj
 0002:00003228       ??_C@_02EEKDKGMJ@?$DO?$DN@ 0000000180029228     libvcruntime:undname.obj
 0002:0000322c       ??_C@_01IHBHIGKO@?0@       000000018002922c     libvcruntime:undname.obj
 0002:00003230       ??_C@_02HCKGKOFO@?$CI?$CJ@ 0000000180029230     libvcruntime:undname.obj
 0002:00003234       ??_C@_01PJKLJHI@?$HO@      0000000180029234     libvcruntime:undname.obj
 0002:00003238       ??_C@_01JKBOJNNK@?$FO@     0000000180029238     libvcruntime:undname.obj
 0002:0000323c       ??_C@_01DNKMNLPK@?$HM@     000000018002923c     libvcruntime:undname.obj
 0002:00003240       ??_C@_02PPKAJPJL@?$CG?$CG@ 0000000180029240     libvcruntime:undname.obj
 0002:00003244       ??_C@_02NONPIBCD@?$HM?$HM@ 0000000180029244     libvcruntime:undname.obj
 0002:00003248       ??_C@_02FPIMKNGF@?$CK?$DN@ 0000000180029248     libvcruntime:undname.obj
 0002:0000324c       ??_C@_02FOEOMHFC@?$CL?$DN@ 000000018002924c     libvcruntime:undname.obj
 0002:00003250       ??_C@_02FKMDLLOA@?9?$DN@   0000000180029250     libvcruntime:undname.obj
 0002:00003254       ??_C@_02FJEHGPIO@?1?$DN@   0000000180029254     libvcruntime:undname.obj
 0002:00003258       ??_C@_02FENAOKFI@?$CF?$DN@ 0000000180029258     libvcruntime:undname.obj
 0002:0000325c       ??_C@_03IKFCCPFF@?$DO?$DO?$DN@ 000000018002925c     libvcruntime:undname.obj
 0002:00003260       ??_C@_03CDNPDDLA@?$DM?$DM?$DN@ 0000000180029260     libvcruntime:undname.obj
 0002:00003264       ??_C@_02FGJGFEAB@?$CG?$DN@ 0000000180029264     libvcruntime:undname.obj
 0002:00003268       ??_C@_02DHLNPPGH@?$HM?$DN@ 0000000180029268     libvcruntime:undname.obj
 0002:0000326c       ??_C@_02MHEGNOJ@?$FO?$DN@  000000018002926c     libvcruntime:undname.obj
 0002:00003270       ??_C@_09IFPLHPGF@?$GAvftable?8@ 0000000180029270     libvcruntime:undname.obj
 0002:00003280       ??_C@_09BLBHBJP@?$GAvbtable?8@ 0000000180029280     libvcruntime:undname.obj
 0002:00003290       ??_C@_07FEEIOKP@?$GAvcall?8@ 0000000180029290     libvcruntime:undname.obj
 0002:00003298       ??_C@_08LLFFHHDJ@?$GAtypeof?8@ 0000000180029298     libvcruntime:undname.obj
 0002:000032a8       ??_C@_0BF@KDPPACIK@?$GAlocal?5static?5guard?8@ 00000001800292a8     libvcruntime:undname.obj
 0002:000032c0       ??_C@_08OBABFOLI@?$GAstring?8@ 00000001800292c0     libvcruntime:undname.obj
 0002:000032d0       ??_C@_0BD@JDLKDPAB@?$GAvbase?5destructor?8@ 00000001800292d0     libvcruntime:undname.obj
 0002:000032e8       ??_C@_0BN@DEGPLNFK@?$GAvector?5deleting?5destructor?8@ 00000001800292e8     libvcruntime:undname.obj
 0002:00003308       ??_C@_0BO@OBMKPJIG@?$GAdefault?5constructor?5closure?8@ 0000000180029308     libvcruntime:undname.obj
 0002:00003328       ??_C@_0BN@IMDCHIKM@?$GAscalar?5deleting?5destructor?8@ 0000000180029328     libvcruntime:undname.obj
 0002:00003348       ??_C@_0BO@PFGOCPJJ@?$GAvector?5constructor?5iterator?8@ 0000000180029348     libvcruntime:undname.obj
 0002:00003368       ??_C@_0BN@LFPFMEDL@?$GAvector?5destructor?5iterator?8@ 0000000180029368     libvcruntime:undname.obj
 0002:00003388       ??_C@_0CE@IKBNEHA@?$GAvector?5vbase?5constructor?5itera@ 0000000180029388     libvcruntime:undname.obj
 0002:000033b0       ??_C@_0BL@NILFHHPC@?$GAvirtual?5displacement?5map?8@ 00000001800293b0     libvcruntime:undname.obj
 0002:000033d0       ??_C@_0CB@JONCMFFK@?$GAeh?5vector?5constructor?5iterator@ 00000001800293d0     libvcruntime:undname.obj
 0002:000033f8       ??_C@_0CA@GCEOPDGL@?$GAeh?5vector?5destructor?5iterator?8@ 00000001800293f8     libvcruntime:undname.obj
 0002:00003418       ??_C@_0CH@OOJPLCPH@?$GAeh?5vector?5vbase?5constructor?5it@ 0000000180029418     libvcruntime:undname.obj
 0002:00003440       ??_C@_0BL@LLKPOHJI@?$GAcopy?5constructor?5closure?8@ 0000000180029440     libvcruntime:undname.obj
 0002:00003460       ??_C@_0BA@KBCDOMBN@?$GAudt?5returning?8@ 0000000180029460     libvcruntime:undname.obj
 0002:00003470       ??_C@_03KLGMFNMG@?$GAEH@   0000000180029470     libvcruntime:undname.obj
 0002:00003474       ??_C@_05KHLCHHI@?$GARTTI@  0000000180029474     libvcruntime:undname.obj
 0002:00003480       ??_C@_0BA@KKLDJDLB@?$GAlocal?5vftable?8@ 0000000180029480     libvcruntime:undname.obj
 0002:00003490       ??_C@_0CE@IIHCMGGL@?$GAlocal?5vftable?5constructor?5clos@ 0000000180029490     libvcruntime:undname.obj
 0002:000034b4       ??_C@_06FHBGPFGH@?5new?$FL?$FN@ 00000001800294b4     libvcruntime:undname.obj
 0002:000034c0       ??_C@_09LBNFPBCA@?5delete?$FL?$FN@ 00000001800294c0     libvcruntime:undname.obj
 0002:000034d0       ??_C@_0P@HJKNJFNN@?$GAomni?5callsig?8@ 00000001800294d0     libvcruntime:undname.obj
 0002:000034e0       ??_C@_0BL@CNOONJFP@?$GAplacement?5delete?5closure?8@ 00000001800294e0     libvcruntime:undname.obj
 0002:00003500       ??_C@_0BN@CKNJLHMB@?$GAplacement?5delete?$FL?$FN?5closure?8@ 0000000180029500     libvcruntime:undname.obj
 0002:00003520       ??_C@_0CG@CFDHKGGD@?$GAmanaged?5vector?5constructor?5ite@ 0000000180029520     libvcruntime:undname.obj
 0002:00003548       ??_C@_0CF@IMGKMJNO@?$GAmanaged?5vector?5destructor?5iter@ 0000000180029548     libvcruntime:undname.obj
 0002:00003570       ??_C@_0CG@HLDDJMAG@?$GAeh?5vector?5copy?5constructor?5ite@ 0000000180029570     libvcruntime:undname.obj
 0002:00003598       ??_C@_0CM@FCBBDIGB@?$GAeh?5vector?5vbase?5copy?5construct@ 0000000180029598     libvcruntime:undname.obj
 0002:000035c8       ??_C@_0BL@CLIPGLGB@?$GAdynamic?5initializer?5for?5?8@ 00000001800295c8     libvcruntime:undname.obj
 0002:000035e8       ??_C@_0CB@PDBIFEP@?$GAdynamic?5atexit?5destructor?5for?5@ 00000001800295e8     libvcruntime:undname.obj
 0002:00003610       ??_C@_0CD@CGAJBKEJ@?$GAvector?5copy?5constructor?5iterat@ 0000000180029610     libvcruntime:undname.obj
 0002:00003638       ??_C@_0CJ@GJELGAMM@?$GAvector?5vbase?5copy?5constructor?5@ 0000000180029638     libvcruntime:undname.obj
 0002:00003668       ??_C@_0CL@FGIJHLCE@?$GAmanaged?5vector?5copy?5constructo@ 0000000180029668     libvcruntime:undname.obj
 0002:00003698       ??_C@_0BM@PMGGMLDN@?$GAlocal?5static?5thread?5guard?8@ 0000000180029698     libvcruntime:undname.obj
 0002:000036b8       ??_C@_0N@BDNMDMOL@operator?5?$CC?$CC?5@ 00000001800296b8     libvcruntime:undname.obj
 0002:000036c8       ??_C@_0BC@GGEBGALA@operator?5co_await@ 00000001800296c8     libvcruntime:undname.obj
 0002:000036e0       ??_C@_0M@GAAIMMOH@operator?$DM?$DN?$DO@ 00000001800296e0     libvcruntime:undname.obj
 0002:000036f0       ??_C@_0BC@DAFEJGAK@?5Type?5Descriptor?8@ 00000001800296f0     libvcruntime:undname.obj
 0002:00003708       ??_C@_0BM@LDKODKLH@?5Base?5Class?5Descriptor?5at?5?$CI@ 0000000180029708     libvcruntime:undname.obj
 0002:00003728       ??_C@_0BD@LGICGFMM@?5Base?5Class?5Array?8@ 0000000180029728     libvcruntime:undname.obj
 0002:00003740       ??_C@_0BN@MECKDCOJ@?5Class?5Hierarchy?5Descriptor?8@ 0000000180029740     libvcruntime:undname.obj
 0002:00003760       ??_C@_0BK@CFCOFLF@?5Complete?5Object?5Locator?8@ 0000000180029760     libvcruntime:undname.obj
 0002:00003780       ??_C@_0BG@JNJLAMPM@?$GAanonymous?5namespace?8@ 0000000180029780     libvcruntime:undname.obj
 0002:000037b0       ??_C@_1DM@KHCHBNEB@?$AAa?$AAp?$AAi?$AA?9?$AAm?$AAs?$AA?9?$AAw?$AAi?$AAn?$AA?9?$AAc?$AAo?$AAr?$AAe@ 00000001800297b0     libvcruntime:winapi_downlevel.obj
 0002:000037f0       ??_C@_1DK@LPPGFMPP@?$AAa?$AAp?$AAi?$AA?9?$AAm?$AAs?$AA?9?$AAw?$AAi?$AAn?$AA?9?$AAc?$AAo?$AAr?$AAe@ 00000001800297f0     libvcruntime:winapi_downlevel.obj
 0002:00003830       ??_C@_1BC@GDMECMAK@?$AAk?$AAe?$AAr?$AAn?$AAe?$AAl?$AA3?$AA2@ 0000000180029830     libvcruntime:winapi_downlevel.obj
 0002:00003848       ??_C@_1BA@PFFKHIOG@?$AAa?$AAp?$AAi?$AA?9?$AAm?$AAs?$AA?9@ 0000000180029848     libvcruntime:winapi_downlevel.obj
 0002:00003860       ??_C@_08KNHFBNJ@FlsAlloc@  0000000180029860     libvcruntime:winapi_downlevel.obj
 0002:00003878       ??_C@_07PEJMOBNF@FlsFree@  0000000180029878     libvcruntime:winapi_downlevel.obj
 0002:00003888       ??_C@_0M@GDNOONDI@FlsGetValue@ 0000000180029888     libvcruntime:winapi_downlevel.obj
 0002:000038a0       ??_C@_0M@JCPCPOEF@FlsSetValue@ 00000001800298a0     libvcruntime:winapi_downlevel.obj
 0002:000038b8       ??_C@_0BM@HCFOFFN@InitializeCriticalSectionEx@ 00000001800298b8     libvcruntime:winapi_downlevel.obj
 0002:00003a50       ?format_validation_lookup_table_spectre@__crt_stdio_output@@3V?$spectre_mitigated_lookup_table@Ustate_transition_pair@__crt_stdio_output@@$0IA@@1@B 0000000180029a50     libucrt:output.obj
 0002:00003b50       ??_C@_1O@CEDCILHN@?$AA?$CI?$AAn?$AAu?$AAl?$AAl?$AA?$CJ@ 0000000180029b50     libucrt:output.obj
 0002:00003b60       ??_C@_06OJHGLDPL@?$CInull?$CJ@ 0000000180029b60     libucrt:output.obj
 0002:00003b70       __acrt_exception_action_table 0000000180029b70     libucrt:exception_filter.obj
 0002:00003c30       __acrt_signal_action_table_count 0000000180029c30     libucrt:exception_filter.obj
 0002:00003c38       __acrt_signal_action_first_fpe_index 0000000180029c38     libucrt:exception_filter.obj
 0002:00003c40       __acrt_signal_action_fpe_count 0000000180029c40     libucrt:exception_filter.obj
 0002:00003c98       ??_C@_1BI@BGOHAHKC@?$AAm?$AAs?$AAc?$AAo?$AAr?$AAe?$AAe?$AA?4?$AAd?$AAl?$AAl@ 0000000180029c98     libucrt:exit.obj
 0002:00003cb0       ??_C@_0P@MIGLKIOC@CorExitProcess@ 0000000180029cb0     libucrt:exit.obj
 0002:00003e10       __lc_time_c                0000000180029e10     libucrt:nlsdata.obj
 0002:000040d0       ??_C@_03KOEHGMDN@Sun@      000000018002a0d0     libucrt:nlsdata.obj
 0002:000040d4       ??_C@_03PDAGKDH@Mon@       000000018002a0d4     libucrt:nlsdata.obj
 0002:000040d8       ??_C@_03NAGEINEP@Tue@      000000018002a0d8     libucrt:nlsdata.obj
 0002:000040dc       ??_C@_03MHOMLAJA@Wed@      000000018002a0dc     libucrt:nlsdata.obj
 0002:000040e0       ??_C@_03IOFIKPDN@Thu@      000000018002a0e0     libucrt:nlsdata.obj
 0002:000040e4       ??_C@_03IDIOELNC@Fri@      000000018002a0e4     libucrt:nlsdata.obj
 0002:000040e8       ??_C@_03FEFJNEK@Sat@       000000018002a0e8     libucrt:nlsdata.obj
 0002:000040ec       ??_C@_06OOPIFAJ@Sunday@    000000018002a0ec     libucrt:nlsdata.obj
 0002:000040f4       ??_C@_06JLEDEDGH@Monday@   000000018002a0f4     libucrt:nlsdata.obj
 0002:00004100       ??_C@_07BAAGCFCM@Tuesday@  000000018002a100     libucrt:nlsdata.obj
 0002:00004108       ??_C@_09DLIGFAKA@Wednesday@ 000000018002a108     libucrt:nlsdata.obj
 0002:00004118       ??_C@_08HACCIKIA@Thursday@ 000000018002a118     libucrt:nlsdata.obj
 0002:00004124       ??_C@_06JECMNKMI@Friday@   000000018002a124     libucrt:nlsdata.obj
 0002:00004130       ??_C@_08INBOOONO@Saturday@ 000000018002a130     libucrt:nlsdata.obj
 0002:0000413c       ??_C@_03JIHJHPIE@Jan@      000000018002a13c     libucrt:nlsdata.obj
 0002:00004140       ??_C@_03HJBDCHOM@Feb@      000000018002a140     libucrt:nlsdata.obj
 0002:00004144       ??_C@_03ODNJBKGA@Mar@      000000018002a144     libucrt:nlsdata.obj
 0002:00004148       ??_C@_03LEOLGMJP@Apr@      000000018002a148     libucrt:nlsdata.obj
 0002:0000414c       ??_C@_03CNMDKL@May@        000000018002a14c     libucrt:nlsdata.obj
 0002:00004150       ??_C@_03IDFGHECI@Jun@      000000018002a150     libucrt:nlsdata.obj
 0002:00004154       ??_C@_03LBGABGKK@Jul@      000000018002a154     libucrt:nlsdata.obj
 0002:00004158       ??_C@_03IFJFEIGA@Aug@      000000018002a158     libucrt:nlsdata.obj
 0002:0000415c       ??_C@_03GGCAPAJC@Sep@      000000018002a15c     libucrt:nlsdata.obj
 0002:00004160       ??_C@_03BMAOKBAD@Oct@      000000018002a160     libucrt:nlsdata.obj
 0002:00004164       ??_C@_03JPJOFNIA@Nov@      000000018002a164     libucrt:nlsdata.obj
 0002:00004168       ??_C@_03MKABNOCG@Dec@      000000018002a168     libucrt:nlsdata.obj
 0002:00004170       ??_C@_07CGJPFGJA@January@  000000018002a170     libucrt:nlsdata.obj
 0002:00004178       ??_C@_08GNJGEPFN@February@ 000000018002a178     libucrt:nlsdata.obj
 0002:00004184       ??_C@_05HPCKOFNC@March@    000000018002a184     libucrt:nlsdata.obj
 0002:0000418c       ??_C@_05DMJDNLEJ@April@    000000018002a18c     libucrt:nlsdata.obj
 0002:00004194       ??_C@_04CNLMGBGM@June@     000000018002a194     libucrt:nlsdata.obj
 0002:0000419c       ??_C@_04MIEPOIFP@July@     000000018002a19c     libucrt:nlsdata.obj
 0002:000041a4       ??_C@_06LBBHFDDG@August@   000000018002a1a4     libucrt:nlsdata.obj
 0002:000041b0       ??_C@_09BHHEALKD@September@ 000000018002a1b0     libucrt:nlsdata.obj
 0002:000041c0       ??_C@_07JJNFCEND@October@  000000018002a1c0     libucrt:nlsdata.obj
 0002:000041c8       ??_C@_08HCHEGEOA@November@ 000000018002a1c8     libucrt:nlsdata.obj
 0002:000041d8       ??_C@_08EDHMEBNP@December@ 000000018002a1d8     libucrt:nlsdata.obj
 0002:000041e4       ??_C@_02DEDBPAFC@AM@       000000018002a1e4     libucrt:nlsdata.obj
 0002:000041e8       ??_C@_02CJNFDJBF@PM@       000000018002a1e8     libucrt:nlsdata.obj
 0002:000041f0       ??_C@_08BPBNCDIB@MM?1dd?1yy@ 000000018002a1f0     libucrt:nlsdata.obj
 0002:00004200       ??_C@_0BE@CKGJFCPC@dddd?0?5MMMM?5dd?0?5yyyy@ 000000018002a200     libucrt:nlsdata.obj
 0002:00004218       ??_C@_08JCCMCCIL@HH?3mm?3ss@ 000000018002a218     libucrt:nlsdata.obj
 0002:00004228       ??_C@_17MBGCMIPB@?$AAS?$AAu?$AAn@ 000000018002a228     libucrt:nlsdata.obj
 0002:00004230       ??_C@_17KBOMKBF@?$AAM?$AAo?$AAn@ 000000018002a230     libucrt:nlsdata.obj
 0002:00004238       ??_C@_17BMKGEGOJ@?$AAT?$AAu?$AAe@ 000000018002a238     libucrt:nlsdata.obj
 0002:00004240       ??_C@_17CJEDCEPE@?$AAW?$AAe?$AAd@ 000000018002a240     libucrt:nlsdata.obj
 0002:00004248       ??_C@_17PDPHAADD@?$AAT?$AAh?$AAu@ 000000018002a248     libucrt:nlsdata.obj
 0002:00004250       ??_C@_17HFOLPPLP@?$AAF?$AAr?$AAi@ 000000018002a250     libucrt:nlsdata.obj
 0002:00004258       ??_C@_17GGIBDPIH@?$AAS?$AAa?$AAt@ 000000018002a258     libucrt:nlsdata.obj
 0002:00004260       ??_C@_1O@IHNHDHPB@?$AAS?$AAu?$AAn?$AAd?$AAa?$AAy@ 000000018002a260     libucrt:nlsdata.obj
 0002:00004270       ??_C@_1O@MMNBFLIA@?$AAM?$AAo?$AAn?$AAd?$AAa?$AAy@ 000000018002a270     libucrt:nlsdata.obj
 0002:00004280       ??_C@_1BA@ENFBFFEK@?$AAT?$AAu?$AAe?$AAs?$AAd?$AAa?$AAy@ 000000018002a280     libucrt:nlsdata.obj
 0002:00004290       ??_C@_1BE@EBOGMDOH@?$AAW?$AAe?$AAd?$AAn?$AAe?$AAs?$AAd?$AAa?$AAy@ 000000018002a290     libucrt:nlsdata.obj
 0002:000042a8       ??_C@_1BC@HHMNLIHE@?$AAT?$AAh?$AAu?$AAr?$AAs?$AAd?$AAa?$AAy@ 000000018002a2a8     libucrt:nlsdata.obj
 0002:000042c0       ??_C@_1O@PDICJHAG@?$AAF?$AAr?$AAi?$AAd?$AAa?$AAy@ 000000018002a2c0     libucrt:nlsdata.obj
 0002:000042d0       ??_C@_1BC@ENMNNPAJ@?$AAS?$AAa?$AAt?$AAu?$AAr?$AAd?$AAa?$AAy@ 000000018002a2d0     libucrt:nlsdata.obj
 0002:000042e8       ??_C@_17DKNBKCHM@?$AAJ?$AAa?$AAn@ 000000018002a2e8     libucrt:nlsdata.obj
 0002:000042f0       ??_C@_17LMDJEKJN@?$AAF?$AAe?$AAb@ 000000018002a2f0     libucrt:nlsdata.obj
 0002:000042f8       ??_C@_17CKNLEDEC@?$AAM?$AAa?$AAr@ 000000018002a2f8     libucrt:nlsdata.obj
 0002:00004300       ??_C@_17LFPOIHDD@?$AAA?$AAp?$AAr@ 000000018002a300     libucrt:nlsdata.obj
 0002:00004308       ??_C@_17PNNKMEED@?$AAM?$AAa?$AAy@ 000000018002a308     libucrt:nlsdata.obj
 0002:00004310       ??_C@_17KCJGOCPB@?$AAJ?$AAu?$AAn@ 000000018002a310     libucrt:nlsdata.obj
 0002:00004318       ??_C@_17IJPCKHK@?$AAJ?$AAu?$AAl@ 000000018002a318     libucrt:nlsdata.obj
 0002:00004320       ??_C@_17ICPELBCN@?$AAA?$AAu?$AAg@ 000000018002a320     libucrt:nlsdata.obj
 0002:00004328       ??_C@_17HCHCOKMG@?$AAS?$AAe?$AAp@ 000000018002a328     libucrt:nlsdata.obj
 0002:00004330       ??_C@_17FNLKOI@?$AAO?$AAc?$AAt@ 000000018002a330     libucrt:nlsdata.obj
 0002:00004338       ??_C@_17BBDMLCIG@?$AAN?$AAo?$AAv@ 000000018002a338     libucrt:nlsdata.obj
 0002:00004340       ??_C@_17EGKACKIF@?$AAD?$AAe?$AAc@ 000000018002a340     libucrt:nlsdata.obj
 0002:00004348       ??_C@_1BA@EFMEIEBA@?$AAJ?$AAa?$AAn?$AAu?$AAa?$AAr?$AAy@ 000000018002a348     libucrt:nlsdata.obj
 0002:00004358       ??_C@_1BC@JGDDFFAM@?$AAF?$AAe?$AAb?$AAr?$AAu?$AAa?$AAr?$AAy@ 000000018002a358     libucrt:nlsdata.obj
 0002:00004370       ??_C@_1M@IKEENEDF@?$AAM?$AAa?$AAr?$AAc?$AAh@ 000000018002a370     libucrt:nlsdata.obj
 0002:00004380       ??_C@_1M@GJNLMHFD@?$AAA?$AAp?$AAr?$AAi?$AAl@ 000000018002a380     libucrt:nlsdata.obj
 0002:00004390       ??_C@_19EPFLPGAP@?$AAJ?$AAu?$AAn?$AAe@ 000000018002a390     libucrt:nlsdata.obj
 0002:000043a0       ??_C@_19BIFMLPCD@?$AAJ?$AAu?$AAl?$AAy@ 000000018002a3a0     libucrt:nlsdata.obj
 0002:000043b0       ??_C@_1O@PAHLKOAC@?$AAA?$AAu?$AAg?$AAu?$AAs?$AAt@ 000000018002a3b0     libucrt:nlsdata.obj
 0002:000043c0       ??_C@_1BE@DKAAMBJL@?$AAS?$AAe?$AAp?$AAt?$AAe?$AAm?$AAb?$AAe?$AAr@ 000000018002a3c0     libucrt:nlsdata.obj
 0002:000043d8       ??_C@_1BA@EPANDLNG@?$AAO?$AAc?$AAt?$AAo?$AAb?$AAe?$AAr@ 000000018002a3d8     libucrt:nlsdata.obj
 0002:000043e8       ??_C@_1BC@BGLIFPF@?$AAN?$AAo?$AAv?$AAe?$AAm?$AAb?$AAe?$AAr@ 000000018002a3e8     libucrt:nlsdata.obj
 0002:00004400       ??_C@_1BC@FEMKIFH@?$AAD?$AAe?$AAc?$AAe?$AAm?$AAb?$AAe?$AAr@ 000000018002a400     libucrt:nlsdata.obj
 0002:00004414       ??_C@_15ODEHAHHF@?$AAA?$AAM@ 000000018002a414     libucrt:nlsdata.obj
 0002:0000441c       ??_C@_15CLMNNGEL@?$AAP?$AAM@ 000000018002a41c     libucrt:nlsdata.obj
 0002:00004428       ??_C@_1BC@IEBCMHCM@?$AAM?$AAM?$AA?1?$AAd?$AAd?$AA?1?$AAy?$AAy@ 000000018002a428     libucrt:nlsdata.obj
 0002:00004440       ??_C@_1CI@KNAKOEBC@?$AAd?$AAd?$AAd?$AAd?$AA?0?$AA?5?$AAM?$AAM?$AAM?$AAM?$AA?5?$AAd?$AAd?$AA?0?$AA?5@ 000000018002a440     libucrt:nlsdata.obj
 0002:00004468       ??_C@_1BC@GDGBMEMK@?$AAH?$AAH?$AA?3?$AAm?$AAm?$AA?3?$AAs?$AAs@ 000000018002a468     libucrt:nlsdata.obj
 0002:00004480       ??_C@_1M@BMHNFIME@?$AAe?$AAn?$AA?9?$AAU?$AAS@ 000000018002a480     libucrt:nlsdata.obj
 0002:00004530       ??_C@_1EA@JGEFHKEI@?$AAa?$AAp?$AAi?$AA?9?$AAm?$AAs?$AA?9?$AAw?$AAi?$AAn?$AA?9?$AAc?$AAo?$AAr?$AAe@ 000000018002a530     libucrt:winapi_thunks.obj
 0002:00004570       ??_C@_1DI@IJCEHOCB@?$AAa?$AAp?$AAi?$AA?9?$AAm?$AAs?$AA?9?$AAw?$AAi?$AAn?$AA?9?$AAc?$AAo?$AAr?$AAe@ 000000018002a570     libucrt:winapi_thunks.obj
 0002:000045b0       ??_C@_1EI@MPIAOHOC@?$AAa?$AAp?$AAi?$AA?9?$AAm?$AAs?$AA?9?$AAw?$AAi?$AAn?$AA?9?$AAc?$AAo?$AAr?$AAe@ 000000018002a5b0     libucrt:winapi_thunks.obj
 0002:00004600       ??_C@_1FK@FPHCKFIE@?$AAa?$AAp?$AAi?$AA?9?$AAm?$AAs?$AA?9?$AAw?$AAi?$AAn?$AA?9?$AAc?$AAo?$AAr?$AAe@ 000000018002a600     libucrt:winapi_thunks.obj
 0002:00004660       ??_C@_1EM@DILCGIIO@?$AAa?$AAp?$AAi?$AA?9?$AAm?$AAs?$AA?9?$AAw?$AAi?$AAn?$AA?9?$AAc?$AAo?$AAr?$AAe@ 000000018002a660     libucrt:winapi_thunks.obj
 0002:000046b0       ??_C@_1DM@LNCGDDPN@?$AAa?$AAp?$AAi?$AA?9?$AAm?$AAs?$AA?9?$AAw?$AAi?$AAn?$AA?9?$AAc?$AAo?$AAr?$AAe@ 000000018002a6b0     libucrt:winapi_thunks.obj
 0002:000046f0       ??_C@_1DO@FPAPJEMD@?$AAa?$AAp?$AAi?$AA?9?$AAm?$AAs?$AA?9?$AAw?$AAi?$AAn?$AA?9?$AAc?$AAo?$AAr?$AAe@ 000000018002a6f0     libucrt:winapi_thunks.obj
 0002:00004730       ??_C@_1DK@NDHNAHIO@?$AAa?$AAp?$AAi?$AA?9?$AAm?$AAs?$AA?9?$AAw?$AAi?$AAn?$AA?9?$AAc?$AAo?$AAr?$AAe@ 000000018002a730     libucrt:winapi_thunks.obj
 0002:00004770       ??_C@_1DM@KGHDGBCM@?$AAa?$AAp?$AAi?$AA?9?$AAm?$AAs?$AA?9?$AAw?$AAi?$AAn?$AA?9?$AAc?$AAo?$AAr?$AAe@ 000000018002a770     libucrt:winapi_thunks.obj
 0002:000047b0       ??_C@_1EO@IJIOEFOH@?$AAa?$AAp?$AAi?$AA?9?$AAm?$AAs?$AA?9?$AAw?$AAi?$AAn?$AA?9?$AAr?$AAt?$AAc?$AAo@ 000000018002a7b0     libucrt:winapi_thunks.obj
 0002:00004800       ??_C@_1FG@HHGEKANL@?$AAa?$AAp?$AAi?$AA?9?$AAm?$AAs?$AA?9?$AAw?$AAi?$AAn?$AA?9?$AAs?$AAe?$AAc?$AAu@ 000000018002a800     libucrt:winapi_thunks.obj
 0002:00004860       ??_C@_1EG@DBIOJECG@?$AAe?$AAx?$AAt?$AA?9?$AAm?$AAs?$AA?9?$AAw?$AAi?$AAn?$AA?9?$AAn?$AAt?$AAu?$AAs@ 000000018002a860     libucrt:winapi_thunks.obj
 0002:000048b0       ??_C@_1EO@FIHMJCLF@?$AAe?$AAx?$AAt?$AA?9?$AAm?$AAs?$AA?9?$AAw?$AAi?$AAn?$AA?9?$AAn?$AAt?$AAu?$AAs@ 000000018002a8b0     libucrt:winapi_thunks.obj
 0002:00004900       ??_C@_1BC@DNHGCMLG@?$AAa?$AAd?$AAv?$AAa?$AAp?$AAi?$AA3?$AA2@ 000000018002a900     libucrt:winapi_thunks.obj
 0002:00004918       ??_C@_1M@OAIMIKLP@?$AAn?$AAt?$AAd?$AAl?$AAl@ 000000018002a918     libucrt:winapi_thunks.obj
 0002:00004930       ??_C@_1EG@DPGNFKGC@?$AAa?$AAp?$AAi?$AA?9?$AAm?$AAs?$AA?9?$AAw?$AAi?$AAn?$AA?9?$AAa?$AAp?$AAp?$AAm@ 000000018002a930     libucrt:winapi_thunks.obj
 0002:00004978       ??_C@_1O@BCCLBEOE@?$AAu?$AAs?$AAe?$AAr?$AA3?$AA2@ 000000018002a978     libucrt:winapi_thunks.obj
 0002:00004988       ??_C@_1BA@IAIFMGEF@?$AAe?$AAx?$AAt?$AA?9?$AAm?$AAs?$AA?9@ 000000018002a988     libucrt:winapi_thunks.obj
 0002:000049a0       ??_C@_0BA@FHFNEAED@AreFileApisANSI@ 000000018002a9a0     libucrt:winapi_thunks.obj
 0002:000049c0       ??_C@_0O@KKBNKAPF@LCMapStringEx@ 000000018002a9c0     libucrt:winapi_thunks.obj
 0002:000049d8       ??_C@_0BB@HBDEELFH@LocaleNameToLCID@ 000000018002a9d8     libucrt:winapi_thunks.obj
 0002:000049f0       ??_C@_0CF@OJOFEIGO@AppPolicyGetProcessTerminationM@ 000000018002a9f0     libucrt:winapi_thunks.obj
 0002:00004a20       ??_C@_0BI@BKLFFAPO@SetThreadStackGuarantee@ 000000018002aa20     libucrt:winapi_thunks.obj
 0002:00004ac0       ??_C@_03OEIAHPBN@INF@      000000018002aac0     libucrt:cvt.obj
 0002:00004ac4       ??_C@_03OJHLLCGB@inf@      000000018002aac4     libucrt:cvt.obj
 0002:00004ac8       ??_C@_03LKNCIKJB@NAN@      000000018002aac8     libucrt:cvt.obj
 0002:00004acc       ??_C@_03LHCJEHON@nan@      000000018002aacc     libucrt:cvt.obj
 0002:00004ad0       ??_C@_09OFJJIMPC@NAN?$CISNAN?$CJ@ 000000018002aad0     libucrt:cvt.obj
 0002:00004ae0       ??_C@_09IPFBKMDL@nan?$CIsnan?$CJ@ 000000018002aae0     libucrt:cvt.obj
 0002:00004af0       ??_C@_08IKHNHAJ@NAN?$CIIND?$CJ@ 000000018002aaf0     libucrt:cvt.obj
 0002:00004b00       ??_C@_08OFCDMILK@nan?$CIind?$CJ@ 000000018002ab00     libucrt:cvt.obj
 0002:00004b0c       ??_C@_05KLBDPFGC@e?$CL000@ 000000018002ab0c     libucrt:cvt.obj
 0002:00004b38       ??_C@_1M@HPNHIDJI@?$AAj?$AAa?$AA?9?$AAJ?$AAP@ 000000018002ab38     libucrt:mbctype.obj
 0002:00004b48       ??_C@_1M@BIBDDEMK@?$AAz?$AAh?$AA?9?$AAC?$AAN@ 000000018002ab48     libucrt:mbctype.obj
 0002:00004b58       ??_C@_1M@JLOOOEGK@?$AAk?$AAo?$AA?9?$AAK?$AAR@ 000000018002ab58     libucrt:mbctype.obj
 0002:00004b68       ??_C@_1M@CLNBBOPM@?$AAz?$AAh?$AA?9?$AAT?$AAW@ 000000018002ab68     libucrt:mbctype.obj
 0002:00004b80       __newctype                 000000018002ab80     libucrt:ctype.obj
 0002:00004e80       __newclmap                 000000018002ae80     libucrt:ctype.obj
 0002:00005000       __newcumap                 000000018002b000     libucrt:ctype.obj
 0002:00005180       ??_C@_15PJPFLCCM@?$AAu?$AAk@ 000000018002b180     libucrt:get_qualified_locale.obj
 0002:00005fd0       ??_C@_15EMKDOKLE@?$AAa?$AAr@ 000000018002bfd0     libucrt:lcidtoname_downlevel.obj
 0002:00005fd8       ??_C@_15KNPADPLH@?$AAb?$AAg@ 000000018002bfd8     libucrt:lcidtoname_downlevel.obj
 0002:00005fe0       ??_C@_15EDMHLDMO@?$AAc?$AAa@ 000000018002bfe0     libucrt:lcidtoname_downlevel.obj
 0002:00005fe8       ??_C@_1O@BPEAJADD@?$AAz?$AAh?$AA?9?$AAC?$AAH?$AAS@ 000000018002bfe8     libucrt:lcidtoname_downlevel.obj
 0002:00005ff8       ??_C@_15LJNHCMNK@?$AAc?$AAs@ 000000018002bff8     libucrt:lcidtoname_downlevel.obj
 0002:00006000       ??_C@_15FOMCIDHG@?$AAd?$AAa@ 000000018002c000     libucrt:lcidtoname_downlevel.obj
 0002:00006008       ??_C@_15NBKABECB@?$AAd?$AAe@ 000000018002c008     libucrt:lcidtoname_downlevel.obj
 0002:00006010       ??_C@_15GHPEIIAO@?$AAe?$AAl@ 000000018002c010     libucrt:lcidtoname_downlevel.obj
 0002:00006018       ??_C@_15MNPNEAIF@?$AAe?$AAn@ 000000018002c018     libucrt:lcidtoname_downlevel.obj
 0002:00006020       ??_C@_15GPIOMPMH@?$AAe?$AAs@ 000000018002c020     libucrt:lcidtoname_downlevel.obj
 0002:00006028       ??_C@_15NGLOAKJC@?$AAf?$AAi@ 000000018002c028     libucrt:lcidtoname_downlevel.obj
 0002:00006030       ??_C@_15FBKGNKAM@?$AAf?$AAr@ 000000018002c030     libucrt:lcidtoname_downlevel.obj
 0002:00006038       ??_C@_15KGGCNEFK@?$AAh?$AAe@ 000000018002c038     libucrt:lcidtoname_downlevel.obj
 0002:00006040       ??_C@_15PGHLIDMF@?$AAh?$AAu@ 000000018002c040     libucrt:lcidtoname_downlevel.obj
 0002:00006048       ??_C@_15BIEMAPLM@?$AAi?$AAs@ 000000018002c048     libucrt:lcidtoname_downlevel.obj
 0002:00006050       ??_C@_15IFJLDHAF@?$AAi?$AAt@ 000000018002c050     libucrt:lcidtoname_downlevel.obj
 0002:00006058       ??_C@_15GEMIOCAG@?$AAj?$AAa@ 000000018002c058     libucrt:lcidtoname_downlevel.obj
 0002:00006060       ??_C@_15EPELEGJA@?$AAk?$AAo@ 000000018002c060     libucrt:lcidtoname_downlevel.obj
 0002:00006068       ??_C@_15NDDHIMN@?$AAn?$AAl@ 000000018002c068     libucrt:lcidtoname_downlevel.obj
 0002:00006070       ??_C@_15BPIGNHCD@?$AAn?$AAo@ 000000018002c070     libucrt:lcidtoname_downlevel.obj
 0002:00006078       ??_C@_15DEOPBLCG@?$AAp?$AAl@ 000000018002c078     libucrt:lcidtoname_downlevel.obj
 0002:00006080       ??_C@_15KBECGEFG@?$AAp?$AAt@ 000000018002c080     libucrt:lcidtoname_downlevel.obj
 0002:00006088       ??_C@_15GLJCBFMD@?$AAr?$AAo@ 000000018002c088     libucrt:lcidtoname_downlevel.obj
 0002:00006090       ??_C@_15FEDGKCDI@?$AAr?$AAu@ 000000018002c090     libucrt:lcidtoname_downlevel.obj
 0002:00006098       ??_C@_15GLKMLLHM@?$AAh?$AAr@ 000000018002c098     libucrt:lcidtoname_downlevel.obj
 0002:000060a0       ??_C@_15CPKMFBDB@?$AAs?$AAk@ 000000018002c0a0     libucrt:lcidtoname_downlevel.obj
 0002:000060a8       ??_C@_15BAAIOGMK@?$AAs?$AAq@ 000000018002c0a8     libucrt:lcidtoname_downlevel.obj
 0002:000060b0       ??_C@_15INNPNOHD@?$AAs?$AAv@ 000000018002c0b0     libucrt:lcidtoname_downlevel.obj
 0002:000060b8       ??_C@_15CABMMOGH@?$AAt?$AAh@ 000000018002c0b8     libucrt:lcidtoname_downlevel.obj
 0002:000060c0       ??_C@_15BPLIHJJM@?$AAt?$AAr@ 000000018002c0c0     libucrt:lcidtoname_downlevel.obj
 0002:000060c8       ??_C@_15NEOEKKDJ@?$AAu?$AAr@ 000000018002c0c8     libucrt:lcidtoname_downlevel.obj
 0002:000060d0       ??_C@_15NFICGAJK@?$AAi?$AAd@ 000000018002c0d0     libucrt:lcidtoname_downlevel.obj
 0002:000060d8       ??_C@_15HPJPHDM@?$AAb?$AAe@ 000000018002c0d8     libucrt:lcidtoname_downlevel.obj
 0002:000060e0       ??_C@_15LCHLGJII@?$AAs?$AAl@ 000000018002c0e0     libucrt:lcidtoname_downlevel.obj
 0002:000060e8       ??_C@_15PCFJPHHO@?$AAe?$AAt@ 000000018002c0e8     libucrt:lcidtoname_downlevel.obj
 0002:000060f0       ??_C@_15HPFPGODN@?$AAl?$AAv@ 000000018002c0f0     libucrt:lcidtoname_downlevel.obj
 0002:000060f8       ??_C@_15NFFGKGLG@?$AAl?$AAt@ 000000018002c0f8     libucrt:lcidtoname_downlevel.obj
 0002:00006100       ??_C@_15BDAKCCHN@?$AAf?$AAa@ 000000018002c100     libucrt:lcidtoname_downlevel.obj
 0002:00006108       ??_C@_15NFGIAIAJ@?$AAv?$AAi@ 000000018002c108     libucrt:lcidtoname_downlevel.obj
 0002:00006110       ??_C@_15LMKNDMHN@?$AAh?$AAy@ 000000018002c110     libucrt:lcidtoname_downlevel.obj
 0002:00006118       ??_C@_15IJBHMCFL@?$AAa?$AAz@ 000000018002c118     libucrt:lcidtoname_downlevel.obj
 0002:00006120       ??_C@_15EKOFJABL@?$AAe?$AAu@ 000000018002c120     libucrt:lcidtoname_downlevel.obj
 0002:00006128       ??_C@_15BGHADCNK@?$AAm?$AAk@ 000000018002c128     libucrt:lcidtoname_downlevel.obj
 0002:00006130       ??_C@_15JDNICKHM@?$AAa?$AAf@ 000000018002c130     libucrt:lcidtoname_downlevel.obj
 0002:00006138       ??_C@_15KPJEDBKD@?$AAk?$AAa@ 000000018002c138     libucrt:lcidtoname_downlevel.obj
 0002:00006140       ??_C@_15PDNFFFEO@?$AAf?$AAo@ 000000018002c140     libucrt:lcidtoname_downlevel.obj
 0002:00006148       ??_C@_15OMLEGLOC@?$AAh?$AAi@ 000000018002c148     libucrt:lcidtoname_downlevel.obj
 0002:00006150       ??_C@_15IDNNENKK@?$AAm?$AAs@ 000000018002c150     libucrt:lcidtoname_downlevel.obj
 0002:00006158       ??_C@_15MACJNBMH@?$AAk?$AAk@ 000000018002c158     libucrt:lcidtoname_downlevel.obj
 0002:00006160       ??_C@_15DKDJEOND@?$AAk?$AAy@ 000000018002c160     libucrt:lcidtoname_downlevel.obj
 0002:00006168       ??_C@_15DFGDLJBG@?$AAs?$AAw@ 000000018002c168     libucrt:lcidtoname_downlevel.obj
 0002:00006170       ??_C@_15BBFAICNG@?$AAu?$AAz@ 000000018002c170     libucrt:lcidtoname_downlevel.obj
 0002:00006178       ??_C@_15DKNDCGEA@?$AAt?$AAt@ 000000018002c178     libucrt:lcidtoname_downlevel.obj
 0002:00006180       ??_C@_15MGIFMDPL@?$AAp?$AAa@ 000000018002c180     libucrt:lcidtoname_downlevel.obj
 0002:00006188       ??_C@_15HCNDBBA@?$AAg?$AAu@ 000000018002c188     libucrt:lcidtoname_downlevel.obj
 0002:00006190       ??_C@_15FNBEIBON@?$AAt?$AAa@ 000000018002c190     libucrt:lcidtoname_downlevel.obj
 0002:00006198       ??_C@_15NCHGBGLK@?$AAt?$AAe@ 000000018002c198     libucrt:lcidtoname_downlevel.obj
 0002:000061a0       ??_C@_15PHPHCBPF@?$AAk?$AAn@ 000000018002c1a0     libucrt:lcidtoname_downlevel.obj
 0002:000061a8       ??_C@_15DLGBCKMP@?$AAm?$AAr@ 000000018002c1a8     libucrt:lcidtoname_downlevel.obj
 0002:000061b0       ??_C@_15EABBLBFF@?$AAs?$AAa@ 000000018002c1b0     libucrt:lcidtoname_downlevel.obj
 0002:000061b8       ??_C@_15CBKOMCOI@?$AAm?$AAn@ 000000018002c1b8     libucrt:lcidtoname_downlevel.obj
 0002:000061c0       ??_C@_15CKDMCJAF@?$AAg?$AAl@ 000000018002c1c0     libucrt:lcidtoname_downlevel.obj
 0002:000061c8       ??_C@_17CNJFBPG@?$AAk?$AAo?$AAk@ 000000018002c1c8     libucrt:lcidtoname_downlevel.obj
 0002:000061d0       ??_C@_17FFBJICPL@?$AAs?$AAy?$AAr@ 000000018002c1d0     libucrt:lcidtoname_downlevel.obj
 0002:000061d8       ??_C@_17KPNDCPAF@?$AAd?$AAi?$AAv@ 000000018002c1d8     libucrt:lcidtoname_downlevel.obj
 0002:000061e0       ??_C@_1M@OKAHONE@?$AAa?$AAr?$AA?9?$AAS?$AAA@ 000000018002c1e0     libucrt:lcidtoname_downlevel.obj
 0002:000061f0       ??_C@_1M@FFFIGIGK@?$AAb?$AAg?$AA?9?$AAB?$AAG@ 000000018002c1f0     libucrt:lcidtoname_downlevel.obj
 0002:00006200       ??_C@_1M@BJNKEDC@?$AAc?$AAa?$AA?9?$AAE?$AAS@ 000000018002c200     libucrt:lcidtoname_downlevel.obj
 0002:00006210       ??_C@_1M@IJJHFJHA@?$AAc?$AAs?$AA?9?$AAC?$AAZ@ 000000018002c210     libucrt:lcidtoname_downlevel.obj
 0002:00006220       ??_C@_1M@CLPEOBGI@?$AAd?$AAa?$AA?9?$AAD?$AAK@ 000000018002c220     libucrt:lcidtoname_downlevel.obj
 0002:00006230       ??_C@_1M@MCMADGCB@?$AAd?$AAe?$AA?9?$AAD?$AAE@ 000000018002c230     libucrt:lcidtoname_downlevel.obj
 0002:00006240       ??_C@_1M@OOCKEMAM@?$AAe?$AAl?$AA?9?$AAG?$AAR@ 000000018002c240     libucrt:lcidtoname_downlevel.obj
 0002:00006250       ??_C@_1M@DDNJFGID@?$AAf?$AAi?$AA?9?$AAF?$AAI@ 000000018002c250     libucrt:lcidtoname_downlevel.obj
 0002:00006260       ??_C@_1M@GLIPPMAC@?$AAf?$AAr?$AA?9?$AAF?$AAR@ 000000018002c260     libucrt:lcidtoname_downlevel.obj
 0002:00006270       ??_C@_1M@GFMCHPE@?$AAh?$AAe?$AA?9?$AAI?$AAL@ 000000018002c270     libucrt:lcidtoname_downlevel.obj
 0002:00006280       ??_C@_1M@MHLPGNKM@?$AAh?$AAu?$AA?9?$AAH?$AAU@ 000000018002c280     libucrt:lcidtoname_downlevel.obj
 0002:00006290       ??_C@_1M@LPDDNNPN@?$AAi?$AAs?$AA?9?$AAI?$AAS@ 000000018002c290     libucrt:lcidtoname_downlevel.obj
 0002:000062a0       ??_C@_1M@MADIPODN@?$AAi?$AAt?$AA?9?$AAI?$AAT@ 000000018002c2a0     libucrt:lcidtoname_downlevel.obj
 0002:000062b0       ??_C@_1M@IHBJJGG@?$AAn?$AAl?$AA?9?$AAN?$AAL@ 000000018002c2b0     libucrt:lcidtoname_downlevel.obj
 0002:000062c0       ??_C@_1M@EANAGDL@?$AAn?$AAb?$AA?9?$AAN?$AAO@ 000000018002c2c0     libucrt:lcidtoname_downlevel.obj
 0002:000062d0       ??_C@_1M@NEIEMEGP@?$AAp?$AAl?$AA?9?$AAP?$AAL@ 000000018002c2d0     libucrt:lcidtoname_downlevel.obj
 0002:000062e0       ??_C@_1M@BOCFIGEP@?$AAp?$AAt?$AA?9?$AAB?$AAR@ 000000018002c2e0     libucrt:lcidtoname_downlevel.obj
 0002:000062f0       ??_C@_1M@IMPFOPBG@?$AAr?$AAo?$AA?9?$AAR?$AAO@ 000000018002c2f0     libucrt:lcidtoname_downlevel.obj
 0002:00006300       ??_C@_1M@IDNNEJMM@?$AAr?$AAu?$AA?9?$AAR?$AAU@ 000000018002c300     libucrt:lcidtoname_downlevel.obj
 0002:00006310       ??_C@_1M@LILEEOGM@?$AAh?$AAr?$AA?9?$AAH?$AAR@ 000000018002c310     libucrt:lcidtoname_downlevel.obj
 0002:00006320       ??_C@_1M@FKIFEHPB@?$AAs?$AAk?$AA?9?$AAS?$AAK@ 000000018002c320     libucrt:lcidtoname_downlevel.obj
 0002:00006330       ??_C@_1M@LJMAMNPJ@?$AAs?$AAq?$AA?9?$AAA?$AAL@ 000000018002c330     libucrt:lcidtoname_downlevel.obj
 0002:00006340       ??_C@_1M@GIAKDKJK@?$AAs?$AAv?$AA?9?$AAS?$AAE@ 000000018002c340     libucrt:lcidtoname_downlevel.obj
 0002:00006350       ??_C@_1M@MKJKIKCL@?$AAt?$AAh?$AA?9?$AAT?$AAH@ 000000018002c350     libucrt:lcidtoname_downlevel.obj
 0002:00006360       ??_C@_1M@MFLCCMPB@?$AAt?$AAr?$AA?9?$AAT?$AAR@ 000000018002c360     libucrt:lcidtoname_downlevel.obj
 0002:00006370       ??_C@_1M@OIJHDKJN@?$AAu?$AAr?$AA?9?$AAP?$AAK@ 000000018002c370     libucrt:lcidtoname_downlevel.obj
 0002:00006380       ??_C@_1M@LHIPCIEK@?$AAi?$AAd?$AA?9?$AAI?$AAD@ 000000018002c380     libucrt:lcidtoname_downlevel.obj
 0002:00006390       ??_C@_1M@MFMOBGI@?$AAu?$AAk?$AA?9?$AAU?$AAA@ 000000018002c390     libucrt:lcidtoname_downlevel.obj
 0002:000063a0       ??_C@_1M@OBGLJIPL@?$AAb?$AAe?$AA?9?$AAB?$AAY@ 000000018002c3a0     libucrt:lcidtoname_downlevel.obj
 0002:000063b0       ??_C@_1M@BCFAJEAD@?$AAs?$AAl?$AA?9?$AAS?$AAI@ 000000018002c3b0     libucrt:lcidtoname_downlevel.obj
 0002:000063c0       ??_C@_1M@FKFFEDDN@?$AAe?$AAt?$AA?9?$AAE?$AAE@ 000000018002c3c0     libucrt:lcidtoname_downlevel.obj
 0002:000063d0       ??_C@_1M@KGKKAACI@?$AAl?$AAv?$AA?9?$AAL?$AAV@ 000000018002c3d0     libucrt:lcidtoname_downlevel.obj
 0002:000063e0       ??_C@_1M@IFGBIJO@?$AAl?$AAt?$AA?9?$AAL?$AAT@ 000000018002c3e0     libucrt:lcidtoname_downlevel.obj
 0002:000063f0       ??_C@_1M@FGEAHEDM@?$AAf?$AAa?$AA?9?$AAI?$AAR@ 000000018002c3f0     libucrt:lcidtoname_downlevel.obj
 0002:00006400       ??_C@_1M@KBMAIBFN@?$AAv?$AAi?$AA?9?$AAV?$AAN@ 000000018002c400     libucrt:lcidtoname_downlevel.obj
 0002:00006410       ??_C@_1M@GPCBKDJK@?$AAh?$AAy?$AA?9?$AAA?$AAM@ 000000018002c410     libucrt:lcidtoname_downlevel.obj
 0002:00006420       ??_C@_1BG@BECMDDJB@?$AAa?$AAz?$AA?9?$AAA?$AAZ?$AA?9?$AAL?$AAa?$AAt?$AAn@ 000000018002c420     libucrt:lcidtoname_downlevel.obj
 0002:00006438       ??_C@_1M@MAOFCAEA@?$AAe?$AAu?$AA?9?$AAE?$AAS@ 000000018002c438     libucrt:lcidtoname_downlevel.obj
 0002:00006448       ??_C@_1M@IGHABKPI@?$AAm?$AAk?$AA?9?$AAM?$AAK@ 000000018002c448     libucrt:lcidtoname_downlevel.obj
 0002:00006458       ??_C@_1M@IAIGNEJG@?$AAt?$AAn?$AA?9?$AAZ?$AAA@ 000000018002c458     libucrt:lcidtoname_downlevel.obj
 0002:00006468       ??_C@_1M@IIJCOJFA@?$AAx?$AAh?$AA?9?$AAZ?$AAA@ 000000018002c468     libucrt:lcidtoname_downlevel.obj
 0002:00006478       ??_C@_1M@LGPJHNJH@?$AAz?$AAu?$AA?9?$AAZ?$AAA@ 000000018002c478     libucrt:lcidtoname_downlevel.obj
 0002:00006488       ??_C@_1M@HOKAOIO@?$AAa?$AAf?$AA?9?$AAZ?$AAA@ 000000018002c488     libucrt:lcidtoname_downlevel.obj
 0002:00006498       ??_C@_1M@DPCLHLIE@?$AAk?$AAa?$AA?9?$AAG?$AAE@ 000000018002c498     libucrt:lcidtoname_downlevel.obj
 0002:000064a8       ??_C@_1M@BLKMHJBI@?$AAf?$AAo?$AA?9?$AAF?$AAO@ 000000018002c4a8     libucrt:lcidtoname_downlevel.obj
 0002:000064b8       ??_C@_1M@LGGJAPPB@?$AAh?$AAi?$AA?9?$AAI?$AAN@ 000000018002c4b8     libucrt:lcidtoname_downlevel.obj
 0002:000064c8       ??_C@_1M@FIKPIHFE@?$AAm?$AAt?$AA?9?$AAM?$AAT@ 000000018002c4c8     libucrt:lcidtoname_downlevel.obj
 0002:000064d8       ??_C@_1M@HEGGPBFA@?$AAs?$AAe?$AA?9?$AAN?$AAO@ 000000018002c4d8     libucrt:lcidtoname_downlevel.obj
 0002:000064e8       ??_C@_1M@EIBJEEPA@?$AAm?$AAs?$AA?9?$AAM?$AAY@ 000000018002c4e8     libucrt:lcidtoname_downlevel.obj
 0002:000064f8       ??_C@_1M@FHLBGMPP@?$AAk?$AAk?$AA?9?$AAK?$AAZ@ 000000018002c4f8     libucrt:lcidtoname_downlevel.obj
 0002:00006508       ??_C@_1M@NGJJLCGI@?$AAk?$AAy?$AA?9?$AAK?$AAG@ 000000018002c508     libucrt:lcidtoname_downlevel.obj
 0002:00006518       ??_C@_1M@GIENNBFC@?$AAs?$AAw?$AA?9?$AAK?$AAE@ 000000018002c518     libucrt:lcidtoname_downlevel.obj
 0002:00006528       ??_C@_1BG@NDGMJIMJ@?$AAu?$AAz?$AA?9?$AAU?$AAZ?$AA?9?$AAL?$AAa?$AAt?$AAn@ 000000018002c528     libucrt:lcidtoname_downlevel.obj
 0002:00006540       ??_C@_1M@IDCCIHBC@?$AAt?$AAt?$AA?9?$AAR?$AAU@ 000000018002c540     libucrt:lcidtoname_downlevel.obj
 0002:00006550       ??_C@_1M@LOICPMOJ@?$AAb?$AAn?$AA?9?$AAI?$AAN@ 000000018002c550     libucrt:lcidtoname_downlevel.obj
 0002:00006560       ??_C@_1M@KPKKNEAH@?$AAp?$AAa?$AA?9?$AAI?$AAN@ 000000018002c560     libucrt:lcidtoname_downlevel.obj
 0002:00006570       ??_C@_1M@PJGPPBOG@?$AAg?$AAu?$AA?9?$AAI?$AAN@ 000000018002c570     libucrt:lcidtoname_downlevel.obj
 0002:00006580       ??_C@_1M@KMKMOPHI@?$AAt?$AAa?$AA?9?$AAI?$AAN@ 000000018002c580     libucrt:lcidtoname_downlevel.obj
 0002:00006590       ??_C@_1M@KFEHEPAC@?$AAt?$AAe?$AA?9?$AAI?$AAN@ 000000018002c590     libucrt:lcidtoname_downlevel.obj
 0002:000065a0       ??_C@_1M@CDCLMGHI@?$AAk?$AAn?$AA?9?$AAI?$AAN@ 000000018002c5a0     libucrt:lcidtoname_downlevel.obj
 0002:000065b0       ??_C@_1M@MIODLDKF@?$AAm?$AAl?$AA?9?$AAI?$AAN@ 000000018002c5b0     libucrt:lcidtoname_downlevel.obj
 0002:000065c0       ??_C@_1M@PBIEACPO@?$AAm?$AAr?$AA?9?$AAI?$AAN@ 000000018002c5c0     libucrt:lcidtoname_downlevel.obj
 0002:000065d0       ??_C@_1M@NIDEAGPH@?$AAs?$AAa?$AA?9?$AAI?$AAN@ 000000018002c5d0     libucrt:lcidtoname_downlevel.obj
 0002:000065e0       ??_C@_1M@FHIHCBIO@?$AAm?$AAn?$AA?9?$AAM?$AAN@ 000000018002c5e0     libucrt:lcidtoname_downlevel.obj
 0002:000065f0       ??_C@_1M@JAIJPENP@?$AAc?$AAy?$AA?9?$AAG?$AAB@ 000000018002c5f0     libucrt:lcidtoname_downlevel.obj
 0002:00006600       ??_C@_1M@PHGFBEPN@?$AAg?$AAl?$AA?9?$AAE?$AAS@ 000000018002c600     libucrt:lcidtoname_downlevel.obj
 0002:00006610       ??_C@_1O@KPIPDNCP@?$AAk?$AAo?$AAk?$AA?9?$AAI?$AAN@ 000000018002c610     libucrt:lcidtoname_downlevel.obj
 0002:00006620       ??_C@_1O@KNHJLDJA@?$AAs?$AAy?$AAr?$AA?9?$AAS?$AAY@ 000000018002c620     libucrt:lcidtoname_downlevel.obj
 0002:00006630       ??_C@_1O@MKEKBLAH@?$AAd?$AAi?$AAv?$AA?9?$AAM?$AAV@ 000000018002c630     libucrt:lcidtoname_downlevel.obj
 0002:00006640       ??_C@_1O@OHDCKDDF@?$AAq?$AAu?$AAz?$AA?9?$AAB?$AAO@ 000000018002c640     libucrt:lcidtoname_downlevel.obj
 0002:00006650       ??_C@_1M@LEPJNLFD@?$AAn?$AAs?$AA?9?$AAZ?$AAA@ 000000018002c650     libucrt:lcidtoname_downlevel.obj
 0002:00006660       ??_C@_1M@OMLEIIJB@?$AAm?$AAi?$AA?9?$AAN?$AAZ@ 000000018002c660     libucrt:lcidtoname_downlevel.obj
 0002:00006670       ??_C@_1M@PMPEAILG@?$AAa?$AAr?$AA?9?$AAI?$AAQ@ 000000018002c670     libucrt:lcidtoname_downlevel.obj
 0002:00006680       ??_C@_1M@CNKPNOEE@?$AAd?$AAe?$AA?9?$AAC?$AAH@ 000000018002c680     libucrt:lcidtoname_downlevel.obj
 0002:00006690       ??_C@_1M@LKMGMLKO@?$AAe?$AAn?$AA?9?$AAG?$AAB@ 000000018002c690     libucrt:lcidtoname_downlevel.obj
 0002:000066a0       ??_C@_1M@PGKJFFGL@?$AAe?$AAs?$AA?9?$AAM?$AAX@ 000000018002c6a0     libucrt:lcidtoname_downlevel.obj
 0002:000066b0       ??_C@_1M@DNNANBDC@?$AAf?$AAr?$AA?9?$AAB?$AAE@ 000000018002c6b0     libucrt:lcidtoname_downlevel.obj
 0002:000066c0       ??_C@_1M@HLGMDFHM@?$AAi?$AAt?$AA?9?$AAC?$AAH@ 000000018002c6c0     libucrt:lcidtoname_downlevel.obj
 0002:000066d0       ??_C@_1M@CLLBGJH@?$AAn?$AAl?$AA?9?$AAB?$AAE@ 000000018002c6d0     libucrt:lcidtoname_downlevel.obj
 0002:000066e0       ??_C@_1M@BODBOGLF@?$AAn?$AAn?$AA?9?$AAN?$AAO@ 000000018002c6e0     libucrt:lcidtoname_downlevel.obj
 0002:000066f0       ??_C@_1M@HFFAHKAD@?$AAp?$AAt?$AA?9?$AAP?$AAT@ 000000018002c6f0     libucrt:lcidtoname_downlevel.obj
 0002:00006700       ??_C@_1BG@LNOAKHIE@?$AAs?$AAr?$AA?9?$AAS?$AAP?$AA?9?$AAL?$AAa?$AAt?$AAn@ 000000018002c700     libucrt:lcidtoname_downlevel.obj
 0002:00006718       ??_C@_1M@HBMHBGAK@?$AAs?$AAv?$AA?9?$AAF?$AAI@ 000000018002c718     libucrt:lcidtoname_downlevel.obj
 0002:00006728       ??_C@_1BG@DGCJGJBE@?$AAa?$AAz?$AA?9?$AAA?$AAZ?$AA?9?$AAC?$AAy?$AAr?$AAl@ 000000018002c728     libucrt:lcidtoname_downlevel.obj
 0002:00006740       ??_C@_1M@KEJDAAHB@?$AAs?$AAe?$AA?9?$AAS?$AAE@ 000000018002c740     libucrt:lcidtoname_downlevel.obj
 0002:00006750       ??_C@_1M@HEIBJJAD@?$AAm?$AAs?$AA?9?$AAB?$AAN@ 000000018002c750     libucrt:lcidtoname_downlevel.obj
 0002:00006760       ??_C@_1BG@PBGJMCEM@?$AAu?$AAz?$AA?9?$AAU?$AAZ?$AA?9?$AAC?$AAy?$AAr?$AAl@ 000000018002c760     libucrt:lcidtoname_downlevel.obj
 0002:00006778       ??_C@_1O@LAOBCMDF@?$AAq?$AAu?$AAz?$AA?9?$AAE?$AAC@ 000000018002c778     libucrt:lcidtoname_downlevel.obj
 0002:00006788       ??_C@_1M@POEEMAIO@?$AAa?$AAr?$AA?9?$AAE?$AAG@ 000000018002c788     libucrt:lcidtoname_downlevel.obj
 0002:00006798       ??_C@_1M@EFAKDEDL@?$AAz?$AAh?$AA?9?$AAH?$AAK@ 000000018002c798     libucrt:lcidtoname_downlevel.obj
 0002:000067a8       ??_C@_1M@HKKIJHGI@?$AAd?$AAe?$AA?9?$AAA?$AAT@ 000000018002c7a8     libucrt:lcidtoname_downlevel.obj
 0002:000067b8       ??_C@_1M@KBFBEHJF@?$AAe?$AAn?$AA?9?$AAA?$AAU@ 000000018002c7b8     libucrt:lcidtoname_downlevel.obj
 0002:000067c8       ??_C@_1M@MNPLFAAH@?$AAe?$AAs?$AA?9?$AAE?$AAS@ 000000018002c7c8     libucrt:lcidtoname_downlevel.obj
 0002:000067d8       ??_C@_1M@HJOOJFMA@?$AAf?$AAr?$AA?9?$AAC?$AAA@ 000000018002c7d8     libucrt:lcidtoname_downlevel.obj
 0002:000067e8       ??_C@_1BG@JPOFPNAB@?$AAs?$AAr?$AA?9?$AAS?$AAP?$AA?9?$AAC?$AAy?$AAr?$AAl@ 000000018002c7e8     libucrt:lcidtoname_downlevel.obj
 0002:00006800       ??_C@_1M@LNFOCMOB@?$AAs?$AAe?$AA?9?$AAF?$AAI@ 000000018002c800     libucrt:lcidtoname_downlevel.obj
 0002:00006810       ??_C@_1O@MGJBOAMB@?$AAq?$AAu?$AAz?$AA?9?$AAP?$AAE@ 000000018002c810     libucrt:lcidtoname_downlevel.obj
 0002:00006820       ??_C@_1M@GJINLBOK@?$AAa?$AAr?$AA?9?$AAL?$AAY@ 000000018002c820     libucrt:lcidtoname_downlevel.obj
 0002:00006830       ??_C@_1M@GGMNHJNL@?$AAz?$AAh?$AA?9?$AAS?$AAG@ 000000018002c830     libucrt:lcidtoname_downlevel.obj
 0002:00006840       ??_C@_1M@HOIKODND@?$AAd?$AAe?$AA?9?$AAL?$AAU@ 000000018002c840     libucrt:lcidtoname_downlevel.obj
 0002:00006850       ??_C@_1M@DDOCCGFG@?$AAe?$AAn?$AA?9?$AAC?$AAA@ 000000018002c850     libucrt:lcidtoname_downlevel.obj
 0002:00006860       ??_C@_1M@BNOEMJLF@?$AAe?$AAs?$AA?9?$AAG?$AAT@ 000000018002c860     libucrt:lcidtoname_downlevel.obj
 0002:00006870       ??_C@_1M@EOGNKEK@?$AAf?$AAr?$AA?9?$AAC?$AAH@ 000000018002c870     libucrt:lcidtoname_downlevel.obj
 0002:00006880       ??_C@_1M@FLIDJFHL@?$AAh?$AAr?$AA?9?$AAB?$AAA@ 000000018002c880     libucrt:lcidtoname_downlevel.obj
 0002:00006890       ??_C@_1O@FMCELNAJ@?$AAs?$AAm?$AAj?$AA?9?$AAN?$AAO@ 000000018002c890     libucrt:lcidtoname_downlevel.obj
 0002:000068a0       ??_C@_1M@JHGLJMGJ@?$AAa?$AAr?$AA?9?$AAD?$AAZ@ 000000018002c8a0     libucrt:lcidtoname_downlevel.obj
 0002:000068b0       ??_C@_1M@JKKFDCNP@?$AAz?$AAh?$AA?9?$AAM?$AAO@ 000000018002c8b0     libucrt:lcidtoname_downlevel.obj
 0002:000068c0       ??_C@_1M@GEEFALPE@?$AAd?$AAe?$AA?9?$AAL?$AAI@ 000000018002c8c0     libucrt:lcidtoname_downlevel.obj
 0002:000068d0       ??_C@_1M@IGEOFBG@?$AAe?$AAn?$AA?9?$AAN?$AAZ@ 000000018002c8d0     libucrt:lcidtoname_downlevel.obj
 0002:000068e0       ??_C@_1M@KDBONEHP@?$AAe?$AAs?$AA?9?$AAC?$AAR@ 000000018002c8e0     libucrt:lcidtoname_downlevel.obj
 0002:000068f0       ??_C@_1M@FHMDOHNN@?$AAf?$AAr?$AA?9?$AAL?$AAU@ 000000018002c8f0     libucrt:lcidtoname_downlevel.obj
 0002:00006900       ??_C@_1BG@NFKKMAFG@?$AAb?$AAs?$AA?9?$AAB?$AAA?$AA?9?$AAL?$AAa?$AAt?$AAn@ 000000018002c900     libucrt:lcidtoname_downlevel.obj
 0002:00006918       ??_C@_1O@IMNBEMCI@?$AAs?$AAm?$AAj?$AA?9?$AAS?$AAE@ 000000018002c918     libucrt:lcidtoname_downlevel.obj
 0002:00006928       ??_C@_1M@DHHMBNDP@?$AAa?$AAr?$AA?9?$AAM?$AAA@ 000000018002c928     libucrt:lcidtoname_downlevel.obj
 0002:00006938       ??_C@_1M@BNBLJCGH@?$AAe?$AAn?$AA?9?$AAI?$AAE@ 000000018002c938     libucrt:lcidtoname_downlevel.obj
 0002:00006948       ??_C@_1M@GEPAFMDL@?$AAe?$AAs?$AA?9?$AAP?$AAA@ 000000018002c948     libucrt:lcidtoname_downlevel.obj
 0002:00006958       ??_C@_1M@OJONDMDL@?$AAf?$AAr?$AA?9?$AAM?$AAC@ 000000018002c958     libucrt:lcidtoname_downlevel.obj
 0002:00006968       ??_C@_1BG@OBCNFJB@?$AAs?$AAr?$AA?9?$AAB?$AAA?$AA?9?$AAL?$AAa?$AAt?$AAn@ 000000018002c968     libucrt:lcidtoname_downlevel.obj
 0002:00006980       ??_C@_1O@KEMEEGPO@?$AAs?$AAm?$AAa?$AA?9?$AAN?$AAO@ 000000018002c980     libucrt:lcidtoname_downlevel.obj
 0002:00006990       ??_C@_1M@ELMGFODK@?$AAa?$AAr?$AA?9?$AAT?$AAN@ 000000018002c990     libucrt:lcidtoname_downlevel.obj
 0002:000069a0       ??_C@_1M@BHDLHFAF@?$AAe?$AAn?$AA?9?$AAZ?$AAA@ 000000018002c9a0     libucrt:lcidtoname_downlevel.obj
 0002:000069b0       ??_C@_1M@BMGIGLIF@?$AAe?$AAs?$AA?9?$AAD?$AAO@ 000000018002c9b0     libucrt:lcidtoname_downlevel.obj
 0002:000069c0       ??_C@_1BG@CMBHIPBE@?$AAs?$AAr?$AA?9?$AAB?$AAA?$AA?9?$AAC?$AAy?$AAr?$AAl@ 000000018002c9c0     libucrt:lcidtoname_downlevel.obj
 0002:000069d8       ??_C@_1O@HEDBLHNP@?$AAs?$AAm?$AAa?$AA?9?$AAS?$AAE@ 000000018002c9d8     libucrt:lcidtoname_downlevel.obj
 0002:000069e8       ??_C@_1M@DAGCADIM@?$AAa?$AAr?$AA?9?$AAO?$AAM@ 000000018002c9e8     libucrt:lcidtoname_downlevel.obj
 0002:000069f8       ??_C@_1M@FODLMICG@?$AAe?$AAn?$AA?9?$AAJ?$AAM@ 000000018002c9f8     libucrt:lcidtoname_downlevel.obj
 0002:00006a08       ??_C@_1M@DNMLCIHB@?$AAe?$AAs?$AA?9?$AAV?$AAE@ 000000018002ca08     libucrt:lcidtoname_downlevel.obj
 0002:00006a18       ??_C@_1O@EOKHMKJK@?$AAs?$AAm?$AAs?$AA?9?$AAF?$AAI@ 000000018002ca18     libucrt:lcidtoname_downlevel.obj
 0002:00006a28       ??_C@_1M@CAFJMKOF@?$AAa?$AAr?$AA?9?$AAY?$AAE@ 000000018002ca28     libucrt:lcidtoname_downlevel.obj
 0002:00006a38       ??_C@_1M@CBFHIJLI@?$AAe?$AAn?$AA?9?$AAC?$AAB@ 000000018002ca38     libucrt:lcidtoname_downlevel.obj
 0002:00006a48       ??_C@_1M@BGNFLDN@?$AAe?$AAs?$AA?9?$AAC?$AAO@ 000000018002ca48     libucrt:lcidtoname_downlevel.obj
 0002:00006a58       ??_C@_1O@JMPHMAMC@?$AAs?$AAm?$AAn?$AA?9?$AAF?$AAI@ 000000018002ca58     libucrt:lcidtoname_downlevel.obj
 0002:00006a68       ??_C@_1M@JLANABKE@?$AAa?$AAr?$AA?9?$AAS?$AAY@ 000000018002ca68     libucrt:lcidtoname_downlevel.obj
 0002:00006a78       ??_C@_1M@HPKGCFGN@?$AAe?$AAn?$AA?9?$AAB?$AAZ@ 000000018002ca78     libucrt:lcidtoname_downlevel.obj
 0002:00006a88       ??_C@_1M@OLJCMLGM@?$AAe?$AAs?$AA?9?$AAP?$AAE@ 000000018002ca88     libucrt:lcidtoname_downlevel.obj
 0002:00006a98       ??_C@_1M@MKKGFKLE@?$AAa?$AAr?$AA?9?$AAJ?$AAO@ 000000018002ca98     libucrt:lcidtoname_downlevel.obj
 0002:00006aa8       ??_C@_1M@EKPGLDNI@?$AAe?$AAn?$AA?9?$AAT?$AAT@ 000000018002caa8     libucrt:lcidtoname_downlevel.obj
 0002:00006ab8       ??_C@_1M@OONGHFHE@?$AAe?$AAs?$AA?9?$AAA?$AAR@ 000000018002cab8     libucrt:lcidtoname_downlevel.obj
 0002:00006ac8       ??_C@_1M@OOJFGBHE@?$AAa?$AAr?$AA?9?$AAL?$AAB@ 000000018002cac8     libucrt:lcidtoname_downlevel.obj
 0002:00006ad8       ??_C@_1M@GCEJHNEG@?$AAe?$AAn?$AA?9?$AAZ?$AAW@ 000000018002cad8     libucrt:lcidtoname_downlevel.obj
 0002:00006ae8       ??_C@_1M@JNOCAHJI@?$AAe?$AAs?$AA?9?$AAE?$AAC@ 000000018002cae8     libucrt:lcidtoname_downlevel.obj
 0002:00006af8       ??_C@_1M@JEFHPGGB@?$AAa?$AAr?$AA?9?$AAK?$AAW@ 000000018002caf8     libucrt:lcidtoname_downlevel.obj
 0002:00006b08       ??_C@_1M@MLKIBJOJ@?$AAe?$AAn?$AA?9?$AAP?$AAH@ 000000018002cb08     libucrt:lcidtoname_downlevel.obj
 0002:00006b18       ??_C@_1M@BDNIPEND@?$AAe?$AAs?$AA?9?$AAC?$AAL@ 000000018002cb18     libucrt:lcidtoname_downlevel.obj
 0002:00006b28       ??_C@_1M@MPNMEKBD@?$AAa?$AAr?$AA?9?$AAA?$AAE@ 000000018002cb28     libucrt:lcidtoname_downlevel.obj
 0002:00006b38       ??_C@_1M@KBJALCPI@?$AAe?$AAs?$AA?9?$AAU?$AAY@ 000000018002cb38     libucrt:lcidtoname_downlevel.obj
 0002:00006b48       ??_C@_1M@LLCCOAGA@?$AAa?$AAr?$AA?9?$AAB?$AAH@ 000000018002cb48     libucrt:lcidtoname_downlevel.obj
 0002:00006b58       ??_C@_1M@PBFNCDEL@?$AAe?$AAs?$AA?9?$AAP?$AAY@ 000000018002cb58     libucrt:lcidtoname_downlevel.obj
 0002:00006b68       ??_C@_1M@EDGINPNP@?$AAa?$AAr?$AA?9?$AAQ?$AAA@ 000000018002cb68     libucrt:lcidtoname_downlevel.obj
 0002:00006b78       ??_C@_1M@MKDBIIJI@?$AAe?$AAs?$AA?9?$AAB?$AAO@ 000000018002cb78     libucrt:lcidtoname_downlevel.obj
 0002:00006b88       ??_C@_1M@CPKKEBLD@?$AAe?$AAs?$AA?9?$AAS?$AAV@ 000000018002cb88     libucrt:lcidtoname_downlevel.obj
 0002:00006b98       ??_C@_1M@NDBGMMJL@?$AAe?$AAs?$AA?9?$AAH?$AAN@ 000000018002cb98     libucrt:lcidtoname_downlevel.obj
 0002:00006ba8       ??_C@_1M@JIJIBHDP@?$AAe?$AAs?$AA?9?$AAN?$AAI@ 000000018002cba8     libucrt:lcidtoname_downlevel.obj
 0002:00006bb8       ??_C@_1M@CGFMKEEK@?$AAe?$AAs?$AA?9?$AAP?$AAR@ 000000018002cbb8     libucrt:lcidtoname_downlevel.obj
 0002:00006bc8       ??_C@_1O@ICJHKIIK@?$AAz?$AAh?$AA?9?$AAC?$AAH?$AAT@ 000000018002cbc8     libucrt:lcidtoname_downlevel.obj
 0002:00006bd8       ??_C@_15CLNEJCE@?$AAs?$AAr@ 000000018002cbd8     libucrt:lcidtoname_downlevel.obj
 0002:00007a20       ??_C@_1M@KAHEKEIG@?$AAa?$AAf?$AA?9?$AAz?$AAa@ 000000018002da20     libucrt:lcidtoname_downlevel.obj
 0002:00007a30       ??_C@_1M@GIECOABL@?$AAa?$AAr?$AA?9?$AAa?$AAe@ 000000018002da30     libucrt:lcidtoname_downlevel.obj
 0002:00007a40       ??_C@_1M@BMLMEKGI@?$AAa?$AAr?$AA?9?$AAb?$AAh@ 000000018002da40     libucrt:lcidtoname_downlevel.obj
 0002:00007a50       ??_C@_1M@DAPFDGGB@?$AAa?$AAr?$AA?9?$AAd?$AAz@ 000000018002da50     libucrt:lcidtoname_downlevel.obj
 0002:00007a60       ??_C@_1M@FJNKGKIG@?$AAa?$AAr?$AA?9?$AAe?$AAg@ 000000018002da60     libucrt:lcidtoname_downlevel.obj
 0002:00007a70       ??_C@_1M@FLGKKCLO@?$AAa?$AAr?$AA?9?$AAi?$AAq@ 000000018002da70     libucrt:lcidtoname_downlevel.obj
 0002:00007a80       ??_C@_1M@GNDIPALM@?$AAa?$AAr?$AA?9?$AAj?$AAo@ 000000018002da80     libucrt:lcidtoname_downlevel.obj
 0002:00007a90       ??_C@_1M@DDMJFMGJ@?$AAa?$AAr?$AA?9?$AAk?$AAw@ 000000018002da90     libucrt:lcidtoname_downlevel.obj
 0002:00007aa0       ??_C@_1M@EJALMLHM@?$AAa?$AAr?$AA?9?$AAl?$AAb@ 000000018002daa0     libucrt:lcidtoname_downlevel.obj
 0002:00007ab0       ??_C@_1M@MOBDBLOC@?$AAa?$AAr?$AA?9?$AAl?$AAy@ 000000018002dab0     libucrt:lcidtoname_downlevel.obj
 0002:00007ac0       ??_C@_1M@JAOCLHDH@?$AAa?$AAr?$AA?9?$AAm?$AAa@ 000000018002dac0     libucrt:lcidtoname_downlevel.obj
 0002:00007ad0       ??_C@_1M@JHPMKJIE@?$AAa?$AAr?$AA?9?$AAo?$AAm@ 000000018002dad0     libucrt:lcidtoname_downlevel.obj
 0002:00007ae0       ??_C@_1M@OEPGHFNH@?$AAa?$AAr?$AA?9?$AAq?$AAa@ 000000018002dae0     libucrt:lcidtoname_downlevel.obj
 0002:00007af0       ??_C@_1M@KJDONENM@?$AAa?$AAr?$AA?9?$AAs?$AAa@ 000000018002daf0     libucrt:lcidtoname_downlevel.obj
 0002:00007b00       ??_C@_1M@DMJDKLKM@?$AAa?$AAr?$AA?9?$AAs?$AAy@ 000000018002db00     libucrt:lcidtoname_downlevel.obj
 0002:00007b10       ??_C@_1M@OMFIPEDC@?$AAa?$AAr?$AA?9?$AAt?$AAn@ 000000018002db10     libucrt:lcidtoname_downlevel.obj
 0002:00007b20       ??_C@_1M@IHMHGAON@?$AAa?$AAr?$AA?9?$AAy?$AAe@ 000000018002db20     libucrt:lcidtoname_downlevel.obj
 0002:00007b30       ??_C@_1BG@KDCPGJGB@?$AAa?$AAz?$AA?9?$AAa?$AAz?$AA?9?$AAc?$AAy?$AAr?$AAl@ 000000018002db30     libucrt:lcidtoname_downlevel.obj
 0002:00007b48       ??_C@_1BG@IBCKDDOE@?$AAa?$AAz?$AA?9?$AAa?$AAz?$AA?9?$AAl?$AAa?$AAt?$AAn@ 000000018002db48     libucrt:lcidtoname_downlevel.obj
 0002:00007b60       ??_C@_1M@EGPFDCPD@?$AAb?$AAe?$AA?9?$AAb?$AAy@ 000000018002db60     libucrt:lcidtoname_downlevel.obj
 0002:00007b70       ??_C@_1M@PCMGMCGC@?$AAb?$AAg?$AA?9?$AAb?$AAg@ 000000018002db70     libucrt:lcidtoname_downlevel.obj
 0002:00007b80       ??_C@_1M@BJBMFGOB@?$AAb?$AAn?$AA?9?$AAi?$AAn@ 000000018002db80     libucrt:lcidtoname_downlevel.obj
 0002:00007b90       ??_C@_1BG@EAKMMACD@?$AAb?$AAs?$AA?9?$AAb?$AAa?$AA?9?$AAl?$AAa?$AAt?$AAn@ 000000018002db90     libucrt:lcidtoname_downlevel.obj
 0002:00007ba8       ??_C@_1M@KGADAODK@?$AAc?$AAa?$AA?9?$AAe?$AAs@ 000000018002dba8     libucrt:lcidtoname_downlevel.obj
 0002:00007bb8       ??_C@_1M@COAJPDHI@?$AAc?$AAs?$AA?9?$AAc?$AAz@ 000000018002dbb8     libucrt:lcidtoname_downlevel.obj
 0002:00007bc8       ??_C@_1M@DHBHFONH@?$AAc?$AAy?$AA?9?$AAg?$AAb@ 000000018002dbc8     libucrt:lcidtoname_downlevel.obj
 0002:00007bd8       ??_C@_1M@IMGKELGA@?$AAd?$AAa?$AA?9?$AAd?$AAk@ 000000018002dbd8     libucrt:lcidtoname_downlevel.obj
 0002:00007be8       ??_C@_1M@NNDGDNGA@?$AAd?$AAe?$AA?9?$AAa?$AAt@ 000000018002dbe8     libucrt:lcidtoname_downlevel.obj
 0002:00007bf8       ??_C@_1M@IKDBHEEM@?$AAd?$AAe?$AA?9?$AAc?$AAh@ 000000018002dbf8     libucrt:lcidtoname_downlevel.obj
 0002:00007c08       ??_C@_1M@GFFOJMCJ@?$AAd?$AAe?$AA?9?$AAd?$AAe@ 000000018002dc08     libucrt:lcidtoname_downlevel.obj
 0002:00007c18       ??_C@_1M@MDNLKBPM@?$AAd?$AAe?$AA?9?$AAl?$AAi@ 000000018002dc18     libucrt:lcidtoname_downlevel.obj
 0002:00007c28       ??_C@_1M@NJBEEJNL@?$AAd?$AAe?$AA?9?$AAl?$AAu@ 000000018002dc28     libucrt:lcidtoname_downlevel.obj
 0002:00007c38       ??_C@_1O@GNNELBAP@?$AAd?$AAi?$AAv?$AA?9?$AAm?$AAv@ 000000018002dc38     libucrt:lcidtoname_downlevel.obj
 0002:00007c48       ??_C@_1M@EJLEOGAE@?$AAe?$AAl?$AA?9?$AAg?$AAr@ 000000018002dc48     libucrt:lcidtoname_downlevel.obj
 0002:00007c58       ??_C@_1M@GMPONJN@?$AAe?$AAn?$AA?9?$AAa?$AAu@ 000000018002dc58     libucrt:lcidtoname_downlevel.obj
 0002:00007c68       ??_C@_1M@NIDIIPGF@?$AAe?$AAn?$AA?9?$AAb?$AAz@ 000000018002dc68     libucrt:lcidtoname_downlevel.obj
 0002:00007c78       ??_C@_1M@JEHMIMFO@?$AAe?$AAn?$AA?9?$AAc?$AAa@ 000000018002dc78     libucrt:lcidtoname_downlevel.obj
 0002:00007c88       ??_C@_1M@IGMJCDLA@?$AAe?$AAn?$AA?9?$AAc?$AAb@ 000000018002dc88     libucrt:lcidtoname_downlevel.obj
 0002:00007c98       ??_C@_1M@BNFIGBKG@?$AAe?$AAn?$AA?9?$AAg?$AAb@ 000000018002dc98     libucrt:lcidtoname_downlevel.obj
 0002:00007ca8       ??_C@_1M@LKIFDIGP@?$AAe?$AAn?$AA?9?$AAi?$AAe@ 000000018002dca8     libucrt:lcidtoname_downlevel.obj
 0002:00007cb8       ??_C@_1M@PJKFGCCO@?$AAe?$AAn?$AA?9?$AAj?$AAm@ 000000018002dcb8     libucrt:lcidtoname_downlevel.obj
 0002:00007cc8       ??_C@_1M@KPPKEPBO@?$AAe?$AAn?$AA?9?$AAn?$AAz@ 000000018002dcc8     libucrt:lcidtoname_downlevel.obj
 0002:00007cd8       ??_C@_1M@GMDGLDOB@?$AAe?$AAn?$AA?9?$AAp?$AAh@ 000000018002dcd8     libucrt:lcidtoname_downlevel.obj
 0002:00007ce8       ??_C@_1M@ONGIBJNA@?$AAe?$AAn?$AA?9?$AAt?$AAt@ 000000018002dce8     libucrt:lcidtoname_downlevel.obj
 0002:00007cf8       ??_C@_1M@LLODPCMM@?$AAe?$AAn?$AA?9?$AAu?$AAs@ 000000018002dcf8     libucrt:lcidtoname_downlevel.obj
 0002:00007d08       ??_C@_1M@LAKFNPAN@?$AAe?$AAn?$AA?9?$AAz?$AAa@ 000000018002dd08     libucrt:lcidtoname_downlevel.obj
 0002:00007d18       ??_C@_1M@MFNHNHEO@?$AAe?$AAn?$AA?9?$AAz?$AAw@ 000000018002dd18     libucrt:lcidtoname_downlevel.obj
 0002:00007d28       ??_C@_1M@EJEINPHM@?$AAe?$AAs?$AA?9?$AAa?$AAr@ 000000018002dd28     libucrt:lcidtoname_downlevel.obj
 0002:00007d38       ??_C@_1M@GNKPCCJA@?$AAe?$AAs?$AA?9?$AAb?$AAo@ 000000018002dd38     libucrt:lcidtoname_downlevel.obj
 0002:00007d48       ??_C@_1M@LEEGFONL@?$AAe?$AAs?$AA?9?$AAc?$AAl@ 000000018002dd48     libucrt:lcidtoname_downlevel.obj
 0002:00007d58       ??_C@_1M@KGPDPBDF@?$AAe?$AAs?$AA?9?$AAc?$AAo@ 000000018002dd58     libucrt:lcidtoname_downlevel.obj
 0002:00007d68       ??_C@_1M@EIAHOHH@?$AAe?$AAs?$AA?9?$AAc?$AAr@ 000000018002dd68     libucrt:lcidtoname_downlevel.obj
 0002:00007d78       ??_C@_1M@LLPGMBIN@?$AAe?$AAs?$AA?9?$AAd?$AAo@ 000000018002dd78     libucrt:lcidtoname_downlevel.obj
 0002:00007d88       ??_C@_1M@DKHMKNJA@?$AAe?$AAs?$AA?9?$AAe?$AAc@ 000000018002dd88     libucrt:lcidtoname_downlevel.obj
 0002:00007d98       ??_C@_1M@GKGFPKAP@?$AAe?$AAs?$AA?9?$AAe?$AAs@ 000000018002dd98     libucrt:lcidtoname_downlevel.obj
 0002:00007da8       ??_C@_1M@LKHKGDLN@?$AAe?$AAs?$AA?9?$AAg?$AAt@ 000000018002dda8     libucrt:lcidtoname_downlevel.obj
 0002:00007db8       ??_C@_1M@HEIIGGJD@?$AAe?$AAs?$AA?9?$AAh?$AAn@ 000000018002ddb8     libucrt:lcidtoname_downlevel.obj
 0002:00007dc8       ??_C@_1M@FBDHPPGD@?$AAe?$AAs?$AA?9?$AAm?$AAx@ 000000018002ddc8     libucrt:lcidtoname_downlevel.obj
 0002:00007dd8       ??_C@_1M@DPAGLNDH@?$AAe?$AAs?$AA?9?$AAn?$AAi@ 000000018002ddd8     libucrt:lcidtoname_downlevel.obj
 0002:00007de8       ??_C@_1M@MDGOPGDD@?$AAe?$AAs?$AA?9?$AAp?$AAa@ 000000018002dde8     libucrt:lcidtoname_downlevel.obj
 0002:00007df8       ??_C@_1M@EMAMGBGE@?$AAe?$AAs?$AA?9?$AAp?$AAe@ 000000018002ddf8     libucrt:lcidtoname_downlevel.obj
 0002:00007e08       ??_C@_1M@IBMCAOEC@?$AAe?$AAs?$AA?9?$AAp?$AAr@ 000000018002de08     libucrt:lcidtoname_downlevel.obj
 0002:00007e18       ??_C@_1M@FGMDIJED@?$AAe?$AAs?$AA?9?$AAp?$AAy@ 000000018002de18     libucrt:lcidtoname_downlevel.obj
 0002:00007e28       ??_C@_1M@IIDEOLLL@?$AAe?$AAs?$AA?9?$AAs?$AAv@ 000000018002de28     libucrt:lcidtoname_downlevel.obj
 0002:00007e38       ??_C@_1M@GAOBIPA@?$AAe?$AAs?$AA?9?$AAu?$AAy@ 000000018002de38     libucrt:lcidtoname_downlevel.obj
 0002:00007e48       ??_C@_1M@JKFFICHJ@?$AAe?$AAs?$AA?9?$AAv?$AAe@ 000000018002de48     libucrt:lcidtoname_downlevel.obj
 0002:00007e58       ??_C@_1M@PNMLOJDF@?$AAe?$AAt?$AA?9?$AAe?$AAe@ 000000018002de58     libucrt:lcidtoname_downlevel.obj
 0002:00007e68       ??_C@_1M@GHHLIKEI@?$AAe?$AAu?$AA?9?$AAe?$AAs@ 000000018002de68     libucrt:lcidtoname_downlevel.obj
 0002:00007e78       ??_C@_1M@PBNONODE@?$AAf?$AAa?$AA?9?$AAi?$AAr@ 000000018002de78     libucrt:lcidtoname_downlevel.obj
 0002:00007e88       ??_C@_1M@JEEHPMIL@?$AAf?$AAi?$AA?9?$AAf?$AAi@ 000000018002de88     libucrt:lcidtoname_downlevel.obj
 0002:00007e98       ??_C@_1M@LMDCNDBA@?$AAf?$AAo?$AA?9?$AAf?$AAo@ 000000018002de98     libucrt:lcidtoname_downlevel.obj
 0002:00007ea8       ??_C@_1M@JKEOHLDK@?$AAf?$AAr?$AA?9?$AAb?$AAe@ 000000018002dea8     libucrt:lcidtoname_downlevel.obj
 0002:00007eb8       ??_C@_1M@NOHADPMI@?$AAf?$AAr?$AA?9?$AAc?$AAa@ 000000018002deb8     libucrt:lcidtoname_downlevel.obj
 0002:00007ec8       ??_C@_1M@KDHIHAEC@?$AAf?$AAr?$AA?9?$AAc?$AAh@ 000000018002dec8     libucrt:lcidtoname_downlevel.obj
 0002:00007ed8       ??_C@_1M@MMBBFGAK@?$AAf?$AAr?$AA?9?$AAf?$AAr@ 000000018002ded8     libucrt:lcidtoname_downlevel.obj
 0002:00007ee8       ??_C@_1M@PAFNENNF@?$AAf?$AAr?$AA?9?$AAl?$AAu@ 000000018002dee8     libucrt:lcidtoname_downlevel.obj
 0002:00007ef8       ??_C@_1M@EOHDJGDD@?$AAf?$AAr?$AA?9?$AAm?$AAc@ 000000018002def8     libucrt:lcidtoname_downlevel.obj
 0002:00007f08       ??_C@_1M@FAPLLOPF@?$AAg?$AAl?$AA?9?$AAe?$AAs@ 000000018002df08     libucrt:lcidtoname_downlevel.obj
 0002:00007f18       ??_C@_1M@FOPBFLOO@?$AAg?$AAu?$AA?9?$AAi?$AAn@ 000000018002df18     libucrt:lcidtoname_downlevel.obj
 0002:00007f28       ??_C@_1M@KBMCINPM@?$AAh?$AAe?$AA?9?$AAi?$AAl@ 000000018002df28     libucrt:lcidtoname_downlevel.obj
 0002:00007f38       ??_C@_1M@BBPHKFPJ@?$AAh?$AAi?$AA?9?$AAi?$AAn@ 000000018002df38     libucrt:lcidtoname_downlevel.obj
 0002:00007f48       ??_C@_1M@PMBNDPHD@?$AAh?$AAr?$AA?9?$AAb?$AAa@ 000000018002df48     libucrt:lcidtoname_downlevel.obj
 0002:00007f58       ??_C@_1M@BPCKOEGE@?$AAh?$AAr?$AA?9?$AAh?$AAr@ 000000018002df58     libucrt:lcidtoname_downlevel.obj
 0002:00007f68       ??_C@_1M@GACBMHKE@?$AAh?$AAu?$AA?9?$AAh?$AAu@ 000000018002df68     libucrt:lcidtoname_downlevel.obj
 0002:00007f78       ??_C@_1M@MILPAJJC@?$AAh?$AAy?$AA?9?$AAa?$AAm@ 000000018002df78     libucrt:lcidtoname_downlevel.obj
 0002:00007f88       ??_C@_1M@BABBICEC@?$AAi?$AAd?$AA?9?$AAi?$AAd@ 000000018002df88     libucrt:lcidtoname_downlevel.obj
 0002:00007f98       ??_C@_1M@BIKNHHPF@?$AAi?$AAs?$AA?9?$AAi?$AAs@ 000000018002df98     libucrt:lcidtoname_downlevel.obj
 0002:00007fa8       ??_C@_1M@NMPCJPHE@?$AAi?$AAt?$AA?9?$AAc?$AAh@ 000000018002dfa8     libucrt:lcidtoname_downlevel.obj
 0002:00007fb8       ??_C@_1M@GHKGFEDF@?$AAi?$AAt?$AA?9?$AAi?$AAt@ 000000018002dfb8     libucrt:lcidtoname_downlevel.obj
 0002:00007fc8       ??_C@_1M@NIEJCJJA@?$AAj?$AAa?$AA?9?$AAj?$AAp@ 000000018002dfc8     libucrt:lcidtoname_downlevel.obj
 0002:00007fd8       ??_C@_1M@JILFNBIM@?$AAk?$AAa?$AA?9?$AAg?$AAe@ 000000018002dfd8     libucrt:lcidtoname_downlevel.obj
 0002:00007fe8       ??_C@_1M@PACPMGPH@?$AAk?$AAk?$AA?9?$AAk?$AAz@ 000000018002dfe8     libucrt:lcidtoname_downlevel.obj
 0002:00007ff8       ??_C@_1M@IELFGMHA@?$AAk?$AAn?$AA?9?$AAi?$AAn@ 000000018002dff8     libucrt:lcidtoname_downlevel.obj
 0002:00008008       ??_C@_1O@IBBJHCH@?$AAk?$AAo?$AAk?$AA?9?$AAi?$AAn@ 000000018002e008     libucrt:lcidtoname_downlevel.obj
 0002:00008018       ??_C@_1M@DMHAEOGC@?$AAk?$AAo?$AA?9?$AAk?$AAr@ 000000018002e018     libucrt:lcidtoname_downlevel.obj
 0002:00008028       ??_C@_1M@HBAHBIGA@?$AAk?$AAy?$AA?9?$AAk?$AAg@ 000000018002e028     libucrt:lcidtoname_downlevel.obj
 0002:00008038       ??_C@_1M@KPMILCJG@?$AAl?$AAt?$AA?9?$AAl?$AAt@ 000000018002e038     libucrt:lcidtoname_downlevel.obj
 0002:00008048       ??_C@_1M@BDEKKCA@?$AAl?$AAv?$AA?9?$AAl?$AAv@ 000000018002e048     libucrt:lcidtoname_downlevel.obj
 0002:00008058       ??_C@_1M@ELCKCCJJ@?$AAm?$AAi?$AA?9?$AAn?$AAz@ 000000018002e058     libucrt:lcidtoname_downlevel.obj
 0002:00008068       ??_C@_1M@CBOOLAPA@?$AAm?$AAk?$AA?9?$AAm?$AAk@ 000000018002e068     libucrt:lcidtoname_downlevel.obj
 0002:00008078       ??_C@_1M@GPHNBJKN@?$AAm?$AAl?$AA?9?$AAi?$AAn@ 000000018002e078     libucrt:lcidtoname_downlevel.obj
 0002:00008088       ??_C@_1M@PABJILIG@?$AAm?$AAn?$AA?9?$AAm?$AAn@ 000000018002e088     libucrt:lcidtoname_downlevel.obj
 0002:00008098       ??_C@_1M@FGBKKIPG@?$AAm?$AAr?$AA?9?$AAi?$AAn@ 000000018002e098     libucrt:lcidtoname_downlevel.obj
 0002:000080a8       ??_C@_1M@NDBPDDAL@?$AAm?$AAs?$AA?9?$AAb?$AAn@ 000000018002e0a8     libucrt:lcidtoname_downlevel.obj
 0002:000080b8       ??_C@_1M@OPIHOOPI@?$AAm?$AAs?$AA?9?$AAm?$AAy@ 000000018002e0b8     libucrt:lcidtoname_downlevel.obj
 0002:000080c8       ??_C@_1M@PPDBCNFM@?$AAm?$AAt?$AA?9?$AAm?$AAt@ 000000018002e0c8     libucrt:lcidtoname_downlevel.obj
 0002:000080d8       ??_C@_1M@KDJDKMDD@?$AAn?$AAb?$AA?9?$AAn?$AAo@ 000000018002e0d8     libucrt:lcidtoname_downlevel.obj
 0002:000080e8       ??_C@_1M@KFCFLMJP@?$AAn?$AAl?$AA?9?$AAb?$AAe@ 000000018002e0e8     libucrt:lcidtoname_downlevel.obj
 0002:000080f8       ??_C@_1M@KPOPDDGO@?$AAn?$AAl?$AA?9?$AAn?$AAl@ 000000018002e0f8     libucrt:lcidtoname_downlevel.obj
 0002:00008108       ??_C@_1M@LJKPEMLN@?$AAn?$AAn?$AA?9?$AAn?$AAo@ 000000018002e108     libucrt:lcidtoname_downlevel.obj
 0002:00008118       ??_C@_1M@BDGHHBFL@?$AAn?$AAs?$AA?9?$AAz?$AAa@ 000000018002e118     libucrt:lcidtoname_downlevel.obj
 0002:00008128       ??_C@_1M@IDEHOAP@?$AAp?$AAa?$AA?9?$AAi?$AAn@ 000000018002e128     libucrt:lcidtoname_downlevel.obj
 0002:00008138       ??_C@_1M@HDBKGOGH@?$AAp?$AAl?$AA?9?$AAp?$AAl@ 000000018002e138     libucrt:lcidtoname_downlevel.obj
 0002:00008148       ??_C@_1M@LJLLCMEH@?$AAp?$AAt?$AA?9?$AAb?$AAr@ 000000018002e148     libucrt:lcidtoname_downlevel.obj
 0002:00008158       ??_C@_1M@NCMONAAL@?$AAp?$AAt?$AA?9?$AAp?$AAt@ 000000018002e158     libucrt:lcidtoname_downlevel.obj
 0002:00008168       ??_C@_1O@EAKMAJDN@?$AAq?$AAu?$AAz?$AA?9?$AAb?$AAo@ 000000018002e168     libucrt:lcidtoname_downlevel.obj
 0002:00008178       ??_C@_1O@BHHPIGDN@?$AAq?$AAu?$AAz?$AA?9?$AAe?$AAc@ 000000018002e178     libucrt:lcidtoname_downlevel.obj
 0002:00008188       ??_C@_1O@GBAPEKMJ@?$AAq?$AAu?$AAz?$AA?9?$AAp?$AAe@ 000000018002e188     libucrt:lcidtoname_downlevel.obj
 0002:00008198       ??_C@_1M@CLGLEFBO@?$AAr?$AAo?$AA?9?$AAr?$AAo@ 000000018002e198     libucrt:lcidtoname_downlevel.obj
 0002:000081a8       ??_C@_1M@CEEDODME@?$AAr?$AAu?$AA?9?$AAr?$AAu@ 000000018002e1a8     libucrt:lcidtoname_downlevel.obj
 0002:000081b8       ??_C@_1M@HPKKKMPP@?$AAs?$AAa?$AA?9?$AAi?$AAn@ 000000018002e1b8     libucrt:lcidtoname_downlevel.obj
 0002:000081c8       ??_C@_1M@BKMAIGOJ@?$AAs?$AAe?$AA?9?$AAf?$AAi@ 000000018002e1c8     libucrt:lcidtoname_downlevel.obj
 0002:000081d8       ??_C@_1M@NDPIFLFI@?$AAs?$AAe?$AA?9?$AAn?$AAo@ 000000018002e1d8     libucrt:lcidtoname_downlevel.obj
 0002:000081e8       ??_C@_1M@DANKKHJ@?$AAs?$AAe?$AA?9?$AAs?$AAe@ 000000018002e1e8     libucrt:lcidtoname_downlevel.obj
 0002:000081f8       ??_C@_1M@PNBLONPJ@?$AAs?$AAk?$AA?9?$AAs?$AAk@ 000000018002e1f8     libucrt:lcidtoname_downlevel.obj
 0002:00008208       ??_C@_1M@LFMODOAL@?$AAs?$AAl?$AA?9?$AAs?$AAi@ 000000018002e208     libucrt:lcidtoname_downlevel.obj
 0002:00008218       ??_C@_1O@DFKOMPG@?$AAs?$AAm?$AAa?$AA?9?$AAn?$AAo@ 000000018002e218     libucrt:lcidtoname_downlevel.obj
 0002:00008228       ??_C@_1O@NDKPBNNH@?$AAs?$AAm?$AAa?$AA?9?$AAs?$AAe@ 000000018002e228     libucrt:lcidtoname_downlevel.obj
 0002:00008238       ??_C@_1O@PLLKBHAB@?$AAs?$AAm?$AAj?$AA?9?$AAn?$AAo@ 000000018002e238     libucrt:lcidtoname_downlevel.obj
 0002:00008248       ??_C@_1O@CLEPOGCA@?$AAs?$AAm?$AAj?$AA?9?$AAs?$AAe@ 000000018002e248     libucrt:lcidtoname_downlevel.obj
 0002:00008258       ??_C@_1O@DLGJGKMK@?$AAs?$AAm?$AAn?$AA?9?$AAf?$AAi@ 000000018002e258     libucrt:lcidtoname_downlevel.obj
 0002:00008268       ??_C@_1O@OJDJGAJC@?$AAs?$AAm?$AAs?$AA?9?$AAf?$AAi@ 000000018002e268     libucrt:lcidtoname_downlevel.obj
 0002:00008278       ??_C@_1M@BOFOGHPB@?$AAs?$AAq?$AA?9?$AAa?$AAl@ 000000018002e278     libucrt:lcidtoname_downlevel.obj
 0002:00008288       ??_C@_1BG@LJBBIPGB@?$AAs?$AAr?$AA?9?$AAb?$AAa?$AA?9?$AAc?$AAy?$AAr?$AAl@ 000000018002e288     libucrt:lcidtoname_downlevel.obj
 0002:000082a0       ??_C@_1BG@JLBENFOE@?$AAs?$AAr?$AA?9?$AAb?$AAa?$AA?9?$AAl?$AAa?$AAt?$AAn@ 000000018002e2a0     libucrt:lcidtoname_downlevel.obj
 0002:000082b8       ??_C@_1BG@KODPNHE@?$AAs?$AAr?$AA?9?$AAs?$AAp?$AA?9?$AAc?$AAy?$AAr?$AAl@ 000000018002e2b8     libucrt:lcidtoname_downlevel.obj
 0002:000082d0       ??_C@_1BG@CIOGKHPB@?$AAs?$AAr?$AA?9?$AAs?$AAp?$AA?9?$AAl?$AAa?$AAt?$AAn@ 000000018002e2d0     libucrt:lcidtoname_downlevel.obj
 0002:000082e8       ??_C@_1M@NGFJLMAC@?$AAs?$AAv?$AA?9?$AAf?$AAi@ 000000018002e2e8     libucrt:lcidtoname_downlevel.obj
 0002:000082f8       ??_C@_1M@MPJEJAJC@?$AAs?$AAv?$AA?9?$AAs?$AAe@ 000000018002e2f8     libucrt:lcidtoname_downlevel.obj
 0002:00008308       ??_C@_1M@MPNDHLFK@?$AAs?$AAw?$AA?9?$AAk?$AAe@ 000000018002e308     libucrt:lcidtoname_downlevel.obj
 0002:00008318       ??_C@_1O@KOHBJJI@?$AAs?$AAy?$AAr?$AA?9?$AAs?$AAy@ 000000018002e318     libucrt:lcidtoname_downlevel.obj
 0002:00008328       ??_C@_1M@LDCEFHA@?$AAt?$AAa?$AA?9?$AAi?$AAn@ 000000018002e328     libucrt:lcidtoname_downlevel.obj
 0002:00008338       ??_C@_1M@CNJOFAK@?$AAt?$AAe?$AA?9?$AAi?$AAn@ 000000018002e338     libucrt:lcidtoname_downlevel.obj
 0002:00008348       ??_C@_1M@GNAECACD@?$AAt?$AAh?$AA?9?$AAt?$AAh@ 000000018002e348     libucrt:lcidtoname_downlevel.obj
 0002:00008358       ??_C@_1M@CHBIHOJO@?$AAt?$AAn?$AA?9?$AAz?$AAa@ 000000018002e358     libucrt:lcidtoname_downlevel.obj
 0002:00008368       ??_C@_1M@GCCMIGPJ@?$AAt?$AAr?$AA?9?$AAt?$AAr@ 000000018002e368     libucrt:lcidtoname_downlevel.obj
 0002:00008378       ??_C@_1M@CELMCNBK@?$AAt?$AAt?$AA?9?$AAr?$AAu@ 000000018002e378     libucrt:lcidtoname_downlevel.obj
 0002:00008388       ??_C@_1M@KLMCELGA@?$AAu?$AAk?$AA?9?$AAu?$AAa@ 000000018002e388     libucrt:lcidtoname_downlevel.obj
 0002:00008398       ??_C@_1M@EPAJJAJF@?$AAu?$AAr?$AA?9?$AAp?$AAk@ 000000018002e398     libucrt:lcidtoname_downlevel.obj
 0002:000083a8       ??_C@_1BG@GEGPMCDJ@?$AAu?$AAz?$AA?9?$AAu?$AAz?$AA?9?$AAc?$AAy?$AAr?$AAl@ 000000018002e3a8     libucrt:lcidtoname_downlevel.obj
 0002:000083c0       ??_C@_1BG@EGGKJILM@?$AAu?$AAz?$AA?9?$AAu?$AAz?$AA?9?$AAl?$AAa?$AAt?$AAn@ 000000018002e3c0     libucrt:lcidtoname_downlevel.obj
 0002:000083d8       ??_C@_1M@GFOCLFF@?$AAv?$AAi?$AA?9?$AAv?$AAn@ 000000018002e3d8     libucrt:lcidtoname_downlevel.obj
 0002:000083e8       ??_C@_1M@CPAMEDFI@?$AAx?$AAh?$AA?9?$AAz?$AAa@ 000000018002e3e8     libucrt:lcidtoname_downlevel.obj
 0002:000083f8       ??_C@_1O@EBKIFIGN@?$AAz?$AAh?$AA?9?$AAc?$AAh?$AAs@ 000000018002e3f8     libucrt:lcidtoname_downlevel.obj
 0002:00008408       ??_C@_1O@NMHPGANE@?$AAz?$AAh?$AA?9?$AAc?$AAh?$AAt@ 000000018002e408     libucrt:lcidtoname_downlevel.obj
 0002:00008418       ??_C@_1M@LPINJOMC@?$AAz?$AAh?$AA?9?$AAc?$AAn@ 000000018002e418     libucrt:lcidtoname_downlevel.obj
 0002:00008428       ??_C@_1M@OCJEJODD@?$AAz?$AAh?$AA?9?$AAh?$AAk@ 000000018002e428     libucrt:lcidtoname_downlevel.obj
 0002:00008438       ??_C@_1M@DNDLJINH@?$AAz?$AAh?$AA?9?$AAm?$AAo@ 000000018002e438     libucrt:lcidtoname_downlevel.obj
 0002:00008448       ??_C@_1M@MBFDNDND@?$AAz?$AAh?$AA?9?$AAs?$AAg@ 000000018002e448     libucrt:lcidtoname_downlevel.obj
 0002:00008458       ??_C@_1M@IMEPLEPE@?$AAz?$AAh?$AA?9?$AAt?$AAw@ 000000018002e458     libucrt:lcidtoname_downlevel.obj
 0002:00008468       ??_C@_1M@BBGHNHJP@?$AAz?$AAu?$AA?9?$AAz?$AAa@ 000000018002e468     libucrt:lcidtoname_downlevel.obj
 0002:00008480       ?large_power_data@?1??multiply_by_power_of_ten@__crt_strtox@@YA_NAEAUbig_integer@2@I@Z@4QBIB 000000018002e480     libucrt:cfout.obj
 0002:00008d90       ?large_power_indices@?1??multiply_by_power_of_ten@__crt_strtox@@YA_NAEAUbig_integer@2@I@Z@4QBUunpack_index@?1??12@YA_N0I@Z@B 000000018002ed90     libucrt:cfout.obj
 0002:00008e28       ?small_powers_of_ten@?1??multiply_by_power_of_ten@__crt_strtox@@YA_NAEAUbig_integer@2@I@Z@4QBIB 000000018002ee28     libucrt:cfout.obj
 0002:00008e4c       ??_C@_01GBGANLPD@0@        000000018002ee4c     libucrt:cfout.obj
 0002:00008e50       ??_C@_05DNEBIAHO@1?$CDINF@ 000000018002ee50     libucrt:cfout.obj
 0002:00008e58       ??_C@_06IMKFLFPG@1?$CDQNAN@ 000000018002ee58     libucrt:cfout.obj
 0002:00008e60       ??_C@_06PGGFOGJG@1?$CDSNAN@ 000000018002ee60     libucrt:cfout.obj
 0002:00008e68       ??_C@_05PHHOCPM@1?$CDIND@  000000018002ee68     libucrt:cfout.obj
 0002:00008e98       __real@3ff0000000000000    000000018002ee98     libucrt:ceil.obj
 0002:000090f0       __log10_256_lead           000000018002f0f0     libucrt:log10_256_lead_tail_table.obj
 0002:00009900       __log10_256_tail           000000018002f900     libucrt:log10_256_lead_tail_table.obj
 0002:0000a110       __log_F_inv_qword          0000000180030110     libucrt:log_f_inv_qword_table.obj
 0002:0000a920       ??_C@_05HGHHAHAP@log10@    0000000180030920     libucrt:log_special.obj
 0002:0000a928       ??_C@_1BA@BALFACEM@?$AAC?$AAO?$AAN?$AAO?$AAU?$AAT?$AA$@ 0000000180030928     libucrt:initcon.obj
 0002:0000a9b0       _load_config_used          00000001800309b0     LIBCMT:loadcfg.obj
 0002:0000ab00       _tls_used                  0000000180030b00     LIBCMT:tlssup.obj
 0002:0000ab28       ??_R4exception@std@@6B@    0000000180030b28     LIBCMT:throw_bad_alloc.obj
 0002:0000ab50       ??_R3exception@std@@8      0000000180030b50     LIBCMT:throw_bad_alloc.obj
 0002:0000ab68       ??_R2exception@std@@8      0000000180030b68     LIBCMT:throw_bad_alloc.obj
 0002:0000ab78       ??_R1A@?0A@EA@exception@std@@8 0000000180030b78     LIBCMT:throw_bad_alloc.obj
 0002:0000aba0       ??_R4bad_alloc@std@@6B@    0000000180030ba0     LIBCMT:throw_bad_alloc.obj
 0002:0000abc8       ??_R3bad_alloc@std@@8      0000000180030bc8     LIBCMT:throw_bad_alloc.obj
 0002:0000abe0       ??_R2bad_alloc@std@@8      0000000180030be0     LIBCMT:throw_bad_alloc.obj
 0002:0000abf8       ??_R1A@?0A@EA@bad_alloc@std@@8 0000000180030bf8     LIBCMT:throw_bad_alloc.obj
 0002:0000ac20       ??_R4bad_array_new_length@std@@6B@ 0000000180030c20     LIBCMT:throw_bad_alloc.obj
 0002:0000ac48       ??_R3bad_array_new_length@std@@8 0000000180030c48     LIBCMT:throw_bad_alloc.obj
 0002:0000ac60       ??_R2bad_array_new_length@std@@8 0000000180030c60     LIBCMT:throw_bad_alloc.obj
 0002:0000ac80       ??_R1A@?0A@EA@bad_array_new_length@std@@8 0000000180030c80     LIBCMT:throw_bad_alloc.obj
 0002:0000aca8       ??_R4type_info@@6B@        0000000180030ca8     LIBCMT:std_type_info_static.obj
 0002:0000acd0       ??_R3type_info@@8          0000000180030cd0     LIBCMT:std_type_info_static.obj
 0002:0000ace8       ??_R2type_info@@8          0000000180030ce8     LIBCMT:std_type_info_static.obj
 0002:0000acf8       ??_R1A@?0A@EA@type_info@@8 0000000180030cf8     LIBCMT:std_type_info_static.obj
 0002:0000ad20       ??_R4bad_exception@std@@6B@ 0000000180030d20     libvcruntime:frame.obj
 0002:0000ad48       ??_R3bad_exception@std@@8  0000000180030d48     libvcruntime:frame.obj
 0002:0000ad60       ??_R2bad_exception@std@@8  0000000180030d60     libvcruntime:frame.obj
 0002:0000ad78       ??_R1A@?0A@EA@bad_exception@std@@8 0000000180030d78     libvcruntime:frame.obj
 0002:0000ad9c       __volatile_metadata        0000000180030d9c     <linker-defined>
 0002:0000b220       __rtc_iaa                  0000000180031220     LIBCMT:initsect.obj
 0002:0000b228       __rtc_izz                  0000000180031228     LIBCMT:initsect.obj
 0002:0000b230       __rtc_taa                  0000000180031230     LIBCMT:initsect.obj
 0002:0000b238       __rtc_tzz                  0000000180031238     LIBCMT:initsect.obj
 0002:0000b240       _tls_start                 0000000180031240     LIBCMT:tlssup.obj
 0002:0000b244       _Init_thread_epoch         0000000180031244     LIBCMT:thread_safe_statics.obj
 0002:0000b248       _tls_end                   0000000180031248     LIBCMT:tlssup.obj
 0002:0000cb68       _TI2?AVbad_alloc@std@@     0000000180032b68     LIBCMT:throw_bad_alloc.obj
 0002:0000cb88       _CTA2?AVbad_alloc@std@@    0000000180032b88     LIBCMT:throw_bad_alloc.obj
 0002:0000cba0       _CT??_R0?AVbad_alloc@std@@@8??0bad_alloc@std@@QEAA@AEBV01@@Z24 0000000180032ba0     LIBCMT:throw_bad_alloc.obj
 0002:0000cbc8       _CT??_R0?AVexception@std@@@8??0exception@std@@QEAA@AEBV01@@Z24 0000000180032bc8     LIBCMT:throw_bad_alloc.obj
 0002:0000cbf0       _TI3?AVbad_array_new_length@std@@ 0000000180032bf0     LIBCMT:throw_bad_alloc.obj
 0002:0000cc10       _CTA3?AVbad_array_new_length@std@@ 0000000180032c10     LIBCMT:throw_bad_alloc.obj
 0002:0000cc30       _CT??_R0?AVbad_array_new_length@std@@@8??0bad_array_new_length@std@@QEAA@AEBV01@@Z24 0000000180032c30     LIBCMT:throw_bad_alloc.obj
 0002:0000cc58       _TI2?AVbad_exception@std@@ 0000000180032c58     libvcruntime:frame.obj
 0002:0000cc78       _CTA2?AVbad_exception@std@@ 0000000180032c78     libvcruntime:frame.obj
 0002:0000cc90       _CT??_R0?AVbad_exception@std@@@8??0bad_exception@std@@QEAA@AEBV01@@Z24 0000000180032c90     libvcruntime:frame.obj
 0002:0000ccb8       __pobjMapEntryFirst        0000000180032cb8     OposVariant.obj
 0002:0000ccc0       __pobjMapEntryLast         0000000180032cc0     OposVariant.obj
 0002:0000cd80       __IMPORT_DESCRIPTOR_KERNEL32 0000000180032d80     kernel32:KERNEL32.dll
 0002:0000cd94       __IMPORT_DESCRIPTOR_USER32 0000000180032d94     user32:USER32.dll
 0002:0000cda8       __IMPORT_DESCRIPTOR_GDI32  0000000180032da8     gdi32:GDI32.dll
 0002:0000cdbc       __IMPORT_DESCRIPTOR_ADVAPI32 0000000180032dbc     advapi32:ADVAPI32.dll
 0002:0000cdd0       __IMPORT_DESCRIPTOR_ole32  0000000180032dd0     ole32:ole32.dll
 0002:0000cde4       __IMPORT_DESCRIPTOR_OLEAUT32 0000000180032de4     oleaut32:OLEAUT32.dll
 0002:0000cdf8       __NULL_IMPORT_DESCRIPTOR   0000000180032df8     kernel32:KERNEL32.dll
 0003:00000000       ?rcDefault@CWindow@ATL@@2UtagRECT@@A 0000000180035000     BillDispenser.obj
 0003:00000010       ?s_Claim@?7??GetIDsOfNames@CComTypeInfoHolder@ATL@@QEAAJAEBU_GUID@@PEAPEA_WIKPEAJ@Z@4PA_WA 0000000180035010     BillDispenser.obj
 0003:00000028       ?s_Release@?7??GetIDsOfNames@CComTypeInfoHolder@ATL@@QEAAJAEBU_GUID@@PEAPEA_WIKPEAJ@Z@4PA_WA 0000000180035028     BillDispenser.obj
 0003:00000048       ?_tih@?$IDispatchImpl@UIOPOSBillDispenser@@$1?IID_IOPOSBillDispenser@@3U_GUID@@B$1?LIBID_OposBillDispenser_CCO@@3U3@B$00$0A@VCComTypeInfoHolder@ATL@@@ATL@@1VCComTypeInfoHolder@2@A 0000000180035048     BillDispenser.obj
 0003:00000080       ?_tih@?$IProvideClassInfo2Impl@$1?CLSID_OPOSBillDispenser@@3U_GUID@@B$1?DIID__IOPOSBillDispenserEvents@@3U2@B$1?LIBID_OposBillDispenser_CCO@@3U2@B$00$0A@VCComTypeInfoHolder@ATL@@@ATL@@1VCComTypeInfoHolder@2@A 0000000180035080     BillDispenser.obj
 0003:000000b8       ?vszContents@?6??Save@?$IPersistStorageImpl@VCOPOSBillDispenser@@@ATL@@UEAAJPEAUIStorage@@H@Z@4PEB_WEB 00000001800350b8     BillDispenser.obj
 0003:000000c0       ?wc@?1??GetWndClassInfo@?$CWindowImpl@VCOPOSBillDispenser@@VCWindow@ATL@@V?$CWinTraits@$0FGAAAAAA@$0A@@3@@ATL@@SAAEAU_ATL_WNDCLASSINFOW@3@XZ@4U43@A 00000001800350c0     BillDispenser.obj
 0003:00000250       ?g_WindowName@@3PA_WA      0000000180035250     BillDispenserImpl.obj
 0003:00000280       ?g_ControlDescription@@3PADA 0000000180035280     BillDispenserImpl.obj
 0003:000002d0       ?g_ControlVersion@@3JA     00000001800352d0     BillDispenserImpl.obj
 0003:00000380       __scrt_native_dllmain_reason 0000000180035380     LIBCMT:utility.obj
 0003:00000384       _Init_global_epoch         0000000180035384     LIBCMT:thread_safe_statics.obj
 0003:00000390       __security_cookie          0000000180035390     LIBCMT:gs_cookie.obj
 0003:00000398       __security_cookie_complement 0000000180035398     LIBCMT:gs_cookie.obj
 0003:000003a0       __isa_available            00000001800353a0     LIBCMT:cpu_disp.obj
 0003:000003a4       __isa_enabled              00000001800353a4     LIBCMT:cpu_disp.obj
 0003:000003a8       __memcpy_nt_iters          00000001800353a8     LIBCMT:cpu_disp.obj
 0003:000003b0       __memset_nt_iters          00000001800353b0     LIBCMT:cpu_disp.obj
 0003:000003d8       __abort_behavior           00000001800353d8     libucrt:abort.obj
 0003:000003f0       __acrt_initial_locale_data 00000001800353f0     libucrt:nlsdata.obj
 0003:00000548       __acrt_initial_locale_pointers 0000000180035548     libucrt:nlsdata.obj
 0003:00000558       __acrt_wide_c_locale_string 0000000180035558     libucrt:nlsdata.obj
 0003:00000560       _iob                       0000000180035560     libucrt:_file.obj
 0003:00000670       __acrt_initial_multibyte_data 0000000180035670     libucrt:mbctype.obj
 0003:00000bb0       __acrt_lconv_c             0000000180035bb0     libucrt:localeconv.obj
 0003:00000c48       __acrt_lconv_static_decimal 0000000180035c48     libucrt:localeconv.obj
 0003:00000c4c       __acrt_lconv_static_W_decimal 0000000180035c4c     libucrt:localeconv.obj
 0003:00000c50       __globallocalestatus       0000000180035c50     libucrt:glstatus.obj
 0003:00000c60       _lookuptrailbytes          0000000180035c60     libucrt:read.obj
 0003:00000d84       _fltused                   0000000180035d84     LIBCMT:fltused.obj
 0003:00000d88       ??_R0?AVbad_alloc@std@@@8  0000000180035d88     LIBCMT:throw_bad_alloc.obj
 0003:00000db0       ??_R0?AVexception@std@@@8  0000000180035db0     LIBCMT:throw_bad_alloc.obj
 0003:00000dd8       ??_R0?AVbad_array_new_length@std@@@8 0000000180035dd8     LIBCMT:throw_bad_alloc.obj
 0003:00000e08       ??_R0?AVbad_exception@std@@@8 0000000180035e08     libvcruntime:frame.obj
 0003:00000e30       ??_R0?AVtype_info@@@8      0000000180035e30     LIBCMT:std_type_info_static.obj
 0003:00000e50       ?m_bInitFailed@CAtlBaseModule@ATL@@2_NA 0000000180035e50     OposVariant.obj
 0003:00000e58       ?_pPerfRegFunc@ATL@@3P6AJPEAUHINSTANCE__@@@ZEA 0000000180035e58     OposVariant.obj
 0003:00000e60       ?_pPerfUnRegFunc@ATL@@3P6AJXZEA 0000000180035e60     OposVariant.obj
 0003:00000e68       ?_AtlRegisterPerUser@ATL@@3_NA 0000000180035e68     OposVariant.obj
 0003:00000e70       ?_pAtlModule@ATL@@3PEAVCAtlModule@1@EA 0000000180035e70     OposVariant.obj
 0003:00000e78       ?_pModule@ATL@@3PEAVCComModule@1@EA 0000000180035e78     OposVariant.obj
 0003:00000e80       ?_AtlComModule@ATL@@3VCAtlComModule@1@A 0000000180035e80     OposVariant.obj
 0003:00000ed0       ?_AtlWinModule@ATL@@3VCAtlWinModule@1@A 0000000180035ed0     OposVariant.obj
 0003:00000f18       ?m_libid@CAtlModule@ATL@@2U_GUID@@A 0000000180035f18     BillDispenser.obj
 0003:00000f28       ?_entries@?1??GetConnMap@COPOSBillDispenser@@SAPEBU_ATL_CONNMAP_ENTRY@ATL@@PEAH@Z@4QBU34@B 0000000180035f28     BillDispenser.obj
 0003:00000f40       ?$TSS0@?1??GetConnMap@COPOSBillDispenser@@SAPEBU_ATL_CONNMAP_ENTRY@ATL@@PEAH@Z@4HA 0000000180035f40     BillDispenser.obj
 0003:00000f48       ?_OptionsStorage@?1??__local_stdio_printf_options@@9@4_KA 0000000180035f48     BillDispenser.obj
 0003:00000f50       ?pfnRegDeleteKeyEx@?1??DeleteSubKey@CRegKey@ATL@@QEAAJPEB_W@Z@4P6AJPEAUHKEY__@@0KK@ZEA 0000000180035f50     BillDispenser.obj
 0003:00000f58       ?bInitialized@?1??DeleteSubKey@CRegKey@ATL@@QEAAJPEB_W@Z@4_NA 0000000180035f58     BillDispenser.obj
 0003:00000f60       ?_Module@@3VCComModule@ATL@@A 0000000180035f60     BillDispenser.obj
 0003:00000fb0       ?pConnMap@?$IConnectionPointContainerImpl@VCOPOSBillDispenser@@@ATL@@0PEBU_ATL_CONNMAP_ENTRY@2@EB 0000000180035fb0     BillDispenser.obj
 0003:00000fb8       ?s_nInstances@COPOSBillDispenser@@1HA 0000000180035fb8     BillDispenserImpl.obj
 0003:00000fc0       __scrt_current_native_startup_state 0000000180035fc0     LIBCMT:utility.obj
 0003:00000fc8       __scrt_native_startup_lock 0000000180035fc8     LIBCMT:utility.obj
 0003:000015c0       _tls_index                 00000001800365c0     LIBCMT:tlssup.obj
 0003:000015c8       __favor                    00000001800365c8     LIBCMT:cpu_disp.obj
 0003:000015cc       __scrt_debugger_hook_flag  00000001800365cc     LIBCMT:utility_desktop.obj
 0003:000015d0       ?__type_info_root_node@@3U__type_info_node@@A 00000001800365d0     LIBCMT:tncleanup.obj
 0003:000015e0       ?_OptionsStorage@?1??__local_stdio_scanf_options@@9@4_KA 00000001800365e0     LIBCMT:default_local_stdio_options.obj
 0003:000015f0       ?_AtlBaseModule@ATL@@3VCAtlBaseModule@1@A 00000001800365f0     atls:atlbase.obj
 0003:00001650       ?__AtlThunkPool@@3PEAT_SLIST_HEADER@@EA 0000000180036650     atls:atlthunk.obj
 0003:0000167c       __@@_PchSym_@00@UzABUPdlipUCAUhUrmgvinvwrzgvUexgllohUzgohOmzgrevkilqPBACIAJCBDBUlyqiUznwGEUhgwzucOlyq@4B2008FD98C1DD4 000000018003667c     atls:stdafx.obj
 0003:00001680       ?__WinRTOutOfMemoryExceptionCallback@@3P6APEAXXZEA 0000000180036680     libvcruntime:ehhelpers.obj
 0003:00001688       __pPurecall                0000000180036688     libvcruntime:purevirt_data.obj
 0003:00001740       ?pArgList@UnDecorator@@0PEAVReplicator@@EA 0000000180036740     libvcruntime:undname.obj
 0003:00001748       ?pZNameList@UnDecorator@@0PEAVReplicator@@EA 0000000180036748     libvcruntime:undname.obj
 0003:00001750       ?pTemplateArgList@UnDecorator@@0PEAVReplicator@@EA 0000000180036750     libvcruntime:undname.obj
 0003:00001758       ?gName@UnDecorator@@0PEBDEB 0000000180036758     libvcruntime:undname.obj
 0003:00001760       ?name@UnDecorator@@0PEBDEB 0000000180036760     libvcruntime:undname.obj
 0003:00001768       ?disableFlags@UnDecorator@@0KA 0000000180036768     libvcruntime:undname.obj
 0003:0000176c       ?fExplicitTemplateParams@UnDecorator@@0_NA 000000018003676c     libvcruntime:undname.obj
 0003:0000176d       ?fGetTemplateArgumentList@UnDecorator@@0_NA 000000018003676d     libvcruntime:undname.obj
 0003:00001770       ?m_pGetParameter@UnDecorator@@0P6APEADJ@ZEA 0000000180036770     libvcruntime:undname.obj
 0003:00001778       ?m_CHPENameOffset@UnDecorator@@0KA 0000000180036778     libvcruntime:undname.obj
 0003:0000177c       ?m_recursionLevel@UnDecorator@@0KA 000000018003677c     libvcruntime:undname.obj
 0003:00001800       ?c_exit_complete@?1???R<lambda_6e4b09c48022b2350581041d5f6b0c4c>@@QEBA@XZ@4_NA 0000000180036800     libucrt:exit.obj
 0003:00001918       _environ_table             0000000180036918     libucrt:environment_initialization.obj
 0003:00001920       _wenviron_table            0000000180036920     libucrt:environment_initialization.obj
 0003:00001928       __dcrt_initial_wide_environment 0000000180036928     libucrt:environment_initialization.obj
 0003:00001930       __dcrt_initial_narrow_environment 0000000180036930     libucrt:environment_initialization.obj
 0003:00001938       __acrt_atexit_table        0000000180036938     libucrt:onexit.obj
 0003:00001950       __acrt_at_quick_exit_table 0000000180036950     libucrt:onexit.obj
 0003:00001970       __acrt_locale_changed_data 0000000180036970     libucrt:wsetlocale.obj
 0003:00001978       __acrt_current_locale_data 0000000180036978     libucrt:nlsdata.obj
 0003:00001b18       _nstream                   0000000180036b18     libucrt:_file.obj
 0003:00001b20       __piob                     0000000180036b20     libucrt:_file.obj
 0003:00001b30       __acrt_stdout_buffer       0000000180036b30     libucrt:_sftbuf.obj
 0003:00001b38       __acrt_stderr_buffer       0000000180036b38     libucrt:_sftbuf.obj
 0003:00001b40       __pioinfo                  0000000180036b40     libucrt:ioinit.obj
 0003:00001f40       _nhandle                   0000000180036f40     libucrt:ioinit.obj
 0003:00002188       _mbctype                   0000000180037188     libucrt:mbctype.obj
 0003:00002190       _mbcasemap                 0000000180037190     libucrt:mbctype.obj
 0003:00002198       __acrt_current_multibyte_data 0000000180037198     libucrt:mbctype.obj
 0003:000021a8       _pgmptr                    00000001800371a8     libucrt:argv_data.obj
 0003:000021b0       __argc                     00000001800371b0     libucrt:argv_data.obj
 0003:000021b8       __argv                     00000001800371b8     libucrt:argv_data.obj
 0003:000021c0       __wargv                    00000001800371c0     libucrt:argv_data.obj
 0003:000021c8       _acmdln                    00000001800371c8     libucrt:argv_data.obj
 0003:000021d0       _wcmdln                    00000001800371d0     libucrt:argv_data.obj
 0003:000021d8       __acrt_heap                00000001800371d8     libucrt:heap_handle.obj
 0003:00002208       __acrt_lconv_static_null   0000000180037208     libucrt:localeconv.obj
 0003:0000220c       __acrt_lconv_static_W_null 000000018003720c     libucrt:localeconv.obj
 0003:00002224       __fma3_is_available        0000000180037224     libucrt:fma3_available.obj
 0003:00002228       __use_fma3_lib             0000000180037228     libucrt:fma3_available.obj
 0003:00002230       __dyn_tls_init_callback    0000000180037230     <common>
 0003:00002238       __scrt_ucrt_dll_is_in_use  0000000180037238     <common>

 entry point at        0001:0000eb10

 Static symbols

 0000:fffbf000       .debug$S                   0000000180000000     OPOSBillDispenser.exp
 0000:fffbf000       .debug$S                   0000000180000000     advapi32:ADVAPI32.dll
 0000:fffbf000       .debug$S                   0000000180000000     advapi32:ADVAPI32.dll
 0000:fffbf000       .debug$S                   0000000180000000     advapi32:ADVAPI32.dll
 0000:fffbf000       .debug$S                   0000000180000000     advapi32:ADVAPI32.dll
 0000:fffbf000       .debug$S                   0000000180000000     advapi32:ADVAPI32.dll
 0000:fffbf000       .debug$S                   0000000180000000     advapi32:ADVAPI32.dll
 0000:fffbf000       .debug$S                   0000000180000000     advapi32:ADVAPI32.dll
 0000:fffbf000       .debug$S                   0000000180000000     advapi32:ADVAPI32.dll
 0000:fffbf000       .debug$S                   0000000180000000     advapi32:ADVAPI32.dll
 0000:fffbf000       .debug$S                   0000000180000000     gdi32:GDI32.dll
 0000:fffbf000       .debug$S                   0000000180000000     gdi32:GDI32.dll
 0000:fffbf000       .debug$S                   0000000180000000     gdi32:GDI32.dll
 0000:fffbf000       .debug$S                   0000000180000000     gdi32:GDI32.dll
 0000:fffbf000       .debug$S                   0000000180000000     gdi32:GDI32.dll
 0000:fffbf000       .debug$S                   0000000180000000     gdi32:GDI32.dll
 0000:fffbf000       .debug$S                   0000000180000000     gdi32:GDI32.dll
 0000:fffbf000       .debug$S                   0000000180000000     gdi32:GDI32.dll
 0000:fffbf000       .debug$S                   0000000180000000     gdi32:GDI32.dll
 0000:fffbf000       .debug$S                   0000000180000000     gdi32:GDI32.dll
 0000:fffbf000       .debug$S                   0000000180000000     gdi32:GDI32.dll
 0000:fffbf000       .debug$S                   0000000180000000     gdi32:GDI32.dll
 0000:fffbf000       .debug$S                   0000000180000000     gdi32:GDI32.dll
 0000:fffbf000       .debug$S                   0000000180000000     gdi32:GDI32.dll
 0000:fffbf000       .debug$S                   0000000180000000     gdi32:GDI32.dll
 0000:fffbf000       .debug$S                   0000000180000000     gdi32:GDI32.dll
 0000:fffbf000       .debug$S                   0000000180000000     gdi32:GDI32.dll
 0000:fffbf000       .debug$S                   0000000180000000     gdi32:GDI32.dll
 0000:fffbf000       .debug$S                   0000000180000000     gdi32:GDI32.dll
 0000:fffbf000       .debug$S                   0000000180000000     kernel32:KERNEL32.dll
 0000:fffbf000       .debug$S                   0000000180000000     kernel32:KERNEL32.dll
 0000:fffbf000       .debug$S                   0000000180000000     kernel32:KERNEL32.dll
 0000:fffbf000       .debug$S                   0000000180000000     kernel32:KERNEL32.dll
 0000:fffbf000       .debug$S                   0000000180000000     kernel32:KERNEL32.dll
 0000:fffbf000       .debug$S                   0000000180000000     kernel32:KERNEL32.dll
 0000:fffbf000       .debug$S                   0000000180000000     kernel32:KERNEL32.dll
 0000:fffbf000       .debug$S                   0000000180000000     kernel32:KERNEL32.dll
 0000:fffbf000       .debug$S                   0000000180000000     kernel32:KERNEL32.dll
 0000:fffbf000       .debug$S                   0000000180000000     kernel32:KERNEL32.dll
 0000:fffbf000       .debug$S                   0000000180000000     kernel32:KERNEL32.dll
 0000:fffbf000       .debug$S                   0000000180000000     kernel32:KERNEL32.dll
 0000:fffbf000       .debug$S                   0000000180000000     kernel32:KERNEL32.dll
 0000:fffbf000       .debug$S                   0000000180000000     kernel32:KERNEL32.dll
 0000:fffbf000       .debug$S                   0000000180000000     kernel32:KERNEL32.dll
 0000:fffbf000       .debug$S                   0000000180000000     kernel32:KERNEL32.dll
 0000:fffbf000       .debug$S                   0000000180000000     kernel32:KERNEL32.dll
 0000:fffbf000       .debug$S                   0000000180000000     kernel32:KERNEL32.dll
 0000:fffbf000       .debug$S                   0000000180000000     kernel32:KERNEL32.dll
 0000:fffbf000       .debug$S                   0000000180000000     kernel32:KERNEL32.dll
 0000:fffbf000       .debug$S                   0000000180000000     kernel32:KERNEL32.dll
 0000:fffbf000       .debug$S                   0000000180000000     kernel32:KERNEL32.dll
 0000:fffbf000       .debug$S                   0000000180000000     kernel32:KERNEL32.dll
 0000:fffbf000       .debug$S                   0000000180000000     kernel32:KERNEL32.dll
 0000:fffbf000       .debug$S                   0000000180000000     kernel32:KERNEL32.dll
 0000:fffbf000       .debug$S                   0000000180000000     kernel32:KERNEL32.dll
 0000:fffbf000       .debug$S                   0000000180000000     kernel32:KERNEL32.dll
 0000:fffbf000       .debug$S                   0000000180000000     kernel32:KERNEL32.dll
 0000:fffbf000       .debug$S                   0000000180000000     kernel32:KERNEL32.dll
 0000:fffbf000       .debug$S                   0000000180000000     kernel32:KERNEL32.dll
 0000:fffbf000       .debug$S                   0000000180000000     kernel32:KERNEL32.dll
 0000:fffbf000       .debug$S                   0000000180000000     kernel32:KERNEL32.dll
 0000:fffbf000       .debug$S                   0000000180000000     kernel32:KERNEL32.dll
 0000:fffbf000       .debug$S                   0000000180000000     kernel32:KERNEL32.dll
 0000:fffbf000       .debug$S                   0000000180000000     kernel32:KERNEL32.dll
 0000:fffbf000       .debug$S                   0000000180000000     kernel32:KERNEL32.dll
 0000:fffbf000       .debug$S                   0000000180000000     kernel32:KERNEL32.dll
 0000:fffbf000       .debug$S                   0000000180000000     kernel32:KERNEL32.dll
 0000:fffbf000       .debug$S                   0000000180000000     kernel32:KERNEL32.dll
 0000:fffbf000       .debug$S                   0000000180000000     kernel32:KERNEL32.dll
 0000:fffbf000       .debug$S                   0000000180000000     kernel32:KERNEL32.dll
 0000:fffbf000       .debug$S                   0000000180000000     kernel32:KERNEL32.dll
 0000:fffbf000       .debug$S                   0000000180000000     kernel32:KERNEL32.dll
 0000:fffbf000       .debug$S                   0000000180000000     kernel32:KERNEL32.dll
 0000:fffbf000       .debug$S                   0000000180000000     kernel32:KERNEL32.dll
 0000:fffbf000       .debug$S                   0000000180000000     kernel32:KERNEL32.dll
 0000:fffbf000       .debug$S                   0000000180000000     kernel32:KERNEL32.dll
 0000:fffbf000       .debug$S                   0000000180000000     kernel32:KERNEL32.dll
 0000:fffbf000       .debug$S                   0000000180000000     kernel32:KERNEL32.dll
 0000:fffbf000       .debug$S                   0000000180000000     kernel32:KERNEL32.dll
 0000:fffbf000       .debug$S                   0000000180000000     kernel32:KERNEL32.dll
 0000:fffbf000       .debug$S                   0000000180000000     kernel32:KERNEL32.dll
 0000:fffbf000       .debug$S                   0000000180000000     kernel32:KERNEL32.dll
 0000:fffbf000       .debug$S                   0000000180000000     kernel32:KERNEL32.dll
 0000:fffbf000       .debug$S                   0000000180000000     kernel32:KERNEL32.dll
 0000:fffbf000       .debug$S                   0000000180000000     kernel32:KERNEL32.dll
 0000:fffbf000       .debug$S                   0000000180000000     kernel32:KERNEL32.dll
 0000:fffbf000       .debug$S                   0000000180000000     kernel32:KERNEL32.dll
 0000:fffbf000       .debug$S                   0000000180000000     kernel32:KERNEL32.dll
 0000:fffbf000       .debug$S                   0000000180000000     kernel32:KERNEL32.dll
 0000:fffbf000       .debug$S                   0000000180000000     kernel32:KERNEL32.dll
 0000:fffbf000       .debug$S                   0000000180000000     kernel32:KERNEL32.dll
 0000:fffbf000       .debug$S                   0000000180000000     kernel32:KERNEL32.dll
 0000:fffbf000       .debug$S                   0000000180000000     kernel32:KERNEL32.dll
 0000:fffbf000       .debug$S                   0000000180000000     kernel32:KERNEL32.dll
 0000:fffbf000       .debug$S                   0000000180000000     kernel32:KERNEL32.dll
 0000:fffbf000       .debug$S                   0000000180000000     kernel32:KERNEL32.dll
 0000:fffbf000       .debug$S                   0000000180000000     kernel32:KERNEL32.dll
 0000:fffbf000       .debug$S                   0000000180000000     kernel32:KERNEL32.dll
 0000:fffbf000       .debug$S                   0000000180000000     kernel32:KERNEL32.dll
 0000:fffbf000       .debug$S                   0000000180000000     kernel32:KERNEL32.dll
 0000:fffbf000       .debug$S                   0000000180000000     kernel32:KERNEL32.dll
 0000:fffbf000       .debug$S                   0000000180000000     kernel32:KERNEL32.dll
 0000:fffbf000       .debug$S                   0000000180000000     kernel32:KERNEL32.dll
 0000:fffbf000       .debug$S                   0000000180000000     kernel32:KERNEL32.dll
 0000:fffbf000       .debug$S                   0000000180000000     kernel32:KERNEL32.dll
 0000:fffbf000       .debug$S                   0000000180000000     kernel32:KERNEL32.dll
 0000:fffbf000       .debug$S                   0000000180000000     kernel32:KERNEL32.dll
 0000:fffbf000       .debug$S                   0000000180000000     kernel32:KERNEL32.dll
 0000:fffbf000       .debug$S                   0000000180000000     kernel32:KERNEL32.dll
 0000:fffbf000       .debug$S                   0000000180000000     kernel32:KERNEL32.dll
 0000:fffbf000       .debug$S                   0000000180000000     kernel32:KERNEL32.dll
 0000:fffbf000       .debug$S                   0000000180000000     kernel32:KERNEL32.dll
 0000:fffbf000       .debug$S                   0000000180000000     kernel32:KERNEL32.dll
 0000:fffbf000       .debug$S                   0000000180000000     kernel32:KERNEL32.dll
 0000:fffbf000       .debug$S                   0000000180000000     kernel32:KERNEL32.dll
 0000:fffbf000       .debug$S                   0000000180000000     kernel32:KERNEL32.dll
 0000:fffbf000       .debug$S                   0000000180000000     kernel32:KERNEL32.dll
 0000:fffbf000       .debug$S                   0000000180000000     kernel32:KERNEL32.dll
 0000:fffbf000       .debug$S                   0000000180000000     kernel32:KERNEL32.dll
 0000:fffbf000       .debug$S                   0000000180000000     kernel32:KERNEL32.dll
 0000:fffbf000       .debug$S                   0000000180000000     kernel32:KERNEL32.dll
 0000:fffbf000       .debug$S                   0000000180000000     kernel32:KERNEL32.dll
 0000:fffbf000       .debug$S                   0000000180000000     kernel32:KERNEL32.dll
 0000:fffbf000       .debug$S                   0000000180000000     kernel32:KERNEL32.dll
 0000:fffbf000       .debug$S                   0000000180000000     kernel32:KERNEL32.dll
 0000:fffbf000       .debug$S                   0000000180000000     kernel32:KERNEL32.dll
 0000:fffbf000       .debug$S                   0000000180000000     kernel32:KERNEL32.dll
 0000:fffbf000       .debug$S                   0000000180000000     kernel32:KERNEL32.dll
 0000:fffbf000       .debug$S                   0000000180000000     kernel32:KERNEL32.dll
 0000:fffbf000       .debug$S                   0000000180000000     kernel32:KERNEL32.dll
 0000:fffbf000       .debug$S                   0000000180000000     kernel32:KERNEL32.dll
 0000:fffbf000       .debug$S                   0000000180000000     kernel32:KERNEL32.dll
 0000:fffbf000       .debug$S                   0000000180000000     kernel32:KERNEL32.dll
 0000:fffbf000       .debug$S                   0000000180000000     kernel32:KERNEL32.dll
 0000:fffbf000       .debug$S                   0000000180000000     kernel32:KERNEL32.dll
 0000:fffbf000       .debug$S                   0000000180000000     kernel32:KERNEL32.dll
 0000:fffbf000       .debug$S                   0000000180000000     kernel32:KERNEL32.dll
 0000:fffbf000       .debug$S                   0000000180000000     kernel32:KERNEL32.dll
 0000:fffbf000       .debug$S                   0000000180000000     kernel32:KERNEL32.dll
 0000:fffbf000       .debug$S                   0000000180000000     kernel32:KERNEL32.dll
 0000:fffbf000       .debug$S                   0000000180000000     kernel32:KERNEL32.dll
 0000:fffbf000       .debug$S                   0000000180000000     kernel32:KERNEL32.dll
 0000:fffbf000       .debug$S                   0000000180000000     kernel32:KERNEL32.dll
 0000:fffbf000       .debug$S                   0000000180000000     kernel32:KERNEL32.dll
 0000:fffbf000       .debug$S                   0000000180000000     ole32:ole32.dll
 0000:fffbf000       .debug$S                   0000000180000000     ole32:ole32.dll
 0000:fffbf000       .debug$S                   0000000180000000     ole32:ole32.dll
 0000:fffbf000       .debug$S                   0000000180000000     ole32:ole32.dll
 0000:fffbf000       .debug$S                   0000000180000000     ole32:ole32.dll
 0000:fffbf000       .debug$S                   0000000180000000     ole32:ole32.dll
 0000:fffbf000       .debug$S                   0000000180000000     ole32:ole32.dll
 0000:fffbf000       .debug$S                   0000000180000000     ole32:ole32.dll
 0000:fffbf000       .debug$S                   0000000180000000     ole32:ole32.dll
 0000:fffbf000       .debug$S                   0000000180000000     ole32:ole32.dll
 0000:fffbf000       .debug$S                   0000000180000000     ole32:ole32.dll
 0000:fffbf000       .debug$S                   0000000180000000     ole32:ole32.dll
 0000:fffbf000       .debug$S                   0000000180000000     ole32:ole32.dll
 0000:fffbf000       .debug$S                   0000000180000000     ole32:ole32.dll
 0000:fffbf000       .debug$S                   0000000180000000     oleaut32:OLEAUT32.dll
 0000:fffbf000       .debug$S                   0000000180000000     oleaut32:OLEAUT32.dll
 0000:fffbf000       .debug$S                   0000000180000000     oleaut32:OLEAUT32.dll
 0000:fffbf000       .debug$S                   0000000180000000     oleaut32:OLEAUT32.dll
 0000:fffbf000       .debug$S                   0000000180000000     oleaut32:OLEAUT32.dll
 0000:fffbf000       .debug$S                   0000000180000000     oleaut32:OLEAUT32.dll
 0000:fffbf000       .debug$S                   0000000180000000     oleaut32:OLEAUT32.dll
 0000:fffbf000       .debug$S                   0000000180000000     oleaut32:OLEAUT32.dll
 0000:fffbf000       .debug$S                   0000000180000000     oleaut32:OLEAUT32.dll
 0000:fffbf000       .debug$S                   0000000180000000     oleaut32:OLEAUT32.dll
 0000:fffbf000       .debug$S                   0000000180000000     oleaut32:OLEAUT32.dll
 0000:fffbf000       .debug$S                   0000000180000000     oleaut32:OLEAUT32.dll
 0000:fffbf000       .debug$S                   0000000180000000     oleaut32:OLEAUT32.dll
 0000:fffbf000       .debug$S                   0000000180000000     oleaut32:OLEAUT32.dll
 0000:fffbf000       .debug$S                   0000000180000000     oleaut32:OLEAUT32.dll
 0000:fffbf000       .debug$S                   0000000180000000     oleaut32:OLEAUT32.dll
 0000:fffbf000       .debug$S                   0000000180000000     user32:USER32.dll
 0000:fffbf000       .debug$S                   0000000180000000     user32:USER32.dll
 0000:fffbf000       .debug$S                   0000000180000000     user32:USER32.dll
 0000:fffbf000       .debug$S                   0000000180000000     user32:USER32.dll
 0000:fffbf000       .debug$S                   0000000180000000     user32:USER32.dll
 0000:fffbf000       .debug$S                   0000000180000000     user32:USER32.dll
 0000:fffbf000       .debug$S                   0000000180000000     user32:USER32.dll
 0000:fffbf000       .debug$S                   0000000180000000     user32:USER32.dll
 0000:fffbf000       .debug$S                   0000000180000000     user32:USER32.dll
 0000:fffbf000       .debug$S                   0000000180000000     user32:USER32.dll
 0000:fffbf000       .debug$S                   0000000180000000     user32:USER32.dll
 0000:fffbf000       .debug$S                   0000000180000000     user32:USER32.dll
 0000:fffbf000       .debug$S                   0000000180000000     user32:USER32.dll
 0000:fffbf000       .debug$S                   0000000180000000     user32:USER32.dll
 0000:fffbf000       .debug$S                   0000000180000000     user32:USER32.dll
 0000:fffbf000       .debug$S                   0000000180000000     user32:USER32.dll
 0000:fffbf000       .debug$S                   0000000180000000     user32:USER32.dll
 0000:fffbf000       .debug$S                   0000000180000000     user32:USER32.dll
 0000:fffbf000       .debug$S                   0000000180000000     user32:USER32.dll
 0000:fffbf000       .debug$S                   0000000180000000     user32:USER32.dll
 0000:fffbf000       .debug$S                   0000000180000000     user32:USER32.dll
 0000:fffbf000       .debug$S                   0000000180000000     user32:USER32.dll
 0000:fffbf000       .debug$S                   0000000180000000     user32:USER32.dll
 0000:fffbf000       .debug$S                   0000000180000000     user32:USER32.dll
 0000:fffbf000       .debug$S                   0000000180000000     user32:USER32.dll
 0000:fffbf000       .debug$S                   0000000180000000     user32:USER32.dll
 0000:fffbf000       .debug$S                   0000000180000000     user32:USER32.dll
 0000:fffbf000       .debug$S                   0000000180000000     user32:USER32.dll
 0000:fffbf000       .debug$S                   0000000180000000     user32:USER32.dll
 0000:fffbf000       .debug$S                   0000000180000000     user32:USER32.dll
 0000:fffbf000       .debug$S                   0000000180000000     user32:USER32.dll
 0000:fffbf000       .debug$S                   0000000180000000     user32:USER32.dll
 0000:fffbf000       .debug$S                   0000000180000000     user32:USER32.dll
 0000:fffbf000       .debug$S                   0000000180000000     user32:USER32.dll
 0000:fffbf000       .debug$S                   0000000180000000     user32:USER32.dll
 0001:00000000       ??__E_AtlComModule@ATL@@YAXXZ 0000000180001000 f   OposVariant.obj
 0001:00000020       ??__E_AtlWinModule@ATL@@YAXXZ 0000000180001020 f   OposVariant.obj
 0001:00000040       ??__E?pConnMap@?$IConnectionPointContainerImpl@VCOPOSBillDispenser@@@ATL@@0PEBU_ATL_CONNMAP_ENTRY@2@EB@@YAXXZ 0000000180001040 f   BillDispenser.obj
 0001:00000058       ??__E_Module@@YAXXZ        0000000180001058 f   BillDispenser.obj
 0001:00000094       ??__E_AtlBaseModule@ATL@@YAXXZ 0000000180001094 f   atls:atlbase.obj
 0001:0000e13c       ?__scrt_initialize_thread_safe_statics@@YAHXZ 000000018000f13c f   LIBCMT:thread_safe_statics.obj
 0001:0000e20c       ?__scrt_uninitialize_thread_safe_statics@@YAXXZ 000000018000f20c f   LIBCMT:thread_safe_statics.obj
 0001:0000e55c       capture_current_context    000000018000f55c f   LIBCMT:gs_report.obj
 0001:0000e5cc       capture_previous_context   000000018000f5cc f   LIBCMT:gs_report.obj
 0001:0000e760       $$000000                   000000018000f760     LIBCMT:chkstk.obj
 0001:0000e7c0       $$000000                   000000018000f7c0     LIBCMT:amdsecgs.obj
 0001:0000e7f0       ?dllmain_crt_dispatch@@YAHQEAUHINSTANCE__@@KQEAX@Z 000000018000f7f0 f   LIBCMT:dll_dllmain.obj
 0001:0000e840       ?dllmain_crt_process_attach@@YAHQEAUHINSTANCE__@@QEAX@Z 000000018000f840 f   LIBCMT:dll_dllmain.obj
 0001:0000e958       ?dllmain_crt_process_detach@@YAH_N@Z 000000018000f958 f   LIBCMT:dll_dllmain.obj
 0001:0000e9dc       ?dllmain_dispatch@@YAHQEAUHINSTANCE__@@KQEAX@Z 000000018000f9dc f   LIBCMT:dll_dllmain.obj
 0001:0000f2a8       ??$GetProcAddressAll@P6AP6A_JPEAUHWND__@@I_K_J@ZPEAUAtlThunkData_t@@@Z@@YAP6AP6A_JPEAUHWND__@@I_K_J@ZPEAUAtlThunkData_t@@@ZPEAP6AP6A_J0I12@Z3@Z@Z 00000001800102a8 f   atls:atlthunk.obj
 0001:0000f2a8       ??$GetProcAddressAll@P6APEAUAtlThunkData_t@@XZ@@YAP6APEAUAtlThunkData_t@@XZPEAP6APEAU0@XZ@Z 00000001800102a8 f   atls:atlthunk.obj
 0001:0000f2a8       ??$GetProcAddressAll@P6AXPEAUAtlThunkData_t@@@Z@@YAP6AXPEAUAtlThunkData_t@@@ZPEAP6AX0@Z@Z 00000001800102a8 f   atls:atlthunk.obj
 0001:0000f2a8       ??$GetProcAddressAll@P6AXPEAUAtlThunkData_t@@PEAX_K@Z@@YAP6AXPEAUAtlThunkData_t@@PEAX_K@ZPEAP6AX012@Z@Z 00000001800102a8 f   atls:atlthunk.obj
 0001:0000f480       ?__InitializeThunkPool@@YAHXZ 0000000180010480 f   atls:atlthunk.obj
 0001:0000f920       $$000000                   0000000180010920     libvcruntime:memcmp.obj
 0001:0000fa00       $$000000                   0000000180010a00     libvcruntime:memcpy.obj
 0001:000100b0       $$000000                   00000001800110b0     libvcruntime:memset.obj
 0001:000116c0       $$000000                   00000001800126c0     libvcruntime:notify.obj
 0001:00011940       ??$BuildCatchObjectHelperInternal@V__FrameHandler3@@@@YAHPEAUEHExceptionRecord@@PEAXPEBU_s_HandlerType@@PEBU_s_CatchableType@@@Z 0000000180012940 f   libvcruntime:frame.obj
 0001:00011b40       ??$BuildCatchObjectHelperInternal@V__FrameHandler4@@@@YAHPEAUEHExceptionRecord@@PEAXPEAUHandlerType4@FH4@@PEBU_s_CatchableType@@@Z 0000000180012b40 f   libvcruntime:frame.obj
 0001:00011d44       ??$BuildCatchObjectInternal@V__FrameHandler3@@@@YAXPEAUEHExceptionRecord@@PEAXPEBU_s_HandlerType@@PEBU_s_CatchableType@@@Z 0000000180012d44 f   libvcruntime:frame.obj
 0001:00011e04       ??$BuildCatchObjectInternal@V__FrameHandler4@@@@YAXPEAUEHExceptionRecord@@PEAXPEAUHandlerType4@FH4@@PEBU_s_CatchableType@@@Z 0000000180012e04 f   libvcruntime:frame.obj
 0001:00011ec8       ??$CatchIt@V__FrameHandler3@@@@YAXPEAUEHExceptionRecord@@PEA_KPEAU_CONTEXT@@PEAU_xDISPATCHER_CONTEXT@@PEBU_s_FuncInfo@@PEBU_s_HandlerType@@PEBU_s_CatchableType@@PEBU_s_TryBlockMapEntry@@H1EE@Z 0000000180012ec8 f   libvcruntime:frame.obj
 0001:00011f9c       ??$CatchIt@V__FrameHandler4@@@@YAXPEAUEHExceptionRecord@@PEA_KPEAU_CONTEXT@@PEAU_xDISPATCHER_CONTEXT@@PEAUFuncInfo4@FH4@@PEAUHandlerType4@4@PEBU_s_CatchableType@@PEAUTryBlockMapEntry4@4@H1EE@Z 0000000180012f9c f   libvcruntime:frame.obj
 0001:00012070       ??$FindHandler@V__FrameHandler3@@@@YAXPEAUEHExceptionRecord@@PEA_KPEAU_CONTEXT@@PEAU_xDISPATCHER_CONTEXT@@PEBU_s_FuncInfo@@EH1@Z 0000000180013070 f   libvcruntime:frame.obj
 0001:00012548       ??$FindHandler@V__FrameHandler4@@@@YAXPEAUEHExceptionRecord@@PEA_KPEAU_CONTEXT@@PEAU_xDISPATCHER_CONTEXT@@PEAUFuncInfo4@FH4@@EH1@Z 0000000180013548 f   libvcruntime:frame.obj
 0001:00012a44       ??$FindHandlerForForeignException@V__FrameHandler3@@@@YAXPEAUEHExceptionRecord@@PEA_KPEAU_CONTEXT@@PEAU_xDISPATCHER_CONTEXT@@PEBU_s_FuncInfo@@HH1@Z 0000000180013a44 f   libvcruntime:frame.obj
 0001:00012c60       ??$FindHandlerForForeignException@V__FrameHandler4@@@@YAXPEAUEHExceptionRecord@@PEA_KPEAU_CONTEXT@@PEAU_xDISPATCHER_CONTEXT@@PEAUFuncInfo4@FH4@@HH1@Z 0000000180013c60 f   libvcruntime:frame.obj
 0001:00013e20       ?ExFilterRethrow@@YAHPEAU_EXCEPTION_POINTERS@@PEAUEHExceptionRecord@@PEAH@Z 0000000180014e20 f   libvcruntime:frame.obj
 0001:00013ea8       ?ExFilterRethrowFH4@@YAHPEAU_EXCEPTION_POINTERS@@PEAUEHExceptionRecord@@HPEAH@Z 0000000180014ea8 f   libvcruntime:frame.obj
 0001:000143f8       ?IsInExceptionSpec@@YAEPEAUEHExceptionRecord@@PEBU_s_ESTypeList@@@Z 00000001800153f8 f   libvcruntime:frame.obj
 0001:000144e8       ?Is_bad_exception_allowed@@YAEPEBU_s_ESTypeList@@@Z 00000001800154e8 f   libvcruntime:frame.obj
 0001:000147c4       ?try_get_function@@YAPEAXW4function_id@?A0xbc0cc709@@QEBDQEBW4module_id@2@2@Z 00000001800157c4 f   libvcruntime:winapi_downlevel.obj
 0001:00014ab0       $$000000                   0000000180015ab0     libvcruntime:handlers.obj
 0001:000154dc       ??$common_vsprintf@Vformat_validation_base@__crt_stdio_output@@_W@@YAH_KQEA_W0QEB_WAEAV__crt_cached_ptd_host@@QEAD@Z 00000001800164dc f   libucrt:output.obj
 0001:00017c2c       ??$?RV<lambda_d80eeec6fff315bfe5c115232f3240e3>@@AEAV<lambda_6e4b09c48022b2350581041d5f6b0c4c>@@V<lambda_2358e3775559c9db80273638284d5e45>@@@?$__crt_seh_guarded_call@X@@QEAAX$$QEAV<lambda_d80eeec6fff315bfe5c115232f3240e3>@@AEAV<lambda_6e4b09c48022b2350581041d5f6b0c4c>@@$$QEAV<lambda_2358e3775559c9db80273638284d5e45>@@@Z 0000000180018c2c f   libucrt:exit.obj
 0001:00017c64       ??R<lambda_6e4b09c48022b2350581041d5f6b0c4c>@@QEBA@XZ 0000000180018c64 f   libucrt:exit.obj
 0001:00017d30       ?common_exit@@YAXHW4_crt_exit_cleanup_mode@@W4_crt_exit_return_mode@@@Z 0000000180018d30 f   libucrt:exit.obj
 0001:00017df8       ?exit_or_terminate_process@@YAXI@Z 0000000180018df8 f   libucrt:exit.obj
 0001:00017e2c       ?should_call_terminate_process@@YA_NXZ 0000000180018e2c f   libucrt:exit.obj
 0001:00017e5c       ?try_cor_exit_process@@YAXI@Z 0000000180018e5c f   libucrt:exit.obj
 0001:00017ef8       ??$parse_command_line@D@@YAXPEADPEAPEAD0PEA_K2@Z 0000000180018ef8 f   libucrt:argv_parsing.obj
 0001:000182a0       ??$common_initialize_environment_nolock@D@@YAHXZ 00000001800192a0 f   libucrt:environment_initialization.obj
 0001:00018314       ??$create_environment@D@@YAQEAPEADQEAD@Z 0000000180019314 f   libucrt:environment_initialization.obj
 0001:00018424       ??$free_environment@D@@YAXQEAPEAD@Z 0000000180019424 f   libucrt:environment_initialization.obj
 0001:00018424       ??$free_environment@_W@@YAXQEAPEA_W@Z 0000000180019424 f   libucrt:environment_initialization.obj
 0001:00018468       ??$uninitialize_environment_internal@D@@YAXAEAPEAPEAD@Z 0000000180019468 f   libucrt:environment_initialization.obj
 0001:00018484       ??$uninitialize_environment_internal@_W@@YAXAEAPEAPEA_W@Z 0000000180019484 f   libucrt:environment_initialization.obj
 0001:000184ec       ??$?RV<lambda_638799b9deba96c50f710eeac98168cd>@@AEAV<lambda_22ebabd17bc4fa466a2aca6d8deb888d>@@V<lambda_a6f7d7db0129f75315ebf26d50c089f1>@@@?$__crt_seh_guarded_call@H@@QEAAH$$QEAV<lambda_638799b9deba96c50f710eeac98168cd>@@AEAV<lambda_22ebabd17bc4fa466a2aca6d8deb888d>@@$$QEAV<lambda_a6f7d7db0129f75315ebf26d50c089f1>@@@Z 00000001800194ec f   libucrt:onexit.obj
 0001:00018528       ??$?RV<lambda_7777bce6b2f8c936911f934f8298dc43>@@AEAV<lambda_f03950bc5685219e0bcd2087efbe011e>@@V<lambda_3883c3dff614d5e0c5f61bb1ac94921c>@@@?$__crt_seh_guarded_call@H@@QEAAH$$QEAV<lambda_7777bce6b2f8c936911f934f8298dc43>@@AEAV<lambda_f03950bc5685219e0bcd2087efbe011e>@@$$QEAV<lambda_3883c3dff614d5e0c5f61bb1ac94921c>@@@Z 0000000180019528 f   libucrt:onexit.obj
 0001:00018564       ??R<lambda_22ebabd17bc4fa466a2aca6d8deb888d>@@QEBAHXZ 0000000180019564 f   libucrt:onexit.obj
 0001:00018714       ??R<lambda_f03950bc5685219e0bcd2087efbe011e>@@QEBAHXZ 0000000180019714 f   libucrt:onexit.obj
 0001:000188f8       initialize_global_variables 00000001800198f8 f   libucrt:initialization.obj
 0001:0001890c       initialize_c               000000018001990c f   libucrt:initialization.obj
 0001:00018930       initialize_environment     0000000180019930 f   libucrt:initialization.obj
 0001:00018930       initialize_global_state_isolation 0000000180019930 f   libucrt:initialization.obj
 0001:00018930       report_memory_leaks        0000000180019930 f   libucrt:initialization.obj
 0001:00018930       uninitialize_c             0000000180019930 f   libucrt:initialization.obj
 0001:00018930       uninitialize_global_state_isolation 0000000180019930 f   libucrt:initialization.obj
 0001:00018934       uninitialize_environment   0000000180019934 f   libucrt:initialization.obj
 0001:00018944       initialize_pointers        0000000180019944 f   libucrt:initialization.obj
 0001:00018984       uninitialize_vcruntime     0000000180019984 f   libucrt:initialization.obj
 0001:0001898c       uninitialize_allocated_memory 000000018001998c f   libucrt:initialization.obj
 0001:000189cc       uninitialize_allocated_io_buffers 00000001800199cc f   libucrt:initialization.obj
 0001:00018c90       $$000000                   0000000180019c90     libucrt:strncmp.obj
 0001:00018d88       ??$?RV<lambda_0ae27a3a962d80f24befdcbee591983d>@@AEAV<lambda_8d0ee55de4b1038c4002e0adecdf1839>@@V<lambda_dc504788e8f1664fe9b84e20bfb512f2>@@@?$__crt_seh_guarded_call@X@@QEAAX$$QEAV<lambda_0ae27a3a962d80f24befdcbee591983d>@@AEAV<lambda_8d0ee55de4b1038c4002e0adecdf1839>@@$$QEAV<lambda_dc504788e8f1664fe9b84e20bfb512f2>@@@Z 0000000180019d88 f   libucrt:per_thread_data.obj
 0001:00018dc8       ??$?RV<lambda_2d41944a1d46af3157314b8a01080d33>@@AEAV<lambda_8f455de75cd7d7f24b4096f044d8b9e6>@@V<lambda_aa500f224e6afead328df44964fe2772>@@@?$__crt_seh_guarded_call@X@@QEAAX$$QEAV<lambda_2d41944a1d46af3157314b8a01080d33>@@AEAV<lambda_8f455de75cd7d7f24b4096f044d8b9e6>@@$$QEAV<lambda_aa500f224e6afead328df44964fe2772>@@@Z 0000000180019dc8 f   libucrt:per_thread_data.obj
 0001:00018e08       ??$?RV<lambda_aa87e3671a710a21b5dc78c0bdf72e11>@@AEAV<lambda_92619d2358a28f41a33ba319515a20b9>@@V<lambda_6992ecaafeb10aed2b74cb1fae11a551>@@@?$__crt_seh_guarded_call@X@@QEAAX$$QEAV<lambda_aa87e3671a710a21b5dc78c0bdf72e11>@@AEAV<lambda_92619d2358a28f41a33ba319515a20b9>@@$$QEAV<lambda_6992ecaafeb10aed2b74cb1fae11a551>@@@Z 0000000180019e08 f   libucrt:per_thread_data.obj
 0001:00018e50       ??$?RV<lambda_f2e299630e499de9f9a165e60fcd3db5>@@AEAV<lambda_2ae9d31cdba2644fcbeaf08da7c24588>@@V<lambda_40d01ff24d0e7b3814fdbdcee8eab3c7>@@@?$__crt_seh_guarded_call@X@@QEAAX$$QEAV<lambda_f2e299630e499de9f9a165e60fcd3db5>@@AEAV<lambda_2ae9d31cdba2644fcbeaf08da7c24588>@@$$QEAV<lambda_40d01ff24d0e7b3814fdbdcee8eab3c7>@@@Z 0000000180019e50 f   libucrt:per_thread_data.obj
 0001:00018eb0       ?construct_ptd_array@@YAXQEAU__acrt_ptd@@@Z 0000000180019eb0 f   libucrt:per_thread_data.obj
 0001:00018f80       ?destroy_fls@@YAXPEAX@Z    0000000180019f80 f   libucrt:per_thread_data.obj
 0001:00018fa0       ?destroy_ptd_array@@YAXQEAU__acrt_ptd@@@Z 0000000180019fa0 f   libucrt:per_thread_data.obj
 0001:00019098       ?replace_current_thread_locale_nolock@@YAXQEAU__acrt_ptd@@QEAU__crt_locale_data@@@Z 000000018001a098 f   libucrt:per_thread_data.obj
 0001:000194a4       ??$?RV<lambda_410d79af7f07d98d83a3f525b3859a53>@@AEAV<lambda_3e16ef9562a7dcce91392c22ab16ea36>@@V<lambda_38119f0e861e05405d8a144b9b982f0a>@@@?$__crt_seh_guarded_call@X@@QEAAX$$QEAV<lambda_410d79af7f07d98d83a3f525b3859a53>@@AEAV<lambda_3e16ef9562a7dcce91392c22ab16ea36>@@$$QEAV<lambda_38119f0e861e05405d8a144b9b982f0a>@@@Z 000000018001a4a4 f   libucrt:wsetlocale.obj
 0001:000196e0       ?try_get_function@@YAPEAXW4function_id@?A0x391cf84c@@QEBDQEBW4module_id@2@2@Z 000000018001a6e0 f   libucrt:winapi_thunks.obj
 0001:00019e7c       ?fp_format_a@@YAHQEBNPEAD_KQEAD2H_NIW4__acrt_rounding_mode@@AEAV__crt_cached_ptd_host@@@Z 000000018001ae7c f   libucrt:cvt.obj
 0001:0001a230       ?fp_format_e@@YAHQEBNQEAD_K12H_NIW4__acrt_rounding_mode@@AEAV__crt_cached_ptd_host@@@Z 000000018001b230 f   libucrt:cvt.obj
 0001:0001a32c       ?fp_format_e_internal@@YAHQEAD_KH_NIQEAU_strflt@@2AEAV__crt_cached_ptd_host@@@Z 000000018001b32c f   libucrt:cvt.obj
 0001:0001a510       ?fp_format_f@@YAHQEBNQEAD_K12HW4__acrt_rounding_mode@@AEAV__crt_cached_ptd_host@@@Z 000000018001b510 f   libucrt:cvt.obj
 0001:0001a5e8       ?fp_format_f_internal@@YAHQEAD_KHQEAU_strflt@@_NAEAV__crt_cached_ptd_host@@@Z 000000018001b5e8 f   libucrt:cvt.obj
 0001:0001a740       ?fp_format_g@@YAHQEBNQEAD_K12H_NIW4__acrt_rounding_mode@@AEAV__crt_cached_ptd_host@@@Z 000000018001b740 f   libucrt:cvt.obj
 0001:0001a894       ?should_round_up@@YA_NQEBN_KFW4__acrt_rounding_mode@@@Z 000000018001b894 f   libucrt:cvt.obj
 0001:0001afe0       ?initialize_inherited_file_handles_nolock@@YAXXZ 000000018001bfe0 f   libucrt:ioinit.obj
 0001:0001b0d0       ?initialize_stdio_handles_nolock@@YAXXZ 000000018001c0d0 f   libucrt:ioinit.obj
 0001:0001b348       ?<lambda_invoker_cdecl>@<lambda_a1ce4c8ae42411fd470c77163914f50e>@@CAHPEBX0@Z 000000018001c348 f   libucrt:argv_wildcards.obj
 0001:0001b664       ??$common_expand_argv_wildcards@D@@YAHQEAPEADQEAPEAPEAD@Z 000000018001c664 f   libucrt:argv_wildcards.obj
 0001:0001b8a8       ??$copy_and_add_argument_to_buffer@D@@YAHQEBD0_KAEAV?$argument_list@D@?A0x5f5c8891@@@Z 000000018001c8a8 f   libucrt:argv_wildcards.obj
 0001:0001ba30       ??$expand_argument_wildcards@D@@YAHQEAD0AEAV?$argument_list@D@?A0x5f5c8891@@@Z 000000018001ca30 f   libucrt:argv_wildcards.obj
 0001:0001c064       ??$?RV<lambda_efdfa57d1f175319df784efa44bb7b81>@@AEAV<lambda_5f0a4c1567f8adc6734073e5d1e1b35c>@@V<lambda_2e8a7d3640ea6ccb4c2413664c2db6fd>@@@?$__crt_seh_guarded_call@X@@QEAAX$$QEAV<lambda_efdfa57d1f175319df784efa44bb7b81>@@AEAV<lambda_5f0a4c1567f8adc6734073e5d1e1b35c>@@$$QEAV<lambda_2e8a7d3640ea6ccb4c2413664c2db6fd>@@@Z 000000018001d064 f   libucrt:mbctype.obj
 0001:0001c234       ?getSystemCP@@YAHH@Z       000000018001d234 f   libucrt:mbctype.obj
 0001:0001c2b4       ?setSBCS@@YAXPEAU__crt_multibyte_data@@@Z 000000018001d2b4 f   libucrt:mbctype.obj
 0001:0001c34c       ?setSBUpLow@@YAXPEAU__crt_multibyte_data@@@Z 000000018001d34c f   libucrt:mbctype.obj
 0001:0001c534       ?setmbcp_internal@@YAHH_NQEAU__acrt_ptd@@QEAPEAU__crt_multibyte_data@@@Z 000000018001d534 f   libucrt:mbctype.obj
 0001:0001c7a4       ?update_thread_multibyte_data_internal@@YAPEAU__crt_multibyte_data@@QEAU__acrt_ptd@@QEAPEAU1@@Z 000000018001d7a4 f   libucrt:mbctype.obj
 0001:0001cb98       ?x_ismbbtype_l@@YAHPEAU__crt_locale_pointers@@IHH@Z 000000018001db98 f   libucrt:ismbbyte.obj
 0001:0001cf68       ??$?RV<lambda_450d765d439847d4c735a33c368b5fc0>@@AEAV<lambda_44731a7d0e6d81c3e6aa82d741081786>@@V<lambda_601a2a7da3b7a96e9554ac7215c4b07c>@@@?$__crt_seh_guarded_call@P6AXH@Z@@QEAAP6AXH@Z$$QEAV<lambda_450d765d439847d4c735a33c368b5fc0>@@AEAV<lambda_44731a7d0e6d81c3e6aa82d741081786>@@$$QEAV<lambda_601a2a7da3b7a96e9554ac7215c4b07c>@@@Z 000000018001df68 f   libucrt:signal.obj
 0001:0001d2e0       ??$?RV<lambda_842d9ff0dc9ef11c61343bbaebe7f885>@@AEAV<lambda_c5860995281e5c4ce005b3de8f5874ee>@@V<lambda_d90129c13df834fdcbf8d2b88dafcf2d>@@@?$__crt_seh_guarded_call@X@@QEAAX$$QEAV<lambda_842d9ff0dc9ef11c61343bbaebe7f885>@@AEAV<lambda_c5860995281e5c4ce005b3de8f5874ee>@@$$QEAV<lambda_d90129c13df834fdcbf8d2b88dafcf2d>@@@Z 000000018001e2e0 f   libucrt:fflush.obj
 0001:0001d37c       ??$?RV<lambda_886d6c58226a84441f68b9f2b8217b83>@@AEAV<lambda_ab61a845afdef5b7c387490eaf3616ee>@@V<lambda_f7f22ab5edc0698d5f6905b0d3f44752>@@@?$__crt_seh_guarded_call@X@@QEAAX$$QEAV<lambda_886d6c58226a84441f68b9f2b8217b83>@@AEAV<lambda_ab61a845afdef5b7c387490eaf3616ee>@@$$QEAV<lambda_f7f22ab5edc0698d5f6905b0d3f44752>@@@Z 000000018001e37c f   libucrt:fflush.obj
 0001:0001d45c       ?common_flush_all@@YAH_N@Z 000000018001e45c f   libucrt:fflush.obj
 0001:0001dba8       ?free_crt_array_internal@@YAXQEAPEBX_K@Z 000000018001eba8 f   libucrt:inittime.obj
 0001:0001f78c       memcpy_s                   000000018002078c f   libucrt:cfout.obj
 0001:00020390       fallbackMethod             0000000180021390 f   libucrt:strpbrk.obj
 0001:0002073c       $LN78                      000000018002173c     libucrt:strpbrk.obj
 0001:00020778       $LN77                      0000000180021778     libucrt:strpbrk.obj
 0001:000207b8       $LN76                      00000001800217b8     libucrt:strpbrk.obj
 0001:00020894       ?__acrt_LCMapStringA_stat@@YAHPEAU__crt_locale_pointers@@PEB_WKPEBDHPEADHHH@Z 0000000180021894 f   libucrt:lcmapstringa.obj
 0001:00020c4c       ?initialize_multibyte@@YAHXZ 0000000180021c4c f   libucrt:multibyte_initializer.obj
 0001:00020c64       ??$?RV<lambda_a37b2b86f63e897a80ea819b0eb08c01>@@AEAV<lambda_38ce7e780aa69e748d6df282ebc68efe>@@V<lambda_99fb1378e971ab6e7edea83e3a7a83a2>@@@?$__crt_seh_guarded_call@H@@QEAAH$$QEAV<lambda_a37b2b86f63e897a80ea819b0eb08c01>@@AEAV<lambda_38ce7e780aa69e748d6df282ebc68efe>@@$$QEAV<lambda_99fb1378e971ab6e7edea83e3a7a83a2>@@@Z 0000000180021c64 f   libucrt:commit.obj
 0001:00020d84       ?write_double_translated_ansi_nolock@@YA?AUwrite_result@?A0x17268360@@HQEBDIAEAV__crt_cached_ptd_host@@@Z 0000000180021d84 f   libucrt:write.obj
 0001:00021210       ?write_text_ansi_nolock@@YA?AUwrite_result@?A0x17268360@@HQEBDI@Z 0000000180022210 f   libucrt:write.obj
 0001:00021314       ?write_text_utf16le_nolock@@YA?AUwrite_result@?A0x17268360@@HQEBDI@Z 0000000180022314 f   libucrt:write.obj
 0001:00021430       ?write_text_utf8_nolock@@YA?AUwrite_result@?A0x17268360@@HQEBDI@Z 0000000180022430 f   libucrt:write.obj
 0001:00021c10       $$000000                   0000000180022c10     libucrt:log10.obj
 0001:000226ac       ?_fclose_internal@@YAHQEAU_iobuf@@AEAV__crt_cached_ptd_host@@@Z 00000001800236ac f   libucrt:fclose.obj
 0001:00022728       ?_fclose_nolock_internal@@YAHQEAU_iobuf@@AEAV__crt_cached_ptd_host@@@Z 0000000180023728 f   libucrt:fclose.obj
 0001:00022864       ??$common_lseek_nolock@_J@@YA_JH_JHAEAV__crt_cached_ptd_host@@@Z 0000000180023864 f   libucrt:lseek.obj
 0001:000229ec       common_control87           00000001800239ec f   libucrt:ieee.obj
 0001:00022cac       _call_matherr              0000000180023cac f   libucrt:libm_error.obj
 0001:00022d14       _exception_enabled         0000000180023d14 f   libucrt:libm_error.obj
 0001:00022fb0       _log_special_common        0000000180023fb0 f   libucrt:log_special.obj
 0001:00023048       ??$?RV<lambda_ad8af0d99a0adf03d037d7dffe354bb5>@@AEAV<lambda_c9ba49e555ba839a7b07aa3fbecb7617>@@V<lambda_2f1ebd5d68526518146ae959c9e734c8>@@@?$__crt_seh_guarded_call@H@@QEAAH$$QEAV<lambda_ad8af0d99a0adf03d037d7dffe354bb5>@@AEAV<lambda_c9ba49e555ba839a7b07aa3fbecb7617>@@$$QEAV<lambda_2f1ebd5d68526518146ae959c9e734c8>@@@Z 0000000180024048 f   libucrt:close.obj
 0001:000233a0       $$000000                   00000001800243a0     libucrt:fpsr.obj
 0001:00023b20       $$000000                   0000000180024b20     LIBCMT:guard_dispatch.obj
 0001:00023b40       $$000000                   0000000180024b40     LIBCMT:guard_xfg_dispatch.obj
 0001:00023b60       ?filt$0@?0??_AtlVerifyStackAvailable@_ATL_SAFE_ALLOCA_IMPL@ATL@@YA_N_K@Z@4HA 0000000180024b60 f   BillDispenser.obj
 0001:00023b81       __scrt_is_nonwritable_in_current_image$filt$0 0000000180024b81 f   LIBCMT:utility.obj
 0001:00023b99       ?catch$0@?0???2@YAPEAX_KAEBUnothrow_t@std@@@Z@4HA 0000000180024b99 f   LIBCMT:new_scalar_nothrow.obj
 0001:00023ba6       __catch$??2@YAPEAX_KAEBUnothrow_t@std@@@Z$0 0000000180024ba6 f   LIBCMT:new_scalar_nothrow.obj
 0001:00023bb7       ?fin$0@?0??dllmain_crt_process_attach@@YAHQEAUHINSTANCE__@@QEAX@Z@4HA 0000000180024bb7 f   LIBCMT:dll_dllmain.obj
 0001:00023bce       ?fin$0@?0??dllmain_crt_process_detach@@YAH_N@Z@4HA 0000000180024bce f   LIBCMT:dll_dllmain.obj
 0001:00023be7       ?fin$1@?0??dllmain_crt_process_detach@@YAH_N@Z@4HA 0000000180024be7 f   LIBCMT:dll_dllmain.obj
 0001:00023bfb       ?filt$0@?0??dllmain_dispatch@@YAHQEAUHINSTANCE__@@KQEAX@Z@4HA 0000000180024bfb f   LIBCMT:dll_dllmain.obj
 0001:00023c31       ?filt$0@?0???$_CallSETranslator@V__FrameHandler3@@@@YAHPEAUEHExceptionRecord@@PEA_KPEAU_CONTEXT@@PEAU_xDISPATCHER_CONTEXT@@PEBU_s_FuncInfo@@K1H@Z@4HA 0000000180024c31 f   libvcruntime:risctrnsctrl.obj
 0001:00023cc2       ?filt$0@?0???$_CallSETranslator@V__FrameHandler4@@@@YAHPEAUEHExceptionRecord@@PEA_KPEAU_CONTEXT@@PEAU_xDISPATCHER_CONTEXT@@PEAUFuncInfo4@FH4@@K1H@Z@4HA 0000000180024cc2 f   libvcruntime:risctrnsctrl.obj
 0001:00023d61       __DestructExceptionObject$filt$0 0000000180024d61 f   libvcruntime:ehhelpers.obj
 0001:00023df7       ?filt$0@?0??CxxCallCatchBlock@__FrameHandler3@@SAPEAXPEAU_EXCEPTION_RECORD@@@Z@4HA 0000000180024df7 f   libvcruntime:frame.obj
 0001:00023e1c       ?fin$1@?0??CxxCallCatchBlock@__FrameHandler3@@SAPEAXPEAU_EXCEPTION_RECORD@@@Z@4HA 0000000180024e1c f   libvcruntime:frame.obj
 0001:00023ea2       ?filt$0@?0??CxxCallCatchBlock@__FrameHandler4@@SAPEAXPEAU_EXCEPTION_RECORD@@@Z@4HA 0000000180024ea2 f   libvcruntime:frame.obj
 0001:00023ed1       ?fin$1@?0??CxxCallCatchBlock@__FrameHandler4@@SAPEAXPEAU_EXCEPTION_RECORD@@@Z@4HA 0000000180024ed1 f   libvcruntime:frame.obj
 0001:00023f62       ?filt$0@?0??FrameUnwindToState@__FrameHandler3@@SAXPEA_KPEAU_xDISPATCHER_CONTEXT@@PEBU_s_FuncInfo@@H@Z@4HA 0000000180024f62 f   libvcruntime:frame.obj
 0001:00023f78       ?fin$1@?0??FrameUnwindToState@__FrameHandler3@@SAXPEA_KPEAU_xDISPATCHER_CONTEXT@@PEBU_s_FuncInfo@@H@Z@4HA 0000000180024f78 f   libvcruntime:frame.obj
 0001:00023f9b       ?filt$0@?0??FrameUnwindToState@__FrameHandler4@@SAXPEA_KPEAU_xDISPATCHER_CONTEXT@@PEAUFuncInfo4@FH4@@H@Z@4HA 0000000180024f9b f   libvcruntime:frame.obj
 0001:00023fb1       ?fin$1@?0??FrameUnwindToState@__FrameHandler4@@SAXPEA_KPEAU_xDISPATCHER_CONTEXT@@PEAUFuncInfo4@FH4@@H@Z@4HA 0000000180024fb1 f   libvcruntime:frame.obj
 0001:00023fd4       ?fin$0@?0???$?RV<lambda_0ae27a3a962d80f24befdcbee591983d>@@AEAV<lambda_8d0ee55de4b1038c4002e0adecdf1839>@@V<lambda_dc504788e8f1664fe9b84e20bfb512f2>@@@?$__crt_seh_guarded_call@X@@QEAAX$$QEAV<lambda_0ae27a3a962d80f24befdcbee591983d>@@AEAV<lambda_8d0ee55de4b1038c4002e0adecdf1839>@@$$QEAV<lambda_dc504788e8f1664fe9b84e20bfb512f2>@@@Z@4HA 0000000180024fd4 f   libucrt:per_thread_data.obj
 0001:00023fd4       ?fin$0@?0???$?RV<lambda_2d41944a1d46af3157314b8a01080d33>@@AEAV<lambda_8f455de75cd7d7f24b4096f044d8b9e6>@@V<lambda_aa500f224e6afead328df44964fe2772>@@@?$__crt_seh_guarded_call@X@@QEAAX$$QEAV<lambda_2d41944a1d46af3157314b8a01080d33>@@AEAV<lambda_8f455de75cd7d7f24b4096f044d8b9e6>@@$$QEAV<lambda_aa500f224e6afead328df44964fe2772>@@@Z@4HA 0000000180024fd4 f   libucrt:per_thread_data.obj
 0001:00023fd4       ?fin$0@?0???$?RV<lambda_aa87e3671a710a21b5dc78c0bdf72e11>@@AEAV<lambda_92619d2358a28f41a33ba319515a20b9>@@V<lambda_6992ecaafeb10aed2b74cb1fae11a551>@@@?$__crt_seh_guarded_call@X@@QEAAX$$QEAV<lambda_aa87e3671a710a21b5dc78c0bdf72e11>@@AEAV<lambda_92619d2358a28f41a33ba319515a20b9>@@$$QEAV<lambda_6992ecaafeb10aed2b74cb1fae11a551>@@@Z@4HA 0000000180024fd4 f   libucrt:per_thread_data.obj
 0001:00023fd4       ?fin$0@?0???$?RV<lambda_f2e299630e499de9f9a165e60fcd3db5>@@AEAV<lambda_2ae9d31cdba2644fcbeaf08da7c24588>@@V<lambda_40d01ff24d0e7b3814fdbdcee8eab3c7>@@@?$__crt_seh_guarded_call@X@@QEAAX$$QEAV<lambda_f2e299630e499de9f9a165e60fcd3db5>@@AEAV<lambda_2ae9d31cdba2644fcbeaf08da7c24588>@@$$QEAV<lambda_40d01ff24d0e7b3814fdbdcee8eab3c7>@@@Z@4HA 0000000180024fd4 f   libucrt:per_thread_data.obj
 0001:00023fd4       ?fin$0@?0???$?RV<lambda_450d765d439847d4c735a33c368b5fc0>@@AEAV<lambda_44731a7d0e6d81c3e6aa82d741081786>@@V<lambda_601a2a7da3b7a96e9554ac7215c4b07c>@@@?$__crt_seh_guarded_call@P6AXH@Z@@QEAAP6AXH@Z$$QEAV<lambda_450d765d439847d4c735a33c368b5fc0>@@AEAV<lambda_44731a7d0e6d81c3e6aa82d741081786>@@$$QEAV<lambda_601a2a7da3b7a96e9554ac7215c4b07c>@@@Z@4HA 0000000180024fd4 f   libucrt:signal.obj
 0001:00023fd4       ?fin$0@?0???$?RV<lambda_d80eeec6fff315bfe5c115232f3240e3>@@AEAV<lambda_6e4b09c48022b2350581041d5f6b0c4c>@@V<lambda_2358e3775559c9db80273638284d5e45>@@@?$__crt_seh_guarded_call@X@@QEAAX$$QEAV<lambda_d80eeec6fff315bfe5c115232f3240e3>@@AEAV<lambda_6e4b09c48022b2350581041d5f6b0c4c>@@$$QEAV<lambda_2358e3775559c9db80273638284d5e45>@@@Z@4HA 0000000180024fd4 f   libucrt:exit.obj
 0001:00023fd4       ?fin$0@?0???$?RV<lambda_638799b9deba96c50f710eeac98168cd>@@AEAV<lambda_22ebabd17bc4fa466a2aca6d8deb888d>@@V<lambda_a6f7d7db0129f75315ebf26d50c089f1>@@@?$__crt_seh_guarded_call@H@@QEAAH$$QEAV<lambda_638799b9deba96c50f710eeac98168cd>@@AEAV<lambda_22ebabd17bc4fa466a2aca6d8deb888d>@@$$QEAV<lambda_a6f7d7db0129f75315ebf26d50c089f1>@@@Z@4HA 0000000180024fd4 f   libucrt:onexit.obj
 0001:00023fd4       ?fin$0@?0???$?RV<lambda_7777bce6b2f8c936911f934f8298dc43>@@AEAV<lambda_f03950bc5685219e0bcd2087efbe011e>@@V<lambda_3883c3dff614d5e0c5f61bb1ac94921c>@@@?$__crt_seh_guarded_call@H@@QEAAH$$QEAV<lambda_7777bce6b2f8c936911f934f8298dc43>@@AEAV<lambda_f03950bc5685219e0bcd2087efbe011e>@@$$QEAV<lambda_3883c3dff614d5e0c5f61bb1ac94921c>@@@Z@4HA 0000000180024fd4 f   libucrt:onexit.obj
 0001:00023fee       ?filt$0@?0???R<lambda_6e4b09c48022b2350581041d5f6b0c4c>@@QEBA@XZ@4HA 0000000180024fee f   libucrt:exit.obj
 0001:0002401b       _query_new_handler$fin$0   000000018002501b f   libucrt:new_handler.obj
 0001:00024031       ?fin$0@?0???$?RV<lambda_410d79af7f07d98d83a3f525b3859a53>@@AEAV<lambda_3e16ef9562a7dcce91392c22ab16ea36>@@V<lambda_38119f0e861e05405d8a144b9b982f0a>@@@?$__crt_seh_guarded_call@X@@QEAAX$$QEAV<lambda_410d79af7f07d98d83a3f525b3859a53>@@AEAV<lambda_3e16ef9562a7dcce91392c22ab16ea36>@@$$QEAV<lambda_38119f0e861e05405d8a144b9b982f0a>@@@Z@4HA 0000000180025031 f   libucrt:wsetlocale.obj
 0001:0002404b       __acrt_initialize_lowio$fin$0 000000018002504b f   libucrt:ioinit.obj
 0001:0002404b       __acrt_lowio_ensure_fh_exists$fin$0 000000018002504b f   libucrt:osfinfo.obj
 0001:00024064       ?fin$0@?0???$?RV<lambda_efdfa57d1f175319df784efa44bb7b81>@@AEAV<lambda_5f0a4c1567f8adc6734073e5d1e1b35c>@@V<lambda_2e8a7d3640ea6ccb4c2413664c2db6fd>@@@?$__crt_seh_guarded_call@X@@QEAAX$$QEAV<lambda_efdfa57d1f175319df784efa44bb7b81>@@AEAV<lambda_5f0a4c1567f8adc6734073e5d1e1b35c>@@$$QEAV<lambda_2e8a7d3640ea6ccb4c2413664c2db6fd>@@@Z@4HA 0000000180025064 f   libucrt:mbctype.obj
 0001:0002407e       ?fin$0@?0??update_thread_multibyte_data_internal@@YAPEAU__crt_multibyte_data@@QEAU__acrt_ptd@@QEAPEAU1@@Z@4HA 000000018002507e f   libucrt:mbctype.obj
 0001:00024097       raise$fin$0                0000000180025097 f   libucrt:signal.obj
 0001:000240b8       ?fin$0@?0???$?RV<lambda_842d9ff0dc9ef11c61343bbaebe7f885>@@AEAV<lambda_c5860995281e5c4ce005b3de8f5874ee>@@V<lambda_d90129c13df834fdcbf8d2b88dafcf2d>@@@?$__crt_seh_guarded_call@X@@QEAAX$$QEAV<lambda_842d9ff0dc9ef11c61343bbaebe7f885>@@AEAV<lambda_c5860995281e5c4ce005b3de8f5874ee>@@$$QEAV<lambda_d90129c13df834fdcbf8d2b88dafcf2d>@@@Z@4HA 00000001800250b8 f   libucrt:fflush.obj
 0001:000240d3       ?fin$0@?0???$?RV<lambda_886d6c58226a84441f68b9f2b8217b83>@@AEAV<lambda_ab61a845afdef5b7c387490eaf3616ee>@@V<lambda_f7f22ab5edc0698d5f6905b0d3f44752>@@@?$__crt_seh_guarded_call@X@@QEAAX$$QEAV<lambda_886d6c58226a84441f68b9f2b8217b83>@@AEAV<lambda_ab61a845afdef5b7c387490eaf3616ee>@@$$QEAV<lambda_f7f22ab5edc0698d5f6905b0d3f44752>@@@Z@4HA 00000001800250d3 f   libucrt:fflush.obj
 0001:000240f0       __acrt_update_thread_locale_data$fin$0 00000001800250f0 f   libucrt:locale_refcounting.obj
 0001:00024109       _fcloseall$fin$0           0000000180025109 f   libucrt:closeall.obj
 0001:00024122       ?fin$0@?0???$?RV<lambda_ad8af0d99a0adf03d037d7dffe354bb5>@@AEAV<lambda_c9ba49e555ba839a7b07aa3fbecb7617>@@V<lambda_2f1ebd5d68526518146ae959c9e734c8>@@@?$__crt_seh_guarded_call@H@@QEAAH$$QEAV<lambda_ad8af0d99a0adf03d037d7dffe354bb5>@@AEAV<lambda_c9ba49e555ba839a7b07aa3fbecb7617>@@$$QEAV<lambda_2f1ebd5d68526518146ae959c9e734c8>@@@Z@4HA 0000000180025122 f   libucrt:close.obj
 0001:00024122       ?fin$0@?0???$?RV<lambda_a37b2b86f63e897a80ea819b0eb08c01>@@AEAV<lambda_38ce7e780aa69e748d6df282ebc68efe>@@V<lambda_99fb1378e971ab6e7edea83e3a7a83a2>@@@?$__crt_seh_guarded_call@H@@QEAAH$$QEAV<lambda_a37b2b86f63e897a80ea819b0eb08c01>@@AEAV<lambda_38ce7e780aa69e748d6df282ebc68efe>@@$$QEAV<lambda_99fb1378e971ab6e7edea83e3a7a83a2>@@@Z@4HA 0000000180025122 f   libucrt:commit.obj
 0001:0002413c       _write_internal$fin$0      000000018002513c f   libucrt:write.obj
 0001:00024153       ?fin$0@?0??_fclose_internal@@YAHQEAU_iobuf@@AEAV__crt_cached_ptd_host@@@Z@4HA 0000000180025153 f   libucrt:fclose.obj
 0001:0002416b       _ctrlfp$filt$0             000000018002516b f   libucrt:fpctrl.obj
 0001:0002416b       common_control87$filt$0    000000018002516b f   libucrt:ieee.obj
 0001:000241a0       _IsNonwritableInCurrentImage$filt$0 00000001800251a0 f   LIBCMT:pesect.obj
 0001:000241c0       ??__F_AtlComModule@ATL@@YAXXZ 00000001800251c0 f   OposVariant.obj
 0001:000241cc       ??__F_AtlWinModule@ATL@@YAXXZ 00000001800251cc f   OposVariant.obj
 0001:00024210       ??__F_Module@@YAXXZ        0000000180025210 f   BillDispenser.obj
 0001:0002422c       ??__F_AtlBaseModule@ATL@@YAXXZ 000000018002522c f   atls:atlbase.obj
 0002:00000670       ?_AtlBaseModule$initializer$@ATL@@3P6AXXZEA 0000000180026670     atls:atlbase.obj
 0002:00000678       ?_AtlComModule$initializer$@ATL@@3P6AXXZEA 0000000180026678     OposVariant.obj
 0002:00000680       ?_AtlWinModule$initializer$@ATL@@3P6AXXZEA 0000000180026680     OposVariant.obj
 0002:00000688       ?_Module$initializer$@@3P6AXXZEA 0000000180026688     BillDispenser.obj
 0002:00000690       ??pConnMap$initializer$@?$IConnectionPointContainerImpl@VCOPOSBillDispenser@@@ATL@@0P6AXXZEA@@3P6AXXZEA 0000000180026690     BillDispenser.obj
 0002:000006a8       ?__scrt_initialize_tss_var@@3P6AHXZEA 00000001800266a8     LIBCMT:thread_safe_statics.obj
 0002:00002668       GS_ExceptionPointers       0000000180028668     LIBCMT:gs_report.obj
 0002:00002850       ?ExceptionTemplate@?1??UnwindNestedFrames@__FrameHandler4@@SAXPEA_KPEAUEHExceptionRecord@@PEAU_CONTEXT@@0PEAXPEAUFuncInfo4@FH4@@HHPEAUHandlerType4@6@PEAU_xDISPATCHER_CONTEXT@@E@Z@4U_EXCEPTION_RECORD@@B 0000000180028850     libvcruntime:risctrnsctrl.obj
 0002:000028f0       ?ExceptionTemplate@?1??UnwindNestedFrames@__FrameHandler3@@SAXPEA_KPEAUEHExceptionRecord@@PEAU_CONTEXT@@0PEAXPEBU_s_FuncInfo@@HHPEBU_s_HandlerType@@PEAU_xDISPATCHER_CONTEXT@@E@Z@4U_EXCEPTION_RECORD@@B 00000001800288f0     libvcruntime:risctrnsctrl.obj
 0002:000029c0       ?tokenTable@@3QBUStringLiteral@@B 00000001800289c0     libvcruntime:undname.obj
 0002:00002ad0       ?nameTable@@3QBUStringLiteral@@B 0000000180028ad0     libvcruntime:undname.obj
 0002:00003000       ?rttiTable@@3QBUStringLiteral@@B 0000000180029000     libvcruntime:undname.obj
 0002:00003050       ?IndirectionName@@3QBUStringLiteral@@B 0000000180029050     libvcruntime:undname.obj
 0002:000030b0       ?PrefixName@@3QBUStringLiteral@@B 00000001800290b0     libvcruntime:undname.obj
 0002:00003798       ?module_names@?A0xbc0cc709@@3QBQEB_WB 0000000180029798     libvcruntime:winapi_downlevel.obj
 0002:00003858       ?candidate_modules@?1??try_get_FlsAlloc@@YAP6AKP6AXPEAX@Z@ZXZ@4QBW4module_id@?A0xbc0cc709@@B 0000000180029858     libvcruntime:winapi_downlevel.obj
 0002:00003870       ?candidate_modules@?1??try_get_FlsFree@@YAP6AHK@ZXZ@4QBW4module_id@?A0xbc0cc709@@B 0000000180029870     libvcruntime:winapi_downlevel.obj
 0002:00003880       ?candidate_modules@?1??try_get_FlsGetValue@@YAP6APEAXK@ZXZ@4QBW4module_id@?A0xbc0cc709@@B 0000000180029880     libvcruntime:winapi_downlevel.obj
 0002:00003898       ?candidate_modules@?1??try_get_FlsSetValue@@YAP6AHKPEAX@ZXZ@4QBW4module_id@?A0xbc0cc709@@B 0000000180029898     libvcruntime:winapi_downlevel.obj
 0002:000038b0       ?candidate_modules@?1??try_get_InitializeCriticalSectionEx@@YAP6AHPEAU_RTL_CRITICAL_SECTION@@KK@ZXZ@4QBW4module_id@?A0xbc0cc709@@B 00000001800298b0     libvcruntime:winapi_downlevel.obj
 0002:000038e0       ?errtable@@3QBUerrentry@?A0x31fdb9ec@@B 00000001800298e0     libucrt:errno.obj
 0002:00003c48       $cppxdata$?try_cor_exit_process@@YAXI@Z 0000000180029c48     libucrt:exit.obj
 0002:00003c70       $cppxdata$?common_exit@@YAXHW4_crt_exit_cleanup_mode@@W4_crt_exit_return_mode@@@Z 0000000180029c70     libucrt:exit.obj
 0002:00003cc0       $cppxdata$__dcrt_uninitialize_environments_nolock 0000000180029cc0     libucrt:environment_initialization.obj
 0002:00003ce8       $cppxdata$_execute_onexit_table 0000000180029ce8     libucrt:onexit.obj
 0002:00003d10       __acrt_initializers        0000000180029d10     libucrt:initialization.obj
 0002:00004490       ?module_names@?A0x391cf84c@@3QBQEB_WB 000000018002a490     libucrt:winapi_thunks.obj
 0002:00004998       ?candidate_modules@?1??try_get_AreFileApisANSI@@YAP6AHXZXZ@4QBW4module_id@?A0x391cf84c@@B 000000018002a998     libucrt:winapi_thunks.obj
 0002:000049b0       ?candidate_modules@?1??try_get_InitializeCriticalSectionEx@@YAP6AHPEAU_RTL_CRITICAL_SECTION@@KK@ZXZ@4QBW4module_id@?A0x391cf84c@@B 000000018002a9b0     libucrt:winapi_thunks.obj
 0002:000049b8       ?candidate_modules@?1??try_get_LCMapStringEx@@YAP6AHPEB_WK0HPEA_WHPEAU_nlsversioninfo@@PEAX_J@ZXZ@4QBW4module_id@?A0x391cf84c@@B 000000018002a9b8     libucrt:winapi_thunks.obj
 0002:000049d0       ?candidate_modules@?1??try_get_LocaleNameToLCID@@YAP6AKPEB_WK@ZXZ@4QBW4module_id@?A0x391cf84c@@B 000000018002a9d0     libucrt:winapi_thunks.obj
 0002:000049ec       ?candidate_modules@?1??try_get_AppPolicyGetProcessTerminationMethod@@YAP6AJPEAXPEAW4AppPolicyProcessTerminationMethod@@@ZXZ@4QBW4module_id@?A0x391cf84c@@B 000000018002a9ec     libucrt:winapi_thunks.obj
 0002:00004a18       ?candidate_modules@?1??try_get_SetThreadStackGuarantee@@YAP6AHPEAK@ZXZ@4QBW4module_id@?A0x391cf84c@@B 000000018002aa18     libucrt:winapi_thunks.obj
 0002:00004a40       ?strings@?1??fp_format_nan_or_infinity@@YAHW4__acrt_fp_class@@_NPEAD_K1@Z@4QAY03QEBDA 000000018002aa40     libucrt:cvt.obj
 0002:00004b18       ?_mb_locale_names@@3QBQEB_WB 000000018002ab18     libucrt:mbctype.obj
 0002:00005190       ?LcidToLocaleNameTable@?A0x881e4c05@@3QBULcidToLocaleName@1@B 000000018002b190     libucrt:lcidtoname_downlevel.obj
 0002:00006be0       ?LocaleNameToIndexTable@?A0x881e4c05@@3QBULocaleNameIndex@1@B 000000018002cbe0     libucrt:lcidtoname_downlevel.obj
 0002:00008e70       $cppxdata$?write_double_translated_ansi_nolock@@YA?AUwrite_result@?A0x17268360@@HQEBDIAEAV__crt_cached_ptd_host@@@Z 000000018002ee70     libucrt:write.obj
 0002:00008ea0       __real_ninf                000000018002eea0     libucrt:log10.obj
 0002:00008eb0       __real_inf                 000000018002eeb0     libucrt:log10.obj
 0002:00008ec0       __real_neg_qnan            000000018002eec0     libucrt:log10.obj
 0002:00008ed0       __real_qnanbit             000000018002eed0     libucrt:log10.obj
 0002:00008ee0       __int_1023                 000000018002eee0     libucrt:log10.obj
 0002:00008ef0       __mask_001                 000000018002eef0     libucrt:log10.obj
 0002:00008f00       __mask_mant                000000018002ef00     libucrt:log10.obj
 0002:00008f10       __mask_mant_top8           000000018002ef10     libucrt:log10.obj
 0002:00008f20       __mask_mant9               000000018002ef20     libucrt:log10.obj
 0002:00008f30       __real_log10_e             000000018002ef30     libucrt:log10.obj
 0002:00008f40       __real_log10_e_lead        000000018002ef40     libucrt:log10.obj
 0002:00008f50       __real_log10_e_tail        000000018002ef50     libucrt:log10.obj
 0002:00008f60       __real_log10_2_lead        000000018002ef60     libucrt:log10.obj
 0002:00008f70       __real_log10_2_tail        000000018002ef70     libucrt:log10.obj
 0002:00008f80       __real_two                 000000018002ef80     libucrt:log10.obj
 0002:00008f90       __real_one                 000000018002ef90     libucrt:log10.obj
 0002:00008fa0       __real_half                000000018002efa0     libucrt:log10.obj
 0002:00008fb0       __mask_100                 000000018002efb0     libucrt:log10.obj
 0002:00008fc0       __real_1_over_512          000000018002efc0     libucrt:log10.obj
 0002:00008fd0       __real_1_over_2            000000018002efd0     libucrt:log10.obj
 0002:00008fe0       __real_1_over_3            000000018002efe0     libucrt:log10.obj
 0002:00008ff0       __real_1_over_4            000000018002eff0     libucrt:log10.obj
 0002:00009000       __real_1_over_5            000000018002f000     libucrt:log10.obj
 0002:00009010       __real_1_over_6            000000018002f010     libucrt:log10.obj
 0002:00009020       __real_neg_1023            000000018002f020     libucrt:log10.obj
 0002:00009030       __mask_2045                000000018002f030     libucrt:log10.obj
 0002:00009040       __real_threshold           000000018002f040     libucrt:log10.obj
 0002:00009050       __real_near_one_lt         000000018002f050     libucrt:log10.obj
 0002:00009060       __real_near_one_gt         000000018002f060     libucrt:log10.obj
 0002:00009070       __real_min_norm            000000018002f070     libucrt:log10.obj
 0002:00009080       __real_notsign             000000018002f080     libucrt:log10.obj
 0002:00009090       __real_ca1                 000000018002f090     libucrt:log10.obj
 0002:000090a0       __real_ca2                 000000018002f0a0     libucrt:log10.obj
 0002:000090b0       __real_ca3                 000000018002f0b0     libucrt:log10.obj
 0002:000090c0       __real_ca4                 000000018002f0c0     libucrt:log10.obj
 0002:000090d0       __mask_lower               000000018002f0d0     libucrt:log10.obj
 0002:000090e0       __flag_x_zero              000000018002f0e0     libucrt:log10.obj
 0002:000090e4       __flag_x_neg               000000018002f0e4     libucrt:log10.obj
 0002:000090e8       __flag_x_nan               000000018002f0e8     libucrt:log10.obj
 0002:0000a940       __real@433fffffffffffff    0000000180030940     libucrt:fpsr.obj
 0002:0000a948       __real@c33fffffffffffff    0000000180030948     libucrt:fpsr.obj
 0002:0000b250       $unwind$?cw_memcpy@@YAHPEA_WPEBDH@Z 0000000180031250     CWString.obj
 0002:0000b250       $unwind$_invalid_parameter_noinfo 0000000180031250     libucrt:invalid_parameter.obj
 0002:0000b250       $unwind$?state_case_size@?$output_processor@_WV?$string_output_adapter@_W@__crt_stdio_output@@V?$format_validation_base@_WV?$string_output_adapter@_W@__crt_stdio_output@@@2@@__crt_stdio_output@@AEAA_NXZ 0000000180031250     libucrt:output.obj
 0002:0000b250       $unwind$_log10_special     0000000180031250     libucrt:log_special.obj
 0002:0000b258       $unwind$??__E?pConnMap@?$IConnectionPointContainerImpl@VCOPOSBillDispenser@@@ATL@@0PEBU_ATL_CONNMAP_ENTRY@2@EB@@YAXXZ 0000000180031258     BillDispenser.obj
 0002:0000b258       $unwind$?AddReplacement@CRegObject@ATL@@UEAAJPEB_W0@Z 0000000180031258     BillDispenser.obj
 0002:0000b258       $unwind$?AtlHresultFromLastError@ATL@@YAJXZ 0000000180031258     BillDispenser.obj
 0002:0000b258       $unwind$?AtlThrowImpl@ATL@@YAXJ@Z 0000000180031258     BillDispenser.obj
 0002:0000b258       $unwind$?CreateInstance@CComClassFactory@ATL@@UEAAJPEAUIUnknown@@AEBU_GUID@@PEAPEAX@Z 0000000180031258     BillDispenser.obj
 0002:0000b258       $unwind$?DefaultReflectionHandler@?$CWindowImplRoot@VCWindow@ATL@@@ATL@@SAHPEAUHWND__@@I_K_JAEA_J@Z 0000000180031258     BillDispenser.obj
 0002:0000b258       $unwind$?EnumAdvise@?$IOleObjectImpl@VCOPOSBillDispenser@@@ATL@@UEAAJPEAPEAUIEnumSTATDATA@@@Z 0000000180031258     BillDispenser.obj
 0002:0000b258       $unwind$?FireViewChange@CComControlBase@ATL@@QEAAJXZ 0000000180031258     BillDispenser.obj
 0002:0000b258       $unwind$?GetAdvise@?$IViewObjectExImpl@VCOPOSBillDispenser@@@ATL@@UEAAJPEAK0PEAPEAUIAdviseSink@@@Z 0000000180031258     BillDispenser.obj
 0002:0000b258       $unwind$?LockServer@CComClassFactory@ATL@@UEAAJH@Z 0000000180031258     BillDispenser.obj
 0002:0000b258       $unwind$?OnDocWindowActivate@?$IOleInPlaceActiveObjectImpl@VCOPOSBillDispenser@@@ATL@@UEAAJH@Z 0000000180031258     BillDispenser.obj
 0002:0000b258       $unwind$?Unadvise@?$IOleObjectImpl@VCOPOSBillDispenser@@@ATL@@UEAAJK@Z 0000000180031258     BillDispenser.obj
 0002:0000b258       $unwind$?_LocCPQueryInterface@?$IConnectionPointImpl@VCOPOSBillDispenser@@$1?DIID__IOPOSBillDispenserEvents@@3U_GUID@@BVCComDynamicUnkArray@ATL@@@ATL@@UEAAJAEBU_GUID@@PEAPEAX@Z 0000000180031258     BillDispenser.obj
 0002:0000b258       $unwind$?_LocCPQueryInterface@?$IConnectionPointImpl@VCOPOSBillDispenser@@$1?IID_IPropertyNotifySink@@3U_GUID@@BVCComDynamicUnkArray@ATL@@@ATL@@UEAAJAEBU_GUID@@PEAPEAX@Z 0000000180031258     BillDispenser.obj
 0002:0000b258       $unwind$?FinalConstruct@COPOSBillDispenser@@QEAAJXZ 0000000180031258     BillDispenserImpl.obj
 0002:0000b258       $unwind$?get_ResultCode@COPOSBillDispenser@@UEAAJPEAJ@Z 0000000180031258     BillDispenserImpl.obj
 0002:0000b258       $unwind$?get_State@COPOSBillDispenser@@UEAAJPEAJ@Z 0000000180031258     BillDispenserImpl.obj
 0002:0000b258       $unwind$?cw_strcpy@@YAHPEA_WPEBD@Z 0000000180031258     CWString.obj
 0002:0000b258       $unwind$??1OposDispParms@@QEAA@XZ 0000000180031258     OposVariant.obj
 0002:0000b258       $unwind$??__E_AtlComModule@ATL@@YAXXZ 0000000180031258     OposVariant.obj
 0002:0000b258       $unwind$??__E_AtlWinModule@ATL@@YAXXZ 0000000180031258     OposVariant.obj
 0002:0000b258       $unwind$??__F_AtlWinModule@ATL@@YAXXZ 0000000180031258     OposVariant.obj
 0002:0000b258       $unwind$?GetLONG@OposVariant@@QEAAJXZ 0000000180031258     OposVariant.obj
 0002:0000b258       $unwind$__dcrt_terminate_console_output 0000000180031258     libucrt:initcon.obj
 0002:0000b258       $unwind$??$uninitialize_environment_internal@D@@YAXAEAPEAPEAD@Z 0000000180031258     libucrt:environment_initialization.obj
 0002:0000b258       $unwind$??$uninitialize_environment_internal@_W@@YAXAEAPEAPEA_W@Z 0000000180031258     libucrt:environment_initialization.obj
 0002:0000b258       $unwind$__acrt_initialize_heap 0000000180031258     libucrt:heap_handle.obj
 0002:0000b258       $unwind$_msize_base        0000000180031258     libucrt:msize.obj
 0002:0000b258       $unwind$?initialize_multibyte@@YAHXZ 0000000180031258     libucrt:multibyte_initializer.obj
 0002:0000b258       $unwind$__acrt_thread_attach 0000000180031258     libucrt:initialization.obj
 0002:0000b258       $unwind$__acrt_thread_detach 0000000180031258     libucrt:initialization.obj
 0002:0000b258       $unwind$__acrt_uninitialize 0000000180031258     libucrt:initialization.obj
 0002:0000b258       $unwind$__acrt_uninitialize_critical 0000000180031258     libucrt:initialization.obj
 0002:0000b258       $unwind$initialize_c       0000000180031258     libucrt:initialization.obj
 0002:0000b258       $unwind$uninitialize_allocated_io_buffers 0000000180031258     libucrt:initialization.obj
 0002:0000b258       $unwind$uninitialize_environment 0000000180031258     libucrt:initialization.obj
 0002:0000b258       $unwind$__acrt_initialize_ptd 0000000180031258     libucrt:per_thread_data.obj
 0002:0000b258       $unwind$__acrt_uninitialize_ptd 0000000180031258     libucrt:per_thread_data.obj
 0002:0000b258       $unwind$__acrt_AreFileApisANSI 0000000180031258     libucrt:winapi_thunks.obj
 0002:0000b258       $unwind$__acrt_release_locale_ref 0000000180031258     libucrt:locale_refcounting.obj
 0002:0000b258       $unwind$_isatty            0000000180031258     libucrt:isatty.obj
 0002:0000b258       $unwind$_get_osfhandle     0000000180031258     libucrt:osfinfo.obj
 0002:0000b258       $unwind$__acrt_initialize_multibyte 0000000180031258     libucrt:mbctype.obj
 0002:0000b258       $unwind$__acrt_update_thread_multibyte_data 0000000180031258     libucrt:mbctype.obj
 0002:0000b258       $unwind$__doserrno         0000000180031258     libucrt:errno.obj
 0002:0000b258       $unwind$_errno             0000000180031258     libucrt:errno.obj
 0002:0000b258       $unwind$_invoke_watson     0000000180031258     libucrt:invalid_parameter.obj
 0002:0000b258       $unwind$abort              0000000180031258     libucrt:abort.obj
 0002:0000b258       $unwind$__acrt_initialize_command_line 0000000180031258     libucrt:argv_data.obj
 0002:0000b258       $unwind$?should_call_terminate_process@@YA_NXZ 0000000180031258     libucrt:exit.obj
 0002:0000b258       $unwind$_fileno            0000000180031258     libucrt:fileno.obj
 0002:0000b258       $unwind$_statfp            0000000180031258     libucrt:fpctrl.obj
 0002:0000b258       $unwind$fegetround         0000000180031258     libucrt:fegetround.obj
 0002:0000b258       $unwind$_set_errno_from_matherr 0000000180031258     libucrt:fpexcept.obj
 0002:0000b258       $unwind$??__E_AtlBaseModule@ATL@@YAXXZ 0000000180031258     atls:atlbase.obj
 0002:0000b258       $unwind$__scrt_initialize_default_local_stdio_options 0000000180031258     LIBCMT:default_local_stdio_options.obj
 0002:0000b258       $unwind$?dllmain_crt_dispatch@@YAHQEAUHINSTANCE__@@KQEAX@Z 0000000180031258     LIBCMT:dll_dllmain.obj
 0002:0000b258       $unwind$__report_rangecheckfailure 0000000180031258     LIBCMT:gs_report.obj
 0002:0000b258       $unwind$__GSHandlerCheck   0000000180031258     LIBCMT:gshandler.obj
 0002:0000b258       $unwind$?__scrt_uninitialize_thread_safe_statics@@YAXXZ 0000000180031258     LIBCMT:thread_safe_statics.obj
 0002:0000b258       $unwind$_Init_thread_notify 0000000180031258     LIBCMT:thread_safe_statics.obj
 0002:0000b258       $unwind$__scrt_acquire_startup_lock 0000000180031258     LIBCMT:utility.obj
 0002:0000b258       $unwind$__scrt_dllmain_after_initialize_c 0000000180031258     LIBCMT:utility.obj
 0002:0000b258       $unwind$__scrt_dllmain_before_initialize_c 0000000180031258     LIBCMT:utility.obj
 0002:0000b258       $unwind$__scrt_dllmain_crt_thread_attach 0000000180031258     LIBCMT:utility.obj
 0002:0000b258       $unwind$__scrt_dllmain_crt_thread_detach 0000000180031258     LIBCMT:utility.obj
 0002:0000b258       $unwind$__scrt_dllmain_uninitialize_c 0000000180031258     LIBCMT:utility.obj
 0002:0000b258       $unwind$__scrt_dllmain_uninitialize_critical 0000000180031258     LIBCMT:utility.obj
 0002:0000b258       $unwind$atexit             0000000180031258     LIBCMT:utility.obj
 0002:0000b258       $unwind$__std_terminate    0000000180031258     libvcruntime:ehhelpers.obj
 0002:0000b258       $unwind$?GetCurrentState@__FrameHandler3@@SAHPEA_KPEAU_xDISPATCHER_CONTEXT@@PEBU_s_FuncInfo@@@Z 0000000180031258     libvcruntime:ehstate.obj
 0002:0000b258       $unwind$__vcrt_initialize  0000000180031258     libvcruntime:initialization.obj
 0002:0000b258       $unwind$__vcrt_thread_attach 0000000180031258     libvcruntime:initialization.obj
 0002:0000b258       $unwind$__vcrt_thread_detach 0000000180031258     libvcruntime:initialization.obj
 0002:0000b258       $unwind$__vcrt_uninitialize 0000000180031258     libvcruntime:initialization.obj
 0002:0000b258       $unwind$__vcrt_uninitialize_critical 0000000180031258     libvcruntime:initialization.obj
 0002:0000b258       $unwind$__vcrt_freefls     0000000180031258     libvcruntime:per_thread_data.obj
 0002:0000b258       $unwind$__vcrt_getptd      0000000180031258     libvcruntime:per_thread_data.obj
 0002:0000b258       $unwind$__vcrt_initialize_ptd 0000000180031258     libvcruntime:per_thread_data.obj
 0002:0000b258       $unwind$__vcrt_uninitialize_ptd 0000000180031258     libvcruntime:per_thread_data.obj
 0002:0000b258       $unwind$_purecall          0000000180031258     libvcruntime:purevirt.obj
 0002:0000b258       $unwind$?FrameUnwindToEmptyState@__FrameHandler4@@SAXPEA_KPEAU_xDISPATCHER_CONTEXT@@PEAUFuncInfo4@FH4@@@Z 0000000180031258     libvcruntime:risctrnsctrl.obj
 0002:0000b258       $unwind$_GetImageBase      0000000180031258     libvcruntime:risctrnsctrl.obj
 0002:0000b258       $unwind$_GetThrowImageBase 0000000180031258     libvcruntime:risctrnsctrl.obj
 0002:0000b260       $unwind$?DAdvise@?$IDataObjectImpl@VCOPOSBillDispenser@@@ATL@@UEAAJPEAUtagFORMATETC@@KPEAUIAdviseSink@@PEAK@Z 0000000180031260     BillDispenser.obj
 0002:0000b260       $unwind$?cw_dup@@YAXPEBDAEAHAEAPEA_W1@Z 0000000180031260     CWString.obj
 0002:0000b260       $unwind$??$create_environment@D@@YAQEAPEADQEAD@Z 0000000180031260     libucrt:environment_initialization.obj
 0002:0000b260       $unwind$_mbtowc_internal   0000000180031260     libucrt:mbtowc.obj
 0002:0000b260       $unwind$??$__acrt_convert_wcs_mbs_cp@D_WV<lambda_7c9dea7b4ca7285d2cdb541a38da6275>@@U__crt_win32_buffer_internal_dynamic_resizing@@@@YAHQEBDAEAV?$__crt_win32_buffer@_WU__crt_win32_buffer_internal_dynamic_resizing@@@@AEBV<lambda_7c9dea7b4ca7285d2cdb541a38da6275>@@I@Z 0000000180031260     libucrt:argv_wildcards.obj
 0002:0000b260       $unwind$?process@?$output_processor@_WV?$string_output_adapter@_W@__crt_stdio_output@@V?$format_validation_base@_WV?$string_output_adapter@_W@__crt_stdio_output@@@2@@__crt_stdio_output@@QEAAHXZ 0000000180031260     libucrt:output.obj
 0002:0000b278       $unwind$??0?$CComObject@VCOPOSBillDispenser@@@ATL@@QEAA@PEAX@Z 0000000180031278     BillDispenser.obj
 0002:0000b278       $unwind$??0CAtlModule@ATL@@QEAA@XZ 0000000180031278     BillDispenser.obj
 0002:0000b278       $unwind$??1?$CComObject@VCOPOSBillDispenser@@@ATL@@UEAA@XZ 0000000180031278     BillDispenser.obj
 0002:0000b278       $unwind$??__E_Module@@YAXXZ 0000000180031278     BillDispenser.obj
 0002:0000b278       $unwind$?AddRef@?$CComObjectCached@VCComClassFactory@ATL@@@ATL@@UEAAKXZ 0000000180031278     BillDispenser.obj
 0002:0000b278       $unwind$?AllocateHeap@?$CTempBuffer@E$0BAA@VCCRTAllocator@ATL@@@ATL@@AEAAX_K@Z 0000000180031278     BillDispenser.obj
 0002:0000b278       $unwind$?AllocateHeap@?$CTempBuffer@_W$0BAA@VCCRTAllocator@ATL@@@ATL@@AEAAX_K@Z 0000000180031278     BillDispenser.obj
 0002:0000b278       $unwind$?AllocateHeap@?$CTempBuffer@_W$0EAA@VCCRTAllocator@ATL@@@ATL@@AEAAX_K@Z 0000000180031278     BillDispenser.obj
 0002:0000b278       $unwind$?GetClassInfoW@?$IProvideClassInfo2Impl@$1?CLSID_OPOSBillDispenser@@3U_GUID@@B$1?DIID__IOPOSBillDispenserEvents@@3U2@B$1?LIBID_OposBillDispenser_CCO@@3U2@B$00$0A@VCComTypeInfoHolder@ATL@@@ATL@@UEAAJPEAPEAUITypeInfo@@@Z 0000000180031278     BillDispenser.obj
 0002:0000b278       $unwind$?GetClientSite@?$IOleObjectImpl@VCOPOSBillDispenser@@@ATL@@UEAAJPEAPEAUIOleClientSite@@@Z 0000000180031278     BillDispenser.obj
 0002:0000b278       $unwind$?GetConnMap@COPOSBillDispenser@@SAPEBU_ATL_CONNMAP_ENTRY@ATL@@PEAH@Z 0000000180031278     BillDispenser.obj
 0002:0000b278       $unwind$?GetTypeInfo@?$IDispatchImpl@UIOPOSBillDispenser@@$1?IID_IOPOSBillDispenser@@3U_GUID@@B$1?LIBID_OposBillDispenser_CCO@@3U3@B$00$0A@VCComTypeInfoHolder@ATL@@@ATL@@UEAAJIKPEAPEAUITypeInfo@@@Z 0000000180031278     BillDispenser.obj
 0002:0000b278       $unwind$?IOleInPlaceObject_InPlaceDeactivate@CComControlBase@ATL@@QEAAJXZ 0000000180031278     BillDispenser.obj
 0002:0000b278       $unwind$?IOleObject_SetExtent@CComControlBase@ATL@@QEAAJKPEAUtagSIZE@@@Z 0000000180031278     BillDispenser.obj
 0002:0000b278       $unwind$?IsEqualObject@?$CComPtrBase@UIOleClientSite@@@ATL@@QEAA_NPEAUIUnknown@@@Z 0000000180031278     BillDispenser.obj
 0002:0000b278       $unwind$?QueryHitPoint@?$IViewObjectExImpl@VCOPOSBillDispenser@@@ATL@@UEAAJKPEBUtagRECT@@UtagPOINT@@JPEAK@Z 0000000180031278     BillDispenser.obj
 0002:0000b278       $unwind$?QueryInterface@?$CComAggObject@VCOPOSBillDispenser@@@ATL@@UEAAJAEBU_GUID@@PEAPEAX@Z 0000000180031278     BillDispenser.obj
 0002:0000b278       $unwind$?Release@?$CComObjectCached@VCComClassFactory@ATL@@@ATL@@UEAAKXZ 0000000180031278     BillDispenser.obj
 0002:0000b278       $unwind$?Unadvise@?$IConnectionPointImpl@VCOPOSBillDispenser@@$1?DIID__IOPOSBillDispenserEvents@@3U_GUID@@BVCComDynamicUnkArray@ATL@@@ATL@@UEAAJK@Z 0000000180031278     BillDispenser.obj
 0002:0000b278       $unwind$?Unadvise@?$IConnectionPointImpl@VCOPOSBillDispenser@@$1?IID_IPropertyNotifySink@@3U_GUID@@BVCComDynamicUnkArray@ATL@@@ATL@@UEAAJK@Z 0000000180031278     BillDispenser.obj
 0002:0000b278       $unwind$??1CComControlBase@ATL@@UEAA@XZ 0000000180031278     BillDispenserImpl.obj
 0002:0000b278       $unwind$??1COPOSBillDispenser@@UEAA@XZ 0000000180031278     BillDispenserImpl.obj
 0002:0000b278       $unwind$?EventUninit@COPOSBillDispenser@@IEAAXXZ 0000000180031278     BillDispenserImpl.obj
 0002:0000b278       $unwind$?FreezeEvents@COPOSBillDispenser@@MEAAJH@Z 0000000180031278     BillDispenserImpl.obj
 0002:0000b278       $unwind$?SOProcessID@COPOSBillDispenser@@UEAAJPEAJ@Z 0000000180031278     BillDispenserImpl.obj
 0002:0000b278       $unwind$?get_AsyncMode@COPOSBillDispenser@@UEAAJPEAF@Z 0000000180031278     BillDispenserImpl.obj
 0002:0000b278       $unwind$?get_CapCompareFirmwareVersion@COPOSBillDispenser@@UEAAJPEAF@Z 0000000180031278     BillDispenserImpl.obj
 0002:0000b278       $unwind$?get_CapDiscrepancy@COPOSBillDispenser@@UEAAJPEAF@Z 0000000180031278     BillDispenserImpl.obj
 0002:0000b278       $unwind$?get_CapEmptySensor@COPOSBillDispenser@@UEAAJPEAF@Z 0000000180031278     BillDispenserImpl.obj
 0002:0000b278       $unwind$?get_CapJamSensor@COPOSBillDispenser@@UEAAJPEAF@Z 0000000180031278     BillDispenserImpl.obj
 0002:0000b278       $unwind$?get_CapNearEmptySensor@COPOSBillDispenser@@UEAAJPEAF@Z 0000000180031278     BillDispenserImpl.obj
 0002:0000b278       $unwind$?get_CapStatisticsReporting@COPOSBillDispenser@@UEAAJPEAF@Z 0000000180031278     BillDispenserImpl.obj
 0002:0000b278       $unwind$?get_CapUpdateFirmware@COPOSBillDispenser@@UEAAJPEAF@Z 0000000180031278     BillDispenserImpl.obj
 0002:0000b278       $unwind$?get_CapUpdateStatistics@COPOSBillDispenser@@UEAAJPEAF@Z 0000000180031278     BillDispenserImpl.obj
 0002:0000b278       $unwind$?get_Claimed@COPOSBillDispenser@@UEAAJPEAF@Z 0000000180031278     BillDispenserImpl.obj
 0002:0000b278       $unwind$?get_DeviceEnabled@COPOSBillDispenser@@UEAAJPEAF@Z 0000000180031278     BillDispenserImpl.obj
 0002:0000b278       $unwind$?get_FreezeEvents@COPOSBillDispenser@@UEAAJPEAF@Z 0000000180031278     BillDispenserImpl.obj
 0002:0000b278       $unwind$?put_FreezeEvents@COPOSBillDispenser@@UEAAJF@Z 0000000180031278     BillDispenserImpl.obj
 0002:0000b278       $unwind$?DupWide@_CW@@AEAAXXZ 0000000180031278     CWString.obj
 0002:0000b278       $unwind$??0CAtlComModule@ATL@@QEAA@XZ 0000000180031278     OposVariant.obj
 0002:0000b278       $unwind$??0CAtlWinModule@ATL@@QEAA@XZ 0000000180031278     OposVariant.obj
 0002:0000b278       $unwind$?SetBSTR_OutPtr@OposVariant@@QEAA_NPEAPEA_WAEAJ@Z 0000000180031278     OposVariant.obj
 0002:0000b278       $unwind$_calloc_base       0000000180031278     libucrt:calloc_base.obj
 0002:0000b278       $unwind$_malloc_base       0000000180031278     libucrt:malloc_base.obj
 0002:0000b278       $unwind$_callnewh          0000000180031278     libucrt:new_handler.obj
 0002:0000b278       $unwind$initialize_pointers 0000000180031278     libucrt:initialization.obj
 0002:0000b278       $unwind$uninitialize_allocated_memory 0000000180031278     libucrt:initialization.obj
 0002:0000b278       $unwind$__acrt_initialize_locks 0000000180031278     libucrt:locks.obj
 0002:0000b278       $unwind$__acrt_uninitialize_locks 0000000180031278     libucrt:locks.obj
 0002:0000b278       $unwind$__acrt_freeptd     0000000180031278     libucrt:per_thread_data.obj
 0002:0000b278       $unwind$__acrt_getptd_head 0000000180031278     libucrt:per_thread_data.obj
 0002:0000b278       $unwind$__acrt_get_process_end_policy 0000000180031278     libucrt:win_policies.obj
 0002:0000b278       $unwind$__acrt_AppPolicyGetProcessTerminationMethodInternal 0000000180031278     libucrt:winapi_thunks.obj
 0002:0000b278       $unwind$__acrt_SetThreadStackGuarantee 0000000180031278     libucrt:winapi_thunks.obj
 0002:0000b278       $unwind$__acrt_uninitialize_winapi_thunks 0000000180031278     libucrt:winapi_thunks.obj
 0002:0000b278       $unwind$__acrt_update_locale_info 0000000180031278     libucrt:locale_update.obj
 0002:0000b278       $unwind$__acrt_update_locale_info_explicit 0000000180031278     libucrt:locale_update.obj
 0002:0000b278       $unwind$__acrt_update_multibyte_info 0000000180031278     libucrt:locale_update.obj
 0002:0000b278       $unwind$__acrt_update_multibyte_info_explicit 0000000180031278     libucrt:locale_update.obj
 0002:0000b278       $unwind$__acrt_errno_map_os_error 0000000180031278     libucrt:errno.obj
 0002:0000b278       $unwind$__acrt_errno_map_os_error_ptd 0000000180031278     libucrt:errno.obj
 0002:0000b278       $unwind$__acrt_allocate_buffer_for_argv 0000000180031278     libucrt:argv_parsing.obj
 0002:0000b278       $unwind$?exit_or_terminate_process@@YAXI@Z 0000000180031278     libucrt:exit.obj
 0002:0000b278       $unwind$__acrt_uninitialize_stdio 0000000180031278     libucrt:_file.obj
 0002:0000b278       $unwind$__acrt_stdio_free_buffer_nolock 0000000180031278     libucrt:_freebuf.obj
 0002:0000b278       $unwind$strcpy_s           0000000180031278     libucrt:strcpy_s.obj
 0002:0000b278       $unwind$wcscat_s           0000000180031278     libucrt:wcscat_s.obj
 0002:0000b278       $unwind$wcscpy_s           0000000180031278     libucrt:wcscpy_s.obj
 0002:0000b278       $unwind$_clrfp             0000000180031278     libucrt:fpctrl.obj
 0002:0000b278       $unwind$_set_statfp        0000000180031278     libucrt:fpctrl.obj
 0002:0000b278       $unwind$_clearfp           0000000180031278     libucrt:ieee.obj
 0002:0000b278       $unwind$_controlfp_s       0000000180031278     libucrt:contrlfp.obj
 0002:0000b278       $unwind$fegetenv           0000000180031278     libucrt:fegetenv.obj
 0002:0000b278       $unwind$feholdexcept       0000000180031278     libucrt:feholdexcept.obj
 0002:0000b278       $unwind$fesetenv           0000000180031278     libucrt:fesetenv.obj
 0002:0000b278       $unwind$??1CAtlBaseModule@ATL@@QEAA@XZ 0000000180031278     atls:atlbase.obj
 0002:0000b278       $unwind$AtlThunk_AllocateData 0000000180031278     atls:atlthunk.obj
 0002:0000b278       $unwind$__raise_securityfailure 0000000180031278     LIBCMT:gs_report.obj
 0002:0000b278       $unwind$??2@YAPEAX_K@Z     0000000180031278     LIBCMT:new_scalar.obj
 0002:0000b278       $unwind$??_Gtype_info@@UEAAPEAXI@Z 0000000180031278     LIBCMT:std_type_info_static.obj
 0002:0000b278       $unwind$_Init_thread_footer 0000000180031278     LIBCMT:thread_safe_statics.obj
 0002:0000b278       $unwind$_Init_thread_header 0000000180031278     LIBCMT:thread_safe_statics.obj
 0002:0000b278       $unwind$_Init_thread_wait  0000000180031278     LIBCMT:thread_safe_statics.obj
 0002:0000b278       $unwind$??0bad_alloc@std@@QEAA@AEBV01@@Z 0000000180031278     LIBCMT:throw_bad_alloc.obj
 0002:0000b278       $unwind$??0bad_array_new_length@std@@QEAA@AEBV01@@Z 0000000180031278     LIBCMT:throw_bad_alloc.obj
 0002:0000b278       $unwind$??0exception@std@@QEAA@AEBV01@@Z 0000000180031278     LIBCMT:throw_bad_alloc.obj
 0002:0000b278       $unwind$__scrt_initialize_crt 0000000180031278     LIBCMT:utility.obj
 0002:0000b278       $unwind$__scrt_initialize_onexit_tables 0000000180031278     LIBCMT:utility.obj
 0002:0000b278       $unwind$__scrt_release_startup_lock 0000000180031278     LIBCMT:utility.obj
 0002:0000b278       $unwind$__scrt_uninitialize_crt 0000000180031278     LIBCMT:utility.obj
 0002:0000b278       $unwind$_onexit            0000000180031278     LIBCMT:utility.obj
 0002:0000b278       $unwind$_IsExceptionObjectToBeDestroyed 0000000180031278     libvcruntime:ehhelpers.obj
 0002:0000b278       $unwind$?GetUnwindTryBlock@__FrameHandler3@@SAHPEA_KPEAU_xDISPATCHER_CONTEXT@@PEBU_s_FuncInfo@@@Z 0000000180031278     libvcruntime:ehstate.obj
 0002:0000b278       $unwind$?StateFromIp@__FrameHandler3@@SAHPEBU_s_FuncInfo@@PEAU_xDISPATCHER_CONTEXT@@_K@Z 0000000180031278     libvcruntime:ehstate.obj
 0002:0000b278       $unwind$??0HandlerMap4@FH4@@QEAA@PEBUTryBlockMapEntry4@1@_KH@Z 0000000180031278     libvcruntime:frame.obj
 0002:0000b278       $unwind$??0bad_exception@std@@QEAA@AEBV01@@Z 0000000180031278     libvcruntime:frame.obj
 0002:0000b278       $unwind$__vcrt_initialize_locks 0000000180031278     libvcruntime:locks.obj
 0002:0000b278       $unwind$__vcrt_uninitialize_locks 0000000180031278     libvcruntime:locks.obj
 0002:0000b278       $unwind$__vcrt_freeptd     0000000180031278     libvcruntime:per_thread_data.obj
 0002:0000b278       $unwind$?ExecutionInCatch@__FrameHandler3@@SA_NPEAU_xDISPATCHER_CONTEXT@@PEBU_s_FuncInfo@@@Z 0000000180031278     libvcruntime:risctrnsctrl.obj
 0002:0000b278       $unwind$_CreateFrameInfo   0000000180031278     libvcruntime:risctrnsctrl.obj
 0002:0000b278       $unwind$_SetImageBase      0000000180031278     libvcruntime:risctrnsctrl.obj
 0002:0000b278       $unwind$_SetThrowImageBase 0000000180031278     libvcruntime:risctrnsctrl.obj
 0002:0000b278       $unwind$__std_exception_destroy 0000000180031278     libvcruntime:std_exception.obj
 0002:0000b278       $unwind$__std_type_info_destroy_list 0000000180031278     libvcruntime:std_type_info.obj
 0002:0000b278       $unwind$__vcrt_FlsAlloc    0000000180031278     libvcruntime:winapi_downlevel.obj
 0002:0000b278       $unwind$__vcrt_FlsFree     0000000180031278     libvcruntime:winapi_downlevel.obj
 0002:0000b278       $unwind$__vcrt_FlsGetValue 0000000180031278     libvcruntime:winapi_downlevel.obj
 0002:0000b280       $unwind$?AtlWinModuleExtractCreateWndData@ATL@@YAPEAXPEAU_ATL_WIN_MODULE70@1@@Z 0000000180031280     BillDispenser.obj
 0002:0000b280       $unwind$?CreateInstance@?$CComCreator@V?$CComObject@VCOPOSBillDispenser@@@ATL@@@ATL@@SAJPEAXAEBU_GUID@@PEAPEAX@Z 0000000180031280     BillDispenser.obj
 0002:0000b280       $unwind$?DoEvent@COPOSBillDispenser@@IEAAXI_K_J@Z 0000000180031280     BillDispenser.obj
 0002:0000b280       $unwind$?DoVerb@?$IOleObjectImpl@VCOPOSBillDispenser@@@ATL@@UEAAJJPEAUtagMSG@@PEAUIOleClientSite@@JPEAUHWND__@@PEBUtagRECT@@@Z 0000000180031280     BillDispenser.obj
 0002:0000b280       $unwind$?HKeyFromString@CRegParser@ATL@@KAPEAUHKEY__@@PEA_W@Z 0000000180031280     BillDispenser.obj
 0002:0000b280       $unwind$?Next@?$CComEnumImpl@UIEnumConnectionPoints@@$1?_GUID_b196b285_bab4_101a_b69c_00aa00341d07@@3U__s_GUID@@BPEAUIConnectionPoint@@V?$_CopyInterface@UIConnectionPoint@@@ATL@@@ATL@@UEAAJKPEAPEAUIConnectionPoint@@PEAK@Z 0000000180031280     BillDispenser.obj
 0002:0000b280       $unwind$?Next@?$CComEnumImpl@UIEnumConnections@@$1?_GUID_b196b287_bab4_101a_b69c_00aa00341d07@@3U__s_GUID@@BUtagCONNECTDATA@@V?$_Copy@UtagCONNECTDATA@@@ATL@@@ATL@@UEAAJKPEAUtagCONNECTDATA@@PEAK@Z 0000000180031280     BillDispenser.obj
 0002:0000b280       $unwind$?SODirectIO@COPOSBillDispenser@@MEAAJJPEAJPEAPEA_W@Z 0000000180031280     BillDispenser.obj
 0002:0000b280       $unwind$?SetControlFocus@CComControlBase@ATL@@QEAAHH@Z 0000000180031280     BillDispenser.obj
 0002:0000b280       $unwind$?ocscpy_s@@YA_NPEA_W_KPEB_W@Z 0000000180031280     BillDispenser.obj
 0002:0000b280       $unwind$?s_EventWindowProc@COPOSBillDispenser@@KA_JPEAUHWND__@@I_K_J@Z 0000000180031280     BillDispenserImpl.obj
 0002:0000b280       $unwind$?AtlWinModuleTerm@ATL@@YAJPEAU_ATL_WIN_MODULE70@1@PEAUHINSTANCE__@@@Z 0000000180031280     OposVariant.obj
 0002:0000b280       $unwind$_recalloc_base     0000000180031280     libucrt:recalloc.obj
 0002:0000b280       $unwind$__acrt_free_locale 0000000180031280     libucrt:locale_refcounting.obj
 0002:0000b280       $unwind$__acrt_lowio_create_handle_array 0000000180031280     libucrt:osfinfo.obj
 0002:0000b280       $unwind$_seh_filter_exe    0000000180031280     libucrt:exception_filter.obj
 0002:0000b280       $unwind$__acrt_stdio_flush_nolock 0000000180031280     libucrt:fflush.obj
 0002:0000b280       $unwind$??$ensure_buffer_is_big_enough@D@formatting_buffer@__crt_stdio_output@@QEAA_N_KAEAV__crt_cached_ptd_host@@@Z 0000000180031280     libucrt:output.obj
 0002:0000b280       $unwind$??$ensure_buffer_is_big_enough@_W@formatting_buffer@__crt_stdio_output@@QEAA_N_KAEAV__crt_cached_ptd_host@@@Z 0000000180031280     libucrt:output.obj
 0002:0000b280       $unwind$__scrt_dllmain_exception_filter 0000000180031280     LIBCMT:utility.obj
 0002:0000b280       $unwind$?GetHandlerSearchState@__FrameHandler3@@SAHPEA_KPEAU_xDISPATCHER_CONTEXT@@PEBU_s_FuncInfo@@@Z 0000000180031280     libvcruntime:frame.obj
 0002:0000b280       $unwind$?Is_bad_exception_allowed@@YAEPEBU_s_ESTypeList@@@Z 0000000180031280     libvcruntime:frame.obj
 0002:0000b280       $unwind$?CatchTryBlock@__FrameHandler3@@SAPEBU_s_TryBlockMapEntry@@PEBU_s_FuncInfo@@H@Z 0000000180031280     libvcruntime:risctrnsctrl.obj
 0002:0000b294       $unwind$??_GCRegObject@ATL@@UEAAPEAXI@Z 0000000180031294     BillDispenser.obj
 0002:0000b294       $unwind$?Add@?$CSimpleArray@GV?$CSimpleArrayEqualHelper@G@ATL@@@ATL@@QEAAHAEBG@Z 0000000180031294     BillDispenser.obj
 0002:0000b294       $unwind$?Add@?$CSimpleMap@PEA_WPEA_WVCExpansionVectorEqualHelper@ATL@@@ATL@@QEAAHAEBQEA_W0@Z 0000000180031294     BillDispenser.obj
 0002:0000b294       $unwind$?Add@CComDynamicUnkArray@ATL@@QEAAKPEAUIUnknown@@@Z 0000000180031294     BillDispenser.obj
 0002:0000b294       $unwind$?Advise@?$IOleObjectImpl@VCOPOSBillDispenser@@@ATL@@UEAAJPEAUIAdviseSink@@PEAK@Z 0000000180031294     BillDispenser.obj
 0002:0000b294       $unwind$?ClearReplacements@CExpansionVector@ATL@@QEAAJXZ 0000000180031294     BillDispenser.obj
 0002:0000b294       $unwind$?CreateInstance@?$CComObject@V?$CComEnum@UIEnumConnectionPoints@@$1?_GUID_b196b285_bab4_101a_b69c_00aa00341d07@@3U__s_GUID@@BPEAUIConnectionPoint@@V?$_CopyInterface@UIConnectionPoint@@@ATL@@VCComSingleThreadModel@6@@ATL@@@ATL@@SAJPEAPEAV12@@Z 0000000180031294     BillDispenser.obj
 0002:0000b294       $unwind$?CreateInstance@?$CComObject@V?$CComEnum@UIEnumConnections@@$1?_GUID_b196b287_bab4_101a_b69c_00aa00341d07@@3U__s_GUID@@BUtagCONNECTDATA@@V?$_Copy@UtagCONNECTDATA@@@ATL@@VCComSingleThreadModel@6@@ATL@@@ATL@@SAJPEAPEAV12@@Z 0000000180031294     BillDispenser.obj
 0002:0000b294       $unwind$?RegisterServer@CComModule@ATL@@QEAAJHPEBU_GUID@@@Z 0000000180031294     BillDispenser.obj
 0002:0000b294       $unwind$?UnregisterServer@CComModule@ATL@@QEAAJHPEBU_GUID@@@Z 0000000180031294     BillDispenser.obj
 0002:0000b294       $unwind$?VTFromRegType@CRegParser@ATL@@KAHPEB_WAEAG@Z 0000000180031294     BillDispenser.obj
 0002:0000b294       $unwind$??0OposDispParms@@QEAA@PEAVOposVariant@@H@Z 0000000180031294     OposVariant.obj
 0002:0000b294       $unwind$?SetBSTR_Copy@OposVariant@@QEAAXPEA_WAEAJ@Z 0000000180031294     OposVariant.obj
 0002:0000b294       $unwind$?SetBSTR_InOutPtr@OposVariant@@QEAA_NPEAPEA_WAEAJ@Z 0000000180031294     OposVariant.obj
 0002:0000b294       $unwind$?SetDispatch_Ptr@OposVariant@@QEAAXPEAUIDispatch@@AEAJ@Z 0000000180031294     OposVariant.obj
 0002:0000b294       $unwind$?SetLONG_Ptr@OposVariant@@QEAAXPEAJAEAJ@Z 0000000180031294     OposVariant.obj
 0002:0000b294       $unwind$?SetString@OposVariant@@QEAAXPEB_WAEAJ@Z 0000000180031294     OposVariant.obj
 0002:0000b294       $unwind$?SetVARIANT_BOOL_Ptr@OposVariant@@QEAAXPEAFAEAJ@Z 0000000180031294     OposVariant.obj
 0002:0000b294       $unwind$?Term@CAtlComModule@ATL@@QEAAXXZ 0000000180031294     OposVariant.obj
 0002:0000b294       $unwind$memcpy_s           0000000180031294     libucrt:cfout.obj
 0002:0000b294       $unwind$__acrt_getptd      0000000180031294     libucrt:per_thread_data.obj
 0002:0000b294       $unwind$__acrt_getptd_noexit 0000000180031294     libucrt:per_thread_data.obj
 0002:0000b294       $unwind$__acrt_getptd_noexit_explicit 0000000180031294     libucrt:per_thread_data.obj
 0002:0000b294       $unwind$__acrt_execute_initializers 0000000180031294     libucrt:shared_initialization.obj
 0002:0000b294       $unwind$__acrt_InitializeCriticalSectionEx 0000000180031294     libucrt:winapi_thunks.obj
 0002:0000b294       $unwind$_close_nolock_internal 0000000180031294     libucrt:close.obj
 0002:0000b294       $unwind$?value@?$dual_state_global@P6AXPEB_W00I_K@Z@__crt_state_management@@QEAAAEAP6AXPEB_W00I_K@ZAEAV__crt_cached_ptd_host@@@Z 0000000180031294     libucrt:invalid_parameter.obj
 0002:0000b294       $unwind$??0_LocaleUpdate@@QEAA@QEAU__crt_locale_pointers@@@Z 0000000180031294     libucrt:argv_wildcards.obj
 0002:0000b294       $unwind$?type_case_Z@?$output_processor@_WV?$string_output_adapter@_W@__crt_stdio_output@@V?$format_validation_base@_WV?$string_output_adapter@_W@__crt_stdio_output@@@2@@__crt_stdio_output@@AEAA_NXZ 0000000180031294     libucrt:output.obj
 0002:0000b294       $unwind$?type_case_s@?$output_processor@_WV?$string_output_adapter@_W@__crt_stdio_output@@V?$format_validation_base@_WV?$string_output_adapter@_W@__crt_stdio_output@@@2@@__crt_stdio_output@@AEAA_NXZ 0000000180031294     libucrt:output.obj
 0002:0000b294       $unwind$?type_case_s_compute_narrow_string_length@?$output_processor@_WV?$string_output_adapter@_W@__crt_stdio_output@@V?$format_validation_base@_WV?$string_output_adapter@_W@__crt_stdio_output@@@2@@__crt_stdio_output@@AEAAHH_W@Z 0000000180031294     libucrt:output.obj
 0002:0000b294       $unwind$?update_locale_slow@__crt_cached_ptd_host@@AEAAXXZ 0000000180031294     libucrt:output.obj
 0002:0000b294       $unwind$strncpy_s          0000000180031294     libucrt:strncpy_s.obj
 0002:0000b294       $unwind$wcsncpy_s          0000000180031294     libucrt:wcsncpy_s.obj
 0002:0000b294       $unwind$_exception_enabled 0000000180031294     libucrt:libm_error.obj
 0002:0000b294       $unwind$_DllMainCRTStartup 0000000180031294     LIBCMT:dll_dllmain.obj
 0002:0000b294       $unwind$__vcrt_getptd_noexit 0000000180031294     libvcruntime:per_thread_data.obj
 0002:0000b294       $unwind$?FrameUnwindToEmptyState@__FrameHandler3@@SAXPEA_KPEAU_xDISPATCHER_CONTEXT@@PEBU_s_FuncInfo@@@Z 0000000180031294     libvcruntime:risctrnsctrl.obj
 0002:0000b294       $unwind$__vcrt_InitializeCriticalSectionEx 0000000180031294     libvcruntime:winapi_downlevel.obj
 0002:0000b2a4       $unwind$?AddTermFunc@CAtlModule@ATL@@QEAAJP6AX_K@Z0@Z 00000001800312a4     BillDispenser.obj
 0002:0000b2a4       $unwind$?AtlComModuleRegisterServer@ATL@@YAJPEAU_ATL_COM_MODULE70@1@HPEBU_GUID@@@Z 00000001800312a4     BillDispenser.obj
 0002:0000b2a4       $unwind$?AtlComModuleUnregisterServer@ATL@@YAJPEAU_ATL_COM_MODULE70@1@HPEBU_GUID@@@Z 00000001800312a4     BillDispenser.obj
 0002:0000b2a4       $unwind$?CreateInstance@?$CComCreator@V?$CComAggObject@VCOPOSBillDispenser@@@ATL@@@ATL@@SAJPEAXAEBU_GUID@@PEAPEAX@Z 00000001800312a4     BillDispenser.obj
 0002:0000b2a4       $unwind$?CreateInstance@?$CComCreator@V?$CComObjectCached@VCComClassFactory@ATL@@@ATL@@@ATL@@SAJPEAXAEBU_GUID@@PEAPEAX@Z 00000001800312a4     BillDispenser.obj
 0002:0000b2a4       $unwind$?GetPagesHelper@?$ISpecifyPropertyPagesImpl@VCOPOSBillDispenser@@@ATL@@IEAAJPEAUtagCAUUID@@PEBUATL_PROPMAP_ENTRY@2@@Z 00000001800312a4     BillDispenser.obj
 0002:0000b2a4       $unwind$?Term@CAtlModule@ATL@@QEAAXXZ 00000001800312a4     BillDispenser.obj
 0002:0000b2a4       $unwind$??_Estringdispid@CComTypeInfoHolder@ATL@@QEAAPEAXI@Z 00000001800312a4     OposVariant.obj
 0002:0000b2a4       $unwind$?initialize_stdio_handles_nolock@@YAXXZ 00000001800312a4     libucrt:ioinit.obj
 0002:0000b2a4       $unwind$__acrt_initialize_stdio 00000001800312a4     libucrt:_file.obj
 0002:0000b2a4       $unwind$__GSHandlerCheck_EH 00000001800312a4     LIBCMT:gshandlereh.obj
 0002:0000b2a4       $unwind$__GSHandlerCheck_SEH 00000001800312a4     LIBCMT:gshandlerseh.obj
 0002:0000b2a4       $unwind$??$TypeMatchHelper@V__FrameHandler3@@@@YAHPEBU_s_HandlerType@@PEBU_s_CatchableType@@PEBU_s_ThrowInfo@@@Z 00000001800312a4     libvcruntime:frame.obj
 0002:0000b2a4       $unwind$??$TypeMatchHelper@V__FrameHandler4@@@@YAHPEAUHandlerType4@FH4@@PEBU_s_CatchableType@@PEBU_s_ThrowInfo@@@Z 00000001800312a4     libvcruntime:frame.obj
 0002:0000b2bc       $unwind$??0?$CComContainedObject@VCOPOSBillDispenser@@@ATL@@QEAA@PEAX@Z 00000001800312bc     BillDispenser.obj
 0002:0000b2bc       $unwind$??1?$CComEnumImpl@UIEnumConnectionPoints@@$1?_GUID_b196b285_bab4_101a_b69c_00aa00341d07@@3U__s_GUID@@BPEAUIConnectionPoint@@V?$_CopyInterface@UIConnectionPoint@@@ATL@@@ATL@@UEAA@XZ 00000001800312bc     BillDispenser.obj
 0002:0000b2bc       $unwind$??1?$CComEnumImpl@UIEnumConnections@@$1?_GUID_b196b287_bab4_101a_b69c_00aa00341d07@@3U__s_GUID@@BUtagCONNECTDATA@@V?$_Copy@UtagCONNECTDATA@@@ATL@@@ATL@@UEAA@XZ 00000001800312bc     BillDispenser.obj
 0002:0000b2bc       $unwind$??_G?$CComAggObject@VCOPOSBillDispenser@@@ATL@@UEAAPEAXI@Z 00000001800312bc     BillDispenser.obj
 0002:0000b2bc       $unwind$??_G?$CComContainedObject@VCOPOSBillDispenser@@@ATL@@UEAAPEAXI@Z 00000001800312bc     BillDispenser.obj
 0002:0000b2bc       $unwind$??_G?$CComObject@V?$CComEnum@UIEnumConnectionPoints@@$1?_GUID_b196b285_bab4_101a_b69c_00aa00341d07@@3U__s_GUID@@BPEAUIConnectionPoint@@V?$_CopyInterface@UIConnectionPoint@@@ATL@@VCComSingleThreadModel@6@@ATL@@@ATL@@UEAAPEAXI@Z 00000001800312bc     BillDispenser.obj
 0002:0000b2bc       $unwind$??_G?$CComObject@V?$CComEnum@UIEnumConnections@@$1?_GUID_b196b287_bab4_101a_b69c_00aa00341d07@@3U__s_GUID@@BUtagCONNECTDATA@@V?$_Copy@UtagCONNECTDATA@@@ATL@@VCComSingleThreadModel@6@@ATL@@@ATL@@UEAAPEAXI@Z 00000001800312bc     BillDispenser.obj
 0002:0000b2bc       $unwind$??_G?$CComObject@VCOPOSBillDispenser@@@ATL@@UEAAPEAXI@Z 00000001800312bc     BillDispenser.obj
 0002:0000b2bc       $unwind$??_G?$CComObjectCached@VCComClassFactory@ATL@@@ATL@@UEAAPEAXI@Z 00000001800312bc     BillDispenser.obj
 0002:0000b2bc       $unwind$??_GCComClassFactory@ATL@@UEAAPEAXI@Z 00000001800312bc     BillDispenser.obj
 0002:0000b2bc       $unwind$??_GCComModule@ATL@@UEAAPEAXI@Z 00000001800312bc     BillDispenser.obj
 0002:0000b2bc       $unwind$?DeleteSubKey@CRegKey@ATL@@QEAAJPEB_W@Z 00000001800312bc     BillDispenser.obj
 0002:0000b2bc       $unwind$?IOleObject_SetClientSite@CComControlBase@ATL@@QEAAJPEAUIOleClientSite@@@Z 00000001800312bc     BillDispenser.obj
 0002:0000b2bc       $unwind$?InitNew@?$IPersistStorageImpl@VCOPOSBillDispenser@@@ATL@@UEAAJPEAUIStorage@@@Z 00000001800312bc     BillDispenser.obj
 0002:0000b2bc       $unwind$?IsDirty@?$IPersistStorageImpl@VCOPOSBillDispenser@@@ATL@@UEAAJXZ 00000001800312bc     BillDispenser.obj
 0002:0000b2bc       $unwind$?Release@?$CComAggObject@VCOPOSBillDispenser@@@ATL@@UEAAKXZ 00000001800312bc     BillDispenser.obj
 0002:0000b2bc       $unwind$?Release@?$CComObject@V?$CComEnum@UIEnumConnectionPoints@@$1?_GUID_b196b285_bab4_101a_b69c_00aa00341d07@@3U__s_GUID@@BPEAUIConnectionPoint@@V?$_CopyInterface@UIConnectionPoint@@@ATL@@VCComSingleThreadModel@6@@ATL@@@ATL@@UEAAKXZ 00000001800312bc     BillDispenser.obj
 0002:0000b2bc       $unwind$?Release@?$CComObject@V?$CComEnum@UIEnumConnections@@$1?_GUID_b196b287_bab4_101a_b69c_00aa00341d07@@3U__s_GUID@@BUtagCONNECTDATA@@V?$_Copy@UtagCONNECTDATA@@@ATL@@VCComSingleThreadModel@6@@ATL@@@ATL@@UEAAKXZ 00000001800312bc     BillDispenser.obj
 0002:0000b2bc       $unwind$?Release@?$CComObject@VCOPOSBillDispenser@@@ATL@@UEAAKXZ 00000001800312bc     BillDispenser.obj
 0002:0000b2bc       $unwind$?SOStatusUpdate@COPOSBillDispenser@@MEAAJJ@Z 00000001800312bc     BillDispenser.obj
 0002:0000b2bc       $unwind$?SetAdvise@?$IViewObjectExImpl@VCOPOSBillDispenser@@@ATL@@UEAAJKKPEAUIAdviseSink@@@Z 00000001800312bc     BillDispenser.obj
 0002:0000b2bc       $unwind$?Term@CComModule@ATL@@QEAAXXZ 00000001800312bc     BillDispenser.obj
 0002:0000b2bc       $unwind$DllMain            00000001800312bc     BillDispenser.obj
 0002:0000b2bc       $unwind$??1?$IConnectionPointImpl@VCOPOSBillDispenser@@$1?DIID__IOPOSBillDispenserEvents@@3U_GUID@@BVCComDynamicUnkArray@ATL@@@ATL@@QEAA@XZ 00000001800312bc     BillDispenserImpl.obj
 0002:0000b2bc       $unwind$??1?$IConnectionPointImpl@VCOPOSBillDispenser@@$1?IID_IPropertyNotifySink@@3U_GUID@@BVCComDynamicUnkArray@ATL@@@ATL@@QEAA@XZ 00000001800312bc     BillDispenserImpl.obj
 0002:0000b2bc       $unwind$?EventWindowProc@COPOSBillDispenser@@IEAA_JI_K_J@Z 00000001800312bc     BillDispenserImpl.obj
 0002:0000b2bc       $unwind$?SetBSTR@OposVariant@@QEAAXPEA_WAEAJ@Z 00000001800312bc     OposVariant.obj
 0002:0000b2bc       $unwind$?SetLONG@OposVariant@@QEAAXJ@Z 00000001800312bc     OposVariant.obj
 0002:0000b2bc       $unwind$?SetVARIANT_BOOL@OposVariant@@QEAAXF@Z 00000001800312bc     OposVariant.obj
 0002:0000b2bc       $unwind$??$common_initialize_environment_nolock@D@@YAHXZ 00000001800312bc     libucrt:environment_initialization.obj
 0002:0000b2bc       $unwind$_realloc_base      00000001800312bc     libucrt:realloc_base.obj
 0002:0000b2bc       $unwind$?replace_current_thread_locale_nolock@@YAXQEAU__acrt_ptd@@QEAU__crt_locale_data@@@Z 00000001800312bc     libucrt:per_thread_data.obj
 0002:0000b2bc       $unwind$__acrt_execute_uninitializers 00000001800312bc     libucrt:shared_initialization.obj
 0002:0000b2bc       $unwind$__acrt_LocaleNameToLCID 00000001800312bc     libucrt:winapi_thunks.obj
 0002:0000b2bc       $unwind$?free_crt_array_internal@@YAXQEAPEBX_K@Z 00000001800312bc     libucrt:inittime.obj
 0002:0000b2bc       $unwind$_updatetlocinfoEx_nolock 00000001800312bc     libucrt:locale_refcounting.obj
 0002:0000b2bc       $unwind$__acrt_uninitialize_lowio 00000001800312bc     libucrt:ioinit.obj
 0002:0000b2bc       $unwind$?setSBCS@@YAXPEAU__crt_multibyte_data@@@Z 00000001800312bc     libucrt:mbctype.obj
 0002:0000b2bc       $unwind$_initterm_e        00000001800312bc     libucrt:initterm.obj
 0002:0000b2bc       $unwind$??0CAtlBaseModule@ATL@@QEAA@XZ 00000001800312bc     atls:atlbase.obj
 0002:0000b2bc       $unwind$??$GetProcAddressAll@P6AP6A_JPEAUHWND__@@I_K_J@ZPEAUAtlThunkData_t@@@Z@@YAP6AP6A_JPEAUHWND__@@I_K_J@ZPEAUAtlThunkData_t@@@ZPEAP6AP6A_J0I12@Z3@Z@Z 00000001800312bc     atls:atlthunk.obj
 0002:0000b2bc       $unwind$??$GetProcAddressAll@P6APEAUAtlThunkData_t@@XZ@@YAP6APEAUAtlThunkData_t@@XZPEAP6APEAU0@XZ@Z 00000001800312bc     atls:atlthunk.obj
 0002:0000b2bc       $unwind$??$GetProcAddressAll@P6AXPEAUAtlThunkData_t@@@Z@@YAP6AXPEAUAtlThunkData_t@@@ZPEAP6AX0@Z@Z 00000001800312bc     atls:atlthunk.obj
 0002:0000b2bc       $unwind$??$GetProcAddressAll@P6AXPEAUAtlThunkData_t@@PEAX_K@Z@@YAP6AXPEAUAtlThunkData_t@@PEAX_K@ZPEAP6AX012@Z@Z 00000001800312bc     atls:atlthunk.obj
 0002:0000b2bc       $unwind$?__AllocStdCallThunk_cmn@@YAPEAXXZ 00000001800312bc     atls:atlthunk.obj
 0002:0000b2bc       $unwind$?__InitializeThunkPool@@YAHXZ 00000001800312bc     atls:atlthunk.obj
 0002:0000b2bc       $unwind$AtlThunk_DataToCode 00000001800312bc     atls:atlthunk.obj
 0002:0000b2bc       $unwind$_RTC_Initialize    00000001800312bc     LIBCMT:initsect.obj
 0002:0000b2bc       $unwind$_RTC_Terminate     00000001800312bc     LIBCMT:initsect.obj
 0002:0000b2bc       $unwind$?__scrt_initialize_thread_safe_statics@@YAHXZ 00000001800312bc     LIBCMT:thread_safe_statics.obj
 0002:0000b2bc       $unwind$??_Gbad_alloc@std@@UEAAPEAXI@Z 00000001800312bc     LIBCMT:throw_bad_alloc.obj
 0002:0000b2bc       $unwind$??_Gbad_array_new_length@std@@UEAAPEAXI@Z 00000001800312bc     LIBCMT:throw_bad_alloc.obj
 0002:0000b2bc       $unwind$??_Gexception@std@@UEAAPEAXI@Z 00000001800312bc     LIBCMT:throw_bad_alloc.obj
 0002:0000b2bc       $unwind$__C_specific_handler_noexcept 00000001800312bc     libvcruntime:chandler_noexcept.obj
 0002:0000b2bc       $unwind$__FrameUnwindFilter 00000001800312bc     libvcruntime:ehhelpers.obj
 0002:0000b2bc       $unwind$?SetUnwindTryBlock@__FrameHandler3@@SAXPEA_KPEAU_xDISPATCHER_CONTEXT@@PEBU_s_FuncInfo@@H@Z 00000001800312bc     libvcruntime:ehstate.obj
 0002:0000b2bc       $unwind$??_Gbad_exception@std@@UEAAPEAXI@Z 00000001800312bc     libvcruntime:frame.obj
 0002:0000b2bc       $unwind$?ExFilterRethrow@@YAHPEAU_EXCEPTION_POINTERS@@PEAUEHExceptionRecord@@PEAH@Z 00000001800312bc     libvcruntime:frame.obj
 0002:0000b2bc       $unwind$?ExFilterRethrowFH4@@YAHPEAU_EXCEPTION_POINTERS@@PEAUEHExceptionRecord@@HPEAH@Z 00000001800312bc     libvcruntime:frame.obj
 0002:0000b2bc       $unwind$_FindAndUnlinkFrame 00000001800312bc     libvcruntime:risctrnsctrl.obj
 0002:0000b2bc       $unwind$__vcrt_FlsSetValue 00000001800312bc     libvcruntime:winapi_downlevel.obj
 0002:0000b2c8       $unwind$?ChangeBSTR@OposVariant@@QEAAXPEAPEA_WAEAJ@Z 00000001800312c8     OposVariant.obj
 0002:0000b2c8       $unwind$?ChangeLONG@OposVariant@@QEAAXPEAJAEAJ@Z 00000001800312c8     OposVariant.obj
 0002:0000b2c8       $unwind$?x_ismbbtype_l@@YAHPEAU__crt_locale_pointers@@IHH@Z 00000001800312c8     libucrt:ismbbyte.obj
 0002:0000b2d8       $unwind$swprintf_s         00000001800312d8     BillDispenser.obj
 0002:0000b2e8       $unwind$?_AtlVerifyStackAvailable@_ATL_SAFE_ALLOCA_IMPL@ATL@@YA_N_K@Z 00000001800312e8     BillDispenser.obj
 0002:0000b314       $unwind$?filt$0@?0??_AtlVerifyStackAvailable@_ATL_SAFE_ALLOCA_IMPL@ATL@@YA_N_K@Z@4HA 0000000180031314     BillDispenser.obj
 0002:0000b314       $unwind$_query_new_handler$fin$0 0000000180031314     libucrt:new_handler.obj
 0002:0000b314       $unwind$?fin$0@?0???$?RV<lambda_0ae27a3a962d80f24befdcbee591983d>@@AEAV<lambda_8d0ee55de4b1038c4002e0adecdf1839>@@V<lambda_dc504788e8f1664fe9b84e20bfb512f2>@@@?$__crt_seh_guarded_call@X@@QEAAX$$QEAV<lambda_0ae27a3a962d80f24befdcbee591983d>@@AEAV<lambda_8d0ee55de4b1038c4002e0adecdf1839>@@$$QEAV<lambda_dc504788e8f1664fe9b84e20bfb512f2>@@@Z@4HA 0000000180031314     libucrt:per_thread_data.obj
 0002:0000b314       $unwind$?fin$0@?0???$?RV<lambda_2d41944a1d46af3157314b8a01080d33>@@AEAV<lambda_8f455de75cd7d7f24b4096f044d8b9e6>@@V<lambda_aa500f224e6afead328df44964fe2772>@@@?$__crt_seh_guarded_call@X@@QEAAX$$QEAV<lambda_2d41944a1d46af3157314b8a01080d33>@@AEAV<lambda_8f455de75cd7d7f24b4096f044d8b9e6>@@$$QEAV<lambda_aa500f224e6afead328df44964fe2772>@@@Z@4HA 0000000180031314     libucrt:per_thread_data.obj
 0002:0000b314       $unwind$?fin$0@?0???$?RV<lambda_aa87e3671a710a21b5dc78c0bdf72e11>@@AEAV<lambda_92619d2358a28f41a33ba319515a20b9>@@V<lambda_6992ecaafeb10aed2b74cb1fae11a551>@@@?$__crt_seh_guarded_call@X@@QEAAX$$QEAV<lambda_aa87e3671a710a21b5dc78c0bdf72e11>@@AEAV<lambda_92619d2358a28f41a33ba319515a20b9>@@$$QEAV<lambda_6992ecaafeb10aed2b74cb1fae11a551>@@@Z@4HA 0000000180031314     libucrt:per_thread_data.obj
 0002:0000b314       $unwind$?fin$0@?0???$?RV<lambda_f2e299630e499de9f9a165e60fcd3db5>@@AEAV<lambda_2ae9d31cdba2644fcbeaf08da7c24588>@@V<lambda_40d01ff24d0e7b3814fdbdcee8eab3c7>@@@?$__crt_seh_guarded_call@X@@QEAAX$$QEAV<lambda_f2e299630e499de9f9a165e60fcd3db5>@@AEAV<lambda_2ae9d31cdba2644fcbeaf08da7c24588>@@$$QEAV<lambda_40d01ff24d0e7b3814fdbdcee8eab3c7>@@@Z@4HA 0000000180031314     libucrt:per_thread_data.obj
 0002:0000b314       $unwind$__acrt_update_thread_locale_data$fin$0 0000000180031314     libucrt:locale_refcounting.obj
 0002:0000b314       $unwind$?fin$0@?0???$?RV<lambda_410d79af7f07d98d83a3f525b3859a53>@@AEAV<lambda_3e16ef9562a7dcce91392c22ab16ea36>@@V<lambda_38119f0e861e05405d8a144b9b982f0a>@@@?$__crt_seh_guarded_call@X@@QEAAX$$QEAV<lambda_410d79af7f07d98d83a3f525b3859a53>@@AEAV<lambda_3e16ef9562a7dcce91392c22ab16ea36>@@$$QEAV<lambda_38119f0e861e05405d8a144b9b982f0a>@@@Z@4HA 0000000180031314     libucrt:wsetlocale.obj
 0002:0000b314       $unwind$?fin$0@?0???$?RV<lambda_ad8af0d99a0adf03d037d7dffe354bb5>@@AEAV<lambda_c9ba49e555ba839a7b07aa3fbecb7617>@@V<lambda_2f1ebd5d68526518146ae959c9e734c8>@@@?$__crt_seh_guarded_call@H@@QEAAH$$QEAV<lambda_ad8af0d99a0adf03d037d7dffe354bb5>@@AEAV<lambda_c9ba49e555ba839a7b07aa3fbecb7617>@@$$QEAV<lambda_2f1ebd5d68526518146ae959c9e734c8>@@@Z@4HA 0000000180031314     libucrt:close.obj
 0002:0000b314       $unwind$?fin$0@?0???$?RV<lambda_a37b2b86f63e897a80ea819b0eb08c01>@@AEAV<lambda_38ce7e780aa69e748d6df282ebc68efe>@@V<lambda_99fb1378e971ab6e7edea83e3a7a83a2>@@@?$__crt_seh_guarded_call@H@@QEAAH$$QEAV<lambda_a37b2b86f63e897a80ea819b0eb08c01>@@AEAV<lambda_38ce7e780aa69e748d6df282ebc68efe>@@$$QEAV<lambda_99fb1378e971ab6e7edea83e3a7a83a2>@@@Z@4HA 0000000180031314     libucrt:commit.obj
 0002:0000b314       $unwind$__acrt_initialize_lowio$fin$0 0000000180031314     libucrt:ioinit.obj
 0002:0000b314       $unwind$__acrt_lowio_ensure_fh_exists$fin$0 0000000180031314     libucrt:osfinfo.obj
 0002:0000b314       $unwind$?fin$0@?0???$?RV<lambda_efdfa57d1f175319df784efa44bb7b81>@@AEAV<lambda_5f0a4c1567f8adc6734073e5d1e1b35c>@@V<lambda_2e8a7d3640ea6ccb4c2413664c2db6fd>@@@?$__crt_seh_guarded_call@X@@QEAAX$$QEAV<lambda_efdfa57d1f175319df784efa44bb7b81>@@AEAV<lambda_5f0a4c1567f8adc6734073e5d1e1b35c>@@$$QEAV<lambda_2e8a7d3640ea6ccb4c2413664c2db6fd>@@@Z@4HA 0000000180031314     libucrt:mbctype.obj
 0002:0000b314       $unwind$?fin$0@?0??update_thread_multibyte_data_internal@@YAPEAU__crt_multibyte_data@@QEAU__acrt_ptd@@QEAPEAU1@@Z@4HA 0000000180031314     libucrt:mbctype.obj
 0002:0000b314       $unwind$?fin$0@?0???$?RV<lambda_450d765d439847d4c735a33c368b5fc0>@@AEAV<lambda_44731a7d0e6d81c3e6aa82d741081786>@@V<lambda_601a2a7da3b7a96e9554ac7215c4b07c>@@@?$__crt_seh_guarded_call@P6AXH@Z@@QEAAP6AXH@Z$$QEAV<lambda_450d765d439847d4c735a33c368b5fc0>@@AEAV<lambda_44731a7d0e6d81c3e6aa82d741081786>@@$$QEAV<lambda_601a2a7da3b7a96e9554ac7215c4b07c>@@@Z@4HA 0000000180031314     libucrt:signal.obj
 0002:0000b314       $unwind$raise$fin$0        0000000180031314     libucrt:signal.obj
 0002:0000b314       $unwind$?filt$0@?0???R<lambda_6e4b09c48022b2350581041d5f6b0c4c>@@QEBA@XZ@4HA 0000000180031314     libucrt:exit.obj
 0002:0000b314       $unwind$?fin$0@?0???$?RV<lambda_d80eeec6fff315bfe5c115232f3240e3>@@AEAV<lambda_6e4b09c48022b2350581041d5f6b0c4c>@@V<lambda_2358e3775559c9db80273638284d5e45>@@@?$__crt_seh_guarded_call@X@@QEAAX$$QEAV<lambda_d80eeec6fff315bfe5c115232f3240e3>@@AEAV<lambda_6e4b09c48022b2350581041d5f6b0c4c>@@$$QEAV<lambda_2358e3775559c9db80273638284d5e45>@@@Z@4HA 0000000180031314     libucrt:exit.obj
 0002:0000b314       $unwind$?fin$0@?0???$?RV<lambda_638799b9deba96c50f710eeac98168cd>@@AEAV<lambda_22ebabd17bc4fa466a2aca6d8deb888d>@@V<lambda_a6f7d7db0129f75315ebf26d50c089f1>@@@?$__crt_seh_guarded_call@H@@QEAAH$$QEAV<lambda_638799b9deba96c50f710eeac98168cd>@@AEAV<lambda_22ebabd17bc4fa466a2aca6d8deb888d>@@$$QEAV<lambda_a6f7d7db0129f75315ebf26d50c089f1>@@@Z@4HA 0000000180031314     libucrt:onexit.obj
 0002:0000b314       $unwind$?fin$0@?0???$?RV<lambda_7777bce6b2f8c936911f934f8298dc43>@@AEAV<lambda_f03950bc5685219e0bcd2087efbe011e>@@V<lambda_3883c3dff614d5e0c5f61bb1ac94921c>@@@?$__crt_seh_guarded_call@H@@QEAAH$$QEAV<lambda_7777bce6b2f8c936911f934f8298dc43>@@AEAV<lambda_f03950bc5685219e0bcd2087efbe011e>@@$$QEAV<lambda_3883c3dff614d5e0c5f61bb1ac94921c>@@@Z@4HA 0000000180031314     libucrt:onexit.obj
 0002:0000b314       $unwind$_fcloseall$fin$0   0000000180031314     libucrt:closeall.obj
 0002:0000b314       $unwind$?fin$0@?0???$?RV<lambda_842d9ff0dc9ef11c61343bbaebe7f885>@@AEAV<lambda_c5860995281e5c4ce005b3de8f5874ee>@@V<lambda_d90129c13df834fdcbf8d2b88dafcf2d>@@@?$__crt_seh_guarded_call@X@@QEAAX$$QEAV<lambda_842d9ff0dc9ef11c61343bbaebe7f885>@@AEAV<lambda_c5860995281e5c4ce005b3de8f5874ee>@@$$QEAV<lambda_d90129c13df834fdcbf8d2b88dafcf2d>@@@Z@4HA 0000000180031314     libucrt:fflush.obj
 0002:0000b314       $unwind$?fin$0@?0???$?RV<lambda_886d6c58226a84441f68b9f2b8217b83>@@AEAV<lambda_ab61a845afdef5b7c387490eaf3616ee>@@V<lambda_f7f22ab5edc0698d5f6905b0d3f44752>@@@?$__crt_seh_guarded_call@X@@QEAAX$$QEAV<lambda_886d6c58226a84441f68b9f2b8217b83>@@AEAV<lambda_ab61a845afdef5b7c387490eaf3616ee>@@$$QEAV<lambda_f7f22ab5edc0698d5f6905b0d3f44752>@@@Z@4HA 0000000180031314     libucrt:fflush.obj
 0002:0000b314       $unwind$_ctrlfp$filt$0     0000000180031314     libucrt:fpctrl.obj
 0002:0000b314       $unwind$common_control87$filt$0 0000000180031314     libucrt:ieee.obj
 0002:0000b314       $unwind$?fin$0@?0??dllmain_crt_process_attach@@YAHQEAUHINSTANCE__@@QEAX@Z@4HA 0000000180031314     LIBCMT:dll_dllmain.obj
 0002:0000b314       $unwind$?fin$0@?0??dllmain_crt_process_detach@@YAH_N@Z@4HA 0000000180031314     LIBCMT:dll_dllmain.obj
 0002:0000b314       $unwind$?fin$1@?0??dllmain_crt_process_detach@@YAH_N@Z@4HA 0000000180031314     LIBCMT:dll_dllmain.obj
 0002:0000b314       $unwind$_IsNonwritableInCurrentImage$filt$0 0000000180031314     LIBCMT:pesect.obj
 0002:0000b314       $unwind$?filt$0@?0??CxxCallCatchBlock@__FrameHandler3@@SAPEAXPEAU_EXCEPTION_RECORD@@@Z@4HA 0000000180031314     libvcruntime:frame.obj
 0002:0000b314       $unwind$?filt$0@?0??CxxCallCatchBlock@__FrameHandler4@@SAPEAXPEAU_EXCEPTION_RECORD@@@Z@4HA 0000000180031314     libvcruntime:frame.obj
 0002:0000b314       $unwind$?filt$0@?0??FrameUnwindToState@__FrameHandler3@@SAXPEA_KPEAU_xDISPATCHER_CONTEXT@@PEBU_s_FuncInfo@@H@Z@4HA 0000000180031314     libvcruntime:frame.obj
 0002:0000b314       $unwind$?fin$1@?0??FrameUnwindToState@__FrameHandler3@@SAXPEA_KPEAU_xDISPATCHER_CONTEXT@@PEBU_s_FuncInfo@@H@Z@4HA 0000000180031314     libvcruntime:frame.obj
 0002:0000b31c       $unwind$?AtlInternalOleLoadFromStream@ATL@@YAJPEAUIStream@@AEBU_GUID@@PEAPEAXTClassesAllowedInStream@1@K@Z 000000018003131c     BillDispenser.obj
 0002:0000b338       $unwind$?ReadFromStream@CComBSTR@ATL@@QEAAJPEAUIStream@@@Z 0000000180031338     BillDispenser.obj
 0002:0000b338       $unwind$_configure_narrow_argv 0000000180031338     libucrt:argv_parsing.obj
 0002:0000b34c       $unwind$?WriteToStream@CComVariant@ATL@@QEAAJPEAUIStream@@@Z 000000018003134c     BillDispenser.obj
 0002:0000b360       $unwind$?RegOpenKeyExW@CAtlTransactionManager@ATL@@QEAAJPEAUHKEY__@@PEB_WKKPEAPEAU3@@Z 0000000180031360     BillDispenser.obj
 0002:0000b360       $unwind$?WriteToStream@CComVariant@ATL@@QEAAJPEAUIStream@@G@Z 0000000180031360     BillDispenser.obj
 0002:0000b360       $unwind$__dcrt_write_console 0000000180031360     libucrt:initcon.obj
 0002:0000b360       $unwind$??$__acrt_convert_wcs_mbs_cp@_WDV<lambda_f788ae46380686e8b737efdd8c720d07>@@U__crt_win32_buffer_no_resizing@@@@YAHQEB_WAEAV?$__crt_win32_buffer@DU__crt_win32_buffer_no_resizing@@@@AEBV<lambda_f788ae46380686e8b737efdd8c720d07>@@I@Z 0000000180031360     libucrt:getmodulefilenamea.obj
 0002:0000b374       $unwind$?ReadFromStream@CComVariant@ATL@@QEAAJPEAUIStream@@GTClassesAllowedInStream@2@K@Z 0000000180031374     BillDispenser.obj
 0002:0000b38c       $unwind$?GetSizeMax@CComVariant@ATL@@QEBAJPEAT_ULARGE_INTEGER@@@Z 000000018003138c     BillDispenser.obj
 0002:0000b3a0       $unwind$?RegCreateKeyExW@CAtlTransactionManager@ATL@@QEAAJPEAUHKEY__@@PEB_WKPEA_WKKQEAU_SECURITY_ATTRIBUTES@@PEAPEAU3@PEAK@Z 00000001800313a0     BillDispenser.obj
 0002:0000b3b4       $unwind$?GetGITPtr@CAtlModule@ATL@@UEAAJPEAPEAUIGlobalInterfaceTable@@@Z 00000001800313b4     BillDispenser.obj
 0002:0000b3b4       $unwind$?RegDeleteKeyW@CAtlTransactionManager@ATL@@QEAAJPEAUHKEY__@@PEB_W@Z 00000001800313b4     BillDispenser.obj
 0002:0000b3b4       $unwind$?getStateFromIterators@UWMap4@FH4@@SAHAEBViterator@12@H0H0@Z 00000001800313b4     libvcruntime:frame.obj
 0002:0000b3c4       $unwind$?AtlHiMetricToPixel@ATL@@YAXPEBUtagSIZE@@PEAU2@@Z 00000001800313c4     BillDispenser.obj
 0002:0000b3c4       $unwind$?AtlInternalQueryInterface@ATL@@YAJPEAXPEBU_ATL_INTMAP_ENTRY@1@AEBU_GUID@@PEAPEAX@Z 00000001800313c4     BillDispenser.obj
 0002:0000b3dc       $unwind$?Append@CParseBuffer@CRegParser@ATL@@QEAAHPEB_WH@Z 00000001800313dc     BillDispenser.obj
 0002:0000b3dc       $unwind$?AtlComModuleGetClassObject@ATL@@YAJPEAU_ATL_COM_MODULE70@1@AEBU_GUID@@1PEAPEAX@Z 00000001800313dc     BillDispenser.obj
 0002:0000b3dc       $unwind$?GetClassObject@CComModule@ATL@@QEAAJAEBU_GUID@@0PEAPEAX@Z 00000001800313dc     BillDispenser.obj
 0002:0000b3dc       $unwind$?NextToken@CRegParser@ATL@@IEAAJPEA_W@Z 00000001800313dc     BillDispenser.obj
 0002:0000b3dc       $unwind$?StartWindowProc@?$CWindowImplBaseT@VCWindow@ATL@@V?$CWinTraits@$0FGAAAAAA@$0A@@2@@ATL@@SA_JPEAUHWND__@@I_K_J@Z 00000001800313dc     BillDispenser.obj
 0002:0000b3dc       $unwind$?fp_format_f_internal@@YAHQEAD_KHQEAU_strflt@@_NAEAV__crt_cached_ptd_host@@@Z 00000001800313dc     libucrt:cvt.obj
 0002:0000b3dc       $unwind$__acrt_DownlevelLocaleNameToLCID 00000001800313dc     libucrt:lcidtoname_downlevel.obj
 0002:0000b3dc       $unwind$??R<lambda_f03950bc5685219e0bcd2087efbe011e>@@QEBAHXZ 00000001800313dc     libucrt:onexit.obj
 0002:0000b3f4       $unwind$?AtlRegisterClassCategoriesHelper@ATL@@YAJAEBU_GUID@@PEBU_ATL_CATMAP_ENTRY@1@H@Z 00000001800313f4     BillDispenser.obj
 0002:0000b418       $unwind$?AtlLoadTypeLib@ATL@@YAJPEAUHINSTANCE__@@PEB_WPEAPEA_WPEAPEAUITypeLib@@@Z 0000000180031418     BillDispenser.obj
 0002:0000b438       $unwind$?AtlRegisterTypeLib@ATL@@YAJPEAUHINSTANCE__@@PEB_W@Z 0000000180031438     BillDispenser.obj
 0002:0000b454       $unwind$?AtlUnRegisterTypeLib@ATL@@YAJPEAUHINSTANCE__@@PEB_W@Z 0000000180031454     BillDispenser.obj
 0002:0000b45c       $unwind$?GetTI@CComTypeInfoHolder@ATL@@QEAAJK@Z 000000018003145c     BillDispenser.obj
 0002:0000b45c       $unwind$?RecurseDeleteKey@CRegKey@ATL@@QEAAJPEB_W@Z 000000018003145c     BillDispenser.obj
 0002:0000b47c       $unwind$?UpdateRegistryFromResource@CAtlModule@ATL@@QEAAJIHPEAU_ATL_REGMAP_ENTRY@2@@Z 000000018003147c     BillDispenser.obj
 0002:0000b47c       $unwind$?UpdateRegistryFromResource@CAtlModule@ATL@@QEAAJPEB_WHPEAU_ATL_REGMAP_ENTRY@2@@Z 000000018003147c     BillDispenser.obj
 0002:0000b49c       $unwind$?Lookup@?$CSimpleMap@PEA_WPEA_WVCExpansionVectorEqualHelper@ATL@@@ATL@@QEBAPEA_WAEBQEA_W@Z 000000018003149c     BillDispenser.obj
 0002:0000b49c       $unwind$_free_osfhnd       000000018003149c     libucrt:osfinfo.obj
 0002:0000b49c       $unwind$__std_exception_copy 000000018003149c     libvcruntime:std_exception.obj
 0002:0000b4b0       $unwind$?Add@CExpansionVector@ATL@@QEAAHPEB_W0@Z 00000001800314b0     BillDispenser.obj
 0002:0000b4c8       $unwind$?PreProcessBuffer@CRegParser@ATL@@QEAAJPEA_WPEAPEA_W@Z 00000001800314c8     BillDispenser.obj
 0002:0000b4ec       $unwind$?RegisterBuffer@CRegParser@ATL@@QEAAJPEA_WH@Z 00000001800314ec     BillDispenser.obj
 0002:0000b50c       $unwind$?AddValue@CRegParser@ATL@@IEAAJAEAVCRegKey@2@PEB_WPEA_W@Z 000000018003150c     BillDispenser.obj
 0002:0000b52c       $unwind$?RegisterSubkeys@CRegParser@ATL@@IEAAJPEA_WPEAUHKEY__@@HH@Z 000000018003152c     BillDispenser.obj
 0002:0000b54c       $unwind$?SkipAssignment@CRegParser@ATL@@IEAAJPEA_W@Z 000000018003154c     BillDispenser.obj
 0002:0000b568       $unwind$?RegisterFromResource@CRegObject@ATL@@IEAAJPEB_W00H@Z 0000000180031568     BillDispenser.obj
 0002:0000b588       $unwind$?Cleanup@CComTypeInfoHolder@ATL@@SAX_K@Z 0000000180031588     BillDispenser.obj
 0002:0000b588       $unwind$_free_base         0000000180031588     libucrt:free_base.obj
 0002:0000b588       $unwind$?destroy_fls@@YAXPEAX@Z 0000000180031588     libucrt:per_thread_data.obj
 0002:0000b588       $unwind$__acrt_locale_free_numeric 0000000180031588     libucrt:initnum.obj
 0002:0000b588       $unwind$__acrt_locale_free_lc_time_if_unreferenced 0000000180031588     libucrt:locale_refcounting.obj
 0002:0000b588       $unwind$AtlThunk_FreeData  0000000180031588     atls:atlthunk.obj
 0002:0000b590       $unwind$?GetIDsOfNames@CComTypeInfoHolder@ATL@@QEAAJAEBU_GUID@@PEAPEA_WIKPEAJ@Z 0000000180031590     BillDispenser.obj
 0002:0000b5ac       $unwind$?LoadNameCache@CComTypeInfoHolder@ATL@@QEAAJPEAUITypeInfo@@@Z 00000001800315ac     BillDispenser.obj
 0002:0000b5c4       $unwind$?WindowProc@?$CWindowImplBaseT@VCWindow@ATL@@V?$CWinTraits@$0FGAAAAAA@$0A@@2@@ATL@@SA_JPEAUHWND__@@I_K_J@Z 00000001800315c4     BillDispenser.obj
 0002:0000b5dc       $unwind$?atlCreate@?$CWindowImplBaseT@VCWindow@ATL@@V?$CWinTraits@$0FGAAAAAA@$0A@@2@@ATL@@QEAAPEAUHWND__@@PEAU3@V_U_RECT@2@PEB_WKKV_U_MENUorID@2@GPEAX@Z 00000001800315dc     BillDispenser.obj
 0002:0000b5f4       $unwind$??$AtlModuleRegisterWndClassInfoT@VAtlModuleRegisterWndClassInfoParamW@ATL@@@ATL@@YAGPEAU_ATL_BASE_MODULE70@0@PEAU_ATL_WIN_MODULE70@0@PEAU_ATL_WNDCLASSINFOW@0@PEAP6A_JPEAUHWND__@@I_K_J@ZVAtlModuleRegisterWndClassInfoParamW@0@@Z 00000001800315f4     BillDispenser.obj
 0002:0000b614       $unwind$?GetZoomInfo@CComControlBase@ATL@@QEAAXAEAUATL_DRAWINFO@@@Z 0000000180031614     BillDispenser.obj
 0002:0000b614       $unwind$?OnKillFocus@CComControlBase@ATL@@QEAA_JI_K_JAEAH@Z 0000000180031614     BillDispenser.obj
 0002:0000b614       $unwind$?get_raw_ptd@__crt_cached_ptd_host@@QEAAPEAU__acrt_ptd@@XZ 0000000180031614     libucrt:invalid_parameter.obj
 0002:0000b620       $unwind$?SendOnDataChange@CComControlBase@ATL@@QEAAJK@Z 0000000180031620     BillDispenser.obj
 0002:0000b630       $unwind$?OnSetFocus@CComControlBase@ATL@@QEAA_JI_K_JAEAH@Z 0000000180031630     BillDispenser.obj
 0002:0000b644       $unwind$?OnMouseActivate@CComControlBase@ATL@@QEAA_JI_K_JAEAH@Z 0000000180031644     BillDispenser.obj
 0002:0000b64c       $unwind$?GetAmbientLocaleID@CComControlBase@ATL@@QEAAJAEAK@Z 000000018003164c     BillDispenser.obj
 0002:0000b64c       $unwind$?GetAmbientUserMode@CComControlBase@ATL@@QEAAJAEAH@Z 000000018003164c     BillDispenser.obj
 0002:0000b65c       $unwind$?IQuickActivate_QuickActivate@CComControlBase@ATL@@QEAAJPEAUtagQACONTAINER@@PEAUtagQACONTROL@@@Z 000000018003165c     BillDispenser.obj
 0002:0000b674       $unwind$?DoVerbProperties@CComControlBase@ATL@@QEAAJPEBUtagRECT@@PEAUHWND__@@@Z 0000000180031674     BillDispenser.obj
 0002:0000b68c       $unwind$?InPlaceActivate@CComControlBase@ATL@@QEAAJJPEBUtagRECT@@@Z 000000018003168c     BillDispenser.obj
 0002:0000b6ac       $unwind$?IOleObject_Close@CComControlBase@ATL@@QEAAJK@Z 00000001800316ac     BillDispenser.obj
 0002:0000b6ac       $unwind$?get_raw_ptd_noexit@__crt_cached_ptd_host@@QEAAPEAU__acrt_ptd@@XZ 00000001800316ac     libucrt:invalid_parameter.obj
 0002:0000b6ac       $unwind$?type_case_c_tchar@?$output_processor@_WV?$string_output_adapter@_W@__crt_stdio_output@@V?$format_validation_base@_WV?$string_output_adapter@_W@__crt_stdio_output@@@2@@__crt_stdio_output@@AEAA_N_W@Z 00000001800316ac     libucrt:output.obj
 0002:0000b6bc       $unwind$?IOleInPlaceObject_UIDeactivate@CComControlBase@ATL@@QEAAJXZ 00000001800316bc     BillDispenser.obj
 0002:0000b6d4       $unwind$?IOleInPlaceObject_SetObjectRects@CComControlBase@ATL@@QEAAJPEBUtagRECT@@0@Z 00000001800316d4     BillDispenser.obj
 0002:0000b6e8       $unwind$?IViewObject_Draw@CComControlBase@ATL@@QEAAJKJPEAXPEAUtagDVTARGETDEVICE@@PEAUHDC__@@2PEBU_RECTL@@3@Z 00000001800316e8     BillDispenser.obj
 0002:0000b704       $unwind$?IDataObject_GetData@CComControlBase@ATL@@QEAAJPEAUtagFORMATETC@@PEAUtagSTGMEDIUM@@@Z 0000000180031704     BillDispenser.obj
 0002:0000b724       $unwind$?OnPaint@CComControlBase@ATL@@QEAA_JI_K_JAEAH@Z 0000000180031724     BillDispenser.obj
 0002:0000b740       $unwind$?OnDrawAdvanced@CComControlBase@ATL@@UEAAJAEAUATL_DRAWINFO@@@Z 0000000180031740     BillDispenser.obj
 0002:0000b75c       $unwind$?Invoke@?$IDispatchImpl@UIOPOSBillDispenser@@$1?IID_IOPOSBillDispenser@@3U_GUID@@B$1?LIBID_OposBillDispenser_CCO@@3U3@B$00$0A@VCComTypeInfoHolder@ATL@@@ATL@@UEAAJJAEBU_GUID@@KGPEAUtagDISPPARAMS@@PEAUtagVARIANT@@PEAUtagEXCEPINFO@@PEAI@Z 000000018003175c     BillDispenser.obj
 0002:0000b75c       $unwind$?ReleaseDevice@COPOSBillDispenser@@UEAAJPEAJ@Z 000000018003175c     BillDispenserImpl.obj
 0002:0000b75c       $unwind$_mbsdec_l          000000018003175c     libucrt:mbsdec.obj
 0002:0000b768       $unwind$?atlCreate@?$CWindowImpl@VCOPOSBillDispenser@@VCWindow@ATL@@V?$CWinTraits@$0FGAAAAAA@$0A@@3@@ATL@@QEAAPEAUHWND__@@PEAU3@V_U_RECT@2@PEB_WKKV_U_MENUorID@2@PEAX@Z 0000000180031768     BillDispenser.obj
 0002:0000b768       $unwind$?fp_format_f@@YAHQEBNQEAD_K12HW4__acrt_rounding_mode@@AEAV__crt_cached_ptd_host@@@Z 0000000180031768     libucrt:cvt.obj
 0002:0000b768       $unwind$__acrt_LCMapStringEx 0000000180031768     libucrt:winapi_thunks.obj
 0002:0000b77c       $unwind$?CreateControlWindow@?$CComControl@VCOPOSBillDispenser@@V?$CWindowImpl@VCOPOSBillDispenser@@VCWindow@ATL@@V?$CWinTraits@$0FGAAAAAA@$0A@@3@@ATL@@@ATL@@UEAAPEAUHWND__@@PEAU3@AEAUtagRECT@@@Z 000000018003177c     BillDispenser.obj
 0002:0000b77c       $unwind$_raise_exc         000000018003177c     libucrt:fpexcept.obj
 0002:0000b77c       $unwind$?__scrt_throw_std_bad_alloc@@YAXXZ 000000018003177c     LIBCMT:throw_bad_alloc.obj
 0002:0000b77c       $unwind$?__scrt_throw_std_bad_array_new_length@@YAXXZ 000000018003177c     LIBCMT:throw_bad_alloc.obj
 0002:0000b784       $unwind$?ProcessWindowMessage@?$CComControl@VCOPOSBillDispenser@@V?$CWindowImpl@VCOPOSBillDispenser@@VCWindow@ATL@@V?$CWinTraits@$0FGAAAAAA@$0A@@3@@ATL@@@ATL@@UEAAHPEAUHWND__@@I_K_JAEA_JK@Z 0000000180031784     BillDispenser.obj
 0002:0000b78c       $unwind$?GetSizeMax@?$IPersistStreamInitImpl@VCOPOSBillDispenser@@@ATL@@UEAAJPEAT_ULARGE_INTEGER@@@Z 000000018003178c     BillDispenser.obj
 0002:0000b7a4       $unwind$?IPersistStreamInit_Load@?$IPersistStreamInitImpl@VCOPOSBillDispenser@@@ATL@@QEAAJPEAUIStream@@PEBUATL_PROPMAP_ENTRY@2@@Z 00000001800317a4     BillDispenser.obj
 0002:0000b7c0       $unwind$?IPersistStreamInit_Save@?$IPersistStreamInitImpl@VCOPOSBillDispenser@@@ATL@@QEAAJPEAUIStream@@HPEBUATL_PROPMAP_ENTRY@2@@Z 00000001800317c0     BillDispenser.obj
 0002:0000b7dc       $unwind$?DoVerbPrimary@?$IOleObjectImpl@VCOPOSBillDispenser@@@ATL@@QEAAJPEBUtagRECT@@PEAUHWND__@@@Z 00000001800317dc     BillDispenser.obj
 0002:0000b7f4       $unwind$?TranslateAcceleratorW@?$IOleInPlaceActiveObjectImpl@VCOPOSBillDispenser@@@ATL@@UEAAJPEAUtagMSG@@@Z 00000001800317f4     BillDispenser.obj
 0002:0000b800       $unwind$?Draw@?$IViewObjectExImpl@VCOPOSBillDispenser@@@ATL@@UEAAJKJPEAXPEAUtagDVTARGETDEVICE@@PEAUHDC__@@2PEBU_RECTL@@3P6AH_K@Z4@Z 0000000180031800     BillDispenser.obj
 0002:0000b808       $unwind$?QueryHitRect@?$IViewObjectExImpl@VCOPOSBillDispenser@@@ATL@@UEAAJKPEBUtagRECT@@0JPEAK@Z 0000000180031808     BillDispenser.obj
 0002:0000b818       $unwind$?OnWindowMessage@?$IOleInPlaceObjectWindowlessImpl@VCOPOSBillDispenser@@@ATL@@UEAAJI_K_JPEA_J@Z 0000000180031818     BillDispenser.obj
 0002:0000b82c       $unwind$?EnumConnectionPoints@?$IConnectionPointContainerImpl@VCOPOSBillDispenser@@@ATL@@UEAAJPEAPEAUIEnumConnectionPoints@@@Z 000000018003182c     BillDispenser.obj
 0002:0000b854       $unwind$?FindConnectionPoint@?$IConnectionPointContainerImpl@VCOPOSBillDispenser@@@ATL@@UEAAJAEBU_GUID@@PEAPEAUIConnectionPoint@@@Z 0000000180031854     BillDispenser.obj
 0002:0000b870       $unwind$?Load@?$IPersistStorageImpl@VCOPOSBillDispenser@@@ATL@@UEAAJPEAUIStorage@@@Z 0000000180031870     BillDispenser.obj
 0002:0000b880       $unwind$?Save@?$IPersistStorageImpl@VCOPOSBillDispenser@@@ATL@@UEAAJPEAUIStorage@@H@Z 0000000180031880     BillDispenser.obj
 0002:0000b894       $unwind$?IPSI_GetIPersistStreamInit@?$IPersistStorageImpl@VCOPOSBillDispenser@@@ATL@@AEAAPEAUIPersistStreamInit@@XZ 0000000180031894     BillDispenser.obj
 0002:0000b8a8       $unwind$?GetInterfaceSafetyOptions@?$IObjectSafetyImpl@VCOPOSBillDispenser@@$02@ATL@@UEAAJAEBU_GUID@@PEAK1@Z 00000001800318a8     BillDispenser.obj
 0002:0000b8bc       $unwind$?SetInterfaceSafetyOptions@?$IObjectSafetyImpl@VCOPOSBillDispenser@@$02@ATL@@UEAAJAEBU_GUID@@KK@Z 00000001800318bc     BillDispenser.obj
 0002:0000b8d0       $unwind$?Advise@?$IConnectionPointImpl@VCOPOSBillDispenser@@$1?DIID__IOPOSBillDispenserEvents@@3U_GUID@@BVCComDynamicUnkArray@ATL@@@ATL@@UEAAJPEAUIUnknown@@PEAK@Z 00000001800318d0     BillDispenser.obj
 0002:0000b8d0       $unwind$?Advise@?$IConnectionPointImpl@VCOPOSBillDispenser@@$1?IID_IPropertyNotifySink@@3U_GUID@@BVCComDynamicUnkArray@ATL@@@ATL@@UEAAJPEAUIUnknown@@PEAK@Z 00000001800318d0     BillDispenser.obj
 0002:0000b8e4       $unwind$?EnumConnections@?$IConnectionPointImpl@VCOPOSBillDispenser@@$1?DIID__IOPOSBillDispenserEvents@@3U_GUID@@BVCComDynamicUnkArray@ATL@@@ATL@@UEAAJPEAPEAUIEnumConnections@@@Z 00000001800318e4     BillDispenser.obj
 0002:0000b8e4       $unwind$?EnumConnections@?$IConnectionPointImpl@VCOPOSBillDispenser@@$1?IID_IPropertyNotifySink@@3U_GUID@@BVCComDynamicUnkArray@ATL@@@ATL@@UEAAJPEAPEAUIEnumConnections@@@Z 00000001800318e4     BillDispenser.obj
 0002:0000b8fc       $unwind$?Fire_DirectIOEvent@?$CProxy_IOPOSEvents@VCOPOSBillDispenser@@@@QEAAXJPEAJPEAPEA_W@Z 00000001800318fc     BillDispenser.obj
 0002:0000b91c       $unwind$?Fire_StatusUpdateEvent@?$CProxy_IOPOSEvents@VCOPOSBillDispenser@@@@QEAAXJ@Z 000000018003191c     BillDispenser.obj
 0002:0000b91c       $unwind$?fp_format_e@@YAHQEBNQEAD_K12H_NIW4__acrt_rounding_mode@@AEAV__crt_cached_ptd_host@@@Z 000000018003191c     libucrt:cvt.obj
 0002:0000b91c       $unwind$??$__InternalCxxFrameHandler@V__FrameHandler3@@@@YA?AW4_EXCEPTION_DISPOSITION@@PEAUEHExceptionRecord@@PEA_KPEAU_CONTEXT@@PEAU_xDISPATCHER_CONTEXT@@PEBU_s_FuncInfo@@H1E@Z 000000018003191c     libvcruntime:frame.obj
 0002:0000b934       $unwind$?FireTheEvent@?$CProxy_IOPOSEvents@VCOPOSBillDispenser@@@@IEAAXPEAVOposVariant@@IAEAJPEB_WJ@Z 0000000180031934     BillDispenser.obj
 0002:0000b944       $unwind$?ProcessWindowMessage@COPOSBillDispenser@@UEAAHPEAUHWND__@@I_K_JAEA_JK@Z 0000000180031944     BillDispenser.obj
 0002:0000b95c       $unwind$?Clone@?$CComEnumImpl@UIEnumConnectionPoints@@$1?_GUID_b196b285_bab4_101a_b69c_00aa00341d07@@3U__s_GUID@@BPEAUIConnectionPoint@@V?$_CopyInterface@UIConnectionPoint@@@ATL@@@ATL@@UEAAJPEAPEAUIEnumConnectionPoints@@@Z 000000018003195c     BillDispenser.obj
 0002:0000b95c       $unwind$?Clone@?$CComEnumImpl@UIEnumConnections@@$1?_GUID_b196b287_bab4_101a_b69c_00aa00341d07@@3U__s_GUID@@BUtagCONNECTDATA@@V?$_Copy@UtagCONNECTDATA@@@ATL@@@ATL@@UEAAJPEAPEAUIEnumConnections@@@Z 000000018003195c     BillDispenser.obj
 0002:0000b974       $unwind$?Init@?$CComEnumImpl@UIEnumConnectionPoints@@$1?_GUID_b196b285_bab4_101a_b69c_00aa00341d07@@3U__s_GUID@@BPEAUIConnectionPoint@@V?$_CopyInterface@UIConnectionPoint@@@ATL@@@ATL@@QEAAJPEAPEAUIConnectionPoint@@0PEAUIUnknown@@W4CComEnumFlags@2@@Z 0000000180031974     BillDispenser.obj
 0002:0000b974       $unwind$?Init@?$CComEnumImpl@UIEnumConnections@@$1?_GUID_b196b287_bab4_101a_b69c_00aa00341d07@@3U__s_GUID@@BUtagCONNECTDATA@@V?$_Copy@UtagCONNECTDATA@@@ATL@@@ATL@@QEAAJPEAUtagCONNECTDATA@@0PEAUIUnknown@@W4CComEnumFlags@2@@Z 0000000180031974     BillDispenser.obj
 0002:0000b974       $unwind$?should_round_up@@YA_NQEBN_KFW4__acrt_rounding_mode@@@Z 0000000180031974     libucrt:cvt.obj
 0002:0000b974       $unwind$??$parse_command_line@D@@YAXPEADPEAPEAD0PEA_K2@Z 0000000180031974     libucrt:argv_parsing.obj
 0002:0000b990       $unwind$?GetOposProp@COPOSBillDispenser@@IEAAJJPEAJJ@Z 0000000180031990     BillDispenserImpl.obj
 0002:0000b990       $unwind$?GetOposProp@COPOSBillDispenser@@IEAAJJPEAPEA_WJ@Z 0000000180031990     BillDispenserImpl.obj
 0002:0000b9a8       $unwind$?SetOposProp@COPOSBillDispenser@@IEAAJJJJ@Z 00000001800319a8     BillDispenserImpl.obj
 0002:0000b9c8       $unwind$?SetOposProp@COPOSBillDispenser@@IEAAJJPEA_WJ@Z 00000001800319c8     BillDispenserImpl.obj
 0002:0000b9e4       $unwind$?DoInvoke@COPOSBillDispenser@@IEAAJJPEAVOposVariant@@IHPEAJ_N@Z 00000001800319e4     BillDispenserImpl.obj
 0002:0000b9fc       $unwind$?SetCOFreezeEvents@COPOSBillDispenser@@IEAAXF@Z 00000001800319fc     BillDispenserImpl.obj
 0002:0000ba10       $unwind$?OnDraw@COPOSBillDispenser@@MEAAJAEAUATL_DRAWINFO@@@Z 0000000180031a10     BillDispenserImpl.obj
 0002:0000ba28       $unwind$?EventInit@COPOSBillDispenser@@IEAAJXZ 0000000180031a28     BillDispenserImpl.obj
 0002:0000ba3c       $unwind$?get_ControlObjectDescription@COPOSBillDispenser@@UEAAJPEAPEA_W@Z 0000000180031a3c     BillDispenserImpl.obj
 0002:0000ba3c       $unwind$__dcrt_lowio_ensure_console_output_initialized 0000000180031a3c     libucrt:initcon.obj
 0002:0000ba3c       $unwind$?__mbrtowc_utf8@__crt_mbstring@@YA_KPEA_WPEBD_KPEAU_Mbstatet@@AEAV__crt_cached_ptd_host@@@Z 0000000180031a3c     libucrt:mbrtowc.obj
 0002:0000ba3c       $unwind$?getSystemCP@@YAHH@Z 0000000180031a3c     libucrt:mbctype.obj
 0002:0000ba44       $unwind$?AdjustCashCounts@COPOSBillDispenser@@UEAAJPEA_WPEAJ@Z 0000000180031a44     BillDispenserImpl.obj
 0002:0000ba44       $unwind$?CheckHealth@COPOSBillDispenser@@UEAAJJPEAJ@Z 0000000180031a44     BillDispenserImpl.obj
 0002:0000ba44       $unwind$?DispenseCash@COPOSBillDispenser@@UEAAJPEA_WPEAJ@Z 0000000180031a44     BillDispenserImpl.obj
 0002:0000ba44       $unwind$?ResetStatistics@COPOSBillDispenser@@UEAAJPEA_WPEAJ@Z 0000000180031a44     BillDispenserImpl.obj
 0002:0000ba44       $unwind$?RetrieveStatistics@COPOSBillDispenser@@UEAAJPEAPEA_WPEAJ@Z 0000000180031a44     BillDispenserImpl.obj
 0002:0000ba44       $unwind$?UpdateFirmware@COPOSBillDispenser@@UEAAJPEA_WPEAJ@Z 0000000180031a44     BillDispenserImpl.obj
 0002:0000ba44       $unwind$?UpdateStatistics@COPOSBillDispenser@@UEAAJPEA_WPEAJ@Z 0000000180031a44     BillDispenserImpl.obj
 0002:0000ba54       $unwind$?ClaimDevice@COPOSBillDispenser@@UEAAJJPEAJ@Z 0000000180031a54     BillDispenserImpl.obj
 0002:0000ba64       $unwind$?Close@COPOSBillDispenser@@UEAAJPEAJ@Z 0000000180031a64     BillDispenserImpl.obj
 0002:0000ba70       $unwind$?DirectIO@COPOSBillDispenser@@UEAAJJPEAJPEAPEA_W0@Z 0000000180031a70     BillDispenserImpl.obj
 0002:0000ba8c       $unwind$?Open@COPOSBillDispenser@@UEAAJPEA_WPEAJ@Z 0000000180031a8c     BillDispenserImpl.obj
 0002:0000bab0       $unwind$?CompareFirmwareVersion@COPOSBillDispenser@@UEAAJPEA_WPEAJ1@Z 0000000180031ab0     BillDispenserImpl.obj
 0002:0000bab0       $unwind$?ReadCashCounts@COPOSBillDispenser@@UEAAJPEAPEA_WPEAFPEAJ@Z 0000000180031ab0     BillDispenserImpl.obj
 0002:0000bab0       $unwind$?initialize_inherited_file_handles_nolock@@YAXXZ 0000000180031ab0     libucrt:ioinit.obj
 0002:0000bacc       $unwind$__scrt_is_nonwritable_in_current_image 0000000180031acc     LIBCMT:utility.obj
 0002:0000baec       $unwind$__scrt_is_nonwritable_in_current_image$filt$0 0000000180031aec     LIBCMT:utility.obj
 0002:0000baf4       $unwind$__report_securityfailure 0000000180031af4     LIBCMT:gs_report.obj
 0002:0000bafc       $unwind$__report_gsfailure 0000000180031afc     LIBCMT:gs_report.obj
 0002:0000bb04       $unwind$capture_current_context 0000000180031b04     LIBCMT:gs_report.obj
 0002:0000bb10       $unwind$capture_previous_context 0000000180031b10     LIBCMT:gs_report.obj
 0002:0000bb1c       $unwind$??2@YAPEAX_KAEBUnothrow_t@std@@@Z 0000000180031b1c     LIBCMT:new_scalar_nothrow.obj
 0002:0000bb2c       $cppxdata$??2@YAPEAX_KAEBUnothrow_t@std@@@Z 0000000180031b2c     LIBCMT:new_scalar_nothrow.obj
 0002:0000bb39       $stateUnwindMap$??2@YAPEAX_KAEBUnothrow_t@std@@@Z 0000000180031b39     LIBCMT:new_scalar_nothrow.obj
 0002:0000bb3c       $tryMap$??2@YAPEAX_KAEBUnothrow_t@std@@@Z 0000000180031b3c     LIBCMT:new_scalar_nothrow.obj
 0002:0000bb44       $handlerMap$??2@YAPEAX_KAEBUnothrow_t@std@@@Z 0000000180031b44     LIBCMT:new_scalar_nothrow.obj
 0002:0000bb4c       $ip2state$??2@YAPEAX_KAEBUnothrow_t@std@@@Z 0000000180031b4c     LIBCMT:new_scalar_nothrow.obj
 0002:0000bb50       $unwind$?catch$0@?0???2@YAPEAX_KAEBUnothrow_t@std@@@Z@4HA 0000000180031b50     LIBCMT:new_scalar_nothrow.obj
 0002:0000bb60       $cppxdata$?catch$0@?0???2@YAPEAX_KAEBUnothrow_t@std@@@Z@4HA 0000000180031b60     LIBCMT:new_scalar_nothrow.obj
 0002:0000bb6a       $stateUnwindMap$?catch$0@?0???2@YAPEAX_KAEBUnothrow_t@std@@@Z@4HA 0000000180031b6a     LIBCMT:new_scalar_nothrow.obj
 0002:0000bb6c       $ip2state$?catch$0@?0???2@YAPEAX_KAEBUnothrow_t@std@@@Z@4HA 0000000180031b6c     LIBCMT:new_scalar_nothrow.obj
 0002:0000bb70       $unwind$__GSHandlerCheckCommon 0000000180031b70     LIBCMT:gshandler.obj
 0002:0000bb78       $xdatasym                  0000000180031b78     LIBCMT:chkstk.obj
 0002:0000bb80       $xdatasym                  0000000180031b80     LIBCMT:amdsecgs.obj
 0002:0000bb84       $unwind$?dllmain_crt_process_attach@@YAHQEAUHINSTANCE__@@QEAX@Z 0000000180031b84     LIBCMT:dll_dllmain.obj
 0002:0000bbc0       $unwind$?dllmain_crt_process_detach@@YAH_N@Z 0000000180031bc0     LIBCMT:dll_dllmain.obj
 0002:0000bc14       $unwind$?dllmain_dispatch@@YAHQEAUHINSTANCE__@@KQEAX@Z 0000000180031c14     LIBCMT:dll_dllmain.obj
 0002:0000bc3c       $unwind$_write_internal$fin$0 0000000180031c3c     libucrt:write.obj
 0002:0000bc3c       $unwind$?fin$0@?0??_fclose_internal@@YAHQEAU_iobuf@@AEAV__crt_cached_ptd_host@@@Z@4HA 0000000180031c3c     libucrt:fclose.obj
 0002:0000bc3c       $unwind$?filt$0@?0??dllmain_dispatch@@YAHQEAUHINSTANCE__@@KQEAX@Z@4HA 0000000180031c3c     LIBCMT:dll_dllmain.obj
 0002:0000bc3c       $unwind$?filt$0@?0??FrameUnwindToState@__FrameHandler4@@SAXPEA_KPEAU_xDISPATCHER_CONTEXT@@PEAUFuncInfo4@FH4@@H@Z@4HA 0000000180031c3c     libvcruntime:frame.obj
 0002:0000bc3c       $unwind$?fin$1@?0??FrameUnwindToState@__FrameHandler4@@SAXPEA_KPEAU_xDISPATCHER_CONTEXT@@PEAUFuncInfo4@FH4@@H@Z@4HA 0000000180031c3c     libvcruntime:frame.obj
 0002:0000bc44       $unwind$__isa_available_init 0000000180031c44     LIBCMT:cpu_disp.obj
 0002:0000bc54       $unwind$__scrt_fastfail    0000000180031c54     LIBCMT:utility_desktop.obj
 0002:0000bc64       $unwind$__security_init_cookie 0000000180031c64     LIBCMT:gs_support.obj
 0002:0000bc70       $xdatasym                  0000000180031c70     LIBCMT:guard_dispatch.obj
 0002:0000bc78       $xdatasym                  0000000180031c78     LIBCMT:guard_xfg_dispatch.obj
 0002:0000bc7c       $unwind$AtlThunk_InitData  0000000180031c7c     atls:atlthunk.obj
 0002:0000bc90       $unwind$wcsstr             0000000180031c90     libvcruntime:wcsstr.obj
 0002:0000bca8       $xdatasym                  0000000180031ca8     libvcruntime:memcmp.obj
 0002:0000bcb0       $xdatasym                  0000000180031cb0     libvcruntime:memcpy.obj
 0002:0000bcc0       $xdatasym                  0000000180031cc0     libvcruntime:memset.obj
 0002:0000bcd0       $unwind$__C_specific_handler 0000000180031cd0     libvcruntime:riscchandler.obj
 0002:0000bcd0       $unwind$?GetRangeOfTrysToCheck@__FrameHandler3@@SA?AU?$pair@Viterator@TryBlockMap@__FrameHandler3@@V123@@std@@AEAVTryBlockMap@1@HPEAU_xDISPATCHER_CONTEXT@@PEBU_s_FuncInfo@@H@Z 0000000180031cd0     libvcruntime:risctrnsctrl.obj
 0002:0000bcec       $unwind$?StateFromIp@__FrameHandler4@@SAHPEAUFuncInfo4@FH4@@PEAU_xDISPATCHER_CONTEXT@@_K@Z 0000000180031cec     libvcruntime:ehstate.obj
 0002:0000bcec       $unwind$?DecompFuncInfo@FH4@@YA_JPEAEAEAUFuncInfo4@1@_KH_N@Z 0000000180031cec     libvcruntime:risctrnsctrl.obj
 0002:0000bd04       $unwind$?GetEstablisherFrame@__FrameHandler3@@SAPEA_KPEA_KPEAU_xDISPATCHER_CONTEXT@@PEBU_s_FuncInfo@@0@Z 0000000180031d04     libvcruntime:risctrnsctrl.obj
 0002:0000bd1c       $unwind$?UnwindNestedFrames@__FrameHandler3@@SAXPEA_KPEAUEHExceptionRecord@@PEAU_CONTEXT@@0PEAXPEBU_s_FuncInfo@@HHPEBU_s_HandlerType@@PEAU_xDISPATCHER_CONTEXT@@E@Z 0000000180031d1c     libvcruntime:risctrnsctrl.obj
 0002:0000bd1c       $unwind$?UnwindNestedFrames@__FrameHandler4@@SAXPEA_KPEAUEHExceptionRecord@@PEAU_CONTEXT@@0PEAXPEAUFuncInfo4@FH4@@HHPEAUHandlerType4@5@PEAU_xDISPATCHER_CONTEXT@@E@Z 0000000180031d1c     libvcruntime:risctrnsctrl.obj
 0002:0000bd30       $unwind$?GetRangeOfTrysToCheck@__FrameHandler4@@SA?AU?$pair@Viterator@TryBlockMap4@FH4@@V123@@std@@AEAVTryBlockMap4@FH4@@HPEAU_xDISPATCHER_CONTEXT@@PEAUFuncInfo4@5@H@Z 0000000180031d30     libvcruntime:risctrnsctrl.obj
 0002:0000bd4c       $unwind$__CxxFrameHandler3 0000000180031d4c     libvcruntime:risctrnsctrl.obj
 0002:0000bd60       $unwind$__CxxFrameHandler4 0000000180031d60     libvcruntime:risctrnsctrl.obj
 0002:0000bd74       $unwind$??$_CallSETranslator@V__FrameHandler4@@@@YAHPEAUEHExceptionRecord@@PEA_KPEAU_CONTEXT@@PEAU_xDISPATCHER_CONTEXT@@PEAUFuncInfo4@FH4@@K1H@Z 0000000180031d74     libvcruntime:risctrnsctrl.obj
 0002:0000bd94       $unwind$?filt$0@?0???$_CallSETranslator@V__FrameHandler3@@@@YAHPEAUEHExceptionRecord@@PEA_KPEAU_CONTEXT@@PEAU_xDISPATCHER_CONTEXT@@PEBU_s_FuncInfo@@K1H@Z@4HA 0000000180031d94     libvcruntime:risctrnsctrl.obj
 0002:0000bd94       $unwind$?filt$0@?0???$_CallSETranslator@V__FrameHandler4@@@@YAHPEAUEHExceptionRecord@@PEA_KPEAU_CONTEXT@@PEAU_xDISPATCHER_CONTEXT@@PEAUFuncInfo4@FH4@@K1H@Z@4HA 0000000180031d94     libvcruntime:risctrnsctrl.obj
 0002:0000bda0       $unwind$??$_CallSETranslator@V__FrameHandler3@@@@YAHPEAUEHExceptionRecord@@PEA_KPEAU_CONTEXT@@PEAU_xDISPATCHER_CONTEXT@@PEBU_s_FuncInfo@@K1H@Z 0000000180031da0     libvcruntime:risctrnsctrl.obj
 0002:0000bdc0       $unwind$__DestructExceptionObject 0000000180031dc0     libvcruntime:ehhelpers.obj
 0002:0000bde0       $unwind$__DestructExceptionObject$filt$0 0000000180031de0     libvcruntime:ehhelpers.obj
 0002:0000bde0       $unwind$?fin$1@?0??CxxCallCatchBlock@__FrameHandler3@@SAPEAXPEAU_EXCEPTION_RECORD@@@Z@4HA 0000000180031de0     libvcruntime:frame.obj
 0002:0000bde0       $unwind$?fin$1@?0??CxxCallCatchBlock@__FrameHandler4@@SAPEAXPEAU_EXCEPTION_RECORD@@@Z@4HA 0000000180031de0     libvcruntime:frame.obj
 0002:0000bdec       $unwind$_CxxThrowException 0000000180031dec     libvcruntime:throw.obj
 0002:0000be00       $xdatasym                  0000000180031e00     libvcruntime:notify.obj
 0002:0000be0c       $unwind$?getStartStop@UWMap4@FH4@@QEAAXHHAEAViterator@12@0@Z 0000000180031e0c     libvcruntime:frame.obj
 0002:0000be24       $unwind$?FrameUnwindToState@__FrameHandler3@@SAXPEA_KPEAU_xDISPATCHER_CONTEXT@@PEBU_s_FuncInfo@@H@Z 0000000180031e24     libvcruntime:frame.obj
 0002:0000be70       $unwind$?CxxCallCatchBlock@__FrameHandler3@@SAPEAXPEAU_EXCEPTION_RECORD@@@Z 0000000180031e70     libvcruntime:frame.obj
 0002:0000beac       $unwind$?FrameUnwindToState@__FrameHandler4@@SAXPEA_KPEAU_xDISPATCHER_CONTEXT@@PEAUFuncInfo4@FH4@@H@Z 0000000180031eac     libvcruntime:frame.obj
 0002:0000bef4       $unwind$?CxxCallCatchBlock@__FrameHandler4@@SAPEAXPEAU_EXCEPTION_RECORD@@@Z 0000000180031ef4     libvcruntime:frame.obj
 0002:0000bf50       $unwind$?IsInExceptionSpec@@YAEPEAUEHExceptionRecord@@PEBU_s_ESTypeList@@@Z 0000000180031f50     libvcruntime:frame.obj
 0002:0000bf6c       $unwind$??$__InternalCxxFrameHandler@V__FrameHandler4@@@@YA?AW4_EXCEPTION_DISPOSITION@@PEAUEHExceptionRecord@@PEA_KPEAU_CONTEXT@@PEAU_xDISPATCHER_CONTEXT@@PEAUFuncInfo4@FH4@@H1E@Z 0000000180031f6c     libvcruntime:frame.obj
 0002:0000bf84       $unwind$??$BuildCatchObjectHelperInternal@V__FrameHandler3@@@@YAHPEAUEHExceptionRecord@@PEAXPEBU_s_HandlerType@@PEBU_s_CatchableType@@@Z 0000000180031f84     libvcruntime:frame.obj
 0002:0000bfc4       $unwind$??$BuildCatchObjectHelperInternal@V__FrameHandler4@@@@YAHPEAUEHExceptionRecord@@PEAXPEAUHandlerType4@FH4@@PEBU_s_CatchableType@@@Z 0000000180031fc4     libvcruntime:frame.obj
 0002:0000c004       $unwind$??$BuildCatchObjectInternal@V__FrameHandler3@@@@YAXPEAUEHExceptionRecord@@PEAXPEBU_s_HandlerType@@PEBU_s_CatchableType@@@Z 0000000180032004     libvcruntime:frame.obj
 0002:0000c030       $unwind$??$BuildCatchObjectInternal@V__FrameHandler4@@@@YAXPEAUEHExceptionRecord@@PEAXPEAUHandlerType4@FH4@@PEBU_s_CatchableType@@@Z 0000000180032030     libvcruntime:frame.obj
 0002:0000c05c       $unwind$??$FindHandler@V__FrameHandler3@@@@YAXPEAUEHExceptionRecord@@PEA_KPEAU_CONTEXT@@PEAU_xDISPATCHER_CONTEXT@@PEBU_s_FuncInfo@@EH1@Z 000000018003205c     libvcruntime:frame.obj
 0002:0000c07c       $unwind$??$FindHandler@V__FrameHandler4@@@@YAXPEAUEHExceptionRecord@@PEA_KPEAU_CONTEXT@@PEAU_xDISPATCHER_CONTEXT@@PEAUFuncInfo4@FH4@@EH1@Z 000000018003207c     libvcruntime:frame.obj
 0002:0000c09c       $unwind$??$CatchIt@V__FrameHandler3@@@@YAXPEAUEHExceptionRecord@@PEA_KPEAU_CONTEXT@@PEAU_xDISPATCHER_CONTEXT@@PEBU_s_FuncInfo@@PEBU_s_HandlerType@@PEBU_s_CatchableType@@PEBU_s_TryBlockMapEntry@@H1EE@Z 000000018003209c     libvcruntime:frame.obj
 0002:0000c09c       $unwind$??$CatchIt@V__FrameHandler4@@@@YAXPEAUEHExceptionRecord@@PEA_KPEAU_CONTEXT@@PEAU_xDISPATCHER_CONTEXT@@PEAUFuncInfo4@FH4@@PEAUHandlerType4@4@PEBU_s_CatchableType@@PEAUTryBlockMapEntry4@4@H1EE@Z 000000018003209c     libvcruntime:frame.obj
 0002:0000c0b4       $unwind$??$FindHandlerForForeignException@V__FrameHandler3@@@@YAXPEAUEHExceptionRecord@@PEA_KPEAU_CONTEXT@@PEAU_xDISPATCHER_CONTEXT@@PEBU_s_FuncInfo@@HH1@Z 00000001800320b4     libvcruntime:frame.obj
 0002:0000c0d0       $unwind$??$FindHandlerForForeignException@V__FrameHandler4@@@@YAXPEAUEHExceptionRecord@@PEA_KPEAU_CONTEXT@@PEAU_xDISPATCHER_CONTEXT@@PEAUFuncInfo4@FH4@@HH1@Z 00000001800320d0     libvcruntime:frame.obj
 0002:0000c0f0       $unwind$?try_get_function@@YAPEAXW4function_id@?A0x391cf84c@@QEBDQEBW4module_id@2@2@Z 00000001800320f0     libucrt:winapi_thunks.obj
 0002:0000c0f0       $unwind$?try_get_function@@YAPEAXW4function_id@?A0xbc0cc709@@QEBDQEBW4module_id@2@2@Z 00000001800320f0     libvcruntime:winapi_downlevel.obj
 0002:0000c110       $xdatasym                  0000000180032110     libvcruntime:handlers.obj
 0002:0000c130       $unwind$__acrt_call_reportfault 0000000180032130     libucrt:invalid_parameter.obj
 0002:0000c150       $unwind$??$common_lseek_nolock@_J@@YA_JH_JHAEAV__crt_cached_ptd_host@@@Z 0000000180032150     libucrt:lseek.obj
 0002:0000c150       $unwind$_invalid_parameter_internal 0000000180032150     libucrt:invalid_parameter.obj
 0002:0000c150       $unwind$??$type_case_integer@$07@?$output_processor@_WV?$string_output_adapter@_W@__crt_stdio_output@@V?$format_validation_base@_WV?$string_output_adapter@_W@__crt_stdio_output@@@2@@__crt_stdio_output@@AEAA_N_N@Z 0000000180032150     libucrt:output.obj
 0002:0000c150       $unwind$??$type_case_integer@$09@?$output_processor@_WV?$string_output_adapter@_W@__crt_stdio_output@@V?$format_validation_base@_WV?$string_output_adapter@_W@__crt_stdio_output@@@2@@__crt_stdio_output@@AEAA_N_N@Z 0000000180032150     libucrt:output.obj
 0002:0000c150       $unwind$??$type_case_integer@$0BA@@?$output_processor@_WV?$string_output_adapter@_W@__crt_stdio_output@@V?$format_validation_base@_WV?$string_output_adapter@_W@__crt_stdio_output@@@2@@__crt_stdio_output@@AEAA_N_N@Z 0000000180032150     libucrt:output.obj
 0002:0000c164       $unwind$_invalid_parameter 0000000180032164     libucrt:invalid_parameter.obj
 0002:0000c170       $unwind$_resetstkoflw      0000000180032170     libucrt:resetstk.obj
 0002:0000c194       $unwind$__stdio_common_vswprintf_s 0000000180032194     libucrt:output.obj
 0002:0000c1a8       $unwind$?write_string@?$string_output_adapter@_W@__crt_stdio_output@@QEBAXQEB_WHQEAHAEAV__crt_cached_ptd_host@@@Z 00000001800321a8     libucrt:output.obj
 0002:0000c1c0       $unwind$??$common_vsprintf@Vformat_validation_base@__crt_stdio_output@@_W@@YAH_KQEA_W0QEB_WAEAV__crt_cached_ptd_host@@QEAD@Z 00000001800321c0     libucrt:output.obj
 0002:0000c1e0       $unwind$?parse_int_from_format_string@?$output_processor@_WV?$string_output_adapter@_W@__crt_stdio_output@@V?$format_validation_base@_WV?$string_output_adapter@_W@__crt_stdio_output@@@2@@__crt_stdio_output@@AEAA_NQEAH@Z 00000001800321e0     libucrt:output.obj
 0002:0000c1f4       $unwind$?state_case_type@?$output_processor@_WV?$string_output_adapter@_W@__crt_stdio_output@@V?$format_validation_base@_WV?$string_output_adapter@_W@__crt_stdio_output@@@2@@__crt_stdio_output@@AEAA_NXZ 00000001800321f4     libucrt:output.obj
 0002:0000c218       $unwind$?type_case_a@?$output_processor@_WV?$string_output_adapter@_W@__crt_stdio_output@@V?$format_validation_base@_WV?$string_output_adapter@_W@__crt_stdio_output@@@2@@__crt_stdio_output@@AEAA_NXZ 0000000180032218     libucrt:output.obj
 0002:0000c22c       $unwind$?type_case_n@?$output_processor@_WV?$string_output_adapter@_W@__crt_stdio_output@@V?$format_validation_base@_WV?$string_output_adapter@_W@__crt_stdio_output@@@2@@__crt_stdio_output@@AEAA_NXZ 000000018003222c     libucrt:output.obj
 0002:0000c238       $unwind$??$parse_integer@KV?$c_string_character_source@_W@__crt_strtox@@$0A@@__crt_strtox@@YAKAEAV__crt_cached_ptd_host@@V?$c_string_character_source@_W@0@H_N@Z 0000000180032238     libucrt:output.obj
 0002:0000c254       $unwind$?try_cor_exit_process@@YAXI@Z 0000000180032254     libucrt:exit.obj
 0002:0000c268       $ip2state$?try_cor_exit_process@@YAXI@Z 0000000180032268     libucrt:exit.obj
 0002:0000c270       $unwind$?common_exit@@YAXHW4_crt_exit_cleanup_mode@@W4_crt_exit_return_mode@@@Z 0000000180032270     libucrt:exit.obj
 0002:0000c284       $stateUnwindMap$__dcrt_uninitialize_environments_nolock 0000000180032284     libucrt:environment_initialization.obj
 0002:0000c284       $stateUnwindMap$?common_exit@@YAXHW4_crt_exit_cleanup_mode@@W4_crt_exit_return_mode@@@Z 0000000180032284     libucrt:exit.obj
 0002:0000c284       $stateUnwindMap$_execute_onexit_table 0000000180032284     libucrt:onexit.obj
 0002:0000c290       $ip2state$?common_exit@@YAXHW4_crt_exit_cleanup_mode@@W4_crt_exit_return_mode@@@Z 0000000180032290     libucrt:exit.obj
 0002:0000c298       $unwind$??R<lambda_6e4b09c48022b2350581041d5f6b0c4c>@@QEBA@XZ 0000000180032298     libucrt:exit.obj
 0002:0000c2b8       $unwind$??$?RV<lambda_d80eeec6fff315bfe5c115232f3240e3>@@AEAV<lambda_6e4b09c48022b2350581041d5f6b0c4c>@@V<lambda_2358e3775559c9db80273638284d5e45>@@@?$__crt_seh_guarded_call@X@@QEAAX$$QEAV<lambda_d80eeec6fff315bfe5c115232f3240e3>@@AEAV<lambda_6e4b09c48022b2350581041d5f6b0c4c>@@$$QEAV<lambda_2358e3775559c9db80273638284d5e45>@@@Z 00000001800322b8     libucrt:exit.obj
 0002:0000c2dc       $unwind$__dcrt_uninitialize_environments_nolock 00000001800322dc     libucrt:environment_initialization.obj
 0002:0000c2ec       $unwind$??$free_environment@D@@YAXQEAPEAD@Z 00000001800322ec     libucrt:environment_initialization.obj
 0002:0000c2ec       $unwind$??$free_environment@_W@@YAXQEAPEA_W@Z 00000001800322ec     libucrt:environment_initialization.obj
 0002:0000c2ec       $unwind$_initterm          00000001800322ec     libucrt:initterm.obj
 0002:0000c2f8       $unwind$_register_onexit_function 00000001800322f8     libucrt:onexit.obj
 0002:0000c300       $unwind$_execute_onexit_table 0000000180032300     libucrt:onexit.obj
 0002:0000c310       $ip2state$_execute_onexit_table 0000000180032310     libucrt:onexit.obj
 0002:0000c318       $unwind$??R<lambda_22ebabd17bc4fa466a2aca6d8deb888d>@@QEBAHXZ 0000000180032318     libucrt:onexit.obj
 0002:0000c330       $unwind$??$?RV<lambda_638799b9deba96c50f710eeac98168cd>@@AEAV<lambda_22ebabd17bc4fa466a2aca6d8deb888d>@@V<lambda_a6f7d7db0129f75315ebf26d50c089f1>@@@?$__crt_seh_guarded_call@H@@QEAAH$$QEAV<lambda_638799b9deba96c50f710eeac98168cd>@@AEAV<lambda_22ebabd17bc4fa466a2aca6d8deb888d>@@$$QEAV<lambda_a6f7d7db0129f75315ebf26d50c089f1>@@@Z 0000000180032330     libucrt:onexit.obj
 0002:0000c354       $unwind$??$?RV<lambda_7777bce6b2f8c936911f934f8298dc43>@@AEAV<lambda_f03950bc5685219e0bcd2087efbe011e>@@V<lambda_3883c3dff614d5e0c5f61bb1ac94921c>@@@?$__crt_seh_guarded_call@H@@QEAAH$$QEAV<lambda_7777bce6b2f8c936911f934f8298dc43>@@AEAV<lambda_f03950bc5685219e0bcd2087efbe011e>@@$$QEAV<lambda_3883c3dff614d5e0c5f61bb1ac94921c>@@@Z 0000000180032354     libucrt:onexit.obj
 0002:0000c378       $unwind$_query_new_handler 0000000180032378     libucrt:new_handler.obj
 0002:0000c398       $unwind$terminate          0000000180032398     libucrt:terminate.obj
 0002:0000c3b8       $xdatasym                  00000001800323b8     libucrt:strncmp.obj
 0002:0000c3bc       $unwind$?construct_ptd_array@@YAXQEAU__acrt_ptd@@@Z 00000001800323bc     libucrt:per_thread_data.obj
 0002:0000c3c4       $unwind$?destroy_ptd_array@@YAXQEAU__acrt_ptd@@@Z 00000001800323c4     libucrt:per_thread_data.obj
 0002:0000c3cc       $unwind$??$?RV<lambda_0ae27a3a962d80f24befdcbee591983d>@@AEAV<lambda_8d0ee55de4b1038c4002e0adecdf1839>@@V<lambda_dc504788e8f1664fe9b84e20bfb512f2>@@@?$__crt_seh_guarded_call@X@@QEAAX$$QEAV<lambda_0ae27a3a962d80f24befdcbee591983d>@@AEAV<lambda_8d0ee55de4b1038c4002e0adecdf1839>@@$$QEAV<lambda_dc504788e8f1664fe9b84e20bfb512f2>@@@Z 00000001800323cc     libucrt:per_thread_data.obj
 0002:0000c3f0       $unwind$??$?RV<lambda_aa87e3671a710a21b5dc78c0bdf72e11>@@AEAV<lambda_92619d2358a28f41a33ba319515a20b9>@@V<lambda_6992ecaafeb10aed2b74cb1fae11a551>@@@?$__crt_seh_guarded_call@X@@QEAAX$$QEAV<lambda_aa87e3671a710a21b5dc78c0bdf72e11>@@AEAV<lambda_92619d2358a28f41a33ba319515a20b9>@@$$QEAV<lambda_6992ecaafeb10aed2b74cb1fae11a551>@@@Z 00000001800323f0     libucrt:per_thread_data.obj
 0002:0000c414       $unwind$??$?RV<lambda_f2e299630e499de9f9a165e60fcd3db5>@@AEAV<lambda_2ae9d31cdba2644fcbeaf08da7c24588>@@V<lambda_40d01ff24d0e7b3814fdbdcee8eab3c7>@@@?$__crt_seh_guarded_call@X@@QEAAX$$QEAV<lambda_f2e299630e499de9f9a165e60fcd3db5>@@AEAV<lambda_2ae9d31cdba2644fcbeaf08da7c24588>@@$$QEAV<lambda_40d01ff24d0e7b3814fdbdcee8eab3c7>@@@Z 0000000180032414     libucrt:per_thread_data.obj
 0002:0000c438       $unwind$??$?RV<lambda_2d41944a1d46af3157314b8a01080d33>@@AEAV<lambda_8f455de75cd7d7f24b4096f044d8b9e6>@@V<lambda_aa500f224e6afead328df44964fe2772>@@@?$__crt_seh_guarded_call@X@@QEAAX$$QEAV<lambda_2d41944a1d46af3157314b8a01080d33>@@AEAV<lambda_8f455de75cd7d7f24b4096f044d8b9e6>@@$$QEAV<lambda_aa500f224e6afead328df44964fe2772>@@@Z 0000000180032438     libucrt:per_thread_data.obj
 0002:0000c45c       $unwind$__acrt_uninitialize_locale 000000018003245c     libucrt:wsetlocale.obj
 0002:0000c45c       $unwind$__acrt_get_sigabrt_handler 000000018003245c     libucrt:signal.obj
 0002:0000c464       $unwind$??$?RV<lambda_410d79af7f07d98d83a3f525b3859a53>@@AEAV<lambda_3e16ef9562a7dcce91392c22ab16ea36>@@V<lambda_38119f0e861e05405d8a144b9b982f0a>@@@?$__crt_seh_guarded_call@X@@QEAAX$$QEAV<lambda_410d79af7f07d98d83a3f525b3859a53>@@AEAV<lambda_3e16ef9562a7dcce91392c22ab16ea36>@@$$QEAV<lambda_38119f0e861e05405d8a144b9b982f0a>@@@Z 0000000180032464     libucrt:wsetlocale.obj
 0002:0000c48c       $unwind$__acrt_initialize_winapi_thunks 000000018003248c     libucrt:winapi_thunks.obj
 0002:0000c48c       $unwind$__acrt_fenv_get_control 000000018003248c     libucrt:_fenvutils.obj
 0002:0000c494       $unwind$__acrt_fp_format   0000000180032494     libucrt:cvt.obj
 0002:0000c4a4       $unwind$?fp_format_e_internal@@YAHQEAD_KH_NIQEAU_strflt@@2AEAV__crt_cached_ptd_host@@@Z 00000001800324a4     libucrt:cvt.obj
 0002:0000c4c0       $unwind$?fp_format_a@@YAHQEBNPEAD_KQEAD2H_NIW4__acrt_rounding_mode@@AEAV__crt_cached_ptd_host@@@Z 00000001800324c0     libucrt:cvt.obj
 0002:0000c4dc       $unwind$?fp_format_g@@YAHQEBNQEAD_K12H_NIW4__acrt_rounding_mode@@AEAV__crt_cached_ptd_host@@@Z 00000001800324dc     libucrt:cvt.obj
 0002:0000c4f4       $unwind$__acrt_initialize_lowio 00000001800324f4     libucrt:ioinit.obj
 0002:0000c514       $unwind$??$common_expand_argv_wildcards@D@@YAHQEAPEADQEAPEAPEAD@Z 0000000180032514     libucrt:argv_wildcards.obj
 0002:0000c52c       $unwind$__dcrt_get_narrow_environment_from_os 000000018003252c     libucrt:get_environment_from_os.obj
 0002:0000c52c       $unwind$??$__acrt_convert_wcs_mbs_cp@_WDV<lambda_d8593a27d1aa8c02be35c86a17d324c4>@@U__crt_win32_buffer_internal_dynamic_resizing@@@@YAHQEB_WAEAV?$__crt_win32_buffer@DU__crt_win32_buffer_internal_dynamic_resizing@@@@AEBV<lambda_d8593a27d1aa8c02be35c86a17d324c4>@@I@Z 000000018003252c     libucrt:argv_wildcards.obj
 0002:0000c544       $unwind$??$copy_and_add_argument_to_buffer@D@@YAHQEBD0_KAEAV?$argument_list@D@?A0x5f5c8891@@@Z 0000000180032544     libucrt:argv_wildcards.obj
 0002:0000c560       $unwind$??$expand_argument_wildcards@D@@YAHQEAD0AEAV?$argument_list@D@?A0x5f5c8891@@@Z 0000000180032560     libucrt:argv_wildcards.obj
 0002:0000c580       $unwind$__acrt_GetModuleFileNameA 0000000180032580     libucrt:getmodulefilenamea.obj
 0002:0000c59c       $unwind$_setmbcp_nolock    000000018003259c     libucrt:mbctype.obj
 0002:0000c5bc       $unwind$?update_thread_multibyte_data_internal@@YAPEAU__crt_multibyte_data@@QEAU__acrt_ptd@@QEAPEAU1@@Z 00000001800325bc     libucrt:mbctype.obj
 0002:0000c5e4       $unwind$?setmbcp_internal@@YAHH_NQEAU__acrt_ptd@@QEAPEAU__crt_multibyte_data@@@Z 00000001800325e4     libucrt:mbctype.obj
 0002:0000c5fc       $unwind$?setSBUpLow@@YAXPEAU__crt_multibyte_data@@@Z 00000001800325fc     libucrt:mbctype.obj
 0002:0000c618       $unwind$??$?RV<lambda_efdfa57d1f175319df784efa44bb7b81>@@AEAV<lambda_5f0a4c1567f8adc6734073e5d1e1b35c>@@V<lambda_2e8a7d3640ea6ccb4c2413664c2db6fd>@@@?$__crt_seh_guarded_call@X@@QEAAX$$QEAV<lambda_efdfa57d1f175319df784efa44bb7b81>@@AEAV<lambda_5f0a4c1567f8adc6734073e5d1e1b35c>@@$$QEAV<lambda_2e8a7d3640ea6ccb4c2413664c2db6fd>@@@Z 0000000180032618     libucrt:mbctype.obj
 0002:0000c63c       $unwind$__acrt_WideCharToMultiByte 000000018003263c     libucrt:widechartomultibyte.obj
 0002:0000c648       $unwind$raise              0000000180032648     libucrt:signal.obj
 0002:0000c684       $unwind$??$?RV<lambda_450d765d439847d4c735a33c368b5fc0>@@AEAV<lambda_44731a7d0e6d81c3e6aa82d741081786>@@V<lambda_601a2a7da3b7a96e9554ac7215c4b07c>@@@?$__crt_seh_guarded_call@P6AXH@Z@@QEAAP6AXH@Z$$QEAV<lambda_450d765d439847d4c735a33c368b5fc0>@@AEAV<lambda_44731a7d0e6d81c3e6aa82d741081786>@@$$QEAV<lambda_601a2a7da3b7a96e9554ac7215c4b07c>@@@Z 0000000180032684     libucrt:signal.obj
 0002:0000c6a8       $unwind$fclose             00000001800326a8     libucrt:fclose.obj
 0002:0000c6a8       $unwind$_fflush_nolock     00000001800326a8     libucrt:fflush.obj
 0002:0000c6b8       $unwind$?common_flush_all@@YAH_N@Z 00000001800326b8     libucrt:fflush.obj
 0002:0000c6c0       $unwind$??$?RV<lambda_842d9ff0dc9ef11c61343bbaebe7f885>@@AEAV<lambda_c5860995281e5c4ce005b3de8f5874ee>@@V<lambda_d90129c13df834fdcbf8d2b88dafcf2d>@@@?$__crt_seh_guarded_call@X@@QEAAX$$QEAV<lambda_842d9ff0dc9ef11c61343bbaebe7f885>@@AEAV<lambda_c5860995281e5c4ce005b3de8f5874ee>@@$$QEAV<lambda_d90129c13df834fdcbf8d2b88dafcf2d>@@@Z 00000001800326c0     libucrt:fflush.obj
 0002:0000c6e4       $unwind$??$?RV<lambda_886d6c58226a84441f68b9f2b8217b83>@@AEAV<lambda_ab61a845afdef5b7c387490eaf3616ee>@@V<lambda_f7f22ab5edc0698d5f6905b0d3f44752>@@@?$__crt_seh_guarded_call@X@@QEAAX$$QEAV<lambda_886d6c58226a84441f68b9f2b8217b83>@@AEAV<lambda_ab61a845afdef5b7c387490eaf3616ee>@@$$QEAV<lambda_f7f22ab5edc0698d5f6905b0d3f44752>@@@Z 00000001800326e4     libucrt:fflush.obj
 0002:0000c70c       $unwind$__acrt_update_thread_locale_data 000000018003270c     libucrt:locale_refcounting.obj
 0002:0000c730       $unwind$__acrt_locale_free_monetary 0000000180032730     libucrt:initmon.obj
 0002:0000c738       $unwind$__acrt_locale_free_time 0000000180032738     libucrt:inittime.obj
 0002:0000c748       $unwind$__acrt_GetStringTypeA 0000000180032748     libucrt:getstringtypea.obj
 0002:0000c770       $unwind$__acrt_fp_strflt_to_string 0000000180032770     libucrt:_fptostr.obj
 0002:0000c78c       $unwind$__acrt_fltout      000000018003278c     libucrt:cfout.obj
 0002:0000c7ac       $unwind$?divide@__crt_strtox@@YA_KAEAUbig_integer@1@AEBU21@@Z 00000001800327ac     libucrt:cfout.obj
 0002:0000c7c4       $chain$0$?divide@__crt_strtox@@YA_KAEAUbig_integer@1@AEBU21@@Z 00000001800327c4     libucrt:cfout.obj
 0002:0000c7d8       $chain$1$?divide@__crt_strtox@@YA_KAEAUbig_integer@1@AEBU21@@Z 00000001800327d8     libucrt:cfout.obj
 0002:0000c7e8       $unwind$?__mbsrtowcs_utf8@__crt_mbstring@@YA_KPEA_WPEAPEBD_KPEAU_Mbstatet@@AEAV__crt_cached_ptd_host@@@Z 00000001800327e8     libucrt:mbrtowc.obj
 0002:0000c800       $unwind$_fcloseall         0000000180032800     libucrt:closeall.obj
 0002:0000c824       $unwind$__acrt_lowio_destroy_handle_array 0000000180032824     libucrt:osfinfo.obj
 0002:0000c834       $unwind$__acrt_lowio_ensure_fh_exists 0000000180032834     libucrt:osfinfo.obj
 0002:0000c860       $unwind$qsort              0000000180032860     libucrt:qsort.obj
 0002:0000c878       $chain$4$qsort             0000000180032878     libucrt:qsort.obj
 0002:0000c89c       $chain$5$qsort             000000018003289c     libucrt:qsort.obj
 0002:0000c8ac       $unwind$strpbrk            00000001800328ac     libucrt:strpbrk.obj
 0002:0000c8bc       $unwind$fallbackMethod     00000001800328bc     libucrt:strpbrk.obj
 0002:0000c8cc       $unwind$__acrt_LCMapStringA 00000001800328cc     libucrt:lcmapstringa.obj
 0002:0000c8dc       $unwind$?__acrt_LCMapStringA_stat@@YAHPEAU__crt_locale_pointers@@PEB_WKPEBDHPEADHHH@Z 00000001800328dc     libucrt:lcmapstringa.obj
 0002:0000c904       $unwind$_commit            0000000180032904     libucrt:commit.obj
 0002:0000c90c       $unwind$??$?RV<lambda_a37b2b86f63e897a80ea819b0eb08c01>@@AEAV<lambda_38ce7e780aa69e748d6df282ebc68efe>@@V<lambda_99fb1378e971ab6e7edea83e3a7a83a2>@@@?$__crt_seh_guarded_call@H@@QEAAH$$QEAV<lambda_a37b2b86f63e897a80ea819b0eb08c01>@@AEAV<lambda_38ce7e780aa69e748d6df282ebc68efe>@@$$QEAV<lambda_99fb1378e971ab6e7edea83e3a7a83a2>@@@Z 000000018003290c     libucrt:commit.obj
 0002:0000c930       $unwind$_write_nolock      0000000180032930     libucrt:write.obj
 0002:0000c948       $unwind$_write_internal    0000000180032948     libucrt:write.obj
 0002:0000c978       $unwind$?write_double_translated_ansi_nolock@@YA?AUwrite_result@?A0x17268360@@HQEBDIAEAV__crt_cached_ptd_host@@@Z 0000000180032978     libucrt:write.obj
 0002:0000c9a0       $ip2state$?write_double_translated_ansi_nolock@@YA?AUwrite_result@?A0x17268360@@HQEBDIAEAV__crt_cached_ptd_host@@@Z 00000001800329a0     libucrt:write.obj
 0002:0000c9a8       $unwind$?write_text_ansi_nolock@@YA?AUwrite_result@?A0x17268360@@HQEBDI@Z 00000001800329a8     libucrt:write.obj
 0002:0000c9a8       $unwind$?write_text_utf16le_nolock@@YA?AUwrite_result@?A0x17268360@@HQEBDI@Z 00000001800329a8     libucrt:write.obj
 0002:0000c9c8       $unwind$?write_text_utf8_nolock@@YA?AUwrite_result@?A0x17268360@@HQEBDI@Z 00000001800329c8     libucrt:write.obj
 0002:0000c9f0       $xdatasym                  00000001800329f0     libucrt:log10.obj
 0002:0000c9fc       $unwind$__acrt_fenv_set_control 00000001800329fc     libucrt:_fenvutils.obj
 0002:0000ca0c       $unwind$?__mbrtoc32_utf8@__crt_mbstring@@YA_KPEA_UPEBD_KPEAU_Mbstatet@@AEAV__crt_cached_ptd_host@@@Z 0000000180032a0c     libucrt:mbrtoc32.obj
 0002:0000ca28       $unwind$?_fclose_nolock_internal@@YAHQEAU_iobuf@@AEAV__crt_cached_ptd_host@@@Z 0000000180032a28     libucrt:fclose.obj
 0002:0000ca38       $unwind$?_fclose_internal@@YAHQEAU_iobuf@@AEAV__crt_cached_ptd_host@@@Z 0000000180032a38     libucrt:fclose.obj
 0002:0000ca5c       $unwind$_putwch_nolock     0000000180032a5c     libucrt:putwch.obj
 0002:0000ca64       $unwind$common_control87   0000000180032a64     libucrt:ieee.obj
 0002:0000ca90       $unwind$_call_matherr      0000000180032a90     libucrt:libm_error.obj
 0002:0000ca98       $unwind$_handle_error      0000000180032a98     libucrt:libm_error.obj
 0002:0000cab8       $unwind$__acrt_initialize_fma3 0000000180032ab8     libucrt:fma3_available.obj
 0002:0000cac0       $unwind$_log_special_common 0000000180032ac0     libucrt:log_special.obj
 0002:0000cacc       $unwind$_close_internal    0000000180032acc     libucrt:close.obj
 0002:0000cad4       $unwind$??$?RV<lambda_ad8af0d99a0adf03d037d7dffe354bb5>@@AEAV<lambda_c9ba49e555ba839a7b07aa3fbecb7617>@@V<lambda_2f1ebd5d68526518146ae959c9e734c8>@@@?$__crt_seh_guarded_call@H@@QEAAH$$QEAV<lambda_ad8af0d99a0adf03d037d7dffe354bb5>@@AEAV<lambda_c9ba49e555ba839a7b07aa3fbecb7617>@@$$QEAV<lambda_2f1ebd5d68526518146ae959c9e734c8>@@@Z 0000000180032ad4     libucrt:close.obj
 0002:0000caf8       $xdatasym                  0000000180032af8     libucrt:fpsr.obj
 0002:0000cb00       $unwind$_raise_exc_ex      0000000180032b00     libucrt:fpexcept.obj
 0002:0000cb14       $unwind$_ctrlfp            0000000180032b14     libucrt:fpctrl.obj
 0002:0000cb3c       $unwind$_IsNonwritableInCurrentImage 0000000180032b3c     LIBCMT:pesect.obj
 0002:0000cb60       $unwind$strrchr            0000000180032b60     libvcruntime:strrchr.obj
 0002:0000ccd0       .edata                     0000000180032cd0     OPOSBillDispenser.exp
 0002:0000ccf8       rgpv                       0000000180032cf8     OPOSBillDispenser.exp
 0002:0000cd08       rgszName                   0000000180032d08     OPOSBillDispenser.exp
 0002:0000cd18       rgwOrd                     0000000180032d18     OPOSBillDispenser.exp
 0002:0000cd20       szName                     0000000180032d20     OPOSBillDispenser.exp
 0002:0000cd36       $N00001                    0000000180032d36     OPOSBillDispenser.exp
 0002:0000cd46       $N00002                    0000000180032d46     OPOSBillDispenser.exp
 0002:0000cd58       $N00003                    0000000180032d58     OPOSBillDispenser.exp
 0002:0000cd6a       $N00004                    0000000180032d6a     OPOSBillDispenser.exp
 0002:0000d6ba       .idata$6                   00000001800336ba     kernel32:KERNEL32.dll
 0002:0000d8d2       .idata$6                   00000001800338d2     user32:USER32.dll
 0002:0000da06       .idata$6                   0000000180033a06     gdi32:GDI32.dll
 0002:0000daac       .idata$6                   0000000180033aac     advapi32:ADVAPI32.dll
 0002:0000dbc8       .idata$6                   0000000180033bc8     ole32:ole32.dll
 0002:0000dbd2       .idata$6                   0000000180033bd2     oleaut32:OLEAUT32.dll
 0003:000001c0       ?ObjectMap@@3PAU_ATL_OBJMAP_ENTRY30@ATL@@A 00000001800351c0     BillDispenser.obj
 0003:000002d4       ?s_RequiredMethodsPerRelease@@3PAHA 00000001800352d4     BillDispenserImpl.obj
 0003:000002e0       ?s_SOMethodNames@@3PAPEADA 00000001800352e0     BillDispenserImpl.obj
 0003:000003c0       ?__vcrt_flsindex@@3KA      00000001800353c0     libvcruntime:per_thread_data.obj
 0003:000003d0       ?errno_no_memory@@3HA      00000001800353d0     libucrt:errno.obj
 0003:000003d4       ?doserrno_no_memory@@3KA   00000001800353d4     libucrt:errno.obj
 0003:000003e0       ?__acrt_flsindex@@3KA      00000001800353e0     libucrt:per_thread_data.obj
 0003:000008a0       _mbctypes                  00000001800358a0     libucrt:mbctype.obj
 0003:000009b0       _mbcasemaps                00000001800359b0     libucrt:mbctype.obj
 0003:00000ab0       ?__rgctypeflag@@3PADA      0000000180035ab0     libucrt:mbctype.obj
 0003:00000ac0       ?__rgcode_page_info@@3PAUcode_page_info@@A 0000000180035ac0     libucrt:mbctype.obj
 0003:00000d60       ?dazSupported@?1??common_control87@@9@9 0000000180035d60     libucrt:ieee.obj
 0003:00000d70       ?__dcrt_lowio_console_output_handle@@3PEAXEA 0000000180035d70     libucrt:initcon.obj
 0003:00000d80       ?dazSupported@?1??_ctrlfp@@9@9 0000000180035d80     libucrt:fpctrl.obj
 0003:00000fd0       ?is_initialized_as_dll@@3_NA 0000000180035fd0     LIBCMT:utility.obj
 0003:00000fd1       ?module_local_atexit_table_initialized@@3_NA 0000000180035fd1     LIBCMT:utility.obj
 0003:00000fd8       ?module_local_atexit_table@@3U_onexit_table_t@@A 0000000180035fd8     LIBCMT:utility.obj
 0003:00000ff0       ?module_local_at_quick_exit_table@@3U_onexit_table_t@@A 0000000180035ff0     LIBCMT:utility.obj
 0003:00001008       ?g_tss_cv@@3U_RTL_CONDITION_VARIABLE@@A 0000000180036008     LIBCMT:thread_safe_statics.obj
 0003:00001010       ?g_tss_event@@3PEAXEA      0000000180036010     LIBCMT:thread_safe_statics.obj
 0003:00001018       ?g_tss_mutex@@3U_RTL_CRITICAL_SECTION@@A 0000000180036018     LIBCMT:thread_safe_statics.obj
 0003:00001040       ?g_sleep_condition_variable_cs@@3P6AHPEAU_RTL_CONDITION_VARIABLE@@PEAU_RTL_CRITICAL_SECTION@@K@ZEA 0000000180036040     LIBCMT:thread_safe_statics.obj
 0003:00001048       ?g_wake_all_condition_variable@@3P6AXPEAU_RTL_CONDITION_VARIABLE@@@ZEA 0000000180036048     LIBCMT:thread_safe_statics.obj
 0003:00001050       GS_ExceptionRecord         0000000180036050     LIBCMT:gs_report.obj
 0003:000010f0       GS_ContextRecord           00000001800360f0     LIBCMT:gs_report.obj
 0003:000015c4       ?__proc_attached@@3HA      00000001800365c4     LIBCMT:dll_dllmain.obj
 0003:00001658       ?AllocateData@@3P6APEAUAtlThunkData_t@@XZEA 0000000180036658     atls:atlthunk.obj
 0003:00001660       ?InitData@@3P6AXPEAUAtlThunkData_t@@PEAX_K@ZEA 0000000180036660     atls:atlthunk.obj
 0003:00001668       ?DataToCode@@3P6AP6A_JPEAUHWND__@@I_K_J@ZPEAUAtlThunkData_t@@@ZEA 0000000180036668     atls:atlthunk.obj
 0003:00001670       ?FreeData@@3P6AXPEAUAtlThunkData_t@@@ZEA 0000000180036670     atls:atlthunk.obj
 0003:00001678       ?Initialized@@3_NA         0000000180036678     atls:atlthunk.obj
 0003:00001690       ?__vcrt_startup_thread_ptd@@3U__vcrt_ptd@@A 0000000180036690     libvcruntime:per_thread_data.obj
 0003:00001710       __vcrt_lock_table          0000000180036710     libvcruntime:locks.obj
 0003:00001738       __vcrt_locks_initialized   0000000180036738     libvcruntime:locks.obj
 0003:00001780       ?heap@@3V_HeapManager@@A   0000000180036780     libvcruntime:undname.obj
 0003:000017a8       ?module_handles@@3PAPEAUHINSTANCE__@@A 00000001800367a8     libvcruntime:winapi_downlevel.obj
 0003:000017c0       ?function_pointers@@3PAPEAXA 00000001800367c0     libvcruntime:winapi_downlevel.obj
 0003:000017e8       ?__acrt_invalid_parameter_handler@@3V?$dual_state_global@P6AXPEB_W00I_K@Z@__crt_state_management@@A 00000001800367e8     libucrt:invalid_parameter.obj
 0003:000017f0       ?c_termination_complete@@3JA 00000001800367f0     libucrt:exit.obj
 0003:000017f8       ?thread_local_exit_callback_func@@3P6AXPEAXK0@ZEA 00000001800367f8     libucrt:exit.obj
 0003:00001810       ?program_name@?1???$common_configure_argv@D@@YAHW4_crt_argv_mode@@@Z@4PADA 0000000180036810     libucrt:argv_parsing.obj
 0003:00001968       ?__acrt_new_handler@@3V?$dual_state_global@P6AH_K@Z@__crt_state_management@@A 0000000180036968     libucrt:new_handler.obj
 0003:00001980       ?module_handles@@3PAPEAUHINSTANCE__@@A 0000000180036980     libucrt:winapi_thunks.obj
 0003:00001a20       ?encoded_function_pointers@@3PAPEAXA 0000000180036a20     libucrt:winapi_thunks.obj
 0003:00001b10       ?internal_state@?1??_mbtowc_internal@@9@4U_Mbstatet@@A 0000000180036b10     libucrt:mbtowc.obj
 0003:00001b28       ?enable_percent_n@@3_KA    0000000180036b28     libucrt:printf_count_output.obj
 0003:00001f50       ?__acrt_lock_table@@3PAU_RTL_CRITICAL_SECTION@@A 0000000180036f50     libucrt:locks.obj
 0003:00002180       ?__acrt_locks_initialized@@3IA 0000000180037180     libucrt:locks.obj
 0003:000021a0       ?fSystemSet@@3HA           00000001800371a0     libucrt:mbctype.obj
 0003:000021a4       ?initialized@?1??__acrt_initialize_multibyte@@9@4_NA 00000001800371a4     libucrt:mbctype.obj
 0003:000021e0       ?ctrlc_action@@3V?$dual_state_global@P6AXH@Z@__crt_state_management@@A 00000001800371e0     libucrt:signal.obj
 0003:000021e8       ?ctrlbreak_action@@3V?$dual_state_global@P6AXH@Z@__crt_state_management@@A 00000001800371e8     libucrt:signal.obj
 0003:000021f0       ?abort_action@@3V?$dual_state_global@P6AXH@Z@__crt_state_management@@A 00000001800371f0     libucrt:signal.obj
 0003:000021f8       ?term_action@@3V?$dual_state_global@P6AXH@Z@__crt_state_management@@A 00000001800371f8     libucrt:signal.obj
 0003:00002200       ?user_matherr@@3V?$dual_state_global@P6AHPEAU_exception@@@Z@__crt_state_management@@A 0000000180037200     libucrt:matherr.obj
 0003:00002210       ?__acrt_global_new_mode@@3V?$dual_state_global@J@__crt_state_management@@A 0000000180037210     libucrt:new_mode.obj
 0003:00002218       ?internal_pst@?1??__mbrtoc32_utf8@__crt_mbstring@@YA_KPEA_UPEBD_KPEAU_Mbstatet@@AEAV__crt_cached_ptd_host@@@Z@4U3@A 0000000180037218     libucrt:mbrtoc32.obj
 0003:00002220       ?__acrt_app_type@@3W4_crt_app_type@@A 0000000180037220     libucrt:report_runtime_error.obj
 0005:00000000       MoveSmall                  000000018003a000     libvcruntime:memcpy.obj
 0005:00000040       MoveSmallYmm               000000018003a040     libvcruntime:memcpy.obj
 0005:00000064       MoveSmallYmmNT             000000018003a064     libvcruntime:memcpy.obj
 0005:00000088       MoveSmallXmm               000000018003a088     libvcruntime:memcpy.obj
 0005:000000b0       MsetTab                    000000018003a0b0     libvcruntime:memset.obj
 0006:00000220       $R000000                   000000018003b220     BillDispenser.res
 0006:00000bc8       $R0009A8                   000000018003bbc8     BillDispenser.res
 0006:00000cb0       $R000A90                   000000018003bcb0     BillDispenser.res
 0006:00000f18       $R000CF8                   000000018003bf18     BillDispenser.res
 0006:00001438       $R001218                   000000018003c438     BillDispenser.res
 0006:00003e50       $R003C30                   000000018003ee50     BillDispenser.res
 0006:00003e90       $R003C70                   000000018003ee90     BillDispenser.res
