 OPOSGraphicDisplay

 Timestamp is 61fa0ec2 (Wed Feb  2 13:55:30 2022)

 Preferred load address is 0000000180000000

 Start         Length     Name                   Class
 0001:00000000 000000c0H .text$di                CODE
 0001:000000c0 00023fa0H .text$mn                CODE
 0001:00024060 00000040H .text$mn$00             CODE
 0001:000240a0 00000660H .text$x                 CODE
 0001:00024700 00000078H .text$yd                CODE
 0002:00000000 00000638H .idata$5                DATA
 0002:00000638 00000030H .00cfg                  DATA
 0002:00000668 00000008H .CRT$XCA                DATA
 0002:00000670 00000008H .CRT$XCL                DATA
 0002:00000678 00000020H .CRT$XCU                DATA
 0002:00000698 00000008H .CRT$XCZ                DATA
 0002:000006a0 00000008H .CRT$XIA                DATA
 0002:000006a8 00000020H .CRT$XIC                DATA
 0002:000006c8 00000008H .CRT$XIZ                DATA
 0002:000006d0 00000008H .CRT$XLA                DATA
 0002:000006d8 00000008H .CRT$XLZ                DATA
 0002:000006e0 00000008H .CRT$XPA                DATA
 0002:000006e8 00000010H .CRT$XPX                DATA
 0002:000006f8 00000008H .CRT$XPXA               DATA
 0002:00000700 00000008H .CRT$XPZ                DATA
 0002:00000708 00000008H .CRT$XTA                DATA
 0002:00000710 00000010H .CRT$XTZ                DATA
 0002:00000718 00000000H .gehcont$y              DATA
 0002:00000718 00000000H .gfids$y                DATA
 0002:00000720 0000a560H .rdata                  DATA
 0002:0000ac80 00000000H .rdata$CastGuardVftablesA DATA
 0002:0000ac80 00000000H .rdata$CastGuardVftablesC DATA
 0002:0000ac80 00000028H .rdata$T                DATA
 0002:0000aca8 00000274H .rdata$r                DATA
 0002:0000af1c 00000048H .rdata$voltmd           DATA
 0002:0000af64 0000043cH .rdata$zzzdbg           DATA
 0002:0000b3a0 00000008H .rtc$IAA                DATA
 0002:0000b3a8 00000008H .rtc$IZZ                DATA
 0002:0000b3b0 00000008H .rtc$TAA                DATA
 0002:0000b3b8 00000008H .rtc$TZZ                DATA
 0002:0000b3c0 00000004H .tls                    DATA
 0002:0000b3c4 00000004H .tls$                   DATA
 0002:0000b3c8 00000008H .tls$ZZZ                DATA
 0002:0000b3d0 00001938H .xdata                  DATA
 0002:0000cd08 00000150H .xdata$x                DATA
 0002:0000ce58 00000008H ATL$__a                 DATA
 0002:0000ce60 00000010H ATL$__z                 DATA
 0002:0000ce70 000000b0H .edata                  DATA
 0002:0000cf20 00000078H .idata$2                DATA
 0002:0000cf98 00000018H .idata$3                DATA
 0002:0000cfb0 00000638H .idata$4                DATA
 0002:0000d5e8 00000c5cH .idata$6                DATA
 0003:00000000 00000d98H .data                   DATA
 0003:00000d98 000000a8H .data$r                 DATA
 0003:00000e40 00000020H .data$rs                DATA
 0003:00000e60 000013ecH .bss                    DATA
 0004:00000000 00002064H .pdata                  DATA
 0005:00000000 000000f4H _RDATA                  DATA
 0006:00000000 00000220H .rsrc$01                DATA
 0006:00000220 00004348H .rsrc$02                DATA

  Address         Publics by Value              Rva+Base               Lib:Object

 0000:00000000       ___safe_se_handler_table   0000000000000000     <absolute>
 0000:00000000       __guard_longjmp_table      0000000000000000     <absolute>
 0000:00000000       __x64_code_ranges_to_entry_points 0000000000000000     <absolute>
 0000:00000000       __arm64x_redirection_metadata 0000000000000000     <absolute>
 0000:00000000       __guard_iat_table          0000000000000000     <absolute>
 0000:00000000       __guard_fids_count         0000000000000000     <absolute>
 0000:00000000       __arm64x_extra_rfe_table   0000000000000000     <absolute>
 0000:00000000       __guard_iat_count          0000000000000000     <absolute>
 0000:00000000       __guard_longjmp_count      0000000000000000     <absolute>
 0000:00000000       __dynamic_value_reloc_table 0000000000000000     <absolute>
 0000:00000000       __x64_code_ranges_to_entry_points_count 0000000000000000     <absolute>
 0000:00000000       __hybrid_code_map          0000000000000000     <absolute>
 0000:00000000       __hybrid_auxiliary_iat     0000000000000000     <absolute>
 0000:00000000       __hybrid_auxiliary_iat_copy 0000000000000000     <absolute>
 0000:00000000       __arm64x_extra_rfe_table_size 0000000000000000     <absolute>
 0000:00000000       ___safe_se_handler_count   0000000000000000     <absolute>
 0000:00000000       __AbsoluteZero             0000000000000000     <absolute>
 0000:00000000       __guard_check_icall_a64n_fptr 0000000000000000     <absolute>
 0000:00000000       __guard_eh_cont_count      0000000000000000     <absolute>
 0000:00000000       __guard_fids_table         0000000000000000     <absolute>
 0000:00000000       __arm64x_redirection_metadata_count 0000000000000000     <absolute>
 0000:00000000       __enclave_config           0000000000000000     <absolute>
 0000:00000000       __guard_eh_cont_table      0000000000000000     <absolute>
 0000:00000000       __arm64x_native_entrypoint 0000000000000000     <absolute>
 0000:00000000       __hybrid_code_map_count    0000000000000000     <absolute>
 0000:00000100       __guard_flags              0000000000000100     <absolute>
 0000:00000000       __ImageBase                0000000180000000     <linker-defined>
 0001:000000c0       ?DupWide@_CW@@AEAAXXZ      00000001800010c0 f   CWString.obj
 0001:000000e8       ?cw_dup@@YAXPEBDAEAHAEAPEA_W1@Z 00000001800010e8 f   CWString.obj
 0001:000001c8       ?cw_memcpy@@YAHPEA_WPEBDH@Z 00000001800011c8 f   CWString.obj
 0001:00000214       ?cw_strcpy@@YAHPEA_WPEBD@Z 0000000180001214 f   CWString.obj
 0001:00000228       ??0CAtlComModule@ATL@@QEAA@XZ 0000000180001228 f i OposVariant.obj
 0001:000002a8       ??0CAtlWinModule@ATL@@QEAA@XZ 00000001800012a8 f i OposVariant.obj
 0001:00000314       ??0OposDispParms@@QEAA@PEAVOposVariant@@H@Z 0000000180001314 f   OposVariant.obj
 0001:000003bc       ??1OposDispParms@@QEAA@XZ  00000001800013bc f   OposVariant.obj
 0001:000003d4       ??_Estringdispid@CComTypeInfoHolder@ATL@@QEAAPEAXI@Z 00000001800013d4 f i OposVariant.obj
 0001:00000478       ?AtlWinModuleTerm@ATL@@YAJPEAU_ATL_WIN_MODULE70@1@PEAUHINSTANCE__@@@Z 0000000180001478 f i OposVariant.obj
 0001:00000528       ?ChangeBSTR@OposVariant@@QEAAXPEAPEA_WAEAJ@Z 0000000180001528 f   OposVariant.obj
 0001:00000588       ?ChangeLONG@OposVariant@@QEAAXPEAJAEAJ@Z 0000000180001588 f   OposVariant.obj
 0001:000005e4       ?GetLONG@OposVariant@@QEAAJXZ 00000001800015e4 f   OposVariant.obj
 0001:00000608       ?SetBSTR@OposVariant@@QEAAXPEA_WAEAJ@Z 0000000180001608 f   OposVariant.obj
 0001:00000648       ?SetBSTR_Copy@OposVariant@@QEAAXPEA_WAEAJ@Z 0000000180001648 f   OposVariant.obj
 0001:000006b8       ?SetBSTR_InOutPtr@OposVariant@@QEAA_NPEAPEA_WAEAJ@Z 00000001800016b8 f   OposVariant.obj
 0001:00000708       ?SetDispatch_Ptr@OposVariant@@QEAAXPEAUIDispatch@@AEAJ@Z 0000000180001708 f   OposVariant.obj
 0001:00000760       ?SetLONG@OposVariant@@QEAAXJ@Z 0000000180001760 f   OposVariant.obj
 0001:00000790       ?SetLONG_Ptr@OposVariant@@QEAAXPEAJAEAJ@Z 0000000180001790 f   OposVariant.obj
 0001:000007dc       ?SetString@OposVariant@@QEAAXPEB_WAEAJ@Z 00000001800017dc f   OposVariant.obj
 0001:00000840       ?SetVARIANT_BOOL@OposVariant@@QEAAXF@Z 0000000180001840 f   OposVariant.obj
 0001:00000878       ?Term@CAtlComModule@ATL@@QEAAXXZ 0000000180001878 f i OposVariant.obj
 0001:000008e8       ?_AtlInitializeCriticalSectionEx@ATL@@YAHPEAU_RTL_CRITICAL_SECTION@@KK@Z 00000001800018e8 f i OposVariant.obj
 0001:000008f0       ?_AtlRaiseException@ATL@@YAXKK@Z 00000001800018f0 f i OposVariant.obj
 0001:00000900       ?Next@?$CComEnumImpl@UIEnumConnections@@$1?_GUID_b196b287_bab4_101a_b69c_00aa00341d07@@3U__s_GUID@@BUtagCONNECTDATA@@V?$_Copy@UtagCONNECTDATA@@@ATL@@@ATL@@UEAAJKPEAUtagCONNECTDATA@@PEAK@Z 0000000180001900 f i GraphicDisplay.obj
 0001:000009c8       ?Skip@?$CComEnumImpl@UIEnumConnections@@$1?_GUID_b196b287_bab4_101a_b69c_00aa00341d07@@3U__s_GUID@@BUtagCONNECTDATA@@V?$_Copy@UtagCONNECTDATA@@@ATL@@@ATL@@UEAAJK@Z 00000001800019c8 f i GraphicDisplay.obj
 0001:000009f4       ?Reset@?$CComEnumImpl@UIEnumConnectionPoints@@$1?_GUID_b196b285_bab4_101a_b69c_00aa00341d07@@3U__s_GUID@@BPEAUIConnectionPoint@@V?$_CopyInterface@UIConnectionPoint@@@ATL@@@ATL@@UEAAJXZ 00000001800019f4 f i GraphicDisplay.obj
 0001:000009f4       ?Reset@?$CComEnumImpl@UIEnumConnections@@$1?_GUID_b196b287_bab4_101a_b69c_00aa00341d07@@3U__s_GUID@@BUtagCONNECTDATA@@V?$_Copy@UtagCONNECTDATA@@@ATL@@@ATL@@UEAAJXZ 00000001800019f4 f i GraphicDisplay.obj
 0001:00000a00       ?Clone@?$CComEnumImpl@UIEnumConnections@@$1?_GUID_b196b287_bab4_101a_b69c_00aa00341d07@@3U__s_GUID@@BUtagCONNECTDATA@@V?$_Copy@UtagCONNECTDATA@@@ATL@@@ATL@@UEAAJPEAPEAUIEnumConnections@@@Z 0000000180001a00 f i GraphicDisplay.obj
 0001:00000b2c       ?AddRef@?$CComObject@V?$CComEnum@UIEnumConnections@@$1?_GUID_b196b287_bab4_101a_b69c_00aa00341d07@@3U__s_GUID@@BUtagCONNECTDATA@@V?$_Copy@UtagCONNECTDATA@@@ATL@@VCComSingleThreadModel@6@@ATL@@@ATL@@UEAAKXZ 0000000180001b2c f i GraphicDisplay.obj
 0001:00000b2c       ?AddRef@?$CComObject@V?$CComEnum@UIEnumConnectionPoints@@$1?_GUID_b196b285_bab4_101a_b69c_00aa00341d07@@3U__s_GUID@@BPEAUIConnectionPoint@@V?$_CopyInterface@UIConnectionPoint@@@ATL@@VCComSingleThreadModel@6@@ATL@@@ATL@@UEAAKXZ 0000000180001b2c f i GraphicDisplay.obj
 0001:00000b38       ?Release@?$CComObject@V?$CComEnum@UIEnumConnections@@$1?_GUID_b196b287_bab4_101a_b69c_00aa00341d07@@3U__s_GUID@@BUtagCONNECTDATA@@V?$_Copy@UtagCONNECTDATA@@@ATL@@VCComSingleThreadModel@6@@ATL@@@ATL@@UEAAKXZ 0000000180001b38 f i GraphicDisplay.obj
 0001:00000b38       ?Release@?$CComObject@V?$CComEnum@UIEnumConnectionPoints@@$1?_GUID_b196b285_bab4_101a_b69c_00aa00341d07@@3U__s_GUID@@BPEAUIConnectionPoint@@V?$_CopyInterface@UIConnectionPoint@@@ATL@@VCComSingleThreadModel@6@@ATL@@@ATL@@UEAAKXZ 0000000180001b38 f i GraphicDisplay.obj
 0001:00000b8c       ?QueryInterface@?$CComObject@V?$CComEnum@UIEnumConnections@@$1?_GUID_b196b287_bab4_101a_b69c_00aa00341d07@@3U__s_GUID@@BUtagCONNECTDATA@@V?$_Copy@UtagCONNECTDATA@@@ATL@@VCComSingleThreadModel@6@@ATL@@@ATL@@UEAAJAEBU_GUID@@PEAPEAX@Z 0000000180001b8c f i GraphicDisplay.obj
 0001:00000ba0       ??_E?$CComObject@V?$CComEnum@UIEnumConnections@@$1?_GUID_b196b287_bab4_101a_b69c_00aa00341d07@@3U__s_GUID@@BUtagCONNECTDATA@@V?$_Copy@UtagCONNECTDATA@@@ATL@@VCComSingleThreadModel@6@@ATL@@@ATL@@UEAAPEAXI@Z 0000000180001ba0 f i GraphicDisplay.obj
 0001:00000ba0       ??_G?$CComObject@V?$CComEnum@UIEnumConnections@@$1?_GUID_b196b287_bab4_101a_b69c_00aa00341d07@@3U__s_GUID@@BUtagCONNECTDATA@@V?$_Copy@UtagCONNECTDATA@@@ATL@@VCComSingleThreadModel@6@@ATL@@@ATL@@UEAAPEAXI@Z 0000000180001ba0 f i GraphicDisplay.obj
 0001:00000bf8       ?OnFinalMessage@?$CWindowImplBaseT@VCWindow@ATL@@V?$CWinTraits@$0FGAAAAAA@$0A@@2@@ATL@@UEAAXPEAUHWND__@@@Z 0000000180001bf8 f i GraphicDisplay.obj
 0001:00000bf8       _guard_check_icall_nop     0000000180001bf8 f i LIBCMT:guard_support.obj
 0001:00000bf8       ?ObjectMain@CComObjectRootBase@ATL@@SAX_N@Z 0000000180001bf8 f i GraphicDisplay.obj
 0001:00000bfc       ?ResizeBorder@?$IOleInPlaceActiveObjectImpl@VCOPOSGraphicDisplay@@@ATL@@UEAAJPEBUtagRECT@@PEAUIOleInPlaceUIWindow@@H@Z 0000000180001bfc f i GraphicDisplay.obj
 0001:00000bfc       ?OnAmbientPropertyChange@?$IOleControlImpl@VCOPOSGraphicDisplay@@@ATL@@UEAAJJ@Z 0000000180001bfc f i GraphicDisplay.obj
 0001:00000bfc       ?EnableModeless@?$IOleInPlaceActiveObjectImpl@VCOPOSGraphicDisplay@@@ATL@@UEAAJH@Z 0000000180001bfc f i GraphicDisplay.obj
 0001:00000bfc       ?GetCategoryMap@CComObjectRootBase@ATL@@SAPEBU_ATL_CATMAP_ENTRY@2@XZ 0000000180001bfc f i GraphicDisplay.obj
 0001:00000bfc       ?SetHostNames@?$IOleObjectImpl@VCOPOSGraphicDisplay@@@ATL@@UEAAJPEB_W0@Z 0000000180001bfc f i GraphicDisplay.obj
 0001:00000bfc       ?SaveCompleted@?$IPersistStorageImpl@VCOPOSGraphicDisplay@@@ATL@@UEAAJPEAUIStorage@@@Z 0000000180001bfc f i GraphicDisplay.obj
 0001:00000bfc       ?HandsOffStorage@?$IPersistStorageImpl@VCOPOSGraphicDisplay@@@ATL@@UEAAJXZ 0000000180001bfc f i GraphicDisplay.obj
 0001:00000bfc       ?IsUpToDate@?$IOleObjectImpl@VCOPOSGraphicDisplay@@@ATL@@UEAAJXZ 0000000180001bfc f i GraphicDisplay.obj
 0001:00000bfc       ?Update@?$IOleObjectImpl@VCOPOSGraphicDisplay@@@ATL@@UEAAJXZ 0000000180001bfc f i GraphicDisplay.obj
 0001:00000bfc       ?GetObjectDescription@?$CComCoClass@VCOPOSGraphicDisplay@@$1?CLSID_OPOSGraphicDisplay@@3U_GUID@@B@ATL@@SAPEB_WXZ 0000000180001bfc f i GraphicDisplay.obj
 0001:00000bfc       ?Release@CRegObject@ATL@@UEAAKXZ 0000000180001bfc f i GraphicDisplay.obj
 0001:00000bfc       ?OnFrameWindowActivate@?$IOleInPlaceActiveObjectImpl@VCOPOSGraphicDisplay@@@ATL@@UEAAJH@Z 0000000180001bfc f i GraphicDisplay.obj
 0001:00000c00       ??_E?$CComObject@VCOPOSGraphicDisplay@@@ATL@@W7EAAPEAXI@Z 0000000180001c00 f i GraphicDisplay.obj
 0001:00000c0c       ??_E?$CComObject@VCOPOSGraphicDisplay@@@ATL@@WHA@EAAPEAXI@Z 0000000180001c0c f i GraphicDisplay.obj
 0001:00000c18       ?QueryInterface@?$CComObject@VCOPOSGraphicDisplay@@@ATL@@WLI@EAAJAEBU_GUID@@PEAPEAX@Z 0000000180001c18 f i GraphicDisplay.obj
 0001:00000c24       ?AddRef@?$CComObject@VCOPOSGraphicDisplay@@@ATL@@WLI@EAAKXZ 0000000180001c24 f i GraphicDisplay.obj
 0001:00000c30       ?Release@?$CComObject@VCOPOSGraphicDisplay@@@ATL@@WLI@EAAKXZ 0000000180001c30 f i GraphicDisplay.obj
 0001:00000c3c       ?QueryInterface@?$CComObject@VCOPOSGraphicDisplay@@@ATL@@WMA@EAAJAEBU_GUID@@PEAPEAX@Z 0000000180001c3c f i GraphicDisplay.obj
 0001:00000c48       ?AddRef@?$CComObject@VCOPOSGraphicDisplay@@@ATL@@WMA@EAAKXZ 0000000180001c48 f i GraphicDisplay.obj
 0001:00000c54       ?Release@?$CComObject@VCOPOSGraphicDisplay@@@ATL@@WMA@EAAKXZ 0000000180001c54 f i GraphicDisplay.obj
 0001:00000c60       ?QueryInterface@?$CComObject@VCOPOSGraphicDisplay@@@ATL@@WMI@EAAJAEBU_GUID@@PEAPEAX@Z 0000000180001c60 f i GraphicDisplay.obj
 0001:00000c6c       ?AddRef@?$CComObject@VCOPOSGraphicDisplay@@@ATL@@WMI@EAAKXZ 0000000180001c6c f i GraphicDisplay.obj
 0001:00000c78       ?Release@?$CComObject@VCOPOSGraphicDisplay@@@ATL@@WMI@EAAKXZ 0000000180001c78 f i GraphicDisplay.obj
 0001:00000c84       ?QueryInterface@?$CComObject@VCOPOSGraphicDisplay@@@ATL@@WNA@EAAJAEBU_GUID@@PEAPEAX@Z 0000000180001c84 f i GraphicDisplay.obj
 0001:00000c90       ?AddRef@?$CComObject@VCOPOSGraphicDisplay@@@ATL@@WNA@EAAKXZ 0000000180001c90 f i GraphicDisplay.obj
 0001:00000c9c       ?Release@?$CComObject@VCOPOSGraphicDisplay@@@ATL@@WNA@EAAKXZ 0000000180001c9c f i GraphicDisplay.obj
 0001:00000ca8       ?QueryInterface@?$CComObject@VCOPOSGraphicDisplay@@@ATL@@WNI@EAAJAEBU_GUID@@PEAPEAX@Z 0000000180001ca8 f i GraphicDisplay.obj
 0001:00000cb4       ?AddRef@?$CComObject@VCOPOSGraphicDisplay@@@ATL@@WNI@EAAKXZ 0000000180001cb4 f i GraphicDisplay.obj
 0001:00000cc0       ?Release@?$CComObject@VCOPOSGraphicDisplay@@@ATL@@WNI@EAAKXZ 0000000180001cc0 f i GraphicDisplay.obj
 0001:00000ccc       ?QueryInterface@?$CComObject@VCOPOSGraphicDisplay@@@ATL@@WOA@EAAJAEBU_GUID@@PEAPEAX@Z 0000000180001ccc f i GraphicDisplay.obj
 0001:00000cd8       ?AddRef@?$CComObject@VCOPOSGraphicDisplay@@@ATL@@WOA@EAAKXZ 0000000180001cd8 f i GraphicDisplay.obj
 0001:00000ce4       ?Release@?$CComObject@VCOPOSGraphicDisplay@@@ATL@@WOA@EAAKXZ 0000000180001ce4 f i GraphicDisplay.obj
 0001:00000cf0       ?QueryInterface@?$CComObject@VCOPOSGraphicDisplay@@@ATL@@WOI@EAAJAEBU_GUID@@PEAPEAX@Z 0000000180001cf0 f i GraphicDisplay.obj
 0001:00000cfc       ?AddRef@?$CComObject@VCOPOSGraphicDisplay@@@ATL@@WOI@EAAKXZ 0000000180001cfc f i GraphicDisplay.obj
 0001:00000d08       ?Release@?$CComObject@VCOPOSGraphicDisplay@@@ATL@@WOI@EAAKXZ 0000000180001d08 f i GraphicDisplay.obj
 0001:00000d14       ?QueryInterface@?$CComObject@VCOPOSGraphicDisplay@@@ATL@@WPA@EAAJAEBU_GUID@@PEAPEAX@Z 0000000180001d14 f i GraphicDisplay.obj
 0001:00000d20       ?AddRef@?$CComObject@VCOPOSGraphicDisplay@@@ATL@@WPA@EAAKXZ 0000000180001d20 f i GraphicDisplay.obj
 0001:00000d2c       ?Release@?$CComObject@VCOPOSGraphicDisplay@@@ATL@@WPA@EAAKXZ 0000000180001d2c f i GraphicDisplay.obj
 0001:00000d38       ?QueryInterface@?$CComObject@VCOPOSGraphicDisplay@@@ATL@@WPI@EAAJAEBU_GUID@@PEAPEAX@Z 0000000180001d38 f i GraphicDisplay.obj
 0001:00000d44       ?AddRef@?$CComObject@VCOPOSGraphicDisplay@@@ATL@@WPI@EAAKXZ 0000000180001d44 f i GraphicDisplay.obj
 0001:00000d50       ?Release@?$CComObject@VCOPOSGraphicDisplay@@@ATL@@WPI@EAAKXZ 0000000180001d50 f i GraphicDisplay.obj
 0001:00000d5c       ?QueryInterface@?$CComObject@VCOPOSGraphicDisplay@@@ATL@@WBAA@EAAJAEBU_GUID@@PEAPEAX@Z 0000000180001d5c f i GraphicDisplay.obj
 0001:00000d68       ?AddRef@?$CComObject@VCOPOSGraphicDisplay@@@ATL@@WBAA@EAAKXZ 0000000180001d68 f i GraphicDisplay.obj
 0001:00000d74       ?Release@?$CComObject@VCOPOSGraphicDisplay@@@ATL@@WBAA@EAAKXZ 0000000180001d74 f i GraphicDisplay.obj
 0001:00000d80       ?QueryInterface@?$CComObject@VCOPOSGraphicDisplay@@@ATL@@WBAI@EAAJAEBU_GUID@@PEAPEAX@Z 0000000180001d80 f i GraphicDisplay.obj
 0001:00000d8c       ?AddRef@?$CComObject@VCOPOSGraphicDisplay@@@ATL@@WBAI@EAAKXZ 0000000180001d8c f i GraphicDisplay.obj
 0001:00000d98       ?Release@?$CComObject@VCOPOSGraphicDisplay@@@ATL@@WBAI@EAAKXZ 0000000180001d98 f i GraphicDisplay.obj
 0001:00000da4       ?QueryInterface@?$CComObject@VCOPOSGraphicDisplay@@@ATL@@WBBA@EAAJAEBU_GUID@@PEAPEAX@Z 0000000180001da4 f i GraphicDisplay.obj
 0001:00000db0       ?AddRef@?$CComObject@VCOPOSGraphicDisplay@@@ATL@@WBBA@EAAKXZ 0000000180001db0 f i GraphicDisplay.obj
 0001:00000dbc       ?Release@?$CComObject@VCOPOSGraphicDisplay@@@ATL@@WBBA@EAAKXZ 0000000180001dbc f i GraphicDisplay.obj
 0001:00000dc8       ?QueryInterface@?$CComObject@VCOPOSGraphicDisplay@@@ATL@@WBBI@EAAJAEBU_GUID@@PEAPEAX@Z 0000000180001dc8 f i GraphicDisplay.obj
 0001:00000dd4       ?AddRef@?$CComObject@VCOPOSGraphicDisplay@@@ATL@@WBBI@EAAKXZ 0000000180001dd4 f i GraphicDisplay.obj
 0001:00000de0       ?Release@?$CComObject@VCOPOSGraphicDisplay@@@ATL@@WBBI@EAAKXZ 0000000180001de0 f i GraphicDisplay.obj
 0001:00000dec       ?AddRef@?$CComObject@VCOPOSGraphicDisplay@@@ATL@@WBCI@EAAKXZ 0000000180001dec f i GraphicDisplay.obj
 0001:00000df8       ?Release@?$CComObject@VCOPOSGraphicDisplay@@@ATL@@WBCI@EAAKXZ 0000000180001df8 f i GraphicDisplay.obj
 0001:00000e04       ?AddRef@?$CComObject@VCOPOSGraphicDisplay@@@ATL@@WBEA@EAAKXZ 0000000180001e04 f i GraphicDisplay.obj
 0001:00000e10       ?Release@?$CComObject@VCOPOSGraphicDisplay@@@ATL@@WBEA@EAAKXZ 0000000180001e10 f i GraphicDisplay.obj
 0001:00000e1c       ??_E?$CComContainedObject@VCOPOSGraphicDisplay@@@ATL@@W7EAAPEAXI@Z 0000000180001e1c f i GraphicDisplay.obj
 0001:00000e28       ??_E?$CComContainedObject@VCOPOSGraphicDisplay@@@ATL@@WHA@EAAPEAXI@Z 0000000180001e28 f i GraphicDisplay.obj
 0001:00000e34       ?QueryInterface@?$CComContainedObject@VCOPOSGraphicDisplay@@@ATL@@WLI@EAAJAEBU_GUID@@PEAPEAX@Z 0000000180001e34 f i GraphicDisplay.obj
 0001:00000e40       ?AddRef@?$CComContainedObject@VCOPOSGraphicDisplay@@@ATL@@WLI@EAAKXZ 0000000180001e40 f i GraphicDisplay.obj
 0001:00000e4c       ?Release@?$CComContainedObject@VCOPOSGraphicDisplay@@@ATL@@WLI@EAAKXZ 0000000180001e4c f i GraphicDisplay.obj
 0001:00000e58       ?CreateInstance@CComClassFactory@ATL@@UEAAJPEAUIUnknown@@AEBU_GUID@@PEAPEAX@Z 0000000180001e58 f i GraphicDisplay.obj
 0001:00000eb8       ?QueryInterface@?$CComContainedObject@VCOPOSGraphicDisplay@@@ATL@@WMA@EAAJAEBU_GUID@@PEAPEAX@Z 0000000180001eb8 f i GraphicDisplay.obj
 0001:00000ec4       ?AddRef@?$CComContainedObject@VCOPOSGraphicDisplay@@@ATL@@WMA@EAAKXZ 0000000180001ec4 f i GraphicDisplay.obj
 0001:00000ed0       ?LockServer@CComClassFactory@ATL@@UEAAJH@Z 0000000180001ed0 f i GraphicDisplay.obj
 0001:00000ef4       ?Release@?$CComContainedObject@VCOPOSGraphicDisplay@@@ATL@@WMA@EAAKXZ 0000000180001ef4 f i GraphicDisplay.obj
 0001:00000f00       ?QueryInterface@?$CComContainedObject@VCOPOSGraphicDisplay@@@ATL@@WMI@EAAJAEBU_GUID@@PEAPEAX@Z 0000000180001f00 f i GraphicDisplay.obj
 0001:00000f0c       ?AddRef@?$CComContainedObject@VCOPOSGraphicDisplay@@@ATL@@WMI@EAAKXZ 0000000180001f0c f i GraphicDisplay.obj
 0001:00000f18       ?Release@?$CComContainedObject@VCOPOSGraphicDisplay@@@ATL@@WMI@EAAKXZ 0000000180001f18 f i GraphicDisplay.obj
 0001:00000f24       ?QueryInterface@?$CComContainedObject@VCOPOSGraphicDisplay@@@ATL@@WNA@EAAJAEBU_GUID@@PEAPEAX@Z 0000000180001f24 f i GraphicDisplay.obj
 0001:00000f30       ?AddRef@?$CComContainedObject@VCOPOSGraphicDisplay@@@ATL@@WNA@EAAKXZ 0000000180001f30 f i GraphicDisplay.obj
 0001:00000f3c       ?Release@?$CComContainedObject@VCOPOSGraphicDisplay@@@ATL@@WNA@EAAKXZ 0000000180001f3c f i GraphicDisplay.obj
 0001:00000f48       ?QueryInterface@?$CComContainedObject@VCOPOSGraphicDisplay@@@ATL@@WNI@EAAJAEBU_GUID@@PEAPEAX@Z 0000000180001f48 f i GraphicDisplay.obj
 0001:00000f54       ?AddRef@?$CComContainedObject@VCOPOSGraphicDisplay@@@ATL@@WNI@EAAKXZ 0000000180001f54 f i GraphicDisplay.obj
 0001:00000f60       ?Release@?$CComContainedObject@VCOPOSGraphicDisplay@@@ATL@@WNI@EAAKXZ 0000000180001f60 f i GraphicDisplay.obj
 0001:00000f6c       ?QueryInterface@?$CComContainedObject@VCOPOSGraphicDisplay@@@ATL@@WOA@EAAJAEBU_GUID@@PEAPEAX@Z 0000000180001f6c f i GraphicDisplay.obj
 0001:00000f78       ?AddRef@?$CComContainedObject@VCOPOSGraphicDisplay@@@ATL@@WOA@EAAKXZ 0000000180001f78 f i GraphicDisplay.obj
 0001:00000f84       ?Release@?$CComContainedObject@VCOPOSGraphicDisplay@@@ATL@@WOA@EAAKXZ 0000000180001f84 f i GraphicDisplay.obj
 0001:00000f90       ??_ECComClassFactory@ATL@@UEAAPEAXI@Z 0000000180001f90 f i GraphicDisplay.obj
 0001:00000f90       ??_GCComClassFactory@ATL@@UEAAPEAXI@Z 0000000180001f90 f i GraphicDisplay.obj
 0001:00000fe0       ?QueryInterface@?$CComContainedObject@VCOPOSGraphicDisplay@@@ATL@@WOI@EAAJAEBU_GUID@@PEAPEAX@Z 0000000180001fe0 f i GraphicDisplay.obj
 0001:00000fec       ?AddRef@?$CComContainedObject@VCOPOSGraphicDisplay@@@ATL@@WOI@EAAKXZ 0000000180001fec f i GraphicDisplay.obj
 0001:00000ff8       ?Release@?$CComContainedObject@VCOPOSGraphicDisplay@@@ATL@@WOI@EAAKXZ 0000000180001ff8 f i GraphicDisplay.obj
 0001:00001004       ?QueryInterface@?$CComContainedObject@VCOPOSGraphicDisplay@@@ATL@@WPA@EAAJAEBU_GUID@@PEAPEAX@Z 0000000180002004 f i GraphicDisplay.obj
 0001:00001010       ?AddRef@?$CComContainedObject@VCOPOSGraphicDisplay@@@ATL@@WPA@EAAKXZ 0000000180002010 f i GraphicDisplay.obj
 0001:0000101c       ?Release@?$CComContainedObject@VCOPOSGraphicDisplay@@@ATL@@WPA@EAAKXZ 000000018000201c f i GraphicDisplay.obj
 0001:00001028       ?QueryInterface@?$CComContainedObject@VCOPOSGraphicDisplay@@@ATL@@WPI@EAAJAEBU_GUID@@PEAPEAX@Z 0000000180002028 f i GraphicDisplay.obj
 0001:00001034       ?AddRef@?$CComContainedObject@VCOPOSGraphicDisplay@@@ATL@@WPI@EAAKXZ 0000000180002034 f i GraphicDisplay.obj
 0001:00001040       ?Release@?$CComContainedObject@VCOPOSGraphicDisplay@@@ATL@@WPI@EAAKXZ 0000000180002040 f i GraphicDisplay.obj
 0001:0000104c       ?QueryInterface@?$CComContainedObject@VCOPOSGraphicDisplay@@@ATL@@WBAA@EAAJAEBU_GUID@@PEAPEAX@Z 000000018000204c f i GraphicDisplay.obj
 0001:00001058       ?AddRef@?$CComContainedObject@VCOPOSGraphicDisplay@@@ATL@@WBAA@EAAKXZ 0000000180002058 f i GraphicDisplay.obj
 0001:00001064       ?Release@?$CComContainedObject@VCOPOSGraphicDisplay@@@ATL@@WBAA@EAAKXZ 0000000180002064 f i GraphicDisplay.obj
 0001:00001070       ?QueryInterface@?$CComContainedObject@VCOPOSGraphicDisplay@@@ATL@@WBAI@EAAJAEBU_GUID@@PEAPEAX@Z 0000000180002070 f i GraphicDisplay.obj
 0001:0000107c       ?AddRef@?$CComContainedObject@VCOPOSGraphicDisplay@@@ATL@@WBAI@EAAKXZ 000000018000207c f i GraphicDisplay.obj
 0001:00001088       ?Release@?$CComContainedObject@VCOPOSGraphicDisplay@@@ATL@@WBAI@EAAKXZ 0000000180002088 f i GraphicDisplay.obj
 0001:00001094       ?QueryInterface@?$CComContainedObject@VCOPOSGraphicDisplay@@@ATL@@WBBA@EAAJAEBU_GUID@@PEAPEAX@Z 0000000180002094 f i GraphicDisplay.obj
 0001:000010a0       ?AddRef@?$CComContainedObject@VCOPOSGraphicDisplay@@@ATL@@WBBA@EAAKXZ 00000001800020a0 f i GraphicDisplay.obj
 0001:000010ac       ?Release@?$CComContainedObject@VCOPOSGraphicDisplay@@@ATL@@WBBA@EAAKXZ 00000001800020ac f i GraphicDisplay.obj
 0001:000010b8       ?QueryInterface@?$CComContainedObject@VCOPOSGraphicDisplay@@@ATL@@WBBI@EAAJAEBU_GUID@@PEAPEAX@Z 00000001800020b8 f i GraphicDisplay.obj
 0001:000010c4       ?AddRef@?$CComContainedObject@VCOPOSGraphicDisplay@@@ATL@@WBBI@EAAKXZ 00000001800020c4 f i GraphicDisplay.obj
 0001:000010d0       ?Release@?$CComContainedObject@VCOPOSGraphicDisplay@@@ATL@@WBBI@EAAKXZ 00000001800020d0 f i GraphicDisplay.obj
 0001:000010dc       ?AddRef@?$CComContainedObject@VCOPOSGraphicDisplay@@@ATL@@WBCI@EAAKXZ 00000001800020dc f i GraphicDisplay.obj
 0001:000010e8       ?Release@?$CComContainedObject@VCOPOSGraphicDisplay@@@ATL@@WBCI@EAAKXZ 00000001800020e8 f i GraphicDisplay.obj
 0001:000010f4       ?AddRef@?$CComContainedObject@VCOPOSGraphicDisplay@@@ATL@@WBEA@EAAKXZ 00000001800020f4 f i GraphicDisplay.obj
 0001:00001100       ?Release@?$CComContainedObject@VCOPOSGraphicDisplay@@@ATL@@WBEA@EAAKXZ 0000000180002100 f i GraphicDisplay.obj
 0001:0000110c       ?GetWindowProc@?$CWindowImplBaseT@VCWindow@ATL@@V?$CWinTraits@$0FGAAAAAA@$0A@@2@@ATL@@UEAAP6A_JPEAUHWND__@@I_K_J@ZXZ 000000018000210c f i GraphicDisplay.obj
 0001:00001114       ?StartWindowProc@?$CWindowImplBaseT@VCWindow@ATL@@V?$CWinTraits@$0FGAAAAAA@$0A@@2@@ATL@@SA_JPEAUHWND__@@I_K_J@Z 0000000180002114 f i GraphicDisplay.obj
 0001:000011c8       ?GetTypeInfoCount@?$IDispatchImpl@UIOPOSGraphicDisplay@@$1?IID_IOPOSGraphicDisplay@@3U_GUID@@B$1?LIBID_OposGraphicDisplay_CCO@@3U3@B$00$0A@VCComTypeInfoHolder@ATL@@@ATL@@UEAAJPEAI@Z 00000001800021c8 f i GraphicDisplay.obj
 0001:000011dc       ?GetTypeInfo@?$IDispatchImpl@UIOPOSGraphicDisplay@@$1?IID_IOPOSGraphicDisplay@@3U_GUID@@B$1?LIBID_OposGraphicDisplay_CCO@@3U3@B$00$0A@VCComTypeInfoHolder@ATL@@@ATL@@UEAAJIKPEAPEAUITypeInfo@@@Z 00000001800021dc f i GraphicDisplay.obj
 0001:00001240       ?GetIDsOfNames@?$IDispatchImpl@UIOPOSGraphicDisplay@@$1?IID_IOPOSGraphicDisplay@@3U_GUID@@B$1?LIBID_OposGraphicDisplay_CCO@@3U3@B$00$0A@VCComTypeInfoHolder@ATL@@@ATL@@UEAAJAEBU_GUID@@PEAPEA_WIKPEAJ@Z 0000000180002240 f i GraphicDisplay.obj
 0001:0000124c       ?Invoke@?$IDispatchImpl@UIOPOSGraphicDisplay@@$1?IID_IOPOSGraphicDisplay@@3U_GUID@@B$1?LIBID_OposGraphicDisplay_CCO@@3U3@B$00$0A@VCComTypeInfoHolder@ATL@@@ATL@@UEAAJJAEBU_GUID@@KGPEAUtagDISPPARAMS@@PEAUtagVARIANT@@PEAUtagEXCEPINFO@@PEAI@Z 000000018000224c f i GraphicDisplay.obj
 0001:000012dc       ?CreateControlWindow@?$CComControl@VCOPOSGraphicDisplay@@V?$CWindowImpl@VCOPOSGraphicDisplay@@VCWindow@ATL@@V?$CWinTraits@$0FGAAAAAA@$0A@@3@@ATL@@@ATL@@UEAAPEAUHWND__@@PEAU3@AEAUtagRECT@@@Z 00000001800022dc f i GraphicDisplay.obj
 0001:00001314       ?ControlQueryInterface@?$CComControl@VCOPOSGraphicDisplay@@V?$CWindowImpl@VCOPOSGraphicDisplay@@VCWindow@ATL@@V?$CWinTraits@$0FGAAAAAA@$0A@@3@@ATL@@@ATL@@UEAAJAEBU_GUID@@PEAPEAX@Z 0000000180002314 f i GraphicDisplay.obj
 0001:00001328       ?GetUserClassID@?$IOleObjectImpl@VCOPOSGraphicDisplay@@@ATL@@UEAAJPEAU_GUID@@@Z 0000000180002328 f i GraphicDisplay.obj
 0001:00001328       ?GetClassID@?$IPersistStorageImpl@VCOPOSGraphicDisplay@@@ATL@@UEAAJPEAU_GUID@@@Z 0000000180002328 f i GraphicDisplay.obj
 0001:00001328       ?GetClassID@?$IPersistStreamInitImpl@VCOPOSGraphicDisplay@@@ATL@@UEAAJPEAU_GUID@@@Z 0000000180002328 f i GraphicDisplay.obj
 0001:00001344       ?IsDirty@?$IPersistStreamInitImpl@VCOPOSGraphicDisplay@@@ATL@@UEAAJXZ 0000000180002344 f i GraphicDisplay.obj
 0001:00001360       ?Load@?$IPersistStreamInitImpl@VCOPOSGraphicDisplay@@@ATL@@UEAAJPEAUIStream@@@Z 0000000180002360 f i GraphicDisplay.obj
 0001:00001378       ?Save@?$IPersistStreamInitImpl@VCOPOSGraphicDisplay@@@ATL@@UEAAJPEAUIStream@@H@Z 0000000180002378 f i GraphicDisplay.obj
 0001:00001390       ?GetSizeMax@?$IPersistStreamInitImpl@VCOPOSGraphicDisplay@@@ATL@@UEAAJPEAT_ULARGE_INTEGER@@@Z 0000000180002390 f i GraphicDisplay.obj
 0001:000015b4       ?InitNew@?$IPersistStreamInitImpl@VCOPOSGraphicDisplay@@@ATL@@UEAAJXZ 00000001800025b4 f i GraphicDisplay.obj
 0001:000015cc       ?GetColorSet@?$IViewObjectExImpl@VCOPOSGraphicDisplay@@@ATL@@UEAAJKJPEAXPEAUtagDVTARGETDEVICE@@PEAUHDC__@@PEAPEAUtagLOGPALETTE@@@Z 00000001800025cc f i GraphicDisplay.obj
 0001:000015cc       ?QueryGetData@?$IDataObjectImpl@VCOPOSGraphicDisplay@@@ATL@@UEAAJPEAUtagFORMATETC@@@Z 00000001800025cc f i GraphicDisplay.obj
 0001:000015cc       ?Unfreeze@?$IViewObjectExImpl@VCOPOSGraphicDisplay@@@ATL@@UEAAJK@Z 00000001800025cc f i GraphicDisplay.obj
 0001:000015cc       ?SetColorScheme@?$IOleObjectImpl@VCOPOSGraphicDisplay@@@ATL@@UEAAJPEAUtagLOGPALETTE@@@Z 00000001800025cc f i GraphicDisplay.obj
 0001:000015cc       ?GetDropTarget@?$IOleInPlaceObjectWindowlessImpl@VCOPOSGraphicDisplay@@@ATL@@UEAAJPEAPEAUIDropTarget@@@Z 00000001800025cc f i GraphicDisplay.obj
 0001:000015cc       ?InitFromData@?$IOleObjectImpl@VCOPOSGraphicDisplay@@@ATL@@UEAAJPEAUIDataObject@@HK@Z 00000001800025cc f i GraphicDisplay.obj
 0001:000015cc       ?OnMnemonic@?$IOleControlImpl@VCOPOSGraphicDisplay@@@ATL@@UEAAJPEAUtagMSG@@@Z 00000001800025cc f i GraphicDisplay.obj
 0001:000015cc       ?EnumFormatEtc@?$IDataObjectImpl@VCOPOSGraphicDisplay@@@ATL@@UEAAJKPEAPEAUIEnumFORMATETC@@@Z 00000001800025cc f i GraphicDisplay.obj
 0001:000015cc       ?GetDataHere@?$IDataObjectImpl@VCOPOSGraphicDisplay@@@ATL@@UEAAJPEAUtagFORMATETC@@PEAUtagSTGMEDIUM@@@Z 00000001800025cc f i GraphicDisplay.obj
 0001:000015cc       ?SODataDummy@COPOSGraphicDisplay@@MEAAJJ@Z 00000001800025cc f i GraphicDisplay.obj
 0001:000015cc       ?GetCanonicalFormatEtc@?$IDataObjectImpl@VCOPOSGraphicDisplay@@@ATL@@UEAAJPEAUtagFORMATETC@@0@Z 00000001800025cc f i GraphicDisplay.obj
 0001:000015cc       ?ContextSensitiveHelp@?$IOleInPlaceActiveObjectImpl@VCOPOSGraphicDisplay@@@ATL@@UEAAJH@Z 00000001800025cc f i GraphicDisplay.obj
 0001:000015cc       ?GetClipboardData@?$IOleObjectImpl@VCOPOSGraphicDisplay@@@ATL@@UEAAJKPEAPEAUIDataObject@@@Z 00000001800025cc f i GraphicDisplay.obj
 0001:000015cc       ?GetMoniker@?$IOleObjectImpl@VCOPOSGraphicDisplay@@@ATL@@UEAAJKKPEAPEAUIMoniker@@@Z 00000001800025cc f i GraphicDisplay.obj
 0001:000015cc       ?QueryInterface@CRegObject@ATL@@UEAAJAEBU_GUID@@PEAPEAX@Z 00000001800025cc f i GraphicDisplay.obj
 0001:000015cc       ?ContextSensitiveHelp@?$IOleInPlaceObjectWindowlessImpl@VCOPOSGraphicDisplay@@@ATL@@UEAAJH@Z 00000001800025cc f i GraphicDisplay.obj
 0001:000015cc       ?GetRect@?$IViewObjectExImpl@VCOPOSGraphicDisplay@@@ATL@@UEAAJKPEAU_RECTL@@@Z 00000001800025cc f i GraphicDisplay.obj
 0001:000015cc       ?SetMoniker@?$IOleObjectImpl@VCOPOSGraphicDisplay@@@ATL@@UEAAJKPEAUIMoniker@@@Z 00000001800025cc f i GraphicDisplay.obj
 0001:000015cc       ?ReactivateAndUndo@?$IOleInPlaceObjectWindowlessImpl@VCOPOSGraphicDisplay@@@ATL@@UEAAJXZ 00000001800025cc f i GraphicDisplay.obj
 0001:000015cc       ?GetControlInfo@?$IOleControlImpl@VCOPOSGraphicDisplay@@@ATL@@UEAAJPEAUtagCONTROLINFO@@@Z 00000001800025cc f i GraphicDisplay.obj
 0001:000015cc       ?Freeze@?$IViewObjectExImpl@VCOPOSGraphicDisplay@@@ATL@@UEAAJKJPEAXPEAK@Z 00000001800025cc f i GraphicDisplay.obj
 0001:000015cc       ?SetData@?$IDataObjectImpl@VCOPOSGraphicDisplay@@@ATL@@UEAAJPEAUtagFORMATETC@@PEAUtagSTGMEDIUM@@H@Z 00000001800025cc f i GraphicDisplay.obj
 0001:000015d4       ?SetClientSite@?$IOleObjectImpl@VCOPOSGraphicDisplay@@@ATL@@UEAAJPEAUIOleClientSite@@@Z 00000001800025d4 f i GraphicDisplay.obj
 0001:000015f0       ?GetClientSite@?$IOleObjectImpl@VCOPOSGraphicDisplay@@@ATL@@UEAAJPEAPEAUIOleClientSite@@@Z 00000001800025f0 f i GraphicDisplay.obj
 0001:00001638       ?Close@?$IOleObjectImpl@VCOPOSGraphicDisplay@@@ATL@@UEAAJK@Z 0000000180002638 f i GraphicDisplay.obj
 0001:00001654       ?DoVerb@?$IOleObjectImpl@VCOPOSGraphicDisplay@@@ATL@@UEAAJJPEAUtagMSG@@PEAUIOleClientSite@@JPEAUHWND__@@PEBUtagRECT@@@Z 0000000180002654 f i GraphicDisplay.obj
 0001:000017f8       ?EnumVerbs@?$IOleObjectImpl@VCOPOSGraphicDisplay@@@ATL@@UEAAJPEAPEAUIEnumOLEVERB@@@Z 00000001800027f8 f i GraphicDisplay.obj
 0001:00001814       ?GetUserType@?$IOleObjectImpl@VCOPOSGraphicDisplay@@@ATL@@UEAAJKPEAPEA_W@Z 0000000180002814 f i GraphicDisplay.obj
 0001:00001824       ?SetExtent@?$IOleObjectImpl@VCOPOSGraphicDisplay@@@ATL@@UEAAJKPEAUtagSIZE@@@Z 0000000180002824 f i GraphicDisplay.obj
 0001:00001840       ?GetExtent@?$IOleObjectImpl@VCOPOSGraphicDisplay@@@ATL@@UEAAJKPEAUtagSIZE@@@Z 0000000180002840 f i GraphicDisplay.obj
 0001:00001870       ?Advise@?$IOleObjectImpl@VCOPOSGraphicDisplay@@@ATL@@UEAAJPEAUIAdviseSink@@PEAK@Z 0000000180002870 f i GraphicDisplay.obj
 0001:000018cc       ?Unadvise@?$IOleObjectImpl@VCOPOSGraphicDisplay@@@ATL@@UEAAJK@Z 00000001800028cc f i GraphicDisplay.obj
 0001:00001904       ?EnumAdvise@?$IOleObjectImpl@VCOPOSGraphicDisplay@@@ATL@@UEAAJPEAPEAUIEnumSTATDATA@@@Z 0000000180002904 f i GraphicDisplay.obj
 0001:0000194c       ?GetMiscStatus@?$IOleObjectImpl@VCOPOSGraphicDisplay@@@ATL@@UEAAJKPEAK@Z 000000018000294c f i GraphicDisplay.obj
 0001:0000195c       ?GetWindow@?$IOleInPlaceActiveObjectImpl@VCOPOSGraphicDisplay@@@ATL@@UEAAJPEAPEAUHWND__@@@Z 000000018000295c f i GraphicDisplay.obj
 0001:000019b0       ?TranslateAcceleratorW@?$IOleInPlaceActiveObjectImpl@VCOPOSGraphicDisplay@@@ATL@@UEAAJPEAUtagMSG@@@Z 00000001800029b0 f i GraphicDisplay.obj
 0001:00001aa4       ?OnDocWindowActivate@?$IOleInPlaceActiveObjectImpl@VCOPOSGraphicDisplay@@@ATL@@UEAAJH@Z 0000000180002aa4 f i GraphicDisplay.obj
 0001:00001ad0       ?Draw@?$IViewObjectExImpl@VCOPOSGraphicDisplay@@@ATL@@UEAAJKJPEAXPEAUtagDVTARGETDEVICE@@PEAUHDC__@@2PEBU_RECTL@@3P6AH_K@Z4@Z 0000000180002ad0 f i GraphicDisplay.obj
 0001:00001b34       ?SetAdvise@?$IViewObjectExImpl@VCOPOSGraphicDisplay@@@ATL@@UEAAJKKPEAUIAdviseSink@@@Z 0000000180002b34 f i GraphicDisplay.obj
 0001:00001b88       ?GetAdvise@?$IViewObjectExImpl@VCOPOSGraphicDisplay@@@ATL@@UEAAJPEAK0PEAPEAUIAdviseSink@@@Z 0000000180002b88 f i GraphicDisplay.obj
 0001:00001bc4       ?GetExtent@?$IViewObjectExImpl@VCOPOSGraphicDisplay@@@ATL@@UEAAJKJPEAUtagDVTARGETDEVICE@@PEAUtagSIZE@@@Z 0000000180002bc4 f i GraphicDisplay.obj
 0001:00001bf4       ?GetViewStatus@?$IViewObjectExImpl@VCOPOSGraphicDisplay@@@ATL@@UEAAJPEAK@Z 0000000180002bf4 f i GraphicDisplay.obj
 0001:00001c08       ?QueryHitPoint@?$IViewObjectExImpl@VCOPOSGraphicDisplay@@@ATL@@UEAAJKPEBUtagRECT@@UtagPOINT@@JPEAK@Z 0000000180002c08 f i GraphicDisplay.obj
 0001:00001c4c       ?QueryHitRect@?$IViewObjectExImpl@VCOPOSGraphicDisplay@@@ATL@@UEAAJKPEBUtagRECT@@0JPEAK@Z 0000000180002c4c f i GraphicDisplay.obj
 0001:00001cb4       ?GetNaturalExtent@?$IViewObjectExImpl@VCOPOSGraphicDisplay@@@ATL@@UEAAJKJPEAUtagDVTARGETDEVICE@@PEAUHDC__@@PEAUtagExtentInfo@@PEAUtagSIZE@@@Z 0000000180002cb4 f i GraphicDisplay.obj
 0001:00001cfc       ?GetWindow@?$IOleInPlaceObjectWindowlessImpl@VCOPOSGraphicDisplay@@@ATL@@UEAAJPEAPEAUHWND__@@@Z 0000000180002cfc f i GraphicDisplay.obj
 0001:00001d50       ?InPlaceDeactivate@?$IOleInPlaceObjectWindowlessImpl@VCOPOSGraphicDisplay@@@ATL@@UEAAJXZ 0000000180002d50 f i GraphicDisplay.obj
 0001:00001d6c       ?UIDeactivate@?$IOleInPlaceObjectWindowlessImpl@VCOPOSGraphicDisplay@@@ATL@@UEAAJXZ 0000000180002d6c f i GraphicDisplay.obj
 0001:00001d88       ?SetObjectRects@?$IOleInPlaceObjectWindowlessImpl@VCOPOSGraphicDisplay@@@ATL@@UEAAJPEBUtagRECT@@0@Z 0000000180002d88 f i GraphicDisplay.obj
 0001:00001da4       ?OnWindowMessage@?$IOleInPlaceObjectWindowlessImpl@VCOPOSGraphicDisplay@@@ATL@@UEAAJI_K_JPEA_J@Z 0000000180002da4 f i GraphicDisplay.obj
 0001:00001e6c       ?EnumConnectionPoints@?$IConnectionPointContainerImpl@VCOPOSGraphicDisplay@@@ATL@@UEAAJPEAPEAUIEnumConnectionPoints@@@Z 0000000180002e6c f i GraphicDisplay.obj
 0001:000020b4       ?FindConnectionPoint@?$IConnectionPointContainerImpl@VCOPOSGraphicDisplay@@@ATL@@UEAAJAEBU_GUID@@PEAPEAUIConnectionPoint@@@Z 00000001800030b4 f i GraphicDisplay.obj
 0001:00002184       ?IsDirty@?$IPersistStorageImpl@VCOPOSGraphicDisplay@@@ATL@@UEAAJXZ 0000000180003184 f i GraphicDisplay.obj
 0001:000021c4       ?InitNew@?$IPersistStorageImpl@VCOPOSGraphicDisplay@@@ATL@@UEAAJPEAUIStorage@@@Z 00000001800031c4 f i GraphicDisplay.obj
 0001:00002204       ?Load@?$IPersistStorageImpl@VCOPOSGraphicDisplay@@@ATL@@UEAAJPEAUIStorage@@@Z 0000000180003204 f i GraphicDisplay.obj
 0001:000022a4       ?Save@?$IPersistStorageImpl@VCOPOSGraphicDisplay@@@ATL@@UEAAJPEAUIStorage@@H@Z 00000001800032a4 f i GraphicDisplay.obj
 0001:00002354       ?GetPages@?$ISpecifyPropertyPagesImpl@VCOPOSGraphicDisplay@@@ATL@@UEAAJPEAUtagCAUUID@@@Z 0000000180003354 f i GraphicDisplay.obj
 0001:00002360       ?QuickActivate@?$IQuickActivateImpl@VCOPOSGraphicDisplay@@@ATL@@UEAAJPEAUtagQACONTAINER@@PEAUtagQACONTROL@@@Z 0000000180003360 f i GraphicDisplay.obj
 0001:0000237c       ?SetContentExtent@?$IQuickActivateImpl@VCOPOSGraphicDisplay@@@ATL@@UEAAJPEAUtagSIZE@@@Z 000000018000337c f i GraphicDisplay.obj
 0001:000023b0       ?GetContentExtent@?$IQuickActivateImpl@VCOPOSGraphicDisplay@@@ATL@@UEAAJPEAUtagSIZE@@@Z 00000001800033b0 f i GraphicDisplay.obj
 0001:000023e8       ?GetData@?$IDataObjectImpl@VCOPOSGraphicDisplay@@@ATL@@UEAAJPEAUtagFORMATETC@@PEAUtagSTGMEDIUM@@@Z 00000001800033e8 f i GraphicDisplay.obj
 0001:00002404       ?DAdvise@?$IDataObjectImpl@VCOPOSGraphicDisplay@@@ATL@@UEAAJPEAUtagFORMATETC@@KPEAUIAdviseSink@@PEAK@Z 0000000180003404 f i GraphicDisplay.obj
 0001:0000248c       ?DUnadvise@?$IDataObjectImpl@VCOPOSGraphicDisplay@@@ATL@@UEAAJK@Z 000000018000348c f i GraphicDisplay.obj
 0001:000024b8       ?EnumDAdvise@?$IDataObjectImpl@VCOPOSGraphicDisplay@@@ATL@@UEAAJPEAPEAUIEnumSTATDATA@@@Z 00000001800034b8 f i GraphicDisplay.obj
 0001:000024f4       ?GetClassInfoW@?$IProvideClassInfo2Impl@$1?CLSID_OPOSGraphicDisplay@@3U_GUID@@B$1?DIID__IOPOSGraphicDisplayEvents@@3U2@B$1?LIBID_OposGraphicDisplay_CCO@@3U2@B$00$0A@VCComTypeInfoHolder@ATL@@@ATL@@UEAAJPEAPEAUITypeInfo@@@Z 00000001800034f4 f i GraphicDisplay.obj
 0001:0000254c       ?GetGUID@?$IProvideClassInfo2Impl@$1?CLSID_OPOSGraphicDisplay@@3U_GUID@@B$1?DIID__IOPOSGraphicDisplayEvents@@3U2@B$1?LIBID_OposGraphicDisplay_CCO@@3U2@B$00$0A@VCComTypeInfoHolder@ATL@@@ATL@@UEAAJKPEAU_GUID@@@Z 000000018000354c f i GraphicDisplay.obj
 0001:00002580       ?FAccessAllowed@?$IObjectSafetyImpl@VCOPOSGraphicDisplay@@$02@ATL@@MEAAHXZ 0000000180003580 f i GraphicDisplay.obj
 0001:00002580       ?AddRef@CRegObject@ATL@@UEAAKXZ 0000000180003580 f i GraphicDisplay.obj
 0001:00002580       _get_startup_argv_mode     0000000180003580 f i LIBCMT:argv_mode.obj
 0001:00002588       ?GetInterfaceSafetyOptions@?$IObjectSafetyImpl@VCOPOSGraphicDisplay@@$02@ATL@@UEAAJAEBU_GUID@@PEAK1@Z 0000000180003588 f i GraphicDisplay.obj
 0001:0000261c       ?SetInterfaceSafetyOptions@?$IObjectSafetyImpl@VCOPOSGraphicDisplay@@$02@ATL@@UEAAJAEBU_GUID@@KK@Z 000000018000361c f i GraphicDisplay.obj
 0001:000026c0       ?_LocCPQueryInterface@?$IConnectionPointImpl@VCOPOSGraphicDisplay@@$1?IID_IPropertyNotifySink@@3U_GUID@@BVCComDynamicUnkArray@ATL@@@ATL@@UEAAJAEBU_GUID@@PEAPEAX@Z 00000001800036c0 f i GraphicDisplay.obj
 0001:000026c0       ?_LocCPQueryInterface@?$IConnectionPointImpl@VCOPOSGraphicDisplay@@$1?DIID__IOPOSGraphicDisplayEvents@@3U_GUID@@BVCComDynamicUnkArray@ATL@@@ATL@@UEAAJAEBU_GUID@@PEAPEAX@Z 00000001800036c0 f i GraphicDisplay.obj
 0001:00002734       ?GetConnectionInterface@?$IConnectionPointImpl@VCOPOSGraphicDisplay@@$1?IID_IPropertyNotifySink@@3U_GUID@@BVCComDynamicUnkArray@ATL@@@ATL@@UEAAJPEAU_GUID@@@Z 0000000180003734 f i GraphicDisplay.obj
 0001:00002750       ?GetConnectionPointContainer@?$IConnectionPointImpl@VCOPOSGraphicDisplay@@$1?IID_IPropertyNotifySink@@3U_GUID@@BVCComDynamicUnkArray@ATL@@@ATL@@UEAAJPEAPEAUIConnectionPointContainer@@@Z 0000000180003750 f i GraphicDisplay.obj
 0001:00002770       ?Advise@?$IConnectionPointImpl@VCOPOSGraphicDisplay@@$1?DIID__IOPOSGraphicDisplayEvents@@3U_GUID@@BVCComDynamicUnkArray@ATL@@@ATL@@UEAAJPEAUIUnknown@@PEAK@Z 0000000180003770 f i GraphicDisplay.obj
 0001:00002770       ?Advise@?$IConnectionPointImpl@VCOPOSGraphicDisplay@@$1?IID_IPropertyNotifySink@@3U_GUID@@BVCComDynamicUnkArray@ATL@@@ATL@@UEAAJPEAUIUnknown@@PEAK@Z 0000000180003770 f i GraphicDisplay.obj
 0001:0000282c       ?Unadvise@?$IConnectionPointImpl@VCOPOSGraphicDisplay@@$1?IID_IPropertyNotifySink@@3U_GUID@@BVCComDynamicUnkArray@ATL@@@ATL@@UEAAJK@Z 000000018000382c f i GraphicDisplay.obj
 0001:0000282c       ?Unadvise@?$IConnectionPointImpl@VCOPOSGraphicDisplay@@$1?DIID__IOPOSGraphicDisplayEvents@@3U_GUID@@BVCComDynamicUnkArray@ATL@@@ATL@@UEAAJK@Z 000000018000382c f i GraphicDisplay.obj
 0001:00002894       ?EnumConnections@?$IConnectionPointImpl@VCOPOSGraphicDisplay@@$1?DIID__IOPOSGraphicDisplayEvents@@3U_GUID@@BVCComDynamicUnkArray@ATL@@@ATL@@UEAAJPEAPEAUIEnumConnections@@@Z 0000000180003894 f i GraphicDisplay.obj
 0001:00002894       ?EnumConnections@?$IConnectionPointImpl@VCOPOSGraphicDisplay@@$1?IID_IPropertyNotifySink@@3U_GUID@@BVCComDynamicUnkArray@ATL@@@ATL@@UEAAJPEAPEAUIEnumConnections@@@Z 0000000180003894 f i GraphicDisplay.obj
 0001:00002a28       ?GetConnectionInterface@?$IConnectionPointImpl@VCOPOSGraphicDisplay@@$1?DIID__IOPOSGraphicDisplayEvents@@3U_GUID@@BVCComDynamicUnkArray@ATL@@@ATL@@UEAAJPEAU_GUID@@@Z 0000000180003a28 f i GraphicDisplay.obj
 0001:00002a44       ?GetConnectionPointContainer@?$IConnectionPointImpl@VCOPOSGraphicDisplay@@$1?DIID__IOPOSGraphicDisplayEvents@@3U_GUID@@BVCComDynamicUnkArray@ATL@@@ATL@@UEAAJPEAPEAUIConnectionPointContainer@@@Z 0000000180003a44 f i GraphicDisplay.obj
 0001:00002a64       ?Lock@CAtlModule@ATL@@UEAAJXZ 0000000180003a64 f i GraphicDisplay.obj
 0001:00002a74       ?Unlock@CAtlModule@ATL@@UEAAJXZ 0000000180003a74 f i GraphicDisplay.obj
 0001:00002a80       ?GetLockCount@CAtlModule@ATL@@UEAAJXZ 0000000180003a80 f i GraphicDisplay.obj
 0001:00002a84       ?GetGITPtr@CAtlModule@ATL@@UEAAJPEAPEAUIGlobalInterfaceTable@@@Z 0000000180003a84 f i GraphicDisplay.obj
 0001:00002af4       ?UpdateRegistry@COPOSGraphicDisplay@@SAJH@Z 0000000180003af4 f i GraphicDisplay.obj
 0001:00002b0c       ?ProcessWindowMessage@COPOSGraphicDisplay@@UEAAHPEAUHWND__@@I_K_JAEA_JK@Z 0000000180003b0c f i GraphicDisplay.obj
 0001:00002b9c       ?SODirectIO@COPOSGraphicDisplay@@MEAAJJPEAJPEAPEA_W@Z 0000000180003b9c f i GraphicDisplay.obj
 0001:00002c14       ?SOError@COPOSGraphicDisplay@@MEAAJJJJPEAJ@Z 0000000180003c14 f i GraphicDisplay.obj
 0001:00002c9c       ?SOOutputComplete@COPOSGraphicDisplay@@MEAAJJ@Z 0000000180003c9c f i GraphicDisplay.obj
 0001:00002cec       ?SOStatusUpdate@COPOSGraphicDisplay@@MEAAJJ@Z 0000000180003cec f i GraphicDisplay.obj
 0001:00002d3c       ?AddCommonRGSReplacements@?$CAtlModuleT@VCComModule@ATL@@@ATL@@UEAAJPEAUIRegistrarBase@@@Z 0000000180003d3c f i GraphicDisplay.obj
 0001:00002d54       ?UpdateRegistryFromResourceD@CComModule@ATL@@UEAAJIHPEAU_ATL_REGMAP_ENTRY@2@@Z 0000000180003d54 f i GraphicDisplay.obj
 0001:00002d54       ?UpdateRegistryFromResourceD@CComModule@ATL@@UEAAJPEB_WHPEAU_ATL_REGMAP_ENTRY@2@@Z 0000000180003d54 f i GraphicDisplay.obj
 0001:00002d5c       ?UpdateRegistryFromResource@CComModule@ATL@@UEAAJPEB_WHPEAU_ATL_REGMAP_ENTRY@2@@Z 0000000180003d5c f i GraphicDisplay.obj
 0001:00002d64       ?UpdateRegistryFromResource@CComModule@ATL@@UEAAJIHPEAU_ATL_REGMAP_ENTRY@2@@Z 0000000180003d64 f i GraphicDisplay.obj
 0001:00002d6c       ??_ECComModule@ATL@@UEAAPEAXI@Z 0000000180003d6c f i GraphicDisplay.obj
 0001:00002d6c       ??_GCComModule@ATL@@UEAAPEAXI@Z 0000000180003d6c f i GraphicDisplay.obj
 0001:00002dac       ?CreateInstance@?$CComCreator@V?$CComObjectCached@VCComClassFactory@ATL@@@ATL@@@ATL@@SAJPEAXAEBU_GUID@@PEAPEAX@Z 0000000180003dac f i GraphicDisplay.obj
 0001:00002ed0       ?CreateInstance@?$CComCreator2@V?$CComCreator@V?$CComObject@VCOPOSGraphicDisplay@@@ATL@@@ATL@@V?$CComCreator@V?$CComAggObject@VCOPOSGraphicDisplay@@@ATL@@@2@@ATL@@SAJPEAXAEBU_GUID@@PEAPEAX@Z 0000000180003ed0 f i GraphicDisplay.obj
 0001:00002ee0       ?AddRef@?$CComObjectCached@VCComClassFactory@ATL@@@ATL@@UEAAKXZ 0000000180003ee0 f i GraphicDisplay.obj
 0001:00002f0c       ?Release@?$CComObjectCached@VCComClassFactory@ATL@@@ATL@@UEAAKXZ 0000000180003f0c f i GraphicDisplay.obj
 0001:00002f4c       ?QueryInterface@?$CComObjectCached@VCComClassFactory@ATL@@@ATL@@UEAAJAEBU_GUID@@PEAPEAX@Z 0000000180003f4c f i GraphicDisplay.obj
 0001:00002f60       ??_E?$CComObjectCached@VCComClassFactory@ATL@@@ATL@@UEAAPEAXI@Z 0000000180003f60 f i GraphicDisplay.obj
 0001:00002f60       ??_G?$CComObjectCached@VCComClassFactory@ATL@@@ATL@@UEAAPEAXI@Z 0000000180003f60 f i GraphicDisplay.obj
 0001:00002fb8       ?Next@?$CComEnumImpl@UIEnumConnectionPoints@@$1?_GUID_b196b285_bab4_101a_b69c_00aa00341d07@@3U__s_GUID@@BPEAUIConnectionPoint@@V?$_CopyInterface@UIConnectionPoint@@@ATL@@@ATL@@UEAAJKPEAPEAUIConnectionPoint@@PEAK@Z 0000000180003fb8 f i GraphicDisplay.obj
 0001:0000307c       ?Skip@?$CComEnumImpl@UIEnumConnectionPoints@@$1?_GUID_b196b285_bab4_101a_b69c_00aa00341d07@@3U__s_GUID@@BPEAUIConnectionPoint@@V?$_CopyInterface@UIConnectionPoint@@@ATL@@@ATL@@UEAAJK@Z 000000018000407c f i GraphicDisplay.obj
 0001:000030a8       ?Clone@?$CComEnumImpl@UIEnumConnectionPoints@@$1?_GUID_b196b285_bab4_101a_b69c_00aa00341d07@@3U__s_GUID@@BPEAUIConnectionPoint@@V?$_CopyInterface@UIConnectionPoint@@@ATL@@@ATL@@UEAAJPEAPEAUIEnumConnectionPoints@@@Z 00000001800040a8 f i GraphicDisplay.obj
 0001:000031d4       ?QueryInterface@?$CComObject@V?$CComEnum@UIEnumConnectionPoints@@$1?_GUID_b196b285_bab4_101a_b69c_00aa00341d07@@3U__s_GUID@@BPEAUIConnectionPoint@@V?$_CopyInterface@UIConnectionPoint@@@ATL@@VCComSingleThreadModel@6@@ATL@@@ATL@@UEAAJAEBU_GUID@@PEAPEAX@Z 00000001800041d4 f i GraphicDisplay.obj
 0001:000031e8       ??_E?$CComObject@V?$CComEnum@UIEnumConnectionPoints@@$1?_GUID_b196b285_bab4_101a_b69c_00aa00341d07@@3U__s_GUID@@BPEAUIConnectionPoint@@V?$_CopyInterface@UIConnectionPoint@@@ATL@@VCComSingleThreadModel@6@@ATL@@@ATL@@UEAAPEAXI@Z 00000001800041e8 f i GraphicDisplay.obj
 0001:000031e8       ??_G?$CComObject@V?$CComEnum@UIEnumConnectionPoints@@$1?_GUID_b196b285_bab4_101a_b69c_00aa00341d07@@3U__s_GUID@@BPEAUIConnectionPoint@@V?$_CopyInterface@UIConnectionPoint@@@ATL@@VCComSingleThreadModel@6@@ATL@@@ATL@@UEAAPEAXI@Z 00000001800041e8 f i GraphicDisplay.obj
 0001:00003240       ?AddReplacement@CRegObject@ATL@@UEAAJPEB_W0@Z 0000000180004240 f i GraphicDisplay.obj
 0001:00003270       ?ClearReplacements@CRegObject@ATL@@UEAAJXZ 0000000180004270 f i GraphicDisplay.obj
 0001:0000327c       ??_GCRegObject@ATL@@UEAAPEAXI@Z 000000018000427c f i GraphicDisplay.obj
 0001:0000327c       ??_ECRegObject@ATL@@UEAAPEAXI@Z 000000018000427c f i GraphicDisplay.obj
 0001:000032fc       ?AddRef@?$CComAggObject@VCOPOSGraphicDisplay@@@ATL@@UEAAKXZ 00000001800042fc f i GraphicDisplay.obj
 0001:00003308       ?Release@?$CComAggObject@VCOPOSGraphicDisplay@@@ATL@@UEAAKXZ 0000000180004308 f i GraphicDisplay.obj
 0001:0000335c       ?QueryInterface@?$CComAggObject@VCOPOSGraphicDisplay@@@ATL@@UEAAJAEBU_GUID@@PEAPEAX@Z 000000018000435c f i GraphicDisplay.obj
 0001:000033bc       ?AddRef@?$CComContainedObject@VCOPOSGraphicDisplay@@@ATL@@UEAAKXZ 00000001800043bc f i GraphicDisplay.obj
 0001:000033cc       ?Release@?$CComContainedObject@VCOPOSGraphicDisplay@@@ATL@@UEAAKXZ 00000001800043cc f i GraphicDisplay.obj
 0001:000033dc       ?QueryInterface@?$CComContainedObject@VCOPOSGraphicDisplay@@@ATL@@UEAAJAEBU_GUID@@PEAPEAX@Z 00000001800043dc f i GraphicDisplay.obj
 0001:000033ec       ??_G?$CComAggObject@VCOPOSGraphicDisplay@@@ATL@@UEAAPEAXI@Z 00000001800043ec f i GraphicDisplay.obj
 0001:000033ec       ??_E?$CComAggObject@VCOPOSGraphicDisplay@@@ATL@@UEAAPEAXI@Z 00000001800043ec f i GraphicDisplay.obj
 0001:00003444       ?AddRef@?$CComObject@VCOPOSGraphicDisplay@@@ATL@@UEAAKXZ 0000000180004444 f i GraphicDisplay.obj
 0001:00003454       ?Release@?$CComObject@VCOPOSGraphicDisplay@@@ATL@@UEAAKXZ 0000000180004454 f i GraphicDisplay.obj
 0001:000034ac       ?QueryInterface@?$CComObject@VCOPOSGraphicDisplay@@@ATL@@UEAAJAEBU_GUID@@PEAPEAX@Z 00000001800044ac f i GraphicDisplay.obj
 0001:000034c0       ?OnDrawAdvanced@CComControlBase@ATL@@UEAAJAEAUATL_DRAWINFO@@@Z 00000001800044c0 f i GraphicDisplay.obj
 0001:0000364c       ??$AtlModuleRegisterWndClassInfoT@VAtlModuleRegisterWndClassInfoParamW@ATL@@@ATL@@YAGPEAU_ATL_BASE_MODULE70@0@PEAU_ATL_WIN_MODULE70@0@PEAU_ATL_WNDCLASSINFOW@0@PEAP6A_JPEAUHWND__@@I_K_J@ZVAtlModuleRegisterWndClassInfoParamW@0@@Z 000000018000464c f i GraphicDisplay.obj
 0001:0000384c       ??0?$CComContainedObject@VCOPOSGraphicDisplay@@@ATL@@QEAA@PEAX@Z 000000018000484c f i GraphicDisplay.obj
 0001:00003968       ??0?$CComObject@VCOPOSGraphicDisplay@@@ATL@@QEAA@PEAX@Z 0000000180004968 f i GraphicDisplay.obj
 0001:00003a80       ??0CAtlModule@ATL@@QEAA@XZ 0000000180004a80 f i GraphicDisplay.obj
 0001:00003af4       ??1?$CComEnumImpl@UIEnumConnectionPoints@@$1?_GUID_b196b285_bab4_101a_b69c_00aa00341d07@@3U__s_GUID@@BPEAUIConnectionPoint@@V?$_CopyInterface@UIConnectionPoint@@@ATL@@@ATL@@UEAA@XZ 0000000180004af4 f i GraphicDisplay.obj
 0001:00003b4c       ??1?$CComEnumImpl@UIEnumConnections@@$1?_GUID_b196b287_bab4_101a_b69c_00aa00341d07@@3U__s_GUID@@BUtagCONNECTDATA@@V?$_Copy@UtagCONNECTDATA@@@ATL@@@ATL@@UEAA@XZ 0000000180004b4c f i GraphicDisplay.obj
 0001:00003ba4       ??1?$CComObject@VCOPOSGraphicDisplay@@@ATL@@UEAA@XZ 0000000180004ba4 f i GraphicDisplay.obj
 0001:00003cc4       ??_G?$CComContainedObject@VCOPOSGraphicDisplay@@@ATL@@UEAAPEAXI@Z 0000000180004cc4 f i GraphicDisplay.obj
 0001:00003cc4       ??_E?$CComContainedObject@VCOPOSGraphicDisplay@@@ATL@@UEAAPEAXI@Z 0000000180004cc4 f i GraphicDisplay.obj
 0001:00003cf8       ??_E?$CComObject@VCOPOSGraphicDisplay@@@ATL@@UEAAPEAXI@Z 0000000180004cf8 f i GraphicDisplay.obj
 0001:00003cf8       ??_G?$CComObject@VCOPOSGraphicDisplay@@@ATL@@UEAAPEAXI@Z 0000000180004cf8 f i GraphicDisplay.obj
 0001:00003d2c       ?Add@?$CSimpleArray@GV?$CSimpleArrayEqualHelper@G@ATL@@@ATL@@QEAAHAEBG@Z 0000000180004d2c f i GraphicDisplay.obj
 0001:00003dcc       ?Add@?$CSimpleMap@PEA_WPEA_WVCExpansionVectorEqualHelper@ATL@@@ATL@@QEAAHAEBQEA_W0@Z 0000000180004dcc f i GraphicDisplay.obj
 0001:00003e68       ?Add@CComDynamicUnkArray@ATL@@QEAAKPEAUIUnknown@@@Z 0000000180004e68 f i GraphicDisplay.obj
 0001:00003f4c       ?Add@CExpansionVector@ATL@@QEAAHPEB_W0@Z 0000000180004f4c f i GraphicDisplay.obj
 0001:00004080       ?AddTermFunc@CAtlModule@ATL@@QEAAJP6AX_K@Z0@Z 0000000180005080 f i GraphicDisplay.obj
 0001:0000411c       ?AddValue@CRegParser@ATL@@IEAAJAEAVCRegKey@2@PEB_WPEA_W@Z 000000018000511c f i GraphicDisplay.obj
 0001:0000452c       ?AllocateHeap@?$CTempBuffer@E$0BAA@VCCRTAllocator@ATL@@@ATL@@AEAAX_K@Z 000000018000552c f i GraphicDisplay.obj
 0001:0000452c       ?AllocateHeap@?$CTempBuffer@_W$0BAA@VCCRTAllocator@ATL@@@ATL@@AEAAX_K@Z 000000018000552c f i GraphicDisplay.obj
 0001:0000452c       ?AllocateHeap@?$CTempBuffer@_W$0EAA@VCCRTAllocator@ATL@@@ATL@@AEAAX_K@Z 000000018000552c f i GraphicDisplay.obj
 0001:00004558       ?Append@CParseBuffer@CRegParser@ATL@@QEAAHPEB_WH@Z 0000000180005558 f i GraphicDisplay.obj
 0001:0000468c       ?AtlComModuleGetClassObject@ATL@@YAJPEAU_ATL_COM_MODULE70@1@AEBU_GUID@@1PEAPEAX@Z 000000018000568c f i GraphicDisplay.obj
 0001:000047c8       ?AtlComModuleRegisterServer@ATL@@YAJPEAU_ATL_COM_MODULE70@1@HPEBU_GUID@@@Z 00000001800057c8 f i GraphicDisplay.obj
 0001:00004888       ?AtlComModuleUnregisterServer@ATL@@YAJPEAU_ATL_COM_MODULE70@1@HPEBU_GUID@@@Z 0000000180005888 f i GraphicDisplay.obj
 0001:00004944       ?AtlHiMetricToPixel@ATL@@YAXPEBUtagSIZE@@PEAU2@@Z 0000000180005944 f i GraphicDisplay.obj
 0001:000049f4       ?AtlHresultFromLastError@ATL@@YAJXZ 00000001800059f4 f i GraphicDisplay.obj
 0001:00004a14       ?AtlHresultFromWin32@ATL@@YAJK@Z 0000000180005a14 f i GraphicDisplay.obj
 0001:00004a24       ?AtlInternalOleLoadFromStream@ATL@@YAJPEAUIStream@@AEBU_GUID@@PEAPEAXTClassesAllowedInStream@1@K@Z 0000000180005a24 f i GraphicDisplay.obj
 0001:00004b74       ?AtlInternalQueryInterface@ATL@@YAJPEAXPEBU_ATL_INTMAP_ENTRY@1@AEBU_GUID@@PEAPEAX@Z 0000000180005b74 f i GraphicDisplay.obj
 0001:00004c7c       ?AtlLoadTypeLib@ATL@@YAJPEAUHINSTANCE__@@PEB_WPEAPEA_WPEAPEAUITypeLib@@@Z 0000000180005c7c f i GraphicDisplay.obj
 0001:00004ed8       ?AtlRegisterClassCategoriesHelper@ATL@@YAJAEBU_GUID@@PEBU_ATL_CATMAP_ENTRY@1@H@Z 0000000180005ed8 f i GraphicDisplay.obj
 0001:0000535c       ?AtlRegisterTypeLib@ATL@@YAJPEAUHINSTANCE__@@PEB_W@Z 000000018000635c f i GraphicDisplay.obj
 0001:00005558       ?AtlThrowImpl@ATL@@YAXJ@Z  0000000180006558 f i GraphicDisplay.obj
 0001:0000557c       ?AtlUnRegisterTypeLib@ATL@@YAJPEAUHINSTANCE__@@PEB_W@Z 000000018000657c f i GraphicDisplay.obj
 0001:00005644       ?AtlWinModuleExtractCreateWndData@ATL@@YAPEAXPEAU_ATL_WIN_MODULE70@1@@Z 0000000180006644 f i GraphicDisplay.obj
 0001:000056d0       ?ChToByte@CRegParser@ATL@@KAE_W@Z 00000001800066d0 f i GraphicDisplay.obj
 0001:0000575c       ?Cleanup@CComTypeInfoHolder@ATL@@SAX_K@Z 000000018000675c f i GraphicDisplay.obj
 0001:0000579c       ?ClearReplacements@CExpansionVector@ATL@@QEAAJXZ 000000018000679c f i GraphicDisplay.obj
 0001:00005838       ?CreateInstance@?$CComCreator@V?$CComAggObject@VCOPOSGraphicDisplay@@@ATL@@@ATL@@SAJPEAXAEBU_GUID@@PEAPEAX@Z 0000000180006838 f i GraphicDisplay.obj
 0001:0000591c       ?CreateInstance@?$CComCreator@V?$CComObject@VCOPOSGraphicDisplay@@@ATL@@@ATL@@SAJPEAXAEBU_GUID@@PEAPEAX@Z 000000018000691c f i GraphicDisplay.obj
 0001:000059dc       ?CreateInstance@?$CComObject@V?$CComEnum@UIEnumConnectionPoints@@$1?_GUID_b196b285_bab4_101a_b69c_00aa00341d07@@3U__s_GUID@@BPEAUIConnectionPoint@@V?$_CopyInterface@UIConnectionPoint@@@ATL@@VCComSingleThreadModel@6@@ATL@@@ATL@@SAJPEAPEAV12@@Z 00000001800069dc f i GraphicDisplay.obj
 0001:00005a6c       ?CreateInstance@?$CComObject@V?$CComEnum@UIEnumConnections@@$1?_GUID_b196b287_bab4_101a_b69c_00aa00341d07@@3U__s_GUID@@BUtagCONNECTDATA@@V?$_Copy@UtagCONNECTDATA@@@ATL@@VCComSingleThreadModel@6@@ATL@@@ATL@@SAJPEAPEAV12@@Z 0000000180006a6c f i GraphicDisplay.obj
 0001:00005afc       ?DefaultReflectionHandler@?$CWindowImplRoot@VCWindow@ATL@@@ATL@@SAHPEAUHWND__@@I_K_JAEA_J@Z 0000000180006afc f i GraphicDisplay.obj
 0001:00005b90       ?DeleteSubKey@CRegKey@ATL@@QEAAJPEB_W@Z 0000000180006b90 f i GraphicDisplay.obj
 0001:00005c28       ?DoEvent@COPOSGraphicDisplay@@IEAAXI_K_J@Z 0000000180006c28 f i GraphicDisplay.obj
 0001:00005cdc       ?DoVerbPrimary@?$IOleObjectImpl@VCOPOSGraphicDisplay@@@ATL@@QEAAJPEBUtagRECT@@PEAUHWND__@@@Z 0000000180006cdc f i GraphicDisplay.obj
 0001:00005e08       ?DoVerbProperties@CComControlBase@ATL@@QEAAJPEBUtagRECT@@PEAUHWND__@@@Z 0000000180006e08 f i GraphicDisplay.obj
 0001:00006030       ?FireTheEvent@?$CProxy_IOPOSEvents@VCOPOSGraphicDisplay@@@@IEAAXPEAVOposVariant@@IAEAJPEB_WJ@Z 0000000180007030 f i GraphicDisplay.obj
 0001:0000611c       ?FireViewChange@CComControlBase@ATL@@QEAAJXZ 000000018000711c f i GraphicDisplay.obj
 0001:00006180       ?Fire_DirectIOEvent@?$CProxy_IOPOSEvents@VCOPOSGraphicDisplay@@@@QEAAXJPEAJPEAPEA_W@Z 0000000180007180 f i GraphicDisplay.obj
 0001:000062e0       ?Fire_ErrorEvent@?$CProxy_IOPOSEvents@VCOPOSGraphicDisplay@@@@QEAAXJJJPEAJ@Z 00000001800072e0 f i GraphicDisplay.obj
 0001:00006454       ?Fire_OutputCompleteEvent@?$CProxy_IOPOSEvents@VCOPOSGraphicDisplay@@@@QEAAXJ@Z 0000000180007454 f i GraphicDisplay.obj
 0001:00006540       ?Fire_StatusUpdateEvent@?$CProxy_IOPOSEvents@VCOPOSGraphicDisplay@@@@QEAAXJ@Z 0000000180007540 f i GraphicDisplay.obj
 0001:0000662c       ?FreeHeap@?$CTempBuffer@_W$0EAA@VCCRTAllocator@ATL@@@ATL@@AEAAXXZ 000000018000762c f i GraphicDisplay.obj
 0001:0000662c       ?FreeHeap@?$CTempBuffer@E$0BAA@VCCRTAllocator@ATL@@@ATL@@AEAAXXZ 000000018000762c f i GraphicDisplay.obj
 0001:0000662c       ?FreeHeap@?$CTempBuffer@_W$0BAA@VCCRTAllocator@ATL@@@ATL@@AEAAXXZ 000000018000762c f i GraphicDisplay.obj
 0001:00006634       ?GetAmbientLocaleID@CComControlBase@ATL@@QEAAJAEAK@Z 0000000180007634 f i GraphicDisplay.obj
 0001:000066f4       ?GetAmbientUserMode@CComControlBase@ATL@@QEAAJAEAH@Z 00000001800076f4 f i GraphicDisplay.obj
 0001:000067c4       ?GetClassObject@CComModule@ATL@@QEAAJAEBU_GUID@@0PEAPEAX@Z 00000001800077c4 f i GraphicDisplay.obj
 0001:000068b8       ?GetConnMap@COPOSGraphicDisplay@@SAPEBU_ATL_CONNMAP_ENTRY@ATL@@PEAH@Z 00000001800078b8 f i GraphicDisplay.obj
 0001:00006940       ?GetIDsOfNames@CComTypeInfoHolder@ATL@@QEAAJAEBU_GUID@@PEAPEA_WIKPEAJ@Z 0000000180007940 f i GraphicDisplay.obj
 0001:00006ab0       ?GetPagesHelper@?$ISpecifyPropertyPagesImpl@VCOPOSGraphicDisplay@@@ATL@@IEAAJPEAUtagCAUUID@@PEBUATL_PROPMAP_ENTRY@2@@Z 0000000180007ab0 f i GraphicDisplay.obj
 0001:00006c50       ?GetSizeMax@CComVariant@ATL@@QEBAJPEAT_ULARGE_INTEGER@@@Z 0000000180007c50 f i GraphicDisplay.obj
 0001:00006e80       ?GetTI@CComTypeInfoHolder@ATL@@QEAAJK@Z 0000000180007e80 f i GraphicDisplay.obj
 0001:00007164       ?GetZoomInfo@CComControlBase@ATL@@QEAAXAEAUATL_DRAWINFO@@@Z 0000000180008164 f i GraphicDisplay.obj
 0001:00007208       ?HKeyFromString@CRegParser@ATL@@KAPEAUHKEY__@@PEA_W@Z 0000000180008208 f i GraphicDisplay.obj
 0001:0000726c       ?IDataObject_GetData@CComControlBase@ATL@@QEAAJPEAUtagFORMATETC@@PEAUtagSTGMEDIUM@@@Z 000000018000826c f i GraphicDisplay.obj
 0001:00007460       ?IOleInPlaceObject_InPlaceDeactivate@CComControlBase@ATL@@QEAAJXZ 0000000180008460 f i GraphicDisplay.obj
 0001:00007500       ?IOleInPlaceObject_SetObjectRects@CComControlBase@ATL@@QEAAJPEBUtagRECT@@0@Z 0000000180008500 f i GraphicDisplay.obj
 0001:000075f0       ?IOleInPlaceObject_UIDeactivate@CComControlBase@ATL@@QEAAJXZ 00000001800085f0 f i GraphicDisplay.obj
 0001:000076fc       ?IOleObject_Close@CComControlBase@ATL@@QEAAJK@Z 00000001800086fc f i GraphicDisplay.obj
 0001:00007814       ?IOleObject_SetClientSite@CComControlBase@ATL@@QEAAJPEAUIOleClientSite@@@Z 0000000180008814 f i GraphicDisplay.obj
 0001:00007888       ?IOleObject_SetExtent@CComControlBase@ATL@@QEAAJKPEAUtagSIZE@@@Z 0000000180008888 f i GraphicDisplay.obj
 0001:00007920       ?IPSI_GetIPersistStreamInit@?$IPersistStorageImpl@VCOPOSGraphicDisplay@@@ATL@@AEAAPEAUIPersistStreamInit@@XZ 0000000180008920 f i GraphicDisplay.obj
 0001:00007a08       ?IPersistStreamInit_Load@?$IPersistStreamInitImpl@VCOPOSGraphicDisplay@@@ATL@@QEAAJPEAUIStream@@PEBUATL_PROPMAP_ENTRY@2@@Z 0000000180008a08 f i GraphicDisplay.obj
 0001:00007d30       ?IPersistStreamInit_Save@?$IPersistStreamInitImpl@VCOPOSGraphicDisplay@@@ATL@@QEAAJPEAUIStream@@HPEBUATL_PROPMAP_ENTRY@2@@Z 0000000180008d30 f i GraphicDisplay.obj
 0001:00007fcc       ?IQuickActivate_QuickActivate@CComControlBase@ATL@@QEAAJPEAUtagQACONTAINER@@PEAUtagQACONTROL@@@Z 0000000180008fcc f i GraphicDisplay.obj
 0001:00008290       ?IViewObject_Draw@CComControlBase@ATL@@QEAAJKJPEAXPEAUtagDVTARGETDEVICE@@PEAUHDC__@@2PEBU_RECTL@@3@Z 0000000180009290 f i GraphicDisplay.obj
 0001:000083a4       ?InPlaceActivate@CComControlBase@ATL@@QEAAJJPEBUtagRECT@@@Z 00000001800093a4 f i GraphicDisplay.obj
 0001:000086d4       ?Init@?$CComEnumImpl@UIEnumConnectionPoints@@$1?_GUID_b196b285_bab4_101a_b69c_00aa00341d07@@3U__s_GUID@@BPEAUIConnectionPoint@@V?$_CopyInterface@UIConnectionPoint@@@ATL@@@ATL@@QEAAJPEAPEAUIConnectionPoint@@0PEAUIUnknown@@W4CComEnumFlags@2@@Z 00000001800096d4 f i GraphicDisplay.obj
 0001:000087f0       ?Init@?$CComEnumImpl@UIEnumConnections@@$1?_GUID_b196b287_bab4_101a_b69c_00aa00341d07@@3U__s_GUID@@BUtagCONNECTDATA@@V?$_Copy@UtagCONNECTDATA@@@ATL@@@ATL@@QEAAJPEAUtagCONNECTDATA@@0PEAUIUnknown@@W4CComEnumFlags@2@@Z 00000001800097f0 f i GraphicDisplay.obj
 0001:00008910       ?IsEqualObject@?$CComPtrBase@UIOleClientSite@@@ATL@@QEAA_NPEAUIUnknown@@@Z 0000000180009910 f i GraphicDisplay.obj
 0001:0000899c       ?LoadNameCache@CComTypeInfoHolder@ATL@@QEAAJPEAUITypeInfo@@@Z 000000018000999c f i GraphicDisplay.obj
 0001:00008b2c       ?Lookup@?$CSimpleMap@PEA_WPEA_WVCExpansionVectorEqualHelper@ATL@@@ATL@@QEBAPEA_WAEBQEA_W@Z 0000000180009b2c f i GraphicDisplay.obj
 0001:00008bb4       ?NextToken@CRegParser@ATL@@IEAAJPEA_W@Z 0000000180009bb4 f i GraphicDisplay.obj
 0001:00008d50       ?OnKillFocus@CComControlBase@ATL@@QEAA_JI_K_JAEAH@Z 0000000180009d50 f i GraphicDisplay.obj
 0001:00008dec       ?OnMouseActivate@CComControlBase@ATL@@QEAA_JI_K_JAEAH@Z 0000000180009dec f i GraphicDisplay.obj
 0001:00008e8c       ?OnPaint@CComControlBase@ATL@@QEAA_JI_K_JAEAH@Z 0000000180009e8c f i GraphicDisplay.obj
 0001:00008f78       ?OnSetFocus@CComControlBase@ATL@@QEAA_JI_K_JAEAH@Z 0000000180009f78 f i GraphicDisplay.obj
 0001:00009080       ?PreProcessBuffer@CRegParser@ATL@@QEAAJPEA_WPEAPEA_W@Z 000000018000a080 f i GraphicDisplay.obj
 0001:00009408       ?ProcessWindowMessage@?$CComControl@VCOPOSGraphicDisplay@@V?$CWindowImpl@VCOPOSGraphicDisplay@@VCWindow@ATL@@V?$CWinTraits@$0FGAAAAAA@$0A@@3@@ATL@@@ATL@@UEAAHPEAUHWND__@@I_K_JAEA_JK@Z 000000018000a408 f i GraphicDisplay.obj
 0001:000094f4       ?ReadFromStream@CComBSTR@ATL@@QEAAJPEAUIStream@@@Z 000000018000a4f4 f i GraphicDisplay.obj
 0001:00009644       ?ReadFromStream@CComVariant@ATL@@QEAAJPEAUIStream@@GTClassesAllowedInStream@2@K@Z 000000018000a644 f i GraphicDisplay.obj
 0001:00009888       ?RecurseDeleteKey@CRegKey@ATL@@QEAAJPEB_W@Z 000000018000a888 f i GraphicDisplay.obj
 0001:000099e0       ?RegCreateKeyExW@CAtlTransactionManager@ATL@@QEAAJPEAUHKEY__@@PEB_WKPEA_WKKQEAU_SECURITY_ATTRIBUTES@@PEAPEAU3@PEAK@Z 000000018000a9e0 f i GraphicDisplay.obj
 0001:00009b14       ?RegDeleteKeyW@CAtlTransactionManager@ATL@@QEAAJPEAUHKEY__@@PEB_W@Z 000000018000ab14 f i GraphicDisplay.obj
 0001:00009ba0       ?RegOpenKeyExW@CAtlTransactionManager@ATL@@QEAAJPEAUHKEY__@@PEB_WKKPEAPEAU3@@Z 000000018000aba0 f i GraphicDisplay.obj
 0001:00009c58       ?RegisterBuffer@CRegParser@ATL@@QEAAJPEA_WH@Z 000000018000ac58 f i GraphicDisplay.obj
 0001:00009dc4       ?RegisterFromResource@CRegObject@ATL@@IEAAJPEB_W00H@Z 000000018000adc4 f i GraphicDisplay.obj
 0001:00009f80       ?RegisterServer@CComModule@ATL@@QEAAJHPEBU_GUID@@@Z 000000018000af80 f i GraphicDisplay.obj
 0001:0000a03c       ?RegisterSubkeys@CRegParser@ATL@@IEAAJPEA_WPEAUHKEY__@@HH@Z 000000018000b03c f i GraphicDisplay.obj
 0001:0000a8bc       ?SendOnDataChange@CComControlBase@ATL@@QEAAJK@Z 000000018000b8bc f i GraphicDisplay.obj
 0001:0000a92c       ?SetControlFocus@CComControlBase@ATL@@QEAAHH@Z 000000018000b92c f i GraphicDisplay.obj
 0001:0000a9fc       ?SkipAssignment@CRegParser@ATL@@IEAAJPEA_W@Z 000000018000b9fc f i GraphicDisplay.obj
 0001:0000aab4       ?Term@CAtlModule@ATL@@QEAAXXZ 000000018000bab4 f i GraphicDisplay.obj
 0001:0000ab6c       ?Term@CComModule@ATL@@QEAAXXZ 000000018000bb6c f i GraphicDisplay.obj
 0001:0000abe8       ?UnregisterServer@CComModule@ATL@@QEAAJHPEBU_GUID@@@Z 000000018000bbe8 f i GraphicDisplay.obj
 0001:0000ac98       ?UpdateRegistryFromResource@CAtlModule@ATL@@QEAAJIHPEAU_ATL_REGMAP_ENTRY@2@@Z 000000018000bc98 f i GraphicDisplay.obj
 0001:0000afa4       ?UpdateRegistryFromResource@CAtlModule@ATL@@QEAAJPEB_WHPEAU_ATL_REGMAP_ENTRY@2@@Z 000000018000bfa4 f i GraphicDisplay.obj
 0001:0000b2c8       ?VTFromRegType@CRegParser@ATL@@KAHPEB_WAEAG@Z 000000018000c2c8 f i GraphicDisplay.obj
 0001:0000b364       ?WindowProc@?$CWindowImplBaseT@VCWindow@ATL@@V?$CWinTraits@$0FGAAAAAA@$0A@@2@@ATL@@SA_JPEAUHWND__@@I_K_J@Z 000000018000c364 f i GraphicDisplay.obj
 0001:0000b4d0       ?WriteToStream@CComVariant@ATL@@QEAAJPEAUIStream@@@Z 000000018000c4d0 f i GraphicDisplay.obj
 0001:0000b73c       ?WriteToStream@CComVariant@ATL@@QEAAJPEAUIStream@@G@Z 000000018000c73c f i GraphicDisplay.obj
 0001:0000b7d4       ?_AtlVerifyStackAvailable@_ATL_SAFE_ALLOCA_IMPL@ATL@@YA_N_K@Z 000000018000c7d4 f i GraphicDisplay.obj
 0001:0000b858       ?atlCreate@?$CWindowImpl@VCOPOSGraphicDisplay@@VCWindow@ATL@@V?$CWinTraits@$0FGAAAAAA@$0A@@3@@ATL@@QEAAPEAUHWND__@@PEAU3@V_U_RECT@2@PEB_WKKV_U_MENUorID@2@PEAX@Z 000000018000c858 f i GraphicDisplay.obj
 0001:0000b914       ?atlCreate@?$CWindowImplBaseT@VCWindow@ATL@@V?$CWinTraits@$0FGAAAAAA@$0A@@2@@ATL@@QEAAPEAUHWND__@@PEAU3@V_U_RECT@2@PEB_WKKV_U_MENUorID@2@GPEAX@Z 000000018000c914 f i GraphicDisplay.obj
 0001:0000ba84       ?ocscpy_s@@YA_NPEA_W_KPEB_W@Z 000000018000ca84 f i GraphicDisplay.obj
 0001:0000bb34       DllCanUnloadNow            000000018000cb34 f   GraphicDisplay.obj
 0001:0000bb40       DllGetClassObject          000000018000cb40 f   GraphicDisplay.obj
 0001:0000bb58       DllMain                    000000018000cb58 f   GraphicDisplay.obj
 0001:0000bc00       DllRegisterServer          000000018000cc00 f   GraphicDisplay.obj
 0001:0000bc14       DllUnregisterServer        000000018000cc14 f   GraphicDisplay.obj
 0001:0000bc28       __local_stdio_printf_options 000000018000cc28 f i GraphicDisplay.obj
 0001:0000bc30       swprintf_s                 000000018000cc30 f i GraphicDisplay.obj
 0001:0000bc84       ??0COPOSGraphicDisplay@@QEAA@XZ 000000018000cc84 f   GraphicDisplayImpl.obj
 0001:0000bd54       ??1?$IConnectionPointImpl@VCOPOSGraphicDisplay@@$1?IID_IPropertyNotifySink@@3U_GUID@@BVCComDynamicUnkArray@ATL@@@ATL@@QEAA@XZ 000000018000cd54 f i GraphicDisplayImpl.obj
 0001:0000bd54       ??1?$IConnectionPointImpl@VCOPOSGraphicDisplay@@$1?DIID__IOPOSGraphicDisplayEvents@@3U_GUID@@BVCComDynamicUnkArray@ATL@@@ATL@@QEAA@XZ 000000018000cd54 f i GraphicDisplayImpl.obj
 0001:0000bdb0       ??1CComControlBase@ATL@@UEAA@XZ 000000018000cdb0 f i GraphicDisplayImpl.obj
 0001:0000be2c       ??1COPOSGraphicDisplay@@UEAA@XZ 000000018000ce2c f   GraphicDisplayImpl.obj
 0001:0000be90       ?CancelURLLoading@COPOSGraphicDisplay@@UEAAJPEAJ@Z 000000018000ce90 f   GraphicDisplayImpl.obj
 0001:0000beb8       ?CheckHealth@COPOSGraphicDisplay@@UEAAJJPEAJ@Z 000000018000ceb8 f   GraphicDisplayImpl.obj
 0001:0000bf34       ?ClaimDevice@COPOSGraphicDisplay@@UEAAJJPEAJ@Z 000000018000cf34 f   GraphicDisplayImpl.obj
 0001:0000bfd4       ?ClearOutput@COPOSGraphicDisplay@@UEAAJPEAJ@Z 000000018000cfd4 f   GraphicDisplayImpl.obj
 0001:0000bffc       ?Close@COPOSGraphicDisplay@@UEAAJPEAJ@Z 000000018000cffc f   GraphicDisplayImpl.obj
 0001:0000c0b4       ?CompareFirmwareVersion@COPOSGraphicDisplay@@UEAAJPEA_WPEAJ1@Z 000000018000d0b4 f   GraphicDisplayImpl.obj
 0001:0000c190       ?DirectIO@COPOSGraphicDisplay@@UEAAJJPEAJPEAPEA_W0@Z 000000018000d190 f   GraphicDisplayImpl.obj
 0001:0000c28c       ?DoInvoke@COPOSGraphicDisplay@@IEAAJJPEAVOposVariant@@IHPEAJ_N@Z 000000018000d28c f   GraphicDisplayImpl.obj
 0001:0000c3c0       ?EventInit@COPOSGraphicDisplay@@IEAAJXZ 000000018000d3c0 f i GraphicDisplayImpl.obj
 0001:0000c510       ?EventUninit@COPOSGraphicDisplay@@IEAAXXZ 000000018000d510 f i GraphicDisplayImpl.obj
 0001:0000c574       ?EventWindowProc@COPOSGraphicDisplay@@IEAA_JI_K_J@Z 000000018000d574 f i GraphicDisplayImpl.obj
 0001:0000c6f0       ?FinalConstruct@COPOSGraphicDisplay@@QEAAJXZ 000000018000d6f0 f   GraphicDisplayImpl.obj
 0001:0000c72c       ?FreezeEvents@COPOSGraphicDisplay@@MEAAJH@Z 000000018000d72c f   GraphicDisplayImpl.obj
 0001:0000c798       ?GetOposProp@COPOSGraphicDisplay@@IEAAJJPEAJJ@Z 000000018000d798 f   GraphicDisplayImpl.obj
 0001:0000c8b4       ?GetOposProp@COPOSGraphicDisplay@@IEAAJJPEAPEA_WJ@Z 000000018000d8b4 f   GraphicDisplayImpl.obj
 0001:0000c9e0       ?GoURLBack@COPOSGraphicDisplay@@UEAAJPEAJ@Z 000000018000d9e0 f   GraphicDisplayImpl.obj
 0001:0000ca08       ?GoURLForward@COPOSGraphicDisplay@@UEAAJPEAJ@Z 000000018000da08 f   GraphicDisplayImpl.obj
 0001:0000ca30       ?LoadImageW@COPOSGraphicDisplay@@UEAAJPEA_WPEAJ@Z 000000018000da30 f   GraphicDisplayImpl.obj
 0001:0000cab8       ?LoadURL@COPOSGraphicDisplay@@UEAAJPEA_WPEAJ@Z 000000018000dab8 f   GraphicDisplayImpl.obj
 0001:0000cb40       ?OnDraw@COPOSGraphicDisplay@@MEAAJAEAUATL_DRAWINFO@@@Z 000000018000db40 f   GraphicDisplayImpl.obj
 0001:0000cc2c       ?Open@COPOSGraphicDisplay@@UEAAJPEA_WPEAJ@Z 000000018000dc2c f   GraphicDisplayImpl.obj
 0001:0000d49c       ?PlayVideo@COPOSGraphicDisplay@@UEAAJPEA_WFPEAJ@Z 000000018000e49c f   GraphicDisplayImpl.obj
 0001:0000d574       ?ReleaseDevice@COPOSGraphicDisplay@@UEAAJPEAJ@Z 000000018000e574 f   GraphicDisplayImpl.obj
 0001:0000d5e0       ?ResetStatistics@COPOSGraphicDisplay@@UEAAJPEA_WPEAJ@Z 000000018000e5e0 f   GraphicDisplayImpl.obj
 0001:0000d668       ?RetrieveStatistics@COPOSGraphicDisplay@@UEAAJPEAPEA_WPEAJ@Z 000000018000e668 f   GraphicDisplayImpl.obj
 0001:0000d6f0       ?SOProcessID@COPOSGraphicDisplay@@UEAAJPEAJ@Z 000000018000e6f0 f   GraphicDisplayImpl.obj
 0001:0000d70c       ?SetCOFreezeEvents@COPOSGraphicDisplay@@IEAAXF@Z 000000018000e70c f   GraphicDisplayImpl.obj
 0001:0000d7f0       ?SetOposProp@COPOSGraphicDisplay@@IEAAJJJJ@Z 000000018000e7f0 f   GraphicDisplayImpl.obj
 0001:0000d950       ?SetOposProp@COPOSGraphicDisplay@@IEAAJJPEA_WJ@Z 000000018000e950 f   GraphicDisplayImpl.obj
 0001:0000daa8       ?StopVideo@COPOSGraphicDisplay@@UEAAJPEAJ@Z 000000018000eaa8 f   GraphicDisplayImpl.obj
 0001:0000dad0       ?UpdateFirmware@COPOSGraphicDisplay@@UEAAJPEA_WPEAJ@Z 000000018000ead0 f   GraphicDisplayImpl.obj
 0001:0000db58       ?UpdatePage@COPOSGraphicDisplay@@UEAAJPEAJ@Z 000000018000eb58 f   GraphicDisplayImpl.obj
 0001:0000db80       ?UpdateStatistics@COPOSGraphicDisplay@@UEAAJPEA_WPEAJ@Z 000000018000eb80 f   GraphicDisplayImpl.obj
 0001:0000dc08       ?get_BinaryConversion@COPOSGraphicDisplay@@UEAAJPEAJ@Z 000000018000ec08 f   GraphicDisplayImpl.obj
 0001:0000dc1c       ?get_Brightness@COPOSGraphicDisplay@@UEAAJPEAJ@Z 000000018000ec1c f   GraphicDisplayImpl.obj
 0001:0000dc30       ?get_CapAssociatedHardTotalsDevice@COPOSGraphicDisplay@@UEAAJPEAPEA_W@Z 000000018000ec30 f   GraphicDisplayImpl.obj
 0001:0000dc44       ?get_CapBrightness@COPOSGraphicDisplay@@UEAAJPEAF@Z 000000018000ec44 f   GraphicDisplayImpl.obj
 0001:0000dc78       ?get_CapCompareFirmwareVersion@COPOSGraphicDisplay@@UEAAJPEAF@Z 000000018000ec78 f   GraphicDisplayImpl.obj
 0001:0000dcac       ?get_CapImageType@COPOSGraphicDisplay@@UEAAJPEAF@Z 000000018000ecac f   GraphicDisplayImpl.obj
 0001:0000dce0       ?get_CapPowerReporting@COPOSGraphicDisplay@@UEAAJPEAJ@Z 000000018000ece0 f   GraphicDisplayImpl.obj
 0001:0000dcf4       ?get_CapStatisticsReporting@COPOSGraphicDisplay@@UEAAJPEAF@Z 000000018000ecf4 f   GraphicDisplayImpl.obj
 0001:0000dd28       ?get_CapStorage@COPOSGraphicDisplay@@UEAAJPEAJ@Z 000000018000ed28 f   GraphicDisplayImpl.obj
 0001:0000dd3c       ?get_CapURLBack@COPOSGraphicDisplay@@UEAAJPEAF@Z 000000018000ed3c f   GraphicDisplayImpl.obj
 0001:0000dd70       ?get_CapURLForward@COPOSGraphicDisplay@@UEAAJPEAF@Z 000000018000ed70 f   GraphicDisplayImpl.obj
 0001:0000dda4       ?get_CapUpdateFirmware@COPOSGraphicDisplay@@UEAAJPEAF@Z 000000018000eda4 f   GraphicDisplayImpl.obj
 0001:0000ddd8       ?get_CapUpdateStatistics@COPOSGraphicDisplay@@UEAAJPEAF@Z 000000018000edd8 f   GraphicDisplayImpl.obj
 0001:0000de0c       ?get_CapVideoType@COPOSGraphicDisplay@@UEAAJPEAF@Z 000000018000ee0c f   GraphicDisplayImpl.obj
 0001:0000de40       ?get_CapVolume@COPOSGraphicDisplay@@UEAAJPEAF@Z 000000018000ee40 f   GraphicDisplayImpl.obj
 0001:0000de74       ?get_CheckHealthText@COPOSGraphicDisplay@@UEAAJPEAPEA_W@Z 000000018000ee74 f   GraphicDisplayImpl.obj
 0001:0000de88       ?get_Claimed@COPOSGraphicDisplay@@UEAAJPEAF@Z 000000018000ee88 f   GraphicDisplayImpl.obj
 0001:0000debc       ?get_ControlObjectDescription@COPOSGraphicDisplay@@UEAAJPEAPEA_W@Z 000000018000eebc f   GraphicDisplayImpl.obj
 0001:0000df20       ?get_ControlObjectVersion@COPOSGraphicDisplay@@UEAAJPEAJ@Z 000000018000ef20 f   GraphicDisplayImpl.obj
 0001:0000df2c       ?get_DeviceDescription@COPOSGraphicDisplay@@UEAAJPEAPEA_W@Z 000000018000ef2c f   GraphicDisplayImpl.obj
 0001:0000df40       ?get_DeviceEnabled@COPOSGraphicDisplay@@UEAAJPEAF@Z 000000018000ef40 f   GraphicDisplayImpl.obj
 0001:0000df74       ?get_DeviceName@COPOSGraphicDisplay@@UEAAJPEAPEA_W@Z 000000018000ef74 f   GraphicDisplayImpl.obj
 0001:0000df88       ?get_DisplayMode@COPOSGraphicDisplay@@UEAAJPEAJ@Z 000000018000ef88 f   GraphicDisplayImpl.obj
 0001:0000df9c       ?get_FreezeEvents@COPOSGraphicDisplay@@UEAAJPEAF@Z 000000018000ef9c f   GraphicDisplayImpl.obj
 0001:0000dfcc       ?get_ImageType@COPOSGraphicDisplay@@UEAAJPEAPEA_W@Z 000000018000efcc f   GraphicDisplayImpl.obj
 0001:0000dfe0       ?get_ImageTypeList@COPOSGraphicDisplay@@UEAAJPEAPEA_W@Z 000000018000efe0 f   GraphicDisplayImpl.obj
 0001:0000dff4       ?get_LoadStatus@COPOSGraphicDisplay@@UEAAJPEAJ@Z 000000018000eff4 f   GraphicDisplayImpl.obj
 0001:0000e008       ?get_OpenResult@COPOSGraphicDisplay@@UEAAJPEAJ@Z 000000018000f008 f   GraphicDisplayImpl.obj
 0001:0000e014       ?get_OutputID@COPOSGraphicDisplay@@UEAAJPEAJ@Z 000000018000f014 f   GraphicDisplayImpl.obj
 0001:0000e028       ?get_PowerNotify@COPOSGraphicDisplay@@UEAAJPEAJ@Z 000000018000f028 f   GraphicDisplayImpl.obj
 0001:0000e03c       ?get_PowerState@COPOSGraphicDisplay@@UEAAJPEAJ@Z 000000018000f03c f   GraphicDisplayImpl.obj
 0001:0000e050       ?get_ResultCode@COPOSGraphicDisplay@@UEAAJPEAJ@Z 000000018000f050 f   GraphicDisplayImpl.obj
 0001:0000e08c       ?get_ResultCodeExtended@COPOSGraphicDisplay@@UEAAJPEAJ@Z 000000018000f08c f   GraphicDisplayImpl.obj
 0001:0000e0a0       ?get_ServiceObjectDescription@COPOSGraphicDisplay@@UEAAJPEAPEA_W@Z 000000018000f0a0 f   GraphicDisplayImpl.obj
 0001:0000e0b4       ?get_ServiceObjectVersion@COPOSGraphicDisplay@@UEAAJPEAJ@Z 000000018000f0b4 f   GraphicDisplayImpl.obj
 0001:0000e0c8       ?get_State@COPOSGraphicDisplay@@UEAAJPEAJ@Z 000000018000f0c8 f   GraphicDisplayImpl.obj
 0001:0000e0f4       ?get_Storage@COPOSGraphicDisplay@@UEAAJPEAJ@Z 000000018000f0f4 f   GraphicDisplayImpl.obj
 0001:0000e108       ?get_URL@COPOSGraphicDisplay@@UEAAJPEAPEA_W@Z 000000018000f108 f   GraphicDisplayImpl.obj
 0001:0000e11c       ?get_VideoType@COPOSGraphicDisplay@@UEAAJPEAPEA_W@Z 000000018000f11c f   GraphicDisplayImpl.obj
 0001:0000e130       ?get_VideoTypeList@COPOSGraphicDisplay@@UEAAJPEAPEA_W@Z 000000018000f130 f   GraphicDisplayImpl.obj
 0001:0000e144       ?get_Volume@COPOSGraphicDisplay@@UEAAJPEAJ@Z 000000018000f144 f   GraphicDisplayImpl.obj
 0001:0000e158       ?put_BinaryConversion@COPOSGraphicDisplay@@UEAAJJ@Z 000000018000f158 f   GraphicDisplayImpl.obj
 0001:0000e16c       ?put_Brightness@COPOSGraphicDisplay@@UEAAJJ@Z 000000018000f16c f   GraphicDisplayImpl.obj
 0001:0000e180       ?put_DeviceEnabled@COPOSGraphicDisplay@@UEAAJF@Z 000000018000f180 f   GraphicDisplayImpl.obj
 0001:0000e198       ?put_DisplayMode@COPOSGraphicDisplay@@UEAAJJ@Z 000000018000f198 f   GraphicDisplayImpl.obj
 0001:0000e1ac       ?put_FreezeEvents@COPOSGraphicDisplay@@UEAAJF@Z 000000018000f1ac f   GraphicDisplayImpl.obj
 0001:0000e1fc       ?put_ImageType@COPOSGraphicDisplay@@UEAAJPEA_W@Z 000000018000f1fc f   GraphicDisplayImpl.obj
 0001:0000e210       ?put_PowerNotify@COPOSGraphicDisplay@@UEAAJJ@Z 000000018000f210 f   GraphicDisplayImpl.obj
 0001:0000e224       ?put_Storage@COPOSGraphicDisplay@@UEAAJJ@Z 000000018000f224 f   GraphicDisplayImpl.obj
 0001:0000e238       ?put_VideoType@COPOSGraphicDisplay@@UEAAJPEA_W@Z 000000018000f238 f   GraphicDisplayImpl.obj
 0001:0000e24c       ?put_Volume@COPOSGraphicDisplay@@UEAAJJ@Z 000000018000f24c f   GraphicDisplayImpl.obj
 0001:0000e260       ?s_EventWindowProc@COPOSGraphicDisplay@@KA_JPEAUHWND__@@I_K_J@Z 000000018000f260 f i GraphicDisplayImpl.obj
 0001:0000e2dc       ??_U@YAPEAX_K@Z            000000018000f2dc f   LIBCMT:new_array.obj
 0001:0000e2e4       ??_V@YAXPEAX@Z             000000018000f2e4 f   LIBCMT:delete_array.obj
 0001:0000e2e4       ??3@YAXPEAX_K@Z            000000018000f2e4 f   LIBCMT:delete_scalar_size.obj
 0001:0000e2ec       ??_V@YAXPEAX_K@Z           000000018000f2ec f   LIBCMT:delete_array_size.obj
 0001:0000e2f4       __scrt_acquire_startup_lock 000000018000f2f4 f   LIBCMT:utility.obj
 0001:0000e330       __scrt_dllmain_after_initialize_c 000000018000f330 f   LIBCMT:utility.obj
 0001:0000e364       __scrt_dllmain_before_initialize_c 000000018000f364 f   LIBCMT:utility.obj
 0001:0000e37c       __scrt_dllmain_crt_thread_attach 000000018000f37c f   LIBCMT:utility.obj
 0001:0000e3a4       __scrt_dllmain_crt_thread_detach 000000018000f3a4 f   LIBCMT:utility.obj
 0001:0000e3bc       __scrt_dllmain_exception_filter 000000018000f3bc f   LIBCMT:utility.obj
 0001:0000e41c       __scrt_dllmain_uninitialize_c 000000018000f41c f   LIBCMT:utility.obj
 0001:0000e44c       __scrt_dllmain_uninitialize_critical 000000018000f44c f   LIBCMT:utility.obj
 0001:0000e460       __scrt_initialize_crt      000000018000f460 f   LIBCMT:utility.obj
 0001:0000e4ac       __scrt_initialize_onexit_tables 000000018000f4ac f   LIBCMT:utility.obj
 0001:0000e538       __scrt_is_nonwritable_in_current_image 000000018000f538 f   LIBCMT:utility.obj
 0001:0000e5d0       __scrt_release_startup_lock 000000018000f5d0 f   LIBCMT:utility.obj
 0001:0000e5f4       __scrt_uninitialize_crt    000000018000f5f4 f   LIBCMT:utility.obj
 0001:0000e620       _onexit                    000000018000f620 f   LIBCMT:utility.obj
 0001:0000e65c       atexit                     000000018000f65c f   LIBCMT:utility.obj
 0001:0000e674       ??3@YAXPEAX@Z              000000018000f674 f   LIBCMT:delete_scalar.obj
 0001:0000e774       _Init_thread_footer        000000018000f774 f   LIBCMT:thread_safe_statics.obj
 0001:0000e7d4       _Init_thread_header        000000018000f7d4 f   LIBCMT:thread_safe_statics.obj
 0001:0000e83c       _Init_thread_notify        000000018000f83c f   LIBCMT:thread_safe_statics.obj
 0001:0000e880       _Init_thread_wait          000000018000f880 f   LIBCMT:thread_safe_statics.obj
 0001:0000e8e4       __raise_securityfailure    000000018000f8e4 f   LIBCMT:gs_report.obj
 0001:0000e918       __report_gsfailure         000000018000f918 f   LIBCMT:gs_report.obj
 0001:0000e9ec       __report_rangecheckfailure 000000018000f9ec f   LIBCMT:gs_report.obj
 0001:0000ea00       __report_securityfailure   000000018000fa00 f   LIBCMT:gs_report.obj
 0001:0000eb80       ??2@YAPEAX_KAEBUnothrow_t@std@@@Z 000000018000fb80 f   LIBCMT:new_scalar_nothrow.obj
 0001:0000eb94       ??_U@YAPEAX_KAEBUnothrow_t@std@@@Z 000000018000fb94 f   LIBCMT:new_array_nothrow.obj
 0001:0000eb9c       __GSHandlerCheck           000000018000fb9c f   LIBCMT:gshandler.obj
 0001:0000ebbc       __GSHandlerCheckCommon     000000018000fbbc f   LIBCMT:gshandler.obj
 0001:0000ec18       __GSHandlerCheck_SEH       000000018000fc18 f   LIBCMT:gshandlerseh.obj
 0001:0000ecb0       __chkstk                   000000018000fcb0 f   LIBCMT:chkstk.obj
 0001:0000ecb0       _alloca_probe              000000018000fcb0 f   LIBCMT:chkstk.obj
 0001:0000ed10       __security_check_cookie    000000018000fd10 f   LIBCMT:amdsecgs.obj
 0001:0000f050       _DllMainCRTStartup         0000000180010050 f   LIBCMT:dll_dllmain.obj
 0001:0000f090       ??2@YAPEAX_K@Z             0000000180010090 f   LIBCMT:new_scalar.obj
 0001:0000f0cc       __isa_available_init       00000001800100cc f   LIBCMT:cpu_disp.obj
 0001:0000f270       __scrt_is_ucrt_dll_in_use  0000000180010270 f   LIBCMT:ucrt_detection.obj
 0001:0000f27c       __crt_debugger_hook        000000018001027c f   LIBCMT:utility_desktop.obj
 0001:0000f284       __scrt_fastfail            0000000180010284 f   LIBCMT:utility_desktop.obj
 0001:0000f3d0       __security_init_cookie     00000001800103d0 f   LIBCMT:gs_support.obj
 0001:0000f47c       ?__scrt_initialize_type_info@@YAXXZ 000000018001047c f   LIBCMT:tncleanup.obj
 0001:0000f48c       ?__scrt_uninitialize_type_info@@YAXXZ 000000018001048c f   LIBCMT:tncleanup.obj
 0001:0000f498       __local_stdio_scanf_options 0000000180010498 f i LIBCMT:default_local_stdio_options.obj
 0001:0000f4a0       __scrt_initialize_default_local_stdio_options 00000001800104a0 f   LIBCMT:default_local_stdio_options.obj
 0001:0000f4bc       __scrt_get_dyn_tls_init_callback 00000001800104bc f   LIBCMT:dyn_tls_init.obj
 0001:0000f4c4       _RTC_Initialize            00000001800104c4 f   LIBCMT:initsect.obj
 0001:0000f500       _RTC_Terminate             0000000180010500 f   LIBCMT:initsect.obj
 0001:0000f53c       ??0bad_alloc@std@@QEAA@AEBV01@@Z 000000018001053c f i LIBCMT:throw_bad_alloc.obj
 0001:0000f578       ??0bad_alloc@std@@QEAA@XZ  0000000180010578 f i LIBCMT:throw_bad_alloc.obj
 0001:0000f598       ??0bad_array_new_length@std@@QEAA@AEBV01@@Z 0000000180010598 f i LIBCMT:throw_bad_alloc.obj
 0001:0000f5d4       ??0bad_array_new_length@std@@QEAA@XZ 00000001800105d4 f i LIBCMT:throw_bad_alloc.obj
 0001:0000f5f4       ??0exception@std@@QEAA@AEBV01@@Z 00000001800105f4 f i LIBCMT:throw_bad_alloc.obj
 0001:0000f628       ??1bad_array_new_length@std@@UEAA@XZ 0000000180010628 f i LIBCMT:throw_bad_alloc.obj
 0001:0000f628       ??1bad_exception@std@@UEAA@XZ 0000000180010628 f i libvcruntime:frame.obj
 0001:0000f628       ??1bad_alloc@std@@UEAA@XZ  0000000180010628 f i LIBCMT:throw_bad_alloc.obj
 0001:0000f63c       ??_Gexception@std@@UEAAPEAXI@Z 000000018001063c f i LIBCMT:throw_bad_alloc.obj
 0001:0000f63c       ??_Gbad_alloc@std@@UEAAPEAXI@Z 000000018001063c f i LIBCMT:throw_bad_alloc.obj
 0001:0000f63c       ??_Gbad_array_new_length@std@@UEAAPEAXI@Z 000000018001063c f i LIBCMT:throw_bad_alloc.obj
 0001:0000f63c       ??_Ebad_alloc@std@@UEAAPEAXI@Z 000000018001063c f i LIBCMT:throw_bad_alloc.obj
 0001:0000f63c       ??_Gbad_exception@std@@UEAAPEAXI@Z 000000018001063c f i libvcruntime:frame.obj
 0001:0000f63c       ??_Eexception@std@@UEAAPEAXI@Z 000000018001063c f i LIBCMT:throw_bad_alloc.obj
 0001:0000f63c       ??_Ebad_exception@std@@UEAAPEAXI@Z 000000018001063c f i libvcruntime:frame.obj
 0001:0000f63c       ??_Ebad_array_new_length@std@@UEAAPEAXI@Z 000000018001063c f i LIBCMT:throw_bad_alloc.obj
 0001:0000f680       ?__scrt_throw_std_bad_alloc@@YAXXZ 0000000180010680 f   LIBCMT:throw_bad_alloc.obj
 0001:0000f6a0       ?__scrt_throw_std_bad_array_new_length@@YAXXZ 00000001800106a0 f   LIBCMT:throw_bad_alloc.obj
 0001:0000f6c0       ?what@exception@std@@UEBAPEBDXZ 00000001800106c0 f i LIBCMT:throw_bad_alloc.obj
 0001:0000f6e0       ??_Etype_info@@UEAAPEAXI@Z 00000001800106e0 f i LIBCMT:std_type_info_static.obj
 0001:0000f6e0       ??_Gtype_info@@UEAAPEAXI@Z 00000001800106e0 f i LIBCMT:std_type_info_static.obj
 0001:0000f70c       ??0CAtlBaseModule@ATL@@QEAA@XZ 000000018001070c f   atls:atlbase.obj
 0001:0000f7b4       ??1CAtlBaseModule@ATL@@QEAA@XZ 00000001800107b4 f   atls:atlbase.obj
 0001:0000f8e8       ?__AllocStdCallThunk_cmn@@YAPEAXXZ 00000001800108e8 f   atls:atlthunk.obj
 0001:0000fa40       AtlThunk_AllocateData      0000000180010a40 f   atls:atlthunk.obj
 0001:0000fabc       AtlThunk_DataToCode        0000000180010abc f   atls:atlthunk.obj
 0001:0000fb10       AtlThunk_FreeData          0000000180010b10 f   atls:atlthunk.obj
 0001:0000fb70       AtlThunk_InitData          0000000180010b70 f   atls:atlthunk.obj
 0001:0000fc18       _get_purecall_handler      0000000180010c18 f   libvcruntime:purevirt.obj
 0001:0000fc24       _purecall                  0000000180010c24 f   libvcruntime:purevirt.obj
 0001:0000fc40       wcsstr                     0000000180010c40 f   libvcruntime:wcsstr.obj
 0001:0000fe70       memcmp                     0000000180010e70 f   libvcruntime:memcmp.obj
 0001:0000ff50       memcpy_repmovs             0000000180010f50 f   libvcruntime:memcpy.obj
 0001:0000ff70       memcpy                     0000000180010f70 f   libvcruntime:memcpy.obj
 0001:0000ff70       memmove                    0000000180010f70 f   libvcruntime:memcpy.obj
 0001:00010600       memset_repmovs             0000000180011600 f   libvcruntime:memset.obj
 0001:00010620       memset                     0000000180011620 f   libvcruntime:memset.obj
 0001:000107b0       __vcrt_initialize          00000001800117b0 f   libvcruntime:initialization.obj
 0001:000107d8       __vcrt_thread_attach       00000001800117d8 f   libvcruntime:initialization.obj
 0001:000107ec       __vcrt_thread_detach       00000001800117ec f   libvcruntime:initialization.obj
 0001:00010800       __vcrt_uninitialize        0000000180011800 f   libvcruntime:initialization.obj
 0001:0001081c       __vcrt_uninitialize_critical 000000018001181c f   libvcruntime:initialization.obj
 0001:0001082c       __C_specific_handler       000000018001182c f   libvcruntime:riscchandler.obj
 0001:00010a24       ??$_CallSETranslator@V__FrameHandler3@@@@YAHPEAUEHExceptionRecord@@PEA_KPEAU_CONTEXT@@PEAU_xDISPATCHER_CONTEXT@@PEBU_s_FuncInfo@@K1H@Z 0000000180011a24 f i libvcruntime:risctrnsctrl.obj
 0001:00010a78       ??$_CallSETranslator@V__FrameHandler4@@@@YAHPEAUEHExceptionRecord@@PEA_KPEAU_CONTEXT@@PEAU_xDISPATCHER_CONTEXT@@PEAUFuncInfo4@FH4@@K1H@Z 0000000180011a78 f i libvcruntime:risctrnsctrl.obj
 0001:00010acc       ?CatchTryBlock@__FrameHandler3@@SAPEBU_s_TryBlockMapEntry@@PEBU_s_FuncInfo@@H@Z 0000000180011acc f   libvcruntime:risctrnsctrl.obj
 0001:00010b30       ?DecompFuncInfo@FH4@@YA_JPEAEAEAUFuncInfo4@1@_KH_N@Z 0000000180011b30 f i libvcruntime:risctrnsctrl.obj
 0001:00010c54       ?ExecutionInCatch@__FrameHandler3@@SA_NPEAU_xDISPATCHER_CONTEXT@@PEBU_s_FuncInfo@@@Z 0000000180011c54 f   libvcruntime:risctrnsctrl.obj
 0001:00010c80       ?ExecutionInCatch@__FrameHandler4@@SA_NPEAU_xDISPATCHER_CONTEXT@@PEAUFuncInfo4@FH4@@@Z 0000000180011c80 f   libvcruntime:risctrnsctrl.obj
 0001:00010c88       ?FrameUnwindToEmptyState@__FrameHandler3@@SAXPEA_KPEAU_xDISPATCHER_CONTEXT@@PEBU_s_FuncInfo@@@Z 0000000180011c88 f   libvcruntime:risctrnsctrl.obj
 0001:00010cec       ?FrameUnwindToEmptyState@__FrameHandler4@@SAXPEA_KPEAU_xDISPATCHER_CONTEXT@@PEAUFuncInfo4@FH4@@@Z 0000000180011cec f   libvcruntime:risctrnsctrl.obj
 0001:00010d20       ?GetEstablisherFrame@__FrameHandler3@@SAPEA_KPEA_KPEAU_xDISPATCHER_CONTEXT@@PEBU_s_FuncInfo@@0@Z 0000000180011d20 f   libvcruntime:risctrnsctrl.obj
 0001:00010dec       ?GetEstablisherFrame@__FrameHandler4@@SAPEA_KPEA_KPEAU_xDISPATCHER_CONTEXT@@PEAUFuncInfo4@FH4@@0@Z 0000000180011dec f   libvcruntime:risctrnsctrl.obj
 0001:00010e10       ?GetRangeOfTrysToCheck@__FrameHandler3@@SA?AU?$pair@Viterator@TryBlockMap@__FrameHandler3@@V123@@std@@AEAVTryBlockMap@1@HPEAU_xDISPATCHER_CONTEXT@@PEBU_s_FuncInfo@@H@Z 0000000180011e10 f   libvcruntime:risctrnsctrl.obj
 0001:00010f50       ?GetRangeOfTrysToCheck@__FrameHandler4@@SA?AU?$pair@Viterator@TryBlockMap4@FH4@@V123@@std@@AEAVTryBlockMap4@FH4@@HPEAU_xDISPATCHER_CONTEXT@@PEAUFuncInfo4@5@H@Z 0000000180011f50 f   libvcruntime:risctrnsctrl.obj
 0001:000110bc       ?UnwindNestedFrames@__FrameHandler3@@SAXPEA_KPEAUEHExceptionRecord@@PEAU_CONTEXT@@0PEAXPEBU_s_FuncInfo@@HHPEBU_s_HandlerType@@PEAU_xDISPATCHER_CONTEXT@@E@Z 00000001800120bc f   libvcruntime:risctrnsctrl.obj
 0001:000111c0       ?UnwindNestedFrames@__FrameHandler4@@SAXPEA_KPEAUEHExceptionRecord@@PEAU_CONTEXT@@0PEAXPEAUFuncInfo4@FH4@@HHPEAUHandlerType4@5@PEAU_xDISPATCHER_CONTEXT@@E@Z 00000001800121c0 f   libvcruntime:risctrnsctrl.obj
 0001:000112e0       ?setBuffer@TryBlockMap4@FH4@@QEAAXViterator@12@@Z 00000001800122e0 f i libvcruntime:risctrnsctrl.obj
 0001:000114a4       _CreateFrameInfo           00000001800124a4 f   libvcruntime:risctrnsctrl.obj
 0001:000114e0       _FindAndUnlinkFrame        00000001800124e0 f   libvcruntime:risctrnsctrl.obj
 0001:00011534       _GetImageBase              0000000180012534 f   libvcruntime:risctrnsctrl.obj
 0001:00011548       _GetThrowImageBase         0000000180012548 f   libvcruntime:risctrnsctrl.obj
 0001:0001155c       _SetImageBase              000000018001255c f   libvcruntime:risctrnsctrl.obj
 0001:00011574       _SetThrowImageBase         0000000180012574 f   libvcruntime:risctrnsctrl.obj
 0001:0001158c       __CxxFrameHandler3         000000018001258c f   libvcruntime:risctrnsctrl.obj
 0001:00011614       __CxxFrameHandler4         0000000180012614 f   libvcruntime:risctrnsctrl.obj
 0001:000116d4       __DestructExceptionObject  00000001800126d4 f   libvcruntime:ehhelpers.obj
 0001:00011744       ?_CallMemberFunction0@@YAXQEAX0@Z 0000000180012744 f i libvcruntime:ehhelpers.obj
 0001:00011748       _IsExceptionObjectToBeDestroyed 0000000180012748 f   libvcruntime:ehhelpers.obj
 0001:00011778       __AdjustPointer            0000000180012778 f   libvcruntime:ehhelpers.obj
 0001:0001179c       __FrameUnwindFilter        000000018001279c f   libvcruntime:ehhelpers.obj
 0001:00011804       __std_terminate            0000000180012804 f   libvcruntime:ehhelpers.obj
 0001:00011810       __std_type_info_compare    0000000180012810 f   libvcruntime:std_type_info.obj
 0001:00011838       __std_type_info_destroy_list 0000000180012838 f   libvcruntime:std_type_info.obj
 0001:00011864       __std_exception_copy       0000000180012864 f   libvcruntime:std_exception.obj
 0001:000118f4       __std_exception_destroy    00000001800128f4 f   libvcruntime:std_exception.obj
 0001:0001191c       _CxxThrowException         000000018001291c f   libvcruntime:throw.obj
 0001:000119bc       __vcrt_freefls             00000001800129bc f   libvcruntime:per_thread_data.obj
 0001:000119dc       __vcrt_freeptd             00000001800129dc f   libvcruntime:per_thread_data.obj
 0001:00011a2c       __vcrt_getptd              0000000180012a2c f   libvcruntime:per_thread_data.obj
 0001:00011a48       __vcrt_getptd_noexit       0000000180012a48 f   libvcruntime:per_thread_data.obj
 0001:00011b08       __vcrt_initialize_ptd      0000000180012b08 f   libvcruntime:per_thread_data.obj
 0001:00011b50       __vcrt_uninitialize_ptd    0000000180012b50 f   libvcruntime:per_thread_data.obj
 0001:00011b74       __vcrt_initialize_locks    0000000180012b74 f   libvcruntime:locks.obj
 0001:00011bbc       __vcrt_uninitialize_locks  0000000180012bbc f   libvcruntime:locks.obj
 0001:00011c10       _NLG_Notify                0000000180012c10 f   libvcruntime:notify.obj
 0001:00011c30       __NLG_Dispatch2            0000000180012c30 f   libvcruntime:notify.obj
 0001:00011c40       __NLG_Return2              0000000180012c40 f   libvcruntime:notify.obj
 0001:00011c44       __except_validate_context_record 0000000180012c44 f   libvcruntime:jbcxrval.obj
 0001:00011c7c       ?GetCurrentState@__FrameHandler3@@SAHPEA_KPEAU_xDISPATCHER_CONTEXT@@PEBU_s_FuncInfo@@@Z 0000000180012c7c f   libvcruntime:ehstate.obj
 0001:00011ca4       ?GetUnwindTryBlock@__FrameHandler3@@SAHPEA_KPEAU_xDISPATCHER_CONTEXT@@PEBU_s_FuncInfo@@@Z 0000000180012ca4 f   libvcruntime:ehstate.obj
 0001:00011cd0       ?SetState@__FrameHandler3@@SAXPEA_KPEBU_s_FuncInfo@@H@Z 0000000180012cd0 f   libvcruntime:ehstate.obj
 0001:00011cdc       ?SetUnwindTryBlock@__FrameHandler3@@SAXPEA_KPEAU_xDISPATCHER_CONTEXT@@PEBU_s_FuncInfo@@H@Z 0000000180012cdc f   libvcruntime:ehstate.obj
 0001:00011d18       ?StateFromControlPc@__FrameHandler3@@SAHPEBU_s_FuncInfo@@PEAU_xDISPATCHER_CONTEXT@@@Z 0000000180012d18 f   libvcruntime:ehstate.obj
 0001:00011d20       ?StateFromControlPc@__FrameHandler4@@SAHPEAUFuncInfo4@FH4@@PEAU_xDISPATCHER_CONTEXT@@@Z 0000000180012d20 f   libvcruntime:ehstate.obj
 0001:00011d28       ?StateFromIp@__FrameHandler3@@SAHPEBU_s_FuncInfo@@PEAU_xDISPATCHER_CONTEXT@@_K@Z 0000000180012d28 f   libvcruntime:ehstate.obj
 0001:00011d90       ?StateFromIp@__FrameHandler4@@SAHPEAUFuncInfo4@FH4@@PEAU_xDISPATCHER_CONTEXT@@_K@Z 0000000180012d90 f   libvcruntime:ehstate.obj
 0001:00013490       ??$TypeMatchHelper@V__FrameHandler3@@@@YAHPEBU_s_HandlerType@@PEBU_s_CatchableType@@PEBU_s_ThrowInfo@@@Z 0000000180014490 f i libvcruntime:frame.obj
 0001:000135d0       ??$TypeMatchHelper@V__FrameHandler4@@@@YAHPEAUHandlerType4@FH4@@PEBU_s_CatchableType@@PEBU_s_ThrowInfo@@@Z 00000001800145d0 f i libvcruntime:frame.obj
 0001:00013714       ??$__InternalCxxFrameHandler@V__FrameHandler3@@@@YA?AW4_EXCEPTION_DISPOSITION@@PEAUEHExceptionRecord@@PEA_KPEAU_CONTEXT@@PEAU_xDISPATCHER_CONTEXT@@PEBU_s_FuncInfo@@H1E@Z 0000000180014714 f i libvcruntime:frame.obj
 0001:0001394c       ??$__InternalCxxFrameHandler@V__FrameHandler4@@@@YA?AW4_EXCEPTION_DISPOSITION@@PEAUEHExceptionRecord@@PEA_KPEAU_CONTEXT@@PEAU_xDISPATCHER_CONTEXT@@PEAUFuncInfo4@FH4@@H1E@Z 000000018001494c f i libvcruntime:frame.obj
 0001:00013be0       ??0HandlerMap4@FH4@@QEAA@PEBUTryBlockMapEntry4@1@_KH@Z 0000000180014be0 f i libvcruntime:frame.obj
 0001:00013c5c       ??0TryBlockMap4@FH4@@QEAA@PEBUFuncInfo4@1@_K@Z 0000000180014c5c f i libvcruntime:frame.obj
 0001:00013d34       ??0bad_exception@std@@QEAA@AEBV01@@Z 0000000180014d34 f i libvcruntime:frame.obj
 0001:00013d70       ??0bad_exception@std@@QEAA@XZ 0000000180014d70 f i libvcruntime:frame.obj
 0001:00013d90       ?CxxCallCatchBlock@__FrameHandler3@@SAPEAXPEAU_EXCEPTION_RECORD@@@Z 0000000180014d90 f   libvcruntime:frame.obj
 0001:00013f7c       ?CxxCallCatchBlock@__FrameHandler4@@SAPEAXPEAU_EXCEPTION_RECORD@@@Z 0000000180014f7c f   libvcruntime:frame.obj
 0001:000141cc       ?DecompHandler@HandlerMap4@FH4@@AEAAXXZ 00000001800151cc f i libvcruntime:frame.obj
 0001:00014418       ?FrameUnwindToState@__FrameHandler3@@SAXPEA_KPEAU_xDISPATCHER_CONTEXT@@PEBU_s_FuncInfo@@H@Z 0000000180015418 f   libvcruntime:frame.obj
 0001:000145a4       ?FrameUnwindToState@__FrameHandler4@@SAXPEA_KPEAU_xDISPATCHER_CONTEXT@@PEAUFuncInfo4@FH4@@H@Z 00000001800155a4 f   libvcruntime:frame.obj
 0001:000148a0       ?GetHandlerSearchState@__FrameHandler3@@SAHPEA_KPEAU_xDISPATCHER_CONTEXT@@PEBU_s_FuncInfo@@@Z 00000001800158a0 f i libvcruntime:frame.obj
 0001:00014ab0       ?ReadEntry@UWMap4@FH4@@AEAAXPEAPEAE@Z 0000000180015ab0 f i libvcruntime:frame.obj
 0001:00014b4c       ?_CallMemberFunction1@@YAXQEAX00@Z 0000000180015b4c f i libvcruntime:frame.obj
 0001:00014b58       ?_CallMemberFunction2@@YAXQEAX00H@Z 0000000180015b58 f i libvcruntime:frame.obj
 0001:00014b68       ?getStartStop@UWMap4@FH4@@QEAAXHHAEAViterator@12@0@Z 0000000180015b68 f i libvcruntime:frame.obj
 0001:00014c38       ?getStateFromIterators@UWMap4@FH4@@SAHAEBViterator@12@H0H0@Z 0000000180015c38 f i libvcruntime:frame.obj
 0001:00014e54       __vcrt_FlsAlloc            0000000180015e54 f   libvcruntime:winapi_downlevel.obj
 0001:00014e9c       __vcrt_FlsFree             0000000180015e9c f   libvcruntime:winapi_downlevel.obj
 0001:00014ee4       __vcrt_FlsGetValue         0000000180015ee4 f   libvcruntime:winapi_downlevel.obj
 0001:00014f2c       __vcrt_FlsSetValue         0000000180015f2c f   libvcruntime:winapi_downlevel.obj
 0001:00014f80       __vcrt_InitializeCriticalSectionEx 0000000180015f80 f   libvcruntime:winapi_downlevel.obj
 0001:00015000       _CallSettingFrame          0000000180016000 f   libvcruntime:handlers.obj
 0001:00015050       _CallSettingFrame_LookupContinuationIndex 0000000180016050 f   libvcruntime:handlers.obj
 0001:00015080       _CallSettingFrame_NotifyContinuationAddr 0000000180016080 f   libvcruntime:handlers.obj
 0001:000150b0       _CallSettingFrameEncoded   00000001800160b0 f   libvcruntime:handlers.obj
 0001:000150f8       free                       00000001800160f8 f   libucrt:free.obj
 0001:0001510c       ?get_raw_ptd@__crt_cached_ptd_host@@QEAAPEAU__acrt_ptd@@XZ 000000018001610c f i libucrt:invalid_parameter.obj
 0001:00015174       ?get_raw_ptd_noexit@__crt_cached_ptd_host@@QEAAPEAU__acrt_ptd@@XZ 0000000180016174 f i libucrt:invalid_parameter.obj
 0001:000151e0       ?value@?$dual_state_global@P6AXPEB_W00I_K@Z@__crt_state_management@@QEAAAEAP6AXPEB_W00I_K@ZAEAV__crt_cached_ptd_host@@@Z 00000001800161e0 f i libucrt:invalid_parameter.obj
 0001:0001522c       __acrt_call_reportfault    000000018001622c f   libucrt:invalid_parameter.obj
 0001:00015388       __acrt_initialize_invalid_parameter_handler 0000000180016388 f   libucrt:invalid_parameter.obj
 0001:00015390       _invalid_parameter         0000000180016390 f   libucrt:invalid_parameter.obj
 0001:0001542c       _invalid_parameter_internal 000000018001642c f   libucrt:invalid_parameter.obj
 0001:000154fc       _invalid_parameter_noinfo  00000001800164fc f   libucrt:invalid_parameter.obj
 0001:0001551c       _invoke_watson             000000018001651c f   libucrt:invalid_parameter.obj
 0001:00015564       __acrt_errno_from_os_error 0000000180016564 f   libucrt:errno.obj
 0001:000155ac       __acrt_errno_map_os_error  00000001800165ac f   libucrt:errno.obj
 0001:000155f4       __acrt_errno_map_os_error_ptd 00000001800165f4 f   libucrt:errno.obj
 0001:00015618       __doserrno                 0000000180016618 f   libucrt:errno.obj
 0001:00015638       _errno                     0000000180016638 f   libucrt:errno.obj
 0001:00015658       calloc                     0000000180016658 f   libucrt:calloc.obj
 0001:00015660       malloc                     0000000180016660 f   libucrt:malloc.obj
 0001:00015668       _recalloc                  0000000180016668 f   libucrt:recalloc.obj
 0001:00015670       _recalloc_base             0000000180016670 f   libucrt:recalloc.obj
 0001:00015708       _resetstkoflw              0000000180016708 f   libucrt:resetstk.obj
 0001:00015834       wcscat_s                   0000000180016834 f   libucrt:wcscat_s.obj
 0001:000158b8       wcscpy_s                   00000001800168b8 f   libucrt:wcscpy_s.obj
 0001:00015920       wcsncpy_s                  0000000180016920 f   libucrt:wcsncpy_s.obj
 0001:00015bd4       ??$ensure_buffer_is_big_enough@D@formatting_buffer@__crt_stdio_output@@QEAA_N_KAEAV__crt_cached_ptd_host@@@Z 0000000180016bd4 f i libucrt:output.obj
 0001:00015c7c       ??$ensure_buffer_is_big_enough@_W@formatting_buffer@__crt_stdio_output@@QEAA_N_KAEAV__crt_cached_ptd_host@@@Z 0000000180016c7c f i libucrt:output.obj
 0001:00015d28       ??$is_wide_character_specifier@_W@__crt_stdio_output@@YA_N_K_WW4length_modifier@0@@Z 0000000180016d28 f i libucrt:output.obj
 0001:00015d68       ??$parse_integer@KV?$c_string_character_source@_W@__crt_strtox@@$0A@@__crt_strtox@@YAKAEAV__crt_cached_ptd_host@@V?$c_string_character_source@_W@0@H_N@Z 0000000180016d68 f i libucrt:output.obj
 0001:000164c0       ??$type_case_integer@$07@?$output_processor@_WV?$string_output_adapter@_W@__crt_stdio_output@@V?$format_validation_base@_WV?$string_output_adapter@_W@__crt_stdio_output@@@2@@__crt_stdio_output@@AEAA_N_N@Z 00000001800174c0 f i libucrt:output.obj
 0001:000166ac       ??$type_case_integer@$09@?$output_processor@_WV?$string_output_adapter@_W@__crt_stdio_output@@V?$format_validation_base@_WV?$string_output_adapter@_W@__crt_stdio_output@@@2@@__crt_stdio_output@@AEAA_N_N@Z 00000001800176ac f i libucrt:output.obj
 0001:00016898       ??$type_case_integer@$0BA@@?$output_processor@_WV?$string_output_adapter@_W@__crt_stdio_output@@V?$format_validation_base@_WV?$string_output_adapter@_W@__crt_stdio_output@@@2@@__crt_stdio_output@@AEAA_N_N@Z 0000000180017898 f i libucrt:output.obj
 0001:00016a84       ??$type_case_integer_parse_into_buffer@I$07@?$output_processor@_WV?$string_output_adapter@_W@__crt_stdio_output@@V?$format_validation_base@_WV?$string_output_adapter@_W@__crt_stdio_output@@@2@@__crt_stdio_output@@AEAAXI_N@Z 0000000180017a84 f i libucrt:output.obj
 0001:00016b0c       ??$type_case_integer_parse_into_buffer@I$09@?$output_processor@_WV?$string_output_adapter@_W@__crt_stdio_output@@V?$format_validation_base@_WV?$string_output_adapter@_W@__crt_stdio_output@@@2@@__crt_stdio_output@@AEAAXI_N@Z 0000000180017b0c f i libucrt:output.obj
 0001:00016bc4       ??$type_case_integer_parse_into_buffer@I$0BA@@?$output_processor@_WV?$string_output_adapter@_W@__crt_stdio_output@@V?$format_validation_base@_WV?$string_output_adapter@_W@__crt_stdio_output@@@2@@__crt_stdio_output@@AEAAXI_N@Z 0000000180017bc4 f i libucrt:output.obj
 0001:00016c68       ??$type_case_integer_parse_into_buffer@_K$07@?$output_processor@_WV?$string_output_adapter@_W@__crt_stdio_output@@V?$format_validation_base@_WV?$string_output_adapter@_W@__crt_stdio_output@@@2@@__crt_stdio_output@@AEAAX_K_N@Z 0000000180017c68 f i libucrt:output.obj
 0001:00016cf0       ??$type_case_integer_parse_into_buffer@_K$09@?$output_processor@_WV?$string_output_adapter@_W@__crt_stdio_output@@V?$format_validation_base@_WV?$string_output_adapter@_W@__crt_stdio_output@@@2@@__crt_stdio_output@@AEAAX_K_N@Z 0000000180017cf0 f i libucrt:output.obj
 0001:00016db0       ??$type_case_integer_parse_into_buffer@_K$0BA@@?$output_processor@_WV?$string_output_adapter@_W@__crt_stdio_output@@V?$format_validation_base@_WV?$string_output_adapter@_W@__crt_stdio_output@@@2@@__crt_stdio_output@@AEAAX_K_N@Z 0000000180017db0 f i libucrt:output.obj
 0001:00016e54       ?crop_zeroes@__crt_stdio_output@@YAXPEADQEAU__crt_locale_pointers@@@Z 0000000180017e54 f i libucrt:output.obj
 0001:00016ec0       ?parse_int_from_format_string@?$output_processor@_WV?$string_output_adapter@_W@__crt_stdio_output@@V?$format_validation_base@_WV?$string_output_adapter@_W@__crt_stdio_output@@@2@@__crt_stdio_output@@AEAA_NQEAH@Z 0000000180017ec0 f i libucrt:output.obj
 0001:00016f50       ?process@?$output_processor@_WV?$string_output_adapter@_W@__crt_stdio_output@@V?$format_validation_base@_WV?$string_output_adapter@_W@__crt_stdio_output@@@2@@__crt_stdio_output@@QEAAHXZ 0000000180017f50 f i libucrt:output.obj
 0001:0001722c       ?state_case_size@?$output_processor@_WV?$string_output_adapter@_W@__crt_stdio_output@@V?$format_validation_base@_WV?$string_output_adapter@_W@__crt_stdio_output@@@2@@__crt_stdio_output@@AEAA_NXZ 000000018001822c f i libucrt:output.obj
 0001:000173d8       ?state_case_type@?$output_processor@_WV?$string_output_adapter@_W@__crt_stdio_output@@V?$format_validation_base@_WV?$string_output_adapter@_W@__crt_stdio_output@@@2@@__crt_stdio_output@@AEAA_NXZ 00000001800183d8 f i libucrt:output.obj
 0001:00017834       ?type_case_Z@?$output_processor@_WV?$string_output_adapter@_W@__crt_stdio_output@@V?$format_validation_base@_WV?$string_output_adapter@_W@__crt_stdio_output@@@2@@__crt_stdio_output@@AEAA_NXZ 0000000180018834 f i libucrt:output.obj
 0001:000178b0       ?type_case_a@?$output_processor@_WV?$string_output_adapter@_W@__crt_stdio_output@@V?$format_validation_base@_WV?$string_output_adapter@_W@__crt_stdio_output@@@2@@__crt_stdio_output@@AEAA_NXZ 00000001800188b0 f i libucrt:output.obj
 0001:00017b10       ?type_case_c_tchar@?$output_processor@_WV?$string_output_adapter@_W@__crt_stdio_output@@V?$format_validation_base@_WV?$string_output_adapter@_W@__crt_stdio_output@@@2@@__crt_stdio_output@@AEAA_N_W@Z 0000000180018b10 f i libucrt:output.obj
 0001:00017bd4       ?type_case_n@?$output_processor@_WV?$string_output_adapter@_W@__crt_stdio_output@@V?$format_validation_base@_WV?$string_output_adapter@_W@__crt_stdio_output@@@2@@__crt_stdio_output@@AEAA_NXZ 0000000180018bd4 f i libucrt:output.obj
 0001:00017c88       ?type_case_s@?$output_processor@_WV?$string_output_adapter@_W@__crt_stdio_output@@V?$format_validation_base@_WV?$string_output_adapter@_W@__crt_stdio_output@@@2@@__crt_stdio_output@@AEAA_NXZ 0000000180018c88 f i libucrt:output.obj
 0001:00017d20       ?type_case_s_compute_narrow_string_length@?$output_processor@_WV?$string_output_adapter@_W@__crt_stdio_output@@V?$format_validation_base@_WV?$string_output_adapter@_W@__crt_stdio_output@@@2@@__crt_stdio_output@@AEAAHH_W@Z 0000000180018d20 f i libucrt:output.obj
 0001:00017da0       ?update_locale_slow@__crt_cached_ptd_host@@AEAAXXZ 0000000180018da0 f i libucrt:output.obj
 0001:00017e18       ?write_string@?$string_output_adapter@_W@__crt_stdio_output@@QEBAXQEB_WHQEAHAEAV__crt_cached_ptd_host@@@Z 0000000180018e18 f i libucrt:output.obj
 0001:00017ec0       __stdio_common_vswprintf_s 0000000180018ec0 f   libucrt:output.obj
 0001:00017fd4       _seh_filter_dll            0000000180018fd4 f   libucrt:exception_filter.obj
 0001:00017fe8       _seh_filter_exe            0000000180018fe8 f   libucrt:exception_filter.obj
 0001:0001840c       __acrt_initialize_thread_local_exit_callback 000000018001940c f   libucrt:exit.obj
 0001:00018414       _cexit                     0000000180019414 f   libucrt:exit.obj
 0001:00018424       _exit                      0000000180019424 f   libucrt:exit.obj
 0001:00018430       _is_c_termination_complete 0000000180019430 f   libucrt:exit.obj
 0001:000185f8       __acrt_allocate_buffer_for_argv 00000001800195f8 f   libucrt:argv_parsing.obj
 0001:00018658       _configure_narrow_argv     0000000180019658 f   libucrt:argv_parsing.obj
 0001:000189e0       __dcrt_uninitialize_environments_nolock 00000001800199e0 f   libucrt:environment_initialization.obj
 0001:00018a24       _initialize_narrow_environment 0000000180019a24 f   libucrt:environment_initialization.obj
 0001:00018d74       _crt_atexit                0000000180019d74 f   libucrt:onexit.obj
 0001:00018d84       _execute_onexit_table      0000000180019d84 f   libucrt:onexit.obj
 0001:00018dc8       _initialize_onexit_table   0000000180019dc8 f   libucrt:onexit.obj
 0001:00018df0       _register_onexit_function  0000000180019df0 f   libucrt:onexit.obj
 0001:00018e70       __acrt_uninitialize_command_line 0000000180019e70 f   libucrt:argv_data.obj
 0001:00018f68       __acrt_initialize          0000000180019f68 f   libucrt:initialization.obj
 0001:00018f7c       __acrt_thread_attach       0000000180019f7c f   libucrt:initialization.obj
 0001:00018f90       __acrt_thread_detach       0000000180019f90 f   libucrt:initialization.obj
 0001:00018fa0       __acrt_uninitialize        0000000180019fa0 f   libucrt:initialization.obj
 0001:00018fd8       __acrt_uninitialize_critical 0000000180019fd8 f   libucrt:initialization.obj
 0001:00018fe8       _initterm                  0000000180019fe8 f   libucrt:initterm.obj
 0001:0001902c       _initterm_e                000000018001a02c f   libucrt:initterm.obj
 0001:00019074       __acrt_initialize_new_handler 000000018001a074 f   libucrt:new_handler.obj
 0001:0001907c       _callnewh                  000000018001a07c f   libucrt:new_handler.obj
 0001:000190b8       _query_new_handler         000000018001a0b8 f   libucrt:new_handler.obj
 0001:000190ec       terminate                  000000018001a0ec f   libucrt:terminate.obj
 0001:00019118       abort                      000000018001a118 f   libucrt:abort.obj
 0001:00019170       strcpy_s                   000000018001a170 f   libucrt:strcpy_s.obj
 0001:000191e0       strncmp                    000000018001a1e0 f   libucrt:strncmp.obj
 0001:00019260       wcsncmp                    000000018001a260 f   libucrt:wcsncmp.obj
 0001:0001928c       _free_base                 000000018001a28c f   libucrt:free_base.obj
 0001:00019640       __acrt_freeptd             000000018001a640 f   libucrt:per_thread_data.obj
 0001:00019684       __acrt_getptd              000000018001a684 f   libucrt:per_thread_data.obj
 0001:00019758       __acrt_getptd_head         000000018001a758 f   libucrt:per_thread_data.obj
 0001:000197fc       __acrt_getptd_noexit       000000018001a7fc f   libucrt:per_thread_data.obj
 0001:000198c4       __acrt_getptd_noexit_explicit 000000018001a8c4 f   libucrt:per_thread_data.obj
 0001:00019984       __acrt_initialize_ptd      000000018001a984 f   libucrt:per_thread_data.obj
 0001:000199c0       __acrt_uninitialize_ptd    000000018001a9c0 f   libucrt:per_thread_data.obj
 0001:00019a54       __acrt_set_locale_changed  000000018001aa54 f   libucrt:wsetlocale.obj
 0001:00019a60       __acrt_uninitialize_locale 000000018001aa60 f   libucrt:wsetlocale.obj
 0001:00019a90       _calloc_base               000000018001aa90 f   libucrt:calloc_base.obj
 0001:00019b08       _malloc_base               000000018001ab08 f   libucrt:malloc_base.obj
 0001:00019b68       _msize_base                000000018001ab68 f   libucrt:msize.obj
 0001:00019ba4       _realloc_base              000000018001aba4 f   libucrt:realloc_base.obj
 0001:00019de0       __acrt_AppPolicyGetProcessTerminationMethodInternal 000000018001ade0 f   libucrt:winapi_thunks.obj
 0001:00019e38       __acrt_AreFileApisANSI     000000018001ae38 f   libucrt:winapi_thunks.obj
 0001:00019e7c       __acrt_FlsAlloc            000000018001ae7c f   libucrt:winapi_thunks.obj
 0001:00019e84       __acrt_FlsFree             000000018001ae84 f   libucrt:winapi_thunks.obj
 0001:00019e8c       __acrt_FlsGetValue         000000018001ae8c f   libucrt:winapi_thunks.obj
 0001:00019e94       __acrt_FlsSetValue         000000018001ae94 f   libucrt:winapi_thunks.obj
 0001:00019e9c       __acrt_InitializeCriticalSectionEx 000000018001ae9c f   libucrt:winapi_thunks.obj
 0001:00019f0c       __acrt_LCMapStringEx       000000018001af0c f   libucrt:winapi_thunks.obj
 0001:00019ff8       __acrt_LocaleNameToLCID    000000018001aff8 f   libucrt:winapi_thunks.obj
 0001:0001a058       __acrt_SetThreadStackGuarantee 000000018001b058 f   libucrt:winapi_thunks.obj
 0001:0001a0a4       __acrt_initialize_winapi_thunks 000000018001b0a4 f   libucrt:winapi_thunks.obj
 0001:0001a0c8       __acrt_uninitialize_winapi_thunks 000000018001b0c8 f   libucrt:winapi_thunks.obj
 0001:0001a10c       wcsnlen                    000000018001b10c f   libucrt:strnlen.obj
 0001:0001a2e4       __acrt_update_locale_info  000000018001b2e4 f   libucrt:locale_update.obj
 0001:0001a318       __acrt_update_locale_info_explicit 000000018001b318 f   libucrt:locale_update.obj
 0001:0001a350       __acrt_update_multibyte_info 000000018001b350 f   libucrt:locale_update.obj
 0001:0001a384       __acrt_update_multibyte_info_explicit 000000018001b384 f   libucrt:locale_update.obj
 0001:0001aeec       __acrt_fp_format           000000018001beec f   libucrt:cvt.obj
 0001:0001b1d4       _mbtowc_internal           000000018001c1d4 f   libucrt:mbtowc.obj
 0001:0001b34c       _fileno                    000000018001c34c f   libucrt:fileno.obj
 0001:0001b374       __acrt_initialize_stdio    000000018001c374 f   libucrt:_file.obj
 0001:0001b494       __acrt_uninitialize_stdio  000000018001c494 f   libucrt:_file.obj
 0001:0001b4f0       _lock_file                 000000018001c4f0 f   libucrt:_file.obj
 0001:0001b4fc       _unlock_file               000000018001c4fc f   libucrt:_file.obj
 0001:0001b508       _get_printf_count_output   000000018001c508 f   libucrt:printf_count_output.obj
 0001:0001b718       __acrt_initialize_lowio    000000018001c718 f   libucrt:ioinit.obj
 0001:0001b754       __acrt_uninitialize_lowio  000000018001c754 f   libucrt:ioinit.obj
 0001:0001b794       __acrt_initialize_locks    000000018001c794 f   libucrt:locks.obj
 0001:0001b7dc       __acrt_lock                000000018001c7dc f   libucrt:locks.obj
 0001:0001b7f8       __acrt_uninitialize_locks  000000018001c7f8 f   libucrt:locks.obj
 0001:0001b830       __acrt_unlock              000000018001c830 f   libucrt:locks.obj
 0001:0001b84c       __acrt_get_process_end_policy 000000018001c84c f   libucrt:win_policies.obj
 0001:0001b89c       ??$__acrt_convert_wcs_mbs_cp@D_WV<lambda_7c9dea7b4ca7285d2cdb541a38da6275>@@U__crt_win32_buffer_internal_dynamic_resizing@@@@YAHQEBDAEAV?$__crt_win32_buffer@_WU__crt_win32_buffer_internal_dynamic_resizing@@@@AEBV<lambda_7c9dea7b4ca7285d2cdb541a38da6275>@@I@Z 000000018001c89c f i libucrt:argv_wildcards.obj
 0001:0001ba18       ??$__acrt_convert_wcs_mbs_cp@_WDV<lambda_d8593a27d1aa8c02be35c86a17d324c4>@@U__crt_win32_buffer_internal_dynamic_resizing@@@@YAHQEB_WAEAV?$__crt_win32_buffer@DU__crt_win32_buffer_internal_dynamic_resizing@@@@AEBV<lambda_d8593a27d1aa8c02be35c86a17d324c4>@@I@Z 000000018001ca18 f i libucrt:argv_wildcards.obj
 0001:0001c2c0       ??0_LocaleUpdate@@QEAA@QEAU__crt_locale_pointers@@@Z 000000018001d2c0 f i libucrt:argv_wildcards.obj
 0001:0001c35c       __acrt_expand_narrow_argv_wildcards 000000018001d35c f   libucrt:argv_wildcards.obj
 0001:0001c364       ??$__acrt_convert_wcs_mbs_cp@_WDV<lambda_f788ae46380686e8b737efdd8c720d07>@@U__crt_win32_buffer_no_resizing@@@@YAHQEB_WAEAV?$__crt_win32_buffer@DU__crt_win32_buffer_no_resizing@@@@AEBV<lambda_f788ae46380686e8b737efdd8c720d07>@@I@Z 000000018001d364 f i libucrt:getmodulefilenamea.obj
 0001:0001c480       __acrt_GetModuleFileNameA  000000018001d480 f   libucrt:getmodulefilenamea.obj
 0001:0001cd9c       __acrt_initialize_multibyte 000000018001dd9c f   libucrt:mbctype.obj
 0001:0001cdfc       __acrt_update_thread_multibyte_data 000000018001ddfc f   libucrt:mbctype.obj
 0001:0001ce18       _setmbcp_nolock            000000018001de18 f   libucrt:mbctype.obj
 0001:0001d14c       _ismbblead                 000000018001e14c f   libucrt:ismbbyte.obj
 0001:0001d160       __acrt_initialize_command_line 000000018001e160 f   libucrt:argv_data.obj
 0001:0001d188       __acrt_MultiByteToWideChar 000000018001e188 f   libucrt:multibytetowidechar.obj
 0001:0001d1e4       __acrt_WideCharToMultiByte 000000018001e1e4 f   libucrt:widechartomultibyte.obj
 0001:0001d294       __dcrt_get_narrow_environment_from_os 000000018001e294 f   libucrt:get_environment_from_os.obj
 0001:0001d3a4       __acrt_initialize_heap     000000018001e3a4 f   libucrt:heap_handle.obj
 0001:0001d3c0       __acrt_uninitialize_heap   000000018001e3c0 f   libucrt:heap_handle.obj
 0001:0001d3cc       __acrt_execute_initializers 000000018001e3cc f   libucrt:shared_initialization.obj
 0001:0001d460       __acrt_execute_uninitializers 000000018001e460 f   libucrt:shared_initialization.obj
 0001:0001d4f0       __acrt_get_sigabrt_handler 000000018001e4f0 f   libucrt:signal.obj
 0001:0001d520       __acrt_initialize_signal_handlers 000000018001e520 f   libucrt:signal.obj
 0001:0001d540       raise                      000000018001e540 f   libucrt:signal.obj
 0001:0001d7c0       __acrt_has_user_matherr    000000018001e7c0 f   libucrt:matherr.obj
 0001:0001d7e0       __acrt_initialize_user_matherr 000000018001e7e0 f   libucrt:matherr.obj
 0001:0001d7e8       __acrt_invoke_user_matherr 000000018001e7e8 f   libucrt:matherr.obj
 0001:0001d9fc       __acrt_stdio_flush_nolock  000000018001e9fc f   libucrt:fflush.obj
 0001:0001da88       _fflush_nolock             000000018001ea88 f   libucrt:fflush.obj
 0001:0001db5c       _flushall                  000000018001eb5c f   libucrt:fflush.obj
 0001:0001db64       __acrt_add_locale_ref      000000018001eb64 f   libucrt:locale_refcounting.obj
 0001:0001dbf0       __acrt_free_locale         000000018001ebf0 f   libucrt:locale_refcounting.obj
 0001:0001dd68       __acrt_locale_add_lc_time_reference 000000018001ed68 f   libucrt:locale_refcounting.obj
 0001:0001dd90       __acrt_locale_free_lc_time_if_unreferenced 000000018001ed90 f   libucrt:locale_refcounting.obj
 0001:0001ddc8       __acrt_locale_release_lc_time_reference 000000018001edc8 f   libucrt:locale_refcounting.obj
 0001:0001ddf0       __acrt_release_locale_ref  000000018001edf0 f   libucrt:locale_refcounting.obj
 0001:0001de98       __acrt_update_thread_locale_data 000000018001ee98 f   libucrt:locale_refcounting.obj
 0001:0001df08       _updatetlocinfoEx_nolock   000000018001ef08 f   libucrt:locale_refcounting.obj
 0001:0001df70       __acrt_locale_free_monetary 000000018001ef70 f   libucrt:initmon.obj
 0001:0001e07c       __acrt_locale_free_numeric 000000018001f07c f   libucrt:initnum.obj
 0001:0001e11c       __acrt_locale_free_time    000000018001f11c f   libucrt:inittime.obj
 0001:0001e224       __acrt_GetStringTypeA      000000018001f224 f   libucrt:getstringtypea.obj
 0001:0001e3c0       _query_new_mode            000000018001f3c0 f   libucrt:new_mode.obj
 0001:0001e3c8       __acrt_DownlevelLocaleNameToLCID 000000018001f3c8 f   libucrt:lcidtoname_downlevel.obj
 0001:0001e470       __acrt_fp_strflt_to_string 000000018001f470 f   libucrt:_fptostr.obj
 0001:0001e600       ?divide@__crt_strtox@@YA_KAEAUbig_integer@1@AEBU21@@Z 000000018001f600 f i libucrt:cfout.obj
 0001:0001ea8c       __acrt_fltout              000000018001fa8c f   libucrt:cfout.obj
 0001:0001fd54       fegetround                 0000000180020d54 f   libucrt:fegetround.obj
 0001:0001fd68       ?__mbrtowc_utf8@__crt_mbstring@@YA_KPEA_WPEBD_KPEAU_Mbstatet@@AEAV__crt_cached_ptd_host@@@Z 0000000180020d68 f   libucrt:mbrtowc.obj
 0001:0001fdac       ?__mbsrtowcs_utf8@__crt_mbstring@@YA_KPEA_WPEAPEBD_KPEAU_Mbstatet@@AEAV__crt_cached_ptd_host@@@Z 0000000180020dac f   libucrt:mbrtowc.obj
 0001:0001ff50       _fcloseall                 0000000180020f50 f   libucrt:closeall.obj
 0001:00020004       __acrt_stdio_free_buffer_nolock 0000000180021004 f   libucrt:_freebuf.obj
 0001:00020044       _isatty                    0000000180021044 f   libucrt:isatty.obj
 0001:000200a4       __acrt_lowio_create_handle_array 00000001800210a4 f   libucrt:osfinfo.obj
 0001:0002014c       __acrt_lowio_destroy_handle_array 000000018002114c f   libucrt:osfinfo.obj
 0001:0002019c       __acrt_lowio_ensure_fh_exists 000000018002119c f   libucrt:osfinfo.obj
 0001:00020244       __acrt_lowio_lock_fh       0000000180021244 f   libucrt:osfinfo.obj
 0001:0002026c       __acrt_lowio_unlock_fh     000000018002126c f   libucrt:osfinfo.obj
 0001:00020294       _free_osfhnd               0000000180021294 f   libucrt:osfinfo.obj
 0001:00020350       _get_osfhandle             0000000180021350 f   libucrt:osfinfo.obj
 0001:000203d0       qsort                      00000001800213d0 f   libucrt:qsort.obj
 0001:000207e0       strncpy_s                  00000001800217e0 f   libucrt:strncpy_s.obj
 0001:00020970       strpbrk                    0000000180021970 f   libucrt:strpbrk.obj
 0001:00020d38       _mbsdec                    0000000180021d38 f   libucrt:mbsdec.obj
 0001:00020d40       _mbsdec_l                  0000000180021d40 f   libucrt:mbsdec.obj
 0001:000210f4       __acrt_LCMapStringA        00000001800220f4 f   libucrt:lcmapstringa.obj
 0001:00021230       _commit                    0000000180022230 f   libucrt:commit.obj
 0001:00021ae0       _write_internal            0000000180022ae0 f   libucrt:write.obj
 0001:00021c08       _write_nolock              0000000180022c08 f   libucrt:write.obj
 0001:00021f18       __ascii_wcsnicmp           0000000180022f18 f   libucrt:wcsnicmp.obj
 0001:00021f64       _controlfp_s               0000000180022f64 f   libucrt:contrlfp.obj
 0001:00021fc8       fegetenv                   0000000180022fc8 f   libucrt:fegetenv.obj
 0001:00021fe8       fesetenv                   0000000180022fe8 f   libucrt:fesetenv.obj
 0001:00022034       feholdexcept               0000000180023034 f   libucrt:feholdexcept.obj
 0001:00022084       ceil                       0000000180023084 f   libucrt:ceil.obj
 0001:00022150       log10                      0000000180023150 f   libucrt:log10.obj
 0001:000226fc       __acrt_fenv_get_common_round_control 00000001800236fc f   libucrt:_fenvutils.obj
 0001:00022708       __acrt_fenv_get_control    0000000180023708 f   libucrt:_fenvutils.obj
 0001:000227ec       __acrt_fenv_get_status     00000001800237ec f   libucrt:_fenvutils.obj
 0001:00022844       __acrt_fenv_set_control    0000000180023844 f   libucrt:_fenvutils.obj
 0001:00022980       __acrt_fenv_set_status     0000000180023980 f   libucrt:_fenvutils.obj
 0001:000229f4       ?reset_and_return@__crt_mbstring@@YA_K_KPEAU_Mbstatet@@@Z 00000001800239f4 f   libucrt:common_utf8.obj
 0001:000229fc       ?return_illegal_sequence@__crt_mbstring@@YA_KPEAU_Mbstatet@@AEAV__crt_cached_ptd_host@@@Z 00000001800239fc f   libucrt:common_utf8.obj
 0001:00022a10       ?__mbrtoc32_utf8@__crt_mbstring@@YA_KPEA_UPEBD_KPEAU_Mbstatet@@AEAV__crt_cached_ptd_host@@@Z 0000000180023a10 f   libucrt:mbrtoc32.obj
 0001:00022d0c       fclose                     0000000180023d0c f   libucrt:fclose.obj
 0001:00022e50       _lseeki64_nolock_internal  0000000180023e50 f   libucrt:lseek.obj
 0001:00022e58       _query_app_type            0000000180023e58 f   libucrt:report_runtime_error.obj
 0001:00022e60       __strncnt                  0000000180023e60 f   libucrt:strncnt.obj
 0001:00022e78       _putwch_nolock             0000000180023e78 f   libucrt:putwch.obj
 0001:00022eb4       _clearfp                   0000000180023eb4 f   libucrt:ieee.obj
 0001:00022f24       _control87                 0000000180023f24 f   libucrt:ieee.obj
 0001:00023310       _handle_error              0000000180024310 f   libucrt:libm_error.obj
 0001:00023438       _handle_nan                0000000180024438 f   libucrt:libm_error.obj
 0001:00023460       __acrt_initialize_fma3     0000000180024460 f   libucrt:fma3_available.obj
 0001:000234d0       _log10_special             00000001800244d0 f   libucrt:log_special.obj
 0001:00023600       _close_internal            0000000180024600 f   libucrt:close.obj
 0001:000236c4       _close_nolock_internal     00000001800246c4 f   libucrt:close.obj
 0001:00023794       ?__acrt_stdio_free_stream@@YAXV__crt_stdio_stream@@@Z 0000000180024794 f   libucrt:stream.obj
 0001:000237b0       __dcrt_lowio_ensure_console_output_initialized 00000001800247b0 f   libucrt:initcon.obj
 0001:00023804       __dcrt_terminate_console_output 0000000180024804 f   libucrt:initcon.obj
 0001:00023820       __dcrt_write_console       0000000180024820 f   libucrt:initcon.obj
 0001:000238f0       _get_fpsr                  00000001800248f0 f   libucrt:fpsr.obj
 0001:00023900       _set_fpsr                  0000000180024900 f   libucrt:fpsr.obj
 0001:0002390a       _fclrf                     000000018002490a f   libucrt:fpsr.obj
 0001:0002391e       _frnd                      000000018002491e f   libucrt:fpsr.obj
 0001:00023940       _raise_exc                 0000000180024940 f   libucrt:fpexcept.obj
 0001:00023968       _raise_exc_ex              0000000180024968 f   libucrt:fpexcept.obj
 0001:00023c78       _set_errno_from_matherr    0000000180024c78 f   libucrt:fpexcept.obj
 0001:00023ca8       _clrfp                     0000000180024ca8 f   libucrt:fpctrl.obj
 0001:00023cc8       _ctrlfp                    0000000180024cc8 f   libucrt:fpctrl.obj
 0001:00023d44       _set_statfp                0000000180024d44 f   libucrt:fpctrl.obj
 0001:00023d64       _statfp                    0000000180024d64 f   libucrt:fpctrl.obj
 0001:00023d80       _FindPESection             0000000180024d80 f   LIBCMT:pesect.obj
 0001:00023dd0       _IsNonwritableInCurrentImage 0000000180024dd0 f   LIBCMT:pesect.obj
 0001:00023e20       _ValidateImageBase         0000000180024e20 f   LIBCMT:pesect.obj
 0001:00023e4c       __GSHandlerCheck_EH        0000000180024e4c f   LIBCMT:gshandlereh.obj
 0001:00023ecc       __C_specific_handler_noexcept 0000000180024ecc f   libvcruntime:chandler_noexcept.obj
 0001:00023f18       strrchr                    0000000180024f18 f   libvcruntime:strrchr.obj
 0001:00024070       _guard_dispatch_icall_nop  0000000180025070 f   LIBCMT:guard_dispatch.obj
 0001:00024090       _guard_xfg_dispatch_icall_nop 0000000180025090 f   LIBCMT:guard_xfg_dispatch.obj
 0002:00000000       __imp_RegQueryValueExW     0000000180026000     advapi32:ADVAPI32.dll
 0002:00000008       __imp_RegSetValueExW       0000000180026008     advapi32:ADVAPI32.dll
 0002:00000010       __imp_RegQueryInfoKeyW     0000000180026010     advapi32:ADVAPI32.dll
 0002:00000018       __imp_RegOpenKeyExW        0000000180026018     advapi32:ADVAPI32.dll
 0002:00000020       __imp_RegEnumKeyExW        0000000180026020     advapi32:ADVAPI32.dll
 0002:00000028       __imp_RegDeleteValueW      0000000180026028     advapi32:ADVAPI32.dll
 0002:00000030       __imp_RegDeleteKeyW        0000000180026030     advapi32:ADVAPI32.dll
 0002:00000038       __imp_RegCreateKeyExW      0000000180026038     advapi32:ADVAPI32.dll
 0002:00000040       __imp_RegCloseKey          0000000180026040     advapi32:ADVAPI32.dll
 0002:00000048       \177ADVAPI32_NULL_THUNK_DATA 0000000180026048     advapi32:ADVAPI32.dll
 0002:00000050       __imp_GetObjectW           0000000180026050     gdi32:GDI32.dll
 0002:00000058       __imp_SelectObject         0000000180026058     gdi32:GDI32.dll
 0002:00000060       __imp_DeleteObject         0000000180026060     gdi32:GDI32.dll
 0002:00000068       __imp_CreateCompatibleDC   0000000180026068     gdi32:GDI32.dll
 0002:00000070       __imp_BitBlt               0000000180026070     gdi32:GDI32.dll
 0002:00000078       __imp_SetWindowOrgEx       0000000180026078     gdi32:GDI32.dll
 0002:00000080       __imp_SetWindowExtEx       0000000180026080     gdi32:GDI32.dll
 0002:00000088       __imp_SetViewportOrgEx     0000000180026088     gdi32:GDI32.dll
 0002:00000090       __imp_LPtoDP               0000000180026090     gdi32:GDI32.dll
 0002:00000098       __imp_SetMapMode           0000000180026098     gdi32:GDI32.dll
 0002:000000a0       __imp_SaveDC               00000001800260a0     gdi32:GDI32.dll
 0002:000000a8       __imp_RestoreDC            00000001800260a8     gdi32:GDI32.dll
 0002:000000b0       __imp_GetDeviceCaps        00000001800260b0     gdi32:GDI32.dll
 0002:000000b8       __imp_DeleteMetaFile       00000001800260b8     gdi32:GDI32.dll
 0002:000000c0       __imp_DeleteDC             00000001800260c0     gdi32:GDI32.dll
 0002:000000c8       __imp_CreateRectRgnIndirect 00000001800260c8     gdi32:GDI32.dll
 0002:000000d0       __imp_CreateMetaFileW      00000001800260d0     gdi32:GDI32.dll
 0002:000000d8       __imp_CreateDCW            00000001800260d8     gdi32:GDI32.dll
 0002:000000e0       __imp_CloseMetaFile        00000001800260e0     gdi32:GDI32.dll
 0002:000000e8       \177GDI32_NULL_THUNK_DATA  00000001800260e8     gdi32:GDI32.dll
 0002:000000f0       __imp_CloseHandle          00000001800260f0     kernel32:KERNEL32.dll
 0002:000000f8       __imp_SetEvent             00000001800260f8     kernel32:KERNEL32.dll
 0002:00000100       __imp_CreateMutexW         0000000180026100     kernel32:KERNEL32.dll
 0002:00000108       __imp_CreateEventW         0000000180026108     kernel32:KERNEL32.dll
 0002:00000110       __imp_GetCurrentProcessId  0000000180026110     kernel32:KERNEL32.dll
 0002:00000118       __imp_WriteConsoleW        0000000180026118     kernel32:KERNEL32.dll
 0002:00000120       __imp_CreateFileW          0000000180026120     kernel32:KERNEL32.dll
 0002:00000128       __imp_GetConsoleMode       0000000180026128     kernel32:KERNEL32.dll
 0002:00000130       __imp_GetConsoleOutputCP   0000000180026130     kernel32:KERNEL32.dll
 0002:00000138       __imp_WriteFile            0000000180026138     kernel32:KERNEL32.dll
 0002:00000140       __imp_FlushFileBuffers     0000000180026140     kernel32:KERNEL32.dll
 0002:00000148       __imp_SetStdHandle         0000000180026148     kernel32:KERNEL32.dll
 0002:00000150       __imp_SetFilePointerEx     0000000180026150     kernel32:KERNEL32.dll
 0002:00000158       __imp_GetStringTypeW       0000000180026158     kernel32:KERNEL32.dll
 0002:00000160       __imp_FreeEnvironmentStringsW 0000000180026160     kernel32:KERNEL32.dll
 0002:00000168       __imp_lstrcmpiW            0000000180026168     kernel32:KERNEL32.dll
 0002:00000170       __imp_GetCommandLineW      0000000180026170     kernel32:KERNEL32.dll
 0002:00000178       __imp_GetCommandLineA      0000000180026178     kernel32:KERNEL32.dll
 0002:00000180       __imp_GetCPInfo            0000000180026180     kernel32:KERNEL32.dll
 0002:00000188       __imp_GetOEMCP             0000000180026188     kernel32:KERNEL32.dll
 0002:00000190       __imp_GetACP               0000000180026190     kernel32:KERNEL32.dll
 0002:00000198       __imp_IsValidCodePage      0000000180026198     kernel32:KERNEL32.dll
 0002:000001a0       __imp_FindNextFileW        00000001800261a0     kernel32:KERNEL32.dll
 0002:000001a8       __imp_FindFirstFileExW     00000001800261a8     kernel32:KERNEL32.dll
 0002:000001b0       __imp_FindClose            00000001800261b0     kernel32:KERNEL32.dll
 0002:000001b8       __imp_GetFileType          00000001800261b8     kernel32:KERNEL32.dll
 0002:000001c0       __imp_GetStdHandle         00000001800261c0     kernel32:KERNEL32.dll
 0002:000001c8       __imp_LCMapStringW         00000001800261c8     kernel32:KERNEL32.dll
 0002:000001d0       __imp_FlsFree              00000001800261d0     kernel32:KERNEL32.dll
 0002:000001d8       __imp_FlsSetValue          00000001800261d8     kernel32:KERNEL32.dll
 0002:000001e0       __imp_MulDiv               00000001800261e0     kernel32:KERNEL32.dll
 0002:000001e8       __imp_GlobalLock           00000001800261e8     kernel32:KERNEL32.dll
 0002:000001f0       __imp_GlobalUnlock         00000001800261f0     kernel32:KERNEL32.dll
 0002:000001f8       __imp_GlobalAlloc          00000001800261f8     kernel32:KERNEL32.dll
 0002:00000200       __imp_FindResourceW        0000000180026200     kernel32:KERNEL32.dll
 0002:00000208       __imp_SizeofResource       0000000180026208     kernel32:KERNEL32.dll
 0002:00000210       __imp_LoadResource         0000000180026210     kernel32:KERNEL32.dll
 0002:00000218       __imp_LoadLibraryExW       0000000180026218     kernel32:KERNEL32.dll
 0002:00000220       __imp_GetProcAddress       0000000180026220     kernel32:KERNEL32.dll
 0002:00000228       __imp_GetModuleHandleW     0000000180026228     kernel32:KERNEL32.dll
 0002:00000230       __imp_GetModuleFileNameW   0000000180026230     kernel32:KERNEL32.dll
 0002:00000238       __imp_FreeLibrary          0000000180026238     kernel32:KERNEL32.dll
 0002:00000240       __imp_DisableThreadLibraryCalls 0000000180026240     kernel32:KERNEL32.dll
 0002:00000248       __imp_GetCurrentThreadId   0000000180026248     kernel32:KERNEL32.dll
 0002:00000250       __imp_Sleep                0000000180026250     kernel32:KERNEL32.dll
 0002:00000258       __imp_WaitForSingleObject  0000000180026258     kernel32:KERNEL32.dll
 0002:00000260       __imp_ReleaseMutex         0000000180026260     kernel32:KERNEL32.dll
 0002:00000268       __imp_ResetEvent           0000000180026268     kernel32:KERNEL32.dll
 0002:00000270       __imp_EnterCriticalSection 0000000180026270     kernel32:KERNEL32.dll
 0002:00000278       __imp_LeaveCriticalSection 0000000180026278     kernel32:KERNEL32.dll
 0002:00000280       __imp_SetLastError         0000000180026280     kernel32:KERNEL32.dll
 0002:00000288       __imp_EncodePointer        0000000180026288     kernel32:KERNEL32.dll
 0002:00000290       __imp_DeleteCriticalSection 0000000180026290     kernel32:KERNEL32.dll
 0002:00000298       __imp_InitializeCriticalSectionEx 0000000180026298     kernel32:KERNEL32.dll
 0002:000002a0       __imp_GetLastError         00000001800262a0     kernel32:KERNEL32.dll
 0002:000002a8       __imp_RaiseException       00000001800262a8     kernel32:KERNEL32.dll
 0002:000002b0       __imp_DecodePointer        00000001800262b0     kernel32:KERNEL32.dll
 0002:000002b8       __imp_WideCharToMultiByte  00000001800262b8     kernel32:KERNEL32.dll
 0002:000002c0       __imp_GetEnvironmentStringsW 00000001800262c0     kernel32:KERNEL32.dll
 0002:000002c8       __imp_MultiByteToWideChar  00000001800262c8     kernel32:KERNEL32.dll
 0002:000002d0       __imp_FlsGetValue          00000001800262d0     kernel32:KERNEL32.dll
 0002:000002d8       __imp_FlsAlloc             00000001800262d8     kernel32:KERNEL32.dll
 0002:000002e0       __imp_HeapReAlloc          00000001800262e0     kernel32:KERNEL32.dll
 0002:000002e8       __imp_HeapSize             00000001800262e8     kernel32:KERNEL32.dll
 0002:000002f0       __imp_GetModuleHandleExW   00000001800262f0     kernel32:KERNEL32.dll
 0002:000002f8       __imp_ExitProcess          00000001800262f8     kernel32:KERNEL32.dll
 0002:00000300       __imp_VirtualQuery         0000000180026300     kernel32:KERNEL32.dll
 0002:00000308       __imp_VirtualProtect       0000000180026308     kernel32:KERNEL32.dll
 0002:00000310       __imp_GetSystemInfo        0000000180026310     kernel32:KERNEL32.dll
 0002:00000318       __imp_TlsFree              0000000180026318     kernel32:KERNEL32.dll
 0002:00000320       __imp_TlsSetValue          0000000180026320     kernel32:KERNEL32.dll
 0002:00000328       __imp_TlsGetValue          0000000180026328     kernel32:KERNEL32.dll
 0002:00000330       __imp_TlsAlloc             0000000180026330     kernel32:KERNEL32.dll
 0002:00000338       __imp_RtlPcToFileHeader    0000000180026338     kernel32:KERNEL32.dll
 0002:00000340       __imp_InterlockedFlushSList 0000000180026340     kernel32:KERNEL32.dll
 0002:00000348       __imp_RtlUnwindEx          0000000180026348     kernel32:KERNEL32.dll
 0002:00000350       __imp_LoadLibraryExA       0000000180026350     kernel32:KERNEL32.dll
 0002:00000358       __imp_VirtualFree          0000000180026358     kernel32:KERNEL32.dll
 0002:00000360       __imp_VirtualAlloc         0000000180026360     kernel32:KERNEL32.dll
 0002:00000368       __imp_FlushInstructionCache 0000000180026368     kernel32:KERNEL32.dll
 0002:00000370       __imp_InterlockedPushEntrySList 0000000180026370     kernel32:KERNEL32.dll
 0002:00000378       __imp_InterlockedPopEntrySList 0000000180026378     kernel32:KERNEL32.dll
 0002:00000380       __imp_GetProcessHeap       0000000180026380     kernel32:KERNEL32.dll
 0002:00000388       __imp_HeapFree             0000000180026388     kernel32:KERNEL32.dll
 0002:00000390       __imp_HeapAlloc            0000000180026390     kernel32:KERNEL32.dll
 0002:00000398       __imp_OutputDebugStringW   0000000180026398     kernel32:KERNEL32.dll
 0002:000003a0       __imp_InitializeSListHead  00000001800263a0     kernel32:KERNEL32.dll
 0002:000003a8       __imp_GetSystemTimeAsFileTime 00000001800263a8     kernel32:KERNEL32.dll
 0002:000003b0       __imp_QueryPerformanceCounter 00000001800263b0     kernel32:KERNEL32.dll
 0002:000003b8       __imp_GetStartupInfoW      00000001800263b8     kernel32:KERNEL32.dll
 0002:000003c0       __imp_InitializeCriticalSectionAndSpinCount 00000001800263c0     kernel32:KERNEL32.dll
 0002:000003c8       __imp_WaitForSingleObjectEx 00000001800263c8     kernel32:KERNEL32.dll
 0002:000003d0       __imp_RtlCaptureContext    00000001800263d0     kernel32:KERNEL32.dll
 0002:000003d8       __imp_RtlLookupFunctionEntry 00000001800263d8     kernel32:KERNEL32.dll
 0002:000003e0       __imp_RtlVirtualUnwind     00000001800263e0     kernel32:KERNEL32.dll
 0002:000003e8       __imp_UnhandledExceptionFilter 00000001800263e8     kernel32:KERNEL32.dll
 0002:000003f0       __imp_SetUnhandledExceptionFilter 00000001800263f0     kernel32:KERNEL32.dll
 0002:000003f8       __imp_GetCurrentProcess    00000001800263f8     kernel32:KERNEL32.dll
 0002:00000400       __imp_TerminateProcess     0000000180026400     kernel32:KERNEL32.dll
 0002:00000408       __imp_IsProcessorFeaturePresent 0000000180026408     kernel32:KERNEL32.dll
 0002:00000410       __imp_IsDebuggerPresent    0000000180026410     kernel32:KERNEL32.dll
 0002:00000418       \177KERNEL32_NULL_THUNK_DATA 0000000180026418     kernel32:KERNEL32.dll
 0002:00000420       __imp_OleCreatePropertyFrame 0000000180026420     oleaut32:OLEAUT32.dll
 0002:00000428       __imp_UnRegisterTypeLib    0000000180026428     oleaut32:OLEAUT32.dll
 0002:00000430       __imp_RegisterTypeLib      0000000180026430     oleaut32:OLEAUT32.dll
 0002:00000438       __imp_LoadRegTypeLib       0000000180026438     oleaut32:OLEAUT32.dll
 0002:00000440       __imp_LoadTypeLib          0000000180026440     oleaut32:OLEAUT32.dll
 0002:00000448       __imp_VarUI4FromStr        0000000180026448     oleaut32:OLEAUT32.dll
 0002:00000450       __imp_VariantInit          0000000180026450     oleaut32:OLEAUT32.dll
 0002:00000458       __imp_SysAllocStringByteLen 0000000180026458     oleaut32:OLEAUT32.dll
 0002:00000460       __imp_SysStringByteLen     0000000180026460     oleaut32:OLEAUT32.dll
 0002:00000468       __imp_VariantChangeType    0000000180026468     oleaut32:OLEAUT32.dll
 0002:00000470       __imp_VariantClear         0000000180026470     oleaut32:OLEAUT32.dll
 0002:00000478       __imp_SysStringLen         0000000180026478     oleaut32:OLEAUT32.dll
 0002:00000480       __imp_SysFreeString        0000000180026480     oleaut32:OLEAUT32.dll
 0002:00000488       __imp_SysAllocStringLen    0000000180026488     oleaut32:OLEAUT32.dll
 0002:00000490       __imp_SysAllocString       0000000180026490     oleaut32:OLEAUT32.dll
 0002:00000498       \177OLEAUT32_NULL_THUNK_DATA 0000000180026498     oleaut32:OLEAUT32.dll
 0002:000004a0       __imp_UnregisterClassW     00000001800264a0     user32:USER32.dll
 0002:000004a8       __imp_PostMessageW         00000001800264a8     user32:USER32.dll
 0002:000004b0       __imp_DefWindowProcW       00000001800264b0     user32:USER32.dll
 0002:000004b8       __imp_CallWindowProcW      00000001800264b8     user32:USER32.dll
 0002:000004c0       __imp_RegisterClassExW     00000001800264c0     user32:USER32.dll
 0002:000004c8       __imp_GetClassInfoExW      00000001800264c8     user32:USER32.dll
 0002:000004d0       __imp_CreateWindowExW      00000001800264d0     user32:USER32.dll
 0002:000004d8       __imp_IsWindow             00000001800264d8     user32:USER32.dll
 0002:000004e0       __imp_IsChild              00000001800264e0     user32:USER32.dll
 0002:000004e8       __imp_DestroyWindow        00000001800264e8     user32:USER32.dll
 0002:000004f0       __imp_ShowWindow           00000001800264f0     user32:USER32.dll
 0002:000004f8       __imp_SetWindowPos         00000001800264f8     user32:USER32.dll
 0002:00000500       __imp_CharNextW            0000000180026500     user32:USER32.dll
 0002:00000508       __imp_SetFocus             0000000180026508     user32:USER32.dll
 0002:00000510       __imp_LoadBitmapW          0000000180026510     user32:USER32.dll
 0002:00000518       __imp_RegisterClassW       0000000180026518     user32:USER32.dll
 0002:00000520       __imp_PeekMessageW         0000000180026520     user32:USER32.dll
 0002:00000528       __imp_LoadCursorW          0000000180026528     user32:USER32.dll
 0002:00000530       __imp_GetParent            0000000180026530     user32:USER32.dll
 0002:00000538       __imp_SetWindowLongPtrW    0000000180026538     user32:USER32.dll
 0002:00000540       __imp_GetWindowLongPtrW    0000000180026540     user32:USER32.dll
 0002:00000548       __imp_PtInRect             0000000180026548     user32:USER32.dll
 0002:00000550       __imp_EqualRect            0000000180026550     user32:USER32.dll
 0002:00000558       __imp_OffsetRect           0000000180026558     user32:USER32.dll
 0002:00000560       __imp_UnionRect            0000000180026560     user32:USER32.dll
 0002:00000568       __imp_IntersectRect        0000000180026568     user32:USER32.dll
 0002:00000570       __imp_GetClientRect        0000000180026570     user32:USER32.dll
 0002:00000578       __imp_InvalidateRect       0000000180026578     user32:USER32.dll
 0002:00000580       __imp_SetWindowRgn         0000000180026580     user32:USER32.dll
 0002:00000588       __imp_EndPaint             0000000180026588     user32:USER32.dll
 0002:00000590       __imp_BeginPaint           0000000180026590     user32:USER32.dll
 0002:00000598       __imp_ReleaseDC            0000000180026598     user32:USER32.dll
 0002:000005a0       __imp_GetDC                00000001800265a0     user32:USER32.dll
 0002:000005a8       __imp_GetKeyState          00000001800265a8     user32:USER32.dll
 0002:000005b0       __imp_GetFocus             00000001800265b0     user32:USER32.dll
 0002:000005b8       \177USER32_NULL_THUNK_DATA 00000001800265b8     user32:USER32.dll
 0002:000005c0       __imp_CoCreateInstance     00000001800265c0     ole32:ole32.dll
 0002:000005c8       __imp_StringFromGUID2      00000001800265c8     ole32:ole32.dll
 0002:000005d0       __imp_CoTaskMemAlloc       00000001800265d0     ole32:ole32.dll
 0002:000005d8       __imp_CoTaskMemRealloc     00000001800265d8     ole32:ole32.dll
 0002:000005e0       __imp_CoTaskMemFree        00000001800265e0     ole32:ole32.dll
 0002:000005e8       __imp_WriteClassStm        00000001800265e8     ole32:ole32.dll
 0002:000005f0       __imp_CreateDataAdviseHolder 00000001800265f0     ole32:ole32.dll
 0002:000005f8       __imp_OleSaveToStream      00000001800265f8     ole32:ole32.dll
 0002:00000600       __imp_CreateOleAdviseHolder 0000000180026600     ole32:ole32.dll
 0002:00000608       __imp_OleRegGetUserType    0000000180026608     ole32:ole32.dll
 0002:00000610       __imp_OleRegGetMiscStatus  0000000180026610     ole32:ole32.dll
 0002:00000618       __imp_OleRegEnumVerbs      0000000180026618     ole32:ole32.dll
 0002:00000620       __imp_CLSIDFromProgID      0000000180026620     ole32:ole32.dll
 0002:00000628       __imp_ReadClassStm         0000000180026628     ole32:ole32.dll
 0002:00000630       \177ole32_NULL_THUNK_DATA  0000000180026630     ole32:ole32.dll
 0002:00000638       __guard_check_icall_fptr   0000000180026638     LIBCMT:guard_support.obj
 0002:00000640       __guard_xfg_check_icall_fptr 0000000180026640     LIBCMT:guard_support.obj
 0002:00000648       __guard_dispatch_icall_fptr 0000000180026648     LIBCMT:guard_support.obj
 0002:00000650       __guard_xfg_dispatch_icall_fptr 0000000180026650     LIBCMT:guard_support.obj
 0002:00000658       __guard_xfg_table_dispatch_icall_fptr 0000000180026658     LIBCMT:guard_support.obj
 0002:00000660       __castguard_check_failure_os_handled_fptr 0000000180026660     LIBCMT:guard_support.obj
 0002:00000668       __xc_a                     0000000180026668     LIBCMT:initializers.obj
 0002:00000698       __xc_z                     0000000180026698     LIBCMT:initializers.obj
 0002:000006a0       __xi_a                     00000001800266a0     LIBCMT:initializers.obj
 0002:000006b0       __acrt_stdio_initializer   00000001800266b0     libucrt:stdio_initializer.obj
 0002:000006b8       __acrt_multibyte_initializer 00000001800266b8     libucrt:multibyte_initializer.obj
 0002:000006c0       __acrt_tran_fma3_initializer 00000001800266c0     libucrt:fma3_initializer.obj
 0002:000006c8       __xi_z                     00000001800266c8     LIBCMT:initializers.obj
 0002:000006d0       __xl_a                     00000001800266d0     LIBCMT:tlssup.obj
 0002:000006d8       __xl_z                     00000001800266d8     LIBCMT:tlssup.obj
 0002:000006e0       __xp_a                     00000001800266e0     LIBCMT:initializers.obj
 0002:000006e8       __acrt_locale_terminator   00000001800266e8     libucrt:locale_initializer.obj
 0002:000006f0       __dcrt_console_output_terminator 00000001800266f0     libucrt:console_output_initializer.obj
 0002:000006f8       __acrt_stdio_terminator    00000001800266f8     libucrt:stdio_initializer.obj
 0002:00000700       __xp_z                     0000000180026700     LIBCMT:initializers.obj
 0002:00000708       __xt_a                     0000000180026708     LIBCMT:initializers.obj
 0002:00000710       __xt_z                     0000000180026710     LIBCMT:initializers.obj
 0002:00000720       ??_C@_13HADIAKP@?$AAS@     0000000180026720     OposVariant.obj
 0002:00000724       ??_C@_13LHMFKAAD@?$AAM@    0000000180026724     OposVariant.obj
 0002:00000728       ??_C@_13MKMNOPIJ@?$AAD@    0000000180026728     OposVariant.obj
 0002:0000072c       ??_C@_13OPKGLAFF@?$AAB@    000000018002672c     OposVariant.obj
 0002:00000730       ??_C@_17LLMMEOJD@?$AAV?$AAa?$AAl@ 0000000180026730     OposVariant.obj
 0002:00000738       ??_C@_1BI@JFAIJMHL@?$AAF?$AAo?$AAr?$AAc?$AAe?$AAR?$AAe?$AAm?$AAo?$AAv?$AAe@ 0000000180026738     OposVariant.obj
 0002:00000750       ??_C@_1BC@GCKHIPE@?$AAN?$AAo?$AAR?$AAe?$AAm?$AAo?$AAv?$AAe@ 0000000180026750     OposVariant.obj
 0002:00000768       ??_C@_1O@JDLOHAN@?$AAD?$AAe?$AAl?$AAe?$AAt?$AAe@ 0000000180026768     OposVariant.obj
 0002:00000778       ??_C@_11LOCGONAA@@         0000000180026778     OposVariant.obj
 0002:00000780       ??_7?$CComObject@V?$CComEnum@UIEnumConnections@@$1?_GUID_b196b287_bab4_101a_b69c_00aa00341d07@@3U__s_GUID@@BUtagCONNECTDATA@@V?$_Copy@UtagCONNECTDATA@@@ATL@@VCComSingleThreadModel@6@@ATL@@@ATL@@6B@ 0000000180026780     GraphicDisplay.obj
 0002:000007c0       _GUID_55980ba0_35aa_11cf_b671_00aa004cd6d8 00000001800267c0     GraphicDisplay.obj
 0002:000007d0       _GUID_b196b28b_bab4_101a_b69c_00aa00341d07 00000001800267d0     GraphicDisplay.obj
 0002:000007e0       ?_entries@?1??_GetEntries@?$CComEnum@UIEnumConnections@@$1?_GUID_b196b287_bab4_101a_b69c_00aa00341d07@@3U__s_GUID@@BUtagCONNECTDATA@@V?$_Copy@UtagCONNECTDATA@@@ATL@@VCComSingleThreadModel@6@@ATL@@SAPEBU_ATL_INTMAP_ENTRY@3@XZ@4QBU43@B 00000001800267e0     GraphicDisplay.obj
 0002:00000810       ??_7CComClassFactory@ATL@@6B@ 0000000180026810     GraphicDisplay.obj
 0002:00000840       ?_entries@?1??_GetEntries@CComClassFactory@ATL@@SAPEBU_ATL_INTMAP_ENTRY@3@XZ@4QBU43@B 0000000180026840     GraphicDisplay.obj
 0002:00000870       _GUID_00000001_0000_0000_c000_000000000046 0000000180026870     GraphicDisplay.obj
 0002:00000880       IID_IOPOSGraphicDisplay_1_16 0000000180026880     GraphicDisplay.obj
 0002:00000890       IID_IOPOSGraphicDisplay    0000000180026890     GraphicDisplay.obj
 0002:000008a0       LIBID_OposGraphicDisplay_CCO 00000001800268a0     GraphicDisplay.obj
 0002:000008b0       DIID__IOPOSGraphicDisplayEvents 00000001800268b0     GraphicDisplay.obj
 0002:000008c0       CLSID_OPOSGraphicDisplay   00000001800268c0     GraphicDisplay.obj
 0002:000008d0       ??_C@_1BK@BIGILECK@?$AAA?$AAd?$AAv?$AAa?$AAp?$AAi?$AA3?$AA2?$AA?4?$AAd?$AAl?$AAl@ 00000001800268d0     GraphicDisplay.obj
 0002:000008f0       ??_C@_0BI@MNCFCPFK@RegCreateKeyTransactedW@ 00000001800268f0     GraphicDisplay.obj
 0002:00000908       _GUID_00000114_0000_0000_c000_000000000046 0000000180026908     GraphicDisplay.obj
 0002:00000918       _GUID_b196b287_bab4_101a_b69c_00aa00341d07 0000000180026918     GraphicDisplay.obj
 0002:00000928       _GUID_b196b285_bab4_101a_b69c_00aa00341d07 0000000180026928     GraphicDisplay.obj
 0002:00000938       _GUID_a6bc3ac0_dbaa_11ce_9de3_00aa004bb851 0000000180026938     GraphicDisplay.obj
 0002:00000948       _GUID_0000010c_0000_0000_c000_000000000046 0000000180026948     GraphicDisplay.obj
 0002:00000958       _GUID_00000146_0000_0000_c000_000000000046 0000000180026958     GraphicDisplay.obj
 0002:00000970       ?_entries@?1??_GetEntries@COPOSGraphicDisplay@@SAPEBU_ATL_INTMAP_ENTRY@ATL@@XZ@4QBU34@B 0000000180026970     GraphicDisplay.obj
 0002:00000bb0       ??_7CComModule@ATL@@6B@    0000000180026bb0     GraphicDisplay.obj
 0002:00000c00       _GUID_cf51ed10_62fe_11cf_bf86_00a0c9034836 0000000180026c00     GraphicDisplay.obj
 0002:00000c10       _GUID_0000010a_0000_0000_c000_000000000046 0000000180026c10     GraphicDisplay.obj
 0002:00000c20       _GUID_b196b283_bab4_101a_b69c_00aa00341d07 0000000180026c20     GraphicDisplay.obj
 0002:00000c30       _GUID_cb5bdc81_93c1_11cf_8f20_00805f2cd064 0000000180026c30     GraphicDisplay.obj
 0002:00000c40       ?pPropMap@?1??GetPropertyMap@COPOSGraphicDisplay@@SAPEBUATL_PROPMAP_ENTRY@ATL@@XZ@4QBU34@B 0000000180026c40     GraphicDisplay.obj
 0002:00000ce8       ??_C@_17DGDADEHL@?$AA_?$AAc?$AAx@ 0000000180026ce8     GraphicDisplay.obj
 0002:00000cf0       ??_C@_17IOIMFDBO@?$AA_?$AAc?$AAy@ 0000000180026cf0     GraphicDisplay.obj
 0002:00000cf8       _GUID_00000000_0000_0000_c000_000000000046 0000000180026cf8     GraphicDisplay.obj
 0002:00000d08       _GUID_00020400_0000_0000_c000_000000000046 0000000180026d08     GraphicDisplay.obj
 0002:00000d18       _GUID_922eada0_3424_11cf_b670_00aa004cd6d8 0000000180026d18     GraphicDisplay.obj
 0002:00000d28       _GUID_9c2cad80_3424_11cf_b670_00aa004cd6d8 0000000180026d28     GraphicDisplay.obj
 0002:00000d38       _GUID_00000119_0000_0000_c000_000000000046 0000000180026d38     GraphicDisplay.obj
 0002:00000d48       _GUID_b196b289_bab4_101a_b69c_00aa00341d07 0000000180026d48     GraphicDisplay.obj
 0002:00000d58       ??_7?$CComObjectCached@VCComClassFactory@ATL@@@ATL@@6B@ 0000000180026d58     GraphicDisplay.obj
 0002:00000d88       ??_C@_1CE@PGFMOFKI@?$AAS?$AAt?$AAa?$AAt?$AAu?$AAs?$AAU?$AAp?$AAd?$AAa?$AAt?$AAe?$AAE?$AAv?$AAe@ 0000000180026d88     GraphicDisplay.obj
 0002:00000db0       ??_C@_1CI@HLBJDONE@?$AAO?$AAu?$AAt?$AAp?$AAu?$AAt?$AAC?$AAo?$AAm?$AAp?$AAl?$AAe?$AAt?$AAe?$AAE@ 0000000180026db0     GraphicDisplay.obj
 0002:00000dd8       ??_C@_1BG@LODEBHDD@?$AAE?$AAr?$AAr?$AAo?$AAr?$AAE?$AAv?$AAe?$AAn?$AAt@ 0000000180026dd8     GraphicDisplay.obj
 0002:00000df0       _GUID_00000117_0000_0000_c000_000000000046 0000000180026df0     GraphicDisplay.obj
 0002:00000e00       ??_C@_1BM@CBGEBBBJ@?$AAD?$AAi?$AAr?$AAe?$AAc?$AAt?$AAI?$AAO?$AAE?$AAv?$AAe?$AAn?$AAt@ 0000000180026e00     GraphicDisplay.obj
 0002:00000e20       _GUID_b196b286_bab4_101a_b69c_00aa00341d07 0000000180026e20     GraphicDisplay.obj
 0002:00000e30       ??_C@_1BC@ENICKDH@?$AAC?$AAo?$AAn?$AAt?$AAe?$AAn?$AAt?$AAs@ 0000000180026e30     GraphicDisplay.obj
 0002:00000e48       ??_7?$CComObject@V?$CComEnum@UIEnumConnectionPoints@@$1?_GUID_b196b285_bab4_101a_b69c_00aa00341d07@@3U__s_GUID@@BPEAUIConnectionPoint@@V?$_CopyInterface@UIConnectionPoint@@@ATL@@VCComSingleThreadModel@6@@ATL@@@ATL@@6B@ 0000000180026e48     GraphicDisplay.obj
 0002:00000e88       ??_C@_1M@KANJNLFF@?$AAC?$AAL?$AAS?$AAI?$AAD@ 0000000180026e88     GraphicDisplay.obj
 0002:00000e98       ??_C@_1M@EJNEECMJ@?$AAA?$AAp?$AAp?$AAI?$AAD@ 0000000180026e98     GraphicDisplay.obj
 0002:00000ea8       _GUID_0000010e_0000_0000_c000_000000000046 0000000180026ea8     GraphicDisplay.obj
 0002:00000ec0       ?rgszNeverDelete@CRegParser@ATL@@1QBQEB_WB 0000000180026ec0     GraphicDisplay.obj
 0002:00000f20       _GUID_b196b288_bab4_101a_b69c_00aa00341d07 0000000180026f20     GraphicDisplay.obj
 0002:00000f30       ??_7CRegObject@ATL@@6B@    0000000180026f30     GraphicDisplay.obj
 0002:00000f60       _GUID_00000113_0000_0000_c000_000000000046 0000000180026f60     GraphicDisplay.obj
 0002:00000f70       ??_C@_1CK@OEKPKBNA@?$AAC?$AAo?$AAm?$AAp?$AAo?$AAn?$AAe?$AAn?$AAt?$AA?5?$AAC?$AAa?$AAt?$AAe?$AAg@ 0000000180026f70     GraphicDisplay.obj
 0002:00000fa0       ??_C@_1BC@NKMMNMGL@?$AAF?$AAi?$AAl?$AAe?$AAT?$AAy?$AAp?$AAe@ 0000000180026fa0     GraphicDisplay.obj
 0002:00000fb8       ??_C@_1BE@EKPAFMCP@?$AAI?$AAn?$AAt?$AAe?$AAr?$AAf?$AAa?$AAc?$AAe@ 0000000180026fb8     GraphicDisplay.obj
 0002:00000fd0       ??_C@_1BC@MAICEHGI@?$AAH?$AAa?$AAr?$AAd?$AAw?$AAa?$AAr?$AAe@ 0000000180026fd0     GraphicDisplay.obj
 0002:00000fe8       ??_C@_19HLLLM@?$AAM?$AAi?$AAm?$AAe@ 0000000180026fe8     GraphicDisplay.obj
 0002:00000ff8       ??_C@_17OMAOINJK@?$AAS?$AAA?$AAM@ 0000000180026ff8     GraphicDisplay.obj
 0002:00001000       ??_C@_1BC@IBECJAAI@?$AAS?$AAE?$AAC?$AAU?$AAR?$AAI?$AAT?$AAY@ 0000000180027000     GraphicDisplay.obj
 0002:00001018       ??_C@_1O@GBFINDKL@?$AAS?$AAY?$AAS?$AAT?$AAE?$AAM@ 0000000180027018     GraphicDisplay.obj
 0002:00001028       ??_C@_1BC@EAHCMADO@?$AAS?$AAo?$AAf?$AAt?$AAw?$AAa?$AAr?$AAe@ 0000000180027028     GraphicDisplay.obj
 0002:00001040       ??_C@_1BA@JIHHIEDE@?$AAT?$AAy?$AAp?$AAe?$AAL?$AAi?$AAb@ 0000000180027040     GraphicDisplay.obj
 0002:00001050       _GUID_1c2056cc_5ef4_101b_8bc8_00aa003e3b29 0000000180027050     GraphicDisplay.obj
 0002:00001060       ?map@?1??HKeyFromString@CRegParser@ATL@@KAPEAUHKEY__@@PEA_W@Z@4QBUkeymap@?1??123@KAPEAU4@0@Z@B 0000000180027060     GraphicDisplay.obj
 0002:00001140       ??_C@_19NCHLBIN@?$AAH?$AAK?$AAC?$AAR@ 0000000180027140     GraphicDisplay.obj
 0002:00001150       ??_C@_19JAPAIJDE@?$AAH?$AAK?$AAC?$AAU@ 0000000180027150     GraphicDisplay.obj
 0002:00001160       ??_C@_19PEALEEJB@?$AAH?$AAK?$AAL?$AAM@ 0000000180027160     GraphicDisplay.obj
 0002:00001170       ??_C@_17PJOJPMPB@?$AAH?$AAK?$AAU@ 0000000180027170     GraphicDisplay.obj
 0002:00001178       ??_C@_19PNBHMJPL@?$AAH?$AAK?$AAP?$AAD@ 0000000180027178     GraphicDisplay.obj
 0002:00001188       ??_C@_19GFFAIJHG@?$AAH?$AAK?$AAD?$AAD@ 0000000180027188     GraphicDisplay.obj
 0002:00001198       ??_C@_19OFICIBHH@?$AAH?$AAK?$AAC?$AAC@ 0000000180027198     GraphicDisplay.obj
 0002:000011a8       ??_C@_1CE@PACHPJFI@?$AAH?$AAK?$AAE?$AAY?$AA_?$AAC?$AAL?$AAA?$AAS?$AAS?$AAE?$AAS?$AA_?$AAR?$AAO@ 00000001800271a8     GraphicDisplay.obj
 0002:000011d0       ??_C@_1CE@HLHNCBPM@?$AAH?$AAK?$AAE?$AAY?$AA_?$AAC?$AAU?$AAR?$AAR?$AAE?$AAN?$AAT?$AA_?$AAU?$AAS@ 00000001800271d0     GraphicDisplay.obj
 0002:000011f8       ??_C@_1CG@GFBEANJL@?$AAH?$AAK?$AAE?$AAY?$AA_?$AAL?$AAO?$AAC?$AAA?$AAL?$AA_?$AAM?$AAA?$AAC?$AAH@ 00000001800271f8     GraphicDisplay.obj
 0002:00001220       ??_C@_1BG@BGODANIO@?$AAH?$AAK?$AAE?$AAY?$AA_?$AAU?$AAS?$AAE?$AAR?$AAS@ 0000000180027220     GraphicDisplay.obj
 0002:00001238       ??_C@_1CM@KHNNAOIC@?$AAH?$AAK?$AAE?$AAY?$AA_?$AAP?$AAE?$AAR?$AAF?$AAO?$AAR?$AAM?$AAA?$AAN?$AAC@ 0000000180027238     GraphicDisplay.obj
 0002:00001268       ??_C@_1BM@HAGMMHIA@?$AAH?$AAK?$AAE?$AAY?$AA_?$AAD?$AAY?$AAN?$AA_?$AAD?$AAA?$AAT?$AAA@ 0000000180027268     GraphicDisplay.obj
 0002:00001288       ??_C@_1CI@BBJOACGG@?$AAH?$AAK?$AAE?$AAY?$AA_?$AAC?$AAU?$AAR?$AAR?$AAE?$AAN?$AAT?$AA_?$AAC?$AAO@ 0000000180027288     GraphicDisplay.obj
 0002:000012b0       _GUID_00000109_0000_0000_c000_000000000046 00000001800272b0     GraphicDisplay.obj
 0002:000012c0       _GUID_7fd52380_4e07_101b_ae2d_08002b2ec713 00000001800272c0     GraphicDisplay.obj
 0002:000012d0       _GUID_00000112_0000_0000_c000_000000000046 00000001800272d0     GraphicDisplay.obj
 0002:000012e0       ??_C@_1EA@NHKLICFA@?$AAH?$AAK?$AAC?$AAU?$AA?$AN?$AA?6?$AA?$HL?$AA?7?$AAS?$AAo?$AAf?$AAt?$AAw?$AAa?$AAr@ 00000001800272e0     GraphicDisplay.obj
 0002:00001320       ??_C@_1BE@LJOLIMEM@?$AA?$AN?$AA?6?$AA?7?$AA?$HN?$AA?$AN?$AA?6?$AA?$HN?$AA?$AN?$AA?6@ 0000000180027320     GraphicDisplay.obj
 0002:00001338       _GUID_3af24292_0c96_11ce_a0cf_00aa00600ab8 0000000180027338     GraphicDisplay.obj
 0002:00001348       _GUID_00000127_0000_0000_c000_000000000046 0000000180027348     GraphicDisplay.obj
 0002:00001358       _GUID_0000010d_0000_0000_c000_000000000046 0000000180027358     GraphicDisplay.obj
 0002:00001368       ??_C@_1M@PPPPCDEP@?$AAA?$AAP?$AAP?$AAI?$AAD@ 0000000180027368     GraphicDisplay.obj
 0002:00001378       ??_C@_1O@MNLDABAF@?$AAM?$AAo?$AAd?$AAu?$AAl?$AAe@ 0000000180027378     GraphicDisplay.obj
 0002:00001388       ??_C@_1BG@JBACFMF@?$AAM?$AAo?$AAd?$AAu?$AAl?$AAe?$AA_?$AAR?$AAa?$AAw@ 0000000180027388     GraphicDisplay.obj
 0002:000013a0       ??_C@_1BC@KAILKFFG@?$AAR?$AAE?$AAG?$AAI?$AAS?$AAT?$AAR?$AAY@ 00000001800273a0     GraphicDisplay.obj
 0002:000013b8       ??_7?$CComContainedObject@VCOPOSGraphicDisplay@@@ATL@@6B?$IDispatchImpl@UIOPOSGraphicDisplay@@$1?IID_IOPOSGraphicDisplay@@3U_GUID@@B$1?LIBID_OposGraphicDisplay_CCO@@3U3@B$00$0A@VCComTypeInfoHolder@ATL@@@1@@ 00000001800273b8     GraphicDisplay.obj
 0002:00001658       ??_7?$CComContainedObject@VCOPOSGraphicDisplay@@@ATL@@6BCComControlBase@1@@ 0000000180027658     GraphicDisplay.obj
 0002:00001680       ??_7?$CComContainedObject@VCOPOSGraphicDisplay@@@ATL@@6B?$CWindowImpl@VCOPOSGraphicDisplay@@VCWindow@ATL@@V?$CWinTraits@$0FGAAAAAA@$0A@@3@@1@@ 0000000180027680     GraphicDisplay.obj
 0002:000016a0       ??_7?$CComContainedObject@VCOPOSGraphicDisplay@@@ATL@@6B?$IPersistStreamInitImpl@VCOPOSGraphicDisplay@@@1@@ 00000001800276a0     GraphicDisplay.obj
 0002:000016e8       ??_7?$CComContainedObject@VCOPOSGraphicDisplay@@@ATL@@6B?$IOleControlImpl@VCOPOSGraphicDisplay@@@1@@ 00000001800276e8     GraphicDisplay.obj
 0002:00001720       ??_7?$CComContainedObject@VCOPOSGraphicDisplay@@@ATL@@6B?$IOleObjectImpl@VCOPOSGraphicDisplay@@@1@@ 0000000180027720     GraphicDisplay.obj
 0002:000017e0       ??_7?$CComContainedObject@VCOPOSGraphicDisplay@@@ATL@@6B?$IOleInPlaceActiveObjectImpl@VCOPOSGraphicDisplay@@@1@@ 00000001800277e0     GraphicDisplay.obj
 0002:00001830       ??_7?$CComContainedObject@VCOPOSGraphicDisplay@@@ATL@@6B?$IViewObjectExImpl@VCOPOSGraphicDisplay@@@1@@ 0000000180027830     GraphicDisplay.obj
 0002:000018a8       ??_7?$CComContainedObject@VCOPOSGraphicDisplay@@@ATL@@6B?$IOleInPlaceObjectWindowlessImpl@VCOPOSGraphicDisplay@@@1@@ 00000001800278a8     GraphicDisplay.obj
 0002:00001900       ??_7?$CComContainedObject@VCOPOSGraphicDisplay@@@ATL@@6B?$IConnectionPointContainerImpl@VCOPOSGraphicDisplay@@@1@@ 0000000180027900     GraphicDisplay.obj
 0002:00001928       ??_7?$CComContainedObject@VCOPOSGraphicDisplay@@@ATL@@6B?$IPersistStorageImpl@VCOPOSGraphicDisplay@@@1@@ 0000000180027928     GraphicDisplay.obj
 0002:00001978       ??_7?$CComContainedObject@VCOPOSGraphicDisplay@@@ATL@@6B?$ISpecifyPropertyPagesImpl@VCOPOSGraphicDisplay@@@1@@ 0000000180027978     GraphicDisplay.obj
 0002:00001998       ??_7?$CComContainedObject@VCOPOSGraphicDisplay@@@ATL@@6B?$IQuickActivateImpl@VCOPOSGraphicDisplay@@@1@@ 0000000180027998     GraphicDisplay.obj
 0002:000019c8       ??_7?$CComContainedObject@VCOPOSGraphicDisplay@@@ATL@@6B?$IDataObjectImpl@VCOPOSGraphicDisplay@@@1@@ 00000001800279c8     GraphicDisplay.obj
 0002:00001a28       ??_7?$CComContainedObject@VCOPOSGraphicDisplay@@@ATL@@6B?$IProvideClassInfo2Impl@$1?CLSID_OPOSGraphicDisplay@@3U_GUID@@B$1?DIID__IOPOSGraphicDisplayEvents@@3U2@B$1?LIBID_OposGraphicDisplay_CCO@@3U2@B$00$0A@VCComTypeInfoHolder@ATL@@@1@@ 0000000180027a28     GraphicDisplay.obj
 0002:00001a50       ??_7?$CComContainedObject@VCOPOSGraphicDisplay@@@ATL@@6B?$IObjectSafetyImpl@VCOPOSGraphicDisplay@@$02@1@@ 0000000180027a50     GraphicDisplay.obj
 0002:00001a80       ??_7?$CComContainedObject@VCOPOSGraphicDisplay@@@ATL@@6B?$IPropertyNotifySinkCP@VCOPOSGraphicDisplay@@VCComDynamicUnkArray@ATL@@@1@@ 0000000180027a80     GraphicDisplay.obj
 0002:00001ac0       ??_7?$CComContainedObject@VCOPOSGraphicDisplay@@@ATL@@6B?$CProxy_IOPOSEvents@VCOPOSGraphicDisplay@@@@@ 0000000180027ac0     GraphicDisplay.obj
 0002:00001b00       ??_7?$CComAggObject@VCOPOSGraphicDisplay@@@ATL@@6B@ 0000000180027b00     GraphicDisplay.obj
 0002:00001b20       ??_7?$CComObject@VCOPOSGraphicDisplay@@@ATL@@6B?$IDispatchImpl@UIOPOSGraphicDisplay@@$1?IID_IOPOSGraphicDisplay@@3U_GUID@@B$1?LIBID_OposGraphicDisplay_CCO@@3U3@B$00$0A@VCComTypeInfoHolder@ATL@@@1@@ 0000000180027b20     GraphicDisplay.obj
 0002:00001dc0       ??_7?$CComObject@VCOPOSGraphicDisplay@@@ATL@@6BCComControlBase@1@@ 0000000180027dc0     GraphicDisplay.obj
 0002:00001de8       ??_7?$CComObject@VCOPOSGraphicDisplay@@@ATL@@6B?$CWindowImpl@VCOPOSGraphicDisplay@@VCWindow@ATL@@V?$CWinTraits@$0FGAAAAAA@$0A@@3@@1@@ 0000000180027de8     GraphicDisplay.obj
 0002:00001e08       ??_7?$CComObject@VCOPOSGraphicDisplay@@@ATL@@6B?$IPersistStreamInitImpl@VCOPOSGraphicDisplay@@@1@@ 0000000180027e08     GraphicDisplay.obj
 0002:00001e50       ??_7?$CComObject@VCOPOSGraphicDisplay@@@ATL@@6B?$IOleControlImpl@VCOPOSGraphicDisplay@@@1@@ 0000000180027e50     GraphicDisplay.obj
 0002:00001e88       ??_7?$CComObject@VCOPOSGraphicDisplay@@@ATL@@6B?$IOleObjectImpl@VCOPOSGraphicDisplay@@@1@@ 0000000180027e88     GraphicDisplay.obj
 0002:00001f48       ??_7?$CComObject@VCOPOSGraphicDisplay@@@ATL@@6B?$IOleInPlaceActiveObjectImpl@VCOPOSGraphicDisplay@@@1@@ 0000000180027f48     GraphicDisplay.obj
 0002:00001f98       ??_7?$CComObject@VCOPOSGraphicDisplay@@@ATL@@6B?$IViewObjectExImpl@VCOPOSGraphicDisplay@@@1@@ 0000000180027f98     GraphicDisplay.obj
 0002:00002010       ??_7?$CComObject@VCOPOSGraphicDisplay@@@ATL@@6B?$IOleInPlaceObjectWindowlessImpl@VCOPOSGraphicDisplay@@@1@@ 0000000180028010     GraphicDisplay.obj
 0002:00002068       ??_7?$CComObject@VCOPOSGraphicDisplay@@@ATL@@6B?$IConnectionPointContainerImpl@VCOPOSGraphicDisplay@@@1@@ 0000000180028068     GraphicDisplay.obj
 0002:00002090       ??_7?$CComObject@VCOPOSGraphicDisplay@@@ATL@@6B?$IPersistStorageImpl@VCOPOSGraphicDisplay@@@1@@ 0000000180028090     GraphicDisplay.obj
 0002:000020e0       ??_7?$CComObject@VCOPOSGraphicDisplay@@@ATL@@6B?$ISpecifyPropertyPagesImpl@VCOPOSGraphicDisplay@@@1@@ 00000001800280e0     GraphicDisplay.obj
 0002:00002100       ??_7?$CComObject@VCOPOSGraphicDisplay@@@ATL@@6B?$IQuickActivateImpl@VCOPOSGraphicDisplay@@@1@@ 0000000180028100     GraphicDisplay.obj
 0002:00002130       ??_7?$CComObject@VCOPOSGraphicDisplay@@@ATL@@6B?$IDataObjectImpl@VCOPOSGraphicDisplay@@@1@@ 0000000180028130     GraphicDisplay.obj
 0002:00002190       ??_7?$CComObject@VCOPOSGraphicDisplay@@@ATL@@6B?$IProvideClassInfo2Impl@$1?CLSID_OPOSGraphicDisplay@@3U_GUID@@B$1?DIID__IOPOSGraphicDisplayEvents@@3U2@B$1?LIBID_OposGraphicDisplay_CCO@@3U2@B$00$0A@VCComTypeInfoHolder@ATL@@@1@@ 0000000180028190     GraphicDisplay.obj
 0002:000021b8       ??_7?$CComObject@VCOPOSGraphicDisplay@@@ATL@@6B?$IObjectSafetyImpl@VCOPOSGraphicDisplay@@$02@1@@ 00000001800281b8     GraphicDisplay.obj
 0002:000021e8       ??_7?$CComObject@VCOPOSGraphicDisplay@@@ATL@@6B?$IPropertyNotifySinkCP@VCOPOSGraphicDisplay@@VCComDynamicUnkArray@ATL@@@1@@ 00000001800281e8     GraphicDisplay.obj
 0002:00002228       ??_7?$CComObject@VCOPOSGraphicDisplay@@@ATL@@6B?$CProxy_IOPOSEvents@VCOPOSGraphicDisplay@@@@@ 0000000180028228     GraphicDisplay.obj
 0002:00002268       ??_C@_1O@GBFKGNEO@?$AAA?$AAT?$AAL?$AA?3?$AA?$CF?$AAp@ 0000000180028268     GraphicDisplay.obj
 0002:00002278       ??_C@_1BA@PICGEGJB@?$AAD?$AAI?$AAS?$AAP?$AAL?$AAA?$AAY@ 0000000180028278     GraphicDisplay.obj
 0002:00002288       _GUID_b196b284_bab4_101a_b69c_00aa00341d07 0000000180028288     GraphicDisplay.obj
 0002:00002298       _GUID_9bfbbc02_eff1_101a_84ed_00aa00341d07 0000000180028298     GraphicDisplay.obj
 0002:000022a8       ?_entries@?1??_GetEntries@?$CComEnum@UIEnumConnectionPoints@@$1?_GUID_b196b285_bab4_101a_b69c_00aa00341d07@@3U__s_GUID@@BPEAUIConnectionPoint@@V?$_CopyInterface@UIConnectionPoint@@@ATL@@VCComSingleThreadModel@6@@ATL@@SAPEBU_ATL_INTMAP_ENTRY@3@XZ@4QBU43@B 00000001800282a8     GraphicDisplay.obj
 0002:000022d8       _GUID_00020412_0000_0000_c000_000000000046 00000001800282d8     GraphicDisplay.obj
 0002:000022e8       _GUID_00020401_0000_0000_c000_000000000046 00000001800282e8     GraphicDisplay.obj
 0002:000022f8       ??_C@_0BG@EKFFMJIO@RegOpenKeyTransactedW@ 00000001800282f8     GraphicDisplay.obj
 0002:00002310       ??_C@_0BI@HAKLOOGP@RegDeleteKeyTransactedW@ 0000000180028310     GraphicDisplay.obj
 0002:00002328       ??_C@_0BA@LILAPHGE@RegDeleteKeyExW@ 0000000180028328     GraphicDisplay.obj
 0002:00002338       ??_C@_19ILOCMLCJ@?$AA?4?$AAt?$AAl?$AAb@ 0000000180028338     GraphicDisplay.obj
 0002:00002348       _GUID_0002e012_0000_0000_c000_000000000046 0000000180028348     GraphicDisplay.obj
 0002:00002358       ??_C@_1O@FHBGLCIO@?$AAC?$AAL?$AAS?$AAI?$AAD?$AA?2@ 0000000180028358     GraphicDisplay.obj
 0002:00002368       ??_C@_1CK@IFBKBFAA@?$AA?2?$AAR?$AAe?$AAq?$AAu?$AAi?$AAr?$AAe?$AAd?$AA?5?$AAC?$AAa?$AAt?$AAe?$AAg@ 0000000180028368     GraphicDisplay.obj
 0002:00002398       ??_C@_1DA@BIHALFED@?$AA?2?$AAI?$AAm?$AAp?$AAl?$AAe?$AAm?$AAe?$AAn?$AAt?$AAe?$AAd?$AA?5?$AAC?$AAa@ 0000000180028398     GraphicDisplay.obj
 0002:000023c8       ??_C@_1BK@EDKOLFBJ@?$AAO?$AAL?$AAE?$AAA?$AAU?$AAT?$AA3?$AA2?$AA?4?$AAD?$AAL?$AAL@ 00000001800283c8     GraphicDisplay.obj
 0002:000023e8       ??_C@_0BJ@CNLFOMHB@UnRegisterTypeLibForUser@ 00000001800283e8     GraphicDisplay.obj
 0002:00002408       ??_C@_0BH@LBOMMKPJ@RegisterTypeLibForUser@ 0000000180028408     GraphicDisplay.obj
 0002:00002420       ??_C@_0P@MMNMMLGK@COFreezeEvents@ 0000000180028420     GraphicDisplayImpl.obj
 0002:00002430       ??_C@_0BC@OGCGGIMP@GetPropertyNumber@ 0000000180028430     GraphicDisplayImpl.obj
 0002:00002448       ??_C@_0BC@MDCNODNB@SetPropertyNumber@ 0000000180028448     GraphicDisplayImpl.obj
 0002:00002460       ??_C@_0BC@CFCCMIMD@GetPropertyString@ 0000000180028460     GraphicDisplayImpl.obj
 0002:00002478       ??_C@_0BC@CJEDNN@SetPropertyString@ 0000000180028478     GraphicDisplayImpl.obj
 0002:00002490       ??_C@_0M@LNPKKKDA@OpenService@ 0000000180028490     GraphicDisplayImpl.obj
 0002:000024a0       ??_C@_0M@PCMCHHMH@CheckHealth@ 00000001800284a0     GraphicDisplayImpl.obj
 0002:000024b0       ??_C@_0M@JGMIDNEK@ClaimDevice@ 00000001800284b0     GraphicDisplayImpl.obj
 0002:000024c0       ??_C@_0M@JMBCPNGJ@ClearOutput@ 00000001800284c0     GraphicDisplayImpl.obj
 0002:000024d0       ??_C@_0N@DDFIIBMP@CloseService@ 00000001800284d0     GraphicDisplayImpl.obj
 0002:000024e0       ??_C@_08EEIHICPC@DirectIO@ 00000001800284e0     GraphicDisplayImpl.obj
 0002:000024f0       ??_C@_0O@BCPMENMJ@ReleaseDevice@ 00000001800284f0     GraphicDisplayImpl.obj
 0002:00002500       ??_C@_0BA@GFABKEEE@ResetStatistics@ 0000000180028500     GraphicDisplayImpl.obj
 0002:00002510       ??_C@_0BD@DPALHJGC@RetrieveStatistics@ 0000000180028510     GraphicDisplayImpl.obj
 0002:00002528       ??_C@_0BB@KOHIKNFC@UpdateStatistics@ 0000000180028528     GraphicDisplayImpl.obj
 0002:00002540       ??_C@_0BH@PBKBNMGB@CompareFirmwareVersion@ 0000000180028540     GraphicDisplayImpl.obj
 0002:00002558       ??_C@_0P@FBPDPIPA@UpdateFirmware@ 0000000180028558     GraphicDisplayImpl.obj
 0002:00002568       ??_C@_0BB@MADDABJL@CancelURLLoading@ 0000000180028568     GraphicDisplayImpl.obj
 0002:00002580       ??_C@_09FPOOFGFE@GoURLBack@ 0000000180028580     GraphicDisplayImpl.obj
 0002:00002590       ??_C@_0N@KMHHOPHP@GoURLForward@ 0000000180028590     GraphicDisplayImpl.obj
 0002:000025a0       ??_C@_09OHOMMMHI@LoadImage@ 00000001800285a0     GraphicDisplayImpl.obj
 0002:000025b0       ??_C@_07PJCMMDAN@LoadURL@  00000001800285b0     GraphicDisplayImpl.obj
 0002:000025b8       ??_C@_09CMEPLGIN@PlayVideo@ 00000001800285b8     GraphicDisplayImpl.obj
 0002:000025c8       ??_C@_09FAHCLKAG@StopVideo@ 00000001800285c8     GraphicDisplayImpl.obj
 0002:000025d8       ??_C@_0L@NIJDLNFL@UpdatePage@ 00000001800285d8     GraphicDisplayImpl.obj
 0002:000025e8       ??_7?$CProxy_IOPOSEvents@VCOPOSGraphicDisplay@@@@6B@ 00000001800285e8     GraphicDisplayImpl.obj
 0002:00002628       ??_C@_1BA@IFHENID@?$AA?$FL?$AAE?$AAr?$AAr?$AAo?$AAr?$AA?$FN@ 0000000180028628     GraphicDisplayImpl.obj
 0002:00002638       ??_C@_0DB@DHHLOAKN@SOFTWARE?2OLEforRetail?2ServiceOP@ 0000000180028638     GraphicDisplayImpl.obj
 0002:00002670       ??_C@_1M@IAIJHCCH@?$AAC?$AAl?$AAo?$AAs?$AAe@ 0000000180028670     GraphicDisplayImpl.obj
 0002:00002680       ??_C@_1M@PCPKGJAH@?$AAC?$AAl?$AAa?$AAi?$AAm@ 0000000180028680     GraphicDisplayImpl.obj
 0002:00002690       ??_C@_1BA@NDFKIOCP@?$AAR?$AAe?$AAl?$AAe?$AAa?$AAs?$AAe@ 0000000180028690     GraphicDisplayImpl.obj
 0002:000026a0       ??_C@_0P@CGHGOJIM@GraphicDisplay@ 00000001800286a0     GraphicDisplayImpl.obj
 0002:000026b0       ??_C@_1BM@IJMNMBPK@?$AAG?$AAe?$AAt?$AAO?$AAp?$AAe?$AAn?$AAR?$AAe?$AAs?$AAu?$AAl?$AAt@ 00000001800286b0     GraphicDisplayImpl.obj
 0002:000026d0       IID_IDispatch              00000001800286d0     uuid:oaidl_i.obj
 0002:000026e0       IID_IPropertyNotifySink    00000001800286e0     uuid:ocidl_i.obj
 0002:000026f0       GUID_NULL                  00000001800286f0     uuid:cguid_i.obj
 0002:00002700       CLSID_StdGlobalInterfaceTable 0000000180028700     uuid:cguid_i.obj
 0002:00002710       CLSID_StdComponentCategoriesMgr 0000000180028710     uuid:ieguids.obj
 0002:00002720       IID_IUnknown               0000000180028720     uuid:unknwn_i.obj
 0002:00002730       __xmm@ffffffffffffffffffffffffffffffff 0000000180028730     LIBCMT:utility.obj
 0002:00002740       ??_C@_1EC@JIJBPKFM@?$AAa?$AAp?$AAi?$AA?9?$AAm?$AAs?$AA?9?$AAw?$AAi?$AAn?$AA?9?$AAc?$AAo?$AAr?$AAe@ 0000000180028740     LIBCMT:thread_safe_statics.obj
 0002:00002788       ??_C@_1BK@MGMFAEKH@?$AAk?$AAe?$AAr?$AAn?$AAe?$AAl?$AA3?$AA2?$AA?4?$AAd?$AAl?$AAl@ 0000000180028788     LIBCMT:thread_safe_statics.obj
 0002:000027a8       ??_C@_0BJ@JEBJOJFJ@SleepConditionVariableCS@ 00000001800287a8     LIBCMT:thread_safe_statics.obj
 0002:000027c8       ??_C@_0BJ@PGPPEPCC@WakeAllConditionVariable@ 00000001800287c8     LIBCMT:thread_safe_statics.obj
 0002:000027e1       ?nothrow@std@@3Unothrow_t@1@B 00000001800287e1     LIBCMT:std_nothrow.obj
 0002:000027f8       _pDefaultRawDllMain        00000001800287f8     LIBCMT:dll_dllmain.obj
 0002:000027f8       _pRawDllMain               00000001800287f8     LIBCMT:dll_dllmain.obj
 0002:00002808       ??_7exception@std@@6B@     0000000180028808     LIBCMT:throw_bad_alloc.obj
 0002:00002818       ??_C@_0BC@EOODALEL@Unknown?5exception@ 0000000180028818     LIBCMT:throw_bad_alloc.obj
 0002:00002838       ??_7bad_alloc@std@@6B@     0000000180028838     LIBCMT:throw_bad_alloc.obj
 0002:00002848       ??_C@_0P@GHFPNOJB@bad?5allocation@ 0000000180028848     LIBCMT:throw_bad_alloc.obj
 0002:00002860       ??_7bad_array_new_length@std@@6B@ 0000000180028860     LIBCMT:throw_bad_alloc.obj
 0002:00002870       ??_C@_0BF@KINCDENJ@bad?5array?5new?5length@ 0000000180028870     LIBCMT:throw_bad_alloc.obj
 0002:00002890       ??_7type_info@@6B@         0000000180028890     LIBCMT:std_type_info_static.obj
 0002:00002898       GUID_ATLVer110             0000000180028898     atls:atlbase.obj
 0002:000028b0       ??_C@_1IC@ONKHOIDK@?$AAE?$AAR?$AAR?$AAO?$AAR?$AA?5?$AA?3?$AA?5?$AAU?$AAn?$AAa?$AAb?$AAl?$AAe?$AA?5@ 00000001800288b0     atls:atlbase.obj
 0002:00002938       ??_C@_0N@FJEPLCIH@atlthunk?4dll@ 0000000180028938     atls:atlthunk.obj
 0002:00002948       ??_C@_0BG@GAKFHCBM@AtlThunk_AllocateData@ 0000000180028948     atls:atlthunk.obj
 0002:00002960       ??_C@_0BC@JKONFIAH@AtlThunk_InitData@ 0000000180028960     atls:atlthunk.obj
 0002:00002978       ??_C@_0BE@IAOEELAK@AtlThunk_DataToCode@ 0000000180028978     atls:atlthunk.obj
 0002:00002990       ??_C@_0BC@GBGKAIPI@AtlThunk_FreeData@ 0000000180028990     atls:atlthunk.obj
 0002:000029a8       ?s_negLengthTab@FH4@@3QBCB 00000001800289a8     libvcruntime:risctrnsctrl.obj
 0002:000029b8       ?s_shiftTab@FH4@@3QBEB     00000001800289b8     libvcruntime:risctrnsctrl.obj
 0002:00002b08       _pDestructExceptionObject  0000000180028b08     libvcruntime:ehhelpers.obj
 0002:00002b18       ??_7bad_exception@std@@6B@ 0000000180028b18     libvcruntime:frame.obj
 0002:00002b28       ??_C@_0O@DPKOEFFH@bad?5exception@ 0000000180028b28     libvcruntime:frame.obj
 0002:00003250       ??_C@_08EHJDFFNH@__based?$CI@ 0000000180029250     libvcruntime:undname.obj
 0002:00003260       ??_C@_07KOLFKCDI@__cdecl@  0000000180029260     libvcruntime:undname.obj
 0002:00003268       ??_C@_08GHMPAG@__pascal@   0000000180029268     libvcruntime:undname.obj
 0002:00003278       ??_C@_09IFJBGAPI@__stdcall@ 0000000180029278     libvcruntime:undname.obj
 0002:00003288       ??_C@_0L@NPHFGOKO@__thiscall@ 0000000180029288     libvcruntime:undname.obj
 0002:00003298       ??_C@_0L@JMKHOMEK@__fastcall@ 0000000180029298     libvcruntime:undname.obj
 0002:000032a8       ??_C@_0N@BCKKPABJ@__vectorcall@ 00000001800292a8     libvcruntime:undname.obj
 0002:000032b8       ??_C@_09HIJEGCPM@__clrcall@ 00000001800292b8     libvcruntime:undname.obj
 0002:000032c4       ??_C@_06GHPCKEAG@__eabi@   00000001800292c4     libvcruntime:undname.obj
 0002:000032d0       ??_C@_09IOPIDJLG@__swift_1@ 00000001800292d0     libvcruntime:undname.obj
 0002:000032e0       ??_C@_09KFNFGKHF@__swift_2@ 00000001800292e0     libvcruntime:undname.obj
 0002:000032f0       ??_C@_09LMMOFLDE@__swift_3@ 00000001800292f0     libvcruntime:undname.obj
 0002:00003300       ??_C@_07JOMMBBKO@__ptr64@  0000000180029300     libvcruntime:undname.obj
 0002:00003308       ??_C@_0L@PILCLIHE@__restrict@ 0000000180029308     libvcruntime:undname.obj
 0002:00003318       ??_C@_0M@GFIIJFMG@__unaligned@ 0000000180029318     libvcruntime:undname.obj
 0002:00003328       ??_C@_09DHDLOLLB@restrict?$CI@ 0000000180029328     libvcruntime:undname.obj
 0002:00003332       ??_C@_00CNPNBAHC@@         0000000180029332     libvcruntime:undname.obj
 0002:00003334       ??_C@_04NIHEBCM@?5new@     0000000180029334     libvcruntime:undname.obj
 0002:00003340       ??_C@_07FPCDHGMM@?5delete@ 0000000180029340     libvcruntime:undname.obj
 0002:00003348       ??_C@_01NEMOKFLO@?$DN@     0000000180029348     libvcruntime:undname.obj
 0002:0000334c       ??_C@_02GPIOPFAK@?$DO?$DO@ 000000018002934c     libvcruntime:undname.obj
 0002:00003350       ??_C@_02FODMEDOG@?$DM?$DM@ 0000000180029350     libvcruntime:undname.obj
 0002:00003354       ??_C@_01DCLJPIOD@?$CB@     0000000180029354     libvcruntime:undname.obj
 0002:00003358       ??_C@_02EGOFBIJA@?$DN?$DN@ 0000000180029358     libvcruntime:undname.obj
 0002:0000335c       ??_C@_02FDNJECIE@?$CB?$DN@ 000000018002935c     libvcruntime:undname.obj
 0002:00003360       ??_C@_02GPECMEKF@?$FL?$FN@ 0000000180029360     libvcruntime:undname.obj
 0002:00003368       ??_C@_08LHJFAFGD@operator@ 0000000180029368     libvcruntime:undname.obj
 0002:00003374       ??_C@_02HBOOOICD@?9?$DO@   0000000180029374     libvcruntime:undname.obj
 0002:00003378       ??_C@_01NBENCBCI@?$CK@     0000000180029378     libvcruntime:undname.obj
 0002:0000337c       ??_C@_02ECNGHCIF@?$CL?$CL@ 000000018002937c     libvcruntime:undname.obj
 0002:00003380       ??_C@_02BAABKJLB@?9?9@     0000000180029380     libvcruntime:undname.obj
 0002:00003384       ??_C@_01JOAMLHOP@?9@       0000000180029384     libvcruntime:undname.obj
 0002:00003388       ??_C@_01MIFGBAGJ@?$CL@     0000000180029388     libvcruntime:undname.obj
 0002:0000338c       ??_C@_01HNPIGOCE@?$CG@     000000018002938c     libvcruntime:undname.obj
 0002:00003390       ??_C@_03MNHNFDLC@?9?$DO?$CK@ 0000000180029390     libvcruntime:undname.obj
 0002:00003394       ??_C@_01KMDKNFGN@?1@       0000000180029394     libvcruntime:undname.obj
 0002:00003398       ??_C@_01FGNFDNOH@?$CF@     0000000180029398     libvcruntime:undname.obj
 0002:0000339c       ??_C@_01MNNFJEPP@?$DM@     000000018002939c     libvcruntime:undname.obj
 0002:000033a0       ??_C@_02EHCHHCKH@?$DM?$DN@ 00000001800293a0     libvcruntime:undname.obj
 0002:000033a4       ??_C@_01PPODPGHN@?$DO@     00000001800293a4     libvcruntime:undname.obj
 0002:000033a8       ??_C@_02EEKDKGMJ@?$DO?$DN@ 00000001800293a8     libvcruntime:undname.obj
 0002:000033ac       ??_C@_01IHBHIGKO@?0@       00000001800293ac     libvcruntime:undname.obj
 0002:000033b0       ??_C@_02HCKGKOFO@?$CI?$CJ@ 00000001800293b0     libvcruntime:undname.obj
 0002:000033b4       ??_C@_01PJKLJHI@?$HO@      00000001800293b4     libvcruntime:undname.obj
 0002:000033b8       ??_C@_01JKBOJNNK@?$FO@     00000001800293b8     libvcruntime:undname.obj
 0002:000033bc       ??_C@_01DNKMNLPK@?$HM@     00000001800293bc     libvcruntime:undname.obj
 0002:000033c0       ??_C@_02PPKAJPJL@?$CG?$CG@ 00000001800293c0     libvcruntime:undname.obj
 0002:000033c4       ??_C@_02NONPIBCD@?$HM?$HM@ 00000001800293c4     libvcruntime:undname.obj
 0002:000033c8       ??_C@_02FPIMKNGF@?$CK?$DN@ 00000001800293c8     libvcruntime:undname.obj
 0002:000033cc       ??_C@_02FOEOMHFC@?$CL?$DN@ 00000001800293cc     libvcruntime:undname.obj
 0002:000033d0       ??_C@_02FKMDLLOA@?9?$DN@   00000001800293d0     libvcruntime:undname.obj
 0002:000033d4       ??_C@_02FJEHGPIO@?1?$DN@   00000001800293d4     libvcruntime:undname.obj
 0002:000033d8       ??_C@_02FENAOKFI@?$CF?$DN@ 00000001800293d8     libvcruntime:undname.obj
 0002:000033dc       ??_C@_03IKFCCPFF@?$DO?$DO?$DN@ 00000001800293dc     libvcruntime:undname.obj
 0002:000033e0       ??_C@_03CDNPDDLA@?$DM?$DM?$DN@ 00000001800293e0     libvcruntime:undname.obj
 0002:000033e4       ??_C@_02FGJGFEAB@?$CG?$DN@ 00000001800293e4     libvcruntime:undname.obj
 0002:000033e8       ??_C@_02DHLNPPGH@?$HM?$DN@ 00000001800293e8     libvcruntime:undname.obj
 0002:000033ec       ??_C@_02MHEGNOJ@?$FO?$DN@  00000001800293ec     libvcruntime:undname.obj
 0002:000033f0       ??_C@_09IFPLHPGF@?$GAvftable?8@ 00000001800293f0     libvcruntime:undname.obj
 0002:00003400       ??_C@_09BLBHBJP@?$GAvbtable?8@ 0000000180029400     libvcruntime:undname.obj
 0002:00003410       ??_C@_07FEEIOKP@?$GAvcall?8@ 0000000180029410     libvcruntime:undname.obj
 0002:00003418       ??_C@_08LLFFHHDJ@?$GAtypeof?8@ 0000000180029418     libvcruntime:undname.obj
 0002:00003428       ??_C@_0BF@KDPPACIK@?$GAlocal?5static?5guard?8@ 0000000180029428     libvcruntime:undname.obj
 0002:00003440       ??_C@_08OBABFOLI@?$GAstring?8@ 0000000180029440     libvcruntime:undname.obj
 0002:00003450       ??_C@_0BD@JDLKDPAB@?$GAvbase?5destructor?8@ 0000000180029450     libvcruntime:undname.obj
 0002:00003468       ??_C@_0BN@DEGPLNFK@?$GAvector?5deleting?5destructor?8@ 0000000180029468     libvcruntime:undname.obj
 0002:00003488       ??_C@_0BO@OBMKPJIG@?$GAdefault?5constructor?5closure?8@ 0000000180029488     libvcruntime:undname.obj
 0002:000034a8       ??_C@_0BN@IMDCHIKM@?$GAscalar?5deleting?5destructor?8@ 00000001800294a8     libvcruntime:undname.obj
 0002:000034c8       ??_C@_0BO@PFGOCPJJ@?$GAvector?5constructor?5iterator?8@ 00000001800294c8     libvcruntime:undname.obj
 0002:000034e8       ??_C@_0BN@LFPFMEDL@?$GAvector?5destructor?5iterator?8@ 00000001800294e8     libvcruntime:undname.obj
 0002:00003508       ??_C@_0CE@IKBNEHA@?$GAvector?5vbase?5constructor?5itera@ 0000000180029508     libvcruntime:undname.obj
 0002:00003530       ??_C@_0BL@NILFHHPC@?$GAvirtual?5displacement?5map?8@ 0000000180029530     libvcruntime:undname.obj
 0002:00003550       ??_C@_0CB@JONCMFFK@?$GAeh?5vector?5constructor?5iterator@ 0000000180029550     libvcruntime:undname.obj
 0002:00003578       ??_C@_0CA@GCEOPDGL@?$GAeh?5vector?5destructor?5iterator?8@ 0000000180029578     libvcruntime:undname.obj
 0002:00003598       ??_C@_0CH@OOJPLCPH@?$GAeh?5vector?5vbase?5constructor?5it@ 0000000180029598     libvcruntime:undname.obj
 0002:000035c0       ??_C@_0BL@LLKPOHJI@?$GAcopy?5constructor?5closure?8@ 00000001800295c0     libvcruntime:undname.obj
 0002:000035e0       ??_C@_0BA@KBCDOMBN@?$GAudt?5returning?8@ 00000001800295e0     libvcruntime:undname.obj
 0002:000035f0       ??_C@_03KLGMFNMG@?$GAEH@   00000001800295f0     libvcruntime:undname.obj
 0002:000035f4       ??_C@_05KHLCHHI@?$GARTTI@  00000001800295f4     libvcruntime:undname.obj
 0002:00003600       ??_C@_0BA@KKLDJDLB@?$GAlocal?5vftable?8@ 0000000180029600     libvcruntime:undname.obj
 0002:00003610       ??_C@_0CE@IIHCMGGL@?$GAlocal?5vftable?5constructor?5clos@ 0000000180029610     libvcruntime:undname.obj
 0002:00003634       ??_C@_06FHBGPFGH@?5new?$FL?$FN@ 0000000180029634     libvcruntime:undname.obj
 0002:00003640       ??_C@_09LBNFPBCA@?5delete?$FL?$FN@ 0000000180029640     libvcruntime:undname.obj
 0002:00003650       ??_C@_0P@HJKNJFNN@?$GAomni?5callsig?8@ 0000000180029650     libvcruntime:undname.obj
 0002:00003660       ??_C@_0BL@CNOONJFP@?$GAplacement?5delete?5closure?8@ 0000000180029660     libvcruntime:undname.obj
 0002:00003680       ??_C@_0BN@CKNJLHMB@?$GAplacement?5delete?$FL?$FN?5closure?8@ 0000000180029680     libvcruntime:undname.obj
 0002:000036a0       ??_C@_0CG@CFDHKGGD@?$GAmanaged?5vector?5constructor?5ite@ 00000001800296a0     libvcruntime:undname.obj
 0002:000036c8       ??_C@_0CF@IMGKMJNO@?$GAmanaged?5vector?5destructor?5iter@ 00000001800296c8     libvcruntime:undname.obj
 0002:000036f0       ??_C@_0CG@HLDDJMAG@?$GAeh?5vector?5copy?5constructor?5ite@ 00000001800296f0     libvcruntime:undname.obj
 0002:00003718       ??_C@_0CM@FCBBDIGB@?$GAeh?5vector?5vbase?5copy?5construct@ 0000000180029718     libvcruntime:undname.obj
 0002:00003748       ??_C@_0BL@CLIPGLGB@?$GAdynamic?5initializer?5for?5?8@ 0000000180029748     libvcruntime:undname.obj
 0002:00003768       ??_C@_0CB@PDBIFEP@?$GAdynamic?5atexit?5destructor?5for?5@ 0000000180029768     libvcruntime:undname.obj
 0002:00003790       ??_C@_0CD@CGAJBKEJ@?$GAvector?5copy?5constructor?5iterat@ 0000000180029790     libvcruntime:undname.obj
 0002:000037b8       ??_C@_0CJ@GJELGAMM@?$GAvector?5vbase?5copy?5constructor?5@ 00000001800297b8     libvcruntime:undname.obj
 0002:000037e8       ??_C@_0CL@FGIJHLCE@?$GAmanaged?5vector?5copy?5constructo@ 00000001800297e8     libvcruntime:undname.obj
 0002:00003818       ??_C@_0BM@PMGGMLDN@?$GAlocal?5static?5thread?5guard?8@ 0000000180029818     libvcruntime:undname.obj
 0002:00003838       ??_C@_0N@BDNMDMOL@operator?5?$CC?$CC?5@ 0000000180029838     libvcruntime:undname.obj
 0002:00003848       ??_C@_0BC@GGEBGALA@operator?5co_await@ 0000000180029848     libvcruntime:undname.obj
 0002:00003860       ??_C@_0M@GAAIMMOH@operator?$DM?$DN?$DO@ 0000000180029860     libvcruntime:undname.obj
 0002:00003870       ??_C@_0BC@DAFEJGAK@?5Type?5Descriptor?8@ 0000000180029870     libvcruntime:undname.obj
 0002:00003888       ??_C@_0BM@LDKODKLH@?5Base?5Class?5Descriptor?5at?5?$CI@ 0000000180029888     libvcruntime:undname.obj
 0002:000038a8       ??_C@_0BD@LGICGFMM@?5Base?5Class?5Array?8@ 00000001800298a8     libvcruntime:undname.obj
 0002:000038c0       ??_C@_0BN@MECKDCOJ@?5Class?5Hierarchy?5Descriptor?8@ 00000001800298c0     libvcruntime:undname.obj
 0002:000038e0       ??_C@_0BK@CFCOFLF@?5Complete?5Object?5Locator?8@ 00000001800298e0     libvcruntime:undname.obj
 0002:00003900       ??_C@_0BG@JNJLAMPM@?$GAanonymous?5namespace?8@ 0000000180029900     libvcruntime:undname.obj
 0002:00003930       ??_C@_1DM@KHCHBNEB@?$AAa?$AAp?$AAi?$AA?9?$AAm?$AAs?$AA?9?$AAw?$AAi?$AAn?$AA?9?$AAc?$AAo?$AAr?$AAe@ 0000000180029930     libvcruntime:winapi_downlevel.obj
 0002:00003970       ??_C@_1DK@LPPGFMPP@?$AAa?$AAp?$AAi?$AA?9?$AAm?$AAs?$AA?9?$AAw?$AAi?$AAn?$AA?9?$AAc?$AAo?$AAr?$AAe@ 0000000180029970     libvcruntime:winapi_downlevel.obj
 0002:000039b0       ??_C@_1BC@GDMECMAK@?$AAk?$AAe?$AAr?$AAn?$AAe?$AAl?$AA3?$AA2@ 00000001800299b0     libvcruntime:winapi_downlevel.obj
 0002:000039c8       ??_C@_1BA@PFFKHIOG@?$AAa?$AAp?$AAi?$AA?9?$AAm?$AAs?$AA?9@ 00000001800299c8     libvcruntime:winapi_downlevel.obj
 0002:000039e0       ??_C@_08KNHFBNJ@FlsAlloc@  00000001800299e0     libvcruntime:winapi_downlevel.obj
 0002:000039f8       ??_C@_07PEJMOBNF@FlsFree@  00000001800299f8     libvcruntime:winapi_downlevel.obj
 0002:00003a08       ??_C@_0M@GDNOONDI@FlsGetValue@ 0000000180029a08     libvcruntime:winapi_downlevel.obj
 0002:00003a20       ??_C@_0M@JCPCPOEF@FlsSetValue@ 0000000180029a20     libvcruntime:winapi_downlevel.obj
 0002:00003a38       ??_C@_0BM@HCFOFFN@InitializeCriticalSectionEx@ 0000000180029a38     libvcruntime:winapi_downlevel.obj
 0002:00003bd0       ?format_validation_lookup_table_spectre@__crt_stdio_output@@3V?$spectre_mitigated_lookup_table@Ustate_transition_pair@__crt_stdio_output@@$0IA@@1@B 0000000180029bd0     libucrt:output.obj
 0002:00003cd0       ??_C@_1O@CEDCILHN@?$AA?$CI?$AAn?$AAu?$AAl?$AAl?$AA?$CJ@ 0000000180029cd0     libucrt:output.obj
 0002:00003ce0       ??_C@_06OJHGLDPL@?$CInull?$CJ@ 0000000180029ce0     libucrt:output.obj
 0002:00003cf0       __acrt_exception_action_table 0000000180029cf0     libucrt:exception_filter.obj
 0002:00003db0       __acrt_signal_action_table_count 0000000180029db0     libucrt:exception_filter.obj
 0002:00003db8       __acrt_signal_action_first_fpe_index 0000000180029db8     libucrt:exception_filter.obj
 0002:00003dc0       __acrt_signal_action_fpe_count 0000000180029dc0     libucrt:exception_filter.obj
 0002:00003e18       ??_C@_1BI@BGOHAHKC@?$AAm?$AAs?$AAc?$AAo?$AAr?$AAe?$AAe?$AA?4?$AAd?$AAl?$AAl@ 0000000180029e18     libucrt:exit.obj
 0002:00003e30       ??_C@_0P@MIGLKIOC@CorExitProcess@ 0000000180029e30     libucrt:exit.obj
 0002:00003f90       __lc_time_c                0000000180029f90     libucrt:nlsdata.obj
 0002:00004250       ??_C@_03KOEHGMDN@Sun@      000000018002a250     libucrt:nlsdata.obj
 0002:00004254       ??_C@_03PDAGKDH@Mon@       000000018002a254     libucrt:nlsdata.obj
 0002:00004258       ??_C@_03NAGEINEP@Tue@      000000018002a258     libucrt:nlsdata.obj
 0002:0000425c       ??_C@_03MHOMLAJA@Wed@      000000018002a25c     libucrt:nlsdata.obj
 0002:00004260       ??_C@_03IOFIKPDN@Thu@      000000018002a260     libucrt:nlsdata.obj
 0002:00004264       ??_C@_03IDIOELNC@Fri@      000000018002a264     libucrt:nlsdata.obj
 0002:00004268       ??_C@_03FEFJNEK@Sat@       000000018002a268     libucrt:nlsdata.obj
 0002:0000426c       ??_C@_06OOPIFAJ@Sunday@    000000018002a26c     libucrt:nlsdata.obj
 0002:00004274       ??_C@_06JLEDEDGH@Monday@   000000018002a274     libucrt:nlsdata.obj
 0002:00004280       ??_C@_07BAAGCFCM@Tuesday@  000000018002a280     libucrt:nlsdata.obj
 0002:00004288       ??_C@_09DLIGFAKA@Wednesday@ 000000018002a288     libucrt:nlsdata.obj
 0002:00004298       ??_C@_08HACCIKIA@Thursday@ 000000018002a298     libucrt:nlsdata.obj
 0002:000042a4       ??_C@_06JECMNKMI@Friday@   000000018002a2a4     libucrt:nlsdata.obj
 0002:000042b0       ??_C@_08INBOOONO@Saturday@ 000000018002a2b0     libucrt:nlsdata.obj
 0002:000042bc       ??_C@_03JIHJHPIE@Jan@      000000018002a2bc     libucrt:nlsdata.obj
 0002:000042c0       ??_C@_03HJBDCHOM@Feb@      000000018002a2c0     libucrt:nlsdata.obj
 0002:000042c4       ??_C@_03ODNJBKGA@Mar@      000000018002a2c4     libucrt:nlsdata.obj
 0002:000042c8       ??_C@_03LEOLGMJP@Apr@      000000018002a2c8     libucrt:nlsdata.obj
 0002:000042cc       ??_C@_03CNMDKL@May@        000000018002a2cc     libucrt:nlsdata.obj
 0002:000042d0       ??_C@_03IDFGHECI@Jun@      000000018002a2d0     libucrt:nlsdata.obj
 0002:000042d4       ??_C@_03LBGABGKK@Jul@      000000018002a2d4     libucrt:nlsdata.obj
 0002:000042d8       ??_C@_03IFJFEIGA@Aug@      000000018002a2d8     libucrt:nlsdata.obj
 0002:000042dc       ??_C@_03GGCAPAJC@Sep@      000000018002a2dc     libucrt:nlsdata.obj
 0002:000042e0       ??_C@_03BMAOKBAD@Oct@      000000018002a2e0     libucrt:nlsdata.obj
 0002:000042e4       ??_C@_03JPJOFNIA@Nov@      000000018002a2e4     libucrt:nlsdata.obj
 0002:000042e8       ??_C@_03MKABNOCG@Dec@      000000018002a2e8     libucrt:nlsdata.obj
 0002:000042f0       ??_C@_07CGJPFGJA@January@  000000018002a2f0     libucrt:nlsdata.obj
 0002:000042f8       ??_C@_08GNJGEPFN@February@ 000000018002a2f8     libucrt:nlsdata.obj
 0002:00004304       ??_C@_05HPCKOFNC@March@    000000018002a304     libucrt:nlsdata.obj
 0002:0000430c       ??_C@_05DMJDNLEJ@April@    000000018002a30c     libucrt:nlsdata.obj
 0002:00004314       ??_C@_04CNLMGBGM@June@     000000018002a314     libucrt:nlsdata.obj
 0002:0000431c       ??_C@_04MIEPOIFP@July@     000000018002a31c     libucrt:nlsdata.obj
 0002:00004324       ??_C@_06LBBHFDDG@August@   000000018002a324     libucrt:nlsdata.obj
 0002:00004330       ??_C@_09BHHEALKD@September@ 000000018002a330     libucrt:nlsdata.obj
 0002:00004340       ??_C@_07JJNFCEND@October@  000000018002a340     libucrt:nlsdata.obj
 0002:00004348       ??_C@_08HCHEGEOA@November@ 000000018002a348     libucrt:nlsdata.obj
 0002:00004358       ??_C@_08EDHMEBNP@December@ 000000018002a358     libucrt:nlsdata.obj
 0002:00004364       ??_C@_02DEDBPAFC@AM@       000000018002a364     libucrt:nlsdata.obj
 0002:00004368       ??_C@_02CJNFDJBF@PM@       000000018002a368     libucrt:nlsdata.obj
 0002:00004370       ??_C@_08BPBNCDIB@MM?1dd?1yy@ 000000018002a370     libucrt:nlsdata.obj
 0002:00004380       ??_C@_0BE@CKGJFCPC@dddd?0?5MMMM?5dd?0?5yyyy@ 000000018002a380     libucrt:nlsdata.obj
 0002:00004398       ??_C@_08JCCMCCIL@HH?3mm?3ss@ 000000018002a398     libucrt:nlsdata.obj
 0002:000043a8       ??_C@_17MBGCMIPB@?$AAS?$AAu?$AAn@ 000000018002a3a8     libucrt:nlsdata.obj
 0002:000043b0       ??_C@_17KBOMKBF@?$AAM?$AAo?$AAn@ 000000018002a3b0     libucrt:nlsdata.obj
 0002:000043b8       ??_C@_17BMKGEGOJ@?$AAT?$AAu?$AAe@ 000000018002a3b8     libucrt:nlsdata.obj
 0002:000043c0       ??_C@_17CJEDCEPE@?$AAW?$AAe?$AAd@ 000000018002a3c0     libucrt:nlsdata.obj
 0002:000043c8       ??_C@_17PDPHAADD@?$AAT?$AAh?$AAu@ 000000018002a3c8     libucrt:nlsdata.obj
 0002:000043d0       ??_C@_17HFOLPPLP@?$AAF?$AAr?$AAi@ 000000018002a3d0     libucrt:nlsdata.obj
 0002:000043d8       ??_C@_17GGIBDPIH@?$AAS?$AAa?$AAt@ 000000018002a3d8     libucrt:nlsdata.obj
 0002:000043e0       ??_C@_1O@IHNHDHPB@?$AAS?$AAu?$AAn?$AAd?$AAa?$AAy@ 000000018002a3e0     libucrt:nlsdata.obj
 0002:000043f0       ??_C@_1O@MMNBFLIA@?$AAM?$AAo?$AAn?$AAd?$AAa?$AAy@ 000000018002a3f0     libucrt:nlsdata.obj
 0002:00004400       ??_C@_1BA@ENFBFFEK@?$AAT?$AAu?$AAe?$AAs?$AAd?$AAa?$AAy@ 000000018002a400     libucrt:nlsdata.obj
 0002:00004410       ??_C@_1BE@EBOGMDOH@?$AAW?$AAe?$AAd?$AAn?$AAe?$AAs?$AAd?$AAa?$AAy@ 000000018002a410     libucrt:nlsdata.obj
 0002:00004428       ??_C@_1BC@HHMNLIHE@?$AAT?$AAh?$AAu?$AAr?$AAs?$AAd?$AAa?$AAy@ 000000018002a428     libucrt:nlsdata.obj
 0002:00004440       ??_C@_1O@PDICJHAG@?$AAF?$AAr?$AAi?$AAd?$AAa?$AAy@ 000000018002a440     libucrt:nlsdata.obj
 0002:00004450       ??_C@_1BC@ENMNNPAJ@?$AAS?$AAa?$AAt?$AAu?$AAr?$AAd?$AAa?$AAy@ 000000018002a450     libucrt:nlsdata.obj
 0002:00004468       ??_C@_17DKNBKCHM@?$AAJ?$AAa?$AAn@ 000000018002a468     libucrt:nlsdata.obj
 0002:00004470       ??_C@_17LMDJEKJN@?$AAF?$AAe?$AAb@ 000000018002a470     libucrt:nlsdata.obj
 0002:00004478       ??_C@_17CKNLEDEC@?$AAM?$AAa?$AAr@ 000000018002a478     libucrt:nlsdata.obj
 0002:00004480       ??_C@_17LFPOIHDD@?$AAA?$AAp?$AAr@ 000000018002a480     libucrt:nlsdata.obj
 0002:00004488       ??_C@_17PNNKMEED@?$AAM?$AAa?$AAy@ 000000018002a488     libucrt:nlsdata.obj
 0002:00004490       ??_C@_17KCJGOCPB@?$AAJ?$AAu?$AAn@ 000000018002a490     libucrt:nlsdata.obj
 0002:00004498       ??_C@_17IJPCKHK@?$AAJ?$AAu?$AAl@ 000000018002a498     libucrt:nlsdata.obj
 0002:000044a0       ??_C@_17ICPELBCN@?$AAA?$AAu?$AAg@ 000000018002a4a0     libucrt:nlsdata.obj
 0002:000044a8       ??_C@_17HCHCOKMG@?$AAS?$AAe?$AAp@ 000000018002a4a8     libucrt:nlsdata.obj
 0002:000044b0       ??_C@_17FNLKOI@?$AAO?$AAc?$AAt@ 000000018002a4b0     libucrt:nlsdata.obj
 0002:000044b8       ??_C@_17BBDMLCIG@?$AAN?$AAo?$AAv@ 000000018002a4b8     libucrt:nlsdata.obj
 0002:000044c0       ??_C@_17EGKACKIF@?$AAD?$AAe?$AAc@ 000000018002a4c0     libucrt:nlsdata.obj
 0002:000044c8       ??_C@_1BA@EFMEIEBA@?$AAJ?$AAa?$AAn?$AAu?$AAa?$AAr?$AAy@ 000000018002a4c8     libucrt:nlsdata.obj
 0002:000044d8       ??_C@_1BC@JGDDFFAM@?$AAF?$AAe?$AAb?$AAr?$AAu?$AAa?$AAr?$AAy@ 000000018002a4d8     libucrt:nlsdata.obj
 0002:000044f0       ??_C@_1M@IKEENEDF@?$AAM?$AAa?$AAr?$AAc?$AAh@ 000000018002a4f0     libucrt:nlsdata.obj
 0002:00004500       ??_C@_1M@GJNLMHFD@?$AAA?$AAp?$AAr?$AAi?$AAl@ 000000018002a500     libucrt:nlsdata.obj
 0002:00004510       ??_C@_19EPFLPGAP@?$AAJ?$AAu?$AAn?$AAe@ 000000018002a510     libucrt:nlsdata.obj
 0002:00004520       ??_C@_19BIFMLPCD@?$AAJ?$AAu?$AAl?$AAy@ 000000018002a520     libucrt:nlsdata.obj
 0002:00004530       ??_C@_1O@PAHLKOAC@?$AAA?$AAu?$AAg?$AAu?$AAs?$AAt@ 000000018002a530     libucrt:nlsdata.obj
 0002:00004540       ??_C@_1BE@DKAAMBJL@?$AAS?$AAe?$AAp?$AAt?$AAe?$AAm?$AAb?$AAe?$AAr@ 000000018002a540     libucrt:nlsdata.obj
 0002:00004558       ??_C@_1BA@EPANDLNG@?$AAO?$AAc?$AAt?$AAo?$AAb?$AAe?$AAr@ 000000018002a558     libucrt:nlsdata.obj
 0002:00004568       ??_C@_1BC@BGLIFPF@?$AAN?$AAo?$AAv?$AAe?$AAm?$AAb?$AAe?$AAr@ 000000018002a568     libucrt:nlsdata.obj
 0002:00004580       ??_C@_1BC@FEMKIFH@?$AAD?$AAe?$AAc?$AAe?$AAm?$AAb?$AAe?$AAr@ 000000018002a580     libucrt:nlsdata.obj
 0002:00004594       ??_C@_15ODEHAHHF@?$AAA?$AAM@ 000000018002a594     libucrt:nlsdata.obj
 0002:0000459c       ??_C@_15CLMNNGEL@?$AAP?$AAM@ 000000018002a59c     libucrt:nlsdata.obj
 0002:000045a8       ??_C@_1BC@IEBCMHCM@?$AAM?$AAM?$AA?1?$AAd?$AAd?$AA?1?$AAy?$AAy@ 000000018002a5a8     libucrt:nlsdata.obj
 0002:000045c0       ??_C@_1CI@KNAKOEBC@?$AAd?$AAd?$AAd?$AAd?$AA?0?$AA?5?$AAM?$AAM?$AAM?$AAM?$AA?5?$AAd?$AAd?$AA?0?$AA?5@ 000000018002a5c0     libucrt:nlsdata.obj
 0002:000045e8       ??_C@_1BC@GDGBMEMK@?$AAH?$AAH?$AA?3?$AAm?$AAm?$AA?3?$AAs?$AAs@ 000000018002a5e8     libucrt:nlsdata.obj
 0002:00004600       ??_C@_1M@BMHNFIME@?$AAe?$AAn?$AA?9?$AAU?$AAS@ 000000018002a600     libucrt:nlsdata.obj
 0002:000046b0       ??_C@_1EA@JGEFHKEI@?$AAa?$AAp?$AAi?$AA?9?$AAm?$AAs?$AA?9?$AAw?$AAi?$AAn?$AA?9?$AAc?$AAo?$AAr?$AAe@ 000000018002a6b0     libucrt:winapi_thunks.obj
 0002:000046f0       ??_C@_1DI@IJCEHOCB@?$AAa?$AAp?$AAi?$AA?9?$AAm?$AAs?$AA?9?$AAw?$AAi?$AAn?$AA?9?$AAc?$AAo?$AAr?$AAe@ 000000018002a6f0     libucrt:winapi_thunks.obj
 0002:00004730       ??_C@_1EI@MPIAOHOC@?$AAa?$AAp?$AAi?$AA?9?$AAm?$AAs?$AA?9?$AAw?$AAi?$AAn?$AA?9?$AAc?$AAo?$AAr?$AAe@ 000000018002a730     libucrt:winapi_thunks.obj
 0002:00004780       ??_C@_1FK@FPHCKFIE@?$AAa?$AAp?$AAi?$AA?9?$AAm?$AAs?$AA?9?$AAw?$AAi?$AAn?$AA?9?$AAc?$AAo?$AAr?$AAe@ 000000018002a780     libucrt:winapi_thunks.obj
 0002:000047e0       ??_C@_1EM@DILCGIIO@?$AAa?$AAp?$AAi?$AA?9?$AAm?$AAs?$AA?9?$AAw?$AAi?$AAn?$AA?9?$AAc?$AAo?$AAr?$AAe@ 000000018002a7e0     libucrt:winapi_thunks.obj
 0002:00004830       ??_C@_1DM@LNCGDDPN@?$AAa?$AAp?$AAi?$AA?9?$AAm?$AAs?$AA?9?$AAw?$AAi?$AAn?$AA?9?$AAc?$AAo?$AAr?$AAe@ 000000018002a830     libucrt:winapi_thunks.obj
 0002:00004870       ??_C@_1DO@FPAPJEMD@?$AAa?$AAp?$AAi?$AA?9?$AAm?$AAs?$AA?9?$AAw?$AAi?$AAn?$AA?9?$AAc?$AAo?$AAr?$AAe@ 000000018002a870     libucrt:winapi_thunks.obj
 0002:000048b0       ??_C@_1DK@NDHNAHIO@?$AAa?$AAp?$AAi?$AA?9?$AAm?$AAs?$AA?9?$AAw?$AAi?$AAn?$AA?9?$AAc?$AAo?$AAr?$AAe@ 000000018002a8b0     libucrt:winapi_thunks.obj
 0002:000048f0       ??_C@_1DM@KGHDGBCM@?$AAa?$AAp?$AAi?$AA?9?$AAm?$AAs?$AA?9?$AAw?$AAi?$AAn?$AA?9?$AAc?$AAo?$AAr?$AAe@ 000000018002a8f0     libucrt:winapi_thunks.obj
 0002:00004930       ??_C@_1EO@IJIOEFOH@?$AAa?$AAp?$AAi?$AA?9?$AAm?$AAs?$AA?9?$AAw?$AAi?$AAn?$AA?9?$AAr?$AAt?$AAc?$AAo@ 000000018002a930     libucrt:winapi_thunks.obj
 0002:00004980       ??_C@_1FG@HHGEKANL@?$AAa?$AAp?$AAi?$AA?9?$AAm?$AAs?$AA?9?$AAw?$AAi?$AAn?$AA?9?$AAs?$AAe?$AAc?$AAu@ 000000018002a980     libucrt:winapi_thunks.obj
 0002:000049e0       ??_C@_1EG@DBIOJECG@?$AAe?$AAx?$AAt?$AA?9?$AAm?$AAs?$AA?9?$AAw?$AAi?$AAn?$AA?9?$AAn?$AAt?$AAu?$AAs@ 000000018002a9e0     libucrt:winapi_thunks.obj
 0002:00004a30       ??_C@_1EO@FIHMJCLF@?$AAe?$AAx?$AAt?$AA?9?$AAm?$AAs?$AA?9?$AAw?$AAi?$AAn?$AA?9?$AAn?$AAt?$AAu?$AAs@ 000000018002aa30     libucrt:winapi_thunks.obj
 0002:00004a80       ??_C@_1BC@DNHGCMLG@?$AAa?$AAd?$AAv?$AAa?$AAp?$AAi?$AA3?$AA2@ 000000018002aa80     libucrt:winapi_thunks.obj
 0002:00004a98       ??_C@_1M@OAIMIKLP@?$AAn?$AAt?$AAd?$AAl?$AAl@ 000000018002aa98     libucrt:winapi_thunks.obj
 0002:00004ab0       ??_C@_1EG@DPGNFKGC@?$AAa?$AAp?$AAi?$AA?9?$AAm?$AAs?$AA?9?$AAw?$AAi?$AAn?$AA?9?$AAa?$AAp?$AAp?$AAm@ 000000018002aab0     libucrt:winapi_thunks.obj
 0002:00004af8       ??_C@_1O@BCCLBEOE@?$AAu?$AAs?$AAe?$AAr?$AA3?$AA2@ 000000018002aaf8     libucrt:winapi_thunks.obj
 0002:00004b08       ??_C@_1BA@IAIFMGEF@?$AAe?$AAx?$AAt?$AA?9?$AAm?$AAs?$AA?9@ 000000018002ab08     libucrt:winapi_thunks.obj
 0002:00004b20       ??_C@_0BA@FHFNEAED@AreFileApisANSI@ 000000018002ab20     libucrt:winapi_thunks.obj
 0002:00004b40       ??_C@_0O@KKBNKAPF@LCMapStringEx@ 000000018002ab40     libucrt:winapi_thunks.obj
 0002:00004b58       ??_C@_0BB@HBDEELFH@LocaleNameToLCID@ 000000018002ab58     libucrt:winapi_thunks.obj
 0002:00004b70       ??_C@_0CF@OJOFEIGO@AppPolicyGetProcessTerminationM@ 000000018002ab70     libucrt:winapi_thunks.obj
 0002:00004ba0       ??_C@_0BI@BKLFFAPO@SetThreadStackGuarantee@ 000000018002aba0     libucrt:winapi_thunks.obj
 0002:00004c40       ??_C@_03OEIAHPBN@INF@      000000018002ac40     libucrt:cvt.obj
 0002:00004c44       ??_C@_03OJHLLCGB@inf@      000000018002ac44     libucrt:cvt.obj
 0002:00004c48       ??_C@_03LKNCIKJB@NAN@      000000018002ac48     libucrt:cvt.obj
 0002:00004c4c       ??_C@_03LHCJEHON@nan@      000000018002ac4c     libucrt:cvt.obj
 0002:00004c50       ??_C@_09OFJJIMPC@NAN?$CISNAN?$CJ@ 000000018002ac50     libucrt:cvt.obj
 0002:00004c60       ??_C@_09IPFBKMDL@nan?$CIsnan?$CJ@ 000000018002ac60     libucrt:cvt.obj
 0002:00004c70       ??_C@_08IKHNHAJ@NAN?$CIIND?$CJ@ 000000018002ac70     libucrt:cvt.obj
 0002:00004c80       ??_C@_08OFCDMILK@nan?$CIind?$CJ@ 000000018002ac80     libucrt:cvt.obj
 0002:00004c8c       ??_C@_05KLBDPFGC@e?$CL000@ 000000018002ac8c     libucrt:cvt.obj
 0002:00004cb8       ??_C@_1M@HPNHIDJI@?$AAj?$AAa?$AA?9?$AAJ?$AAP@ 000000018002acb8     libucrt:mbctype.obj
 0002:00004cc8       ??_C@_1M@BIBDDEMK@?$AAz?$AAh?$AA?9?$AAC?$AAN@ 000000018002acc8     libucrt:mbctype.obj
 0002:00004cd8       ??_C@_1M@JLOOOEGK@?$AAk?$AAo?$AA?9?$AAK?$AAR@ 000000018002acd8     libucrt:mbctype.obj
 0002:00004ce8       ??_C@_1M@CLNBBOPM@?$AAz?$AAh?$AA?9?$AAT?$AAW@ 000000018002ace8     libucrt:mbctype.obj
 0002:00004d00       __newctype                 000000018002ad00     libucrt:ctype.obj
 0002:00005000       __newclmap                 000000018002b000     libucrt:ctype.obj
 0002:00005180       __newcumap                 000000018002b180     libucrt:ctype.obj
 0002:00005300       ??_C@_15PJPFLCCM@?$AAu?$AAk@ 000000018002b300     libucrt:get_qualified_locale.obj
 0002:00006150       ??_C@_15EMKDOKLE@?$AAa?$AAr@ 000000018002c150     libucrt:lcidtoname_downlevel.obj
 0002:00006158       ??_C@_15KNPADPLH@?$AAb?$AAg@ 000000018002c158     libucrt:lcidtoname_downlevel.obj
 0002:00006160       ??_C@_15EDMHLDMO@?$AAc?$AAa@ 000000018002c160     libucrt:lcidtoname_downlevel.obj
 0002:00006168       ??_C@_1O@BPEAJADD@?$AAz?$AAh?$AA?9?$AAC?$AAH?$AAS@ 000000018002c168     libucrt:lcidtoname_downlevel.obj
 0002:00006178       ??_C@_15LJNHCMNK@?$AAc?$AAs@ 000000018002c178     libucrt:lcidtoname_downlevel.obj
 0002:00006180       ??_C@_15FOMCIDHG@?$AAd?$AAa@ 000000018002c180     libucrt:lcidtoname_downlevel.obj
 0002:00006188       ??_C@_15NBKABECB@?$AAd?$AAe@ 000000018002c188     libucrt:lcidtoname_downlevel.obj
 0002:00006190       ??_C@_15GHPEIIAO@?$AAe?$AAl@ 000000018002c190     libucrt:lcidtoname_downlevel.obj
 0002:00006198       ??_C@_15MNPNEAIF@?$AAe?$AAn@ 000000018002c198     libucrt:lcidtoname_downlevel.obj
 0002:000061a0       ??_C@_15GPIOMPMH@?$AAe?$AAs@ 000000018002c1a0     libucrt:lcidtoname_downlevel.obj
 0002:000061a8       ??_C@_15NGLOAKJC@?$AAf?$AAi@ 000000018002c1a8     libucrt:lcidtoname_downlevel.obj
 0002:000061b0       ??_C@_15FBKGNKAM@?$AAf?$AAr@ 000000018002c1b0     libucrt:lcidtoname_downlevel.obj
 0002:000061b8       ??_C@_15KGGCNEFK@?$AAh?$AAe@ 000000018002c1b8     libucrt:lcidtoname_downlevel.obj
 0002:000061c0       ??_C@_15PGHLIDMF@?$AAh?$AAu@ 000000018002c1c0     libucrt:lcidtoname_downlevel.obj
 0002:000061c8       ??_C@_15BIEMAPLM@?$AAi?$AAs@ 000000018002c1c8     libucrt:lcidtoname_downlevel.obj
 0002:000061d0       ??_C@_15IFJLDHAF@?$AAi?$AAt@ 000000018002c1d0     libucrt:lcidtoname_downlevel.obj
 0002:000061d8       ??_C@_15GEMIOCAG@?$AAj?$AAa@ 000000018002c1d8     libucrt:lcidtoname_downlevel.obj
 0002:000061e0       ??_C@_15EPELEGJA@?$AAk?$AAo@ 000000018002c1e0     libucrt:lcidtoname_downlevel.obj
 0002:000061e8       ??_C@_15NDDHIMN@?$AAn?$AAl@ 000000018002c1e8     libucrt:lcidtoname_downlevel.obj
 0002:000061f0       ??_C@_15BPIGNHCD@?$AAn?$AAo@ 000000018002c1f0     libucrt:lcidtoname_downlevel.obj
 0002:000061f8       ??_C@_15DEOPBLCG@?$AAp?$AAl@ 000000018002c1f8     libucrt:lcidtoname_downlevel.obj
 0002:00006200       ??_C@_15KBECGEFG@?$AAp?$AAt@ 000000018002c200     libucrt:lcidtoname_downlevel.obj
 0002:00006208       ??_C@_15GLJCBFMD@?$AAr?$AAo@ 000000018002c208     libucrt:lcidtoname_downlevel.obj
 0002:00006210       ??_C@_15FEDGKCDI@?$AAr?$AAu@ 000000018002c210     libucrt:lcidtoname_downlevel.obj
 0002:00006218       ??_C@_15GLKMLLHM@?$AAh?$AAr@ 000000018002c218     libucrt:lcidtoname_downlevel.obj
 0002:00006220       ??_C@_15CPKMFBDB@?$AAs?$AAk@ 000000018002c220     libucrt:lcidtoname_downlevel.obj
 0002:00006228       ??_C@_15BAAIOGMK@?$AAs?$AAq@ 000000018002c228     libucrt:lcidtoname_downlevel.obj
 0002:00006230       ??_C@_15INNPNOHD@?$AAs?$AAv@ 000000018002c230     libucrt:lcidtoname_downlevel.obj
 0002:00006238       ??_C@_15CABMMOGH@?$AAt?$AAh@ 000000018002c238     libucrt:lcidtoname_downlevel.obj
 0002:00006240       ??_C@_15BPLIHJJM@?$AAt?$AAr@ 000000018002c240     libucrt:lcidtoname_downlevel.obj
 0002:00006248       ??_C@_15NEOEKKDJ@?$AAu?$AAr@ 000000018002c248     libucrt:lcidtoname_downlevel.obj
 0002:00006250       ??_C@_15NFICGAJK@?$AAi?$AAd@ 000000018002c250     libucrt:lcidtoname_downlevel.obj
 0002:00006258       ??_C@_15HPJPHDM@?$AAb?$AAe@ 000000018002c258     libucrt:lcidtoname_downlevel.obj
 0002:00006260       ??_C@_15LCHLGJII@?$AAs?$AAl@ 000000018002c260     libucrt:lcidtoname_downlevel.obj
 0002:00006268       ??_C@_15PCFJPHHO@?$AAe?$AAt@ 000000018002c268     libucrt:lcidtoname_downlevel.obj
 0002:00006270       ??_C@_15HPFPGODN@?$AAl?$AAv@ 000000018002c270     libucrt:lcidtoname_downlevel.obj
 0002:00006278       ??_C@_15NFFGKGLG@?$AAl?$AAt@ 000000018002c278     libucrt:lcidtoname_downlevel.obj
 0002:00006280       ??_C@_15BDAKCCHN@?$AAf?$AAa@ 000000018002c280     libucrt:lcidtoname_downlevel.obj
 0002:00006288       ??_C@_15NFGIAIAJ@?$AAv?$AAi@ 000000018002c288     libucrt:lcidtoname_downlevel.obj
 0002:00006290       ??_C@_15LMKNDMHN@?$AAh?$AAy@ 000000018002c290     libucrt:lcidtoname_downlevel.obj
 0002:00006298       ??_C@_15IJBHMCFL@?$AAa?$AAz@ 000000018002c298     libucrt:lcidtoname_downlevel.obj
 0002:000062a0       ??_C@_15EKOFJABL@?$AAe?$AAu@ 000000018002c2a0     libucrt:lcidtoname_downlevel.obj
 0002:000062a8       ??_C@_15BGHADCNK@?$AAm?$AAk@ 000000018002c2a8     libucrt:lcidtoname_downlevel.obj
 0002:000062b0       ??_C@_15JDNICKHM@?$AAa?$AAf@ 000000018002c2b0     libucrt:lcidtoname_downlevel.obj
 0002:000062b8       ??_C@_15KPJEDBKD@?$AAk?$AAa@ 000000018002c2b8     libucrt:lcidtoname_downlevel.obj
 0002:000062c0       ??_C@_15PDNFFFEO@?$AAf?$AAo@ 000000018002c2c0     libucrt:lcidtoname_downlevel.obj
 0002:000062c8       ??_C@_15OMLEGLOC@?$AAh?$AAi@ 000000018002c2c8     libucrt:lcidtoname_downlevel.obj
 0002:000062d0       ??_C@_15IDNNENKK@?$AAm?$AAs@ 000000018002c2d0     libucrt:lcidtoname_downlevel.obj
 0002:000062d8       ??_C@_15MACJNBMH@?$AAk?$AAk@ 000000018002c2d8     libucrt:lcidtoname_downlevel.obj
 0002:000062e0       ??_C@_15DKDJEOND@?$AAk?$AAy@ 000000018002c2e0     libucrt:lcidtoname_downlevel.obj
 0002:000062e8       ??_C@_15DFGDLJBG@?$AAs?$AAw@ 000000018002c2e8     libucrt:lcidtoname_downlevel.obj
 0002:000062f0       ??_C@_15BBFAICNG@?$AAu?$AAz@ 000000018002c2f0     libucrt:lcidtoname_downlevel.obj
 0002:000062f8       ??_C@_15DKNDCGEA@?$AAt?$AAt@ 000000018002c2f8     libucrt:lcidtoname_downlevel.obj
 0002:00006300       ??_C@_15MGIFMDPL@?$AAp?$AAa@ 000000018002c300     libucrt:lcidtoname_downlevel.obj
 0002:00006308       ??_C@_15HCNDBBA@?$AAg?$AAu@ 000000018002c308     libucrt:lcidtoname_downlevel.obj
 0002:00006310       ??_C@_15FNBEIBON@?$AAt?$AAa@ 000000018002c310     libucrt:lcidtoname_downlevel.obj
 0002:00006318       ??_C@_15NCHGBGLK@?$AAt?$AAe@ 000000018002c318     libucrt:lcidtoname_downlevel.obj
 0002:00006320       ??_C@_15PHPHCBPF@?$AAk?$AAn@ 000000018002c320     libucrt:lcidtoname_downlevel.obj
 0002:00006328       ??_C@_15DLGBCKMP@?$AAm?$AAr@ 000000018002c328     libucrt:lcidtoname_downlevel.obj
 0002:00006330       ??_C@_15EABBLBFF@?$AAs?$AAa@ 000000018002c330     libucrt:lcidtoname_downlevel.obj
 0002:00006338       ??_C@_15CBKOMCOI@?$AAm?$AAn@ 000000018002c338     libucrt:lcidtoname_downlevel.obj
 0002:00006340       ??_C@_15CKDMCJAF@?$AAg?$AAl@ 000000018002c340     libucrt:lcidtoname_downlevel.obj
 0002:00006348       ??_C@_17CNJFBPG@?$AAk?$AAo?$AAk@ 000000018002c348     libucrt:lcidtoname_downlevel.obj
 0002:00006350       ??_C@_17FFBJICPL@?$AAs?$AAy?$AAr@ 000000018002c350     libucrt:lcidtoname_downlevel.obj
 0002:00006358       ??_C@_17KPNDCPAF@?$AAd?$AAi?$AAv@ 000000018002c358     libucrt:lcidtoname_downlevel.obj
 0002:00006360       ??_C@_1M@OKAHONE@?$AAa?$AAr?$AA?9?$AAS?$AAA@ 000000018002c360     libucrt:lcidtoname_downlevel.obj
 0002:00006370       ??_C@_1M@FFFIGIGK@?$AAb?$AAg?$AA?9?$AAB?$AAG@ 000000018002c370     libucrt:lcidtoname_downlevel.obj
 0002:00006380       ??_C@_1M@BJNKEDC@?$AAc?$AAa?$AA?9?$AAE?$AAS@ 000000018002c380     libucrt:lcidtoname_downlevel.obj
 0002:00006390       ??_C@_1M@IJJHFJHA@?$AAc?$AAs?$AA?9?$AAC?$AAZ@ 000000018002c390     libucrt:lcidtoname_downlevel.obj
 0002:000063a0       ??_C@_1M@CLPEOBGI@?$AAd?$AAa?$AA?9?$AAD?$AAK@ 000000018002c3a0     libucrt:lcidtoname_downlevel.obj
 0002:000063b0       ??_C@_1M@MCMADGCB@?$AAd?$AAe?$AA?9?$AAD?$AAE@ 000000018002c3b0     libucrt:lcidtoname_downlevel.obj
 0002:000063c0       ??_C@_1M@OOCKEMAM@?$AAe?$AAl?$AA?9?$AAG?$AAR@ 000000018002c3c0     libucrt:lcidtoname_downlevel.obj
 0002:000063d0       ??_C@_1M@DDNJFGID@?$AAf?$AAi?$AA?9?$AAF?$AAI@ 000000018002c3d0     libucrt:lcidtoname_downlevel.obj
 0002:000063e0       ??_C@_1M@GLIPPMAC@?$AAf?$AAr?$AA?9?$AAF?$AAR@ 000000018002c3e0     libucrt:lcidtoname_downlevel.obj
 0002:000063f0       ??_C@_1M@GFMCHPE@?$AAh?$AAe?$AA?9?$AAI?$AAL@ 000000018002c3f0     libucrt:lcidtoname_downlevel.obj
 0002:00006400       ??_C@_1M@MHLPGNKM@?$AAh?$AAu?$AA?9?$AAH?$AAU@ 000000018002c400     libucrt:lcidtoname_downlevel.obj
 0002:00006410       ??_C@_1M@LPDDNNPN@?$AAi?$AAs?$AA?9?$AAI?$AAS@ 000000018002c410     libucrt:lcidtoname_downlevel.obj
 0002:00006420       ??_C@_1M@MADIPODN@?$AAi?$AAt?$AA?9?$AAI?$AAT@ 000000018002c420     libucrt:lcidtoname_downlevel.obj
 0002:00006430       ??_C@_1M@IHBJJGG@?$AAn?$AAl?$AA?9?$AAN?$AAL@ 000000018002c430     libucrt:lcidtoname_downlevel.obj
 0002:00006440       ??_C@_1M@EANAGDL@?$AAn?$AAb?$AA?9?$AAN?$AAO@ 000000018002c440     libucrt:lcidtoname_downlevel.obj
 0002:00006450       ??_C@_1M@NEIEMEGP@?$AAp?$AAl?$AA?9?$AAP?$AAL@ 000000018002c450     libucrt:lcidtoname_downlevel.obj
 0002:00006460       ??_C@_1M@BOCFIGEP@?$AAp?$AAt?$AA?9?$AAB?$AAR@ 000000018002c460     libucrt:lcidtoname_downlevel.obj
 0002:00006470       ??_C@_1M@IMPFOPBG@?$AAr?$AAo?$AA?9?$AAR?$AAO@ 000000018002c470     libucrt:lcidtoname_downlevel.obj
 0002:00006480       ??_C@_1M@IDNNEJMM@?$AAr?$AAu?$AA?9?$AAR?$AAU@ 000000018002c480     libucrt:lcidtoname_downlevel.obj
 0002:00006490       ??_C@_1M@LILEEOGM@?$AAh?$AAr?$AA?9?$AAH?$AAR@ 000000018002c490     libucrt:lcidtoname_downlevel.obj
 0002:000064a0       ??_C@_1M@FKIFEHPB@?$AAs?$AAk?$AA?9?$AAS?$AAK@ 000000018002c4a0     libucrt:lcidtoname_downlevel.obj
 0002:000064b0       ??_C@_1M@LJMAMNPJ@?$AAs?$AAq?$AA?9?$AAA?$AAL@ 000000018002c4b0     libucrt:lcidtoname_downlevel.obj
 0002:000064c0       ??_C@_1M@GIAKDKJK@?$AAs?$AAv?$AA?9?$AAS?$AAE@ 000000018002c4c0     libucrt:lcidtoname_downlevel.obj
 0002:000064d0       ??_C@_1M@MKJKIKCL@?$AAt?$AAh?$AA?9?$AAT?$AAH@ 000000018002c4d0     libucrt:lcidtoname_downlevel.obj
 0002:000064e0       ??_C@_1M@MFLCCMPB@?$AAt?$AAr?$AA?9?$AAT?$AAR@ 000000018002c4e0     libucrt:lcidtoname_downlevel.obj
 0002:000064f0       ??_C@_1M@OIJHDKJN@?$AAu?$AAr?$AA?9?$AAP?$AAK@ 000000018002c4f0     libucrt:lcidtoname_downlevel.obj
 0002:00006500       ??_C@_1M@LHIPCIEK@?$AAi?$AAd?$AA?9?$AAI?$AAD@ 000000018002c500     libucrt:lcidtoname_downlevel.obj
 0002:00006510       ??_C@_1M@MFMOBGI@?$AAu?$AAk?$AA?9?$AAU?$AAA@ 000000018002c510     libucrt:lcidtoname_downlevel.obj
 0002:00006520       ??_C@_1M@OBGLJIPL@?$AAb?$AAe?$AA?9?$AAB?$AAY@ 000000018002c520     libucrt:lcidtoname_downlevel.obj
 0002:00006530       ??_C@_1M@BCFAJEAD@?$AAs?$AAl?$AA?9?$AAS?$AAI@ 000000018002c530     libucrt:lcidtoname_downlevel.obj
 0002:00006540       ??_C@_1M@FKFFEDDN@?$AAe?$AAt?$AA?9?$AAE?$AAE@ 000000018002c540     libucrt:lcidtoname_downlevel.obj
 0002:00006550       ??_C@_1M@KGKKAACI@?$AAl?$AAv?$AA?9?$AAL?$AAV@ 000000018002c550     libucrt:lcidtoname_downlevel.obj
 0002:00006560       ??_C@_1M@IFGBIJO@?$AAl?$AAt?$AA?9?$AAL?$AAT@ 000000018002c560     libucrt:lcidtoname_downlevel.obj
 0002:00006570       ??_C@_1M@FGEAHEDM@?$AAf?$AAa?$AA?9?$AAI?$AAR@ 000000018002c570     libucrt:lcidtoname_downlevel.obj
 0002:00006580       ??_C@_1M@KBMAIBFN@?$AAv?$AAi?$AA?9?$AAV?$AAN@ 000000018002c580     libucrt:lcidtoname_downlevel.obj
 0002:00006590       ??_C@_1M@GPCBKDJK@?$AAh?$AAy?$AA?9?$AAA?$AAM@ 000000018002c590     libucrt:lcidtoname_downlevel.obj
 0002:000065a0       ??_C@_1BG@BECMDDJB@?$AAa?$AAz?$AA?9?$AAA?$AAZ?$AA?9?$AAL?$AAa?$AAt?$AAn@ 000000018002c5a0     libucrt:lcidtoname_downlevel.obj
 0002:000065b8       ??_C@_1M@MAOFCAEA@?$AAe?$AAu?$AA?9?$AAE?$AAS@ 000000018002c5b8     libucrt:lcidtoname_downlevel.obj
 0002:000065c8       ??_C@_1M@IGHABKPI@?$AAm?$AAk?$AA?9?$AAM?$AAK@ 000000018002c5c8     libucrt:lcidtoname_downlevel.obj
 0002:000065d8       ??_C@_1M@IAIGNEJG@?$AAt?$AAn?$AA?9?$AAZ?$AAA@ 000000018002c5d8     libucrt:lcidtoname_downlevel.obj
 0002:000065e8       ??_C@_1M@IIJCOJFA@?$AAx?$AAh?$AA?9?$AAZ?$AAA@ 000000018002c5e8     libucrt:lcidtoname_downlevel.obj
 0002:000065f8       ??_C@_1M@LGPJHNJH@?$AAz?$AAu?$AA?9?$AAZ?$AAA@ 000000018002c5f8     libucrt:lcidtoname_downlevel.obj
 0002:00006608       ??_C@_1M@HOKAOIO@?$AAa?$AAf?$AA?9?$AAZ?$AAA@ 000000018002c608     libucrt:lcidtoname_downlevel.obj
 0002:00006618       ??_C@_1M@DPCLHLIE@?$AAk?$AAa?$AA?9?$AAG?$AAE@ 000000018002c618     libucrt:lcidtoname_downlevel.obj
 0002:00006628       ??_C@_1M@BLKMHJBI@?$AAf?$AAo?$AA?9?$AAF?$AAO@ 000000018002c628     libucrt:lcidtoname_downlevel.obj
 0002:00006638       ??_C@_1M@LGGJAPPB@?$AAh?$AAi?$AA?9?$AAI?$AAN@ 000000018002c638     libucrt:lcidtoname_downlevel.obj
 0002:00006648       ??_C@_1M@FIKPIHFE@?$AAm?$AAt?$AA?9?$AAM?$AAT@ 000000018002c648     libucrt:lcidtoname_downlevel.obj
 0002:00006658       ??_C@_1M@HEGGPBFA@?$AAs?$AAe?$AA?9?$AAN?$AAO@ 000000018002c658     libucrt:lcidtoname_downlevel.obj
 0002:00006668       ??_C@_1M@EIBJEEPA@?$AAm?$AAs?$AA?9?$AAM?$AAY@ 000000018002c668     libucrt:lcidtoname_downlevel.obj
 0002:00006678       ??_C@_1M@FHLBGMPP@?$AAk?$AAk?$AA?9?$AAK?$AAZ@ 000000018002c678     libucrt:lcidtoname_downlevel.obj
 0002:00006688       ??_C@_1M@NGJJLCGI@?$AAk?$AAy?$AA?9?$AAK?$AAG@ 000000018002c688     libucrt:lcidtoname_downlevel.obj
 0002:00006698       ??_C@_1M@GIENNBFC@?$AAs?$AAw?$AA?9?$AAK?$AAE@ 000000018002c698     libucrt:lcidtoname_downlevel.obj
 0002:000066a8       ??_C@_1BG@NDGMJIMJ@?$AAu?$AAz?$AA?9?$AAU?$AAZ?$AA?9?$AAL?$AAa?$AAt?$AAn@ 000000018002c6a8     libucrt:lcidtoname_downlevel.obj
 0002:000066c0       ??_C@_1M@IDCCIHBC@?$AAt?$AAt?$AA?9?$AAR?$AAU@ 000000018002c6c0     libucrt:lcidtoname_downlevel.obj
 0002:000066d0       ??_C@_1M@LOICPMOJ@?$AAb?$AAn?$AA?9?$AAI?$AAN@ 000000018002c6d0     libucrt:lcidtoname_downlevel.obj
 0002:000066e0       ??_C@_1M@KPKKNEAH@?$AAp?$AAa?$AA?9?$AAI?$AAN@ 000000018002c6e0     libucrt:lcidtoname_downlevel.obj
 0002:000066f0       ??_C@_1M@PJGPPBOG@?$AAg?$AAu?$AA?9?$AAI?$AAN@ 000000018002c6f0     libucrt:lcidtoname_downlevel.obj
 0002:00006700       ??_C@_1M@KMKMOPHI@?$AAt?$AAa?$AA?9?$AAI?$AAN@ 000000018002c700     libucrt:lcidtoname_downlevel.obj
 0002:00006710       ??_C@_1M@KFEHEPAC@?$AAt?$AAe?$AA?9?$AAI?$AAN@ 000000018002c710     libucrt:lcidtoname_downlevel.obj
 0002:00006720       ??_C@_1M@CDCLMGHI@?$AAk?$AAn?$AA?9?$AAI?$AAN@ 000000018002c720     libucrt:lcidtoname_downlevel.obj
 0002:00006730       ??_C@_1M@MIODLDKF@?$AAm?$AAl?$AA?9?$AAI?$AAN@ 000000018002c730     libucrt:lcidtoname_downlevel.obj
 0002:00006740       ??_C@_1M@PBIEACPO@?$AAm?$AAr?$AA?9?$AAI?$AAN@ 000000018002c740     libucrt:lcidtoname_downlevel.obj
 0002:00006750       ??_C@_1M@NIDEAGPH@?$AAs?$AAa?$AA?9?$AAI?$AAN@ 000000018002c750     libucrt:lcidtoname_downlevel.obj
 0002:00006760       ??_C@_1M@FHIHCBIO@?$AAm?$AAn?$AA?9?$AAM?$AAN@ 000000018002c760     libucrt:lcidtoname_downlevel.obj
 0002:00006770       ??_C@_1M@JAIJPENP@?$AAc?$AAy?$AA?9?$AAG?$AAB@ 000000018002c770     libucrt:lcidtoname_downlevel.obj
 0002:00006780       ??_C@_1M@PHGFBEPN@?$AAg?$AAl?$AA?9?$AAE?$AAS@ 000000018002c780     libucrt:lcidtoname_downlevel.obj
 0002:00006790       ??_C@_1O@KPIPDNCP@?$AAk?$AAo?$AAk?$AA?9?$AAI?$AAN@ 000000018002c790     libucrt:lcidtoname_downlevel.obj
 0002:000067a0       ??_C@_1O@KNHJLDJA@?$AAs?$AAy?$AAr?$AA?9?$AAS?$AAY@ 000000018002c7a0     libucrt:lcidtoname_downlevel.obj
 0002:000067b0       ??_C@_1O@MKEKBLAH@?$AAd?$AAi?$AAv?$AA?9?$AAM?$AAV@ 000000018002c7b0     libucrt:lcidtoname_downlevel.obj
 0002:000067c0       ??_C@_1O@OHDCKDDF@?$AAq?$AAu?$AAz?$AA?9?$AAB?$AAO@ 000000018002c7c0     libucrt:lcidtoname_downlevel.obj
 0002:000067d0       ??_C@_1M@LEPJNLFD@?$AAn?$AAs?$AA?9?$AAZ?$AAA@ 000000018002c7d0     libucrt:lcidtoname_downlevel.obj
 0002:000067e0       ??_C@_1M@OMLEIIJB@?$AAm?$AAi?$AA?9?$AAN?$AAZ@ 000000018002c7e0     libucrt:lcidtoname_downlevel.obj
 0002:000067f0       ??_C@_1M@PMPEAILG@?$AAa?$AAr?$AA?9?$AAI?$AAQ@ 000000018002c7f0     libucrt:lcidtoname_downlevel.obj
 0002:00006800       ??_C@_1M@CNKPNOEE@?$AAd?$AAe?$AA?9?$AAC?$AAH@ 000000018002c800     libucrt:lcidtoname_downlevel.obj
 0002:00006810       ??_C@_1M@LKMGMLKO@?$AAe?$AAn?$AA?9?$AAG?$AAB@ 000000018002c810     libucrt:lcidtoname_downlevel.obj
 0002:00006820       ??_C@_1M@PGKJFFGL@?$AAe?$AAs?$AA?9?$AAM?$AAX@ 000000018002c820     libucrt:lcidtoname_downlevel.obj
 0002:00006830       ??_C@_1M@DNNANBDC@?$AAf?$AAr?$AA?9?$AAB?$AAE@ 000000018002c830     libucrt:lcidtoname_downlevel.obj
 0002:00006840       ??_C@_1M@HLGMDFHM@?$AAi?$AAt?$AA?9?$AAC?$AAH@ 000000018002c840     libucrt:lcidtoname_downlevel.obj
 0002:00006850       ??_C@_1M@CLLBGJH@?$AAn?$AAl?$AA?9?$AAB?$AAE@ 000000018002c850     libucrt:lcidtoname_downlevel.obj
 0002:00006860       ??_C@_1M@BODBOGLF@?$AAn?$AAn?$AA?9?$AAN?$AAO@ 000000018002c860     libucrt:lcidtoname_downlevel.obj
 0002:00006870       ??_C@_1M@HFFAHKAD@?$AAp?$AAt?$AA?9?$AAP?$AAT@ 000000018002c870     libucrt:lcidtoname_downlevel.obj
 0002:00006880       ??_C@_1BG@LNOAKHIE@?$AAs?$AAr?$AA?9?$AAS?$AAP?$AA?9?$AAL?$AAa?$AAt?$AAn@ 000000018002c880     libucrt:lcidtoname_downlevel.obj
 0002:00006898       ??_C@_1M@HBMHBGAK@?$AAs?$AAv?$AA?9?$AAF?$AAI@ 000000018002c898     libucrt:lcidtoname_downlevel.obj
 0002:000068a8       ??_C@_1BG@DGCJGJBE@?$AAa?$AAz?$AA?9?$AAA?$AAZ?$AA?9?$AAC?$AAy?$AAr?$AAl@ 000000018002c8a8     libucrt:lcidtoname_downlevel.obj
 0002:000068c0       ??_C@_1M@KEJDAAHB@?$AAs?$AAe?$AA?9?$AAS?$AAE@ 000000018002c8c0     libucrt:lcidtoname_downlevel.obj
 0002:000068d0       ??_C@_1M@HEIBJJAD@?$AAm?$AAs?$AA?9?$AAB?$AAN@ 000000018002c8d0     libucrt:lcidtoname_downlevel.obj
 0002:000068e0       ??_C@_1BG@PBGJMCEM@?$AAu?$AAz?$AA?9?$AAU?$AAZ?$AA?9?$AAC?$AAy?$AAr?$AAl@ 000000018002c8e0     libucrt:lcidtoname_downlevel.obj
 0002:000068f8       ??_C@_1O@LAOBCMDF@?$AAq?$AAu?$AAz?$AA?9?$AAE?$AAC@ 000000018002c8f8     libucrt:lcidtoname_downlevel.obj
 0002:00006908       ??_C@_1M@POEEMAIO@?$AAa?$AAr?$AA?9?$AAE?$AAG@ 000000018002c908     libucrt:lcidtoname_downlevel.obj
 0002:00006918       ??_C@_1M@EFAKDEDL@?$AAz?$AAh?$AA?9?$AAH?$AAK@ 000000018002c918     libucrt:lcidtoname_downlevel.obj
 0002:00006928       ??_C@_1M@HKKIJHGI@?$AAd?$AAe?$AA?9?$AAA?$AAT@ 000000018002c928     libucrt:lcidtoname_downlevel.obj
 0002:00006938       ??_C@_1M@KBFBEHJF@?$AAe?$AAn?$AA?9?$AAA?$AAU@ 000000018002c938     libucrt:lcidtoname_downlevel.obj
 0002:00006948       ??_C@_1M@MNPLFAAH@?$AAe?$AAs?$AA?9?$AAE?$AAS@ 000000018002c948     libucrt:lcidtoname_downlevel.obj
 0002:00006958       ??_C@_1M@HJOOJFMA@?$AAf?$AAr?$AA?9?$AAC?$AAA@ 000000018002c958     libucrt:lcidtoname_downlevel.obj
 0002:00006968       ??_C@_1BG@JPOFPNAB@?$AAs?$AAr?$AA?9?$AAS?$AAP?$AA?9?$AAC?$AAy?$AAr?$AAl@ 000000018002c968     libucrt:lcidtoname_downlevel.obj
 0002:00006980       ??_C@_1M@LNFOCMOB@?$AAs?$AAe?$AA?9?$AAF?$AAI@ 000000018002c980     libucrt:lcidtoname_downlevel.obj
 0002:00006990       ??_C@_1O@MGJBOAMB@?$AAq?$AAu?$AAz?$AA?9?$AAP?$AAE@ 000000018002c990     libucrt:lcidtoname_downlevel.obj
 0002:000069a0       ??_C@_1M@GJINLBOK@?$AAa?$AAr?$AA?9?$AAL?$AAY@ 000000018002c9a0     libucrt:lcidtoname_downlevel.obj
 0002:000069b0       ??_C@_1M@GGMNHJNL@?$AAz?$AAh?$AA?9?$AAS?$AAG@ 000000018002c9b0     libucrt:lcidtoname_downlevel.obj
 0002:000069c0       ??_C@_1M@HOIKODND@?$AAd?$AAe?$AA?9?$AAL?$AAU@ 000000018002c9c0     libucrt:lcidtoname_downlevel.obj
 0002:000069d0       ??_C@_1M@DDOCCGFG@?$AAe?$AAn?$AA?9?$AAC?$AAA@ 000000018002c9d0     libucrt:lcidtoname_downlevel.obj
 0002:000069e0       ??_C@_1M@BNOEMJLF@?$AAe?$AAs?$AA?9?$AAG?$AAT@ 000000018002c9e0     libucrt:lcidtoname_downlevel.obj
 0002:000069f0       ??_C@_1M@EOGNKEK@?$AAf?$AAr?$AA?9?$AAC?$AAH@ 000000018002c9f0     libucrt:lcidtoname_downlevel.obj
 0002:00006a00       ??_C@_1M@FLIDJFHL@?$AAh?$AAr?$AA?9?$AAB?$AAA@ 000000018002ca00     libucrt:lcidtoname_downlevel.obj
 0002:00006a10       ??_C@_1O@FMCELNAJ@?$AAs?$AAm?$AAj?$AA?9?$AAN?$AAO@ 000000018002ca10     libucrt:lcidtoname_downlevel.obj
 0002:00006a20       ??_C@_1M@JHGLJMGJ@?$AAa?$AAr?$AA?9?$AAD?$AAZ@ 000000018002ca20     libucrt:lcidtoname_downlevel.obj
 0002:00006a30       ??_C@_1M@JKKFDCNP@?$AAz?$AAh?$AA?9?$AAM?$AAO@ 000000018002ca30     libucrt:lcidtoname_downlevel.obj
 0002:00006a40       ??_C@_1M@GEEFALPE@?$AAd?$AAe?$AA?9?$AAL?$AAI@ 000000018002ca40     libucrt:lcidtoname_downlevel.obj
 0002:00006a50       ??_C@_1M@IGEOFBG@?$AAe?$AAn?$AA?9?$AAN?$AAZ@ 000000018002ca50     libucrt:lcidtoname_downlevel.obj
 0002:00006a60       ??_C@_1M@KDBONEHP@?$AAe?$AAs?$AA?9?$AAC?$AAR@ 000000018002ca60     libucrt:lcidtoname_downlevel.obj
 0002:00006a70       ??_C@_1M@FHMDOHNN@?$AAf?$AAr?$AA?9?$AAL?$AAU@ 000000018002ca70     libucrt:lcidtoname_downlevel.obj
 0002:00006a80       ??_C@_1BG@NFKKMAFG@?$AAb?$AAs?$AA?9?$AAB?$AAA?$AA?9?$AAL?$AAa?$AAt?$AAn@ 000000018002ca80     libucrt:lcidtoname_downlevel.obj
 0002:00006a98       ??_C@_1O@IMNBEMCI@?$AAs?$AAm?$AAj?$AA?9?$AAS?$AAE@ 000000018002ca98     libucrt:lcidtoname_downlevel.obj
 0002:00006aa8       ??_C@_1M@DHHMBNDP@?$AAa?$AAr?$AA?9?$AAM?$AAA@ 000000018002caa8     libucrt:lcidtoname_downlevel.obj
 0002:00006ab8       ??_C@_1M@BNBLJCGH@?$AAe?$AAn?$AA?9?$AAI?$AAE@ 000000018002cab8     libucrt:lcidtoname_downlevel.obj
 0002:00006ac8       ??_C@_1M@GEPAFMDL@?$AAe?$AAs?$AA?9?$AAP?$AAA@ 000000018002cac8     libucrt:lcidtoname_downlevel.obj
 0002:00006ad8       ??_C@_1M@OJONDMDL@?$AAf?$AAr?$AA?9?$AAM?$AAC@ 000000018002cad8     libucrt:lcidtoname_downlevel.obj
 0002:00006ae8       ??_C@_1BG@OBCNFJB@?$AAs?$AAr?$AA?9?$AAB?$AAA?$AA?9?$AAL?$AAa?$AAt?$AAn@ 000000018002cae8     libucrt:lcidtoname_downlevel.obj
 0002:00006b00       ??_C@_1O@KEMEEGPO@?$AAs?$AAm?$AAa?$AA?9?$AAN?$AAO@ 000000018002cb00     libucrt:lcidtoname_downlevel.obj
 0002:00006b10       ??_C@_1M@ELMGFODK@?$AAa?$AAr?$AA?9?$AAT?$AAN@ 000000018002cb10     libucrt:lcidtoname_downlevel.obj
 0002:00006b20       ??_C@_1M@BHDLHFAF@?$AAe?$AAn?$AA?9?$AAZ?$AAA@ 000000018002cb20     libucrt:lcidtoname_downlevel.obj
 0002:00006b30       ??_C@_1M@BMGIGLIF@?$AAe?$AAs?$AA?9?$AAD?$AAO@ 000000018002cb30     libucrt:lcidtoname_downlevel.obj
 0002:00006b40       ??_C@_1BG@CMBHIPBE@?$AAs?$AAr?$AA?9?$AAB?$AAA?$AA?9?$AAC?$AAy?$AAr?$AAl@ 000000018002cb40     libucrt:lcidtoname_downlevel.obj
 0002:00006b58       ??_C@_1O@HEDBLHNP@?$AAs?$AAm?$AAa?$AA?9?$AAS?$AAE@ 000000018002cb58     libucrt:lcidtoname_downlevel.obj
 0002:00006b68       ??_C@_1M@DAGCADIM@?$AAa?$AAr?$AA?9?$AAO?$AAM@ 000000018002cb68     libucrt:lcidtoname_downlevel.obj
 0002:00006b78       ??_C@_1M@FODLMICG@?$AAe?$AAn?$AA?9?$AAJ?$AAM@ 000000018002cb78     libucrt:lcidtoname_downlevel.obj
 0002:00006b88       ??_C@_1M@DNMLCIHB@?$AAe?$AAs?$AA?9?$AAV?$AAE@ 000000018002cb88     libucrt:lcidtoname_downlevel.obj
 0002:00006b98       ??_C@_1O@EOKHMKJK@?$AAs?$AAm?$AAs?$AA?9?$AAF?$AAI@ 000000018002cb98     libucrt:lcidtoname_downlevel.obj
 0002:00006ba8       ??_C@_1M@CAFJMKOF@?$AAa?$AAr?$AA?9?$AAY?$AAE@ 000000018002cba8     libucrt:lcidtoname_downlevel.obj
 0002:00006bb8       ??_C@_1M@CBFHIJLI@?$AAe?$AAn?$AA?9?$AAC?$AAB@ 000000018002cbb8     libucrt:lcidtoname_downlevel.obj
 0002:00006bc8       ??_C@_1M@BGNFLDN@?$AAe?$AAs?$AA?9?$AAC?$AAO@ 000000018002cbc8     libucrt:lcidtoname_downlevel.obj
 0002:00006bd8       ??_C@_1O@JMPHMAMC@?$AAs?$AAm?$AAn?$AA?9?$AAF?$AAI@ 000000018002cbd8     libucrt:lcidtoname_downlevel.obj
 0002:00006be8       ??_C@_1M@JLANABKE@?$AAa?$AAr?$AA?9?$AAS?$AAY@ 000000018002cbe8     libucrt:lcidtoname_downlevel.obj
 0002:00006bf8       ??_C@_1M@HPKGCFGN@?$AAe?$AAn?$AA?9?$AAB?$AAZ@ 000000018002cbf8     libucrt:lcidtoname_downlevel.obj
 0002:00006c08       ??_C@_1M@OLJCMLGM@?$AAe?$AAs?$AA?9?$AAP?$AAE@ 000000018002cc08     libucrt:lcidtoname_downlevel.obj
 0002:00006c18       ??_C@_1M@MKKGFKLE@?$AAa?$AAr?$AA?9?$AAJ?$AAO@ 000000018002cc18     libucrt:lcidtoname_downlevel.obj
 0002:00006c28       ??_C@_1M@EKPGLDNI@?$AAe?$AAn?$AA?9?$AAT?$AAT@ 000000018002cc28     libucrt:lcidtoname_downlevel.obj
 0002:00006c38       ??_C@_1M@OONGHFHE@?$AAe?$AAs?$AA?9?$AAA?$AAR@ 000000018002cc38     libucrt:lcidtoname_downlevel.obj
 0002:00006c48       ??_C@_1M@OOJFGBHE@?$AAa?$AAr?$AA?9?$AAL?$AAB@ 000000018002cc48     libucrt:lcidtoname_downlevel.obj
 0002:00006c58       ??_C@_1M@GCEJHNEG@?$AAe?$AAn?$AA?9?$AAZ?$AAW@ 000000018002cc58     libucrt:lcidtoname_downlevel.obj
 0002:00006c68       ??_C@_1M@JNOCAHJI@?$AAe?$AAs?$AA?9?$AAE?$AAC@ 000000018002cc68     libucrt:lcidtoname_downlevel.obj
 0002:00006c78       ??_C@_1M@JEFHPGGB@?$AAa?$AAr?$AA?9?$AAK?$AAW@ 000000018002cc78     libucrt:lcidtoname_downlevel.obj
 0002:00006c88       ??_C@_1M@MLKIBJOJ@?$AAe?$AAn?$AA?9?$AAP?$AAH@ 000000018002cc88     libucrt:lcidtoname_downlevel.obj
 0002:00006c98       ??_C@_1M@BDNIPEND@?$AAe?$AAs?$AA?9?$AAC?$AAL@ 000000018002cc98     libucrt:lcidtoname_downlevel.obj
 0002:00006ca8       ??_C@_1M@MPNMEKBD@?$AAa?$AAr?$AA?9?$AAA?$AAE@ 000000018002cca8     libucrt:lcidtoname_downlevel.obj
 0002:00006cb8       ??_C@_1M@KBJALCPI@?$AAe?$AAs?$AA?9?$AAU?$AAY@ 000000018002ccb8     libucrt:lcidtoname_downlevel.obj
 0002:00006cc8       ??_C@_1M@LLCCOAGA@?$AAa?$AAr?$AA?9?$AAB?$AAH@ 000000018002ccc8     libucrt:lcidtoname_downlevel.obj
 0002:00006cd8       ??_C@_1M@PBFNCDEL@?$AAe?$AAs?$AA?9?$AAP?$AAY@ 000000018002ccd8     libucrt:lcidtoname_downlevel.obj
 0002:00006ce8       ??_C@_1M@EDGINPNP@?$AAa?$AAr?$AA?9?$AAQ?$AAA@ 000000018002cce8     libucrt:lcidtoname_downlevel.obj
 0002:00006cf8       ??_C@_1M@MKDBIIJI@?$AAe?$AAs?$AA?9?$AAB?$AAO@ 000000018002ccf8     libucrt:lcidtoname_downlevel.obj
 0002:00006d08       ??_C@_1M@CPKKEBLD@?$AAe?$AAs?$AA?9?$AAS?$AAV@ 000000018002cd08     libucrt:lcidtoname_downlevel.obj
 0002:00006d18       ??_C@_1M@NDBGMMJL@?$AAe?$AAs?$AA?9?$AAH?$AAN@ 000000018002cd18     libucrt:lcidtoname_downlevel.obj
 0002:00006d28       ??_C@_1M@JIJIBHDP@?$AAe?$AAs?$AA?9?$AAN?$AAI@ 000000018002cd28     libucrt:lcidtoname_downlevel.obj
 0002:00006d38       ??_C@_1M@CGFMKEEK@?$AAe?$AAs?$AA?9?$AAP?$AAR@ 000000018002cd38     libucrt:lcidtoname_downlevel.obj
 0002:00006d48       ??_C@_1O@ICJHKIIK@?$AAz?$AAh?$AA?9?$AAC?$AAH?$AAT@ 000000018002cd48     libucrt:lcidtoname_downlevel.obj
 0002:00006d58       ??_C@_15CLNEJCE@?$AAs?$AAr@ 000000018002cd58     libucrt:lcidtoname_downlevel.obj
 0002:00007ba0       ??_C@_1M@KAHEKEIG@?$AAa?$AAf?$AA?9?$AAz?$AAa@ 000000018002dba0     libucrt:lcidtoname_downlevel.obj
 0002:00007bb0       ??_C@_1M@GIECOABL@?$AAa?$AAr?$AA?9?$AAa?$AAe@ 000000018002dbb0     libucrt:lcidtoname_downlevel.obj
 0002:00007bc0       ??_C@_1M@BMLMEKGI@?$AAa?$AAr?$AA?9?$AAb?$AAh@ 000000018002dbc0     libucrt:lcidtoname_downlevel.obj
 0002:00007bd0       ??_C@_1M@DAPFDGGB@?$AAa?$AAr?$AA?9?$AAd?$AAz@ 000000018002dbd0     libucrt:lcidtoname_downlevel.obj
 0002:00007be0       ??_C@_1M@FJNKGKIG@?$AAa?$AAr?$AA?9?$AAe?$AAg@ 000000018002dbe0     libucrt:lcidtoname_downlevel.obj
 0002:00007bf0       ??_C@_1M@FLGKKCLO@?$AAa?$AAr?$AA?9?$AAi?$AAq@ 000000018002dbf0     libucrt:lcidtoname_downlevel.obj
 0002:00007c00       ??_C@_1M@GNDIPALM@?$AAa?$AAr?$AA?9?$AAj?$AAo@ 000000018002dc00     libucrt:lcidtoname_downlevel.obj
 0002:00007c10       ??_C@_1M@DDMJFMGJ@?$AAa?$AAr?$AA?9?$AAk?$AAw@ 000000018002dc10     libucrt:lcidtoname_downlevel.obj
 0002:00007c20       ??_C@_1M@EJALMLHM@?$AAa?$AAr?$AA?9?$AAl?$AAb@ 000000018002dc20     libucrt:lcidtoname_downlevel.obj
 0002:00007c30       ??_C@_1M@MOBDBLOC@?$AAa?$AAr?$AA?9?$AAl?$AAy@ 000000018002dc30     libucrt:lcidtoname_downlevel.obj
 0002:00007c40       ??_C@_1M@JAOCLHDH@?$AAa?$AAr?$AA?9?$AAm?$AAa@ 000000018002dc40     libucrt:lcidtoname_downlevel.obj
 0002:00007c50       ??_C@_1M@JHPMKJIE@?$AAa?$AAr?$AA?9?$AAo?$AAm@ 000000018002dc50     libucrt:lcidtoname_downlevel.obj
 0002:00007c60       ??_C@_1M@OEPGHFNH@?$AAa?$AAr?$AA?9?$AAq?$AAa@ 000000018002dc60     libucrt:lcidtoname_downlevel.obj
 0002:00007c70       ??_C@_1M@KJDONENM@?$AAa?$AAr?$AA?9?$AAs?$AAa@ 000000018002dc70     libucrt:lcidtoname_downlevel.obj
 0002:00007c80       ??_C@_1M@DMJDKLKM@?$AAa?$AAr?$AA?9?$AAs?$AAy@ 000000018002dc80     libucrt:lcidtoname_downlevel.obj
 0002:00007c90       ??_C@_1M@OMFIPEDC@?$AAa?$AAr?$AA?9?$AAt?$AAn@ 000000018002dc90     libucrt:lcidtoname_downlevel.obj
 0002:00007ca0       ??_C@_1M@IHMHGAON@?$AAa?$AAr?$AA?9?$AAy?$AAe@ 000000018002dca0     libucrt:lcidtoname_downlevel.obj
 0002:00007cb0       ??_C@_1BG@KDCPGJGB@?$AAa?$AAz?$AA?9?$AAa?$AAz?$AA?9?$AAc?$AAy?$AAr?$AAl@ 000000018002dcb0     libucrt:lcidtoname_downlevel.obj
 0002:00007cc8       ??_C@_1BG@IBCKDDOE@?$AAa?$AAz?$AA?9?$AAa?$AAz?$AA?9?$AAl?$AAa?$AAt?$AAn@ 000000018002dcc8     libucrt:lcidtoname_downlevel.obj
 0002:00007ce0       ??_C@_1M@EGPFDCPD@?$AAb?$AAe?$AA?9?$AAb?$AAy@ 000000018002dce0     libucrt:lcidtoname_downlevel.obj
 0002:00007cf0       ??_C@_1M@PCMGMCGC@?$AAb?$AAg?$AA?9?$AAb?$AAg@ 000000018002dcf0     libucrt:lcidtoname_downlevel.obj
 0002:00007d00       ??_C@_1M@BJBMFGOB@?$AAb?$AAn?$AA?9?$AAi?$AAn@ 000000018002dd00     libucrt:lcidtoname_downlevel.obj
 0002:00007d10       ??_C@_1BG@EAKMMACD@?$AAb?$AAs?$AA?9?$AAb?$AAa?$AA?9?$AAl?$AAa?$AAt?$AAn@ 000000018002dd10     libucrt:lcidtoname_downlevel.obj
 0002:00007d28       ??_C@_1M@KGADAODK@?$AAc?$AAa?$AA?9?$AAe?$AAs@ 000000018002dd28     libucrt:lcidtoname_downlevel.obj
 0002:00007d38       ??_C@_1M@COAJPDHI@?$AAc?$AAs?$AA?9?$AAc?$AAz@ 000000018002dd38     libucrt:lcidtoname_downlevel.obj
 0002:00007d48       ??_C@_1M@DHBHFONH@?$AAc?$AAy?$AA?9?$AAg?$AAb@ 000000018002dd48     libucrt:lcidtoname_downlevel.obj
 0002:00007d58       ??_C@_1M@IMGKELGA@?$AAd?$AAa?$AA?9?$AAd?$AAk@ 000000018002dd58     libucrt:lcidtoname_downlevel.obj
 0002:00007d68       ??_C@_1M@NNDGDNGA@?$AAd?$AAe?$AA?9?$AAa?$AAt@ 000000018002dd68     libucrt:lcidtoname_downlevel.obj
 0002:00007d78       ??_C@_1M@IKDBHEEM@?$AAd?$AAe?$AA?9?$AAc?$AAh@ 000000018002dd78     libucrt:lcidtoname_downlevel.obj
 0002:00007d88       ??_C@_1M@GFFOJMCJ@?$AAd?$AAe?$AA?9?$AAd?$AAe@ 000000018002dd88     libucrt:lcidtoname_downlevel.obj
 0002:00007d98       ??_C@_1M@MDNLKBPM@?$AAd?$AAe?$AA?9?$AAl?$AAi@ 000000018002dd98     libucrt:lcidtoname_downlevel.obj
 0002:00007da8       ??_C@_1M@NJBEEJNL@?$AAd?$AAe?$AA?9?$AAl?$AAu@ 000000018002dda8     libucrt:lcidtoname_downlevel.obj
 0002:00007db8       ??_C@_1O@GNNELBAP@?$AAd?$AAi?$AAv?$AA?9?$AAm?$AAv@ 000000018002ddb8     libucrt:lcidtoname_downlevel.obj
 0002:00007dc8       ??_C@_1M@EJLEOGAE@?$AAe?$AAl?$AA?9?$AAg?$AAr@ 000000018002ddc8     libucrt:lcidtoname_downlevel.obj
 0002:00007dd8       ??_C@_1M@GMPONJN@?$AAe?$AAn?$AA?9?$AAa?$AAu@ 000000018002ddd8     libucrt:lcidtoname_downlevel.obj
 0002:00007de8       ??_C@_1M@NIDIIPGF@?$AAe?$AAn?$AA?9?$AAb?$AAz@ 000000018002dde8     libucrt:lcidtoname_downlevel.obj
 0002:00007df8       ??_C@_1M@JEHMIMFO@?$AAe?$AAn?$AA?9?$AAc?$AAa@ 000000018002ddf8     libucrt:lcidtoname_downlevel.obj
 0002:00007e08       ??_C@_1M@IGMJCDLA@?$AAe?$AAn?$AA?9?$AAc?$AAb@ 000000018002de08     libucrt:lcidtoname_downlevel.obj
 0002:00007e18       ??_C@_1M@BNFIGBKG@?$AAe?$AAn?$AA?9?$AAg?$AAb@ 000000018002de18     libucrt:lcidtoname_downlevel.obj
 0002:00007e28       ??_C@_1M@LKIFDIGP@?$AAe?$AAn?$AA?9?$AAi?$AAe@ 000000018002de28     libucrt:lcidtoname_downlevel.obj
 0002:00007e38       ??_C@_1M@PJKFGCCO@?$AAe?$AAn?$AA?9?$AAj?$AAm@ 000000018002de38     libucrt:lcidtoname_downlevel.obj
 0002:00007e48       ??_C@_1M@KPPKEPBO@?$AAe?$AAn?$AA?9?$AAn?$AAz@ 000000018002de48     libucrt:lcidtoname_downlevel.obj
 0002:00007e58       ??_C@_1M@GMDGLDOB@?$AAe?$AAn?$AA?9?$AAp?$AAh@ 000000018002de58     libucrt:lcidtoname_downlevel.obj
 0002:00007e68       ??_C@_1M@ONGIBJNA@?$AAe?$AAn?$AA?9?$AAt?$AAt@ 000000018002de68     libucrt:lcidtoname_downlevel.obj
 0002:00007e78       ??_C@_1M@LLODPCMM@?$AAe?$AAn?$AA?9?$AAu?$AAs@ 000000018002de78     libucrt:lcidtoname_downlevel.obj
 0002:00007e88       ??_C@_1M@LAKFNPAN@?$AAe?$AAn?$AA?9?$AAz?$AAa@ 000000018002de88     libucrt:lcidtoname_downlevel.obj
 0002:00007e98       ??_C@_1M@MFNHNHEO@?$AAe?$AAn?$AA?9?$AAz?$AAw@ 000000018002de98     libucrt:lcidtoname_downlevel.obj
 0002:00007ea8       ??_C@_1M@EJEINPHM@?$AAe?$AAs?$AA?9?$AAa?$AAr@ 000000018002dea8     libucrt:lcidtoname_downlevel.obj
 0002:00007eb8       ??_C@_1M@GNKPCCJA@?$AAe?$AAs?$AA?9?$AAb?$AAo@ 000000018002deb8     libucrt:lcidtoname_downlevel.obj
 0002:00007ec8       ??_C@_1M@LEEGFONL@?$AAe?$AAs?$AA?9?$AAc?$AAl@ 000000018002dec8     libucrt:lcidtoname_downlevel.obj
 0002:00007ed8       ??_C@_1M@KGPDPBDF@?$AAe?$AAs?$AA?9?$AAc?$AAo@ 000000018002ded8     libucrt:lcidtoname_downlevel.obj
 0002:00007ee8       ??_C@_1M@EIAHOHH@?$AAe?$AAs?$AA?9?$AAc?$AAr@ 000000018002dee8     libucrt:lcidtoname_downlevel.obj
 0002:00007ef8       ??_C@_1M@LLPGMBIN@?$AAe?$AAs?$AA?9?$AAd?$AAo@ 000000018002def8     libucrt:lcidtoname_downlevel.obj
 0002:00007f08       ??_C@_1M@DKHMKNJA@?$AAe?$AAs?$AA?9?$AAe?$AAc@ 000000018002df08     libucrt:lcidtoname_downlevel.obj
 0002:00007f18       ??_C@_1M@GKGFPKAP@?$AAe?$AAs?$AA?9?$AAe?$AAs@ 000000018002df18     libucrt:lcidtoname_downlevel.obj
 0002:00007f28       ??_C@_1M@LKHKGDLN@?$AAe?$AAs?$AA?9?$AAg?$AAt@ 000000018002df28     libucrt:lcidtoname_downlevel.obj
 0002:00007f38       ??_C@_1M@HEIIGGJD@?$AAe?$AAs?$AA?9?$AAh?$AAn@ 000000018002df38     libucrt:lcidtoname_downlevel.obj
 0002:00007f48       ??_C@_1M@FBDHPPGD@?$AAe?$AAs?$AA?9?$AAm?$AAx@ 000000018002df48     libucrt:lcidtoname_downlevel.obj
 0002:00007f58       ??_C@_1M@DPAGLNDH@?$AAe?$AAs?$AA?9?$AAn?$AAi@ 000000018002df58     libucrt:lcidtoname_downlevel.obj
 0002:00007f68       ??_C@_1M@MDGOPGDD@?$AAe?$AAs?$AA?9?$AAp?$AAa@ 000000018002df68     libucrt:lcidtoname_downlevel.obj
 0002:00007f78       ??_C@_1M@EMAMGBGE@?$AAe?$AAs?$AA?9?$AAp?$AAe@ 000000018002df78     libucrt:lcidtoname_downlevel.obj
 0002:00007f88       ??_C@_1M@IBMCAOEC@?$AAe?$AAs?$AA?9?$AAp?$AAr@ 000000018002df88     libucrt:lcidtoname_downlevel.obj
 0002:00007f98       ??_C@_1M@FGMDIJED@?$AAe?$AAs?$AA?9?$AAp?$AAy@ 000000018002df98     libucrt:lcidtoname_downlevel.obj
 0002:00007fa8       ??_C@_1M@IIDEOLLL@?$AAe?$AAs?$AA?9?$AAs?$AAv@ 000000018002dfa8     libucrt:lcidtoname_downlevel.obj
 0002:00007fb8       ??_C@_1M@GAOBIPA@?$AAe?$AAs?$AA?9?$AAu?$AAy@ 000000018002dfb8     libucrt:lcidtoname_downlevel.obj
 0002:00007fc8       ??_C@_1M@JKFFICHJ@?$AAe?$AAs?$AA?9?$AAv?$AAe@ 000000018002dfc8     libucrt:lcidtoname_downlevel.obj
 0002:00007fd8       ??_C@_1M@PNMLOJDF@?$AAe?$AAt?$AA?9?$AAe?$AAe@ 000000018002dfd8     libucrt:lcidtoname_downlevel.obj
 0002:00007fe8       ??_C@_1M@GHHLIKEI@?$AAe?$AAu?$AA?9?$AAe?$AAs@ 000000018002dfe8     libucrt:lcidtoname_downlevel.obj
 0002:00007ff8       ??_C@_1M@PBNONODE@?$AAf?$AAa?$AA?9?$AAi?$AAr@ 000000018002dff8     libucrt:lcidtoname_downlevel.obj
 0002:00008008       ??_C@_1M@JEEHPMIL@?$AAf?$AAi?$AA?9?$AAf?$AAi@ 000000018002e008     libucrt:lcidtoname_downlevel.obj
 0002:00008018       ??_C@_1M@LMDCNDBA@?$AAf?$AAo?$AA?9?$AAf?$AAo@ 000000018002e018     libucrt:lcidtoname_downlevel.obj
 0002:00008028       ??_C@_1M@JKEOHLDK@?$AAf?$AAr?$AA?9?$AAb?$AAe@ 000000018002e028     libucrt:lcidtoname_downlevel.obj
 0002:00008038       ??_C@_1M@NOHADPMI@?$AAf?$AAr?$AA?9?$AAc?$AAa@ 000000018002e038     libucrt:lcidtoname_downlevel.obj
 0002:00008048       ??_C@_1M@KDHIHAEC@?$AAf?$AAr?$AA?9?$AAc?$AAh@ 000000018002e048     libucrt:lcidtoname_downlevel.obj
 0002:00008058       ??_C@_1M@MMBBFGAK@?$AAf?$AAr?$AA?9?$AAf?$AAr@ 000000018002e058     libucrt:lcidtoname_downlevel.obj
 0002:00008068       ??_C@_1M@PAFNENNF@?$AAf?$AAr?$AA?9?$AAl?$AAu@ 000000018002e068     libucrt:lcidtoname_downlevel.obj
 0002:00008078       ??_C@_1M@EOHDJGDD@?$AAf?$AAr?$AA?9?$AAm?$AAc@ 000000018002e078     libucrt:lcidtoname_downlevel.obj
 0002:00008088       ??_C@_1M@FAPLLOPF@?$AAg?$AAl?$AA?9?$AAe?$AAs@ 000000018002e088     libucrt:lcidtoname_downlevel.obj
 0002:00008098       ??_C@_1M@FOPBFLOO@?$AAg?$AAu?$AA?9?$AAi?$AAn@ 000000018002e098     libucrt:lcidtoname_downlevel.obj
 0002:000080a8       ??_C@_1M@KBMCINPM@?$AAh?$AAe?$AA?9?$AAi?$AAl@ 000000018002e0a8     libucrt:lcidtoname_downlevel.obj
 0002:000080b8       ??_C@_1M@BBPHKFPJ@?$AAh?$AAi?$AA?9?$AAi?$AAn@ 000000018002e0b8     libucrt:lcidtoname_downlevel.obj
 0002:000080c8       ??_C@_1M@PMBNDPHD@?$AAh?$AAr?$AA?9?$AAb?$AAa@ 000000018002e0c8     libucrt:lcidtoname_downlevel.obj
 0002:000080d8       ??_C@_1M@BPCKOEGE@?$AAh?$AAr?$AA?9?$AAh?$AAr@ 000000018002e0d8     libucrt:lcidtoname_downlevel.obj
 0002:000080e8       ??_C@_1M@GACBMHKE@?$AAh?$AAu?$AA?9?$AAh?$AAu@ 000000018002e0e8     libucrt:lcidtoname_downlevel.obj
 0002:000080f8       ??_C@_1M@MILPAJJC@?$AAh?$AAy?$AA?9?$AAa?$AAm@ 000000018002e0f8     libucrt:lcidtoname_downlevel.obj
 0002:00008108       ??_C@_1M@BABBICEC@?$AAi?$AAd?$AA?9?$AAi?$AAd@ 000000018002e108     libucrt:lcidtoname_downlevel.obj
 0002:00008118       ??_C@_1M@BIKNHHPF@?$AAi?$AAs?$AA?9?$AAi?$AAs@ 000000018002e118     libucrt:lcidtoname_downlevel.obj
 0002:00008128       ??_C@_1M@NMPCJPHE@?$AAi?$AAt?$AA?9?$AAc?$AAh@ 000000018002e128     libucrt:lcidtoname_downlevel.obj
 0002:00008138       ??_C@_1M@GHKGFEDF@?$AAi?$AAt?$AA?9?$AAi?$AAt@ 000000018002e138     libucrt:lcidtoname_downlevel.obj
 0002:00008148       ??_C@_1M@NIEJCJJA@?$AAj?$AAa?$AA?9?$AAj?$AAp@ 000000018002e148     libucrt:lcidtoname_downlevel.obj
 0002:00008158       ??_C@_1M@JILFNBIM@?$AAk?$AAa?$AA?9?$AAg?$AAe@ 000000018002e158     libucrt:lcidtoname_downlevel.obj
 0002:00008168       ??_C@_1M@PACPMGPH@?$AAk?$AAk?$AA?9?$AAk?$AAz@ 000000018002e168     libucrt:lcidtoname_downlevel.obj
 0002:00008178       ??_C@_1M@IELFGMHA@?$AAk?$AAn?$AA?9?$AAi?$AAn@ 000000018002e178     libucrt:lcidtoname_downlevel.obj
 0002:00008188       ??_C@_1O@IBBJHCH@?$AAk?$AAo?$AAk?$AA?9?$AAi?$AAn@ 000000018002e188     libucrt:lcidtoname_downlevel.obj
 0002:00008198       ??_C@_1M@DMHAEOGC@?$AAk?$AAo?$AA?9?$AAk?$AAr@ 000000018002e198     libucrt:lcidtoname_downlevel.obj
 0002:000081a8       ??_C@_1M@HBAHBIGA@?$AAk?$AAy?$AA?9?$AAk?$AAg@ 000000018002e1a8     libucrt:lcidtoname_downlevel.obj
 0002:000081b8       ??_C@_1M@KPMILCJG@?$AAl?$AAt?$AA?9?$AAl?$AAt@ 000000018002e1b8     libucrt:lcidtoname_downlevel.obj
 0002:000081c8       ??_C@_1M@BDEKKCA@?$AAl?$AAv?$AA?9?$AAl?$AAv@ 000000018002e1c8     libucrt:lcidtoname_downlevel.obj
 0002:000081d8       ??_C@_1M@ELCKCCJJ@?$AAm?$AAi?$AA?9?$AAn?$AAz@ 000000018002e1d8     libucrt:lcidtoname_downlevel.obj
 0002:000081e8       ??_C@_1M@CBOOLAPA@?$AAm?$AAk?$AA?9?$AAm?$AAk@ 000000018002e1e8     libucrt:lcidtoname_downlevel.obj
 0002:000081f8       ??_C@_1M@GPHNBJKN@?$AAm?$AAl?$AA?9?$AAi?$AAn@ 000000018002e1f8     libucrt:lcidtoname_downlevel.obj
 0002:00008208       ??_C@_1M@PABJILIG@?$AAm?$AAn?$AA?9?$AAm?$AAn@ 000000018002e208     libucrt:lcidtoname_downlevel.obj
 0002:00008218       ??_C@_1M@FGBKKIPG@?$AAm?$AAr?$AA?9?$AAi?$AAn@ 000000018002e218     libucrt:lcidtoname_downlevel.obj
 0002:00008228       ??_C@_1M@NDBPDDAL@?$AAm?$AAs?$AA?9?$AAb?$AAn@ 000000018002e228     libucrt:lcidtoname_downlevel.obj
 0002:00008238       ??_C@_1M@OPIHOOPI@?$AAm?$AAs?$AA?9?$AAm?$AAy@ 000000018002e238     libucrt:lcidtoname_downlevel.obj
 0002:00008248       ??_C@_1M@PPDBCNFM@?$AAm?$AAt?$AA?9?$AAm?$AAt@ 000000018002e248     libucrt:lcidtoname_downlevel.obj
 0002:00008258       ??_C@_1M@KDJDKMDD@?$AAn?$AAb?$AA?9?$AAn?$AAo@ 000000018002e258     libucrt:lcidtoname_downlevel.obj
 0002:00008268       ??_C@_1M@KFCFLMJP@?$AAn?$AAl?$AA?9?$AAb?$AAe@ 000000018002e268     libucrt:lcidtoname_downlevel.obj
 0002:00008278       ??_C@_1M@KPOPDDGO@?$AAn?$AAl?$AA?9?$AAn?$AAl@ 000000018002e278     libucrt:lcidtoname_downlevel.obj
 0002:00008288       ??_C@_1M@LJKPEMLN@?$AAn?$AAn?$AA?9?$AAn?$AAo@ 000000018002e288     libucrt:lcidtoname_downlevel.obj
 0002:00008298       ??_C@_1M@BDGHHBFL@?$AAn?$AAs?$AA?9?$AAz?$AAa@ 000000018002e298     libucrt:lcidtoname_downlevel.obj
 0002:000082a8       ??_C@_1M@IDEHOAP@?$AAp?$AAa?$AA?9?$AAi?$AAn@ 000000018002e2a8     libucrt:lcidtoname_downlevel.obj
 0002:000082b8       ??_C@_1M@HDBKGOGH@?$AAp?$AAl?$AA?9?$AAp?$AAl@ 000000018002e2b8     libucrt:lcidtoname_downlevel.obj
 0002:000082c8       ??_C@_1M@LJLLCMEH@?$AAp?$AAt?$AA?9?$AAb?$AAr@ 000000018002e2c8     libucrt:lcidtoname_downlevel.obj
 0002:000082d8       ??_C@_1M@NCMONAAL@?$AAp?$AAt?$AA?9?$AAp?$AAt@ 000000018002e2d8     libucrt:lcidtoname_downlevel.obj
 0002:000082e8       ??_C@_1O@EAKMAJDN@?$AAq?$AAu?$AAz?$AA?9?$AAb?$AAo@ 000000018002e2e8     libucrt:lcidtoname_downlevel.obj
 0002:000082f8       ??_C@_1O@BHHPIGDN@?$AAq?$AAu?$AAz?$AA?9?$AAe?$AAc@ 000000018002e2f8     libucrt:lcidtoname_downlevel.obj
 0002:00008308       ??_C@_1O@GBAPEKMJ@?$AAq?$AAu?$AAz?$AA?9?$AAp?$AAe@ 000000018002e308     libucrt:lcidtoname_downlevel.obj
 0002:00008318       ??_C@_1M@CLGLEFBO@?$AAr?$AAo?$AA?9?$AAr?$AAo@ 000000018002e318     libucrt:lcidtoname_downlevel.obj
 0002:00008328       ??_C@_1M@CEEDODME@?$AAr?$AAu?$AA?9?$AAr?$AAu@ 000000018002e328     libucrt:lcidtoname_downlevel.obj
 0002:00008338       ??_C@_1M@HPKKKMPP@?$AAs?$AAa?$AA?9?$AAi?$AAn@ 000000018002e338     libucrt:lcidtoname_downlevel.obj
 0002:00008348       ??_C@_1M@BKMAIGOJ@?$AAs?$AAe?$AA?9?$AAf?$AAi@ 000000018002e348     libucrt:lcidtoname_downlevel.obj
 0002:00008358       ??_C@_1M@NDPIFLFI@?$AAs?$AAe?$AA?9?$AAn?$AAo@ 000000018002e358     libucrt:lcidtoname_downlevel.obj
 0002:00008368       ??_C@_1M@DANKKHJ@?$AAs?$AAe?$AA?9?$AAs?$AAe@ 000000018002e368     libucrt:lcidtoname_downlevel.obj
 0002:00008378       ??_C@_1M@PNBLONPJ@?$AAs?$AAk?$AA?9?$AAs?$AAk@ 000000018002e378     libucrt:lcidtoname_downlevel.obj
 0002:00008388       ??_C@_1M@LFMODOAL@?$AAs?$AAl?$AA?9?$AAs?$AAi@ 000000018002e388     libucrt:lcidtoname_downlevel.obj
 0002:00008398       ??_C@_1O@DFKOMPG@?$AAs?$AAm?$AAa?$AA?9?$AAn?$AAo@ 000000018002e398     libucrt:lcidtoname_downlevel.obj
 0002:000083a8       ??_C@_1O@NDKPBNNH@?$AAs?$AAm?$AAa?$AA?9?$AAs?$AAe@ 000000018002e3a8     libucrt:lcidtoname_downlevel.obj
 0002:000083b8       ??_C@_1O@PLLKBHAB@?$AAs?$AAm?$AAj?$AA?9?$AAn?$AAo@ 000000018002e3b8     libucrt:lcidtoname_downlevel.obj
 0002:000083c8       ??_C@_1O@CLEPOGCA@?$AAs?$AAm?$AAj?$AA?9?$AAs?$AAe@ 000000018002e3c8     libucrt:lcidtoname_downlevel.obj
 0002:000083d8       ??_C@_1O@DLGJGKMK@?$AAs?$AAm?$AAn?$AA?9?$AAf?$AAi@ 000000018002e3d8     libucrt:lcidtoname_downlevel.obj
 0002:000083e8       ??_C@_1O@OJDJGAJC@?$AAs?$AAm?$AAs?$AA?9?$AAf?$AAi@ 000000018002e3e8     libucrt:lcidtoname_downlevel.obj
 0002:000083f8       ??_C@_1M@BOFOGHPB@?$AAs?$AAq?$AA?9?$AAa?$AAl@ 000000018002e3f8     libucrt:lcidtoname_downlevel.obj
 0002:00008408       ??_C@_1BG@LJBBIPGB@?$AAs?$AAr?$AA?9?$AAb?$AAa?$AA?9?$AAc?$AAy?$AAr?$AAl@ 000000018002e408     libucrt:lcidtoname_downlevel.obj
 0002:00008420       ??_C@_1BG@JLBENFOE@?$AAs?$AAr?$AA?9?$AAb?$AAa?$AA?9?$AAl?$AAa?$AAt?$AAn@ 000000018002e420     libucrt:lcidtoname_downlevel.obj
 0002:00008438       ??_C@_1BG@KODPNHE@?$AAs?$AAr?$AA?9?$AAs?$AAp?$AA?9?$AAc?$AAy?$AAr?$AAl@ 000000018002e438     libucrt:lcidtoname_downlevel.obj
 0002:00008450       ??_C@_1BG@CIOGKHPB@?$AAs?$AAr?$AA?9?$AAs?$AAp?$AA?9?$AAl?$AAa?$AAt?$AAn@ 000000018002e450     libucrt:lcidtoname_downlevel.obj
 0002:00008468       ??_C@_1M@NGFJLMAC@?$AAs?$AAv?$AA?9?$AAf?$AAi@ 000000018002e468     libucrt:lcidtoname_downlevel.obj
 0002:00008478       ??_C@_1M@MPJEJAJC@?$AAs?$AAv?$AA?9?$AAs?$AAe@ 000000018002e478     libucrt:lcidtoname_downlevel.obj
 0002:00008488       ??_C@_1M@MPNDHLFK@?$AAs?$AAw?$AA?9?$AAk?$AAe@ 000000018002e488     libucrt:lcidtoname_downlevel.obj
 0002:00008498       ??_C@_1O@KOHBJJI@?$AAs?$AAy?$AAr?$AA?9?$AAs?$AAy@ 000000018002e498     libucrt:lcidtoname_downlevel.obj
 0002:000084a8       ??_C@_1M@LDCEFHA@?$AAt?$AAa?$AA?9?$AAi?$AAn@ 000000018002e4a8     libucrt:lcidtoname_downlevel.obj
 0002:000084b8       ??_C@_1M@CNJOFAK@?$AAt?$AAe?$AA?9?$AAi?$AAn@ 000000018002e4b8     libucrt:lcidtoname_downlevel.obj
 0002:000084c8       ??_C@_1M@GNAECACD@?$AAt?$AAh?$AA?9?$AAt?$AAh@ 000000018002e4c8     libucrt:lcidtoname_downlevel.obj
 0002:000084d8       ??_C@_1M@CHBIHOJO@?$AAt?$AAn?$AA?9?$AAz?$AAa@ 000000018002e4d8     libucrt:lcidtoname_downlevel.obj
 0002:000084e8       ??_C@_1M@GCCMIGPJ@?$AAt?$AAr?$AA?9?$AAt?$AAr@ 000000018002e4e8     libucrt:lcidtoname_downlevel.obj
 0002:000084f8       ??_C@_1M@CELMCNBK@?$AAt?$AAt?$AA?9?$AAr?$AAu@ 000000018002e4f8     libucrt:lcidtoname_downlevel.obj
 0002:00008508       ??_C@_1M@KLMCELGA@?$AAu?$AAk?$AA?9?$AAu?$AAa@ 000000018002e508     libucrt:lcidtoname_downlevel.obj
 0002:00008518       ??_C@_1M@EPAJJAJF@?$AAu?$AAr?$AA?9?$AAp?$AAk@ 000000018002e518     libucrt:lcidtoname_downlevel.obj
 0002:00008528       ??_C@_1BG@GEGPMCDJ@?$AAu?$AAz?$AA?9?$AAu?$AAz?$AA?9?$AAc?$AAy?$AAr?$AAl@ 000000018002e528     libucrt:lcidtoname_downlevel.obj
 0002:00008540       ??_C@_1BG@EGGKJILM@?$AAu?$AAz?$AA?9?$AAu?$AAz?$AA?9?$AAl?$AAa?$AAt?$AAn@ 000000018002e540     libucrt:lcidtoname_downlevel.obj
 0002:00008558       ??_C@_1M@GFOCLFF@?$AAv?$AAi?$AA?9?$AAv?$AAn@ 000000018002e558     libucrt:lcidtoname_downlevel.obj
 0002:00008568       ??_C@_1M@CPAMEDFI@?$AAx?$AAh?$AA?9?$AAz?$AAa@ 000000018002e568     libucrt:lcidtoname_downlevel.obj
 0002:00008578       ??_C@_1O@EBKIFIGN@?$AAz?$AAh?$AA?9?$AAc?$AAh?$AAs@ 000000018002e578     libucrt:lcidtoname_downlevel.obj
 0002:00008588       ??_C@_1O@NMHPGANE@?$AAz?$AAh?$AA?9?$AAc?$AAh?$AAt@ 000000018002e588     libucrt:lcidtoname_downlevel.obj
 0002:00008598       ??_C@_1M@LPINJOMC@?$AAz?$AAh?$AA?9?$AAc?$AAn@ 000000018002e598     libucrt:lcidtoname_downlevel.obj
 0002:000085a8       ??_C@_1M@OCJEJODD@?$AAz?$AAh?$AA?9?$AAh?$AAk@ 000000018002e5a8     libucrt:lcidtoname_downlevel.obj
 0002:000085b8       ??_C@_1M@DNDLJINH@?$AAz?$AAh?$AA?9?$AAm?$AAo@ 000000018002e5b8     libucrt:lcidtoname_downlevel.obj
 0002:000085c8       ??_C@_1M@MBFDNDND@?$AAz?$AAh?$AA?9?$AAs?$AAg@ 000000018002e5c8     libucrt:lcidtoname_downlevel.obj
 0002:000085d8       ??_C@_1M@IMEPLEPE@?$AAz?$AAh?$AA?9?$AAt?$AAw@ 000000018002e5d8     libucrt:lcidtoname_downlevel.obj
 0002:000085e8       ??_C@_1M@BBGHNHJP@?$AAz?$AAu?$AA?9?$AAz?$AAa@ 000000018002e5e8     libucrt:lcidtoname_downlevel.obj
 0002:00008600       ?large_power_data@?1??multiply_by_power_of_ten@__crt_strtox@@YA_NAEAUbig_integer@2@I@Z@4QBIB 000000018002e600     libucrt:cfout.obj
 0002:00008f10       ?large_power_indices@?1??multiply_by_power_of_ten@__crt_strtox@@YA_NAEAUbig_integer@2@I@Z@4QBUunpack_index@?1??12@YA_N0I@Z@B 000000018002ef10     libucrt:cfout.obj
 0002:00008fa8       ?small_powers_of_ten@?1??multiply_by_power_of_ten@__crt_strtox@@YA_NAEAUbig_integer@2@I@Z@4QBIB 000000018002efa8     libucrt:cfout.obj
 0002:00008fcc       ??_C@_01GBGANLPD@0@        000000018002efcc     libucrt:cfout.obj
 0002:00008fd0       ??_C@_05DNEBIAHO@1?$CDINF@ 000000018002efd0     libucrt:cfout.obj
 0002:00008fd8       ??_C@_06IMKFLFPG@1?$CDQNAN@ 000000018002efd8     libucrt:cfout.obj
 0002:00008fe0       ??_C@_06PGGFOGJG@1?$CDSNAN@ 000000018002efe0     libucrt:cfout.obj
 0002:00008fe8       ??_C@_05PHHOCPM@1?$CDIND@  000000018002efe8     libucrt:cfout.obj
 0002:00009018       __real@3ff0000000000000    000000018002f018     libucrt:ceil.obj
 0002:00009270       __log10_256_lead           000000018002f270     libucrt:log10_256_lead_tail_table.obj
 0002:00009a80       __log10_256_tail           000000018002fa80     libucrt:log10_256_lead_tail_table.obj
 0002:0000a290       __log_F_inv_qword          0000000180030290     libucrt:log_f_inv_qword_table.obj
 0002:0000aaa0       ??_C@_05HGHHAHAP@log10@    0000000180030aa0     libucrt:log_special.obj
 0002:0000aaa8       ??_C@_1BA@BALFACEM@?$AAC?$AAO?$AAN?$AAO?$AAU?$AAT?$AA$@ 0000000180030aa8     libucrt:initcon.obj
 0002:0000ab30       _load_config_used          0000000180030b30     LIBCMT:loadcfg.obj
 0002:0000ac80       _tls_used                  0000000180030c80     LIBCMT:tlssup.obj
 0002:0000aca8       ??_R4exception@std@@6B@    0000000180030ca8     LIBCMT:throw_bad_alloc.obj
 0002:0000acd0       ??_R3exception@std@@8      0000000180030cd0     LIBCMT:throw_bad_alloc.obj
 0002:0000ace8       ??_R2exception@std@@8      0000000180030ce8     LIBCMT:throw_bad_alloc.obj
 0002:0000acf8       ??_R1A@?0A@EA@exception@std@@8 0000000180030cf8     LIBCMT:throw_bad_alloc.obj
 0002:0000ad20       ??_R4bad_alloc@std@@6B@    0000000180030d20     LIBCMT:throw_bad_alloc.obj
 0002:0000ad48       ??_R3bad_alloc@std@@8      0000000180030d48     LIBCMT:throw_bad_alloc.obj
 0002:0000ad60       ??_R2bad_alloc@std@@8      0000000180030d60     LIBCMT:throw_bad_alloc.obj
 0002:0000ad78       ??_R1A@?0A@EA@bad_alloc@std@@8 0000000180030d78     LIBCMT:throw_bad_alloc.obj
 0002:0000ada0       ??_R4bad_array_new_length@std@@6B@ 0000000180030da0     LIBCMT:throw_bad_alloc.obj
 0002:0000adc8       ??_R3bad_array_new_length@std@@8 0000000180030dc8     LIBCMT:throw_bad_alloc.obj
 0002:0000ade0       ??_R2bad_array_new_length@std@@8 0000000180030de0     LIBCMT:throw_bad_alloc.obj
 0002:0000ae00       ??_R1A@?0A@EA@bad_array_new_length@std@@8 0000000180030e00     LIBCMT:throw_bad_alloc.obj
 0002:0000ae28       ??_R4type_info@@6B@        0000000180030e28     LIBCMT:std_type_info_static.obj
 0002:0000ae50       ??_R3type_info@@8          0000000180030e50     LIBCMT:std_type_info_static.obj
 0002:0000ae68       ??_R2type_info@@8          0000000180030e68     LIBCMT:std_type_info_static.obj
 0002:0000ae78       ??_R1A@?0A@EA@type_info@@8 0000000180030e78     LIBCMT:std_type_info_static.obj
 0002:0000aea0       ??_R4bad_exception@std@@6B@ 0000000180030ea0     libvcruntime:frame.obj
 0002:0000aec8       ??_R3bad_exception@std@@8  0000000180030ec8     libvcruntime:frame.obj
 0002:0000aee0       ??_R2bad_exception@std@@8  0000000180030ee0     libvcruntime:frame.obj
 0002:0000aef8       ??_R1A@?0A@EA@bad_exception@std@@8 0000000180030ef8     libvcruntime:frame.obj
 0002:0000af1c       __volatile_metadata        0000000180030f1c     <linker-defined>
 0002:0000b3a0       __rtc_iaa                  00000001800313a0     LIBCMT:initsect.obj
 0002:0000b3a8       __rtc_izz                  00000001800313a8     LIBCMT:initsect.obj
 0002:0000b3b0       __rtc_taa                  00000001800313b0     LIBCMT:initsect.obj
 0002:0000b3b8       __rtc_tzz                  00000001800313b8     LIBCMT:initsect.obj
 0002:0000b3c0       _tls_start                 00000001800313c0     LIBCMT:tlssup.obj
 0002:0000b3c4       _Init_thread_epoch         00000001800313c4     LIBCMT:thread_safe_statics.obj
 0002:0000b3c8       _tls_end                   00000001800313c8     LIBCMT:tlssup.obj
 0002:0000cd08       _TI2?AVbad_alloc@std@@     0000000180032d08     LIBCMT:throw_bad_alloc.obj
 0002:0000cd28       _CTA2?AVbad_alloc@std@@    0000000180032d28     LIBCMT:throw_bad_alloc.obj
 0002:0000cd40       _CT??_R0?AVbad_alloc@std@@@8??0bad_alloc@std@@QEAA@AEBV01@@Z24 0000000180032d40     LIBCMT:throw_bad_alloc.obj
 0002:0000cd68       _CT??_R0?AVexception@std@@@8??0exception@std@@QEAA@AEBV01@@Z24 0000000180032d68     LIBCMT:throw_bad_alloc.obj
 0002:0000cd90       _TI3?AVbad_array_new_length@std@@ 0000000180032d90     LIBCMT:throw_bad_alloc.obj
 0002:0000cdb0       _CTA3?AVbad_array_new_length@std@@ 0000000180032db0     LIBCMT:throw_bad_alloc.obj
 0002:0000cdd0       _CT??_R0?AVbad_array_new_length@std@@@8??0bad_array_new_length@std@@QEAA@AEBV01@@Z24 0000000180032dd0     LIBCMT:throw_bad_alloc.obj
 0002:0000cdf8       _TI2?AVbad_exception@std@@ 0000000180032df8     libvcruntime:frame.obj
 0002:0000ce18       _CTA2?AVbad_exception@std@@ 0000000180032e18     libvcruntime:frame.obj
 0002:0000ce30       _CT??_R0?AVbad_exception@std@@@8??0bad_exception@std@@QEAA@AEBV01@@Z24 0000000180032e30     libvcruntime:frame.obj
 0002:0000ce58       __pobjMapEntryFirst        0000000180032e58     OposVariant.obj
 0002:0000ce60       __pobjMapEntryLast         0000000180032e60     OposVariant.obj
 0002:0000cf20       __IMPORT_DESCRIPTOR_KERNEL32 0000000180032f20     kernel32:KERNEL32.dll
 0002:0000cf34       __IMPORT_DESCRIPTOR_USER32 0000000180032f34     user32:USER32.dll
 0002:0000cf48       __IMPORT_DESCRIPTOR_GDI32  0000000180032f48     gdi32:GDI32.dll
 0002:0000cf5c       __IMPORT_DESCRIPTOR_ADVAPI32 0000000180032f5c     advapi32:ADVAPI32.dll
 0002:0000cf70       __IMPORT_DESCRIPTOR_ole32  0000000180032f70     ole32:ole32.dll
 0002:0000cf84       __IMPORT_DESCRIPTOR_OLEAUT32 0000000180032f84     oleaut32:OLEAUT32.dll
 0002:0000cf98       __NULL_IMPORT_DESCRIPTOR   0000000180032f98     kernel32:KERNEL32.dll
 0003:00000000       ?rcDefault@CWindow@ATL@@2UtagRECT@@A 0000000180035000     GraphicDisplay.obj
 0003:00000010       ?s_Claim@?7??GetIDsOfNames@CComTypeInfoHolder@ATL@@QEAAJAEBU_GUID@@PEAPEA_WIKPEAJ@Z@4PA_WA 0000000180035010     GraphicDisplay.obj
 0003:00000028       ?s_Release@?7??GetIDsOfNames@CComTypeInfoHolder@ATL@@QEAAJAEBU_GUID@@PEAPEA_WIKPEAJ@Z@4PA_WA 0000000180035028     GraphicDisplay.obj
 0003:00000048       ?_tih@?$IDispatchImpl@UIOPOSGraphicDisplay@@$1?IID_IOPOSGraphicDisplay@@3U_GUID@@B$1?LIBID_OposGraphicDisplay_CCO@@3U3@B$00$0A@VCComTypeInfoHolder@ATL@@@ATL@@1VCComTypeInfoHolder@2@A 0000000180035048     GraphicDisplay.obj
 0003:00000080       ?_tih@?$IProvideClassInfo2Impl@$1?CLSID_OPOSGraphicDisplay@@3U_GUID@@B$1?DIID__IOPOSGraphicDisplayEvents@@3U2@B$1?LIBID_OposGraphicDisplay_CCO@@3U2@B$00$0A@VCComTypeInfoHolder@ATL@@@ATL@@1VCComTypeInfoHolder@2@A 0000000180035080     GraphicDisplay.obj
 0003:000000b8       ?vszContents@?6??Save@?$IPersistStorageImpl@VCOPOSGraphicDisplay@@@ATL@@UEAAJPEAUIStorage@@H@Z@4PEB_WEB 00000001800350b8     GraphicDisplay.obj
 0003:000000c0       ?wc@?1??GetWndClassInfo@?$CWindowImpl@VCOPOSGraphicDisplay@@VCWindow@ATL@@V?$CWinTraits@$0FGAAAAAA@$0A@@3@@ATL@@SAAEAU_ATL_WNDCLASSINFOW@3@XZ@4U43@A 00000001800350c0     GraphicDisplay.obj
 0003:00000250       ?g_WindowName@@3PA_WA      0000000180035250     GraphicDisplayImpl.obj
 0003:0000027c       ?g_ControlVersion@@3JA     000000018003527c     GraphicDisplayImpl.obj
 0003:00000280       ?g_ControlDescription@@3PADA 0000000180035280     GraphicDisplayImpl.obj
 0003:00000394       __scrt_native_dllmain_reason 0000000180035394     LIBCMT:utility.obj
 0003:00000398       _Init_global_epoch         0000000180035398     LIBCMT:thread_safe_statics.obj
 0003:000003a0       __security_cookie          00000001800353a0     LIBCMT:gs_cookie.obj
 0003:000003a8       __security_cookie_complement 00000001800353a8     LIBCMT:gs_cookie.obj
 0003:000003b0       __isa_available            00000001800353b0     LIBCMT:cpu_disp.obj
 0003:000003b4       __isa_enabled              00000001800353b4     LIBCMT:cpu_disp.obj
 0003:000003b8       __memcpy_nt_iters          00000001800353b8     LIBCMT:cpu_disp.obj
 0003:000003c0       __memset_nt_iters          00000001800353c0     LIBCMT:cpu_disp.obj
 0003:000003e8       __abort_behavior           00000001800353e8     libucrt:abort.obj
 0003:00000400       __acrt_initial_locale_data 0000000180035400     libucrt:nlsdata.obj
 0003:00000558       __acrt_initial_locale_pointers 0000000180035558     libucrt:nlsdata.obj
 0003:00000568       __acrt_wide_c_locale_string 0000000180035568     libucrt:nlsdata.obj
 0003:00000570       _iob                       0000000180035570     libucrt:_file.obj
 0003:00000680       __acrt_initial_multibyte_data 0000000180035680     libucrt:mbctype.obj
 0003:00000bc0       __acrt_lconv_c             0000000180035bc0     libucrt:localeconv.obj
 0003:00000c58       __acrt_lconv_static_decimal 0000000180035c58     libucrt:localeconv.obj
 0003:00000c5c       __acrt_lconv_static_W_decimal 0000000180035c5c     libucrt:localeconv.obj
 0003:00000c60       __globallocalestatus       0000000180035c60     libucrt:glstatus.obj
 0003:00000c70       _lookuptrailbytes          0000000180035c70     libucrt:read.obj
 0003:00000d94       _fltused                   0000000180035d94     LIBCMT:fltused.obj
 0003:00000d98       ??_R0?AVbad_alloc@std@@@8  0000000180035d98     LIBCMT:throw_bad_alloc.obj
 0003:00000dc0       ??_R0?AVexception@std@@@8  0000000180035dc0     LIBCMT:throw_bad_alloc.obj
 0003:00000de8       ??_R0?AVbad_array_new_length@std@@@8 0000000180035de8     LIBCMT:throw_bad_alloc.obj
 0003:00000e18       ??_R0?AVbad_exception@std@@@8 0000000180035e18     libvcruntime:frame.obj
 0003:00000e40       ??_R0?AVtype_info@@@8      0000000180035e40     LIBCMT:std_type_info_static.obj
 0003:00000e60       ?m_bInitFailed@CAtlBaseModule@ATL@@2_NA 0000000180035e60     OposVariant.obj
 0003:00000e68       ?_pPerfRegFunc@ATL@@3P6AJPEAUHINSTANCE__@@@ZEA 0000000180035e68     OposVariant.obj
 0003:00000e70       ?_pPerfUnRegFunc@ATL@@3P6AJXZEA 0000000180035e70     OposVariant.obj
 0003:00000e78       ?_AtlRegisterPerUser@ATL@@3_NA 0000000180035e78     OposVariant.obj
 0003:00000e80       ?_pAtlModule@ATL@@3PEAVCAtlModule@1@EA 0000000180035e80     OposVariant.obj
 0003:00000e88       ?_pModule@ATL@@3PEAVCComModule@1@EA 0000000180035e88     OposVariant.obj
 0003:00000e90       ?_AtlComModule@ATL@@3VCAtlComModule@1@A 0000000180035e90     OposVariant.obj
 0003:00000ee0       ?_AtlWinModule@ATL@@3VCAtlWinModule@1@A 0000000180035ee0     OposVariant.obj
 0003:00000f28       ?m_libid@CAtlModule@ATL@@2U_GUID@@A 0000000180035f28     GraphicDisplay.obj
 0003:00000f38       ?_entries@?1??GetConnMap@COPOSGraphicDisplay@@SAPEBU_ATL_CONNMAP_ENTRY@ATL@@PEAH@Z@4QBU34@B 0000000180035f38     GraphicDisplay.obj
 0003:00000f50       ?$TSS0@?1??GetConnMap@COPOSGraphicDisplay@@SAPEBU_ATL_CONNMAP_ENTRY@ATL@@PEAH@Z@4HA 0000000180035f50     GraphicDisplay.obj
 0003:00000f58       ?_OptionsStorage@?1??__local_stdio_printf_options@@9@4_KA 0000000180035f58     GraphicDisplay.obj
 0003:00000f60       ?pfnRegDeleteKeyEx@?1??DeleteSubKey@CRegKey@ATL@@QEAAJPEB_W@Z@4P6AJPEAUHKEY__@@0KK@ZEA 0000000180035f60     GraphicDisplay.obj
 0003:00000f68       ?bInitialized@?1??DeleteSubKey@CRegKey@ATL@@QEAAJPEB_W@Z@4_NA 0000000180035f68     GraphicDisplay.obj
 0003:00000f70       ?_Module@@3VCComModule@ATL@@A 0000000180035f70     GraphicDisplay.obj
 0003:00000fc0       ?pConnMap@?$IConnectionPointContainerImpl@VCOPOSGraphicDisplay@@@ATL@@0PEBU_ATL_CONNMAP_ENTRY@2@EB 0000000180035fc0     GraphicDisplay.obj
 0003:00000fc8       ?s_nInstances@COPOSGraphicDisplay@@1HA 0000000180035fc8     GraphicDisplayImpl.obj
 0003:00000fd0       __scrt_current_native_startup_state 0000000180035fd0     LIBCMT:utility.obj
 0003:00000fd8       __scrt_native_startup_lock 0000000180035fd8     LIBCMT:utility.obj
 0003:000015d0       _tls_index                 00000001800365d0     LIBCMT:tlssup.obj
 0003:000015d8       __favor                    00000001800365d8     LIBCMT:cpu_disp.obj
 0003:000015dc       __scrt_debugger_hook_flag  00000001800365dc     LIBCMT:utility_desktop.obj
 0003:000015e0       ?__type_info_root_node@@3U__type_info_node@@A 00000001800365e0     LIBCMT:tncleanup.obj
 0003:000015f0       ?_OptionsStorage@?1??__local_stdio_scanf_options@@9@4_KA 00000001800365f0     LIBCMT:default_local_stdio_options.obj
 0003:00001600       ?_AtlBaseModule@ATL@@3VCAtlBaseModule@1@A 0000000180036600     atls:atlbase.obj
 0003:00001660       ?__AtlThunkPool@@3PEAT_SLIST_HEADER@@EA 0000000180036660     atls:atlthunk.obj
 0003:0000168c       __@@_PchSym_@00@UzABUPdlipUEJUhUrmgvinvwrzgvUexgllohUzgohOmzgrevkilqPBACIAJCBDBUlyqiUznwGEUhgwzucOlyq@4B2008FD98C1DD4 000000018003668c     atls:stdafx.obj
 0003:00001690       ?__WinRTOutOfMemoryExceptionCallback@@3P6APEAXXZEA 0000000180036690     libvcruntime:ehhelpers.obj
 0003:00001698       __pPurecall                0000000180036698     libvcruntime:purevirt_data.obj
 0003:00001750       ?pArgList@UnDecorator@@0PEAVReplicator@@EA 0000000180036750     libvcruntime:undname.obj
 0003:00001758       ?pZNameList@UnDecorator@@0PEAVReplicator@@EA 0000000180036758     libvcruntime:undname.obj
 0003:00001760       ?pTemplateArgList@UnDecorator@@0PEAVReplicator@@EA 0000000180036760     libvcruntime:undname.obj
 0003:00001768       ?gName@UnDecorator@@0PEBDEB 0000000180036768     libvcruntime:undname.obj
 0003:00001770       ?name@UnDecorator@@0PEBDEB 0000000180036770     libvcruntime:undname.obj
 0003:00001778       ?disableFlags@UnDecorator@@0KA 0000000180036778     libvcruntime:undname.obj
 0003:0000177c       ?fExplicitTemplateParams@UnDecorator@@0_NA 000000018003677c     libvcruntime:undname.obj
 0003:0000177d       ?fGetTemplateArgumentList@UnDecorator@@0_NA 000000018003677d     libvcruntime:undname.obj
 0003:00001780       ?m_pGetParameter@UnDecorator@@0P6APEADJ@ZEA 0000000180036780     libvcruntime:undname.obj
 0003:00001788       ?m_CHPENameOffset@UnDecorator@@0KA 0000000180036788     libvcruntime:undname.obj
 0003:0000178c       ?m_recursionLevel@UnDecorator@@0KA 000000018003678c     libvcruntime:undname.obj
 0003:00001810       ?c_exit_complete@?1???R<lambda_6e4b09c48022b2350581041d5f6b0c4c>@@QEBA@XZ@4_NA 0000000180036810     libucrt:exit.obj
 0003:00001928       _environ_table             0000000180036928     libucrt:environment_initialization.obj
 0003:00001930       _wenviron_table            0000000180036930     libucrt:environment_initialization.obj
 0003:00001938       __dcrt_initial_wide_environment 0000000180036938     libucrt:environment_initialization.obj
 0003:00001940       __dcrt_initial_narrow_environment 0000000180036940     libucrt:environment_initialization.obj
 0003:00001948       __acrt_atexit_table        0000000180036948     libucrt:onexit.obj
 0003:00001960       __acrt_at_quick_exit_table 0000000180036960     libucrt:onexit.obj
 0003:00001980       __acrt_locale_changed_data 0000000180036980     libucrt:wsetlocale.obj
 0003:00001988       __acrt_current_locale_data 0000000180036988     libucrt:nlsdata.obj
 0003:00001b28       _nstream                   0000000180036b28     libucrt:_file.obj
 0003:00001b30       __piob                     0000000180036b30     libucrt:_file.obj
 0003:00001b40       __acrt_stdout_buffer       0000000180036b40     libucrt:_sftbuf.obj
 0003:00001b48       __acrt_stderr_buffer       0000000180036b48     libucrt:_sftbuf.obj
 0003:00001b50       __pioinfo                  0000000180036b50     libucrt:ioinit.obj
 0003:00001f50       _nhandle                   0000000180036f50     libucrt:ioinit.obj
 0003:00002198       _mbctype                   0000000180037198     libucrt:mbctype.obj
 0003:000021a0       _mbcasemap                 00000001800371a0     libucrt:mbctype.obj
 0003:000021a8       __acrt_current_multibyte_data 00000001800371a8     libucrt:mbctype.obj
 0003:000021b8       _pgmptr                    00000001800371b8     libucrt:argv_data.obj
 0003:000021c0       __argc                     00000001800371c0     libucrt:argv_data.obj
 0003:000021c8       __argv                     00000001800371c8     libucrt:argv_data.obj
 0003:000021d0       __wargv                    00000001800371d0     libucrt:argv_data.obj
 0003:000021d8       _acmdln                    00000001800371d8     libucrt:argv_data.obj
 0003:000021e0       _wcmdln                    00000001800371e0     libucrt:argv_data.obj
 0003:000021e8       __acrt_heap                00000001800371e8     libucrt:heap_handle.obj
 0003:00002218       __acrt_lconv_static_null   0000000180037218     libucrt:localeconv.obj
 0003:0000221c       __acrt_lconv_static_W_null 000000018003721c     libucrt:localeconv.obj
 0003:00002234       __fma3_is_available        0000000180037234     libucrt:fma3_available.obj
 0003:00002238       __use_fma3_lib             0000000180037238     libucrt:fma3_available.obj
 0003:00002240       __dyn_tls_init_callback    0000000180037240     <common>
 0003:00002248       __scrt_ucrt_dll_is_in_use  0000000180037248     <common>

 entry point at        0001:0000f050

 Static symbols

 0000:fffbe000       .debug$S                   0000000180000000     OPOSGraphicDisplay.exp
 0000:fffbe000       .debug$S                   0000000180000000     advapi32:ADVAPI32.dll
 0000:fffbe000       .debug$S                   0000000180000000     advapi32:ADVAPI32.dll
 0000:fffbe000       .debug$S                   0000000180000000     advapi32:ADVAPI32.dll
 0000:fffbe000       .debug$S                   0000000180000000     advapi32:ADVAPI32.dll
 0000:fffbe000       .debug$S                   0000000180000000     advapi32:ADVAPI32.dll
 0000:fffbe000       .debug$S                   0000000180000000     advapi32:ADVAPI32.dll
 0000:fffbe000       .debug$S                   0000000180000000     advapi32:ADVAPI32.dll
 0000:fffbe000       .debug$S                   0000000180000000     advapi32:ADVAPI32.dll
 0000:fffbe000       .debug$S                   0000000180000000     advapi32:ADVAPI32.dll
 0000:fffbe000       .debug$S                   0000000180000000     gdi32:GDI32.dll
 0000:fffbe000       .debug$S                   0000000180000000     gdi32:GDI32.dll
 0000:fffbe000       .debug$S                   0000000180000000     gdi32:GDI32.dll
 0000:fffbe000       .debug$S                   0000000180000000     gdi32:GDI32.dll
 0000:fffbe000       .debug$S                   0000000180000000     gdi32:GDI32.dll
 0000:fffbe000       .debug$S                   0000000180000000     gdi32:GDI32.dll
 0000:fffbe000       .debug$S                   0000000180000000     gdi32:GDI32.dll
 0000:fffbe000       .debug$S                   0000000180000000     gdi32:GDI32.dll
 0000:fffbe000       .debug$S                   0000000180000000     gdi32:GDI32.dll
 0000:fffbe000       .debug$S                   0000000180000000     gdi32:GDI32.dll
 0000:fffbe000       .debug$S                   0000000180000000     gdi32:GDI32.dll
 0000:fffbe000       .debug$S                   0000000180000000     gdi32:GDI32.dll
 0000:fffbe000       .debug$S                   0000000180000000     gdi32:GDI32.dll
 0000:fffbe000       .debug$S                   0000000180000000     gdi32:GDI32.dll
 0000:fffbe000       .debug$S                   0000000180000000     gdi32:GDI32.dll
 0000:fffbe000       .debug$S                   0000000180000000     gdi32:GDI32.dll
 0000:fffbe000       .debug$S                   0000000180000000     gdi32:GDI32.dll
 0000:fffbe000       .debug$S                   0000000180000000     gdi32:GDI32.dll
 0000:fffbe000       .debug$S                   0000000180000000     gdi32:GDI32.dll
 0000:fffbe000       .debug$S                   0000000180000000     kernel32:KERNEL32.dll
 0000:fffbe000       .debug$S                   0000000180000000     kernel32:KERNEL32.dll
 0000:fffbe000       .debug$S                   0000000180000000     kernel32:KERNEL32.dll
 0000:fffbe000       .debug$S                   0000000180000000     kernel32:KERNEL32.dll
 0000:fffbe000       .debug$S                   0000000180000000     kernel32:KERNEL32.dll
 0000:fffbe000       .debug$S                   0000000180000000     kernel32:KERNEL32.dll
 0000:fffbe000       .debug$S                   0000000180000000     kernel32:KERNEL32.dll
 0000:fffbe000       .debug$S                   0000000180000000     kernel32:KERNEL32.dll
 0000:fffbe000       .debug$S                   0000000180000000     kernel32:KERNEL32.dll
 0000:fffbe000       .debug$S                   0000000180000000     kernel32:KERNEL32.dll
 0000:fffbe000       .debug$S                   0000000180000000     kernel32:KERNEL32.dll
 0000:fffbe000       .debug$S                   0000000180000000     kernel32:KERNEL32.dll
 0000:fffbe000       .debug$S                   0000000180000000     kernel32:KERNEL32.dll
 0000:fffbe000       .debug$S                   0000000180000000     kernel32:KERNEL32.dll
 0000:fffbe000       .debug$S                   0000000180000000     kernel32:KERNEL32.dll
 0000:fffbe000       .debug$S                   0000000180000000     kernel32:KERNEL32.dll
 0000:fffbe000       .debug$S                   0000000180000000     kernel32:KERNEL32.dll
 0000:fffbe000       .debug$S                   0000000180000000     kernel32:KERNEL32.dll
 0000:fffbe000       .debug$S                   0000000180000000     kernel32:KERNEL32.dll
 0000:fffbe000       .debug$S                   0000000180000000     kernel32:KERNEL32.dll
 0000:fffbe000       .debug$S                   0000000180000000     kernel32:KERNEL32.dll
 0000:fffbe000       .debug$S                   0000000180000000     kernel32:KERNEL32.dll
 0000:fffbe000       .debug$S                   0000000180000000     kernel32:KERNEL32.dll
 0000:fffbe000       .debug$S                   0000000180000000     kernel32:KERNEL32.dll
 0000:fffbe000       .debug$S                   0000000180000000     kernel32:KERNEL32.dll
 0000:fffbe000       .debug$S                   0000000180000000     kernel32:KERNEL32.dll
 0000:fffbe000       .debug$S                   0000000180000000     kernel32:KERNEL32.dll
 0000:fffbe000       .debug$S                   0000000180000000     kernel32:KERNEL32.dll
 0000:fffbe000       .debug$S                   0000000180000000     kernel32:KERNEL32.dll
 0000:fffbe000       .debug$S                   0000000180000000     kernel32:KERNEL32.dll
 0000:fffbe000       .debug$S                   0000000180000000     kernel32:KERNEL32.dll
 0000:fffbe000       .debug$S                   0000000180000000     kernel32:KERNEL32.dll
 0000:fffbe000       .debug$S                   0000000180000000     kernel32:KERNEL32.dll
 0000:fffbe000       .debug$S                   0000000180000000     kernel32:KERNEL32.dll
 0000:fffbe000       .debug$S                   0000000180000000     kernel32:KERNEL32.dll
 0000:fffbe000       .debug$S                   0000000180000000     kernel32:KERNEL32.dll
 0000:fffbe000       .debug$S                   0000000180000000     kernel32:KERNEL32.dll
 0000:fffbe000       .debug$S                   0000000180000000     kernel32:KERNEL32.dll
 0000:fffbe000       .debug$S                   0000000180000000     kernel32:KERNEL32.dll
 0000:fffbe000       .debug$S                   0000000180000000     kernel32:KERNEL32.dll
 0000:fffbe000       .debug$S                   0000000180000000     kernel32:KERNEL32.dll
 0000:fffbe000       .debug$S                   0000000180000000     kernel32:KERNEL32.dll
 0000:fffbe000       .debug$S                   0000000180000000     kernel32:KERNEL32.dll
 0000:fffbe000       .debug$S                   0000000180000000     kernel32:KERNEL32.dll
 0000:fffbe000       .debug$S                   0000000180000000     kernel32:KERNEL32.dll
 0000:fffbe000       .debug$S                   0000000180000000     kernel32:KERNEL32.dll
 0000:fffbe000       .debug$S                   0000000180000000     kernel32:KERNEL32.dll
 0000:fffbe000       .debug$S                   0000000180000000     kernel32:KERNEL32.dll
 0000:fffbe000       .debug$S                   0000000180000000     kernel32:KERNEL32.dll
 0000:fffbe000       .debug$S                   0000000180000000     kernel32:KERNEL32.dll
 0000:fffbe000       .debug$S                   0000000180000000     kernel32:KERNEL32.dll
 0000:fffbe000       .debug$S                   0000000180000000     kernel32:KERNEL32.dll
 0000:fffbe000       .debug$S                   0000000180000000     kernel32:KERNEL32.dll
 0000:fffbe000       .debug$S                   0000000180000000     kernel32:KERNEL32.dll
 0000:fffbe000       .debug$S                   0000000180000000     kernel32:KERNEL32.dll
 0000:fffbe000       .debug$S                   0000000180000000     kernel32:KERNEL32.dll
 0000:fffbe000       .debug$S                   0000000180000000     kernel32:KERNEL32.dll
 0000:fffbe000       .debug$S                   0000000180000000     kernel32:KERNEL32.dll
 0000:fffbe000       .debug$S                   0000000180000000     kernel32:KERNEL32.dll
 0000:fffbe000       .debug$S                   0000000180000000     kernel32:KERNEL32.dll
 0000:fffbe000       .debug$S                   0000000180000000     kernel32:KERNEL32.dll
 0000:fffbe000       .debug$S                   0000000180000000     kernel32:KERNEL32.dll
 0000:fffbe000       .debug$S                   0000000180000000     kernel32:KERNEL32.dll
 0000:fffbe000       .debug$S                   0000000180000000     kernel32:KERNEL32.dll
 0000:fffbe000       .debug$S                   0000000180000000     kernel32:KERNEL32.dll
 0000:fffbe000       .debug$S                   0000000180000000     kernel32:KERNEL32.dll
 0000:fffbe000       .debug$S                   0000000180000000     kernel32:KERNEL32.dll
 0000:fffbe000       .debug$S                   0000000180000000     kernel32:KERNEL32.dll
 0000:fffbe000       .debug$S                   0000000180000000     kernel32:KERNEL32.dll
 0000:fffbe000       .debug$S                   0000000180000000     kernel32:KERNEL32.dll
 0000:fffbe000       .debug$S                   0000000180000000     kernel32:KERNEL32.dll
 0000:fffbe000       .debug$S                   0000000180000000     kernel32:KERNEL32.dll
 0000:fffbe000       .debug$S                   0000000180000000     kernel32:KERNEL32.dll
 0000:fffbe000       .debug$S                   0000000180000000     kernel32:KERNEL32.dll
 0000:fffbe000       .debug$S                   0000000180000000     kernel32:KERNEL32.dll
 0000:fffbe000       .debug$S                   0000000180000000     kernel32:KERNEL32.dll
 0000:fffbe000       .debug$S                   0000000180000000     kernel32:KERNEL32.dll
 0000:fffbe000       .debug$S                   0000000180000000     kernel32:KERNEL32.dll
 0000:fffbe000       .debug$S                   0000000180000000     kernel32:KERNEL32.dll
 0000:fffbe000       .debug$S                   0000000180000000     kernel32:KERNEL32.dll
 0000:fffbe000       .debug$S                   0000000180000000     kernel32:KERNEL32.dll
 0000:fffbe000       .debug$S                   0000000180000000     kernel32:KERNEL32.dll
 0000:fffbe000       .debug$S                   0000000180000000     kernel32:KERNEL32.dll
 0000:fffbe000       .debug$S                   0000000180000000     kernel32:KERNEL32.dll
 0000:fffbe000       .debug$S                   0000000180000000     kernel32:KERNEL32.dll
 0000:fffbe000       .debug$S                   0000000180000000     kernel32:KERNEL32.dll
 0000:fffbe000       .debug$S                   0000000180000000     kernel32:KERNEL32.dll
 0000:fffbe000       .debug$S                   0000000180000000     kernel32:KERNEL32.dll
 0000:fffbe000       .debug$S                   0000000180000000     kernel32:KERNEL32.dll
 0000:fffbe000       .debug$S                   0000000180000000     kernel32:KERNEL32.dll
 0000:fffbe000       .debug$S                   0000000180000000     kernel32:KERNEL32.dll
 0000:fffbe000       .debug$S                   0000000180000000     kernel32:KERNEL32.dll
 0000:fffbe000       .debug$S                   0000000180000000     kernel32:KERNEL32.dll
 0000:fffbe000       .debug$S                   0000000180000000     kernel32:KERNEL32.dll
 0000:fffbe000       .debug$S                   0000000180000000     kernel32:KERNEL32.dll
 0000:fffbe000       .debug$S                   0000000180000000     kernel32:KERNEL32.dll
 0000:fffbe000       .debug$S                   0000000180000000     kernel32:KERNEL32.dll
 0000:fffbe000       .debug$S                   0000000180000000     kernel32:KERNEL32.dll
 0000:fffbe000       .debug$S                   0000000180000000     kernel32:KERNEL32.dll
 0000:fffbe000       .debug$S                   0000000180000000     kernel32:KERNEL32.dll
 0000:fffbe000       .debug$S                   0000000180000000     kernel32:KERNEL32.dll
 0000:fffbe000       .debug$S                   0000000180000000     kernel32:KERNEL32.dll
 0000:fffbe000       .debug$S                   0000000180000000     kernel32:KERNEL32.dll
 0000:fffbe000       .debug$S                   0000000180000000     kernel32:KERNEL32.dll
 0000:fffbe000       .debug$S                   0000000180000000     kernel32:KERNEL32.dll
 0000:fffbe000       .debug$S                   0000000180000000     kernel32:KERNEL32.dll
 0000:fffbe000       .debug$S                   0000000180000000     kernel32:KERNEL32.dll
 0000:fffbe000       .debug$S                   0000000180000000     kernel32:KERNEL32.dll
 0000:fffbe000       .debug$S                   0000000180000000     kernel32:KERNEL32.dll
 0000:fffbe000       .debug$S                   0000000180000000     kernel32:KERNEL32.dll
 0000:fffbe000       .debug$S                   0000000180000000     kernel32:KERNEL32.dll
 0000:fffbe000       .debug$S                   0000000180000000     kernel32:KERNEL32.dll
 0000:fffbe000       .debug$S                   0000000180000000     kernel32:KERNEL32.dll
 0000:fffbe000       .debug$S                   0000000180000000     kernel32:KERNEL32.dll
 0000:fffbe000       .debug$S                   0000000180000000     kernel32:KERNEL32.dll
 0000:fffbe000       .debug$S                   0000000180000000     ole32:ole32.dll
 0000:fffbe000       .debug$S                   0000000180000000     ole32:ole32.dll
 0000:fffbe000       .debug$S                   0000000180000000     ole32:ole32.dll
 0000:fffbe000       .debug$S                   0000000180000000     ole32:ole32.dll
 0000:fffbe000       .debug$S                   0000000180000000     ole32:ole32.dll
 0000:fffbe000       .debug$S                   0000000180000000     ole32:ole32.dll
 0000:fffbe000       .debug$S                   0000000180000000     ole32:ole32.dll
 0000:fffbe000       .debug$S                   0000000180000000     ole32:ole32.dll
 0000:fffbe000       .debug$S                   0000000180000000     ole32:ole32.dll
 0000:fffbe000       .debug$S                   0000000180000000     ole32:ole32.dll
 0000:fffbe000       .debug$S                   0000000180000000     ole32:ole32.dll
 0000:fffbe000       .debug$S                   0000000180000000     ole32:ole32.dll
 0000:fffbe000       .debug$S                   0000000180000000     ole32:ole32.dll
 0000:fffbe000       .debug$S                   0000000180000000     ole32:ole32.dll
 0000:fffbe000       .debug$S                   0000000180000000     oleaut32:OLEAUT32.dll
 0000:fffbe000       .debug$S                   0000000180000000     oleaut32:OLEAUT32.dll
 0000:fffbe000       .debug$S                   0000000180000000     oleaut32:OLEAUT32.dll
 0000:fffbe000       .debug$S                   0000000180000000     oleaut32:OLEAUT32.dll
 0000:fffbe000       .debug$S                   0000000180000000     oleaut32:OLEAUT32.dll
 0000:fffbe000       .debug$S                   0000000180000000     oleaut32:OLEAUT32.dll
 0000:fffbe000       .debug$S                   0000000180000000     oleaut32:OLEAUT32.dll
 0000:fffbe000       .debug$S                   0000000180000000     oleaut32:OLEAUT32.dll
 0000:fffbe000       .debug$S                   0000000180000000     oleaut32:OLEAUT32.dll
 0000:fffbe000       .debug$S                   0000000180000000     oleaut32:OLEAUT32.dll
 0000:fffbe000       .debug$S                   0000000180000000     oleaut32:OLEAUT32.dll
 0000:fffbe000       .debug$S                   0000000180000000     oleaut32:OLEAUT32.dll
 0000:fffbe000       .debug$S                   0000000180000000     oleaut32:OLEAUT32.dll
 0000:fffbe000       .debug$S                   0000000180000000     oleaut32:OLEAUT32.dll
 0000:fffbe000       .debug$S                   0000000180000000     oleaut32:OLEAUT32.dll
 0000:fffbe000       .debug$S                   0000000180000000     oleaut32:OLEAUT32.dll
 0000:fffbe000       .debug$S                   0000000180000000     user32:USER32.dll
 0000:fffbe000       .debug$S                   0000000180000000     user32:USER32.dll
 0000:fffbe000       .debug$S                   0000000180000000     user32:USER32.dll
 0000:fffbe000       .debug$S                   0000000180000000     user32:USER32.dll
 0000:fffbe000       .debug$S                   0000000180000000     user32:USER32.dll
 0000:fffbe000       .debug$S                   0000000180000000     user32:USER32.dll
 0000:fffbe000       .debug$S                   0000000180000000     user32:USER32.dll
 0000:fffbe000       .debug$S                   0000000180000000     user32:USER32.dll
 0000:fffbe000       .debug$S                   0000000180000000     user32:USER32.dll
 0000:fffbe000       .debug$S                   0000000180000000     user32:USER32.dll
 0000:fffbe000       .debug$S                   0000000180000000     user32:USER32.dll
 0000:fffbe000       .debug$S                   0000000180000000     user32:USER32.dll
 0000:fffbe000       .debug$S                   0000000180000000     user32:USER32.dll
 0000:fffbe000       .debug$S                   0000000180000000     user32:USER32.dll
 0000:fffbe000       .debug$S                   0000000180000000     user32:USER32.dll
 0000:fffbe000       .debug$S                   0000000180000000     user32:USER32.dll
 0000:fffbe000       .debug$S                   0000000180000000     user32:USER32.dll
 0000:fffbe000       .debug$S                   0000000180000000     user32:USER32.dll
 0000:fffbe000       .debug$S                   0000000180000000     user32:USER32.dll
 0000:fffbe000       .debug$S                   0000000180000000     user32:USER32.dll
 0000:fffbe000       .debug$S                   0000000180000000     user32:USER32.dll
 0000:fffbe000       .debug$S                   0000000180000000     user32:USER32.dll
 0000:fffbe000       .debug$S                   0000000180000000     user32:USER32.dll
 0000:fffbe000       .debug$S                   0000000180000000     user32:USER32.dll
 0000:fffbe000       .debug$S                   0000000180000000     user32:USER32.dll
 0000:fffbe000       .debug$S                   0000000180000000     user32:USER32.dll
 0000:fffbe000       .debug$S                   0000000180000000     user32:USER32.dll
 0000:fffbe000       .debug$S                   0000000180000000     user32:USER32.dll
 0000:fffbe000       .debug$S                   0000000180000000     user32:USER32.dll
 0000:fffbe000       .debug$S                   0000000180000000     user32:USER32.dll
 0000:fffbe000       .debug$S                   0000000180000000     user32:USER32.dll
 0000:fffbe000       .debug$S                   0000000180000000     user32:USER32.dll
 0000:fffbe000       .debug$S                   0000000180000000     user32:USER32.dll
 0000:fffbe000       .debug$S                   0000000180000000     user32:USER32.dll
 0000:fffbe000       .debug$S                   0000000180000000     user32:USER32.dll
 0001:00000000       ??__E_AtlComModule@ATL@@YAXXZ 0000000180001000 f   OposVariant.obj
 0001:00000020       ??__E_AtlWinModule@ATL@@YAXXZ 0000000180001020 f   OposVariant.obj
 0001:00000040       ??__E?pConnMap@?$IConnectionPointContainerImpl@VCOPOSGraphicDisplay@@@ATL@@0PEBU_ATL_CONNMAP_ENTRY@2@EB@@YAXXZ 0000000180001040 f   GraphicDisplay.obj
 0001:00000058       ??__E_Module@@YAXXZ        0000000180001058 f   GraphicDisplay.obj
 0001:00000094       ??__E_AtlBaseModule@ATL@@YAXXZ 0000000180001094 f   atls:atlbase.obj
 0001:0000e67c       ?__scrt_initialize_thread_safe_statics@@YAHXZ 000000018000f67c f   LIBCMT:thread_safe_statics.obj
 0001:0000e74c       ?__scrt_uninitialize_thread_safe_statics@@YAXXZ 000000018000f74c f   LIBCMT:thread_safe_statics.obj
 0001:0000ea9c       capture_current_context    000000018000fa9c f   LIBCMT:gs_report.obj
 0001:0000eb0c       capture_previous_context   000000018000fb0c f   LIBCMT:gs_report.obj
 0001:0000eca0       $$000000                   000000018000fca0     LIBCMT:chkstk.obj
 0001:0000ed00       $$000000                   000000018000fd00     LIBCMT:amdsecgs.obj
 0001:0000ed30       ?dllmain_crt_dispatch@@YAHQEAUHINSTANCE__@@KQEAX@Z 000000018000fd30 f   LIBCMT:dll_dllmain.obj
 0001:0000ed80       ?dllmain_crt_process_attach@@YAHQEAUHINSTANCE__@@QEAX@Z 000000018000fd80 f   LIBCMT:dll_dllmain.obj
 0001:0000ee98       ?dllmain_crt_process_detach@@YAH_N@Z 000000018000fe98 f   LIBCMT:dll_dllmain.obj
 0001:0000ef1c       ?dllmain_dispatch@@YAHQEAUHINSTANCE__@@KQEAX@Z 000000018000ff1c f   LIBCMT:dll_dllmain.obj
 0001:0000f7e8       ??$GetProcAddressAll@P6AP6A_JPEAUHWND__@@I_K_J@ZPEAUAtlThunkData_t@@@Z@@YAP6AP6A_JPEAUHWND__@@I_K_J@ZPEAUAtlThunkData_t@@@ZPEAP6AP6A_J0I12@Z3@Z@Z 00000001800107e8 f   atls:atlthunk.obj
 0001:0000f7e8       ??$GetProcAddressAll@P6APEAUAtlThunkData_t@@XZ@@YAP6APEAUAtlThunkData_t@@XZPEAP6APEAU0@XZ@Z 00000001800107e8 f   atls:atlthunk.obj
 0001:0000f7e8       ??$GetProcAddressAll@P6AXPEAUAtlThunkData_t@@@Z@@YAP6AXPEAUAtlThunkData_t@@@ZPEAP6AX0@Z@Z 00000001800107e8 f   atls:atlthunk.obj
 0001:0000f7e8       ??$GetProcAddressAll@P6AXPEAUAtlThunkData_t@@PEAX_K@Z@@YAP6AXPEAUAtlThunkData_t@@PEAX_K@ZPEAP6AX012@Z@Z 00000001800107e8 f   atls:atlthunk.obj
 0001:0000f9c0       ?__InitializeThunkPool@@YAHXZ 00000001800109c0 f   atls:atlthunk.obj
 0001:0000fe60       $$000000                   0000000180010e60     libvcruntime:memcmp.obj
 0001:0000ff40       $$000000                   0000000180010f40     libvcruntime:memcpy.obj
 0001:000105f0       $$000000                   00000001800115f0     libvcruntime:memset.obj
 0001:00011c00       $$000000                   0000000180012c00     libvcruntime:notify.obj
 0001:00011e80       ??$BuildCatchObjectHelperInternal@V__FrameHandler3@@@@YAHPEAUEHExceptionRecord@@PEAXPEBU_s_HandlerType@@PEBU_s_CatchableType@@@Z 0000000180012e80 f   libvcruntime:frame.obj
 0001:00012080       ??$BuildCatchObjectHelperInternal@V__FrameHandler4@@@@YAHPEAUEHExceptionRecord@@PEAXPEAUHandlerType4@FH4@@PEBU_s_CatchableType@@@Z 0000000180013080 f   libvcruntime:frame.obj
 0001:00012284       ??$BuildCatchObjectInternal@V__FrameHandler3@@@@YAXPEAUEHExceptionRecord@@PEAXPEBU_s_HandlerType@@PEBU_s_CatchableType@@@Z 0000000180013284 f   libvcruntime:frame.obj
 0001:00012344       ??$BuildCatchObjectInternal@V__FrameHandler4@@@@YAXPEAUEHExceptionRecord@@PEAXPEAUHandlerType4@FH4@@PEBU_s_CatchableType@@@Z 0000000180013344 f   libvcruntime:frame.obj
 0001:00012408       ??$CatchIt@V__FrameHandler3@@@@YAXPEAUEHExceptionRecord@@PEA_KPEAU_CONTEXT@@PEAU_xDISPATCHER_CONTEXT@@PEBU_s_FuncInfo@@PEBU_s_HandlerType@@PEBU_s_CatchableType@@PEBU_s_TryBlockMapEntry@@H1EE@Z 0000000180013408 f   libvcruntime:frame.obj
 0001:000124dc       ??$CatchIt@V__FrameHandler4@@@@YAXPEAUEHExceptionRecord@@PEA_KPEAU_CONTEXT@@PEAU_xDISPATCHER_CONTEXT@@PEAUFuncInfo4@FH4@@PEAUHandlerType4@4@PEBU_s_CatchableType@@PEAUTryBlockMapEntry4@4@H1EE@Z 00000001800134dc f   libvcruntime:frame.obj
 0001:000125b0       ??$FindHandler@V__FrameHandler3@@@@YAXPEAUEHExceptionRecord@@PEA_KPEAU_CONTEXT@@PEAU_xDISPATCHER_CONTEXT@@PEBU_s_FuncInfo@@EH1@Z 00000001800135b0 f   libvcruntime:frame.obj
 0001:00012a88       ??$FindHandler@V__FrameHandler4@@@@YAXPEAUEHExceptionRecord@@PEA_KPEAU_CONTEXT@@PEAU_xDISPATCHER_CONTEXT@@PEAUFuncInfo4@FH4@@EH1@Z 0000000180013a88 f   libvcruntime:frame.obj
 0001:00012f84       ??$FindHandlerForForeignException@V__FrameHandler3@@@@YAXPEAUEHExceptionRecord@@PEA_KPEAU_CONTEXT@@PEAU_xDISPATCHER_CONTEXT@@PEBU_s_FuncInfo@@HH1@Z 0000000180013f84 f   libvcruntime:frame.obj
 0001:000131a0       ??$FindHandlerForForeignException@V__FrameHandler4@@@@YAXPEAUEHExceptionRecord@@PEA_KPEAU_CONTEXT@@PEAU_xDISPATCHER_CONTEXT@@PEAUFuncInfo4@FH4@@HH1@Z 00000001800141a0 f   libvcruntime:frame.obj
 0001:00014360       ?ExFilterRethrow@@YAHPEAU_EXCEPTION_POINTERS@@PEAUEHExceptionRecord@@PEAH@Z 0000000180015360 f   libvcruntime:frame.obj
 0001:000143e8       ?ExFilterRethrowFH4@@YAHPEAU_EXCEPTION_POINTERS@@PEAUEHExceptionRecord@@HPEAH@Z 00000001800153e8 f   libvcruntime:frame.obj
 0001:00014938       ?IsInExceptionSpec@@YAEPEAUEHExceptionRecord@@PEBU_s_ESTypeList@@@Z 0000000180015938 f   libvcruntime:frame.obj
 0001:00014a28       ?Is_bad_exception_allowed@@YAEPEBU_s_ESTypeList@@@Z 0000000180015a28 f   libvcruntime:frame.obj
 0001:00014d04       ?try_get_function@@YAPEAXW4function_id@?A0xbc0cc709@@QEBDQEBW4module_id@2@2@Z 0000000180015d04 f   libvcruntime:winapi_downlevel.obj
 0001:00014ff0       $$000000                   0000000180015ff0     libvcruntime:handlers.obj
 0001:00015a1c       ??$common_vsprintf@Vformat_validation_base@__crt_stdio_output@@_W@@YAH_KQEA_W0QEB_WAEAV__crt_cached_ptd_host@@QEAD@Z 0000000180016a1c f   libucrt:output.obj
 0001:0001816c       ??$?RV<lambda_d80eeec6fff315bfe5c115232f3240e3>@@AEAV<lambda_6e4b09c48022b2350581041d5f6b0c4c>@@V<lambda_2358e3775559c9db80273638284d5e45>@@@?$__crt_seh_guarded_call@X@@QEAAX$$QEAV<lambda_d80eeec6fff315bfe5c115232f3240e3>@@AEAV<lambda_6e4b09c48022b2350581041d5f6b0c4c>@@$$QEAV<lambda_2358e3775559c9db80273638284d5e45>@@@Z 000000018001916c f   libucrt:exit.obj
 0001:000181a4       ??R<lambda_6e4b09c48022b2350581041d5f6b0c4c>@@QEBA@XZ 00000001800191a4 f   libucrt:exit.obj
 0001:00018270       ?common_exit@@YAXHW4_crt_exit_cleanup_mode@@W4_crt_exit_return_mode@@@Z 0000000180019270 f   libucrt:exit.obj
 0001:00018338       ?exit_or_terminate_process@@YAXI@Z 0000000180019338 f   libucrt:exit.obj
 0001:0001836c       ?should_call_terminate_process@@YA_NXZ 000000018001936c f   libucrt:exit.obj
 0001:0001839c       ?try_cor_exit_process@@YAXI@Z 000000018001939c f   libucrt:exit.obj
 0001:00018438       ??$parse_command_line@D@@YAXPEADPEAPEAD0PEA_K2@Z 0000000180019438 f   libucrt:argv_parsing.obj
 0001:000187e0       ??$common_initialize_environment_nolock@D@@YAHXZ 00000001800197e0 f   libucrt:environment_initialization.obj
 0001:00018854       ??$create_environment@D@@YAQEAPEADQEAD@Z 0000000180019854 f   libucrt:environment_initialization.obj
 0001:00018964       ??$free_environment@D@@YAXQEAPEAD@Z 0000000180019964 f   libucrt:environment_initialization.obj
 0001:00018964       ??$free_environment@_W@@YAXQEAPEA_W@Z 0000000180019964 f   libucrt:environment_initialization.obj
 0001:000189a8       ??$uninitialize_environment_internal@D@@YAXAEAPEAPEAD@Z 00000001800199a8 f   libucrt:environment_initialization.obj
 0001:000189c4       ??$uninitialize_environment_internal@_W@@YAXAEAPEAPEA_W@Z 00000001800199c4 f   libucrt:environment_initialization.obj
 0001:00018a2c       ??$?RV<lambda_638799b9deba96c50f710eeac98168cd>@@AEAV<lambda_22ebabd17bc4fa466a2aca6d8deb888d>@@V<lambda_a6f7d7db0129f75315ebf26d50c089f1>@@@?$__crt_seh_guarded_call@H@@QEAAH$$QEAV<lambda_638799b9deba96c50f710eeac98168cd>@@AEAV<lambda_22ebabd17bc4fa466a2aca6d8deb888d>@@$$QEAV<lambda_a6f7d7db0129f75315ebf26d50c089f1>@@@Z 0000000180019a2c f   libucrt:onexit.obj
 0001:00018a68       ??$?RV<lambda_7777bce6b2f8c936911f934f8298dc43>@@AEAV<lambda_f03950bc5685219e0bcd2087efbe011e>@@V<lambda_3883c3dff614d5e0c5f61bb1ac94921c>@@@?$__crt_seh_guarded_call@H@@QEAAH$$QEAV<lambda_7777bce6b2f8c936911f934f8298dc43>@@AEAV<lambda_f03950bc5685219e0bcd2087efbe011e>@@$$QEAV<lambda_3883c3dff614d5e0c5f61bb1ac94921c>@@@Z 0000000180019a68 f   libucrt:onexit.obj
 0001:00018aa4       ??R<lambda_22ebabd17bc4fa466a2aca6d8deb888d>@@QEBAHXZ 0000000180019aa4 f   libucrt:onexit.obj
 0001:00018c54       ??R<lambda_f03950bc5685219e0bcd2087efbe011e>@@QEBAHXZ 0000000180019c54 f   libucrt:onexit.obj
 0001:00018e38       initialize_global_variables 0000000180019e38 f   libucrt:initialization.obj
 0001:00018e4c       initialize_c               0000000180019e4c f   libucrt:initialization.obj
 0001:00018e70       initialize_environment     0000000180019e70 f   libucrt:initialization.obj
 0001:00018e70       initialize_global_state_isolation 0000000180019e70 f   libucrt:initialization.obj
 0001:00018e70       report_memory_leaks        0000000180019e70 f   libucrt:initialization.obj
 0001:00018e70       uninitialize_c             0000000180019e70 f   libucrt:initialization.obj
 0001:00018e70       uninitialize_global_state_isolation 0000000180019e70 f   libucrt:initialization.obj
 0001:00018e74       uninitialize_environment   0000000180019e74 f   libucrt:initialization.obj
 0001:00018e84       initialize_pointers        0000000180019e84 f   libucrt:initialization.obj
 0001:00018ec4       uninitialize_vcruntime     0000000180019ec4 f   libucrt:initialization.obj
 0001:00018ecc       uninitialize_allocated_memory 0000000180019ecc f   libucrt:initialization.obj
 0001:00018f0c       uninitialize_allocated_io_buffers 0000000180019f0c f   libucrt:initialization.obj
 0001:000191d0       $$000000                   000000018001a1d0     libucrt:strncmp.obj
 0001:000192c8       ??$?RV<lambda_0ae27a3a962d80f24befdcbee591983d>@@AEAV<lambda_8d0ee55de4b1038c4002e0adecdf1839>@@V<lambda_dc504788e8f1664fe9b84e20bfb512f2>@@@?$__crt_seh_guarded_call@X@@QEAAX$$QEAV<lambda_0ae27a3a962d80f24befdcbee591983d>@@AEAV<lambda_8d0ee55de4b1038c4002e0adecdf1839>@@$$QEAV<lambda_dc504788e8f1664fe9b84e20bfb512f2>@@@Z 000000018001a2c8 f   libucrt:per_thread_data.obj
 0001:00019308       ??$?RV<lambda_2d41944a1d46af3157314b8a01080d33>@@AEAV<lambda_8f455de75cd7d7f24b4096f044d8b9e6>@@V<lambda_aa500f224e6afead328df44964fe2772>@@@?$__crt_seh_guarded_call@X@@QEAAX$$QEAV<lambda_2d41944a1d46af3157314b8a01080d33>@@AEAV<lambda_8f455de75cd7d7f24b4096f044d8b9e6>@@$$QEAV<lambda_aa500f224e6afead328df44964fe2772>@@@Z 000000018001a308 f   libucrt:per_thread_data.obj
 0001:00019348       ??$?RV<lambda_aa87e3671a710a21b5dc78c0bdf72e11>@@AEAV<lambda_92619d2358a28f41a33ba319515a20b9>@@V<lambda_6992ecaafeb10aed2b74cb1fae11a551>@@@?$__crt_seh_guarded_call@X@@QEAAX$$QEAV<lambda_aa87e3671a710a21b5dc78c0bdf72e11>@@AEAV<lambda_92619d2358a28f41a33ba319515a20b9>@@$$QEAV<lambda_6992ecaafeb10aed2b74cb1fae11a551>@@@Z 000000018001a348 f   libucrt:per_thread_data.obj
 0001:00019390       ??$?RV<lambda_f2e299630e499de9f9a165e60fcd3db5>@@AEAV<lambda_2ae9d31cdba2644fcbeaf08da7c24588>@@V<lambda_40d01ff24d0e7b3814fdbdcee8eab3c7>@@@?$__crt_seh_guarded_call@X@@QEAAX$$QEAV<lambda_f2e299630e499de9f9a165e60fcd3db5>@@AEAV<lambda_2ae9d31cdba2644fcbeaf08da7c24588>@@$$QEAV<lambda_40d01ff24d0e7b3814fdbdcee8eab3c7>@@@Z 000000018001a390 f   libucrt:per_thread_data.obj
 0001:000193f0       ?construct_ptd_array@@YAXQEAU__acrt_ptd@@@Z 000000018001a3f0 f   libucrt:per_thread_data.obj
 0001:000194c0       ?destroy_fls@@YAXPEAX@Z    000000018001a4c0 f   libucrt:per_thread_data.obj
 0001:000194e0       ?destroy_ptd_array@@YAXQEAU__acrt_ptd@@@Z 000000018001a4e0 f   libucrt:per_thread_data.obj
 0001:000195d8       ?replace_current_thread_locale_nolock@@YAXQEAU__acrt_ptd@@QEAU__crt_locale_data@@@Z 000000018001a5d8 f   libucrt:per_thread_data.obj
 0001:000199e4       ??$?RV<lambda_410d79af7f07d98d83a3f525b3859a53>@@AEAV<lambda_3e16ef9562a7dcce91392c22ab16ea36>@@V<lambda_38119f0e861e05405d8a144b9b982f0a>@@@?$__crt_seh_guarded_call@X@@QEAAX$$QEAV<lambda_410d79af7f07d98d83a3f525b3859a53>@@AEAV<lambda_3e16ef9562a7dcce91392c22ab16ea36>@@$$QEAV<lambda_38119f0e861e05405d8a144b9b982f0a>@@@Z 000000018001a9e4 f   libucrt:wsetlocale.obj
 0001:00019c20       ?try_get_function@@YAPEAXW4function_id@?A0x391cf84c@@QEBDQEBW4module_id@2@2@Z 000000018001ac20 f   libucrt:winapi_thunks.obj
 0001:0001a3bc       ?fp_format_a@@YAHQEBNPEAD_KQEAD2H_NIW4__acrt_rounding_mode@@AEAV__crt_cached_ptd_host@@@Z 000000018001b3bc f   libucrt:cvt.obj
 0001:0001a770       ?fp_format_e@@YAHQEBNQEAD_K12H_NIW4__acrt_rounding_mode@@AEAV__crt_cached_ptd_host@@@Z 000000018001b770 f   libucrt:cvt.obj
 0001:0001a86c       ?fp_format_e_internal@@YAHQEAD_KH_NIQEAU_strflt@@2AEAV__crt_cached_ptd_host@@@Z 000000018001b86c f   libucrt:cvt.obj
 0001:0001aa50       ?fp_format_f@@YAHQEBNQEAD_K12HW4__acrt_rounding_mode@@AEAV__crt_cached_ptd_host@@@Z 000000018001ba50 f   libucrt:cvt.obj
 0001:0001ab28       ?fp_format_f_internal@@YAHQEAD_KHQEAU_strflt@@_NAEAV__crt_cached_ptd_host@@@Z 000000018001bb28 f   libucrt:cvt.obj
 0001:0001ac80       ?fp_format_g@@YAHQEBNQEAD_K12H_NIW4__acrt_rounding_mode@@AEAV__crt_cached_ptd_host@@@Z 000000018001bc80 f   libucrt:cvt.obj
 0001:0001add4       ?should_round_up@@YA_NQEBN_KFW4__acrt_rounding_mode@@@Z 000000018001bdd4 f   libucrt:cvt.obj
 0001:0001b520       ?initialize_inherited_file_handles_nolock@@YAXXZ 000000018001c520 f   libucrt:ioinit.obj
 0001:0001b610       ?initialize_stdio_handles_nolock@@YAXXZ 000000018001c610 f   libucrt:ioinit.obj
 0001:0001b888       ?<lambda_invoker_cdecl>@<lambda_a1ce4c8ae42411fd470c77163914f50e>@@CAHPEBX0@Z 000000018001c888 f   libucrt:argv_wildcards.obj
 0001:0001bba4       ??$common_expand_argv_wildcards@D@@YAHQEAPEADQEAPEAPEAD@Z 000000018001cba4 f   libucrt:argv_wildcards.obj
 0001:0001bde8       ??$copy_and_add_argument_to_buffer@D@@YAHQEBD0_KAEAV?$argument_list@D@?A0x5f5c8891@@@Z 000000018001cde8 f   libucrt:argv_wildcards.obj
 0001:0001bf70       ??$expand_argument_wildcards@D@@YAHQEAD0AEAV?$argument_list@D@?A0x5f5c8891@@@Z 000000018001cf70 f   libucrt:argv_wildcards.obj
 0001:0001c5a4       ??$?RV<lambda_efdfa57d1f175319df784efa44bb7b81>@@AEAV<lambda_5f0a4c1567f8adc6734073e5d1e1b35c>@@V<lambda_2e8a7d3640ea6ccb4c2413664c2db6fd>@@@?$__crt_seh_guarded_call@X@@QEAAX$$QEAV<lambda_efdfa57d1f175319df784efa44bb7b81>@@AEAV<lambda_5f0a4c1567f8adc6734073e5d1e1b35c>@@$$QEAV<lambda_2e8a7d3640ea6ccb4c2413664c2db6fd>@@@Z 000000018001d5a4 f   libucrt:mbctype.obj
 0001:0001c774       ?getSystemCP@@YAHH@Z       000000018001d774 f   libucrt:mbctype.obj
 0001:0001c7f4       ?setSBCS@@YAXPEAU__crt_multibyte_data@@@Z 000000018001d7f4 f   libucrt:mbctype.obj
 0001:0001c88c       ?setSBUpLow@@YAXPEAU__crt_multibyte_data@@@Z 000000018001d88c f   libucrt:mbctype.obj
 0001:0001ca74       ?setmbcp_internal@@YAHH_NQEAU__acrt_ptd@@QEAPEAU__crt_multibyte_data@@@Z 000000018001da74 f   libucrt:mbctype.obj
 0001:0001cce4       ?update_thread_multibyte_data_internal@@YAPEAU__crt_multibyte_data@@QEAU__acrt_ptd@@QEAPEAU1@@Z 000000018001dce4 f   libucrt:mbctype.obj
 0001:0001d0d8       ?x_ismbbtype_l@@YAHPEAU__crt_locale_pointers@@IHH@Z 000000018001e0d8 f   libucrt:ismbbyte.obj
 0001:0001d4a8       ??$?RV<lambda_450d765d439847d4c735a33c368b5fc0>@@AEAV<lambda_44731a7d0e6d81c3e6aa82d741081786>@@V<lambda_601a2a7da3b7a96e9554ac7215c4b07c>@@@?$__crt_seh_guarded_call@P6AXH@Z@@QEAAP6AXH@Z$$QEAV<lambda_450d765d439847d4c735a33c368b5fc0>@@AEAV<lambda_44731a7d0e6d81c3e6aa82d741081786>@@$$QEAV<lambda_601a2a7da3b7a96e9554ac7215c4b07c>@@@Z 000000018001e4a8 f   libucrt:signal.obj
 0001:0001d820       ??$?RV<lambda_842d9ff0dc9ef11c61343bbaebe7f885>@@AEAV<lambda_c5860995281e5c4ce005b3de8f5874ee>@@V<lambda_d90129c13df834fdcbf8d2b88dafcf2d>@@@?$__crt_seh_guarded_call@X@@QEAAX$$QEAV<lambda_842d9ff0dc9ef11c61343bbaebe7f885>@@AEAV<lambda_c5860995281e5c4ce005b3de8f5874ee>@@$$QEAV<lambda_d90129c13df834fdcbf8d2b88dafcf2d>@@@Z 000000018001e820 f   libucrt:fflush.obj
 0001:0001d8bc       ??$?RV<lambda_886d6c58226a84441f68b9f2b8217b83>@@AEAV<lambda_ab61a845afdef5b7c387490eaf3616ee>@@V<lambda_f7f22ab5edc0698d5f6905b0d3f44752>@@@?$__crt_seh_guarded_call@X@@QEAAX$$QEAV<lambda_886d6c58226a84441f68b9f2b8217b83>@@AEAV<lambda_ab61a845afdef5b7c387490eaf3616ee>@@$$QEAV<lambda_f7f22ab5edc0698d5f6905b0d3f44752>@@@Z 000000018001e8bc f   libucrt:fflush.obj
 0001:0001d99c       ?common_flush_all@@YAH_N@Z 000000018001e99c f   libucrt:fflush.obj
 0001:0001e0e8       ?free_crt_array_internal@@YAXQEAPEBX_K@Z 000000018001f0e8 f   libucrt:inittime.obj
 0001:0001fccc       memcpy_s                   0000000180020ccc f   libucrt:cfout.obj
 0001:000208d0       fallbackMethod             00000001800218d0 f   libucrt:strpbrk.obj
 0001:00020c7c       $LN78                      0000000180021c7c     libucrt:strpbrk.obj
 0001:00020cb8       $LN77                      0000000180021cb8     libucrt:strpbrk.obj
 0001:00020cf8       $LN76                      0000000180021cf8     libucrt:strpbrk.obj
 0001:00020dd4       ?__acrt_LCMapStringA_stat@@YAHPEAU__crt_locale_pointers@@PEB_WKPEBDHPEADHHH@Z 0000000180021dd4 f   libucrt:lcmapstringa.obj
 0001:0002118c       ?initialize_multibyte@@YAHXZ 000000018002218c f   libucrt:multibyte_initializer.obj
 0001:000211a4       ??$?RV<lambda_a37b2b86f63e897a80ea819b0eb08c01>@@AEAV<lambda_38ce7e780aa69e748d6df282ebc68efe>@@V<lambda_99fb1378e971ab6e7edea83e3a7a83a2>@@@?$__crt_seh_guarded_call@H@@QEAAH$$QEAV<lambda_a37b2b86f63e897a80ea819b0eb08c01>@@AEAV<lambda_38ce7e780aa69e748d6df282ebc68efe>@@$$QEAV<lambda_99fb1378e971ab6e7edea83e3a7a83a2>@@@Z 00000001800221a4 f   libucrt:commit.obj
 0001:000212c4       ?write_double_translated_ansi_nolock@@YA?AUwrite_result@?A0x17268360@@HQEBDIAEAV__crt_cached_ptd_host@@@Z 00000001800222c4 f   libucrt:write.obj
 0001:00021750       ?write_text_ansi_nolock@@YA?AUwrite_result@?A0x17268360@@HQEBDI@Z 0000000180022750 f   libucrt:write.obj
 0001:00021854       ?write_text_utf16le_nolock@@YA?AUwrite_result@?A0x17268360@@HQEBDI@Z 0000000180022854 f   libucrt:write.obj
 0001:00021970       ?write_text_utf8_nolock@@YA?AUwrite_result@?A0x17268360@@HQEBDI@Z 0000000180022970 f   libucrt:write.obj
 0001:00022150       $$000000                   0000000180023150     libucrt:log10.obj
 0001:00022bec       ?_fclose_internal@@YAHQEAU_iobuf@@AEAV__crt_cached_ptd_host@@@Z 0000000180023bec f   libucrt:fclose.obj
 0001:00022c68       ?_fclose_nolock_internal@@YAHQEAU_iobuf@@AEAV__crt_cached_ptd_host@@@Z 0000000180023c68 f   libucrt:fclose.obj
 0001:00022da4       ??$common_lseek_nolock@_J@@YA_JH_JHAEAV__crt_cached_ptd_host@@@Z 0000000180023da4 f   libucrt:lseek.obj
 0001:00022f2c       common_control87           0000000180023f2c f   libucrt:ieee.obj
 0001:000231ec       _call_matherr              00000001800241ec f   libucrt:libm_error.obj
 0001:00023254       _exception_enabled         0000000180024254 f   libucrt:libm_error.obj
 0001:000234f0       _log_special_common        00000001800244f0 f   libucrt:log_special.obj
 0001:00023588       ??$?RV<lambda_ad8af0d99a0adf03d037d7dffe354bb5>@@AEAV<lambda_c9ba49e555ba839a7b07aa3fbecb7617>@@V<lambda_2f1ebd5d68526518146ae959c9e734c8>@@@?$__crt_seh_guarded_call@H@@QEAAH$$QEAV<lambda_ad8af0d99a0adf03d037d7dffe354bb5>@@AEAV<lambda_c9ba49e555ba839a7b07aa3fbecb7617>@@$$QEAV<lambda_2f1ebd5d68526518146ae959c9e734c8>@@@Z 0000000180024588 f   libucrt:close.obj
 0001:000238e0       $$000000                   00000001800248e0     libucrt:fpsr.obj
 0001:00024060       $$000000                   0000000180025060     LIBCMT:guard_dispatch.obj
 0001:00024080       $$000000                   0000000180025080     LIBCMT:guard_xfg_dispatch.obj
 0001:000240a0       ?filt$0@?0??_AtlVerifyStackAvailable@_ATL_SAFE_ALLOCA_IMPL@ATL@@YA_N_K@Z@4HA 00000001800250a0 f   GraphicDisplay.obj
 0001:000240c1       __scrt_is_nonwritable_in_current_image$filt$0 00000001800250c1 f   LIBCMT:utility.obj
 0001:000240d9       ?catch$0@?0???2@YAPEAX_KAEBUnothrow_t@std@@@Z@4HA 00000001800250d9 f   LIBCMT:new_scalar_nothrow.obj
 0001:000240e6       __catch$??2@YAPEAX_KAEBUnothrow_t@std@@@Z$0 00000001800250e6 f   LIBCMT:new_scalar_nothrow.obj
 0001:000240f7       ?fin$0@?0??dllmain_crt_process_attach@@YAHQEAUHINSTANCE__@@QEAX@Z@4HA 00000001800250f7 f   LIBCMT:dll_dllmain.obj
 0001:0002410e       ?fin$0@?0??dllmain_crt_process_detach@@YAH_N@Z@4HA 000000018002510e f   LIBCMT:dll_dllmain.obj
 0001:00024127       ?fin$1@?0??dllmain_crt_process_detach@@YAH_N@Z@4HA 0000000180025127 f   LIBCMT:dll_dllmain.obj
 0001:0002413b       ?filt$0@?0??dllmain_dispatch@@YAHQEAUHINSTANCE__@@KQEAX@Z@4HA 000000018002513b f   LIBCMT:dll_dllmain.obj
 0001:00024171       ?filt$0@?0???$_CallSETranslator@V__FrameHandler3@@@@YAHPEAUEHExceptionRecord@@PEA_KPEAU_CONTEXT@@PEAU_xDISPATCHER_CONTEXT@@PEBU_s_FuncInfo@@K1H@Z@4HA 0000000180025171 f   libvcruntime:risctrnsctrl.obj
 0001:00024202       ?filt$0@?0???$_CallSETranslator@V__FrameHandler4@@@@YAHPEAUEHExceptionRecord@@PEA_KPEAU_CONTEXT@@PEAU_xDISPATCHER_CONTEXT@@PEAUFuncInfo4@FH4@@K1H@Z@4HA 0000000180025202 f   libvcruntime:risctrnsctrl.obj
 0001:000242a1       __DestructExceptionObject$filt$0 00000001800252a1 f   libvcruntime:ehhelpers.obj
 0001:00024337       ?filt$0@?0??CxxCallCatchBlock@__FrameHandler3@@SAPEAXPEAU_EXCEPTION_RECORD@@@Z@4HA 0000000180025337 f   libvcruntime:frame.obj
 0001:0002435c       ?fin$1@?0??CxxCallCatchBlock@__FrameHandler3@@SAPEAXPEAU_EXCEPTION_RECORD@@@Z@4HA 000000018002535c f   libvcruntime:frame.obj
 0001:000243e2       ?filt$0@?0??CxxCallCatchBlock@__FrameHandler4@@SAPEAXPEAU_EXCEPTION_RECORD@@@Z@4HA 00000001800253e2 f   libvcruntime:frame.obj
 0001:00024411       ?fin$1@?0??CxxCallCatchBlock@__FrameHandler4@@SAPEAXPEAU_EXCEPTION_RECORD@@@Z@4HA 0000000180025411 f   libvcruntime:frame.obj
 0001:000244a2       ?filt$0@?0??FrameUnwindToState@__FrameHandler3@@SAXPEA_KPEAU_xDISPATCHER_CONTEXT@@PEBU_s_FuncInfo@@H@Z@4HA 00000001800254a2 f   libvcruntime:frame.obj
 0001:000244b8       ?fin$1@?0??FrameUnwindToState@__FrameHandler3@@SAXPEA_KPEAU_xDISPATCHER_CONTEXT@@PEBU_s_FuncInfo@@H@Z@4HA 00000001800254b8 f   libvcruntime:frame.obj
 0001:000244db       ?filt$0@?0??FrameUnwindToState@__FrameHandler4@@SAXPEA_KPEAU_xDISPATCHER_CONTEXT@@PEAUFuncInfo4@FH4@@H@Z@4HA 00000001800254db f   libvcruntime:frame.obj
 0001:000244f1       ?fin$1@?0??FrameUnwindToState@__FrameHandler4@@SAXPEA_KPEAU_xDISPATCHER_CONTEXT@@PEAUFuncInfo4@FH4@@H@Z@4HA 00000001800254f1 f   libvcruntime:frame.obj
 0001:00024514       ?fin$0@?0???$?RV<lambda_0ae27a3a962d80f24befdcbee591983d>@@AEAV<lambda_8d0ee55de4b1038c4002e0adecdf1839>@@V<lambda_dc504788e8f1664fe9b84e20bfb512f2>@@@?$__crt_seh_guarded_call@X@@QEAAX$$QEAV<lambda_0ae27a3a962d80f24befdcbee591983d>@@AEAV<lambda_8d0ee55de4b1038c4002e0adecdf1839>@@$$QEAV<lambda_dc504788e8f1664fe9b84e20bfb512f2>@@@Z@4HA 0000000180025514 f   libucrt:per_thread_data.obj
 0001:00024514       ?fin$0@?0???$?RV<lambda_2d41944a1d46af3157314b8a01080d33>@@AEAV<lambda_8f455de75cd7d7f24b4096f044d8b9e6>@@V<lambda_aa500f224e6afead328df44964fe2772>@@@?$__crt_seh_guarded_call@X@@QEAAX$$QEAV<lambda_2d41944a1d46af3157314b8a01080d33>@@AEAV<lambda_8f455de75cd7d7f24b4096f044d8b9e6>@@$$QEAV<lambda_aa500f224e6afead328df44964fe2772>@@@Z@4HA 0000000180025514 f   libucrt:per_thread_data.obj
 0001:00024514       ?fin$0@?0???$?RV<lambda_aa87e3671a710a21b5dc78c0bdf72e11>@@AEAV<lambda_92619d2358a28f41a33ba319515a20b9>@@V<lambda_6992ecaafeb10aed2b74cb1fae11a551>@@@?$__crt_seh_guarded_call@X@@QEAAX$$QEAV<lambda_aa87e3671a710a21b5dc78c0bdf72e11>@@AEAV<lambda_92619d2358a28f41a33ba319515a20b9>@@$$QEAV<lambda_6992ecaafeb10aed2b74cb1fae11a551>@@@Z@4HA 0000000180025514 f   libucrt:per_thread_data.obj
 0001:00024514       ?fin$0@?0???$?RV<lambda_f2e299630e499de9f9a165e60fcd3db5>@@AEAV<lambda_2ae9d31cdba2644fcbeaf08da7c24588>@@V<lambda_40d01ff24d0e7b3814fdbdcee8eab3c7>@@@?$__crt_seh_guarded_call@X@@QEAAX$$QEAV<lambda_f2e299630e499de9f9a165e60fcd3db5>@@AEAV<lambda_2ae9d31cdba2644fcbeaf08da7c24588>@@$$QEAV<lambda_40d01ff24d0e7b3814fdbdcee8eab3c7>@@@Z@4HA 0000000180025514 f   libucrt:per_thread_data.obj
 0001:00024514       ?fin$0@?0???$?RV<lambda_450d765d439847d4c735a33c368b5fc0>@@AEAV<lambda_44731a7d0e6d81c3e6aa82d741081786>@@V<lambda_601a2a7da3b7a96e9554ac7215c4b07c>@@@?$__crt_seh_guarded_call@P6AXH@Z@@QEAAP6AXH@Z$$QEAV<lambda_450d765d439847d4c735a33c368b5fc0>@@AEAV<lambda_44731a7d0e6d81c3e6aa82d741081786>@@$$QEAV<lambda_601a2a7da3b7a96e9554ac7215c4b07c>@@@Z@4HA 0000000180025514 f   libucrt:signal.obj
 0001:00024514       ?fin$0@?0???$?RV<lambda_d80eeec6fff315bfe5c115232f3240e3>@@AEAV<lambda_6e4b09c48022b2350581041d5f6b0c4c>@@V<lambda_2358e3775559c9db80273638284d5e45>@@@?$__crt_seh_guarded_call@X@@QEAAX$$QEAV<lambda_d80eeec6fff315bfe5c115232f3240e3>@@AEAV<lambda_6e4b09c48022b2350581041d5f6b0c4c>@@$$QEAV<lambda_2358e3775559c9db80273638284d5e45>@@@Z@4HA 0000000180025514 f   libucrt:exit.obj
 0001:00024514       ?fin$0@?0???$?RV<lambda_638799b9deba96c50f710eeac98168cd>@@AEAV<lambda_22ebabd17bc4fa466a2aca6d8deb888d>@@V<lambda_a6f7d7db0129f75315ebf26d50c089f1>@@@?$__crt_seh_guarded_call@H@@QEAAH$$QEAV<lambda_638799b9deba96c50f710eeac98168cd>@@AEAV<lambda_22ebabd17bc4fa466a2aca6d8deb888d>@@$$QEAV<lambda_a6f7d7db0129f75315ebf26d50c089f1>@@@Z@4HA 0000000180025514 f   libucrt:onexit.obj
 0001:00024514       ?fin$0@?0???$?RV<lambda_7777bce6b2f8c936911f934f8298dc43>@@AEAV<lambda_f03950bc5685219e0bcd2087efbe011e>@@V<lambda_3883c3dff614d5e0c5f61bb1ac94921c>@@@?$__crt_seh_guarded_call@H@@QEAAH$$QEAV<lambda_7777bce6b2f8c936911f934f8298dc43>@@AEAV<lambda_f03950bc5685219e0bcd2087efbe011e>@@$$QEAV<lambda_3883c3dff614d5e0c5f61bb1ac94921c>@@@Z@4HA 0000000180025514 f   libucrt:onexit.obj
 0001:0002452e       ?filt$0@?0???R<lambda_6e4b09c48022b2350581041d5f6b0c4c>@@QEBA@XZ@4HA 000000018002552e f   libucrt:exit.obj
 0001:0002455b       _query_new_handler$fin$0   000000018002555b f   libucrt:new_handler.obj
 0001:00024571       ?fin$0@?0???$?RV<lambda_410d79af7f07d98d83a3f525b3859a53>@@AEAV<lambda_3e16ef9562a7dcce91392c22ab16ea36>@@V<lambda_38119f0e861e05405d8a144b9b982f0a>@@@?$__crt_seh_guarded_call@X@@QEAAX$$QEAV<lambda_410d79af7f07d98d83a3f525b3859a53>@@AEAV<lambda_3e16ef9562a7dcce91392c22ab16ea36>@@$$QEAV<lambda_38119f0e861e05405d8a144b9b982f0a>@@@Z@4HA 0000000180025571 f   libucrt:wsetlocale.obj
 0001:0002458b       __acrt_initialize_lowio$fin$0 000000018002558b f   libucrt:ioinit.obj
 0001:0002458b       __acrt_lowio_ensure_fh_exists$fin$0 000000018002558b f   libucrt:osfinfo.obj
 0001:000245a4       ?fin$0@?0???$?RV<lambda_efdfa57d1f175319df784efa44bb7b81>@@AEAV<lambda_5f0a4c1567f8adc6734073e5d1e1b35c>@@V<lambda_2e8a7d3640ea6ccb4c2413664c2db6fd>@@@?$__crt_seh_guarded_call@X@@QEAAX$$QEAV<lambda_efdfa57d1f175319df784efa44bb7b81>@@AEAV<lambda_5f0a4c1567f8adc6734073e5d1e1b35c>@@$$QEAV<lambda_2e8a7d3640ea6ccb4c2413664c2db6fd>@@@Z@4HA 00000001800255a4 f   libucrt:mbctype.obj
 0001:000245be       ?fin$0@?0??update_thread_multibyte_data_internal@@YAPEAU__crt_multibyte_data@@QEAU__acrt_ptd@@QEAPEAU1@@Z@4HA 00000001800255be f   libucrt:mbctype.obj
 0001:000245d7       raise$fin$0                00000001800255d7 f   libucrt:signal.obj
 0001:000245f8       ?fin$0@?0???$?RV<lambda_842d9ff0dc9ef11c61343bbaebe7f885>@@AEAV<lambda_c5860995281e5c4ce005b3de8f5874ee>@@V<lambda_d90129c13df834fdcbf8d2b88dafcf2d>@@@?$__crt_seh_guarded_call@X@@QEAAX$$QEAV<lambda_842d9ff0dc9ef11c61343bbaebe7f885>@@AEAV<lambda_c5860995281e5c4ce005b3de8f5874ee>@@$$QEAV<lambda_d90129c13df834fdcbf8d2b88dafcf2d>@@@Z@4HA 00000001800255f8 f   libucrt:fflush.obj
 0001:00024613       ?fin$0@?0???$?RV<lambda_886d6c58226a84441f68b9f2b8217b83>@@AEAV<lambda_ab61a845afdef5b7c387490eaf3616ee>@@V<lambda_f7f22ab5edc0698d5f6905b0d3f44752>@@@?$__crt_seh_guarded_call@X@@QEAAX$$QEAV<lambda_886d6c58226a84441f68b9f2b8217b83>@@AEAV<lambda_ab61a845afdef5b7c387490eaf3616ee>@@$$QEAV<lambda_f7f22ab5edc0698d5f6905b0d3f44752>@@@Z@4HA 0000000180025613 f   libucrt:fflush.obj
 0001:00024630       __acrt_update_thread_locale_data$fin$0 0000000180025630 f   libucrt:locale_refcounting.obj
 0001:00024649       _fcloseall$fin$0           0000000180025649 f   libucrt:closeall.obj
 0001:00024662       ?fin$0@?0???$?RV<lambda_ad8af0d99a0adf03d037d7dffe354bb5>@@AEAV<lambda_c9ba49e555ba839a7b07aa3fbecb7617>@@V<lambda_2f1ebd5d68526518146ae959c9e734c8>@@@?$__crt_seh_guarded_call@H@@QEAAH$$QEAV<lambda_ad8af0d99a0adf03d037d7dffe354bb5>@@AEAV<lambda_c9ba49e555ba839a7b07aa3fbecb7617>@@$$QEAV<lambda_2f1ebd5d68526518146ae959c9e734c8>@@@Z@4HA 0000000180025662 f   libucrt:close.obj
 0001:00024662       ?fin$0@?0???$?RV<lambda_a37b2b86f63e897a80ea819b0eb08c01>@@AEAV<lambda_38ce7e780aa69e748d6df282ebc68efe>@@V<lambda_99fb1378e971ab6e7edea83e3a7a83a2>@@@?$__crt_seh_guarded_call@H@@QEAAH$$QEAV<lambda_a37b2b86f63e897a80ea819b0eb08c01>@@AEAV<lambda_38ce7e780aa69e748d6df282ebc68efe>@@$$QEAV<lambda_99fb1378e971ab6e7edea83e3a7a83a2>@@@Z@4HA 0000000180025662 f   libucrt:commit.obj
 0001:0002467c       _write_internal$fin$0      000000018002567c f   libucrt:write.obj
 0001:00024693       ?fin$0@?0??_fclose_internal@@YAHQEAU_iobuf@@AEAV__crt_cached_ptd_host@@@Z@4HA 0000000180025693 f   libucrt:fclose.obj
 0001:000246ab       _ctrlfp$filt$0             00000001800256ab f   libucrt:fpctrl.obj
 0001:000246ab       common_control87$filt$0    00000001800256ab f   libucrt:ieee.obj
 0001:000246e0       _IsNonwritableInCurrentImage$filt$0 00000001800256e0 f   LIBCMT:pesect.obj
 0001:00024700       ??__F_AtlComModule@ATL@@YAXXZ 0000000180025700 f   OposVariant.obj
 0001:0002470c       ??__F_AtlWinModule@ATL@@YAXXZ 000000018002570c f   OposVariant.obj
 0001:00024750       ??__F_Module@@YAXXZ        0000000180025750 f   GraphicDisplay.obj
 0001:0002476c       ??__F_AtlBaseModule@ATL@@YAXXZ 000000018002576c f   atls:atlbase.obj
 0002:00000670       ?_AtlBaseModule$initializer$@ATL@@3P6AXXZEA 0000000180026670     atls:atlbase.obj
 0002:00000678       ?_AtlComModule$initializer$@ATL@@3P6AXXZEA 0000000180026678     OposVariant.obj
 0002:00000680       ?_AtlWinModule$initializer$@ATL@@3P6AXXZEA 0000000180026680     OposVariant.obj
 0002:00000688       ?_Module$initializer$@@3P6AXXZEA 0000000180026688     GraphicDisplay.obj
 0002:00000690       ??pConnMap$initializer$@?$IConnectionPointContainerImpl@VCOPOSGraphicDisplay@@@ATL@@0P6AXXZEA@@3P6AXXZEA 0000000180026690     GraphicDisplay.obj
 0002:000006a8       ?__scrt_initialize_tss_var@@3P6AHXZEA 00000001800266a8     LIBCMT:thread_safe_statics.obj
 0002:000027e8       GS_ExceptionPointers       00000001800287e8     LIBCMT:gs_report.obj
 0002:000029d0       ?ExceptionTemplate@?1??UnwindNestedFrames@__FrameHandler4@@SAXPEA_KPEAUEHExceptionRecord@@PEAU_CONTEXT@@0PEAXPEAUFuncInfo4@FH4@@HHPEAUHandlerType4@6@PEAU_xDISPATCHER_CONTEXT@@E@Z@4U_EXCEPTION_RECORD@@B 00000001800289d0     libvcruntime:risctrnsctrl.obj
 0002:00002a70       ?ExceptionTemplate@?1??UnwindNestedFrames@__FrameHandler3@@SAXPEA_KPEAUEHExceptionRecord@@PEAU_CONTEXT@@0PEAXPEBU_s_FuncInfo@@HHPEBU_s_HandlerType@@PEAU_xDISPATCHER_CONTEXT@@E@Z@4U_EXCEPTION_RECORD@@B 0000000180028a70     libvcruntime:risctrnsctrl.obj
 0002:00002b40       ?tokenTable@@3QBUStringLiteral@@B 0000000180028b40     libvcruntime:undname.obj
 0002:00002c50       ?nameTable@@3QBUStringLiteral@@B 0000000180028c50     libvcruntime:undname.obj
 0002:00003180       ?rttiTable@@3QBUStringLiteral@@B 0000000180029180     libvcruntime:undname.obj
 0002:000031d0       ?IndirectionName@@3QBUStringLiteral@@B 00000001800291d0     libvcruntime:undname.obj
 0002:00003230       ?PrefixName@@3QBUStringLiteral@@B 0000000180029230     libvcruntime:undname.obj
 0002:00003918       ?module_names@?A0xbc0cc709@@3QBQEB_WB 0000000180029918     libvcruntime:winapi_downlevel.obj
 0002:000039d8       ?candidate_modules@?1??try_get_FlsAlloc@@YAP6AKP6AXPEAX@Z@ZXZ@4QBW4module_id@?A0xbc0cc709@@B 00000001800299d8     libvcruntime:winapi_downlevel.obj
 0002:000039f0       ?candidate_modules@?1??try_get_FlsFree@@YAP6AHK@ZXZ@4QBW4module_id@?A0xbc0cc709@@B 00000001800299f0     libvcruntime:winapi_downlevel.obj
 0002:00003a00       ?candidate_modules@?1??try_get_FlsGetValue@@YAP6APEAXK@ZXZ@4QBW4module_id@?A0xbc0cc709@@B 0000000180029a00     libvcruntime:winapi_downlevel.obj
 0002:00003a18       ?candidate_modules@?1??try_get_FlsSetValue@@YAP6AHKPEAX@ZXZ@4QBW4module_id@?A0xbc0cc709@@B 0000000180029a18     libvcruntime:winapi_downlevel.obj
 0002:00003a30       ?candidate_modules@?1??try_get_InitializeCriticalSectionEx@@YAP6AHPEAU_RTL_CRITICAL_SECTION@@KK@ZXZ@4QBW4module_id@?A0xbc0cc709@@B 0000000180029a30     libvcruntime:winapi_downlevel.obj
 0002:00003a60       ?errtable@@3QBUerrentry@?A0x31fdb9ec@@B 0000000180029a60     libucrt:errno.obj
 0002:00003dc8       $cppxdata$?try_cor_exit_process@@YAXI@Z 0000000180029dc8     libucrt:exit.obj
 0002:00003df0       $cppxdata$?common_exit@@YAXHW4_crt_exit_cleanup_mode@@W4_crt_exit_return_mode@@@Z 0000000180029df0     libucrt:exit.obj
 0002:00003e40       $cppxdata$__dcrt_uninitialize_environments_nolock 0000000180029e40     libucrt:environment_initialization.obj
 0002:00003e68       $cppxdata$_execute_onexit_table 0000000180029e68     libucrt:onexit.obj
 0002:00003e90       __acrt_initializers        0000000180029e90     libucrt:initialization.obj
 0002:00004610       ?module_names@?A0x391cf84c@@3QBQEB_WB 000000018002a610     libucrt:winapi_thunks.obj
 0002:00004b18       ?candidate_modules@?1??try_get_AreFileApisANSI@@YAP6AHXZXZ@4QBW4module_id@?A0x391cf84c@@B 000000018002ab18     libucrt:winapi_thunks.obj
 0002:00004b30       ?candidate_modules@?1??try_get_InitializeCriticalSectionEx@@YAP6AHPEAU_RTL_CRITICAL_SECTION@@KK@ZXZ@4QBW4module_id@?A0x391cf84c@@B 000000018002ab30     libucrt:winapi_thunks.obj
 0002:00004b38       ?candidate_modules@?1??try_get_LCMapStringEx@@YAP6AHPEB_WK0HPEA_WHPEAU_nlsversioninfo@@PEAX_J@ZXZ@4QBW4module_id@?A0x391cf84c@@B 000000018002ab38     libucrt:winapi_thunks.obj
 0002:00004b50       ?candidate_modules@?1??try_get_LocaleNameToLCID@@YAP6AKPEB_WK@ZXZ@4QBW4module_id@?A0x391cf84c@@B 000000018002ab50     libucrt:winapi_thunks.obj
 0002:00004b6c       ?candidate_modules@?1??try_get_AppPolicyGetProcessTerminationMethod@@YAP6AJPEAXPEAW4AppPolicyProcessTerminationMethod@@@ZXZ@4QBW4module_id@?A0x391cf84c@@B 000000018002ab6c     libucrt:winapi_thunks.obj
 0002:00004b98       ?candidate_modules@?1??try_get_SetThreadStackGuarantee@@YAP6AHPEAK@ZXZ@4QBW4module_id@?A0x391cf84c@@B 000000018002ab98     libucrt:winapi_thunks.obj
 0002:00004bc0       ?strings@?1??fp_format_nan_or_infinity@@YAHW4__acrt_fp_class@@_NPEAD_K1@Z@4QAY03QEBDA 000000018002abc0     libucrt:cvt.obj
 0002:00004c98       ?_mb_locale_names@@3QBQEB_WB 000000018002ac98     libucrt:mbctype.obj
 0002:00005310       ?LcidToLocaleNameTable@?A0x881e4c05@@3QBULcidToLocaleName@1@B 000000018002b310     libucrt:lcidtoname_downlevel.obj
 0002:00006d60       ?LocaleNameToIndexTable@?A0x881e4c05@@3QBULocaleNameIndex@1@B 000000018002cd60     libucrt:lcidtoname_downlevel.obj
 0002:00008ff0       $cppxdata$?write_double_translated_ansi_nolock@@YA?AUwrite_result@?A0x17268360@@HQEBDIAEAV__crt_cached_ptd_host@@@Z 000000018002eff0     libucrt:write.obj
 0002:00009020       __real_ninf                000000018002f020     libucrt:log10.obj
 0002:00009030       __real_inf                 000000018002f030     libucrt:log10.obj
 0002:00009040       __real_neg_qnan            000000018002f040     libucrt:log10.obj
 0002:00009050       __real_qnanbit             000000018002f050     libucrt:log10.obj
 0002:00009060       __int_1023                 000000018002f060     libucrt:log10.obj
 0002:00009070       __mask_001                 000000018002f070     libucrt:log10.obj
 0002:00009080       __mask_mant                000000018002f080     libucrt:log10.obj
 0002:00009090       __mask_mant_top8           000000018002f090     libucrt:log10.obj
 0002:000090a0       __mask_mant9               000000018002f0a0     libucrt:log10.obj
 0002:000090b0       __real_log10_e             000000018002f0b0     libucrt:log10.obj
 0002:000090c0       __real_log10_e_lead        000000018002f0c0     libucrt:log10.obj
 0002:000090d0       __real_log10_e_tail        000000018002f0d0     libucrt:log10.obj
 0002:000090e0       __real_log10_2_lead        000000018002f0e0     libucrt:log10.obj
 0002:000090f0       __real_log10_2_tail        000000018002f0f0     libucrt:log10.obj
 0002:00009100       __real_two                 000000018002f100     libucrt:log10.obj
 0002:00009110       __real_one                 000000018002f110     libucrt:log10.obj
 0002:00009120       __real_half                000000018002f120     libucrt:log10.obj
 0002:00009130       __mask_100                 000000018002f130     libucrt:log10.obj
 0002:00009140       __real_1_over_512          000000018002f140     libucrt:log10.obj
 0002:00009150       __real_1_over_2            000000018002f150     libucrt:log10.obj
 0002:00009160       __real_1_over_3            000000018002f160     libucrt:log10.obj
 0002:00009170       __real_1_over_4            000000018002f170     libucrt:log10.obj
 0002:00009180       __real_1_over_5            000000018002f180     libucrt:log10.obj
 0002:00009190       __real_1_over_6            000000018002f190     libucrt:log10.obj
 0002:000091a0       __real_neg_1023            000000018002f1a0     libucrt:log10.obj
 0002:000091b0       __mask_2045                000000018002f1b0     libucrt:log10.obj
 0002:000091c0       __real_threshold           000000018002f1c0     libucrt:log10.obj
 0002:000091d0       __real_near_one_lt         000000018002f1d0     libucrt:log10.obj
 0002:000091e0       __real_near_one_gt         000000018002f1e0     libucrt:log10.obj
 0002:000091f0       __real_min_norm            000000018002f1f0     libucrt:log10.obj
 0002:00009200       __real_notsign             000000018002f200     libucrt:log10.obj
 0002:00009210       __real_ca1                 000000018002f210     libucrt:log10.obj
 0002:00009220       __real_ca2                 000000018002f220     libucrt:log10.obj
 0002:00009230       __real_ca3                 000000018002f230     libucrt:log10.obj
 0002:00009240       __real_ca4                 000000018002f240     libucrt:log10.obj
 0002:00009250       __mask_lower               000000018002f250     libucrt:log10.obj
 0002:00009260       __flag_x_zero              000000018002f260     libucrt:log10.obj
 0002:00009264       __flag_x_neg               000000018002f264     libucrt:log10.obj
 0002:00009268       __flag_x_nan               000000018002f268     libucrt:log10.obj
 0002:0000aac0       __real@433fffffffffffff    0000000180030ac0     libucrt:fpsr.obj
 0002:0000aac8       __real@c33fffffffffffff    0000000180030ac8     libucrt:fpsr.obj
 0002:0000b3d0       $unwind$?cw_memcpy@@YAHPEA_WPEBDH@Z 00000001800313d0     CWString.obj
 0002:0000b3d0       $unwind$_invalid_parameter_noinfo 00000001800313d0     libucrt:invalid_parameter.obj
 0002:0000b3d0       $unwind$?state_case_size@?$output_processor@_WV?$string_output_adapter@_W@__crt_stdio_output@@V?$format_validation_base@_WV?$string_output_adapter@_W@__crt_stdio_output@@@2@@__crt_stdio_output@@AEAA_NXZ 00000001800313d0     libucrt:output.obj
 0002:0000b3d0       $unwind$_log10_special     00000001800313d0     libucrt:log_special.obj
 0002:0000b3d8       $unwind$?cw_strcpy@@YAHPEA_WPEBD@Z 00000001800313d8     CWString.obj
 0002:0000b3d8       $unwind$??__E?pConnMap@?$IConnectionPointContainerImpl@VCOPOSGraphicDisplay@@@ATL@@0PEBU_ATL_CONNMAP_ENTRY@2@EB@@YAXXZ 00000001800313d8     GraphicDisplay.obj
 0002:0000b3d8       $unwind$?AddReplacement@CRegObject@ATL@@UEAAJPEB_W0@Z 00000001800313d8     GraphicDisplay.obj
 0002:0000b3d8       $unwind$?AtlHresultFromLastError@ATL@@YAJXZ 00000001800313d8     GraphicDisplay.obj
 0002:0000b3d8       $unwind$?AtlThrowImpl@ATL@@YAXJ@Z 00000001800313d8     GraphicDisplay.obj
 0002:0000b3d8       $unwind$?CreateInstance@CComClassFactory@ATL@@UEAAJPEAUIUnknown@@AEBU_GUID@@PEAPEAX@Z 00000001800313d8     GraphicDisplay.obj
 0002:0000b3d8       $unwind$?DefaultReflectionHandler@?$CWindowImplRoot@VCWindow@ATL@@@ATL@@SAHPEAUHWND__@@I_K_JAEA_J@Z 00000001800313d8     GraphicDisplay.obj
 0002:0000b3d8       $unwind$?EnumAdvise@?$IOleObjectImpl@VCOPOSGraphicDisplay@@@ATL@@UEAAJPEAPEAUIEnumSTATDATA@@@Z 00000001800313d8     GraphicDisplay.obj
 0002:0000b3d8       $unwind$?FireViewChange@CComControlBase@ATL@@QEAAJXZ 00000001800313d8     GraphicDisplay.obj
 0002:0000b3d8       $unwind$?GetAdvise@?$IViewObjectExImpl@VCOPOSGraphicDisplay@@@ATL@@UEAAJPEAK0PEAPEAUIAdviseSink@@@Z 00000001800313d8     GraphicDisplay.obj
 0002:0000b3d8       $unwind$?LockServer@CComClassFactory@ATL@@UEAAJH@Z 00000001800313d8     GraphicDisplay.obj
 0002:0000b3d8       $unwind$?OnDocWindowActivate@?$IOleInPlaceActiveObjectImpl@VCOPOSGraphicDisplay@@@ATL@@UEAAJH@Z 00000001800313d8     GraphicDisplay.obj
 0002:0000b3d8       $unwind$?Unadvise@?$IOleObjectImpl@VCOPOSGraphicDisplay@@@ATL@@UEAAJK@Z 00000001800313d8     GraphicDisplay.obj
 0002:0000b3d8       $unwind$?_LocCPQueryInterface@?$IConnectionPointImpl@VCOPOSGraphicDisplay@@$1?DIID__IOPOSGraphicDisplayEvents@@3U_GUID@@BVCComDynamicUnkArray@ATL@@@ATL@@UEAAJAEBU_GUID@@PEAPEAX@Z 00000001800313d8     GraphicDisplay.obj
 0002:0000b3d8       $unwind$?_LocCPQueryInterface@?$IConnectionPointImpl@VCOPOSGraphicDisplay@@$1?IID_IPropertyNotifySink@@3U_GUID@@BVCComDynamicUnkArray@ATL@@@ATL@@UEAAJAEBU_GUID@@PEAPEAX@Z 00000001800313d8     GraphicDisplay.obj
 0002:0000b3d8       $unwind$?FinalConstruct@COPOSGraphicDisplay@@QEAAJXZ 00000001800313d8     GraphicDisplayImpl.obj
 0002:0000b3d8       $unwind$?get_ResultCode@COPOSGraphicDisplay@@UEAAJPEAJ@Z 00000001800313d8     GraphicDisplayImpl.obj
 0002:0000b3d8       $unwind$?get_State@COPOSGraphicDisplay@@UEAAJPEAJ@Z 00000001800313d8     GraphicDisplayImpl.obj
 0002:0000b3d8       $unwind$??1OposDispParms@@QEAA@XZ 00000001800313d8     OposVariant.obj
 0002:0000b3d8       $unwind$??__E_AtlComModule@ATL@@YAXXZ 00000001800313d8     OposVariant.obj
 0002:0000b3d8       $unwind$??__E_AtlWinModule@ATL@@YAXXZ 00000001800313d8     OposVariant.obj
 0002:0000b3d8       $unwind$??__F_AtlWinModule@ATL@@YAXXZ 00000001800313d8     OposVariant.obj
 0002:0000b3d8       $unwind$?GetLONG@OposVariant@@QEAAJXZ 00000001800313d8     OposVariant.obj
 0002:0000b3d8       $unwind$__dcrt_terminate_console_output 00000001800313d8     libucrt:initcon.obj
 0002:0000b3d8       $unwind$??$uninitialize_environment_internal@D@@YAXAEAPEAPEAD@Z 00000001800313d8     libucrt:environment_initialization.obj
 0002:0000b3d8       $unwind$??$uninitialize_environment_internal@_W@@YAXAEAPEAPEA_W@Z 00000001800313d8     libucrt:environment_initialization.obj
 0002:0000b3d8       $unwind$__acrt_initialize_heap 00000001800313d8     libucrt:heap_handle.obj
 0002:0000b3d8       $unwind$_msize_base        00000001800313d8     libucrt:msize.obj
 0002:0000b3d8       $unwind$?initialize_multibyte@@YAHXZ 00000001800313d8     libucrt:multibyte_initializer.obj
 0002:0000b3d8       $unwind$__acrt_thread_attach 00000001800313d8     libucrt:initialization.obj
 0002:0000b3d8       $unwind$__acrt_thread_detach 00000001800313d8     libucrt:initialization.obj
 0002:0000b3d8       $unwind$__acrt_uninitialize 00000001800313d8     libucrt:initialization.obj
 0002:0000b3d8       $unwind$__acrt_uninitialize_critical 00000001800313d8     libucrt:initialization.obj
 0002:0000b3d8       $unwind$initialize_c       00000001800313d8     libucrt:initialization.obj
 0002:0000b3d8       $unwind$uninitialize_allocated_io_buffers 00000001800313d8     libucrt:initialization.obj
 0002:0000b3d8       $unwind$uninitialize_environment 00000001800313d8     libucrt:initialization.obj
 0002:0000b3d8       $unwind$__acrt_initialize_ptd 00000001800313d8     libucrt:per_thread_data.obj
 0002:0000b3d8       $unwind$__acrt_uninitialize_ptd 00000001800313d8     libucrt:per_thread_data.obj
 0002:0000b3d8       $unwind$__acrt_AreFileApisANSI 00000001800313d8     libucrt:winapi_thunks.obj
 0002:0000b3d8       $unwind$__acrt_release_locale_ref 00000001800313d8     libucrt:locale_refcounting.obj
 0002:0000b3d8       $unwind$_isatty            00000001800313d8     libucrt:isatty.obj
 0002:0000b3d8       $unwind$_get_osfhandle     00000001800313d8     libucrt:osfinfo.obj
 0002:0000b3d8       $unwind$__acrt_initialize_multibyte 00000001800313d8     libucrt:mbctype.obj
 0002:0000b3d8       $unwind$__acrt_update_thread_multibyte_data 00000001800313d8     libucrt:mbctype.obj
 0002:0000b3d8       $unwind$__doserrno         00000001800313d8     libucrt:errno.obj
 0002:0000b3d8       $unwind$_errno             00000001800313d8     libucrt:errno.obj
 0002:0000b3d8       $unwind$_invoke_watson     00000001800313d8     libucrt:invalid_parameter.obj
 0002:0000b3d8       $unwind$abort              00000001800313d8     libucrt:abort.obj
 0002:0000b3d8       $unwind$__acrt_initialize_command_line 00000001800313d8     libucrt:argv_data.obj
 0002:0000b3d8       $unwind$?should_call_terminate_process@@YA_NXZ 00000001800313d8     libucrt:exit.obj
 0002:0000b3d8       $unwind$_fileno            00000001800313d8     libucrt:fileno.obj
 0002:0000b3d8       $unwind$_statfp            00000001800313d8     libucrt:fpctrl.obj
 0002:0000b3d8       $unwind$fegetround         00000001800313d8     libucrt:fegetround.obj
 0002:0000b3d8       $unwind$_set_errno_from_matherr 00000001800313d8     libucrt:fpexcept.obj
 0002:0000b3d8       $unwind$??__E_AtlBaseModule@ATL@@YAXXZ 00000001800313d8     atls:atlbase.obj
 0002:0000b3d8       $unwind$__scrt_initialize_default_local_stdio_options 00000001800313d8     LIBCMT:default_local_stdio_options.obj
 0002:0000b3d8       $unwind$?dllmain_crt_dispatch@@YAHQEAUHINSTANCE__@@KQEAX@Z 00000001800313d8     LIBCMT:dll_dllmain.obj
 0002:0000b3d8       $unwind$__report_rangecheckfailure 00000001800313d8     LIBCMT:gs_report.obj
 0002:0000b3d8       $unwind$__GSHandlerCheck   00000001800313d8     LIBCMT:gshandler.obj
 0002:0000b3d8       $unwind$?__scrt_uninitialize_thread_safe_statics@@YAXXZ 00000001800313d8     LIBCMT:thread_safe_statics.obj
 0002:0000b3d8       $unwind$_Init_thread_notify 00000001800313d8     LIBCMT:thread_safe_statics.obj
 0002:0000b3d8       $unwind$__scrt_acquire_startup_lock 00000001800313d8     LIBCMT:utility.obj
 0002:0000b3d8       $unwind$__scrt_dllmain_after_initialize_c 00000001800313d8     LIBCMT:utility.obj
 0002:0000b3d8       $unwind$__scrt_dllmain_before_initialize_c 00000001800313d8     LIBCMT:utility.obj
 0002:0000b3d8       $unwind$__scrt_dllmain_crt_thread_attach 00000001800313d8     LIBCMT:utility.obj
 0002:0000b3d8       $unwind$__scrt_dllmain_crt_thread_detach 00000001800313d8     LIBCMT:utility.obj
 0002:0000b3d8       $unwind$__scrt_dllmain_uninitialize_c 00000001800313d8     LIBCMT:utility.obj
 0002:0000b3d8       $unwind$__scrt_dllmain_uninitialize_critical 00000001800313d8     LIBCMT:utility.obj
 0002:0000b3d8       $unwind$atexit             00000001800313d8     LIBCMT:utility.obj
 0002:0000b3d8       $unwind$__std_terminate    00000001800313d8     libvcruntime:ehhelpers.obj
 0002:0000b3d8       $unwind$?GetCurrentState@__FrameHandler3@@SAHPEA_KPEAU_xDISPATCHER_CONTEXT@@PEBU_s_FuncInfo@@@Z 00000001800313d8     libvcruntime:ehstate.obj
 0002:0000b3d8       $unwind$__vcrt_initialize  00000001800313d8     libvcruntime:initialization.obj
 0002:0000b3d8       $unwind$__vcrt_thread_attach 00000001800313d8     libvcruntime:initialization.obj
 0002:0000b3d8       $unwind$__vcrt_thread_detach 00000001800313d8     libvcruntime:initialization.obj
 0002:0000b3d8       $unwind$__vcrt_uninitialize 00000001800313d8     libvcruntime:initialization.obj
 0002:0000b3d8       $unwind$__vcrt_uninitialize_critical 00000001800313d8     libvcruntime:initialization.obj
 0002:0000b3d8       $unwind$__vcrt_freefls     00000001800313d8     libvcruntime:per_thread_data.obj
 0002:0000b3d8       $unwind$__vcrt_getptd      00000001800313d8     libvcruntime:per_thread_data.obj
 0002:0000b3d8       $unwind$__vcrt_initialize_ptd 00000001800313d8     libvcruntime:per_thread_data.obj
 0002:0000b3d8       $unwind$__vcrt_uninitialize_ptd 00000001800313d8     libvcruntime:per_thread_data.obj
 0002:0000b3d8       $unwind$_purecall          00000001800313d8     libvcruntime:purevirt.obj
 0002:0000b3d8       $unwind$?FrameUnwindToEmptyState@__FrameHandler4@@SAXPEA_KPEAU_xDISPATCHER_CONTEXT@@PEAUFuncInfo4@FH4@@@Z 00000001800313d8     libvcruntime:risctrnsctrl.obj
 0002:0000b3d8       $unwind$_GetImageBase      00000001800313d8     libvcruntime:risctrnsctrl.obj
 0002:0000b3d8       $unwind$_GetThrowImageBase 00000001800313d8     libvcruntime:risctrnsctrl.obj
 0002:0000b3e0       $unwind$?cw_dup@@YAXPEBDAEAHAEAPEA_W1@Z 00000001800313e0     CWString.obj
 0002:0000b3e0       $unwind$?DAdvise@?$IDataObjectImpl@VCOPOSGraphicDisplay@@@ATL@@UEAAJPEAUtagFORMATETC@@KPEAUIAdviseSink@@PEAK@Z 00000001800313e0     GraphicDisplay.obj
 0002:0000b3e0       $unwind$??$create_environment@D@@YAQEAPEADQEAD@Z 00000001800313e0     libucrt:environment_initialization.obj
 0002:0000b3e0       $unwind$_mbtowc_internal   00000001800313e0     libucrt:mbtowc.obj
 0002:0000b3e0       $unwind$??$__acrt_convert_wcs_mbs_cp@D_WV<lambda_7c9dea7b4ca7285d2cdb541a38da6275>@@U__crt_win32_buffer_internal_dynamic_resizing@@@@YAHQEBDAEAV?$__crt_win32_buffer@_WU__crt_win32_buffer_internal_dynamic_resizing@@@@AEBV<lambda_7c9dea7b4ca7285d2cdb541a38da6275>@@I@Z 00000001800313e0     libucrt:argv_wildcards.obj
 0002:0000b3e0       $unwind$?process@?$output_processor@_WV?$string_output_adapter@_W@__crt_stdio_output@@V?$format_validation_base@_WV?$string_output_adapter@_W@__crt_stdio_output@@@2@@__crt_stdio_output@@QEAAHXZ 00000001800313e0     libucrt:output.obj
 0002:0000b3f8       $unwind$?DupWide@_CW@@AEAAXXZ 00000001800313f8     CWString.obj
 0002:0000b3f8       $unwind$??0?$CComObject@VCOPOSGraphicDisplay@@@ATL@@QEAA@PEAX@Z 00000001800313f8     GraphicDisplay.obj
 0002:0000b3f8       $unwind$??0CAtlModule@ATL@@QEAA@XZ 00000001800313f8     GraphicDisplay.obj
 0002:0000b3f8       $unwind$??1?$CComObject@VCOPOSGraphicDisplay@@@ATL@@UEAA@XZ 00000001800313f8     GraphicDisplay.obj
 0002:0000b3f8       $unwind$??__E_Module@@YAXXZ 00000001800313f8     GraphicDisplay.obj
 0002:0000b3f8       $unwind$?AddRef@?$CComObjectCached@VCComClassFactory@ATL@@@ATL@@UEAAKXZ 00000001800313f8     GraphicDisplay.obj
 0002:0000b3f8       $unwind$?AllocateHeap@?$CTempBuffer@E$0BAA@VCCRTAllocator@ATL@@@ATL@@AEAAX_K@Z 00000001800313f8     GraphicDisplay.obj
 0002:0000b3f8       $unwind$?AllocateHeap@?$CTempBuffer@_W$0BAA@VCCRTAllocator@ATL@@@ATL@@AEAAX_K@Z 00000001800313f8     GraphicDisplay.obj
 0002:0000b3f8       $unwind$?AllocateHeap@?$CTempBuffer@_W$0EAA@VCCRTAllocator@ATL@@@ATL@@AEAAX_K@Z 00000001800313f8     GraphicDisplay.obj
 0002:0000b3f8       $unwind$?GetClassInfoW@?$IProvideClassInfo2Impl@$1?CLSID_OPOSGraphicDisplay@@3U_GUID@@B$1?DIID__IOPOSGraphicDisplayEvents@@3U2@B$1?LIBID_OposGraphicDisplay_CCO@@3U2@B$00$0A@VCComTypeInfoHolder@ATL@@@ATL@@UEAAJPEAPEAUITypeInfo@@@Z 00000001800313f8     GraphicDisplay.obj
 0002:0000b3f8       $unwind$?GetClientSite@?$IOleObjectImpl@VCOPOSGraphicDisplay@@@ATL@@UEAAJPEAPEAUIOleClientSite@@@Z 00000001800313f8     GraphicDisplay.obj
 0002:0000b3f8       $unwind$?GetConnMap@COPOSGraphicDisplay@@SAPEBU_ATL_CONNMAP_ENTRY@ATL@@PEAH@Z 00000001800313f8     GraphicDisplay.obj
 0002:0000b3f8       $unwind$?GetTypeInfo@?$IDispatchImpl@UIOPOSGraphicDisplay@@$1?IID_IOPOSGraphicDisplay@@3U_GUID@@B$1?LIBID_OposGraphicDisplay_CCO@@3U3@B$00$0A@VCComTypeInfoHolder@ATL@@@ATL@@UEAAJIKPEAPEAUITypeInfo@@@Z 00000001800313f8     GraphicDisplay.obj
 0002:0000b3f8       $unwind$?IOleInPlaceObject_InPlaceDeactivate@CComControlBase@ATL@@QEAAJXZ 00000001800313f8     GraphicDisplay.obj
 0002:0000b3f8       $unwind$?IOleObject_SetExtent@CComControlBase@ATL@@QEAAJKPEAUtagSIZE@@@Z 00000001800313f8     GraphicDisplay.obj
 0002:0000b3f8       $unwind$?IsEqualObject@?$CComPtrBase@UIOleClientSite@@@ATL@@QEAA_NPEAUIUnknown@@@Z 00000001800313f8     GraphicDisplay.obj
 0002:0000b3f8       $unwind$?QueryHitPoint@?$IViewObjectExImpl@VCOPOSGraphicDisplay@@@ATL@@UEAAJKPEBUtagRECT@@UtagPOINT@@JPEAK@Z 00000001800313f8     GraphicDisplay.obj
 0002:0000b3f8       $unwind$?QueryInterface@?$CComAggObject@VCOPOSGraphicDisplay@@@ATL@@UEAAJAEBU_GUID@@PEAPEAX@Z 00000001800313f8     GraphicDisplay.obj
 0002:0000b3f8       $unwind$?Release@?$CComObjectCached@VCComClassFactory@ATL@@@ATL@@UEAAKXZ 00000001800313f8     GraphicDisplay.obj
 0002:0000b3f8       $unwind$?Unadvise@?$IConnectionPointImpl@VCOPOSGraphicDisplay@@$1?DIID__IOPOSGraphicDisplayEvents@@3U_GUID@@BVCComDynamicUnkArray@ATL@@@ATL@@UEAAJK@Z 00000001800313f8     GraphicDisplay.obj
 0002:0000b3f8       $unwind$?Unadvise@?$IConnectionPointImpl@VCOPOSGraphicDisplay@@$1?IID_IPropertyNotifySink@@3U_GUID@@BVCComDynamicUnkArray@ATL@@@ATL@@UEAAJK@Z 00000001800313f8     GraphicDisplay.obj
 0002:0000b3f8       $unwind$??1CComControlBase@ATL@@UEAA@XZ 00000001800313f8     GraphicDisplayImpl.obj
 0002:0000b3f8       $unwind$??1COPOSGraphicDisplay@@UEAA@XZ 00000001800313f8     GraphicDisplayImpl.obj
 0002:0000b3f8       $unwind$?EventUninit@COPOSGraphicDisplay@@IEAAXXZ 00000001800313f8     GraphicDisplayImpl.obj
 0002:0000b3f8       $unwind$?FreezeEvents@COPOSGraphicDisplay@@MEAAJH@Z 00000001800313f8     GraphicDisplayImpl.obj
 0002:0000b3f8       $unwind$?SOProcessID@COPOSGraphicDisplay@@UEAAJPEAJ@Z 00000001800313f8     GraphicDisplayImpl.obj
 0002:0000b3f8       $unwind$?get_CapBrightness@COPOSGraphicDisplay@@UEAAJPEAF@Z 00000001800313f8     GraphicDisplayImpl.obj
 0002:0000b3f8       $unwind$?get_CapCompareFirmwareVersion@COPOSGraphicDisplay@@UEAAJPEAF@Z 00000001800313f8     GraphicDisplayImpl.obj
 0002:0000b3f8       $unwind$?get_CapImageType@COPOSGraphicDisplay@@UEAAJPEAF@Z 00000001800313f8     GraphicDisplayImpl.obj
 0002:0000b3f8       $unwind$?get_CapStatisticsReporting@COPOSGraphicDisplay@@UEAAJPEAF@Z 00000001800313f8     GraphicDisplayImpl.obj
 0002:0000b3f8       $unwind$?get_CapURLBack@COPOSGraphicDisplay@@UEAAJPEAF@Z 00000001800313f8     GraphicDisplayImpl.obj
 0002:0000b3f8       $unwind$?get_CapURLForward@COPOSGraphicDisplay@@UEAAJPEAF@Z 00000001800313f8     GraphicDisplayImpl.obj
 0002:0000b3f8       $unwind$?get_CapUpdateFirmware@COPOSGraphicDisplay@@UEAAJPEAF@Z 00000001800313f8     GraphicDisplayImpl.obj
 0002:0000b3f8       $unwind$?get_CapUpdateStatistics@COPOSGraphicDisplay@@UEAAJPEAF@Z 00000001800313f8     GraphicDisplayImpl.obj
 0002:0000b3f8       $unwind$?get_CapVideoType@COPOSGraphicDisplay@@UEAAJPEAF@Z 00000001800313f8     GraphicDisplayImpl.obj
 0002:0000b3f8       $unwind$?get_CapVolume@COPOSGraphicDisplay@@UEAAJPEAF@Z 00000001800313f8     GraphicDisplayImpl.obj
 0002:0000b3f8       $unwind$?get_Claimed@COPOSGraphicDisplay@@UEAAJPEAF@Z 00000001800313f8     GraphicDisplayImpl.obj
 0002:0000b3f8       $unwind$?get_DeviceEnabled@COPOSGraphicDisplay@@UEAAJPEAF@Z 00000001800313f8     GraphicDisplayImpl.obj
 0002:0000b3f8       $unwind$?get_FreezeEvents@COPOSGraphicDisplay@@UEAAJPEAF@Z 00000001800313f8     GraphicDisplayImpl.obj
 0002:0000b3f8       $unwind$?put_FreezeEvents@COPOSGraphicDisplay@@UEAAJF@Z 00000001800313f8     GraphicDisplayImpl.obj
 0002:0000b3f8       $unwind$??0CAtlComModule@ATL@@QEAA@XZ 00000001800313f8     OposVariant.obj
 0002:0000b3f8       $unwind$??0CAtlWinModule@ATL@@QEAA@XZ 00000001800313f8     OposVariant.obj
 0002:0000b3f8       $unwind$_calloc_base       00000001800313f8     libucrt:calloc_base.obj
 0002:0000b3f8       $unwind$_malloc_base       00000001800313f8     libucrt:malloc_base.obj
 0002:0000b3f8       $unwind$_callnewh          00000001800313f8     libucrt:new_handler.obj
 0002:0000b3f8       $unwind$initialize_pointers 00000001800313f8     libucrt:initialization.obj
 0002:0000b3f8       $unwind$uninitialize_allocated_memory 00000001800313f8     libucrt:initialization.obj
 0002:0000b3f8       $unwind$__acrt_initialize_locks 00000001800313f8     libucrt:locks.obj
 0002:0000b3f8       $unwind$__acrt_uninitialize_locks 00000001800313f8     libucrt:locks.obj
 0002:0000b3f8       $unwind$__acrt_freeptd     00000001800313f8     libucrt:per_thread_data.obj
 0002:0000b3f8       $unwind$__acrt_getptd_head 00000001800313f8     libucrt:per_thread_data.obj
 0002:0000b3f8       $unwind$__acrt_get_process_end_policy 00000001800313f8     libucrt:win_policies.obj
 0002:0000b3f8       $unwind$__acrt_AppPolicyGetProcessTerminationMethodInternal 00000001800313f8     libucrt:winapi_thunks.obj
 0002:0000b3f8       $unwind$__acrt_SetThreadStackGuarantee 00000001800313f8     libucrt:winapi_thunks.obj
 0002:0000b3f8       $unwind$__acrt_uninitialize_winapi_thunks 00000001800313f8     libucrt:winapi_thunks.obj
 0002:0000b3f8       $unwind$__acrt_update_locale_info 00000001800313f8     libucrt:locale_update.obj
 0002:0000b3f8       $unwind$__acrt_update_locale_info_explicit 00000001800313f8     libucrt:locale_update.obj
 0002:0000b3f8       $unwind$__acrt_update_multibyte_info 00000001800313f8     libucrt:locale_update.obj
 0002:0000b3f8       $unwind$__acrt_update_multibyte_info_explicit 00000001800313f8     libucrt:locale_update.obj
 0002:0000b3f8       $unwind$__acrt_errno_map_os_error 00000001800313f8     libucrt:errno.obj
 0002:0000b3f8       $unwind$__acrt_errno_map_os_error_ptd 00000001800313f8     libucrt:errno.obj
 0002:0000b3f8       $unwind$__acrt_allocate_buffer_for_argv 00000001800313f8     libucrt:argv_parsing.obj
 0002:0000b3f8       $unwind$?exit_or_terminate_process@@YAXI@Z 00000001800313f8     libucrt:exit.obj
 0002:0000b3f8       $unwind$__acrt_uninitialize_stdio 00000001800313f8     libucrt:_file.obj
 0002:0000b3f8       $unwind$__acrt_stdio_free_buffer_nolock 00000001800313f8     libucrt:_freebuf.obj
 0002:0000b3f8       $unwind$strcpy_s           00000001800313f8     libucrt:strcpy_s.obj
 0002:0000b3f8       $unwind$wcscat_s           00000001800313f8     libucrt:wcscat_s.obj
 0002:0000b3f8       $unwind$wcscpy_s           00000001800313f8     libucrt:wcscpy_s.obj
 0002:0000b3f8       $unwind$_clrfp             00000001800313f8     libucrt:fpctrl.obj
 0002:0000b3f8       $unwind$_set_statfp        00000001800313f8     libucrt:fpctrl.obj
 0002:0000b3f8       $unwind$_clearfp           00000001800313f8     libucrt:ieee.obj
 0002:0000b3f8       $unwind$_controlfp_s       00000001800313f8     libucrt:contrlfp.obj
 0002:0000b3f8       $unwind$fegetenv           00000001800313f8     libucrt:fegetenv.obj
 0002:0000b3f8       $unwind$feholdexcept       00000001800313f8     libucrt:feholdexcept.obj
 0002:0000b3f8       $unwind$fesetenv           00000001800313f8     libucrt:fesetenv.obj
 0002:0000b3f8       $unwind$??1CAtlBaseModule@ATL@@QEAA@XZ 00000001800313f8     atls:atlbase.obj
 0002:0000b3f8       $unwind$AtlThunk_AllocateData 00000001800313f8     atls:atlthunk.obj
 0002:0000b3f8       $unwind$__raise_securityfailure 00000001800313f8     LIBCMT:gs_report.obj
 0002:0000b3f8       $unwind$??2@YAPEAX_K@Z     00000001800313f8     LIBCMT:new_scalar.obj
 0002:0000b3f8       $unwind$??_Gtype_info@@UEAAPEAXI@Z 00000001800313f8     LIBCMT:std_type_info_static.obj
 0002:0000b3f8       $unwind$_Init_thread_footer 00000001800313f8     LIBCMT:thread_safe_statics.obj
 0002:0000b3f8       $unwind$_Init_thread_header 00000001800313f8     LIBCMT:thread_safe_statics.obj
 0002:0000b3f8       $unwind$_Init_thread_wait  00000001800313f8     LIBCMT:thread_safe_statics.obj
 0002:0000b3f8       $unwind$??0bad_alloc@std@@QEAA@AEBV01@@Z 00000001800313f8     LIBCMT:throw_bad_alloc.obj
 0002:0000b3f8       $unwind$??0bad_array_new_length@std@@QEAA@AEBV01@@Z 00000001800313f8     LIBCMT:throw_bad_alloc.obj
 0002:0000b3f8       $unwind$??0exception@std@@QEAA@AEBV01@@Z 00000001800313f8     LIBCMT:throw_bad_alloc.obj
 0002:0000b3f8       $unwind$__scrt_initialize_crt 00000001800313f8     LIBCMT:utility.obj
 0002:0000b3f8       $unwind$__scrt_initialize_onexit_tables 00000001800313f8     LIBCMT:utility.obj
 0002:0000b3f8       $unwind$__scrt_release_startup_lock 00000001800313f8     LIBCMT:utility.obj
 0002:0000b3f8       $unwind$__scrt_uninitialize_crt 00000001800313f8     LIBCMT:utility.obj
 0002:0000b3f8       $unwind$_onexit            00000001800313f8     LIBCMT:utility.obj
 0002:0000b3f8       $unwind$_IsExceptionObjectToBeDestroyed 00000001800313f8     libvcruntime:ehhelpers.obj
 0002:0000b3f8       $unwind$?GetUnwindTryBlock@__FrameHandler3@@SAHPEA_KPEAU_xDISPATCHER_CONTEXT@@PEBU_s_FuncInfo@@@Z 00000001800313f8     libvcruntime:ehstate.obj
 0002:0000b3f8       $unwind$?StateFromIp@__FrameHandler3@@SAHPEBU_s_FuncInfo@@PEAU_xDISPATCHER_CONTEXT@@_K@Z 00000001800313f8     libvcruntime:ehstate.obj
 0002:0000b3f8       $unwind$??0HandlerMap4@FH4@@QEAA@PEBUTryBlockMapEntry4@1@_KH@Z 00000001800313f8     libvcruntime:frame.obj
 0002:0000b3f8       $unwind$??0bad_exception@std@@QEAA@AEBV01@@Z 00000001800313f8     libvcruntime:frame.obj
 0002:0000b3f8       $unwind$__vcrt_initialize_locks 00000001800313f8     libvcruntime:locks.obj
 0002:0000b3f8       $unwind$__vcrt_uninitialize_locks 00000001800313f8     libvcruntime:locks.obj
 0002:0000b3f8       $unwind$__vcrt_freeptd     00000001800313f8     libvcruntime:per_thread_data.obj
 0002:0000b3f8       $unwind$?ExecutionInCatch@__FrameHandler3@@SA_NPEAU_xDISPATCHER_CONTEXT@@PEBU_s_FuncInfo@@@Z 00000001800313f8     libvcruntime:risctrnsctrl.obj
 0002:0000b3f8       $unwind$_CreateFrameInfo   00000001800313f8     libvcruntime:risctrnsctrl.obj
 0002:0000b3f8       $unwind$_SetImageBase      00000001800313f8     libvcruntime:risctrnsctrl.obj
 0002:0000b3f8       $unwind$_SetThrowImageBase 00000001800313f8     libvcruntime:risctrnsctrl.obj
 0002:0000b3f8       $unwind$__std_exception_destroy 00000001800313f8     libvcruntime:std_exception.obj
 0002:0000b3f8       $unwind$__std_type_info_destroy_list 00000001800313f8     libvcruntime:std_type_info.obj
 0002:0000b3f8       $unwind$__vcrt_FlsAlloc    00000001800313f8     libvcruntime:winapi_downlevel.obj
 0002:0000b3f8       $unwind$__vcrt_FlsFree     00000001800313f8     libvcruntime:winapi_downlevel.obj
 0002:0000b3f8       $unwind$__vcrt_FlsGetValue 00000001800313f8     libvcruntime:winapi_downlevel.obj
 0002:0000b400       $unwind$?AtlWinModuleExtractCreateWndData@ATL@@YAPEAXPEAU_ATL_WIN_MODULE70@1@@Z 0000000180031400     GraphicDisplay.obj
 0002:0000b400       $unwind$?CreateInstance@?$CComCreator@V?$CComObject@VCOPOSGraphicDisplay@@@ATL@@@ATL@@SAJPEAXAEBU_GUID@@PEAPEAX@Z 0000000180031400     GraphicDisplay.obj
 0002:0000b400       $unwind$?DoEvent@COPOSGraphicDisplay@@IEAAXI_K_J@Z 0000000180031400     GraphicDisplay.obj
 0002:0000b400       $unwind$?DoVerb@?$IOleObjectImpl@VCOPOSGraphicDisplay@@@ATL@@UEAAJJPEAUtagMSG@@PEAUIOleClientSite@@JPEAUHWND__@@PEBUtagRECT@@@Z 0000000180031400     GraphicDisplay.obj
 0002:0000b400       $unwind$?HKeyFromString@CRegParser@ATL@@KAPEAUHKEY__@@PEA_W@Z 0000000180031400     GraphicDisplay.obj
 0002:0000b400       $unwind$?Next@?$CComEnumImpl@UIEnumConnectionPoints@@$1?_GUID_b196b285_bab4_101a_b69c_00aa00341d07@@3U__s_GUID@@BPEAUIConnectionPoint@@V?$_CopyInterface@UIConnectionPoint@@@ATL@@@ATL@@UEAAJKPEAPEAUIConnectionPoint@@PEAK@Z 0000000180031400     GraphicDisplay.obj
 0002:0000b400       $unwind$?Next@?$CComEnumImpl@UIEnumConnections@@$1?_GUID_b196b287_bab4_101a_b69c_00aa00341d07@@3U__s_GUID@@BUtagCONNECTDATA@@V?$_Copy@UtagCONNECTDATA@@@ATL@@@ATL@@UEAAJKPEAUtagCONNECTDATA@@PEAK@Z 0000000180031400     GraphicDisplay.obj
 0002:0000b400       $unwind$?SODirectIO@COPOSGraphicDisplay@@MEAAJJPEAJPEAPEA_W@Z 0000000180031400     GraphicDisplay.obj
 0002:0000b400       $unwind$?SetControlFocus@CComControlBase@ATL@@QEAAHH@Z 0000000180031400     GraphicDisplay.obj
 0002:0000b400       $unwind$?ocscpy_s@@YA_NPEA_W_KPEB_W@Z 0000000180031400     GraphicDisplay.obj
 0002:0000b400       $unwind$?s_EventWindowProc@COPOSGraphicDisplay@@KA_JPEAUHWND__@@I_K_J@Z 0000000180031400     GraphicDisplayImpl.obj
 0002:0000b400       $unwind$?AtlWinModuleTerm@ATL@@YAJPEAU_ATL_WIN_MODULE70@1@PEAUHINSTANCE__@@@Z 0000000180031400     OposVariant.obj
 0002:0000b400       $unwind$_recalloc_base     0000000180031400     libucrt:recalloc.obj
 0002:0000b400       $unwind$__acrt_free_locale 0000000180031400     libucrt:locale_refcounting.obj
 0002:0000b400       $unwind$__acrt_lowio_create_handle_array 0000000180031400     libucrt:osfinfo.obj
 0002:0000b400       $unwind$_seh_filter_exe    0000000180031400     libucrt:exception_filter.obj
 0002:0000b400       $unwind$__acrt_stdio_flush_nolock 0000000180031400     libucrt:fflush.obj
 0002:0000b400       $unwind$??$ensure_buffer_is_big_enough@D@formatting_buffer@__crt_stdio_output@@QEAA_N_KAEAV__crt_cached_ptd_host@@@Z 0000000180031400     libucrt:output.obj
 0002:0000b400       $unwind$??$ensure_buffer_is_big_enough@_W@formatting_buffer@__crt_stdio_output@@QEAA_N_KAEAV__crt_cached_ptd_host@@@Z 0000000180031400     libucrt:output.obj
 0002:0000b400       $unwind$__scrt_dllmain_exception_filter 0000000180031400     LIBCMT:utility.obj
 0002:0000b400       $unwind$?GetHandlerSearchState@__FrameHandler3@@SAHPEA_KPEAU_xDISPATCHER_CONTEXT@@PEBU_s_FuncInfo@@@Z 0000000180031400     libvcruntime:frame.obj
 0002:0000b400       $unwind$?Is_bad_exception_allowed@@YAEPEBU_s_ESTypeList@@@Z 0000000180031400     libvcruntime:frame.obj
 0002:0000b400       $unwind$?CatchTryBlock@__FrameHandler3@@SAPEBU_s_TryBlockMapEntry@@PEBU_s_FuncInfo@@H@Z 0000000180031400     libvcruntime:risctrnsctrl.obj
 0002:0000b414       $unwind$??_GCRegObject@ATL@@UEAAPEAXI@Z 0000000180031414     GraphicDisplay.obj
 0002:0000b414       $unwind$?Add@?$CSimpleArray@GV?$CSimpleArrayEqualHelper@G@ATL@@@ATL@@QEAAHAEBG@Z 0000000180031414     GraphicDisplay.obj
 0002:0000b414       $unwind$?Add@?$CSimpleMap@PEA_WPEA_WVCExpansionVectorEqualHelper@ATL@@@ATL@@QEAAHAEBQEA_W0@Z 0000000180031414     GraphicDisplay.obj
 0002:0000b414       $unwind$?Add@CComDynamicUnkArray@ATL@@QEAAKPEAUIUnknown@@@Z 0000000180031414     GraphicDisplay.obj
 0002:0000b414       $unwind$?Advise@?$IOleObjectImpl@VCOPOSGraphicDisplay@@@ATL@@UEAAJPEAUIAdviseSink@@PEAK@Z 0000000180031414     GraphicDisplay.obj
 0002:0000b414       $unwind$?ClearReplacements@CExpansionVector@ATL@@QEAAJXZ 0000000180031414     GraphicDisplay.obj
 0002:0000b414       $unwind$?CreateInstance@?$CComObject@V?$CComEnum@UIEnumConnectionPoints@@$1?_GUID_b196b285_bab4_101a_b69c_00aa00341d07@@3U__s_GUID@@BPEAUIConnectionPoint@@V?$_CopyInterface@UIConnectionPoint@@@ATL@@VCComSingleThreadModel@6@@ATL@@@ATL@@SAJPEAPEAV12@@Z 0000000180031414     GraphicDisplay.obj
 0002:0000b414       $unwind$?CreateInstance@?$CComObject@V?$CComEnum@UIEnumConnections@@$1?_GUID_b196b287_bab4_101a_b69c_00aa00341d07@@3U__s_GUID@@BUtagCONNECTDATA@@V?$_Copy@UtagCONNECTDATA@@@ATL@@VCComSingleThreadModel@6@@ATL@@@ATL@@SAJPEAPEAV12@@Z 0000000180031414     GraphicDisplay.obj
 0002:0000b414       $unwind$?RegisterServer@CComModule@ATL@@QEAAJHPEBU_GUID@@@Z 0000000180031414     GraphicDisplay.obj
 0002:0000b414       $unwind$?UnregisterServer@CComModule@ATL@@QEAAJHPEBU_GUID@@@Z 0000000180031414     GraphicDisplay.obj
 0002:0000b414       $unwind$?VTFromRegType@CRegParser@ATL@@KAHPEB_WAEAG@Z 0000000180031414     GraphicDisplay.obj
 0002:0000b414       $unwind$??0OposDispParms@@QEAA@PEAVOposVariant@@H@Z 0000000180031414     OposVariant.obj
 0002:0000b414       $unwind$?SetBSTR_Copy@OposVariant@@QEAAXPEA_WAEAJ@Z 0000000180031414     OposVariant.obj
 0002:0000b414       $unwind$?SetBSTR_InOutPtr@OposVariant@@QEAA_NPEAPEA_WAEAJ@Z 0000000180031414     OposVariant.obj
 0002:0000b414       $unwind$?SetDispatch_Ptr@OposVariant@@QEAAXPEAUIDispatch@@AEAJ@Z 0000000180031414     OposVariant.obj
 0002:0000b414       $unwind$?SetLONG_Ptr@OposVariant@@QEAAXPEAJAEAJ@Z 0000000180031414     OposVariant.obj
 0002:0000b414       $unwind$?SetString@OposVariant@@QEAAXPEB_WAEAJ@Z 0000000180031414     OposVariant.obj
 0002:0000b414       $unwind$?Term@CAtlComModule@ATL@@QEAAXXZ 0000000180031414     OposVariant.obj
 0002:0000b414       $unwind$memcpy_s           0000000180031414     libucrt:cfout.obj
 0002:0000b414       $unwind$__acrt_getptd      0000000180031414     libucrt:per_thread_data.obj
 0002:0000b414       $unwind$__acrt_getptd_noexit 0000000180031414     libucrt:per_thread_data.obj
 0002:0000b414       $unwind$__acrt_getptd_noexit_explicit 0000000180031414     libucrt:per_thread_data.obj
 0002:0000b414       $unwind$__acrt_execute_initializers 0000000180031414     libucrt:shared_initialization.obj
 0002:0000b414       $unwind$__acrt_InitializeCriticalSectionEx 0000000180031414     libucrt:winapi_thunks.obj
 0002:0000b414       $unwind$_close_nolock_internal 0000000180031414     libucrt:close.obj
 0002:0000b414       $unwind$?value@?$dual_state_global@P6AXPEB_W00I_K@Z@__crt_state_management@@QEAAAEAP6AXPEB_W00I_K@ZAEAV__crt_cached_ptd_host@@@Z 0000000180031414     libucrt:invalid_parameter.obj
 0002:0000b414       $unwind$??0_LocaleUpdate@@QEAA@QEAU__crt_locale_pointers@@@Z 0000000180031414     libucrt:argv_wildcards.obj
 0002:0000b414       $unwind$?type_case_Z@?$output_processor@_WV?$string_output_adapter@_W@__crt_stdio_output@@V?$format_validation_base@_WV?$string_output_adapter@_W@__crt_stdio_output@@@2@@__crt_stdio_output@@AEAA_NXZ 0000000180031414     libucrt:output.obj
 0002:0000b414       $unwind$?type_case_s@?$output_processor@_WV?$string_output_adapter@_W@__crt_stdio_output@@V?$format_validation_base@_WV?$string_output_adapter@_W@__crt_stdio_output@@@2@@__crt_stdio_output@@AEAA_NXZ 0000000180031414     libucrt:output.obj
 0002:0000b414       $unwind$?type_case_s_compute_narrow_string_length@?$output_processor@_WV?$string_output_adapter@_W@__crt_stdio_output@@V?$format_validation_base@_WV?$string_output_adapter@_W@__crt_stdio_output@@@2@@__crt_stdio_output@@AEAAHH_W@Z 0000000180031414     libucrt:output.obj
 0002:0000b414       $unwind$?update_locale_slow@__crt_cached_ptd_host@@AEAAXXZ 0000000180031414     libucrt:output.obj
 0002:0000b414       $unwind$strncpy_s          0000000180031414     libucrt:strncpy_s.obj
 0002:0000b414       $unwind$wcsncpy_s          0000000180031414     libucrt:wcsncpy_s.obj
 0002:0000b414       $unwind$_exception_enabled 0000000180031414     libucrt:libm_error.obj
 0002:0000b414       $unwind$_DllMainCRTStartup 0000000180031414     LIBCMT:dll_dllmain.obj
 0002:0000b414       $unwind$__vcrt_getptd_noexit 0000000180031414     libvcruntime:per_thread_data.obj
 0002:0000b414       $unwind$?FrameUnwindToEmptyState@__FrameHandler3@@SAXPEA_KPEAU_xDISPATCHER_CONTEXT@@PEBU_s_FuncInfo@@@Z 0000000180031414     libvcruntime:risctrnsctrl.obj
 0002:0000b414       $unwind$__vcrt_InitializeCriticalSectionEx 0000000180031414     libvcruntime:winapi_downlevel.obj
 0002:0000b424       $unwind$?AddTermFunc@CAtlModule@ATL@@QEAAJP6AX_K@Z0@Z 0000000180031424     GraphicDisplay.obj
 0002:0000b424       $unwind$?AtlComModuleRegisterServer@ATL@@YAJPEAU_ATL_COM_MODULE70@1@HPEBU_GUID@@@Z 0000000180031424     GraphicDisplay.obj
 0002:0000b424       $unwind$?AtlComModuleUnregisterServer@ATL@@YAJPEAU_ATL_COM_MODULE70@1@HPEBU_GUID@@@Z 0000000180031424     GraphicDisplay.obj
 0002:0000b424       $unwind$?CreateInstance@?$CComCreator@V?$CComAggObject@VCOPOSGraphicDisplay@@@ATL@@@ATL@@SAJPEAXAEBU_GUID@@PEAPEAX@Z 0000000180031424     GraphicDisplay.obj
 0002:0000b424       $unwind$?CreateInstance@?$CComCreator@V?$CComObjectCached@VCComClassFactory@ATL@@@ATL@@@ATL@@SAJPEAXAEBU_GUID@@PEAPEAX@Z 0000000180031424     GraphicDisplay.obj
 0002:0000b424       $unwind$?GetPagesHelper@?$ISpecifyPropertyPagesImpl@VCOPOSGraphicDisplay@@@ATL@@IEAAJPEAUtagCAUUID@@PEBUATL_PROPMAP_ENTRY@2@@Z 0000000180031424     GraphicDisplay.obj
 0002:0000b424       $unwind$?Term@CAtlModule@ATL@@QEAAXXZ 0000000180031424     GraphicDisplay.obj
 0002:0000b424       $unwind$??_Estringdispid@CComTypeInfoHolder@ATL@@QEAAPEAXI@Z 0000000180031424     OposVariant.obj
 0002:0000b424       $unwind$?initialize_stdio_handles_nolock@@YAXXZ 0000000180031424     libucrt:ioinit.obj
 0002:0000b424       $unwind$__acrt_initialize_stdio 0000000180031424     libucrt:_file.obj
 0002:0000b424       $unwind$__GSHandlerCheck_EH 0000000180031424     LIBCMT:gshandlereh.obj
 0002:0000b424       $unwind$__GSHandlerCheck_SEH 0000000180031424     LIBCMT:gshandlerseh.obj
 0002:0000b424       $unwind$??$TypeMatchHelper@V__FrameHandler3@@@@YAHPEBU_s_HandlerType@@PEBU_s_CatchableType@@PEBU_s_ThrowInfo@@@Z 0000000180031424     libvcruntime:frame.obj
 0002:0000b424       $unwind$??$TypeMatchHelper@V__FrameHandler4@@@@YAHPEAUHandlerType4@FH4@@PEBU_s_CatchableType@@PEBU_s_ThrowInfo@@@Z 0000000180031424     libvcruntime:frame.obj
 0002:0000b43c       $unwind$??0?$CComContainedObject@VCOPOSGraphicDisplay@@@ATL@@QEAA@PEAX@Z 000000018003143c     GraphicDisplay.obj
 0002:0000b43c       $unwind$??1?$CComEnumImpl@UIEnumConnectionPoints@@$1?_GUID_b196b285_bab4_101a_b69c_00aa00341d07@@3U__s_GUID@@BPEAUIConnectionPoint@@V?$_CopyInterface@UIConnectionPoint@@@ATL@@@ATL@@UEAA@XZ 000000018003143c     GraphicDisplay.obj
 0002:0000b43c       $unwind$??1?$CComEnumImpl@UIEnumConnections@@$1?_GUID_b196b287_bab4_101a_b69c_00aa00341d07@@3U__s_GUID@@BUtagCONNECTDATA@@V?$_Copy@UtagCONNECTDATA@@@ATL@@@ATL@@UEAA@XZ 000000018003143c     GraphicDisplay.obj
 0002:0000b43c       $unwind$??_G?$CComAggObject@VCOPOSGraphicDisplay@@@ATL@@UEAAPEAXI@Z 000000018003143c     GraphicDisplay.obj
 0002:0000b43c       $unwind$??_G?$CComContainedObject@VCOPOSGraphicDisplay@@@ATL@@UEAAPEAXI@Z 000000018003143c     GraphicDisplay.obj
 0002:0000b43c       $unwind$??_G?$CComObject@V?$CComEnum@UIEnumConnectionPoints@@$1?_GUID_b196b285_bab4_101a_b69c_00aa00341d07@@3U__s_GUID@@BPEAUIConnectionPoint@@V?$_CopyInterface@UIConnectionPoint@@@ATL@@VCComSingleThreadModel@6@@ATL@@@ATL@@UEAAPEAXI@Z 000000018003143c     GraphicDisplay.obj
 0002:0000b43c       $unwind$??_G?$CComObject@V?$CComEnum@UIEnumConnections@@$1?_GUID_b196b287_bab4_101a_b69c_00aa00341d07@@3U__s_GUID@@BUtagCONNECTDATA@@V?$_Copy@UtagCONNECTDATA@@@ATL@@VCComSingleThreadModel@6@@ATL@@@ATL@@UEAAPEAXI@Z 000000018003143c     GraphicDisplay.obj
 0002:0000b43c       $unwind$??_G?$CComObject@VCOPOSGraphicDisplay@@@ATL@@UEAAPEAXI@Z 000000018003143c     GraphicDisplay.obj
 0002:0000b43c       $unwind$??_G?$CComObjectCached@VCComClassFactory@ATL@@@ATL@@UEAAPEAXI@Z 000000018003143c     GraphicDisplay.obj
 0002:0000b43c       $unwind$??_GCComClassFactory@ATL@@UEAAPEAXI@Z 000000018003143c     GraphicDisplay.obj
 0002:0000b43c       $unwind$??_GCComModule@ATL@@UEAAPEAXI@Z 000000018003143c     GraphicDisplay.obj
 0002:0000b43c       $unwind$?DeleteSubKey@CRegKey@ATL@@QEAAJPEB_W@Z 000000018003143c     GraphicDisplay.obj
 0002:0000b43c       $unwind$?IOleObject_SetClientSite@CComControlBase@ATL@@QEAAJPEAUIOleClientSite@@@Z 000000018003143c     GraphicDisplay.obj
 0002:0000b43c       $unwind$?InitNew@?$IPersistStorageImpl@VCOPOSGraphicDisplay@@@ATL@@UEAAJPEAUIStorage@@@Z 000000018003143c     GraphicDisplay.obj
 0002:0000b43c       $unwind$?IsDirty@?$IPersistStorageImpl@VCOPOSGraphicDisplay@@@ATL@@UEAAJXZ 000000018003143c     GraphicDisplay.obj
 0002:0000b43c       $unwind$?Release@?$CComAggObject@VCOPOSGraphicDisplay@@@ATL@@UEAAKXZ 000000018003143c     GraphicDisplay.obj
 0002:0000b43c       $unwind$?Release@?$CComObject@V?$CComEnum@UIEnumConnectionPoints@@$1?_GUID_b196b285_bab4_101a_b69c_00aa00341d07@@3U__s_GUID@@BPEAUIConnectionPoint@@V?$_CopyInterface@UIConnectionPoint@@@ATL@@VCComSingleThreadModel@6@@ATL@@@ATL@@UEAAKXZ 000000018003143c     GraphicDisplay.obj
 0002:0000b43c       $unwind$?Release@?$CComObject@V?$CComEnum@UIEnumConnections@@$1?_GUID_b196b287_bab4_101a_b69c_00aa00341d07@@3U__s_GUID@@BUtagCONNECTDATA@@V?$_Copy@UtagCONNECTDATA@@@ATL@@VCComSingleThreadModel@6@@ATL@@@ATL@@UEAAKXZ 000000018003143c     GraphicDisplay.obj
 0002:0000b43c       $unwind$?Release@?$CComObject@VCOPOSGraphicDisplay@@@ATL@@UEAAKXZ 000000018003143c     GraphicDisplay.obj
 0002:0000b43c       $unwind$?SOOutputComplete@COPOSGraphicDisplay@@MEAAJJ@Z 000000018003143c     GraphicDisplay.obj
 0002:0000b43c       $unwind$?SOStatusUpdate@COPOSGraphicDisplay@@MEAAJJ@Z 000000018003143c     GraphicDisplay.obj
 0002:0000b43c       $unwind$?SetAdvise@?$IViewObjectExImpl@VCOPOSGraphicDisplay@@@ATL@@UEAAJKKPEAUIAdviseSink@@@Z 000000018003143c     GraphicDisplay.obj
 0002:0000b43c       $unwind$?Term@CComModule@ATL@@QEAAXXZ 000000018003143c     GraphicDisplay.obj
 0002:0000b43c       $unwind$DllMain            000000018003143c     GraphicDisplay.obj
 0002:0000b43c       $unwind$??1?$IConnectionPointImpl@VCOPOSGraphicDisplay@@$1?DIID__IOPOSGraphicDisplayEvents@@3U_GUID@@BVCComDynamicUnkArray@ATL@@@ATL@@QEAA@XZ 000000018003143c     GraphicDisplayImpl.obj
 0002:0000b43c       $unwind$??1?$IConnectionPointImpl@VCOPOSGraphicDisplay@@$1?IID_IPropertyNotifySink@@3U_GUID@@BVCComDynamicUnkArray@ATL@@@ATL@@QEAA@XZ 000000018003143c     GraphicDisplayImpl.obj
 0002:0000b43c       $unwind$?SetBSTR@OposVariant@@QEAAXPEA_WAEAJ@Z 000000018003143c     OposVariant.obj
 0002:0000b43c       $unwind$?SetLONG@OposVariant@@QEAAXJ@Z 000000018003143c     OposVariant.obj
 0002:0000b43c       $unwind$?SetVARIANT_BOOL@OposVariant@@QEAAXF@Z 000000018003143c     OposVariant.obj
 0002:0000b43c       $unwind$??$common_initialize_environment_nolock@D@@YAHXZ 000000018003143c     libucrt:environment_initialization.obj
 0002:0000b43c       $unwind$_realloc_base      000000018003143c     libucrt:realloc_base.obj
 0002:0000b43c       $unwind$?replace_current_thread_locale_nolock@@YAXQEAU__acrt_ptd@@QEAU__crt_locale_data@@@Z 000000018003143c     libucrt:per_thread_data.obj
 0002:0000b43c       $unwind$__acrt_execute_uninitializers 000000018003143c     libucrt:shared_initialization.obj
 0002:0000b43c       $unwind$__acrt_LocaleNameToLCID 000000018003143c     libucrt:winapi_thunks.obj
 0002:0000b43c       $unwind$?free_crt_array_internal@@YAXQEAPEBX_K@Z 000000018003143c     libucrt:inittime.obj
 0002:0000b43c       $unwind$_updatetlocinfoEx_nolock 000000018003143c     libucrt:locale_refcounting.obj
 0002:0000b43c       $unwind$__acrt_uninitialize_lowio 000000018003143c     libucrt:ioinit.obj
 0002:0000b43c       $unwind$?setSBCS@@YAXPEAU__crt_multibyte_data@@@Z 000000018003143c     libucrt:mbctype.obj
 0002:0000b43c       $unwind$_initterm_e        000000018003143c     libucrt:initterm.obj
 0002:0000b43c       $unwind$??0CAtlBaseModule@ATL@@QEAA@XZ 000000018003143c     atls:atlbase.obj
 0002:0000b43c       $unwind$??$GetProcAddressAll@P6AP6A_JPEAUHWND__@@I_K_J@ZPEAUAtlThunkData_t@@@Z@@YAP6AP6A_JPEAUHWND__@@I_K_J@ZPEAUAtlThunkData_t@@@ZPEAP6AP6A_J0I12@Z3@Z@Z 000000018003143c     atls:atlthunk.obj
 0002:0000b43c       $unwind$??$GetProcAddressAll@P6APEAUAtlThunkData_t@@XZ@@YAP6APEAUAtlThunkData_t@@XZPEAP6APEAU0@XZ@Z 000000018003143c     atls:atlthunk.obj
 0002:0000b43c       $unwind$??$GetProcAddressAll@P6AXPEAUAtlThunkData_t@@@Z@@YAP6AXPEAUAtlThunkData_t@@@ZPEAP6AX0@Z@Z 000000018003143c     atls:atlthunk.obj
 0002:0000b43c       $unwind$??$GetProcAddressAll@P6AXPEAUAtlThunkData_t@@PEAX_K@Z@@YAP6AXPEAUAtlThunkData_t@@PEAX_K@ZPEAP6AX012@Z@Z 000000018003143c     atls:atlthunk.obj
 0002:0000b43c       $unwind$?__AllocStdCallThunk_cmn@@YAPEAXXZ 000000018003143c     atls:atlthunk.obj
 0002:0000b43c       $unwind$?__InitializeThunkPool@@YAHXZ 000000018003143c     atls:atlthunk.obj
 0002:0000b43c       $unwind$AtlThunk_DataToCode 000000018003143c     atls:atlthunk.obj
 0002:0000b43c       $unwind$_RTC_Initialize    000000018003143c     LIBCMT:initsect.obj
 0002:0000b43c       $unwind$_RTC_Terminate     000000018003143c     LIBCMT:initsect.obj
 0002:0000b43c       $unwind$?__scrt_initialize_thread_safe_statics@@YAHXZ 000000018003143c     LIBCMT:thread_safe_statics.obj
 0002:0000b43c       $unwind$??_Gbad_alloc@std@@UEAAPEAXI@Z 000000018003143c     LIBCMT:throw_bad_alloc.obj
 0002:0000b43c       $unwind$??_Gbad_array_new_length@std@@UEAAPEAXI@Z 000000018003143c     LIBCMT:throw_bad_alloc.obj
 0002:0000b43c       $unwind$??_Gexception@std@@UEAAPEAXI@Z 000000018003143c     LIBCMT:throw_bad_alloc.obj
 0002:0000b43c       $unwind$__C_specific_handler_noexcept 000000018003143c     libvcruntime:chandler_noexcept.obj
 0002:0000b43c       $unwind$__FrameUnwindFilter 000000018003143c     libvcruntime:ehhelpers.obj
 0002:0000b43c       $unwind$?SetUnwindTryBlock@__FrameHandler3@@SAXPEA_KPEAU_xDISPATCHER_CONTEXT@@PEBU_s_FuncInfo@@H@Z 000000018003143c     libvcruntime:ehstate.obj
 0002:0000b43c       $unwind$??_Gbad_exception@std@@UEAAPEAXI@Z 000000018003143c     libvcruntime:frame.obj
 0002:0000b43c       $unwind$?ExFilterRethrow@@YAHPEAU_EXCEPTION_POINTERS@@PEAUEHExceptionRecord@@PEAH@Z 000000018003143c     libvcruntime:frame.obj
 0002:0000b43c       $unwind$?ExFilterRethrowFH4@@YAHPEAU_EXCEPTION_POINTERS@@PEAUEHExceptionRecord@@HPEAH@Z 000000018003143c     libvcruntime:frame.obj
 0002:0000b43c       $unwind$_FindAndUnlinkFrame 000000018003143c     libvcruntime:risctrnsctrl.obj
 0002:0000b43c       $unwind$__vcrt_FlsSetValue 000000018003143c     libvcruntime:winapi_downlevel.obj
 0002:0000b448       $unwind$?ChangeBSTR@OposVariant@@QEAAXPEAPEA_WAEAJ@Z 0000000180031448     OposVariant.obj
 0002:0000b448       $unwind$?ChangeLONG@OposVariant@@QEAAXPEAJAEAJ@Z 0000000180031448     OposVariant.obj
 0002:0000b448       $unwind$?x_ismbbtype_l@@YAHPEAU__crt_locale_pointers@@IHH@Z 0000000180031448     libucrt:ismbbyte.obj
 0002:0000b458       $unwind$swprintf_s         0000000180031458     GraphicDisplay.obj
 0002:0000b468       $unwind$?_AtlVerifyStackAvailable@_ATL_SAFE_ALLOCA_IMPL@ATL@@YA_N_K@Z 0000000180031468     GraphicDisplay.obj
 0002:0000b494       $unwind$?filt$0@?0??_AtlVerifyStackAvailable@_ATL_SAFE_ALLOCA_IMPL@ATL@@YA_N_K@Z@4HA 0000000180031494     GraphicDisplay.obj
 0002:0000b494       $unwind$_query_new_handler$fin$0 0000000180031494     libucrt:new_handler.obj
 0002:0000b494       $unwind$?fin$0@?0???$?RV<lambda_0ae27a3a962d80f24befdcbee591983d>@@AEAV<lambda_8d0ee55de4b1038c4002e0adecdf1839>@@V<lambda_dc504788e8f1664fe9b84e20bfb512f2>@@@?$__crt_seh_guarded_call@X@@QEAAX$$QEAV<lambda_0ae27a3a962d80f24befdcbee591983d>@@AEAV<lambda_8d0ee55de4b1038c4002e0adecdf1839>@@$$QEAV<lambda_dc504788e8f1664fe9b84e20bfb512f2>@@@Z@4HA 0000000180031494     libucrt:per_thread_data.obj
 0002:0000b494       $unwind$?fin$0@?0???$?RV<lambda_2d41944a1d46af3157314b8a01080d33>@@AEAV<lambda_8f455de75cd7d7f24b4096f044d8b9e6>@@V<lambda_aa500f224e6afead328df44964fe2772>@@@?$__crt_seh_guarded_call@X@@QEAAX$$QEAV<lambda_2d41944a1d46af3157314b8a01080d33>@@AEAV<lambda_8f455de75cd7d7f24b4096f044d8b9e6>@@$$QEAV<lambda_aa500f224e6afead328df44964fe2772>@@@Z@4HA 0000000180031494     libucrt:per_thread_data.obj
 0002:0000b494       $unwind$?fin$0@?0???$?RV<lambda_aa87e3671a710a21b5dc78c0bdf72e11>@@AEAV<lambda_92619d2358a28f41a33ba319515a20b9>@@V<lambda_6992ecaafeb10aed2b74cb1fae11a551>@@@?$__crt_seh_guarded_call@X@@QEAAX$$QEAV<lambda_aa87e3671a710a21b5dc78c0bdf72e11>@@AEAV<lambda_92619d2358a28f41a33ba319515a20b9>@@$$QEAV<lambda_6992ecaafeb10aed2b74cb1fae11a551>@@@Z@4HA 0000000180031494     libucrt:per_thread_data.obj
 0002:0000b494       $unwind$?fin$0@?0???$?RV<lambda_f2e299630e499de9f9a165e60fcd3db5>@@AEAV<lambda_2ae9d31cdba2644fcbeaf08da7c24588>@@V<lambda_40d01ff24d0e7b3814fdbdcee8eab3c7>@@@?$__crt_seh_guarded_call@X@@QEAAX$$QEAV<lambda_f2e299630e499de9f9a165e60fcd3db5>@@AEAV<lambda_2ae9d31cdba2644fcbeaf08da7c24588>@@$$QEAV<lambda_40d01ff24d0e7b3814fdbdcee8eab3c7>@@@Z@4HA 0000000180031494     libucrt:per_thread_data.obj
 0002:0000b494       $unwind$__acrt_update_thread_locale_data$fin$0 0000000180031494     libucrt:locale_refcounting.obj
 0002:0000b494       $unwind$?fin$0@?0???$?RV<lambda_410d79af7f07d98d83a3f525b3859a53>@@AEAV<lambda_3e16ef9562a7dcce91392c22ab16ea36>@@V<lambda_38119f0e861e05405d8a144b9b982f0a>@@@?$__crt_seh_guarded_call@X@@QEAAX$$QEAV<lambda_410d79af7f07d98d83a3f525b3859a53>@@AEAV<lambda_3e16ef9562a7dcce91392c22ab16ea36>@@$$QEAV<lambda_38119f0e861e05405d8a144b9b982f0a>@@@Z@4HA 0000000180031494     libucrt:wsetlocale.obj
 0002:0000b494       $unwind$?fin$0@?0???$?RV<lambda_ad8af0d99a0adf03d037d7dffe354bb5>@@AEAV<lambda_c9ba49e555ba839a7b07aa3fbecb7617>@@V<lambda_2f1ebd5d68526518146ae959c9e734c8>@@@?$__crt_seh_guarded_call@H@@QEAAH$$QEAV<lambda_ad8af0d99a0adf03d037d7dffe354bb5>@@AEAV<lambda_c9ba49e555ba839a7b07aa3fbecb7617>@@$$QEAV<lambda_2f1ebd5d68526518146ae959c9e734c8>@@@Z@4HA 0000000180031494     libucrt:close.obj
 0002:0000b494       $unwind$?fin$0@?0???$?RV<lambda_a37b2b86f63e897a80ea819b0eb08c01>@@AEAV<lambda_38ce7e780aa69e748d6df282ebc68efe>@@V<lambda_99fb1378e971ab6e7edea83e3a7a83a2>@@@?$__crt_seh_guarded_call@H@@QEAAH$$QEAV<lambda_a37b2b86f63e897a80ea819b0eb08c01>@@AEAV<lambda_38ce7e780aa69e748d6df282ebc68efe>@@$$QEAV<lambda_99fb1378e971ab6e7edea83e3a7a83a2>@@@Z@4HA 0000000180031494     libucrt:commit.obj
 0002:0000b494       $unwind$__acrt_initialize_lowio$fin$0 0000000180031494     libucrt:ioinit.obj
 0002:0000b494       $unwind$__acrt_lowio_ensure_fh_exists$fin$0 0000000180031494     libucrt:osfinfo.obj
 0002:0000b494       $unwind$?fin$0@?0???$?RV<lambda_efdfa57d1f175319df784efa44bb7b81>@@AEAV<lambda_5f0a4c1567f8adc6734073e5d1e1b35c>@@V<lambda_2e8a7d3640ea6ccb4c2413664c2db6fd>@@@?$__crt_seh_guarded_call@X@@QEAAX$$QEAV<lambda_efdfa57d1f175319df784efa44bb7b81>@@AEAV<lambda_5f0a4c1567f8adc6734073e5d1e1b35c>@@$$QEAV<lambda_2e8a7d3640ea6ccb4c2413664c2db6fd>@@@Z@4HA 0000000180031494     libucrt:mbctype.obj
 0002:0000b494       $unwind$?fin$0@?0??update_thread_multibyte_data_internal@@YAPEAU__crt_multibyte_data@@QEAU__acrt_ptd@@QEAPEAU1@@Z@4HA 0000000180031494     libucrt:mbctype.obj
 0002:0000b494       $unwind$?fin$0@?0???$?RV<lambda_450d765d439847d4c735a33c368b5fc0>@@AEAV<lambda_44731a7d0e6d81c3e6aa82d741081786>@@V<lambda_601a2a7da3b7a96e9554ac7215c4b07c>@@@?$__crt_seh_guarded_call@P6AXH@Z@@QEAAP6AXH@Z$$QEAV<lambda_450d765d439847d4c735a33c368b5fc0>@@AEAV<lambda_44731a7d0e6d81c3e6aa82d741081786>@@$$QEAV<lambda_601a2a7da3b7a96e9554ac7215c4b07c>@@@Z@4HA 0000000180031494     libucrt:signal.obj
 0002:0000b494       $unwind$raise$fin$0        0000000180031494     libucrt:signal.obj
 0002:0000b494       $unwind$?filt$0@?0???R<lambda_6e4b09c48022b2350581041d5f6b0c4c>@@QEBA@XZ@4HA 0000000180031494     libucrt:exit.obj
 0002:0000b494       $unwind$?fin$0@?0???$?RV<lambda_d80eeec6fff315bfe5c115232f3240e3>@@AEAV<lambda_6e4b09c48022b2350581041d5f6b0c4c>@@V<lambda_2358e3775559c9db80273638284d5e45>@@@?$__crt_seh_guarded_call@X@@QEAAX$$QEAV<lambda_d80eeec6fff315bfe5c115232f3240e3>@@AEAV<lambda_6e4b09c48022b2350581041d5f6b0c4c>@@$$QEAV<lambda_2358e3775559c9db80273638284d5e45>@@@Z@4HA 0000000180031494     libucrt:exit.obj
 0002:0000b494       $unwind$?fin$0@?0???$?RV<lambda_638799b9deba96c50f710eeac98168cd>@@AEAV<lambda_22ebabd17bc4fa466a2aca6d8deb888d>@@V<lambda_a6f7d7db0129f75315ebf26d50c089f1>@@@?$__crt_seh_guarded_call@H@@QEAAH$$QEAV<lambda_638799b9deba96c50f710eeac98168cd>@@AEAV<lambda_22ebabd17bc4fa466a2aca6d8deb888d>@@$$QEAV<lambda_a6f7d7db0129f75315ebf26d50c089f1>@@@Z@4HA 0000000180031494     libucrt:onexit.obj
 0002:0000b494       $unwind$?fin$0@?0???$?RV<lambda_7777bce6b2f8c936911f934f8298dc43>@@AEAV<lambda_f03950bc5685219e0bcd2087efbe011e>@@V<lambda_3883c3dff614d5e0c5f61bb1ac94921c>@@@?$__crt_seh_guarded_call@H@@QEAAH$$QEAV<lambda_7777bce6b2f8c936911f934f8298dc43>@@AEAV<lambda_f03950bc5685219e0bcd2087efbe011e>@@$$QEAV<lambda_3883c3dff614d5e0c5f61bb1ac94921c>@@@Z@4HA 0000000180031494     libucrt:onexit.obj
 0002:0000b494       $unwind$_fcloseall$fin$0   0000000180031494     libucrt:closeall.obj
 0002:0000b494       $unwind$?fin$0@?0???$?RV<lambda_842d9ff0dc9ef11c61343bbaebe7f885>@@AEAV<lambda_c5860995281e5c4ce005b3de8f5874ee>@@V<lambda_d90129c13df834fdcbf8d2b88dafcf2d>@@@?$__crt_seh_guarded_call@X@@QEAAX$$QEAV<lambda_842d9ff0dc9ef11c61343bbaebe7f885>@@AEAV<lambda_c5860995281e5c4ce005b3de8f5874ee>@@$$QEAV<lambda_d90129c13df834fdcbf8d2b88dafcf2d>@@@Z@4HA 0000000180031494     libucrt:fflush.obj
 0002:0000b494       $unwind$?fin$0@?0???$?RV<lambda_886d6c58226a84441f68b9f2b8217b83>@@AEAV<lambda_ab61a845afdef5b7c387490eaf3616ee>@@V<lambda_f7f22ab5edc0698d5f6905b0d3f44752>@@@?$__crt_seh_guarded_call@X@@QEAAX$$QEAV<lambda_886d6c58226a84441f68b9f2b8217b83>@@AEAV<lambda_ab61a845afdef5b7c387490eaf3616ee>@@$$QEAV<lambda_f7f22ab5edc0698d5f6905b0d3f44752>@@@Z@4HA 0000000180031494     libucrt:fflush.obj
 0002:0000b494       $unwind$_ctrlfp$filt$0     0000000180031494     libucrt:fpctrl.obj
 0002:0000b494       $unwind$common_control87$filt$0 0000000180031494     libucrt:ieee.obj
 0002:0000b494       $unwind$?fin$0@?0??dllmain_crt_process_attach@@YAHQEAUHINSTANCE__@@QEAX@Z@4HA 0000000180031494     LIBCMT:dll_dllmain.obj
 0002:0000b494       $unwind$?fin$0@?0??dllmain_crt_process_detach@@YAH_N@Z@4HA 0000000180031494     LIBCMT:dll_dllmain.obj
 0002:0000b494       $unwind$?fin$1@?0??dllmain_crt_process_detach@@YAH_N@Z@4HA 0000000180031494     LIBCMT:dll_dllmain.obj
 0002:0000b494       $unwind$_IsNonwritableInCurrentImage$filt$0 0000000180031494     LIBCMT:pesect.obj
 0002:0000b494       $unwind$?filt$0@?0??CxxCallCatchBlock@__FrameHandler3@@SAPEAXPEAU_EXCEPTION_RECORD@@@Z@4HA 0000000180031494     libvcruntime:frame.obj
 0002:0000b494       $unwind$?filt$0@?0??CxxCallCatchBlock@__FrameHandler4@@SAPEAXPEAU_EXCEPTION_RECORD@@@Z@4HA 0000000180031494     libvcruntime:frame.obj
 0002:0000b494       $unwind$?filt$0@?0??FrameUnwindToState@__FrameHandler3@@SAXPEA_KPEAU_xDISPATCHER_CONTEXT@@PEBU_s_FuncInfo@@H@Z@4HA 0000000180031494     libvcruntime:frame.obj
 0002:0000b494       $unwind$?fin$1@?0??FrameUnwindToState@__FrameHandler3@@SAXPEA_KPEAU_xDISPATCHER_CONTEXT@@PEBU_s_FuncInfo@@H@Z@4HA 0000000180031494     libvcruntime:frame.obj
 0002:0000b49c       $unwind$?AtlInternalOleLoadFromStream@ATL@@YAJPEAUIStream@@AEBU_GUID@@PEAPEAXTClassesAllowedInStream@1@K@Z 000000018003149c     GraphicDisplay.obj
 0002:0000b4b8       $unwind$?ReadFromStream@CComBSTR@ATL@@QEAAJPEAUIStream@@@Z 00000001800314b8     GraphicDisplay.obj
 0002:0000b4b8       $unwind$_configure_narrow_argv 00000001800314b8     libucrt:argv_parsing.obj
 0002:0000b4cc       $unwind$?WriteToStream@CComVariant@ATL@@QEAAJPEAUIStream@@@Z 00000001800314cc     GraphicDisplay.obj
 0002:0000b4e0       $unwind$?RegOpenKeyExW@CAtlTransactionManager@ATL@@QEAAJPEAUHKEY__@@PEB_WKKPEAPEAU3@@Z 00000001800314e0     GraphicDisplay.obj
 0002:0000b4e0       $unwind$?WriteToStream@CComVariant@ATL@@QEAAJPEAUIStream@@G@Z 00000001800314e0     GraphicDisplay.obj
 0002:0000b4e0       $unwind$__dcrt_write_console 00000001800314e0     libucrt:initcon.obj
 0002:0000b4e0       $unwind$??$__acrt_convert_wcs_mbs_cp@_WDV<lambda_f788ae46380686e8b737efdd8c720d07>@@U__crt_win32_buffer_no_resizing@@@@YAHQEB_WAEAV?$__crt_win32_buffer@DU__crt_win32_buffer_no_resizing@@@@AEBV<lambda_f788ae46380686e8b737efdd8c720d07>@@I@Z 00000001800314e0     libucrt:getmodulefilenamea.obj
 0002:0000b4f4       $unwind$?ReadFromStream@CComVariant@ATL@@QEAAJPEAUIStream@@GTClassesAllowedInStream@2@K@Z 00000001800314f4     GraphicDisplay.obj
 0002:0000b50c       $unwind$?GetSizeMax@CComVariant@ATL@@QEBAJPEAT_ULARGE_INTEGER@@@Z 000000018003150c     GraphicDisplay.obj
 0002:0000b520       $unwind$?RegCreateKeyExW@CAtlTransactionManager@ATL@@QEAAJPEAUHKEY__@@PEB_WKPEA_WKKQEAU_SECURITY_ATTRIBUTES@@PEAPEAU3@PEAK@Z 0000000180031520     GraphicDisplay.obj
 0002:0000b534       $unwind$?GetGITPtr@CAtlModule@ATL@@UEAAJPEAPEAUIGlobalInterfaceTable@@@Z 0000000180031534     GraphicDisplay.obj
 0002:0000b534       $unwind$?RegDeleteKeyW@CAtlTransactionManager@ATL@@QEAAJPEAUHKEY__@@PEB_W@Z 0000000180031534     GraphicDisplay.obj
 0002:0000b534       $unwind$?getStateFromIterators@UWMap4@FH4@@SAHAEBViterator@12@H0H0@Z 0000000180031534     libvcruntime:frame.obj
 0002:0000b544       $unwind$?AtlHiMetricToPixel@ATL@@YAXPEBUtagSIZE@@PEAU2@@Z 0000000180031544     GraphicDisplay.obj
 0002:0000b544       $unwind$?AtlInternalQueryInterface@ATL@@YAJPEAXPEBU_ATL_INTMAP_ENTRY@1@AEBU_GUID@@PEAPEAX@Z 0000000180031544     GraphicDisplay.obj
 0002:0000b55c       $unwind$?Append@CParseBuffer@CRegParser@ATL@@QEAAHPEB_WH@Z 000000018003155c     GraphicDisplay.obj
 0002:0000b55c       $unwind$?AtlComModuleGetClassObject@ATL@@YAJPEAU_ATL_COM_MODULE70@1@AEBU_GUID@@1PEAPEAX@Z 000000018003155c     GraphicDisplay.obj
 0002:0000b55c       $unwind$?GetClassObject@CComModule@ATL@@QEAAJAEBU_GUID@@0PEAPEAX@Z 000000018003155c     GraphicDisplay.obj
 0002:0000b55c       $unwind$?NextToken@CRegParser@ATL@@IEAAJPEA_W@Z 000000018003155c     GraphicDisplay.obj
 0002:0000b55c       $unwind$?StartWindowProc@?$CWindowImplBaseT@VCWindow@ATL@@V?$CWinTraits@$0FGAAAAAA@$0A@@2@@ATL@@SA_JPEAUHWND__@@I_K_J@Z 000000018003155c     GraphicDisplay.obj
 0002:0000b55c       $unwind$?fp_format_f_internal@@YAHQEAD_KHQEAU_strflt@@_NAEAV__crt_cached_ptd_host@@@Z 000000018003155c     libucrt:cvt.obj
 0002:0000b55c       $unwind$__acrt_DownlevelLocaleNameToLCID 000000018003155c     libucrt:lcidtoname_downlevel.obj
 0002:0000b55c       $unwind$??R<lambda_f03950bc5685219e0bcd2087efbe011e>@@QEBAHXZ 000000018003155c     libucrt:onexit.obj
 0002:0000b574       $unwind$?AtlRegisterClassCategoriesHelper@ATL@@YAJAEBU_GUID@@PEBU_ATL_CATMAP_ENTRY@1@H@Z 0000000180031574     GraphicDisplay.obj
 0002:0000b598       $unwind$?AtlLoadTypeLib@ATL@@YAJPEAUHINSTANCE__@@PEB_WPEAPEA_WPEAPEAUITypeLib@@@Z 0000000180031598     GraphicDisplay.obj
 0002:0000b5b8       $unwind$?AtlRegisterTypeLib@ATL@@YAJPEAUHINSTANCE__@@PEB_W@Z 00000001800315b8     GraphicDisplay.obj
 0002:0000b5d4       $unwind$?AtlUnRegisterTypeLib@ATL@@YAJPEAUHINSTANCE__@@PEB_W@Z 00000001800315d4     GraphicDisplay.obj
 0002:0000b5dc       $unwind$?GetTI@CComTypeInfoHolder@ATL@@QEAAJK@Z 00000001800315dc     GraphicDisplay.obj
 0002:0000b5dc       $unwind$?RecurseDeleteKey@CRegKey@ATL@@QEAAJPEB_W@Z 00000001800315dc     GraphicDisplay.obj
 0002:0000b5fc       $unwind$?UpdateRegistryFromResource@CAtlModule@ATL@@QEAAJIHPEAU_ATL_REGMAP_ENTRY@2@@Z 00000001800315fc     GraphicDisplay.obj
 0002:0000b5fc       $unwind$?UpdateRegistryFromResource@CAtlModule@ATL@@QEAAJPEB_WHPEAU_ATL_REGMAP_ENTRY@2@@Z 00000001800315fc     GraphicDisplay.obj
 0002:0000b61c       $unwind$?Lookup@?$CSimpleMap@PEA_WPEA_WVCExpansionVectorEqualHelper@ATL@@@ATL@@QEBAPEA_WAEBQEA_W@Z 000000018003161c     GraphicDisplay.obj
 0002:0000b61c       $unwind$_free_osfhnd       000000018003161c     libucrt:osfinfo.obj
 0002:0000b61c       $unwind$__std_exception_copy 000000018003161c     libvcruntime:std_exception.obj
 0002:0000b630       $unwind$?Add@CExpansionVector@ATL@@QEAAHPEB_W0@Z 0000000180031630     GraphicDisplay.obj
 0002:0000b648       $unwind$?PreProcessBuffer@CRegParser@ATL@@QEAAJPEA_WPEAPEA_W@Z 0000000180031648     GraphicDisplay.obj
 0002:0000b66c       $unwind$?RegisterBuffer@CRegParser@ATL@@QEAAJPEA_WH@Z 000000018003166c     GraphicDisplay.obj
 0002:0000b68c       $unwind$?AddValue@CRegParser@ATL@@IEAAJAEAVCRegKey@2@PEB_WPEA_W@Z 000000018003168c     GraphicDisplay.obj
 0002:0000b6ac       $unwind$?RegisterSubkeys@CRegParser@ATL@@IEAAJPEA_WPEAUHKEY__@@HH@Z 00000001800316ac     GraphicDisplay.obj
 0002:0000b6cc       $unwind$?SkipAssignment@CRegParser@ATL@@IEAAJPEA_W@Z 00000001800316cc     GraphicDisplay.obj
 0002:0000b6e8       $unwind$?RegisterFromResource@CRegObject@ATL@@IEAAJPEB_W00H@Z 00000001800316e8     GraphicDisplay.obj
 0002:0000b708       $unwind$?Cleanup@CComTypeInfoHolder@ATL@@SAX_K@Z 0000000180031708     GraphicDisplay.obj
 0002:0000b708       $unwind$_free_base         0000000180031708     libucrt:free_base.obj
 0002:0000b708       $unwind$?destroy_fls@@YAXPEAX@Z 0000000180031708     libucrt:per_thread_data.obj
 0002:0000b708       $unwind$__acrt_locale_free_numeric 0000000180031708     libucrt:initnum.obj
 0002:0000b708       $unwind$__acrt_locale_free_lc_time_if_unreferenced 0000000180031708     libucrt:locale_refcounting.obj
 0002:0000b708       $unwind$AtlThunk_FreeData  0000000180031708     atls:atlthunk.obj
 0002:0000b710       $unwind$?GetIDsOfNames@CComTypeInfoHolder@ATL@@QEAAJAEBU_GUID@@PEAPEA_WIKPEAJ@Z 0000000180031710     GraphicDisplay.obj
 0002:0000b72c       $unwind$?LoadNameCache@CComTypeInfoHolder@ATL@@QEAAJPEAUITypeInfo@@@Z 000000018003172c     GraphicDisplay.obj
 0002:0000b744       $unwind$?WindowProc@?$CWindowImplBaseT@VCWindow@ATL@@V?$CWinTraits@$0FGAAAAAA@$0A@@2@@ATL@@SA_JPEAUHWND__@@I_K_J@Z 0000000180031744     GraphicDisplay.obj
 0002:0000b75c       $unwind$?atlCreate@?$CWindowImplBaseT@VCWindow@ATL@@V?$CWinTraits@$0FGAAAAAA@$0A@@2@@ATL@@QEAAPEAUHWND__@@PEAU3@V_U_RECT@2@PEB_WKKV_U_MENUorID@2@GPEAX@Z 000000018003175c     GraphicDisplay.obj
 0002:0000b774       $unwind$??$AtlModuleRegisterWndClassInfoT@VAtlModuleRegisterWndClassInfoParamW@ATL@@@ATL@@YAGPEAU_ATL_BASE_MODULE70@0@PEAU_ATL_WIN_MODULE70@0@PEAU_ATL_WNDCLASSINFOW@0@PEAP6A_JPEAUHWND__@@I_K_J@ZVAtlModuleRegisterWndClassInfoParamW@0@@Z 0000000180031774     GraphicDisplay.obj
 0002:0000b794       $unwind$?GetZoomInfo@CComControlBase@ATL@@QEAAXAEAUATL_DRAWINFO@@@Z 0000000180031794     GraphicDisplay.obj
 0002:0000b794       $unwind$?OnKillFocus@CComControlBase@ATL@@QEAA_JI_K_JAEAH@Z 0000000180031794     GraphicDisplay.obj
 0002:0000b794       $unwind$?get_raw_ptd@__crt_cached_ptd_host@@QEAAPEAU__acrt_ptd@@XZ 0000000180031794     libucrt:invalid_parameter.obj
 0002:0000b7a0       $unwind$?SendOnDataChange@CComControlBase@ATL@@QEAAJK@Z 00000001800317a0     GraphicDisplay.obj
 0002:0000b7b0       $unwind$?OnSetFocus@CComControlBase@ATL@@QEAA_JI_K_JAEAH@Z 00000001800317b0     GraphicDisplay.obj
 0002:0000b7c4       $unwind$?OnMouseActivate@CComControlBase@ATL@@QEAA_JI_K_JAEAH@Z 00000001800317c4     GraphicDisplay.obj
 0002:0000b7cc       $unwind$?GetAmbientLocaleID@CComControlBase@ATL@@QEAAJAEAK@Z 00000001800317cc     GraphicDisplay.obj
 0002:0000b7cc       $unwind$?GetAmbientUserMode@CComControlBase@ATL@@QEAAJAEAH@Z 00000001800317cc     GraphicDisplay.obj
 0002:0000b7dc       $unwind$?IQuickActivate_QuickActivate@CComControlBase@ATL@@QEAAJPEAUtagQACONTAINER@@PEAUtagQACONTROL@@@Z 00000001800317dc     GraphicDisplay.obj
 0002:0000b7f4       $unwind$?DoVerbProperties@CComControlBase@ATL@@QEAAJPEBUtagRECT@@PEAUHWND__@@@Z 00000001800317f4     GraphicDisplay.obj
 0002:0000b80c       $unwind$?InPlaceActivate@CComControlBase@ATL@@QEAAJJPEBUtagRECT@@@Z 000000018003180c     GraphicDisplay.obj
 0002:0000b82c       $unwind$?IOleObject_Close@CComControlBase@ATL@@QEAAJK@Z 000000018003182c     GraphicDisplay.obj
 0002:0000b82c       $unwind$?get_raw_ptd_noexit@__crt_cached_ptd_host@@QEAAPEAU__acrt_ptd@@XZ 000000018003182c     libucrt:invalid_parameter.obj
 0002:0000b82c       $unwind$?type_case_c_tchar@?$output_processor@_WV?$string_output_adapter@_W@__crt_stdio_output@@V?$format_validation_base@_WV?$string_output_adapter@_W@__crt_stdio_output@@@2@@__crt_stdio_output@@AEAA_N_W@Z 000000018003182c     libucrt:output.obj
 0002:0000b83c       $unwind$?IOleInPlaceObject_UIDeactivate@CComControlBase@ATL@@QEAAJXZ 000000018003183c     GraphicDisplay.obj
 0002:0000b854       $unwind$?IOleInPlaceObject_SetObjectRects@CComControlBase@ATL@@QEAAJPEBUtagRECT@@0@Z 0000000180031854     GraphicDisplay.obj
 0002:0000b868       $unwind$?IViewObject_Draw@CComControlBase@ATL@@QEAAJKJPEAXPEAUtagDVTARGETDEVICE@@PEAUHDC__@@2PEBU_RECTL@@3@Z 0000000180031868     GraphicDisplay.obj
 0002:0000b884       $unwind$?IDataObject_GetData@CComControlBase@ATL@@QEAAJPEAUtagFORMATETC@@PEAUtagSTGMEDIUM@@@Z 0000000180031884     GraphicDisplay.obj
 0002:0000b8a4       $unwind$?OnPaint@CComControlBase@ATL@@QEAA_JI_K_JAEAH@Z 00000001800318a4     GraphicDisplay.obj
 0002:0000b8c0       $unwind$?OnDrawAdvanced@CComControlBase@ATL@@UEAAJAEAUATL_DRAWINFO@@@Z 00000001800318c0     GraphicDisplay.obj
 0002:0000b8dc       $unwind$?Invoke@?$IDispatchImpl@UIOPOSGraphicDisplay@@$1?IID_IOPOSGraphicDisplay@@3U_GUID@@B$1?LIBID_OposGraphicDisplay_CCO@@3U3@B$00$0A@VCComTypeInfoHolder@ATL@@@ATL@@UEAAJJAEBU_GUID@@KGPEAUtagDISPPARAMS@@PEAUtagVARIANT@@PEAUtagEXCEPINFO@@PEAI@Z 00000001800318dc     GraphicDisplay.obj
 0002:0000b8dc       $unwind$?ReleaseDevice@COPOSGraphicDisplay@@UEAAJPEAJ@Z 00000001800318dc     GraphicDisplayImpl.obj
 0002:0000b8dc       $unwind$_mbsdec_l          00000001800318dc     libucrt:mbsdec.obj
 0002:0000b8e8       $unwind$?atlCreate@?$CWindowImpl@VCOPOSGraphicDisplay@@VCWindow@ATL@@V?$CWinTraits@$0FGAAAAAA@$0A@@3@@ATL@@QEAAPEAUHWND__@@PEAU3@V_U_RECT@2@PEB_WKKV_U_MENUorID@2@PEAX@Z 00000001800318e8     GraphicDisplay.obj
 0002:0000b8e8       $unwind$?fp_format_f@@YAHQEBNQEAD_K12HW4__acrt_rounding_mode@@AEAV__crt_cached_ptd_host@@@Z 00000001800318e8     libucrt:cvt.obj
 0002:0000b8e8       $unwind$__acrt_LCMapStringEx 00000001800318e8     libucrt:winapi_thunks.obj
 0002:0000b8fc       $unwind$?CreateControlWindow@?$CComControl@VCOPOSGraphicDisplay@@V?$CWindowImpl@VCOPOSGraphicDisplay@@VCWindow@ATL@@V?$CWinTraits@$0FGAAAAAA@$0A@@3@@ATL@@@ATL@@UEAAPEAUHWND__@@PEAU3@AEAUtagRECT@@@Z 00000001800318fc     GraphicDisplay.obj
 0002:0000b8fc       $unwind$?CancelURLLoading@COPOSGraphicDisplay@@UEAAJPEAJ@Z 00000001800318fc     GraphicDisplayImpl.obj
 0002:0000b8fc       $unwind$?ClearOutput@COPOSGraphicDisplay@@UEAAJPEAJ@Z 00000001800318fc     GraphicDisplayImpl.obj
 0002:0000b8fc       $unwind$?GoURLBack@COPOSGraphicDisplay@@UEAAJPEAJ@Z 00000001800318fc     GraphicDisplayImpl.obj
 0002:0000b8fc       $unwind$?GoURLForward@COPOSGraphicDisplay@@UEAAJPEAJ@Z 00000001800318fc     GraphicDisplayImpl.obj
 0002:0000b8fc       $unwind$?StopVideo@COPOSGraphicDisplay@@UEAAJPEAJ@Z 00000001800318fc     GraphicDisplayImpl.obj
 0002:0000b8fc       $unwind$?UpdatePage@COPOSGraphicDisplay@@UEAAJPEAJ@Z 00000001800318fc     GraphicDisplayImpl.obj
 0002:0000b8fc       $unwind$_raise_exc         00000001800318fc     libucrt:fpexcept.obj
 0002:0000b8fc       $unwind$?__scrt_throw_std_bad_alloc@@YAXXZ 00000001800318fc     LIBCMT:throw_bad_alloc.obj
 0002:0000b8fc       $unwind$?__scrt_throw_std_bad_array_new_length@@YAXXZ 00000001800318fc     LIBCMT:throw_bad_alloc.obj
 0002:0000b904       $unwind$?ProcessWindowMessage@?$CComControl@VCOPOSGraphicDisplay@@V?$CWindowImpl@VCOPOSGraphicDisplay@@VCWindow@ATL@@V?$CWinTraits@$0FGAAAAAA@$0A@@3@@ATL@@@ATL@@UEAAHPEAUHWND__@@I_K_JAEA_JK@Z 0000000180031904     GraphicDisplay.obj
 0002:0000b90c       $unwind$?GetSizeMax@?$IPersistStreamInitImpl@VCOPOSGraphicDisplay@@@ATL@@UEAAJPEAT_ULARGE_INTEGER@@@Z 000000018003190c     GraphicDisplay.obj
 0002:0000b924       $unwind$?IPersistStreamInit_Load@?$IPersistStreamInitImpl@VCOPOSGraphicDisplay@@@ATL@@QEAAJPEAUIStream@@PEBUATL_PROPMAP_ENTRY@2@@Z 0000000180031924     GraphicDisplay.obj
 0002:0000b940       $unwind$?IPersistStreamInit_Save@?$IPersistStreamInitImpl@VCOPOSGraphicDisplay@@@ATL@@QEAAJPEAUIStream@@HPEBUATL_PROPMAP_ENTRY@2@@Z 0000000180031940     GraphicDisplay.obj
 0002:0000b95c       $unwind$?DoVerbPrimary@?$IOleObjectImpl@VCOPOSGraphicDisplay@@@ATL@@QEAAJPEBUtagRECT@@PEAUHWND__@@@Z 000000018003195c     GraphicDisplay.obj
 0002:0000b974       $unwind$?TranslateAcceleratorW@?$IOleInPlaceActiveObjectImpl@VCOPOSGraphicDisplay@@@ATL@@UEAAJPEAUtagMSG@@@Z 0000000180031974     GraphicDisplay.obj
 0002:0000b980       $unwind$?Draw@?$IViewObjectExImpl@VCOPOSGraphicDisplay@@@ATL@@UEAAJKJPEAXPEAUtagDVTARGETDEVICE@@PEAUHDC__@@2PEBU_RECTL@@3P6AH_K@Z4@Z 0000000180031980     GraphicDisplay.obj
 0002:0000b988       $unwind$?QueryHitRect@?$IViewObjectExImpl@VCOPOSGraphicDisplay@@@ATL@@UEAAJKPEBUtagRECT@@0JPEAK@Z 0000000180031988     GraphicDisplay.obj
 0002:0000b998       $unwind$?OnWindowMessage@?$IOleInPlaceObjectWindowlessImpl@VCOPOSGraphicDisplay@@@ATL@@UEAAJI_K_JPEA_J@Z 0000000180031998     GraphicDisplay.obj
 0002:0000b9ac       $unwind$?EnumConnectionPoints@?$IConnectionPointContainerImpl@VCOPOSGraphicDisplay@@@ATL@@UEAAJPEAPEAUIEnumConnectionPoints@@@Z 00000001800319ac     GraphicDisplay.obj
 0002:0000b9d4       $unwind$?FindConnectionPoint@?$IConnectionPointContainerImpl@VCOPOSGraphicDisplay@@@ATL@@UEAAJAEBU_GUID@@PEAPEAUIConnectionPoint@@@Z 00000001800319d4     GraphicDisplay.obj
 0002:0000b9f0       $unwind$?Load@?$IPersistStorageImpl@VCOPOSGraphicDisplay@@@ATL@@UEAAJPEAUIStorage@@@Z 00000001800319f0     GraphicDisplay.obj
 0002:0000ba00       $unwind$?Save@?$IPersistStorageImpl@VCOPOSGraphicDisplay@@@ATL@@UEAAJPEAUIStorage@@H@Z 0000000180031a00     GraphicDisplay.obj
 0002:0000ba14       $unwind$?IPSI_GetIPersistStreamInit@?$IPersistStorageImpl@VCOPOSGraphicDisplay@@@ATL@@AEAAPEAUIPersistStreamInit@@XZ 0000000180031a14     GraphicDisplay.obj
 0002:0000ba28       $unwind$?GetInterfaceSafetyOptions@?$IObjectSafetyImpl@VCOPOSGraphicDisplay@@$02@ATL@@UEAAJAEBU_GUID@@PEAK1@Z 0000000180031a28     GraphicDisplay.obj
 0002:0000ba3c       $unwind$?SetInterfaceSafetyOptions@?$IObjectSafetyImpl@VCOPOSGraphicDisplay@@$02@ATL@@UEAAJAEBU_GUID@@KK@Z 0000000180031a3c     GraphicDisplay.obj
 0002:0000ba50       $unwind$?Advise@?$IConnectionPointImpl@VCOPOSGraphicDisplay@@$1?DIID__IOPOSGraphicDisplayEvents@@3U_GUID@@BVCComDynamicUnkArray@ATL@@@ATL@@UEAAJPEAUIUnknown@@PEAK@Z 0000000180031a50     GraphicDisplay.obj
 0002:0000ba50       $unwind$?Advise@?$IConnectionPointImpl@VCOPOSGraphicDisplay@@$1?IID_IPropertyNotifySink@@3U_GUID@@BVCComDynamicUnkArray@ATL@@@ATL@@UEAAJPEAUIUnknown@@PEAK@Z 0000000180031a50     GraphicDisplay.obj
 0002:0000ba64       $unwind$?EnumConnections@?$IConnectionPointImpl@VCOPOSGraphicDisplay@@$1?DIID__IOPOSGraphicDisplayEvents@@3U_GUID@@BVCComDynamicUnkArray@ATL@@@ATL@@UEAAJPEAPEAUIEnumConnections@@@Z 0000000180031a64     GraphicDisplay.obj
 0002:0000ba64       $unwind$?EnumConnections@?$IConnectionPointImpl@VCOPOSGraphicDisplay@@$1?IID_IPropertyNotifySink@@3U_GUID@@BVCComDynamicUnkArray@ATL@@@ATL@@UEAAJPEAPEAUIEnumConnections@@@Z 0000000180031a64     GraphicDisplay.obj
 0002:0000ba7c       $unwind$?Fire_DirectIOEvent@?$CProxy_IOPOSEvents@VCOPOSGraphicDisplay@@@@QEAAXJPEAJPEAPEA_W@Z 0000000180031a7c     GraphicDisplay.obj
 0002:0000ba9c       $unwind$?Fire_ErrorEvent@?$CProxy_IOPOSEvents@VCOPOSGraphicDisplay@@@@QEAAXJJJPEAJ@Z 0000000180031a9c     GraphicDisplay.obj
 0002:0000babc       $unwind$?Fire_OutputCompleteEvent@?$CProxy_IOPOSEvents@VCOPOSGraphicDisplay@@@@QEAAXJ@Z 0000000180031abc     GraphicDisplay.obj
 0002:0000babc       $unwind$?Fire_StatusUpdateEvent@?$CProxy_IOPOSEvents@VCOPOSGraphicDisplay@@@@QEAAXJ@Z 0000000180031abc     GraphicDisplay.obj
 0002:0000babc       $unwind$?fp_format_e@@YAHQEBNQEAD_K12H_NIW4__acrt_rounding_mode@@AEAV__crt_cached_ptd_host@@@Z 0000000180031abc     libucrt:cvt.obj
 0002:0000babc       $unwind$??$__InternalCxxFrameHandler@V__FrameHandler3@@@@YA?AW4_EXCEPTION_DISPOSITION@@PEAUEHExceptionRecord@@PEA_KPEAU_CONTEXT@@PEAU_xDISPATCHER_CONTEXT@@PEBU_s_FuncInfo@@H1E@Z 0000000180031abc     libvcruntime:frame.obj
 0002:0000bad4       $unwind$?FireTheEvent@?$CProxy_IOPOSEvents@VCOPOSGraphicDisplay@@@@IEAAXPEAVOposVariant@@IAEAJPEB_WJ@Z 0000000180031ad4     GraphicDisplay.obj
 0002:0000bae4       $unwind$?ProcessWindowMessage@COPOSGraphicDisplay@@UEAAHPEAUHWND__@@I_K_JAEA_JK@Z 0000000180031ae4     GraphicDisplay.obj
 0002:0000bafc       $unwind$?SOError@COPOSGraphicDisplay@@MEAAJJJJPEAJ@Z 0000000180031afc     GraphicDisplay.obj
 0002:0000bafc       $unwind$??$common_lseek_nolock@_J@@YA_JH_JHAEAV__crt_cached_ptd_host@@@Z 0000000180031afc     libucrt:lseek.obj
 0002:0000bafc       $unwind$_invalid_parameter_internal 0000000180031afc     libucrt:invalid_parameter.obj
 0002:0000bafc       $unwind$??$type_case_integer@$07@?$output_processor@_WV?$string_output_adapter@_W@__crt_stdio_output@@V?$format_validation_base@_WV?$string_output_adapter@_W@__crt_stdio_output@@@2@@__crt_stdio_output@@AEAA_N_N@Z 0000000180031afc     libucrt:output.obj
 0002:0000bafc       $unwind$??$type_case_integer@$09@?$output_processor@_WV?$string_output_adapter@_W@__crt_stdio_output@@V?$format_validation_base@_WV?$string_output_adapter@_W@__crt_stdio_output@@@2@@__crt_stdio_output@@AEAA_N_N@Z 0000000180031afc     libucrt:output.obj
 0002:0000bafc       $unwind$??$type_case_integer@$0BA@@?$output_processor@_WV?$string_output_adapter@_W@__crt_stdio_output@@V?$format_validation_base@_WV?$string_output_adapter@_W@__crt_stdio_output@@@2@@__crt_stdio_output@@AEAA_N_N@Z 0000000180031afc     libucrt:output.obj
 0002:0000bb10       $unwind$?Clone@?$CComEnumImpl@UIEnumConnectionPoints@@$1?_GUID_b196b285_bab4_101a_b69c_00aa00341d07@@3U__s_GUID@@BPEAUIConnectionPoint@@V?$_CopyInterface@UIConnectionPoint@@@ATL@@@ATL@@UEAAJPEAPEAUIEnumConnectionPoints@@@Z 0000000180031b10     GraphicDisplay.obj
 0002:0000bb10       $unwind$?Clone@?$CComEnumImpl@UIEnumConnections@@$1?_GUID_b196b287_bab4_101a_b69c_00aa00341d07@@3U__s_GUID@@BUtagCONNECTDATA@@V?$_Copy@UtagCONNECTDATA@@@ATL@@@ATL@@UEAAJPEAPEAUIEnumConnections@@@Z 0000000180031b10     GraphicDisplay.obj
 0002:0000bb28       $unwind$?Init@?$CComEnumImpl@UIEnumConnectionPoints@@$1?_GUID_b196b285_bab4_101a_b69c_00aa00341d07@@3U__s_GUID@@BPEAUIConnectionPoint@@V?$_CopyInterface@UIConnectionPoint@@@ATL@@@ATL@@QEAAJPEAPEAUIConnectionPoint@@0PEAUIUnknown@@W4CComEnumFlags@2@@Z 0000000180031b28     GraphicDisplay.obj
 0002:0000bb28       $unwind$?Init@?$CComEnumImpl@UIEnumConnections@@$1?_GUID_b196b287_bab4_101a_b69c_00aa00341d07@@3U__s_GUID@@BUtagCONNECTDATA@@V?$_Copy@UtagCONNECTDATA@@@ATL@@@ATL@@QEAAJPEAUtagCONNECTDATA@@0PEAUIUnknown@@W4CComEnumFlags@2@@Z 0000000180031b28     GraphicDisplay.obj
 0002:0000bb28       $unwind$?should_round_up@@YA_NQEBN_KFW4__acrt_rounding_mode@@@Z 0000000180031b28     libucrt:cvt.obj
 0002:0000bb28       $unwind$??$parse_command_line@D@@YAXPEADPEAPEAD0PEA_K2@Z 0000000180031b28     libucrt:argv_parsing.obj
 0002:0000bb44       $unwind$?GetOposProp@COPOSGraphicDisplay@@IEAAJJPEAJJ@Z 0000000180031b44     GraphicDisplayImpl.obj
 0002:0000bb44       $unwind$?GetOposProp@COPOSGraphicDisplay@@IEAAJJPEAPEA_WJ@Z 0000000180031b44     GraphicDisplayImpl.obj
 0002:0000bb5c       $unwind$?SetOposProp@COPOSGraphicDisplay@@IEAAJJJJ@Z 0000000180031b5c     GraphicDisplayImpl.obj
 0002:0000bb7c       $unwind$?SetOposProp@COPOSGraphicDisplay@@IEAAJJPEA_WJ@Z 0000000180031b7c     GraphicDisplayImpl.obj
 0002:0000bb98       $unwind$?DoInvoke@COPOSGraphicDisplay@@IEAAJJPEAVOposVariant@@IHPEAJ_N@Z 0000000180031b98     GraphicDisplayImpl.obj
 0002:0000bbb0       $unwind$?SetCOFreezeEvents@COPOSGraphicDisplay@@IEAAXF@Z 0000000180031bb0     GraphicDisplayImpl.obj
 0002:0000bbc4       $unwind$?OnDraw@COPOSGraphicDisplay@@MEAAJAEAUATL_DRAWINFO@@@Z 0000000180031bc4     GraphicDisplayImpl.obj
 0002:0000bbdc       $unwind$?EventInit@COPOSGraphicDisplay@@IEAAJXZ 0000000180031bdc     GraphicDisplayImpl.obj
 0002:0000bbf0       $unwind$?EventWindowProc@COPOSGraphicDisplay@@IEAA_JI_K_J@Z 0000000180031bf0     GraphicDisplayImpl.obj
 0002:0000bbf0       $unwind$?type_case_n@?$output_processor@_WV?$string_output_adapter@_W@__crt_stdio_output@@V?$format_validation_base@_WV?$string_output_adapter@_W@__crt_stdio_output@@@2@@__crt_stdio_output@@AEAA_NXZ 0000000180031bf0     libucrt:output.obj
 0002:0000bbfc       $unwind$?get_ControlObjectDescription@COPOSGraphicDisplay@@UEAAJPEAPEA_W@Z 0000000180031bfc     GraphicDisplayImpl.obj
 0002:0000bbfc       $unwind$__dcrt_lowio_ensure_console_output_initialized 0000000180031bfc     libucrt:initcon.obj
 0002:0000bbfc       $unwind$?__mbrtowc_utf8@__crt_mbstring@@YA_KPEA_WPEBD_KPEAU_Mbstatet@@AEAV__crt_cached_ptd_host@@@Z 0000000180031bfc     libucrt:mbrtowc.obj
 0002:0000bbfc       $unwind$?getSystemCP@@YAHH@Z 0000000180031bfc     libucrt:mbctype.obj
 0002:0000bc04       $unwind$?CheckHealth@COPOSGraphicDisplay@@UEAAJJPEAJ@Z 0000000180031c04     GraphicDisplayImpl.obj
 0002:0000bc04       $unwind$?LoadImageW@COPOSGraphicDisplay@@UEAAJPEA_WPEAJ@Z 0000000180031c04     GraphicDisplayImpl.obj
 0002:0000bc04       $unwind$?LoadURL@COPOSGraphicDisplay@@UEAAJPEA_WPEAJ@Z 0000000180031c04     GraphicDisplayImpl.obj
 0002:0000bc04       $unwind$?ResetStatistics@COPOSGraphicDisplay@@UEAAJPEA_WPEAJ@Z 0000000180031c04     GraphicDisplayImpl.obj
 0002:0000bc04       $unwind$?RetrieveStatistics@COPOSGraphicDisplay@@UEAAJPEAPEA_WPEAJ@Z 0000000180031c04     GraphicDisplayImpl.obj
 0002:0000bc04       $unwind$?UpdateFirmware@COPOSGraphicDisplay@@UEAAJPEA_WPEAJ@Z 0000000180031c04     GraphicDisplayImpl.obj
 0002:0000bc04       $unwind$?UpdateStatistics@COPOSGraphicDisplay@@UEAAJPEA_WPEAJ@Z 0000000180031c04     GraphicDisplayImpl.obj
 0002:0000bc14       $unwind$?ClaimDevice@COPOSGraphicDisplay@@UEAAJJPEAJ@Z 0000000180031c14     GraphicDisplayImpl.obj
 0002:0000bc24       $unwind$?Close@COPOSGraphicDisplay@@UEAAJPEAJ@Z 0000000180031c24     GraphicDisplayImpl.obj
 0002:0000bc30       $unwind$?DirectIO@COPOSGraphicDisplay@@UEAAJJPEAJPEAPEA_W0@Z 0000000180031c30     GraphicDisplayImpl.obj
 0002:0000bc4c       $unwind$?Open@COPOSGraphicDisplay@@UEAAJPEA_WPEAJ@Z 0000000180031c4c     GraphicDisplayImpl.obj
 0002:0000bc70       $unwind$?CompareFirmwareVersion@COPOSGraphicDisplay@@UEAAJPEA_WPEAJ1@Z 0000000180031c70     GraphicDisplayImpl.obj
 0002:0000bc70       $unwind$?PlayVideo@COPOSGraphicDisplay@@UEAAJPEA_WFPEAJ@Z 0000000180031c70     GraphicDisplayImpl.obj
 0002:0000bc70       $unwind$?initialize_inherited_file_handles_nolock@@YAXXZ 0000000180031c70     libucrt:ioinit.obj
 0002:0000bc8c       $unwind$__scrt_is_nonwritable_in_current_image 0000000180031c8c     LIBCMT:utility.obj
 0002:0000bcac       $unwind$__scrt_is_nonwritable_in_current_image$filt$0 0000000180031cac     LIBCMT:utility.obj
 0002:0000bcb4       $unwind$__report_securityfailure 0000000180031cb4     LIBCMT:gs_report.obj
 0002:0000bcbc       $unwind$__report_gsfailure 0000000180031cbc     LIBCMT:gs_report.obj
 0002:0000bcc4       $unwind$capture_current_context 0000000180031cc4     LIBCMT:gs_report.obj
 0002:0000bcd0       $unwind$capture_previous_context 0000000180031cd0     LIBCMT:gs_report.obj
 0002:0000bcdc       $unwind$??2@YAPEAX_KAEBUnothrow_t@std@@@Z 0000000180031cdc     LIBCMT:new_scalar_nothrow.obj
 0002:0000bcec       $cppxdata$??2@YAPEAX_KAEBUnothrow_t@std@@@Z 0000000180031cec     LIBCMT:new_scalar_nothrow.obj
 0002:0000bcf9       $stateUnwindMap$??2@YAPEAX_KAEBUnothrow_t@std@@@Z 0000000180031cf9     LIBCMT:new_scalar_nothrow.obj
 0002:0000bcfc       $tryMap$??2@YAPEAX_KAEBUnothrow_t@std@@@Z 0000000180031cfc     LIBCMT:new_scalar_nothrow.obj
 0002:0000bd04       $handlerMap$??2@YAPEAX_KAEBUnothrow_t@std@@@Z 0000000180031d04     LIBCMT:new_scalar_nothrow.obj
 0002:0000bd0c       $ip2state$??2@YAPEAX_KAEBUnothrow_t@std@@@Z 0000000180031d0c     LIBCMT:new_scalar_nothrow.obj
 0002:0000bd10       $unwind$?catch$0@?0???2@YAPEAX_KAEBUnothrow_t@std@@@Z@4HA 0000000180031d10     LIBCMT:new_scalar_nothrow.obj
 0002:0000bd20       $cppxdata$?catch$0@?0???2@YAPEAX_KAEBUnothrow_t@std@@@Z@4HA 0000000180031d20     LIBCMT:new_scalar_nothrow.obj
 0002:0000bd2a       $stateUnwindMap$?catch$0@?0???2@YAPEAX_KAEBUnothrow_t@std@@@Z@4HA 0000000180031d2a     LIBCMT:new_scalar_nothrow.obj
 0002:0000bd2c       $ip2state$?catch$0@?0???2@YAPEAX_KAEBUnothrow_t@std@@@Z@4HA 0000000180031d2c     LIBCMT:new_scalar_nothrow.obj
 0002:0000bd30       $unwind$__GSHandlerCheckCommon 0000000180031d30     LIBCMT:gshandler.obj
 0002:0000bd38       $xdatasym                  0000000180031d38     LIBCMT:chkstk.obj
 0002:0000bd40       $xdatasym                  0000000180031d40     LIBCMT:amdsecgs.obj
 0002:0000bd44       $unwind$?dllmain_crt_process_attach@@YAHQEAUHINSTANCE__@@QEAX@Z 0000000180031d44     LIBCMT:dll_dllmain.obj
 0002:0000bd80       $unwind$?dllmain_crt_process_detach@@YAH_N@Z 0000000180031d80     LIBCMT:dll_dllmain.obj
 0002:0000bdd4       $unwind$?dllmain_dispatch@@YAHQEAUHINSTANCE__@@KQEAX@Z 0000000180031dd4     LIBCMT:dll_dllmain.obj
 0002:0000bdfc       $unwind$_write_internal$fin$0 0000000180031dfc     libucrt:write.obj
 0002:0000bdfc       $unwind$?fin$0@?0??_fclose_internal@@YAHQEAU_iobuf@@AEAV__crt_cached_ptd_host@@@Z@4HA 0000000180031dfc     libucrt:fclose.obj
 0002:0000bdfc       $unwind$?filt$0@?0??dllmain_dispatch@@YAHQEAUHINSTANCE__@@KQEAX@Z@4HA 0000000180031dfc     LIBCMT:dll_dllmain.obj
 0002:0000bdfc       $unwind$?filt$0@?0??FrameUnwindToState@__FrameHandler4@@SAXPEA_KPEAU_xDISPATCHER_CONTEXT@@PEAUFuncInfo4@FH4@@H@Z@4HA 0000000180031dfc     libvcruntime:frame.obj
 0002:0000bdfc       $unwind$?fin$1@?0??FrameUnwindToState@__FrameHandler4@@SAXPEA_KPEAU_xDISPATCHER_CONTEXT@@PEAUFuncInfo4@FH4@@H@Z@4HA 0000000180031dfc     libvcruntime:frame.obj
 0002:0000be04       $unwind$__isa_available_init 0000000180031e04     LIBCMT:cpu_disp.obj
 0002:0000be14       $unwind$__scrt_fastfail    0000000180031e14     LIBCMT:utility_desktop.obj
 0002:0000be24       $unwind$__security_init_cookie 0000000180031e24     LIBCMT:gs_support.obj
 0002:0000be30       $xdatasym                  0000000180031e30     LIBCMT:guard_dispatch.obj
 0002:0000be38       $xdatasym                  0000000180031e38     LIBCMT:guard_xfg_dispatch.obj
 0002:0000be3c       $unwind$AtlThunk_InitData  0000000180031e3c     atls:atlthunk.obj
 0002:0000be50       $unwind$wcsstr             0000000180031e50     libvcruntime:wcsstr.obj
 0002:0000be68       $xdatasym                  0000000180031e68     libvcruntime:memcmp.obj
 0002:0000be70       $xdatasym                  0000000180031e70     libvcruntime:memcpy.obj
 0002:0000be80       $xdatasym                  0000000180031e80     libvcruntime:memset.obj
 0002:0000be90       $unwind$__C_specific_handler 0000000180031e90     libvcruntime:riscchandler.obj
 0002:0000be90       $unwind$?GetRangeOfTrysToCheck@__FrameHandler3@@SA?AU?$pair@Viterator@TryBlockMap@__FrameHandler3@@V123@@std@@AEAVTryBlockMap@1@HPEAU_xDISPATCHER_CONTEXT@@PEBU_s_FuncInfo@@H@Z 0000000180031e90     libvcruntime:risctrnsctrl.obj
 0002:0000beac       $unwind$?StateFromIp@__FrameHandler4@@SAHPEAUFuncInfo4@FH4@@PEAU_xDISPATCHER_CONTEXT@@_K@Z 0000000180031eac     libvcruntime:ehstate.obj
 0002:0000beac       $unwind$?DecompFuncInfo@FH4@@YA_JPEAEAEAUFuncInfo4@1@_KH_N@Z 0000000180031eac     libvcruntime:risctrnsctrl.obj
 0002:0000bec4       $unwind$?GetEstablisherFrame@__FrameHandler3@@SAPEA_KPEA_KPEAU_xDISPATCHER_CONTEXT@@PEBU_s_FuncInfo@@0@Z 0000000180031ec4     libvcruntime:risctrnsctrl.obj
 0002:0000bedc       $unwind$?UnwindNestedFrames@__FrameHandler3@@SAXPEA_KPEAUEHExceptionRecord@@PEAU_CONTEXT@@0PEAXPEBU_s_FuncInfo@@HHPEBU_s_HandlerType@@PEAU_xDISPATCHER_CONTEXT@@E@Z 0000000180031edc     libvcruntime:risctrnsctrl.obj
 0002:0000bedc       $unwind$?UnwindNestedFrames@__FrameHandler4@@SAXPEA_KPEAUEHExceptionRecord@@PEAU_CONTEXT@@0PEAXPEAUFuncInfo4@FH4@@HHPEAUHandlerType4@5@PEAU_xDISPATCHER_CONTEXT@@E@Z 0000000180031edc     libvcruntime:risctrnsctrl.obj
 0002:0000bef0       $unwind$?GetRangeOfTrysToCheck@__FrameHandler4@@SA?AU?$pair@Viterator@TryBlockMap4@FH4@@V123@@std@@AEAVTryBlockMap4@FH4@@HPEAU_xDISPATCHER_CONTEXT@@PEAUFuncInfo4@5@H@Z 0000000180031ef0     libvcruntime:risctrnsctrl.obj
 0002:0000bf0c       $unwind$__CxxFrameHandler3 0000000180031f0c     libvcruntime:risctrnsctrl.obj
 0002:0000bf20       $unwind$__CxxFrameHandler4 0000000180031f20     libvcruntime:risctrnsctrl.obj
 0002:0000bf34       $unwind$??$_CallSETranslator@V__FrameHandler4@@@@YAHPEAUEHExceptionRecord@@PEA_KPEAU_CONTEXT@@PEAU_xDISPATCHER_CONTEXT@@PEAUFuncInfo4@FH4@@K1H@Z 0000000180031f34     libvcruntime:risctrnsctrl.obj
 0002:0000bf54       $unwind$?filt$0@?0???$_CallSETranslator@V__FrameHandler3@@@@YAHPEAUEHExceptionRecord@@PEA_KPEAU_CONTEXT@@PEAU_xDISPATCHER_CONTEXT@@PEBU_s_FuncInfo@@K1H@Z@4HA 0000000180031f54     libvcruntime:risctrnsctrl.obj
 0002:0000bf54       $unwind$?filt$0@?0???$_CallSETranslator@V__FrameHandler4@@@@YAHPEAUEHExceptionRecord@@PEA_KPEAU_CONTEXT@@PEAU_xDISPATCHER_CONTEXT@@PEAUFuncInfo4@FH4@@K1H@Z@4HA 0000000180031f54     libvcruntime:risctrnsctrl.obj
 0002:0000bf60       $unwind$??$_CallSETranslator@V__FrameHandler3@@@@YAHPEAUEHExceptionRecord@@PEA_KPEAU_CONTEXT@@PEAU_xDISPATCHER_CONTEXT@@PEBU_s_FuncInfo@@K1H@Z 0000000180031f60     libvcruntime:risctrnsctrl.obj
 0002:0000bf80       $unwind$__DestructExceptionObject 0000000180031f80     libvcruntime:ehhelpers.obj
 0002:0000bfa0       $unwind$__DestructExceptionObject$filt$0 0000000180031fa0     libvcruntime:ehhelpers.obj
 0002:0000bfa0       $unwind$?fin$1@?0??CxxCallCatchBlock@__FrameHandler3@@SAPEAXPEAU_EXCEPTION_RECORD@@@Z@4HA 0000000180031fa0     libvcruntime:frame.obj
 0002:0000bfa0       $unwind$?fin$1@?0??CxxCallCatchBlock@__FrameHandler4@@SAPEAXPEAU_EXCEPTION_RECORD@@@Z@4HA 0000000180031fa0     libvcruntime:frame.obj
 0002:0000bfac       $unwind$_CxxThrowException 0000000180031fac     libvcruntime:throw.obj
 0002:0000bfc0       $xdatasym                  0000000180031fc0     libvcruntime:notify.obj
 0002:0000bfcc       $unwind$?getStartStop@UWMap4@FH4@@QEAAXHHAEAViterator@12@0@Z 0000000180031fcc     libvcruntime:frame.obj
 0002:0000bfe4       $unwind$?FrameUnwindToState@__FrameHandler3@@SAXPEA_KPEAU_xDISPATCHER_CONTEXT@@PEBU_s_FuncInfo@@H@Z 0000000180031fe4     libvcruntime:frame.obj
 0002:0000c030       $unwind$?CxxCallCatchBlock@__FrameHandler3@@SAPEAXPEAU_EXCEPTION_RECORD@@@Z 0000000180032030     libvcruntime:frame.obj
 0002:0000c06c       $unwind$?FrameUnwindToState@__FrameHandler4@@SAXPEA_KPEAU_xDISPATCHER_CONTEXT@@PEAUFuncInfo4@FH4@@H@Z 000000018003206c     libvcruntime:frame.obj
 0002:0000c0b4       $unwind$?CxxCallCatchBlock@__FrameHandler4@@SAPEAXPEAU_EXCEPTION_RECORD@@@Z 00000001800320b4     libvcruntime:frame.obj
 0002:0000c110       $unwind$?IsInExceptionSpec@@YAEPEAUEHExceptionRecord@@PEBU_s_ESTypeList@@@Z 0000000180032110     libvcruntime:frame.obj
 0002:0000c12c       $unwind$??$__InternalCxxFrameHandler@V__FrameHandler4@@@@YA?AW4_EXCEPTION_DISPOSITION@@PEAUEHExceptionRecord@@PEA_KPEAU_CONTEXT@@PEAU_xDISPATCHER_CONTEXT@@PEAUFuncInfo4@FH4@@H1E@Z 000000018003212c     libvcruntime:frame.obj
 0002:0000c144       $unwind$??$BuildCatchObjectHelperInternal@V__FrameHandler3@@@@YAHPEAUEHExceptionRecord@@PEAXPEBU_s_HandlerType@@PEBU_s_CatchableType@@@Z 0000000180032144     libvcruntime:frame.obj
 0002:0000c184       $unwind$??$BuildCatchObjectHelperInternal@V__FrameHandler4@@@@YAHPEAUEHExceptionRecord@@PEAXPEAUHandlerType4@FH4@@PEBU_s_CatchableType@@@Z 0000000180032184     libvcruntime:frame.obj
 0002:0000c1c4       $unwind$??$BuildCatchObjectInternal@V__FrameHandler3@@@@YAXPEAUEHExceptionRecord@@PEAXPEBU_s_HandlerType@@PEBU_s_CatchableType@@@Z 00000001800321c4     libvcruntime:frame.obj
 0002:0000c1f0       $unwind$??$BuildCatchObjectInternal@V__FrameHandler4@@@@YAXPEAUEHExceptionRecord@@PEAXPEAUHandlerType4@FH4@@PEBU_s_CatchableType@@@Z 00000001800321f0     libvcruntime:frame.obj
 0002:0000c21c       $unwind$??$FindHandler@V__FrameHandler3@@@@YAXPEAUEHExceptionRecord@@PEA_KPEAU_CONTEXT@@PEAU_xDISPATCHER_CONTEXT@@PEBU_s_FuncInfo@@EH1@Z 000000018003221c     libvcruntime:frame.obj
 0002:0000c23c       $unwind$??$FindHandler@V__FrameHandler4@@@@YAXPEAUEHExceptionRecord@@PEA_KPEAU_CONTEXT@@PEAU_xDISPATCHER_CONTEXT@@PEAUFuncInfo4@FH4@@EH1@Z 000000018003223c     libvcruntime:frame.obj
 0002:0000c25c       $unwind$??$CatchIt@V__FrameHandler3@@@@YAXPEAUEHExceptionRecord@@PEA_KPEAU_CONTEXT@@PEAU_xDISPATCHER_CONTEXT@@PEBU_s_FuncInfo@@PEBU_s_HandlerType@@PEBU_s_CatchableType@@PEBU_s_TryBlockMapEntry@@H1EE@Z 000000018003225c     libvcruntime:frame.obj
 0002:0000c25c       $unwind$??$CatchIt@V__FrameHandler4@@@@YAXPEAUEHExceptionRecord@@PEA_KPEAU_CONTEXT@@PEAU_xDISPATCHER_CONTEXT@@PEAUFuncInfo4@FH4@@PEAUHandlerType4@4@PEBU_s_CatchableType@@PEAUTryBlockMapEntry4@4@H1EE@Z 000000018003225c     libvcruntime:frame.obj
 0002:0000c274       $unwind$??$FindHandlerForForeignException@V__FrameHandler3@@@@YAXPEAUEHExceptionRecord@@PEA_KPEAU_CONTEXT@@PEAU_xDISPATCHER_CONTEXT@@PEBU_s_FuncInfo@@HH1@Z 0000000180032274     libvcruntime:frame.obj
 0002:0000c290       $unwind$??$FindHandlerForForeignException@V__FrameHandler4@@@@YAXPEAUEHExceptionRecord@@PEA_KPEAU_CONTEXT@@PEAU_xDISPATCHER_CONTEXT@@PEAUFuncInfo4@FH4@@HH1@Z 0000000180032290     libvcruntime:frame.obj
 0002:0000c2b0       $unwind$?try_get_function@@YAPEAXW4function_id@?A0x391cf84c@@QEBDQEBW4module_id@2@2@Z 00000001800322b0     libucrt:winapi_thunks.obj
 0002:0000c2b0       $unwind$?try_get_function@@YAPEAXW4function_id@?A0xbc0cc709@@QEBDQEBW4module_id@2@2@Z 00000001800322b0     libvcruntime:winapi_downlevel.obj
 0002:0000c2d0       $xdatasym                  00000001800322d0     libvcruntime:handlers.obj
 0002:0000c2f0       $unwind$__acrt_call_reportfault 00000001800322f0     libucrt:invalid_parameter.obj
 0002:0000c310       $unwind$_invalid_parameter 0000000180032310     libucrt:invalid_parameter.obj
 0002:0000c31c       $unwind$_resetstkoflw      000000018003231c     libucrt:resetstk.obj
 0002:0000c340       $unwind$__stdio_common_vswprintf_s 0000000180032340     libucrt:output.obj
 0002:0000c354       $unwind$?write_string@?$string_output_adapter@_W@__crt_stdio_output@@QEBAXQEB_WHQEAHAEAV__crt_cached_ptd_host@@@Z 0000000180032354     libucrt:output.obj
 0002:0000c36c       $unwind$??$common_vsprintf@Vformat_validation_base@__crt_stdio_output@@_W@@YAH_KQEA_W0QEB_WAEAV__crt_cached_ptd_host@@QEAD@Z 000000018003236c     libucrt:output.obj
 0002:0000c38c       $unwind$?parse_int_from_format_string@?$output_processor@_WV?$string_output_adapter@_W@__crt_stdio_output@@V?$format_validation_base@_WV?$string_output_adapter@_W@__crt_stdio_output@@@2@@__crt_stdio_output@@AEAA_NQEAH@Z 000000018003238c     libucrt:output.obj
 0002:0000c3a0       $unwind$?state_case_type@?$output_processor@_WV?$string_output_adapter@_W@__crt_stdio_output@@V?$format_validation_base@_WV?$string_output_adapter@_W@__crt_stdio_output@@@2@@__crt_stdio_output@@AEAA_NXZ 00000001800323a0     libucrt:output.obj
 0002:0000c3c4       $unwind$?type_case_a@?$output_processor@_WV?$string_output_adapter@_W@__crt_stdio_output@@V?$format_validation_base@_WV?$string_output_adapter@_W@__crt_stdio_output@@@2@@__crt_stdio_output@@AEAA_NXZ 00000001800323c4     libucrt:output.obj
 0002:0000c3d8       $unwind$??$parse_integer@KV?$c_string_character_source@_W@__crt_strtox@@$0A@@__crt_strtox@@YAKAEAV__crt_cached_ptd_host@@V?$c_string_character_source@_W@0@H_N@Z 00000001800323d8     libucrt:output.obj
 0002:0000c3f4       $unwind$?try_cor_exit_process@@YAXI@Z 00000001800323f4     libucrt:exit.obj
 0002:0000c408       $ip2state$?try_cor_exit_process@@YAXI@Z 0000000180032408     libucrt:exit.obj
 0002:0000c410       $unwind$?common_exit@@YAXHW4_crt_exit_cleanup_mode@@W4_crt_exit_return_mode@@@Z 0000000180032410     libucrt:exit.obj
 0002:0000c424       $stateUnwindMap$__dcrt_uninitialize_environments_nolock 0000000180032424     libucrt:environment_initialization.obj
 0002:0000c424       $stateUnwindMap$?common_exit@@YAXHW4_crt_exit_cleanup_mode@@W4_crt_exit_return_mode@@@Z 0000000180032424     libucrt:exit.obj
 0002:0000c424       $stateUnwindMap$_execute_onexit_table 0000000180032424     libucrt:onexit.obj
 0002:0000c430       $ip2state$?common_exit@@YAXHW4_crt_exit_cleanup_mode@@W4_crt_exit_return_mode@@@Z 0000000180032430     libucrt:exit.obj
 0002:0000c438       $unwind$??R<lambda_6e4b09c48022b2350581041d5f6b0c4c>@@QEBA@XZ 0000000180032438     libucrt:exit.obj
 0002:0000c458       $unwind$??$?RV<lambda_d80eeec6fff315bfe5c115232f3240e3>@@AEAV<lambda_6e4b09c48022b2350581041d5f6b0c4c>@@V<lambda_2358e3775559c9db80273638284d5e45>@@@?$__crt_seh_guarded_call@X@@QEAAX$$QEAV<lambda_d80eeec6fff315bfe5c115232f3240e3>@@AEAV<lambda_6e4b09c48022b2350581041d5f6b0c4c>@@$$QEAV<lambda_2358e3775559c9db80273638284d5e45>@@@Z 0000000180032458     libucrt:exit.obj
 0002:0000c47c       $unwind$__dcrt_uninitialize_environments_nolock 000000018003247c     libucrt:environment_initialization.obj
 0002:0000c48c       $unwind$??$free_environment@D@@YAXQEAPEAD@Z 000000018003248c     libucrt:environment_initialization.obj
 0002:0000c48c       $unwind$??$free_environment@_W@@YAXQEAPEA_W@Z 000000018003248c     libucrt:environment_initialization.obj
 0002:0000c48c       $unwind$_initterm          000000018003248c     libucrt:initterm.obj
 0002:0000c498       $unwind$_register_onexit_function 0000000180032498     libucrt:onexit.obj
 0002:0000c4a0       $unwind$_execute_onexit_table 00000001800324a0     libucrt:onexit.obj
 0002:0000c4b0       $ip2state$_execute_onexit_table 00000001800324b0     libucrt:onexit.obj
 0002:0000c4b8       $unwind$??R<lambda_22ebabd17bc4fa466a2aca6d8deb888d>@@QEBAHXZ 00000001800324b8     libucrt:onexit.obj
 0002:0000c4d0       $unwind$??$?RV<lambda_638799b9deba96c50f710eeac98168cd>@@AEAV<lambda_22ebabd17bc4fa466a2aca6d8deb888d>@@V<lambda_a6f7d7db0129f75315ebf26d50c089f1>@@@?$__crt_seh_guarded_call@H@@QEAAH$$QEAV<lambda_638799b9deba96c50f710eeac98168cd>@@AEAV<lambda_22ebabd17bc4fa466a2aca6d8deb888d>@@$$QEAV<lambda_a6f7d7db0129f75315ebf26d50c089f1>@@@Z 00000001800324d0     libucrt:onexit.obj
 0002:0000c4f4       $unwind$??$?RV<lambda_7777bce6b2f8c936911f934f8298dc43>@@AEAV<lambda_f03950bc5685219e0bcd2087efbe011e>@@V<lambda_3883c3dff614d5e0c5f61bb1ac94921c>@@@?$__crt_seh_guarded_call@H@@QEAAH$$QEAV<lambda_7777bce6b2f8c936911f934f8298dc43>@@AEAV<lambda_f03950bc5685219e0bcd2087efbe011e>@@$$QEAV<lambda_3883c3dff614d5e0c5f61bb1ac94921c>@@@Z 00000001800324f4     libucrt:onexit.obj
 0002:0000c518       $unwind$_query_new_handler 0000000180032518     libucrt:new_handler.obj
 0002:0000c538       $unwind$terminate          0000000180032538     libucrt:terminate.obj
 0002:0000c558       $xdatasym                  0000000180032558     libucrt:strncmp.obj
 0002:0000c55c       $unwind$?construct_ptd_array@@YAXQEAU__acrt_ptd@@@Z 000000018003255c     libucrt:per_thread_data.obj
 0002:0000c564       $unwind$?destroy_ptd_array@@YAXQEAU__acrt_ptd@@@Z 0000000180032564     libucrt:per_thread_data.obj
 0002:0000c56c       $unwind$??$?RV<lambda_0ae27a3a962d80f24befdcbee591983d>@@AEAV<lambda_8d0ee55de4b1038c4002e0adecdf1839>@@V<lambda_dc504788e8f1664fe9b84e20bfb512f2>@@@?$__crt_seh_guarded_call@X@@QEAAX$$QEAV<lambda_0ae27a3a962d80f24befdcbee591983d>@@AEAV<lambda_8d0ee55de4b1038c4002e0adecdf1839>@@$$QEAV<lambda_dc504788e8f1664fe9b84e20bfb512f2>@@@Z 000000018003256c     libucrt:per_thread_data.obj
 0002:0000c590       $unwind$??$?RV<lambda_aa87e3671a710a21b5dc78c0bdf72e11>@@AEAV<lambda_92619d2358a28f41a33ba319515a20b9>@@V<lambda_6992ecaafeb10aed2b74cb1fae11a551>@@@?$__crt_seh_guarded_call@X@@QEAAX$$QEAV<lambda_aa87e3671a710a21b5dc78c0bdf72e11>@@AEAV<lambda_92619d2358a28f41a33ba319515a20b9>@@$$QEAV<lambda_6992ecaafeb10aed2b74cb1fae11a551>@@@Z 0000000180032590     libucrt:per_thread_data.obj
 0002:0000c5b4       $unwind$??$?RV<lambda_f2e299630e499de9f9a165e60fcd3db5>@@AEAV<lambda_2ae9d31cdba2644fcbeaf08da7c24588>@@V<lambda_40d01ff24d0e7b3814fdbdcee8eab3c7>@@@?$__crt_seh_guarded_call@X@@QEAAX$$QEAV<lambda_f2e299630e499de9f9a165e60fcd3db5>@@AEAV<lambda_2ae9d31cdba2644fcbeaf08da7c24588>@@$$QEAV<lambda_40d01ff24d0e7b3814fdbdcee8eab3c7>@@@Z 00000001800325b4     libucrt:per_thread_data.obj
 0002:0000c5d8       $unwind$??$?RV<lambda_2d41944a1d46af3157314b8a01080d33>@@AEAV<lambda_8f455de75cd7d7f24b4096f044d8b9e6>@@V<lambda_aa500f224e6afead328df44964fe2772>@@@?$__crt_seh_guarded_call@X@@QEAAX$$QEAV<lambda_2d41944a1d46af3157314b8a01080d33>@@AEAV<lambda_8f455de75cd7d7f24b4096f044d8b9e6>@@$$QEAV<lambda_aa500f224e6afead328df44964fe2772>@@@Z 00000001800325d8     libucrt:per_thread_data.obj
 0002:0000c5fc       $unwind$__acrt_uninitialize_locale 00000001800325fc     libucrt:wsetlocale.obj
 0002:0000c5fc       $unwind$__acrt_get_sigabrt_handler 00000001800325fc     libucrt:signal.obj
 0002:0000c604       $unwind$??$?RV<lambda_410d79af7f07d98d83a3f525b3859a53>@@AEAV<lambda_3e16ef9562a7dcce91392c22ab16ea36>@@V<lambda_38119f0e861e05405d8a144b9b982f0a>@@@?$__crt_seh_guarded_call@X@@QEAAX$$QEAV<lambda_410d79af7f07d98d83a3f525b3859a53>@@AEAV<lambda_3e16ef9562a7dcce91392c22ab16ea36>@@$$QEAV<lambda_38119f0e861e05405d8a144b9b982f0a>@@@Z 0000000180032604     libucrt:wsetlocale.obj
 0002:0000c62c       $unwind$__acrt_initialize_winapi_thunks 000000018003262c     libucrt:winapi_thunks.obj
 0002:0000c62c       $unwind$__acrt_fenv_get_control 000000018003262c     libucrt:_fenvutils.obj
 0002:0000c634       $unwind$__acrt_fp_format   0000000180032634     libucrt:cvt.obj
 0002:0000c644       $unwind$?fp_format_e_internal@@YAHQEAD_KH_NIQEAU_strflt@@2AEAV__crt_cached_ptd_host@@@Z 0000000180032644     libucrt:cvt.obj
 0002:0000c660       $unwind$?fp_format_a@@YAHQEBNPEAD_KQEAD2H_NIW4__acrt_rounding_mode@@AEAV__crt_cached_ptd_host@@@Z 0000000180032660     libucrt:cvt.obj
 0002:0000c67c       $unwind$?fp_format_g@@YAHQEBNQEAD_K12H_NIW4__acrt_rounding_mode@@AEAV__crt_cached_ptd_host@@@Z 000000018003267c     libucrt:cvt.obj
 0002:0000c694       $unwind$__acrt_initialize_lowio 0000000180032694     libucrt:ioinit.obj
 0002:0000c6b4       $unwind$??$common_expand_argv_wildcards@D@@YAHQEAPEADQEAPEAPEAD@Z 00000001800326b4     libucrt:argv_wildcards.obj
 0002:0000c6cc       $unwind$__dcrt_get_narrow_environment_from_os 00000001800326cc     libucrt:get_environment_from_os.obj
 0002:0000c6cc       $unwind$??$__acrt_convert_wcs_mbs_cp@_WDV<lambda_d8593a27d1aa8c02be35c86a17d324c4>@@U__crt_win32_buffer_internal_dynamic_resizing@@@@YAHQEB_WAEAV?$__crt_win32_buffer@DU__crt_win32_buffer_internal_dynamic_resizing@@@@AEBV<lambda_d8593a27d1aa8c02be35c86a17d324c4>@@I@Z 00000001800326cc     libucrt:argv_wildcards.obj
 0002:0000c6e4       $unwind$??$copy_and_add_argument_to_buffer@D@@YAHQEBD0_KAEAV?$argument_list@D@?A0x5f5c8891@@@Z 00000001800326e4     libucrt:argv_wildcards.obj
 0002:0000c700       $unwind$??$expand_argument_wildcards@D@@YAHQEAD0AEAV?$argument_list@D@?A0x5f5c8891@@@Z 0000000180032700     libucrt:argv_wildcards.obj
 0002:0000c720       $unwind$__acrt_GetModuleFileNameA 0000000180032720     libucrt:getmodulefilenamea.obj
 0002:0000c73c       $unwind$_setmbcp_nolock    000000018003273c     libucrt:mbctype.obj
 0002:0000c75c       $unwind$?update_thread_multibyte_data_internal@@YAPEAU__crt_multibyte_data@@QEAU__acrt_ptd@@QEAPEAU1@@Z 000000018003275c     libucrt:mbctype.obj
 0002:0000c784       $unwind$?setmbcp_internal@@YAHH_NQEAU__acrt_ptd@@QEAPEAU__crt_multibyte_data@@@Z 0000000180032784     libucrt:mbctype.obj
 0002:0000c79c       $unwind$?setSBUpLow@@YAXPEAU__crt_multibyte_data@@@Z 000000018003279c     libucrt:mbctype.obj
 0002:0000c7b8       $unwind$??$?RV<lambda_efdfa57d1f175319df784efa44bb7b81>@@AEAV<lambda_5f0a4c1567f8adc6734073e5d1e1b35c>@@V<lambda_2e8a7d3640ea6ccb4c2413664c2db6fd>@@@?$__crt_seh_guarded_call@X@@QEAAX$$QEAV<lambda_efdfa57d1f175319df784efa44bb7b81>@@AEAV<lambda_5f0a4c1567f8adc6734073e5d1e1b35c>@@$$QEAV<lambda_2e8a7d3640ea6ccb4c2413664c2db6fd>@@@Z 00000001800327b8     libucrt:mbctype.obj
 0002:0000c7dc       $unwind$__acrt_WideCharToMultiByte 00000001800327dc     libucrt:widechartomultibyte.obj
 0002:0000c7e8       $unwind$raise              00000001800327e8     libucrt:signal.obj
 0002:0000c824       $unwind$??$?RV<lambda_450d765d439847d4c735a33c368b5fc0>@@AEAV<lambda_44731a7d0e6d81c3e6aa82d741081786>@@V<lambda_601a2a7da3b7a96e9554ac7215c4b07c>@@@?$__crt_seh_guarded_call@P6AXH@Z@@QEAAP6AXH@Z$$QEAV<lambda_450d765d439847d4c735a33c368b5fc0>@@AEAV<lambda_44731a7d0e6d81c3e6aa82d741081786>@@$$QEAV<lambda_601a2a7da3b7a96e9554ac7215c4b07c>@@@Z 0000000180032824     libucrt:signal.obj
 0002:0000c848       $unwind$fclose             0000000180032848     libucrt:fclose.obj
 0002:0000c848       $unwind$_fflush_nolock     0000000180032848     libucrt:fflush.obj
 0002:0000c858       $unwind$?common_flush_all@@YAH_N@Z 0000000180032858     libucrt:fflush.obj
 0002:0000c860       $unwind$??$?RV<lambda_842d9ff0dc9ef11c61343bbaebe7f885>@@AEAV<lambda_c5860995281e5c4ce005b3de8f5874ee>@@V<lambda_d90129c13df834fdcbf8d2b88dafcf2d>@@@?$__crt_seh_guarded_call@X@@QEAAX$$QEAV<lambda_842d9ff0dc9ef11c61343bbaebe7f885>@@AEAV<lambda_c5860995281e5c4ce005b3de8f5874ee>@@$$QEAV<lambda_d90129c13df834fdcbf8d2b88dafcf2d>@@@Z 0000000180032860     libucrt:fflush.obj
 0002:0000c884       $unwind$??$?RV<lambda_886d6c58226a84441f68b9f2b8217b83>@@AEAV<lambda_ab61a845afdef5b7c387490eaf3616ee>@@V<lambda_f7f22ab5edc0698d5f6905b0d3f44752>@@@?$__crt_seh_guarded_call@X@@QEAAX$$QEAV<lambda_886d6c58226a84441f68b9f2b8217b83>@@AEAV<lambda_ab61a845afdef5b7c387490eaf3616ee>@@$$QEAV<lambda_f7f22ab5edc0698d5f6905b0d3f44752>@@@Z 0000000180032884     libucrt:fflush.obj
 0002:0000c8ac       $unwind$__acrt_update_thread_locale_data 00000001800328ac     libucrt:locale_refcounting.obj
 0002:0000c8d0       $unwind$__acrt_locale_free_monetary 00000001800328d0     libucrt:initmon.obj
 0002:0000c8d8       $unwind$__acrt_locale_free_time 00000001800328d8     libucrt:inittime.obj
 0002:0000c8e8       $unwind$__acrt_GetStringTypeA 00000001800328e8     libucrt:getstringtypea.obj
 0002:0000c910       $unwind$__acrt_fp_strflt_to_string 0000000180032910     libucrt:_fptostr.obj
 0002:0000c92c       $unwind$__acrt_fltout      000000018003292c     libucrt:cfout.obj
 0002:0000c94c       $unwind$?divide@__crt_strtox@@YA_KAEAUbig_integer@1@AEBU21@@Z 000000018003294c     libucrt:cfout.obj
 0002:0000c964       $chain$0$?divide@__crt_strtox@@YA_KAEAUbig_integer@1@AEBU21@@Z 0000000180032964     libucrt:cfout.obj
 0002:0000c978       $chain$1$?divide@__crt_strtox@@YA_KAEAUbig_integer@1@AEBU21@@Z 0000000180032978     libucrt:cfout.obj
 0002:0000c988       $unwind$?__mbsrtowcs_utf8@__crt_mbstring@@YA_KPEA_WPEAPEBD_KPEAU_Mbstatet@@AEAV__crt_cached_ptd_host@@@Z 0000000180032988     libucrt:mbrtowc.obj
 0002:0000c9a0       $unwind$_fcloseall         00000001800329a0     libucrt:closeall.obj
 0002:0000c9c4       $unwind$__acrt_lowio_destroy_handle_array 00000001800329c4     libucrt:osfinfo.obj
 0002:0000c9d4       $unwind$__acrt_lowio_ensure_fh_exists 00000001800329d4     libucrt:osfinfo.obj
 0002:0000ca00       $unwind$qsort              0000000180032a00     libucrt:qsort.obj
 0002:0000ca18       $chain$4$qsort             0000000180032a18     libucrt:qsort.obj
 0002:0000ca3c       $chain$5$qsort             0000000180032a3c     libucrt:qsort.obj
 0002:0000ca4c       $unwind$strpbrk            0000000180032a4c     libucrt:strpbrk.obj
 0002:0000ca5c       $unwind$fallbackMethod     0000000180032a5c     libucrt:strpbrk.obj
 0002:0000ca6c       $unwind$__acrt_LCMapStringA 0000000180032a6c     libucrt:lcmapstringa.obj
 0002:0000ca7c       $unwind$?__acrt_LCMapStringA_stat@@YAHPEAU__crt_locale_pointers@@PEB_WKPEBDHPEADHHH@Z 0000000180032a7c     libucrt:lcmapstringa.obj
 0002:0000caa4       $unwind$_commit            0000000180032aa4     libucrt:commit.obj
 0002:0000caac       $unwind$??$?RV<lambda_a37b2b86f63e897a80ea819b0eb08c01>@@AEAV<lambda_38ce7e780aa69e748d6df282ebc68efe>@@V<lambda_99fb1378e971ab6e7edea83e3a7a83a2>@@@?$__crt_seh_guarded_call@H@@QEAAH$$QEAV<lambda_a37b2b86f63e897a80ea819b0eb08c01>@@AEAV<lambda_38ce7e780aa69e748d6df282ebc68efe>@@$$QEAV<lambda_99fb1378e971ab6e7edea83e3a7a83a2>@@@Z 0000000180032aac     libucrt:commit.obj
 0002:0000cad0       $unwind$_write_nolock      0000000180032ad0     libucrt:write.obj
 0002:0000cae8       $unwind$_write_internal    0000000180032ae8     libucrt:write.obj
 0002:0000cb18       $unwind$?write_double_translated_ansi_nolock@@YA?AUwrite_result@?A0x17268360@@HQEBDIAEAV__crt_cached_ptd_host@@@Z 0000000180032b18     libucrt:write.obj
 0002:0000cb40       $ip2state$?write_double_translated_ansi_nolock@@YA?AUwrite_result@?A0x17268360@@HQEBDIAEAV__crt_cached_ptd_host@@@Z 0000000180032b40     libucrt:write.obj
 0002:0000cb48       $unwind$?write_text_ansi_nolock@@YA?AUwrite_result@?A0x17268360@@HQEBDI@Z 0000000180032b48     libucrt:write.obj
 0002:0000cb48       $unwind$?write_text_utf16le_nolock@@YA?AUwrite_result@?A0x17268360@@HQEBDI@Z 0000000180032b48     libucrt:write.obj
 0002:0000cb68       $unwind$?write_text_utf8_nolock@@YA?AUwrite_result@?A0x17268360@@HQEBDI@Z 0000000180032b68     libucrt:write.obj
 0002:0000cb90       $xdatasym                  0000000180032b90     libucrt:log10.obj
 0002:0000cb9c       $unwind$__acrt_fenv_set_control 0000000180032b9c     libucrt:_fenvutils.obj
 0002:0000cbac       $unwind$?__mbrtoc32_utf8@__crt_mbstring@@YA_KPEA_UPEBD_KPEAU_Mbstatet@@AEAV__crt_cached_ptd_host@@@Z 0000000180032bac     libucrt:mbrtoc32.obj
 0002:0000cbc8       $unwind$?_fclose_nolock_internal@@YAHQEAU_iobuf@@AEAV__crt_cached_ptd_host@@@Z 0000000180032bc8     libucrt:fclose.obj
 0002:0000cbd8       $unwind$?_fclose_internal@@YAHQEAU_iobuf@@AEAV__crt_cached_ptd_host@@@Z 0000000180032bd8     libucrt:fclose.obj
 0002:0000cbfc       $unwind$_putwch_nolock     0000000180032bfc     libucrt:putwch.obj
 0002:0000cc04       $unwind$common_control87   0000000180032c04     libucrt:ieee.obj
 0002:0000cc30       $unwind$_call_matherr      0000000180032c30     libucrt:libm_error.obj
 0002:0000cc38       $unwind$_handle_error      0000000180032c38     libucrt:libm_error.obj
 0002:0000cc58       $unwind$__acrt_initialize_fma3 0000000180032c58     libucrt:fma3_available.obj
 0002:0000cc60       $unwind$_log_special_common 0000000180032c60     libucrt:log_special.obj
 0002:0000cc6c       $unwind$_close_internal    0000000180032c6c     libucrt:close.obj
 0002:0000cc74       $unwind$??$?RV<lambda_ad8af0d99a0adf03d037d7dffe354bb5>@@AEAV<lambda_c9ba49e555ba839a7b07aa3fbecb7617>@@V<lambda_2f1ebd5d68526518146ae959c9e734c8>@@@?$__crt_seh_guarded_call@H@@QEAAH$$QEAV<lambda_ad8af0d99a0adf03d037d7dffe354bb5>@@AEAV<lambda_c9ba49e555ba839a7b07aa3fbecb7617>@@$$QEAV<lambda_2f1ebd5d68526518146ae959c9e734c8>@@@Z 0000000180032c74     libucrt:close.obj
 0002:0000cc98       $xdatasym                  0000000180032c98     libucrt:fpsr.obj
 0002:0000cca0       $unwind$_raise_exc_ex      0000000180032ca0     libucrt:fpexcept.obj
 0002:0000ccb4       $unwind$_ctrlfp            0000000180032cb4     libucrt:fpctrl.obj
 0002:0000ccdc       $unwind$_IsNonwritableInCurrentImage 0000000180032cdc     LIBCMT:pesect.obj
 0002:0000cd00       $unwind$strrchr            0000000180032d00     libvcruntime:strrchr.obj
 0002:0000ce70       .edata                     0000000180032e70     OPOSGraphicDisplay.exp
 0002:0000ce98       rgpv                       0000000180032e98     OPOSGraphicDisplay.exp
 0002:0000cea8       rgszName                   0000000180032ea8     OPOSGraphicDisplay.exp
 0002:0000ceb8       rgwOrd                     0000000180032eb8     OPOSGraphicDisplay.exp
 0002:0000cec0       szName                     0000000180032ec0     OPOSGraphicDisplay.exp
 0002:0000ced7       $N00001                    0000000180032ed7     OPOSGraphicDisplay.exp
 0002:0000cee7       $N00002                    0000000180032ee7     OPOSGraphicDisplay.exp
 0002:0000cef9       $N00003                    0000000180032ef9     OPOSGraphicDisplay.exp
 0002:0000cf0b       $N00004                    0000000180032f0b     OPOSGraphicDisplay.exp
 0002:0000d85a       .idata$6                   000000018003385a     kernel32:KERNEL32.dll
 0002:0000da72       .idata$6                   0000000180033a72     user32:USER32.dll
 0002:0000dba6       .idata$6                   0000000180033ba6     gdi32:GDI32.dll
 0002:0000dc4c       .idata$6                   0000000180033c4c     advapi32:ADVAPI32.dll
 0002:0000dd68       .idata$6                   0000000180033d68     ole32:ole32.dll
 0002:0000dd72       .idata$6                   0000000180033d72     oleaut32:OLEAUT32.dll
 0003:000001c0       ?ObjectMap@@3PAU_ATL_OBJMAP_ENTRY30@ATL@@A 00000001800351c0     GraphicDisplay.obj
 0003:000002c0       ?s_SOMethodNames@@3PAPEADA 00000001800352c0     GraphicDisplayImpl.obj
 0003:00000390       ?s_RequiredMethodsPerRelease@@3PAHA 0000000180035390     GraphicDisplayImpl.obj
 0003:000003d0       ?__vcrt_flsindex@@3KA      00000001800353d0     libvcruntime:per_thread_data.obj
 0003:000003e0       ?errno_no_memory@@3HA      00000001800353e0     libucrt:errno.obj
 0003:000003e4       ?doserrno_no_memory@@3KA   00000001800353e4     libucrt:errno.obj
 0003:000003f0       ?__acrt_flsindex@@3KA      00000001800353f0     libucrt:per_thread_data.obj
 0003:000008b0       _mbctypes                  00000001800358b0     libucrt:mbctype.obj
 0003:000009c0       _mbcasemaps                00000001800359c0     libucrt:mbctype.obj
 0003:00000ac0       ?__rgctypeflag@@3PADA      0000000180035ac0     libucrt:mbctype.obj
 0003:00000ad0       ?__rgcode_page_info@@3PAUcode_page_info@@A 0000000180035ad0     libucrt:mbctype.obj
 0003:00000d70       ?dazSupported@?1??common_control87@@9@9 0000000180035d70     libucrt:ieee.obj
 0003:00000d80       ?__dcrt_lowio_console_output_handle@@3PEAXEA 0000000180035d80     libucrt:initcon.obj
 0003:00000d90       ?dazSupported@?1??_ctrlfp@@9@9 0000000180035d90     libucrt:fpctrl.obj
 0003:00000fe0       ?is_initialized_as_dll@@3_NA 0000000180035fe0     LIBCMT:utility.obj
 0003:00000fe1       ?module_local_atexit_table_initialized@@3_NA 0000000180035fe1     LIBCMT:utility.obj
 0003:00000fe8       ?module_local_atexit_table@@3U_onexit_table_t@@A 0000000180035fe8     LIBCMT:utility.obj
 0003:00001000       ?module_local_at_quick_exit_table@@3U_onexit_table_t@@A 0000000180036000     LIBCMT:utility.obj
 0003:00001018       ?g_tss_cv@@3U_RTL_CONDITION_VARIABLE@@A 0000000180036018     LIBCMT:thread_safe_statics.obj
 0003:00001020       ?g_tss_event@@3PEAXEA      0000000180036020     LIBCMT:thread_safe_statics.obj
 0003:00001028       ?g_tss_mutex@@3U_RTL_CRITICAL_SECTION@@A 0000000180036028     LIBCMT:thread_safe_statics.obj
 0003:00001050       ?g_sleep_condition_variable_cs@@3P6AHPEAU_RTL_CONDITION_VARIABLE@@PEAU_RTL_CRITICAL_SECTION@@K@ZEA 0000000180036050     LIBCMT:thread_safe_statics.obj
 0003:00001058       ?g_wake_all_condition_variable@@3P6AXPEAU_RTL_CONDITION_VARIABLE@@@ZEA 0000000180036058     LIBCMT:thread_safe_statics.obj
 0003:00001060       GS_ExceptionRecord         0000000180036060     LIBCMT:gs_report.obj
 0003:00001100       GS_ContextRecord           0000000180036100     LIBCMT:gs_report.obj
 0003:000015d4       ?__proc_attached@@3HA      00000001800365d4     LIBCMT:dll_dllmain.obj
 0003:00001668       ?AllocateData@@3P6APEAUAtlThunkData_t@@XZEA 0000000180036668     atls:atlthunk.obj
 0003:00001670       ?InitData@@3P6AXPEAUAtlThunkData_t@@PEAX_K@ZEA 0000000180036670     atls:atlthunk.obj
 0003:00001678       ?DataToCode@@3P6AP6A_JPEAUHWND__@@I_K_J@ZPEAUAtlThunkData_t@@@ZEA 0000000180036678     atls:atlthunk.obj
 0003:00001680       ?FreeData@@3P6AXPEAUAtlThunkData_t@@@ZEA 0000000180036680     atls:atlthunk.obj
 0003:00001688       ?Initialized@@3_NA         0000000180036688     atls:atlthunk.obj
 0003:000016a0       ?__vcrt_startup_thread_ptd@@3U__vcrt_ptd@@A 00000001800366a0     libvcruntime:per_thread_data.obj
 0003:00001720       __vcrt_lock_table          0000000180036720     libvcruntime:locks.obj
 0003:00001748       __vcrt_locks_initialized   0000000180036748     libvcruntime:locks.obj
 0003:00001790       ?heap@@3V_HeapManager@@A   0000000180036790     libvcruntime:undname.obj
 0003:000017b8       ?module_handles@@3PAPEAUHINSTANCE__@@A 00000001800367b8     libvcruntime:winapi_downlevel.obj
 0003:000017d0       ?function_pointers@@3PAPEAXA 00000001800367d0     libvcruntime:winapi_downlevel.obj
 0003:000017f8       ?__acrt_invalid_parameter_handler@@3V?$dual_state_global@P6AXPEB_W00I_K@Z@__crt_state_management@@A 00000001800367f8     libucrt:invalid_parameter.obj
 0003:00001800       ?c_termination_complete@@3JA 0000000180036800     libucrt:exit.obj
 0003:00001808       ?thread_local_exit_callback_func@@3P6AXPEAXK0@ZEA 0000000180036808     libucrt:exit.obj
 0003:00001820       ?program_name@?1???$common_configure_argv@D@@YAHW4_crt_argv_mode@@@Z@4PADA 0000000180036820     libucrt:argv_parsing.obj
 0003:00001978       ?__acrt_new_handler@@3V?$dual_state_global@P6AH_K@Z@__crt_state_management@@A 0000000180036978     libucrt:new_handler.obj
 0003:00001990       ?module_handles@@3PAPEAUHINSTANCE__@@A 0000000180036990     libucrt:winapi_thunks.obj
 0003:00001a30       ?encoded_function_pointers@@3PAPEAXA 0000000180036a30     libucrt:winapi_thunks.obj
 0003:00001b20       ?internal_state@?1??_mbtowc_internal@@9@4U_Mbstatet@@A 0000000180036b20     libucrt:mbtowc.obj
 0003:00001b38       ?enable_percent_n@@3_KA    0000000180036b38     libucrt:printf_count_output.obj
 0003:00001f60       ?__acrt_lock_table@@3PAU_RTL_CRITICAL_SECTION@@A 0000000180036f60     libucrt:locks.obj
 0003:00002190       ?__acrt_locks_initialized@@3IA 0000000180037190     libucrt:locks.obj
 0003:000021b0       ?fSystemSet@@3HA           00000001800371b0     libucrt:mbctype.obj
 0003:000021b4       ?initialized@?1??__acrt_initialize_multibyte@@9@4_NA 00000001800371b4     libucrt:mbctype.obj
 0003:000021f0       ?ctrlc_action@@3V?$dual_state_global@P6AXH@Z@__crt_state_management@@A 00000001800371f0     libucrt:signal.obj
 0003:000021f8       ?ctrlbreak_action@@3V?$dual_state_global@P6AXH@Z@__crt_state_management@@A 00000001800371f8     libucrt:signal.obj
 0003:00002200       ?abort_action@@3V?$dual_state_global@P6AXH@Z@__crt_state_management@@A 0000000180037200     libucrt:signal.obj
 0003:00002208       ?term_action@@3V?$dual_state_global@P6AXH@Z@__crt_state_management@@A 0000000180037208     libucrt:signal.obj
 0003:00002210       ?user_matherr@@3V?$dual_state_global@P6AHPEAU_exception@@@Z@__crt_state_management@@A 0000000180037210     libucrt:matherr.obj
 0003:00002220       ?__acrt_global_new_mode@@3V?$dual_state_global@J@__crt_state_management@@A 0000000180037220     libucrt:new_mode.obj
 0003:00002228       ?internal_pst@?1??__mbrtoc32_utf8@__crt_mbstring@@YA_KPEA_UPEBD_KPEAU_Mbstatet@@AEAV__crt_cached_ptd_host@@@Z@4U3@A 0000000180037228     libucrt:mbrtoc32.obj
 0003:00002230       ?__acrt_app_type@@3W4_crt_app_type@@A 0000000180037230     libucrt:report_runtime_error.obj
 0005:00000000       MoveSmall                  000000018003b000     libvcruntime:memcpy.obj
 0005:00000040       MoveSmallYmm               000000018003b040     libvcruntime:memcpy.obj
 0005:00000064       MoveSmallYmmNT             000000018003b064     libvcruntime:memcpy.obj
 0005:00000088       MoveSmallXmm               000000018003b088     libvcruntime:memcpy.obj
 0005:000000b0       MsetTab                    000000018003b0b0     libvcruntime:memset.obj
 0006:00000220       $R000000                   000000018003c220     GraphicDisplay.res
 0006:00000b70       $R000950                   000000018003cb70     GraphicDisplay.res
 0006:00000c58       $R000A38                   000000018003cc58     GraphicDisplay.res
 0006:00000ec0       $R000CA0                   000000018003cec0     GraphicDisplay.res
 0006:000013a0       $R001180                   000000018003d3a0     GraphicDisplay.res
 0006:000043a8       $R004188                   00000001800403a8     GraphicDisplay.res
 0006:000043e8       $R0041C8                   00000001800403e8     GraphicDisplay.res
