 OPOSSmartCardRW

 Timestamp is 5d429ffb (Thu Aug  1 17:16:59 2019)

 Preferred load address is 0000000180000000

 Start         Length     Name                   Class
 0001:00000000 000000c0H .text$di                CODE
 0001:000000c0 00020350H .text$mn                CODE
 0001:00020410 00000020H .text$mn$00             CODE
 0001:00020430 00000400H .text$x                 CODE
 0001:00020830 000000c0H .text$yd                CODE
 0002:00000000 00000618H .idata$5                DATA
 0002:00000618 00000010H .00cfg                  DATA
 0002:00000628 00000008H .CRT$XCA                DATA
 0002:00000630 00000008H .CRT$XCL                DATA
 0002:00000638 00000020H .CRT$XCU                DATA
 0002:00000658 00000008H .CRT$XCZ                DATA
 0002:00000660 00000008H .CRT$XIA                DATA
 0002:00000668 00000020H .CRT$XIC                DATA
 0002:00000688 00000008H .CRT$XIZ                DATA
 0002:00000690 00000008H .CRT$XLA                DATA
 0002:00000698 00000008H .CRT$XLZ                DATA
 0002:000006a0 00000008H .CRT$XPA                DATA
 0002:000006a8 00000010H .CRT$XPX                DATA
 0002:000006b8 00000008H .CRT$XPXA               DATA
 0002:000006c0 00000008H .CRT$XPZ                DATA
 0002:000006c8 00000008H .CRT$XTA                DATA
 0002:000006d0 00000010H .CRT$XTZ                DATA
 0002:000006d8 00000000H .gfids$y                DATA
 0002:000006e0 0000a198H .rdata                  DATA
 0002:0000a878 00000028H .rdata$T                DATA
 0002:0000a8a0 00000274H .rdata$r                DATA
 0002:0000ab14 0000040cH .rdata$zzzdbg           DATA
 0002:0000af20 00000008H .rtc$IAA                DATA
 0002:0000af28 00000008H .rtc$IZZ                DATA
 0002:0000af30 00000008H .rtc$TAA                DATA
 0002:0000af38 00000008H .rtc$TZZ                DATA
 0002:0000af40 00000004H .tls                    DATA
 0002:0000af44 00000004H .tls$                   DATA
 0002:0000af48 00000008H .tls$ZZZ                DATA
 0002:0000af50 00001618H .xdata                  DATA
 0002:0000c568 00000150H .xdata$x                DATA
 0002:0000c6b8 00000008H ATL$__a                 DATA
 0002:0000c6c0 00000010H ATL$__z                 DATA
 0002:0000c6d0 000000acH .edata                  DATA
 0002:0000c77c 00000078H .idata$2                DATA
 0002:0000c7f4 00000014H .idata$3                DATA
 0002:0000c808 00000618H .idata$4                DATA
 0002:0000ce20 00000c24H .idata$6                DATA
 0003:00000000 00000d98H .data                   DATA
 0003:00000d98 000000c8H .data$r                 DATA
 0003:00000e60 0000140cH .bss                    DATA
 0004:00000000 00001ec0H .pdata                  DATA
 0005:00000000 00000094H _RDATA                  DATA
 0006:00000000 00000220H .rsrc$01                DATA
 0006:00000220 00004380H .rsrc$02                DATA

  Address         Publics by Value              Rva+Base               Lib:Object

 0000:00000000       __guard_fids_count         0000000000000000     <absolute>
 0000:00000000       __guard_longjmp_count      0000000000000000     <absolute>
 0000:00000000       __guard_longjmp_table      0000000000000000     <absolute>
 0000:00000000       __hybrid_code_map          0000000000000000     <absolute>
 0000:00000000       __guard_iat_count          0000000000000000     <absolute>
 0000:00000000       __guard_iat_table          0000000000000000     <absolute>
 0000:00000000       __volatile_metadata        0000000000000000     <absolute>
 0000:00000000       __hybrid_code_map_count    0000000000000000     <absolute>
 0000:00000000       __enclave_config           0000000000000000     <absolute>
 0000:00000000       ___safe_se_handler_count   0000000000000000     <absolute>
 0000:00000000       __AbsoluteZero             0000000000000000     <absolute>
 0000:00000000       ___safe_se_handler_table   0000000000000000     <absolute>
 0000:00000000       __guard_fids_table         0000000000000000     <absolute>
 0000:00000000       __hybrid_auxiliary_iat     0000000000000000     <absolute>
 0000:00000000       __dynamic_value_reloc_table 0000000000000000     <absolute>
 0000:00000100       __guard_flags              0000000000000100     <absolute>
 0000:00000000       __ImageBase                0000000180000000     <linker-defined>
 0001:000000c0       ?DupWide@_CW@@AEAAXXZ      00000001800010c0 f   CWString.obj
 0001:000000e8       ?cw_dup@@YAXPEBDAEAHAEAPEA_W1@Z 00000001800010e8 f   CWString.obj
 0001:00000194       ?cw_memcpy@@YAHPEA_WPEBDH@Z 0000000180001194 f   CWString.obj
 0001:000001e0       ?cw_strcpy@@YAHPEA_WPEBD@Z 00000001800011e0 f   CWString.obj
 0001:000001f4       ??0CAtlComModule@ATL@@QEAA@XZ 00000001800011f4 f i OposVariant.obj
 0001:00000274       ??0CAtlWinModule@ATL@@QEAA@XZ 0000000180001274 f i OposVariant.obj
 0001:000002e0       ??0OposDispParms@@QEAA@PEAVOposVariant@@H@Z 00000001800012e0 f   OposVariant.obj
 0001:00000388       ??1OposDispParms@@QEAA@XZ  0000000180001388 f   OposVariant.obj
 0001:000003a0       ??_Estringdispid@CComTypeInfoHolder@ATL@@QEAAPEAXI@Z 00000001800013a0 f i OposVariant.obj
 0001:00000444       ?AtlWinModuleTerm@ATL@@YAJPEAU_ATL_WIN_MODULE70@1@PEAUHINSTANCE__@@@Z 0000000180001444 f i OposVariant.obj
 0001:000004f4       ?ChangeBSTR@OposVariant@@QEAAXPEAPEA_WAEAJ@Z 00000001800014f4 f   OposVariant.obj
 0001:00000554       ?ChangeLONG@OposVariant@@QEAAXPEAJAEAJ@Z 0000000180001554 f   OposVariant.obj
 0001:000005b0       ?GetLONG@OposVariant@@QEAAJXZ 00000001800015b0 f   OposVariant.obj
 0001:000005d4       ?SetBSTR@OposVariant@@QEAAXPEA_WAEAJ@Z 00000001800015d4 f   OposVariant.obj
 0001:00000614       ?SetBSTR_Copy@OposVariant@@QEAAXPEA_WAEAJ@Z 0000000180001614 f   OposVariant.obj
 0001:00000684       ?SetBSTR_InOutPtr@OposVariant@@QEAA_NPEAPEA_WAEAJ@Z 0000000180001684 f   OposVariant.obj
 0001:000006d4       ?SetDispatch_Ptr@OposVariant@@QEAAXPEAUIDispatch@@AEAJ@Z 00000001800016d4 f   OposVariant.obj
 0001:0000072c       ?SetLONG@OposVariant@@QEAAXJ@Z 000000018000172c f   OposVariant.obj
 0001:0000075c       ?SetLONG_Ptr@OposVariant@@QEAAXPEAJAEAJ@Z 000000018000175c f   OposVariant.obj
 0001:000007a8       ?SetString@OposVariant@@QEAAXPEB_WAEAJ@Z 00000001800017a8 f   OposVariant.obj
 0001:0000080c       ?SetVARIANT_BOOL@OposVariant@@QEAAXF@Z 000000018000180c f   OposVariant.obj
 0001:00000844       ?Term@CAtlComModule@ATL@@QEAAXXZ 0000000180001844 f i OposVariant.obj
 0001:000008b4       ?_AtlInitializeCriticalSectionEx@ATL@@YAHPEAU_RTL_CRITICAL_SECTION@@KK@Z 00000001800018b4 f i OposVariant.obj
 0001:000008bc       ?_AtlRaiseException@ATL@@YAXKK@Z 00000001800018bc f i OposVariant.obj
 0001:000008cc       ?AddRef@?$CComObjectCached@VCComClassFactory@ATL@@@ATL@@UEAAKXZ 00000001800018cc f i SmartCardRW.obj
 0001:000008f8       ?Release@?$CComObjectCached@VCComClassFactory@ATL@@@ATL@@UEAAKXZ 00000001800018f8 f i SmartCardRW.obj
 0001:00000938       ?QueryInterface@?$CComObjectCached@VCComClassFactory@ATL@@@ATL@@UEAAJAEBU_GUID@@PEAPEAX@Z 0000000180001938 f i SmartCardRW.obj
 0001:0000094c       ??_E?$CComObjectCached@VCComClassFactory@ATL@@@ATL@@UEAAPEAXI@Z 000000018000194c f i SmartCardRW.obj
 0001:0000094c       ??_G?$CComObjectCached@VCComClassFactory@ATL@@@ATL@@UEAAPEAXI@Z 000000018000194c f i SmartCardRW.obj
 0001:000009a4       ?AddRef@?$CComAggObject@VCOPOSSmartCardRW@@@ATL@@UEAAKXZ 00000001800019a4 f i SmartCardRW.obj
 0001:000009b0       ?Release@?$CComAggObject@VCOPOSSmartCardRW@@@ATL@@UEAAKXZ 00000001800019b0 f i SmartCardRW.obj
 0001:00000a04       ?QueryInterface@?$CComAggObject@VCOPOSSmartCardRW@@@ATL@@UEAAJAEBU_GUID@@PEAPEAX@Z 0000000180001a04 f i SmartCardRW.obj
 0001:00000a64       ?AddRef@?$CComContainedObject@VCOPOSSmartCardRW@@@ATL@@UEAAKXZ 0000000180001a64 f i SmartCardRW.obj
 0001:00000a74       ?Release@?$CComContainedObject@VCOPOSSmartCardRW@@@ATL@@UEAAKXZ 0000000180001a74 f i SmartCardRW.obj
 0001:00000a84       ?QueryInterface@?$CComContainedObject@VCOPOSSmartCardRW@@@ATL@@UEAAJAEBU_GUID@@PEAPEAX@Z 0000000180001a84 f i SmartCardRW.obj
 0001:00000a94       ??_E?$CComAggObject@VCOPOSSmartCardRW@@@ATL@@UEAAPEAXI@Z 0000000180001a94 f i SmartCardRW.obj
 0001:00000a94       ??_G?$CComAggObject@VCOPOSSmartCardRW@@@ATL@@UEAAPEAXI@Z 0000000180001a94 f i SmartCardRW.obj
 0001:00000aec       ?AddRef@?$CComObject@VCOPOSSmartCardRW@@@ATL@@UEAAKXZ 0000000180001aec f i SmartCardRW.obj
 0001:00000afc       ?Release@?$CComObject@VCOPOSSmartCardRW@@@ATL@@UEAAKXZ 0000000180001afc f i SmartCardRW.obj
 0001:00000b54       ?QueryInterface@?$CComObject@VCOPOSSmartCardRW@@@ATL@@UEAAJAEBU_GUID@@PEAPEAX@Z 0000000180001b54 f i SmartCardRW.obj
 0001:00000b68       ?Lock@CAtlModule@ATL@@UEAAJXZ 0000000180001b68 f i SmartCardRW.obj
 0001:00000b78       ?Unlock@CAtlModule@ATL@@UEAAJXZ 0000000180001b78 f i SmartCardRW.obj
 0001:00000b84       ?GetLockCount@CAtlModule@ATL@@UEAAJXZ 0000000180001b84 f i SmartCardRW.obj
 0001:00000b88       ?GetGITPtr@CAtlModule@ATL@@UEAAJPEAPEAUIGlobalInterfaceTable@@@Z 0000000180001b88 f i SmartCardRW.obj
 0001:00000bf8       ?AddCommonRGSReplacements@?$CAtlModuleT@VCComModule@ATL@@@ATL@@UEAAJPEAUIRegistrarBase@@@Z 0000000180001bf8 f i SmartCardRW.obj
 0001:00000c10       ?UpdateRegistryFromResourceD@CComModule@ATL@@UEAAJPEB_WHPEAU_ATL_REGMAP_ENTRY@2@@Z 0000000180001c10 f i SmartCardRW.obj
 0001:00000c10       ?UpdateRegistryFromResourceD@CComModule@ATL@@UEAAJIHPEAU_ATL_REGMAP_ENTRY@2@@Z 0000000180001c10 f i SmartCardRW.obj
 0001:00000c18       ?UpdateRegistryFromResource@CComModule@ATL@@UEAAJPEB_WHPEAU_ATL_REGMAP_ENTRY@2@@Z 0000000180001c18 f i SmartCardRW.obj
 0001:00000c20       ?OnDrawAdvanced@CComControlBase@ATL@@UEAAJAEAUATL_DRAWINFO@@@Z 0000000180001c20 f i SmartCardRW.obj
 0001:00000d40       ?UpdateRegistryFromResource@CComModule@ATL@@UEAAJIHPEAU_ATL_REGMAP_ENTRY@2@@Z 0000000180001d40 f i SmartCardRW.obj
 0001:00000d48       ??_ECComModule@ATL@@UEAAPEAXI@Z 0000000180001d48 f i SmartCardRW.obj
 0001:00000d48       ??_GCComModule@ATL@@UEAAPEAXI@Z 0000000180001d48 f i SmartCardRW.obj
 0001:00000dc8       ?Next@?$CComEnumImpl@UIEnumConnections@@$1?_GUID_b196b287_bab4_101a_b69c_00aa00341d07@@3U__s_GUID@@BUtagCONNECTDATA@@V?$_Copy@UtagCONNECTDATA@@@ATL@@@ATL@@UEAAJKPEAUtagCONNECTDATA@@PEAK@Z 0000000180001dc8 f i SmartCardRW.obj
 0001:00000e9c       ?Skip@?$CComEnumImpl@UIEnumConnections@@$1?_GUID_b196b287_bab4_101a_b69c_00aa00341d07@@3U__s_GUID@@BUtagCONNECTDATA@@V?$_Copy@UtagCONNECTDATA@@@ATL@@@ATL@@UEAAJK@Z 0000000180001e9c f i SmartCardRW.obj
 0001:00000ec8       ?Reset@?$CComEnumImpl@UIEnumConnectionPoints@@$1?_GUID_b196b285_bab4_101a_b69c_00aa00341d07@@3U__s_GUID@@BPEAUIConnectionPoint@@V?$_CopyInterface@UIConnectionPoint@@@ATL@@@ATL@@UEAAJXZ 0000000180001ec8 f i SmartCardRW.obj
 0001:00000ec8       ?Reset@?$CComEnumImpl@UIEnumConnections@@$1?_GUID_b196b287_bab4_101a_b69c_00aa00341d07@@3U__s_GUID@@BUtagCONNECTDATA@@V?$_Copy@UtagCONNECTDATA@@@ATL@@@ATL@@UEAAJXZ 0000000180001ec8 f i SmartCardRW.obj
 0001:00000ed4       ?Clone@?$CComEnumImpl@UIEnumConnections@@$1?_GUID_b196b287_bab4_101a_b69c_00aa00341d07@@3U__s_GUID@@BUtagCONNECTDATA@@V?$_Copy@UtagCONNECTDATA@@@ATL@@@ATL@@UEAAJPEAPEAUIEnumConnections@@@Z 0000000180001ed4 f i SmartCardRW.obj
 0001:00001000       ?AddRef@?$CComObject@V?$CComEnum@UIEnumConnectionPoints@@$1?_GUID_b196b285_bab4_101a_b69c_00aa00341d07@@3U__s_GUID@@BPEAUIConnectionPoint@@V?$_CopyInterface@UIConnectionPoint@@@ATL@@VCComSingleThreadModel@6@@ATL@@@ATL@@UEAAKXZ 0000000180002000 f i SmartCardRW.obj
 0001:00001000       ?AddRef@?$CComObject@V?$CComEnum@UIEnumConnections@@$1?_GUID_b196b287_bab4_101a_b69c_00aa00341d07@@3U__s_GUID@@BUtagCONNECTDATA@@V?$_Copy@UtagCONNECTDATA@@@ATL@@VCComSingleThreadModel@6@@ATL@@@ATL@@UEAAKXZ 0000000180002000 f i SmartCardRW.obj
 0001:0000100c       ?Release@?$CComObject@V?$CComEnum@UIEnumConnectionPoints@@$1?_GUID_b196b285_bab4_101a_b69c_00aa00341d07@@3U__s_GUID@@BPEAUIConnectionPoint@@V?$_CopyInterface@UIConnectionPoint@@@ATL@@VCComSingleThreadModel@6@@ATL@@@ATL@@UEAAKXZ 000000018000200c f i SmartCardRW.obj
 0001:0000100c       ?Release@?$CComObject@V?$CComEnum@UIEnumConnections@@$1?_GUID_b196b287_bab4_101a_b69c_00aa00341d07@@3U__s_GUID@@BUtagCONNECTDATA@@V?$_Copy@UtagCONNECTDATA@@@ATL@@VCComSingleThreadModel@6@@ATL@@@ATL@@UEAAKXZ 000000018000200c f i SmartCardRW.obj
 0001:00001060       ?QueryInterface@?$CComObject@V?$CComEnum@UIEnumConnections@@$1?_GUID_b196b287_bab4_101a_b69c_00aa00341d07@@3U__s_GUID@@BUtagCONNECTDATA@@V?$_Copy@UtagCONNECTDATA@@@ATL@@VCComSingleThreadModel@6@@ATL@@@ATL@@UEAAJAEBU_GUID@@PEAPEAX@Z 0000000180002060 f i SmartCardRW.obj
 0001:00001074       ??_G?$CComObject@V?$CComEnum@UIEnumConnections@@$1?_GUID_b196b287_bab4_101a_b69c_00aa00341d07@@3U__s_GUID@@BUtagCONNECTDATA@@V?$_Copy@UtagCONNECTDATA@@@ATL@@VCComSingleThreadModel@6@@ATL@@@ATL@@UEAAPEAXI@Z 0000000180002074 f i SmartCardRW.obj
 0001:00001074       ??_E?$CComObject@V?$CComEnum@UIEnumConnections@@$1?_GUID_b196b287_bab4_101a_b69c_00aa00341d07@@3U__s_GUID@@BUtagCONNECTDATA@@V?$_Copy@UtagCONNECTDATA@@@ATL@@VCComSingleThreadModel@6@@ATL@@@ATL@@UEAAPEAXI@Z 0000000180002074 f i SmartCardRW.obj
 0001:000010cc       ?QueryGetData@?$IDataObjectImpl@VCOPOSSmartCardRW@@@ATL@@UEAAJPEAUtagFORMATETC@@@Z 00000001800020cc f i SmartCardRW.obj
 0001:000010cc       ?SetData@?$IDataObjectImpl@VCOPOSSmartCardRW@@@ATL@@UEAAJPEAUtagFORMATETC@@PEAUtagSTGMEDIUM@@H@Z 00000001800020cc f i SmartCardRW.obj
 0001:000010cc       ?EnumFormatEtc@?$IDataObjectImpl@VCOPOSSmartCardRW@@@ATL@@UEAAJKPEAPEAUIEnumFORMATETC@@@Z 00000001800020cc f i SmartCardRW.obj
 0001:000010cc       ?SetColorScheme@?$IOleObjectImpl@VCOPOSSmartCardRW@@@ATL@@UEAAJPEAUtagLOGPALETTE@@@Z 00000001800020cc f i SmartCardRW.obj
 0001:000010cc       ?GetDataHere@?$IDataObjectImpl@VCOPOSSmartCardRW@@@ATL@@UEAAJPEAUtagFORMATETC@@PEAUtagSTGMEDIUM@@@Z 00000001800020cc f i SmartCardRW.obj
 0001:000010cc       ?GetClipboardData@?$IOleObjectImpl@VCOPOSSmartCardRW@@@ATL@@UEAAJKPEAPEAUIDataObject@@@Z 00000001800020cc f i SmartCardRW.obj
 0001:000010cc       ?SetMoniker@?$IOleObjectImpl@VCOPOSSmartCardRW@@@ATL@@UEAAJKPEAUIMoniker@@@Z 00000001800020cc f i SmartCardRW.obj
 0001:000010cc       ?GetCanonicalFormatEtc@?$IDataObjectImpl@VCOPOSSmartCardRW@@@ATL@@UEAAJPEAUtagFORMATETC@@0@Z 00000001800020cc f i SmartCardRW.obj
 0001:000010cc       ?ContextSensitiveHelp@?$IOleInPlaceObjectWindowlessImpl@VCOPOSSmartCardRW@@@ATL@@UEAAJH@Z 00000001800020cc f i SmartCardRW.obj
 0001:000010cc       ?ReactivateAndUndo@?$IOleInPlaceObjectWindowlessImpl@VCOPOSSmartCardRW@@@ATL@@UEAAJXZ 00000001800020cc f i SmartCardRW.obj
 0001:000010cc       ?GetControlInfo@?$IOleControlImpl@VCOPOSSmartCardRW@@@ATL@@UEAAJPEAUtagCONTROLINFO@@@Z 00000001800020cc f i SmartCardRW.obj
 0001:000010cc       ?GetDropTarget@?$IOleInPlaceObjectWindowlessImpl@VCOPOSSmartCardRW@@@ATL@@UEAAJPEAPEAUIDropTarget@@@Z 00000001800020cc f i SmartCardRW.obj
 0001:000010cc       ?Unfreeze@?$IViewObjectExImpl@VCOPOSSmartCardRW@@@ATL@@UEAAJK@Z 00000001800020cc f i SmartCardRW.obj
 0001:000010cc       ?QueryInterface@CRegObject@ATL@@UEAAJAEBU_GUID@@PEAPEAX@Z 00000001800020cc f i SmartCardRW.obj
 0001:000010cc       ?GetRect@?$IViewObjectExImpl@VCOPOSSmartCardRW@@@ATL@@UEAAJKPEAU_RECTL@@@Z 00000001800020cc f i SmartCardRW.obj
 0001:000010cc       ?InitFromData@?$IOleObjectImpl@VCOPOSSmartCardRW@@@ATL@@UEAAJPEAUIDataObject@@HK@Z 00000001800020cc f i SmartCardRW.obj
 0001:000010cc       ?Freeze@?$IViewObjectExImpl@VCOPOSSmartCardRW@@@ATL@@UEAAJKJPEAXPEAK@Z 00000001800020cc f i SmartCardRW.obj
 0001:000010cc       ?GetColorSet@?$IViewObjectExImpl@VCOPOSSmartCardRW@@@ATL@@UEAAJKJPEAXPEAUtagDVTARGETDEVICE@@PEAUHDC__@@PEAPEAUtagLOGPALETTE@@@Z 00000001800020cc f i SmartCardRW.obj
 0001:000010cc       ?OnMnemonic@?$IOleControlImpl@VCOPOSSmartCardRW@@@ATL@@UEAAJPEAUtagMSG@@@Z 00000001800020cc f i SmartCardRW.obj
 0001:000010cc       ?GetMoniker@?$IOleObjectImpl@VCOPOSSmartCardRW@@@ATL@@UEAAJKKPEAPEAUIMoniker@@@Z 00000001800020cc f i SmartCardRW.obj
 0001:000010cc       ?ContextSensitiveHelp@?$IOleInPlaceActiveObjectImpl@VCOPOSSmartCardRW@@@ATL@@UEAAJH@Z 00000001800020cc f i SmartCardRW.obj
 0001:000010d4       ?AddRef@CRegObject@ATL@@UEAAKXZ 00000001800020d4 f i SmartCardRW.obj
 0001:000010d4       _get_startup_argv_mode     00000001800020d4 f i LIBCMT:argv_mode.obj
 0001:000010d4       ?FAccessAllowed@?$IObjectSafetyImpl@VCOPOSSmartCardRW@@$02@ATL@@MEAAHXZ 00000001800020d4 f i SmartCardRW.obj
 0001:000010dc       ?GetCategoryMap@CComObjectRootBase@ATL@@SAPEBU_ATL_CATMAP_ENTRY@2@XZ 00000001800020dc f i SmartCardRW.obj
 0001:000010dc       ?OnFrameWindowActivate@?$IOleInPlaceActiveObjectImpl@VCOPOSSmartCardRW@@@ATL@@UEAAJH@Z 00000001800020dc f i SmartCardRW.obj
 0001:000010dc       ?IsUpToDate@?$IOleObjectImpl@VCOPOSSmartCardRW@@@ATL@@UEAAJXZ 00000001800020dc f i SmartCardRW.obj
 0001:000010dc       ?Release@CRegObject@ATL@@UEAAKXZ 00000001800020dc f i SmartCardRW.obj
 0001:000010dc       ?SaveCompleted@?$IPersistStorageImpl@VCOPOSSmartCardRW@@@ATL@@UEAAJPEAUIStorage@@@Z 00000001800020dc f i SmartCardRW.obj
 0001:000010dc       ?Update@?$IOleObjectImpl@VCOPOSSmartCardRW@@@ATL@@UEAAJXZ 00000001800020dc f i SmartCardRW.obj
 0001:000010dc       ?OnAmbientPropertyChange@?$IOleControlImpl@VCOPOSSmartCardRW@@@ATL@@UEAAJJ@Z 00000001800020dc f i SmartCardRW.obj
 0001:000010dc       ?SetHostNames@?$IOleObjectImpl@VCOPOSSmartCardRW@@@ATL@@UEAAJPEB_W0@Z 00000001800020dc f i SmartCardRW.obj
 0001:000010dc       ?GetObjectDescription@?$CComCoClass@VCOPOSSmartCardRW@@$1?CLSID_OPOSSmartCardRW@@3U_GUID@@B@ATL@@SAPEB_WXZ 00000001800020dc f i SmartCardRW.obj
 0001:000010dc       ?HandsOffStorage@?$IPersistStorageImpl@VCOPOSSmartCardRW@@@ATL@@UEAAJXZ 00000001800020dc f i SmartCardRW.obj
 0001:000010dc       ?ResizeBorder@?$IOleInPlaceActiveObjectImpl@VCOPOSSmartCardRW@@@ATL@@UEAAJPEBUtagRECT@@PEAUIOleInPlaceUIWindow@@H@Z 00000001800020dc f i SmartCardRW.obj
 0001:000010dc       ?EnableModeless@?$IOleInPlaceActiveObjectImpl@VCOPOSSmartCardRW@@@ATL@@UEAAJH@Z 00000001800020dc f i SmartCardRW.obj
 0001:000010e0       ?AddReplacement@CRegObject@ATL@@UEAAJPEB_W0@Z 00000001800020e0 f i SmartCardRW.obj
 0001:00001110       ?ClearReplacements@CRegObject@ATL@@UEAAJXZ 0000000180002110 f i SmartCardRW.obj
 0001:0000111c       ??_GCRegObject@ATL@@UEAAPEAXI@Z 000000018000211c f i SmartCardRW.obj
 0001:0000111c       ??_ECRegObject@ATL@@UEAAPEAXI@Z 000000018000211c f i SmartCardRW.obj
 0001:0000119c       ??_E?$CComObject@VCOPOSSmartCardRW@@@ATL@@W7EAAPEAXI@Z 000000018000219c f i SmartCardRW.obj
 0001:000011a8       ??_E?$CComObject@VCOPOSSmartCardRW@@@ATL@@WHA@EAAPEAXI@Z 00000001800021a8 f i SmartCardRW.obj
 0001:000011b4       ?QueryInterface@?$CComObject@VCOPOSSmartCardRW@@@ATL@@WLI@EAAJAEBU_GUID@@PEAPEAX@Z 00000001800021b4 f i SmartCardRW.obj
 0001:000011c0       ?AddRef@?$CComObject@VCOPOSSmartCardRW@@@ATL@@WLI@EAAKXZ 00000001800021c0 f i SmartCardRW.obj
 0001:000011cc       ?Release@?$CComObject@VCOPOSSmartCardRW@@@ATL@@WLI@EAAKXZ 00000001800021cc f i SmartCardRW.obj
 0001:000011d8       ?QueryInterface@?$CComObject@VCOPOSSmartCardRW@@@ATL@@WMA@EAAJAEBU_GUID@@PEAPEAX@Z 00000001800021d8 f i SmartCardRW.obj
 0001:000011e4       ?AddRef@?$CComObject@VCOPOSSmartCardRW@@@ATL@@WMA@EAAKXZ 00000001800021e4 f i SmartCardRW.obj
 0001:000011f0       ?Release@?$CComObject@VCOPOSSmartCardRW@@@ATL@@WMA@EAAKXZ 00000001800021f0 f i SmartCardRW.obj
 0001:000011fc       ?QueryInterface@?$CComObject@VCOPOSSmartCardRW@@@ATL@@WMI@EAAJAEBU_GUID@@PEAPEAX@Z 00000001800021fc f i SmartCardRW.obj
 0001:00001208       ?AddRef@?$CComObject@VCOPOSSmartCardRW@@@ATL@@WMI@EAAKXZ 0000000180002208 f i SmartCardRW.obj
 0001:00001214       ?Release@?$CComObject@VCOPOSSmartCardRW@@@ATL@@WMI@EAAKXZ 0000000180002214 f i SmartCardRW.obj
 0001:00001220       ?QueryInterface@?$CComObject@VCOPOSSmartCardRW@@@ATL@@WNA@EAAJAEBU_GUID@@PEAPEAX@Z 0000000180002220 f i SmartCardRW.obj
 0001:0000122c       ?AddRef@?$CComObject@VCOPOSSmartCardRW@@@ATL@@WNA@EAAKXZ 000000018000222c f i SmartCardRW.obj
 0001:00001238       ?Release@?$CComObject@VCOPOSSmartCardRW@@@ATL@@WNA@EAAKXZ 0000000180002238 f i SmartCardRW.obj
 0001:00001244       ?QueryInterface@?$CComObject@VCOPOSSmartCardRW@@@ATL@@WNI@EAAJAEBU_GUID@@PEAPEAX@Z 0000000180002244 f i SmartCardRW.obj
 0001:00001250       ?AddRef@?$CComObject@VCOPOSSmartCardRW@@@ATL@@WNI@EAAKXZ 0000000180002250 f i SmartCardRW.obj
 0001:0000125c       ?Release@?$CComObject@VCOPOSSmartCardRW@@@ATL@@WNI@EAAKXZ 000000018000225c f i SmartCardRW.obj
 0001:00001268       ?QueryInterface@?$CComObject@VCOPOSSmartCardRW@@@ATL@@WOA@EAAJAEBU_GUID@@PEAPEAX@Z 0000000180002268 f i SmartCardRW.obj
 0001:00001274       ?AddRef@?$CComObject@VCOPOSSmartCardRW@@@ATL@@WOA@EAAKXZ 0000000180002274 f i SmartCardRW.obj
 0001:00001280       ?Release@?$CComObject@VCOPOSSmartCardRW@@@ATL@@WOA@EAAKXZ 0000000180002280 f i SmartCardRW.obj
 0001:0000128c       ?QueryInterface@?$CComObject@VCOPOSSmartCardRW@@@ATL@@WOI@EAAJAEBU_GUID@@PEAPEAX@Z 000000018000228c f i SmartCardRW.obj
 0001:00001298       ?AddRef@?$CComObject@VCOPOSSmartCardRW@@@ATL@@WOI@EAAKXZ 0000000180002298 f i SmartCardRW.obj
 0001:000012a4       ?Release@?$CComObject@VCOPOSSmartCardRW@@@ATL@@WOI@EAAKXZ 00000001800022a4 f i SmartCardRW.obj
 0001:000012b0       ?QueryInterface@?$CComObject@VCOPOSSmartCardRW@@@ATL@@WPA@EAAJAEBU_GUID@@PEAPEAX@Z 00000001800022b0 f i SmartCardRW.obj
 0001:000012bc       ?AddRef@?$CComObject@VCOPOSSmartCardRW@@@ATL@@WPA@EAAKXZ 00000001800022bc f i SmartCardRW.obj
 0001:000012c8       ?Release@?$CComObject@VCOPOSSmartCardRW@@@ATL@@WPA@EAAKXZ 00000001800022c8 f i SmartCardRW.obj
 0001:000012d4       ?QueryInterface@?$CComObject@VCOPOSSmartCardRW@@@ATL@@WPI@EAAJAEBU_GUID@@PEAPEAX@Z 00000001800022d4 f i SmartCardRW.obj
 0001:000012e0       ?AddRef@?$CComObject@VCOPOSSmartCardRW@@@ATL@@WPI@EAAKXZ 00000001800022e0 f i SmartCardRW.obj
 0001:000012ec       ?Release@?$CComObject@VCOPOSSmartCardRW@@@ATL@@WPI@EAAKXZ 00000001800022ec f i SmartCardRW.obj
 0001:000012f8       ?QueryInterface@?$CComObject@VCOPOSSmartCardRW@@@ATL@@WBAA@EAAJAEBU_GUID@@PEAPEAX@Z 00000001800022f8 f i SmartCardRW.obj
 0001:00001304       ?AddRef@?$CComObject@VCOPOSSmartCardRW@@@ATL@@WBAA@EAAKXZ 0000000180002304 f i SmartCardRW.obj
 0001:00001310       ?Release@?$CComObject@VCOPOSSmartCardRW@@@ATL@@WBAA@EAAKXZ 0000000180002310 f i SmartCardRW.obj
 0001:0000131c       ?QueryInterface@?$CComObject@VCOPOSSmartCardRW@@@ATL@@WBAI@EAAJAEBU_GUID@@PEAPEAX@Z 000000018000231c f i SmartCardRW.obj
 0001:00001328       ?AddRef@?$CComObject@VCOPOSSmartCardRW@@@ATL@@WBAI@EAAKXZ 0000000180002328 f i SmartCardRW.obj
 0001:00001334       ?Release@?$CComObject@VCOPOSSmartCardRW@@@ATL@@WBAI@EAAKXZ 0000000180002334 f i SmartCardRW.obj
 0001:00001340       ?QueryInterface@?$CComObject@VCOPOSSmartCardRW@@@ATL@@WBBA@EAAJAEBU_GUID@@PEAPEAX@Z 0000000180002340 f i SmartCardRW.obj
 0001:0000134c       ?AddRef@?$CComObject@VCOPOSSmartCardRW@@@ATL@@WBBA@EAAKXZ 000000018000234c f i SmartCardRW.obj
 0001:00001358       ?Release@?$CComObject@VCOPOSSmartCardRW@@@ATL@@WBBA@EAAKXZ 0000000180002358 f i SmartCardRW.obj
 0001:00001364       ?QueryInterface@?$CComObject@VCOPOSSmartCardRW@@@ATL@@WBBI@EAAJAEBU_GUID@@PEAPEAX@Z 0000000180002364 f i SmartCardRW.obj
 0001:00001370       ?AddRef@?$CComObject@VCOPOSSmartCardRW@@@ATL@@WBBI@EAAKXZ 0000000180002370 f i SmartCardRW.obj
 0001:0000137c       ?Release@?$CComObject@VCOPOSSmartCardRW@@@ATL@@WBBI@EAAKXZ 000000018000237c f i SmartCardRW.obj
 0001:00001388       ?AddRef@?$CComObject@VCOPOSSmartCardRW@@@ATL@@WBCI@EAAKXZ 0000000180002388 f i SmartCardRW.obj
 0001:00001394       ?Release@?$CComObject@VCOPOSSmartCardRW@@@ATL@@WBCI@EAAKXZ 0000000180002394 f i SmartCardRW.obj
 0001:000013a0       ?AddRef@?$CComObject@VCOPOSSmartCardRW@@@ATL@@WBEA@EAAKXZ 00000001800023a0 f i SmartCardRW.obj
 0001:000013ac       ?Release@?$CComObject@VCOPOSSmartCardRW@@@ATL@@WBEA@EAAKXZ 00000001800023ac f i SmartCardRW.obj
 0001:000013b8       ??_E?$CComContainedObject@VCOPOSSmartCardRW@@@ATL@@W7EAAPEAXI@Z 00000001800023b8 f i SmartCardRW.obj
 0001:000013c4       ??_E?$CComContainedObject@VCOPOSSmartCardRW@@@ATL@@WHA@EAAPEAXI@Z 00000001800023c4 f i SmartCardRW.obj
 0001:000013d0       ?QueryInterface@?$CComContainedObject@VCOPOSSmartCardRW@@@ATL@@WLI@EAAJAEBU_GUID@@PEAPEAX@Z 00000001800023d0 f i SmartCardRW.obj
 0001:000013dc       ?AddRef@?$CComContainedObject@VCOPOSSmartCardRW@@@ATL@@WLI@EAAKXZ 00000001800023dc f i SmartCardRW.obj
 0001:000013e8       ?Release@?$CComContainedObject@VCOPOSSmartCardRW@@@ATL@@WLI@EAAKXZ 00000001800023e8 f i SmartCardRW.obj
 0001:000013f4       ?QueryInterface@?$CComContainedObject@VCOPOSSmartCardRW@@@ATL@@WMA@EAAJAEBU_GUID@@PEAPEAX@Z 00000001800023f4 f i SmartCardRW.obj
 0001:00001400       ?AddRef@?$CComContainedObject@VCOPOSSmartCardRW@@@ATL@@WMA@EAAKXZ 0000000180002400 f i SmartCardRW.obj
 0001:0000140c       ?Release@?$CComContainedObject@VCOPOSSmartCardRW@@@ATL@@WMA@EAAKXZ 000000018000240c f i SmartCardRW.obj
 0001:00001418       ?QueryInterface@?$CComContainedObject@VCOPOSSmartCardRW@@@ATL@@WMI@EAAJAEBU_GUID@@PEAPEAX@Z 0000000180002418 f i SmartCardRW.obj
 0001:00001424       ?AddRef@?$CComContainedObject@VCOPOSSmartCardRW@@@ATL@@WMI@EAAKXZ 0000000180002424 f i SmartCardRW.obj
 0001:00001430       ?Release@?$CComContainedObject@VCOPOSSmartCardRW@@@ATL@@WMI@EAAKXZ 0000000180002430 f i SmartCardRW.obj
 0001:0000143c       ?QueryInterface@?$CComContainedObject@VCOPOSSmartCardRW@@@ATL@@WNA@EAAJAEBU_GUID@@PEAPEAX@Z 000000018000243c f i SmartCardRW.obj
 0001:00001448       ?AddRef@?$CComContainedObject@VCOPOSSmartCardRW@@@ATL@@WNA@EAAKXZ 0000000180002448 f i SmartCardRW.obj
 0001:00001454       ?Release@?$CComContainedObject@VCOPOSSmartCardRW@@@ATL@@WNA@EAAKXZ 0000000180002454 f i SmartCardRW.obj
 0001:00001460       ?QueryInterface@?$CComContainedObject@VCOPOSSmartCardRW@@@ATL@@WNI@EAAJAEBU_GUID@@PEAPEAX@Z 0000000180002460 f i SmartCardRW.obj
 0001:0000146c       ?AddRef@?$CComContainedObject@VCOPOSSmartCardRW@@@ATL@@WNI@EAAKXZ 000000018000246c f i SmartCardRW.obj
 0001:00001478       ?Release@?$CComContainedObject@VCOPOSSmartCardRW@@@ATL@@WNI@EAAKXZ 0000000180002478 f i SmartCardRW.obj
 0001:00001484       ?QueryInterface@?$CComContainedObject@VCOPOSSmartCardRW@@@ATL@@WOA@EAAJAEBU_GUID@@PEAPEAX@Z 0000000180002484 f i SmartCardRW.obj
 0001:00001490       ?AddRef@?$CComContainedObject@VCOPOSSmartCardRW@@@ATL@@WOA@EAAKXZ 0000000180002490 f i SmartCardRW.obj
 0001:0000149c       ?Release@?$CComContainedObject@VCOPOSSmartCardRW@@@ATL@@WOA@EAAKXZ 000000018000249c f i SmartCardRW.obj
 0001:000014a8       ?QueryInterface@?$CComContainedObject@VCOPOSSmartCardRW@@@ATL@@WOI@EAAJAEBU_GUID@@PEAPEAX@Z 00000001800024a8 f i SmartCardRW.obj
 0001:000014b4       ?AddRef@?$CComContainedObject@VCOPOSSmartCardRW@@@ATL@@WOI@EAAKXZ 00000001800024b4 f i SmartCardRW.obj
 0001:000014c0       ?Release@?$CComContainedObject@VCOPOSSmartCardRW@@@ATL@@WOI@EAAKXZ 00000001800024c0 f i SmartCardRW.obj
 0001:000014cc       ?QueryInterface@?$CComContainedObject@VCOPOSSmartCardRW@@@ATL@@WPA@EAAJAEBU_GUID@@PEAPEAX@Z 00000001800024cc f i SmartCardRW.obj
 0001:000014d8       ?AddRef@?$CComContainedObject@VCOPOSSmartCardRW@@@ATL@@WPA@EAAKXZ 00000001800024d8 f i SmartCardRW.obj
 0001:000014e4       ?Release@?$CComContainedObject@VCOPOSSmartCardRW@@@ATL@@WPA@EAAKXZ 00000001800024e4 f i SmartCardRW.obj
 0001:000014f0       ?QueryInterface@?$CComContainedObject@VCOPOSSmartCardRW@@@ATL@@WPI@EAAJAEBU_GUID@@PEAPEAX@Z 00000001800024f0 f i SmartCardRW.obj
 0001:000014fc       ?AddRef@?$CComContainedObject@VCOPOSSmartCardRW@@@ATL@@WPI@EAAKXZ 00000001800024fc f i SmartCardRW.obj
 0001:00001508       ?Release@?$CComContainedObject@VCOPOSSmartCardRW@@@ATL@@WPI@EAAKXZ 0000000180002508 f i SmartCardRW.obj
 0001:00001514       ?QueryInterface@?$CComContainedObject@VCOPOSSmartCardRW@@@ATL@@WBAA@EAAJAEBU_GUID@@PEAPEAX@Z 0000000180002514 f i SmartCardRW.obj
 0001:00001520       ?AddRef@?$CComContainedObject@VCOPOSSmartCardRW@@@ATL@@WBAA@EAAKXZ 0000000180002520 f i SmartCardRW.obj
 0001:0000152c       ?Release@?$CComContainedObject@VCOPOSSmartCardRW@@@ATL@@WBAA@EAAKXZ 000000018000252c f i SmartCardRW.obj
 0001:00001538       ?QueryInterface@?$CComContainedObject@VCOPOSSmartCardRW@@@ATL@@WBAI@EAAJAEBU_GUID@@PEAPEAX@Z 0000000180002538 f i SmartCardRW.obj
 0001:00001544       ?AddRef@?$CComContainedObject@VCOPOSSmartCardRW@@@ATL@@WBAI@EAAKXZ 0000000180002544 f i SmartCardRW.obj
 0001:00001550       ?Release@?$CComContainedObject@VCOPOSSmartCardRW@@@ATL@@WBAI@EAAKXZ 0000000180002550 f i SmartCardRW.obj
 0001:0000155c       ?QueryInterface@?$CComContainedObject@VCOPOSSmartCardRW@@@ATL@@WBBA@EAAJAEBU_GUID@@PEAPEAX@Z 000000018000255c f i SmartCardRW.obj
 0001:00001568       ?AddRef@?$CComContainedObject@VCOPOSSmartCardRW@@@ATL@@WBBA@EAAKXZ 0000000180002568 f i SmartCardRW.obj
 0001:00001574       ?Release@?$CComContainedObject@VCOPOSSmartCardRW@@@ATL@@WBBA@EAAKXZ 0000000180002574 f i SmartCardRW.obj
 0001:00001580       ?QueryInterface@?$CComContainedObject@VCOPOSSmartCardRW@@@ATL@@WBBI@EAAJAEBU_GUID@@PEAPEAX@Z 0000000180002580 f i SmartCardRW.obj
 0001:0000158c       ?AddRef@?$CComContainedObject@VCOPOSSmartCardRW@@@ATL@@WBBI@EAAKXZ 000000018000258c f i SmartCardRW.obj
 0001:00001598       ?Release@?$CComContainedObject@VCOPOSSmartCardRW@@@ATL@@WBBI@EAAKXZ 0000000180002598 f i SmartCardRW.obj
 0001:000015a4       ?AddRef@?$CComContainedObject@VCOPOSSmartCardRW@@@ATL@@WBCI@EAAKXZ 00000001800025a4 f i SmartCardRW.obj
 0001:000015b0       ?Release@?$CComContainedObject@VCOPOSSmartCardRW@@@ATL@@WBCI@EAAKXZ 00000001800025b0 f i SmartCardRW.obj
 0001:000015bc       ?AddRef@?$CComContainedObject@VCOPOSSmartCardRW@@@ATL@@WBEA@EAAKXZ 00000001800025bc f i SmartCardRW.obj
 0001:000015c8       ?Release@?$CComContainedObject@VCOPOSSmartCardRW@@@ATL@@WBEA@EAAKXZ 00000001800025c8 f i SmartCardRW.obj
 0001:000015d4       ?GetWindowProc@?$CWindowImplBaseT@VCWindow@ATL@@V?$CWinTraits@$0FGAAAAAA@$0A@@2@@ATL@@UEAAP6A_JPEAUHWND__@@I_K_J@ZXZ 00000001800025d4 f i SmartCardRW.obj
 0001:000015dc       ?StartWindowProc@?$CWindowImplBaseT@VCWindow@ATL@@V?$CWinTraits@$0FGAAAAAA@$0A@@2@@ATL@@SA_JPEAUHWND__@@I_K_J@Z 00000001800025dc f i SmartCardRW.obj
 0001:000016a0       ?ObjectMain@CComObjectRootBase@ATL@@SAX_N@Z 00000001800026a0 f i SmartCardRW.obj
 0001:000016a0       _guard_check_icall_nop     00000001800026a0 f i LIBCMT:guard_support.obj
 0001:000016a0       ?OnFinalMessage@?$CWindowImplBaseT@VCWindow@ATL@@V?$CWinTraits@$0FGAAAAAA@$0A@@2@@ATL@@UEAAXPEAUHWND__@@@Z 00000001800026a0 f i SmartCardRW.obj
 0001:000016a4       ?GetTypeInfoCount@?$IDispatchImpl@UIOPOSSmartCardRW@@$1?IID_IOPOSSmartCardRW@@3U_GUID@@B$1?LIBID_OposSmartCardRW_CCO@@3U3@B$00$0A@VCComTypeInfoHolder@ATL@@@ATL@@UEAAJPEAI@Z 00000001800026a4 f i SmartCardRW.obj
 0001:000016b8       ?GetTypeInfo@?$IDispatchImpl@UIOPOSSmartCardRW@@$1?IID_IOPOSSmartCardRW@@3U_GUID@@B$1?LIBID_OposSmartCardRW_CCO@@3U3@B$00$0A@VCComTypeInfoHolder@ATL@@@ATL@@UEAAJIKPEAPEAUITypeInfo@@@Z 00000001800026b8 f i SmartCardRW.obj
 0001:0000171c       ?GetIDsOfNames@?$IDispatchImpl@UIOPOSSmartCardRW@@$1?IID_IOPOSSmartCardRW@@3U_GUID@@B$1?LIBID_OposSmartCardRW_CCO@@3U3@B$00$0A@VCComTypeInfoHolder@ATL@@@ATL@@UEAAJAEBU_GUID@@PEAPEA_WIKPEAJ@Z 000000018000271c f i SmartCardRW.obj
 0001:00001728       ?Invoke@?$IDispatchImpl@UIOPOSSmartCardRW@@$1?IID_IOPOSSmartCardRW@@3U_GUID@@B$1?LIBID_OposSmartCardRW_CCO@@3U3@B$00$0A@VCComTypeInfoHolder@ATL@@@ATL@@UEAAJJAEBU_GUID@@KGPEAUtagDISPPARAMS@@PEAUtagVARIANT@@PEAUtagEXCEPINFO@@PEAI@Z 0000000180002728 f i SmartCardRW.obj
 0001:000017b8       ?CreateControlWindow@?$CComControl@VCOPOSSmartCardRW@@V?$CWindowImpl@VCOPOSSmartCardRW@@VCWindow@ATL@@V?$CWinTraits@$0FGAAAAAA@$0A@@3@@ATL@@@ATL@@UEAAPEAUHWND__@@PEAU3@AEAUtagRECT@@@Z 00000001800027b8 f i SmartCardRW.obj
 0001:000017f0       ?ControlQueryInterface@?$CComControl@VCOPOSSmartCardRW@@V?$CWindowImpl@VCOPOSSmartCardRW@@VCWindow@ATL@@V?$CWinTraits@$0FGAAAAAA@$0A@@3@@ATL@@@ATL@@UEAAJAEBU_GUID@@PEAPEAX@Z 00000001800027f0 f i SmartCardRW.obj
 0001:00001804       ?GetClassID@?$IPersistStorageImpl@VCOPOSSmartCardRW@@@ATL@@UEAAJPEAU_GUID@@@Z 0000000180002804 f i SmartCardRW.obj
 0001:00001804       ?GetClassID@?$IPersistStreamInitImpl@VCOPOSSmartCardRW@@@ATL@@UEAAJPEAU_GUID@@@Z 0000000180002804 f i SmartCardRW.obj
 0001:00001804       ?GetUserClassID@?$IOleObjectImpl@VCOPOSSmartCardRW@@@ATL@@UEAAJPEAU_GUID@@@Z 0000000180002804 f i SmartCardRW.obj
 0001:00001820       ?IsDirty@?$IPersistStreamInitImpl@VCOPOSSmartCardRW@@@ATL@@UEAAJXZ 0000000180002820 f i SmartCardRW.obj
 0001:0000183c       ?Load@?$IPersistStreamInitImpl@VCOPOSSmartCardRW@@@ATL@@UEAAJPEAUIStream@@@Z 000000018000283c f i SmartCardRW.obj
 0001:0000188c       ?Save@?$IPersistStreamInitImpl@VCOPOSSmartCardRW@@@ATL@@UEAAJPEAUIStream@@H@Z 000000018000288c f i SmartCardRW.obj
 0001:000018f0       ?GetSizeMax@?$IPersistStreamInitImpl@VCOPOSSmartCardRW@@@ATL@@UEAAJPEAT_ULARGE_INTEGER@@@Z 00000001800028f0 f i SmartCardRW.obj
 0001:00001b1c       ?InitNew@?$IPersistStreamInitImpl@VCOPOSSmartCardRW@@@ATL@@UEAAJXZ 0000000180002b1c f i SmartCardRW.obj
 0001:00001b34       ?SetClientSite@?$IOleObjectImpl@VCOPOSSmartCardRW@@@ATL@@UEAAJPEAUIOleClientSite@@@Z 0000000180002b34 f i SmartCardRW.obj
 0001:00001b50       ?GetClientSite@?$IOleObjectImpl@VCOPOSSmartCardRW@@@ATL@@UEAAJPEAPEAUIOleClientSite@@@Z 0000000180002b50 f i SmartCardRW.obj
 0001:00001b98       ?Close@?$IOleObjectImpl@VCOPOSSmartCardRW@@@ATL@@UEAAJK@Z 0000000180002b98 f i SmartCardRW.obj
 0001:00001bb4       ?DoVerb@?$IOleObjectImpl@VCOPOSSmartCardRW@@@ATL@@UEAAJJPEAUtagMSG@@PEAUIOleClientSite@@JPEAUHWND__@@PEBUtagRECT@@@Z 0000000180002bb4 f i SmartCardRW.obj
 0001:00001d58       ?EnumVerbs@?$IOleObjectImpl@VCOPOSSmartCardRW@@@ATL@@UEAAJPEAPEAUIEnumOLEVERB@@@Z 0000000180002d58 f i SmartCardRW.obj
 0001:00001d74       ?GetUserType@?$IOleObjectImpl@VCOPOSSmartCardRW@@@ATL@@UEAAJKPEAPEA_W@Z 0000000180002d74 f i SmartCardRW.obj
 0001:00001d84       ?SetExtent@?$IOleObjectImpl@VCOPOSSmartCardRW@@@ATL@@UEAAJKPEAUtagSIZE@@@Z 0000000180002d84 f i SmartCardRW.obj
 0001:00001da0       ?GetExtent@?$IOleObjectImpl@VCOPOSSmartCardRW@@@ATL@@UEAAJKPEAUtagSIZE@@@Z 0000000180002da0 f i SmartCardRW.obj
 0001:00001dd0       ?Advise@?$IOleObjectImpl@VCOPOSSmartCardRW@@@ATL@@UEAAJPEAUIAdviseSink@@PEAK@Z 0000000180002dd0 f i SmartCardRW.obj
 0001:00001e2c       ?Unadvise@?$IOleObjectImpl@VCOPOSSmartCardRW@@@ATL@@UEAAJK@Z 0000000180002e2c f i SmartCardRW.obj
 0001:00001e64       ?EnumAdvise@?$IOleObjectImpl@VCOPOSSmartCardRW@@@ATL@@UEAAJPEAPEAUIEnumSTATDATA@@@Z 0000000180002e64 f i SmartCardRW.obj
 0001:00001eac       ?GetMiscStatus@?$IOleObjectImpl@VCOPOSSmartCardRW@@@ATL@@UEAAJKPEAK@Z 0000000180002eac f i SmartCardRW.obj
 0001:00001ebc       ?GetWindow@?$IOleInPlaceActiveObjectImpl@VCOPOSSmartCardRW@@@ATL@@UEAAJPEAPEAUHWND__@@@Z 0000000180002ebc f i SmartCardRW.obj
 0001:00001f10       ?TranslateAcceleratorW@?$IOleInPlaceActiveObjectImpl@VCOPOSSmartCardRW@@@ATL@@UEAAJPEAUtagMSG@@@Z 0000000180002f10 f i SmartCardRW.obj
 0001:00002004       ?OnDocWindowActivate@?$IOleInPlaceActiveObjectImpl@VCOPOSSmartCardRW@@@ATL@@UEAAJH@Z 0000000180003004 f i SmartCardRW.obj
 0001:00002030       ?Draw@?$IViewObjectExImpl@VCOPOSSmartCardRW@@@ATL@@UEAAJKJPEAXPEAUtagDVTARGETDEVICE@@PEAUHDC__@@2PEBU_RECTL@@3P6AH_K@Z4@Z 0000000180003030 f i SmartCardRW.obj
 0001:00002094       ?SetAdvise@?$IViewObjectExImpl@VCOPOSSmartCardRW@@@ATL@@UEAAJKKPEAUIAdviseSink@@@Z 0000000180003094 f i SmartCardRW.obj
 0001:000020e8       ?GetAdvise@?$IViewObjectExImpl@VCOPOSSmartCardRW@@@ATL@@UEAAJPEAK0PEAPEAUIAdviseSink@@@Z 00000001800030e8 f i SmartCardRW.obj
 0001:00002124       ?GetExtent@?$IViewObjectExImpl@VCOPOSSmartCardRW@@@ATL@@UEAAJKJPEAUtagDVTARGETDEVICE@@PEAUtagSIZE@@@Z 0000000180003124 f i SmartCardRW.obj
 0001:00002154       ?GetViewStatus@?$IViewObjectExImpl@VCOPOSSmartCardRW@@@ATL@@UEAAJPEAK@Z 0000000180003154 f i SmartCardRW.obj
 0001:00002168       ?QueryHitPoint@?$IViewObjectExImpl@VCOPOSSmartCardRW@@@ATL@@UEAAJKPEBUtagRECT@@UtagPOINT@@JPEAK@Z 0000000180003168 f i SmartCardRW.obj
 0001:000021ac       ?QueryHitRect@?$IViewObjectExImpl@VCOPOSSmartCardRW@@@ATL@@UEAAJKPEBUtagRECT@@0JPEAK@Z 00000001800031ac f i SmartCardRW.obj
 0001:00002214       ?GetNaturalExtent@?$IViewObjectExImpl@VCOPOSSmartCardRW@@@ATL@@UEAAJKJPEAUtagDVTARGETDEVICE@@PEAUHDC__@@PEAUtagExtentInfo@@PEAUtagSIZE@@@Z 0000000180003214 f i SmartCardRW.obj
 0001:0000225c       ?GetWindow@?$IOleInPlaceObjectWindowlessImpl@VCOPOSSmartCardRW@@@ATL@@UEAAJPEAPEAUHWND__@@@Z 000000018000325c f i SmartCardRW.obj
 0001:000022b0       ?InPlaceDeactivate@?$IOleInPlaceObjectWindowlessImpl@VCOPOSSmartCardRW@@@ATL@@UEAAJXZ 00000001800032b0 f i SmartCardRW.obj
 0001:000022cc       ?UIDeactivate@?$IOleInPlaceObjectWindowlessImpl@VCOPOSSmartCardRW@@@ATL@@UEAAJXZ 00000001800032cc f i SmartCardRW.obj
 0001:000022e8       ?SetObjectRects@?$IOleInPlaceObjectWindowlessImpl@VCOPOSSmartCardRW@@@ATL@@UEAAJPEBUtagRECT@@0@Z 00000001800032e8 f i SmartCardRW.obj
 0001:00002304       ?OnWindowMessage@?$IOleInPlaceObjectWindowlessImpl@VCOPOSSmartCardRW@@@ATL@@UEAAJI_K_JPEA_J@Z 0000000180003304 f i SmartCardRW.obj
 0001:000023cc       ?EnumConnectionPoints@?$IConnectionPointContainerImpl@VCOPOSSmartCardRW@@@ATL@@UEAAJPEAPEAUIEnumConnectionPoints@@@Z 00000001800033cc f i SmartCardRW.obj
 0001:000025ec       ?FindConnectionPoint@?$IConnectionPointContainerImpl@VCOPOSSmartCardRW@@@ATL@@UEAAJAEBU_GUID@@PEAPEAUIConnectionPoint@@@Z 00000001800035ec f i SmartCardRW.obj
 0001:000026bc       ?IsDirty@?$IPersistStorageImpl@VCOPOSSmartCardRW@@@ATL@@UEAAJXZ 00000001800036bc f i SmartCardRW.obj
 0001:00002700       ?InitNew@?$IPersistStorageImpl@VCOPOSSmartCardRW@@@ATL@@UEAAJPEAUIStorage@@@Z 0000000180003700 f i SmartCardRW.obj
 0001:00002744       ?Load@?$IPersistStorageImpl@VCOPOSSmartCardRW@@@ATL@@UEAAJPEAUIStorage@@@Z 0000000180003744 f i SmartCardRW.obj
 0001:000027e4       ?Save@?$IPersistStorageImpl@VCOPOSSmartCardRW@@@ATL@@UEAAJPEAUIStorage@@H@Z 00000001800037e4 f i SmartCardRW.obj
 0001:00002894       ?GetPages@?$ISpecifyPropertyPagesImpl@VCOPOSSmartCardRW@@@ATL@@UEAAJPEAUtagCAUUID@@@Z 0000000180003894 f i SmartCardRW.obj
 0001:000028a0       ?QuickActivate@?$IQuickActivateImpl@VCOPOSSmartCardRW@@@ATL@@UEAAJPEAUtagQACONTAINER@@PEAUtagQACONTROL@@@Z 00000001800038a0 f i SmartCardRW.obj
 0001:000028bc       ?SetContentExtent@?$IQuickActivateImpl@VCOPOSSmartCardRW@@@ATL@@UEAAJPEAUtagSIZE@@@Z 00000001800038bc f i SmartCardRW.obj
 0001:000028f0       ?GetContentExtent@?$IQuickActivateImpl@VCOPOSSmartCardRW@@@ATL@@UEAAJPEAUtagSIZE@@@Z 00000001800038f0 f i SmartCardRW.obj
 0001:00002928       ?GetData@?$IDataObjectImpl@VCOPOSSmartCardRW@@@ATL@@UEAAJPEAUtagFORMATETC@@PEAUtagSTGMEDIUM@@@Z 0000000180003928 f i SmartCardRW.obj
 0001:00002944       ?DAdvise@?$IDataObjectImpl@VCOPOSSmartCardRW@@@ATL@@UEAAJPEAUtagFORMATETC@@KPEAUIAdviseSink@@PEAK@Z 0000000180003944 f i SmartCardRW.obj
 0001:000029cc       ?DUnadvise@?$IDataObjectImpl@VCOPOSSmartCardRW@@@ATL@@UEAAJK@Z 00000001800039cc f i SmartCardRW.obj
 0001:000029f8       ?EnumDAdvise@?$IDataObjectImpl@VCOPOSSmartCardRW@@@ATL@@UEAAJPEAPEAUIEnumSTATDATA@@@Z 00000001800039f8 f i SmartCardRW.obj
 0001:00002a34       ?GetClassInfoW@?$IProvideClassInfo2Impl@$1?CLSID_OPOSSmartCardRW@@3U_GUID@@B$1?DIID__IOPOSSmartCardRWEvents@@3U2@B$1?LIBID_OposSmartCardRW_CCO@@3U2@B$00$0A@VCComTypeInfoHolder@ATL@@@ATL@@UEAAJPEAPEAUITypeInfo@@@Z 0000000180003a34 f i SmartCardRW.obj
 0001:00002a8c       ?GetGUID@?$IProvideClassInfo2Impl@$1?CLSID_OPOSSmartCardRW@@3U_GUID@@B$1?DIID__IOPOSSmartCardRWEvents@@3U2@B$1?LIBID_OposSmartCardRW_CCO@@3U2@B$00$0A@VCComTypeInfoHolder@ATL@@@ATL@@UEAAJKPEAU_GUID@@@Z 0000000180003a8c f i SmartCardRW.obj
 0001:00002ac0       ?GetInterfaceSafetyOptions@?$IObjectSafetyImpl@VCOPOSSmartCardRW@@$02@ATL@@UEAAJAEBU_GUID@@PEAK1@Z 0000000180003ac0 f i SmartCardRW.obj
 0001:00002b54       ?SetInterfaceSafetyOptions@?$IObjectSafetyImpl@VCOPOSSmartCardRW@@$02@ATL@@UEAAJAEBU_GUID@@KK@Z 0000000180003b54 f i SmartCardRW.obj
 0001:00002bf8       ?_LocCPQueryInterface@?$IConnectionPointImpl@VCOPOSSmartCardRW@@$1?IID_IPropertyNotifySink@@3U_GUID@@BVCComDynamicUnkArray@ATL@@@ATL@@UEAAJAEBU_GUID@@PEAPEAX@Z 0000000180003bf8 f i SmartCardRW.obj
 0001:00002bf8       ?_LocCPQueryInterface@?$IConnectionPointImpl@VCOPOSSmartCardRW@@$1?DIID__IOPOSSmartCardRWEvents@@3U_GUID@@BVCComDynamicUnkArray@ATL@@@ATL@@UEAAJAEBU_GUID@@PEAPEAX@Z 0000000180003bf8 f i SmartCardRW.obj
 0001:00002c6c       ?GetConnectionInterface@?$IConnectionPointImpl@VCOPOSSmartCardRW@@$1?IID_IPropertyNotifySink@@3U_GUID@@BVCComDynamicUnkArray@ATL@@@ATL@@UEAAJPEAU_GUID@@@Z 0000000180003c6c f i SmartCardRW.obj
 0001:00002c88       ?GetConnectionPointContainer@?$IConnectionPointImpl@VCOPOSSmartCardRW@@$1?IID_IPropertyNotifySink@@3U_GUID@@BVCComDynamicUnkArray@ATL@@@ATL@@UEAAJPEAPEAUIConnectionPointContainer@@@Z 0000000180003c88 f i SmartCardRW.obj
 0001:00002ca8       ?Advise@?$IConnectionPointImpl@VCOPOSSmartCardRW@@$1?IID_IPropertyNotifySink@@3U_GUID@@BVCComDynamicUnkArray@ATL@@@ATL@@UEAAJPEAUIUnknown@@PEAK@Z 0000000180003ca8 f i SmartCardRW.obj
 0001:00002ca8       ?Advise@?$IConnectionPointImpl@VCOPOSSmartCardRW@@$1?DIID__IOPOSSmartCardRWEvents@@3U_GUID@@BVCComDynamicUnkArray@ATL@@@ATL@@UEAAJPEAUIUnknown@@PEAK@Z 0000000180003ca8 f i SmartCardRW.obj
 0001:00002d68       ?Unadvise@?$IConnectionPointImpl@VCOPOSSmartCardRW@@$1?IID_IPropertyNotifySink@@3U_GUID@@BVCComDynamicUnkArray@ATL@@@ATL@@UEAAJK@Z 0000000180003d68 f i SmartCardRW.obj
 0001:00002d68       ?Unadvise@?$IConnectionPointImpl@VCOPOSSmartCardRW@@$1?DIID__IOPOSSmartCardRWEvents@@3U_GUID@@BVCComDynamicUnkArray@ATL@@@ATL@@UEAAJK@Z 0000000180003d68 f i SmartCardRW.obj
 0001:00002de4       ?EnumConnections@?$IConnectionPointImpl@VCOPOSSmartCardRW@@$1?DIID__IOPOSSmartCardRWEvents@@3U_GUID@@BVCComDynamicUnkArray@ATL@@@ATL@@UEAAJPEAPEAUIEnumConnections@@@Z 0000000180003de4 f i SmartCardRW.obj
 0001:00002de4       ?EnumConnections@?$IConnectionPointImpl@VCOPOSSmartCardRW@@$1?IID_IPropertyNotifySink@@3U_GUID@@BVCComDynamicUnkArray@ATL@@@ATL@@UEAAJPEAPEAUIEnumConnections@@@Z 0000000180003de4 f i SmartCardRW.obj
 0001:00002f8c       ?GetConnectionInterface@?$IConnectionPointImpl@VCOPOSSmartCardRW@@$1?DIID__IOPOSSmartCardRWEvents@@3U_GUID@@BVCComDynamicUnkArray@ATL@@@ATL@@UEAAJPEAU_GUID@@@Z 0000000180003f8c f i SmartCardRW.obj
 0001:00002fa8       ?GetConnectionPointContainer@?$IConnectionPointImpl@VCOPOSSmartCardRW@@$1?DIID__IOPOSSmartCardRWEvents@@3U_GUID@@BVCComDynamicUnkArray@ATL@@@ATL@@UEAAJPEAPEAUIConnectionPointContainer@@@Z 0000000180003fa8 f i SmartCardRW.obj
 0001:00002fc8       ?UpdateRegistry@COPOSSmartCardRW@@SAJH@Z 0000000180003fc8 f i SmartCardRW.obj
 0001:00002fe0       ?ProcessWindowMessage@COPOSSmartCardRW@@UEAAHPEAUHWND__@@I_K_JAEA_JK@Z 0000000180003fe0 f i SmartCardRW.obj
 0001:00003068       ?SOData@COPOSSmartCardRW@@MEAAJJ@Z 0000000180004068 f i SmartCardRW.obj
 0001:000030b8       ?SODirectIO@COPOSSmartCardRW@@MEAAJJPEAJPEAPEA_W@Z 00000001800040b8 f i SmartCardRW.obj
 0001:00003130       ?SOError@COPOSSmartCardRW@@MEAAJJJJPEAJ@Z 0000000180004130 f i SmartCardRW.obj
 0001:000031b8       ?SOOutputComplete@COPOSSmartCardRW@@MEAAJJ@Z 00000001800041b8 f i SmartCardRW.obj
 0001:00003208       ?SOStatusUpdate@COPOSSmartCardRW@@MEAAJJ@Z 0000000180004208 f i SmartCardRW.obj
 0001:00003258       ?CreateInstance@?$CComCreator@V?$CComObjectCached@VCComClassFactory@ATL@@@ATL@@@ATL@@SAJPEAXAEBU_GUID@@PEAPEAX@Z 0000000180004258 f i SmartCardRW.obj
 0001:00003360       ?CreateInstance@?$CComCreator2@V?$CComCreator@V?$CComObject@VCOPOSSmartCardRW@@@ATL@@@ATL@@V?$CComCreator@V?$CComAggObject@VCOPOSSmartCardRW@@@ATL@@@2@@ATL@@SAJPEAXAEBU_GUID@@PEAPEAX@Z 0000000180004360 f i SmartCardRW.obj
 0001:00003370       ?Next@?$CComEnumImpl@UIEnumConnectionPoints@@$1?_GUID_b196b285_bab4_101a_b69c_00aa00341d07@@3U__s_GUID@@BPEAUIConnectionPoint@@V?$_CopyInterface@UIConnectionPoint@@@ATL@@@ATL@@UEAAJKPEAPEAUIConnectionPoint@@PEAK@Z 0000000180004370 f i SmartCardRW.obj
 0001:0000343c       ?Skip@?$CComEnumImpl@UIEnumConnectionPoints@@$1?_GUID_b196b285_bab4_101a_b69c_00aa00341d07@@3U__s_GUID@@BPEAUIConnectionPoint@@V?$_CopyInterface@UIConnectionPoint@@@ATL@@@ATL@@UEAAJK@Z 000000018000443c f i SmartCardRW.obj
 0001:00003468       ?Clone@?$CComEnumImpl@UIEnumConnectionPoints@@$1?_GUID_b196b285_bab4_101a_b69c_00aa00341d07@@3U__s_GUID@@BPEAUIConnectionPoint@@V?$_CopyInterface@UIConnectionPoint@@@ATL@@@ATL@@UEAAJPEAPEAUIEnumConnectionPoints@@@Z 0000000180004468 f i SmartCardRW.obj
 0001:00003594       ?QueryInterface@?$CComObject@V?$CComEnum@UIEnumConnectionPoints@@$1?_GUID_b196b285_bab4_101a_b69c_00aa00341d07@@3U__s_GUID@@BPEAUIConnectionPoint@@V?$_CopyInterface@UIConnectionPoint@@@ATL@@VCComSingleThreadModel@6@@ATL@@@ATL@@UEAAJAEBU_GUID@@PEAPEAX@Z 0000000180004594 f i SmartCardRW.obj
 0001:000035a8       ??_E?$CComObject@V?$CComEnum@UIEnumConnectionPoints@@$1?_GUID_b196b285_bab4_101a_b69c_00aa00341d07@@3U__s_GUID@@BPEAUIConnectionPoint@@V?$_CopyInterface@UIConnectionPoint@@@ATL@@VCComSingleThreadModel@6@@ATL@@@ATL@@UEAAPEAXI@Z 00000001800045a8 f i SmartCardRW.obj
 0001:000035a8       ??_G?$CComObject@V?$CComEnum@UIEnumConnectionPoints@@$1?_GUID_b196b285_bab4_101a_b69c_00aa00341d07@@3U__s_GUID@@BPEAUIConnectionPoint@@V?$_CopyInterface@UIConnectionPoint@@@ATL@@VCComSingleThreadModel@6@@ATL@@@ATL@@UEAAPEAXI@Z 00000001800045a8 f i SmartCardRW.obj
 0001:00003600       ?CreateInstance@CComClassFactory@ATL@@UEAAJPEAUIUnknown@@AEBU_GUID@@PEAPEAX@Z 0000000180004600 f i SmartCardRW.obj
 0001:00003660       ?LockServer@CComClassFactory@ATL@@UEAAJH@Z 0000000180004660 f i SmartCardRW.obj
 0001:00003684       ??_ECComClassFactory@ATL@@UEAAPEAXI@Z 0000000180004684 f i SmartCardRW.obj
 0001:00003684       ??_GCComClassFactory@ATL@@UEAAPEAXI@Z 0000000180004684 f i SmartCardRW.obj
 0001:000036d4       ??$AtlModuleRegisterWndClassInfoT@VAtlModuleRegisterWndClassInfoParamW@ATL@@@ATL@@YAGPEAU_ATL_BASE_MODULE70@0@PEAU_ATL_WIN_MODULE70@0@PEAU_ATL_WNDCLASSINFOW@0@PEAP6A_JPEAUHWND__@@I_K_J@ZVAtlModuleRegisterWndClassInfoParamW@0@@Z 00000001800046d4 f i SmartCardRW.obj
 0001:000038d4       ??0?$CComContainedObject@VCOPOSSmartCardRW@@@ATL@@QEAA@PEAX@Z 00000001800048d4 f i SmartCardRW.obj
 0001:000039f0       ??0?$CComObject@VCOPOSSmartCardRW@@@ATL@@QEAA@PEAX@Z 00000001800049f0 f i SmartCardRW.obj
 0001:00003b08       ??0CAtlModule@ATL@@QEAA@XZ 0000000180004b08 f i SmartCardRW.obj
 0001:00003b7c       ??1?$CComEnumImpl@UIEnumConnectionPoints@@$1?_GUID_b196b285_bab4_101a_b69c_00aa00341d07@@3U__s_GUID@@BPEAUIConnectionPoint@@V?$_CopyInterface@UIConnectionPoint@@@ATL@@@ATL@@UEAA@XZ 0000000180004b7c f i SmartCardRW.obj
 0001:00003bd8       ??1?$CComEnumImpl@UIEnumConnections@@$1?_GUID_b196b287_bab4_101a_b69c_00aa00341d07@@3U__s_GUID@@BUtagCONNECTDATA@@V?$_Copy@UtagCONNECTDATA@@@ATL@@@ATL@@UEAA@XZ 0000000180004bd8 f i SmartCardRW.obj
 0001:00003c34       ??1?$CComObject@VCOPOSSmartCardRW@@@ATL@@UEAA@XZ 0000000180004c34 f i SmartCardRW.obj
 0001:00003d54       ??_G?$CComContainedObject@VCOPOSSmartCardRW@@@ATL@@UEAAPEAXI@Z 0000000180004d54 f i SmartCardRW.obj
 0001:00003d54       ??_E?$CComContainedObject@VCOPOSSmartCardRW@@@ATL@@UEAAPEAXI@Z 0000000180004d54 f i SmartCardRW.obj
 0001:00003d88       ??_G?$CComObject@VCOPOSSmartCardRW@@@ATL@@UEAAPEAXI@Z 0000000180004d88 f i SmartCardRW.obj
 0001:00003d88       ??_E?$CComObject@VCOPOSSmartCardRW@@@ATL@@UEAAPEAXI@Z 0000000180004d88 f i SmartCardRW.obj
 0001:00003dbc       ?Add@?$CSimpleArray@GV?$CSimpleArrayEqualHelper@G@ATL@@@ATL@@QEAAHAEBG@Z 0000000180004dbc f i SmartCardRW.obj
 0001:00003e70       ?Add@?$CSimpleMap@PEA_WPEA_WVCExpansionVectorEqualHelper@ATL@@@ATL@@QEAAHAEBQEA_W0@Z 0000000180004e70 f i SmartCardRW.obj
 0001:00003f10       ?Add@CComDynamicUnkArray@ATL@@QEAAKPEAUIUnknown@@@Z 0000000180004f10 f i SmartCardRW.obj
 0001:00003ff8       ?Add@CExpansionVector@ATL@@QEAAHPEB_W0@Z 0000000180004ff8 f i SmartCardRW.obj
 0001:00004188       ?AddValue@CRegParser@ATL@@IEAAJAEAVCRegKey@2@PEB_WPEA_W@Z 0000000180005188 f i SmartCardRW.obj
 0001:000045d0       ?AllocateHeap@?$CTempBuffer@E$0BAA@VCCRTAllocator@ATL@@@ATL@@AEAAX_K@Z 00000001800055d0 f i SmartCardRW.obj
 0001:000045d0       ?AllocateHeap@?$CTempBuffer@_W$0EAA@VCCRTAllocator@ATL@@@ATL@@AEAAX_K@Z 00000001800055d0 f i SmartCardRW.obj
 0001:000045d0       ?AllocateHeap@?$CTempBuffer@_W$0BAA@VCCRTAllocator@ATL@@@ATL@@AEAAX_K@Z 00000001800055d0 f i SmartCardRW.obj
 0001:000045fc       ?Append@CParseBuffer@CRegParser@ATL@@QEAAHPEB_WH@Z 00000001800055fc f i SmartCardRW.obj
 0001:00004714       ?AtlCallTermFunc@ATL@@YAXPEAU_ATL_MODULE70@1@@Z 0000000180005714 f i SmartCardRW.obj
 0001:00004778       ?AtlComModuleGetClassObject@ATL@@YAJPEAU_ATL_COM_MODULE70@1@AEBU_GUID@@1PEAPEAX@Z 0000000180005778 f i SmartCardRW.obj
 0001:000048b8       ?AtlComModuleRegisterServer@ATL@@YAJPEAU_ATL_COM_MODULE70@1@HPEBU_GUID@@@Z 00000001800058b8 f i SmartCardRW.obj
 0001:00004978       ?AtlComModuleUnregisterServer@ATL@@YAJPEAU_ATL_COM_MODULE70@1@HPEBU_GUID@@@Z 0000000180005978 f i SmartCardRW.obj
 0001:00004a34       ?AtlCreateTargetDC@ATL@@YAPEAUHDC__@@PEAU2@PEAUtagDVTARGETDEVICE@@@Z 0000000180005a34 f i SmartCardRW.obj
 0001:00004aa8       ?AtlHiMetricToPixel@ATL@@YAXPEBUtagSIZE@@PEAU2@@Z 0000000180005aa8 f i SmartCardRW.obj
 0001:00004b58       ?AtlHresultFromLastError@ATL@@YAJXZ 0000000180005b58 f i SmartCardRW.obj
 0001:00004b78       ?AtlHresultFromWin32@ATL@@YAJK@Z 0000000180005b78 f i SmartCardRW.obj
 0001:00004b88       ?AtlIPersistStreamInit_Load@ATL@@YAJPEAUIStream@@PEBUATL_PROPMAP_ENTRY@1@PEAXPEAUIUnknown@@@Z 0000000180005b88 f i SmartCardRW.obj
 0001:00004dc0       ?AtlIPersistStreamInit_Save@ATL@@YAJPEAUIStream@@HPEBUATL_PROPMAP_ENTRY@1@PEAXPEAUIUnknown@@@Z 0000000180005dc0 f i SmartCardRW.obj
 0001:00004ff8       ?AtlInternalOleLoadFromStream@ATL@@YAJPEAUIStream@@AEBU_GUID@@PEAPEAXTClassesAllowedInStream@1@K@Z 0000000180005ff8 f i SmartCardRW.obj
 0001:0000513c       ?AtlInternalQueryInterface@ATL@@YAJPEAXPEBU_ATL_INTMAP_ENTRY@1@AEBU_GUID@@PEAPEAX@Z 000000018000613c f i SmartCardRW.obj
 0001:00005244       ?AtlLoadTypeLib@ATL@@YAJPEAUHINSTANCE__@@PEB_WPEAPEA_WPEAPEAUITypeLib@@@Z 0000000180006244 f i SmartCardRW.obj
 0001:000054a0       ?AtlModuleAddTermFunc@ATL@@YAJPEAU_ATL_MODULE70@1@P6AX_K@Z1@Z 00000001800064a0 f i SmartCardRW.obj
 0001:00005534       ?AtlRegisterClassCategoriesHelper@ATL@@YAJAEBU_GUID@@PEBU_ATL_CATMAP_ENTRY@1@H@Z 0000000180006534 f i SmartCardRW.obj
 0001:0000599c       ?AtlRegisterTypeLib@ATL@@YAJPEAUHINSTANCE__@@PEB_W@Z 000000018000699c f i SmartCardRW.obj
 0001:00005b98       ?AtlThrowImpl@ATL@@YAXJ@Z  0000000180006b98 f i SmartCardRW.obj
 0001:00005bbc       ?AtlUnRegisterTypeLib@ATL@@YAJPEAUHINSTANCE__@@PEB_W@Z 0000000180006bbc f i SmartCardRW.obj
 0001:00005c84       ?AtlWinModuleExtractCreateWndData@ATL@@YAPEAXPEAU_ATL_WIN_MODULE70@1@@Z 0000000180006c84 f i SmartCardRW.obj
 0001:00005d10       ?Cleanup@CComTypeInfoHolder@ATL@@SAX_K@Z 0000000180006d10 f i SmartCardRW.obj
 0001:00005d50       ?ClearReplacements@CExpansionVector@ATL@@QEAAJXZ 0000000180006d50 f i SmartCardRW.obj
 0001:00005dec       ?CreateInstance@?$CComCreator@V?$CComAggObject@VCOPOSSmartCardRW@@@ATL@@@ATL@@SAJPEAXAEBU_GUID@@PEAPEAX@Z 0000000180006dec f i SmartCardRW.obj
 0001:00005ec4       ?CreateInstance@?$CComCreator@V?$CComObject@VCOPOSSmartCardRW@@@ATL@@@ATL@@SAJPEAXAEBU_GUID@@PEAPEAX@Z 0000000180006ec4 f i SmartCardRW.obj
 0001:00005f7c       ?CreateInstance@?$CComObject@V?$CComEnum@UIEnumConnectionPoints@@$1?_GUID_b196b285_bab4_101a_b69c_00aa00341d07@@3U__s_GUID@@BPEAUIConnectionPoint@@V?$_CopyInterface@UIConnectionPoint@@@ATL@@VCComSingleThreadModel@6@@ATL@@@ATL@@SAJPEAPEAV12@@Z 0000000180006f7c f i SmartCardRW.obj
 0001:00006008       ?CreateInstance@?$CComObject@V?$CComEnum@UIEnumConnections@@$1?_GUID_b196b287_bab4_101a_b69c_00aa00341d07@@3U__s_GUID@@BUtagCONNECTDATA@@V?$_Copy@UtagCONNECTDATA@@@ATL@@VCComSingleThreadModel@6@@ATL@@@ATL@@SAJPEAPEAV12@@Z 0000000180007008 f i SmartCardRW.obj
 0001:00006094       ?DefaultReflectionHandler@?$CWindowImplRoot@VCWindow@ATL@@@ATL@@SAHPEAUHWND__@@I_K_JAEA_J@Z 0000000180007094 f i SmartCardRW.obj
 0001:000060f8       ?DeleteSubKey@CRegKey@ATL@@QEAAJPEB_W@Z 00000001800070f8 f i SmartCardRW.obj
 0001:00006190       ?DoEvent@COPOSSmartCardRW@@IEAAXI_K_J@Z 0000000180007190 f i SmartCardRW.obj
 0001:00006244       ?DoVerbPrimary@?$IOleObjectImpl@VCOPOSSmartCardRW@@@ATL@@QEAAJPEBUtagRECT@@PEAUHWND__@@@Z 0000000180007244 f i SmartCardRW.obj
 0001:00006370       ?DoVerbProperties@CComControlBase@ATL@@QEAAJPEBUtagRECT@@PEAUHWND__@@@Z 0000000180007370 f i SmartCardRW.obj
 0001:00006598       ?FireTheEvent@?$CProxy_IOPOSEvents@VCOPOSSmartCardRW@@@@IEAAXPEAVOposVariant@@IAEAJPEB_WJ@Z 0000000180007598 f i SmartCardRW.obj
 0001:00006684       ?FireViewChange@CComControlBase@ATL@@QEAAJXZ 0000000180007684 f i SmartCardRW.obj
 0001:000066e8       ?Fire_DataEvent@?$CProxy_IOPOSEvents@VCOPOSSmartCardRW@@@@QEAAXJ@Z 00000001800076e8 f i SmartCardRW.obj
 0001:000067d4       ?Fire_DirectIOEvent@?$CProxy_IOPOSEvents@VCOPOSSmartCardRW@@@@QEAAXJPEAJPEAPEA_W@Z 00000001800077d4 f i SmartCardRW.obj
 0001:0000692c       ?Fire_ErrorEvent@?$CProxy_IOPOSEvents@VCOPOSSmartCardRW@@@@QEAAXJJJPEAJ@Z 000000018000792c f i SmartCardRW.obj
 0001:00006a94       ?Fire_OutputCompleteEvent@?$CProxy_IOPOSEvents@VCOPOSSmartCardRW@@@@QEAAXJ@Z 0000000180007a94 f i SmartCardRW.obj
 0001:00006b80       ?Fire_StatusUpdateEvent@?$CProxy_IOPOSEvents@VCOPOSSmartCardRW@@@@QEAAXJ@Z 0000000180007b80 f i SmartCardRW.obj
 0001:00006c6c       ?FreeHeap@?$CTempBuffer@_W$0EAA@VCCRTAllocator@ATL@@@ATL@@AEAAXXZ 0000000180007c6c f i SmartCardRW.obj
 0001:00006c6c       ?FreeHeap@?$CTempBuffer@E$0BAA@VCCRTAllocator@ATL@@@ATL@@AEAAXXZ 0000000180007c6c f i SmartCardRW.obj
 0001:00006c6c       ?FreeHeap@?$CTempBuffer@_W$0BAA@VCCRTAllocator@ATL@@@ATL@@AEAAXXZ 0000000180007c6c f i SmartCardRW.obj
 0001:00006c74       ?GetAmbientLocaleID@CComControlBase@ATL@@QEAAJAEAK@Z 0000000180007c74 f i SmartCardRW.obj
 0001:00006d34       ?GetAmbientUserMode@CComControlBase@ATL@@QEAAJAEAH@Z 0000000180007d34 f i SmartCardRW.obj
 0001:00006e04       ?GetClassObject@CComModule@ATL@@QEAAJAEBU_GUID@@0PEAPEAX@Z 0000000180007e04 f i SmartCardRW.obj
 0001:00006ef8       ?GetConnMap@COPOSSmartCardRW@@SAPEBU_ATL_CONNMAP_ENTRY@ATL@@PEAH@Z 0000000180007ef8 f i SmartCardRW.obj
 0001:00006f80       ?GetIDsOfNames@CComTypeInfoHolder@ATL@@QEAAJAEBU_GUID@@PEAPEA_WIKPEAJ@Z 0000000180007f80 f i SmartCardRW.obj
 0001:000070f8       ?GetPagesHelper@?$ISpecifyPropertyPagesImpl@VCOPOSSmartCardRW@@@ATL@@IEAAJPEAUtagCAUUID@@PEBUATL_PROPMAP_ENTRY@2@@Z 00000001800080f8 f i SmartCardRW.obj
 0001:00007298       ?GetSizeMax@CComVariant@ATL@@QEBAJPEAT_ULARGE_INTEGER@@@Z 0000000180008298 f i SmartCardRW.obj
 0001:000074cc       ?GetTI@CComTypeInfoHolder@ATL@@QEAAJK@Z 00000001800084cc f i SmartCardRW.obj
 0001:00007744       ?GetZoomInfo@CComControlBase@ATL@@QEAAXAEAUATL_DRAWINFO@@@Z 0000000180008744 f i SmartCardRW.obj
 0001:000077e8       ?HKeyFromString@CRegParser@ATL@@KAPEAUHKEY__@@PEA_W@Z 00000001800087e8 f i SmartCardRW.obj
 0001:0000784c       ?IDataObject_GetData@CComControlBase@ATL@@QEAAJPEAUtagFORMATETC@@PEAUtagSTGMEDIUM@@@Z 000000018000884c f i SmartCardRW.obj
 0001:00007a40       ?IOleInPlaceObject_InPlaceDeactivate@CComControlBase@ATL@@QEAAJXZ 0000000180008a40 f i SmartCardRW.obj
 0001:00007ae0       ?IOleInPlaceObject_SetObjectRects@CComControlBase@ATL@@QEAAJPEBUtagRECT@@0@Z 0000000180008ae0 f i SmartCardRW.obj
 0001:00007bd0       ?IOleInPlaceObject_UIDeactivate@CComControlBase@ATL@@QEAAJXZ 0000000180008bd0 f i SmartCardRW.obj
 0001:00007cdc       ?IOleObject_Close@CComControlBase@ATL@@QEAAJK@Z 0000000180008cdc f i SmartCardRW.obj
 0001:00007df4       ?IOleObject_SetClientSite@CComControlBase@ATL@@QEAAJPEAUIOleClientSite@@@Z 0000000180008df4 f i SmartCardRW.obj
 0001:00007e6c       ?IOleObject_SetExtent@CComControlBase@ATL@@QEAAJKPEAUtagSIZE@@@Z 0000000180008e6c f i SmartCardRW.obj
 0001:00007f04       ?IPSI_GetIPersistStreamInit@?$IPersistStorageImpl@VCOPOSSmartCardRW@@@ATL@@AEAAPEAUIPersistStreamInit@@XZ 0000000180008f04 f i SmartCardRW.obj
 0001:00007f60       ?IQuickActivate_QuickActivate@CComControlBase@ATL@@QEAAJPEAUtagQACONTAINER@@PEAUtagQACONTROL@@@Z 0000000180008f60 f i SmartCardRW.obj
 0001:00008224       ?IViewObject_Draw@CComControlBase@ATL@@QEAAJKJPEAXPEAUtagDVTARGETDEVICE@@PEAUHDC__@@2PEBU_RECTL@@3@Z 0000000180009224 f i SmartCardRW.obj
 0001:00008338       ?InPlaceActivate@CComControlBase@ATL@@QEAAJJPEBUtagRECT@@@Z 0000000180009338 f i SmartCardRW.obj
 0001:00008670       ?Init@?$CComEnumImpl@UIEnumConnectionPoints@@$1?_GUID_b196b285_bab4_101a_b69c_00aa00341d07@@3U__s_GUID@@BPEAUIConnectionPoint@@V?$_CopyInterface@UIConnectionPoint@@@ATL@@@ATL@@QEAAJPEAPEAUIConnectionPoint@@0PEAUIUnknown@@W4CComEnumFlags@2@@Z 0000000180009670 f i SmartCardRW.obj
 0001:00008790       ?Init@?$CComEnumImpl@UIEnumConnections@@$1?_GUID_b196b287_bab4_101a_b69c_00aa00341d07@@3U__s_GUID@@BUtagCONNECTDATA@@V?$_Copy@UtagCONNECTDATA@@@ATL@@@ATL@@QEAAJPEAUtagCONNECTDATA@@0PEAUIUnknown@@W4CComEnumFlags@2@@Z 0000000180009790 f i SmartCardRW.obj
 0001:000088b4       ?IsEqualObject@?$CComPtrBase@UIOleClientSite@@@ATL@@QEAA_NPEAUIUnknown@@@Z 00000001800098b4 f i SmartCardRW.obj
 0001:000088b4       ?IsEqualObject@?$CComPtrBase@UITypeInfo@@@ATL@@QEAA_NPEAUIUnknown@@@Z 00000001800098b4 f i SmartCardRW.obj
 0001:00008940       ?LoadNameCache@CComTypeInfoHolder@ATL@@QEAAJPEAUITypeInfo@@@Z 0000000180009940 f i SmartCardRW.obj
 0001:00008ac4       ?Lookup@?$CSimpleMap@PEA_WPEA_WVCExpansionVectorEqualHelper@ATL@@@ATL@@QEBAPEA_WAEBQEA_W@Z 0000000180009ac4 f i SmartCardRW.obj
 0001:00008b50       ?NextToken@CRegParser@ATL@@IEAAJPEA_W@Z 0000000180009b50 f i SmartCardRW.obj
 0001:00008d08       ?OnKillFocus@CComControlBase@ATL@@QEAA_JI_K_JAEAH@Z 0000000180009d08 f i SmartCardRW.obj
 0001:00008da4       ?OnMouseActivate@CComControlBase@ATL@@QEAA_JI_K_JAEAH@Z 0000000180009da4 f i SmartCardRW.obj
 0001:00008e44       ?OnPaint@CComControlBase@ATL@@QEAA_JI_K_JAEAH@Z 0000000180009e44 f i SmartCardRW.obj
 0001:00008f30       ?OnSetFocus@CComControlBase@ATL@@QEAA_JI_K_JAEAH@Z 0000000180009f30 f i SmartCardRW.obj
 0001:0000902c       ?Open@CRegKey@ATL@@QEAAJPEAUHKEY__@@PEB_WK@Z 000000018000a02c f i SmartCardRW.obj
 0001:000090b8       ?PreProcessBuffer@CRegParser@ATL@@QEAAJPEA_WPEAPEA_W@Z 000000018000a0b8 f i SmartCardRW.obj
 0001:0000943c       ?ProcessWindowMessage@?$CComControl@VCOPOSSmartCardRW@@V?$CWindowImpl@VCOPOSSmartCardRW@@VCWindow@ATL@@V?$CWinTraits@$0FGAAAAAA@$0A@@3@@ATL@@@ATL@@UEAAHPEAUHWND__@@I_K_JAEA_JK@Z 000000018000a43c f i SmartCardRW.obj
 0001:00009520       ?PutProperty@?$CComPtr@UIDispatch@@@ATL@@SAJPEAUIDispatch@@JPEAUtagVARIANT@@@Z 000000018000a520 f i SmartCardRW.obj
 0001:00009624       ?ReadFromStream@CComBSTR@ATL@@QEAAJPEAUIStream@@@Z 000000018000a624 f i SmartCardRW.obj
 0001:00009780       ?ReadFromStream@CComVariant@ATL@@QEAAJPEAUIStream@@GTClassesAllowedInStream@2@K@Z 000000018000a780 f i SmartCardRW.obj
 0001:00009990       ?RecurseDeleteKey@CRegKey@ATL@@QEAAJPEB_W@Z 000000018000a990 f i SmartCardRW.obj
 0001:00009a9c       ?RegCreateKeyExW@CAtlTransactionManager@ATL@@QEAAJPEAUHKEY__@@PEB_WKPEA_WKKQEAU_SECURITY_ATTRIBUTES@@PEAPEAU3@PEAK@Z 000000018000aa9c f i SmartCardRW.obj
 0001:00009bd0       ?RegDeleteKeyW@CAtlTransactionManager@ATL@@QEAAJPEAUHKEY__@@PEB_W@Z 000000018000abd0 f i SmartCardRW.obj
 0001:00009c5c       ?RegOpenKeyExW@CAtlTransactionManager@ATL@@QEAAJPEAUHKEY__@@PEB_WKKPEAPEAU3@@Z 000000018000ac5c f i SmartCardRW.obj
 0001:00009d14       ?RegisterBuffer@CRegParser@ATL@@QEAAJPEA_WH@Z 000000018000ad14 f i SmartCardRW.obj
 0001:00009e7c       ?RegisterFromResource@CRegObject@ATL@@IEAAJPEB_W00H@Z 000000018000ae7c f i SmartCardRW.obj
 0001:0000a038       ?RegisterServer@CComModule@ATL@@QEAAJHPEBU_GUID@@@Z 000000018000b038 f i SmartCardRW.obj
 0001:0000a0f8       ?RegisterSubkeys@CRegParser@ATL@@IEAAJPEA_WPEAUHKEY__@@HH@Z 000000018000b0f8 f i SmartCardRW.obj
 0001:0000a7ec       ?SendOnDataChange@CComControlBase@ATL@@QEAAJK@Z 000000018000b7ec f i SmartCardRW.obj
 0001:0000a85c       ?SetControlFocus@CComControlBase@ATL@@QEAAHH@Z 000000018000b85c f i SmartCardRW.obj
 0001:0000a938       ?SkipAssignment@CRegParser@ATL@@IEAAJPEA_W@Z 000000018000b938 f i SmartCardRW.obj
 0001:0000a9dc       ?Term@CComModule@ATL@@QEAAXXZ 000000018000b9dc f i SmartCardRW.obj
 0001:0000aa88       ?UnregisterServer@CComModule@ATL@@QEAAJHPEBU_GUID@@@Z 000000018000ba88 f i SmartCardRW.obj
 0001:0000ab38       ?UpdateRegistryFromResource@CAtlModule@ATL@@QEAAJIHPEAU_ATL_REGMAP_ENTRY@2@@Z 000000018000bb38 f i SmartCardRW.obj
 0001:0000ae70       ?UpdateRegistryFromResource@CAtlModule@ATL@@QEAAJPEB_WHPEAU_ATL_REGMAP_ENTRY@2@@Z 000000018000be70 f i SmartCardRW.obj
 0001:0000b1c8       ?VTFromRegType@CRegParser@ATL@@KAHPEB_WAEAG@Z 000000018000c1c8 f i SmartCardRW.obj
 0001:0000b264       ?WindowProc@?$CWindowImplBaseT@VCWindow@ATL@@V?$CWinTraits@$0FGAAAAAA@$0A@@2@@ATL@@SA_JPEAUHWND__@@I_K_J@Z 000000018000c264 f i SmartCardRW.obj
 0001:0000b3d0       ?WriteToStream@CComBSTR@ATL@@QEAAJPEAUIStream@@@Z 000000018000c3d0 f i SmartCardRW.obj
 0001:0000b450       ?WriteToStream@CComVariant@ATL@@QEAAJPEAUIStream@@@Z 000000018000c450 f i SmartCardRW.obj
 0001:0000b664       ?WriteToStream@CComVariant@ATL@@QEAAJPEAUIStream@@G@Z 000000018000c664 f i SmartCardRW.obj
 0001:0000b6fc       ?_AtlVerifyStackAvailable@_ATL_SAFE_ALLOCA_IMPL@ATL@@YA_N_K@Z 000000018000c6fc f i SmartCardRW.obj
 0001:0000b780       ?atlCreate@?$CWindowImpl@VCOPOSSmartCardRW@@VCWindow@ATL@@V?$CWinTraits@$0FGAAAAAA@$0A@@3@@ATL@@QEAAPEAUHWND__@@PEAU3@V_U_RECT@2@PEB_WKKV_U_MENUorID@2@PEAX@Z 000000018000c780 f i SmartCardRW.obj
 0001:0000b830       ?atlCreate@?$CWindowImplBaseT@VCWindow@ATL@@V?$CWinTraits@$0FGAAAAAA@$0A@@2@@ATL@@QEAAPEAUHWND__@@PEAU3@V_U_RECT@2@PEB_WKKV_U_MENUorID@2@GPEAX@Z 000000018000c830 f i SmartCardRW.obj
 0001:0000b9a0       ?atlCreate@CRegKey@ATL@@QEAAJPEAUHKEY__@@PEB_WPEA_WKKPEAU_SECURITY_ATTRIBUTES@@PEAK@Z 000000018000c9a0 f i SmartCardRW.obj
 0001:0000ba8c       DllCanUnloadNow            000000018000ca8c f   SmartCardRW.obj
 0001:0000ba98       DllGetClassObject          000000018000ca98 f   SmartCardRW.obj
 0001:0000bab0       DllMain                    000000018000cab0 f   SmartCardRW.obj
 0001:0000bb58       DllRegisterServer          000000018000cb58 f   SmartCardRW.obj
 0001:0000bb6c       DllUnregisterServer        000000018000cb6c f   SmartCardRW.obj
 0001:0000bb80       __local_stdio_printf_options 000000018000cb80 f i SmartCardRW.obj
 0001:0000bc10       swprintf_s                 000000018000cc10 f i SmartCardRW.obj
 0001:0000bc64       ??0COPOSSmartCardRW@@QEAA@XZ 000000018000cc64 f   SmartCardRWImpl.obj
 0001:0000bd34       ??1?$IConnectionPointImpl@VCOPOSSmartCardRW@@$1?IID_IPropertyNotifySink@@3U_GUID@@BVCComDynamicUnkArray@ATL@@@ATL@@QEAA@XZ 000000018000cd34 f i SmartCardRWImpl.obj
 0001:0000bd34       ??1?$IConnectionPointImpl@VCOPOSSmartCardRW@@$1?DIID__IOPOSSmartCardRWEvents@@3U_GUID@@BVCComDynamicUnkArray@ATL@@@ATL@@QEAA@XZ 000000018000cd34 f i SmartCardRWImpl.obj
 0001:0000bd90       ??1CComControlBase@ATL@@UEAA@XZ 000000018000cd90 f i SmartCardRWImpl.obj
 0001:0000be0c       ??1COPOSSmartCardRW@@UEAA@XZ 000000018000ce0c f   SmartCardRWImpl.obj
 0001:0000be70       ?BeginInsertion@COPOSSmartCardRW@@UEAAJJPEAJ@Z 000000018000ce70 f   SmartCardRWImpl.obj
 0001:0000beec       ?BeginRemoval@COPOSSmartCardRW@@UEAAJJPEAJ@Z 000000018000ceec f   SmartCardRWImpl.obj
 0001:0000bf68       ?CheckHealth@COPOSSmartCardRW@@UEAAJJPEAJ@Z 000000018000cf68 f   SmartCardRWImpl.obj
 0001:0000bfe4       ?ClaimDevice@COPOSSmartCardRW@@UEAAJJPEAJ@Z 000000018000cfe4 f   SmartCardRWImpl.obj
 0001:0000c084       ?ClearInput@COPOSSmartCardRW@@UEAAJPEAJ@Z 000000018000d084 f   SmartCardRWImpl.obj
 0001:0000c0ac       ?ClearInputProperties@COPOSSmartCardRW@@UEAAJPEAJ@Z 000000018000d0ac f   SmartCardRWImpl.obj
 0001:0000c0d4       ?ClearOutput@COPOSSmartCardRW@@UEAAJPEAJ@Z 000000018000d0d4 f   SmartCardRWImpl.obj
 0001:0000c0fc       ?Close@COPOSSmartCardRW@@UEAAJPEAJ@Z 000000018000d0fc f   SmartCardRWImpl.obj
 0001:0000c1b4       ?CompareFirmwareVersion@COPOSSmartCardRW@@UEAAJPEA_WPEAJ1@Z 000000018000d1b4 f   SmartCardRWImpl.obj
 0001:0000c290       ?DirectIO@COPOSSmartCardRW@@UEAAJJPEAJPEAPEA_W0@Z 000000018000d290 f   SmartCardRWImpl.obj
 0001:0000c38c       ?DoInvoke@COPOSSmartCardRW@@IEAAJJPEAVOposVariant@@IHPEAJ_N@Z 000000018000d38c f   SmartCardRWImpl.obj
 0001:0000c4c0       ?EndInsertion@COPOSSmartCardRW@@UEAAJPEAJ@Z 000000018000d4c0 f   SmartCardRWImpl.obj
 0001:0000c4e8       ?EndRemoval@COPOSSmartCardRW@@UEAAJPEAJ@Z 000000018000d4e8 f   SmartCardRWImpl.obj
 0001:0000c510       ?EventInit@COPOSSmartCardRW@@IEAAJXZ 000000018000d510 f i SmartCardRWImpl.obj
 0001:0000c658       ?EventUninit@COPOSSmartCardRW@@IEAAXXZ 000000018000d658 f i SmartCardRWImpl.obj
 0001:0000c6bc       ?EventWindowProc@COPOSSmartCardRW@@IEAA_JI_K_J@Z 000000018000d6bc f i SmartCardRWImpl.obj
 0001:0000c898       ?FinalConstruct@COPOSSmartCardRW@@QEAAJXZ 000000018000d898 f   SmartCardRWImpl.obj
 0001:0000c8d4       ?FreezeEvents@COPOSSmartCardRW@@MEAAJH@Z 000000018000d8d4 f   SmartCardRWImpl.obj
 0001:0000c948       ?GetOposProp@COPOSSmartCardRW@@IEAAJJPEAJJ@Z 000000018000d948 f   SmartCardRWImpl.obj
 0001:0000ca64       ?GetOposProp@COPOSSmartCardRW@@IEAAJJPEAPEA_WJ@Z 000000018000da64 f   SmartCardRWImpl.obj
 0001:0000cb90       ?OnDraw@COPOSSmartCardRW@@MEAAJAEAUATL_DRAWINFO@@@Z 000000018000db90 f   SmartCardRWImpl.obj
 0001:0000cc7c       ?Open@COPOSSmartCardRW@@UEAAJPEA_WPEAJ@Z 000000018000dc7c f   SmartCardRWImpl.obj
 0001:0000d4f8       ?ReadData@COPOSSmartCardRW@@UEAAJJPEAJPEAPEA_W0@Z 000000018000e4f8 f   SmartCardRWImpl.obj
 0001:0000d5f4       ?ReleaseDevice@COPOSSmartCardRW@@UEAAJPEAJ@Z 000000018000e5f4 f   SmartCardRWImpl.obj
 0001:0000d660       ?ResetStatistics@COPOSSmartCardRW@@UEAAJPEA_WPEAJ@Z 000000018000e660 f   SmartCardRWImpl.obj
 0001:0000d6e8       ?RetrieveStatistics@COPOSSmartCardRW@@UEAAJPEAPEA_WPEAJ@Z 000000018000e6e8 f   SmartCardRWImpl.obj
 0001:0000d770       ?SOProcessID@COPOSSmartCardRW@@UEAAJPEAJ@Z 000000018000e770 f   SmartCardRWImpl.obj
 0001:0000d78c       ?SetCOFreezeEvents@COPOSSmartCardRW@@IEAAXF@Z 000000018000e78c f   SmartCardRWImpl.obj
 0001:0000d870       ?SetOposProp@COPOSSmartCardRW@@IEAAJJJJ@Z 000000018000e870 f   SmartCardRWImpl.obj
 0001:0000d9d0       ?UpdateFirmware@COPOSSmartCardRW@@UEAAJPEA_WPEAJ@Z 000000018000e9d0 f   SmartCardRWImpl.obj
 0001:0000da58       ?UpdateStatistics@COPOSSmartCardRW@@UEAAJPEA_WPEAJ@Z 000000018000ea58 f   SmartCardRWImpl.obj
 0001:0000dae0       ?WriteData@COPOSSmartCardRW@@UEAAJJJPEA_WPEAJ@Z 000000018000eae0 f   SmartCardRWImpl.obj
 0001:0000dbd8       ?get_BinaryConversion@COPOSSmartCardRW@@UEAAJPEAJ@Z 000000018000ebd8 f   SmartCardRWImpl.obj
 0001:0000dbec       ?get_CapCardErrorDetection@COPOSSmartCardRW@@UEAAJPEAF@Z 000000018000ebec f   SmartCardRWImpl.obj
 0001:0000dc20       ?get_CapCompareFirmwareVersion@COPOSSmartCardRW@@UEAAJPEAF@Z 000000018000ec20 f   SmartCardRWImpl.obj
 0001:0000dc54       ?get_CapInterfaceMode@COPOSSmartCardRW@@UEAAJPEAJ@Z 000000018000ec54 f   SmartCardRWImpl.obj
 0001:0000dc68       ?get_CapIsoEmvMode@COPOSSmartCardRW@@UEAAJPEAJ@Z 000000018000ec68 f   SmartCardRWImpl.obj
 0001:0000dc7c       ?get_CapPowerReporting@COPOSSmartCardRW@@UEAAJPEAJ@Z 000000018000ec7c f   SmartCardRWImpl.obj
 0001:0000dc90       ?get_CapSCPresentSensor@COPOSSmartCardRW@@UEAAJPEAJ@Z 000000018000ec90 f   SmartCardRWImpl.obj
 0001:0000dca4       ?get_CapSCSlots@COPOSSmartCardRW@@UEAAJPEAJ@Z 000000018000eca4 f   SmartCardRWImpl.obj
 0001:0000dcb8       ?get_CapStatisticsReporting@COPOSSmartCardRW@@UEAAJPEAF@Z 000000018000ecb8 f   SmartCardRWImpl.obj
 0001:0000dcec       ?get_CapTransmissionProtocol@COPOSSmartCardRW@@UEAAJPEAJ@Z 000000018000ecec f   SmartCardRWImpl.obj
 0001:0000dd00       ?get_CapUpdateFirmware@COPOSSmartCardRW@@UEAAJPEAF@Z 000000018000ed00 f   SmartCardRWImpl.obj
 0001:0000dd34       ?get_CapUpdateStatistics@COPOSSmartCardRW@@UEAAJPEAF@Z 000000018000ed34 f   SmartCardRWImpl.obj
 0001:0000dd68       ?get_CheckHealthText@COPOSSmartCardRW@@UEAAJPEAPEA_W@Z 000000018000ed68 f   SmartCardRWImpl.obj
 0001:0000dd7c       ?get_Claimed@COPOSSmartCardRW@@UEAAJPEAF@Z 000000018000ed7c f   SmartCardRWImpl.obj
 0001:0000ddb0       ?get_ControlObjectDescription@COPOSSmartCardRW@@UEAAJPEAPEA_W@Z 000000018000edb0 f   SmartCardRWImpl.obj
 0001:0000de14       ?get_ControlObjectVersion@COPOSSmartCardRW@@UEAAJPEAJ@Z 000000018000ee14 f   SmartCardRWImpl.obj
 0001:0000de20       ?get_DataCount@COPOSSmartCardRW@@UEAAJPEAJ@Z 000000018000ee20 f   SmartCardRWImpl.obj
 0001:0000de34       ?get_DataEventEnabled@COPOSSmartCardRW@@UEAAJPEAF@Z 000000018000ee34 f   SmartCardRWImpl.obj
 0001:0000de68       ?get_DeviceDescription@COPOSSmartCardRW@@UEAAJPEAPEA_W@Z 000000018000ee68 f   SmartCardRWImpl.obj
 0001:0000de7c       ?get_DeviceEnabled@COPOSSmartCardRW@@UEAAJPEAF@Z 000000018000ee7c f   SmartCardRWImpl.obj
 0001:0000deb0       ?get_DeviceName@COPOSSmartCardRW@@UEAAJPEAPEA_W@Z 000000018000eeb0 f   SmartCardRWImpl.obj
 0001:0000dec4       ?get_FreezeEvents@COPOSSmartCardRW@@UEAAJPEAF@Z 000000018000eec4 f   SmartCardRWImpl.obj
 0001:0000def4       ?get_InterfaceMode@COPOSSmartCardRW@@UEAAJPEAJ@Z 000000018000eef4 f   SmartCardRWImpl.obj
 0001:0000df08       ?get_IsoEmvMode@COPOSSmartCardRW@@UEAAJPEAJ@Z 000000018000ef08 f   SmartCardRWImpl.obj
 0001:0000df1c       ?get_OpenResult@COPOSSmartCardRW@@UEAAJPEAJ@Z 000000018000ef1c f   SmartCardRWImpl.obj
 0001:0000df28       ?get_OutputID@COPOSSmartCardRW@@UEAAJPEAJ@Z 000000018000ef28 f   SmartCardRWImpl.obj
 0001:0000df3c       ?get_PowerNotify@COPOSSmartCardRW@@UEAAJPEAJ@Z 000000018000ef3c f   SmartCardRWImpl.obj
 0001:0000df50       ?get_PowerState@COPOSSmartCardRW@@UEAAJPEAJ@Z 000000018000ef50 f   SmartCardRWImpl.obj
 0001:0000df64       ?get_ResultCode@COPOSSmartCardRW@@UEAAJPEAJ@Z 000000018000ef64 f   SmartCardRWImpl.obj
 0001:0000dfa0       ?get_ResultCodeExtended@COPOSSmartCardRW@@UEAAJPEAJ@Z 000000018000efa0 f   SmartCardRWImpl.obj
 0001:0000dfb4       ?get_SCPresentSensor@COPOSSmartCardRW@@UEAAJPEAJ@Z 000000018000efb4 f   SmartCardRWImpl.obj
 0001:0000dfc8       ?get_SCSlot@COPOSSmartCardRW@@UEAAJPEAJ@Z 000000018000efc8 f   SmartCardRWImpl.obj
 0001:0000dfdc       ?get_ServiceObjectDescription@COPOSSmartCardRW@@UEAAJPEAPEA_W@Z 000000018000efdc f   SmartCardRWImpl.obj
 0001:0000dff0       ?get_ServiceObjectVersion@COPOSSmartCardRW@@UEAAJPEAJ@Z 000000018000eff0 f   SmartCardRWImpl.obj
 0001:0000e004       ?get_State@COPOSSmartCardRW@@UEAAJPEAJ@Z 000000018000f004 f   SmartCardRWImpl.obj
 0001:0000e030       ?get_TransactionInProgress@COPOSSmartCardRW@@UEAAJPEAF@Z 000000018000f030 f   SmartCardRWImpl.obj
 0001:0000e064       ?get_TransmissionProtocol@COPOSSmartCardRW@@UEAAJPEAJ@Z 000000018000f064 f   SmartCardRWImpl.obj
 0001:0000e078       ?put_BinaryConversion@COPOSSmartCardRW@@UEAAJJ@Z 000000018000f078 f   SmartCardRWImpl.obj
 0001:0000e08c       ?put_DataEventEnabled@COPOSSmartCardRW@@UEAAJF@Z 000000018000f08c f   SmartCardRWImpl.obj
 0001:0000e0a4       ?put_DeviceEnabled@COPOSSmartCardRW@@UEAAJF@Z 000000018000f0a4 f   SmartCardRWImpl.obj
 0001:0000e0bc       ?put_FreezeEvents@COPOSSmartCardRW@@UEAAJF@Z 000000018000f0bc f   SmartCardRWImpl.obj
 0001:0000e10c       ?put_InterfaceMode@COPOSSmartCardRW@@UEAAJJ@Z 000000018000f10c f   SmartCardRWImpl.obj
 0001:0000e120       ?put_IsoEmvMode@COPOSSmartCardRW@@UEAAJJ@Z 000000018000f120 f   SmartCardRWImpl.obj
 0001:0000e134       ?put_PowerNotify@COPOSSmartCardRW@@UEAAJJ@Z 000000018000f134 f   SmartCardRWImpl.obj
 0001:0000e148       ?put_SCSlot@COPOSSmartCardRW@@UEAAJJ@Z 000000018000f148 f   SmartCardRWImpl.obj
 0001:0000e15c       ?s_EventWindowProc@COPOSSmartCardRW@@KA_JPEAUHWND__@@I_K_J@Z 000000018000f15c f i SmartCardRWImpl.obj
 0001:0000e1d8       ??_U@YAPEAX_K@Z            000000018000f1d8 f   LIBCMT:new_array.obj
 0001:0000e1e0       ??_V@YAXPEAX@Z             000000018000f1e0 f   LIBCMT:delete_array.obj
 0001:0000e1e0       ??3@YAXPEAX_K@Z            000000018000f1e0 f   LIBCMT:delete_scalar_size.obj
 0001:0000e1e8       ??_V@YAXPEAX_K@Z           000000018000f1e8 f   LIBCMT:delete_array_size.obj
 0001:0000e1f0       __scrt_acquire_startup_lock 000000018000f1f0 f   LIBCMT:utility.obj
 0001:0000e22c       __scrt_dllmain_after_initialize_c 000000018000f22c f   LIBCMT:utility.obj
 0001:0000e260       __scrt_dllmain_before_initialize_c 000000018000f260 f   LIBCMT:utility.obj
 0001:0000e278       __scrt_dllmain_crt_thread_attach 000000018000f278 f   LIBCMT:utility.obj
 0001:0000e2a0       __scrt_dllmain_crt_thread_detach 000000018000f2a0 f   LIBCMT:utility.obj
 0001:0000e2b8       __scrt_dllmain_exception_filter 000000018000f2b8 f   LIBCMT:utility.obj
 0001:0000e318       __scrt_dllmain_uninitialize_c 000000018000f318 f   LIBCMT:utility.obj
 0001:0000e348       __scrt_dllmain_uninitialize_critical 000000018000f348 f   LIBCMT:utility.obj
 0001:0000e35c       __scrt_initialize_crt      000000018000f35c f   LIBCMT:utility.obj
 0001:0000e3a8       __scrt_initialize_onexit_tables 000000018000f3a8 f   LIBCMT:utility.obj
 0001:0000e434       __scrt_is_nonwritable_in_current_image 000000018000f434 f   LIBCMT:utility.obj
 0001:0000e4cc       __scrt_release_startup_lock 000000018000f4cc f   LIBCMT:utility.obj
 0001:0000e4f0       __scrt_uninitialize_crt    000000018000f4f0 f   LIBCMT:utility.obj
 0001:0000e51c       _onexit                    000000018000f51c f   LIBCMT:utility.obj
 0001:0000e558       atexit                     000000018000f558 f   LIBCMT:utility.obj
 0001:0000e570       ??3@YAXPEAX@Z              000000018000f570 f   LIBCMT:delete_scalar.obj
 0001:0000e670       _Init_thread_footer        000000018000f670 f   LIBCMT:thread_safe_statics.obj
 0001:0000e6d0       _Init_thread_header        000000018000f6d0 f   LIBCMT:thread_safe_statics.obj
 0001:0000e738       _Init_thread_notify        000000018000f738 f   LIBCMT:thread_safe_statics.obj
 0001:0000e77c       _Init_thread_wait          000000018000f77c f   LIBCMT:thread_safe_statics.obj
 0001:0000e7e0       __raise_securityfailure    000000018000f7e0 f   LIBCMT:gs_report.obj
 0001:0000e814       __report_gsfailure         000000018000f814 f   LIBCMT:gs_report.obj
 0001:0000e8e8       __report_rangecheckfailure 000000018000f8e8 f   LIBCMT:gs_report.obj
 0001:0000e8fc       __report_securityfailure   000000018000f8fc f   LIBCMT:gs_report.obj
 0001:0000ea7c       ??2@YAPEAX_KAEBUnothrow_t@std@@@Z 000000018000fa7c f   LIBCMT:new_scalar_nothrow.obj
 0001:0000ea9c       ??_U@YAPEAX_KAEBUnothrow_t@std@@@Z 000000018000fa9c f   LIBCMT:new_array_nothrow.obj
 0001:0000eaa4       __GSHandlerCheck           000000018000faa4 f   LIBCMT:gshandler.obj
 0001:0000eac4       __GSHandlerCheckCommon     000000018000fac4 f   LIBCMT:gshandler.obj
 0001:0000eb20       __GSHandlerCheck_SEH       000000018000fb20 f   LIBCMT:gshandlerseh.obj
 0001:0000ebc0       _alloca_probe              000000018000fbc0 f   LIBCMT:chkstk.obj
 0001:0000ebc0       __chkstk                   000000018000fbc0 f   LIBCMT:chkstk.obj
 0001:0000ec30       __security_check_cookie    000000018000fc30 f   LIBCMT:amdsecgs.obj
 0001:0000ef74       _DllMainCRTStartup         000000018000ff74 f   LIBCMT:dll_dllmain.obj
 0001:0000efb4       ??2@YAPEAX_K@Z             000000018000ffb4 f   LIBCMT:new_scalar.obj
 0001:0000eff0       __isa_available_init       000000018000fff0 f   LIBCMT:cpu_disp.obj
 0001:0000f16c       __scrt_is_ucrt_dll_in_use  000000018001016c f   LIBCMT:ucrt_detection.obj
 0001:0000f178       __crt_debugger_hook        0000000180010178 f   LIBCMT:utility_desktop.obj
 0001:0000f180       __scrt_fastfail            0000000180010180 f   LIBCMT:utility_desktop.obj
 0001:0000f2cc       __security_init_cookie     00000001800102cc f   LIBCMT:gs_support.obj
 0001:0000f378       ?__scrt_initialize_type_info@@YAXXZ 0000000180010378 f   LIBCMT:tncleanup.obj
 0001:0000f388       ?__scrt_uninitialize_type_info@@YAXXZ 0000000180010388 f   LIBCMT:tncleanup.obj
 0001:0000f394       __local_stdio_scanf_options 0000000180010394 f i LIBCMT:default_local_stdio_options.obj
 0001:0000f39c       __scrt_initialize_default_local_stdio_options 000000018001039c f   LIBCMT:default_local_stdio_options.obj
 0001:0000f3b8       __scrt_get_dyn_tls_init_callback 00000001800103b8 f   LIBCMT:dyn_tls_init.obj
 0001:0000f3c0       _RTC_Initialize            00000001800103c0 f   LIBCMT:initsect.obj
 0001:0000f3fc       _RTC_Terminate             00000001800103fc f   LIBCMT:initsect.obj
 0001:0000f438       ??0bad_alloc@std@@QEAA@AEBV01@@Z 0000000180010438 f i LIBCMT:throw_bad_alloc.obj
 0001:0000f474       ??0bad_alloc@std@@QEAA@XZ  0000000180010474 f i LIBCMT:throw_bad_alloc.obj
 0001:0000f494       ??0bad_array_new_length@std@@QEAA@AEBV01@@Z 0000000180010494 f i LIBCMT:throw_bad_alloc.obj
 0001:0000f4d0       ??0bad_array_new_length@std@@QEAA@XZ 00000001800104d0 f i LIBCMT:throw_bad_alloc.obj
 0001:0000f4f0       ??0exception@std@@QEAA@AEBV01@@Z 00000001800104f0 f i LIBCMT:throw_bad_alloc.obj
 0001:0000f524       ??1bad_alloc@std@@UEAA@XZ  0000000180010524 f i LIBCMT:throw_bad_alloc.obj
 0001:0000f524       ??1bad_exception@std@@UEAA@XZ 0000000180010524 f i libvcruntime:frame.obj
 0001:0000f524       ??1bad_array_new_length@std@@UEAA@XZ 0000000180010524 f i LIBCMT:throw_bad_alloc.obj
 0001:0000f538       ??_Eexception@std@@UEAAPEAXI@Z 0000000180010538 f i LIBCMT:throw_bad_alloc.obj
 0001:0000f538       ??_Ebad_alloc@std@@UEAAPEAXI@Z 0000000180010538 f i LIBCMT:throw_bad_alloc.obj
 0001:0000f538       ??_Gbad_exception@std@@UEAAPEAXI@Z 0000000180010538 f i libvcruntime:frame.obj
 0001:0000f538       ??_Ebad_exception@std@@UEAAPEAXI@Z 0000000180010538 f i libvcruntime:frame.obj
 0001:0000f538       ??_Gbad_alloc@std@@UEAAPEAXI@Z 0000000180010538 f i LIBCMT:throw_bad_alloc.obj
 0001:0000f538       ??_Ebad_array_new_length@std@@UEAAPEAXI@Z 0000000180010538 f i LIBCMT:throw_bad_alloc.obj
 0001:0000f538       ??_Gbad_array_new_length@std@@UEAAPEAXI@Z 0000000180010538 f i LIBCMT:throw_bad_alloc.obj
 0001:0000f538       ??_Gexception@std@@UEAAPEAXI@Z 0000000180010538 f i LIBCMT:throw_bad_alloc.obj
 0001:0000f57c       ?__scrt_throw_std_bad_alloc@@YAXXZ 000000018001057c f   LIBCMT:throw_bad_alloc.obj
 0001:0000f59c       ?__scrt_throw_std_bad_array_new_length@@YAXXZ 000000018001059c f   LIBCMT:throw_bad_alloc.obj
 0001:0000f5bc       ?what@exception@std@@UEBAPEBDXZ 00000001800105bc f i LIBCMT:throw_bad_alloc.obj
 0001:0000f5d0       ??_Etype_info@@UEAAPEAXI@Z 00000001800105d0 f i LIBCMT:std_type_info_static.obj
 0001:0000f5d0       ??_Gtype_info@@UEAAPEAXI@Z 00000001800105d0 f i LIBCMT:std_type_info_static.obj
 0001:0000f5fc       ??0CAtlBaseModule@ATL@@QEAA@XZ 00000001800105fc f   atls:atlbase.obj
 0001:0000f6a4       ??1CAtlBaseModule@ATL@@QEAA@XZ 00000001800106a4 f   atls:atlbase.obj
 0001:0000f7d8       ?__AllocStdCallThunk_cmn@@YAPEAXXZ 00000001800107d8 f   atls:atlthunk.obj
 0001:0000f930       AtlThunk_AllocateData      0000000180010930 f   atls:atlthunk.obj
 0001:0000f9ac       AtlThunk_DataToCode        00000001800109ac f   atls:atlthunk.obj
 0001:0000fa00       AtlThunk_FreeData          0000000180010a00 f   atls:atlthunk.obj
 0001:0000fa60       AtlThunk_InitData          0000000180010a60 f   atls:atlthunk.obj
 0001:0000fb08       _purecall                  0000000180010b08 f   libvcruntime:purevirt.obj
 0001:0000fb24       wcsstr                     0000000180010b24 f   libvcruntime:wcsstr.obj
 0001:0000fd50       memcmp                     0000000180010d50 f   libvcruntime:memcmp.obj
 0001:0000fe30       memcpy_repmovs             0000000180010e30 f   libvcruntime:memcpy.obj
 0001:0000fe50       memcpy                     0000000180010e50 f   libvcruntime:memcpy.obj
 0001:0000fe50       memmove                    0000000180010e50 f   libvcruntime:memcpy.obj
 0001:00010240       memset_repmovs             0000000180011240 f   libvcruntime:memset.obj
 0001:00010260       memset                     0000000180011260 f   libvcruntime:memset.obj
 0001:000103f0       __vcrt_initialize          00000001800113f0 f   libvcruntime:initialization.obj
 0001:00010418       __vcrt_thread_attach       0000000180011418 f   libvcruntime:initialization.obj
 0001:0001042c       __vcrt_thread_detach       000000018001142c f   libvcruntime:initialization.obj
 0001:00010440       __vcrt_uninitialize        0000000180011440 f   libvcruntime:initialization.obj
 0001:0001045c       __vcrt_uninitialize_critical 000000018001145c f   libvcruntime:initialization.obj
 0001:0001046c       __C_specific_handler       000000018001146c f   libvcruntime:riscchandler.obj
 0001:00010678       ??$_CallSETranslator@V__FrameHandler3@@@@YAHPEAUEHExceptionRecord@@PEA_KPEAU_CONTEXT@@PEAU_xDISPATCHER_CONTEXT@@PEBU_s_FuncInfo@@K1@Z 0000000180011678 f i libvcruntime:risctrnsctrl.obj
 0001:000106cc       ?CatchTryBlock@__FrameHandler3@@SAPEBU_s_TryBlockMapEntry@@PEBU_s_FuncInfo@@H@Z 00000001800116cc f   libvcruntime:risctrnsctrl.obj
 0001:00010720       ?ExecutionInCatch@__FrameHandler3@@SA_NPEAU_xDISPATCHER_CONTEXT@@PEBU_s_FuncInfo@@@Z 0000000180011720 f   libvcruntime:risctrnsctrl.obj
 0001:0001074c       ?FrameUnwindToEmptyState@__FrameHandler3@@SAXPEA_KPEAU_xDISPATCHER_CONTEXT@@PEBU_s_FuncInfo@@@Z 000000018001174c f   libvcruntime:risctrnsctrl.obj
 0001:000107b0       ?GetEstablisherFrame@__FrameHandler3@@SAPEA_KPEA_KPEAU_xDISPATCHER_CONTEXT@@PEBU_s_FuncInfo@@0@Z 00000001800117b0 f   libvcruntime:risctrnsctrl.obj
 0001:0001087c       ?GetRangeOfTrysToCheck@__FrameHandler3@@SA?AU?$pair@Viterator@TryBlockMap@__FrameHandler3@@V123@@std@@AEAVTryBlockMap@1@HPEAU_xDISPATCHER_CONTEXT@@PEBU_s_FuncInfo@@H@Z 000000018001187c f   libvcruntime:risctrnsctrl.obj
 0001:000109bc       ?UnwindNestedFrames@__FrameHandler3@@SAXPEA_KPEAUEHExceptionRecord@@PEAU_CONTEXT@@0PEAXPEBU_s_FuncInfo@@HHPEBU_s_HandlerType@@PEAU_xDISPATCHER_CONTEXT@@E@Z 00000001800119bc f   libvcruntime:risctrnsctrl.obj
 0001:00010ae0       _CreateFrameInfo           0000000180011ae0 f   libvcruntime:risctrnsctrl.obj
 0001:00010b1c       _FindAndUnlinkFrame        0000000180011b1c f   libvcruntime:risctrnsctrl.obj
 0001:00010b70       _GetImageBase              0000000180011b70 f   libvcruntime:risctrnsctrl.obj
 0001:00010b84       _GetThrowImageBase         0000000180011b84 f   libvcruntime:risctrnsctrl.obj
 0001:00010b98       _SetImageBase              0000000180011b98 f   libvcruntime:risctrnsctrl.obj
 0001:00010bb0       _SetThrowImageBase         0000000180011bb0 f   libvcruntime:risctrnsctrl.obj
 0001:00010bc8       __CxxFrameHandler3         0000000180011bc8 f   libvcruntime:risctrnsctrl.obj
 0001:00010c50       __std_type_info_compare    0000000180011c50 f   libvcruntime:std_type_info.obj
 0001:00010c78       __std_type_info_destroy_list 0000000180011c78 f   libvcruntime:std_type_info.obj
 0001:00010ca4       __std_exception_copy       0000000180011ca4 f   libvcruntime:std_exception.obj
 0001:00010d34       __std_exception_destroy    0000000180011d34 f   libvcruntime:std_exception.obj
 0001:00010d5c       _CxxThrowException         0000000180011d5c f   libvcruntime:throw.obj
 0001:00010e1c       __vcrt_freefls             0000000180011e1c f   libvcruntime:per_thread_data.obj
 0001:00010e3c       __vcrt_freeptd             0000000180011e3c f   libvcruntime:per_thread_data.obj
 0001:00010e8c       __vcrt_getptd              0000000180011e8c f   libvcruntime:per_thread_data.obj
 0001:00010ea8       __vcrt_getptd_noexit       0000000180011ea8 f   libvcruntime:per_thread_data.obj
 0001:00010f68       __vcrt_initialize_ptd      0000000180011f68 f   libvcruntime:per_thread_data.obj
 0001:00010fb0       __vcrt_uninitialize_ptd    0000000180011fb0 f   libvcruntime:per_thread_data.obj
 0001:00010fd4       __vcrt_initialize_locks    0000000180011fd4 f   libvcruntime:locks.obj
 0001:00011008       __vcrt_uninitialize_locks  0000000180012008 f   libvcruntime:locks.obj
 0001:00011050       _NLG_Notify                0000000180012050 f   libvcruntime:notify.obj
 0001:00011070       __NLG_Dispatch2            0000000180012070 f   libvcruntime:notify.obj
 0001:00011080       __NLG_Return2              0000000180012080 f   libvcruntime:notify.obj
 0001:00011084       __except_validate_context_record 0000000180012084 f   libvcruntime:jbcxrval.obj
 0001:000110bc       __DestructExceptionObject  00000001800120bc f   libvcruntime:ehhelpers.obj
 0001:00011130       ?_CallMemberFunction0@@YAXQEAX0@Z 0000000180012130 f i libvcruntime:ehhelpers.obj
 0001:00011134       _IsExceptionObjectToBeDestroyed 0000000180012134 f   libvcruntime:ehhelpers.obj
 0001:00011164       __AdjustPointer            0000000180012164 f   libvcruntime:ehhelpers.obj
 0001:00011188       __FrameUnwindFilter        0000000180012188 f   libvcruntime:ehhelpers.obj
 0001:000111d4       ?GetCurrentState@__FrameHandler3@@SAHPEA_KPEAU_xDISPATCHER_CONTEXT@@PEBU_s_FuncInfo@@@Z 00000001800121d4 f   libvcruntime:ehstate.obj
 0001:000111fc       ?GetUnwindTryBlock@__FrameHandler3@@SAHPEA_KPEAU_xDISPATCHER_CONTEXT@@PEBU_s_FuncInfo@@@Z 00000001800121fc f   libvcruntime:ehstate.obj
 0001:00011228       ?SetState@__FrameHandler3@@SAXPEA_KPEBU_s_FuncInfo@@H@Z 0000000180012228 f   libvcruntime:ehstate.obj
 0001:00011234       ?SetUnwindTryBlock@__FrameHandler3@@SAXPEA_KPEAU_xDISPATCHER_CONTEXT@@PEBU_s_FuncInfo@@H@Z 0000000180012234 f   libvcruntime:ehstate.obj
 0001:00011270       ?StateFromControlPc@__FrameHandler3@@SAHPEBU_s_FuncInfo@@PEAU_xDISPATCHER_CONTEXT@@@Z 0000000180012270 f   libvcruntime:ehstate.obj
 0001:00011278       ?StateFromIp@__FrameHandler3@@SAHPEBU_s_FuncInfo@@PEAU_xDISPATCHER_CONTEXT@@_K@Z 0000000180012278 f   libvcruntime:ehstate.obj
 0001:00011d64       ??$TypeMatchHelper@V__FrameHandler3@@@@YAHPEBU_s_HandlerType@@PEBU_s_CatchableType@@PEBU_s_ThrowInfo@@@Z 0000000180012d64 f i libvcruntime:frame.obj
 0001:00011ea8       ??$__InternalCxxFrameHandler@V__FrameHandler3@@@@YA?AW4_EXCEPTION_DISPOSITION@@PEAUEHExceptionRecord@@PEA_KPEAU_CONTEXT@@PEAU_xDISPATCHER_CONTEXT@@PEBU_s_FuncInfo@@H1E@Z 0000000180012ea8 f i libvcruntime:frame.obj
 0001:000120f0       ??0bad_exception@std@@QEAA@AEBV01@@Z 00000001800130f0 f i libvcruntime:frame.obj
 0001:0001212c       ??0bad_exception@std@@QEAA@XZ 000000018001312c f i libvcruntime:frame.obj
 0001:0001214c       ?CxxCallCatchBlock@__FrameHandler3@@SAPEAXPEAU_EXCEPTION_RECORD@@@Z 000000018001314c f   libvcruntime:frame.obj
 0001:000123c0       ?FrameUnwindToState@__FrameHandler3@@SAXPEA_KPEAU_xDISPATCHER_CONTEXT@@PEBU_s_FuncInfo@@H@Z 00000001800133c0 f   libvcruntime:frame.obj
 0001:0001254c       ?GetHandlerSearchState@__FrameHandler3@@SAHPEA_KPEAU_xDISPATCHER_CONTEXT@@PEBU_s_FuncInfo@@@Z 000000018001354c f i libvcruntime:frame.obj
 0001:0001275c       ?_CallMemberFunction1@@YAXQEAX00@Z 000000018001375c f i libvcruntime:frame.obj
 0001:00012768       ?_CallMemberFunction2@@YAXQEAX00H@Z 0000000180013768 f i libvcruntime:frame.obj
 0001:000128d4       __vcrt_FlsAlloc            00000001800138d4 f   libvcruntime:winapi_downlevel.obj
 0001:0001291c       __vcrt_FlsFree             000000018001391c f   libvcruntime:winapi_downlevel.obj
 0001:00012964       __vcrt_FlsGetValue         0000000180013964 f   libvcruntime:winapi_downlevel.obj
 0001:000129ac       __vcrt_FlsSetValue         00000001800139ac f   libvcruntime:winapi_downlevel.obj
 0001:00012a00       __vcrt_InitializeCriticalSectionEx 0000000180013a00 f   libvcruntime:winapi_downlevel.obj
 0001:00012a80       _CallSettingFrame          0000000180013a80 f   libvcruntime:handlers.obj
 0001:00012ad0       _CallSettingFrame_LookupContinuationIndex 0000000180013ad0 f   libvcruntime:handlers.obj
 0001:00012b00       _CallSettingFrame_NotifyContinuationAddr 0000000180013b00 f   libvcruntime:handlers.obj
 0001:00012b30       _CallSettingFrameEncoded   0000000180013b30 f   libvcruntime:handlers.obj
 0001:00012b78       free                       0000000180013b78 f   libucrt:free.obj
 0001:00012b8c       __acrt_call_reportfault    0000000180013b8c f   libucrt:invalid_parameter.obj
 0001:00012ce8       __acrt_initialize_invalid_parameter_handler 0000000180013ce8 f   libucrt:invalid_parameter.obj
 0001:00012cf0       _invalid_parameter         0000000180013cf0 f   libucrt:invalid_parameter.obj
 0001:00012da0       _invalid_parameter_noinfo  0000000180013da0 f   libucrt:invalid_parameter.obj
 0001:00012dc0       _invoke_watson             0000000180013dc0 f   libucrt:invalid_parameter.obj
 0001:00012e08       __acrt_errno_from_os_error 0000000180013e08 f   libucrt:errno.obj
 0001:00012e50       __acrt_errno_map_os_error  0000000180013e50 f   libucrt:errno.obj
 0001:00012ea0       __doserrno                 0000000180013ea0 f   libucrt:errno.obj
 0001:00012ec0       _errno                     0000000180013ec0 f   libucrt:errno.obj
 0001:00012ee0       calloc                     0000000180013ee0 f   libucrt:calloc.obj
 0001:00012ee8       malloc                     0000000180013ee8 f   libucrt:malloc.obj
 0001:00012ef0       _recalloc                  0000000180013ef0 f   libucrt:recalloc.obj
 0001:00012ef8       _recalloc_base             0000000180013ef8 f   libucrt:recalloc.obj
 0001:00012f90       _resetstkoflw              0000000180013f90 f   libucrt:resetstk.obj
 0001:000130bc       wcscat_s                   00000001800140bc f   libucrt:wcscat_s.obj
 0001:0001313c       wcscpy_s                   000000018001413c f   libucrt:wcscpy_s.obj
 0001:000131a4       wcsncpy_s                  00000001800141a4 f   libucrt:wcsncpy_s.obj
 0001:0001345c       ??$ensure_buffer_is_big_enough@D@formatting_buffer@__crt_stdio_output@@QEAA_N_K@Z 000000018001445c f i libucrt:output.obj
 0001:00013504       ??$ensure_buffer_is_big_enough@_W@formatting_buffer@__crt_stdio_output@@QEAA_N_K@Z 0000000180014504 f i libucrt:output.obj
 0001:000135b0       ??$is_wide_character_specifier@_W@__crt_stdio_output@@YA_N_K_WW4length_modifier@0@@Z 00000001800145b0 f i libucrt:output.obj
 0001:000135f0       ??$type_case_integer_parse_into_buffer@I@?$output_processor@_WV?$string_output_adapter@_W@__crt_stdio_output@@V?$format_validation_base@_WV?$string_output_adapter@_W@__crt_stdio_output@@@2@@__crt_stdio_output@@AEAAXII_N@Z 00000001800145f0 f i libucrt:output.obj
 0001:00013694       ??$type_case_integer_parse_into_buffer@_K@?$output_processor@_WV?$string_output_adapter@_W@__crt_stdio_output@@V?$format_validation_base@_WV?$string_output_adapter@_W@__crt_stdio_output@@@2@@__crt_stdio_output@@AEAAX_KI_N@Z 0000000180014694 f i libucrt:output.obj
 0001:00013738       ??$write_multiple_characters@V?$string_output_adapter@_W@__crt_stdio_output@@D@__crt_stdio_output@@YAXAEBV?$string_output_adapter@_W@0@DHQEAH@Z 0000000180014738 f i libucrt:output.obj
 0001:000137b4       ??0_LocaleUpdate@@QEAA@QEAU__crt_locale_pointers@@@Z 00000001800147b4 f i libucrt:output.obj
 0001:00013850       ?crop_zeroes@__crt_stdio_output@@YAXPEADQEAU__crt_locale_pointers@@@Z 0000000180014850 f i libucrt:output.obj
 0001:000138bc       ?parse_int_from_format_string@?$output_processor@_WV?$string_output_adapter@_W@__crt_stdio_output@@V?$format_validation_base@_WV?$string_output_adapter@_W@__crt_stdio_output@@@2@@__crt_stdio_output@@AEAA_NQEAH@Z 00000001800148bc f i libucrt:output.obj
 0001:00013960       ?process@?$output_processor@_WV?$string_output_adapter@_W@__crt_stdio_output@@V?$format_validation_base@_WV?$string_output_adapter@_W@__crt_stdio_output@@@2@@__crt_stdio_output@@QEAAHXZ 0000000180014960 f i libucrt:output.obj
 0001:00013be8       ?state_case_size@?$output_processor@_WV?$string_output_adapter@_W@__crt_stdio_output@@V?$format_validation_base@_WV?$string_output_adapter@_W@__crt_stdio_output@@@2@@__crt_stdio_output@@AEAA_NXZ 0000000180014be8 f i libucrt:output.obj
 0001:00013d80       ?state_case_type@?$output_processor@_WV?$string_output_adapter@_W@__crt_stdio_output@@V?$format_validation_base@_WV?$string_output_adapter@_W@__crt_stdio_output@@@2@@__crt_stdio_output@@AEAA_NXZ 0000000180014d80 f i libucrt:output.obj
 0001:0001404c       ?type_case_Z@?$output_processor@_WV?$string_output_adapter@_W@__crt_stdio_output@@V?$format_validation_base@_WV?$string_output_adapter@_W@__crt_stdio_output@@@2@@__crt_stdio_output@@AEAA_NXZ 000000018001504c f i libucrt:output.obj
 0001:000140c8       ?type_case_a@?$output_processor@_WV?$string_output_adapter@_W@__crt_stdio_output@@V?$format_validation_base@_WV?$string_output_adapter@_W@__crt_stdio_output@@@2@@__crt_stdio_output@@AEAA_NXZ 00000001800150c8 f i libucrt:output.obj
 0001:00014304       ?type_case_c_tchar@?$output_processor@_WV?$string_output_adapter@_W@__crt_stdio_output@@V?$format_validation_base@_WV?$string_output_adapter@_W@__crt_stdio_output@@@2@@__crt_stdio_output@@AEAA_N_W@Z 0000000180015304 f i libucrt:output.obj
 0001:000143ac       ?type_case_integer@?$output_processor@_WV?$string_output_adapter@_W@__crt_stdio_output@@V?$format_validation_base@_WV?$string_output_adapter@_W@__crt_stdio_output@@@2@@__crt_stdio_output@@AEAA_NI_N@Z 00000001800153ac f i libucrt:output.obj
 0001:00014578       ?type_case_n@?$output_processor@_WV?$string_output_adapter@_W@__crt_stdio_output@@V?$format_validation_base@_WV?$string_output_adapter@_W@__crt_stdio_output@@@2@@__crt_stdio_output@@AEAA_NXZ 0000000180015578 f i libucrt:output.obj
 0001:00014654       ?type_case_s@?$output_processor@_WV?$string_output_adapter@_W@__crt_stdio_output@@V?$format_validation_base@_WV?$string_output_adapter@_W@__crt_stdio_output@@@2@@__crt_stdio_output@@AEAA_NXZ 0000000180015654 f i libucrt:output.obj
 0001:0001471c       ?write_stored_string_tchar@?$output_processor@_WV?$string_output_adapter@_W@__crt_stdio_output@@V?$format_validation_base@_WV?$string_output_adapter@_W@__crt_stdio_output@@@2@@__crt_stdio_output@@AEAA_N_W@Z 000000018001571c f i libucrt:output.obj
 0001:00014808       ?write_string@?$string_output_adapter@_W@__crt_stdio_output@@QEBAXQEB_WHQEAHAEAV__crt_deferred_errno_cache@@@Z 0000000180015808 f i libucrt:output.obj
 0001:000148b0       __stdio_common_vswprintf_s 00000001800158b0 f   libucrt:output.obj
 0001:00014920       _seh_filter_dll            0000000180015920 f   libucrt:exception_filter.obj
 0001:00014934       _seh_filter_exe            0000000180015934 f   libucrt:exception_filter.obj
 0001:00014d24       __acrt_initialize_thread_local_exit_callback 0000000180015d24 f   libucrt:exit.obj
 0001:00014d2c       _cexit                     0000000180015d2c f   libucrt:exit.obj
 0001:00014d3c       _exit                      0000000180015d3c f   libucrt:exit.obj
 0001:00014d48       _is_c_termination_complete 0000000180015d48 f   libucrt:exit.obj
 0001:00014f14       __acrt_allocate_buffer_for_argv 0000000180015f14 f   libucrt:argv_parsing.obj
 0001:00014f74       _configure_narrow_argv     0000000180015f74 f   libucrt:argv_parsing.obj
 0001:000152ec       __dcrt_uninitialize_environments_nolock 00000001800162ec f   libucrt:environment_initialization.obj
 0001:00015324       _initialize_narrow_environment 0000000180016324 f   libucrt:environment_initialization.obj
 0001:0001566c       _crt_atexit                000000018001666c f   libucrt:onexit.obj
 0001:0001567c       _execute_onexit_table      000000018001667c f   libucrt:onexit.obj
 0001:000156b8       _initialize_onexit_table   00000001800166b8 f   libucrt:onexit.obj
 0001:000156e0       _register_onexit_function  00000001800166e0 f   libucrt:onexit.obj
 0001:00015760       __acrt_uninitialize_command_line 0000000180016760 f   libucrt:argv_data.obj
 0001:00015858       __acrt_initialize          0000000180016858 f   libucrt:initialization.obj
 0001:0001586c       __acrt_thread_attach       000000018001686c f   libucrt:initialization.obj
 0001:00015880       __acrt_thread_detach       0000000180016880 f   libucrt:initialization.obj
 0001:00015890       __acrt_uninitialize        0000000180016890 f   libucrt:initialization.obj
 0001:000158c8       __acrt_uninitialize_critical 00000001800168c8 f   libucrt:initialization.obj
 0001:000158d8       _initterm                  00000001800168d8 f   libucrt:initterm.obj
 0001:0001593c       _initterm_e                000000018001693c f   libucrt:initterm.obj
 0001:0001597c       __acrt_initialize_new_handler 000000018001697c f   libucrt:new_handler.obj
 0001:00015984       _callnewh                  0000000180016984 f   libucrt:new_handler.obj
 0001:000159b4       _query_new_handler         00000001800169b4 f   libucrt:new_handler.obj
 0001:000159e8       terminate                  00000001800169e8 f   libucrt:terminate.obj
 0001:00015a08       abort                      0000000180016a08 f   libucrt:abort.obj
 0001:00015a60       strcpy_s                   0000000180016a60 f   libucrt:strcpy_s.obj
 0001:00015ac0       ??$parse_integer@KV?$c_string_character_source@_W@__crt_strtox@@@__crt_strtox@@YAKQEAU__crt_locale_pointers@@V?$c_string_character_source@_W@0@H_N@Z 0000000180016ac0 f i libucrt:atox.obj
 0001:00016180       strncmp                    0000000180017180 f   libucrt:strncmp.obj
 0001:00016200       wcsncmp                    0000000180017200 f   libucrt:wcsncmp.obj
 0001:0001622c       _free_base                 000000018001722c f   libucrt:free_base.obj
 0001:000165e4       __acrt_freeptd             00000001800175e4 f   libucrt:per_thread_data.obj
 0001:00016628       __acrt_getptd              0000000180017628 f   libucrt:per_thread_data.obj
 0001:000166fc       __acrt_getptd_head         00000001800176fc f   libucrt:per_thread_data.obj
 0001:000167a4       __acrt_getptd_noexit       00000001800177a4 f   libucrt:per_thread_data.obj
 0001:00016870       __acrt_initialize_ptd      0000000180017870 f   libucrt:per_thread_data.obj
 0001:000168ac       __acrt_uninitialize_ptd    00000001800178ac f   libucrt:per_thread_data.obj
 0001:000168d0       _calloc_base               00000001800178d0 f   libucrt:calloc_base.obj
 0001:00016948       _malloc_base               0000000180017948 f   libucrt:malloc_base.obj
 0001:000169a8       _msize_base                00000001800179a8 f   libucrt:msize.obj
 0001:000169e4       _realloc_base              00000001800179e4 f   libucrt:realloc_base.obj
 0001:00016c38       __acrt_AppPolicyGetProcessTerminationMethodInternal 0000000180017c38 f   libucrt:winapi_thunks.obj
 0001:00016c88       __acrt_AreFileApisANSI     0000000180017c88 f   libucrt:winapi_thunks.obj
 0001:00016cc4       __acrt_FlsAlloc            0000000180017cc4 f   libucrt:winapi_thunks.obj
 0001:00016d0c       __acrt_FlsFree             0000000180017d0c f   libucrt:winapi_thunks.obj
 0001:00016d54       __acrt_FlsGetValue         0000000180017d54 f   libucrt:winapi_thunks.obj
 0001:00016d9c       __acrt_FlsSetValue         0000000180017d9c f   libucrt:winapi_thunks.obj
 0001:00016df0       __acrt_InitializeCriticalSectionEx 0000000180017df0 f   libucrt:winapi_thunks.obj
 0001:00016e54       __acrt_LCMapStringEx       0000000180017e54 f   libucrt:winapi_thunks.obj
 0001:00016f30       __acrt_LocaleNameToLCID    0000000180017f30 f   libucrt:winapi_thunks.obj
 0001:00016f80       __acrt_SetThreadStackGuarantee 0000000180017f80 f   libucrt:winapi_thunks.obj
 0001:00016fc4       __acrt_initialize_winapi_thunks 0000000180017fc4 f   libucrt:winapi_thunks.obj
 0001:00016ff8       __acrt_uninitialize_winapi_thunks 0000000180017ff8 f   libucrt:winapi_thunks.obj
 0001:0001703c       wcstol                     000000018001803c f   libucrt:strtox.obj
 0001:00017068       _mbtowc_l                  0000000180018068 f   libucrt:mbtowc.obj
 0001:000171e8       mbtowc                     00000001800181e8 f   libucrt:mbtowc.obj
 0001:000171f0       wcsnlen                    00000001800181f0 f   libucrt:strnlen.obj
 0001:000173c8       __acrt_update_locale_info  00000001800183c8 f   libucrt:locale_update.obj
 0001:000173fc       __acrt_update_multibyte_info 00000001800183fc f   libucrt:locale_update.obj
 0001:00017cc8       __acrt_fp_format           0000000180018cc8 f   libucrt:cvt.obj
 0001:00017fcc       _fileno                    0000000180018fcc f   libucrt:fileno.obj
 0001:00017ff4       __acrt_initialize_stdio    0000000180018ff4 f   libucrt:_file.obj
 0001:00018114       __acrt_uninitialize_stdio  0000000180019114 f   libucrt:_file.obj
 0001:00018170       _lock_file                 0000000180019170 f   libucrt:_file.obj
 0001:0001817c       _unlock_file               000000018001917c f   libucrt:_file.obj
 0001:00018188       _get_printf_count_output   0000000180019188 f   libucrt:printf_count_output.obj
 0001:00018210       __acrt_set_locale_changed  0000000180019210 f   libucrt:wsetlocale.obj
 0001:0001821c       __acrt_uninitialize_locale 000000018001921c f   libucrt:wsetlocale.obj
 0001:00018448       __acrt_initialize_lowio    0000000180019448 f   libucrt:ioinit.obj
 0001:00018484       __acrt_uninitialize_lowio  0000000180019484 f   libucrt:ioinit.obj
 0001:000184c4       __acrt_initialize_locks    00000001800194c4 f   libucrt:locks.obj
 0001:0001850c       __acrt_lock                000000018001950c f   libucrt:locks.obj
 0001:00018528       __acrt_uninitialize_locks  0000000180019528 f   libucrt:locks.obj
 0001:00018560       __acrt_unlock              0000000180019560 f   libucrt:locks.obj
 0001:0001857c       __acrt_get_process_end_policy 000000018001957c f   libucrt:win_policies.obj
 0001:000185cc       ??$__acrt_mbs_to_wcs_cp@U__crt_win32_buffer_internal_dynamic_resizing@@@@YAHQEBDAEAV?$__crt_win32_buffer@_WU__crt_win32_buffer_internal_dynamic_resizing@@@@I@Z 00000001800195cc f i libucrt:argv_wildcards.obj
 0001:00018744       ??$__acrt_wcs_to_mbs_cp@U__crt_win32_buffer_internal_dynamic_resizing@@@@YAHQEB_WAEAV?$__crt_win32_buffer@DU__crt_win32_buffer_internal_dynamic_resizing@@@@I@Z 0000000180019744 f i libucrt:argv_wildcards.obj
 0001:00018f74       __acrt_expand_narrow_argv_wildcards 0000000180019f74 f   libucrt:argv_wildcards.obj
 0001:00018f7c       ??$__acrt_wcs_to_mbs_cp@U__crt_win32_buffer_no_resizing@@@@YAHQEB_WAEAV?$__crt_win32_buffer@DU__crt_win32_buffer_no_resizing@@@@I@Z 0000000180019f7c f i libucrt:getmodulefilenamea.obj
 0001:00019090       __acrt_GetModuleFileNameA  000000018001a090 f   libucrt:getmodulefilenamea.obj
 0001:000198dc       __acrt_initialize_multibyte 000000018001a8dc f   libucrt:mbctype.obj
 0001:0001993c       __acrt_update_thread_multibyte_data 000000018001a93c f   libucrt:mbctype.obj
 0001:00019958       _setmbcp_nolock            000000018001a958 f   libucrt:mbctype.obj
 0001:00019c8c       _ismbblead                 000000018001ac8c f   libucrt:ismbbyte.obj
 0001:00019ca0       __acrt_initialize_command_line 000000018001aca0 f   libucrt:argv_data.obj
 0001:00019cc8       __acrt_MultiByteToWideChar 000000018001acc8 f   libucrt:multibytetowidechar.obj
 0001:00019d24       __acrt_WideCharToMultiByte 000000018001ad24 f   libucrt:widechartomultibyte.obj
 0001:00019dbc       __dcrt_get_narrow_environment_from_os 000000018001adbc f   libucrt:get_environment_from_os.obj
 0001:00019ec0       __acrt_initialize_heap     000000018001aec0 f   libucrt:heap_handle.obj
 0001:00019edc       __acrt_uninitialize_heap   000000018001aedc f   libucrt:heap_handle.obj
 0001:00019ee8       __acrt_execute_initializers 000000018001aee8 f   libucrt:shared_initialization.obj
 0001:00019f68       __acrt_execute_uninitializers 000000018001af68 f   libucrt:shared_initialization.obj
 0001:00019fec       __acrt_get_sigabrt_handler 000000018001afec f   libucrt:signal.obj
 0001:0001a01c       __acrt_initialize_signal_handlers 000000018001b01c f   libucrt:signal.obj
 0001:0001a03c       raise                      000000018001b03c f   libucrt:signal.obj
 0001:0001a2a8       __acrt_has_user_matherr    000000018001b2a8 f   libucrt:matherr.obj
 0001:0001a2c8       __acrt_initialize_user_matherr 000000018001b2c8 f   libucrt:matherr.obj
 0001:0001a2d0       __acrt_invoke_user_matherr 000000018001b2d0 f   libucrt:matherr.obj
 0001:0001a4dc       __acrt_stdio_flush_nolock  000000018001b4dc f   libucrt:fflush.obj
 0001:0001a558       _fflush_nolock             000000018001b558 f   libucrt:fflush.obj
 0001:0001a5a4       _flushall                  000000018001b5a4 f   libucrt:fflush.obj
 0001:0001a5ac       __pctype_func              000000018001b5ac f   libucrt:ctype.obj
 0001:0001a5dc       iswctype                   000000018001b5dc f   libucrt:iswctype.obj
 0001:0001a64c       __acrt_add_locale_ref      000000018001b64c f   libucrt:locale_refcounting.obj
 0001:0001a6d8       __acrt_free_locale         000000018001b6d8 f   libucrt:locale_refcounting.obj
 0001:0001a850       __acrt_locale_add_lc_time_reference 000000018001b850 f   libucrt:locale_refcounting.obj
 0001:0001a878       __acrt_locale_free_lc_time_if_unreferenced 000000018001b878 f   libucrt:locale_refcounting.obj
 0001:0001a8b0       __acrt_locale_release_lc_time_reference 000000018001b8b0 f   libucrt:locale_refcounting.obj
 0001:0001a8d8       __acrt_release_locale_ref  000000018001b8d8 f   libucrt:locale_refcounting.obj
 0001:0001a980       __acrt_update_thread_locale_data 000000018001b980 f   libucrt:locale_refcounting.obj
 0001:0001a9ec       _updatetlocinfoEx_nolock   000000018001b9ec f   libucrt:locale_refcounting.obj
 0001:0001aa54       _query_new_mode            000000018001ba54 f   libucrt:new_mode.obj
 0001:0001aa5c       __acrt_DownlevelLocaleNameToLCID 000000018001ba5c f   libucrt:lcidtoname_downlevel.obj
 0001:0001ab0c       _isleadbyte_l              000000018001bb0c f i libucrt:_wctype.obj
 0001:0001ab58       ?__mbrtowc_utf8@__crt_mbstring@@YA_KPEA_WPEBD_KPEAU_Mbstatet@@@Z 000000018001bb58 f   libucrt:mbrtowc.obj
 0001:0001ab94       ?__mbsrtowcs_utf8@__crt_mbstring@@YA_KPEA_WPEAPEBD_KPEAU_Mbstatet@@@Z 000000018001bb94 f   libucrt:mbrtowc.obj
 0001:0001ad0c       __acrt_fp_strflt_to_string 000000018001bd0c f   libucrt:_fptostr.obj
 0001:0001adf0       ?divide@__crt_strtox@@YA_KAEAUbig_integer@1@AEBU21@@Z 000000018001bdf0 f i libucrt:cfout.obj
 0001:0001b21c       __acrt_fltout              000000018001c21c f   libucrt:cfout.obj
 0001:0001c450       _fcloseall                 000000018001d450 f   libucrt:closeall.obj
 0001:0001c504       __acrt_stdio_free_buffer_nolock 000000018001d504 f   libucrt:_freebuf.obj
 0001:0001c544       _isatty                    000000018001d544 f   libucrt:isatty.obj
 0001:0001c5a4       __acrt_locale_free_monetary 000000018001d5a4 f   libucrt:initmon.obj
 0001:0001c6b0       __acrt_locale_free_numeric 000000018001d6b0 f   libucrt:initnum.obj
 0001:0001c774       __acrt_locale_free_time    000000018001d774 f   libucrt:inittime.obj
 0001:0001c87c       __acrt_GetStringTypeA      000000018001d87c f   libucrt:getstringtypea.obj
 0001:0001ca0c       __acrt_lowio_create_handle_array 000000018001da0c f   libucrt:osfinfo.obj
 0001:0001cab4       __acrt_lowio_destroy_handle_array 000000018001dab4 f   libucrt:osfinfo.obj
 0001:0001cb04       __acrt_lowio_ensure_fh_exists 000000018001db04 f   libucrt:osfinfo.obj
 0001:0001cbac       __acrt_lowio_lock_fh       000000018001dbac f   libucrt:osfinfo.obj
 0001:0001cbd4       __acrt_lowio_unlock_fh     000000018001dbd4 f   libucrt:osfinfo.obj
 0001:0001cbfc       _free_osfhnd               000000018001dbfc f   libucrt:osfinfo.obj
 0001:0001ccb8       _get_osfhandle             000000018001dcb8 f   libucrt:osfinfo.obj
 0001:0001cd30       qsort                      000000018001dd30 f   libucrt:qsort.obj
 0001:0001d0e0       strncpy_s                  000000018001e0e0 f   libucrt:strncpy_s.obj
 0001:0001d260       strpbrk                    000000018001e260 f   libucrt:strpbrk.obj
 0001:0001d640       _mbsdec                    000000018001e640 f   libucrt:mbsdec.obj
 0001:0001d648       _mbsdec_l                  000000018001e648 f   libucrt:mbsdec.obj
 0001:0001d9f4       __acrt_LCMapStringA        000000018001e9f4 f   libucrt:lcmapstringa.obj
 0001:0001db30       _commit                    000000018001eb30 f   libucrt:commit.obj
 0001:0001e424       _write                     000000018001f424 f   libucrt:write.obj
 0001:0001e510       _write_nolock              000000018001f510 f   libucrt:write.obj
 0001:0001e7ec       __acrt_GetStringTypeW      000000018001f7ec f   libucrt:getstringtypew.obj
 0001:0001e7f4       __ascii_wcsnicmp           000000018001f7f4 f   libucrt:wcsnicmp.obj
 0001:0001e840       ?__mbrtoc32_utf8@__crt_mbstring@@YA_KPEA_UPEBD_KPEAU_Mbstatet@@@Z 000000018001f840 f   libucrt:mbrtoc32.obj
 0001:0001ea1c       fegetenv                   000000018001fa1c f   libucrt:fegetenv.obj
 0001:0001ea3c       fesetenv                   000000018001fa3c f   libucrt:fesetenv.obj
 0001:0001ea88       feholdexcept               000000018001fa88 f   libucrt:feholdexcept.obj
 0001:0001ead8       ceil                       000000018001fad8 f   libucrt:ceil.obj
 0001:0001eba0       log10                      000000018001fba0 f   libucrt:log10.obj
 0001:0001f1e8       _lseeki64_nolock           00000001800201e8 f   libucrt:lseek.obj
 0001:0001f1f0       _fclose_nolock             00000001800201f0 f   libucrt:fclose.obj
 0001:0001f274       fclose                     0000000180020274 f   libucrt:fclose.obj
 0001:0001f2d8       _query_app_type            00000001800202d8 f   libucrt:report_runtime_error.obj
 0001:0001f2e0       __strncnt                  00000001800202e0 f   libucrt:strncnt.obj
 0001:0001f2f8       _putwch_nolock             00000001800202f8 f   libucrt:putwch.obj
 0001:0001f334       __acrt_fenv_get_control    0000000180020334 f   libucrt:_fenvutils.obj
 0001:0001f428       __acrt_fenv_get_status     0000000180020428 f   libucrt:_fenvutils.obj
 0001:0001f47c       __acrt_fenv_set_control    000000018002047c f   libucrt:_fenvutils.obj
 0001:0001f5c4       __acrt_fenv_set_status     00000001800205c4 f   libucrt:_fenvutils.obj
 0001:0001f648       _clearfp                   0000000180020648 f   libucrt:ieee.obj
 0001:0001f7dc       _handle_error              00000001800207dc f   libucrt:libm_error.obj
 0001:0001f904       _handle_nan                0000000180020904 f   libucrt:libm_error.obj
 0001:0001f920       __acrt_initialize_fma3     0000000180020920 f   libucrt:fma3_available.obj
 0001:0001f990       _log10_special             0000000180020990 f   libucrt:log_special.obj
 0001:0001fabc       _close                     0000000180020abc f   libucrt:close.obj
 0001:0001fb60       _close_nolock              0000000180020b60 f   libucrt:close.obj
 0001:0001fc20       ?__acrt_stdio_free_stream@@YAXV__crt_stdio_stream@@@Z 0000000180020c20 f   libucrt:stream.obj
 0001:0001fc3c       __dcrt_lowio_ensure_console_output_initialized 0000000180020c3c f   libucrt:initcon.obj
 0001:0001fc90       __dcrt_terminate_console_output 0000000180020c90 f   libucrt:initcon.obj
 0001:0001fcac       __dcrt_write_console       0000000180020cac f   libucrt:initcon.obj
 0001:0001fd80       _get_fpsr                  0000000180020d80 f   libucrt:fpsr.obj
 0001:0001fd90       _set_fpsr                  0000000180020d90 f   libucrt:fpsr.obj
 0001:0001fd9a       _fclrf                     0000000180020d9a f   libucrt:fpsr.obj
 0001:0001fdae       _frnd                      0000000180020dae f   libucrt:fpsr.obj
 0001:0001fdd0       _raise_exc                 0000000180020dd0 f   libucrt:fpexcept.obj
 0001:0001fdf8       _raise_exc_ex              0000000180020df8 f   libucrt:fpexcept.obj
 0001:00020108       _set_errno_from_matherr    0000000180021108 f   libucrt:fpexcept.obj
 0001:00020138       _clrfp                     0000000180021138 f   libucrt:fpctrl.obj
 0001:00020158       _ctrlfp                    0000000180021158 f   libucrt:fpctrl.obj
 0001:000201d4       _set_statfp                00000001800211d4 f   libucrt:fpctrl.obj
 0001:000201f4       _statfp                    00000001800211f4 f   libucrt:fpctrl.obj
 0001:00020205       IsProcessorFeaturePresent  0000000180021205 f   kernel32:KERNEL32.dll
 0001:00020210       _FindPESection             0000000180021210 f   LIBCMT:pesect.obj
 0001:00020260       _IsNonwritableInCurrentImage 0000000180021260 f   LIBCMT:pesect.obj
 0001:000202b0       _ValidateImageBase         00000001800212b0 f   LIBCMT:pesect.obj
 0001:000202e0       strrchr                    00000001800212e0 f   libvcruntime:strrchr.obj
 0001:00020420       _guard_dispatch_icall_nop  0000000180021420 f   LIBCMT:guard_dispatch.obj
 0002:00000000       __imp_RegQueryValueExW     0000000180022000     advapi32:ADVAPI32.dll
 0002:00000008       __imp_RegSetValueExW       0000000180022008     advapi32:ADVAPI32.dll
 0002:00000010       __imp_RegQueryInfoKeyW     0000000180022010     advapi32:ADVAPI32.dll
 0002:00000018       __imp_RegOpenKeyExW        0000000180022018     advapi32:ADVAPI32.dll
 0002:00000020       __imp_RegEnumKeyExW        0000000180022020     advapi32:ADVAPI32.dll
 0002:00000028       __imp_RegDeleteValueW      0000000180022028     advapi32:ADVAPI32.dll
 0002:00000030       __imp_RegDeleteKeyW        0000000180022030     advapi32:ADVAPI32.dll
 0002:00000038       __imp_RegCreateKeyExW      0000000180022038     advapi32:ADVAPI32.dll
 0002:00000040       __imp_RegCloseKey          0000000180022040     advapi32:ADVAPI32.dll
 0002:00000048       \177ADVAPI32_NULL_THUNK_DATA 0000000180022048     advapi32:ADVAPI32.dll
 0002:00000050       __imp_GetObjectW           0000000180022050     gdi32:GDI32.dll
 0002:00000058       __imp_SelectObject         0000000180022058     gdi32:GDI32.dll
 0002:00000060       __imp_DeleteObject         0000000180022060     gdi32:GDI32.dll
 0002:00000068       __imp_CreateCompatibleDC   0000000180022068     gdi32:GDI32.dll
 0002:00000070       __imp_BitBlt               0000000180022070     gdi32:GDI32.dll
 0002:00000078       __imp_SetWindowOrgEx       0000000180022078     gdi32:GDI32.dll
 0002:00000080       __imp_SetWindowExtEx       0000000180022080     gdi32:GDI32.dll
 0002:00000088       __imp_SetViewportOrgEx     0000000180022088     gdi32:GDI32.dll
 0002:00000090       __imp_LPtoDP               0000000180022090     gdi32:GDI32.dll
 0002:00000098       __imp_SetMapMode           0000000180022098     gdi32:GDI32.dll
 0002:000000a0       __imp_SaveDC               00000001800220a0     gdi32:GDI32.dll
 0002:000000a8       __imp_RestoreDC            00000001800220a8     gdi32:GDI32.dll
 0002:000000b0       __imp_GetDeviceCaps        00000001800220b0     gdi32:GDI32.dll
 0002:000000b8       __imp_DeleteMetaFile       00000001800220b8     gdi32:GDI32.dll
 0002:000000c0       __imp_DeleteDC             00000001800220c0     gdi32:GDI32.dll
 0002:000000c8       __imp_CreateRectRgnIndirect 00000001800220c8     gdi32:GDI32.dll
 0002:000000d0       __imp_CreateMetaFileW      00000001800220d0     gdi32:GDI32.dll
 0002:000000d8       __imp_CreateDCW            00000001800220d8     gdi32:GDI32.dll
 0002:000000e0       __imp_CloseMetaFile        00000001800220e0     gdi32:GDI32.dll
 0002:000000e8       \177GDI32_NULL_THUNK_DATA  00000001800220e8     gdi32:GDI32.dll
 0002:000000f0       __imp_CloseHandle          00000001800220f0     kernel32:KERNEL32.dll
 0002:000000f8       __imp_SetEvent             00000001800220f8     kernel32:KERNEL32.dll
 0002:00000100       __imp_CreateMutexW         0000000180022100     kernel32:KERNEL32.dll
 0002:00000108       __imp_CreateEventW         0000000180022108     kernel32:KERNEL32.dll
 0002:00000110       __imp_GetCurrentProcessId  0000000180022110     kernel32:KERNEL32.dll
 0002:00000118       __imp_WriteConsoleW        0000000180022118     kernel32:KERNEL32.dll
 0002:00000120       __imp_CreateFileW          0000000180022120     kernel32:KERNEL32.dll
 0002:00000128       __imp_GetConsoleMode       0000000180022128     kernel32:KERNEL32.dll
 0002:00000130       __imp_GetConsoleCP         0000000180022130     kernel32:KERNEL32.dll
 0002:00000138       __imp_WriteFile            0000000180022138     kernel32:KERNEL32.dll
 0002:00000140       __imp_FlushFileBuffers     0000000180022140     kernel32:KERNEL32.dll
 0002:00000148       __imp_SetStdHandle         0000000180022148     kernel32:KERNEL32.dll
 0002:00000150       __imp_GetStringTypeW       0000000180022150     kernel32:KERNEL32.dll
 0002:00000158       __imp_SetFilePointerEx     0000000180022158     kernel32:KERNEL32.dll
 0002:00000160       __imp_FreeEnvironmentStringsW 0000000180022160     kernel32:KERNEL32.dll
 0002:00000168       __imp_lstrcmpiW            0000000180022168     kernel32:KERNEL32.dll
 0002:00000170       __imp_GetCommandLineW      0000000180022170     kernel32:KERNEL32.dll
 0002:00000178       __imp_GetCommandLineA      0000000180022178     kernel32:KERNEL32.dll
 0002:00000180       __imp_GetCPInfo            0000000180022180     kernel32:KERNEL32.dll
 0002:00000188       __imp_GetOEMCP             0000000180022188     kernel32:KERNEL32.dll
 0002:00000190       __imp_GetACP               0000000180022190     kernel32:KERNEL32.dll
 0002:00000198       __imp_IsValidCodePage      0000000180022198     kernel32:KERNEL32.dll
 0002:000001a0       __imp_FindNextFileW        00000001800221a0     kernel32:KERNEL32.dll
 0002:000001a8       __imp_FindFirstFileExW     00000001800221a8     kernel32:KERNEL32.dll
 0002:000001b0       __imp_FindClose            00000001800221b0     kernel32:KERNEL32.dll
 0002:000001b8       __imp_GetFileType          00000001800221b8     kernel32:KERNEL32.dll
 0002:000001c0       __imp_GetStdHandle         00000001800221c0     kernel32:KERNEL32.dll
 0002:000001c8       __imp_LCMapStringW         00000001800221c8     kernel32:KERNEL32.dll
 0002:000001d0       __imp_HeapReAlloc          00000001800221d0     kernel32:KERNEL32.dll
 0002:000001d8       __imp_HeapSize             00000001800221d8     kernel32:KERNEL32.dll
 0002:000001e0       __imp_MulDiv               00000001800221e0     kernel32:KERNEL32.dll
 0002:000001e8       __imp_GlobalLock           00000001800221e8     kernel32:KERNEL32.dll
 0002:000001f0       __imp_GlobalUnlock         00000001800221f0     kernel32:KERNEL32.dll
 0002:000001f8       __imp_GlobalAlloc          00000001800221f8     kernel32:KERNEL32.dll
 0002:00000200       __imp_FindResourceW        0000000180022200     kernel32:KERNEL32.dll
 0002:00000208       __imp_SizeofResource       0000000180022208     kernel32:KERNEL32.dll
 0002:00000210       __imp_LoadResource         0000000180022210     kernel32:KERNEL32.dll
 0002:00000218       __imp_LoadLibraryExW       0000000180022218     kernel32:KERNEL32.dll
 0002:00000220       __imp_GetProcAddress       0000000180022220     kernel32:KERNEL32.dll
 0002:00000228       __imp_GetModuleHandleW     0000000180022228     kernel32:KERNEL32.dll
 0002:00000230       __imp_GetModuleFileNameW   0000000180022230     kernel32:KERNEL32.dll
 0002:00000238       __imp_FreeLibrary          0000000180022238     kernel32:KERNEL32.dll
 0002:00000240       __imp_DisableThreadLibraryCalls 0000000180022240     kernel32:KERNEL32.dll
 0002:00000248       __imp_GetCurrentThreadId   0000000180022248     kernel32:KERNEL32.dll
 0002:00000250       __imp_Sleep                0000000180022250     kernel32:KERNEL32.dll
 0002:00000258       __imp_WaitForSingleObject  0000000180022258     kernel32:KERNEL32.dll
 0002:00000260       __imp_ReleaseMutex         0000000180022260     kernel32:KERNEL32.dll
 0002:00000268       __imp_ResetEvent           0000000180022268     kernel32:KERNEL32.dll
 0002:00000270       __imp_EnterCriticalSection 0000000180022270     kernel32:KERNEL32.dll
 0002:00000278       __imp_LeaveCriticalSection 0000000180022278     kernel32:KERNEL32.dll
 0002:00000280       __imp_SetLastError         0000000180022280     kernel32:KERNEL32.dll
 0002:00000288       __imp_EncodePointer        0000000180022288     kernel32:KERNEL32.dll
 0002:00000290       __imp_DeleteCriticalSection 0000000180022290     kernel32:KERNEL32.dll
 0002:00000298       __imp_InitializeCriticalSectionEx 0000000180022298     kernel32:KERNEL32.dll
 0002:000002a0       __imp_GetLastError         00000001800222a0     kernel32:KERNEL32.dll
 0002:000002a8       __imp_RaiseException       00000001800222a8     kernel32:KERNEL32.dll
 0002:000002b0       __imp_DecodePointer        00000001800222b0     kernel32:KERNEL32.dll
 0002:000002b8       __imp_WideCharToMultiByte  00000001800222b8     kernel32:KERNEL32.dll
 0002:000002c0       __imp_GetEnvironmentStringsW 00000001800222c0     kernel32:KERNEL32.dll
 0002:000002c8       __imp_MultiByteToWideChar  00000001800222c8     kernel32:KERNEL32.dll
 0002:000002d0       __imp_GetModuleHandleExW   00000001800222d0     kernel32:KERNEL32.dll
 0002:000002d8       __imp_ExitProcess          00000001800222d8     kernel32:KERNEL32.dll
 0002:000002e0       __imp_VirtualQuery         00000001800222e0     kernel32:KERNEL32.dll
 0002:000002e8       __imp_VirtualProtect       00000001800222e8     kernel32:KERNEL32.dll
 0002:000002f0       __imp_GetSystemInfo        00000001800222f0     kernel32:KERNEL32.dll
 0002:000002f8       __imp_TlsFree              00000001800222f8     kernel32:KERNEL32.dll
 0002:00000300       __imp_TlsSetValue          0000000180022300     kernel32:KERNEL32.dll
 0002:00000308       __imp_TlsGetValue          0000000180022308     kernel32:KERNEL32.dll
 0002:00000310       __imp_TlsAlloc             0000000180022310     kernel32:KERNEL32.dll
 0002:00000318       __imp_RtlPcToFileHeader    0000000180022318     kernel32:KERNEL32.dll
 0002:00000320       __imp_InterlockedFlushSList 0000000180022320     kernel32:KERNEL32.dll
 0002:00000328       __imp_RtlUnwindEx          0000000180022328     kernel32:KERNEL32.dll
 0002:00000330       __imp_LoadLibraryExA       0000000180022330     kernel32:KERNEL32.dll
 0002:00000338       __imp_VirtualFree          0000000180022338     kernel32:KERNEL32.dll
 0002:00000340       __imp_VirtualAlloc         0000000180022340     kernel32:KERNEL32.dll
 0002:00000348       __imp_FlushInstructionCache 0000000180022348     kernel32:KERNEL32.dll
 0002:00000350       __imp_InterlockedPushEntrySList 0000000180022350     kernel32:KERNEL32.dll
 0002:00000358       __imp_InterlockedPopEntrySList 0000000180022358     kernel32:KERNEL32.dll
 0002:00000360       __imp_GetProcessHeap       0000000180022360     kernel32:KERNEL32.dll
 0002:00000368       __imp_HeapFree             0000000180022368     kernel32:KERNEL32.dll
 0002:00000370       __imp_HeapAlloc            0000000180022370     kernel32:KERNEL32.dll
 0002:00000378       __imp_OutputDebugStringW   0000000180022378     kernel32:KERNEL32.dll
 0002:00000380       __imp_InitializeSListHead  0000000180022380     kernel32:KERNEL32.dll
 0002:00000388       __imp_GetSystemTimeAsFileTime 0000000180022388     kernel32:KERNEL32.dll
 0002:00000390       __imp_QueryPerformanceCounter 0000000180022390     kernel32:KERNEL32.dll
 0002:00000398       __imp_GetStartupInfoW      0000000180022398     kernel32:KERNEL32.dll
 0002:000003a0       __imp_IsDebuggerPresent    00000001800223a0     kernel32:KERNEL32.dll
 0002:000003a8       __imp_IsProcessorFeaturePresent 00000001800223a8     kernel32:KERNEL32.dll
 0002:000003b0       __imp_TerminateProcess     00000001800223b0     kernel32:KERNEL32.dll
 0002:000003b8       __imp_GetCurrentProcess    00000001800223b8     kernel32:KERNEL32.dll
 0002:000003c0       __imp_InitializeCriticalSectionAndSpinCount 00000001800223c0     kernel32:KERNEL32.dll
 0002:000003c8       __imp_WaitForSingleObjectEx 00000001800223c8     kernel32:KERNEL32.dll
 0002:000003d0       __imp_RtlCaptureContext    00000001800223d0     kernel32:KERNEL32.dll
 0002:000003d8       __imp_RtlLookupFunctionEntry 00000001800223d8     kernel32:KERNEL32.dll
 0002:000003e0       __imp_RtlVirtualUnwind     00000001800223e0     kernel32:KERNEL32.dll
 0002:000003e8       __imp_UnhandledExceptionFilter 00000001800223e8     kernel32:KERNEL32.dll
 0002:000003f0       __imp_SetUnhandledExceptionFilter 00000001800223f0     kernel32:KERNEL32.dll
 0002:000003f8       \177KERNEL32_NULL_THUNK_DATA 00000001800223f8     kernel32:KERNEL32.dll
 0002:00000400       __imp_OleCreatePropertyFrame 0000000180022400     oleaut32:OLEAUT32.dll
 0002:00000408       __imp_UnRegisterTypeLib    0000000180022408     oleaut32:OLEAUT32.dll
 0002:00000410       __imp_RegisterTypeLib      0000000180022410     oleaut32:OLEAUT32.dll
 0002:00000418       __imp_LoadRegTypeLib       0000000180022418     oleaut32:OLEAUT32.dll
 0002:00000420       __imp_LoadTypeLib          0000000180022420     oleaut32:OLEAUT32.dll
 0002:00000428       __imp_VarUI4FromStr        0000000180022428     oleaut32:OLEAUT32.dll
 0002:00000430       __imp_VariantInit          0000000180022430     oleaut32:OLEAUT32.dll
 0002:00000438       __imp_SysAllocStringByteLen 0000000180022438     oleaut32:OLEAUT32.dll
 0002:00000440       __imp_SysStringByteLen     0000000180022440     oleaut32:OLEAUT32.dll
 0002:00000448       __imp_VariantChangeType    0000000180022448     oleaut32:OLEAUT32.dll
 0002:00000450       __imp_VariantClear         0000000180022450     oleaut32:OLEAUT32.dll
 0002:00000458       __imp_SysStringLen         0000000180022458     oleaut32:OLEAUT32.dll
 0002:00000460       __imp_SysFreeString        0000000180022460     oleaut32:OLEAUT32.dll
 0002:00000468       __imp_SysAllocStringLen    0000000180022468     oleaut32:OLEAUT32.dll
 0002:00000470       __imp_SysAllocString       0000000180022470     oleaut32:OLEAUT32.dll
 0002:00000478       \177OLEAUT32_NULL_THUNK_DATA 0000000180022478     oleaut32:OLEAUT32.dll
 0002:00000480       __imp_UnregisterClassW     0000000180022480     user32:USER32.dll
 0002:00000488       __imp_PostMessageW         0000000180022488     user32:USER32.dll
 0002:00000490       __imp_DefWindowProcW       0000000180022490     user32:USER32.dll
 0002:00000498       __imp_CallWindowProcW      0000000180022498     user32:USER32.dll
 0002:000004a0       __imp_RegisterClassExW     00000001800224a0     user32:USER32.dll
 0002:000004a8       __imp_GetClassInfoExW      00000001800224a8     user32:USER32.dll
 0002:000004b0       __imp_CreateWindowExW      00000001800224b0     user32:USER32.dll
 0002:000004b8       __imp_IsWindow             00000001800224b8     user32:USER32.dll
 0002:000004c0       __imp_IsChild              00000001800224c0     user32:USER32.dll
 0002:000004c8       __imp_DestroyWindow        00000001800224c8     user32:USER32.dll
 0002:000004d0       __imp_ShowWindow           00000001800224d0     user32:USER32.dll
 0002:000004d8       __imp_SetWindowPos         00000001800224d8     user32:USER32.dll
 0002:000004e0       __imp_CharNextW            00000001800224e0     user32:USER32.dll
 0002:000004e8       __imp_SetFocus             00000001800224e8     user32:USER32.dll
 0002:000004f0       __imp_LoadBitmapW          00000001800224f0     user32:USER32.dll
 0002:000004f8       __imp_RegisterClassW       00000001800224f8     user32:USER32.dll
 0002:00000500       __imp_PeekMessageW         0000000180022500     user32:USER32.dll
 0002:00000508       __imp_LoadCursorW          0000000180022508     user32:USER32.dll
 0002:00000510       __imp_GetParent            0000000180022510     user32:USER32.dll
 0002:00000518       __imp_SetWindowLongPtrW    0000000180022518     user32:USER32.dll
 0002:00000520       __imp_GetWindowLongPtrW    0000000180022520     user32:USER32.dll
 0002:00000528       __imp_PtInRect             0000000180022528     user32:USER32.dll
 0002:00000530       __imp_EqualRect            0000000180022530     user32:USER32.dll
 0002:00000538       __imp_OffsetRect           0000000180022538     user32:USER32.dll
 0002:00000540       __imp_UnionRect            0000000180022540     user32:USER32.dll
 0002:00000548       __imp_IntersectRect        0000000180022548     user32:USER32.dll
 0002:00000550       __imp_GetClientRect        0000000180022550     user32:USER32.dll
 0002:00000558       __imp_InvalidateRect       0000000180022558     user32:USER32.dll
 0002:00000560       __imp_SetWindowRgn         0000000180022560     user32:USER32.dll
 0002:00000568       __imp_EndPaint             0000000180022568     user32:USER32.dll
 0002:00000570       __imp_BeginPaint           0000000180022570     user32:USER32.dll
 0002:00000578       __imp_ReleaseDC            0000000180022578     user32:USER32.dll
 0002:00000580       __imp_GetDC                0000000180022580     user32:USER32.dll
 0002:00000588       __imp_GetKeyState          0000000180022588     user32:USER32.dll
 0002:00000590       __imp_GetFocus             0000000180022590     user32:USER32.dll
 0002:00000598       \177USER32_NULL_THUNK_DATA 0000000180022598     user32:USER32.dll
 0002:000005a0       __imp_CoCreateInstance     00000001800225a0     ole32:ole32.dll
 0002:000005a8       __imp_StringFromGUID2      00000001800225a8     ole32:ole32.dll
 0002:000005b0       __imp_CoTaskMemAlloc       00000001800225b0     ole32:ole32.dll
 0002:000005b8       __imp_CoTaskMemFree        00000001800225b8     ole32:ole32.dll
 0002:000005c0       __imp_ReadClassStm         00000001800225c0     ole32:ole32.dll
 0002:000005c8       __imp_WriteClassStm        00000001800225c8     ole32:ole32.dll
 0002:000005d0       __imp_CreateDataAdviseHolder 00000001800225d0     ole32:ole32.dll
 0002:000005d8       __imp_OleSaveToStream      00000001800225d8     ole32:ole32.dll
 0002:000005e0       __imp_CreateOleAdviseHolder 00000001800225e0     ole32:ole32.dll
 0002:000005e8       __imp_OleRegGetUserType    00000001800225e8     ole32:ole32.dll
 0002:000005f0       __imp_OleRegGetMiscStatus  00000001800225f0     ole32:ole32.dll
 0002:000005f8       __imp_OleRegEnumVerbs      00000001800225f8     ole32:ole32.dll
 0002:00000600       __imp_CLSIDFromProgID      0000000180022600     ole32:ole32.dll
 0002:00000608       __imp_CoTaskMemRealloc     0000000180022608     ole32:ole32.dll
 0002:00000610       \177ole32_NULL_THUNK_DATA  0000000180022610     ole32:ole32.dll
 0002:00000618       __guard_check_icall_fptr   0000000180022618     LIBCMT:guard_support.obj
 0002:00000620       __guard_dispatch_icall_fptr 0000000180022620     LIBCMT:guard_support.obj
 0002:00000628       __xc_a                     0000000180022628     LIBCMT:initializers.obj
 0002:00000658       __xc_z                     0000000180022658     LIBCMT:initializers.obj
 0002:00000660       __xi_a                     0000000180022660     LIBCMT:initializers.obj
 0002:00000670       __acrt_stdio_initializer   0000000180022670     libucrt:stdio_initializer.obj
 0002:00000678       __acrt_multibyte_initializer 0000000180022678     libucrt:multibyte_initializer.obj
 0002:00000680       __acrt_tran_fma3_initializer 0000000180022680     libucrt:fma3_initializer.obj
 0002:00000688       __xi_z                     0000000180022688     LIBCMT:initializers.obj
 0002:00000690       __xl_a                     0000000180022690     LIBCMT:tlssup.obj
 0002:00000698       __xl_z                     0000000180022698     LIBCMT:tlssup.obj
 0002:000006a0       __xp_a                     00000001800226a0     LIBCMT:initializers.obj
 0002:000006a8       __acrt_locale_terminator   00000001800226a8     libucrt:locale_initializer.obj
 0002:000006b0       __dcrt_console_output_terminator 00000001800226b0     libucrt:console_output_initializer.obj
 0002:000006b8       __acrt_stdio_terminator    00000001800226b8     libucrt:stdio_initializer.obj
 0002:000006c0       __xp_z                     00000001800226c0     LIBCMT:initializers.obj
 0002:000006c8       __xt_a                     00000001800226c8     LIBCMT:initializers.obj
 0002:000006d0       __xt_z                     00000001800226d0     LIBCMT:initializers.obj
 0002:000006e0       ??_C@_13HADIAKP@?$AAS@     00000001800226e0     OposVariant.obj
 0002:000006e4       ??_C@_13LHMFKAAD@?$AAM@    00000001800226e4     OposVariant.obj
 0002:000006e8       ??_C@_13MKMNOPIJ@?$AAD@    00000001800226e8     OposVariant.obj
 0002:000006ec       ??_C@_13OPKGLAFF@?$AAB@    00000001800226ec     OposVariant.obj
 0002:000006f0       ??_C@_17LLMMEOJD@?$AAV?$AAa?$AAl@ 00000001800226f0     OposVariant.obj
 0002:000006f8       ??_C@_1BI@JFAIJMHL@?$AAF?$AAo?$AAr?$AAc?$AAe?$AAR?$AAe?$AAm?$AAo?$AAv?$AAe@ 00000001800226f8     OposVariant.obj
 0002:00000710       ??_C@_1BC@GCKHIPE@?$AAN?$AAo?$AAR?$AAe?$AAm?$AAo?$AAv?$AAe@ 0000000180022710     OposVariant.obj
 0002:00000728       ??_C@_1O@JDLOHAN@?$AAD?$AAe?$AAl?$AAe?$AAt?$AAe@ 0000000180022728     OposVariant.obj
 0002:00000738       ??_C@_11LOCGONAA@@         0000000180022738     OposVariant.obj
 0002:00000740       _GUID_00000112_0000_0000_c000_000000000046 0000000180022740     SmartCardRW.obj
 0002:00000750       ??_7?$CComObjectCached@VCComClassFactory@ATL@@@ATL@@6B@ 0000000180022750     SmartCardRW.obj
 0002:00000780       _GUID_3af24292_0c96_11ce_a0cf_00aa00600ab8 0000000180022780     SmartCardRW.obj
 0002:00000790       _GUID_00000127_0000_0000_c000_000000000046 0000000180022790     SmartCardRW.obj
 0002:000007a0       _GUID_0000010d_0000_0000_c000_000000000046 00000001800227a0     SmartCardRW.obj
 0002:000007b0       ??_C@_1M@PPPPCDEP@?$AAA?$AAP?$AAP?$AAI?$AAD@ 00000001800227b0     SmartCardRW.obj
 0002:000007c0       ??_C@_1BK@BIGILECK@?$AAA?$AAd?$AAv?$AAa?$AAp?$AAi?$AA3?$AA2?$AA?4?$AAd?$AAl?$AAl@ 00000001800227c0     SmartCardRW.obj
 0002:000007e0       ??_C@_0BI@MNCFCPFK@RegCreateKeyTransactedW@ 00000001800227e0     SmartCardRW.obj
 0002:000007f8       _GUID_b196b287_bab4_101a_b69c_00aa00341d07 00000001800227f8     SmartCardRW.obj
 0002:00000808       _GUID_b196b285_bab4_101a_b69c_00aa00341d07 0000000180022808     SmartCardRW.obj
 0002:00000818       ??_7?$CComContainedObject@VCOPOSSmartCardRW@@@ATL@@6B?$IDispatchImpl@UIOPOSSmartCardRW@@$1?IID_IOPOSSmartCardRW@@3U_GUID@@B$1?LIBID_OposSmartCardRW_CCO@@3U3@B$00$0A@VCComTypeInfoHolder@ATL@@@1@@ 0000000180022818     SmartCardRW.obj
 0002:00000a88       ??_7?$CComContainedObject@VCOPOSSmartCardRW@@@ATL@@6BCComControlBase@1@@ 0000000180022a88     SmartCardRW.obj
 0002:00000ab0       ??_7?$CComContainedObject@VCOPOSSmartCardRW@@@ATL@@6B?$CWindowImpl@VCOPOSSmartCardRW@@VCWindow@ATL@@V?$CWinTraits@$0FGAAAAAA@$0A@@3@@1@@ 0000000180022ab0     SmartCardRW.obj
 0002:00000ad0       ??_7?$CComContainedObject@VCOPOSSmartCardRW@@@ATL@@6B?$IPersistStreamInitImpl@VCOPOSSmartCardRW@@@1@@ 0000000180022ad0     SmartCardRW.obj
 0002:00000b18       ??_7?$CComContainedObject@VCOPOSSmartCardRW@@@ATL@@6B?$IOleControlImpl@VCOPOSSmartCardRW@@@1@@ 0000000180022b18     SmartCardRW.obj
 0002:00000b50       ??_7?$CComContainedObject@VCOPOSSmartCardRW@@@ATL@@6B?$IOleObjectImpl@VCOPOSSmartCardRW@@@1@@ 0000000180022b50     SmartCardRW.obj
 0002:00000c10       ??_7?$CComContainedObject@VCOPOSSmartCardRW@@@ATL@@6B?$IOleInPlaceActiveObjectImpl@VCOPOSSmartCardRW@@@1@@ 0000000180022c10     SmartCardRW.obj
 0002:00000c60       ??_7?$CComContainedObject@VCOPOSSmartCardRW@@@ATL@@6B?$IViewObjectExImpl@VCOPOSSmartCardRW@@@1@@ 0000000180022c60     SmartCardRW.obj
 0002:00000cd8       ??_7?$CComContainedObject@VCOPOSSmartCardRW@@@ATL@@6B?$IOleInPlaceObjectWindowlessImpl@VCOPOSSmartCardRW@@@1@@ 0000000180022cd8     SmartCardRW.obj
 0002:00000d30       ??_7?$CComContainedObject@VCOPOSSmartCardRW@@@ATL@@6B?$IConnectionPointContainerImpl@VCOPOSSmartCardRW@@@1@@ 0000000180022d30     SmartCardRW.obj
 0002:00000d58       ??_7?$CComContainedObject@VCOPOSSmartCardRW@@@ATL@@6B?$IPersistStorageImpl@VCOPOSSmartCardRW@@@1@@ 0000000180022d58     SmartCardRW.obj
 0002:00000da8       ??_7?$CComContainedObject@VCOPOSSmartCardRW@@@ATL@@6B?$ISpecifyPropertyPagesImpl@VCOPOSSmartCardRW@@@1@@ 0000000180022da8     SmartCardRW.obj
 0002:00000dc8       ??_7?$CComContainedObject@VCOPOSSmartCardRW@@@ATL@@6B?$IQuickActivateImpl@VCOPOSSmartCardRW@@@1@@ 0000000180022dc8     SmartCardRW.obj
 0002:00000df8       ??_7?$CComContainedObject@VCOPOSSmartCardRW@@@ATL@@6B?$IDataObjectImpl@VCOPOSSmartCardRW@@@1@@ 0000000180022df8     SmartCardRW.obj
 0002:00000e58       ??_7?$CComContainedObject@VCOPOSSmartCardRW@@@ATL@@6B?$IProvideClassInfo2Impl@$1?CLSID_OPOSSmartCardRW@@3U_GUID@@B$1?DIID__IOPOSSmartCardRWEvents@@3U2@B$1?LIBID_OposSmartCardRW_CCO@@3U2@B$00$0A@VCComTypeInfoHolder@ATL@@@1@@ 0000000180022e58     SmartCardRW.obj
 0002:00000e80       ??_7?$CComContainedObject@VCOPOSSmartCardRW@@@ATL@@6B?$IObjectSafetyImpl@VCOPOSSmartCardRW@@$02@1@@ 0000000180022e80     SmartCardRW.obj
 0002:00000eb0       ??_7?$CComContainedObject@VCOPOSSmartCardRW@@@ATL@@6B?$IPropertyNotifySinkCP@VCOPOSSmartCardRW@@VCComDynamicUnkArray@ATL@@@1@@ 0000000180022eb0     SmartCardRW.obj
 0002:00000ef0       ??_7?$CComContainedObject@VCOPOSSmartCardRW@@@ATL@@6B?$CProxy_IOPOSEvents@VCOPOSSmartCardRW@@@@@ 0000000180022ef0     SmartCardRW.obj
 0002:00000f30       ??_7?$CComAggObject@VCOPOSSmartCardRW@@@ATL@@6B@ 0000000180022f30     SmartCardRW.obj
 0002:00000f50       ??_7?$CComObject@VCOPOSSmartCardRW@@@ATL@@6B?$IDispatchImpl@UIOPOSSmartCardRW@@$1?IID_IOPOSSmartCardRW@@3U_GUID@@B$1?LIBID_OposSmartCardRW_CCO@@3U3@B$00$0A@VCComTypeInfoHolder@ATL@@@1@@ 0000000180022f50     SmartCardRW.obj
 0002:000011c0       ??_7?$CComObject@VCOPOSSmartCardRW@@@ATL@@6BCComControlBase@1@@ 00000001800231c0     SmartCardRW.obj
 0002:000011e8       ??_7?$CComObject@VCOPOSSmartCardRW@@@ATL@@6B?$CWindowImpl@VCOPOSSmartCardRW@@VCWindow@ATL@@V?$CWinTraits@$0FGAAAAAA@$0A@@3@@1@@ 00000001800231e8     SmartCardRW.obj
 0002:00001208       ??_7?$CComObject@VCOPOSSmartCardRW@@@ATL@@6B?$IPersistStreamInitImpl@VCOPOSSmartCardRW@@@1@@ 0000000180023208     SmartCardRW.obj
 0002:00001250       ??_7?$CComObject@VCOPOSSmartCardRW@@@ATL@@6B?$IOleControlImpl@VCOPOSSmartCardRW@@@1@@ 0000000180023250     SmartCardRW.obj
 0002:00001288       ??_7?$CComObject@VCOPOSSmartCardRW@@@ATL@@6B?$IOleObjectImpl@VCOPOSSmartCardRW@@@1@@ 0000000180023288     SmartCardRW.obj
 0002:00001348       ??_7?$CComObject@VCOPOSSmartCardRW@@@ATL@@6B?$IOleInPlaceActiveObjectImpl@VCOPOSSmartCardRW@@@1@@ 0000000180023348     SmartCardRW.obj
 0002:00001398       ??_7?$CComObject@VCOPOSSmartCardRW@@@ATL@@6B?$IViewObjectExImpl@VCOPOSSmartCardRW@@@1@@ 0000000180023398     SmartCardRW.obj
 0002:00001410       ??_7?$CComObject@VCOPOSSmartCardRW@@@ATL@@6B?$IOleInPlaceObjectWindowlessImpl@VCOPOSSmartCardRW@@@1@@ 0000000180023410     SmartCardRW.obj
 0002:00001468       ??_7?$CComObject@VCOPOSSmartCardRW@@@ATL@@6B?$IConnectionPointContainerImpl@VCOPOSSmartCardRW@@@1@@ 0000000180023468     SmartCardRW.obj
 0002:00001490       ??_7?$CComObject@VCOPOSSmartCardRW@@@ATL@@6B?$IPersistStorageImpl@VCOPOSSmartCardRW@@@1@@ 0000000180023490     SmartCardRW.obj
 0002:000014e0       ??_7?$CComObject@VCOPOSSmartCardRW@@@ATL@@6B?$ISpecifyPropertyPagesImpl@VCOPOSSmartCardRW@@@1@@ 00000001800234e0     SmartCardRW.obj
 0002:00001500       ??_7?$CComObject@VCOPOSSmartCardRW@@@ATL@@6B?$IQuickActivateImpl@VCOPOSSmartCardRW@@@1@@ 0000000180023500     SmartCardRW.obj
 0002:00001530       ??_7?$CComObject@VCOPOSSmartCardRW@@@ATL@@6B?$IDataObjectImpl@VCOPOSSmartCardRW@@@1@@ 0000000180023530     SmartCardRW.obj
 0002:00001590       ??_7?$CComObject@VCOPOSSmartCardRW@@@ATL@@6B?$IProvideClassInfo2Impl@$1?CLSID_OPOSSmartCardRW@@3U_GUID@@B$1?DIID__IOPOSSmartCardRWEvents@@3U2@B$1?LIBID_OposSmartCardRW_CCO@@3U2@B$00$0A@VCComTypeInfoHolder@ATL@@@1@@ 0000000180023590     SmartCardRW.obj
 0002:000015b8       ??_7?$CComObject@VCOPOSSmartCardRW@@@ATL@@6B?$IObjectSafetyImpl@VCOPOSSmartCardRW@@$02@1@@ 00000001800235b8     SmartCardRW.obj
 0002:000015e8       ??_7?$CComObject@VCOPOSSmartCardRW@@@ATL@@6B?$IPropertyNotifySinkCP@VCOPOSSmartCardRW@@VCComDynamicUnkArray@ATL@@@1@@ 00000001800235e8     SmartCardRW.obj
 0002:00001628       ??_7?$CComObject@VCOPOSSmartCardRW@@@ATL@@6B?$CProxy_IOPOSEvents@VCOPOSSmartCardRW@@@@@ 0000000180023628     SmartCardRW.obj
 0002:00001668       ??_C@_1O@GBFKGNEO@?$AAA?$AAT?$AAL?$AA?3?$AA?$CF?$AAp@ 0000000180023668     SmartCardRW.obj
 0002:00001678       ??_C@_1BA@PICGEGJB@?$AAD?$AAI?$AAS?$AAP?$AAL?$AAA?$AAY@ 0000000180023678     SmartCardRW.obj
 0002:00001688       _GUID_a6bc3ac0_dbaa_11ce_9de3_00aa004bb851 0000000180023688     SmartCardRW.obj
 0002:00001698       _GUID_0000010c_0000_0000_c000_000000000046 0000000180023698     SmartCardRW.obj
 0002:000016a8       _GUID_9bfbbc02_eff1_101a_84ed_00aa00341d07 00000001800236a8     SmartCardRW.obj
 0002:000016b8       _GUID_00000146_0000_0000_c000_000000000046 00000001800236b8     SmartCardRW.obj
 0002:000016c8       ?_entries@?1??_GetEntries@?$CComEnum@UIEnumConnectionPoints@@$1?_GUID_b196b285_bab4_101a_b69c_00aa00341d07@@3U__s_GUID@@BPEAUIConnectionPoint@@V?$_CopyInterface@UIConnectionPoint@@@ATL@@VCComSingleThreadModel@6@@ATL@@SAPEBU_ATL_INTMAP_ENTRY@3@XZ@4QBU43@B 00000001800236c8     SmartCardRW.obj
 0002:000016f8       ??_7CComModule@ATL@@6B@    00000001800236f8     SmartCardRW.obj
 0002:00001748       _GUID_00020412_0000_0000_c000_000000000046 0000000180023748     SmartCardRW.obj
 0002:00001758       _GUID_00020401_0000_0000_c000_000000000046 0000000180023758     SmartCardRW.obj
 0002:00001768       _GUID_00000000_0000_0000_c000_000000000046 0000000180023768     SmartCardRW.obj
 0002:00001778       _GUID_00020400_0000_0000_c000_000000000046 0000000180023778     SmartCardRW.obj
 0002:00001788       ??_7?$CComObject@V?$CComEnum@UIEnumConnections@@$1?_GUID_b196b287_bab4_101a_b69c_00aa00341d07@@3U__s_GUID@@BUtagCONNECTDATA@@V?$_Copy@UtagCONNECTDATA@@@ATL@@VCComSingleThreadModel@6@@ATL@@@ATL@@6B@ 0000000180023788     SmartCardRW.obj
 0002:000017c8       _GUID_55980ba0_35aa_11cf_b671_00aa004cd6d8 00000001800237c8     SmartCardRW.obj
 0002:000017d8       _GUID_b196b28b_bab4_101a_b69c_00aa00341d07 00000001800237d8     SmartCardRW.obj
 0002:000017e8       ??_C@_1M@KANJNLFF@?$AAC?$AAL?$AAS?$AAI?$AAD@ 00000001800237e8     SmartCardRW.obj
 0002:000017f8       ??_C@_1M@EJNEECMJ@?$AAA?$AAp?$AAp?$AAI?$AAD@ 00000001800237f8     SmartCardRW.obj
 0002:00001808       ?_entries@?1??_GetEntries@?$CComEnum@UIEnumConnections@@$1?_GUID_b196b287_bab4_101a_b69c_00aa00341d07@@3U__s_GUID@@BUtagCONNECTDATA@@V?$_Copy@UtagCONNECTDATA@@@ATL@@VCComSingleThreadModel@6@@ATL@@SAPEBU_ATL_INTMAP_ENTRY@3@XZ@4QBU43@B 0000000180023808     SmartCardRW.obj
 0002:00001840       ?rgszNeverDelete@CRegParser@ATL@@1QBQEB_WB 0000000180023840     SmartCardRW.obj
 0002:000018a0       ??_7CRegObject@ATL@@6B@    00000001800238a0     SmartCardRW.obj
 0002:000018d0       ??_C@_1CK@OEKPKBNA@?$AAC?$AAo?$AAm?$AAp?$AAo?$AAn?$AAe?$AAn?$AAt?$AA?5?$AAC?$AAa?$AAt?$AAe?$AAg@ 00000001800238d0     SmartCardRW.obj
 0002:00001900       ??_C@_1BC@NKMMNMGL@?$AAF?$AAi?$AAl?$AAe?$AAT?$AAy?$AAp?$AAe@ 0000000180023900     SmartCardRW.obj
 0002:00001918       ??_C@_1BE@EKPAFMCP@?$AAI?$AAn?$AAt?$AAe?$AAr?$AAf?$AAa?$AAc?$AAe@ 0000000180023918     SmartCardRW.obj
 0002:00001930       ??_C@_1BC@MAICEHGI@?$AAH?$AAa?$AAr?$AAd?$AAw?$AAa?$AAr?$AAe@ 0000000180023930     SmartCardRW.obj
 0002:00001948       ??_C@_19HLLLM@?$AAM?$AAi?$AAm?$AAe@ 0000000180023948     SmartCardRW.obj
 0002:00001958       ??_C@_17OMAOINJK@?$AAS?$AAA?$AAM@ 0000000180023958     SmartCardRW.obj
 0002:00001960       ??_C@_1BC@IBECJAAI@?$AAS?$AAE?$AAC?$AAU?$AAR?$AAI?$AAT?$AAY@ 0000000180023960     SmartCardRW.obj
 0002:00001978       ??_C@_1O@GBFINDKL@?$AAS?$AAY?$AAS?$AAT?$AAE?$AAM@ 0000000180023978     SmartCardRW.obj
 0002:00001988       ??_C@_1BC@EAHCMADO@?$AAS?$AAo?$AAf?$AAt?$AAw?$AAa?$AAr?$AAe@ 0000000180023988     SmartCardRW.obj
 0002:000019a0       ??_C@_1BA@JIHHIEDE@?$AAT?$AAy?$AAp?$AAe?$AAL?$AAi?$AAb@ 00000001800239a0     SmartCardRW.obj
 0002:000019b0       ?map@?1??HKeyFromString@CRegParser@ATL@@KAPEAUHKEY__@@PEA_W@Z@4QBUkeymap@?1??123@KAPEAU4@0@Z@B 00000001800239b0     SmartCardRW.obj
 0002:00001a90       ??_C@_19NCHLBIN@?$AAH?$AAK?$AAC?$AAR@ 0000000180023a90     SmartCardRW.obj
 0002:00001aa0       ??_C@_19JAPAIJDE@?$AAH?$AAK?$AAC?$AAU@ 0000000180023aa0     SmartCardRW.obj
 0002:00001ab0       ??_C@_19PEALEEJB@?$AAH?$AAK?$AAL?$AAM@ 0000000180023ab0     SmartCardRW.obj
 0002:00001ac0       ??_C@_17PJOJPMPB@?$AAH?$AAK?$AAU@ 0000000180023ac0     SmartCardRW.obj
 0002:00001ac8       ??_C@_19PNBHMJPL@?$AAH?$AAK?$AAP?$AAD@ 0000000180023ac8     SmartCardRW.obj
 0002:00001ad8       ??_C@_19GFFAIJHG@?$AAH?$AAK?$AAD?$AAD@ 0000000180023ad8     SmartCardRW.obj
 0002:00001ae8       ??_C@_19OFICIBHH@?$AAH?$AAK?$AAC?$AAC@ 0000000180023ae8     SmartCardRW.obj
 0002:00001af8       ??_C@_1CE@PACHPJFI@?$AAH?$AAK?$AAE?$AAY?$AA_?$AAC?$AAL?$AAA?$AAS?$AAS?$AAE?$AAS?$AA_?$AAR?$AAO@ 0000000180023af8     SmartCardRW.obj
 0002:00001b20       ??_C@_1CE@HLHNCBPM@?$AAH?$AAK?$AAE?$AAY?$AA_?$AAC?$AAU?$AAR?$AAR?$AAE?$AAN?$AAT?$AA_?$AAU?$AAS@ 0000000180023b20     SmartCardRW.obj
 0002:00001b48       ??_C@_1CG@GFBEANJL@?$AAH?$AAK?$AAE?$AAY?$AA_?$AAL?$AAO?$AAC?$AAA?$AAL?$AA_?$AAM?$AAA?$AAC?$AAH@ 0000000180023b48     SmartCardRW.obj
 0002:00001b70       ??_C@_1BG@BGODANIO@?$AAH?$AAK?$AAE?$AAY?$AA_?$AAU?$AAS?$AAE?$AAR?$AAS@ 0000000180023b70     SmartCardRW.obj
 0002:00001b88       ??_C@_1CM@KHNNAOIC@?$AAH?$AAK?$AAE?$AAY?$AA_?$AAP?$AAE?$AAR?$AAF?$AAO?$AAR?$AAM?$AAA?$AAN?$AAC@ 0000000180023b88     SmartCardRW.obj
 0002:00001bb8       ??_C@_1BM@HAGMMHIA@?$AAH?$AAK?$AAE?$AAY?$AA_?$AAD?$AAY?$AAN?$AA_?$AAD?$AAA?$AAT?$AAA@ 0000000180023bb8     SmartCardRW.obj
 0002:00001bd8       ??_C@_1CI@BBJOACGG@?$AAH?$AAK?$AAE?$AAY?$AA_?$AAC?$AAU?$AAR?$AAR?$AAE?$AAN?$AAT?$AA_?$AAC?$AAO@ 0000000180023bd8     SmartCardRW.obj
 0002:00001c00       _GUID_00000109_0000_0000_c000_000000000046 0000000180023c00     SmartCardRW.obj
 0002:00001c10       _GUID_7fd52380_4e07_101b_ae2d_08002b2ec713 0000000180023c10     SmartCardRW.obj
 0002:00001c20       ??_C@_1EA@NHKLICFA@?$AAH?$AAK?$AAC?$AAU?$AA?$AN?$AA?6?$AA?$HL?$AA?7?$AAS?$AAo?$AAf?$AAt?$AAw?$AAa?$AAr@ 0000000180023c20     SmartCardRW.obj
 0002:00001c60       ??_C@_1BE@LJOLIMEM@?$AA?$AN?$AA?6?$AA?7?$AA?$HN?$AA?$AN?$AA?6?$AA?$HN?$AA?$AN?$AA?6@ 0000000180023c60     SmartCardRW.obj
 0002:00001c78       ??_C@_1O@MNLDABAF@?$AAM?$AAo?$AAd?$AAu?$AAl?$AAe@ 0000000180023c78     SmartCardRW.obj
 0002:00001c88       ??_C@_1BG@JBACFMF@?$AAM?$AAo?$AAd?$AAu?$AAl?$AAe?$AA_?$AAR?$AAa?$AAw@ 0000000180023c88     SmartCardRW.obj
 0002:00001ca0       ??_C@_1BC@KAILKFFG@?$AAR?$AAE?$AAG?$AAI?$AAS?$AAT?$AAR?$AAY@ 0000000180023ca0     SmartCardRW.obj
 0002:00001cb8       IID_IOPOSSmartCardRW_1_8   0000000180023cb8     SmartCardRW.obj
 0002:00001cc8       IID_IOPOSSmartCardRW_1_9   0000000180023cc8     SmartCardRW.obj
 0002:00001cd8       IID_IOPOSSmartCardRW_1_10  0000000180023cd8     SmartCardRW.obj
 0002:00001ce8       IID_IOPOSSmartCardRW       0000000180023ce8     SmartCardRW.obj
 0002:00001cf8       LIBID_OposSmartCardRW_CCO  0000000180023cf8     SmartCardRW.obj
 0002:00001d08       DIID__IOPOSSmartCardRWEvents 0000000180023d08     SmartCardRW.obj
 0002:00001d18       CLSID_OPOSSmartCardRW      0000000180023d18     SmartCardRW.obj
 0002:00001d28       _GUID_00000114_0000_0000_c000_000000000046 0000000180023d28     SmartCardRW.obj
 0002:00001d38       _GUID_b196b284_bab4_101a_b69c_00aa00341d07 0000000180023d38     SmartCardRW.obj
 0002:00001d50       ?_entries@?1??_GetEntries@COPOSSmartCardRW@@SAPEBU_ATL_INTMAP_ENTRY@ATL@@XZ@4QBU34@B 0000000180023d50     SmartCardRW.obj
 0002:00001fc0       _GUID_cf51ed10_62fe_11cf_bf86_00a0c9034836 0000000180023fc0     SmartCardRW.obj
 0002:00001fd0       _GUID_0000010a_0000_0000_c000_000000000046 0000000180023fd0     SmartCardRW.obj
 0002:00001fe0       _GUID_b196b283_bab4_101a_b69c_00aa00341d07 0000000180023fe0     SmartCardRW.obj
 0002:00001ff0       _GUID_cb5bdc81_93c1_11cf_8f20_00805f2cd064 0000000180023ff0     SmartCardRW.obj
 0002:00002000       ?pPropMap@?1??GetPropertyMap@COPOSSmartCardRW@@SAPEBUATL_PROPMAP_ENTRY@ATL@@XZ@4QBU34@B 0000000180024000     SmartCardRW.obj
 0002:000020a8       ??_C@_17DGDADEHL@?$AA_?$AAc?$AAx@ 00000001800240a8     SmartCardRW.obj
 0002:000020b0       ??_C@_17IOIMFDBO@?$AA_?$AAc?$AAy@ 00000001800240b0     SmartCardRW.obj
 0002:000020b8       _GUID_922eada0_3424_11cf_b670_00aa004cd6d8 00000001800240b8     SmartCardRW.obj
 0002:000020c8       _GUID_9c2cad80_3424_11cf_b670_00aa004cd6d8 00000001800240c8     SmartCardRW.obj
 0002:000020d8       _GUID_00000119_0000_0000_c000_000000000046 00000001800240d8     SmartCardRW.obj
 0002:000020e8       _GUID_b196b289_bab4_101a_b69c_00aa00341d07 00000001800240e8     SmartCardRW.obj
 0002:000020f8       _GUID_b196b286_bab4_101a_b69c_00aa00341d07 00000001800240f8     SmartCardRW.obj
 0002:00002108       ??_C@_1CE@PGFMOFKI@?$AAS?$AAt?$AAa?$AAt?$AAu?$AAs?$AAU?$AAp?$AAd?$AAa?$AAt?$AAe?$AAE?$AAv?$AAe@ 0000000180024108     SmartCardRW.obj
 0002:00002130       ??_C@_1CI@HLBJDONE@?$AAO?$AAu?$AAt?$AAp?$AAu?$AAt?$AAC?$AAo?$AAm?$AAp?$AAl?$AAe?$AAt?$AAe?$AAE@ 0000000180024130     SmartCardRW.obj
 0002:00002158       ??_C@_1BG@LODEBHDD@?$AAE?$AAr?$AAr?$AAo?$AAr?$AAE?$AAv?$AAe?$AAn?$AAt@ 0000000180024158     SmartCardRW.obj
 0002:00002170       ??_C@_1BM@CBGEBBBJ@?$AAD?$AAi?$AAr?$AAe?$AAc?$AAt?$AAI?$AAO?$AAE?$AAv?$AAe?$AAn?$AAt@ 0000000180024170     SmartCardRW.obj
 0002:00002190       ??_C@_1BE@IEBMACEM@?$AAD?$AAa?$AAt?$AAa?$AAE?$AAv?$AAe?$AAn?$AAt@ 0000000180024190     SmartCardRW.obj
 0002:000021a8       _GUID_00000117_0000_0000_c000_000000000046 00000001800241a8     SmartCardRW.obj
 0002:000021b8       ??_C@_1BC@ENICKDH@?$AAC?$AAo?$AAn?$AAt?$AAe?$AAn?$AAt?$AAs@ 00000001800241b8     SmartCardRW.obj
 0002:000021d0       ??_7?$CComObject@V?$CComEnum@UIEnumConnectionPoints@@$1?_GUID_b196b285_bab4_101a_b69c_00aa00341d07@@3U__s_GUID@@BPEAUIConnectionPoint@@V?$_CopyInterface@UIConnectionPoint@@@ATL@@VCComSingleThreadModel@6@@ATL@@@ATL@@6B@ 00000001800241d0     SmartCardRW.obj
 0002:00002210       ??_7CComClassFactory@ATL@@6B@ 0000000180024210     SmartCardRW.obj
 0002:00002240       ?_entries@?1??_GetEntries@CComClassFactory@ATL@@SAPEBU_ATL_INTMAP_ENTRY@3@XZ@4QBU43@B 0000000180024240     SmartCardRW.obj
 0002:00002270       _GUID_00000001_0000_0000_c000_000000000046 0000000180024270     SmartCardRW.obj
 0002:00002280       _GUID_0000010e_0000_0000_c000_000000000046 0000000180024280     SmartCardRW.obj
 0002:00002290       _GUID_b196b288_bab4_101a_b69c_00aa00341d07 0000000180024290     SmartCardRW.obj
 0002:000022a0       _GUID_00000113_0000_0000_c000_000000000046 00000001800242a0     SmartCardRW.obj
 0002:000022b0       _GUID_1c2056cc_5ef4_101b_8bc8_00aa003e3b29 00000001800242b0     SmartCardRW.obj
 0002:000022c0       ??_C@_0BG@EKFFMJIO@RegOpenKeyTransactedW@ 00000001800242c0     SmartCardRW.obj
 0002:000022d8       ??_C@_0BI@HAKLOOGP@RegDeleteKeyTransactedW@ 00000001800242d8     SmartCardRW.obj
 0002:000022f0       ??_C@_0BA@LILAPHGE@RegDeleteKeyExW@ 00000001800242f0     SmartCardRW.obj
 0002:00002300       ??_C@_19ILOCMLCJ@?$AA?4?$AAt?$AAl?$AAb@ 0000000180024300     SmartCardRW.obj
 0002:00002310       _GUID_0002e012_0000_0000_c000_000000000046 0000000180024310     SmartCardRW.obj
 0002:00002320       ??_C@_1O@FHBGLCIO@?$AAC?$AAL?$AAS?$AAI?$AAD?$AA?2@ 0000000180024320     SmartCardRW.obj
 0002:00002330       ??_C@_1CK@IFBKBFAA@?$AA?2?$AAR?$AAe?$AAq?$AAu?$AAi?$AAr?$AAe?$AAd?$AA?5?$AAC?$AAa?$AAt?$AAe?$AAg@ 0000000180024330     SmartCardRW.obj
 0002:00002360       ??_C@_1DA@BIHALFED@?$AA?2?$AAI?$AAm?$AAp?$AAl?$AAe?$AAm?$AAe?$AAn?$AAt?$AAe?$AAd?$AA?5?$AAC?$AAa@ 0000000180024360     SmartCardRW.obj
 0002:00002390       ??_C@_1BK@EDKOLFBJ@?$AAO?$AAL?$AAE?$AAA?$AAU?$AAT?$AA3?$AA2?$AA?4?$AAD?$AAL?$AAL@ 0000000180024390     SmartCardRW.obj
 0002:000023b0       ??_C@_0BJ@CNLFOMHB@UnRegisterTypeLibForUser@ 00000001800243b0     SmartCardRW.obj
 0002:000023d0       ??_C@_0BH@LBOMMKPJ@RegisterTypeLibForUser@ 00000001800243d0     SmartCardRW.obj
 0002:000023e8       ??_C@_0P@MMNMMLGK@COFreezeEvents@ 00000001800243e8     SmartCardRWImpl.obj
 0002:000023f8       ??_C@_0BC@OGCGGIMP@GetPropertyNumber@ 00000001800243f8     SmartCardRWImpl.obj
 0002:00002410       ??_C@_0BC@MDCNODNB@SetPropertyNumber@ 0000000180024410     SmartCardRWImpl.obj
 0002:00002428       ??_C@_0BC@CFCCMIMD@GetPropertyString@ 0000000180024428     SmartCardRWImpl.obj
 0002:00002440       ??_C@_0BC@CJEDNN@SetPropertyString@ 0000000180024440     SmartCardRWImpl.obj
 0002:00002458       ??_C@_0M@LNPKKKDA@OpenService@ 0000000180024458     SmartCardRWImpl.obj
 0002:00002468       ??_C@_0M@PCMCHHMH@CheckHealth@ 0000000180024468     SmartCardRWImpl.obj
 0002:00002478       ??_C@_0M@JGMIDNEK@ClaimDevice@ 0000000180024478     SmartCardRWImpl.obj
 0002:00002488       ??_C@_0L@BNEIFEJC@ClearInput@ 0000000180024488     SmartCardRWImpl.obj
 0002:00002498       ??_C@_0M@JMBCPNGJ@ClearOutput@ 0000000180024498     SmartCardRWImpl.obj
 0002:000024a8       ??_C@_0N@DDFIIBMP@CloseService@ 00000001800244a8     SmartCardRWImpl.obj
 0002:000024b8       ??_C@_08EEIHICPC@DirectIO@ 00000001800244b8     SmartCardRWImpl.obj
 0002:000024c8       ??_C@_0O@BCPMENMJ@ReleaseDevice@ 00000001800244c8     SmartCardRWImpl.obj
 0002:000024d8       ??_C@_0BA@GFABKEEE@ResetStatistics@ 00000001800244d8     SmartCardRWImpl.obj
 0002:000024e8       ??_C@_0BD@DPALHJGC@RetrieveStatistics@ 00000001800244e8     SmartCardRWImpl.obj
 0002:00002500       ??_C@_0BB@KOHIKNFC@UpdateStatistics@ 0000000180024500     SmartCardRWImpl.obj
 0002:00002518       ??_C@_0P@DPMKPLAE@BeginInsertion@ 0000000180024518     SmartCardRWImpl.obj
 0002:00002528       ??_C@_0N@PCJLGBKP@BeginRemoval@ 0000000180024528     SmartCardRWImpl.obj
 0002:00002538       ??_C@_0N@MIHLNKHM@EndInsertion@ 0000000180024538     SmartCardRWImpl.obj
 0002:00002548       ??_C@_0L@FCEKAOMI@EndRemoval@ 0000000180024548     SmartCardRWImpl.obj
 0002:00002558       ??_C@_08GCAKNCOG@ReadData@ 0000000180024558     SmartCardRWImpl.obj
 0002:00002568       ??_C@_09BHKFMECP@WriteData@ 0000000180024568     SmartCardRWImpl.obj
 0002:00002578       ??_C@_0BH@PBKBNMGB@CompareFirmwareVersion@ 0000000180024578     SmartCardRWImpl.obj
 0002:00002590       ??_C@_0P@FBPDPIPA@UpdateFirmware@ 0000000180024590     SmartCardRWImpl.obj
 0002:000025a0       ??_C@_0BF@CMAPCJGM@ClearInputProperties@ 00000001800245a0     SmartCardRWImpl.obj
 0002:000025b8       ??_7?$CProxy_IOPOSEvents@VCOPOSSmartCardRW@@@@6B@ 00000001800245b8     SmartCardRWImpl.obj
 0002:000025f8       ??_C@_1BA@IFHENID@?$AA?$FL?$AAE?$AAr?$AAr?$AAo?$AAr?$AA?$FN@ 00000001800245f8     SmartCardRWImpl.obj
 0002:00002608       ??_C@_0CO@OKGHNMHF@SOFTWARE?2OLEforRetail?2ServiceOP@ 0000000180024608     SmartCardRWImpl.obj
 0002:00002638       ??_C@_1M@IAIJHCCH@?$AAC?$AAl?$AAo?$AAs?$AAe@ 0000000180024638     SmartCardRWImpl.obj
 0002:00002648       ??_C@_1M@PCPKGJAH@?$AAC?$AAl?$AAa?$AAi?$AAm@ 0000000180024648     SmartCardRWImpl.obj
 0002:00002658       ??_C@_1BA@NDFKIOCP@?$AAR?$AAe?$AAl?$AAe?$AAa?$AAs?$AAe@ 0000000180024658     SmartCardRWImpl.obj
 0002:00002668       ??_C@_0M@IHDKCAIJ@SmartCardRW@ 0000000180024668     SmartCardRWImpl.obj
 0002:00002678       ??_C@_1BM@IJMNMBPK@?$AAG?$AAe?$AAt?$AAO?$AAp?$AAe?$AAn?$AAR?$AAe?$AAs?$AAu?$AAl?$AAt@ 0000000180024678     SmartCardRWImpl.obj
 0002:00002698       IID_IPropertyNotifySink    0000000180024698     uuid:ocidl_i.obj
 0002:000026a8       IID_IDispatch              00000001800246a8     uuid:oaidl_i.obj
 0002:000026b8       GUID_NULL                  00000001800246b8     uuid:cguid_i.obj
 0002:000026c8       CLSID_StdGlobalInterfaceTable 00000001800246c8     uuid:cguid_i.obj
 0002:000026d8       CLSID_StdComponentCategoriesMgr 00000001800246d8     uuid:ieguids.obj
 0002:000026e8       IID_IUnknown               00000001800246e8     uuid:unknwn_i.obj
 0002:00002700       __xmm@ffffffffffffffffffffffffffffffff 0000000180024700     LIBCMT:utility.obj
 0002:00002710       ??_C@_1EC@JIJBPKFM@?$AAa?$AAp?$AAi?$AA?9?$AAm?$AAs?$AA?9?$AAw?$AAi?$AAn?$AA?9?$AAc?$AAo?$AAr?$AAe@ 0000000180024710     LIBCMT:thread_safe_statics.obj
 0002:00002758       ??_C@_1BK@MGMFAEKH@?$AAk?$AAe?$AAr?$AAn?$AAe?$AAl?$AA3?$AA2?$AA?4?$AAd?$AAl?$AAl@ 0000000180024758     LIBCMT:thread_safe_statics.obj
 0002:00002778       ??_C@_0BJ@JEBJOJFJ@SleepConditionVariableCS@ 0000000180024778     LIBCMT:thread_safe_statics.obj
 0002:00002798       ??_C@_0BJ@PGPPEPCC@WakeAllConditionVariable@ 0000000180024798     LIBCMT:thread_safe_statics.obj
 0002:000027b1       ?nothrow@std@@3Unothrow_t@1@B 00000001800247b1     LIBCMT:std_nothrow.obj
 0002:000027f0       _pRawDllMain               00000001800247f0     LIBCMT:dll_dllmain.obj
 0002:000027f0       _pDefaultRawDllMain        00000001800247f0     LIBCMT:dll_dllmain.obj
 0002:00002800       ??_7exception@std@@6B@     0000000180024800     LIBCMT:throw_bad_alloc.obj
 0002:00002810       ??_C@_0BC@EOODALEL@Unknown?5exception@ 0000000180024810     LIBCMT:throw_bad_alloc.obj
 0002:00002830       ??_7bad_alloc@std@@6B@     0000000180024830     LIBCMT:throw_bad_alloc.obj
 0002:00002840       ??_C@_0P@GHFPNOJB@bad?5allocation@ 0000000180024840     LIBCMT:throw_bad_alloc.obj
 0002:00002858       ??_7bad_array_new_length@std@@6B@ 0000000180024858     LIBCMT:throw_bad_alloc.obj
 0002:00002868       ??_C@_0BF@KINCDENJ@bad?5array?5new?5length@ 0000000180024868     LIBCMT:throw_bad_alloc.obj
 0002:00002888       ??_7type_info@@6B@         0000000180024888     LIBCMT:std_type_info_static.obj
 0002:00002890       GUID_ATLVer110             0000000180024890     atls:atlbase.obj
 0002:000028a0       ??_C@_1IC@ONKHOIDK@?$AAE?$AAR?$AAR?$AAO?$AAR?$AA?5?$AA?3?$AA?5?$AAU?$AAn?$AAa?$AAb?$AAl?$AAe?$AA?5@ 00000001800248a0     atls:atlbase.obj
 0002:00002928       ??_C@_0N@FJEPLCIH@atlthunk?4dll@ 0000000180024928     atls:atlthunk.obj
 0002:00002938       ??_C@_0BG@GAKFHCBM@AtlThunk_AllocateData@ 0000000180024938     atls:atlthunk.obj
 0002:00002950       ??_C@_0BC@JKONFIAH@AtlThunk_InitData@ 0000000180024950     atls:atlthunk.obj
 0002:00002968       ??_C@_0BE@IAOEELAK@AtlThunk_DataToCode@ 0000000180024968     atls:atlthunk.obj
 0002:00002980       ??_C@_0BC@GBGKAIPI@AtlThunk_FreeData@ 0000000180024980     atls:atlthunk.obj
 0002:00002a80       _pDestructExceptionObject  0000000180024a80     libvcruntime:ehhelpers.obj
 0002:00002a90       ??_7bad_exception@std@@6B@ 0000000180024a90     libvcruntime:frame.obj
 0002:00002aa0       ??_C@_0O@DPKOEFFH@bad?5exception@ 0000000180024aa0     libvcruntime:frame.obj
 0002:00002df0       ??_C@_08EHJDFFNH@__based?$CI@ 0000000180024df0     libvcruntime:undname.obj
 0002:00002e00       ??_C@_07KOLFKCDI@__cdecl@  0000000180024e00     libvcruntime:undname.obj
 0002:00002e08       ??_C@_08GHMPAG@__pascal@   0000000180024e08     libvcruntime:undname.obj
 0002:00002e18       ??_C@_09IFJBGAPI@__stdcall@ 0000000180024e18     libvcruntime:undname.obj
 0002:00002e28       ??_C@_0L@NPHFGOKO@__thiscall@ 0000000180024e28     libvcruntime:undname.obj
 0002:00002e38       ??_C@_0L@JMKHOMEK@__fastcall@ 0000000180024e38     libvcruntime:undname.obj
 0002:00002e48       ??_C@_0N@BCKKPABJ@__vectorcall@ 0000000180024e48     libvcruntime:undname.obj
 0002:00002e58       ??_C@_09HIJEGCPM@__clrcall@ 0000000180024e58     libvcruntime:undname.obj
 0002:00002e64       ??_C@_06GHPCKEAG@__eabi@   0000000180024e64     libvcruntime:undname.obj
 0002:00002e70       ??_C@_09IOPIDJLG@__swift_1@ 0000000180024e70     libvcruntime:undname.obj
 0002:00002e80       ??_C@_09KFNFGKHF@__swift_2@ 0000000180024e80     libvcruntime:undname.obj
 0002:00002e90       ??_C@_07JOMMBBKO@__ptr64@  0000000180024e90     libvcruntime:undname.obj
 0002:00002e98       ??_C@_0L@PILCLIHE@__restrict@ 0000000180024e98     libvcruntime:undname.obj
 0002:00002ea8       ??_C@_0M@GFIIJFMG@__unaligned@ 0000000180024ea8     libvcruntime:undname.obj
 0002:00002eb8       ??_C@_09DHDLOLLB@restrict?$CI@ 0000000180024eb8     libvcruntime:undname.obj
 0002:00002ec2       ??_C@_00CNPNBAHC@@         0000000180024ec2     libvcruntime:undname.obj
 0002:00002ec4       ??_C@_04NIHEBCM@?5new@     0000000180024ec4     libvcruntime:undname.obj
 0002:00002ed0       ??_C@_07FPCDHGMM@?5delete@ 0000000180024ed0     libvcruntime:undname.obj
 0002:00002ed8       ??_C@_01NEMOKFLO@?$DN@     0000000180024ed8     libvcruntime:undname.obj
 0002:00002edc       ??_C@_02GPIOPFAK@?$DO?$DO@ 0000000180024edc     libvcruntime:undname.obj
 0002:00002ee0       ??_C@_02FODMEDOG@?$DM?$DM@ 0000000180024ee0     libvcruntime:undname.obj
 0002:00002ee4       ??_C@_01DCLJPIOD@?$CB@     0000000180024ee4     libvcruntime:undname.obj
 0002:00002ee8       ??_C@_02EGOFBIJA@?$DN?$DN@ 0000000180024ee8     libvcruntime:undname.obj
 0002:00002eec       ??_C@_02FDNJECIE@?$CB?$DN@ 0000000180024eec     libvcruntime:undname.obj
 0002:00002ef0       ??_C@_02GPECMEKF@?$FL?$FN@ 0000000180024ef0     libvcruntime:undname.obj
 0002:00002ef8       ??_C@_08LHJFAFGD@operator@ 0000000180024ef8     libvcruntime:undname.obj
 0002:00002f04       ??_C@_02HBOOOICD@?9?$DO@   0000000180024f04     libvcruntime:undname.obj
 0002:00002f08       ??_C@_01NBENCBCI@?$CK@     0000000180024f08     libvcruntime:undname.obj
 0002:00002f0c       ??_C@_02ECNGHCIF@?$CL?$CL@ 0000000180024f0c     libvcruntime:undname.obj
 0002:00002f10       ??_C@_02BAABKJLB@?9?9@     0000000180024f10     libvcruntime:undname.obj
 0002:00002f14       ??_C@_01JOAMLHOP@?9@       0000000180024f14     libvcruntime:undname.obj
 0002:00002f18       ??_C@_01MIFGBAGJ@?$CL@     0000000180024f18     libvcruntime:undname.obj
 0002:00002f1c       ??_C@_01HNPIGOCE@?$CG@     0000000180024f1c     libvcruntime:undname.obj
 0002:00002f20       ??_C@_03MNHNFDLC@?9?$DO?$CK@ 0000000180024f20     libvcruntime:undname.obj
 0002:00002f24       ??_C@_01KMDKNFGN@?1@       0000000180024f24     libvcruntime:undname.obj
 0002:00002f28       ??_C@_01FGNFDNOH@?$CF@     0000000180024f28     libvcruntime:undname.obj
 0002:00002f2c       ??_C@_01MNNFJEPP@?$DM@     0000000180024f2c     libvcruntime:undname.obj
 0002:00002f30       ??_C@_02EHCHHCKH@?$DM?$DN@ 0000000180024f30     libvcruntime:undname.obj
 0002:00002f34       ??_C@_01PPODPGHN@?$DO@     0000000180024f34     libvcruntime:undname.obj
 0002:00002f38       ??_C@_02EEKDKGMJ@?$DO?$DN@ 0000000180024f38     libvcruntime:undname.obj
 0002:00002f3c       ??_C@_01IHBHIGKO@?0@       0000000180024f3c     libvcruntime:undname.obj
 0002:00002f40       ??_C@_02HCKGKOFO@?$CI?$CJ@ 0000000180024f40     libvcruntime:undname.obj
 0002:00002f44       ??_C@_01PJKLJHI@?$HO@      0000000180024f44     libvcruntime:undname.obj
 0002:00002f48       ??_C@_01JKBOJNNK@?$FO@     0000000180024f48     libvcruntime:undname.obj
 0002:00002f4c       ??_C@_01DNKMNLPK@?$HM@     0000000180024f4c     libvcruntime:undname.obj
 0002:00002f50       ??_C@_02PPKAJPJL@?$CG?$CG@ 0000000180024f50     libvcruntime:undname.obj
 0002:00002f54       ??_C@_02NONPIBCD@?$HM?$HM@ 0000000180024f54     libvcruntime:undname.obj
 0002:00002f58       ??_C@_02FPIMKNGF@?$CK?$DN@ 0000000180024f58     libvcruntime:undname.obj
 0002:00002f5c       ??_C@_02FOEOMHFC@?$CL?$DN@ 0000000180024f5c     libvcruntime:undname.obj
 0002:00002f60       ??_C@_02FKMDLLOA@?9?$DN@   0000000180024f60     libvcruntime:undname.obj
 0002:00002f64       ??_C@_02FJEHGPIO@?1?$DN@   0000000180024f64     libvcruntime:undname.obj
 0002:00002f68       ??_C@_02FENAOKFI@?$CF?$DN@ 0000000180024f68     libvcruntime:undname.obj
 0002:00002f6c       ??_C@_03IKFCCPFF@?$DO?$DO?$DN@ 0000000180024f6c     libvcruntime:undname.obj
 0002:00002f70       ??_C@_03CDNPDDLA@?$DM?$DM?$DN@ 0000000180024f70     libvcruntime:undname.obj
 0002:00002f74       ??_C@_02FGJGFEAB@?$CG?$DN@ 0000000180024f74     libvcruntime:undname.obj
 0002:00002f78       ??_C@_02DHLNPPGH@?$HM?$DN@ 0000000180024f78     libvcruntime:undname.obj
 0002:00002f7c       ??_C@_02MHEGNOJ@?$FO?$DN@  0000000180024f7c     libvcruntime:undname.obj
 0002:00002f80       ??_C@_09IFPLHPGF@?$GAvftable?8@ 0000000180024f80     libvcruntime:undname.obj
 0002:00002f90       ??_C@_09BLBHBJP@?$GAvbtable?8@ 0000000180024f90     libvcruntime:undname.obj
 0002:00002fa0       ??_C@_07FEEIOKP@?$GAvcall?8@ 0000000180024fa0     libvcruntime:undname.obj
 0002:00002fa8       ??_C@_08LLFFHHDJ@?$GAtypeof?8@ 0000000180024fa8     libvcruntime:undname.obj
 0002:00002fb8       ??_C@_0BF@KDPPACIK@?$GAlocal?5static?5guard?8@ 0000000180024fb8     libvcruntime:undname.obj
 0002:00002fd0       ??_C@_08OBABFOLI@?$GAstring?8@ 0000000180024fd0     libvcruntime:undname.obj
 0002:00002fe0       ??_C@_0BD@JDLKDPAB@?$GAvbase?5destructor?8@ 0000000180024fe0     libvcruntime:undname.obj
 0002:00002ff8       ??_C@_0BN@DEGPLNFK@?$GAvector?5deleting?5destructor?8@ 0000000180024ff8     libvcruntime:undname.obj
 0002:00003018       ??_C@_0BO@OBMKPJIG@?$GAdefault?5constructor?5closure?8@ 0000000180025018     libvcruntime:undname.obj
 0002:00003038       ??_C@_0BN@IMDCHIKM@?$GAscalar?5deleting?5destructor?8@ 0000000180025038     libvcruntime:undname.obj
 0002:00003058       ??_C@_0BO@PFGOCPJJ@?$GAvector?5constructor?5iterator?8@ 0000000180025058     libvcruntime:undname.obj
 0002:00003078       ??_C@_0BN@LFPFMEDL@?$GAvector?5destructor?5iterator?8@ 0000000180025078     libvcruntime:undname.obj
 0002:00003098       ??_C@_0CE@IKBNEHA@?$GAvector?5vbase?5constructor?5itera@ 0000000180025098     libvcruntime:undname.obj
 0002:000030c0       ??_C@_0BL@NILFHHPC@?$GAvirtual?5displacement?5map?8@ 00000001800250c0     libvcruntime:undname.obj
 0002:000030e0       ??_C@_0CB@JONCMFFK@?$GAeh?5vector?5constructor?5iterator@ 00000001800250e0     libvcruntime:undname.obj
 0002:00003108       ??_C@_0CA@GCEOPDGL@?$GAeh?5vector?5destructor?5iterator?8@ 0000000180025108     libvcruntime:undname.obj
 0002:00003128       ??_C@_0CH@OOJPLCPH@?$GAeh?5vector?5vbase?5constructor?5it@ 0000000180025128     libvcruntime:undname.obj
 0002:00003150       ??_C@_0BL@LLKPOHJI@?$GAcopy?5constructor?5closure?8@ 0000000180025150     libvcruntime:undname.obj
 0002:00003170       ??_C@_0BA@KBCDOMBN@?$GAudt?5returning?8@ 0000000180025170     libvcruntime:undname.obj
 0002:00003180       ??_C@_03KLGMFNMG@?$GAEH@   0000000180025180     libvcruntime:undname.obj
 0002:00003184       ??_C@_05KHLCHHI@?$GARTTI@  0000000180025184     libvcruntime:undname.obj
 0002:00003190       ??_C@_0BA@KKLDJDLB@?$GAlocal?5vftable?8@ 0000000180025190     libvcruntime:undname.obj
 0002:000031a0       ??_C@_0CE@IIHCMGGL@?$GAlocal?5vftable?5constructor?5clos@ 00000001800251a0     libvcruntime:undname.obj
 0002:000031c4       ??_C@_06FHBGPFGH@?5new?$FL?$FN@ 00000001800251c4     libvcruntime:undname.obj
 0002:000031d0       ??_C@_09LBNFPBCA@?5delete?$FL?$FN@ 00000001800251d0     libvcruntime:undname.obj
 0002:000031e0       ??_C@_0P@HJKNJFNN@?$GAomni?5callsig?8@ 00000001800251e0     libvcruntime:undname.obj
 0002:000031f0       ??_C@_0BL@CNOONJFP@?$GAplacement?5delete?5closure?8@ 00000001800251f0     libvcruntime:undname.obj
 0002:00003210       ??_C@_0BN@CKNJLHMB@?$GAplacement?5delete?$FL?$FN?5closure?8@ 0000000180025210     libvcruntime:undname.obj
 0002:00003230       ??_C@_0CG@CFDHKGGD@?$GAmanaged?5vector?5constructor?5ite@ 0000000180025230     libvcruntime:undname.obj
 0002:00003258       ??_C@_0CF@IMGKMJNO@?$GAmanaged?5vector?5destructor?5iter@ 0000000180025258     libvcruntime:undname.obj
 0002:00003280       ??_C@_0CG@HLDDJMAG@?$GAeh?5vector?5copy?5constructor?5ite@ 0000000180025280     libvcruntime:undname.obj
 0002:000032a8       ??_C@_0CM@FCBBDIGB@?$GAeh?5vector?5vbase?5copy?5construct@ 00000001800252a8     libvcruntime:undname.obj
 0002:000032d8       ??_C@_0BL@CLIPGLGB@?$GAdynamic?5initializer?5for?5?8@ 00000001800252d8     libvcruntime:undname.obj
 0002:000032f8       ??_C@_0CB@PDBIFEP@?$GAdynamic?5atexit?5destructor?5for?5@ 00000001800252f8     libvcruntime:undname.obj
 0002:00003320       ??_C@_0CD@CGAJBKEJ@?$GAvector?5copy?5constructor?5iterat@ 0000000180025320     libvcruntime:undname.obj
 0002:00003348       ??_C@_0CJ@GJELGAMM@?$GAvector?5vbase?5copy?5constructor?5@ 0000000180025348     libvcruntime:undname.obj
 0002:00003378       ??_C@_0CL@FGIJHLCE@?$GAmanaged?5vector?5copy?5constructo@ 0000000180025378     libvcruntime:undname.obj
 0002:000033a8       ??_C@_0BM@PMGGMLDN@?$GAlocal?5static?5thread?5guard?8@ 00000001800253a8     libvcruntime:undname.obj
 0002:000033c8       ??_C@_0N@BDNMDMOL@operator?5?$CC?$CC?5@ 00000001800253c8     libvcruntime:undname.obj
 0002:000033d8       ??_C@_0BC@GGEBGALA@operator?5co_await@ 00000001800253d8     libvcruntime:undname.obj
 0002:000033f0       ??_C@_0M@GAAIMMOH@operator?$DM?$DN?$DO@ 00000001800253f0     libvcruntime:undname.obj
 0002:00003400       ??_C@_0BC@DAFEJGAK@?5Type?5Descriptor?8@ 0000000180025400     libvcruntime:undname.obj
 0002:00003418       ??_C@_0BM@LDKODKLH@?5Base?5Class?5Descriptor?5at?5?$CI@ 0000000180025418     libvcruntime:undname.obj
 0002:00003438       ??_C@_0BD@LGICGFMM@?5Base?5Class?5Array?8@ 0000000180025438     libvcruntime:undname.obj
 0002:00003450       ??_C@_0BN@MECKDCOJ@?5Class?5Hierarchy?5Descriptor?8@ 0000000180025450     libvcruntime:undname.obj
 0002:00003470       ??_C@_0BK@CFCOFLF@?5Complete?5Object?5Locator?8@ 0000000180025470     libvcruntime:undname.obj
 0002:000034a8       ??_C@_1DM@KHCHBNEB@?$AAa?$AAp?$AAi?$AA?9?$AAm?$AAs?$AA?9?$AAw?$AAi?$AAn?$AA?9?$AAc?$AAo?$AAr?$AAe@ 00000001800254a8     libvcruntime:winapi_downlevel.obj
 0002:000034e8       ??_C@_1DK@LPPGFMPP@?$AAa?$AAp?$AAi?$AA?9?$AAm?$AAs?$AA?9?$AAw?$AAi?$AAn?$AA?9?$AAc?$AAo?$AAr?$AAe@ 00000001800254e8     libvcruntime:winapi_downlevel.obj
 0002:00003528       ??_C@_1BC@GDMECMAK@?$AAk?$AAe?$AAr?$AAn?$AAe?$AAl?$AA3?$AA2@ 0000000180025528     libvcruntime:winapi_downlevel.obj
 0002:00003540       ??_C@_1BA@PFFKHIOG@?$AAa?$AAp?$AAi?$AA?9?$AAm?$AAs?$AA?9@ 0000000180025540     libvcruntime:winapi_downlevel.obj
 0002:00003558       ??_C@_08KNHFBNJ@FlsAlloc@  0000000180025558     libvcruntime:winapi_downlevel.obj
 0002:00003570       ??_C@_07PEJMOBNF@FlsFree@  0000000180025570     libvcruntime:winapi_downlevel.obj
 0002:00003580       ??_C@_0M@GDNOONDI@FlsGetValue@ 0000000180025580     libvcruntime:winapi_downlevel.obj
 0002:00003598       ??_C@_0M@JCPCPOEF@FlsSetValue@ 0000000180025598     libvcruntime:winapi_downlevel.obj
 0002:000035b0       ??_C@_0BM@HCFOFFN@InitializeCriticalSectionEx@ 00000001800255b0     libvcruntime:winapi_downlevel.obj
 0002:00003740       format_validation_lookup_table 0000000180025740     libucrt:output.obj
 0002:000037a0       ??_C@_1O@CEDCILHN@?$AA?$CI?$AAn?$AAu?$AAl?$AAl?$AA?$CJ@ 00000001800257a0     libucrt:output.obj
 0002:000037b0       ??_C@_06OJHGLDPL@?$CInull?$CJ@ 00000001800257b0     libucrt:output.obj
 0002:000037c0       __acrt_exception_action_table 00000001800257c0     libucrt:exception_filter.obj
 0002:00003880       __acrt_signal_action_table_count 0000000180025880     libucrt:exception_filter.obj
 0002:00003888       __acrt_signal_action_first_fpe_index 0000000180025888     libucrt:exception_filter.obj
 0002:00003890       __acrt_signal_action_fpe_count 0000000180025890     libucrt:exception_filter.obj
 0002:00003898       ??_C@_1BI@BGOHAHKC@?$AAm?$AAs?$AAc?$AAo?$AAr?$AAe?$AAe?$AA?4?$AAd?$AAl?$AAl@ 0000000180025898     libucrt:exit.obj
 0002:000038b0       ??_C@_0P@MIGLKIOC@CorExitProcess@ 00000001800258b0     libucrt:exit.obj
 0002:00003a60       ??_C@_1EA@JGEFHKEI@?$AAa?$AAp?$AAi?$AA?9?$AAm?$AAs?$AA?9?$AAw?$AAi?$AAn?$AA?9?$AAc?$AAo?$AAr?$AAe@ 0000000180025a60     libucrt:winapi_thunks.obj
 0002:00003aa0       ??_C@_1DI@IJCEHOCB@?$AAa?$AAp?$AAi?$AA?9?$AAm?$AAs?$AA?9?$AAw?$AAi?$AAn?$AA?9?$AAc?$AAo?$AAr?$AAe@ 0000000180025aa0     libucrt:winapi_thunks.obj
 0002:00003ae0       ??_C@_1EI@MPIAOHOC@?$AAa?$AAp?$AAi?$AA?9?$AAm?$AAs?$AA?9?$AAw?$AAi?$AAn?$AA?9?$AAc?$AAo?$AAr?$AAe@ 0000000180025ae0     libucrt:winapi_thunks.obj
 0002:00003b30       ??_C@_1FK@FPHCKFIE@?$AAa?$AAp?$AAi?$AA?9?$AAm?$AAs?$AA?9?$AAw?$AAi?$AAn?$AA?9?$AAc?$AAo?$AAr?$AAe@ 0000000180025b30     libucrt:winapi_thunks.obj
 0002:00003b90       ??_C@_1EM@DILCGIIO@?$AAa?$AAp?$AAi?$AA?9?$AAm?$AAs?$AA?9?$AAw?$AAi?$AAn?$AA?9?$AAc?$AAo?$AAr?$AAe@ 0000000180025b90     libucrt:winapi_thunks.obj
 0002:00003be0       ??_C@_1DM@LNCGDDPN@?$AAa?$AAp?$AAi?$AA?9?$AAm?$AAs?$AA?9?$AAw?$AAi?$AAn?$AA?9?$AAc?$AAo?$AAr?$AAe@ 0000000180025be0     libucrt:winapi_thunks.obj
 0002:00003c20       ??_C@_1DO@FPAPJEMD@?$AAa?$AAp?$AAi?$AA?9?$AAm?$AAs?$AA?9?$AAw?$AAi?$AAn?$AA?9?$AAc?$AAo?$AAr?$AAe@ 0000000180025c20     libucrt:winapi_thunks.obj
 0002:00003c60       ??_C@_1DK@NDHNAHIO@?$AAa?$AAp?$AAi?$AA?9?$AAm?$AAs?$AA?9?$AAw?$AAi?$AAn?$AA?9?$AAc?$AAo?$AAr?$AAe@ 0000000180025c60     libucrt:winapi_thunks.obj
 0002:00003ca0       ??_C@_1DM@KGHDGBCM@?$AAa?$AAp?$AAi?$AA?9?$AAm?$AAs?$AA?9?$AAw?$AAi?$AAn?$AA?9?$AAc?$AAo?$AAr?$AAe@ 0000000180025ca0     libucrt:winapi_thunks.obj
 0002:00003ce0       ??_C@_1EO@IJIOEFOH@?$AAa?$AAp?$AAi?$AA?9?$AAm?$AAs?$AA?9?$AAw?$AAi?$AAn?$AA?9?$AAr?$AAt?$AAc?$AAo@ 0000000180025ce0     libucrt:winapi_thunks.obj
 0002:00003d30       ??_C@_1FG@HHGEKANL@?$AAa?$AAp?$AAi?$AA?9?$AAm?$AAs?$AA?9?$AAw?$AAi?$AAn?$AA?9?$AAs?$AAe?$AAc?$AAu@ 0000000180025d30     libucrt:winapi_thunks.obj
 0002:00003d90       ??_C@_1EG@DBIOJECG@?$AAe?$AAx?$AAt?$AA?9?$AAm?$AAs?$AA?9?$AAw?$AAi?$AAn?$AA?9?$AAn?$AAt?$AAu?$AAs@ 0000000180025d90     libucrt:winapi_thunks.obj
 0002:00003de0       ??_C@_1EO@FIHMJCLF@?$AAe?$AAx?$AAt?$AA?9?$AAm?$AAs?$AA?9?$AAw?$AAi?$AAn?$AA?9?$AAn?$AAt?$AAu?$AAs@ 0000000180025de0     libucrt:winapi_thunks.obj
 0002:00003e30       ??_C@_1BC@DNHGCMLG@?$AAa?$AAd?$AAv?$AAa?$AAp?$AAi?$AA3?$AA2@ 0000000180025e30     libucrt:winapi_thunks.obj
 0002:00003e48       ??_C@_1M@OAIMIKLP@?$AAn?$AAt?$AAd?$AAl?$AAl@ 0000000180025e48     libucrt:winapi_thunks.obj
 0002:00003e60       ??_C@_1EG@DPGNFKGC@?$AAa?$AAp?$AAi?$AA?9?$AAm?$AAs?$AA?9?$AAw?$AAi?$AAn?$AA?9?$AAa?$AAp?$AAp?$AAm@ 0000000180025e60     libucrt:winapi_thunks.obj
 0002:00003ea8       ??_C@_1O@BCCLBEOE@?$AAu?$AAs?$AAe?$AAr?$AA3?$AA2@ 0000000180025ea8     libucrt:winapi_thunks.obj
 0002:00003eb8       ??_C@_1BA@IAIFMGEF@?$AAe?$AAx?$AAt?$AA?9?$AAm?$AAs?$AA?9@ 0000000180025eb8     libucrt:winapi_thunks.obj
 0002:00003ed0       ??_C@_0BA@FHFNEAED@AreFileApisANSI@ 0000000180025ed0     libucrt:winapi_thunks.obj
 0002:00003f10       ??_C@_0O@KKBNKAPF@LCMapStringEx@ 0000000180025f10     libucrt:winapi_thunks.obj
 0002:00003f28       ??_C@_0BB@HBDEELFH@LocaleNameToLCID@ 0000000180025f28     libucrt:winapi_thunks.obj
 0002:00003f40       ??_C@_0CF@OJOFEIGO@AppPolicyGetProcessTerminationM@ 0000000180025f40     libucrt:winapi_thunks.obj
 0002:00003f70       ??_C@_0BI@BKLFFAPO@SetThreadStackGuarantee@ 0000000180025f70     libucrt:winapi_thunks.obj
 0002:00004010       ??_C@_03OEIAHPBN@INF@      0000000180026010     libucrt:cvt.obj
 0002:00004014       ??_C@_03OJHLLCGB@inf@      0000000180026014     libucrt:cvt.obj
 0002:00004018       ??_C@_03LKNCIKJB@NAN@      0000000180026018     libucrt:cvt.obj
 0002:0000401c       ??_C@_03LHCJEHON@nan@      000000018002601c     libucrt:cvt.obj
 0002:00004020       ??_C@_09OFJJIMPC@NAN?$CISNAN?$CJ@ 0000000180026020     libucrt:cvt.obj
 0002:00004030       ??_C@_09IPFBKMDL@nan?$CIsnan?$CJ@ 0000000180026030     libucrt:cvt.obj
 0002:00004040       ??_C@_08IKHNHAJ@NAN?$CIIND?$CJ@ 0000000180026040     libucrt:cvt.obj
 0002:00004050       ??_C@_08OFCDMILK@nan?$CIind?$CJ@ 0000000180026050     libucrt:cvt.obj
 0002:0000405c       ??_C@_05KLBDPFGC@e?$CL000@ 000000018002605c     libucrt:cvt.obj
 0002:00004070       __lc_time_c                0000000180026070     libucrt:nlsdata.obj
 0002:00004330       ??_C@_03KOEHGMDN@Sun@      0000000180026330     libucrt:nlsdata.obj
 0002:00004334       ??_C@_03PDAGKDH@Mon@       0000000180026334     libucrt:nlsdata.obj
 0002:00004338       ??_C@_03NAGEINEP@Tue@      0000000180026338     libucrt:nlsdata.obj
 0002:0000433c       ??_C@_03MHOMLAJA@Wed@      000000018002633c     libucrt:nlsdata.obj
 0002:00004340       ??_C@_03IOFIKPDN@Thu@      0000000180026340     libucrt:nlsdata.obj
 0002:00004344       ??_C@_03IDIOELNC@Fri@      0000000180026344     libucrt:nlsdata.obj
 0002:00004348       ??_C@_03FEFJNEK@Sat@       0000000180026348     libucrt:nlsdata.obj
 0002:0000434c       ??_C@_06OOPIFAJ@Sunday@    000000018002634c     libucrt:nlsdata.obj
 0002:00004354       ??_C@_06JLEDEDGH@Monday@   0000000180026354     libucrt:nlsdata.obj
 0002:00004360       ??_C@_07BAAGCFCM@Tuesday@  0000000180026360     libucrt:nlsdata.obj
 0002:00004368       ??_C@_09DLIGFAKA@Wednesday@ 0000000180026368     libucrt:nlsdata.obj
 0002:00004378       ??_C@_08HACCIKIA@Thursday@ 0000000180026378     libucrt:nlsdata.obj
 0002:00004384       ??_C@_06JECMNKMI@Friday@   0000000180026384     libucrt:nlsdata.obj
 0002:00004390       ??_C@_08INBOOONO@Saturday@ 0000000180026390     libucrt:nlsdata.obj
 0002:0000439c       ??_C@_03JIHJHPIE@Jan@      000000018002639c     libucrt:nlsdata.obj
 0002:000043a0       ??_C@_03HJBDCHOM@Feb@      00000001800263a0     libucrt:nlsdata.obj
 0002:000043a4       ??_C@_03ODNJBKGA@Mar@      00000001800263a4     libucrt:nlsdata.obj
 0002:000043a8       ??_C@_03LEOLGMJP@Apr@      00000001800263a8     libucrt:nlsdata.obj
 0002:000043ac       ??_C@_03CNMDKL@May@        00000001800263ac     libucrt:nlsdata.obj
 0002:000043b0       ??_C@_03IDFGHECI@Jun@      00000001800263b0     libucrt:nlsdata.obj
 0002:000043b4       ??_C@_03LBGABGKK@Jul@      00000001800263b4     libucrt:nlsdata.obj
 0002:000043b8       ??_C@_03IFJFEIGA@Aug@      00000001800263b8     libucrt:nlsdata.obj
 0002:000043bc       ??_C@_03GGCAPAJC@Sep@      00000001800263bc     libucrt:nlsdata.obj
 0002:000043c0       ??_C@_03BMAOKBAD@Oct@      00000001800263c0     libucrt:nlsdata.obj
 0002:000043c4       ??_C@_03JPJOFNIA@Nov@      00000001800263c4     libucrt:nlsdata.obj
 0002:000043c8       ??_C@_03MKABNOCG@Dec@      00000001800263c8     libucrt:nlsdata.obj
 0002:000043d0       ??_C@_07CGJPFGJA@January@  00000001800263d0     libucrt:nlsdata.obj
 0002:000043d8       ??_C@_08GNJGEPFN@February@ 00000001800263d8     libucrt:nlsdata.obj
 0002:000043e4       ??_C@_05HPCKOFNC@March@    00000001800263e4     libucrt:nlsdata.obj
 0002:000043ec       ??_C@_05DMJDNLEJ@April@    00000001800263ec     libucrt:nlsdata.obj
 0002:000043f4       ??_C@_04CNLMGBGM@June@     00000001800263f4     libucrt:nlsdata.obj
 0002:000043fc       ??_C@_04MIEPOIFP@July@     00000001800263fc     libucrt:nlsdata.obj
 0002:00004404       ??_C@_06LBBHFDDG@August@   0000000180026404     libucrt:nlsdata.obj
 0002:00004410       ??_C@_09BHHEALKD@September@ 0000000180026410     libucrt:nlsdata.obj
 0002:00004420       ??_C@_07JJNFCEND@October@  0000000180026420     libucrt:nlsdata.obj
 0002:00004428       ??_C@_08HCHEGEOA@November@ 0000000180026428     libucrt:nlsdata.obj
 0002:00004438       ??_C@_08EDHMEBNP@December@ 0000000180026438     libucrt:nlsdata.obj
 0002:00004444       ??_C@_02DEDBPAFC@AM@       0000000180026444     libucrt:nlsdata.obj
 0002:00004448       ??_C@_02CJNFDJBF@PM@       0000000180026448     libucrt:nlsdata.obj
 0002:00004450       ??_C@_08BPBNCDIB@MM?1dd?1yy@ 0000000180026450     libucrt:nlsdata.obj
 0002:00004460       ??_C@_0BE@CKGJFCPC@dddd?0?5MMMM?5dd?0?5yyyy@ 0000000180026460     libucrt:nlsdata.obj
 0002:00004478       ??_C@_08JCCMCCIL@HH?3mm?3ss@ 0000000180026478     libucrt:nlsdata.obj
 0002:00004488       ??_C@_17MBGCMIPB@?$AAS?$AAu?$AAn@ 0000000180026488     libucrt:nlsdata.obj
 0002:00004490       ??_C@_17KBOMKBF@?$AAM?$AAo?$AAn@ 0000000180026490     libucrt:nlsdata.obj
 0002:00004498       ??_C@_17BMKGEGOJ@?$AAT?$AAu?$AAe@ 0000000180026498     libucrt:nlsdata.obj
 0002:000044a0       ??_C@_17CJEDCEPE@?$AAW?$AAe?$AAd@ 00000001800264a0     libucrt:nlsdata.obj
 0002:000044a8       ??_C@_17PDPHAADD@?$AAT?$AAh?$AAu@ 00000001800264a8     libucrt:nlsdata.obj
 0002:000044b0       ??_C@_17HFOLPPLP@?$AAF?$AAr?$AAi@ 00000001800264b0     libucrt:nlsdata.obj
 0002:000044b8       ??_C@_17GGIBDPIH@?$AAS?$AAa?$AAt@ 00000001800264b8     libucrt:nlsdata.obj
 0002:000044c0       ??_C@_1O@IHNHDHPB@?$AAS?$AAu?$AAn?$AAd?$AAa?$AAy@ 00000001800264c0     libucrt:nlsdata.obj
 0002:000044d0       ??_C@_1O@MMNBFLIA@?$AAM?$AAo?$AAn?$AAd?$AAa?$AAy@ 00000001800264d0     libucrt:nlsdata.obj
 0002:000044e0       ??_C@_1BA@ENFBFFEK@?$AAT?$AAu?$AAe?$AAs?$AAd?$AAa?$AAy@ 00000001800264e0     libucrt:nlsdata.obj
 0002:000044f0       ??_C@_1BE@EBOGMDOH@?$AAW?$AAe?$AAd?$AAn?$AAe?$AAs?$AAd?$AAa?$AAy@ 00000001800264f0     libucrt:nlsdata.obj
 0002:00004508       ??_C@_1BC@HHMNLIHE@?$AAT?$AAh?$AAu?$AAr?$AAs?$AAd?$AAa?$AAy@ 0000000180026508     libucrt:nlsdata.obj
 0002:00004520       ??_C@_1O@PDICJHAG@?$AAF?$AAr?$AAi?$AAd?$AAa?$AAy@ 0000000180026520     libucrt:nlsdata.obj
 0002:00004530       ??_C@_1BC@ENMNNPAJ@?$AAS?$AAa?$AAt?$AAu?$AAr?$AAd?$AAa?$AAy@ 0000000180026530     libucrt:nlsdata.obj
 0002:00004548       ??_C@_17DKNBKCHM@?$AAJ?$AAa?$AAn@ 0000000180026548     libucrt:nlsdata.obj
 0002:00004550       ??_C@_17LMDJEKJN@?$AAF?$AAe?$AAb@ 0000000180026550     libucrt:nlsdata.obj
 0002:00004558       ??_C@_17CKNLEDEC@?$AAM?$AAa?$AAr@ 0000000180026558     libucrt:nlsdata.obj
 0002:00004560       ??_C@_17LFPOIHDD@?$AAA?$AAp?$AAr@ 0000000180026560     libucrt:nlsdata.obj
 0002:00004568       ??_C@_17PNNKMEED@?$AAM?$AAa?$AAy@ 0000000180026568     libucrt:nlsdata.obj
 0002:00004570       ??_C@_17KCJGOCPB@?$AAJ?$AAu?$AAn@ 0000000180026570     libucrt:nlsdata.obj
 0002:00004578       ??_C@_17IJPCKHK@?$AAJ?$AAu?$AAl@ 0000000180026578     libucrt:nlsdata.obj
 0002:00004580       ??_C@_17ICPELBCN@?$AAA?$AAu?$AAg@ 0000000180026580     libucrt:nlsdata.obj
 0002:00004588       ??_C@_17HCHCOKMG@?$AAS?$AAe?$AAp@ 0000000180026588     libucrt:nlsdata.obj
 0002:00004590       ??_C@_17FNLKOI@?$AAO?$AAc?$AAt@ 0000000180026590     libucrt:nlsdata.obj
 0002:00004598       ??_C@_17BBDMLCIG@?$AAN?$AAo?$AAv@ 0000000180026598     libucrt:nlsdata.obj
 0002:000045a0       ??_C@_17EGKACKIF@?$AAD?$AAe?$AAc@ 00000001800265a0     libucrt:nlsdata.obj
 0002:000045a8       ??_C@_1BA@EFMEIEBA@?$AAJ?$AAa?$AAn?$AAu?$AAa?$AAr?$AAy@ 00000001800265a8     libucrt:nlsdata.obj
 0002:000045b8       ??_C@_1BC@JGDDFFAM@?$AAF?$AAe?$AAb?$AAr?$AAu?$AAa?$AAr?$AAy@ 00000001800265b8     libucrt:nlsdata.obj
 0002:000045d0       ??_C@_1M@IKEENEDF@?$AAM?$AAa?$AAr?$AAc?$AAh@ 00000001800265d0     libucrt:nlsdata.obj
 0002:000045e0       ??_C@_1M@GJNLMHFD@?$AAA?$AAp?$AAr?$AAi?$AAl@ 00000001800265e0     libucrt:nlsdata.obj
 0002:000045f0       ??_C@_19EPFLPGAP@?$AAJ?$AAu?$AAn?$AAe@ 00000001800265f0     libucrt:nlsdata.obj
 0002:00004600       ??_C@_19BIFMLPCD@?$AAJ?$AAu?$AAl?$AAy@ 0000000180026600     libucrt:nlsdata.obj
 0002:00004610       ??_C@_1O@PAHLKOAC@?$AAA?$AAu?$AAg?$AAu?$AAs?$AAt@ 0000000180026610     libucrt:nlsdata.obj
 0002:00004620       ??_C@_1BE@DKAAMBJL@?$AAS?$AAe?$AAp?$AAt?$AAe?$AAm?$AAb?$AAe?$AAr@ 0000000180026620     libucrt:nlsdata.obj
 0002:00004638       ??_C@_1BA@EPANDLNG@?$AAO?$AAc?$AAt?$AAo?$AAb?$AAe?$AAr@ 0000000180026638     libucrt:nlsdata.obj
 0002:00004648       ??_C@_1BC@BGLIFPF@?$AAN?$AAo?$AAv?$AAe?$AAm?$AAb?$AAe?$AAr@ 0000000180026648     libucrt:nlsdata.obj
 0002:00004660       ??_C@_1BC@FEMKIFH@?$AAD?$AAe?$AAc?$AAe?$AAm?$AAb?$AAe?$AAr@ 0000000180026660     libucrt:nlsdata.obj
 0002:00004674       ??_C@_15ODEHAHHF@?$AAA?$AAM@ 0000000180026674     libucrt:nlsdata.obj
 0002:0000467c       ??_C@_15CLMNNGEL@?$AAP?$AAM@ 000000018002667c     libucrt:nlsdata.obj
 0002:00004688       ??_C@_1BC@IEBCMHCM@?$AAM?$AAM?$AA?1?$AAd?$AAd?$AA?1?$AAy?$AAy@ 0000000180026688     libucrt:nlsdata.obj
 0002:000046a0       ??_C@_1CI@KNAKOEBC@?$AAd?$AAd?$AAd?$AAd?$AA?0?$AA?5?$AAM?$AAM?$AAM?$AAM?$AA?5?$AAd?$AAd?$AA?0?$AA?5@ 00000001800266a0     libucrt:nlsdata.obj
 0002:000046c8       ??_C@_1BC@GDGBMEMK@?$AAH?$AAH?$AA?3?$AAm?$AAm?$AA?3?$AAs?$AAs@ 00000001800266c8     libucrt:nlsdata.obj
 0002:000046e0       ??_C@_1M@BMHNFIME@?$AAe?$AAn?$AA?9?$AAU?$AAS@ 00000001800266e0     libucrt:nlsdata.obj
 0002:00004710       ??_C@_1M@HPNHIDJI@?$AAj?$AAa?$AA?9?$AAJ?$AAP@ 0000000180026710     libucrt:mbctype.obj
 0002:00004720       ??_C@_1M@BIBDDEMK@?$AAz?$AAh?$AA?9?$AAC?$AAN@ 0000000180026720     libucrt:mbctype.obj
 0002:00004730       ??_C@_1M@JLOOOEGK@?$AAk?$AAo?$AA?9?$AAK?$AAR@ 0000000180026730     libucrt:mbctype.obj
 0002:00004740       ??_C@_1M@CLNBBOPM@?$AAz?$AAh?$AA?9?$AAT?$AAW@ 0000000180026740     libucrt:mbctype.obj
 0002:00004750       __newctype                 0000000180026750     libucrt:ctype.obj
 0002:00004a50       __newclmap                 0000000180026a50     libucrt:ctype.obj
 0002:00004bd0       __newcumap                 0000000180026bd0     libucrt:ctype.obj
 0002:00004d50       _wctype                    0000000180026d50     libucrt:ctype.obj
 0002:00005da0       ??_C@_15EMKDOKLE@?$AAa?$AAr@ 0000000180027da0     libucrt:lcidtoname_downlevel.obj
 0002:00005da8       ??_C@_15KNPADPLH@?$AAb?$AAg@ 0000000180027da8     libucrt:lcidtoname_downlevel.obj
 0002:00005db0       ??_C@_15EDMHLDMO@?$AAc?$AAa@ 0000000180027db0     libucrt:lcidtoname_downlevel.obj
 0002:00005db8       ??_C@_1O@BPEAJADD@?$AAz?$AAh?$AA?9?$AAC?$AAH?$AAS@ 0000000180027db8     libucrt:lcidtoname_downlevel.obj
 0002:00005dc8       ??_C@_15LJNHCMNK@?$AAc?$AAs@ 0000000180027dc8     libucrt:lcidtoname_downlevel.obj
 0002:00005dd0       ??_C@_15FOMCIDHG@?$AAd?$AAa@ 0000000180027dd0     libucrt:lcidtoname_downlevel.obj
 0002:00005dd8       ??_C@_15NBKABECB@?$AAd?$AAe@ 0000000180027dd8     libucrt:lcidtoname_downlevel.obj
 0002:00005de0       ??_C@_15GHPEIIAO@?$AAe?$AAl@ 0000000180027de0     libucrt:lcidtoname_downlevel.obj
 0002:00005de8       ??_C@_15MNPNEAIF@?$AAe?$AAn@ 0000000180027de8     libucrt:lcidtoname_downlevel.obj
 0002:00005df0       ??_C@_15GPIOMPMH@?$AAe?$AAs@ 0000000180027df0     libucrt:lcidtoname_downlevel.obj
 0002:00005df8       ??_C@_15NGLOAKJC@?$AAf?$AAi@ 0000000180027df8     libucrt:lcidtoname_downlevel.obj
 0002:00005e00       ??_C@_15FBKGNKAM@?$AAf?$AAr@ 0000000180027e00     libucrt:lcidtoname_downlevel.obj
 0002:00005e08       ??_C@_15KGGCNEFK@?$AAh?$AAe@ 0000000180027e08     libucrt:lcidtoname_downlevel.obj
 0002:00005e10       ??_C@_15PGHLIDMF@?$AAh?$AAu@ 0000000180027e10     libucrt:lcidtoname_downlevel.obj
 0002:00005e18       ??_C@_15BIEMAPLM@?$AAi?$AAs@ 0000000180027e18     libucrt:lcidtoname_downlevel.obj
 0002:00005e20       ??_C@_15IFJLDHAF@?$AAi?$AAt@ 0000000180027e20     libucrt:lcidtoname_downlevel.obj
 0002:00005e28       ??_C@_15GEMIOCAG@?$AAj?$AAa@ 0000000180027e28     libucrt:lcidtoname_downlevel.obj
 0002:00005e30       ??_C@_15EPELEGJA@?$AAk?$AAo@ 0000000180027e30     libucrt:lcidtoname_downlevel.obj
 0002:00005e38       ??_C@_15NDDHIMN@?$AAn?$AAl@ 0000000180027e38     libucrt:lcidtoname_downlevel.obj
 0002:00005e40       ??_C@_15BPIGNHCD@?$AAn?$AAo@ 0000000180027e40     libucrt:lcidtoname_downlevel.obj
 0002:00005e48       ??_C@_15DEOPBLCG@?$AAp?$AAl@ 0000000180027e48     libucrt:lcidtoname_downlevel.obj
 0002:00005e50       ??_C@_15KBECGEFG@?$AAp?$AAt@ 0000000180027e50     libucrt:lcidtoname_downlevel.obj
 0002:00005e58       ??_C@_15GLJCBFMD@?$AAr?$AAo@ 0000000180027e58     libucrt:lcidtoname_downlevel.obj
 0002:00005e60       ??_C@_15FEDGKCDI@?$AAr?$AAu@ 0000000180027e60     libucrt:lcidtoname_downlevel.obj
 0002:00005e68       ??_C@_15GLKMLLHM@?$AAh?$AAr@ 0000000180027e68     libucrt:lcidtoname_downlevel.obj
 0002:00005e70       ??_C@_15CPKMFBDB@?$AAs?$AAk@ 0000000180027e70     libucrt:lcidtoname_downlevel.obj
 0002:00005e78       ??_C@_15BAAIOGMK@?$AAs?$AAq@ 0000000180027e78     libucrt:lcidtoname_downlevel.obj
 0002:00005e80       ??_C@_15INNPNOHD@?$AAs?$AAv@ 0000000180027e80     libucrt:lcidtoname_downlevel.obj
 0002:00005e88       ??_C@_15CABMMOGH@?$AAt?$AAh@ 0000000180027e88     libucrt:lcidtoname_downlevel.obj
 0002:00005e90       ??_C@_15BPLIHJJM@?$AAt?$AAr@ 0000000180027e90     libucrt:lcidtoname_downlevel.obj
 0002:00005e98       ??_C@_15NEOEKKDJ@?$AAu?$AAr@ 0000000180027e98     libucrt:lcidtoname_downlevel.obj
 0002:00005ea0       ??_C@_15NFICGAJK@?$AAi?$AAd@ 0000000180027ea0     libucrt:lcidtoname_downlevel.obj
 0002:00005ea8       ??_C@_15PJPFLCCM@?$AAu?$AAk@ 0000000180027ea8     libucrt:lcidtoname_downlevel.obj
 0002:00005eb0       ??_C@_15HPJPHDM@?$AAb?$AAe@ 0000000180027eb0     libucrt:lcidtoname_downlevel.obj
 0002:00005eb8       ??_C@_15LCHLGJII@?$AAs?$AAl@ 0000000180027eb8     libucrt:lcidtoname_downlevel.obj
 0002:00005ec0       ??_C@_15PCFJPHHO@?$AAe?$AAt@ 0000000180027ec0     libucrt:lcidtoname_downlevel.obj
 0002:00005ec8       ??_C@_15HPFPGODN@?$AAl?$AAv@ 0000000180027ec8     libucrt:lcidtoname_downlevel.obj
 0002:00005ed0       ??_C@_15NFFGKGLG@?$AAl?$AAt@ 0000000180027ed0     libucrt:lcidtoname_downlevel.obj
 0002:00005ed8       ??_C@_15BDAKCCHN@?$AAf?$AAa@ 0000000180027ed8     libucrt:lcidtoname_downlevel.obj
 0002:00005ee0       ??_C@_15NFGIAIAJ@?$AAv?$AAi@ 0000000180027ee0     libucrt:lcidtoname_downlevel.obj
 0002:00005ee8       ??_C@_15LMKNDMHN@?$AAh?$AAy@ 0000000180027ee8     libucrt:lcidtoname_downlevel.obj
 0002:00005ef0       ??_C@_15IJBHMCFL@?$AAa?$AAz@ 0000000180027ef0     libucrt:lcidtoname_downlevel.obj
 0002:00005ef8       ??_C@_15EKOFJABL@?$AAe?$AAu@ 0000000180027ef8     libucrt:lcidtoname_downlevel.obj
 0002:00005f00       ??_C@_15BGHADCNK@?$AAm?$AAk@ 0000000180027f00     libucrt:lcidtoname_downlevel.obj
 0002:00005f08       ??_C@_15JDNICKHM@?$AAa?$AAf@ 0000000180027f08     libucrt:lcidtoname_downlevel.obj
 0002:00005f10       ??_C@_15KPJEDBKD@?$AAk?$AAa@ 0000000180027f10     libucrt:lcidtoname_downlevel.obj
 0002:00005f18       ??_C@_15PDNFFFEO@?$AAf?$AAo@ 0000000180027f18     libucrt:lcidtoname_downlevel.obj
 0002:00005f20       ??_C@_15OMLEGLOC@?$AAh?$AAi@ 0000000180027f20     libucrt:lcidtoname_downlevel.obj
 0002:00005f28       ??_C@_15IDNNENKK@?$AAm?$AAs@ 0000000180027f28     libucrt:lcidtoname_downlevel.obj
 0002:00005f30       ??_C@_15MACJNBMH@?$AAk?$AAk@ 0000000180027f30     libucrt:lcidtoname_downlevel.obj
 0002:00005f38       ??_C@_15DKDJEOND@?$AAk?$AAy@ 0000000180027f38     libucrt:lcidtoname_downlevel.obj
 0002:00005f40       ??_C@_15DFGDLJBG@?$AAs?$AAw@ 0000000180027f40     libucrt:lcidtoname_downlevel.obj
 0002:00005f48       ??_C@_15BBFAICNG@?$AAu?$AAz@ 0000000180027f48     libucrt:lcidtoname_downlevel.obj
 0002:00005f50       ??_C@_15DKNDCGEA@?$AAt?$AAt@ 0000000180027f50     libucrt:lcidtoname_downlevel.obj
 0002:00005f58       ??_C@_15MGIFMDPL@?$AAp?$AAa@ 0000000180027f58     libucrt:lcidtoname_downlevel.obj
 0002:00005f60       ??_C@_15HCNDBBA@?$AAg?$AAu@ 0000000180027f60     libucrt:lcidtoname_downlevel.obj
 0002:00005f68       ??_C@_15FNBEIBON@?$AAt?$AAa@ 0000000180027f68     libucrt:lcidtoname_downlevel.obj
 0002:00005f70       ??_C@_15NCHGBGLK@?$AAt?$AAe@ 0000000180027f70     libucrt:lcidtoname_downlevel.obj
 0002:00005f78       ??_C@_15PHPHCBPF@?$AAk?$AAn@ 0000000180027f78     libucrt:lcidtoname_downlevel.obj
 0002:00005f80       ??_C@_15DLGBCKMP@?$AAm?$AAr@ 0000000180027f80     libucrt:lcidtoname_downlevel.obj
 0002:00005f88       ??_C@_15EABBLBFF@?$AAs?$AAa@ 0000000180027f88     libucrt:lcidtoname_downlevel.obj
 0002:00005f90       ??_C@_15CBKOMCOI@?$AAm?$AAn@ 0000000180027f90     libucrt:lcidtoname_downlevel.obj
 0002:00005f98       ??_C@_15CKDMCJAF@?$AAg?$AAl@ 0000000180027f98     libucrt:lcidtoname_downlevel.obj
 0002:00005fa0       ??_C@_17CNJFBPG@?$AAk?$AAo?$AAk@ 0000000180027fa0     libucrt:lcidtoname_downlevel.obj
 0002:00005fa8       ??_C@_17FFBJICPL@?$AAs?$AAy?$AAr@ 0000000180027fa8     libucrt:lcidtoname_downlevel.obj
 0002:00005fb0       ??_C@_17KPNDCPAF@?$AAd?$AAi?$AAv@ 0000000180027fb0     libucrt:lcidtoname_downlevel.obj
 0002:00005fb8       ??_C@_1M@OKAHONE@?$AAa?$AAr?$AA?9?$AAS?$AAA@ 0000000180027fb8     libucrt:lcidtoname_downlevel.obj
 0002:00005fc8       ??_C@_1M@FFFIGIGK@?$AAb?$AAg?$AA?9?$AAB?$AAG@ 0000000180027fc8     libucrt:lcidtoname_downlevel.obj
 0002:00005fd8       ??_C@_1M@BJNKEDC@?$AAc?$AAa?$AA?9?$AAE?$AAS@ 0000000180027fd8     libucrt:lcidtoname_downlevel.obj
 0002:00005fe8       ??_C@_1M@IJJHFJHA@?$AAc?$AAs?$AA?9?$AAC?$AAZ@ 0000000180027fe8     libucrt:lcidtoname_downlevel.obj
 0002:00005ff8       ??_C@_1M@CLPEOBGI@?$AAd?$AAa?$AA?9?$AAD?$AAK@ 0000000180027ff8     libucrt:lcidtoname_downlevel.obj
 0002:00006008       ??_C@_1M@MCMADGCB@?$AAd?$AAe?$AA?9?$AAD?$AAE@ 0000000180028008     libucrt:lcidtoname_downlevel.obj
 0002:00006018       ??_C@_1M@OOCKEMAM@?$AAe?$AAl?$AA?9?$AAG?$AAR@ 0000000180028018     libucrt:lcidtoname_downlevel.obj
 0002:00006028       ??_C@_1M@DDNJFGID@?$AAf?$AAi?$AA?9?$AAF?$AAI@ 0000000180028028     libucrt:lcidtoname_downlevel.obj
 0002:00006038       ??_C@_1M@GLIPPMAC@?$AAf?$AAr?$AA?9?$AAF?$AAR@ 0000000180028038     libucrt:lcidtoname_downlevel.obj
 0002:00006048       ??_C@_1M@GFMCHPE@?$AAh?$AAe?$AA?9?$AAI?$AAL@ 0000000180028048     libucrt:lcidtoname_downlevel.obj
 0002:00006058       ??_C@_1M@MHLPGNKM@?$AAh?$AAu?$AA?9?$AAH?$AAU@ 0000000180028058     libucrt:lcidtoname_downlevel.obj
 0002:00006068       ??_C@_1M@LPDDNNPN@?$AAi?$AAs?$AA?9?$AAI?$AAS@ 0000000180028068     libucrt:lcidtoname_downlevel.obj
 0002:00006078       ??_C@_1M@MADIPODN@?$AAi?$AAt?$AA?9?$AAI?$AAT@ 0000000180028078     libucrt:lcidtoname_downlevel.obj
 0002:00006088       ??_C@_1M@IHBJJGG@?$AAn?$AAl?$AA?9?$AAN?$AAL@ 0000000180028088     libucrt:lcidtoname_downlevel.obj
 0002:00006098       ??_C@_1M@EANAGDL@?$AAn?$AAb?$AA?9?$AAN?$AAO@ 0000000180028098     libucrt:lcidtoname_downlevel.obj
 0002:000060a8       ??_C@_1M@NEIEMEGP@?$AAp?$AAl?$AA?9?$AAP?$AAL@ 00000001800280a8     libucrt:lcidtoname_downlevel.obj
 0002:000060b8       ??_C@_1M@BOCFIGEP@?$AAp?$AAt?$AA?9?$AAB?$AAR@ 00000001800280b8     libucrt:lcidtoname_downlevel.obj
 0002:000060c8       ??_C@_1M@IMPFOPBG@?$AAr?$AAo?$AA?9?$AAR?$AAO@ 00000001800280c8     libucrt:lcidtoname_downlevel.obj
 0002:000060d8       ??_C@_1M@IDNNEJMM@?$AAr?$AAu?$AA?9?$AAR?$AAU@ 00000001800280d8     libucrt:lcidtoname_downlevel.obj
 0002:000060e8       ??_C@_1M@LILEEOGM@?$AAh?$AAr?$AA?9?$AAH?$AAR@ 00000001800280e8     libucrt:lcidtoname_downlevel.obj
 0002:000060f8       ??_C@_1M@FKIFEHPB@?$AAs?$AAk?$AA?9?$AAS?$AAK@ 00000001800280f8     libucrt:lcidtoname_downlevel.obj
 0002:00006108       ??_C@_1M@LJMAMNPJ@?$AAs?$AAq?$AA?9?$AAA?$AAL@ 0000000180028108     libucrt:lcidtoname_downlevel.obj
 0002:00006118       ??_C@_1M@GIAKDKJK@?$AAs?$AAv?$AA?9?$AAS?$AAE@ 0000000180028118     libucrt:lcidtoname_downlevel.obj
 0002:00006128       ??_C@_1M@MKJKIKCL@?$AAt?$AAh?$AA?9?$AAT?$AAH@ 0000000180028128     libucrt:lcidtoname_downlevel.obj
 0002:00006138       ??_C@_1M@MFLCCMPB@?$AAt?$AAr?$AA?9?$AAT?$AAR@ 0000000180028138     libucrt:lcidtoname_downlevel.obj
 0002:00006148       ??_C@_1M@OIJHDKJN@?$AAu?$AAr?$AA?9?$AAP?$AAK@ 0000000180028148     libucrt:lcidtoname_downlevel.obj
 0002:00006158       ??_C@_1M@LHIPCIEK@?$AAi?$AAd?$AA?9?$AAI?$AAD@ 0000000180028158     libucrt:lcidtoname_downlevel.obj
 0002:00006168       ??_C@_1M@MFMOBGI@?$AAu?$AAk?$AA?9?$AAU?$AAA@ 0000000180028168     libucrt:lcidtoname_downlevel.obj
 0002:00006178       ??_C@_1M@OBGLJIPL@?$AAb?$AAe?$AA?9?$AAB?$AAY@ 0000000180028178     libucrt:lcidtoname_downlevel.obj
 0002:00006188       ??_C@_1M@BCFAJEAD@?$AAs?$AAl?$AA?9?$AAS?$AAI@ 0000000180028188     libucrt:lcidtoname_downlevel.obj
 0002:00006198       ??_C@_1M@FKFFEDDN@?$AAe?$AAt?$AA?9?$AAE?$AAE@ 0000000180028198     libucrt:lcidtoname_downlevel.obj
 0002:000061a8       ??_C@_1M@KGKKAACI@?$AAl?$AAv?$AA?9?$AAL?$AAV@ 00000001800281a8     libucrt:lcidtoname_downlevel.obj
 0002:000061b8       ??_C@_1M@IFGBIJO@?$AAl?$AAt?$AA?9?$AAL?$AAT@ 00000001800281b8     libucrt:lcidtoname_downlevel.obj
 0002:000061c8       ??_C@_1M@FGEAHEDM@?$AAf?$AAa?$AA?9?$AAI?$AAR@ 00000001800281c8     libucrt:lcidtoname_downlevel.obj
 0002:000061d8       ??_C@_1M@KBMAIBFN@?$AAv?$AAi?$AA?9?$AAV?$AAN@ 00000001800281d8     libucrt:lcidtoname_downlevel.obj
 0002:000061e8       ??_C@_1M@GPCBKDJK@?$AAh?$AAy?$AA?9?$AAA?$AAM@ 00000001800281e8     libucrt:lcidtoname_downlevel.obj
 0002:000061f8       ??_C@_1BG@BECMDDJB@?$AAa?$AAz?$AA?9?$AAA?$AAZ?$AA?9?$AAL?$AAa?$AAt?$AAn@ 00000001800281f8     libucrt:lcidtoname_downlevel.obj
 0002:00006210       ??_C@_1M@MAOFCAEA@?$AAe?$AAu?$AA?9?$AAE?$AAS@ 0000000180028210     libucrt:lcidtoname_downlevel.obj
 0002:00006220       ??_C@_1M@IGHABKPI@?$AAm?$AAk?$AA?9?$AAM?$AAK@ 0000000180028220     libucrt:lcidtoname_downlevel.obj
 0002:00006230       ??_C@_1M@IAIGNEJG@?$AAt?$AAn?$AA?9?$AAZ?$AAA@ 0000000180028230     libucrt:lcidtoname_downlevel.obj
 0002:00006240       ??_C@_1M@IIJCOJFA@?$AAx?$AAh?$AA?9?$AAZ?$AAA@ 0000000180028240     libucrt:lcidtoname_downlevel.obj
 0002:00006250       ??_C@_1M@LGPJHNJH@?$AAz?$AAu?$AA?9?$AAZ?$AAA@ 0000000180028250     libucrt:lcidtoname_downlevel.obj
 0002:00006260       ??_C@_1M@HOKAOIO@?$AAa?$AAf?$AA?9?$AAZ?$AAA@ 0000000180028260     libucrt:lcidtoname_downlevel.obj
 0002:00006270       ??_C@_1M@DPCLHLIE@?$AAk?$AAa?$AA?9?$AAG?$AAE@ 0000000180028270     libucrt:lcidtoname_downlevel.obj
 0002:00006280       ??_C@_1M@BLKMHJBI@?$AAf?$AAo?$AA?9?$AAF?$AAO@ 0000000180028280     libucrt:lcidtoname_downlevel.obj
 0002:00006290       ??_C@_1M@LGGJAPPB@?$AAh?$AAi?$AA?9?$AAI?$AAN@ 0000000180028290     libucrt:lcidtoname_downlevel.obj
 0002:000062a0       ??_C@_1M@FIKPIHFE@?$AAm?$AAt?$AA?9?$AAM?$AAT@ 00000001800282a0     libucrt:lcidtoname_downlevel.obj
 0002:000062b0       ??_C@_1M@HEGGPBFA@?$AAs?$AAe?$AA?9?$AAN?$AAO@ 00000001800282b0     libucrt:lcidtoname_downlevel.obj
 0002:000062c0       ??_C@_1M@EIBJEEPA@?$AAm?$AAs?$AA?9?$AAM?$AAY@ 00000001800282c0     libucrt:lcidtoname_downlevel.obj
 0002:000062d0       ??_C@_1M@FHLBGMPP@?$AAk?$AAk?$AA?9?$AAK?$AAZ@ 00000001800282d0     libucrt:lcidtoname_downlevel.obj
 0002:000062e0       ??_C@_1M@NGJJLCGI@?$AAk?$AAy?$AA?9?$AAK?$AAG@ 00000001800282e0     libucrt:lcidtoname_downlevel.obj
 0002:000062f0       ??_C@_1M@GIENNBFC@?$AAs?$AAw?$AA?9?$AAK?$AAE@ 00000001800282f0     libucrt:lcidtoname_downlevel.obj
 0002:00006300       ??_C@_1BG@NDGMJIMJ@?$AAu?$AAz?$AA?9?$AAU?$AAZ?$AA?9?$AAL?$AAa?$AAt?$AAn@ 0000000180028300     libucrt:lcidtoname_downlevel.obj
 0002:00006318       ??_C@_1M@IDCCIHBC@?$AAt?$AAt?$AA?9?$AAR?$AAU@ 0000000180028318     libucrt:lcidtoname_downlevel.obj
 0002:00006328       ??_C@_1M@LOICPMOJ@?$AAb?$AAn?$AA?9?$AAI?$AAN@ 0000000180028328     libucrt:lcidtoname_downlevel.obj
 0002:00006338       ??_C@_1M@KPKKNEAH@?$AAp?$AAa?$AA?9?$AAI?$AAN@ 0000000180028338     libucrt:lcidtoname_downlevel.obj
 0002:00006348       ??_C@_1M@PJGPPBOG@?$AAg?$AAu?$AA?9?$AAI?$AAN@ 0000000180028348     libucrt:lcidtoname_downlevel.obj
 0002:00006358       ??_C@_1M@KMKMOPHI@?$AAt?$AAa?$AA?9?$AAI?$AAN@ 0000000180028358     libucrt:lcidtoname_downlevel.obj
 0002:00006368       ??_C@_1M@KFEHEPAC@?$AAt?$AAe?$AA?9?$AAI?$AAN@ 0000000180028368     libucrt:lcidtoname_downlevel.obj
 0002:00006378       ??_C@_1M@CDCLMGHI@?$AAk?$AAn?$AA?9?$AAI?$AAN@ 0000000180028378     libucrt:lcidtoname_downlevel.obj
 0002:00006388       ??_C@_1M@MIODLDKF@?$AAm?$AAl?$AA?9?$AAI?$AAN@ 0000000180028388     libucrt:lcidtoname_downlevel.obj
 0002:00006398       ??_C@_1M@PBIEACPO@?$AAm?$AAr?$AA?9?$AAI?$AAN@ 0000000180028398     libucrt:lcidtoname_downlevel.obj
 0002:000063a8       ??_C@_1M@NIDEAGPH@?$AAs?$AAa?$AA?9?$AAI?$AAN@ 00000001800283a8     libucrt:lcidtoname_downlevel.obj
 0002:000063b8       ??_C@_1M@FHIHCBIO@?$AAm?$AAn?$AA?9?$AAM?$AAN@ 00000001800283b8     libucrt:lcidtoname_downlevel.obj
 0002:000063c8       ??_C@_1M@JAIJPENP@?$AAc?$AAy?$AA?9?$AAG?$AAB@ 00000001800283c8     libucrt:lcidtoname_downlevel.obj
 0002:000063d8       ??_C@_1M@PHGFBEPN@?$AAg?$AAl?$AA?9?$AAE?$AAS@ 00000001800283d8     libucrt:lcidtoname_downlevel.obj
 0002:000063e8       ??_C@_1O@KPIPDNCP@?$AAk?$AAo?$AAk?$AA?9?$AAI?$AAN@ 00000001800283e8     libucrt:lcidtoname_downlevel.obj
 0002:000063f8       ??_C@_1O@KNHJLDJA@?$AAs?$AAy?$AAr?$AA?9?$AAS?$AAY@ 00000001800283f8     libucrt:lcidtoname_downlevel.obj
 0002:00006408       ??_C@_1O@MKEKBLAH@?$AAd?$AAi?$AAv?$AA?9?$AAM?$AAV@ 0000000180028408     libucrt:lcidtoname_downlevel.obj
 0002:00006418       ??_C@_1O@OHDCKDDF@?$AAq?$AAu?$AAz?$AA?9?$AAB?$AAO@ 0000000180028418     libucrt:lcidtoname_downlevel.obj
 0002:00006428       ??_C@_1M@LEPJNLFD@?$AAn?$AAs?$AA?9?$AAZ?$AAA@ 0000000180028428     libucrt:lcidtoname_downlevel.obj
 0002:00006438       ??_C@_1M@OMLEIIJB@?$AAm?$AAi?$AA?9?$AAN?$AAZ@ 0000000180028438     libucrt:lcidtoname_downlevel.obj
 0002:00006448       ??_C@_1M@PMPEAILG@?$AAa?$AAr?$AA?9?$AAI?$AAQ@ 0000000180028448     libucrt:lcidtoname_downlevel.obj
 0002:00006458       ??_C@_1M@CNKPNOEE@?$AAd?$AAe?$AA?9?$AAC?$AAH@ 0000000180028458     libucrt:lcidtoname_downlevel.obj
 0002:00006468       ??_C@_1M@LKMGMLKO@?$AAe?$AAn?$AA?9?$AAG?$AAB@ 0000000180028468     libucrt:lcidtoname_downlevel.obj
 0002:00006478       ??_C@_1M@PGKJFFGL@?$AAe?$AAs?$AA?9?$AAM?$AAX@ 0000000180028478     libucrt:lcidtoname_downlevel.obj
 0002:00006488       ??_C@_1M@DNNANBDC@?$AAf?$AAr?$AA?9?$AAB?$AAE@ 0000000180028488     libucrt:lcidtoname_downlevel.obj
 0002:00006498       ??_C@_1M@HLGMDFHM@?$AAi?$AAt?$AA?9?$AAC?$AAH@ 0000000180028498     libucrt:lcidtoname_downlevel.obj
 0002:000064a8       ??_C@_1M@CLLBGJH@?$AAn?$AAl?$AA?9?$AAB?$AAE@ 00000001800284a8     libucrt:lcidtoname_downlevel.obj
 0002:000064b8       ??_C@_1M@BODBOGLF@?$AAn?$AAn?$AA?9?$AAN?$AAO@ 00000001800284b8     libucrt:lcidtoname_downlevel.obj
 0002:000064c8       ??_C@_1M@HFFAHKAD@?$AAp?$AAt?$AA?9?$AAP?$AAT@ 00000001800284c8     libucrt:lcidtoname_downlevel.obj
 0002:000064d8       ??_C@_1BG@LNOAKHIE@?$AAs?$AAr?$AA?9?$AAS?$AAP?$AA?9?$AAL?$AAa?$AAt?$AAn@ 00000001800284d8     libucrt:lcidtoname_downlevel.obj
 0002:000064f0       ??_C@_1M@HBMHBGAK@?$AAs?$AAv?$AA?9?$AAF?$AAI@ 00000001800284f0     libucrt:lcidtoname_downlevel.obj
 0002:00006500       ??_C@_1BG@DGCJGJBE@?$AAa?$AAz?$AA?9?$AAA?$AAZ?$AA?9?$AAC?$AAy?$AAr?$AAl@ 0000000180028500     libucrt:lcidtoname_downlevel.obj
 0002:00006518       ??_C@_1M@KEJDAAHB@?$AAs?$AAe?$AA?9?$AAS?$AAE@ 0000000180028518     libucrt:lcidtoname_downlevel.obj
 0002:00006528       ??_C@_1M@HEIBJJAD@?$AAm?$AAs?$AA?9?$AAB?$AAN@ 0000000180028528     libucrt:lcidtoname_downlevel.obj
 0002:00006538       ??_C@_1BG@PBGJMCEM@?$AAu?$AAz?$AA?9?$AAU?$AAZ?$AA?9?$AAC?$AAy?$AAr?$AAl@ 0000000180028538     libucrt:lcidtoname_downlevel.obj
 0002:00006550       ??_C@_1O@LAOBCMDF@?$AAq?$AAu?$AAz?$AA?9?$AAE?$AAC@ 0000000180028550     libucrt:lcidtoname_downlevel.obj
 0002:00006560       ??_C@_1M@POEEMAIO@?$AAa?$AAr?$AA?9?$AAE?$AAG@ 0000000180028560     libucrt:lcidtoname_downlevel.obj
 0002:00006570       ??_C@_1M@EFAKDEDL@?$AAz?$AAh?$AA?9?$AAH?$AAK@ 0000000180028570     libucrt:lcidtoname_downlevel.obj
 0002:00006580       ??_C@_1M@HKKIJHGI@?$AAd?$AAe?$AA?9?$AAA?$AAT@ 0000000180028580     libucrt:lcidtoname_downlevel.obj
 0002:00006590       ??_C@_1M@KBFBEHJF@?$AAe?$AAn?$AA?9?$AAA?$AAU@ 0000000180028590     libucrt:lcidtoname_downlevel.obj
 0002:000065a0       ??_C@_1M@MNPLFAAH@?$AAe?$AAs?$AA?9?$AAE?$AAS@ 00000001800285a0     libucrt:lcidtoname_downlevel.obj
 0002:000065b0       ??_C@_1M@HJOOJFMA@?$AAf?$AAr?$AA?9?$AAC?$AAA@ 00000001800285b0     libucrt:lcidtoname_downlevel.obj
 0002:000065c0       ??_C@_1BG@JPOFPNAB@?$AAs?$AAr?$AA?9?$AAS?$AAP?$AA?9?$AAC?$AAy?$AAr?$AAl@ 00000001800285c0     libucrt:lcidtoname_downlevel.obj
 0002:000065d8       ??_C@_1M@LNFOCMOB@?$AAs?$AAe?$AA?9?$AAF?$AAI@ 00000001800285d8     libucrt:lcidtoname_downlevel.obj
 0002:000065e8       ??_C@_1O@MGJBOAMB@?$AAq?$AAu?$AAz?$AA?9?$AAP?$AAE@ 00000001800285e8     libucrt:lcidtoname_downlevel.obj
 0002:000065f8       ??_C@_1M@GJINLBOK@?$AAa?$AAr?$AA?9?$AAL?$AAY@ 00000001800285f8     libucrt:lcidtoname_downlevel.obj
 0002:00006608       ??_C@_1M@GGMNHJNL@?$AAz?$AAh?$AA?9?$AAS?$AAG@ 0000000180028608     libucrt:lcidtoname_downlevel.obj
 0002:00006618       ??_C@_1M@HOIKODND@?$AAd?$AAe?$AA?9?$AAL?$AAU@ 0000000180028618     libucrt:lcidtoname_downlevel.obj
 0002:00006628       ??_C@_1M@DDOCCGFG@?$AAe?$AAn?$AA?9?$AAC?$AAA@ 0000000180028628     libucrt:lcidtoname_downlevel.obj
 0002:00006638       ??_C@_1M@BNOEMJLF@?$AAe?$AAs?$AA?9?$AAG?$AAT@ 0000000180028638     libucrt:lcidtoname_downlevel.obj
 0002:00006648       ??_C@_1M@EOGNKEK@?$AAf?$AAr?$AA?9?$AAC?$AAH@ 0000000180028648     libucrt:lcidtoname_downlevel.obj
 0002:00006658       ??_C@_1M@FLIDJFHL@?$AAh?$AAr?$AA?9?$AAB?$AAA@ 0000000180028658     libucrt:lcidtoname_downlevel.obj
 0002:00006668       ??_C@_1O@FMCELNAJ@?$AAs?$AAm?$AAj?$AA?9?$AAN?$AAO@ 0000000180028668     libucrt:lcidtoname_downlevel.obj
 0002:00006678       ??_C@_1M@JHGLJMGJ@?$AAa?$AAr?$AA?9?$AAD?$AAZ@ 0000000180028678     libucrt:lcidtoname_downlevel.obj
 0002:00006688       ??_C@_1M@JKKFDCNP@?$AAz?$AAh?$AA?9?$AAM?$AAO@ 0000000180028688     libucrt:lcidtoname_downlevel.obj
 0002:00006698       ??_C@_1M@GEEFALPE@?$AAd?$AAe?$AA?9?$AAL?$AAI@ 0000000180028698     libucrt:lcidtoname_downlevel.obj
 0002:000066a8       ??_C@_1M@IGEOFBG@?$AAe?$AAn?$AA?9?$AAN?$AAZ@ 00000001800286a8     libucrt:lcidtoname_downlevel.obj
 0002:000066b8       ??_C@_1M@KDBONEHP@?$AAe?$AAs?$AA?9?$AAC?$AAR@ 00000001800286b8     libucrt:lcidtoname_downlevel.obj
 0002:000066c8       ??_C@_1M@FHMDOHNN@?$AAf?$AAr?$AA?9?$AAL?$AAU@ 00000001800286c8     libucrt:lcidtoname_downlevel.obj
 0002:000066d8       ??_C@_1BG@NFKKMAFG@?$AAb?$AAs?$AA?9?$AAB?$AAA?$AA?9?$AAL?$AAa?$AAt?$AAn@ 00000001800286d8     libucrt:lcidtoname_downlevel.obj
 0002:000066f0       ??_C@_1O@IMNBEMCI@?$AAs?$AAm?$AAj?$AA?9?$AAS?$AAE@ 00000001800286f0     libucrt:lcidtoname_downlevel.obj
 0002:00006700       ??_C@_1M@DHHMBNDP@?$AAa?$AAr?$AA?9?$AAM?$AAA@ 0000000180028700     libucrt:lcidtoname_downlevel.obj
 0002:00006710       ??_C@_1M@BNBLJCGH@?$AAe?$AAn?$AA?9?$AAI?$AAE@ 0000000180028710     libucrt:lcidtoname_downlevel.obj
 0002:00006720       ??_C@_1M@GEPAFMDL@?$AAe?$AAs?$AA?9?$AAP?$AAA@ 0000000180028720     libucrt:lcidtoname_downlevel.obj
 0002:00006730       ??_C@_1M@OJONDMDL@?$AAf?$AAr?$AA?9?$AAM?$AAC@ 0000000180028730     libucrt:lcidtoname_downlevel.obj
 0002:00006740       ??_C@_1BG@OBCNFJB@?$AAs?$AAr?$AA?9?$AAB?$AAA?$AA?9?$AAL?$AAa?$AAt?$AAn@ 0000000180028740     libucrt:lcidtoname_downlevel.obj
 0002:00006758       ??_C@_1O@KEMEEGPO@?$AAs?$AAm?$AAa?$AA?9?$AAN?$AAO@ 0000000180028758     libucrt:lcidtoname_downlevel.obj
 0002:00006768       ??_C@_1M@ELMGFODK@?$AAa?$AAr?$AA?9?$AAT?$AAN@ 0000000180028768     libucrt:lcidtoname_downlevel.obj
 0002:00006778       ??_C@_1M@BHDLHFAF@?$AAe?$AAn?$AA?9?$AAZ?$AAA@ 0000000180028778     libucrt:lcidtoname_downlevel.obj
 0002:00006788       ??_C@_1M@BMGIGLIF@?$AAe?$AAs?$AA?9?$AAD?$AAO@ 0000000180028788     libucrt:lcidtoname_downlevel.obj
 0002:00006798       ??_C@_1BG@CMBHIPBE@?$AAs?$AAr?$AA?9?$AAB?$AAA?$AA?9?$AAC?$AAy?$AAr?$AAl@ 0000000180028798     libucrt:lcidtoname_downlevel.obj
 0002:000067b0       ??_C@_1O@HEDBLHNP@?$AAs?$AAm?$AAa?$AA?9?$AAS?$AAE@ 00000001800287b0     libucrt:lcidtoname_downlevel.obj
 0002:000067c0       ??_C@_1M@DAGCADIM@?$AAa?$AAr?$AA?9?$AAO?$AAM@ 00000001800287c0     libucrt:lcidtoname_downlevel.obj
 0002:000067d0       ??_C@_1M@FODLMICG@?$AAe?$AAn?$AA?9?$AAJ?$AAM@ 00000001800287d0     libucrt:lcidtoname_downlevel.obj
 0002:000067e0       ??_C@_1M@DNMLCIHB@?$AAe?$AAs?$AA?9?$AAV?$AAE@ 00000001800287e0     libucrt:lcidtoname_downlevel.obj
 0002:000067f0       ??_C@_1O@EOKHMKJK@?$AAs?$AAm?$AAs?$AA?9?$AAF?$AAI@ 00000001800287f0     libucrt:lcidtoname_downlevel.obj
 0002:00006800       ??_C@_1M@CAFJMKOF@?$AAa?$AAr?$AA?9?$AAY?$AAE@ 0000000180028800     libucrt:lcidtoname_downlevel.obj
 0002:00006810       ??_C@_1M@CBFHIJLI@?$AAe?$AAn?$AA?9?$AAC?$AAB@ 0000000180028810     libucrt:lcidtoname_downlevel.obj
 0002:00006820       ??_C@_1M@BGNFLDN@?$AAe?$AAs?$AA?9?$AAC?$AAO@ 0000000180028820     libucrt:lcidtoname_downlevel.obj
 0002:00006830       ??_C@_1O@JMPHMAMC@?$AAs?$AAm?$AAn?$AA?9?$AAF?$AAI@ 0000000180028830     libucrt:lcidtoname_downlevel.obj
 0002:00006840       ??_C@_1M@JLANABKE@?$AAa?$AAr?$AA?9?$AAS?$AAY@ 0000000180028840     libucrt:lcidtoname_downlevel.obj
 0002:00006850       ??_C@_1M@HPKGCFGN@?$AAe?$AAn?$AA?9?$AAB?$AAZ@ 0000000180028850     libucrt:lcidtoname_downlevel.obj
 0002:00006860       ??_C@_1M@OLJCMLGM@?$AAe?$AAs?$AA?9?$AAP?$AAE@ 0000000180028860     libucrt:lcidtoname_downlevel.obj
 0002:00006870       ??_C@_1M@MKKGFKLE@?$AAa?$AAr?$AA?9?$AAJ?$AAO@ 0000000180028870     libucrt:lcidtoname_downlevel.obj
 0002:00006880       ??_C@_1M@EKPGLDNI@?$AAe?$AAn?$AA?9?$AAT?$AAT@ 0000000180028880     libucrt:lcidtoname_downlevel.obj
 0002:00006890       ??_C@_1M@OONGHFHE@?$AAe?$AAs?$AA?9?$AAA?$AAR@ 0000000180028890     libucrt:lcidtoname_downlevel.obj
 0002:000068a0       ??_C@_1M@OOJFGBHE@?$AAa?$AAr?$AA?9?$AAL?$AAB@ 00000001800288a0     libucrt:lcidtoname_downlevel.obj
 0002:000068b0       ??_C@_1M@GCEJHNEG@?$AAe?$AAn?$AA?9?$AAZ?$AAW@ 00000001800288b0     libucrt:lcidtoname_downlevel.obj
 0002:000068c0       ??_C@_1M@JNOCAHJI@?$AAe?$AAs?$AA?9?$AAE?$AAC@ 00000001800288c0     libucrt:lcidtoname_downlevel.obj
 0002:000068d0       ??_C@_1M@JEFHPGGB@?$AAa?$AAr?$AA?9?$AAK?$AAW@ 00000001800288d0     libucrt:lcidtoname_downlevel.obj
 0002:000068e0       ??_C@_1M@MLKIBJOJ@?$AAe?$AAn?$AA?9?$AAP?$AAH@ 00000001800288e0     libucrt:lcidtoname_downlevel.obj
 0002:000068f0       ??_C@_1M@BDNIPEND@?$AAe?$AAs?$AA?9?$AAC?$AAL@ 00000001800288f0     libucrt:lcidtoname_downlevel.obj
 0002:00006900       ??_C@_1M@MPNMEKBD@?$AAa?$AAr?$AA?9?$AAA?$AAE@ 0000000180028900     libucrt:lcidtoname_downlevel.obj
 0002:00006910       ??_C@_1M@KBJALCPI@?$AAe?$AAs?$AA?9?$AAU?$AAY@ 0000000180028910     libucrt:lcidtoname_downlevel.obj
 0002:00006920       ??_C@_1M@LLCCOAGA@?$AAa?$AAr?$AA?9?$AAB?$AAH@ 0000000180028920     libucrt:lcidtoname_downlevel.obj
 0002:00006930       ??_C@_1M@PBFNCDEL@?$AAe?$AAs?$AA?9?$AAP?$AAY@ 0000000180028930     libucrt:lcidtoname_downlevel.obj
 0002:00006940       ??_C@_1M@EDGINPNP@?$AAa?$AAr?$AA?9?$AAQ?$AAA@ 0000000180028940     libucrt:lcidtoname_downlevel.obj
 0002:00006950       ??_C@_1M@MKDBIIJI@?$AAe?$AAs?$AA?9?$AAB?$AAO@ 0000000180028950     libucrt:lcidtoname_downlevel.obj
 0002:00006960       ??_C@_1M@CPKKEBLD@?$AAe?$AAs?$AA?9?$AAS?$AAV@ 0000000180028960     libucrt:lcidtoname_downlevel.obj
 0002:00006970       ??_C@_1M@NDBGMMJL@?$AAe?$AAs?$AA?9?$AAH?$AAN@ 0000000180028970     libucrt:lcidtoname_downlevel.obj
 0002:00006980       ??_C@_1M@JIJIBHDP@?$AAe?$AAs?$AA?9?$AAN?$AAI@ 0000000180028980     libucrt:lcidtoname_downlevel.obj
 0002:00006990       ??_C@_1M@CGFMKEEK@?$AAe?$AAs?$AA?9?$AAP?$AAR@ 0000000180028990     libucrt:lcidtoname_downlevel.obj
 0002:000069a0       ??_C@_1O@ICJHKIIK@?$AAz?$AAh?$AA?9?$AAC?$AAH?$AAT@ 00000001800289a0     libucrt:lcidtoname_downlevel.obj
 0002:000069b0       ??_C@_15CLNEJCE@?$AAs?$AAr@ 00000001800289b0     libucrt:lcidtoname_downlevel.obj
 0002:00007800       ??_C@_1M@KAHEKEIG@?$AAa?$AAf?$AA?9?$AAz?$AAa@ 0000000180029800     libucrt:lcidtoname_downlevel.obj
 0002:00007810       ??_C@_1M@GIECOABL@?$AAa?$AAr?$AA?9?$AAa?$AAe@ 0000000180029810     libucrt:lcidtoname_downlevel.obj
 0002:00007820       ??_C@_1M@BMLMEKGI@?$AAa?$AAr?$AA?9?$AAb?$AAh@ 0000000180029820     libucrt:lcidtoname_downlevel.obj
 0002:00007830       ??_C@_1M@DAPFDGGB@?$AAa?$AAr?$AA?9?$AAd?$AAz@ 0000000180029830     libucrt:lcidtoname_downlevel.obj
 0002:00007840       ??_C@_1M@FJNKGKIG@?$AAa?$AAr?$AA?9?$AAe?$AAg@ 0000000180029840     libucrt:lcidtoname_downlevel.obj
 0002:00007850       ??_C@_1M@FLGKKCLO@?$AAa?$AAr?$AA?9?$AAi?$AAq@ 0000000180029850     libucrt:lcidtoname_downlevel.obj
 0002:00007860       ??_C@_1M@GNDIPALM@?$AAa?$AAr?$AA?9?$AAj?$AAo@ 0000000180029860     libucrt:lcidtoname_downlevel.obj
 0002:00007870       ??_C@_1M@DDMJFMGJ@?$AAa?$AAr?$AA?9?$AAk?$AAw@ 0000000180029870     libucrt:lcidtoname_downlevel.obj
 0002:00007880       ??_C@_1M@EJALMLHM@?$AAa?$AAr?$AA?9?$AAl?$AAb@ 0000000180029880     libucrt:lcidtoname_downlevel.obj
 0002:00007890       ??_C@_1M@MOBDBLOC@?$AAa?$AAr?$AA?9?$AAl?$AAy@ 0000000180029890     libucrt:lcidtoname_downlevel.obj
 0002:000078a0       ??_C@_1M@JAOCLHDH@?$AAa?$AAr?$AA?9?$AAm?$AAa@ 00000001800298a0     libucrt:lcidtoname_downlevel.obj
 0002:000078b0       ??_C@_1M@JHPMKJIE@?$AAa?$AAr?$AA?9?$AAo?$AAm@ 00000001800298b0     libucrt:lcidtoname_downlevel.obj
 0002:000078c0       ??_C@_1M@OEPGHFNH@?$AAa?$AAr?$AA?9?$AAq?$AAa@ 00000001800298c0     libucrt:lcidtoname_downlevel.obj
 0002:000078d0       ??_C@_1M@KJDONENM@?$AAa?$AAr?$AA?9?$AAs?$AAa@ 00000001800298d0     libucrt:lcidtoname_downlevel.obj
 0002:000078e0       ??_C@_1M@DMJDKLKM@?$AAa?$AAr?$AA?9?$AAs?$AAy@ 00000001800298e0     libucrt:lcidtoname_downlevel.obj
 0002:000078f0       ??_C@_1M@OMFIPEDC@?$AAa?$AAr?$AA?9?$AAt?$AAn@ 00000001800298f0     libucrt:lcidtoname_downlevel.obj
 0002:00007900       ??_C@_1M@IHMHGAON@?$AAa?$AAr?$AA?9?$AAy?$AAe@ 0000000180029900     libucrt:lcidtoname_downlevel.obj
 0002:00007910       ??_C@_1BG@KDCPGJGB@?$AAa?$AAz?$AA?9?$AAa?$AAz?$AA?9?$AAc?$AAy?$AAr?$AAl@ 0000000180029910     libucrt:lcidtoname_downlevel.obj
 0002:00007928       ??_C@_1BG@IBCKDDOE@?$AAa?$AAz?$AA?9?$AAa?$AAz?$AA?9?$AAl?$AAa?$AAt?$AAn@ 0000000180029928     libucrt:lcidtoname_downlevel.obj
 0002:00007940       ??_C@_1M@EGPFDCPD@?$AAb?$AAe?$AA?9?$AAb?$AAy@ 0000000180029940     libucrt:lcidtoname_downlevel.obj
 0002:00007950       ??_C@_1M@PCMGMCGC@?$AAb?$AAg?$AA?9?$AAb?$AAg@ 0000000180029950     libucrt:lcidtoname_downlevel.obj
 0002:00007960       ??_C@_1M@BJBMFGOB@?$AAb?$AAn?$AA?9?$AAi?$AAn@ 0000000180029960     libucrt:lcidtoname_downlevel.obj
 0002:00007970       ??_C@_1BG@EAKMMACD@?$AAb?$AAs?$AA?9?$AAb?$AAa?$AA?9?$AAl?$AAa?$AAt?$AAn@ 0000000180029970     libucrt:lcidtoname_downlevel.obj
 0002:00007988       ??_C@_1M@KGADAODK@?$AAc?$AAa?$AA?9?$AAe?$AAs@ 0000000180029988     libucrt:lcidtoname_downlevel.obj
 0002:00007998       ??_C@_1M@COAJPDHI@?$AAc?$AAs?$AA?9?$AAc?$AAz@ 0000000180029998     libucrt:lcidtoname_downlevel.obj
 0002:000079a8       ??_C@_1M@DHBHFONH@?$AAc?$AAy?$AA?9?$AAg?$AAb@ 00000001800299a8     libucrt:lcidtoname_downlevel.obj
 0002:000079b8       ??_C@_1M@IMGKELGA@?$AAd?$AAa?$AA?9?$AAd?$AAk@ 00000001800299b8     libucrt:lcidtoname_downlevel.obj
 0002:000079c8       ??_C@_1M@NNDGDNGA@?$AAd?$AAe?$AA?9?$AAa?$AAt@ 00000001800299c8     libucrt:lcidtoname_downlevel.obj
 0002:000079d8       ??_C@_1M@IKDBHEEM@?$AAd?$AAe?$AA?9?$AAc?$AAh@ 00000001800299d8     libucrt:lcidtoname_downlevel.obj
 0002:000079e8       ??_C@_1M@GFFOJMCJ@?$AAd?$AAe?$AA?9?$AAd?$AAe@ 00000001800299e8     libucrt:lcidtoname_downlevel.obj
 0002:000079f8       ??_C@_1M@MDNLKBPM@?$AAd?$AAe?$AA?9?$AAl?$AAi@ 00000001800299f8     libucrt:lcidtoname_downlevel.obj
 0002:00007a08       ??_C@_1M@NJBEEJNL@?$AAd?$AAe?$AA?9?$AAl?$AAu@ 0000000180029a08     libucrt:lcidtoname_downlevel.obj
 0002:00007a18       ??_C@_1O@GNNELBAP@?$AAd?$AAi?$AAv?$AA?9?$AAm?$AAv@ 0000000180029a18     libucrt:lcidtoname_downlevel.obj
 0002:00007a28       ??_C@_1M@EJLEOGAE@?$AAe?$AAl?$AA?9?$AAg?$AAr@ 0000000180029a28     libucrt:lcidtoname_downlevel.obj
 0002:00007a38       ??_C@_1M@GMPONJN@?$AAe?$AAn?$AA?9?$AAa?$AAu@ 0000000180029a38     libucrt:lcidtoname_downlevel.obj
 0002:00007a48       ??_C@_1M@NIDIIPGF@?$AAe?$AAn?$AA?9?$AAb?$AAz@ 0000000180029a48     libucrt:lcidtoname_downlevel.obj
 0002:00007a58       ??_C@_1M@JEHMIMFO@?$AAe?$AAn?$AA?9?$AAc?$AAa@ 0000000180029a58     libucrt:lcidtoname_downlevel.obj
 0002:00007a68       ??_C@_1M@IGMJCDLA@?$AAe?$AAn?$AA?9?$AAc?$AAb@ 0000000180029a68     libucrt:lcidtoname_downlevel.obj
 0002:00007a78       ??_C@_1M@BNFIGBKG@?$AAe?$AAn?$AA?9?$AAg?$AAb@ 0000000180029a78     libucrt:lcidtoname_downlevel.obj
 0002:00007a88       ??_C@_1M@LKIFDIGP@?$AAe?$AAn?$AA?9?$AAi?$AAe@ 0000000180029a88     libucrt:lcidtoname_downlevel.obj
 0002:00007a98       ??_C@_1M@PJKFGCCO@?$AAe?$AAn?$AA?9?$AAj?$AAm@ 0000000180029a98     libucrt:lcidtoname_downlevel.obj
 0002:00007aa8       ??_C@_1M@KPPKEPBO@?$AAe?$AAn?$AA?9?$AAn?$AAz@ 0000000180029aa8     libucrt:lcidtoname_downlevel.obj
 0002:00007ab8       ??_C@_1M@GMDGLDOB@?$AAe?$AAn?$AA?9?$AAp?$AAh@ 0000000180029ab8     libucrt:lcidtoname_downlevel.obj
 0002:00007ac8       ??_C@_1M@ONGIBJNA@?$AAe?$AAn?$AA?9?$AAt?$AAt@ 0000000180029ac8     libucrt:lcidtoname_downlevel.obj
 0002:00007ad8       ??_C@_1M@LLODPCMM@?$AAe?$AAn?$AA?9?$AAu?$AAs@ 0000000180029ad8     libucrt:lcidtoname_downlevel.obj
 0002:00007ae8       ??_C@_1M@LAKFNPAN@?$AAe?$AAn?$AA?9?$AAz?$AAa@ 0000000180029ae8     libucrt:lcidtoname_downlevel.obj
 0002:00007af8       ??_C@_1M@MFNHNHEO@?$AAe?$AAn?$AA?9?$AAz?$AAw@ 0000000180029af8     libucrt:lcidtoname_downlevel.obj
 0002:00007b08       ??_C@_1M@EJEINPHM@?$AAe?$AAs?$AA?9?$AAa?$AAr@ 0000000180029b08     libucrt:lcidtoname_downlevel.obj
 0002:00007b18       ??_C@_1M@GNKPCCJA@?$AAe?$AAs?$AA?9?$AAb?$AAo@ 0000000180029b18     libucrt:lcidtoname_downlevel.obj
 0002:00007b28       ??_C@_1M@LEEGFONL@?$AAe?$AAs?$AA?9?$AAc?$AAl@ 0000000180029b28     libucrt:lcidtoname_downlevel.obj
 0002:00007b38       ??_C@_1M@KGPDPBDF@?$AAe?$AAs?$AA?9?$AAc?$AAo@ 0000000180029b38     libucrt:lcidtoname_downlevel.obj
 0002:00007b48       ??_C@_1M@EIAHOHH@?$AAe?$AAs?$AA?9?$AAc?$AAr@ 0000000180029b48     libucrt:lcidtoname_downlevel.obj
 0002:00007b58       ??_C@_1M@LLPGMBIN@?$AAe?$AAs?$AA?9?$AAd?$AAo@ 0000000180029b58     libucrt:lcidtoname_downlevel.obj
 0002:00007b68       ??_C@_1M@DKHMKNJA@?$AAe?$AAs?$AA?9?$AAe?$AAc@ 0000000180029b68     libucrt:lcidtoname_downlevel.obj
 0002:00007b78       ??_C@_1M@GKGFPKAP@?$AAe?$AAs?$AA?9?$AAe?$AAs@ 0000000180029b78     libucrt:lcidtoname_downlevel.obj
 0002:00007b88       ??_C@_1M@LKHKGDLN@?$AAe?$AAs?$AA?9?$AAg?$AAt@ 0000000180029b88     libucrt:lcidtoname_downlevel.obj
 0002:00007b98       ??_C@_1M@HEIIGGJD@?$AAe?$AAs?$AA?9?$AAh?$AAn@ 0000000180029b98     libucrt:lcidtoname_downlevel.obj
 0002:00007ba8       ??_C@_1M@FBDHPPGD@?$AAe?$AAs?$AA?9?$AAm?$AAx@ 0000000180029ba8     libucrt:lcidtoname_downlevel.obj
 0002:00007bb8       ??_C@_1M@DPAGLNDH@?$AAe?$AAs?$AA?9?$AAn?$AAi@ 0000000180029bb8     libucrt:lcidtoname_downlevel.obj
 0002:00007bc8       ??_C@_1M@MDGOPGDD@?$AAe?$AAs?$AA?9?$AAp?$AAa@ 0000000180029bc8     libucrt:lcidtoname_downlevel.obj
 0002:00007bd8       ??_C@_1M@EMAMGBGE@?$AAe?$AAs?$AA?9?$AAp?$AAe@ 0000000180029bd8     libucrt:lcidtoname_downlevel.obj
 0002:00007be8       ??_C@_1M@IBMCAOEC@?$AAe?$AAs?$AA?9?$AAp?$AAr@ 0000000180029be8     libucrt:lcidtoname_downlevel.obj
 0002:00007bf8       ??_C@_1M@FGMDIJED@?$AAe?$AAs?$AA?9?$AAp?$AAy@ 0000000180029bf8     libucrt:lcidtoname_downlevel.obj
 0002:00007c08       ??_C@_1M@IIDEOLLL@?$AAe?$AAs?$AA?9?$AAs?$AAv@ 0000000180029c08     libucrt:lcidtoname_downlevel.obj
 0002:00007c18       ??_C@_1M@GAOBIPA@?$AAe?$AAs?$AA?9?$AAu?$AAy@ 0000000180029c18     libucrt:lcidtoname_downlevel.obj
 0002:00007c28       ??_C@_1M@JKFFICHJ@?$AAe?$AAs?$AA?9?$AAv?$AAe@ 0000000180029c28     libucrt:lcidtoname_downlevel.obj
 0002:00007c38       ??_C@_1M@PNMLOJDF@?$AAe?$AAt?$AA?9?$AAe?$AAe@ 0000000180029c38     libucrt:lcidtoname_downlevel.obj
 0002:00007c48       ??_C@_1M@GHHLIKEI@?$AAe?$AAu?$AA?9?$AAe?$AAs@ 0000000180029c48     libucrt:lcidtoname_downlevel.obj
 0002:00007c58       ??_C@_1M@PBNONODE@?$AAf?$AAa?$AA?9?$AAi?$AAr@ 0000000180029c58     libucrt:lcidtoname_downlevel.obj
 0002:00007c68       ??_C@_1M@JEEHPMIL@?$AAf?$AAi?$AA?9?$AAf?$AAi@ 0000000180029c68     libucrt:lcidtoname_downlevel.obj
 0002:00007c78       ??_C@_1M@LMDCNDBA@?$AAf?$AAo?$AA?9?$AAf?$AAo@ 0000000180029c78     libucrt:lcidtoname_downlevel.obj
 0002:00007c88       ??_C@_1M@JKEOHLDK@?$AAf?$AAr?$AA?9?$AAb?$AAe@ 0000000180029c88     libucrt:lcidtoname_downlevel.obj
 0002:00007c98       ??_C@_1M@NOHADPMI@?$AAf?$AAr?$AA?9?$AAc?$AAa@ 0000000180029c98     libucrt:lcidtoname_downlevel.obj
 0002:00007ca8       ??_C@_1M@KDHIHAEC@?$AAf?$AAr?$AA?9?$AAc?$AAh@ 0000000180029ca8     libucrt:lcidtoname_downlevel.obj
 0002:00007cb8       ??_C@_1M@MMBBFGAK@?$AAf?$AAr?$AA?9?$AAf?$AAr@ 0000000180029cb8     libucrt:lcidtoname_downlevel.obj
 0002:00007cc8       ??_C@_1M@PAFNENNF@?$AAf?$AAr?$AA?9?$AAl?$AAu@ 0000000180029cc8     libucrt:lcidtoname_downlevel.obj
 0002:00007cd8       ??_C@_1M@EOHDJGDD@?$AAf?$AAr?$AA?9?$AAm?$AAc@ 0000000180029cd8     libucrt:lcidtoname_downlevel.obj
 0002:00007ce8       ??_C@_1M@FAPLLOPF@?$AAg?$AAl?$AA?9?$AAe?$AAs@ 0000000180029ce8     libucrt:lcidtoname_downlevel.obj
 0002:00007cf8       ??_C@_1M@FOPBFLOO@?$AAg?$AAu?$AA?9?$AAi?$AAn@ 0000000180029cf8     libucrt:lcidtoname_downlevel.obj
 0002:00007d08       ??_C@_1M@KBMCINPM@?$AAh?$AAe?$AA?9?$AAi?$AAl@ 0000000180029d08     libucrt:lcidtoname_downlevel.obj
 0002:00007d18       ??_C@_1M@BBPHKFPJ@?$AAh?$AAi?$AA?9?$AAi?$AAn@ 0000000180029d18     libucrt:lcidtoname_downlevel.obj
 0002:00007d28       ??_C@_1M@PMBNDPHD@?$AAh?$AAr?$AA?9?$AAb?$AAa@ 0000000180029d28     libucrt:lcidtoname_downlevel.obj
 0002:00007d38       ??_C@_1M@BPCKOEGE@?$AAh?$AAr?$AA?9?$AAh?$AAr@ 0000000180029d38     libucrt:lcidtoname_downlevel.obj
 0002:00007d48       ??_C@_1M@GACBMHKE@?$AAh?$AAu?$AA?9?$AAh?$AAu@ 0000000180029d48     libucrt:lcidtoname_downlevel.obj
 0002:00007d58       ??_C@_1M@MILPAJJC@?$AAh?$AAy?$AA?9?$AAa?$AAm@ 0000000180029d58     libucrt:lcidtoname_downlevel.obj
 0002:00007d68       ??_C@_1M@BABBICEC@?$AAi?$AAd?$AA?9?$AAi?$AAd@ 0000000180029d68     libucrt:lcidtoname_downlevel.obj
 0002:00007d78       ??_C@_1M@BIKNHHPF@?$AAi?$AAs?$AA?9?$AAi?$AAs@ 0000000180029d78     libucrt:lcidtoname_downlevel.obj
 0002:00007d88       ??_C@_1M@NMPCJPHE@?$AAi?$AAt?$AA?9?$AAc?$AAh@ 0000000180029d88     libucrt:lcidtoname_downlevel.obj
 0002:00007d98       ??_C@_1M@GHKGFEDF@?$AAi?$AAt?$AA?9?$AAi?$AAt@ 0000000180029d98     libucrt:lcidtoname_downlevel.obj
 0002:00007da8       ??_C@_1M@NIEJCJJA@?$AAj?$AAa?$AA?9?$AAj?$AAp@ 0000000180029da8     libucrt:lcidtoname_downlevel.obj
 0002:00007db8       ??_C@_1M@JILFNBIM@?$AAk?$AAa?$AA?9?$AAg?$AAe@ 0000000180029db8     libucrt:lcidtoname_downlevel.obj
 0002:00007dc8       ??_C@_1M@PACPMGPH@?$AAk?$AAk?$AA?9?$AAk?$AAz@ 0000000180029dc8     libucrt:lcidtoname_downlevel.obj
 0002:00007dd8       ??_C@_1M@IELFGMHA@?$AAk?$AAn?$AA?9?$AAi?$AAn@ 0000000180029dd8     libucrt:lcidtoname_downlevel.obj
 0002:00007de8       ??_C@_1O@IBBJHCH@?$AAk?$AAo?$AAk?$AA?9?$AAi?$AAn@ 0000000180029de8     libucrt:lcidtoname_downlevel.obj
 0002:00007df8       ??_C@_1M@DMHAEOGC@?$AAk?$AAo?$AA?9?$AAk?$AAr@ 0000000180029df8     libucrt:lcidtoname_downlevel.obj
 0002:00007e08       ??_C@_1M@HBAHBIGA@?$AAk?$AAy?$AA?9?$AAk?$AAg@ 0000000180029e08     libucrt:lcidtoname_downlevel.obj
 0002:00007e18       ??_C@_1M@KPMILCJG@?$AAl?$AAt?$AA?9?$AAl?$AAt@ 0000000180029e18     libucrt:lcidtoname_downlevel.obj
 0002:00007e28       ??_C@_1M@BDEKKCA@?$AAl?$AAv?$AA?9?$AAl?$AAv@ 0000000180029e28     libucrt:lcidtoname_downlevel.obj
 0002:00007e38       ??_C@_1M@ELCKCCJJ@?$AAm?$AAi?$AA?9?$AAn?$AAz@ 0000000180029e38     libucrt:lcidtoname_downlevel.obj
 0002:00007e48       ??_C@_1M@CBOOLAPA@?$AAm?$AAk?$AA?9?$AAm?$AAk@ 0000000180029e48     libucrt:lcidtoname_downlevel.obj
 0002:00007e58       ??_C@_1M@GPHNBJKN@?$AAm?$AAl?$AA?9?$AAi?$AAn@ 0000000180029e58     libucrt:lcidtoname_downlevel.obj
 0002:00007e68       ??_C@_1M@PABJILIG@?$AAm?$AAn?$AA?9?$AAm?$AAn@ 0000000180029e68     libucrt:lcidtoname_downlevel.obj
 0002:00007e78       ??_C@_1M@FGBKKIPG@?$AAm?$AAr?$AA?9?$AAi?$AAn@ 0000000180029e78     libucrt:lcidtoname_downlevel.obj
 0002:00007e88       ??_C@_1M@NDBPDDAL@?$AAm?$AAs?$AA?9?$AAb?$AAn@ 0000000180029e88     libucrt:lcidtoname_downlevel.obj
 0002:00007e98       ??_C@_1M@OPIHOOPI@?$AAm?$AAs?$AA?9?$AAm?$AAy@ 0000000180029e98     libucrt:lcidtoname_downlevel.obj
 0002:00007ea8       ??_C@_1M@PPDBCNFM@?$AAm?$AAt?$AA?9?$AAm?$AAt@ 0000000180029ea8     libucrt:lcidtoname_downlevel.obj
 0002:00007eb8       ??_C@_1M@KDJDKMDD@?$AAn?$AAb?$AA?9?$AAn?$AAo@ 0000000180029eb8     libucrt:lcidtoname_downlevel.obj
 0002:00007ec8       ??_C@_1M@KFCFLMJP@?$AAn?$AAl?$AA?9?$AAb?$AAe@ 0000000180029ec8     libucrt:lcidtoname_downlevel.obj
 0002:00007ed8       ??_C@_1M@KPOPDDGO@?$AAn?$AAl?$AA?9?$AAn?$AAl@ 0000000180029ed8     libucrt:lcidtoname_downlevel.obj
 0002:00007ee8       ??_C@_1M@LJKPEMLN@?$AAn?$AAn?$AA?9?$AAn?$AAo@ 0000000180029ee8     libucrt:lcidtoname_downlevel.obj
 0002:00007ef8       ??_C@_1M@BDGHHBFL@?$AAn?$AAs?$AA?9?$AAz?$AAa@ 0000000180029ef8     libucrt:lcidtoname_downlevel.obj
 0002:00007f08       ??_C@_1M@IDEHOAP@?$AAp?$AAa?$AA?9?$AAi?$AAn@ 0000000180029f08     libucrt:lcidtoname_downlevel.obj
 0002:00007f18       ??_C@_1M@HDBKGOGH@?$AAp?$AAl?$AA?9?$AAp?$AAl@ 0000000180029f18     libucrt:lcidtoname_downlevel.obj
 0002:00007f28       ??_C@_1M@LJLLCMEH@?$AAp?$AAt?$AA?9?$AAb?$AAr@ 0000000180029f28     libucrt:lcidtoname_downlevel.obj
 0002:00007f38       ??_C@_1M@NCMONAAL@?$AAp?$AAt?$AA?9?$AAp?$AAt@ 0000000180029f38     libucrt:lcidtoname_downlevel.obj
 0002:00007f48       ??_C@_1O@EAKMAJDN@?$AAq?$AAu?$AAz?$AA?9?$AAb?$AAo@ 0000000180029f48     libucrt:lcidtoname_downlevel.obj
 0002:00007f58       ??_C@_1O@BHHPIGDN@?$AAq?$AAu?$AAz?$AA?9?$AAe?$AAc@ 0000000180029f58     libucrt:lcidtoname_downlevel.obj
 0002:00007f68       ??_C@_1O@GBAPEKMJ@?$AAq?$AAu?$AAz?$AA?9?$AAp?$AAe@ 0000000180029f68     libucrt:lcidtoname_downlevel.obj
 0002:00007f78       ??_C@_1M@CLGLEFBO@?$AAr?$AAo?$AA?9?$AAr?$AAo@ 0000000180029f78     libucrt:lcidtoname_downlevel.obj
 0002:00007f88       ??_C@_1M@CEEDODME@?$AAr?$AAu?$AA?9?$AAr?$AAu@ 0000000180029f88     libucrt:lcidtoname_downlevel.obj
 0002:00007f98       ??_C@_1M@HPKKKMPP@?$AAs?$AAa?$AA?9?$AAi?$AAn@ 0000000180029f98     libucrt:lcidtoname_downlevel.obj
 0002:00007fa8       ??_C@_1M@BKMAIGOJ@?$AAs?$AAe?$AA?9?$AAf?$AAi@ 0000000180029fa8     libucrt:lcidtoname_downlevel.obj
 0002:00007fb8       ??_C@_1M@NDPIFLFI@?$AAs?$AAe?$AA?9?$AAn?$AAo@ 0000000180029fb8     libucrt:lcidtoname_downlevel.obj
 0002:00007fc8       ??_C@_1M@DANKKHJ@?$AAs?$AAe?$AA?9?$AAs?$AAe@ 0000000180029fc8     libucrt:lcidtoname_downlevel.obj
 0002:00007fd8       ??_C@_1M@PNBLONPJ@?$AAs?$AAk?$AA?9?$AAs?$AAk@ 0000000180029fd8     libucrt:lcidtoname_downlevel.obj
 0002:00007fe8       ??_C@_1M@LFMODOAL@?$AAs?$AAl?$AA?9?$AAs?$AAi@ 0000000180029fe8     libucrt:lcidtoname_downlevel.obj
 0002:00007ff8       ??_C@_1O@DFKOMPG@?$AAs?$AAm?$AAa?$AA?9?$AAn?$AAo@ 0000000180029ff8     libucrt:lcidtoname_downlevel.obj
 0002:00008008       ??_C@_1O@NDKPBNNH@?$AAs?$AAm?$AAa?$AA?9?$AAs?$AAe@ 000000018002a008     libucrt:lcidtoname_downlevel.obj
 0002:00008018       ??_C@_1O@PLLKBHAB@?$AAs?$AAm?$AAj?$AA?9?$AAn?$AAo@ 000000018002a018     libucrt:lcidtoname_downlevel.obj
 0002:00008028       ??_C@_1O@CLEPOGCA@?$AAs?$AAm?$AAj?$AA?9?$AAs?$AAe@ 000000018002a028     libucrt:lcidtoname_downlevel.obj
 0002:00008038       ??_C@_1O@DLGJGKMK@?$AAs?$AAm?$AAn?$AA?9?$AAf?$AAi@ 000000018002a038     libucrt:lcidtoname_downlevel.obj
 0002:00008048       ??_C@_1O@OJDJGAJC@?$AAs?$AAm?$AAs?$AA?9?$AAf?$AAi@ 000000018002a048     libucrt:lcidtoname_downlevel.obj
 0002:00008058       ??_C@_1M@BOFOGHPB@?$AAs?$AAq?$AA?9?$AAa?$AAl@ 000000018002a058     libucrt:lcidtoname_downlevel.obj
 0002:00008068       ??_C@_1BG@LJBBIPGB@?$AAs?$AAr?$AA?9?$AAb?$AAa?$AA?9?$AAc?$AAy?$AAr?$AAl@ 000000018002a068     libucrt:lcidtoname_downlevel.obj
 0002:00008080       ??_C@_1BG@JLBENFOE@?$AAs?$AAr?$AA?9?$AAb?$AAa?$AA?9?$AAl?$AAa?$AAt?$AAn@ 000000018002a080     libucrt:lcidtoname_downlevel.obj
 0002:00008098       ??_C@_1BG@KODPNHE@?$AAs?$AAr?$AA?9?$AAs?$AAp?$AA?9?$AAc?$AAy?$AAr?$AAl@ 000000018002a098     libucrt:lcidtoname_downlevel.obj
 0002:000080b0       ??_C@_1BG@CIOGKHPB@?$AAs?$AAr?$AA?9?$AAs?$AAp?$AA?9?$AAl?$AAa?$AAt?$AAn@ 000000018002a0b0     libucrt:lcidtoname_downlevel.obj
 0002:000080c8       ??_C@_1M@NGFJLMAC@?$AAs?$AAv?$AA?9?$AAf?$AAi@ 000000018002a0c8     libucrt:lcidtoname_downlevel.obj
 0002:000080d8       ??_C@_1M@MPJEJAJC@?$AAs?$AAv?$AA?9?$AAs?$AAe@ 000000018002a0d8     libucrt:lcidtoname_downlevel.obj
 0002:000080e8       ??_C@_1M@MPNDHLFK@?$AAs?$AAw?$AA?9?$AAk?$AAe@ 000000018002a0e8     libucrt:lcidtoname_downlevel.obj
 0002:000080f8       ??_C@_1O@KOHBJJI@?$AAs?$AAy?$AAr?$AA?9?$AAs?$AAy@ 000000018002a0f8     libucrt:lcidtoname_downlevel.obj
 0002:00008108       ??_C@_1M@LDCEFHA@?$AAt?$AAa?$AA?9?$AAi?$AAn@ 000000018002a108     libucrt:lcidtoname_downlevel.obj
 0002:00008118       ??_C@_1M@CNJOFAK@?$AAt?$AAe?$AA?9?$AAi?$AAn@ 000000018002a118     libucrt:lcidtoname_downlevel.obj
 0002:00008128       ??_C@_1M@GNAECACD@?$AAt?$AAh?$AA?9?$AAt?$AAh@ 000000018002a128     libucrt:lcidtoname_downlevel.obj
 0002:00008138       ??_C@_1M@CHBIHOJO@?$AAt?$AAn?$AA?9?$AAz?$AAa@ 000000018002a138     libucrt:lcidtoname_downlevel.obj
 0002:00008148       ??_C@_1M@GCCMIGPJ@?$AAt?$AAr?$AA?9?$AAt?$AAr@ 000000018002a148     libucrt:lcidtoname_downlevel.obj
 0002:00008158       ??_C@_1M@CELMCNBK@?$AAt?$AAt?$AA?9?$AAr?$AAu@ 000000018002a158     libucrt:lcidtoname_downlevel.obj
 0002:00008168       ??_C@_1M@KLMCELGA@?$AAu?$AAk?$AA?9?$AAu?$AAa@ 000000018002a168     libucrt:lcidtoname_downlevel.obj
 0002:00008178       ??_C@_1M@EPAJJAJF@?$AAu?$AAr?$AA?9?$AAp?$AAk@ 000000018002a178     libucrt:lcidtoname_downlevel.obj
 0002:00008188       ??_C@_1BG@GEGPMCDJ@?$AAu?$AAz?$AA?9?$AAu?$AAz?$AA?9?$AAc?$AAy?$AAr?$AAl@ 000000018002a188     libucrt:lcidtoname_downlevel.obj
 0002:000081a0       ??_C@_1BG@EGGKJILM@?$AAu?$AAz?$AA?9?$AAu?$AAz?$AA?9?$AAl?$AAa?$AAt?$AAn@ 000000018002a1a0     libucrt:lcidtoname_downlevel.obj
 0002:000081b8       ??_C@_1M@GFOCLFF@?$AAv?$AAi?$AA?9?$AAv?$AAn@ 000000018002a1b8     libucrt:lcidtoname_downlevel.obj
 0002:000081c8       ??_C@_1M@CPAMEDFI@?$AAx?$AAh?$AA?9?$AAz?$AAa@ 000000018002a1c8     libucrt:lcidtoname_downlevel.obj
 0002:000081d8       ??_C@_1O@EBKIFIGN@?$AAz?$AAh?$AA?9?$AAc?$AAh?$AAs@ 000000018002a1d8     libucrt:lcidtoname_downlevel.obj
 0002:000081e8       ??_C@_1O@NMHPGANE@?$AAz?$AAh?$AA?9?$AAc?$AAh?$AAt@ 000000018002a1e8     libucrt:lcidtoname_downlevel.obj
 0002:000081f8       ??_C@_1M@LPINJOMC@?$AAz?$AAh?$AA?9?$AAc?$AAn@ 000000018002a1f8     libucrt:lcidtoname_downlevel.obj
 0002:00008208       ??_C@_1M@OCJEJODD@?$AAz?$AAh?$AA?9?$AAh?$AAk@ 000000018002a208     libucrt:lcidtoname_downlevel.obj
 0002:00008218       ??_C@_1M@DNDLJINH@?$AAz?$AAh?$AA?9?$AAm?$AAo@ 000000018002a218     libucrt:lcidtoname_downlevel.obj
 0002:00008228       ??_C@_1M@MBFDNDND@?$AAz?$AAh?$AA?9?$AAs?$AAg@ 000000018002a228     libucrt:lcidtoname_downlevel.obj
 0002:00008238       ??_C@_1M@IMEPLEPE@?$AAz?$AAh?$AA?9?$AAt?$AAw@ 000000018002a238     libucrt:lcidtoname_downlevel.obj
 0002:00008248       ??_C@_1M@BBGHNHJP@?$AAz?$AAu?$AA?9?$AAz?$AAa@ 000000018002a248     libucrt:lcidtoname_downlevel.obj
 0002:00008260       ?large_power_data@?1??multiply_by_power_of_ten@__crt_strtox@@YA_NAEAUbig_integer@2@I@Z@4QBIB 000000018002a260     libucrt:cfout.obj
 0002:00008c08       ?small_powers_of_ten@?1??multiply_by_power_of_ten@__crt_strtox@@YA_NAEAUbig_integer@2@I@Z@4QBIB 000000018002ac08     libucrt:cfout.obj
 0002:00008c2c       ??_C@_01GBGANLPD@0@        000000018002ac2c     libucrt:cfout.obj
 0002:00008c30       ??_C@_05DNEBIAHO@1?$CDINF@ 000000018002ac30     libucrt:cfout.obj
 0002:00008c38       ??_C@_06IMKFLFPG@1?$CDQNAN@ 000000018002ac38     libucrt:cfout.obj
 0002:00008c40       ??_C@_06PGGFOGJG@1?$CDSNAN@ 000000018002ac40     libucrt:cfout.obj
 0002:00008c48       ??_C@_05PHHOCPM@1?$CDIND@  000000018002ac48     libucrt:cfout.obj
 0002:00008c50       __real@3ff0000000000000    000000018002ac50     libucrt:ceil.obj
 0002:00008eb0       __log10_256_lead           000000018002aeb0     libucrt:log10_256_lead_tail_table.obj
 0002:000096c0       __log10_256_tail           000000018002b6c0     libucrt:log10_256_lead_tail_table.obj
 0002:00009ed0       __log_F_inv_qword          000000018002bed0     libucrt:log_f_inv_qword_table.obj
 0002:0000a6e0       ??_C@_05HGHHAHAP@log10@    000000018002c6e0     libucrt:log_special.obj
 0002:0000a6e8       ??_C@_1BA@BALFACEM@?$AAC?$AAO?$AAN?$AAO?$AAU?$AAT?$AA$@ 000000018002c6e8     libucrt:initcon.obj
 0002:0000a770       _load_config_used          000000018002c770     LIBCMT:loadcfg.obj
 0002:0000a878       _tls_used                  000000018002c878     LIBCMT:tlssup.obj
 0002:0000a8a0       ??_R4exception@std@@6B@    000000018002c8a0     LIBCMT:throw_bad_alloc.obj
 0002:0000a8c8       ??_R3exception@std@@8      000000018002c8c8     LIBCMT:throw_bad_alloc.obj
 0002:0000a8e0       ??_R2exception@std@@8      000000018002c8e0     LIBCMT:throw_bad_alloc.obj
 0002:0000a8f0       ??_R1A@?0A@EA@exception@std@@8 000000018002c8f0     LIBCMT:throw_bad_alloc.obj
 0002:0000a918       ??_R4bad_alloc@std@@6B@    000000018002c918     LIBCMT:throw_bad_alloc.obj
 0002:0000a940       ??_R3bad_alloc@std@@8      000000018002c940     LIBCMT:throw_bad_alloc.obj
 0002:0000a958       ??_R2bad_alloc@std@@8      000000018002c958     LIBCMT:throw_bad_alloc.obj
 0002:0000a970       ??_R1A@?0A@EA@bad_alloc@std@@8 000000018002c970     LIBCMT:throw_bad_alloc.obj
 0002:0000a998       ??_R4bad_array_new_length@std@@6B@ 000000018002c998     LIBCMT:throw_bad_alloc.obj
 0002:0000a9c0       ??_R3bad_array_new_length@std@@8 000000018002c9c0     LIBCMT:throw_bad_alloc.obj
 0002:0000a9d8       ??_R2bad_array_new_length@std@@8 000000018002c9d8     LIBCMT:throw_bad_alloc.obj
 0002:0000a9f8       ??_R1A@?0A@EA@bad_array_new_length@std@@8 000000018002c9f8     LIBCMT:throw_bad_alloc.obj
 0002:0000aa20       ??_R4type_info@@6B@        000000018002ca20     LIBCMT:std_type_info_static.obj
 0002:0000aa48       ??_R3type_info@@8          000000018002ca48     LIBCMT:std_type_info_static.obj
 0002:0000aa60       ??_R2type_info@@8          000000018002ca60     LIBCMT:std_type_info_static.obj
 0002:0000aa70       ??_R1A@?0A@EA@type_info@@8 000000018002ca70     LIBCMT:std_type_info_static.obj
 0002:0000aa98       ??_R4bad_exception@std@@6B@ 000000018002ca98     libvcruntime:frame.obj
 0002:0000aac0       ??_R3bad_exception@std@@8  000000018002cac0     libvcruntime:frame.obj
 0002:0000aad8       ??_R2bad_exception@std@@8  000000018002cad8     libvcruntime:frame.obj
 0002:0000aaf0       ??_R1A@?0A@EA@bad_exception@std@@8 000000018002caf0     libvcruntime:frame.obj
 0002:0000af20       __rtc_iaa                  000000018002cf20     LIBCMT:initsect.obj
 0002:0000af28       __rtc_izz                  000000018002cf28     LIBCMT:initsect.obj
 0002:0000af30       __rtc_taa                  000000018002cf30     LIBCMT:initsect.obj
 0002:0000af38       __rtc_tzz                  000000018002cf38     LIBCMT:initsect.obj
 0002:0000af40       _tls_start                 000000018002cf40     LIBCMT:tlssup.obj
 0002:0000af44       _Init_thread_epoch         000000018002cf44     LIBCMT:thread_safe_statics.obj
 0002:0000af48       _tls_end                   000000018002cf48     LIBCMT:tlssup.obj
 0002:0000c568       _TI2?AVbad_alloc@std@@     000000018002e568     LIBCMT:throw_bad_alloc.obj
 0002:0000c588       _CTA2?AVbad_alloc@std@@    000000018002e588     LIBCMT:throw_bad_alloc.obj
 0002:0000c5a0       _CT??_R0?AVbad_alloc@std@@@8??0bad_alloc@std@@QEAA@AEBV01@@Z24 000000018002e5a0     LIBCMT:throw_bad_alloc.obj
 0002:0000c5c8       _CT??_R0?AVexception@std@@@8??0exception@std@@QEAA@AEBV01@@Z24 000000018002e5c8     LIBCMT:throw_bad_alloc.obj
 0002:0000c5f0       _TI3?AVbad_array_new_length@std@@ 000000018002e5f0     LIBCMT:throw_bad_alloc.obj
 0002:0000c610       _CTA3?AVbad_array_new_length@std@@ 000000018002e610     LIBCMT:throw_bad_alloc.obj
 0002:0000c630       _CT??_R0?AVbad_array_new_length@std@@@8??0bad_array_new_length@std@@QEAA@AEBV01@@Z24 000000018002e630     LIBCMT:throw_bad_alloc.obj
 0002:0000c658       _TI2?AVbad_exception@std@@ 000000018002e658     libvcruntime:frame.obj
 0002:0000c678       _CTA2?AVbad_exception@std@@ 000000018002e678     libvcruntime:frame.obj
 0002:0000c690       _CT??_R0?AVbad_exception@std@@@8??0bad_exception@std@@QEAA@AEBV01@@Z24 000000018002e690     libvcruntime:frame.obj
 0002:0000c6b8       __pobjMapEntryFirst        000000018002e6b8     OposVariant.obj
 0002:0000c6c0       __pobjMapEntryLast         000000018002e6c0     OposVariant.obj
 0002:0000c77c       __IMPORT_DESCRIPTOR_KERNEL32 000000018002e77c     kernel32:KERNEL32.dll
 0002:0000c790       __IMPORT_DESCRIPTOR_USER32 000000018002e790     user32:USER32.dll
 0002:0000c7a4       __IMPORT_DESCRIPTOR_GDI32  000000018002e7a4     gdi32:GDI32.dll
 0002:0000c7b8       __IMPORT_DESCRIPTOR_ADVAPI32 000000018002e7b8     advapi32:ADVAPI32.dll
 0002:0000c7cc       __IMPORT_DESCRIPTOR_ole32  000000018002e7cc     ole32:ole32.dll
 0002:0000c7e0       __IMPORT_DESCRIPTOR_OLEAUT32 000000018002e7e0     oleaut32:OLEAUT32.dll
 0002:0000c7f4       __NULL_IMPORT_DESCRIPTOR   000000018002e7f4     kernel32:KERNEL32.dll
 0003:00000000       ?wc@?1??GetWndClassInfo@?$CWindowImpl@VCOPOSSmartCardRW@@VCWindow@ATL@@V?$CWinTraits@$0FGAAAAAA@$0A@@3@@ATL@@SAAEAU_ATL_WNDCLASSINFOW@3@XZ@4U43@A 0000000180030000     SmartCardRW.obj
 0003:000000f8       ?rcDefault@CWindow@ATL@@2UtagRECT@@A 00000001800300f8     SmartCardRW.obj
 0003:00000108       ?_tih@?$IDispatchImpl@UIOPOSSmartCardRW@@$1?IID_IOPOSSmartCardRW@@3U_GUID@@B$1?LIBID_OposSmartCardRW_CCO@@3U3@B$00$0A@VCComTypeInfoHolder@ATL@@@ATL@@1VCComTypeInfoHolder@2@A 0000000180030108     SmartCardRW.obj
 0003:00000140       ?_tih@?$IProvideClassInfo2Impl@$1?CLSID_OPOSSmartCardRW@@3U_GUID@@B$1?DIID__IOPOSSmartCardRWEvents@@3U2@B$1?LIBID_OposSmartCardRW_CCO@@3U2@B$00$0A@VCComTypeInfoHolder@ATL@@@ATL@@1VCComTypeInfoHolder@2@A 0000000180030140     SmartCardRW.obj
 0003:00000178       ?vszContents@?6??Save@?$IPersistStorageImpl@VCOPOSSmartCardRW@@@ATL@@UEAAJPEAUIStorage@@H@Z@4PEB_WEB 0000000180030178     SmartCardRW.obj
 0003:00000180       ?s_Claim@?7??GetIDsOfNames@CComTypeInfoHolder@ATL@@QEAAJAEBU_GUID@@PEAPEA_WIKPEAJ@Z@4PA_WA 0000000180030180     SmartCardRW.obj
 0003:00000198       ?s_Release@?7??GetIDsOfNames@CComTypeInfoHolder@ATL@@QEAAJAEBU_GUID@@PEAPEA_WIKPEAJ@Z@4PA_WA 0000000180030198     SmartCardRW.obj
 0003:00000250       ?g_WindowName@@3PA_WA      0000000180030250     SmartCardRWImpl.obj
 0003:00000278       ?g_ControlDescription@@3PADA 0000000180030278     SmartCardRWImpl.obj
 0003:000002b0       ?g_ControlVersion@@3JA     00000001800302b0     SmartCardRWImpl.obj
 0003:0000039c       __scrt_native_dllmain_reason 000000018003039c     LIBCMT:utility.obj
 0003:000003a0       _Init_global_epoch         00000001800303a0     LIBCMT:thread_safe_statics.obj
 0003:000003b0       __security_cookie_complement 00000001800303b0     LIBCMT:gs_cookie.obj
 0003:000003b8       __security_cookie          00000001800303b8     LIBCMT:gs_cookie.obj
 0003:000003c0       __isa_available            00000001800303c0     LIBCMT:cpu_disp.obj
 0003:000003c4       __isa_enabled              00000001800303c4     LIBCMT:cpu_disp.obj
 0003:000003c8       __memcpy_nt_iters          00000001800303c8     LIBCMT:cpu_disp.obj
 0003:000003d0       __memset_nt_iters          00000001800303d0     LIBCMT:cpu_disp.obj
 0003:000003f8       __abort_behavior           00000001800303f8     libucrt:abort.obj
 0003:00000410       _iob                       0000000180030410     libucrt:_file.obj
 0003:00000520       __acrt_initial_locale_data 0000000180030520     libucrt:nlsdata.obj
 0003:00000678       __acrt_initial_locale_pointers 0000000180030678     libucrt:nlsdata.obj
 0003:00000688       __acrt_wide_c_locale_string 0000000180030688     libucrt:nlsdata.obj
 0003:00000690       __acrt_initial_multibyte_data 0000000180030690     libucrt:mbctype.obj
 0003:00000bd0       _pwctype                   0000000180030bd0     libucrt:ctype.obj
 0003:00000bd8       __globallocalestatus       0000000180030bd8     libucrt:glstatus.obj
 0003:00000be0       __acrt_lconv_c             0000000180030be0     libucrt:localeconv.obj
 0003:00000c78       __acrt_lconv_static_decimal 0000000180030c78     libucrt:localeconv.obj
 0003:00000c7c       __acrt_lconv_static_W_decimal 0000000180030c7c     libucrt:localeconv.obj
 0003:00000c80       _lookuptrailbytes          0000000180030c80     libucrt:read.obj
 0003:00000d94       _fltused                   0000000180030d94     LIBCMT:fltused.obj
 0003:00000d98       ??_R0?AVbad_alloc@std@@@8  0000000180030d98     LIBCMT:throw_bad_alloc.obj
 0003:00000dc0       ??_R0?AVexception@std@@@8  0000000180030dc0     LIBCMT:throw_bad_alloc.obj
 0003:00000de8       ??_R0?AVbad_array_new_length@std@@@8 0000000180030de8     LIBCMT:throw_bad_alloc.obj
 0003:00000e18       ??_R0?AVtype_info@@@8      0000000180030e18     LIBCMT:std_type_info_static.obj
 0003:00000e38       ??_R0?AVbad_exception@std@@@8 0000000180030e38     libvcruntime:frame.obj
 0003:00000e60       ?_pPerfRegFunc@ATL@@3P6AJPEAUHINSTANCE__@@@ZEA 0000000180030e60     OposVariant.obj
 0003:00000e68       ?_pPerfUnRegFunc@ATL@@3P6AJXZEA 0000000180030e68     OposVariant.obj
 0003:00000e70       ?_AtlRegisterPerUser@ATL@@3_NA 0000000180030e70     OposVariant.obj
 0003:00000e78       ?_pAtlModule@ATL@@3PEAVCAtlModule@1@EA 0000000180030e78     OposVariant.obj
 0003:00000e80       ?_pModule@ATL@@3PEAVCComModule@1@EA 0000000180030e80     OposVariant.obj
 0003:00000e88       ?m_bInitFailed@CAtlBaseModule@ATL@@2_NA 0000000180030e88     OposVariant.obj
 0003:00000e90       ?_AtlComModule@ATL@@3VCAtlComModule@1@A 0000000180030e90     OposVariant.obj
 0003:00000ee0       ?_AtlWinModule@ATL@@3VCAtlWinModule@1@A 0000000180030ee0     OposVariant.obj
 0003:00000f28       ?m_libid@CAtlModule@ATL@@2U_GUID@@A 0000000180030f28     SmartCardRW.obj
 0003:00000f38       ?_OptionsStorage@?1??__local_stdio_printf_options@@9@4_KA 0000000180030f38     SmartCardRW.obj
 0003:00000f40       ?_entries@?1??GetConnMap@COPOSSmartCardRW@@SAPEBU_ATL_CONNMAP_ENTRY@ATL@@PEAH@Z@4QBU34@B 0000000180030f40     SmartCardRW.obj
 0003:00000f58       ?$TSS0@?1??GetConnMap@COPOSSmartCardRW@@SAPEBU_ATL_CONNMAP_ENTRY@ATL@@PEAH@Z@4HA 0000000180030f58     SmartCardRW.obj
 0003:00000f60       ?pfnRegDeleteKeyEx@?1??DeleteSubKey@CRegKey@ATL@@QEAAJPEB_W@Z@4P6AJPEAUHKEY__@@0KK@ZEA 0000000180030f60     SmartCardRW.obj
 0003:00000f68       ?bInitialized@?1??DeleteSubKey@CRegKey@ATL@@QEAAJPEB_W@Z@4_NA 0000000180030f68     SmartCardRW.obj
 0003:00000f70       ?_Module@@3VCComModule@ATL@@A 0000000180030f70     SmartCardRW.obj
 0003:00000fc0       ?pConnMap@?$IConnectionPointContainerImpl@VCOPOSSmartCardRW@@@ATL@@0PEBU_ATL_CONNMAP_ENTRY@2@EB 0000000180030fc0     SmartCardRW.obj
 0003:00000fc8       ?s_nInstances@COPOSSmartCardRW@@1HA 0000000180030fc8     SmartCardRWImpl.obj
 0003:00000fd0       __scrt_current_native_startup_state 0000000180030fd0     LIBCMT:utility.obj
 0003:00000fd8       __scrt_native_startup_lock 0000000180030fd8     LIBCMT:utility.obj
 0003:000015d0       _tls_index                 00000001800315d0     LIBCMT:tlssup.obj
 0003:000015d8       __favor                    00000001800315d8     LIBCMT:cpu_disp.obj
 0003:000015dc       __scrt_debugger_hook_flag  00000001800315dc     LIBCMT:utility_desktop.obj
 0003:000015e0       ?__type_info_root_node@@3U__type_info_node@@A 00000001800315e0     LIBCMT:tncleanup.obj
 0003:000015f0       ?_OptionsStorage@?1??__local_stdio_scanf_options@@9@4_KA 00000001800315f0     LIBCMT:default_local_stdio_options.obj
 0003:00001600       ?_AtlBaseModule@ATL@@3VCAtlBaseModule@1@A 0000000180031600     atls:atlbase.obj
 0003:00001660       ?__AtlThunkPool@@3PEAT_SLIST_HEADER@@EA 0000000180031660     atls:atlthunk.obj
 0003:0000168c       __@@_PchSym_@00@UztvmgUPdlipUDUhUrmgvinvwrzgvUexgllohUzgohOmzgrevkilqPBACIAJCBDBUlyqiUznwGEUhgwzucOlyq@4B2008FD98C1DD4 000000018003168c     atls:stdafx.obj
 0003:00001690       __pPurecall                0000000180031690     libvcruntime:purevirt_data.obj
 0003:00001750       ?__WinRTOutOfMemoryExceptionCallback@@3P6APEAXXZEA 0000000180031750     libvcruntime:ehhelpers.obj
 0003:00001758       ?pArgList@UnDecorator@@0PEAVReplicator@@EA 0000000180031758     libvcruntime:undname.obj
 0003:00001760       ?pZNameList@UnDecorator@@0PEAVReplicator@@EA 0000000180031760     libvcruntime:undname.obj
 0003:00001768       ?pTemplateArgList@UnDecorator@@0PEAVReplicator@@EA 0000000180031768     libvcruntime:undname.obj
 0003:00001770       ?gName@UnDecorator@@0PEBDEB 0000000180031770     libvcruntime:undname.obj
 0003:00001778       ?name@UnDecorator@@0PEBDEB 0000000180031778     libvcruntime:undname.obj
 0003:00001780       ?disableFlags@UnDecorator@@0KA 0000000180031780     libvcruntime:undname.obj
 0003:00001784       ?fExplicitTemplateParams@UnDecorator@@0_NA 0000000180031784     libvcruntime:undname.obj
 0003:00001785       ?fGetTemplateArgumentList@UnDecorator@@0_NA 0000000180031785     libvcruntime:undname.obj
 0003:00001788       ?m_pGetParameter@UnDecorator@@0P6APEADJ@ZEA 0000000180031788     libvcruntime:undname.obj
 0003:00001790       ?m_CHPENameOffset@UnDecorator@@0KA 0000000180031790     libvcruntime:undname.obj
 0003:00001794       ?m_recursionLevel@UnDecorator@@0KA 0000000180031794     libvcruntime:undname.obj
 0003:00001818       ?c_exit_complete@?1???R<lambda_6e4b09c48022b2350581041d5f6b0c4c>@@QEBA@XZ@4_NA 0000000180031818     libucrt:exit.obj
 0003:00001928       _environ_table             0000000180031928     libucrt:environment_initialization.obj
 0003:00001930       _wenviron_table            0000000180031930     libucrt:environment_initialization.obj
 0003:00001938       __dcrt_initial_wide_environment 0000000180031938     libucrt:environment_initialization.obj
 0003:00001940       __dcrt_initial_narrow_environment 0000000180031940     libucrt:environment_initialization.obj
 0003:00001948       __acrt_atexit_table        0000000180031948     libucrt:onexit.obj
 0003:00001960       __acrt_at_quick_exit_table 0000000180031960     libucrt:onexit.obj
 0003:00001b38       _nstream                   0000000180031b38     libucrt:_file.obj
 0003:00001b40       __piob                     0000000180031b40     libucrt:_file.obj
 0003:00001b50       __acrt_stdout_buffer       0000000180031b50     libucrt:_sftbuf.obj
 0003:00001b58       __acrt_stderr_buffer       0000000180031b58     libucrt:_sftbuf.obj
 0003:00001b60       __acrt_locale_changed_data 0000000180031b60     libucrt:wsetlocale.obj
 0003:00001b68       __acrt_current_locale_data 0000000180031b68     libucrt:nlsdata.obj
 0003:00001b70       __pioinfo                  0000000180031b70     libucrt:ioinit.obj
 0003:00001f70       _nhandle                   0000000180031f70     libucrt:ioinit.obj
 0003:000021b8       _mbctype                   00000001800321b8     libucrt:mbctype.obj
 0003:000021c0       _mbcasemap                 00000001800321c0     libucrt:mbctype.obj
 0003:000021c8       __acrt_current_multibyte_data 00000001800321c8     libucrt:mbctype.obj
 0003:000021d8       _pgmptr                    00000001800321d8     libucrt:argv_data.obj
 0003:000021e0       __argc                     00000001800321e0     libucrt:argv_data.obj
 0003:000021e8       __argv                     00000001800321e8     libucrt:argv_data.obj
 0003:000021f0       __wargv                    00000001800321f0     libucrt:argv_data.obj
 0003:000021f8       _acmdln                    00000001800321f8     libucrt:argv_data.obj
 0003:00002200       _wcmdln                    0000000180032200     libucrt:argv_data.obj
 0003:00002208       __acrt_heap                0000000180032208     libucrt:heap_handle.obj
 0003:0000223c       __acrt_lconv_static_null   000000018003223c     libucrt:localeconv.obj
 0003:00002240       __acrt_lconv_static_W_null 0000000180032240     libucrt:localeconv.obj
 0003:00002254       __fma3_is_available        0000000180032254     libucrt:fma3_available.obj
 0003:00002258       __use_fma3_lib             0000000180032258     libucrt:fma3_available.obj
 0003:00002260       __dyn_tls_init_callback    0000000180032260     <common>
 0003:00002268       __scrt_ucrt_dll_is_in_use  0000000180032268     <common>

 entry point at        0001:0000ef74

 Static symbols

 0000:fffc4000       .debug$S                   0000000180000000     kernel32:KERNEL32.dll
 0000:fffc4000       .debug$S                   0000000180000000     user32:USER32.dll
 0000:fffc4000       .debug$S                   0000000180000000     user32:USER32.dll
 0000:fffc4000       .debug$S                   0000000180000000     ole32:ole32.dll
 0000:fffc4000       .debug$S                   0000000180000000     ole32:ole32.dll
 0000:fffc4000       .debug$S                   0000000180000000     user32:USER32.dll
 0000:fffc4000       .debug$S                   0000000180000000     user32:USER32.dll
 0000:fffc4000       .debug$S                   0000000180000000     user32:USER32.dll
 0000:fffc4000       .debug$S                   0000000180000000     user32:USER32.dll
 0000:fffc4000       .debug$S                   0000000180000000     user32:USER32.dll
 0000:fffc4000       .debug$S                   0000000180000000     user32:USER32.dll
 0000:fffc4000       .debug$S                   0000000180000000     user32:USER32.dll
 0000:fffc4000       .debug$S                   0000000180000000     user32:USER32.dll
 0000:fffc4000       .debug$S                   0000000180000000     user32:USER32.dll
 0000:fffc4000       .debug$S                   0000000180000000     user32:USER32.dll
 0000:fffc4000       .debug$S                   0000000180000000     OPOSSmartCardRW.exp
 0000:fffc4000       .debug$S                   0000000180000000     ole32:ole32.dll
 0000:fffc4000       .debug$S                   0000000180000000     kernel32:KERNEL32.dll
 0000:fffc4000       .debug$S                   0000000180000000     ole32:ole32.dll
 0000:fffc4000       .debug$S                   0000000180000000     user32:USER32.dll
 0000:fffc4000       .debug$S                   0000000180000000     user32:USER32.dll
 0000:fffc4000       .debug$S                   0000000180000000     ole32:ole32.dll
 0000:fffc4000       .debug$S                   0000000180000000     user32:USER32.dll
 0000:fffc4000       .debug$S                   0000000180000000     kernel32:KERNEL32.dll
 0000:fffc4000       .debug$S                   0000000180000000     kernel32:KERNEL32.dll
 0000:fffc4000       .debug$S                   0000000180000000     kernel32:KERNEL32.dll
 0000:fffc4000       .debug$S                   0000000180000000     kernel32:KERNEL32.dll
 0000:fffc4000       .debug$S                   0000000180000000     kernel32:KERNEL32.dll
 0000:fffc4000       .debug$S                   0000000180000000     kernel32:KERNEL32.dll
 0000:fffc4000       .debug$S                   0000000180000000     kernel32:KERNEL32.dll
 0000:fffc4000       .debug$S                   0000000180000000     kernel32:KERNEL32.dll
 0000:fffc4000       .debug$S                   0000000180000000     kernel32:KERNEL32.dll
 0000:fffc4000       .debug$S                   0000000180000000     kernel32:KERNEL32.dll
 0000:fffc4000       .debug$S                   0000000180000000     kernel32:KERNEL32.dll
 0000:fffc4000       .debug$S                   0000000180000000     kernel32:KERNEL32.dll
 0000:fffc4000       .debug$S                   0000000180000000     kernel32:KERNEL32.dll
 0000:fffc4000       .debug$S                   0000000180000000     kernel32:KERNEL32.dll
 0000:fffc4000       .debug$S                   0000000180000000     kernel32:KERNEL32.dll
 0000:fffc4000       .debug$S                   0000000180000000     kernel32:KERNEL32.dll
 0000:fffc4000       .debug$S                   0000000180000000     kernel32:KERNEL32.dll
 0000:fffc4000       .debug$S                   0000000180000000     kernel32:KERNEL32.dll
 0000:fffc4000       .debug$S                   0000000180000000     kernel32:KERNEL32.dll
 0000:fffc4000       .debug$S                   0000000180000000     kernel32:KERNEL32.dll
 0000:fffc4000       .debug$S                   0000000180000000     kernel32:KERNEL32.dll
 0000:fffc4000       .debug$S                   0000000180000000     kernel32:KERNEL32.dll
 0000:fffc4000       .debug$S                   0000000180000000     kernel32:KERNEL32.dll
 0000:fffc4000       .debug$S                   0000000180000000     kernel32:KERNEL32.dll
 0000:fffc4000       .debug$S                   0000000180000000     kernel32:KERNEL32.dll
 0000:fffc4000       .debug$S                   0000000180000000     kernel32:KERNEL32.dll
 0000:fffc4000       .debug$S                   0000000180000000     kernel32:KERNEL32.dll
 0000:fffc4000       .debug$S                   0000000180000000     kernel32:KERNEL32.dll
 0000:fffc4000       .debug$S                   0000000180000000     kernel32:KERNEL32.dll
 0000:fffc4000       .debug$S                   0000000180000000     kernel32:KERNEL32.dll
 0000:fffc4000       .debug$S                   0000000180000000     kernel32:KERNEL32.dll
 0000:fffc4000       .debug$S                   0000000180000000     kernel32:KERNEL32.dll
 0000:fffc4000       .debug$S                   0000000180000000     kernel32:KERNEL32.dll
 0000:fffc4000       .debug$S                   0000000180000000     kernel32:KERNEL32.dll
 0000:fffc4000       .debug$S                   0000000180000000     kernel32:KERNEL32.dll
 0000:fffc4000       .debug$S                   0000000180000000     kernel32:KERNEL32.dll
 0000:fffc4000       .debug$S                   0000000180000000     kernel32:KERNEL32.dll
 0000:fffc4000       .debug$S                   0000000180000000     kernel32:KERNEL32.dll
 0000:fffc4000       .debug$S                   0000000180000000     kernel32:KERNEL32.dll
 0000:fffc4000       .debug$S                   0000000180000000     kernel32:KERNEL32.dll
 0000:fffc4000       .debug$S                   0000000180000000     kernel32:KERNEL32.dll
 0000:fffc4000       .debug$S                   0000000180000000     kernel32:KERNEL32.dll
 0000:fffc4000       .debug$S                   0000000180000000     kernel32:KERNEL32.dll
 0000:fffc4000       .debug$S                   0000000180000000     kernel32:KERNEL32.dll
 0000:fffc4000       .debug$S                   0000000180000000     kernel32:KERNEL32.dll
 0000:fffc4000       .debug$S                   0000000180000000     oleaut32:OLEAUT32.dll
 0000:fffc4000       .debug$S                   0000000180000000     kernel32:KERNEL32.dll
 0000:fffc4000       .debug$S                   0000000180000000     kernel32:KERNEL32.dll
 0000:fffc4000       .debug$S                   0000000180000000     kernel32:KERNEL32.dll
 0000:fffc4000       .debug$S                   0000000180000000     kernel32:KERNEL32.dll
 0000:fffc4000       .debug$S                   0000000180000000     kernel32:KERNEL32.dll
 0000:fffc4000       .debug$S                   0000000180000000     kernel32:KERNEL32.dll
 0000:fffc4000       .debug$S                   0000000180000000     kernel32:KERNEL32.dll
 0000:fffc4000       .debug$S                   0000000180000000     kernel32:KERNEL32.dll
 0000:fffc4000       .debug$S                   0000000180000000     kernel32:KERNEL32.dll
 0000:fffc4000       .debug$S                   0000000180000000     kernel32:KERNEL32.dll
 0000:fffc4000       .debug$S                   0000000180000000     kernel32:KERNEL32.dll
 0000:fffc4000       .debug$S                   0000000180000000     kernel32:KERNEL32.dll
 0000:fffc4000       .debug$S                   0000000180000000     kernel32:KERNEL32.dll
 0000:fffc4000       .debug$S                   0000000180000000     kernel32:KERNEL32.dll
 0000:fffc4000       .debug$S                   0000000180000000     kernel32:KERNEL32.dll
 0000:fffc4000       .debug$S                   0000000180000000     kernel32:KERNEL32.dll
 0000:fffc4000       .debug$S                   0000000180000000     kernel32:KERNEL32.dll
 0000:fffc4000       .debug$S                   0000000180000000     kernel32:KERNEL32.dll
 0000:fffc4000       .debug$S                   0000000180000000     kernel32:KERNEL32.dll
 0000:fffc4000       .debug$S                   0000000180000000     kernel32:KERNEL32.dll
 0000:fffc4000       .debug$S                   0000000180000000     kernel32:KERNEL32.dll
 0000:fffc4000       .debug$S                   0000000180000000     kernel32:KERNEL32.dll
 0000:fffc4000       .debug$S                   0000000180000000     kernel32:KERNEL32.dll
 0000:fffc4000       .debug$S                   0000000180000000     kernel32:KERNEL32.dll
 0000:fffc4000       .debug$S                   0000000180000000     kernel32:KERNEL32.dll
 0000:fffc4000       .debug$S                   0000000180000000     kernel32:KERNEL32.dll
 0000:fffc4000       .debug$S                   0000000180000000     kernel32:KERNEL32.dll
 0000:fffc4000       .debug$S                   0000000180000000     kernel32:KERNEL32.dll
 0000:fffc4000       .debug$S                   0000000180000000     kernel32:KERNEL32.dll
 0000:fffc4000       .debug$S                   0000000180000000     ole32:ole32.dll
 0000:fffc4000       .debug$S                   0000000180000000     user32:USER32.dll
 0000:fffc4000       .debug$S                   0000000180000000     ole32:ole32.dll
 0000:fffc4000       .debug$S                   0000000180000000     user32:USER32.dll
 0000:fffc4000       .debug$S                   0000000180000000     ole32:ole32.dll
 0000:fffc4000       .debug$S                   0000000180000000     user32:USER32.dll
 0000:fffc4000       .debug$S                   0000000180000000     kernel32:KERNEL32.dll
 0000:fffc4000       .debug$S                   0000000180000000     ole32:ole32.dll
 0000:fffc4000       .debug$S                   0000000180000000     kernel32:KERNEL32.dll
 0000:fffc4000       .debug$S                   0000000180000000     user32:USER32.dll
 0000:fffc4000       .debug$S                   0000000180000000     ole32:ole32.dll
 0000:fffc4000       .debug$S                   0000000180000000     ole32:ole32.dll
 0000:fffc4000       .debug$S                   0000000180000000     kernel32:KERNEL32.dll
 0000:fffc4000       .debug$S                   0000000180000000     ole32:ole32.dll
 0000:fffc4000       .debug$S                   0000000180000000     kernel32:KERNEL32.dll
 0000:fffc4000       .debug$S                   0000000180000000     advapi32:ADVAPI32.dll
 0000:fffc4000       .debug$S                   0000000180000000     kernel32:KERNEL32.dll
 0000:fffc4000       .debug$S                   0000000180000000     ole32:ole32.dll
 0000:fffc4000       .debug$S                   0000000180000000     ole32:ole32.dll
 0000:fffc4000       .debug$S                   0000000180000000     oleaut32:OLEAUT32.dll
 0000:fffc4000       .debug$S                   0000000180000000     oleaut32:OLEAUT32.dll
 0000:fffc4000       .debug$S                   0000000180000000     advapi32:ADVAPI32.dll
 0000:fffc4000       .debug$S                   0000000180000000     kernel32:KERNEL32.dll
 0000:fffc4000       .debug$S                   0000000180000000     advapi32:ADVAPI32.dll
 0000:fffc4000       .debug$S                   0000000180000000     kernel32:KERNEL32.dll
 0000:fffc4000       .debug$S                   0000000180000000     advapi32:ADVAPI32.dll
 0000:fffc4000       .debug$S                   0000000180000000     kernel32:KERNEL32.dll
 0000:fffc4000       .debug$S                   0000000180000000     advapi32:ADVAPI32.dll
 0000:fffc4000       .debug$S                   0000000180000000     advapi32:ADVAPI32.dll
 0000:fffc4000       .debug$S                   0000000180000000     kernel32:KERNEL32.dll
 0000:fffc4000       .debug$S                   0000000180000000     advapi32:ADVAPI32.dll
 0000:fffc4000       .debug$S                   0000000180000000     kernel32:KERNEL32.dll
 0000:fffc4000       .debug$S                   0000000180000000     advapi32:ADVAPI32.dll
 0000:fffc4000       .debug$S                   0000000180000000     kernel32:KERNEL32.dll
 0000:fffc4000       .debug$S                   0000000180000000     oleaut32:OLEAUT32.dll
 0000:fffc4000       .debug$S                   0000000180000000     kernel32:KERNEL32.dll
 0000:fffc4000       .debug$S                   0000000180000000     advapi32:ADVAPI32.dll
 0000:fffc4000       .debug$S                   0000000180000000     oleaut32:OLEAUT32.dll
 0000:fffc4000       .debug$S                   0000000180000000     gdi32:GDI32.dll
 0000:fffc4000       .debug$S                   0000000180000000     kernel32:KERNEL32.dll
 0000:fffc4000       .debug$S                   0000000180000000     gdi32:GDI32.dll
 0000:fffc4000       .debug$S                   0000000180000000     kernel32:KERNEL32.dll
 0000:fffc4000       .debug$S                   0000000180000000     gdi32:GDI32.dll
 0000:fffc4000       .debug$S                   0000000180000000     oleaut32:OLEAUT32.dll
 0000:fffc4000       .debug$S                   0000000180000000     kernel32:KERNEL32.dll
 0000:fffc4000       .debug$S                   0000000180000000     oleaut32:OLEAUT32.dll
 0000:fffc4000       .debug$S                   0000000180000000     kernel32:KERNEL32.dll
 0000:fffc4000       .debug$S                   0000000180000000     oleaut32:OLEAUT32.dll
 0000:fffc4000       .debug$S                   0000000180000000     kernel32:KERNEL32.dll
 0000:fffc4000       .debug$S                   0000000180000000     oleaut32:OLEAUT32.dll
 0000:fffc4000       .debug$S                   0000000180000000     kernel32:KERNEL32.dll
 0000:fffc4000       .debug$S                   0000000180000000     oleaut32:OLEAUT32.dll
 0000:fffc4000       .debug$S                   0000000180000000     oleaut32:OLEAUT32.dll
 0000:fffc4000       .debug$S                   0000000180000000     oleaut32:OLEAUT32.dll
 0000:fffc4000       .debug$S                   0000000180000000     kernel32:KERNEL32.dll
 0000:fffc4000       .debug$S                   0000000180000000     oleaut32:OLEAUT32.dll
 0000:fffc4000       .debug$S                   0000000180000000     kernel32:KERNEL32.dll
 0000:fffc4000       .debug$S                   0000000180000000     oleaut32:OLEAUT32.dll
 0000:fffc4000       .debug$S                   0000000180000000     kernel32:KERNEL32.dll
 0000:fffc4000       .debug$S                   0000000180000000     oleaut32:OLEAUT32.dll
 0000:fffc4000       .debug$S                   0000000180000000     oleaut32:OLEAUT32.dll
 0000:fffc4000       .debug$S                   0000000180000000     kernel32:KERNEL32.dll
 0000:fffc4000       .debug$S                   0000000180000000     user32:USER32.dll
 0000:fffc4000       .debug$S                   0000000180000000     kernel32:KERNEL32.dll
 0000:fffc4000       .debug$S                   0000000180000000     kernel32:KERNEL32.dll
 0000:fffc4000       .debug$S                   0000000180000000     kernel32:KERNEL32.dll
 0000:fffc4000       .debug$S                   0000000180000000     gdi32:GDI32.dll
 0000:fffc4000       .debug$S                   0000000180000000     gdi32:GDI32.dll
 0000:fffc4000       .debug$S                   0000000180000000     gdi32:GDI32.dll
 0000:fffc4000       .debug$S                   0000000180000000     gdi32:GDI32.dll
 0000:fffc4000       .debug$S                   0000000180000000     gdi32:GDI32.dll
 0000:fffc4000       .debug$S                   0000000180000000     gdi32:GDI32.dll
 0000:fffc4000       .debug$S                   0000000180000000     gdi32:GDI32.dll
 0000:fffc4000       .debug$S                   0000000180000000     gdi32:GDI32.dll
 0000:fffc4000       .debug$S                   0000000180000000     gdi32:GDI32.dll
 0000:fffc4000       .debug$S                   0000000180000000     gdi32:GDI32.dll
 0000:fffc4000       .debug$S                   0000000180000000     gdi32:GDI32.dll
 0000:fffc4000       .debug$S                   0000000180000000     gdi32:GDI32.dll
 0000:fffc4000       .debug$S                   0000000180000000     gdi32:GDI32.dll
 0000:fffc4000       .debug$S                   0000000180000000     gdi32:GDI32.dll
 0000:fffc4000       .debug$S                   0000000180000000     gdi32:GDI32.dll
 0000:fffc4000       .debug$S                   0000000180000000     gdi32:GDI32.dll
 0000:fffc4000       .debug$S                   0000000180000000     user32:USER32.dll
 0000:fffc4000       .debug$S                   0000000180000000     user32:USER32.dll
 0000:fffc4000       .debug$S                   0000000180000000     user32:USER32.dll
 0000:fffc4000       .debug$S                   0000000180000000     user32:USER32.dll
 0000:fffc4000       .debug$S                   0000000180000000     user32:USER32.dll
 0000:fffc4000       .debug$S                   0000000180000000     user32:USER32.dll
 0000:fffc4000       .debug$S                   0000000180000000     user32:USER32.dll
 0000:fffc4000       .debug$S                   0000000180000000     user32:USER32.dll
 0000:fffc4000       .debug$S                   0000000180000000     user32:USER32.dll
 0000:fffc4000       .debug$S                   0000000180000000     user32:USER32.dll
 0000:fffc4000       .debug$S                   0000000180000000     user32:USER32.dll
 0000:fffc4000       .debug$S                   0000000180000000     kernel32:KERNEL32.dll
 0000:fffc4000       .debug$S                   0000000180000000     kernel32:KERNEL32.dll
 0000:fffc4000       .debug$S                   0000000180000000     user32:USER32.dll
 0000:fffc4000       .debug$S                   0000000180000000     kernel32:KERNEL32.dll
 0000:fffc4000       .debug$S                   0000000180000000     user32:USER32.dll
 0000:fffc4000       .debug$S                   0000000180000000     kernel32:KERNEL32.dll
 0000:fffc4000       .debug$S                   0000000180000000     kernel32:KERNEL32.dll
 0000:fffc4000       .debug$S                   0000000180000000     user32:USER32.dll
 0000:fffc4000       .debug$S                   0000000180000000     kernel32:KERNEL32.dll
 0000:fffc4000       .debug$S                   0000000180000000     kernel32:KERNEL32.dll
 0000:fffc4000       .debug$S                   0000000180000000     kernel32:KERNEL32.dll
 0000:fffc4000       .debug$S                   0000000180000000     kernel32:KERNEL32.dll
 0000:fffc4000       .debug$S                   0000000180000000     kernel32:KERNEL32.dll
 0000:fffc4000       .debug$S                   0000000180000000     user32:USER32.dll
 0001:00000000       ??__E_AtlComModule@ATL@@YAXXZ 0000000180001000 f   OposVariant.obj
 0001:00000020       ??__E_AtlWinModule@ATL@@YAXXZ 0000000180001020 f   OposVariant.obj
 0001:00000040       ??__E?pConnMap@?$IConnectionPointContainerImpl@VCOPOSSmartCardRW@@@ATL@@0PEBU_ATL_CONNMAP_ENTRY@2@EB@@YAXXZ 0000000180001040 f   SmartCardRW.obj
 0001:00000058       ??__E_Module@@YAXXZ        0000000180001058 f   SmartCardRW.obj
 0001:00000094       ??__E_AtlBaseModule@ATL@@YAXXZ 0000000180001094 f   atls:atlbase.obj
 0001:0000bb88       memcpy_s                   000000018000cb88 f   libucrt:cfout.obj
 0001:0000bb88       memcpy_s                   000000018000cb88 f   SmartCardRW.obj
 0001:0000e578       ?__scrt_initialize_thread_safe_statics@@YAHXZ 000000018000f578 f   LIBCMT:thread_safe_statics.obj
 0001:0000e648       ?__scrt_uninitialize_thread_safe_statics@@YAXXZ 000000018000f648 f   LIBCMT:thread_safe_statics.obj
 0001:0000e998       capture_current_context    000000018000f998 f   LIBCMT:gs_report.obj
 0001:0000ea08       capture_previous_context   000000018000fa08 f   LIBCMT:gs_report.obj
 0001:0000ebb0       $$000000                   000000018000fbb0     LIBCMT:chkstk.obj
 0001:0000ec20       $$000000                   000000018000fc20     LIBCMT:amdsecgs.obj
 0001:0000ec54       ?dllmain_crt_dispatch@@YAHQEAUHINSTANCE__@@KQEAX@Z 000000018000fc54 f   LIBCMT:dll_dllmain.obj
 0001:0000eca4       ?dllmain_crt_process_attach@@YAHQEAUHINSTANCE__@@QEAX@Z 000000018000fca4 f   LIBCMT:dll_dllmain.obj
 0001:0000edbc       ?dllmain_crt_process_detach@@YAH_N@Z 000000018000fdbc f   LIBCMT:dll_dllmain.obj
 0001:0000ee40       ?dllmain_dispatch@@YAHQEAUHINSTANCE__@@KQEAX@Z 000000018000fe40 f   LIBCMT:dll_dllmain.obj
 0001:0000f6d8       ??$GetProcAddressAll@P6APEAUAtlThunkData_t@@XZ@@YAP6APEAUAtlThunkData_t@@XZPEAP6APEAU0@XZ@Z 00000001800106d8 f   atls:atlthunk.obj
 0001:0000f6d8       ??$GetProcAddressAll@P6AXPEAUAtlThunkData_t@@PEAX_K@Z@@YAP6AXPEAUAtlThunkData_t@@PEAX_K@ZPEAP6AX012@Z@Z 00000001800106d8 f   atls:atlthunk.obj
 0001:0000f6d8       ??$GetProcAddressAll@P6AXPEAUAtlThunkData_t@@@Z@@YAP6AXPEAUAtlThunkData_t@@@ZPEAP6AX0@Z@Z 00000001800106d8 f   atls:atlthunk.obj
 0001:0000f6d8       ??$GetProcAddressAll@P6AP6A_JPEAUHWND__@@I_K_J@ZPEAUAtlThunkData_t@@@Z@@YAP6AP6A_JPEAUHWND__@@I_K_J@ZPEAUAtlThunkData_t@@@ZPEAP6AP6A_J0I12@Z3@Z@Z 00000001800106d8 f   atls:atlthunk.obj
 0001:0000f8b0       ?__InitializeThunkPool@@YAHXZ 00000001800108b0 f   atls:atlthunk.obj
 0001:0000fd40       $$000000                   0000000180010d40     libvcruntime:memcmp.obj
 0001:0000fe20       $$000000                   0000000180010e20     libvcruntime:memcpy.obj
 0001:00010230       $$000000                   0000000180011230     libvcruntime:memset.obj
 0001:00011040       $$000000                   0000000180012040     libvcruntime:notify.obj
 0001:000112e0       ??$BuildCatchObjectHelperInternal@V__FrameHandler3@@@@YAHPEAUEHExceptionRecord@@PEAXPEBU_s_HandlerType@@PEBU_s_CatchableType@@@Z 00000001800122e0 f   libvcruntime:frame.obj
 0001:000114e0       ??$BuildCatchObjectInternal@V__FrameHandler3@@@@YAXPEAUEHExceptionRecord@@PEAXPEBU_s_HandlerType@@PEBU_s_CatchableType@@@Z 00000001800124e0 f   libvcruntime:frame.obj
 0001:000115a0       ??$CatchIt@V__FrameHandler3@@@@YAXPEAUEHExceptionRecord@@PEA_KPEAU_CONTEXT@@PEAU_xDISPATCHER_CONTEXT@@PEBU_s_FuncInfo@@PEBU_s_HandlerType@@PEBU_s_CatchableType@@PEBU_s_TryBlockMapEntry@@H1EE@Z 00000001800125a0 f   libvcruntime:frame.obj
 0001:00011674       ??$FindHandler@V__FrameHandler3@@@@YAXPEAUEHExceptionRecord@@PEA_KPEAU_CONTEXT@@PEAU_xDISPATCHER_CONTEXT@@PEBU_s_FuncInfo@@EH1@Z 0000000180012674 f   libvcruntime:frame.obj
 0001:00011b50       ??$FindHandlerForForeignException@V__FrameHandler3@@@@YAXPEAUEHExceptionRecord@@PEA_KPEAU_CONTEXT@@PEAU_xDISPATCHER_CONTEXT@@PEBU_s_FuncInfo@@HH1@Z 0000000180012b50 f   libvcruntime:frame.obj
 0001:00012338       ?ExFilterRethrow@@YAHPEAU_EXCEPTION_POINTERS@@PEAUEHExceptionRecord@@PEAH@Z 0000000180013338 f   libvcruntime:frame.obj
 0001:000125e4       ?IsInExceptionSpec@@YAEPEAUEHExceptionRecord@@PEBU_s_ESTypeList@@@Z 00000001800135e4 f   libvcruntime:frame.obj
 0001:000126d4       ?Is_bad_exception_allowed@@YAEPEBU_s_ESTypeList@@@Z 00000001800136d4 f   libvcruntime:frame.obj
 0001:00012778       ?try_get_function@@YAPEAXW4function_id@?A0x656504f9@@QEBDQEBW4module_id@2@2@Z 0000000180013778 f   libvcruntime:winapi_downlevel.obj
 0001:00012a70       $$000000                   0000000180013a70     libvcruntime:handlers.obj
 0001:00013288       ??$common_vsprintf@Vformat_validation_base@__crt_stdio_output@@_W@@YAH_KQEA_W0QEB_WQEAU__crt_locale_pointers@@QEAD@Z 0000000180014288 f   libucrt:output.obj
 0001:00014ab8       ??$?RV<lambda_d80eeec6fff315bfe5c115232f3240e3>@@AEAV<lambda_6e4b09c48022b2350581041d5f6b0c4c>@@V<lambda_2358e3775559c9db80273638284d5e45>@@@?$__crt_seh_guarded_call@X@@QEAAX$$QEAV<lambda_d80eeec6fff315bfe5c115232f3240e3>@@AEAV<lambda_6e4b09c48022b2350581041d5f6b0c4c>@@$$QEAV<lambda_2358e3775559c9db80273638284d5e45>@@@Z 0000000180015ab8 f   libucrt:exit.obj
 0001:00014af0       ??R<lambda_6e4b09c48022b2350581041d5f6b0c4c>@@QEBA@XZ 0000000180015af0 f   libucrt:exit.obj
 0001:00014bb4       ?atexit_exception_filter@@YAHK@Z 0000000180015bb4 f   libucrt:exit.obj
 0001:00014bc0       ?common_exit@@YAXHW4_crt_exit_cleanup_mode@@W4_crt_exit_return_mode@@@Z 0000000180015bc0 f   libucrt:exit.obj
 0001:00014c7c       ?exit_or_terminate_process@@YAXI@Z 0000000180015c7c f   libucrt:exit.obj
 0001:00014cc8       ?try_cor_exit_process@@YAXI@Z 0000000180015cc8 f   libucrt:exit.obj
 0001:00014d50       ??$parse_command_line@D@@YAXPEADPEAPEAD0PEA_K2@Z 0000000180015d50 f   libucrt:argv_parsing.obj
 0001:000150fc       ??$common_initialize_environment_nolock@D@@YAHXZ 00000001800160fc f   libucrt:environment_initialization.obj
 0001:00015168       ??$create_environment@D@@YAQEAPEADQEAD@Z 0000000180016168 f   libucrt:environment_initialization.obj
 0001:00015270       ??$free_environment@D@@YAXQEAPEAD@Z 0000000180016270 f   libucrt:environment_initialization.obj
 0001:00015270       ??$free_environment@_W@@YAXQEAPEA_W@Z 0000000180016270 f   libucrt:environment_initialization.obj
 0001:000152b4       ??$uninitialize_environment_internal@D@@YAXAEAPEAPEAD@Z 00000001800162b4 f   libucrt:environment_initialization.obj
 0001:000152d0       ??$uninitialize_environment_internal@_W@@YAXAEAPEAPEA_W@Z 00000001800162d0 f   libucrt:environment_initialization.obj
 0001:0001532c       ??$?RV<lambda_638799b9deba96c50f710eeac98168cd>@@AEAV<lambda_22ebabd17bc4fa466a2aca6d8deb888d>@@V<lambda_a6f7d7db0129f75315ebf26d50c089f1>@@@?$__crt_seh_guarded_call@H@@QEAAH$$QEAV<lambda_638799b9deba96c50f710eeac98168cd>@@AEAV<lambda_22ebabd17bc4fa466a2aca6d8deb888d>@@$$QEAV<lambda_a6f7d7db0129f75315ebf26d50c089f1>@@@Z 000000018001632c f   libucrt:onexit.obj
 0001:00015368       ??$?RV<lambda_7777bce6b2f8c936911f934f8298dc43>@@AEAV<lambda_f03950bc5685219e0bcd2087efbe011e>@@V<lambda_3883c3dff614d5e0c5f61bb1ac94921c>@@@?$__crt_seh_guarded_call@H@@QEAAH$$QEAV<lambda_7777bce6b2f8c936911f934f8298dc43>@@AEAV<lambda_f03950bc5685219e0bcd2087efbe011e>@@$$QEAV<lambda_3883c3dff614d5e0c5f61bb1ac94921c>@@@Z 0000000180016368 f   libucrt:onexit.obj
 0001:000153a4       ??R<lambda_22ebabd17bc4fa466a2aca6d8deb888d>@@QEBAHXZ 00000001800163a4 f   libucrt:onexit.obj
 0001:00015554       ??R<lambda_f03950bc5685219e0bcd2087efbe011e>@@QEBAHXZ 0000000180016554 f   libucrt:onexit.obj
 0001:00015728       initialize_global_variables 0000000180016728 f   libucrt:initialization.obj
 0001:0001573c       initialize_c               000000018001673c f   libucrt:initialization.obj
 0001:00015760       initialize_global_state_isolation 0000000180016760 f   libucrt:initialization.obj
 0001:00015760       initialize_environment     0000000180016760 f   libucrt:initialization.obj
 0001:00015760       report_memory_leaks        0000000180016760 f   libucrt:initialization.obj
 0001:00015760       uninitialize_global_state_isolation 0000000180016760 f   libucrt:initialization.obj
 0001:00015760       uninitialize_c             0000000180016760 f   libucrt:initialization.obj
 0001:00015764       uninitialize_environment   0000000180016764 f   libucrt:initialization.obj
 0001:00015774       initialize_pointers        0000000180016774 f   libucrt:initialization.obj
 0001:000157b4       uninitialize_vcruntime     00000001800167b4 f   libucrt:initialization.obj
 0001:000157bc       uninitialize_allocated_memory 00000001800167bc f   libucrt:initialization.obj
 0001:000157fc       uninitialize_allocated_io_buffers 00000001800167fc f   libucrt:initialization.obj
 0001:00016170       $$000000                   0000000180017170     libucrt:strncmp.obj
 0001:0001626c       ??$?RV<lambda_0ae27a3a962d80f24befdcbee591983d>@@AEAV<lambda_8d0ee55de4b1038c4002e0adecdf1839>@@V<lambda_dc504788e8f1664fe9b84e20bfb512f2>@@@?$__crt_seh_guarded_call@X@@QEAAX$$QEAV<lambda_0ae27a3a962d80f24befdcbee591983d>@@AEAV<lambda_8d0ee55de4b1038c4002e0adecdf1839>@@$$QEAV<lambda_dc504788e8f1664fe9b84e20bfb512f2>@@@Z 000000018001726c f   libucrt:per_thread_data.obj
 0001:000162ac       ??$?RV<lambda_2d41944a1d46af3157314b8a01080d33>@@AEAV<lambda_8f455de75cd7d7f24b4096f044d8b9e6>@@V<lambda_aa500f224e6afead328df44964fe2772>@@@?$__crt_seh_guarded_call@X@@QEAAX$$QEAV<lambda_2d41944a1d46af3157314b8a01080d33>@@AEAV<lambda_8f455de75cd7d7f24b4096f044d8b9e6>@@$$QEAV<lambda_aa500f224e6afead328df44964fe2772>@@@Z 00000001800172ac f   libucrt:per_thread_data.obj
 0001:000162ec       ??$?RV<lambda_aa87e3671a710a21b5dc78c0bdf72e11>@@AEAV<lambda_92619d2358a28f41a33ba319515a20b9>@@V<lambda_6992ecaafeb10aed2b74cb1fae11a551>@@@?$__crt_seh_guarded_call@X@@QEAAX$$QEAV<lambda_aa87e3671a710a21b5dc78c0bdf72e11>@@AEAV<lambda_92619d2358a28f41a33ba319515a20b9>@@$$QEAV<lambda_6992ecaafeb10aed2b74cb1fae11a551>@@@Z 00000001800172ec f   libucrt:per_thread_data.obj
 0001:00016334       ??$?RV<lambda_f2e299630e499de9f9a165e60fcd3db5>@@AEAV<lambda_2ae9d31cdba2644fcbeaf08da7c24588>@@V<lambda_40d01ff24d0e7b3814fdbdcee8eab3c7>@@@?$__crt_seh_guarded_call@X@@QEAAX$$QEAV<lambda_f2e299630e499de9f9a165e60fcd3db5>@@AEAV<lambda_2ae9d31cdba2644fcbeaf08da7c24588>@@$$QEAV<lambda_40d01ff24d0e7b3814fdbdcee8eab3c7>@@@Z 0000000180017334 f   libucrt:per_thread_data.obj
 0001:00016394       ?construct_ptd_array@@YAXQEAU__acrt_ptd@@@Z 0000000180017394 f   libucrt:per_thread_data.obj
 0001:00016464       ?destroy_fls@@YAXPEAX@Z    0000000180017464 f   libucrt:per_thread_data.obj
 0001:00016484       ?destroy_ptd_array@@YAXQEAU__acrt_ptd@@@Z 0000000180017484 f   libucrt:per_thread_data.obj
 0001:0001657c       ?replace_current_thread_locale_nolock@@YAXQEAU__acrt_ptd@@QEAU__crt_locale_data@@@Z 000000018001757c f   libucrt:per_thread_data.obj
 0001:00016a60       ?try_get_function@@YAPEAXW4function_id@?A0x391cf84c@@QEBDQEBW4module_id@2@2@Z 0000000180017a60 f   libucrt:winapi_thunks.obj
 0001:00017430       ?fp_format_a@@YAHQEBNPEAD_KQEAD2H_NIQEAU__crt_locale_pointers@@@Z 0000000180018430 f   libucrt:cvt.obj
 0001:000177a0       ?fp_format_e@@YAHQEBNQEAD_K12H_NIQEAU__crt_locale_pointers@@@Z 00000001800187a0 f   libucrt:cvt.obj
 0001:0001787c       ?fp_format_e_internal@@YAHQEAD_KH_NIQEAU_strflt@@2QEAU__crt_locale_pointers@@@Z 000000018001887c f   libucrt:cvt.obj
 0001:00017a50       ?fp_format_f_internal@@YAHQEAD_KHQEAU_strflt@@_NQEAU__crt_locale_pointers@@@Z 0000000180018a50 f   libucrt:cvt.obj
 0001:00017b94       ?fp_format_g@@YAHQEBNQEAD_K12H_NIQEAU__crt_locale_pointers@@@Z 0000000180018b94 f   libucrt:cvt.obj
 0001:000181a0       ??$?RV<lambda_410d79af7f07d98d83a3f525b3859a53>@@AEAV<lambda_3e16ef9562a7dcce91392c22ab16ea36>@@V<lambda_38119f0e861e05405d8a144b9b982f0a>@@@?$__crt_seh_guarded_call@X@@QEAAX$$QEAV<lambda_410d79af7f07d98d83a3f525b3859a53>@@AEAV<lambda_3e16ef9562a7dcce91392c22ab16ea36>@@$$QEAV<lambda_38119f0e861e05405d8a144b9b982f0a>@@@Z 00000001800191a0 f   libucrt:wsetlocale.obj
 0001:0001824c       ?initialize_inherited_file_handles_nolock@@YAXXZ 000000018001924c f   libucrt:ioinit.obj
 0001:0001833c       ?initialize_stdio_handles_nolock@@YAXXZ 000000018001933c f   libucrt:ioinit.obj
 0001:000185b8       ?<lambda_invoker_cdecl>@<lambda_a1ce4c8ae42411fd470c77163914f50e>@@CAHPEBX0@Z 00000001800195b8 f   libucrt:argv_wildcards.obj
 0001:000188d0       ??$common_expand_argv_wildcards@D@@YAHQEAPEADQEAPEAPEAD@Z 00000001800198d0 f   libucrt:argv_wildcards.obj
 0001:00018adc       ??$copy_and_add_argument_to_buffer@D@@YAHQEBD0_KAEAV?$argument_list@D@?A0x5f5c8891@@@Z 0000000180019adc f   libucrt:argv_wildcards.obj
 0001:00018c64       ??$expand_argument_wildcards@D@@YAHQEAD0AEAV?$argument_list@D@?A0x5f5c8891@@@Z 0000000180019c64 f   libucrt:argv_wildcards.obj
 0001:000191b0       ??$?RV<lambda_efdfa57d1f175319df784efa44bb7b81>@@AEAV<lambda_5f0a4c1567f8adc6734073e5d1e1b35c>@@V<lambda_2e8a7d3640ea6ccb4c2413664c2db6fd>@@@?$__crt_seh_guarded_call@X@@QEAAX$$QEAV<lambda_efdfa57d1f175319df784efa44bb7b81>@@AEAV<lambda_5f0a4c1567f8adc6734073e5d1e1b35c>@@$$QEAV<lambda_2e8a7d3640ea6ccb4c2413664c2db6fd>@@@Z 000000018001a1b0 f   libucrt:mbctype.obj
 0001:0001936c       ?getSystemCP@@YAHH@Z       000000018001a36c f   libucrt:mbctype.obj
 0001:000193ec       ?setSBCS@@YAXPEAU__crt_multibyte_data@@@Z 000000018001a3ec f   libucrt:mbctype.obj
 0001:0001947c       ?setSBUpLow@@YAXPEAU__crt_multibyte_data@@@Z 000000018001a47c f   libucrt:mbctype.obj
 0001:00019660       ?setmbcp_internal@@YAHH_NQEAU__acrt_ptd@@QEAPEAU__crt_multibyte_data@@@Z 000000018001a660 f   libucrt:mbctype.obj
 0001:00019824       ?update_thread_multibyte_data_internal@@YAPEAU__crt_multibyte_data@@QEAU__acrt_ptd@@QEAPEAU1@@Z 000000018001a824 f   libucrt:mbctype.obj
 0001:00019c14       ?x_ismbbtype_l@@YAHPEAU__crt_locale_pointers@@IHH@Z 000000018001ac14 f   libucrt:ismbbyte.obj
 0001:00019fa4       ??$?RV<lambda_450d765d439847d4c735a33c368b5fc0>@@AEAV<lambda_44731a7d0e6d81c3e6aa82d741081786>@@V<lambda_601a2a7da3b7a96e9554ac7215c4b07c>@@@?$__crt_seh_guarded_call@P6AXH@Z@@QEAAP6AXH@Z$$QEAV<lambda_450d765d439847d4c735a33c368b5fc0>@@AEAV<lambda_44731a7d0e6d81c3e6aa82d741081786>@@$$QEAV<lambda_601a2a7da3b7a96e9554ac7215c4b07c>@@@Z 000000018001afa4 f   libucrt:signal.obj
 0001:0001a300       ??$?RV<lambda_842d9ff0dc9ef11c61343bbaebe7f885>@@AEAV<lambda_c5860995281e5c4ce005b3de8f5874ee>@@V<lambda_d90129c13df834fdcbf8d2b88dafcf2d>@@@?$__crt_seh_guarded_call@X@@QEAAX$$QEAV<lambda_842d9ff0dc9ef11c61343bbaebe7f885>@@AEAV<lambda_c5860995281e5c4ce005b3de8f5874ee>@@$$QEAV<lambda_d90129c13df834fdcbf8d2b88dafcf2d>@@@Z 000000018001b300 f   libucrt:fflush.obj
 0001:0001a39c       ??$?RV<lambda_886d6c58226a84441f68b9f2b8217b83>@@AEAV<lambda_ab61a845afdef5b7c387490eaf3616ee>@@V<lambda_f7f22ab5edc0698d5f6905b0d3f44752>@@@?$__crt_seh_guarded_call@X@@QEAAX$$QEAV<lambda_886d6c58226a84441f68b9f2b8217b83>@@AEAV<lambda_ab61a845afdef5b7c387490eaf3616ee>@@$$QEAV<lambda_f7f22ab5edc0698d5f6905b0d3f44752>@@@Z 000000018001b39c f   libucrt:fflush.obj
 0001:0001a47c       ?common_flush_all@@YAH_N@Z 000000018001b47c f   libucrt:fflush.obj
 0001:0001c71c       ?free_crt_array_internal@@YAXQEAPEBX_K@Z 000000018001d71c f   libucrt:inittime.obj
 0001:0001d1b4       fallbackMethod             000000018001e1b4 f   libucrt:strpbrk.obj
 0001:0001d584       $LN78                      000000018001e584     libucrt:strpbrk.obj
 0001:0001d5c0       $LN77                      000000018001e5c0     libucrt:strpbrk.obj
 0001:0001d600       $LN76                      000000018001e600     libucrt:strpbrk.obj
 0001:0001d6dc       ?__acrt_LCMapStringA_stat@@YAHPEAU__crt_locale_pointers@@PEB_WKPEBDHPEADHHH@Z 000000018001e6dc f   libucrt:lcmapstringa.obj
 0001:0001da8c       ?initialize_multibyte@@YAHXZ 000000018001ea8c f   libucrt:multibyte_initializer.obj
 0001:0001daa4       ??$?RV<lambda_a37b2b86f63e897a80ea819b0eb08c01>@@AEAV<lambda_38ce7e780aa69e748d6df282ebc68efe>@@V<lambda_99fb1378e971ab6e7edea83e3a7a83a2>@@@?$__crt_seh_guarded_call@H@@QEAAH$$QEAV<lambda_a37b2b86f63e897a80ea819b0eb08c01>@@AEAV<lambda_38ce7e780aa69e748d6df282ebc68efe>@@$$QEAV<lambda_99fb1378e971ab6e7edea83e3a7a83a2>@@@Z 000000018001eaa4 f   libucrt:commit.obj
 0001:0001dbc4       ?write_double_translated_ansi_nolock@@YA?AUwrite_result@?A0x17268360@@HQEBDI@Z 000000018001ebc4 f   libucrt:write.obj
 0001:0001e094       ?write_text_ansi_nolock@@YA?AUwrite_result@?A0x17268360@@HQEBDI@Z 000000018001f094 f   libucrt:write.obj
 0001:0001e198       ?write_text_utf16le_nolock@@YA?AUwrite_result@?A0x17268360@@HQEBDI@Z 000000018001f198 f   libucrt:write.obj
 0001:0001e2b4       ?write_text_utf8_nolock@@YA?AUwrite_result@?A0x17268360@@HQEBDI@Z 000000018001f2b4 f   libucrt:write.obj
 0001:0001eba0       $$000000                   000000018001fba0     libucrt:log10.obj
 0001:0001f14c       ??$common_lseek_nolock@_J@@YA_JH_JH@Z 000000018002014c f   libucrt:lseek.obj
 0001:0001f6b8       _call_matherr              00000001800206b8 f   libucrt:libm_error.obj
 0001:0001f720       _exception_enabled         0000000180020720 f   libucrt:libm_error.obj
 0001:0001f9b0       _log_special_common        00000001800209b0 f   libucrt:log_special.obj
 0001:0001fa48       ??$?RV<lambda_751a882b2c74d4b022dec766aa51a29a>@@AEAV<lambda_628dfdc04ba53c8bfc02c9951375f3f5>@@V<lambda_f6c7be5f7998530c34de24c7437d6b54>@@@?$__crt_seh_guarded_call@H@@QEAAH$$QEAV<lambda_751a882b2c74d4b022dec766aa51a29a>@@AEAV<lambda_628dfdc04ba53c8bfc02c9951375f3f5>@@$$QEAV<lambda_f6c7be5f7998530c34de24c7437d6b54>@@@Z 0000000180020a48 f   libucrt:close.obj
 0001:0001fd70       $$000000                   0000000180020d70     libucrt:fpsr.obj
 0001:00020410       $$000000                   0000000180021410     LIBCMT:guard_dispatch.obj
 0001:00020430       ?filt$0@?0??_AtlVerifyStackAvailable@_ATL_SAFE_ALLOCA_IMPL@ATL@@YA_N_K@Z@4HA 0000000180021430 f   SmartCardRW.obj
 0001:00020451       __scrt_is_nonwritable_in_current_image$filt$0 0000000180021451 f   LIBCMT:utility.obj
 0001:00020469       ?catch$0@?0???2@YAPEAX_KAEBUnothrow_t@std@@@Z@4HA 0000000180021469 f   LIBCMT:new_scalar_nothrow.obj
 0001:00020476       __catch$??2@YAPEAX_KAEBUnothrow_t@std@@@Z$0 0000000180021476 f   LIBCMT:new_scalar_nothrow.obj
 0001:00020484       ?fin$0@?0??dllmain_crt_process_attach@@YAHQEAUHINSTANCE__@@QEAX@Z@4HA 0000000180021484 f   LIBCMT:dll_dllmain.obj
 0001:0002049b       ?fin$0@?0??dllmain_crt_process_detach@@YAH_N@Z@4HA 000000018002149b f   LIBCMT:dll_dllmain.obj
 0001:000204b7       ?filt$0@?0??dllmain_dispatch@@YAHQEAUHINSTANCE__@@KQEAX@Z@4HA 00000001800214b7 f   LIBCMT:dll_dllmain.obj
 0001:000204ed       ?filt$0@?0???$_CallSETranslator@V__FrameHandler3@@@@YAHPEAUEHExceptionRecord@@PEA_KPEAU_CONTEXT@@PEAU_xDISPATCHER_CONTEXT@@PEBU_s_FuncInfo@@K1@Z@4HA 00000001800214ed f   libvcruntime:risctrnsctrl.obj
 0001:0002057e       __DestructExceptionObject$filt$0 000000018002157e f   libvcruntime:ehhelpers.obj
 0001:00020596       ?filt$0@?0??CxxCallCatchBlock@__FrameHandler3@@SAPEAXPEAU_EXCEPTION_RECORD@@@Z@4HA 0000000180021596 f   libvcruntime:frame.obj
 0001:000205bb       ?fin$1@?0??CxxCallCatchBlock@__FrameHandler3@@SAPEAXPEAU_EXCEPTION_RECORD@@@Z@4HA 00000001800215bb f   libvcruntime:frame.obj
 0001:00020633       ?filt$0@?0??FrameUnwindToState@__FrameHandler3@@SAXPEA_KPEAU_xDISPATCHER_CONTEXT@@PEBU_s_FuncInfo@@H@Z@4HA 0000000180021633 f   libvcruntime:frame.obj
 0001:00020649       ?fin$1@?0??FrameUnwindToState@__FrameHandler3@@SAXPEA_KPEAU_xDISPATCHER_CONTEXT@@PEBU_s_FuncInfo@@H@Z@4HA 0000000180021649 f   libvcruntime:frame.obj
 0001:0002066c       ?fin$0@?0???$?RV<lambda_efdfa57d1f175319df784efa44bb7b81>@@AEAV<lambda_5f0a4c1567f8adc6734073e5d1e1b35c>@@V<lambda_2e8a7d3640ea6ccb4c2413664c2db6fd>@@@?$__crt_seh_guarded_call@X@@QEAAX$$QEAV<lambda_efdfa57d1f175319df784efa44bb7b81>@@AEAV<lambda_5f0a4c1567f8adc6734073e5d1e1b35c>@@$$QEAV<lambda_2e8a7d3640ea6ccb4c2413664c2db6fd>@@@Z@4HA 000000018002166c f   libucrt:mbctype.obj
 0001:0002066c       ?fin$0@?0???$?RV<lambda_638799b9deba96c50f710eeac98168cd>@@AEAV<lambda_22ebabd17bc4fa466a2aca6d8deb888d>@@V<lambda_a6f7d7db0129f75315ebf26d50c089f1>@@@?$__crt_seh_guarded_call@H@@QEAAH$$QEAV<lambda_638799b9deba96c50f710eeac98168cd>@@AEAV<lambda_22ebabd17bc4fa466a2aca6d8deb888d>@@$$QEAV<lambda_a6f7d7db0129f75315ebf26d50c089f1>@@@Z@4HA 000000018002166c f   libucrt:onexit.obj
 0001:0002066c       ?fin$0@?0???$?RV<lambda_d80eeec6fff315bfe5c115232f3240e3>@@AEAV<lambda_6e4b09c48022b2350581041d5f6b0c4c>@@V<lambda_2358e3775559c9db80273638284d5e45>@@@?$__crt_seh_guarded_call@X@@QEAAX$$QEAV<lambda_d80eeec6fff315bfe5c115232f3240e3>@@AEAV<lambda_6e4b09c48022b2350581041d5f6b0c4c>@@$$QEAV<lambda_2358e3775559c9db80273638284d5e45>@@@Z@4HA 000000018002166c f   libucrt:exit.obj
 0001:0002066c       ?fin$0@?0???$?RV<lambda_0ae27a3a962d80f24befdcbee591983d>@@AEAV<lambda_8d0ee55de4b1038c4002e0adecdf1839>@@V<lambda_dc504788e8f1664fe9b84e20bfb512f2>@@@?$__crt_seh_guarded_call@X@@QEAAX$$QEAV<lambda_0ae27a3a962d80f24befdcbee591983d>@@AEAV<lambda_8d0ee55de4b1038c4002e0adecdf1839>@@$$QEAV<lambda_dc504788e8f1664fe9b84e20bfb512f2>@@@Z@4HA 000000018002166c f   libucrt:per_thread_data.obj
 0001:0002066c       ?fin$0@?0???$?RV<lambda_7777bce6b2f8c936911f934f8298dc43>@@AEAV<lambda_f03950bc5685219e0bcd2087efbe011e>@@V<lambda_3883c3dff614d5e0c5f61bb1ac94921c>@@@?$__crt_seh_guarded_call@H@@QEAAH$$QEAV<lambda_7777bce6b2f8c936911f934f8298dc43>@@AEAV<lambda_f03950bc5685219e0bcd2087efbe011e>@@$$QEAV<lambda_3883c3dff614d5e0c5f61bb1ac94921c>@@@Z@4HA 000000018002166c f   libucrt:onexit.obj
 0001:0002066c       ?fin$0@?0???$?RV<lambda_2d41944a1d46af3157314b8a01080d33>@@AEAV<lambda_8f455de75cd7d7f24b4096f044d8b9e6>@@V<lambda_aa500f224e6afead328df44964fe2772>@@@?$__crt_seh_guarded_call@X@@QEAAX$$QEAV<lambda_2d41944a1d46af3157314b8a01080d33>@@AEAV<lambda_8f455de75cd7d7f24b4096f044d8b9e6>@@$$QEAV<lambda_aa500f224e6afead328df44964fe2772>@@@Z@4HA 000000018002166c f   libucrt:per_thread_data.obj
 0001:0002066c       ?fin$0@?0???$?RV<lambda_aa87e3671a710a21b5dc78c0bdf72e11>@@AEAV<lambda_92619d2358a28f41a33ba319515a20b9>@@V<lambda_6992ecaafeb10aed2b74cb1fae11a551>@@@?$__crt_seh_guarded_call@X@@QEAAX$$QEAV<lambda_aa87e3671a710a21b5dc78c0bdf72e11>@@AEAV<lambda_92619d2358a28f41a33ba319515a20b9>@@$$QEAV<lambda_6992ecaafeb10aed2b74cb1fae11a551>@@@Z@4HA 000000018002166c f   libucrt:per_thread_data.obj
 0001:0002066c       ?fin$0@?0???$?RV<lambda_f2e299630e499de9f9a165e60fcd3db5>@@AEAV<lambda_2ae9d31cdba2644fcbeaf08da7c24588>@@V<lambda_40d01ff24d0e7b3814fdbdcee8eab3c7>@@@?$__crt_seh_guarded_call@X@@QEAAX$$QEAV<lambda_f2e299630e499de9f9a165e60fcd3db5>@@AEAV<lambda_2ae9d31cdba2644fcbeaf08da7c24588>@@$$QEAV<lambda_40d01ff24d0e7b3814fdbdcee8eab3c7>@@@Z@4HA 000000018002166c f   libucrt:per_thread_data.obj
 0001:0002066c       ?fin$0@?0???$?RV<lambda_450d765d439847d4c735a33c368b5fc0>@@AEAV<lambda_44731a7d0e6d81c3e6aa82d741081786>@@V<lambda_601a2a7da3b7a96e9554ac7215c4b07c>@@@?$__crt_seh_guarded_call@P6AXH@Z@@QEAAP6AXH@Z$$QEAV<lambda_450d765d439847d4c735a33c368b5fc0>@@AEAV<lambda_44731a7d0e6d81c3e6aa82d741081786>@@$$QEAV<lambda_601a2a7da3b7a96e9554ac7215c4b07c>@@@Z@4HA 000000018002166c f   libucrt:signal.obj
 0001:00020686       ?filt$0@?0???R<lambda_6e4b09c48022b2350581041d5f6b0c4c>@@QEBA@XZ@4HA 0000000180021686 f   libucrt:exit.obj
 0001:000206a1       _query_new_handler$fin$0   00000001800216a1 f   libucrt:new_handler.obj
 0001:000206b7       ?fin$0@?0???$?RV<lambda_410d79af7f07d98d83a3f525b3859a53>@@AEAV<lambda_3e16ef9562a7dcce91392c22ab16ea36>@@V<lambda_38119f0e861e05405d8a144b9b982f0a>@@@?$__crt_seh_guarded_call@X@@QEAAX$$QEAV<lambda_410d79af7f07d98d83a3f525b3859a53>@@AEAV<lambda_3e16ef9562a7dcce91392c22ab16ea36>@@$$QEAV<lambda_38119f0e861e05405d8a144b9b982f0a>@@@Z@4HA 00000001800216b7 f   libucrt:wsetlocale.obj
 0001:000206d1       __acrt_lowio_ensure_fh_exists$fin$0 00000001800216d1 f   libucrt:osfinfo.obj
 0001:000206d1       __acrt_initialize_lowio$fin$0 00000001800216d1 f   libucrt:ioinit.obj
 0001:000206ea       ?fin$0@?0??update_thread_multibyte_data_internal@@YAPEAU__crt_multibyte_data@@QEAU__acrt_ptd@@QEAPEAU1@@Z@4HA 00000001800216ea f   libucrt:mbctype.obj
 0001:00020703       raise$fin$0                0000000180021703 f   libucrt:signal.obj
 0001:00020724       ?fin$0@?0???$?RV<lambda_842d9ff0dc9ef11c61343bbaebe7f885>@@AEAV<lambda_c5860995281e5c4ce005b3de8f5874ee>@@V<lambda_d90129c13df834fdcbf8d2b88dafcf2d>@@@?$__crt_seh_guarded_call@X@@QEAAX$$QEAV<lambda_842d9ff0dc9ef11c61343bbaebe7f885>@@AEAV<lambda_c5860995281e5c4ce005b3de8f5874ee>@@$$QEAV<lambda_d90129c13df834fdcbf8d2b88dafcf2d>@@@Z@4HA 0000000180021724 f   libucrt:fflush.obj
 0001:0002073f       ?fin$0@?0???$?RV<lambda_886d6c58226a84441f68b9f2b8217b83>@@AEAV<lambda_ab61a845afdef5b7c387490eaf3616ee>@@V<lambda_f7f22ab5edc0698d5f6905b0d3f44752>@@@?$__crt_seh_guarded_call@X@@QEAAX$$QEAV<lambda_886d6c58226a84441f68b9f2b8217b83>@@AEAV<lambda_ab61a845afdef5b7c387490eaf3616ee>@@$$QEAV<lambda_f7f22ab5edc0698d5f6905b0d3f44752>@@@Z@4HA 000000018002173f f   libucrt:fflush.obj
 0001:0002075c       __acrt_update_thread_locale_data$fin$0 000000018002175c f   libucrt:locale_refcounting.obj
 0001:00020775       _fcloseall$fin$0           0000000180021775 f   libucrt:closeall.obj
 0001:0002078e       ?fin$0@?0???$?RV<lambda_a37b2b86f63e897a80ea819b0eb08c01>@@AEAV<lambda_38ce7e780aa69e748d6df282ebc68efe>@@V<lambda_99fb1378e971ab6e7edea83e3a7a83a2>@@@?$__crt_seh_guarded_call@H@@QEAAH$$QEAV<lambda_a37b2b86f63e897a80ea819b0eb08c01>@@AEAV<lambda_38ce7e780aa69e748d6df282ebc68efe>@@$$QEAV<lambda_99fb1378e971ab6e7edea83e3a7a83a2>@@@Z@4HA 000000018002178e f   libucrt:commit.obj
 0001:0002078e       ?fin$0@?0???$?RV<lambda_751a882b2c74d4b022dec766aa51a29a>@@AEAV<lambda_628dfdc04ba53c8bfc02c9951375f3f5>@@V<lambda_f6c7be5f7998530c34de24c7437d6b54>@@@?$__crt_seh_guarded_call@H@@QEAAH$$QEAV<lambda_751a882b2c74d4b022dec766aa51a29a>@@AEAV<lambda_628dfdc04ba53c8bfc02c9951375f3f5>@@$$QEAV<lambda_f6c7be5f7998530c34de24c7437d6b54>@@@Z@4HA 000000018002178e f   libucrt:close.obj
 0001:000207a8       _write$fin$0               00000001800217a8 f   libucrt:write.obj
 0001:000207bf       fclose$fin$0               00000001800217bf f   libucrt:fclose.obj
 0001:000207d7       _ctrlfp$filt$0             00000001800217d7 f   libucrt:fpctrl.obj
 0001:00020810       _IsNonwritableInCurrentImage$filt$0 0000000180021810 f   LIBCMT:pesect.obj
 0001:00020830       ??__F_AtlComModule@ATL@@YAXXZ 0000000180021830 f   OposVariant.obj
 0001:0002083c       ??__F_AtlWinModule@ATL@@YAXXZ 000000018002183c f   OposVariant.obj
 0001:00020880       ??__F_Module@@YAXXZ        0000000180021880 f   SmartCardRW.obj
 0001:000208e4       ??__F_AtlBaseModule@ATL@@YAXXZ 00000001800218e4 f   atls:atlbase.obj
 0002:00000630       ?_AtlBaseModule$initializer$@ATL@@3P6AXXZEA 0000000180022630     atls:atlbase.obj
 0002:00000638       ?_AtlComModule$initializer$@ATL@@3P6AXXZEA 0000000180022638     OposVariant.obj
 0002:00000640       ?_AtlWinModule$initializer$@ATL@@3P6AXXZEA 0000000180022640     OposVariant.obj
 0002:00000648       ?_Module$initializer$@@3P6AXXZEA 0000000180022648     SmartCardRW.obj
 0002:00000650       ??pConnMap$initializer$@?$IConnectionPointContainerImpl@VCOPOSSmartCardRW@@@ATL@@0P6AXXZEA@@3P6AXXZEA 0000000180022650     SmartCardRW.obj
 0002:00000668       ?__scrt_initialize_tss_var@@3P6AHXZEA 0000000180022668     LIBCMT:thread_safe_statics.obj
 0002:000027b8       GS_ExceptionPointers       00000001800247b8     LIBCMT:gs_report.obj
 0002:000027c8       $cppxdata$??2@YAPEAX_KAEBUnothrow_t@std@@@Z 00000001800247c8     LIBCMT:new_scalar_nothrow.obj
 0002:000029a0       ?ExceptionTemplate@?1??UnwindNestedFrames@__FrameHandler3@@SAXPEA_KPEAUEHExceptionRecord@@PEAU_CONTEXT@@0PEAXPEBU_s_FuncInfo@@HHPEBU_s_HandlerType@@PEAU_xDISPATCHER_CONTEXT@@E@Z@4U_EXCEPTION_RECORD@@B 00000001800249a0     libvcruntime:risctrnsctrl.obj
 0002:00002a40       ?ExceptionTemplate@?1??_CxxThrowException@@9@4UEHExceptionRecord@@B 0000000180024a40     libvcruntime:throw.obj
 0002:00002ab0       ?tokenTable@@3QBQEBDB      0000000180024ab0     libvcruntime:undname.obj
 0002:00002b30       ?nameTable@@3QBQEBDB       0000000180024b30     libvcruntime:undname.obj
 0002:00002dc8       ?rttiTable@@3QBQEBDB       0000000180024dc8     libvcruntime:undname.obj
 0002:00003490       ?module_names@?A0x656504f9@@3QBQEB_WB 0000000180025490     libvcruntime:winapi_downlevel.obj
 0002:00003550       ?candidate_modules@?1??try_get_FlsAlloc@@YAP6AKP6AXPEAX@Z@ZXZ@4QBW4module_id@?A0x656504f9@@B 0000000180025550     libvcruntime:winapi_downlevel.obj
 0002:00003568       ?candidate_modules@?1??try_get_FlsFree@@YAP6AHK@ZXZ@4QBW4module_id@?A0x656504f9@@B 0000000180025568     libvcruntime:winapi_downlevel.obj
 0002:00003578       ?candidate_modules@?1??try_get_FlsGetValue@@YAP6APEAXK@ZXZ@4QBW4module_id@?A0x656504f9@@B 0000000180025578     libvcruntime:winapi_downlevel.obj
 0002:00003590       ?candidate_modules@?1??try_get_FlsSetValue@@YAP6AHKPEAX@ZXZ@4QBW4module_id@?A0x656504f9@@B 0000000180025590     libvcruntime:winapi_downlevel.obj
 0002:000035a8       ?candidate_modules@?1??try_get_InitializeCriticalSectionEx@@YAP6AHPEAU_RTL_CRITICAL_SECTION@@KK@ZXZ@4QBW4module_id@?A0x656504f9@@B 00000001800255a8     libvcruntime:winapi_downlevel.obj
 0002:000035d0       ?errtable@@3QBUerrentry@?A0x31fdb9ec@@B 00000001800255d0     libucrt:errno.obj
 0002:000038c0       __acrt_initializers        00000001800258c0     libucrt:initialization.obj
 0002:000039c0       ?module_names@?A0x391cf84c@@3QBQEB_WB 00000001800259c0     libucrt:winapi_thunks.obj
 0002:00003ec8       ?candidate_modules@?1??try_get_AreFileApisANSI@@YAP6AHXZXZ@4QBW4module_id@?A0x391cf84c@@B 0000000180025ec8     libucrt:winapi_thunks.obj
 0002:00003ee0       ?candidate_modules@?1??try_get_FlsAlloc@@YAP6AKP6AXPEAX@Z@ZXZ@4QBW4module_id@?A0x391cf84c@@B 0000000180025ee0     libucrt:winapi_thunks.obj
 0002:00003ee8       ?candidate_modules@?1??try_get_FlsFree@@YAP6AHK@ZXZ@4QBW4module_id@?A0x391cf84c@@B 0000000180025ee8     libucrt:winapi_thunks.obj
 0002:00003ef0       ?candidate_modules@?1??try_get_FlsGetValue@@YAP6APEAXK@ZXZ@4QBW4module_id@?A0x391cf84c@@B 0000000180025ef0     libucrt:winapi_thunks.obj
 0002:00003ef8       ?candidate_modules@?1??try_get_FlsSetValue@@YAP6AHKPEAX@ZXZ@4QBW4module_id@?A0x391cf84c@@B 0000000180025ef8     libucrt:winapi_thunks.obj
 0002:00003f00       ?candidate_modules@?1??try_get_InitializeCriticalSectionEx@@YAP6AHPEAU_RTL_CRITICAL_SECTION@@KK@ZXZ@4QBW4module_id@?A0x391cf84c@@B 0000000180025f00     libucrt:winapi_thunks.obj
 0002:00003f08       ?candidate_modules@?1??try_get_LCMapStringEx@@YAP6AHPEB_WK0HPEA_WHPEAU_nlsversioninfo@@PEAX_J@ZXZ@4QBW4module_id@?A0x391cf84c@@B 0000000180025f08     libucrt:winapi_thunks.obj
 0002:00003f20       ?candidate_modules@?1??try_get_LocaleNameToLCID@@YAP6AKPEB_WK@ZXZ@4QBW4module_id@?A0x391cf84c@@B 0000000180025f20     libucrt:winapi_thunks.obj
 0002:00003f3c       ?candidate_modules@?1??try_get_AppPolicyGetProcessTerminationMethod@@YAP6AJPEAXPEAW4AppPolicyProcessTerminationMethod@@@ZXZ@4QBW4module_id@?A0x391cf84c@@B 0000000180025f3c     libucrt:winapi_thunks.obj
 0002:00003f68       ?candidate_modules@?1??try_get_SetThreadStackGuarantee@@YAP6AHPEAK@ZXZ@4QBW4module_id@?A0x391cf84c@@B 0000000180025f68     libucrt:winapi_thunks.obj
 0002:00003f90       ?strings@?1??fp_format_nan_or_infinity@@YAHW4__acrt_fp_class@@_NPEAD_K1@Z@4QAY03QEBDA 0000000180025f90     libucrt:cvt.obj
 0002:000046f0       ?_mb_locale_names@@3QBQEB_WB 00000001800266f0     libucrt:mbctype.obj
 0002:00004f60       ?LcidToLocaleNameTable@?A0x881e4c05@@3QBULcidToLocaleName@1@B 0000000180026f60     libucrt:lcidtoname_downlevel.obj
 0002:000069c0       ?LocaleNameToIndexTable@?A0x881e4c05@@3QBULocaleNameIndex@1@B 00000001800289c0     libucrt:lcidtoname_downlevel.obj
 0002:00008b70       ?large_power_indices@?1??multiply_by_power_of_ten@__crt_strtox@@YA_NAEAUbig_integer@2@I@Z@4QBUunpack_index@?1??12@YA_N0I@Z@B 000000018002ab70     libucrt:cfout.obj
 0002:00008c60       __real_ninf                000000018002ac60     libucrt:log10.obj
 0002:00008c70       __real_inf                 000000018002ac70     libucrt:log10.obj
 0002:00008c80       __real_neg_qnan            000000018002ac80     libucrt:log10.obj
 0002:00008c90       __real_qnanbit             000000018002ac90     libucrt:log10.obj
 0002:00008ca0       __int_1023                 000000018002aca0     libucrt:log10.obj
 0002:00008cb0       __mask_001                 000000018002acb0     libucrt:log10.obj
 0002:00008cc0       __mask_mant                000000018002acc0     libucrt:log10.obj
 0002:00008cd0       __mask_mant_top8           000000018002acd0     libucrt:log10.obj
 0002:00008ce0       __mask_mant9               000000018002ace0     libucrt:log10.obj
 0002:00008cf0       __real_log10_e             000000018002acf0     libucrt:log10.obj
 0002:00008d00       __real_log10_e_lead        000000018002ad00     libucrt:log10.obj
 0002:00008d10       __real_log10_e_tail        000000018002ad10     libucrt:log10.obj
 0002:00008d20       __real_log10_2_lead        000000018002ad20     libucrt:log10.obj
 0002:00008d30       __real_log10_2_tail        000000018002ad30     libucrt:log10.obj
 0002:00008d40       __real_two                 000000018002ad40     libucrt:log10.obj
 0002:00008d50       __real_one                 000000018002ad50     libucrt:log10.obj
 0002:00008d60       __real_half                000000018002ad60     libucrt:log10.obj
 0002:00008d70       __mask_100                 000000018002ad70     libucrt:log10.obj
 0002:00008d80       __real_1_over_512          000000018002ad80     libucrt:log10.obj
 0002:00008d90       __real_1_over_2            000000018002ad90     libucrt:log10.obj
 0002:00008da0       __real_1_over_3            000000018002ada0     libucrt:log10.obj
 0002:00008db0       __real_1_over_4            000000018002adb0     libucrt:log10.obj
 0002:00008dc0       __real_1_over_5            000000018002adc0     libucrt:log10.obj
 0002:00008dd0       __real_1_over_6            000000018002add0     libucrt:log10.obj
 0002:00008de0       __real_neg_1023            000000018002ade0     libucrt:log10.obj
 0002:00008df0       __mask_2045                000000018002adf0     libucrt:log10.obj
 0002:00008e00       __real_threshold           000000018002ae00     libucrt:log10.obj
 0002:00008e10       __real_near_one_lt         000000018002ae10     libucrt:log10.obj
 0002:00008e20       __real_near_one_gt         000000018002ae20     libucrt:log10.obj
 0002:00008e30       __real_min_norm            000000018002ae30     libucrt:log10.obj
 0002:00008e40       __real_notsign             000000018002ae40     libucrt:log10.obj
 0002:00008e50       __real_ca1                 000000018002ae50     libucrt:log10.obj
 0002:00008e60       __real_ca2                 000000018002ae60     libucrt:log10.obj
 0002:00008e70       __real_ca3                 000000018002ae70     libucrt:log10.obj
 0002:00008e80       __real_ca4                 000000018002ae80     libucrt:log10.obj
 0002:00008e90       __mask_lower               000000018002ae90     libucrt:log10.obj
 0002:00008ea0       __flag_x_zero              000000018002aea0     libucrt:log10.obj
 0002:00008ea4       __flag_x_neg               000000018002aea4     libucrt:log10.obj
 0002:00008ea8       __flag_x_nan               000000018002aea8     libucrt:log10.obj
 0002:0000a700       __real@433fffffffffffff    000000018002c700     libucrt:fpsr.obj
 0002:0000a708       __real@c33fffffffffffff    000000018002c708     libucrt:fpsr.obj
 0002:0000af50       $unwind$wcstol             000000018002cf50     libucrt:strtox.obj
 0002:0000af50       $unwind$_log10_special     000000018002cf50     libucrt:log_special.obj
 0002:0000af50       $unwind$_invalid_parameter_noinfo 000000018002cf50     libucrt:invalid_parameter.obj
 0002:0000af50       $unwind$?cw_memcpy@@YAHPEA_WPEBDH@Z 000000018002cf50     CWString.obj
 0002:0000af50       $unwind$?ProcessWindowMessage@?$CComControl@VCOPOSSmartCardRW@@V?$CWindowImpl@VCOPOSSmartCardRW@@VCWindow@ATL@@V?$CWinTraits@$0FGAAAAAA@$0A@@3@@ATL@@@ATL@@UEAAHPEAUHWND__@@I_K_JAEA_JK@Z 000000018002cf50     SmartCardRW.obj
 0002:0000af58       $unwind$__acrt_AreFileApisANSI 000000018002cf58     libucrt:winapi_thunks.obj
 0002:0000af58       $unwind$?_LocCPQueryInterface@?$IConnectionPointImpl@VCOPOSSmartCardRW@@$1?DIID__IOPOSSmartCardRWEvents@@3U_GUID@@BVCComDynamicUnkArray@ATL@@@ATL@@UEAAJAEBU_GUID@@PEAPEAX@Z 000000018002cf58     SmartCardRW.obj
 0002:0000af58       $unwind$_errno             000000018002cf58     libucrt:errno.obj
 0002:0000af58       $unwind$??$uninitialize_environment_internal@_W@@YAXAEAPEAPEA_W@Z 000000018002cf58     libucrt:environment_initialization.obj
 0002:0000af58       $unwind$??__F_Module@@YAXXZ 000000018002cf58     SmartCardRW.obj
 0002:0000af58       $unwind$__scrt_dllmain_uninitialize_c 000000018002cf58     LIBCMT:utility.obj
 0002:0000af58       $unwind$??$uninitialize_environment_internal@D@@YAXAEAPEAPEAD@Z 000000018002cf58     libucrt:environment_initialization.obj
 0002:0000af58       $unwind$__scrt_dllmain_uninitialize_critical 000000018002cf58     LIBCMT:utility.obj
 0002:0000af58       $unwind$abort              000000018002cf58     libucrt:abort.obj
 0002:0000af58       $unwind$_msize_base        000000018002cf58     libucrt:msize.obj
 0002:0000af58       $unwind$__scrt_dllmain_crt_thread_attach 000000018002cf58     LIBCMT:utility.obj
 0002:0000af58       $unwind$__acrt_update_thread_multibyte_data 000000018002cf58     libucrt:mbctype.obj
 0002:0000af58       $unwind$__report_rangecheckfailure 000000018002cf58     LIBCMT:gs_report.obj
 0002:0000af58       $unwind$__acrt_initialize_multibyte 000000018002cf58     libucrt:mbctype.obj
 0002:0000af58       $unwind$_get_osfhandle     000000018002cf58     libucrt:osfinfo.obj
 0002:0000af58       $unwind$__scrt_dllmain_crt_thread_detach 000000018002cf58     LIBCMT:utility.obj
 0002:0000af58       $unwind$__dcrt_uninitialize_environments_nolock 000000018002cf58     libucrt:environment_initialization.obj
 0002:0000af58       $unwind$?cw_strcpy@@YAHPEA_WPEBD@Z 000000018002cf58     CWString.obj
 0002:0000af58       $unwind$?initialize_multibyte@@YAHXZ 000000018002cf58     libucrt:multibyte_initializer.obj
 0002:0000af58       $unwind$__vcrt_thread_detach 000000018002cf58     libvcruntime:initialization.obj
 0002:0000af58       $unwind$__vcrt_thread_attach 000000018002cf58     libvcruntime:initialization.obj
 0002:0000af58       $unwind$??__E?pConnMap@?$IConnectionPointContainerImpl@VCOPOSSmartCardRW@@@ATL@@0PEBU_ATL_CONNMAP_ENTRY@2@EB@@YAXXZ 000000018002cf58     SmartCardRW.obj
 0002:0000af58       $unwind$?FinalConstruct@COPOSSmartCardRW@@QEAAJXZ 000000018002cf58     SmartCardRWImpl.obj
 0002:0000af58       $unwind$_statfp            000000018002cf58     libucrt:fpctrl.obj
 0002:0000af58       $unwind$?get_ResultCode@COPOSSmartCardRW@@UEAAJPEAJ@Z 000000018002cf58     SmartCardRWImpl.obj
 0002:0000af58       $unwind$?get_State@COPOSSmartCardRW@@UEAAJPEAJ@Z 000000018002cf58     SmartCardRWImpl.obj
 0002:0000af58       $unwind$__acrt_initialize_ptd 000000018002cf58     libucrt:per_thread_data.obj
 0002:0000af58       $unwind$__vcrt_uninitialize_critical 000000018002cf58     libvcruntime:initialization.obj
 0002:0000af58       $unwind$_invoke_watson     000000018002cf58     libucrt:invalid_parameter.obj
 0002:0000af58       $unwind$_isatty            000000018002cf58     libucrt:isatty.obj
 0002:0000af58       $unwind$__vcrt_initialize_ptd 000000018002cf58     libvcruntime:per_thread_data.obj
 0002:0000af58       $unwind$??__E_AtlComModule@ATL@@YAXXZ 000000018002cf58     OposVariant.obj
 0002:0000af58       $unwind$__vcrt_uninitialize 000000018002cf58     libvcruntime:initialization.obj
 0002:0000af58       $unwind$??__E_AtlWinModule@ATL@@YAXXZ 000000018002cf58     OposVariant.obj
 0002:0000af58       $unwind$_set_errno_from_matherr 000000018002cf58     libucrt:fpexcept.obj
 0002:0000af58       $unwind$??__F_AtlWinModule@ATL@@YAXXZ 000000018002cf58     OposVariant.obj
 0002:0000af58       $unwind$__vcrt_initialize  000000018002cf58     libvcruntime:initialization.obj
 0002:0000af58       $unwind$__acrt_initialize_command_line 000000018002cf58     libucrt:argv_data.obj
 0002:0000af58       $unwind$__dcrt_terminate_console_output 000000018002cf58     libucrt:initcon.obj
 0002:0000af58       $unwind$_fileno            000000018002cf58     libucrt:fileno.obj
 0002:0000af58       $unwind$?dllmain_crt_dispatch@@YAHQEAUHINSTANCE__@@KQEAX@Z 000000018002cf58     LIBCMT:dll_dllmain.obj
 0002:0000af58       $unwind$__acrt_initialize_heap 000000018002cf58     libucrt:heap_handle.obj
 0002:0000af58       $unwind$?GetLONG@OposVariant@@QEAAJXZ 000000018002cf58     OposVariant.obj
 0002:0000af58       $unwind$??1OposDispParms@@QEAA@XZ 000000018002cf58     OposVariant.obj
 0002:0000af58       $unwind$__vcrt_uninitialize_ptd 000000018002cf58     libvcruntime:per_thread_data.obj
 0002:0000af58       $unwind$__vcrt_getptd      000000018002cf58     libvcruntime:per_thread_data.obj
 0002:0000af58       $unwind$atexit             000000018002cf58     LIBCMT:utility.obj
 0002:0000af58       $unwind$?state_case_size@?$output_processor@_WV?$string_output_adapter@_W@__crt_stdio_output@@V?$format_validation_base@_WV?$string_output_adapter@_W@__crt_stdio_output@@@2@@__crt_stdio_output@@AEAA_NXZ 000000018002cf58     libucrt:output.obj
 0002:0000af58       $unwind$__vcrt_freefls     000000018002cf58     libvcruntime:per_thread_data.obj
 0002:0000af58       $unwind$uninitialize_allocated_io_buffers 000000018002cf58     libucrt:initialization.obj
 0002:0000af58       $unwind$__GSHandlerCheck   000000018002cf58     LIBCMT:gshandler.obj
 0002:0000af58       $unwind$_Init_thread_notify 000000018002cf58     LIBCMT:thread_safe_statics.obj
 0002:0000af58       $unwind$__vcrt_initialize_locks 000000018002cf58     libvcruntime:locks.obj
 0002:0000af58       $unwind$?__scrt_uninitialize_thread_safe_statics@@YAXXZ 000000018002cf58     LIBCMT:thread_safe_statics.obj
 0002:0000af58       $unwind$_GetThrowImageBase 000000018002cf58     libvcruntime:risctrnsctrl.obj
 0002:0000af58       $unwind$__scrt_initialize_default_local_stdio_options 000000018002cf58     LIBCMT:default_local_stdio_options.obj
 0002:0000af58       $unwind$?AtlThrowImpl@ATL@@YAXJ@Z 000000018002cf58     SmartCardRW.obj
 0002:0000af58       $unwind$?AtlHresultFromLastError@ATL@@YAJXZ 000000018002cf58     SmartCardRW.obj
 0002:0000af58       $unwind$__FrameUnwindFilter 000000018002cf58     libvcruntime:ehhelpers.obj
 0002:0000af58       $unwind$_GetImageBase      000000018002cf58     libvcruntime:risctrnsctrl.obj
 0002:0000af58       $unwind$?GetCurrentState@__FrameHandler3@@SAHPEA_KPEAU_xDISPATCHER_CONTEXT@@PEBU_s_FuncInfo@@@Z 000000018002cf58     libvcruntime:ehstate.obj
 0002:0000af58       $unwind$initialize_c       000000018002cf58     libucrt:initialization.obj
 0002:0000af58       $unwind$__acrt_thread_detach 000000018002cf58     libucrt:initialization.obj
 0002:0000af58       $unwind$__acrt_uninitialize_ptd 000000018002cf58     libucrt:per_thread_data.obj
 0002:0000af58       $unwind$__acrt_thread_attach 000000018002cf58     libucrt:initialization.obj
 0002:0000af58       $unwind$_purecall          000000018002cf58     libvcruntime:purevirt.obj
 0002:0000af58       $unwind$?AddReplacement@CRegObject@ATL@@UEAAJPEB_W0@Z 000000018002cf58     SmartCardRW.obj
 0002:0000af58       $unwind$?CreateInstance@CComClassFactory@ATL@@UEAAJPEAUIUnknown@@AEBU_GUID@@PEAPEAX@Z 000000018002cf58     SmartCardRW.obj
 0002:0000af58       $unwind$?LockServer@CComClassFactory@ATL@@UEAAJH@Z 000000018002cf58     SmartCardRW.obj
 0002:0000af58       $unwind$?DefaultReflectionHandler@?$CWindowImplRoot@VCWindow@ATL@@@ATL@@SAHPEAUHWND__@@I_K_JAEA_J@Z 000000018002cf58     SmartCardRW.obj
 0002:0000af58       $unwind$__scrt_acquire_startup_lock 000000018002cf58     LIBCMT:utility.obj
 0002:0000af58       $unwind$__pctype_func      000000018002cf58     libucrt:ctype.obj
 0002:0000af58       $unwind$__scrt_dllmain_after_initialize_c 000000018002cf58     LIBCMT:utility.obj
 0002:0000af58       $unwind$__acrt_release_locale_ref 000000018002cf58     libucrt:locale_refcounting.obj
 0002:0000af58       $unwind$__scrt_dllmain_before_initialize_c 000000018002cf58     LIBCMT:utility.obj
 0002:0000af58       $unwind$__doserrno         000000018002cf58     libucrt:errno.obj
 0002:0000af58       $unwind$?Unadvise@?$IOleObjectImpl@VCOPOSSmartCardRW@@@ATL@@UEAAJK@Z 000000018002cf58     SmartCardRW.obj
 0002:0000af58       $unwind$?EnumAdvise@?$IOleObjectImpl@VCOPOSSmartCardRW@@@ATL@@UEAAJPEAPEAUIEnumSTATDATA@@@Z 000000018002cf58     SmartCardRW.obj
 0002:0000af58       $unwind$uninitialize_environment 000000018002cf58     libucrt:initialization.obj
 0002:0000af58       $unwind$?OnDocWindowActivate@?$IOleInPlaceActiveObjectImpl@VCOPOSSmartCardRW@@@ATL@@UEAAJH@Z 000000018002cf58     SmartCardRW.obj
 0002:0000af58       $unwind$?GetAdvise@?$IViewObjectExImpl@VCOPOSSmartCardRW@@@ATL@@UEAAJPEAK0PEAPEAUIAdviseSink@@@Z 000000018002cf58     SmartCardRW.obj
 0002:0000af58       $unwind$__acrt_uninitialize 000000018002cf58     libucrt:initialization.obj
 0002:0000af58       $unwind$__acrt_uninitialize_critical 000000018002cf58     libucrt:initialization.obj
 0002:0000af58       $unwind$?_LocCPQueryInterface@?$IConnectionPointImpl@VCOPOSSmartCardRW@@$1?IID_IPropertyNotifySink@@3U_GUID@@BVCComDynamicUnkArray@ATL@@@ATL@@UEAAJAEBU_GUID@@PEAPEAX@Z 000000018002cf58     SmartCardRW.obj
 0002:0000af58       $unwind$??__E_AtlBaseModule@ATL@@YAXXZ 000000018002cf58     atls:atlbase.obj
 0002:0000af58       $unwind$?FireViewChange@CComControlBase@ATL@@QEAAJXZ 000000018002cf58     SmartCardRW.obj
 0002:0000af60       $unwind$?AtlComModuleUnregisterServer@ATL@@YAJPEAU_ATL_COM_MODULE70@1@HPEBU_GUID@@@Z 000000018002cf60     SmartCardRW.obj
 0002:0000af60       $unwind$?AtlModuleAddTermFunc@ATL@@YAJPEAU_ATL_MODULE70@1@P6AX_K@Z1@Z 000000018002cf60     SmartCardRW.obj
 0002:0000af60       $unwind$?cw_dup@@YAXPEBDAEAHAEAPEA_W1@Z 000000018002cf60     CWString.obj
 0002:0000af60       $unwind$?initialize_stdio_handles_nolock@@YAXXZ 000000018002cf60     libucrt:ioinit.obj
 0002:0000af60       $unwind$??_Estringdispid@CComTypeInfoHolder@ATL@@QEAAPEAXI@Z 000000018002cf60     OposVariant.obj
 0002:0000af60       $unwind$?CreateInstance@?$CComCreator@V?$CComObjectCached@VCComClassFactory@ATL@@@ATL@@@ATL@@SAJPEAXAEBU_GUID@@PEAPEAX@Z 000000018002cf60     SmartCardRW.obj
 0002:0000af60       $unwind$?GetPagesHelper@?$ISpecifyPropertyPagesImpl@VCOPOSSmartCardRW@@@ATL@@IEAAJPEAUtagCAUUID@@PEBUATL_PROPMAP_ENTRY@2@@Z 000000018002cf60     SmartCardRW.obj
 0002:0000af60       $unwind$__GSHandlerCheck_SEH 000000018002cf60     LIBCMT:gshandlerseh.obj
 0002:0000af60       $unwind$??$TypeMatchHelper@V__FrameHandler3@@@@YAHPEBU_s_HandlerType@@PEBU_s_CatchableType@@PEBU_s_ThrowInfo@@@Z 000000018002cf60     libvcruntime:frame.obj
 0002:0000af60       $unwind$?CreateInstance@?$CComCreator@V?$CComAggObject@VCOPOSSmartCardRW@@@ATL@@@ATL@@SAJPEAXAEBU_GUID@@PEAPEAX@Z 000000018002cf60     SmartCardRW.obj
 0002:0000af60       $unwind$__acrt_initialize_stdio 000000018002cf60     libucrt:_file.obj
 0002:0000af60       $unwind$?AtlComModuleRegisterServer@ATL@@YAJPEAU_ATL_COM_MODULE70@1@HPEBU_GUID@@@Z 000000018002cf60     SmartCardRW.obj
 0002:0000af78       $unwind$__vcrt_uninitialize_locks 000000018002cf78     libvcruntime:locks.obj
 0002:0000af78       $unwind$?get_CapUpdateFirmware@COPOSSmartCardRW@@UEAAJPEAF@Z 000000018002cf78     SmartCardRWImpl.obj
 0002:0000af78       $unwind$_SetThrowImageBase 000000018002cf78     libvcruntime:risctrnsctrl.obj
 0002:0000af78       $unwind$_CreateFrameInfo   000000018002cf78     libvcruntime:risctrnsctrl.obj
 0002:0000af78       $unwind$__vcrt_freeptd     000000018002cf78     libvcruntime:per_thread_data.obj
 0002:0000af78       $unwind$__std_type_info_destroy_list 000000018002cf78     libvcruntime:std_type_info.obj
 0002:0000af78       $unwind$__std_exception_destroy 000000018002cf78     libvcruntime:std_exception.obj
 0002:0000af78       $unwind$?get_CapCompareFirmwareVersion@COPOSSmartCardRW@@UEAAJPEAF@Z 000000018002cf78     SmartCardRWImpl.obj
 0002:0000af78       $unwind$_fflush_nolock     000000018002cf78     libucrt:fflush.obj
 0002:0000af78       $unwind$?get_TransactionInProgress@COPOSSmartCardRW@@UEAAJPEAF@Z 000000018002cf78     SmartCardRWImpl.obj
 0002:0000af78       $unwind$?get_CapCardErrorDetection@COPOSSmartCardRW@@UEAAJPEAF@Z 000000018002cf78     SmartCardRWImpl.obj
 0002:0000af78       $unwind$?get_CapUpdateStatistics@COPOSSmartCardRW@@UEAAJPEAF@Z 000000018002cf78     SmartCardRWImpl.obj
 0002:0000af78       $unwind$?get_CapStatisticsReporting@COPOSSmartCardRW@@UEAAJPEAF@Z 000000018002cf78     SmartCardRWImpl.obj
 0002:0000af78       $unwind$?put_FreezeEvents@COPOSSmartCardRW@@UEAAJF@Z 000000018002cf78     SmartCardRWImpl.obj
 0002:0000af78       $unwind$?get_FreezeEvents@COPOSSmartCardRW@@UEAAJPEAF@Z 000000018002cf78     SmartCardRWImpl.obj
 0002:0000af78       $unwind$?get_DeviceEnabled@COPOSSmartCardRW@@UEAAJPEAF@Z 000000018002cf78     SmartCardRWImpl.obj
 0002:0000af78       $unwind$?get_DataEventEnabled@COPOSSmartCardRW@@UEAAJPEAF@Z 000000018002cf78     SmartCardRWImpl.obj
 0002:0000af78       $unwind$?get_Claimed@COPOSSmartCardRW@@UEAAJPEAF@Z 000000018002cf78     SmartCardRWImpl.obj
 0002:0000af78       $unwind$?SOProcessID@COPOSSmartCardRW@@UEAAJPEAJ@Z 000000018002cf78     SmartCardRWImpl.obj
 0002:0000af78       $unwind$?EventUninit@COPOSSmartCardRW@@IEAAXXZ 000000018002cf78     SmartCardRWImpl.obj
 0002:0000af78       $unwind$_set_statfp        000000018002cf78     libucrt:fpctrl.obj
 0002:0000af78       $unwind$??1COPOSSmartCardRW@@UEAA@XZ 000000018002cf78     SmartCardRWImpl.obj
 0002:0000af78       $unwind$??1CComControlBase@ATL@@UEAA@XZ 000000018002cf78     SmartCardRWImpl.obj
 0002:0000af78       $unwind$??1?$CComObject@VCOPOSSmartCardRW@@@ATL@@UEAA@XZ 000000018002cf78     SmartCardRW.obj
 0002:0000af78       $unwind$??0?$CComObject@VCOPOSSmartCardRW@@@ATL@@QEAA@PEAX@Z 000000018002cf78     SmartCardRW.obj
 0002:0000af78       $unwind$_clrfp             000000018002cf78     libucrt:fpctrl.obj
 0002:0000af78       $unwind$?QueryInterface@?$CComAggObject@VCOPOSSmartCardRW@@@ATL@@UEAAJAEBU_GUID@@PEAPEAX@Z 000000018002cf78     SmartCardRW.obj
 0002:0000af78       $unwind$?Release@?$CComObjectCached@VCComClassFactory@ATL@@@ATL@@UEAAKXZ 000000018002cf78     SmartCardRW.obj
 0002:0000af78       $unwind$?AddRef@?$CComObjectCached@VCComClassFactory@ATL@@@ATL@@UEAAKXZ 000000018002cf78     SmartCardRW.obj
 0002:0000af78       $unwind$??__E_Module@@YAXXZ 000000018002cf78     SmartCardRW.obj
 0002:0000af78       $unwind$?GetConnMap@COPOSSmartCardRW@@SAPEBU_ATL_CONNMAP_ENTRY@ATL@@PEAH@Z 000000018002cf78     SmartCardRW.obj
 0002:0000af78       $unwind$?Unadvise@?$IConnectionPointImpl@VCOPOSSmartCardRW@@$1?DIID__IOPOSSmartCardRWEvents@@3U_GUID@@BVCComDynamicUnkArray@ATL@@@ATL@@UEAAJK@Z 000000018002cf78     SmartCardRW.obj
 0002:0000af78       $unwind$?Unadvise@?$IConnectionPointImpl@VCOPOSSmartCardRW@@$1?IID_IPropertyNotifySink@@3U_GUID@@BVCComDynamicUnkArray@ATL@@@ATL@@UEAAJK@Z 000000018002cf78     SmartCardRW.obj
 0002:0000af78       $unwind$?GetClassInfoW@?$IProvideClassInfo2Impl@$1?CLSID_OPOSSmartCardRW@@3U_GUID@@B$1?DIID__IOPOSSmartCardRWEvents@@3U2@B$1?LIBID_OposSmartCardRW_CCO@@3U2@B$00$0A@VCComTypeInfoHolder@ATL@@@ATL@@UEAAJPEAPEAUITypeInfo@@@Z 000000018002cf78     SmartCardRW.obj
 0002:0000af78       $unwind$?IPSI_GetIPersistStreamInit@?$IPersistStorageImpl@VCOPOSSmartCardRW@@@ATL@@AEAAPEAUIPersistStreamInit@@XZ 000000018002cf78     SmartCardRW.obj
 0002:0000af78       $unwind$?QueryHitPoint@?$IViewObjectExImpl@VCOPOSSmartCardRW@@@ATL@@UEAAJKPEBUtagRECT@@UtagPOINT@@JPEAK@Z 000000018002cf78     SmartCardRW.obj
 0002:0000af78       $unwind$?GetClientSite@?$IOleObjectImpl@VCOPOSSmartCardRW@@@ATL@@UEAAJPEAPEAUIOleClientSite@@@Z 000000018002cf78     SmartCardRW.obj
 0002:0000af78       $unwind$?Load@?$IPersistStreamInitImpl@VCOPOSSmartCardRW@@@ATL@@UEAAJPEAUIStream@@@Z 000000018002cf78     SmartCardRW.obj
 0002:0000af78       $unwind$?GetTypeInfo@?$IDispatchImpl@UIOPOSSmartCardRW@@$1?IID_IOPOSSmartCardRW@@3U_GUID@@B$1?LIBID_OposSmartCardRW_CCO@@3U3@B$00$0A@VCComTypeInfoHolder@ATL@@@ATL@@UEAAJIKPEAPEAUITypeInfo@@@Z 000000018002cf78     SmartCardRW.obj
 0002:0000af78       $unwind$?IOleInPlaceObject_InPlaceDeactivate@CComControlBase@ATL@@QEAAJXZ 000000018002cf78     SmartCardRW.obj
 0002:0000af78       $unwind$?IOleObject_SetExtent@CComControlBase@ATL@@QEAAJKPEAUtagSIZE@@@Z 000000018002cf78     SmartCardRW.obj
 0002:0000af78       $unwind$?IsEqualObject@?$CComPtrBase@UIOleClientSite@@@ATL@@QEAA_NPEAUIUnknown@@@Z 000000018002cf78     SmartCardRW.obj
 0002:0000af78       $unwind$_clearfp           000000018002cf78     libucrt:ieee.obj
 0002:0000af78       $unwind$?AtlCreateTargetDC@ATL@@YAPEAUHDC__@@PEAU2@PEAUtagDVTARGETDEVICE@@@Z 000000018002cf78     SmartCardRW.obj
 0002:0000af78       $unwind$?IsEqualObject@?$CComPtrBase@UITypeInfo@@@ATL@@QEAA_NPEAUIUnknown@@@Z 000000018002cf78     SmartCardRW.obj
 0002:0000af78       $unwind$?AllocateHeap@?$CTempBuffer@E$0BAA@VCCRTAllocator@ATL@@@ATL@@AEAAX_K@Z 000000018002cf78     SmartCardRW.obj
 0002:0000af78       $unwind$?AllocateHeap@?$CTempBuffer@_W$0BAA@VCCRTAllocator@ATL@@@ATL@@AEAAX_K@Z 000000018002cf78     SmartCardRW.obj
 0002:0000af78       $unwind$?AllocateHeap@?$CTempBuffer@_W$0EAA@VCCRTAllocator@ATL@@@ATL@@AEAAX_K@Z 000000018002cf78     SmartCardRW.obj
 0002:0000af78       $unwind$??0CAtlModule@ATL@@QEAA@XZ 000000018002cf78     SmartCardRW.obj
 0002:0000af78       $unwind$??0CAtlWinModule@ATL@@QEAA@XZ 000000018002cf78     OposVariant.obj
 0002:0000af78       $unwind$??0CAtlComModule@ATL@@QEAA@XZ 000000018002cf78     OposVariant.obj
 0002:0000af78       $unwind$feholdexcept       000000018002cf78     libucrt:feholdexcept.obj
 0002:0000af78       $unwind$fesetenv           000000018002cf78     libucrt:fesetenv.obj
 0002:0000af78       $unwind$fegetenv           000000018002cf78     libucrt:fegetenv.obj
 0002:0000af78       $unwind$?DupWide@_CW@@AEAAXXZ 000000018002cf78     CWString.obj
 0002:0000af78       $unwind$__acrt_get_process_end_policy 000000018002cf78     libucrt:win_policies.obj
 0002:0000af78       $unwind$__acrt_uninitialize_locks 000000018002cf78     libucrt:locks.obj
 0002:0000af78       $unwind$__acrt_initialize_locks 000000018002cf78     libucrt:locks.obj
 0002:0000af78       $unwind$__acrt_uninitialize_stdio 000000018002cf78     libucrt:_file.obj
 0002:0000af78       $unwind$_onexit            000000018002cf78     LIBCMT:utility.obj
 0002:0000af78       $unwind$__acrt_update_multibyte_info 000000018002cf78     libucrt:locale_update.obj
 0002:0000af78       $unwind$__acrt_update_locale_info 000000018002cf78     libucrt:locale_update.obj
 0002:0000af78       $unwind$__acrt_SetThreadStackGuarantee 000000018002cf78     libucrt:winapi_thunks.obj
 0002:0000af78       $unwind$__acrt_AppPolicyGetProcessTerminationMethodInternal 000000018002cf78     libucrt:winapi_thunks.obj
 0002:0000af78       $unwind$?FreezeEvents@COPOSSmartCardRW@@MEAAJH@Z 000000018002cf78     SmartCardRWImpl.obj
 0002:0000af78       $unwind$__scrt_release_startup_lock 000000018002cf78     LIBCMT:utility.obj
 0002:0000af78       $unwind$__scrt_initialize_crt 000000018002cf78     LIBCMT:utility.obj
 0002:0000af78       $unwind$__scrt_uninitialize_crt 000000018002cf78     LIBCMT:utility.obj
 0002:0000af78       $unwind$__acrt_FlsGetValue 000000018002cf78     libucrt:winapi_thunks.obj
 0002:0000af78       $unwind$__acrt_FlsFree     000000018002cf78     libucrt:winapi_thunks.obj
 0002:0000af78       $unwind$__scrt_initialize_onexit_tables 000000018002cf78     LIBCMT:utility.obj
 0002:0000af78       $unwind$__acrt_FlsAlloc    000000018002cf78     libucrt:winapi_thunks.obj
 0002:0000af78       $unwind$_malloc_base       000000018002cf78     libucrt:malloc_base.obj
 0002:0000af78       $unwind$_calloc_base       000000018002cf78     libucrt:calloc_base.obj
 0002:0000af78       $unwind$_Init_thread_header 000000018002cf78     LIBCMT:thread_safe_statics.obj
 0002:0000af78       $unwind$_Init_thread_footer 000000018002cf78     LIBCMT:thread_safe_statics.obj
 0002:0000af78       $unwind$_Init_thread_wait  000000018002cf78     LIBCMT:thread_safe_statics.obj
 0002:0000af78       $unwind$__acrt_freeptd     000000018002cf78     libucrt:per_thread_data.obj
 0002:0000af78       $unwind$__acrt_getptd_head 000000018002cf78     libucrt:per_thread_data.obj
 0002:0000af78       $unwind$strcpy_s           000000018002cf78     libucrt:strcpy_s.obj
 0002:0000af78       $unwind$_callnewh          000000018002cf78     libucrt:new_handler.obj
 0002:0000af78       $unwind$__raise_securityfailure 000000018002cf78     LIBCMT:gs_report.obj
 0002:0000af78       $unwind$uninitialize_allocated_memory 000000018002cf78     libucrt:initialization.obj
 0002:0000af78       $unwind$initialize_pointers 000000018002cf78     libucrt:initialization.obj
 0002:0000af78       $unwind$__acrt_allocate_buffer_for_argv 000000018002cf78     libucrt:argv_parsing.obj
 0002:0000af78       $unwind$?exit_or_terminate_process@@YAXI@Z 000000018002cf78     libucrt:exit.obj
 0002:0000af78       $unwind$??2@YAPEAX_K@Z     000000018002cf78     LIBCMT:new_scalar.obj
 0002:0000af78       $unwind$__acrt_stdio_free_buffer_nolock 000000018002cf78     libucrt:_freebuf.obj
 0002:0000af78       $unwind$?try_cor_exit_process@@YAXI@Z 000000018002cf78     libucrt:exit.obj
 0002:0000af78       $unwind$__acrt_uninitialize_winapi_thunks 000000018002cf78     libucrt:winapi_thunks.obj
 0002:0000af78       $unwind$??0exception@std@@QEAA@AEBV01@@Z 000000018002cf78     LIBCMT:throw_bad_alloc.obj
 0002:0000af78       $unwind$??0bad_alloc@std@@QEAA@AEBV01@@Z 000000018002cf78     LIBCMT:throw_bad_alloc.obj
 0002:0000af78       $unwind$??0bad_array_new_length@std@@QEAA@AEBV01@@Z 000000018002cf78     LIBCMT:throw_bad_alloc.obj
 0002:0000af78       $unwind$??_Gtype_info@@UEAAPEAXI@Z 000000018002cf78     LIBCMT:std_type_info_static.obj
 0002:0000af78       $unwind$??1CAtlBaseModule@ATL@@QEAA@XZ 000000018002cf78     atls:atlbase.obj
 0002:0000af78       $unwind$wcscpy_s           000000018002cf78     libucrt:wcscpy_s.obj
 0002:0000af78       $unwind$wcscat_s           000000018002cf78     libucrt:wcscat_s.obj
 0002:0000af78       $unwind$AtlThunk_AllocateData 000000018002cf78     atls:atlthunk.obj
 0002:0000af78       $unwind$__vcrt_FlsGetValue 000000018002cf78     libvcruntime:winapi_downlevel.obj
 0002:0000af78       $unwind$__vcrt_FlsFree     000000018002cf78     libvcruntime:winapi_downlevel.obj
 0002:0000af78       $unwind$__vcrt_FlsAlloc    000000018002cf78     libvcruntime:winapi_downlevel.obj
 0002:0000af78       $unwind$?ExFilterRethrow@@YAHPEAU_EXCEPTION_POINTERS@@PEAUEHExceptionRecord@@PEAH@Z 000000018002cf78     libvcruntime:frame.obj
 0002:0000af78       $unwind$??0bad_exception@std@@QEAA@AEBV01@@Z 000000018002cf78     libvcruntime:frame.obj
 0002:0000af78       $unwind$?GetUnwindTryBlock@__FrameHandler3@@SAHPEA_KPEAU_xDISPATCHER_CONTEXT@@PEBU_s_FuncInfo@@@Z 000000018002cf78     libvcruntime:ehstate.obj
 0002:0000af78       $unwind$?ExecutionInCatch@__FrameHandler3@@SA_NPEAU_xDISPATCHER_CONTEXT@@PEBU_s_FuncInfo@@@Z 000000018002cf78     libvcruntime:risctrnsctrl.obj
 0002:0000af78       $unwind$?StateFromIp@__FrameHandler3@@SAHPEBU_s_FuncInfo@@PEAU_xDISPATCHER_CONTEXT@@_K@Z 000000018002cf78     libvcruntime:ehstate.obj
 0002:0000af78       $unwind$_SetImageBase      000000018002cf78     libvcruntime:risctrnsctrl.obj
 0002:0000af78       $unwind$_IsExceptionObjectToBeDestroyed 000000018002cf78     libvcruntime:ehhelpers.obj
 0002:0000af80       $unwind$?Is_bad_exception_allowed@@YAEPEBU_s_ESTypeList@@@Z 000000018002cf80     libvcruntime:frame.obj
 0002:0000af80       $unwind$_seh_filter_exe    000000018002cf80     libucrt:exception_filter.obj
 0002:0000af80       $unwind$?Next@?$CComEnumImpl@UIEnumConnectionPoints@@$1?_GUID_b196b285_bab4_101a_b69c_00aa00341d07@@3U__s_GUID@@BPEAUIConnectionPoint@@V?$_CopyInterface@UIConnectionPoint@@@ATL@@@ATL@@UEAAJKPEAPEAUIConnectionPoint@@PEAK@Z 000000018002cf80     SmartCardRW.obj
 0002:0000af80       $unwind$_initterm          000000018002cf80     libucrt:initterm.obj
 0002:0000af80       $unwind$?SetControlFocus@CComControlBase@ATL@@QEAAHH@Z 000000018002cf80     SmartCardRW.obj
 0002:0000af80       $unwind$?Next@?$CComEnumImpl@UIEnumConnections@@$1?_GUID_b196b287_bab4_101a_b69c_00aa00341d07@@3U__s_GUID@@BUtagCONNECTDATA@@V?$_Copy@UtagCONNECTDATA@@@ATL@@@ATL@@UEAAJKPEAUtagCONNECTDATA@@PEAK@Z 000000018002cf80     SmartCardRW.obj
 0002:0000af80       $unwind$?AtlWinModuleExtractCreateWndData@ATL@@YAPEAXPEAU_ATL_WIN_MODULE70@1@@Z 000000018002cf80     SmartCardRW.obj
 0002:0000af80       $unwind$?setSBCS@@YAXPEAU__crt_multibyte_data@@@Z 000000018002cf80     libucrt:mbctype.obj
 0002:0000af80       $unwind$?CreateInstance@?$CComCreator@V?$CComObject@VCOPOSSmartCardRW@@@ATL@@@ATL@@SAJPEAXAEBU_GUID@@PEAPEAX@Z 000000018002cf80     SmartCardRW.obj
 0002:0000af80       $unwind$?DoEvent@COPOSSmartCardRW@@IEAAXI_K_J@Z 000000018002cf80     SmartCardRW.obj
 0002:0000af80       $unwind$?AtlWinModuleTerm@ATL@@YAJPEAU_ATL_WIN_MODULE70@1@PEAUHINSTANCE__@@@Z 000000018002cf80     OposVariant.obj
 0002:0000af80       $unwind$__acrt_lowio_create_handle_array 000000018002cf80     libucrt:osfinfo.obj
 0002:0000af80       $unwind$?GetHandlerSearchState@__FrameHandler3@@SAHPEA_KPEAU_xDISPATCHER_CONTEXT@@PEBU_s_FuncInfo@@@Z 000000018002cf80     libvcruntime:frame.obj
 0002:0000af80       $unwind$_recalloc_base     000000018002cf80     libucrt:recalloc.obj
 0002:0000af80       $unwind$?SODirectIO@COPOSSmartCardRW@@MEAAJJPEAJPEAPEA_W@Z 000000018002cf80     SmartCardRW.obj
 0002:0000af80       $unwind$?Append@CParseBuffer@CRegParser@ATL@@QEAAHPEB_WH@Z 000000018002cf80     SmartCardRW.obj
 0002:0000af80       $unwind$__acrt_free_locale 000000018002cf80     libucrt:locale_refcounting.obj
 0002:0000af80       $unwind$?HKeyFromString@CRegParser@ATL@@KAPEAUHKEY__@@PEA_W@Z 000000018002cf80     SmartCardRW.obj
 0002:0000af80       $unwind$?DoVerb@?$IOleObjectImpl@VCOPOSSmartCardRW@@@ATL@@UEAAJJPEAUtagMSG@@PEAUIOleClientSite@@JPEAUHWND__@@PEBUtagRECT@@@Z 000000018002cf80     SmartCardRW.obj
 0002:0000af80       $unwind$?s_EventWindowProc@COPOSSmartCardRW@@KA_JPEAUHWND__@@I_K_J@Z 000000018002cf80     SmartCardRWImpl.obj
 0002:0000af80       $unwind$??$ensure_buffer_is_big_enough@_W@formatting_buffer@__crt_stdio_output@@QEAA_N_K@Z 000000018002cf80     libucrt:output.obj
 0002:0000af80       $unwind$__scrt_dllmain_exception_filter 000000018002cf80     LIBCMT:utility.obj
 0002:0000af80       $unwind$??$ensure_buffer_is_big_enough@D@formatting_buffer@__crt_stdio_output@@QEAA_N_K@Z 000000018002cf80     libucrt:output.obj
 0002:0000af94       $unwind$??$common_lseek_nolock@_J@@YA_JH_JH@Z 000000018002cf94     libucrt:lseek.obj
 0002:0000af94       $unwind$??0OposDispParms@@QEAA@PEAVOposVariant@@H@Z 000000018002cf94     OposVariant.obj
 0002:0000af94       $unwind$__vcrt_getptd_noexit 000000018002cf94     libvcruntime:per_thread_data.obj
 0002:0000af94       $unwind$?AtlCallTermFunc@ATL@@YAXPEAU_ATL_MODULE70@1@@Z 000000018002cf94     SmartCardRW.obj
 0002:0000af94       $unwind$?type_case_s@?$output_processor@_WV?$string_output_adapter@_W@__crt_stdio_output@@V?$format_validation_base@_WV?$string_output_adapter@_W@__crt_stdio_output@@@2@@__crt_stdio_output@@AEAA_NXZ 000000018002cf94     libucrt:output.obj
 0002:0000af94       $unwind$?SetLONG_Ptr@OposVariant@@QEAAXPEAJAEAJ@Z 000000018002cf94     OposVariant.obj
 0002:0000af94       $unwind$__acrt_execute_initializers 000000018002cf94     libucrt:shared_initialization.obj
 0002:0000af94       $unwind$?UnregisterServer@CComModule@ATL@@QEAAJHPEBU_GUID@@@Z 000000018002cf94     SmartCardRW.obj
 0002:0000af94       $unwind$memcpy_s           000000018002cf94     SmartCardRW.obj
 0002:0000af94       $unwind$?SetBSTR_Copy@OposVariant@@QEAAXPEA_WAEAJ@Z 000000018002cf94     OposVariant.obj
 0002:0000af94       $unwind$??_GCComModule@ATL@@UEAAPEAXI@Z 000000018002cf94     SmartCardRW.obj
 0002:0000af94       $unwind$_DllMainCRTStartup 000000018002cf94     LIBCMT:dll_dllmain.obj
 0002:0000af94       $unwind$?free_crt_array_internal@@YAXQEAPEBX_K@Z 000000018002cf94     libucrt:inittime.obj
 0002:0000af94       $unwind$?CatchTryBlock@__FrameHandler3@@SAPEBU_s_TryBlockMapEntry@@PEBU_s_FuncInfo@@H@Z 000000018002cf94     libvcruntime:risctrnsctrl.obj
 0002:0000af94       $unwind$?Add@CComDynamicUnkArray@ATL@@QEAAKPEAUIUnknown@@@Z 000000018002cf94     SmartCardRW.obj
 0002:0000af94       $unwind$__vcrt_InitializeCriticalSectionEx 000000018002cf94     libvcruntime:winapi_downlevel.obj
 0002:0000af94       $unwind$memcpy_s           000000018002cf94     libucrt:cfout.obj
 0002:0000af94       $unwind$?Add@?$CSimpleArray@GV?$CSimpleArrayEqualHelper@G@ATL@@@ATL@@QEAAHAEBG@Z 000000018002cf94     SmartCardRW.obj
 0002:0000af94       $unwind$__acrt_getptd_noexit 000000018002cf94     libucrt:per_thread_data.obj
 0002:0000af94       $unwind$?type_case_n@?$output_processor@_WV?$string_output_adapter@_W@__crt_stdio_output@@V?$format_validation_base@_WV?$string_output_adapter@_W@__crt_stdio_output@@@2@@__crt_stdio_output@@AEAA_NXZ 000000018002cf94     libucrt:output.obj
 0002:0000af94       $unwind$??_GCRegObject@ATL@@UEAAPEAXI@Z 000000018002cf94     SmartCardRW.obj
 0002:0000af94       $unwind$__acrt_getptd      000000018002cf94     libucrt:per_thread_data.obj
 0002:0000af94       $unwind$?SetBSTR_InOutPtr@OposVariant@@QEAA_NPEAPEA_WAEAJ@Z 000000018002cf94     OposVariant.obj
 0002:0000af94       $unwind$?RegisterServer@CComModule@ATL@@QEAAJHPEBU_GUID@@@Z 000000018002cf94     SmartCardRW.obj
 0002:0000af94       $unwind$__acrt_stdio_flush_nolock 000000018002cf94     libucrt:fflush.obj
 0002:0000af94       $unwind$?VTFromRegType@CRegParser@ATL@@KAHPEB_WAEAG@Z 000000018002cf94     SmartCardRW.obj
 0002:0000af94       $unwind$?Term@CAtlComModule@ATL@@QEAAXXZ 000000018002cf94     OposVariant.obj
 0002:0000af94       $unwind$?ClearReplacements@CExpansionVector@ATL@@QEAAJXZ 000000018002cf94     SmartCardRW.obj
 0002:0000af94       $unwind$_exception_enabled 000000018002cf94     libucrt:libm_error.obj
 0002:0000af94       $unwind$?FrameUnwindToEmptyState@__FrameHandler3@@SAXPEA_KPEAU_xDISPATCHER_CONTEXT@@PEBU_s_FuncInfo@@@Z 000000018002cf94     libvcruntime:risctrnsctrl.obj
 0002:0000af94       $unwind$__acrt_InitializeCriticalSectionEx 000000018002cf94     libucrt:winapi_thunks.obj
 0002:0000af94       $unwind$??0_LocaleUpdate@@QEAA@QEAU__crt_locale_pointers@@@Z 000000018002cf94     libucrt:output.obj
 0002:0000af94       $unwind$?Add@?$CSimpleMap@PEA_WPEA_WVCExpansionVectorEqualHelper@ATL@@@ATL@@QEAAHAEBQEA_W0@Z 000000018002cf94     SmartCardRW.obj
 0002:0000af94       $unwind$?type_case_Z@?$output_processor@_WV?$string_output_adapter@_W@__crt_stdio_output@@V?$format_validation_base@_WV?$string_output_adapter@_W@__crt_stdio_output@@@2@@__crt_stdio_output@@AEAA_NXZ 000000018002cf94     libucrt:output.obj
 0002:0000af94       $unwind$?SetString@OposVariant@@QEAAXPEB_WAEAJ@Z 000000018002cf94     OposVariant.obj
 0002:0000af94       $unwind$?SetDispatch_Ptr@OposVariant@@QEAAXPEAUIDispatch@@AEAJ@Z 000000018002cf94     OposVariant.obj
 0002:0000af94       $unwind$?Advise@?$IOleObjectImpl@VCOPOSSmartCardRW@@@ATL@@UEAAJPEAUIAdviseSink@@PEAK@Z 000000018002cf94     SmartCardRW.obj
 0002:0000afa4       $unwind$?DeleteSubKey@CRegKey@ATL@@QEAAJPEB_W@Z 000000018002cfa4     SmartCardRW.obj
 0002:0000afa4       $unwind$?replace_current_thread_locale_nolock@@YAXQEAU__acrt_ptd@@QEAU__crt_locale_data@@@Z 000000018002cfa4     libucrt:per_thread_data.obj
 0002:0000afa4       $unwind$?Release@?$CComAggObject@VCOPOSSmartCardRW@@@ATL@@UEAAKXZ 000000018002cfa4     SmartCardRW.obj
 0002:0000afa4       $unwind$??_Gbad_exception@std@@UEAAPEAXI@Z 000000018002cfa4     libvcruntime:frame.obj
 0002:0000afa4       $unwind$??_GCComClassFactory@ATL@@UEAAPEAXI@Z 000000018002cfa4     SmartCardRW.obj
 0002:0000afa4       $unwind$_RTC_Terminate     000000018002cfa4     LIBCMT:initsect.obj
 0002:0000afa4       $unwind$??$common_initialize_environment_nolock@D@@YAHXZ 000000018002cfa4     libucrt:environment_initialization.obj
 0002:0000afa4       $unwind$__acrt_execute_uninitializers 000000018002cfa4     libucrt:shared_initialization.obj
 0002:0000afa4       $unwind$__acrt_LocaleNameToLCID 000000018002cfa4     libucrt:winapi_thunks.obj
 0002:0000afa4       $unwind$_initterm_e        000000018002cfa4     libucrt:initterm.obj
 0002:0000afa4       $unwind$_realloc_base      000000018002cfa4     libucrt:realloc_base.obj
 0002:0000afa4       $unwind$??_Gbad_alloc@std@@UEAAPEAXI@Z 000000018002cfa4     LIBCMT:throw_bad_alloc.obj
 0002:0000afa4       $unwind$?WriteToStream@CComBSTR@ATL@@QEAAJPEAUIStream@@@Z 000000018002cfa4     SmartCardRW.obj
 0002:0000afa4       $unwind$??_G?$CComObjectCached@VCComClassFactory@ATL@@@ATL@@UEAAPEAXI@Z 000000018002cfa4     SmartCardRW.obj
 0002:0000afa4       $unwind$??$GetProcAddressAll@P6AXPEAUAtlThunkData_t@@@Z@@YAP6AXPEAUAtlThunkData_t@@@ZPEAP6AX0@Z@Z 000000018002cfa4     atls:atlthunk.obj
 0002:0000afa4       $unwind$DllMain            000000018002cfa4     SmartCardRW.obj
 0002:0000afa4       $unwind$??1?$CComEnumImpl@UIEnumConnections@@$1?_GUID_b196b287_bab4_101a_b69c_00aa00341d07@@3U__s_GUID@@BUtagCONNECTDATA@@V?$_Copy@UtagCONNECTDATA@@@ATL@@@ATL@@UEAA@XZ 000000018002cfa4     SmartCardRW.obj
 0002:0000afa4       $unwind$??$GetProcAddressAll@P6AXPEAUAtlThunkData_t@@PEAX_K@Z@@YAP6AXPEAUAtlThunkData_t@@PEAX_K@ZPEAP6AX012@Z@Z 000000018002cfa4     atls:atlthunk.obj
 0002:0000afa4       $unwind$__vcrt_FlsSetValue 000000018002cfa4     libvcruntime:winapi_downlevel.obj
 0002:0000afa4       $unwind$??$GetProcAddressAll@P6APEAUAtlThunkData_t@@XZ@@YAP6APEAUAtlThunkData_t@@XZPEAP6APEAU0@XZ@Z 000000018002cfa4     atls:atlthunk.obj
 0002:0000afa4       $unwind$??1?$CComEnumImpl@UIEnumConnectionPoints@@$1?_GUID_b196b285_bab4_101a_b69c_00aa00341d07@@3U__s_GUID@@BPEAUIConnectionPoint@@V?$_CopyInterface@UIConnectionPoint@@@ATL@@@ATL@@UEAA@XZ 000000018002cfa4     SmartCardRW.obj
 0002:0000afa4       $unwind$??$GetProcAddressAll@P6AP6A_JPEAUHWND__@@I_K_J@ZPEAUAtlThunkData_t@@@Z@@YAP6AP6A_JPEAUHWND__@@I_K_J@ZPEAUAtlThunkData_t@@@ZPEAP6AP6A_J0I12@Z3@Z@Z 000000018002cfa4     atls:atlthunk.obj
 0002:0000afa4       $unwind$??_G?$CComObject@VCOPOSSmartCardRW@@@ATL@@UEAAPEAXI@Z 000000018002cfa4     SmartCardRW.obj
 0002:0000afa4       $unwind$__acrt_fp_strflt_to_string 000000018002cfa4     libucrt:_fptostr.obj
 0002:0000afa4       $unwind$?__AllocStdCallThunk_cmn@@YAPEAXXZ 000000018002cfa4     atls:atlthunk.obj
 0002:0000afa4       $unwind$?Release@?$CComObject@VCOPOSSmartCardRW@@@ATL@@UEAAKXZ 000000018002cfa4     SmartCardRW.obj
 0002:0000afa4       $unwind$?__scrt_initialize_thread_safe_statics@@YAHXZ 000000018002cfa4     LIBCMT:thread_safe_statics.obj
 0002:0000afa4       $unwind$?Release@?$CComObject@V?$CComEnum@UIEnumConnectionPoints@@$1?_GUID_b196b285_bab4_101a_b69c_00aa00341d07@@3U__s_GUID@@BPEAUIConnectionPoint@@V?$_CopyInterface@UIConnectionPoint@@@ATL@@VCComSingleThreadModel@6@@ATL@@@ATL@@UEAAKXZ 000000018002cfa4     SmartCardRW.obj
 0002:0000afa4       $unwind$__acrt_errno_map_os_error 000000018002cfa4     libucrt:errno.obj
 0002:0000afa4       $unwind$?IOleObject_SetClientSite@CComControlBase@ATL@@QEAAJPEAUIOleClientSite@@@Z 000000018002cfa4     SmartCardRW.obj
 0002:0000afa4       $unwind$_updatetlocinfoEx_nolock 000000018002cfa4     libucrt:locale_refcounting.obj
 0002:0000afa4       $unwind$?CreateInstance@?$CComObject@V?$CComEnum@UIEnumConnectionPoints@@$1?_GUID_b196b285_bab4_101a_b69c_00aa00341d07@@3U__s_GUID@@BPEAUIConnectionPoint@@V?$_CopyInterface@UIConnectionPoint@@@ATL@@VCComSingleThreadModel@6@@ATL@@@ATL@@SAJPEAPEAV12@@Z 000000018002cfa4     SmartCardRW.obj
 0002:0000afa4       $unwind$_RTC_Initialize    000000018002cfa4     LIBCMT:initsect.obj
 0002:0000afa4       $unwind$??_G?$CComAggObject@VCOPOSSmartCardRW@@@ATL@@UEAAPEAXI@Z 000000018002cfa4     SmartCardRW.obj
 0002:0000afa4       $unwind$??_G?$CComObject@V?$CComEnum@UIEnumConnectionPoints@@$1?_GUID_b196b285_bab4_101a_b69c_00aa00341d07@@3U__s_GUID@@BPEAUIConnectionPoint@@V?$_CopyInterface@UIConnectionPoint@@@ATL@@VCComSingleThreadModel@6@@ATL@@@ATL@@UEAAPEAXI@Z 000000018002cfa4     SmartCardRW.obj
 0002:0000afa4       $unwind$AtlThunk_DataToCode 000000018002cfa4     atls:atlthunk.obj
 0002:0000afa4       $unwind$??_G?$CComContainedObject@VCOPOSSmartCardRW@@@ATL@@UEAAPEAXI@Z 000000018002cfa4     SmartCardRW.obj
 0002:0000afa4       $unwind$?SetUnwindTryBlock@__FrameHandler3@@SAXPEA_KPEAU_xDISPATCHER_CONTEXT@@PEBU_s_FuncInfo@@H@Z 000000018002cfa4     libvcruntime:ehstate.obj
 0002:0000afa4       $unwind$_FindAndUnlinkFrame 000000018002cfa4     libvcruntime:risctrnsctrl.obj
 0002:0000afa4       $unwind$??0?$CComContainedObject@VCOPOSSmartCardRW@@@ATL@@QEAA@PEAX@Z 000000018002cfa4     SmartCardRW.obj
 0002:0000afa4       $unwind$wcsncpy_s          000000018002cfa4     libucrt:wcsncpy_s.obj
 0002:0000afa4       $unwind$?__InitializeThunkPool@@YAHXZ 000000018002cfa4     atls:atlthunk.obj
 0002:0000afa4       $unwind$_close_nolock      000000018002cfa4     libucrt:close.obj
 0002:0000afa4       $unwind$__acrt_uninitialize_lowio 000000018002cfa4     libucrt:ioinit.obj
 0002:0000afa4       $unwind$??_Gbad_array_new_length@std@@UEAAPEAXI@Z 000000018002cfa4     LIBCMT:throw_bad_alloc.obj
 0002:0000afa4       $unwind$?SetAdvise@?$IViewObjectExImpl@VCOPOSSmartCardRW@@@ATL@@UEAAJKKPEAUIAdviseSink@@@Z 000000018002cfa4     SmartCardRW.obj
 0002:0000afa4       $unwind$?IsDirty@?$IPersistStorageImpl@VCOPOSSmartCardRW@@@ATL@@UEAAJXZ 000000018002cfa4     SmartCardRW.obj
 0002:0000afa4       $unwind$?InitNew@?$IPersistStorageImpl@VCOPOSSmartCardRW@@@ATL@@UEAAJPEAUIStorage@@@Z 000000018002cfa4     SmartCardRW.obj
 0002:0000afa4       $unwind$strncpy_s          000000018002cfa4     libucrt:strncpy_s.obj
 0002:0000afa4       $unwind$_fclose_nolock     000000018002cfa4     libucrt:fclose.obj
 0002:0000afa4       $unwind$?Term@CComModule@ATL@@QEAAXXZ 000000018002cfa4     SmartCardRW.obj
 0002:0000afa4       $unwind$?SetVARIANT_BOOL@OposVariant@@QEAAXF@Z 000000018002cfa4     OposVariant.obj
 0002:0000afa4       $unwind$?SetLONG@OposVariant@@QEAAXJ@Z 000000018002cfa4     OposVariant.obj
 0002:0000afa4       $unwind$??1?$IConnectionPointImpl@VCOPOSSmartCardRW@@$1?DIID__IOPOSSmartCardRWEvents@@3U_GUID@@BVCComDynamicUnkArray@ATL@@@ATL@@QEAA@XZ 000000018002cfa4     SmartCardRWImpl.obj
 0002:0000afa4       $unwind$??1?$IConnectionPointImpl@VCOPOSSmartCardRW@@$1?IID_IPropertyNotifySink@@3U_GUID@@BVCComDynamicUnkArray@ATL@@@ATL@@QEAA@XZ 000000018002cfa4     SmartCardRWImpl.obj
 0002:0000afa4       $unwind$??0CAtlBaseModule@ATL@@QEAA@XZ 000000018002cfa4     atls:atlbase.obj
 0002:0000afa4       $unwind$??_Gexception@std@@UEAAPEAXI@Z 000000018002cfa4     LIBCMT:throw_bad_alloc.obj
 0002:0000afa4       $unwind$?SOData@COPOSSmartCardRW@@MEAAJJ@Z 000000018002cfa4     SmartCardRW.obj
 0002:0000afa4       $unwind$?SetBSTR@OposVariant@@QEAAXPEA_WAEAJ@Z 000000018002cfa4     OposVariant.obj
 0002:0000afa4       $unwind$??_G?$CComObject@V?$CComEnum@UIEnumConnections@@$1?_GUID_b196b287_bab4_101a_b69c_00aa00341d07@@3U__s_GUID@@BUtagCONNECTDATA@@V?$_Copy@UtagCONNECTDATA@@@ATL@@VCComSingleThreadModel@6@@ATL@@@ATL@@UEAAPEAXI@Z 000000018002cfa4     SmartCardRW.obj
 0002:0000afa4       $unwind$?SOOutputComplete@COPOSSmartCardRW@@MEAAJJ@Z 000000018002cfa4     SmartCardRW.obj
 0002:0000afa4       $unwind$?CreateInstance@?$CComObject@V?$CComEnum@UIEnumConnections@@$1?_GUID_b196b287_bab4_101a_b69c_00aa00341d07@@3U__s_GUID@@BUtagCONNECTDATA@@V?$_Copy@UtagCONNECTDATA@@@ATL@@VCComSingleThreadModel@6@@ATL@@@ATL@@SAJPEAPEAV12@@Z 000000018002cfa4     SmartCardRW.obj
 0002:0000afa4       $unwind$?SOStatusUpdate@COPOSSmartCardRW@@MEAAJJ@Z 000000018002cfa4     SmartCardRW.obj
 0002:0000afa4       $unwind$?Release@?$CComObject@V?$CComEnum@UIEnumConnections@@$1?_GUID_b196b287_bab4_101a_b69c_00aa00341d07@@3U__s_GUID@@BUtagCONNECTDATA@@V?$_Copy@UtagCONNECTDATA@@@ATL@@VCComSingleThreadModel@6@@ATL@@@ATL@@UEAAKXZ 000000018002cfa4     SmartCardRW.obj
 0002:0000afa4       $unwind$__acrt_FlsSetValue 000000018002cfa4     libucrt:winapi_thunks.obj
 0002:0000afb0       $unwind$?x_ismbbtype_l@@YAHPEAU__crt_locale_pointers@@IHH@Z 000000018002cfb0     libucrt:ismbbyte.obj
 0002:0000afb0       $unwind$?ChangeBSTR@OposVariant@@QEAAXPEAPEA_WAEAJ@Z 000000018002cfb0     OposVariant.obj
 0002:0000afb0       $unwind$?ChangeLONG@OposVariant@@QEAAXPEAJAEAJ@Z 000000018002cfb0     OposVariant.obj
 0002:0000afc0       $unwind$swprintf_s         000000018002cfc0     SmartCardRW.obj
 0002:0000afd0       $unwind$?_AtlVerifyStackAvailable@_ATL_SAFE_ALLOCA_IMPL@ATL@@YA_N_K@Z 000000018002cfd0     SmartCardRW.obj
 0002:0000affc       $unwind$?fin$1@?0??FrameUnwindToState@__FrameHandler3@@SAXPEA_KPEAU_xDISPATCHER_CONTEXT@@PEBU_s_FuncInfo@@H@Z@4HA 000000018002cffc     libvcruntime:frame.obj
 0002:0000affc       $unwind$?filt$0@?0??CxxCallCatchBlock@__FrameHandler3@@SAPEAXPEAU_EXCEPTION_RECORD@@@Z@4HA 000000018002cffc     libvcruntime:frame.obj
 0002:0000affc       $unwind$?fin$0@?0???$?RV<lambda_7777bce6b2f8c936911f934f8298dc43>@@AEAV<lambda_f03950bc5685219e0bcd2087efbe011e>@@V<lambda_3883c3dff614d5e0c5f61bb1ac94921c>@@@?$__crt_seh_guarded_call@H@@QEAAH$$QEAV<lambda_7777bce6b2f8c936911f934f8298dc43>@@AEAV<lambda_f03950bc5685219e0bcd2087efbe011e>@@$$QEAV<lambda_3883c3dff614d5e0c5f61bb1ac94921c>@@@Z@4HA 000000018002cffc     libucrt:onexit.obj
 0002:0000affc       $unwind$?filt$0@?0???R<lambda_6e4b09c48022b2350581041d5f6b0c4c>@@QEBA@XZ@4HA 000000018002cffc     libucrt:exit.obj
 0002:0000affc       $unwind$?fin$0@?0???$?RV<lambda_0ae27a3a962d80f24befdcbee591983d>@@AEAV<lambda_8d0ee55de4b1038c4002e0adecdf1839>@@V<lambda_dc504788e8f1664fe9b84e20bfb512f2>@@@?$__crt_seh_guarded_call@X@@QEAAX$$QEAV<lambda_0ae27a3a962d80f24befdcbee591983d>@@AEAV<lambda_8d0ee55de4b1038c4002e0adecdf1839>@@$$QEAV<lambda_dc504788e8f1664fe9b84e20bfb512f2>@@@Z@4HA 000000018002cffc     libucrt:per_thread_data.obj
 0002:0000affc       $unwind$?fin$0@?0???$?RV<lambda_aa87e3671a710a21b5dc78c0bdf72e11>@@AEAV<lambda_92619d2358a28f41a33ba319515a20b9>@@V<lambda_6992ecaafeb10aed2b74cb1fae11a551>@@@?$__crt_seh_guarded_call@X@@QEAAX$$QEAV<lambda_aa87e3671a710a21b5dc78c0bdf72e11>@@AEAV<lambda_92619d2358a28f41a33ba319515a20b9>@@$$QEAV<lambda_6992ecaafeb10aed2b74cb1fae11a551>@@@Z@4HA 000000018002cffc     libucrt:per_thread_data.obj
 0002:0000affc       $unwind$?fin$0@?0??dllmain_crt_process_attach@@YAHQEAUHINSTANCE__@@QEAX@Z@4HA 000000018002cffc     LIBCMT:dll_dllmain.obj
 0002:0000affc       $unwind$?fin$0@?0???$?RV<lambda_2d41944a1d46af3157314b8a01080d33>@@AEAV<lambda_8f455de75cd7d7f24b4096f044d8b9e6>@@V<lambda_aa500f224e6afead328df44964fe2772>@@@?$__crt_seh_guarded_call@X@@QEAAX$$QEAV<lambda_2d41944a1d46af3157314b8a01080d33>@@AEAV<lambda_8f455de75cd7d7f24b4096f044d8b9e6>@@$$QEAV<lambda_aa500f224e6afead328df44964fe2772>@@@Z@4HA 000000018002cffc     libucrt:per_thread_data.obj
 0002:0000affc       $unwind$_IsNonwritableInCurrentImage$filt$0 000000018002cffc     LIBCMT:pesect.obj
 0002:0000affc       $unwind$_ctrlfp$filt$0     000000018002cffc     libucrt:fpctrl.obj
 0002:0000affc       $unwind$?fin$0@?0??dllmain_crt_process_detach@@YAH_N@Z@4HA 000000018002cffc     LIBCMT:dll_dllmain.obj
 0002:0000affc       $unwind$?fin$0@?0???$?RV<lambda_751a882b2c74d4b022dec766aa51a29a>@@AEAV<lambda_628dfdc04ba53c8bfc02c9951375f3f5>@@V<lambda_f6c7be5f7998530c34de24c7437d6b54>@@@?$__crt_seh_guarded_call@H@@QEAAH$$QEAV<lambda_751a882b2c74d4b022dec766aa51a29a>@@AEAV<lambda_628dfdc04ba53c8bfc02c9951375f3f5>@@$$QEAV<lambda_f6c7be5f7998530c34de24c7437d6b54>@@@Z@4HA 000000018002cffc     libucrt:close.obj
 0002:0000affc       $unwind$?fin$0@?0???$?RV<lambda_d80eeec6fff315bfe5c115232f3240e3>@@AEAV<lambda_6e4b09c48022b2350581041d5f6b0c4c>@@V<lambda_2358e3775559c9db80273638284d5e45>@@@?$__crt_seh_guarded_call@X@@QEAAX$$QEAV<lambda_d80eeec6fff315bfe5c115232f3240e3>@@AEAV<lambda_6e4b09c48022b2350581041d5f6b0c4c>@@$$QEAV<lambda_2358e3775559c9db80273638284d5e45>@@@Z@4HA 000000018002cffc     libucrt:exit.obj
 0002:0000affc       $unwind$__acrt_initialize_lowio$fin$0 000000018002cffc     libucrt:ioinit.obj
 0002:0000affc       $unwind$?fin$0@?0???$?RV<lambda_410d79af7f07d98d83a3f525b3859a53>@@AEAV<lambda_3e16ef9562a7dcce91392c22ab16ea36>@@V<lambda_38119f0e861e05405d8a144b9b982f0a>@@@?$__crt_seh_guarded_call@X@@QEAAX$$QEAV<lambda_410d79af7f07d98d83a3f525b3859a53>@@AEAV<lambda_3e16ef9562a7dcce91392c22ab16ea36>@@$$QEAV<lambda_38119f0e861e05405d8a144b9b982f0a>@@@Z@4HA 000000018002cffc     libucrt:wsetlocale.obj
 0002:0000affc       $unwind$fclose$fin$0       000000018002cffc     libucrt:fclose.obj
 0002:0000affc       $unwind$_write$fin$0       000000018002cffc     libucrt:write.obj
 0002:0000affc       $unwind$?fin$0@?0???$?RV<lambda_a37b2b86f63e897a80ea819b0eb08c01>@@AEAV<lambda_38ce7e780aa69e748d6df282ebc68efe>@@V<lambda_99fb1378e971ab6e7edea83e3a7a83a2>@@@?$__crt_seh_guarded_call@H@@QEAAH$$QEAV<lambda_a37b2b86f63e897a80ea819b0eb08c01>@@AEAV<lambda_38ce7e780aa69e748d6df282ebc68efe>@@$$QEAV<lambda_99fb1378e971ab6e7edea83e3a7a83a2>@@@Z@4HA 000000018002cffc     libucrt:commit.obj
 0002:0000affc       $unwind$__DestructExceptionObject$filt$0 000000018002cffc     libvcruntime:ehhelpers.obj
 0002:0000affc       $unwind$?fin$0@?0???$?RV<lambda_f2e299630e499de9f9a165e60fcd3db5>@@AEAV<lambda_2ae9d31cdba2644fcbeaf08da7c24588>@@V<lambda_40d01ff24d0e7b3814fdbdcee8eab3c7>@@@?$__crt_seh_guarded_call@X@@QEAAX$$QEAV<lambda_f2e299630e499de9f9a165e60fcd3db5>@@AEAV<lambda_2ae9d31cdba2644fcbeaf08da7c24588>@@$$QEAV<lambda_40d01ff24d0e7b3814fdbdcee8eab3c7>@@@Z@4HA 000000018002cffc     libucrt:per_thread_data.obj
 0002:0000affc       $unwind$__acrt_lowio_ensure_fh_exists$fin$0 000000018002cffc     libucrt:osfinfo.obj
 0002:0000affc       $unwind$?filt$0@?0??_AtlVerifyStackAvailable@_ATL_SAFE_ALLOCA_IMPL@ATL@@YA_N_K@Z@4HA 000000018002cffc     SmartCardRW.obj
 0002:0000affc       $unwind$_fcloseall$fin$0   000000018002cffc     libucrt:closeall.obj
 0002:0000affc       $unwind$__acrt_update_thread_locale_data$fin$0 000000018002cffc     libucrt:locale_refcounting.obj
 0002:0000affc       $unwind$?fin$0@?0???$?RV<lambda_886d6c58226a84441f68b9f2b8217b83>@@AEAV<lambda_ab61a845afdef5b7c387490eaf3616ee>@@V<lambda_f7f22ab5edc0698d5f6905b0d3f44752>@@@?$__crt_seh_guarded_call@X@@QEAAX$$QEAV<lambda_886d6c58226a84441f68b9f2b8217b83>@@AEAV<lambda_ab61a845afdef5b7c387490eaf3616ee>@@$$QEAV<lambda_f7f22ab5edc0698d5f6905b0d3f44752>@@@Z@4HA 000000018002cffc     libucrt:fflush.obj
 0002:0000affc       $unwind$?fin$0@?0???$?RV<lambda_450d765d439847d4c735a33c368b5fc0>@@AEAV<lambda_44731a7d0e6d81c3e6aa82d741081786>@@V<lambda_601a2a7da3b7a96e9554ac7215c4b07c>@@@?$__crt_seh_guarded_call@P6AXH@Z@@QEAAP6AXH@Z$$QEAV<lambda_450d765d439847d4c735a33c368b5fc0>@@AEAV<lambda_44731a7d0e6d81c3e6aa82d741081786>@@$$QEAV<lambda_601a2a7da3b7a96e9554ac7215c4b07c>@@@Z@4HA 000000018002cffc     libucrt:signal.obj
 0002:0000affc       $unwind$raise$fin$0        000000018002cffc     libucrt:signal.obj
 0002:0000affc       $unwind$?fin$0@?0???$?RV<lambda_efdfa57d1f175319df784efa44bb7b81>@@AEAV<lambda_5f0a4c1567f8adc6734073e5d1e1b35c>@@V<lambda_2e8a7d3640ea6ccb4c2413664c2db6fd>@@@?$__crt_seh_guarded_call@X@@QEAAX$$QEAV<lambda_efdfa57d1f175319df784efa44bb7b81>@@AEAV<lambda_5f0a4c1567f8adc6734073e5d1e1b35c>@@$$QEAV<lambda_2e8a7d3640ea6ccb4c2413664c2db6fd>@@@Z@4HA 000000018002cffc     libucrt:mbctype.obj
 0002:0000affc       $unwind$?fin$0@?0???$?RV<lambda_842d9ff0dc9ef11c61343bbaebe7f885>@@AEAV<lambda_c5860995281e5c4ce005b3de8f5874ee>@@V<lambda_d90129c13df834fdcbf8d2b88dafcf2d>@@@?$__crt_seh_guarded_call@X@@QEAAX$$QEAV<lambda_842d9ff0dc9ef11c61343bbaebe7f885>@@AEAV<lambda_c5860995281e5c4ce005b3de8f5874ee>@@$$QEAV<lambda_d90129c13df834fdcbf8d2b88dafcf2d>@@@Z@4HA 000000018002cffc     libucrt:fflush.obj
 0002:0000affc       $unwind$?fin$0@?0??update_thread_multibyte_data_internal@@YAPEAU__crt_multibyte_data@@QEAU__acrt_ptd@@QEAPEAU1@@Z@4HA 000000018002cffc     libucrt:mbctype.obj
 0002:0000affc       $unwind$_query_new_handler$fin$0 000000018002cffc     libucrt:new_handler.obj
 0002:0000affc       $unwind$?fin$0@?0???$?RV<lambda_638799b9deba96c50f710eeac98168cd>@@AEAV<lambda_22ebabd17bc4fa466a2aca6d8deb888d>@@V<lambda_a6f7d7db0129f75315ebf26d50c089f1>@@@?$__crt_seh_guarded_call@H@@QEAAH$$QEAV<lambda_638799b9deba96c50f710eeac98168cd>@@AEAV<lambda_22ebabd17bc4fa466a2aca6d8deb888d>@@$$QEAV<lambda_a6f7d7db0129f75315ebf26d50c089f1>@@@Z@4HA 000000018002cffc     libucrt:onexit.obj
 0002:0000affc       $unwind$?filt$0@?0??FrameUnwindToState@__FrameHandler3@@SAXPEA_KPEAU_xDISPATCHER_CONTEXT@@PEBU_s_FuncInfo@@H@Z@4HA 000000018002cffc     libvcruntime:frame.obj
 0002:0000b004       $unwind$?AtlInternalOleLoadFromStream@ATL@@YAJPEAUIStream@@AEBU_GUID@@PEAPEAXTClassesAllowedInStream@1@K@Z 000000018002d004     SmartCardRW.obj
 0002:0000b020       $unwind$?PutProperty@?$CComPtr@UIDispatch@@@ATL@@SAJPEAUIDispatch@@JPEAUtagVARIANT@@@Z 000000018002d020     SmartCardRW.obj
 0002:0000b020       $unwind$?Close@COPOSSmartCardRW@@UEAAJPEAJ@Z 000000018002d020     SmartCardRWImpl.obj
 0002:0000b02c       $unwind$?ReadFromStream@CComBSTR@ATL@@QEAAJPEAUIStream@@@Z 000000018002d02c     SmartCardRW.obj
 0002:0000b02c       $unwind$_configure_narrow_argv 000000018002d02c     libucrt:argv_parsing.obj
 0002:0000b040       $unwind$?WriteToStream@CComVariant@ATL@@QEAAJPEAUIStream@@@Z 000000018002d040     SmartCardRW.obj
 0002:0000b054       $unwind$__dcrt_write_console 000000018002d054     libucrt:initcon.obj
 0002:0000b054       $unwind$?RegOpenKeyExW@CAtlTransactionManager@ATL@@QEAAJPEAUHKEY__@@PEB_WKKPEAPEAU3@@Z 000000018002d054     SmartCardRW.obj
 0002:0000b054       $unwind$?WriteToStream@CComVariant@ATL@@QEAAJPEAUIStream@@G@Z 000000018002d054     SmartCardRW.obj
 0002:0000b054       $unwind$??$__acrt_wcs_to_mbs_cp@U__crt_win32_buffer_no_resizing@@@@YAHQEB_WAEAV?$__crt_win32_buffer@DU__crt_win32_buffer_no_resizing@@@@I@Z 000000018002d054     libucrt:getmodulefilenamea.obj
 0002:0000b068       $unwind$?ReadFromStream@CComVariant@ATL@@QEAAJPEAUIStream@@GTClassesAllowedInStream@2@K@Z 000000018002d068     SmartCardRW.obj
 0002:0000b080       $unwind$?GetSizeMax@CComVariant@ATL@@QEBAJPEAT_ULARGE_INTEGER@@@Z 000000018002d080     SmartCardRW.obj
 0002:0000b098       $unwind$?RegCreateKeyExW@CAtlTransactionManager@ATL@@QEAAJPEAUHKEY__@@PEB_WKPEA_WKKQEAU_SECURITY_ATTRIBUTES@@PEAPEAU3@PEAK@Z 000000018002d098     SmartCardRW.obj
 0002:0000b098       $unwind$__acrt_fp_format   000000018002d098     libucrt:cvt.obj
 0002:0000b0ac       $unwind$?GetGITPtr@CAtlModule@ATL@@UEAAJPEAPEAUIGlobalInterfaceTable@@@Z 000000018002d0ac     SmartCardRW.obj
 0002:0000b0ac       $unwind$?RegDeleteKeyW@CAtlTransactionManager@ATL@@QEAAJPEAUHKEY__@@PEB_W@Z 000000018002d0ac     SmartCardRW.obj
 0002:0000b0ac       $unwind$strpbrk            000000018002d0ac     libucrt:strpbrk.obj
 0002:0000b0bc       $unwind$?AtlInternalQueryInterface@ATL@@YAJPEAXPEBU_ATL_INTMAP_ENTRY@1@AEBU_GUID@@PEAPEAX@Z 000000018002d0bc     SmartCardRW.obj
 0002:0000b0bc       $unwind$?AtlHiMetricToPixel@ATL@@YAXPEBUtagSIZE@@PEAU2@@Z 000000018002d0bc     SmartCardRW.obj
 0002:0000b0d4       $unwind$__acrt_DownlevelLocaleNameToLCID 000000018002d0d4     libucrt:lcidtoname_downlevel.obj
 0002:0000b0d4       $unwind$?NextToken@CRegParser@ATL@@IEAAJPEA_W@Z 000000018002d0d4     SmartCardRW.obj
 0002:0000b0d4       $unwind$?type_case_integer@?$output_processor@_WV?$string_output_adapter@_W@__crt_stdio_output@@V?$format_validation_base@_WV?$string_output_adapter@_W@__crt_stdio_output@@@2@@__crt_stdio_output@@AEAA_NI_N@Z 000000018002d0d4     libucrt:output.obj
 0002:0000b0d4       $unwind$?Init@?$CComEnumImpl@UIEnumConnections@@$1?_GUID_b196b287_bab4_101a_b69c_00aa00341d07@@3U__s_GUID@@BUtagCONNECTDATA@@V?$_Copy@UtagCONNECTDATA@@@ATL@@@ATL@@QEAAJPEAUtagCONNECTDATA@@0PEAUIUnknown@@W4CComEnumFlags@2@@Z 000000018002d0d4     SmartCardRW.obj
 0002:0000b0d4       $unwind$?GetClassObject@CComModule@ATL@@QEAAJAEBU_GUID@@0PEAPEAX@Z 000000018002d0d4     SmartCardRW.obj
 0002:0000b0d4       $unwind$?Init@?$CComEnumImpl@UIEnumConnectionPoints@@$1?_GUID_b196b285_bab4_101a_b69c_00aa00341d07@@3U__s_GUID@@BPEAUIConnectionPoint@@V?$_CopyInterface@UIConnectionPoint@@@ATL@@@ATL@@QEAAJPEAPEAUIConnectionPoint@@0PEAUIUnknown@@W4CComEnumFlags@2@@Z 000000018002d0d4     SmartCardRW.obj
 0002:0000b0d4       $unwind$?AtlComModuleGetClassObject@ATL@@YAJPEAU_ATL_COM_MODULE70@1@AEBU_GUID@@1PEAPEAX@Z 000000018002d0d4     SmartCardRW.obj
 0002:0000b0d4       $unwind$??R<lambda_f03950bc5685219e0bcd2087efbe011e>@@QEBAHXZ 000000018002d0d4     libucrt:onexit.obj
 0002:0000b0ec       $unwind$?AtlRegisterClassCategoriesHelper@ATL@@YAJAEBU_GUID@@PEBU_ATL_CATMAP_ENTRY@1@H@Z 000000018002d0ec     SmartCardRW.obj
 0002:0000b110       $unwind$?AtlLoadTypeLib@ATL@@YAJPEAUHINSTANCE__@@PEB_WPEAPEA_WPEAPEAUITypeLib@@@Z 000000018002d110     SmartCardRW.obj
 0002:0000b130       $unwind$?AtlRegisterTypeLib@ATL@@YAJPEAUHINSTANCE__@@PEB_W@Z 000000018002d130     SmartCardRW.obj
 0002:0000b14c       $unwind$?AtlUnRegisterTypeLib@ATL@@YAJPEAUHINSTANCE__@@PEB_W@Z 000000018002d14c     SmartCardRW.obj
 0002:0000b154       $unwind$?atlCreate@CRegKey@ATL@@QEAAJPEAUHKEY__@@PEB_WPEA_WKKPEAU_SECURITY_ATTRIBUTES@@PEAK@Z 000000018002d154     SmartCardRW.obj
 0002:0000b160       $unwind$?Open@CRegKey@ATL@@QEAAJPEAUHKEY__@@PEB_WK@Z 000000018002d160     SmartCardRW.obj
 0002:0000b16c       $unwind$?RecurseDeleteKey@CRegKey@ATL@@QEAAJPEB_W@Z 000000018002d16c     SmartCardRW.obj
 0002:0000b188       $unwind$?UpdateRegistryFromResource@CAtlModule@ATL@@QEAAJPEB_WHPEAU_ATL_REGMAP_ENTRY@2@@Z 000000018002d188     SmartCardRW.obj
 0002:0000b188       $unwind$?UpdateRegistryFromResource@CAtlModule@ATL@@QEAAJIHPEAU_ATL_REGMAP_ENTRY@2@@Z 000000018002d188     SmartCardRW.obj
 0002:0000b1a8       $unwind$_free_osfhnd       000000018002d1a8     libucrt:osfinfo.obj
 0002:0000b1a8       $unwind$?Lookup@?$CSimpleMap@PEA_WPEA_WVCExpansionVectorEqualHelper@ATL@@@ATL@@QEBAPEA_WAEBQEA_W@Z 000000018002d1a8     SmartCardRW.obj
 0002:0000b1a8       $unwind$__std_exception_copy 000000018002d1a8     libvcruntime:std_exception.obj
 0002:0000b1bc       $unwind$?Add@CExpansionVector@ATL@@QEAAHPEB_W0@Z 000000018002d1bc     SmartCardRW.obj
 0002:0000b1d4       $unwind$?PreProcessBuffer@CRegParser@ATL@@QEAAJPEA_WPEAPEA_W@Z 000000018002d1d4     SmartCardRW.obj
 0002:0000b1f8       $unwind$?RegisterBuffer@CRegParser@ATL@@QEAAJPEA_WH@Z 000000018002d1f8     SmartCardRW.obj
 0002:0000b218       $unwind$?AddValue@CRegParser@ATL@@IEAAJAEAVCRegKey@2@PEB_WPEA_W@Z 000000018002d218     SmartCardRW.obj
 0002:0000b238       $unwind$?RegisterSubkeys@CRegParser@ATL@@IEAAJPEA_WPEAUHKEY__@@HH@Z 000000018002d238     SmartCardRW.obj
 0002:0000b258       $unwind$?SkipAssignment@CRegParser@ATL@@IEAAJPEA_W@Z 000000018002d258     SmartCardRW.obj
 0002:0000b270       $unwind$?RegisterFromResource@CRegObject@ATL@@IEAAJPEB_W00H@Z 000000018002d270     SmartCardRW.obj
 0002:0000b290       $unwind$?AtlIPersistStreamInit_Load@ATL@@YAJPEAUIStream@@PEBUATL_PROPMAP_ENTRY@1@PEAXPEAUIUnknown@@@Z 000000018002d290     SmartCardRW.obj
 0002:0000b2a8       $unwind$?AtlIPersistStreamInit_Save@ATL@@YAJPEAUIStream@@HPEBUATL_PROPMAP_ENTRY@1@PEAXPEAUIUnknown@@@Z 000000018002d2a8     SmartCardRW.obj
 0002:0000b2c4       $unwind$?GetTI@CComTypeInfoHolder@ATL@@QEAAJK@Z 000000018002d2c4     SmartCardRW.obj
 0002:0000b2e4       $unwind$__acrt_locale_free_numeric 000000018002d2e4     libucrt:initnum.obj
 0002:0000b2e4       $unwind$?destroy_fls@@YAXPEAX@Z 000000018002d2e4     libucrt:per_thread_data.obj
 0002:0000b2e4       $unwind$_free_base         000000018002d2e4     libucrt:free_base.obj
 0002:0000b2e4       $unwind$__acrt_locale_free_lc_time_if_unreferenced 000000018002d2e4     libucrt:locale_refcounting.obj
 0002:0000b2e4       $unwind$?Cleanup@CComTypeInfoHolder@ATL@@SAX_K@Z 000000018002d2e4     SmartCardRW.obj
 0002:0000b2e4       $unwind$AtlThunk_FreeData  000000018002d2e4     atls:atlthunk.obj
 0002:0000b2ec       $unwind$?GetIDsOfNames@CComTypeInfoHolder@ATL@@QEAAJAEBU_GUID@@PEAPEA_WIKPEAJ@Z 000000018002d2ec     SmartCardRW.obj
 0002:0000b308       $unwind$?LoadNameCache@CComTypeInfoHolder@ATL@@QEAAJPEAUITypeInfo@@@Z 000000018002d308     SmartCardRW.obj
 0002:0000b31c       $unwind$??$parse_command_line@D@@YAXPEADPEAPEAD0PEA_K2@Z 000000018002d31c     libucrt:argv_parsing.obj
 0002:0000b31c       $unwind$?StartWindowProc@?$CWindowImplBaseT@VCWindow@ATL@@V?$CWinTraits@$0FGAAAAAA@$0A@@2@@ATL@@SA_JPEAUHWND__@@I_K_J@Z 000000018002d31c     SmartCardRW.obj
 0002:0000b338       $unwind$?WindowProc@?$CWindowImplBaseT@VCWindow@ATL@@V?$CWinTraits@$0FGAAAAAA@$0A@@2@@ATL@@SA_JPEAUHWND__@@I_K_J@Z 000000018002d338     SmartCardRW.obj
 0002:0000b350       $unwind$?atlCreate@?$CWindowImplBaseT@VCWindow@ATL@@V?$CWinTraits@$0FGAAAAAA@$0A@@2@@ATL@@QEAAPEAUHWND__@@PEAU3@V_U_RECT@2@PEB_WKKV_U_MENUorID@2@GPEAX@Z 000000018002d350     SmartCardRW.obj
 0002:0000b368       $unwind$??$AtlModuleRegisterWndClassInfoT@VAtlModuleRegisterWndClassInfoParamW@ATL@@@ATL@@YAGPEAU_ATL_BASE_MODULE70@0@PEAU_ATL_WIN_MODULE70@0@PEAU_ATL_WNDCLASSINFOW@0@PEAP6A_JPEAUHWND__@@I_K_J@ZVAtlModuleRegisterWndClassInfoParamW@0@@Z 000000018002d368     SmartCardRW.obj
 0002:0000b388       $unwind$?OnKillFocus@CComControlBase@ATL@@QEAA_JI_K_JAEAH@Z 000000018002d388     SmartCardRW.obj
 0002:0000b388       $unwind$?GetZoomInfo@CComControlBase@ATL@@QEAAXAEAUATL_DRAWINFO@@@Z 000000018002d388     SmartCardRW.obj
 0002:0000b388       $unwind$iswctype           000000018002d388     libucrt:iswctype.obj
 0002:0000b394       $unwind$?SendOnDataChange@CComControlBase@ATL@@QEAAJK@Z 000000018002d394     SmartCardRW.obj
 0002:0000b3a4       $unwind$?OnSetFocus@CComControlBase@ATL@@QEAA_JI_K_JAEAH@Z 000000018002d3a4     SmartCardRW.obj
 0002:0000b3b4       $unwind$?OnMouseActivate@CComControlBase@ATL@@QEAA_JI_K_JAEAH@Z 000000018002d3b4     SmartCardRW.obj
 0002:0000b3bc       $unwind$?GetAmbientUserMode@CComControlBase@ATL@@QEAAJAEAH@Z 000000018002d3bc     SmartCardRW.obj
 0002:0000b3bc       $unwind$?GetAmbientLocaleID@CComControlBase@ATL@@QEAAJAEAK@Z 000000018002d3bc     SmartCardRW.obj
 0002:0000b3cc       $unwind$?IQuickActivate_QuickActivate@CComControlBase@ATL@@QEAAJPEAUtagQACONTAINER@@PEAUtagQACONTROL@@@Z 000000018002d3cc     SmartCardRW.obj
 0002:0000b3e4       $unwind$?DoVerbProperties@CComControlBase@ATL@@QEAAJPEBUtagRECT@@PEAUHWND__@@@Z 000000018002d3e4     SmartCardRW.obj
 0002:0000b3fc       $unwind$?InPlaceActivate@CComControlBase@ATL@@QEAAJJPEBUtagRECT@@@Z 000000018002d3fc     SmartCardRW.obj
 0002:0000b41c       $unwind$?IOleObject_Close@CComControlBase@ATL@@QEAAJK@Z 000000018002d41c     SmartCardRW.obj
 0002:0000b41c       $unwind$?type_case_c_tchar@?$output_processor@_WV?$string_output_adapter@_W@__crt_stdio_output@@V?$format_validation_base@_WV?$string_output_adapter@_W@__crt_stdio_output@@@2@@__crt_stdio_output@@AEAA_N_W@Z 000000018002d41c     libucrt:output.obj
 0002:0000b42c       $unwind$?IOleInPlaceObject_UIDeactivate@CComControlBase@ATL@@QEAAJXZ 000000018002d42c     SmartCardRW.obj
 0002:0000b444       $unwind$?IOleInPlaceObject_SetObjectRects@CComControlBase@ATL@@QEAAJPEBUtagRECT@@0@Z 000000018002d444     SmartCardRW.obj
 0002:0000b458       $unwind$?IViewObject_Draw@CComControlBase@ATL@@QEAAJKJPEAXPEAUtagDVTARGETDEVICE@@PEAUHDC__@@2PEBU_RECTL@@3@Z 000000018002d458     SmartCardRW.obj
 0002:0000b474       $unwind$?IDataObject_GetData@CComControlBase@ATL@@QEAAJPEAUtagFORMATETC@@PEAUtagSTGMEDIUM@@@Z 000000018002d474     SmartCardRW.obj
 0002:0000b494       $unwind$?OnPaint@CComControlBase@ATL@@QEAA_JI_K_JAEAH@Z 000000018002d494     SmartCardRW.obj
 0002:0000b4b0       $unwind$?OnDrawAdvanced@CComControlBase@ATL@@UEAAJAEAUATL_DRAWINFO@@@Z 000000018002d4b0     SmartCardRW.obj
 0002:0000b4c8       $unwind$_mbsdec_l          000000018002d4c8     libucrt:mbsdec.obj
 0002:0000b4c8       $unwind$?Invoke@?$IDispatchImpl@UIOPOSSmartCardRW@@$1?IID_IOPOSSmartCardRW@@3U_GUID@@B$1?LIBID_OposSmartCardRW_CCO@@3U3@B$00$0A@VCComTypeInfoHolder@ATL@@@ATL@@UEAAJJAEBU_GUID@@KGPEAUtagDISPPARAMS@@PEAUtagVARIANT@@PEAUtagEXCEPINFO@@PEAI@Z 000000018002d4c8     SmartCardRW.obj
 0002:0000b4c8       $unwind$?ReleaseDevice@COPOSSmartCardRW@@UEAAJPEAJ@Z 000000018002d4c8     SmartCardRWImpl.obj
 0002:0000b4d4       $unwind$__acrt_LCMapStringEx 000000018002d4d4     libucrt:winapi_thunks.obj
 0002:0000b4d4       $unwind$?fp_format_e@@YAHQEBNQEAD_K12H_NIQEAU__crt_locale_pointers@@@Z 000000018002d4d4     libucrt:cvt.obj
 0002:0000b4d4       $unwind$?atlCreate@?$CWindowImpl@VCOPOSSmartCardRW@@VCWindow@ATL@@V?$CWinTraits@$0FGAAAAAA@$0A@@3@@ATL@@QEAAPEAUHWND__@@PEAU3@V_U_RECT@2@PEB_WKKV_U_MENUorID@2@PEAX@Z 000000018002d4d4     SmartCardRW.obj
 0002:0000b4d4       $unwind$_mbtowc_l          000000018002d4d4     libucrt:mbtowc.obj
 0002:0000b4e8       $unwind$?__scrt_throw_std_bad_array_new_length@@YAXXZ 000000018002d4e8     LIBCMT:throw_bad_alloc.obj
 0002:0000b4e8       $unwind$?EndInsertion@COPOSSmartCardRW@@UEAAJPEAJ@Z 000000018002d4e8     SmartCardRWImpl.obj
 0002:0000b4e8       $unwind$?ClearInputProperties@COPOSSmartCardRW@@UEAAJPEAJ@Z 000000018002d4e8     SmartCardRWImpl.obj
 0002:0000b4e8       $unwind$?ClearOutput@COPOSSmartCardRW@@UEAAJPEAJ@Z 000000018002d4e8     SmartCardRWImpl.obj
 0002:0000b4e8       $unwind$?CreateControlWindow@?$CComControl@VCOPOSSmartCardRW@@V?$CWindowImpl@VCOPOSSmartCardRW@@VCWindow@ATL@@V?$CWinTraits@$0FGAAAAAA@$0A@@3@@ATL@@@ATL@@UEAAPEAUHWND__@@PEAU3@AEAUtagRECT@@@Z 000000018002d4e8     SmartCardRW.obj
 0002:0000b4e8       $unwind$?__scrt_throw_std_bad_alloc@@YAXXZ 000000018002d4e8     LIBCMT:throw_bad_alloc.obj
 0002:0000b4e8       $unwind$?ClearInput@COPOSSmartCardRW@@UEAAJPEAJ@Z 000000018002d4e8     SmartCardRWImpl.obj
 0002:0000b4e8       $unwind$_raise_exc         000000018002d4e8     libucrt:fpexcept.obj
 0002:0000b4e8       $unwind$?EndRemoval@COPOSSmartCardRW@@UEAAJPEAJ@Z 000000018002d4e8     SmartCardRWImpl.obj
 0002:0000b4f0       $unwind$__stdio_common_vswprintf_s 000000018002d4f0     libucrt:output.obj
 0002:0000b4f0       $unwind$?Save@?$IPersistStreamInitImpl@VCOPOSSmartCardRW@@@ATL@@UEAAJPEAUIStream@@H@Z 000000018002d4f0     SmartCardRW.obj
 0002:0000b4fc       $unwind$?GetSizeMax@?$IPersistStreamInitImpl@VCOPOSSmartCardRW@@@ATL@@UEAAJPEAT_ULARGE_INTEGER@@@Z 000000018002d4fc     SmartCardRW.obj
 0002:0000b514       $unwind$?DoVerbPrimary@?$IOleObjectImpl@VCOPOSSmartCardRW@@@ATL@@QEAAJPEBUtagRECT@@PEAUHWND__@@@Z 000000018002d514     SmartCardRW.obj
 0002:0000b52c       $unwind$?TranslateAcceleratorW@?$IOleInPlaceActiveObjectImpl@VCOPOSSmartCardRW@@@ATL@@UEAAJPEAUtagMSG@@@Z 000000018002d52c     SmartCardRW.obj
 0002:0000b538       $unwind$?Draw@?$IViewObjectExImpl@VCOPOSSmartCardRW@@@ATL@@UEAAJKJPEAXPEAUtagDVTARGETDEVICE@@PEAUHDC__@@2PEBU_RECTL@@3P6AH_K@Z4@Z 000000018002d538     SmartCardRW.obj
 0002:0000b540       $unwind$?QueryHitRect@?$IViewObjectExImpl@VCOPOSSmartCardRW@@@ATL@@UEAAJKPEBUtagRECT@@0JPEAK@Z 000000018002d540     SmartCardRW.obj
 0002:0000b550       $unwind$?OnWindowMessage@?$IOleInPlaceObjectWindowlessImpl@VCOPOSSmartCardRW@@@ATL@@UEAAJI_K_JPEA_J@Z 000000018002d550     SmartCardRW.obj
 0002:0000b564       $unwind$?EnumConnectionPoints@?$IConnectionPointContainerImpl@VCOPOSSmartCardRW@@@ATL@@UEAAJPEAPEAUIEnumConnectionPoints@@@Z 000000018002d564     SmartCardRW.obj
 0002:0000b58c       $unwind$?FindConnectionPoint@?$IConnectionPointContainerImpl@VCOPOSSmartCardRW@@@ATL@@UEAAJAEBU_GUID@@PEAPEAUIConnectionPoint@@@Z 000000018002d58c     SmartCardRW.obj
 0002:0000b58c       $unwind$?__mbrtoc32_utf8@__crt_mbstring@@YA_KPEA_UPEBD_KPEAU_Mbstatet@@@Z 000000018002d58c     libucrt:mbrtoc32.obj
 0002:0000b5a8       $unwind$?Load@?$IPersistStorageImpl@VCOPOSSmartCardRW@@@ATL@@UEAAJPEAUIStorage@@@Z 000000018002d5a8     SmartCardRW.obj
 0002:0000b5b8       $unwind$?Save@?$IPersistStorageImpl@VCOPOSSmartCardRW@@@ATL@@UEAAJPEAUIStorage@@H@Z 000000018002d5b8     SmartCardRW.obj
 0002:0000b5cc       $unwind$?DAdvise@?$IDataObjectImpl@VCOPOSSmartCardRW@@@ATL@@UEAAJPEAUtagFORMATETC@@KPEAUIAdviseSink@@PEAK@Z 000000018002d5cc     SmartCardRW.obj
 0002:0000b5cc       $unwind$??$__acrt_mbs_to_wcs_cp@U__crt_win32_buffer_internal_dynamic_resizing@@@@YAHQEBDAEAV?$__crt_win32_buffer@_WU__crt_win32_buffer_internal_dynamic_resizing@@@@I@Z 000000018002d5cc     libucrt:argv_wildcards.obj
 0002:0000b5e4       $unwind$?GetInterfaceSafetyOptions@?$IObjectSafetyImpl@VCOPOSSmartCardRW@@$02@ATL@@UEAAJAEBU_GUID@@PEAK1@Z 000000018002d5e4     SmartCardRW.obj
 0002:0000b5f8       $unwind$?SetInterfaceSafetyOptions@?$IObjectSafetyImpl@VCOPOSSmartCardRW@@$02@ATL@@UEAAJAEBU_GUID@@KK@Z 000000018002d5f8     SmartCardRW.obj
 0002:0000b60c       $unwind$?Advise@?$IConnectionPointImpl@VCOPOSSmartCardRW@@$1?IID_IPropertyNotifySink@@3U_GUID@@BVCComDynamicUnkArray@ATL@@@ATL@@UEAAJPEAUIUnknown@@PEAK@Z 000000018002d60c     SmartCardRW.obj
 0002:0000b60c       $unwind$?Advise@?$IConnectionPointImpl@VCOPOSSmartCardRW@@$1?DIID__IOPOSSmartCardRWEvents@@3U_GUID@@BVCComDynamicUnkArray@ATL@@@ATL@@UEAAJPEAUIUnknown@@PEAK@Z 000000018002d60c     SmartCardRW.obj
 0002:0000b620       $unwind$?EnumConnections@?$IConnectionPointImpl@VCOPOSSmartCardRW@@$1?IID_IPropertyNotifySink@@3U_GUID@@BVCComDynamicUnkArray@ATL@@@ATL@@UEAAJPEAPEAUIEnumConnections@@@Z 000000018002d620     SmartCardRW.obj
 0002:0000b620       $unwind$?EnumConnections@?$IConnectionPointImpl@VCOPOSSmartCardRW@@$1?DIID__IOPOSSmartCardRWEvents@@3U_GUID@@BVCComDynamicUnkArray@ATL@@@ATL@@UEAAJPEAPEAUIEnumConnections@@@Z 000000018002d620     SmartCardRW.obj
 0002:0000b620       $unwind$??$create_environment@D@@YAQEAPEADQEAD@Z 000000018002d620     libucrt:environment_initialization.obj
 0002:0000b638       $unwind$?Fire_DataEvent@?$CProxy_IOPOSEvents@VCOPOSSmartCardRW@@@@QEAAXJ@Z 000000018002d638     SmartCardRW.obj
 0002:0000b638       $unwind$??$__InternalCxxFrameHandler@V__FrameHandler3@@@@YA?AW4_EXCEPTION_DISPOSITION@@PEAUEHExceptionRecord@@PEA_KPEAU_CONTEXT@@PEAU_xDISPATCHER_CONTEXT@@PEBU_s_FuncInfo@@H1E@Z 000000018002d638     libvcruntime:frame.obj
 0002:0000b638       $unwind$?Fire_OutputCompleteEvent@?$CProxy_IOPOSEvents@VCOPOSSmartCardRW@@@@QEAAXJ@Z 000000018002d638     SmartCardRW.obj
 0002:0000b638       $unwind$?Fire_StatusUpdateEvent@?$CProxy_IOPOSEvents@VCOPOSSmartCardRW@@@@QEAAXJ@Z 000000018002d638     SmartCardRW.obj
 0002:0000b650       $unwind$?Fire_DirectIOEvent@?$CProxy_IOPOSEvents@VCOPOSSmartCardRW@@@@QEAAXJPEAJPEAPEA_W@Z 000000018002d650     SmartCardRW.obj
 0002:0000b670       $unwind$?Fire_ErrorEvent@?$CProxy_IOPOSEvents@VCOPOSSmartCardRW@@@@QEAAXJJJPEAJ@Z 000000018002d670     SmartCardRW.obj
 0002:0000b690       $unwind$?FireTheEvent@?$CProxy_IOPOSEvents@VCOPOSSmartCardRW@@@@IEAAXPEAVOposVariant@@IAEAJPEB_WJ@Z 000000018002d690     SmartCardRW.obj
 0002:0000b6a0       $unwind$__dcrt_get_narrow_environment_from_os 000000018002d6a0     libucrt:get_environment_from_os.obj
 0002:0000b6a0       $unwind$??$__acrt_wcs_to_mbs_cp@U__crt_win32_buffer_internal_dynamic_resizing@@@@YAHQEB_WAEAV?$__crt_win32_buffer@DU__crt_win32_buffer_internal_dynamic_resizing@@@@I@Z 000000018002d6a0     libucrt:argv_wildcards.obj
 0002:0000b6a0       $unwind$?fp_format_f_internal@@YAHQEAD_KHQEAU_strflt@@_NQEAU__crt_locale_pointers@@@Z 000000018002d6a0     libucrt:cvt.obj
 0002:0000b6a0       $unwind$?ProcessWindowMessage@COPOSSmartCardRW@@UEAAHPEAUHWND__@@I_K_JAEA_JK@Z 000000018002d6a0     SmartCardRW.obj
 0002:0000b6b8       $unwind$?SOError@COPOSSmartCardRW@@MEAAJJJJPEAJ@Z 000000018002d6b8     SmartCardRW.obj
 0002:0000b6b8       $unwind$_invalid_parameter 000000018002d6b8     libucrt:invalid_parameter.obj
 0002:0000b6cc       $unwind$?Clone@?$CComEnumImpl@UIEnumConnections@@$1?_GUID_b196b287_bab4_101a_b69c_00aa00341d07@@3U__s_GUID@@BUtagCONNECTDATA@@V?$_Copy@UtagCONNECTDATA@@@ATL@@@ATL@@UEAAJPEAPEAUIEnumConnections@@@Z 000000018002d6cc     SmartCardRW.obj
 0002:0000b6cc       $unwind$?Clone@?$CComEnumImpl@UIEnumConnectionPoints@@$1?_GUID_b196b285_bab4_101a_b69c_00aa00341d07@@3U__s_GUID@@BPEAUIConnectionPoint@@V?$_CopyInterface@UIConnectionPoint@@@ATL@@@ATL@@UEAAJPEAPEAUIEnumConnectionPoints@@@Z 000000018002d6cc     SmartCardRW.obj
 0002:0000b6e4       $unwind$?GetOposProp@COPOSSmartCardRW@@IEAAJJPEAPEA_WJ@Z 000000018002d6e4     SmartCardRWImpl.obj
 0002:0000b6e4       $unwind$?GetOposProp@COPOSSmartCardRW@@IEAAJJPEAJJ@Z 000000018002d6e4     SmartCardRWImpl.obj
 0002:0000b6fc       $unwind$?SetOposProp@COPOSSmartCardRW@@IEAAJJJJ@Z 000000018002d6fc     SmartCardRWImpl.obj
 0002:0000b71c       $unwind$?DoInvoke@COPOSSmartCardRW@@IEAAJJPEAVOposVariant@@IHPEAJ_N@Z 000000018002d71c     SmartCardRWImpl.obj
 0002:0000b734       $unwind$?SetCOFreezeEvents@COPOSSmartCardRW@@IEAAXF@Z 000000018002d734     SmartCardRWImpl.obj
 0002:0000b748       $unwind$?OnDraw@COPOSSmartCardRW@@MEAAJAEAUATL_DRAWINFO@@@Z 000000018002d748     SmartCardRWImpl.obj
 0002:0000b760       $unwind$?EventInit@COPOSSmartCardRW@@IEAAJXZ 000000018002d760     SmartCardRWImpl.obj
 0002:0000b774       $unwind$?EventWindowProc@COPOSSmartCardRW@@IEAA_JI_K_J@Z 000000018002d774     SmartCardRWImpl.obj
 0002:0000b784       $unwind$?get_ControlObjectDescription@COPOSSmartCardRW@@UEAAJPEAPEA_W@Z 000000018002d784     SmartCardRWImpl.obj
 0002:0000b784       $unwind$?getSystemCP@@YAHH@Z 000000018002d784     libucrt:mbctype.obj
 0002:0000b784       $unwind$__dcrt_lowio_ensure_console_output_initialized 000000018002d784     libucrt:initcon.obj
 0002:0000b784       $unwind$_isleadbyte_l      000000018002d784     libucrt:_wctype.obj
 0002:0000b78c       $unwind$?BeginInsertion@COPOSSmartCardRW@@UEAAJJPEAJ@Z 000000018002d78c     SmartCardRWImpl.obj
 0002:0000b78c       $unwind$?UpdateFirmware@COPOSSmartCardRW@@UEAAJPEA_WPEAJ@Z 000000018002d78c     SmartCardRWImpl.obj
 0002:0000b78c       $unwind$?UpdateStatistics@COPOSSmartCardRW@@UEAAJPEA_WPEAJ@Z 000000018002d78c     SmartCardRWImpl.obj
 0002:0000b78c       $unwind$?BeginRemoval@COPOSSmartCardRW@@UEAAJJPEAJ@Z 000000018002d78c     SmartCardRWImpl.obj
 0002:0000b78c       $unwind$?RetrieveStatistics@COPOSSmartCardRW@@UEAAJPEAPEA_WPEAJ@Z 000000018002d78c     SmartCardRWImpl.obj
 0002:0000b78c       $unwind$?CheckHealth@COPOSSmartCardRW@@UEAAJJPEAJ@Z 000000018002d78c     SmartCardRWImpl.obj
 0002:0000b78c       $unwind$?ResetStatistics@COPOSSmartCardRW@@UEAAJPEA_WPEAJ@Z 000000018002d78c     SmartCardRWImpl.obj
 0002:0000b79c       $unwind$?ClaimDevice@COPOSSmartCardRW@@UEAAJJPEAJ@Z 000000018002d79c     SmartCardRWImpl.obj
 0002:0000b7ac       $unwind$?WriteData@COPOSSmartCardRW@@UEAAJJJPEA_WPEAJ@Z 000000018002d7ac     SmartCardRWImpl.obj
 0002:0000b7ac       $unwind$?ReadData@COPOSSmartCardRW@@UEAAJJPEAJPEAPEA_W0@Z 000000018002d7ac     SmartCardRWImpl.obj
 0002:0000b7ac       $unwind$?DirectIO@COPOSSmartCardRW@@UEAAJJPEAJPEAPEA_W0@Z 000000018002d7ac     SmartCardRWImpl.obj
 0002:0000b7c8       $unwind$?Open@COPOSSmartCardRW@@UEAAJPEA_WPEAJ@Z 000000018002d7c8     SmartCardRWImpl.obj
 0002:0000b7ec       $unwind$?CompareFirmwareVersion@COPOSSmartCardRW@@UEAAJPEA_WPEAJ1@Z 000000018002d7ec     SmartCardRWImpl.obj
 0002:0000b7ec       $unwind$?initialize_inherited_file_handles_nolock@@YAXXZ 000000018002d7ec     libucrt:ioinit.obj
 0002:0000b808       $unwind$__scrt_is_nonwritable_in_current_image 000000018002d808     LIBCMT:utility.obj
 0002:0000b828       $unwind$__scrt_is_nonwritable_in_current_image$filt$0 000000018002d828     LIBCMT:utility.obj
 0002:0000b830       $unwind$__report_securityfailure 000000018002d830     LIBCMT:gs_report.obj
 0002:0000b838       $unwind$__report_gsfailure 000000018002d838     LIBCMT:gs_report.obj
 0002:0000b840       $unwind$capture_current_context 000000018002d840     LIBCMT:gs_report.obj
 0002:0000b84c       $unwind$capture_previous_context 000000018002d84c     LIBCMT:gs_report.obj
 0002:0000b858       $unwind$??2@YAPEAX_KAEBUnothrow_t@std@@@Z 000000018002d858     LIBCMT:new_scalar_nothrow.obj
 0002:0000b868       $stateUnwindMap$??2@YAPEAX_KAEBUnothrow_t@std@@@Z 000000018002d868     LIBCMT:new_scalar_nothrow.obj
 0002:0000b878       $tryMap$??2@YAPEAX_KAEBUnothrow_t@std@@@Z 000000018002d878     LIBCMT:new_scalar_nothrow.obj
 0002:0000b88c       $handlerMap$0$??2@YAPEAX_KAEBUnothrow_t@std@@@Z 000000018002d88c     LIBCMT:new_scalar_nothrow.obj
 0002:0000b8a0       $ip2state$??2@YAPEAX_KAEBUnothrow_t@std@@@Z 000000018002d8a0     LIBCMT:new_scalar_nothrow.obj
 0002:0000b8a8       $unwind$?catch$0@?0???2@YAPEAX_KAEBUnothrow_t@std@@@Z@4HA 000000018002d8a8     LIBCMT:new_scalar_nothrow.obj
 0002:0000b8b8       $unwind$__acrt_WideCharToMultiByte 000000018002d8b8     libucrt:widechartomultibyte.obj
 0002:0000b8b8       $unwind$__GSHandlerCheckCommon 000000018002d8b8     LIBCMT:gshandler.obj
 0002:0000b8c0       $xdatasym                  000000018002d8c0     LIBCMT:chkstk.obj
 0002:0000b8c8       $xdatasym                  000000018002d8c8     LIBCMT:amdsecgs.obj
 0002:0000b8cc       $unwind$?dllmain_crt_process_attach@@YAHQEAUHINSTANCE__@@QEAX@Z 000000018002d8cc     LIBCMT:dll_dllmain.obj
 0002:0000b908       $unwind$?dllmain_crt_process_detach@@YAH_N@Z 000000018002d908     LIBCMT:dll_dllmain.obj
 0002:0000b93c       $unwind$?dllmain_dispatch@@YAHQEAUHINSTANCE__@@KQEAX@Z 000000018002d93c     LIBCMT:dll_dllmain.obj
 0002:0000b964       $unwind$?filt$0@?0??dllmain_dispatch@@YAHQEAUHINSTANCE__@@KQEAX@Z@4HA 000000018002d964     LIBCMT:dll_dllmain.obj
 0002:0000b96c       $unwind$__isa_available_init 000000018002d96c     LIBCMT:cpu_disp.obj
 0002:0000b97c       $unwind$__scrt_fastfail    000000018002d97c     LIBCMT:utility_desktop.obj
 0002:0000b98c       $unwind$__security_init_cookie 000000018002d98c     LIBCMT:gs_support.obj
 0002:0000b998       $xdatasym                  000000018002d998     LIBCMT:guard_dispatch.obj
 0002:0000b99c       $unwind$AtlThunk_InitData  000000018002d99c     atls:atlthunk.obj
 0002:0000b9b0       $unwind$wcsstr             000000018002d9b0     libvcruntime:wcsstr.obj
 0002:0000b9c8       $xdatasym                  000000018002d9c8     libvcruntime:memcmp.obj
 0002:0000b9d0       $xdatasym                  000000018002d9d0     libvcruntime:memcpy.obj
 0002:0000b9e0       $xdatasym                  000000018002d9e0     libvcruntime:memset.obj
 0002:0000b9f0       $unwind$__C_specific_handler 000000018002d9f0     libvcruntime:riscchandler.obj
 0002:0000ba0c       $unwind$?GetEstablisherFrame@__FrameHandler3@@SAPEA_KPEA_KPEAU_xDISPATCHER_CONTEXT@@PEBU_s_FuncInfo@@0@Z 000000018002da0c     libvcruntime:risctrnsctrl.obj
 0002:0000ba24       $unwind$?UnwindNestedFrames@__FrameHandler3@@SAXPEA_KPEAUEHExceptionRecord@@PEAU_CONTEXT@@0PEAXPEBU_s_FuncInfo@@HHPEBU_s_HandlerType@@PEAU_xDISPATCHER_CONTEXT@@E@Z 000000018002da24     libvcruntime:risctrnsctrl.obj
 0002:0000ba38       $unwind$?GetRangeOfTrysToCheck@__FrameHandler3@@SA?AU?$pair@Viterator@TryBlockMap@__FrameHandler3@@V123@@std@@AEAVTryBlockMap@1@HPEAU_xDISPATCHER_CONTEXT@@PEBU_s_FuncInfo@@H@Z 000000018002da38     libvcruntime:risctrnsctrl.obj
 0002:0000ba50       $unwind$__CxxFrameHandler3 000000018002da50     libvcruntime:risctrnsctrl.obj
 0002:0000ba64       $unwind$??$_CallSETranslator@V__FrameHandler3@@@@YAHPEAUEHExceptionRecord@@PEA_KPEAU_CONTEXT@@PEAU_xDISPATCHER_CONTEXT@@PEBU_s_FuncInfo@@K1@Z 000000018002da64     libvcruntime:risctrnsctrl.obj
 0002:0000ba84       $unwind$?filt$0@?0???$_CallSETranslator@V__FrameHandler3@@@@YAHPEAUEHExceptionRecord@@PEA_KPEAU_CONTEXT@@PEAU_xDISPATCHER_CONTEXT@@PEBU_s_FuncInfo@@K1@Z@4HA 000000018002da84     libvcruntime:risctrnsctrl.obj
 0002:0000ba90       $unwind$_CxxThrowException 000000018002da90     libvcruntime:throw.obj
 0002:0000baa0       $xdatasym                  000000018002daa0     libvcruntime:notify.obj
 0002:0000baac       $unwind$__DestructExceptionObject 000000018002daac     libvcruntime:ehhelpers.obj
 0002:0000bacc       $unwind$?FrameUnwindToState@__FrameHandler3@@SAXPEA_KPEAU_xDISPATCHER_CONTEXT@@PEBU_s_FuncInfo@@H@Z 000000018002dacc     libvcruntime:frame.obj
 0002:0000bb18       $unwind$?CxxCallCatchBlock@__FrameHandler3@@SAPEAXPEAU_EXCEPTION_RECORD@@@Z 000000018002db18     libvcruntime:frame.obj
 0002:0000bb54       $unwind$?fin$1@?0??CxxCallCatchBlock@__FrameHandler3@@SAPEAXPEAU_EXCEPTION_RECORD@@@Z@4HA 000000018002db54     libvcruntime:frame.obj
 0002:0000bb60       $unwind$?IsInExceptionSpec@@YAEPEAUEHExceptionRecord@@PEBU_s_ESTypeList@@@Z 000000018002db60     libvcruntime:frame.obj
 0002:0000bb7c       $unwind$??$BuildCatchObjectHelperInternal@V__FrameHandler3@@@@YAHPEAUEHExceptionRecord@@PEAXPEBU_s_HandlerType@@PEBU_s_CatchableType@@@Z 000000018002db7c     libvcruntime:frame.obj
 0002:0000bbbc       $unwind$??$BuildCatchObjectInternal@V__FrameHandler3@@@@YAXPEAUEHExceptionRecord@@PEAXPEBU_s_HandlerType@@PEBU_s_CatchableType@@@Z 000000018002dbbc     libvcruntime:frame.obj
 0002:0000bbe8       $unwind$??$FindHandler@V__FrameHandler3@@@@YAXPEAUEHExceptionRecord@@PEA_KPEAU_CONTEXT@@PEAU_xDISPATCHER_CONTEXT@@PEBU_s_FuncInfo@@EH1@Z 000000018002dbe8     libvcruntime:frame.obj
 0002:0000bc08       $unwind$??$CatchIt@V__FrameHandler3@@@@YAXPEAUEHExceptionRecord@@PEA_KPEAU_CONTEXT@@PEAU_xDISPATCHER_CONTEXT@@PEBU_s_FuncInfo@@PEBU_s_HandlerType@@PEBU_s_CatchableType@@PEBU_s_TryBlockMapEntry@@H1EE@Z 000000018002dc08     libvcruntime:frame.obj
 0002:0000bc20       $unwind$??$FindHandlerForForeignException@V__FrameHandler3@@@@YAXPEAUEHExceptionRecord@@PEA_KPEAU_CONTEXT@@PEAU_xDISPATCHER_CONTEXT@@PEBU_s_FuncInfo@@HH1@Z 000000018002dc20     libvcruntime:frame.obj
 0002:0000bc3c       $unwind$?try_get_function@@YAPEAXW4function_id@?A0x391cf84c@@QEBDQEBW4module_id@2@2@Z 000000018002dc3c     libucrt:winapi_thunks.obj
 0002:0000bc3c       $unwind$?try_get_function@@YAPEAXW4function_id@?A0x656504f9@@QEBDQEBW4module_id@2@2@Z 000000018002dc3c     libvcruntime:winapi_downlevel.obj
 0002:0000bc58       $xdatasym                  000000018002dc58     libvcruntime:handlers.obj
 0002:0000bc78       $unwind$__acrt_call_reportfault 000000018002dc78     libucrt:invalid_parameter.obj
 0002:0000bc98       $unwind$_resetstkoflw      000000018002dc98     libucrt:resetstk.obj
 0002:0000bcbc       $unwind$?write_string@?$string_output_adapter@_W@__crt_stdio_output@@QEBAXQEB_WHQEAHAEAV__crt_deferred_errno_cache@@@Z 000000018002dcbc     libucrt:output.obj
 0002:0000bcd4       $unwind$??$common_vsprintf@Vformat_validation_base@__crt_stdio_output@@_W@@YAH_KQEA_W0QEB_WQEAU__crt_locale_pointers@@QEAD@Z 000000018002dcd4     libucrt:output.obj
 0002:0000bcf4       $unwind$??$write_multiple_characters@V?$string_output_adapter@_W@__crt_stdio_output@@D@__crt_stdio_output@@YAXAEBV?$string_output_adapter@_W@0@DHQEAH@Z 000000018002dcf4     libucrt:output.obj
 0002:0000bd00       $unwind$?process@?$output_processor@_WV?$string_output_adapter@_W@__crt_stdio_output@@V?$format_validation_base@_WV?$string_output_adapter@_W@__crt_stdio_output@@@2@@__crt_stdio_output@@QEAAHXZ 000000018002dd00     libucrt:output.obj
 0002:0000bd14       $unwind$?parse_int_from_format_string@?$output_processor@_WV?$string_output_adapter@_W@__crt_stdio_output@@V?$format_validation_base@_WV?$string_output_adapter@_W@__crt_stdio_output@@@2@@__crt_stdio_output@@AEAA_NQEAH@Z 000000018002dd14     libucrt:output.obj
 0002:0000bd28       $unwind$?state_case_type@?$output_processor@_WV?$string_output_adapter@_W@__crt_stdio_output@@V?$format_validation_base@_WV?$string_output_adapter@_W@__crt_stdio_output@@@2@@__crt_stdio_output@@AEAA_NXZ 000000018002dd28     libucrt:output.obj
 0002:0000bd4c       $unwind$?type_case_a@?$output_processor@_WV?$string_output_adapter@_W@__crt_stdio_output@@V?$format_validation_base@_WV?$string_output_adapter@_W@__crt_stdio_output@@@2@@__crt_stdio_output@@AEAA_NXZ 000000018002dd4c     libucrt:output.obj
 0002:0000bd5c       $unwind$?write_stored_string_tchar@?$output_processor@_WV?$string_output_adapter@_W@__crt_stdio_output@@V?$format_validation_base@_WV?$string_output_adapter@_W@__crt_stdio_output@@@2@@__crt_stdio_output@@AEAA_N_W@Z 000000018002dd5c     libucrt:output.obj
 0002:0000bd70       $unwind$??$type_case_integer_parse_into_buffer@_K@?$output_processor@_WV?$string_output_adapter@_W@__crt_stdio_output@@V?$format_validation_base@_WV?$string_output_adapter@_W@__crt_stdio_output@@@2@@__crt_stdio_output@@AEAAX_KI_N@Z 000000018002dd70     libucrt:output.obj
 0002:0000bd70       $unwind$??$type_case_integer_parse_into_buffer@I@?$output_processor@_WV?$string_output_adapter@_W@__crt_stdio_output@@V?$format_validation_base@_WV?$string_output_adapter@_W@__crt_stdio_output@@@2@@__crt_stdio_output@@AEAAXII_N@Z 000000018002dd70     libucrt:output.obj
 0002:0000bd78       $unwind$?common_exit@@YAXHW4_crt_exit_cleanup_mode@@W4_crt_exit_return_mode@@@Z 000000018002dd78     libucrt:exit.obj
 0002:0000bd84       $unwind$??R<lambda_6e4b09c48022b2350581041d5f6b0c4c>@@QEBA@XZ 000000018002dd84     libucrt:exit.obj
 0002:0000bda4       $unwind$??$?RV<lambda_d80eeec6fff315bfe5c115232f3240e3>@@AEAV<lambda_6e4b09c48022b2350581041d5f6b0c4c>@@V<lambda_2358e3775559c9db80273638284d5e45>@@@?$__crt_seh_guarded_call@X@@QEAAX$$QEAV<lambda_d80eeec6fff315bfe5c115232f3240e3>@@AEAV<lambda_6e4b09c48022b2350581041d5f6b0c4c>@@$$QEAV<lambda_2358e3775559c9db80273638284d5e45>@@@Z 000000018002dda4     libucrt:exit.obj
 0002:0000bdc8       $unwind$??$free_environment@_W@@YAXQEAPEA_W@Z 000000018002ddc8     libucrt:environment_initialization.obj
 0002:0000bdc8       $unwind$??$free_environment@D@@YAXQEAPEAD@Z 000000018002ddc8     libucrt:environment_initialization.obj
 0002:0000bdd4       $unwind$_register_onexit_function 000000018002ddd4     libucrt:onexit.obj
 0002:0000bddc       $unwind$_execute_onexit_table 000000018002dddc     libucrt:onexit.obj
 0002:0000bde4       $unwind$??R<lambda_22ebabd17bc4fa466a2aca6d8deb888d>@@QEBAHXZ 000000018002dde4     libucrt:onexit.obj
 0002:0000bdfc       $unwind$??$?RV<lambda_638799b9deba96c50f710eeac98168cd>@@AEAV<lambda_22ebabd17bc4fa466a2aca6d8deb888d>@@V<lambda_a6f7d7db0129f75315ebf26d50c089f1>@@@?$__crt_seh_guarded_call@H@@QEAAH$$QEAV<lambda_638799b9deba96c50f710eeac98168cd>@@AEAV<lambda_22ebabd17bc4fa466a2aca6d8deb888d>@@$$QEAV<lambda_a6f7d7db0129f75315ebf26d50c089f1>@@@Z 000000018002ddfc     libucrt:onexit.obj
 0002:0000be20       $unwind$??$?RV<lambda_7777bce6b2f8c936911f934f8298dc43>@@AEAV<lambda_f03950bc5685219e0bcd2087efbe011e>@@V<lambda_3883c3dff614d5e0c5f61bb1ac94921c>@@@?$__crt_seh_guarded_call@H@@QEAAH$$QEAV<lambda_7777bce6b2f8c936911f934f8298dc43>@@AEAV<lambda_f03950bc5685219e0bcd2087efbe011e>@@$$QEAV<lambda_3883c3dff614d5e0c5f61bb1ac94921c>@@@Z 000000018002de20     libucrt:onexit.obj
 0002:0000be44       $unwind$_query_new_handler 000000018002de44     libucrt:new_handler.obj
 0002:0000be64       $unwind$terminate          000000018002de64     libucrt:terminate.obj
 0002:0000be84       $unwind$??$parse_integer@KV?$c_string_character_source@_W@__crt_strtox@@@__crt_strtox@@YAKQEAU__crt_locale_pointers@@V?$c_string_character_source@_W@0@H_N@Z 000000018002de84     libucrt:atox.obj
 0002:0000bea0       $xdatasym                  000000018002dea0     libucrt:strncmp.obj
 0002:0000bea4       $unwind$?construct_ptd_array@@YAXQEAU__acrt_ptd@@@Z 000000018002dea4     libucrt:per_thread_data.obj
 0002:0000beac       $unwind$?destroy_ptd_array@@YAXQEAU__acrt_ptd@@@Z 000000018002deac     libucrt:per_thread_data.obj
 0002:0000beb4       $unwind$??$?RV<lambda_0ae27a3a962d80f24befdcbee591983d>@@AEAV<lambda_8d0ee55de4b1038c4002e0adecdf1839>@@V<lambda_dc504788e8f1664fe9b84e20bfb512f2>@@@?$__crt_seh_guarded_call@X@@QEAAX$$QEAV<lambda_0ae27a3a962d80f24befdcbee591983d>@@AEAV<lambda_8d0ee55de4b1038c4002e0adecdf1839>@@$$QEAV<lambda_dc504788e8f1664fe9b84e20bfb512f2>@@@Z 000000018002deb4     libucrt:per_thread_data.obj
 0002:0000bed8       $unwind$??$?RV<lambda_aa87e3671a710a21b5dc78c0bdf72e11>@@AEAV<lambda_92619d2358a28f41a33ba319515a20b9>@@V<lambda_6992ecaafeb10aed2b74cb1fae11a551>@@@?$__crt_seh_guarded_call@X@@QEAAX$$QEAV<lambda_aa87e3671a710a21b5dc78c0bdf72e11>@@AEAV<lambda_92619d2358a28f41a33ba319515a20b9>@@$$QEAV<lambda_6992ecaafeb10aed2b74cb1fae11a551>@@@Z 000000018002ded8     libucrt:per_thread_data.obj
 0002:0000befc       $unwind$??$?RV<lambda_f2e299630e499de9f9a165e60fcd3db5>@@AEAV<lambda_2ae9d31cdba2644fcbeaf08da7c24588>@@V<lambda_40d01ff24d0e7b3814fdbdcee8eab3c7>@@@?$__crt_seh_guarded_call@X@@QEAAX$$QEAV<lambda_f2e299630e499de9f9a165e60fcd3db5>@@AEAV<lambda_2ae9d31cdba2644fcbeaf08da7c24588>@@$$QEAV<lambda_40d01ff24d0e7b3814fdbdcee8eab3c7>@@@Z 000000018002defc     libucrt:per_thread_data.obj
 0002:0000bf20       $unwind$??$?RV<lambda_2d41944a1d46af3157314b8a01080d33>@@AEAV<lambda_8f455de75cd7d7f24b4096f044d8b9e6>@@V<lambda_aa500f224e6afead328df44964fe2772>@@@?$__crt_seh_guarded_call@X@@QEAAX$$QEAV<lambda_2d41944a1d46af3157314b8a01080d33>@@AEAV<lambda_8f455de75cd7d7f24b4096f044d8b9e6>@@$$QEAV<lambda_aa500f224e6afead328df44964fe2772>@@@Z 000000018002df20     libucrt:per_thread_data.obj
 0002:0000bf44       $unwind$__acrt_initialize_winapi_thunks 000000018002df44     libucrt:winapi_thunks.obj
 0002:0000bf4c       $unwind$?fp_format_e_internal@@YAHQEAD_KH_NIQEAU_strflt@@2QEAU__crt_locale_pointers@@@Z 000000018002df4c     libucrt:cvt.obj
 0002:0000bf64       $unwind$?fp_format_a@@YAHQEBNPEAD_KQEAD2H_NIQEAU__crt_locale_pointers@@@Z 000000018002df64     libucrt:cvt.obj
 0002:0000bf80       $unwind$?fp_format_g@@YAHQEBNQEAD_K12H_NIQEAU__crt_locale_pointers@@@Z 000000018002df80     libucrt:cvt.obj
 0002:0000bf94       $unwind$__acrt_get_sigabrt_handler 000000018002df94     libucrt:signal.obj
 0002:0000bf94       $unwind$__acrt_uninitialize_locale 000000018002df94     libucrt:wsetlocale.obj
 0002:0000bf9c       $unwind$??$?RV<lambda_410d79af7f07d98d83a3f525b3859a53>@@AEAV<lambda_3e16ef9562a7dcce91392c22ab16ea36>@@V<lambda_38119f0e861e05405d8a144b9b982f0a>@@@?$__crt_seh_guarded_call@X@@QEAAX$$QEAV<lambda_410d79af7f07d98d83a3f525b3859a53>@@AEAV<lambda_3e16ef9562a7dcce91392c22ab16ea36>@@$$QEAV<lambda_38119f0e861e05405d8a144b9b982f0a>@@@Z 000000018002df9c     libucrt:wsetlocale.obj
 0002:0000bfc4       $unwind$__acrt_initialize_lowio 000000018002dfc4     libucrt:ioinit.obj
 0002:0000bfe4       $unwind$??$common_expand_argv_wildcards@D@@YAHQEAPEADQEAPEAPEAD@Z 000000018002dfe4     libucrt:argv_wildcards.obj
 0002:0000bffc       $unwind$??$copy_and_add_argument_to_buffer@D@@YAHQEBD0_KAEAV?$argument_list@D@?A0x5f5c8891@@@Z 000000018002dffc     libucrt:argv_wildcards.obj
 0002:0000c018       $unwind$??$expand_argument_wildcards@D@@YAHQEAD0AEAV?$argument_list@D@?A0x5f5c8891@@@Z 000000018002e018     libucrt:argv_wildcards.obj
 0002:0000c03c       $unwind$__acrt_GetModuleFileNameA 000000018002e03c     libucrt:getmodulefilenamea.obj
 0002:0000c058       $unwind$_setmbcp_nolock    000000018002e058     libucrt:mbctype.obj
 0002:0000c078       $unwind$?update_thread_multibyte_data_internal@@YAPEAU__crt_multibyte_data@@QEAU__acrt_ptd@@QEAPEAU1@@Z 000000018002e078     libucrt:mbctype.obj
 0002:0000c0a0       $unwind$?setmbcp_internal@@YAHH_NQEAU__acrt_ptd@@QEAPEAU__crt_multibyte_data@@@Z 000000018002e0a0     libucrt:mbctype.obj
 0002:0000c0b0       $unwind$?setSBUpLow@@YAXPEAU__crt_multibyte_data@@@Z 000000018002e0b0     libucrt:mbctype.obj
 0002:0000c0cc       $unwind$??$?RV<lambda_efdfa57d1f175319df784efa44bb7b81>@@AEAV<lambda_5f0a4c1567f8adc6734073e5d1e1b35c>@@V<lambda_2e8a7d3640ea6ccb4c2413664c2db6fd>@@@?$__crt_seh_guarded_call@X@@QEAAX$$QEAV<lambda_efdfa57d1f175319df784efa44bb7b81>@@AEAV<lambda_5f0a4c1567f8adc6734073e5d1e1b35c>@@$$QEAV<lambda_2e8a7d3640ea6ccb4c2413664c2db6fd>@@@Z 000000018002e0cc     libucrt:mbctype.obj
 0002:0000c0f0       $unwind$raise              000000018002e0f0     libucrt:signal.obj
 0002:0000c12c       $unwind$??$?RV<lambda_450d765d439847d4c735a33c368b5fc0>@@AEAV<lambda_44731a7d0e6d81c3e6aa82d741081786>@@V<lambda_601a2a7da3b7a96e9554ac7215c4b07c>@@@?$__crt_seh_guarded_call@P6AXH@Z@@QEAAP6AXH@Z$$QEAV<lambda_450d765d439847d4c735a33c368b5fc0>@@AEAV<lambda_44731a7d0e6d81c3e6aa82d741081786>@@$$QEAV<lambda_601a2a7da3b7a96e9554ac7215c4b07c>@@@Z 000000018002e12c     libucrt:signal.obj
 0002:0000c150       $unwind$?common_flush_all@@YAH_N@Z 000000018002e150     libucrt:fflush.obj
 0002:0000c158       $unwind$??$?RV<lambda_842d9ff0dc9ef11c61343bbaebe7f885>@@AEAV<lambda_c5860995281e5c4ce005b3de8f5874ee>@@V<lambda_d90129c13df834fdcbf8d2b88dafcf2d>@@@?$__crt_seh_guarded_call@X@@QEAAX$$QEAV<lambda_842d9ff0dc9ef11c61343bbaebe7f885>@@AEAV<lambda_c5860995281e5c4ce005b3de8f5874ee>@@$$QEAV<lambda_d90129c13df834fdcbf8d2b88dafcf2d>@@@Z 000000018002e158     libucrt:fflush.obj
 0002:0000c17c       $unwind$??$?RV<lambda_886d6c58226a84441f68b9f2b8217b83>@@AEAV<lambda_ab61a845afdef5b7c387490eaf3616ee>@@V<lambda_f7f22ab5edc0698d5f6905b0d3f44752>@@@?$__crt_seh_guarded_call@X@@QEAAX$$QEAV<lambda_886d6c58226a84441f68b9f2b8217b83>@@AEAV<lambda_ab61a845afdef5b7c387490eaf3616ee>@@$$QEAV<lambda_f7f22ab5edc0698d5f6905b0d3f44752>@@@Z 000000018002e17c     libucrt:fflush.obj
 0002:0000c1a4       $unwind$__acrt_update_thread_locale_data 000000018002e1a4     libucrt:locale_refcounting.obj
 0002:0000c1c8       $unwind$?__mbrtowc_utf8@__crt_mbstring@@YA_KPEA_WPEBD_KPEAU_Mbstatet@@@Z 000000018002e1c8     libucrt:mbrtowc.obj
 0002:0000c1d0       $unwind$?__mbsrtowcs_utf8@__crt_mbstring@@YA_KPEA_WPEAPEBD_KPEAU_Mbstatet@@@Z 000000018002e1d0     libucrt:mbrtowc.obj
 0002:0000c1e8       $unwind$__acrt_fltout      000000018002e1e8     libucrt:cfout.obj
 0002:0000c208       $unwind$?divide@__crt_strtox@@YA_KAEAUbig_integer@1@AEBU21@@Z 000000018002e208     libucrt:cfout.obj
 0002:0000c220       $chain$0$?divide@__crt_strtox@@YA_KAEAUbig_integer@1@AEBU21@@Z 000000018002e220     libucrt:cfout.obj
 0002:0000c234       $chain$1$?divide@__crt_strtox@@YA_KAEAUbig_integer@1@AEBU21@@Z 000000018002e234     libucrt:cfout.obj
 0002:0000c244       $unwind$_fcloseall         000000018002e244     libucrt:closeall.obj
 0002:0000c268       $unwind$__acrt_locale_free_monetary 000000018002e268     libucrt:initmon.obj
 0002:0000c270       $unwind$__acrt_locale_free_time 000000018002e270     libucrt:inittime.obj
 0002:0000c280       $unwind$__acrt_GetStringTypeA 000000018002e280     libucrt:getstringtypea.obj
 0002:0000c2a8       $unwind$__acrt_lowio_destroy_handle_array 000000018002e2a8     libucrt:osfinfo.obj
 0002:0000c2b8       $unwind$__acrt_lowio_ensure_fh_exists 000000018002e2b8     libucrt:osfinfo.obj
 0002:0000c2e4       $unwind$qsort              000000018002e2e4     libucrt:qsort.obj
 0002:0000c2fc       $chain$4$qsort             000000018002e2fc     libucrt:qsort.obj
 0002:0000c320       $chain$5$qsort             000000018002e320     libucrt:qsort.obj
 0002:0000c330       $unwind$fallbackMethod     000000018002e330     libucrt:strpbrk.obj
 0002:0000c340       $unwind$__acrt_LCMapStringA 000000018002e340     libucrt:lcmapstringa.obj
 0002:0000c350       $unwind$?__acrt_LCMapStringA_stat@@YAHPEAU__crt_locale_pointers@@PEB_WKPEBDHPEADHHH@Z 000000018002e350     libucrt:lcmapstringa.obj
 0002:0000c378       $unwind$_commit            000000018002e378     libucrt:commit.obj
 0002:0000c378       $unwind$_close             000000018002e378     libucrt:close.obj
 0002:0000c380       $unwind$??$?RV<lambda_a37b2b86f63e897a80ea819b0eb08c01>@@AEAV<lambda_38ce7e780aa69e748d6df282ebc68efe>@@V<lambda_99fb1378e971ab6e7edea83e3a7a83a2>@@@?$__crt_seh_guarded_call@H@@QEAAH$$QEAV<lambda_a37b2b86f63e897a80ea819b0eb08c01>@@AEAV<lambda_38ce7e780aa69e748d6df282ebc68efe>@@$$QEAV<lambda_99fb1378e971ab6e7edea83e3a7a83a2>@@@Z 000000018002e380     libucrt:commit.obj
 0002:0000c3a4       $unwind$_write             000000018002e3a4     libucrt:write.obj
 0002:0000c3d4       $unwind$_write_nolock      000000018002e3d4     libucrt:write.obj
 0002:0000c3ec       $unwind$?write_double_translated_ansi_nolock@@YA?AUwrite_result@?A0x17268360@@HQEBDI@Z 000000018002e3ec     libucrt:write.obj
 0002:0000c410       $unwind$?write_text_utf16le_nolock@@YA?AUwrite_result@?A0x17268360@@HQEBDI@Z 000000018002e410     libucrt:write.obj
 0002:0000c410       $unwind$?write_text_ansi_nolock@@YA?AUwrite_result@?A0x17268360@@HQEBDI@Z 000000018002e410     libucrt:write.obj
 0002:0000c430       $unwind$?write_text_utf8_nolock@@YA?AUwrite_result@?A0x17268360@@HQEBDI@Z 000000018002e430     libucrt:write.obj
 0002:0000c458       $xdatasym                  000000018002e458     libucrt:log10.obj
 0002:0000c464       $unwind$fclose             000000018002e464     libucrt:fclose.obj
 0002:0000c488       $unwind$_putwch_nolock     000000018002e488     libucrt:putwch.obj
 0002:0000c490       $unwind$__acrt_fenv_set_control 000000018002e490     libucrt:_fenvutils.obj
 0002:0000c4a0       $unwind$_call_matherr      000000018002e4a0     libucrt:libm_error.obj
 0002:0000c4a8       $unwind$_handle_error      000000018002e4a8     libucrt:libm_error.obj
 0002:0000c4c8       $unwind$__acrt_initialize_fma3 000000018002e4c8     libucrt:fma3_available.obj
 0002:0000c4d0       $unwind$_log_special_common 000000018002e4d0     libucrt:log_special.obj
 0002:0000c4dc       $unwind$??$?RV<lambda_751a882b2c74d4b022dec766aa51a29a>@@AEAV<lambda_628dfdc04ba53c8bfc02c9951375f3f5>@@V<lambda_f6c7be5f7998530c34de24c7437d6b54>@@@?$__crt_seh_guarded_call@H@@QEAAH$$QEAV<lambda_751a882b2c74d4b022dec766aa51a29a>@@AEAV<lambda_628dfdc04ba53c8bfc02c9951375f3f5>@@$$QEAV<lambda_f6c7be5f7998530c34de24c7437d6b54>@@@Z 000000018002e4dc     libucrt:close.obj
 0002:0000c500       $xdatasym                  000000018002e500     libucrt:fpsr.obj
 0002:0000c508       $unwind$_raise_exc_ex      000000018002e508     libucrt:fpexcept.obj
 0002:0000c51c       $unwind$_ctrlfp            000000018002e51c     libucrt:fpctrl.obj
 0002:0000c544       $unwind$_IsNonwritableInCurrentImage 000000018002e544     LIBCMT:pesect.obj
 0002:0000c6d0       .edata                     000000018002e6d0     OPOSSmartCardRW.exp
 0002:0000c6f8       rgpv                       000000018002e6f8     OPOSSmartCardRW.exp
 0002:0000c708       rgszName                   000000018002e708     OPOSSmartCardRW.exp
 0002:0000c718       rgwOrd                     000000018002e718     OPOSSmartCardRW.exp
 0002:0000c720       szName                     000000018002e720     OPOSSmartCardRW.exp
 0002:0000c734       $N00001                    000000018002e734     OPOSSmartCardRW.exp
 0002:0000c744       $N00002                    000000018002e744     OPOSSmartCardRW.exp
 0002:0000c756       $N00003                    000000018002e756     OPOSSmartCardRW.exp
 0002:0000c768       $N00004                    000000018002e768     OPOSSmartCardRW.exp
 0002:0000d092       .idata$6                   000000018002f092     kernel32:KERNEL32.dll
 0002:0000d2aa       .idata$6                   000000018002f2aa     user32:USER32.dll
 0002:0000d3de       .idata$6                   000000018002f3de     gdi32:GDI32.dll
 0002:0000d484       .idata$6                   000000018002f484     advapi32:ADVAPI32.dll
 0002:0000d5a0       .idata$6                   000000018002f5a0     ole32:ole32.dll
 0002:0000d5aa       .idata$6                   000000018002f5aa     oleaut32:OLEAUT32.dll
 0003:000001c0       ?ObjectMap@@3PAU_ATL_OBJMAP_ENTRY30@ATL@@A 00000001800301c0     SmartCardRW.obj
 0003:000002c0       ?s_SOMethodNames@@3PAPEADA 00000001800302c0     SmartCardRWImpl.obj
 0003:00000390       ?s_RequiredMethodsPerRelease@@3PAHA 0000000180030390     SmartCardRWImpl.obj
 0003:000003e0       ?__vcrt_flsindex@@3KA      00000001800303e0     libvcruntime:per_thread_data.obj
 0003:000003f0       ?errno_no_memory@@3HA      00000001800303f0     libucrt:errno.obj
 0003:000003f4       ?doserrno_no_memory@@3KA   00000001800303f4     libucrt:errno.obj
 0003:00000400       ?__acrt_flsindex@@3KA      0000000180030400     libucrt:per_thread_data.obj
 0003:000008c0       _mbctypes                  00000001800308c0     libucrt:mbctype.obj
 0003:000009d0       _mbcasemaps                00000001800309d0     libucrt:mbctype.obj
 0003:00000ad0       ?__rgctypeflag@@3PADA      0000000180030ad0     libucrt:mbctype.obj
 0003:00000ae0       ?__rgcode_page_info@@3PAUcode_page_info@@A 0000000180030ae0     libucrt:mbctype.obj
 0003:00000d80       ?__dcrt_lowio_console_output_handle@@3PEAXEA 0000000180030d80     libucrt:initcon.obj
 0003:00000d90       ?dazSupported@?1??_ctrlfp@@9@9 0000000180030d90     libucrt:fpctrl.obj
 0003:00000fe0       ?is_initialized_as_dll@@3_NA 0000000180030fe0     LIBCMT:utility.obj
 0003:00000fe1       ?module_local_atexit_table_initialized@@3_NA 0000000180030fe1     LIBCMT:utility.obj
 0003:00000fe8       ?module_local_atexit_table@@3U_onexit_table_t@@A 0000000180030fe8     LIBCMT:utility.obj
 0003:00001000       ?module_local_at_quick_exit_table@@3U_onexit_table_t@@A 0000000180031000     LIBCMT:utility.obj
 0003:00001018       ?g_tss_cv@@3U_RTL_CONDITION_VARIABLE@@A 0000000180031018     LIBCMT:thread_safe_statics.obj
 0003:00001020       ?g_tss_event@@3PEAXEA      0000000180031020     LIBCMT:thread_safe_statics.obj
 0003:00001028       ?g_tss_mutex@@3U_RTL_CRITICAL_SECTION@@A 0000000180031028     LIBCMT:thread_safe_statics.obj
 0003:00001050       ?g_sleep_condition_variable_cs@@3P6AHPEAU_RTL_CONDITION_VARIABLE@@PEAU_RTL_CRITICAL_SECTION@@K@ZEA 0000000180031050     LIBCMT:thread_safe_statics.obj
 0003:00001058       ?g_wake_all_condition_variable@@3P6AXPEAU_RTL_CONDITION_VARIABLE@@@ZEA 0000000180031058     LIBCMT:thread_safe_statics.obj
 0003:00001060       GS_ExceptionRecord         0000000180031060     LIBCMT:gs_report.obj
 0003:00001100       GS_ContextRecord           0000000180031100     LIBCMT:gs_report.obj
 0003:000015d4       ?__proc_attached@@3HA      00000001800315d4     LIBCMT:dll_dllmain.obj
 0003:00001668       ?AllocateData@@3P6APEAUAtlThunkData_t@@XZEA 0000000180031668     atls:atlthunk.obj
 0003:00001670       ?InitData@@3P6AXPEAUAtlThunkData_t@@PEAX_K@ZEA 0000000180031670     atls:atlthunk.obj
 0003:00001678       ?DataToCode@@3P6AP6A_JPEAUHWND__@@I_K_J@ZPEAUAtlThunkData_t@@@ZEA 0000000180031678     atls:atlthunk.obj
 0003:00001680       ?FreeData@@3P6AXPEAUAtlThunkData_t@@@ZEA 0000000180031680     atls:atlthunk.obj
 0003:00001688       ?Initialized@@3_NA         0000000180031688     atls:atlthunk.obj
 0003:000016a0       ?__vcrt_startup_thread_ptd@@3U__vcrt_ptd@@A 00000001800316a0     libvcruntime:per_thread_data.obj
 0003:00001720       __vcrt_lock_table          0000000180031720     libvcruntime:locks.obj
 0003:00001748       __vcrt_locks_initialized   0000000180031748     libvcruntime:locks.obj
 0003:00001798       ?heap@@3V_HeapManager@@A   0000000180031798     libvcruntime:undname.obj
 0003:000017c0       ?module_handles@@3PAPEAUHINSTANCE__@@A 00000001800317c0     libvcruntime:winapi_downlevel.obj
 0003:000017d8       ?function_pointers@@3PAPEAXA 00000001800317d8     libvcruntime:winapi_downlevel.obj
 0003:00001800       ?__acrt_invalid_parameter_handler@@3V?$dual_state_global@P6AXPEB_W00I_K@Z@__crt_state_management@@A 0000000180031800     libucrt:invalid_parameter.obj
 0003:00001808       ?c_termination_complete@@3JA 0000000180031808     libucrt:exit.obj
 0003:00001810       ?thread_local_exit_callback_func@@3P6AXPEAXK0@ZEA 0000000180031810     libucrt:exit.obj
 0003:00001820       ?program_name@?1???$common_configure_argv@D@@YAHW4_crt_argv_mode@@@Z@4PADA 0000000180031820     libucrt:argv_parsing.obj
 0003:00001978       ?__acrt_new_handler@@3V?$dual_state_global@P6AH_K@Z@__crt_state_management@@A 0000000180031978     libucrt:new_handler.obj
 0003:00001980       ?module_handles@@3PAPEAUHINSTANCE__@@A 0000000180031980     libucrt:winapi_thunks.obj
 0003:00001a20       ?encoded_function_pointers@@3PAPEAXA 0000000180031a20     libucrt:winapi_thunks.obj
 0003:00001b30       ?internal_state@?1??_mbtowc_l@@9@4U_Mbstatet@@A 0000000180031b30     libucrt:mbtowc.obj
 0003:00001b48       ?enable_percent_n@@3_KA    0000000180031b48     libucrt:printf_count_output.obj
 0003:00001f80       ?__acrt_lock_table@@3PAU_RTL_CRITICAL_SECTION@@A 0000000180031f80     libucrt:locks.obj
 0003:000021b0       ?__acrt_locks_initialized@@3IA 00000001800321b0     libucrt:locks.obj
 0003:000021d0       ?fSystemSet@@3HA           00000001800321d0     libucrt:mbctype.obj
 0003:000021d4       ?initialized@?1??__acrt_initialize_multibyte@@9@4_NA 00000001800321d4     libucrt:mbctype.obj
 0003:00002210       ?ctrlc_action@@3V?$dual_state_global@P6AXH@Z@__crt_state_management@@A 0000000180032210     libucrt:signal.obj
 0003:00002218       ?ctrlbreak_action@@3V?$dual_state_global@P6AXH@Z@__crt_state_management@@A 0000000180032218     libucrt:signal.obj
 0003:00002220       ?abort_action@@3V?$dual_state_global@P6AXH@Z@__crt_state_management@@A 0000000180032220     libucrt:signal.obj
 0003:00002228       ?term_action@@3V?$dual_state_global@P6AXH@Z@__crt_state_management@@A 0000000180032228     libucrt:signal.obj
 0003:00002230       ?user_matherr@@3V?$dual_state_global@P6AHPEAU_exception@@@Z@__crt_state_management@@A 0000000180032230     libucrt:matherr.obj
 0003:00002238       ?__acrt_global_new_mode@@3V?$dual_state_global@J@__crt_state_management@@A 0000000180032238     libucrt:new_mode.obj
 0003:00002248       ?internal_pst@?1??__mbrtoc32_utf8@__crt_mbstring@@YA_KPEA_UPEBD_KPEAU_Mbstatet@@@Z@4U3@A 0000000180032248     libucrt:mbrtoc32.obj
 0003:00002250       ?__acrt_app_type@@3W4_crt_app_type@@A 0000000180032250     libucrt:report_runtime_error.obj
 0004:00000000       $pdata$?cw_memcpy@@YAHPEA_WPEBDH@Z 0000000180033000     CWString.obj
 0004:0000000c       $pdata$?cw_strcpy@@YAHPEA_WPEBD@Z 000000018003300c     CWString.obj
 0004:00000018       $pdata$?cw_dup@@YAXPEBDAEAHAEAPEA_W1@Z 0000000180033018     CWString.obj
 0004:00000024       $pdata$?DupWide@_CW@@AEAAXXZ 0000000180033024     CWString.obj
 0004:00000030       $pdata$?AtlWinModuleTerm@ATL@@YAJPEAU_ATL_WIN_MODULE70@1@PEAUHINSTANCE__@@@Z 0000000180033030     OposVariant.obj
 0004:0000003c       $pdata$??0CAtlComModule@ATL@@QEAA@XZ 000000018003303c     OposVariant.obj
 0004:00000048       $pdata$?Term@CAtlComModule@ATL@@QEAAXXZ 0000000180033048     OposVariant.obj
 0004:00000054       $pdata$??__E_AtlComModule@ATL@@YAXXZ 0000000180033054     OposVariant.obj
 0004:00000060       $pdata$??0CAtlWinModule@ATL@@QEAA@XZ 0000000180033060     OposVariant.obj
 0004:0000006c       $pdata$??__E_AtlWinModule@ATL@@YAXXZ 000000018003306c     OposVariant.obj
 0004:00000078       $pdata$??__F_AtlWinModule@ATL@@YAXXZ 0000000180033078     OposVariant.obj
 0004:00000084       $pdata$??_Estringdispid@CComTypeInfoHolder@ATL@@QEAAPEAXI@Z 0000000180033084     OposVariant.obj
 0004:00000090       $pdata$?SetVARIANT_BOOL@OposVariant@@QEAAXF@Z 0000000180033090     OposVariant.obj
 0004:0000009c       $pdata$?GetLONG@OposVariant@@QEAAJXZ 000000018003309c     OposVariant.obj
 0004:000000a8       $pdata$?ChangeLONG@OposVariant@@QEAAXPEAJAEAJ@Z 00000001800330a8     OposVariant.obj
 0004:000000b4       $pdata$?SetLONG@OposVariant@@QEAAXJ@Z 00000001800330b4     OposVariant.obj
 0004:000000c0       $pdata$?SetLONG_Ptr@OposVariant@@QEAAXPEAJAEAJ@Z 00000001800330c0     OposVariant.obj
 0004:000000cc       $pdata$?ChangeBSTR@OposVariant@@QEAAXPEAPEA_WAEAJ@Z 00000001800330cc     OposVariant.obj
 0004:000000d8       $pdata$?SetBSTR@OposVariant@@QEAAXPEA_WAEAJ@Z 00000001800330d8     OposVariant.obj
 0004:000000e4       $pdata$?SetBSTR_Copy@OposVariant@@QEAAXPEA_WAEAJ@Z 00000001800330e4     OposVariant.obj
 0004:000000f0       $pdata$?SetBSTR_InOutPtr@OposVariant@@QEAA_NPEAPEA_WAEAJ@Z 00000001800330f0     OposVariant.obj
 0004:000000fc       $pdata$?SetString@OposVariant@@QEAAXPEB_WAEAJ@Z 00000001800330fc     OposVariant.obj
 0004:00000108       $pdata$?SetDispatch_Ptr@OposVariant@@QEAAXPEAUIDispatch@@AEAJ@Z 0000000180033108     OposVariant.obj
 0004:00000114       $pdata$??0OposDispParms@@QEAA@PEAVOposVariant@@H@Z 0000000180033114     OposVariant.obj
 0004:00000120       $pdata$??1OposDispParms@@QEAA@XZ 0000000180033120     OposVariant.obj
 0004:0000012c       $pdata$memcpy_s            000000018003312c     SmartCardRW.obj
 0004:0000012c       $pdata$memcpy_s            000000018003312c     libucrt:cfout.obj
 0004:00000138       $pdata$?AtlThrowImpl@ATL@@YAXJ@Z 0000000180033138     SmartCardRW.obj
 0004:00000144       $pdata$swprintf_s          0000000180033144     SmartCardRW.obj
 0004:00000150       $pdata$?_AtlVerifyStackAvailable@_ATL_SAFE_ALLOCA_IMPL@ATL@@YA_N_K@Z 0000000180033150     SmartCardRW.obj
 0004:0000015c       $pdata$?filt$0@?0??_AtlVerifyStackAvailable@_ATL_SAFE_ALLOCA_IMPL@ATL@@YA_N_K@Z@4HA 000000018003315c     SmartCardRW.obj
 0004:00000168       $pdata$?AtlHresultFromLastError@ATL@@YAJXZ 0000000180033168     SmartCardRW.obj
 0004:00000174       $pdata$?AtlInternalOleLoadFromStream@ATL@@YAJPEAUIStream@@AEBU_GUID@@PEAPEAXTClassesAllowedInStream@1@K@Z 0000000180033174     SmartCardRW.obj
 0004:00000180       $pdata$?PutProperty@?$CComPtr@UIDispatch@@@ATL@@SAJPEAUIDispatch@@JPEAUtagVARIANT@@@Z 0000000180033180     SmartCardRW.obj
 0004:0000018c       $pdata$?WriteToStream@CComBSTR@ATL@@QEAAJPEAUIStream@@@Z 000000018003318c     SmartCardRW.obj
 0004:00000198       $pdata$?ReadFromStream@CComBSTR@ATL@@QEAAJPEAUIStream@@@Z 0000000180033198     SmartCardRW.obj
 0004:000001a4       $pdata$?WriteToStream@CComVariant@ATL@@QEAAJPEAUIStream@@@Z 00000001800331a4     SmartCardRW.obj
 0004:000001b0       $pdata$?WriteToStream@CComVariant@ATL@@QEAAJPEAUIStream@@G@Z 00000001800331b0     SmartCardRW.obj
 0004:000001bc       $pdata$?ReadFromStream@CComVariant@ATL@@QEAAJPEAUIStream@@GTClassesAllowedInStream@2@K@Z 00000001800331bc     SmartCardRW.obj
 0004:000001c8       $pdata$?GetSizeMax@CComVariant@ATL@@QEBAJPEAT_ULARGE_INTEGER@@@Z 00000001800331c8     SmartCardRW.obj
 0004:000001d4       $pdata$?RegCreateKeyExW@CAtlTransactionManager@ATL@@QEAAJPEAUHKEY__@@PEB_WKPEA_WKKQEAU_SECURITY_ATTRIBUTES@@PEAPEAU3@PEAK@Z 00000001800331d4     SmartCardRW.obj
 0004:000001e0       $pdata$?RegOpenKeyExW@CAtlTransactionManager@ATL@@QEAAJPEAUHKEY__@@PEB_WKKPEAPEAU3@@Z 00000001800331e0     SmartCardRW.obj
 0004:000001ec       $pdata$?RegDeleteKeyW@CAtlTransactionManager@ATL@@QEAAJPEAUHKEY__@@PEB_W@Z 00000001800331ec     SmartCardRW.obj
 0004:000001f8       $pdata$?Add@?$CSimpleArray@GV?$CSimpleArrayEqualHelper@G@ATL@@@ATL@@QEAAHAEBG@Z 00000001800331f8     SmartCardRW.obj
 0004:00000204       $pdata$?AtlInternalQueryInterface@ATL@@YAJPEAXPEBU_ATL_INTMAP_ENTRY@1@AEBU_GUID@@PEAPEAX@Z 0000000180033204     SmartCardRW.obj
 0004:00000210       $pdata$?AtlComModuleGetClassObject@ATL@@YAJPEAU_ATL_COM_MODULE70@1@AEBU_GUID@@1PEAPEAX@Z 0000000180033210     SmartCardRW.obj
 0004:0000021c       $pdata$?AtlRegisterClassCategoriesHelper@ATL@@YAJAEBU_GUID@@PEBU_ATL_CATMAP_ENTRY@1@H@Z 000000018003321c     SmartCardRW.obj
 0004:00000228       $pdata$?AtlLoadTypeLib@ATL@@YAJPEAUHINSTANCE__@@PEB_WPEAPEA_WPEAPEAUITypeLib@@@Z 0000000180033228     SmartCardRW.obj
 0004:00000234       $pdata$?AtlRegisterTypeLib@ATL@@YAJPEAUHINSTANCE__@@PEB_W@Z 0000000180033234     SmartCardRW.obj
 0004:00000240       $pdata$?AtlUnRegisterTypeLib@ATL@@YAJPEAUHINSTANCE__@@PEB_W@Z 0000000180033240     SmartCardRW.obj
 0004:0000024c       $pdata$?AtlComModuleRegisterServer@ATL@@YAJPEAU_ATL_COM_MODULE70@1@HPEBU_GUID@@@Z 000000018003324c     SmartCardRW.obj
 0004:00000258       $pdata$?AtlComModuleUnregisterServer@ATL@@YAJPEAU_ATL_COM_MODULE70@1@HPEBU_GUID@@@Z 0000000180033258     SmartCardRW.obj
 0004:00000264       $pdata$?AtlModuleAddTermFunc@ATL@@YAJPEAU_ATL_MODULE70@1@P6AX_K@Z1@Z 0000000180033264     SmartCardRW.obj
 0004:00000270       $pdata$?AtlCallTermFunc@ATL@@YAXPEAU_ATL_MODULE70@1@@Z 0000000180033270     SmartCardRW.obj
 0004:0000027c       $pdata$?AtlWinModuleExtractCreateWndData@ATL@@YAPEAXPEAU_ATL_WIN_MODULE70@1@@Z 000000018003327c     SmartCardRW.obj
 0004:00000288       $pdata$?atlCreate@CRegKey@ATL@@QEAAJPEAUHKEY__@@PEB_WPEA_WKKPEAU_SECURITY_ATTRIBUTES@@PEAK@Z 0000000180033288     SmartCardRW.obj
 0004:00000294       $pdata$?Open@CRegKey@ATL@@QEAAJPEAUHKEY__@@PEB_WK@Z 0000000180033294     SmartCardRW.obj
 0004:000002a0       $pdata$?DeleteSubKey@CRegKey@ATL@@QEAAJPEB_W@Z 00000001800332a0     SmartCardRW.obj
 0004:000002ac       $pdata$?RecurseDeleteKey@CRegKey@ATL@@QEAAJPEB_W@Z 00000001800332ac     SmartCardRW.obj
 0004:000002b8       $pdata$??0CAtlModule@ATL@@QEAA@XZ 00000001800332b8     SmartCardRW.obj
 0004:000002c4       $pdata$?GetGITPtr@CAtlModule@ATL@@UEAAJPEAPEAUIGlobalInterfaceTable@@@Z 00000001800332c4     SmartCardRW.obj
 0004:000002d0       $pdata$?UpdateRegistryFromResource@CAtlModule@ATL@@QEAAJPEB_WHPEAU_ATL_REGMAP_ENTRY@2@@Z 00000001800332d0     SmartCardRW.obj
 0004:000002dc       $pdata$?UpdateRegistryFromResource@CAtlModule@ATL@@QEAAJIHPEAU_ATL_REGMAP_ENTRY@2@@Z 00000001800332dc     SmartCardRW.obj
 0004:000002e8       $pdata$?Term@CComModule@ATL@@QEAAXXZ 00000001800332e8     SmartCardRW.obj
 0004:000002f4       $pdata$?GetClassObject@CComModule@ATL@@QEAAJAEBU_GUID@@0PEAPEAX@Z 00000001800332f4     SmartCardRW.obj
 0004:00000300       $pdata$?RegisterServer@CComModule@ATL@@QEAAJHPEBU_GUID@@@Z 0000000180033300     SmartCardRW.obj
 0004:0000030c       $pdata$?UnregisterServer@CComModule@ATL@@QEAAJHPEBU_GUID@@@Z 000000018003330c     SmartCardRW.obj
 0004:00000318       $pdata$??_GCComModule@ATL@@UEAAPEAXI@Z 0000000180033318     SmartCardRW.obj
 0004:00000324       $pdata$?Add@?$CSimpleMap@PEA_WPEA_WVCExpansionVectorEqualHelper@ATL@@@ATL@@QEAAHAEBQEA_W0@Z 0000000180033324     SmartCardRW.obj
 0004:00000330       $pdata$?Lookup@?$CSimpleMap@PEA_WPEA_WVCExpansionVectorEqualHelper@ATL@@@ATL@@QEBAPEA_WAEBQEA_W@Z 0000000180033330     SmartCardRW.obj
 0004:0000033c       $pdata$?Add@CExpansionVector@ATL@@QEAAHPEB_W0@Z 000000018003333c     SmartCardRW.obj
 0004:00000348       $pdata$?ClearReplacements@CExpansionVector@ATL@@QEAAJXZ 0000000180033348     SmartCardRW.obj
 0004:00000354       $pdata$?PreProcessBuffer@CRegParser@ATL@@QEAAJPEA_WPEAPEA_W@Z 0000000180033354     SmartCardRW.obj
 0004:00000360       $pdata$?RegisterBuffer@CRegParser@ATL@@QEAAJPEA_WH@Z 0000000180033360     SmartCardRW.obj
 0004:0000036c       $pdata$?NextToken@CRegParser@ATL@@IEAAJPEA_W@Z 000000018003336c     SmartCardRW.obj
 0004:00000378       $pdata$?AddValue@CRegParser@ATL@@IEAAJAEAVCRegKey@2@PEB_WPEA_W@Z 0000000180033378     SmartCardRW.obj
 0004:00000384       $pdata$?RegisterSubkeys@CRegParser@ATL@@IEAAJPEA_WPEAUHKEY__@@HH@Z 0000000180033384     SmartCardRW.obj
 0004:00000390       $pdata$?SkipAssignment@CRegParser@ATL@@IEAAJPEA_W@Z 0000000180033390     SmartCardRW.obj
 0004:0000039c       $pdata$?HKeyFromString@CRegParser@ATL@@KAPEAUHKEY__@@PEA_W@Z 000000018003339c     SmartCardRW.obj
 0004:000003a8       $pdata$?VTFromRegType@CRegParser@ATL@@KAHPEB_WAEAG@Z 00000001800333a8     SmartCardRW.obj
 0004:000003b4       $pdata$?Append@CParseBuffer@CRegParser@ATL@@QEAAHPEB_WH@Z 00000001800333b4     SmartCardRW.obj
 0004:000003c0       $pdata$?AddReplacement@CRegObject@ATL@@UEAAJPEB_W0@Z 00000001800333c0     SmartCardRW.obj
 0004:000003cc       $pdata$?RegisterFromResource@CRegObject@ATL@@IEAAJPEB_W00H@Z 00000001800333cc     SmartCardRW.obj
 0004:000003d8       $pdata$??_GCRegObject@ATL@@UEAAPEAXI@Z 00000001800333d8     SmartCardRW.obj
 0004:000003e4       $pdata$?AllocateHeap@?$CTempBuffer@_W$0EAA@VCCRTAllocator@ATL@@@ATL@@AEAAX_K@Z 00000001800333e4     SmartCardRW.obj
 0004:000003e4       $pdata$?AllocateHeap@?$CTempBuffer@E$0BAA@VCCRTAllocator@ATL@@@ATL@@AEAAX_K@Z 00000001800333e4     SmartCardRW.obj
 0004:000003e4       $pdata$?AllocateHeap@?$CTempBuffer@_W$0BAA@VCCRTAllocator@ATL@@@ATL@@AEAAX_K@Z 00000001800333e4     SmartCardRW.obj
 0004:000003f0       $pdata$?IsEqualObject@?$CComPtrBase@UITypeInfo@@@ATL@@QEAA_NPEAUIUnknown@@@Z 00000001800333f0     SmartCardRW.obj
 0004:000003f0       $pdata$?IsEqualObject@?$CComPtrBase@UIOleClientSite@@@ATL@@QEAA_NPEAUIUnknown@@@Z 00000001800333f0     SmartCardRW.obj
 0004:000003fc       $pdata$?AtlIPersistStreamInit_Load@ATL@@YAJPEAUIStream@@PEBUATL_PROPMAP_ENTRY@1@PEAXPEAUIUnknown@@@Z 00000001800333fc     SmartCardRW.obj
 0004:00000408       $pdata$?AtlIPersistStreamInit_Save@ATL@@YAJPEAUIStream@@HPEBUATL_PROPMAP_ENTRY@1@PEAXPEAUIUnknown@@@Z 0000000180033408     SmartCardRW.obj
 0004:00000414       $pdata$?CreateInstance@CComClassFactory@ATL@@UEAAJPEAUIUnknown@@AEBU_GUID@@PEAPEAX@Z 0000000180033414     SmartCardRW.obj
 0004:00000420       $pdata$?LockServer@CComClassFactory@ATL@@UEAAJH@Z 0000000180033420     SmartCardRW.obj
 0004:0000042c       $pdata$??_GCComClassFactory@ATL@@UEAAPEAXI@Z 000000018003342c     SmartCardRW.obj
 0004:00000438       $pdata$?GetTI@CComTypeInfoHolder@ATL@@QEAAJK@Z 0000000180033438     SmartCardRW.obj
 0004:00000444       $pdata$?Cleanup@CComTypeInfoHolder@ATL@@SAX_K@Z 0000000180033444     SmartCardRW.obj
 0004:00000450       $pdata$?GetIDsOfNames@CComTypeInfoHolder@ATL@@QEAAJAEBU_GUID@@PEAPEA_WIKPEAJ@Z 0000000180033450     SmartCardRW.obj
 0004:0000045c       $pdata$?LoadNameCache@CComTypeInfoHolder@ATL@@QEAAJPEAUITypeInfo@@@Z 000000018003345c     SmartCardRW.obj
 0004:00000468       $pdata$?Add@CComDynamicUnkArray@ATL@@QEAAKPEAUIUnknown@@@Z 0000000180033468     SmartCardRW.obj
 0004:00000474       $pdata$?AtlCreateTargetDC@ATL@@YAPEAUHDC__@@PEAU2@PEAUtagDVTARGETDEVICE@@@Z 0000000180033474     SmartCardRW.obj
 0004:00000480       $pdata$?AtlHiMetricToPixel@ATL@@YAXPEBUtagSIZE@@PEAU2@@Z 0000000180033480     SmartCardRW.obj
 0004:0000048c       $pdata$?DefaultReflectionHandler@?$CWindowImplRoot@VCWindow@ATL@@@ATL@@SAHPEAUHWND__@@I_K_JAEA_J@Z 000000018003348c     SmartCardRW.obj
 0004:00000498       $pdata$?StartWindowProc@?$CWindowImplBaseT@VCWindow@ATL@@V?$CWinTraits@$0FGAAAAAA@$0A@@2@@ATL@@SA_JPEAUHWND__@@I_K_J@Z 0000000180033498     SmartCardRW.obj
 0004:000004a4       $pdata$?WindowProc@?$CWindowImplBaseT@VCWindow@ATL@@V?$CWinTraits@$0FGAAAAAA@$0A@@2@@ATL@@SA_JPEAUHWND__@@I_K_J@Z 00000001800334a4     SmartCardRW.obj
 0004:000004b0       $pdata$?atlCreate@?$CWindowImplBaseT@VCWindow@ATL@@V?$CWinTraits@$0FGAAAAAA@$0A@@2@@ATL@@QEAAPEAUHWND__@@PEAU3@V_U_RECT@2@PEB_WKKV_U_MENUorID@2@GPEAX@Z 00000001800334b0     SmartCardRW.obj
 0004:000004bc       $pdata$??$AtlModuleRegisterWndClassInfoT@VAtlModuleRegisterWndClassInfoParamW@ATL@@@ATL@@YAGPEAU_ATL_BASE_MODULE70@0@PEAU_ATL_WIN_MODULE70@0@PEAU_ATL_WNDCLASSINFOW@0@PEAP6A_JPEAUHWND__@@I_K_J@ZVAtlModuleRegisterWndClassInfoParamW@0@@Z 00000001800334bc     SmartCardRW.obj
 0004:000004c8       $pdata$?GetZoomInfo@CComControlBase@ATL@@QEAAXAEAUATL_DRAWINFO@@@Z 00000001800334c8     SmartCardRW.obj
 0004:000004d4       $pdata$?SendOnDataChange@CComControlBase@ATL@@QEAAJK@Z 00000001800334d4     SmartCardRW.obj
 0004:000004e0       $pdata$?OnSetFocus@CComControlBase@ATL@@QEAA_JI_K_JAEAH@Z 00000001800334e0     SmartCardRW.obj
 0004:000004ec       $pdata$?OnKillFocus@CComControlBase@ATL@@QEAA_JI_K_JAEAH@Z 00000001800334ec     SmartCardRW.obj
 0004:000004f8       $pdata$?OnMouseActivate@CComControlBase@ATL@@QEAA_JI_K_JAEAH@Z 00000001800334f8     SmartCardRW.obj
 0004:00000504       $pdata$?GetAmbientLocaleID@CComControlBase@ATL@@QEAAJAEAK@Z 0000000180033504     SmartCardRW.obj
 0004:00000510       $pdata$?GetAmbientUserMode@CComControlBase@ATL@@QEAAJAEAH@Z 0000000180033510     SmartCardRW.obj
 0004:0000051c       $pdata$?SetControlFocus@CComControlBase@ATL@@QEAAHH@Z 000000018003351c     SmartCardRW.obj
 0004:00000528       $pdata$?IQuickActivate_QuickActivate@CComControlBase@ATL@@QEAAJPEAUtagQACONTAINER@@PEAUtagQACONTROL@@@Z 0000000180033528     SmartCardRW.obj
 0004:00000534       $pdata$?DoVerbProperties@CComControlBase@ATL@@QEAAJPEBUtagRECT@@PEAUHWND__@@@Z 0000000180033534     SmartCardRW.obj
 0004:00000540       $pdata$?InPlaceActivate@CComControlBase@ATL@@QEAAJJPEBUtagRECT@@@Z 0000000180033540     SmartCardRW.obj
 0004:0000054c       $pdata$?IOleObject_SetClientSite@CComControlBase@ATL@@QEAAJPEAUIOleClientSite@@@Z 000000018003354c     SmartCardRW.obj
 0004:00000558       $pdata$?IOleObject_Close@CComControlBase@ATL@@QEAAJK@Z 0000000180033558     SmartCardRW.obj
 0004:00000564       $pdata$?IOleObject_SetExtent@CComControlBase@ATL@@QEAAJKPEAUtagSIZE@@@Z 0000000180033564     SmartCardRW.obj
 0004:00000570       $pdata$?IOleInPlaceObject_InPlaceDeactivate@CComControlBase@ATL@@QEAAJXZ 0000000180033570     SmartCardRW.obj
 0004:0000057c       $pdata$?IOleInPlaceObject_UIDeactivate@CComControlBase@ATL@@QEAAJXZ 000000018003357c     SmartCardRW.obj
 0004:00000588       $pdata$?IOleInPlaceObject_SetObjectRects@CComControlBase@ATL@@QEAAJPEBUtagRECT@@0@Z 0000000180033588     SmartCardRW.obj
 0004:00000594       $pdata$?IViewObject_Draw@CComControlBase@ATL@@QEAAJKJPEAXPEAUtagDVTARGETDEVICE@@PEAUHDC__@@2PEBU_RECTL@@3@Z 0000000180033594     SmartCardRW.obj
 0004:000005a0       $pdata$?IDataObject_GetData@CComControlBase@ATL@@QEAAJPEAUtagFORMATETC@@PEAUtagSTGMEDIUM@@@Z 00000001800335a0     SmartCardRW.obj
 0004:000005ac       $pdata$?FireViewChange@CComControlBase@ATL@@QEAAJXZ 00000001800335ac     SmartCardRW.obj
 0004:000005b8       $pdata$?OnPaint@CComControlBase@ATL@@QEAA_JI_K_JAEAH@Z 00000001800335b8     SmartCardRW.obj
 0004:000005c4       $pdata$?OnDrawAdvanced@CComControlBase@ATL@@UEAAJAEAUATL_DRAWINFO@@@Z 00000001800335c4     SmartCardRW.obj
 0004:000005d0       $pdata$?GetTypeInfo@?$IDispatchImpl@UIOPOSSmartCardRW@@$1?IID_IOPOSSmartCardRW@@3U_GUID@@B$1?LIBID_OposSmartCardRW_CCO@@3U3@B$00$0A@VCComTypeInfoHolder@ATL@@@ATL@@UEAAJIKPEAPEAUITypeInfo@@@Z 00000001800335d0     SmartCardRW.obj
 0004:000005dc       $pdata$?Invoke@?$IDispatchImpl@UIOPOSSmartCardRW@@$1?IID_IOPOSSmartCardRW@@3U_GUID@@B$1?LIBID_OposSmartCardRW_CCO@@3U3@B$00$0A@VCComTypeInfoHolder@ATL@@@ATL@@UEAAJJAEBU_GUID@@KGPEAUtagDISPPARAMS@@PEAUtagVARIANT@@PEAUtagEXCEPINFO@@PEAI@Z 00000001800335dc     SmartCardRW.obj
 0004:000005e8       $pdata$?atlCreate@?$CWindowImpl@VCOPOSSmartCardRW@@VCWindow@ATL@@V?$CWinTraits@$0FGAAAAAA@$0A@@3@@ATL@@QEAAPEAUHWND__@@PEAU3@V_U_RECT@2@PEB_WKKV_U_MENUorID@2@PEAX@Z 00000001800335e8     SmartCardRW.obj
 0004:000005f4       $pdata$?CreateControlWindow@?$CComControl@VCOPOSSmartCardRW@@V?$CWindowImpl@VCOPOSSmartCardRW@@VCWindow@ATL@@V?$CWinTraits@$0FGAAAAAA@$0A@@3@@ATL@@@ATL@@UEAAPEAUHWND__@@PEAU3@AEAUtagRECT@@@Z 00000001800335f4     SmartCardRW.obj
 0004:00000600       $pdata$?ProcessWindowMessage@?$CComControl@VCOPOSSmartCardRW@@V?$CWindowImpl@VCOPOSSmartCardRW@@VCWindow@ATL@@V?$CWinTraits@$0FGAAAAAA@$0A@@3@@ATL@@@ATL@@UEAAHPEAUHWND__@@I_K_JAEA_JK@Z 0000000180033600     SmartCardRW.obj
 0004:0000060c       $pdata$?Load@?$IPersistStreamInitImpl@VCOPOSSmartCardRW@@@ATL@@UEAAJPEAUIStream@@@Z 000000018003360c     SmartCardRW.obj
 0004:00000618       $pdata$?Save@?$IPersistStreamInitImpl@VCOPOSSmartCardRW@@@ATL@@UEAAJPEAUIStream@@H@Z 0000000180033618     SmartCardRW.obj
 0004:00000624       $pdata$?GetSizeMax@?$IPersistStreamInitImpl@VCOPOSSmartCardRW@@@ATL@@UEAAJPEAT_ULARGE_INTEGER@@@Z 0000000180033624     SmartCardRW.obj
 0004:00000630       $pdata$?GetClientSite@?$IOleObjectImpl@VCOPOSSmartCardRW@@@ATL@@UEAAJPEAPEAUIOleClientSite@@@Z 0000000180033630     SmartCardRW.obj
 0004:0000063c       $pdata$?DoVerbPrimary@?$IOleObjectImpl@VCOPOSSmartCardRW@@@ATL@@QEAAJPEBUtagRECT@@PEAUHWND__@@@Z 000000018003363c     SmartCardRW.obj
 0004:00000648       $pdata$?DoVerb@?$IOleObjectImpl@VCOPOSSmartCardRW@@@ATL@@UEAAJJPEAUtagMSG@@PEAUIOleClientSite@@JPEAUHWND__@@PEBUtagRECT@@@Z 0000000180033648     SmartCardRW.obj
 0004:00000654       $pdata$?Advise@?$IOleObjectImpl@VCOPOSSmartCardRW@@@ATL@@UEAAJPEAUIAdviseSink@@PEAK@Z 0000000180033654     SmartCardRW.obj
 0004:00000660       $pdata$?Unadvise@?$IOleObjectImpl@VCOPOSSmartCardRW@@@ATL@@UEAAJK@Z 0000000180033660     SmartCardRW.obj
 0004:0000066c       $pdata$?EnumAdvise@?$IOleObjectImpl@VCOPOSSmartCardRW@@@ATL@@UEAAJPEAPEAUIEnumSTATDATA@@@Z 000000018003366c     SmartCardRW.obj
 0004:00000678       $pdata$?TranslateAcceleratorW@?$IOleInPlaceActiveObjectImpl@VCOPOSSmartCardRW@@@ATL@@UEAAJPEAUtagMSG@@@Z 0000000180033678     SmartCardRW.obj
 0004:00000684       $pdata$?OnDocWindowActivate@?$IOleInPlaceActiveObjectImpl@VCOPOSSmartCardRW@@@ATL@@UEAAJH@Z 0000000180033684     SmartCardRW.obj
 0004:00000690       $pdata$?Draw@?$IViewObjectExImpl@VCOPOSSmartCardRW@@@ATL@@UEAAJKJPEAXPEAUtagDVTARGETDEVICE@@PEAUHDC__@@2PEBU_RECTL@@3P6AH_K@Z4@Z 0000000180033690     SmartCardRW.obj
 0004:0000069c       $pdata$?SetAdvise@?$IViewObjectExImpl@VCOPOSSmartCardRW@@@ATL@@UEAAJKKPEAUIAdviseSink@@@Z 000000018003369c     SmartCardRW.obj
 0004:000006a8       $pdata$?GetAdvise@?$IViewObjectExImpl@VCOPOSSmartCardRW@@@ATL@@UEAAJPEAK0PEAPEAUIAdviseSink@@@Z 00000001800336a8     SmartCardRW.obj
 0004:000006b4       $pdata$?QueryHitPoint@?$IViewObjectExImpl@VCOPOSSmartCardRW@@@ATL@@UEAAJKPEBUtagRECT@@UtagPOINT@@JPEAK@Z 00000001800336b4     SmartCardRW.obj
 0004:000006c0       $pdata$?QueryHitRect@?$IViewObjectExImpl@VCOPOSSmartCardRW@@@ATL@@UEAAJKPEBUtagRECT@@0JPEAK@Z 00000001800336c0     SmartCardRW.obj
 0004:000006cc       $pdata$?OnWindowMessage@?$IOleInPlaceObjectWindowlessImpl@VCOPOSSmartCardRW@@@ATL@@UEAAJI_K_JPEA_J@Z 00000001800336cc     SmartCardRW.obj
 0004:000006d8       $pdata$?EnumConnectionPoints@?$IConnectionPointContainerImpl@VCOPOSSmartCardRW@@@ATL@@UEAAJPEAPEAUIEnumConnectionPoints@@@Z 00000001800336d8     SmartCardRW.obj
 0004:000006e4       $pdata$?FindConnectionPoint@?$IConnectionPointContainerImpl@VCOPOSSmartCardRW@@@ATL@@UEAAJAEBU_GUID@@PEAPEAUIConnectionPoint@@@Z 00000001800336e4     SmartCardRW.obj
 0004:000006f0       $pdata$?IsDirty@?$IPersistStorageImpl@VCOPOSSmartCardRW@@@ATL@@UEAAJXZ 00000001800336f0     SmartCardRW.obj
 0004:000006fc       $pdata$?InitNew@?$IPersistStorageImpl@VCOPOSSmartCardRW@@@ATL@@UEAAJPEAUIStorage@@@Z 00000001800336fc     SmartCardRW.obj
 0004:00000708       $pdata$?Load@?$IPersistStorageImpl@VCOPOSSmartCardRW@@@ATL@@UEAAJPEAUIStorage@@@Z 0000000180033708     SmartCardRW.obj
 0004:00000714       $pdata$?Save@?$IPersistStorageImpl@VCOPOSSmartCardRW@@@ATL@@UEAAJPEAUIStorage@@H@Z 0000000180033714     SmartCardRW.obj
 0004:00000720       $pdata$?IPSI_GetIPersistStreamInit@?$IPersistStorageImpl@VCOPOSSmartCardRW@@@ATL@@AEAAPEAUIPersistStreamInit@@XZ 0000000180033720     SmartCardRW.obj
 0004:0000072c       $pdata$?GetPagesHelper@?$ISpecifyPropertyPagesImpl@VCOPOSSmartCardRW@@@ATL@@IEAAJPEAUtagCAUUID@@PEBUATL_PROPMAP_ENTRY@2@@Z 000000018003372c     SmartCardRW.obj
 0004:00000738       $pdata$?DAdvise@?$IDataObjectImpl@VCOPOSSmartCardRW@@@ATL@@UEAAJPEAUtagFORMATETC@@KPEAUIAdviseSink@@PEAK@Z 0000000180033738     SmartCardRW.obj
 0004:00000744       $pdata$?GetClassInfoW@?$IProvideClassInfo2Impl@$1?CLSID_OPOSSmartCardRW@@3U_GUID@@B$1?DIID__IOPOSSmartCardRWEvents@@3U2@B$1?LIBID_OposSmartCardRW_CCO@@3U2@B$00$0A@VCComTypeInfoHolder@ATL@@@ATL@@UEAAJPEAPEAUITypeInfo@@@Z 0000000180033744     SmartCardRW.obj
 0004:00000750       $pdata$?GetInterfaceSafetyOptions@?$IObjectSafetyImpl@VCOPOSSmartCardRW@@$02@ATL@@UEAAJAEBU_GUID@@PEAK1@Z 0000000180033750     SmartCardRW.obj
 0004:0000075c       $pdata$?SetInterfaceSafetyOptions@?$IObjectSafetyImpl@VCOPOSSmartCardRW@@$02@ATL@@UEAAJAEBU_GUID@@KK@Z 000000018003375c     SmartCardRW.obj
 0004:00000768       $pdata$?_LocCPQueryInterface@?$IConnectionPointImpl@VCOPOSSmartCardRW@@$1?DIID__IOPOSSmartCardRWEvents@@3U_GUID@@BVCComDynamicUnkArray@ATL@@@ATL@@UEAAJAEBU_GUID@@PEAPEAX@Z 0000000180033768     SmartCardRW.obj
 0004:00000768       $pdata$?_LocCPQueryInterface@?$IConnectionPointImpl@VCOPOSSmartCardRW@@$1?IID_IPropertyNotifySink@@3U_GUID@@BVCComDynamicUnkArray@ATL@@@ATL@@UEAAJAEBU_GUID@@PEAPEAX@Z 0000000180033768     SmartCardRW.obj
 0004:00000774       $pdata$?Advise@?$IConnectionPointImpl@VCOPOSSmartCardRW@@$1?DIID__IOPOSSmartCardRWEvents@@3U_GUID@@BVCComDynamicUnkArray@ATL@@@ATL@@UEAAJPEAUIUnknown@@PEAK@Z 0000000180033774     SmartCardRW.obj
 0004:00000774       $pdata$?Advise@?$IConnectionPointImpl@VCOPOSSmartCardRW@@$1?IID_IPropertyNotifySink@@3U_GUID@@BVCComDynamicUnkArray@ATL@@@ATL@@UEAAJPEAUIUnknown@@PEAK@Z 0000000180033774     SmartCardRW.obj
 0004:00000780       $pdata$?Unadvise@?$IConnectionPointImpl@VCOPOSSmartCardRW@@$1?DIID__IOPOSSmartCardRWEvents@@3U_GUID@@BVCComDynamicUnkArray@ATL@@@ATL@@UEAAJK@Z 0000000180033780     SmartCardRW.obj
 0004:00000780       $pdata$?Unadvise@?$IConnectionPointImpl@VCOPOSSmartCardRW@@$1?IID_IPropertyNotifySink@@3U_GUID@@BVCComDynamicUnkArray@ATL@@@ATL@@UEAAJK@Z 0000000180033780     SmartCardRW.obj
 0004:0000078c       $pdata$?EnumConnections@?$IConnectionPointImpl@VCOPOSSmartCardRW@@$1?DIID__IOPOSSmartCardRWEvents@@3U_GUID@@BVCComDynamicUnkArray@ATL@@@ATL@@UEAAJPEAPEAUIEnumConnections@@@Z 000000018003378c     SmartCardRW.obj
 0004:0000078c       $pdata$?EnumConnections@?$IConnectionPointImpl@VCOPOSSmartCardRW@@$1?IID_IPropertyNotifySink@@3U_GUID@@BVCComDynamicUnkArray@ATL@@@ATL@@UEAAJPEAPEAUIEnumConnections@@@Z 000000018003378c     SmartCardRW.obj
 0004:00000798       $pdata$?Fire_DataEvent@?$CProxy_IOPOSEvents@VCOPOSSmartCardRW@@@@QEAAXJ@Z 0000000180033798     SmartCardRW.obj
 0004:000007a4       $pdata$?Fire_DirectIOEvent@?$CProxy_IOPOSEvents@VCOPOSSmartCardRW@@@@QEAAXJPEAJPEAPEA_W@Z 00000001800337a4     SmartCardRW.obj
 0004:000007b0       $pdata$?Fire_ErrorEvent@?$CProxy_IOPOSEvents@VCOPOSSmartCardRW@@@@QEAAXJJJPEAJ@Z 00000001800337b0     SmartCardRW.obj
 0004:000007bc       $pdata$?Fire_OutputCompleteEvent@?$CProxy_IOPOSEvents@VCOPOSSmartCardRW@@@@QEAAXJ@Z 00000001800337bc     SmartCardRW.obj
 0004:000007c8       $pdata$?Fire_StatusUpdateEvent@?$CProxy_IOPOSEvents@VCOPOSSmartCardRW@@@@QEAAXJ@Z 00000001800337c8     SmartCardRW.obj
 0004:000007d4       $pdata$?FireTheEvent@?$CProxy_IOPOSEvents@VCOPOSSmartCardRW@@@@IEAAXPEAVOposVariant@@IAEAJPEB_WJ@Z 00000001800337d4     SmartCardRW.obj
 0004:000007e0       $pdata$?GetConnMap@COPOSSmartCardRW@@SAPEBU_ATL_CONNMAP_ENTRY@ATL@@PEAH@Z 00000001800337e0     SmartCardRW.obj
 0004:000007ec       $pdata$?ProcessWindowMessage@COPOSSmartCardRW@@UEAAHPEAUHWND__@@I_K_JAEA_JK@Z 00000001800337ec     SmartCardRW.obj
 0004:000007f8       $pdata$?SOData@COPOSSmartCardRW@@MEAAJJ@Z 00000001800337f8     SmartCardRW.obj
 0004:00000804       $pdata$?SODirectIO@COPOSSmartCardRW@@MEAAJJPEAJPEAPEA_W@Z 0000000180033804     SmartCardRW.obj
 0004:00000810       $pdata$?SOError@COPOSSmartCardRW@@MEAAJJJJPEAJ@Z 0000000180033810     SmartCardRW.obj
 0004:0000081c       $pdata$?SOOutputComplete@COPOSSmartCardRW@@MEAAJJ@Z 000000018003381c     SmartCardRW.obj
 0004:00000828       $pdata$?SOStatusUpdate@COPOSSmartCardRW@@MEAAJJ@Z 0000000180033828     SmartCardRW.obj
 0004:00000834       $pdata$?DoEvent@COPOSSmartCardRW@@IEAAXI_K_J@Z 0000000180033834     SmartCardRW.obj
 0004:00000840       $pdata$??__E_Module@@YAXXZ 0000000180033840     SmartCardRW.obj
 0004:0000084c       $pdata$??__F_Module@@YAXXZ 000000018003384c     SmartCardRW.obj
 0004:00000858       $pdata$?CreateInstance@?$CComCreator@V?$CComObjectCached@VCComClassFactory@ATL@@@ATL@@@ATL@@SAJPEAXAEBU_GUID@@PEAPEAX@Z 0000000180033858     SmartCardRW.obj
 0004:00000864       $pdata$DllMain             0000000180033864     SmartCardRW.obj
 0004:00000870       $pdata$?CreateInstance@?$CComCreator@V?$CComObject@VCOPOSSmartCardRW@@@ATL@@@ATL@@SAJPEAXAEBU_GUID@@PEAPEAX@Z 0000000180033870     SmartCardRW.obj
 0004:0000087c       $pdata$?CreateInstance@?$CComCreator@V?$CComAggObject@VCOPOSSmartCardRW@@@ATL@@@ATL@@SAJPEAXAEBU_GUID@@PEAPEAX@Z 000000018003387c     SmartCardRW.obj
 0004:00000888       $pdata$??1?$CComEnumImpl@UIEnumConnectionPoints@@$1?_GUID_b196b285_bab4_101a_b69c_00aa00341d07@@3U__s_GUID@@BPEAUIConnectionPoint@@V?$_CopyInterface@UIConnectionPoint@@@ATL@@@ATL@@UEAA@XZ 0000000180033888     SmartCardRW.obj
 0004:00000894       $pdata$?Next@?$CComEnumImpl@UIEnumConnectionPoints@@$1?_GUID_b196b285_bab4_101a_b69c_00aa00341d07@@3U__s_GUID@@BPEAUIConnectionPoint@@V?$_CopyInterface@UIConnectionPoint@@@ATL@@@ATL@@UEAAJKPEAPEAUIConnectionPoint@@PEAK@Z 0000000180033894     SmartCardRW.obj
 0004:000008a0       $pdata$?Clone@?$CComEnumImpl@UIEnumConnectionPoints@@$1?_GUID_b196b285_bab4_101a_b69c_00aa00341d07@@3U__s_GUID@@BPEAUIConnectionPoint@@V?$_CopyInterface@UIConnectionPoint@@@ATL@@@ATL@@UEAAJPEAPEAUIEnumConnectionPoints@@@Z 00000001800338a0     SmartCardRW.obj
 0004:000008ac       $pdata$?Init@?$CComEnumImpl@UIEnumConnectionPoints@@$1?_GUID_b196b285_bab4_101a_b69c_00aa00341d07@@3U__s_GUID@@BPEAUIConnectionPoint@@V?$_CopyInterface@UIConnectionPoint@@@ATL@@@ATL@@QEAAJPEAPEAUIConnectionPoint@@0PEAUIUnknown@@W4CComEnumFlags@2@@Z 00000001800338ac     SmartCardRW.obj
 0004:000008b8       $pdata$?Release@?$CComObject@V?$CComEnum@UIEnumConnections@@$1?_GUID_b196b287_bab4_101a_b69c_00aa00341d07@@3U__s_GUID@@BUtagCONNECTDATA@@V?$_Copy@UtagCONNECTDATA@@@ATL@@VCComSingleThreadModel@6@@ATL@@@ATL@@UEAAKXZ 00000001800338b8     SmartCardRW.obj
 0004:000008b8       $pdata$?Release@?$CComObject@V?$CComEnum@UIEnumConnectionPoints@@$1?_GUID_b196b285_bab4_101a_b69c_00aa00341d07@@3U__s_GUID@@BPEAUIConnectionPoint@@V?$_CopyInterface@UIConnectionPoint@@@ATL@@VCComSingleThreadModel@6@@ATL@@@ATL@@UEAAKXZ 00000001800338b8     SmartCardRW.obj
 0004:000008c4       $pdata$?CreateInstance@?$CComObject@V?$CComEnum@UIEnumConnectionPoints@@$1?_GUID_b196b285_bab4_101a_b69c_00aa00341d07@@3U__s_GUID@@BPEAUIConnectionPoint@@V?$_CopyInterface@UIConnectionPoint@@@ATL@@VCComSingleThreadModel@6@@ATL@@@ATL@@SAJPEAPEAV12@@Z 00000001800338c4     SmartCardRW.obj
 0004:000008d0       $pdata$??_G?$CComObject@V?$CComEnum@UIEnumConnectionPoints@@$1?_GUID_b196b285_bab4_101a_b69c_00aa00341d07@@3U__s_GUID@@BPEAUIConnectionPoint@@V?$_CopyInterface@UIConnectionPoint@@@ATL@@VCComSingleThreadModel@6@@ATL@@@ATL@@UEAAPEAXI@Z 00000001800338d0     SmartCardRW.obj
 0004:000008dc       $pdata$?AddRef@?$CComObjectCached@VCComClassFactory@ATL@@@ATL@@UEAAKXZ 00000001800338dc     SmartCardRW.obj
 0004:000008e8       $pdata$?Release@?$CComObjectCached@VCComClassFactory@ATL@@@ATL@@UEAAKXZ 00000001800338e8     SmartCardRW.obj
 0004:000008f4       $pdata$??_G?$CComObjectCached@VCComClassFactory@ATL@@@ATL@@UEAAPEAXI@Z 00000001800338f4     SmartCardRW.obj
 0004:00000900       $pdata$?Release@?$CComAggObject@VCOPOSSmartCardRW@@@ATL@@UEAAKXZ 0000000180033900     SmartCardRW.obj
 0004:0000090c       $pdata$?QueryInterface@?$CComAggObject@VCOPOSSmartCardRW@@@ATL@@UEAAJAEBU_GUID@@PEAPEAX@Z 000000018003390c     SmartCardRW.obj
 0004:00000918       $pdata$??0?$CComContainedObject@VCOPOSSmartCardRW@@@ATL@@QEAA@PEAX@Z 0000000180033918     SmartCardRW.obj
 0004:00000924       $pdata$??_G?$CComContainedObject@VCOPOSSmartCardRW@@@ATL@@UEAAPEAXI@Z 0000000180033924     SmartCardRW.obj
 0004:00000930       $pdata$??_G?$CComAggObject@VCOPOSSmartCardRW@@@ATL@@UEAAPEAXI@Z 0000000180033930     SmartCardRW.obj
 0004:0000093c       $pdata$??0?$CComObject@VCOPOSSmartCardRW@@@ATL@@QEAA@PEAX@Z 000000018003393c     SmartCardRW.obj
 0004:00000948       $pdata$??1?$CComObject@VCOPOSSmartCardRW@@@ATL@@UEAA@XZ 0000000180033948     SmartCardRW.obj
 0004:00000954       $pdata$?Release@?$CComObject@VCOPOSSmartCardRW@@@ATL@@UEAAKXZ 0000000180033954     SmartCardRW.obj
 0004:00000960       $pdata$??_G?$CComObject@VCOPOSSmartCardRW@@@ATL@@UEAAPEAXI@Z 0000000180033960     SmartCardRW.obj
 0004:0000096c       $pdata$??__E?pConnMap@?$IConnectionPointContainerImpl@VCOPOSSmartCardRW@@@ATL@@0PEBU_ATL_CONNMAP_ENTRY@2@EB@@YAXXZ 000000018003396c     SmartCardRW.obj
 0004:00000978       $pdata$??1?$CComEnumImpl@UIEnumConnections@@$1?_GUID_b196b287_bab4_101a_b69c_00aa00341d07@@3U__s_GUID@@BUtagCONNECTDATA@@V?$_Copy@UtagCONNECTDATA@@@ATL@@@ATL@@UEAA@XZ 0000000180033978     SmartCardRW.obj
 0004:00000984       $pdata$?Next@?$CComEnumImpl@UIEnumConnections@@$1?_GUID_b196b287_bab4_101a_b69c_00aa00341d07@@3U__s_GUID@@BUtagCONNECTDATA@@V?$_Copy@UtagCONNECTDATA@@@ATL@@@ATL@@UEAAJKPEAUtagCONNECTDATA@@PEAK@Z 0000000180033984     SmartCardRW.obj
 0004:00000990       $pdata$?Clone@?$CComEnumImpl@UIEnumConnections@@$1?_GUID_b196b287_bab4_101a_b69c_00aa00341d07@@3U__s_GUID@@BUtagCONNECTDATA@@V?$_Copy@UtagCONNECTDATA@@@ATL@@@ATL@@UEAAJPEAPEAUIEnumConnections@@@Z 0000000180033990     SmartCardRW.obj
 0004:0000099c       $pdata$?Init@?$CComEnumImpl@UIEnumConnections@@$1?_GUID_b196b287_bab4_101a_b69c_00aa00341d07@@3U__s_GUID@@BUtagCONNECTDATA@@V?$_Copy@UtagCONNECTDATA@@@ATL@@@ATL@@QEAAJPEAUtagCONNECTDATA@@0PEAUIUnknown@@W4CComEnumFlags@2@@Z 000000018003399c     SmartCardRW.obj
 0004:000009a8       $pdata$?CreateInstance@?$CComObject@V?$CComEnum@UIEnumConnections@@$1?_GUID_b196b287_bab4_101a_b69c_00aa00341d07@@3U__s_GUID@@BUtagCONNECTDATA@@V?$_Copy@UtagCONNECTDATA@@@ATL@@VCComSingleThreadModel@6@@ATL@@@ATL@@SAJPEAPEAV12@@Z 00000001800339a8     SmartCardRW.obj
 0004:000009b4       $pdata$??_G?$CComObject@V?$CComEnum@UIEnumConnections@@$1?_GUID_b196b287_bab4_101a_b69c_00aa00341d07@@3U__s_GUID@@BUtagCONNECTDATA@@V?$_Copy@UtagCONNECTDATA@@@ATL@@VCComSingleThreadModel@6@@ATL@@@ATL@@UEAAPEAXI@Z 00000001800339b4     SmartCardRW.obj
 0004:000009c0       $pdata$??1CComControlBase@ATL@@UEAA@XZ 00000001800339c0     SmartCardRWImpl.obj
 0004:000009cc       $pdata$??1?$IConnectionPointImpl@VCOPOSSmartCardRW@@$1?IID_IPropertyNotifySink@@3U_GUID@@BVCComDynamicUnkArray@ATL@@@ATL@@QEAA@XZ 00000001800339cc     SmartCardRWImpl.obj
 0004:000009cc       $pdata$??1?$IConnectionPointImpl@VCOPOSSmartCardRW@@$1?DIID__IOPOSSmartCardRWEvents@@3U_GUID@@BVCComDynamicUnkArray@ATL@@@ATL@@QEAA@XZ 00000001800339cc     SmartCardRWImpl.obj
 0004:000009d8       $pdata$?FinalConstruct@COPOSSmartCardRW@@QEAAJXZ 00000001800339d8     SmartCardRWImpl.obj
 0004:000009e4       $pdata$??1COPOSSmartCardRW@@UEAA@XZ 00000001800339e4     SmartCardRWImpl.obj
 0004:000009f0       $pdata$?GetOposProp@COPOSSmartCardRW@@IEAAJJPEAJJ@Z 00000001800339f0     SmartCardRWImpl.obj
 0004:000009fc       $pdata$?SetOposProp@COPOSSmartCardRW@@IEAAJJJJ@Z 00000001800339fc     SmartCardRWImpl.obj
 0004:00000a08       $pdata$?GetOposProp@COPOSSmartCardRW@@IEAAJJPEAPEA_WJ@Z 0000000180033a08     SmartCardRWImpl.obj
 0004:00000a14       $pdata$?DoInvoke@COPOSSmartCardRW@@IEAAJJPEAVOposVariant@@IHPEAJ_N@Z 0000000180033a14     SmartCardRWImpl.obj
 0004:00000a20       $pdata$?SetCOFreezeEvents@COPOSSmartCardRW@@IEAAXF@Z 0000000180033a20     SmartCardRWImpl.obj
 0004:00000a2c       $pdata$?FreezeEvents@COPOSSmartCardRW@@MEAAJH@Z 0000000180033a2c     SmartCardRWImpl.obj
 0004:00000a38       $pdata$?OnDraw@COPOSSmartCardRW@@MEAAJAEAUATL_DRAWINFO@@@Z 0000000180033a38     SmartCardRWImpl.obj
 0004:00000a44       $pdata$?EventInit@COPOSSmartCardRW@@IEAAJXZ 0000000180033a44     SmartCardRWImpl.obj
 0004:00000a50       $pdata$?EventUninit@COPOSSmartCardRW@@IEAAXXZ 0000000180033a50     SmartCardRWImpl.obj
 0004:00000a5c       $pdata$?s_EventWindowProc@COPOSSmartCardRW@@KA_JPEAUHWND__@@I_K_J@Z 0000000180033a5c     SmartCardRWImpl.obj
 0004:00000a68       $pdata$?EventWindowProc@COPOSSmartCardRW@@IEAA_JI_K_J@Z 0000000180033a68     SmartCardRWImpl.obj
 0004:00000a74       $pdata$?SOProcessID@COPOSSmartCardRW@@UEAAJPEAJ@Z 0000000180033a74     SmartCardRWImpl.obj
 0004:00000a80       $pdata$?get_Claimed@COPOSSmartCardRW@@UEAAJPEAF@Z 0000000180033a80     SmartCardRWImpl.obj
 0004:00000a8c       $pdata$?get_DataEventEnabled@COPOSSmartCardRW@@UEAAJPEAF@Z 0000000180033a8c     SmartCardRWImpl.obj
 0004:00000a98       $pdata$?get_DeviceEnabled@COPOSSmartCardRW@@UEAAJPEAF@Z 0000000180033a98     SmartCardRWImpl.obj
 0004:00000aa4       $pdata$?get_FreezeEvents@COPOSSmartCardRW@@UEAAJPEAF@Z 0000000180033aa4     SmartCardRWImpl.obj
 0004:00000ab0       $pdata$?put_FreezeEvents@COPOSSmartCardRW@@UEAAJF@Z 0000000180033ab0     SmartCardRWImpl.obj
 0004:00000abc       $pdata$?get_ResultCode@COPOSSmartCardRW@@UEAAJPEAJ@Z 0000000180033abc     SmartCardRWImpl.obj
 0004:00000ac8       $pdata$?get_State@COPOSSmartCardRW@@UEAAJPEAJ@Z 0000000180033ac8     SmartCardRWImpl.obj
 0004:00000ad4       $pdata$?get_ControlObjectDescription@COPOSSmartCardRW@@UEAAJPEAPEA_W@Z 0000000180033ad4     SmartCardRWImpl.obj
 0004:00000ae0       $pdata$?get_CapStatisticsReporting@COPOSSmartCardRW@@UEAAJPEAF@Z 0000000180033ae0     SmartCardRWImpl.obj
 0004:00000aec       $pdata$?get_CapUpdateStatistics@COPOSSmartCardRW@@UEAAJPEAF@Z 0000000180033aec     SmartCardRWImpl.obj
 0004:00000af8       $pdata$?CheckHealth@COPOSSmartCardRW@@UEAAJJPEAJ@Z 0000000180033af8     SmartCardRWImpl.obj
 0004:00000b04       $pdata$?ClaimDevice@COPOSSmartCardRW@@UEAAJJPEAJ@Z 0000000180033b04     SmartCardRWImpl.obj
 0004:00000b10       $pdata$?ClearInput@COPOSSmartCardRW@@UEAAJPEAJ@Z 0000000180033b10     SmartCardRWImpl.obj
 0004:00000b1c       $pdata$?ClearOutput@COPOSSmartCardRW@@UEAAJPEAJ@Z 0000000180033b1c     SmartCardRWImpl.obj
 0004:00000b28       $pdata$?Close@COPOSSmartCardRW@@UEAAJPEAJ@Z 0000000180033b28     SmartCardRWImpl.obj
 0004:00000b34       $pdata$?DirectIO@COPOSSmartCardRW@@UEAAJJPEAJPEAPEA_W0@Z 0000000180033b34     SmartCardRWImpl.obj
 0004:00000b40       $pdata$?Open@COPOSSmartCardRW@@UEAAJPEA_WPEAJ@Z 0000000180033b40     SmartCardRWImpl.obj
 0004:00000b4c       $pdata$?ReleaseDevice@COPOSSmartCardRW@@UEAAJPEAJ@Z 0000000180033b4c     SmartCardRWImpl.obj
 0004:00000b58       $pdata$?ResetStatistics@COPOSSmartCardRW@@UEAAJPEA_WPEAJ@Z 0000000180033b58     SmartCardRWImpl.obj
 0004:00000b64       $pdata$?RetrieveStatistics@COPOSSmartCardRW@@UEAAJPEAPEA_WPEAJ@Z 0000000180033b64     SmartCardRWImpl.obj
 0004:00000b70       $pdata$?UpdateStatistics@COPOSSmartCardRW@@UEAAJPEA_WPEAJ@Z 0000000180033b70     SmartCardRWImpl.obj
 0004:00000b7c       $pdata$?get_CapCardErrorDetection@COPOSSmartCardRW@@UEAAJPEAF@Z 0000000180033b7c     SmartCardRWImpl.obj
 0004:00000b88       $pdata$?get_TransactionInProgress@COPOSSmartCardRW@@UEAAJPEAF@Z 0000000180033b88     SmartCardRWImpl.obj
 0004:00000b94       $pdata$?BeginInsertion@COPOSSmartCardRW@@UEAAJJPEAJ@Z 0000000180033b94     SmartCardRWImpl.obj
 0004:00000ba0       $pdata$?BeginRemoval@COPOSSmartCardRW@@UEAAJJPEAJ@Z 0000000180033ba0     SmartCardRWImpl.obj
 0004:00000bac       $pdata$?EndInsertion@COPOSSmartCardRW@@UEAAJPEAJ@Z 0000000180033bac     SmartCardRWImpl.obj
 0004:00000bb8       $pdata$?EndRemoval@COPOSSmartCardRW@@UEAAJPEAJ@Z 0000000180033bb8     SmartCardRWImpl.obj
 0004:00000bc4       $pdata$?ReadData@COPOSSmartCardRW@@UEAAJJPEAJPEAPEA_W0@Z 0000000180033bc4     SmartCardRWImpl.obj
 0004:00000bd0       $pdata$?WriteData@COPOSSmartCardRW@@UEAAJJJPEA_WPEAJ@Z 0000000180033bd0     SmartCardRWImpl.obj
 0004:00000bdc       $pdata$?get_CapCompareFirmwareVersion@COPOSSmartCardRW@@UEAAJPEAF@Z 0000000180033bdc     SmartCardRWImpl.obj
 0004:00000be8       $pdata$?get_CapUpdateFirmware@COPOSSmartCardRW@@UEAAJPEAF@Z 0000000180033be8     SmartCardRWImpl.obj
 0004:00000bf4       $pdata$?CompareFirmwareVersion@COPOSSmartCardRW@@UEAAJPEA_WPEAJ1@Z 0000000180033bf4     SmartCardRWImpl.obj
 0004:00000c00       $pdata$?UpdateFirmware@COPOSSmartCardRW@@UEAAJPEA_WPEAJ@Z 0000000180033c00     SmartCardRWImpl.obj
 0004:00000c0c       $pdata$?ClearInputProperties@COPOSSmartCardRW@@UEAAJPEAJ@Z 0000000180033c0c     SmartCardRWImpl.obj
 0004:00000c18       $pdata$atexit              0000000180033c18     LIBCMT:utility.obj
 0004:00000c24       $pdata$_onexit             0000000180033c24     LIBCMT:utility.obj
 0004:00000c30       $pdata$__scrt_is_nonwritable_in_current_image 0000000180033c30     LIBCMT:utility.obj
 0004:00000c3c       $pdata$__scrt_is_nonwritable_in_current_image$filt$0 0000000180033c3c     LIBCMT:utility.obj
 0004:00000c48       $pdata$__scrt_acquire_startup_lock 0000000180033c48     LIBCMT:utility.obj
 0004:00000c54       $pdata$__scrt_release_startup_lock 0000000180033c54     LIBCMT:utility.obj
 0004:00000c60       $pdata$__scrt_initialize_crt 0000000180033c60     LIBCMT:utility.obj
 0004:00000c6c       $pdata$__scrt_uninitialize_crt 0000000180033c6c     LIBCMT:utility.obj
 0004:00000c78       $pdata$__scrt_initialize_onexit_tables 0000000180033c78     LIBCMT:utility.obj
 0004:00000c84       $pdata$__scrt_dllmain_exception_filter 0000000180033c84     LIBCMT:utility.obj
 0004:00000c90       $pdata$__scrt_dllmain_before_initialize_c 0000000180033c90     LIBCMT:utility.obj
 0004:00000c9c       $pdata$__scrt_dllmain_after_initialize_c 0000000180033c9c     LIBCMT:utility.obj
 0004:00000ca8       $pdata$__scrt_dllmain_uninitialize_c 0000000180033ca8     LIBCMT:utility.obj
 0004:00000cb4       $pdata$__scrt_dllmain_uninitialize_critical 0000000180033cb4     LIBCMT:utility.obj
 0004:00000cc0       $pdata$__scrt_dllmain_crt_thread_attach 0000000180033cc0     LIBCMT:utility.obj
 0004:00000ccc       $pdata$__scrt_dllmain_crt_thread_detach 0000000180033ccc     LIBCMT:utility.obj
 0004:00000cd8       $pdata$_Init_thread_header 0000000180033cd8     LIBCMT:thread_safe_statics.obj
 0004:00000ce4       $pdata$_Init_thread_footer 0000000180033ce4     LIBCMT:thread_safe_statics.obj
 0004:00000cf0       $pdata$_Init_thread_wait   0000000180033cf0     LIBCMT:thread_safe_statics.obj
 0004:00000cfc       $pdata$_Init_thread_notify 0000000180033cfc     LIBCMT:thread_safe_statics.obj
 0004:00000d08       $pdata$?__scrt_uninitialize_thread_safe_statics@@YAXXZ 0000000180033d08     LIBCMT:thread_safe_statics.obj
 0004:00000d14       $pdata$?__scrt_initialize_thread_safe_statics@@YAHXZ 0000000180033d14     LIBCMT:thread_safe_statics.obj
 0004:00000d20       $pdata$__report_securityfailure 0000000180033d20     LIBCMT:gs_report.obj
 0004:00000d2c       $pdata$__report_rangecheckfailure 0000000180033d2c     LIBCMT:gs_report.obj
 0004:00000d38       $pdata$__report_gsfailure  0000000180033d38     LIBCMT:gs_report.obj
 0004:00000d44       $pdata$capture_current_context 0000000180033d44     LIBCMT:gs_report.obj
 0004:00000d50       $pdata$capture_previous_context 0000000180033d50     LIBCMT:gs_report.obj
 0004:00000d5c       $pdata$__raise_securityfailure 0000000180033d5c     LIBCMT:gs_report.obj
 0004:00000d68       $pdata$??2@YAPEAX_KAEBUnothrow_t@std@@@Z 0000000180033d68     LIBCMT:new_scalar_nothrow.obj
 0004:00000d74       $pdata$?catch$0@?0???2@YAPEAX_KAEBUnothrow_t@std@@@Z@4HA 0000000180033d74     LIBCMT:new_scalar_nothrow.obj
 0004:00000d80       $pdata$__GSHandlerCheckCommon 0000000180033d80     LIBCMT:gshandler.obj
 0004:00000d8c       $pdata$__GSHandlerCheck    0000000180033d8c     LIBCMT:gshandler.obj
 0004:00000d98       $pdata$__GSHandlerCheck_SEH 0000000180033d98     LIBCMT:gshandlerseh.obj
 0004:00000dbc       $pdata$?dllmain_crt_process_attach@@YAHQEAUHINSTANCE__@@QEAX@Z 0000000180033dbc     LIBCMT:dll_dllmain.obj
 0004:00000dc8       $pdata$?fin$0@?0??dllmain_crt_process_attach@@YAHQEAUHINSTANCE__@@QEAX@Z@4HA 0000000180033dc8     LIBCMT:dll_dllmain.obj
 0004:00000dd4       $pdata$?dllmain_crt_process_detach@@YAH_N@Z 0000000180033dd4     LIBCMT:dll_dllmain.obj
 0004:00000de0       $pdata$?fin$0@?0??dllmain_crt_process_detach@@YAH_N@Z@4HA 0000000180033de0     LIBCMT:dll_dllmain.obj
 0004:00000dec       $pdata$?dllmain_crt_dispatch@@YAHQEAUHINSTANCE__@@KQEAX@Z 0000000180033dec     LIBCMT:dll_dllmain.obj
 0004:00000df8       $pdata$?dllmain_dispatch@@YAHQEAUHINSTANCE__@@KQEAX@Z 0000000180033df8     LIBCMT:dll_dllmain.obj
 0004:00000e04       $pdata$?filt$0@?0??dllmain_dispatch@@YAHQEAUHINSTANCE__@@KQEAX@Z@4HA 0000000180033e04     LIBCMT:dll_dllmain.obj
 0004:00000e10       $pdata$_DllMainCRTStartup  0000000180033e10     LIBCMT:dll_dllmain.obj
 0004:00000e1c       $pdata$??2@YAPEAX_K@Z      0000000180033e1c     LIBCMT:new_scalar.obj
 0004:00000e28       $pdata$__isa_available_init 0000000180033e28     LIBCMT:cpu_disp.obj
 0004:00000e34       $pdata$__scrt_fastfail     0000000180033e34     LIBCMT:utility_desktop.obj
 0004:00000e40       $pdata$__security_init_cookie 0000000180033e40     LIBCMT:gs_support.obj
 0004:00000e4c       $pdata$__scrt_initialize_default_local_stdio_options 0000000180033e4c     LIBCMT:default_local_stdio_options.obj
 0004:00000e58       $pdata$_RTC_Initialize     0000000180033e58     LIBCMT:initsect.obj
 0004:00000e64       $pdata$_RTC_Terminate      0000000180033e64     LIBCMT:initsect.obj
 0004:00000e70       $pdata$??0exception@std@@QEAA@AEBV01@@Z 0000000180033e70     LIBCMT:throw_bad_alloc.obj
 0004:00000e7c       $pdata$??_Gbad_alloc@std@@UEAAPEAXI@Z 0000000180033e7c     LIBCMT:throw_bad_alloc.obj
 0004:00000e7c       $pdata$??_Gbad_array_new_length@std@@UEAAPEAXI@Z 0000000180033e7c     LIBCMT:throw_bad_alloc.obj
 0004:00000e7c       $pdata$??_Gexception@std@@UEAAPEAXI@Z 0000000180033e7c     LIBCMT:throw_bad_alloc.obj
 0004:00000e7c       $pdata$??_Gbad_exception@std@@UEAAPEAXI@Z 0000000180033e7c     libvcruntime:frame.obj
 0004:00000e88       $pdata$??0bad_alloc@std@@QEAA@AEBV01@@Z 0000000180033e88     LIBCMT:throw_bad_alloc.obj
 0004:00000e94       $pdata$??0bad_array_new_length@std@@QEAA@AEBV01@@Z 0000000180033e94     LIBCMT:throw_bad_alloc.obj
 0004:00000ea0       $pdata$?__scrt_throw_std_bad_alloc@@YAXXZ 0000000180033ea0     LIBCMT:throw_bad_alloc.obj
 0004:00000eac       $pdata$?__scrt_throw_std_bad_array_new_length@@YAXXZ 0000000180033eac     LIBCMT:throw_bad_alloc.obj
 0004:00000ec4       $pdata$??_Gtype_info@@UEAAPEAXI@Z 0000000180033ec4     LIBCMT:std_type_info_static.obj
 0004:00000ed0       $pdata$??0CAtlBaseModule@ATL@@QEAA@XZ 0000000180033ed0     atls:atlbase.obj
 0004:00000edc       $pdata$??1CAtlBaseModule@ATL@@QEAA@XZ 0000000180033edc     atls:atlbase.obj
 0004:00000ee8       $pdata$??__E_AtlBaseModule@ATL@@YAXXZ 0000000180033ee8     atls:atlbase.obj
 0004:00000ef4       $pdata$AtlThunk_AllocateData 0000000180033ef4     atls:atlthunk.obj
 0004:00000f00       $pdata$AtlThunk_InitData   0000000180033f00     atls:atlthunk.obj
 0004:00000f0c       $pdata$AtlThunk_DataToCode 0000000180033f0c     atls:atlthunk.obj
 0004:00000f18       $pdata$AtlThunk_FreeData   0000000180033f18     atls:atlthunk.obj
 0004:00000f24       $pdata$?__InitializeThunkPool@@YAHXZ 0000000180033f24     atls:atlthunk.obj
 0004:00000f30       $pdata$?__AllocStdCallThunk_cmn@@YAPEAXXZ 0000000180033f30     atls:atlthunk.obj
 0004:00000f3c       $pdata$??$GetProcAddressAll@P6AXPEAUAtlThunkData_t@@PEAX_K@Z@@YAP6AXPEAUAtlThunkData_t@@PEAX_K@ZPEAP6AX012@Z@Z 0000000180033f3c     atls:atlthunk.obj
 0004:00000f3c       $pdata$??$GetProcAddressAll@P6AXPEAUAtlThunkData_t@@@Z@@YAP6AXPEAUAtlThunkData_t@@@ZPEAP6AX0@Z@Z 0000000180033f3c     atls:atlthunk.obj
 0004:00000f3c       $pdata$??$GetProcAddressAll@P6APEAUAtlThunkData_t@@XZ@@YAP6APEAUAtlThunkData_t@@XZPEAP6APEAU0@XZ@Z 0000000180033f3c     atls:atlthunk.obj
 0004:00000f3c       $pdata$??$GetProcAddressAll@P6AP6A_JPEAUHWND__@@I_K_J@ZPEAUAtlThunkData_t@@@Z@@YAP6AP6A_JPEAUHWND__@@I_K_J@ZPEAUAtlThunkData_t@@@ZPEAP6AP6A_J0I12@Z3@Z@Z 0000000180033f3c     atls:atlthunk.obj
 0004:00000f48       $pdata$_purecall           0000000180033f48     libvcruntime:purevirt.obj
 0004:00000f54       $pdata$wcsstr              0000000180033f54     libvcruntime:wcsstr.obj
 0004:00000f9c       $pdata$__vcrt_initialize   0000000180033f9c     libvcruntime:initialization.obj
 0004:00000fa8       $pdata$__vcrt_uninitialize 0000000180033fa8     libvcruntime:initialization.obj
 0004:00000fb4       $pdata$__vcrt_uninitialize_critical 0000000180033fb4     libvcruntime:initialization.obj
 0004:00000fc0       $pdata$__vcrt_thread_attach 0000000180033fc0     libvcruntime:initialization.obj
 0004:00000fcc       $pdata$__vcrt_thread_detach 0000000180033fcc     libvcruntime:initialization.obj
 0004:00000fd8       $pdata$__C_specific_handler 0000000180033fd8     libvcruntime:riscchandler.obj
 0004:00000fe4       $pdata$?CatchTryBlock@__FrameHandler3@@SAPEBU_s_TryBlockMapEntry@@PEBU_s_FuncInfo@@H@Z 0000000180033fe4     libvcruntime:risctrnsctrl.obj
 0004:00000ff0       $pdata$?ExecutionInCatch@__FrameHandler3@@SA_NPEAU_xDISPATCHER_CONTEXT@@PEBU_s_FuncInfo@@@Z 0000000180033ff0     libvcruntime:risctrnsctrl.obj
 0004:00000ffc       $pdata$?FrameUnwindToEmptyState@__FrameHandler3@@SAXPEA_KPEAU_xDISPATCHER_CONTEXT@@PEBU_s_FuncInfo@@@Z 0000000180033ffc     libvcruntime:risctrnsctrl.obj
 0004:00001008       $pdata$?GetEstablisherFrame@__FrameHandler3@@SAPEA_KPEA_KPEAU_xDISPATCHER_CONTEXT@@PEBU_s_FuncInfo@@0@Z 0000000180034008     libvcruntime:risctrnsctrl.obj
 0004:00001014       $pdata$?UnwindNestedFrames@__FrameHandler3@@SAXPEA_KPEAUEHExceptionRecord@@PEAU_CONTEXT@@0PEAXPEBU_s_FuncInfo@@HHPEBU_s_HandlerType@@PEAU_xDISPATCHER_CONTEXT@@E@Z 0000000180034014     libvcruntime:risctrnsctrl.obj
 0004:00001020       $pdata$?GetRangeOfTrysToCheck@__FrameHandler3@@SA?AU?$pair@Viterator@TryBlockMap@__FrameHandler3@@V123@@std@@AEAVTryBlockMap@1@HPEAU_xDISPATCHER_CONTEXT@@PEBU_s_FuncInfo@@H@Z 0000000180034020     libvcruntime:risctrnsctrl.obj
 0004:0000102c       $pdata$_GetImageBase       000000018003402c     libvcruntime:risctrnsctrl.obj
 0004:00001038       $pdata$_SetImageBase       0000000180034038     libvcruntime:risctrnsctrl.obj
 0004:00001044       $pdata$_GetThrowImageBase  0000000180034044     libvcruntime:risctrnsctrl.obj
 0004:00001050       $pdata$_SetThrowImageBase  0000000180034050     libvcruntime:risctrnsctrl.obj
 0004:0000105c       $pdata$_CreateFrameInfo    000000018003405c     libvcruntime:risctrnsctrl.obj
 0004:00001068       $pdata$_FindAndUnlinkFrame 0000000180034068     libvcruntime:risctrnsctrl.obj
 0004:00001074       $pdata$__CxxFrameHandler3  0000000180034074     libvcruntime:risctrnsctrl.obj
 0004:00001080       $pdata$??$_CallSETranslator@V__FrameHandler3@@@@YAHPEAUEHExceptionRecord@@PEA_KPEAU_CONTEXT@@PEAU_xDISPATCHER_CONTEXT@@PEBU_s_FuncInfo@@K1@Z 0000000180034080     libvcruntime:risctrnsctrl.obj
 0004:0000108c       $pdata$?filt$0@?0???$_CallSETranslator@V__FrameHandler3@@@@YAHPEAUEHExceptionRecord@@PEA_KPEAU_CONTEXT@@PEAU_xDISPATCHER_CONTEXT@@PEBU_s_FuncInfo@@K1@Z@4HA 000000018003408c     libvcruntime:risctrnsctrl.obj
 0004:00001098       $pdata$__std_type_info_destroy_list 0000000180034098     libvcruntime:std_type_info.obj
 0004:000010a4       $pdata$__std_exception_copy 00000001800340a4     libvcruntime:std_exception.obj
 0004:000010b0       $pdata$__std_exception_destroy 00000001800340b0     libvcruntime:std_exception.obj
 0004:000010bc       $pdata$_CxxThrowException  00000001800340bc     libvcruntime:throw.obj
 0004:000010c8       $pdata$__vcrt_initialize_ptd 00000001800340c8     libvcruntime:per_thread_data.obj
 0004:000010d4       $pdata$__vcrt_uninitialize_ptd 00000001800340d4     libvcruntime:per_thread_data.obj
 0004:000010e0       $pdata$__vcrt_getptd       00000001800340e0     libvcruntime:per_thread_data.obj
 0004:000010ec       $pdata$__vcrt_getptd_noexit 00000001800340ec     libvcruntime:per_thread_data.obj
 0004:000010f8       $pdata$__vcrt_freeptd      00000001800340f8     libvcruntime:per_thread_data.obj
 0004:00001104       $pdata$__vcrt_freefls      0000000180034104     libvcruntime:per_thread_data.obj
 0004:00001110       $pdata$__vcrt_initialize_locks 0000000180034110     libvcruntime:locks.obj
 0004:0000111c       $pdata$__vcrt_uninitialize_locks 000000018003411c     libvcruntime:locks.obj
 0004:0000114c       $pdata$_IsExceptionObjectToBeDestroyed 000000018003414c     libvcruntime:ehhelpers.obj
 0004:00001158       $pdata$__FrameUnwindFilter 0000000180034158     libvcruntime:ehhelpers.obj
 0004:00001164       $pdata$__DestructExceptionObject 0000000180034164     libvcruntime:ehhelpers.obj
 0004:00001170       $pdata$__DestructExceptionObject$filt$0 0000000180034170     libvcruntime:ehhelpers.obj
 0004:0000117c       $pdata$?StateFromIp@__FrameHandler3@@SAHPEBU_s_FuncInfo@@PEAU_xDISPATCHER_CONTEXT@@_K@Z 000000018003417c     libvcruntime:ehstate.obj
 0004:00001188       $pdata$?GetCurrentState@__FrameHandler3@@SAHPEA_KPEAU_xDISPATCHER_CONTEXT@@PEBU_s_FuncInfo@@@Z 0000000180034188     libvcruntime:ehstate.obj
 0004:00001194       $pdata$?SetUnwindTryBlock@__FrameHandler3@@SAXPEA_KPEAU_xDISPATCHER_CONTEXT@@PEBU_s_FuncInfo@@H@Z 0000000180034194     libvcruntime:ehstate.obj
 0004:000011a0       $pdata$?GetUnwindTryBlock@__FrameHandler3@@SAHPEA_KPEAU_xDISPATCHER_CONTEXT@@PEBU_s_FuncInfo@@@Z 00000001800341a0     libvcruntime:ehstate.obj
 0004:000011ac       $pdata$?FrameUnwindToState@__FrameHandler3@@SAXPEA_KPEAU_xDISPATCHER_CONTEXT@@PEBU_s_FuncInfo@@H@Z 00000001800341ac     libvcruntime:frame.obj
 0004:000011b8       $pdata$?filt$0@?0??FrameUnwindToState@__FrameHandler3@@SAXPEA_KPEAU_xDISPATCHER_CONTEXT@@PEBU_s_FuncInfo@@H@Z@4HA 00000001800341b8     libvcruntime:frame.obj
 0004:000011c4       $pdata$?fin$1@?0??FrameUnwindToState@__FrameHandler3@@SAXPEA_KPEAU_xDISPATCHER_CONTEXT@@PEBU_s_FuncInfo@@H@Z@4HA 00000001800341c4     libvcruntime:frame.obj
 0004:000011d0       $pdata$?GetHandlerSearchState@__FrameHandler3@@SAHPEA_KPEAU_xDISPATCHER_CONTEXT@@PEBU_s_FuncInfo@@@Z 00000001800341d0     libvcruntime:frame.obj
 0004:000011dc       $pdata$?CxxCallCatchBlock@__FrameHandler3@@SAPEAXPEAU_EXCEPTION_RECORD@@@Z 00000001800341dc     libvcruntime:frame.obj
 0004:000011e8       $pdata$?filt$0@?0??CxxCallCatchBlock@__FrameHandler3@@SAPEAXPEAU_EXCEPTION_RECORD@@@Z@4HA 00000001800341e8     libvcruntime:frame.obj
 0004:000011f4       $pdata$?fin$1@?0??CxxCallCatchBlock@__FrameHandler3@@SAPEAXPEAU_EXCEPTION_RECORD@@@Z@4HA 00000001800341f4     libvcruntime:frame.obj
 0004:00001200       $pdata$??0bad_exception@std@@QEAA@AEBV01@@Z 0000000180034200     libvcruntime:frame.obj
 0004:0000120c       $pdata$?ExFilterRethrow@@YAHPEAU_EXCEPTION_POINTERS@@PEAUEHExceptionRecord@@PEAH@Z 000000018003420c     libvcruntime:frame.obj
 0004:00001218       $pdata$?IsInExceptionSpec@@YAEPEAUEHExceptionRecord@@PEBU_s_ESTypeList@@@Z 0000000180034218     libvcruntime:frame.obj
 0004:00001224       $pdata$?Is_bad_exception_allowed@@YAEPEBU_s_ESTypeList@@@Z 0000000180034224     libvcruntime:frame.obj
 0004:00001230       $pdata$??$__InternalCxxFrameHandler@V__FrameHandler3@@@@YA?AW4_EXCEPTION_DISPOSITION@@PEAUEHExceptionRecord@@PEA_KPEAU_CONTEXT@@PEAU_xDISPATCHER_CONTEXT@@PEBU_s_FuncInfo@@H1E@Z 0000000180034230     libvcruntime:frame.obj
 0004:0000123c       $pdata$??$TypeMatchHelper@V__FrameHandler3@@@@YAHPEBU_s_HandlerType@@PEBU_s_CatchableType@@PEBU_s_ThrowInfo@@@Z 000000018003423c     libvcruntime:frame.obj
 0004:00001248       $pdata$??$BuildCatchObjectHelperInternal@V__FrameHandler3@@@@YAHPEAUEHExceptionRecord@@PEAXPEBU_s_HandlerType@@PEBU_s_CatchableType@@@Z 0000000180034248     libvcruntime:frame.obj
 0004:00001254       $pdata$??$BuildCatchObjectInternal@V__FrameHandler3@@@@YAXPEAUEHExceptionRecord@@PEAXPEBU_s_HandlerType@@PEBU_s_CatchableType@@@Z 0000000180034254     libvcruntime:frame.obj
 0004:00001260       $pdata$??$FindHandler@V__FrameHandler3@@@@YAXPEAUEHExceptionRecord@@PEA_KPEAU_CONTEXT@@PEAU_xDISPATCHER_CONTEXT@@PEBU_s_FuncInfo@@EH1@Z 0000000180034260     libvcruntime:frame.obj
 0004:0000126c       $pdata$??$CatchIt@V__FrameHandler3@@@@YAXPEAUEHExceptionRecord@@PEA_KPEAU_CONTEXT@@PEAU_xDISPATCHER_CONTEXT@@PEBU_s_FuncInfo@@PEBU_s_HandlerType@@PEBU_s_CatchableType@@PEBU_s_TryBlockMapEntry@@H1EE@Z 000000018003426c     libvcruntime:frame.obj
 0004:00001278       $pdata$??$FindHandlerForForeignException@V__FrameHandler3@@@@YAXPEAUEHExceptionRecord@@PEA_KPEAU_CONTEXT@@PEAU_xDISPATCHER_CONTEXT@@PEBU_s_FuncInfo@@HH1@Z 0000000180034278     libvcruntime:frame.obj
 0004:00001284       $pdata$__vcrt_FlsAlloc     0000000180034284     libvcruntime:winapi_downlevel.obj
 0004:00001290       $pdata$__vcrt_FlsFree      0000000180034290     libvcruntime:winapi_downlevel.obj
 0004:0000129c       $pdata$__vcrt_FlsGetValue  000000018003429c     libvcruntime:winapi_downlevel.obj
 0004:000012a8       $pdata$__vcrt_FlsSetValue  00000001800342a8     libvcruntime:winapi_downlevel.obj
 0004:000012b4       $pdata$__vcrt_InitializeCriticalSectionEx 00000001800342b4     libvcruntime:winapi_downlevel.obj
 0004:000012c0       $pdata$?try_get_function@@YAPEAXW4function_id@?A0x656504f9@@QEBDQEBW4module_id@2@2@Z 00000001800342c0     libvcruntime:winapi_downlevel.obj
 0004:000012fc       $pdata$_invalid_parameter_noinfo 00000001800342fc     libucrt:invalid_parameter.obj
 0004:00001308       $pdata$_invoke_watson      0000000180034308     libucrt:invalid_parameter.obj
 0004:00001314       $pdata$__acrt_call_reportfault 0000000180034314     libucrt:invalid_parameter.obj
 0004:00001320       $pdata$_invalid_parameter  0000000180034320     libucrt:invalid_parameter.obj
 0004:0000132c       $pdata$_errno              000000018003432c     libucrt:errno.obj
 0004:00001338       $pdata$__doserrno          0000000180034338     libucrt:errno.obj
 0004:00001344       $pdata$__acrt_errno_map_os_error 0000000180034344     libucrt:errno.obj
 0004:00001350       $pdata$_recalloc_base      0000000180034350     libucrt:recalloc.obj
 0004:0000135c       $pdata$_resetstkoflw       000000018003435c     libucrt:resetstk.obj
 0004:00001368       $pdata$wcscat_s            0000000180034368     libucrt:wcscat_s.obj
 0004:00001374       $pdata$wcscpy_s            0000000180034374     libucrt:wcscpy_s.obj
 0004:00001380       $pdata$wcsncpy_s           0000000180034380     libucrt:wcsncpy_s.obj
 0004:0000138c       $pdata$??0_LocaleUpdate@@QEAA@QEAU__crt_locale_pointers@@@Z 000000018003438c     libucrt:output.obj
 0004:00001398       $pdata$__stdio_common_vswprintf_s 0000000180034398     libucrt:output.obj
 0004:000013a4       $pdata$?write_string@?$string_output_adapter@_W@__crt_stdio_output@@QEBAXQEB_WHQEAHAEAV__crt_deferred_errno_cache@@@Z 00000001800343a4     libucrt:output.obj
 0004:000013b0       $pdata$??$common_vsprintf@Vformat_validation_base@__crt_stdio_output@@_W@@YAH_KQEA_W0QEB_WQEAU__crt_locale_pointers@@QEAD@Z 00000001800343b0     libucrt:output.obj
 0004:000013bc       $pdata$??$write_multiple_characters@V?$string_output_adapter@_W@__crt_stdio_output@@D@__crt_stdio_output@@YAXAEBV?$string_output_adapter@_W@0@DHQEAH@Z 00000001800343bc     libucrt:output.obj
 0004:000013c8       $pdata$??$ensure_buffer_is_big_enough@D@formatting_buffer@__crt_stdio_output@@QEAA_N_K@Z 00000001800343c8     libucrt:output.obj
 0004:000013d4       $pdata$??$ensure_buffer_is_big_enough@_W@formatting_buffer@__crt_stdio_output@@QEAA_N_K@Z 00000001800343d4     libucrt:output.obj
 0004:000013e0       $pdata$?process@?$output_processor@_WV?$string_output_adapter@_W@__crt_stdio_output@@V?$format_validation_base@_WV?$string_output_adapter@_W@__crt_stdio_output@@@2@@__crt_stdio_output@@QEAAHXZ 00000001800343e0     libucrt:output.obj
 0004:000013ec       $pdata$?parse_int_from_format_string@?$output_processor@_WV?$string_output_adapter@_W@__crt_stdio_output@@V?$format_validation_base@_WV?$string_output_adapter@_W@__crt_stdio_output@@@2@@__crt_stdio_output@@AEAA_NQEAH@Z 00000001800343ec     libucrt:output.obj
 0004:000013f8       $pdata$?state_case_size@?$output_processor@_WV?$string_output_adapter@_W@__crt_stdio_output@@V?$format_validation_base@_WV?$string_output_adapter@_W@__crt_stdio_output@@@2@@__crt_stdio_output@@AEAA_NXZ 00000001800343f8     libucrt:output.obj
 0004:00001404       $pdata$?state_case_type@?$output_processor@_WV?$string_output_adapter@_W@__crt_stdio_output@@V?$format_validation_base@_WV?$string_output_adapter@_W@__crt_stdio_output@@@2@@__crt_stdio_output@@AEAA_NXZ 0000000180034404     libucrt:output.obj
 0004:00001410       $pdata$?type_case_c_tchar@?$output_processor@_WV?$string_output_adapter@_W@__crt_stdio_output@@V?$format_validation_base@_WV?$string_output_adapter@_W@__crt_stdio_output@@@2@@__crt_stdio_output@@AEAA_N_W@Z 0000000180034410     libucrt:output.obj
 0004:0000141c       $pdata$?type_case_Z@?$output_processor@_WV?$string_output_adapter@_W@__crt_stdio_output@@V?$format_validation_base@_WV?$string_output_adapter@_W@__crt_stdio_output@@@2@@__crt_stdio_output@@AEAA_NXZ 000000018003441c     libucrt:output.obj
 0004:00001428       $pdata$?type_case_s@?$output_processor@_WV?$string_output_adapter@_W@__crt_stdio_output@@V?$format_validation_base@_WV?$string_output_adapter@_W@__crt_stdio_output@@@2@@__crt_stdio_output@@AEAA_NXZ 0000000180034428     libucrt:output.obj
 0004:00001434       $pdata$?type_case_a@?$output_processor@_WV?$string_output_adapter@_W@__crt_stdio_output@@V?$format_validation_base@_WV?$string_output_adapter@_W@__crt_stdio_output@@@2@@__crt_stdio_output@@AEAA_NXZ 0000000180034434     libucrt:output.obj
 0004:00001440       $pdata$?type_case_integer@?$output_processor@_WV?$string_output_adapter@_W@__crt_stdio_output@@V?$format_validation_base@_WV?$string_output_adapter@_W@__crt_stdio_output@@@2@@__crt_stdio_output@@AEAA_NI_N@Z 0000000180034440     libucrt:output.obj
 0004:0000144c       $pdata$?type_case_n@?$output_processor@_WV?$string_output_adapter@_W@__crt_stdio_output@@V?$format_validation_base@_WV?$string_output_adapter@_W@__crt_stdio_output@@@2@@__crt_stdio_output@@AEAA_NXZ 000000018003444c     libucrt:output.obj
 0004:00001458       $pdata$?write_stored_string_tchar@?$output_processor@_WV?$string_output_adapter@_W@__crt_stdio_output@@V?$format_validation_base@_WV?$string_output_adapter@_W@__crt_stdio_output@@@2@@__crt_stdio_output@@AEAA_N_W@Z 0000000180034458     libucrt:output.obj
 0004:00001464       $pdata$??$type_case_integer_parse_into_buffer@_K@?$output_processor@_WV?$string_output_adapter@_W@__crt_stdio_output@@V?$format_validation_base@_WV?$string_output_adapter@_W@__crt_stdio_output@@@2@@__crt_stdio_output@@AEAAX_KI_N@Z 0000000180034464     libucrt:output.obj
 0004:00001470       $pdata$??$type_case_integer_parse_into_buffer@I@?$output_processor@_WV?$string_output_adapter@_W@__crt_stdio_output@@V?$format_validation_base@_WV?$string_output_adapter@_W@__crt_stdio_output@@@2@@__crt_stdio_output@@AEAAXII_N@Z 0000000180034470     libucrt:output.obj
 0004:0000147c       $pdata$_seh_filter_exe     000000018003447c     libucrt:exception_filter.obj
 0004:00001488       $pdata$?try_cor_exit_process@@YAXI@Z 0000000180034488     libucrt:exit.obj
 0004:00001494       $pdata$?exit_or_terminate_process@@YAXI@Z 0000000180034494     libucrt:exit.obj
 0004:000014a0       $pdata$?common_exit@@YAXHW4_crt_exit_cleanup_mode@@W4_crt_exit_return_mode@@@Z 00000001800344a0     libucrt:exit.obj
 0004:000014ac       $pdata$??R<lambda_6e4b09c48022b2350581041d5f6b0c4c>@@QEBA@XZ 00000001800344ac     libucrt:exit.obj
 0004:000014b8       $pdata$?filt$0@?0???R<lambda_6e4b09c48022b2350581041d5f6b0c4c>@@QEBA@XZ@4HA 00000001800344b8     libucrt:exit.obj
 0004:000014c4       $pdata$??$?RV<lambda_d80eeec6fff315bfe5c115232f3240e3>@@AEAV<lambda_6e4b09c48022b2350581041d5f6b0c4c>@@V<lambda_2358e3775559c9db80273638284d5e45>@@@?$__crt_seh_guarded_call@X@@QEAAX$$QEAV<lambda_d80eeec6fff315bfe5c115232f3240e3>@@AEAV<lambda_6e4b09c48022b2350581041d5f6b0c4c>@@$$QEAV<lambda_2358e3775559c9db80273638284d5e45>@@@Z 00000001800344c4     libucrt:exit.obj
 0004:000014d0       $pdata$?fin$0@?0???$?RV<lambda_638799b9deba96c50f710eeac98168cd>@@AEAV<lambda_22ebabd17bc4fa466a2aca6d8deb888d>@@V<lambda_a6f7d7db0129f75315ebf26d50c089f1>@@@?$__crt_seh_guarded_call@H@@QEAAH$$QEAV<lambda_638799b9deba96c50f710eeac98168cd>@@AEAV<lambda_22ebabd17bc4fa466a2aca6d8deb888d>@@$$QEAV<lambda_a6f7d7db0129f75315ebf26d50c089f1>@@@Z@4HA 00000001800344d0     libucrt:onexit.obj
 0004:000014d0       $pdata$?fin$0@?0???$?RV<lambda_2d41944a1d46af3157314b8a01080d33>@@AEAV<lambda_8f455de75cd7d7f24b4096f044d8b9e6>@@V<lambda_aa500f224e6afead328df44964fe2772>@@@?$__crt_seh_guarded_call@X@@QEAAX$$QEAV<lambda_2d41944a1d46af3157314b8a01080d33>@@AEAV<lambda_8f455de75cd7d7f24b4096f044d8b9e6>@@$$QEAV<lambda_aa500f224e6afead328df44964fe2772>@@@Z@4HA 00000001800344d0     libucrt:per_thread_data.obj
 0004:000014d0       $pdata$?fin$0@?0???$?RV<lambda_450d765d439847d4c735a33c368b5fc0>@@AEAV<lambda_44731a7d0e6d81c3e6aa82d741081786>@@V<lambda_601a2a7da3b7a96e9554ac7215c4b07c>@@@?$__crt_seh_guarded_call@P6AXH@Z@@QEAAP6AXH@Z$$QEAV<lambda_450d765d439847d4c735a33c368b5fc0>@@AEAV<lambda_44731a7d0e6d81c3e6aa82d741081786>@@$$QEAV<lambda_601a2a7da3b7a96e9554ac7215c4b07c>@@@Z@4HA 00000001800344d0     libucrt:signal.obj
 0004:000014d0       $pdata$?fin$0@?0???$?RV<lambda_0ae27a3a962d80f24befdcbee591983d>@@AEAV<lambda_8d0ee55de4b1038c4002e0adecdf1839>@@V<lambda_dc504788e8f1664fe9b84e20bfb512f2>@@@?$__crt_seh_guarded_call@X@@QEAAX$$QEAV<lambda_0ae27a3a962d80f24befdcbee591983d>@@AEAV<lambda_8d0ee55de4b1038c4002e0adecdf1839>@@$$QEAV<lambda_dc504788e8f1664fe9b84e20bfb512f2>@@@Z@4HA 00000001800344d0     libucrt:per_thread_data.obj
 0004:000014d0       $pdata$?fin$0@?0???$?RV<lambda_aa87e3671a710a21b5dc78c0bdf72e11>@@AEAV<lambda_92619d2358a28f41a33ba319515a20b9>@@V<lambda_6992ecaafeb10aed2b74cb1fae11a551>@@@?$__crt_seh_guarded_call@X@@QEAAX$$QEAV<lambda_aa87e3671a710a21b5dc78c0bdf72e11>@@AEAV<lambda_92619d2358a28f41a33ba319515a20b9>@@$$QEAV<lambda_6992ecaafeb10aed2b74cb1fae11a551>@@@Z@4HA 00000001800344d0     libucrt:per_thread_data.obj
 0004:000014d0       $pdata$?fin$0@?0???$?RV<lambda_efdfa57d1f175319df784efa44bb7b81>@@AEAV<lambda_5f0a4c1567f8adc6734073e5d1e1b35c>@@V<lambda_2e8a7d3640ea6ccb4c2413664c2db6fd>@@@?$__crt_seh_guarded_call@X@@QEAAX$$QEAV<lambda_efdfa57d1f175319df784efa44bb7b81>@@AEAV<lambda_5f0a4c1567f8adc6734073e5d1e1b35c>@@$$QEAV<lambda_2e8a7d3640ea6ccb4c2413664c2db6fd>@@@Z@4HA 00000001800344d0     libucrt:mbctype.obj
 0004:000014d0       $pdata$?fin$0@?0???$?RV<lambda_f2e299630e499de9f9a165e60fcd3db5>@@AEAV<lambda_2ae9d31cdba2644fcbeaf08da7c24588>@@V<lambda_40d01ff24d0e7b3814fdbdcee8eab3c7>@@@?$__crt_seh_guarded_call@X@@QEAAX$$QEAV<lambda_f2e299630e499de9f9a165e60fcd3db5>@@AEAV<lambda_2ae9d31cdba2644fcbeaf08da7c24588>@@$$QEAV<lambda_40d01ff24d0e7b3814fdbdcee8eab3c7>@@@Z@4HA 00000001800344d0     libucrt:per_thread_data.obj
 0004:000014d0       $pdata$?fin$0@?0???$?RV<lambda_d80eeec6fff315bfe5c115232f3240e3>@@AEAV<lambda_6e4b09c48022b2350581041d5f6b0c4c>@@V<lambda_2358e3775559c9db80273638284d5e45>@@@?$__crt_seh_guarded_call@X@@QEAAX$$QEAV<lambda_d80eeec6fff315bfe5c115232f3240e3>@@AEAV<lambda_6e4b09c48022b2350581041d5f6b0c4c>@@$$QEAV<lambda_2358e3775559c9db80273638284d5e45>@@@Z@4HA 00000001800344d0     libucrt:exit.obj
 0004:000014d0       $pdata$?fin$0@?0???$?RV<lambda_7777bce6b2f8c936911f934f8298dc43>@@AEAV<lambda_f03950bc5685219e0bcd2087efbe011e>@@V<lambda_3883c3dff614d5e0c5f61bb1ac94921c>@@@?$__crt_seh_guarded_call@H@@QEAAH$$QEAV<lambda_7777bce6b2f8c936911f934f8298dc43>@@AEAV<lambda_f03950bc5685219e0bcd2087efbe011e>@@$$QEAV<lambda_3883c3dff614d5e0c5f61bb1ac94921c>@@@Z@4HA 00000001800344d0     libucrt:onexit.obj
 0004:000014dc       $pdata$_configure_narrow_argv 00000001800344dc     libucrt:argv_parsing.obj
 0004:000014e8       $pdata$__acrt_allocate_buffer_for_argv 00000001800344e8     libucrt:argv_parsing.obj
 0004:000014f4       $pdata$??$parse_command_line@D@@YAXPEADPEAPEAD0PEA_K2@Z 00000001800344f4     libucrt:argv_parsing.obj
 0004:00001500       $pdata$__dcrt_uninitialize_environments_nolock 0000000180034500     libucrt:environment_initialization.obj
 0004:0000150c       $pdata$??$common_initialize_environment_nolock@D@@YAHXZ 000000018003450c     libucrt:environment_initialization.obj
 0004:00001518       $pdata$??$uninitialize_environment_internal@D@@YAXAEAPEAPEAD@Z 0000000180034518     libucrt:environment_initialization.obj
 0004:00001524       $pdata$??$uninitialize_environment_internal@_W@@YAXAEAPEAPEA_W@Z 0000000180034524     libucrt:environment_initialization.obj
 0004:00001530       $pdata$??$free_environment@_W@@YAXQEAPEA_W@Z 0000000180034530     libucrt:environment_initialization.obj
 0004:00001530       $pdata$??$free_environment@D@@YAXQEAPEAD@Z 0000000180034530     libucrt:environment_initialization.obj
 0004:0000153c       $pdata$??$create_environment@D@@YAQEAPEADQEAD@Z 000000018003453c     libucrt:environment_initialization.obj
 0004:00001548       $pdata$_register_onexit_function 0000000180034548     libucrt:onexit.obj
 0004:00001554       $pdata$_execute_onexit_table 0000000180034554     libucrt:onexit.obj
 0004:00001560       $pdata$??R<lambda_22ebabd17bc4fa466a2aca6d8deb888d>@@QEBAHXZ 0000000180034560     libucrt:onexit.obj
 0004:0000156c       $pdata$??R<lambda_f03950bc5685219e0bcd2087efbe011e>@@QEBAHXZ 000000018003456c     libucrt:onexit.obj
 0004:00001578       $pdata$??$?RV<lambda_638799b9deba96c50f710eeac98168cd>@@AEAV<lambda_22ebabd17bc4fa466a2aca6d8deb888d>@@V<lambda_a6f7d7db0129f75315ebf26d50c089f1>@@@?$__crt_seh_guarded_call@H@@QEAAH$$QEAV<lambda_638799b9deba96c50f710eeac98168cd>@@AEAV<lambda_22ebabd17bc4fa466a2aca6d8deb888d>@@$$QEAV<lambda_a6f7d7db0129f75315ebf26d50c089f1>@@@Z 0000000180034578     libucrt:onexit.obj
 0004:00001584       $pdata$??$?RV<lambda_7777bce6b2f8c936911f934f8298dc43>@@AEAV<lambda_f03950bc5685219e0bcd2087efbe011e>@@V<lambda_3883c3dff614d5e0c5f61bb1ac94921c>@@@?$__crt_seh_guarded_call@H@@QEAAH$$QEAV<lambda_7777bce6b2f8c936911f934f8298dc43>@@AEAV<lambda_f03950bc5685219e0bcd2087efbe011e>@@$$QEAV<lambda_3883c3dff614d5e0c5f61bb1ac94921c>@@@Z 0000000180034584     libucrt:onexit.obj
 0004:00001590       $pdata$__acrt_uninitialize 0000000180034590     libucrt:initialization.obj
 0004:0000159c       $pdata$__acrt_uninitialize_critical 000000018003459c     libucrt:initialization.obj
 0004:000015a8       $pdata$__acrt_thread_attach 00000001800345a8     libucrt:initialization.obj
 0004:000015b4       $pdata$__acrt_thread_detach 00000001800345b4     libucrt:initialization.obj
 0004:000015c0       $pdata$initialize_c        00000001800345c0     libucrt:initialization.obj
 0004:000015cc       $pdata$uninitialize_environment 00000001800345cc     libucrt:initialization.obj
 0004:000015d8       $pdata$initialize_pointers 00000001800345d8     libucrt:initialization.obj
 0004:000015e4       $pdata$uninitialize_allocated_memory 00000001800345e4     libucrt:initialization.obj
 0004:000015f0       $pdata$uninitialize_allocated_io_buffers 00000001800345f0     libucrt:initialization.obj
 0004:000015fc       $pdata$_initterm           00000001800345fc     libucrt:initterm.obj
 0004:00001608       $pdata$_initterm_e         0000000180034608     libucrt:initterm.obj
 0004:00001614       $pdata$_callnewh           0000000180034614     libucrt:new_handler.obj
 0004:00001620       $pdata$_query_new_handler  0000000180034620     libucrt:new_handler.obj
 0004:0000162c       $pdata$_query_new_handler$fin$0 000000018003462c     libucrt:new_handler.obj
 0004:00001638       $pdata$terminate           0000000180034638     libucrt:terminate.obj
 0004:00001644       $pdata$abort               0000000180034644     libucrt:abort.obj
 0004:00001650       $pdata$strcpy_s            0000000180034650     libucrt:strcpy_s.obj
 0004:0000165c       $pdata$??$parse_integer@KV?$c_string_character_source@_W@__crt_strtox@@@__crt_strtox@@YAKQEAU__crt_locale_pointers@@V?$c_string_character_source@_W@0@H_N@Z 000000018003465c     libucrt:atox.obj
 0004:00001674       $pdata$_free_base          0000000180034674     libucrt:free_base.obj
 0004:00001680       $pdata$__acrt_initialize_ptd 0000000180034680     libucrt:per_thread_data.obj
 0004:0000168c       $pdata$__acrt_uninitialize_ptd 000000018003468c     libucrt:per_thread_data.obj
 0004:00001698       $pdata$__acrt_getptd       0000000180034698     libucrt:per_thread_data.obj
 0004:000016a4       $pdata$__acrt_getptd_head  00000001800346a4     libucrt:per_thread_data.obj
 0004:000016b0       $pdata$__acrt_getptd_noexit 00000001800346b0     libucrt:per_thread_data.obj
 0004:000016bc       $pdata$__acrt_freeptd      00000001800346bc     libucrt:per_thread_data.obj
 0004:000016c8       $pdata$?destroy_fls@@YAXPEAX@Z 00000001800346c8     libucrt:per_thread_data.obj
 0004:000016d4       $pdata$?replace_current_thread_locale_nolock@@YAXQEAU__acrt_ptd@@QEAU__crt_locale_data@@@Z 00000001800346d4     libucrt:per_thread_data.obj
 0004:000016e0       $pdata$?construct_ptd_array@@YAXQEAU__acrt_ptd@@@Z 00000001800346e0     libucrt:per_thread_data.obj
 0004:000016ec       $pdata$?destroy_ptd_array@@YAXQEAU__acrt_ptd@@@Z 00000001800346ec     libucrt:per_thread_data.obj
 0004:000016f8       $pdata$??$?RV<lambda_0ae27a3a962d80f24befdcbee591983d>@@AEAV<lambda_8d0ee55de4b1038c4002e0adecdf1839>@@V<lambda_dc504788e8f1664fe9b84e20bfb512f2>@@@?$__crt_seh_guarded_call@X@@QEAAX$$QEAV<lambda_0ae27a3a962d80f24befdcbee591983d>@@AEAV<lambda_8d0ee55de4b1038c4002e0adecdf1839>@@$$QEAV<lambda_dc504788e8f1664fe9b84e20bfb512f2>@@@Z 00000001800346f8     libucrt:per_thread_data.obj
 0004:00001704       $pdata$??$?RV<lambda_aa87e3671a710a21b5dc78c0bdf72e11>@@AEAV<lambda_92619d2358a28f41a33ba319515a20b9>@@V<lambda_6992ecaafeb10aed2b74cb1fae11a551>@@@?$__crt_seh_guarded_call@X@@QEAAX$$QEAV<lambda_aa87e3671a710a21b5dc78c0bdf72e11>@@AEAV<lambda_92619d2358a28f41a33ba319515a20b9>@@$$QEAV<lambda_6992ecaafeb10aed2b74cb1fae11a551>@@@Z 0000000180034704     libucrt:per_thread_data.obj
 0004:00001710       $pdata$??$?RV<lambda_f2e299630e499de9f9a165e60fcd3db5>@@AEAV<lambda_2ae9d31cdba2644fcbeaf08da7c24588>@@V<lambda_40d01ff24d0e7b3814fdbdcee8eab3c7>@@@?$__crt_seh_guarded_call@X@@QEAAX$$QEAV<lambda_f2e299630e499de9f9a165e60fcd3db5>@@AEAV<lambda_2ae9d31cdba2644fcbeaf08da7c24588>@@$$QEAV<lambda_40d01ff24d0e7b3814fdbdcee8eab3c7>@@@Z 0000000180034710     libucrt:per_thread_data.obj
 0004:0000171c       $pdata$??$?RV<lambda_2d41944a1d46af3157314b8a01080d33>@@AEAV<lambda_8f455de75cd7d7f24b4096f044d8b9e6>@@V<lambda_aa500f224e6afead328df44964fe2772>@@@?$__crt_seh_guarded_call@X@@QEAAX$$QEAV<lambda_2d41944a1d46af3157314b8a01080d33>@@AEAV<lambda_8f455de75cd7d7f24b4096f044d8b9e6>@@$$QEAV<lambda_aa500f224e6afead328df44964fe2772>@@@Z 000000018003471c     libucrt:per_thread_data.obj
 0004:00001728       $pdata$_calloc_base        0000000180034728     libucrt:calloc_base.obj
 0004:00001734       $pdata$_malloc_base        0000000180034734     libucrt:malloc_base.obj
 0004:00001740       $pdata$_msize_base         0000000180034740     libucrt:msize.obj
 0004:0000174c       $pdata$_realloc_base       000000018003474c     libucrt:realloc_base.obj
 0004:00001758       $pdata$__acrt_initialize_winapi_thunks 0000000180034758     libucrt:winapi_thunks.obj
 0004:00001764       $pdata$__acrt_uninitialize_winapi_thunks 0000000180034764     libucrt:winapi_thunks.obj
 0004:00001770       $pdata$__acrt_AreFileApisANSI 0000000180034770     libucrt:winapi_thunks.obj
 0004:0000177c       $pdata$__acrt_FlsAlloc     000000018003477c     libucrt:winapi_thunks.obj
 0004:00001788       $pdata$__acrt_FlsFree      0000000180034788     libucrt:winapi_thunks.obj
 0004:00001794       $pdata$__acrt_FlsGetValue  0000000180034794     libucrt:winapi_thunks.obj
 0004:000017a0       $pdata$__acrt_FlsSetValue  00000001800347a0     libucrt:winapi_thunks.obj
 0004:000017ac       $pdata$__acrt_InitializeCriticalSectionEx 00000001800347ac     libucrt:winapi_thunks.obj
 0004:000017b8       $pdata$__acrt_LCMapStringEx 00000001800347b8     libucrt:winapi_thunks.obj
 0004:000017c4       $pdata$__acrt_LocaleNameToLCID 00000001800347c4     libucrt:winapi_thunks.obj
 0004:000017d0       $pdata$__acrt_AppPolicyGetProcessTerminationMethodInternal 00000001800347d0     libucrt:winapi_thunks.obj
 0004:000017dc       $pdata$__acrt_SetThreadStackGuarantee 00000001800347dc     libucrt:winapi_thunks.obj
 0004:000017e8       $pdata$?try_get_function@@YAPEAXW4function_id@?A0x391cf84c@@QEBDQEBW4module_id@2@2@Z 00000001800347e8     libucrt:winapi_thunks.obj
 0004:000017f4       $pdata$wcstol              00000001800347f4     libucrt:strtox.obj
 0004:00001800       $pdata$_mbtowc_l           0000000180034800     libucrt:mbtowc.obj
 0004:0000180c       $pdata$__acrt_update_locale_info 000000018003480c     libucrt:locale_update.obj
 0004:00001818       $pdata$__acrt_update_multibyte_info 0000000180034818     libucrt:locale_update.obj
 0004:00001824       $pdata$__acrt_fp_format    0000000180034824     libucrt:cvt.obj
 0004:00001830       $pdata$?fp_format_e_internal@@YAHQEAD_KH_NIQEAU_strflt@@2QEAU__crt_locale_pointers@@@Z 0000000180034830     libucrt:cvt.obj
 0004:0000183c       $pdata$?fp_format_e@@YAHQEBNQEAD_K12H_NIQEAU__crt_locale_pointers@@@Z 000000018003483c     libucrt:cvt.obj
 0004:00001848       $pdata$?fp_format_a@@YAHQEBNPEAD_KQEAD2H_NIQEAU__crt_locale_pointers@@@Z 0000000180034848     libucrt:cvt.obj
 0004:00001854       $pdata$?fp_format_f_internal@@YAHQEAD_KHQEAU_strflt@@_NQEAU__crt_locale_pointers@@@Z 0000000180034854     libucrt:cvt.obj
 0004:00001860       $pdata$?fp_format_g@@YAHQEBNQEAD_K12H_NIQEAU__crt_locale_pointers@@@Z 0000000180034860     libucrt:cvt.obj
 0004:0000186c       $pdata$_fileno             000000018003486c     libucrt:fileno.obj
 0004:00001878       $pdata$__acrt_initialize_stdio 0000000180034878     libucrt:_file.obj
 0004:00001884       $pdata$__acrt_uninitialize_stdio 0000000180034884     libucrt:_file.obj
 0004:00001890       $pdata$__acrt_uninitialize_locale 0000000180034890     libucrt:wsetlocale.obj
 0004:0000189c       $pdata$??$?RV<lambda_410d79af7f07d98d83a3f525b3859a53>@@AEAV<lambda_3e16ef9562a7dcce91392c22ab16ea36>@@V<lambda_38119f0e861e05405d8a144b9b982f0a>@@@?$__crt_seh_guarded_call@X@@QEAAX$$QEAV<lambda_410d79af7f07d98d83a3f525b3859a53>@@AEAV<lambda_3e16ef9562a7dcce91392c22ab16ea36>@@$$QEAV<lambda_38119f0e861e05405d8a144b9b982f0a>@@@Z 000000018003489c     libucrt:wsetlocale.obj
 0004:000018a8       $pdata$?fin$0@?0???$?RV<lambda_410d79af7f07d98d83a3f525b3859a53>@@AEAV<lambda_3e16ef9562a7dcce91392c22ab16ea36>@@V<lambda_38119f0e861e05405d8a144b9b982f0a>@@@?$__crt_seh_guarded_call@X@@QEAAX$$QEAV<lambda_410d79af7f07d98d83a3f525b3859a53>@@AEAV<lambda_3e16ef9562a7dcce91392c22ab16ea36>@@$$QEAV<lambda_38119f0e861e05405d8a144b9b982f0a>@@@Z@4HA 00000001800348a8     libucrt:wsetlocale.obj
 0004:000018b4       $pdata$__acrt_initialize_lowio 00000001800348b4     libucrt:ioinit.obj
 0004:000018c0       $pdata$__acrt_lowio_ensure_fh_exists$fin$0 00000001800348c0     libucrt:osfinfo.obj
 0004:000018c0       $pdata$__acrt_initialize_lowio$fin$0 00000001800348c0     libucrt:ioinit.obj
 0004:000018cc       $pdata$__acrt_uninitialize_lowio 00000001800348cc     libucrt:ioinit.obj
 0004:000018d8       $pdata$?initialize_inherited_file_handles_nolock@@YAXXZ 00000001800348d8     libucrt:ioinit.obj
 0004:000018e4       $pdata$?initialize_stdio_handles_nolock@@YAXXZ 00000001800348e4     libucrt:ioinit.obj
 0004:000018f0       $pdata$__acrt_initialize_locks 00000001800348f0     libucrt:locks.obj
 0004:000018fc       $pdata$__acrt_uninitialize_locks 00000001800348fc     libucrt:locks.obj
 0004:00001908       $pdata$__acrt_get_process_end_policy 0000000180034908     libucrt:win_policies.obj
 0004:00001914       $pdata$??$__acrt_mbs_to_wcs_cp@U__crt_win32_buffer_internal_dynamic_resizing@@@@YAHQEBDAEAV?$__crt_win32_buffer@_WU__crt_win32_buffer_internal_dynamic_resizing@@@@I@Z 0000000180034914     libucrt:argv_wildcards.obj
 0004:00001920       $pdata$??$__acrt_wcs_to_mbs_cp@U__crt_win32_buffer_internal_dynamic_resizing@@@@YAHQEB_WAEAV?$__crt_win32_buffer@DU__crt_win32_buffer_internal_dynamic_resizing@@@@I@Z 0000000180034920     libucrt:argv_wildcards.obj
 0004:0000192c       $pdata$??$common_expand_argv_wildcards@D@@YAHQEAPEADQEAPEAPEAD@Z 000000018003492c     libucrt:argv_wildcards.obj
 0004:00001938       $pdata$??$copy_and_add_argument_to_buffer@D@@YAHQEBD0_KAEAV?$argument_list@D@?A0x5f5c8891@@@Z 0000000180034938     libucrt:argv_wildcards.obj
 0004:00001944       $pdata$??$expand_argument_wildcards@D@@YAHQEAD0AEAV?$argument_list@D@?A0x5f5c8891@@@Z 0000000180034944     libucrt:argv_wildcards.obj
 0004:00001950       $pdata$__acrt_GetModuleFileNameA 0000000180034950     libucrt:getmodulefilenamea.obj
 0004:0000195c       $pdata$??$__acrt_wcs_to_mbs_cp@U__crt_win32_buffer_no_resizing@@@@YAHQEB_WAEAV?$__crt_win32_buffer@DU__crt_win32_buffer_no_resizing@@@@I@Z 000000018003495c     libucrt:getmodulefilenamea.obj
 0004:00001968       $pdata$__acrt_update_thread_multibyte_data 0000000180034968     libucrt:mbctype.obj
 0004:00001974       $pdata$__acrt_initialize_multibyte 0000000180034974     libucrt:mbctype.obj
 0004:00001980       $pdata$_setmbcp_nolock     0000000180034980     libucrt:mbctype.obj
 0004:0000198c       $pdata$?getSystemCP@@YAHH@Z 000000018003498c     libucrt:mbctype.obj
 0004:00001998       $pdata$?setSBCS@@YAXPEAU__crt_multibyte_data@@@Z 0000000180034998     libucrt:mbctype.obj
 0004:000019a4       $pdata$?update_thread_multibyte_data_internal@@YAPEAU__crt_multibyte_data@@QEAU__acrt_ptd@@QEAPEAU1@@Z 00000001800349a4     libucrt:mbctype.obj
 0004:000019b0       $pdata$?fin$0@?0??update_thread_multibyte_data_internal@@YAPEAU__crt_multibyte_data@@QEAU__acrt_ptd@@QEAPEAU1@@Z@4HA 00000001800349b0     libucrt:mbctype.obj
 0004:000019bc       $pdata$?setmbcp_internal@@YAHH_NQEAU__acrt_ptd@@QEAPEAU__crt_multibyte_data@@@Z 00000001800349bc     libucrt:mbctype.obj
 0004:000019c8       $pdata$?setSBUpLow@@YAXPEAU__crt_multibyte_data@@@Z 00000001800349c8     libucrt:mbctype.obj
 0004:000019d4       $pdata$??$?RV<lambda_efdfa57d1f175319df784efa44bb7b81>@@AEAV<lambda_5f0a4c1567f8adc6734073e5d1e1b35c>@@V<lambda_2e8a7d3640ea6ccb4c2413664c2db6fd>@@@?$__crt_seh_guarded_call@X@@QEAAX$$QEAV<lambda_efdfa57d1f175319df784efa44bb7b81>@@AEAV<lambda_5f0a4c1567f8adc6734073e5d1e1b35c>@@$$QEAV<lambda_2e8a7d3640ea6ccb4c2413664c2db6fd>@@@Z 00000001800349d4     libucrt:mbctype.obj
 0004:000019e0       $pdata$?x_ismbbtype_l@@YAHPEAU__crt_locale_pointers@@IHH@Z 00000001800349e0     libucrt:ismbbyte.obj
 0004:000019ec       $pdata$__acrt_initialize_command_line 00000001800349ec     libucrt:argv_data.obj
 0004:000019f8       $pdata$__acrt_WideCharToMultiByte 00000001800349f8     libucrt:widechartomultibyte.obj
 0004:00001a04       $pdata$__dcrt_get_narrow_environment_from_os 0000000180034a04     libucrt:get_environment_from_os.obj
 0004:00001a10       $pdata$__acrt_initialize_heap 0000000180034a10     libucrt:heap_handle.obj
 0004:00001a1c       $pdata$__acrt_execute_initializers 0000000180034a1c     libucrt:shared_initialization.obj
 0004:00001a28       $pdata$__acrt_execute_uninitializers 0000000180034a28     libucrt:shared_initialization.obj
 0004:00001a34       $pdata$__acrt_get_sigabrt_handler 0000000180034a34     libucrt:signal.obj
 0004:00001a40       $pdata$raise               0000000180034a40     libucrt:signal.obj
 0004:00001a4c       $pdata$raise$fin$0         0000000180034a4c     libucrt:signal.obj
 0004:00001a58       $pdata$??$?RV<lambda_450d765d439847d4c735a33c368b5fc0>@@AEAV<lambda_44731a7d0e6d81c3e6aa82d741081786>@@V<lambda_601a2a7da3b7a96e9554ac7215c4b07c>@@@?$__crt_seh_guarded_call@P6AXH@Z@@QEAAP6AXH@Z$$QEAV<lambda_450d765d439847d4c735a33c368b5fc0>@@AEAV<lambda_44731a7d0e6d81c3e6aa82d741081786>@@$$QEAV<lambda_601a2a7da3b7a96e9554ac7215c4b07c>@@@Z 0000000180034a58     libucrt:signal.obj
 0004:00001a64       $pdata$_fflush_nolock      0000000180034a64     libucrt:fflush.obj
 0004:00001a70       $pdata$__acrt_stdio_flush_nolock 0000000180034a70     libucrt:fflush.obj
 0004:00001a7c       $pdata$?common_flush_all@@YAH_N@Z 0000000180034a7c     libucrt:fflush.obj
 0004:00001a88       $pdata$??$?RV<lambda_842d9ff0dc9ef11c61343bbaebe7f885>@@AEAV<lambda_c5860995281e5c4ce005b3de8f5874ee>@@V<lambda_d90129c13df834fdcbf8d2b88dafcf2d>@@@?$__crt_seh_guarded_call@X@@QEAAX$$QEAV<lambda_842d9ff0dc9ef11c61343bbaebe7f885>@@AEAV<lambda_c5860995281e5c4ce005b3de8f5874ee>@@$$QEAV<lambda_d90129c13df834fdcbf8d2b88dafcf2d>@@@Z 0000000180034a88     libucrt:fflush.obj
 0004:00001a94       $pdata$?fin$0@?0???$?RV<lambda_842d9ff0dc9ef11c61343bbaebe7f885>@@AEAV<lambda_c5860995281e5c4ce005b3de8f5874ee>@@V<lambda_d90129c13df834fdcbf8d2b88dafcf2d>@@@?$__crt_seh_guarded_call@X@@QEAAX$$QEAV<lambda_842d9ff0dc9ef11c61343bbaebe7f885>@@AEAV<lambda_c5860995281e5c4ce005b3de8f5874ee>@@$$QEAV<lambda_d90129c13df834fdcbf8d2b88dafcf2d>@@@Z@4HA 0000000180034a94     libucrt:fflush.obj
 0004:00001aa0       $pdata$??$?RV<lambda_886d6c58226a84441f68b9f2b8217b83>@@AEAV<lambda_ab61a845afdef5b7c387490eaf3616ee>@@V<lambda_f7f22ab5edc0698d5f6905b0d3f44752>@@@?$__crt_seh_guarded_call@X@@QEAAX$$QEAV<lambda_886d6c58226a84441f68b9f2b8217b83>@@AEAV<lambda_ab61a845afdef5b7c387490eaf3616ee>@@$$QEAV<lambda_f7f22ab5edc0698d5f6905b0d3f44752>@@@Z 0000000180034aa0     libucrt:fflush.obj
 0004:00001aac       $pdata$?fin$0@?0???$?RV<lambda_886d6c58226a84441f68b9f2b8217b83>@@AEAV<lambda_ab61a845afdef5b7c387490eaf3616ee>@@V<lambda_f7f22ab5edc0698d5f6905b0d3f44752>@@@?$__crt_seh_guarded_call@X@@QEAAX$$QEAV<lambda_886d6c58226a84441f68b9f2b8217b83>@@AEAV<lambda_ab61a845afdef5b7c387490eaf3616ee>@@$$QEAV<lambda_f7f22ab5edc0698d5f6905b0d3f44752>@@@Z@4HA 0000000180034aac     libucrt:fflush.obj
 0004:00001ab8       $pdata$__pctype_func       0000000180034ab8     libucrt:ctype.obj
 0004:00001ac4       $pdata$iswctype            0000000180034ac4     libucrt:iswctype.obj
 0004:00001ad0       $pdata$__acrt_release_locale_ref 0000000180034ad0     libucrt:locale_refcounting.obj
 0004:00001adc       $pdata$__acrt_free_locale  0000000180034adc     libucrt:locale_refcounting.obj
 0004:00001ae8       $pdata$__acrt_locale_free_lc_time_if_unreferenced 0000000180034ae8     libucrt:locale_refcounting.obj
 0004:00001af4       $pdata$__acrt_update_thread_locale_data 0000000180034af4     libucrt:locale_refcounting.obj
 0004:00001b00       $pdata$__acrt_update_thread_locale_data$fin$0 0000000180034b00     libucrt:locale_refcounting.obj
 0004:00001b0c       $pdata$_updatetlocinfoEx_nolock 0000000180034b0c     libucrt:locale_refcounting.obj
 0004:00001b18       $pdata$__acrt_DownlevelLocaleNameToLCID 0000000180034b18     libucrt:lcidtoname_downlevel.obj
 0004:00001b24       $pdata$_isleadbyte_l       0000000180034b24     libucrt:_wctype.obj
 0004:00001b30       $pdata$?__mbrtowc_utf8@__crt_mbstring@@YA_KPEA_WPEBD_KPEAU_Mbstatet@@@Z 0000000180034b30     libucrt:mbrtowc.obj
 0004:00001b3c       $pdata$?__mbsrtowcs_utf8@__crt_mbstring@@YA_KPEA_WPEAPEBD_KPEAU_Mbstatet@@@Z 0000000180034b3c     libucrt:mbrtowc.obj
 0004:00001b48       $pdata$__acrt_fp_strflt_to_string 0000000180034b48     libucrt:_fptostr.obj
 0004:00001b54       $pdata$__acrt_fltout       0000000180034b54     libucrt:cfout.obj
 0004:00001b60       $pdata$?divide@__crt_strtox@@YA_KAEAUbig_integer@1@AEBU21@@Z 0000000180034b60     libucrt:cfout.obj
 0004:00001b6c       $pdata$0$?divide@__crt_strtox@@YA_KAEAUbig_integer@1@AEBU21@@Z 0000000180034b6c     libucrt:cfout.obj
 0004:00001b78       $pdata$1$?divide@__crt_strtox@@YA_KAEAUbig_integer@1@AEBU21@@Z 0000000180034b78     libucrt:cfout.obj
 0004:00001b84       $pdata$_fcloseall          0000000180034b84     libucrt:closeall.obj
 0004:00001b90       $pdata$_fcloseall$fin$0    0000000180034b90     libucrt:closeall.obj
 0004:00001b9c       $pdata$__acrt_stdio_free_buffer_nolock 0000000180034b9c     libucrt:_freebuf.obj
 0004:00001ba8       $pdata$_isatty             0000000180034ba8     libucrt:isatty.obj
 0004:00001bb4       $pdata$__acrt_locale_free_monetary 0000000180034bb4     libucrt:initmon.obj
 0004:00001bc0       $pdata$__acrt_locale_free_numeric 0000000180034bc0     libucrt:initnum.obj
 0004:00001bcc       $pdata$__acrt_locale_free_time 0000000180034bcc     libucrt:inittime.obj
 0004:00001bd8       $pdata$?free_crt_array_internal@@YAXQEAPEBX_K@Z 0000000180034bd8     libucrt:inittime.obj
 0004:00001be4       $pdata$__acrt_GetStringTypeA 0000000180034be4     libucrt:getstringtypea.obj
 0004:00001bf0       $pdata$_get_osfhandle      0000000180034bf0     libucrt:osfinfo.obj
 0004:00001bfc       $pdata$_free_osfhnd        0000000180034bfc     libucrt:osfinfo.obj
 0004:00001c08       $pdata$__acrt_lowio_create_handle_array 0000000180034c08     libucrt:osfinfo.obj
 0004:00001c14       $pdata$__acrt_lowio_destroy_handle_array 0000000180034c14     libucrt:osfinfo.obj
 0004:00001c20       $pdata$__acrt_lowio_ensure_fh_exists 0000000180034c20     libucrt:osfinfo.obj
 0004:00001c2c       $pdata$qsort               0000000180034c2c     libucrt:qsort.obj
 0004:00001c38       $pdata$4$qsort             0000000180034c38     libucrt:qsort.obj
 0004:00001c44       $pdata$5$qsort             0000000180034c44     libucrt:qsort.obj
 0004:00001c50       $pdata$strncpy_s           0000000180034c50     libucrt:strncpy_s.obj
 0004:00001c5c       $pdata$strpbrk             0000000180034c5c     libucrt:strpbrk.obj
 0004:00001c68       $pdata$fallbackMethod      0000000180034c68     libucrt:strpbrk.obj
 0004:00001c74       $pdata$_mbsdec_l           0000000180034c74     libucrt:mbsdec.obj
 0004:00001c80       $pdata$__acrt_LCMapStringA 0000000180034c80     libucrt:lcmapstringa.obj
 0004:00001c8c       $pdata$?__acrt_LCMapStringA_stat@@YAHPEAU__crt_locale_pointers@@PEB_WKPEBDHPEADHHH@Z 0000000180034c8c     libucrt:lcmapstringa.obj
 0004:00001c98       $pdata$?initialize_multibyte@@YAHXZ 0000000180034c98     libucrt:multibyte_initializer.obj
 0004:00001ca4       $pdata$_commit             0000000180034ca4     libucrt:commit.obj
 0004:00001cb0       $pdata$??$?RV<lambda_a37b2b86f63e897a80ea819b0eb08c01>@@AEAV<lambda_38ce7e780aa69e748d6df282ebc68efe>@@V<lambda_99fb1378e971ab6e7edea83e3a7a83a2>@@@?$__crt_seh_guarded_call@H@@QEAAH$$QEAV<lambda_a37b2b86f63e897a80ea819b0eb08c01>@@AEAV<lambda_38ce7e780aa69e748d6df282ebc68efe>@@$$QEAV<lambda_99fb1378e971ab6e7edea83e3a7a83a2>@@@Z 0000000180034cb0     libucrt:commit.obj
 0004:00001cbc       $pdata$?fin$0@?0???$?RV<lambda_a37b2b86f63e897a80ea819b0eb08c01>@@AEAV<lambda_38ce7e780aa69e748d6df282ebc68efe>@@V<lambda_99fb1378e971ab6e7edea83e3a7a83a2>@@@?$__crt_seh_guarded_call@H@@QEAAH$$QEAV<lambda_a37b2b86f63e897a80ea819b0eb08c01>@@AEAV<lambda_38ce7e780aa69e748d6df282ebc68efe>@@$$QEAV<lambda_99fb1378e971ab6e7edea83e3a7a83a2>@@@Z@4HA 0000000180034cbc     libucrt:commit.obj
 0004:00001cbc       $pdata$?fin$0@?0???$?RV<lambda_751a882b2c74d4b022dec766aa51a29a>@@AEAV<lambda_628dfdc04ba53c8bfc02c9951375f3f5>@@V<lambda_f6c7be5f7998530c34de24c7437d6b54>@@@?$__crt_seh_guarded_call@H@@QEAAH$$QEAV<lambda_751a882b2c74d4b022dec766aa51a29a>@@AEAV<lambda_628dfdc04ba53c8bfc02c9951375f3f5>@@$$QEAV<lambda_f6c7be5f7998530c34de24c7437d6b54>@@@Z@4HA 0000000180034cbc     libucrt:close.obj
 0004:00001cc8       $pdata$_write              0000000180034cc8     libucrt:write.obj
 0004:00001cd4       $pdata$_write$fin$0        0000000180034cd4     libucrt:write.obj
 0004:00001ce0       $pdata$_write_nolock       0000000180034ce0     libucrt:write.obj
 0004:00001cec       $pdata$?write_double_translated_ansi_nolock@@YA?AUwrite_result@?A0x17268360@@HQEBDI@Z 0000000180034cec     libucrt:write.obj
 0004:00001cf8       $pdata$?write_text_ansi_nolock@@YA?AUwrite_result@?A0x17268360@@HQEBDI@Z 0000000180034cf8     libucrt:write.obj
 0004:00001d04       $pdata$?write_text_utf16le_nolock@@YA?AUwrite_result@?A0x17268360@@HQEBDI@Z 0000000180034d04     libucrt:write.obj
 0004:00001d10       $pdata$?write_text_utf8_nolock@@YA?AUwrite_result@?A0x17268360@@HQEBDI@Z 0000000180034d10     libucrt:write.obj
 0004:00001d1c       $pdata$?__mbrtoc32_utf8@__crt_mbstring@@YA_KPEA_UPEBD_KPEAU_Mbstatet@@@Z 0000000180034d1c     libucrt:mbrtoc32.obj
 0004:00001d28       $pdata$fegetenv            0000000180034d28     libucrt:fegetenv.obj
 0004:00001d34       $pdata$fesetenv            0000000180034d34     libucrt:fesetenv.obj
 0004:00001d40       $pdata$feholdexcept        0000000180034d40     libucrt:feholdexcept.obj
 0004:00001d58       $pdata$??$common_lseek_nolock@_J@@YA_JH_JH@Z 0000000180034d58     libucrt:lseek.obj
 0004:00001d64       $pdata$fclose              0000000180034d64     libucrt:fclose.obj
 0004:00001d70       $pdata$fclose$fin$0        0000000180034d70     libucrt:fclose.obj
 0004:00001d7c       $pdata$_fclose_nolock      0000000180034d7c     libucrt:fclose.obj
 0004:00001d88       $pdata$_putwch_nolock      0000000180034d88     libucrt:putwch.obj
 0004:00001d94       $pdata$__acrt_fenv_set_control 0000000180034d94     libucrt:_fenvutils.obj
 0004:00001da0       $pdata$_clearfp            0000000180034da0     libucrt:ieee.obj
 0004:00001dac       $pdata$_call_matherr       0000000180034dac     libucrt:libm_error.obj
 0004:00001db8       $pdata$_exception_enabled  0000000180034db8     libucrt:libm_error.obj
 0004:00001dc4       $pdata$_handle_error       0000000180034dc4     libucrt:libm_error.obj
 0004:00001dd0       $pdata$__acrt_initialize_fma3 0000000180034dd0     libucrt:fma3_available.obj
 0004:00001ddc       $pdata$_log_special_common 0000000180034ddc     libucrt:log_special.obj
 0004:00001de8       $pdata$_log10_special      0000000180034de8     libucrt:log_special.obj
 0004:00001df4       $pdata$_close              0000000180034df4     libucrt:close.obj
 0004:00001e00       $pdata$_close_nolock       0000000180034e00     libucrt:close.obj
 0004:00001e0c       $pdata$??$?RV<lambda_751a882b2c74d4b022dec766aa51a29a>@@AEAV<lambda_628dfdc04ba53c8bfc02c9951375f3f5>@@V<lambda_f6c7be5f7998530c34de24c7437d6b54>@@@?$__crt_seh_guarded_call@H@@QEAAH$$QEAV<lambda_751a882b2c74d4b022dec766aa51a29a>@@AEAV<lambda_628dfdc04ba53c8bfc02c9951375f3f5>@@$$QEAV<lambda_f6c7be5f7998530c34de24c7437d6b54>@@@Z 0000000180034e0c     libucrt:close.obj
 0004:00001e18       $pdata$__dcrt_lowio_ensure_console_output_initialized 0000000180034e18     libucrt:initcon.obj
 0004:00001e24       $pdata$__dcrt_write_console 0000000180034e24     libucrt:initcon.obj
 0004:00001e30       $pdata$__dcrt_terminate_console_output 0000000180034e30     libucrt:initcon.obj
 0004:00001e48       $pdata$_set_errno_from_matherr 0000000180034e48     libucrt:fpexcept.obj
 0004:00001e54       $pdata$_raise_exc          0000000180034e54     libucrt:fpexcept.obj
 0004:00001e60       $pdata$_raise_exc_ex       0000000180034e60     libucrt:fpexcept.obj
 0004:00001e6c       $pdata$_clrfp              0000000180034e6c     libucrt:fpctrl.obj
 0004:00001e78       $pdata$_ctrlfp             0000000180034e78     libucrt:fpctrl.obj
 0004:00001e84       $pdata$_ctrlfp$filt$0      0000000180034e84     libucrt:fpctrl.obj
 0004:00001e90       $pdata$_statfp             0000000180034e90     libucrt:fpctrl.obj
 0004:00001e9c       $pdata$_set_statfp         0000000180034e9c     libucrt:fpctrl.obj
 0004:00001ea8       $pdata$_IsNonwritableInCurrentImage 0000000180034ea8     LIBCMT:pesect.obj
 0004:00001eb4       $pdata$_IsNonwritableInCurrentImage$filt$0 0000000180034eb4     LIBCMT:pesect.obj
 0005:00000000       MoveSmall                  0000000180035000     libvcruntime:memcpy.obj
 0005:00000050       MsetTab                    0000000180035050     libvcruntime:memset.obj
 0006:00000220       $R000000                   0000000180036220     SmartCardRW.res
 0006:00000b98       $R000978                   0000000180036b98     SmartCardRW.res
 0006:00000c80       $R000A60                   0000000180036c80     SmartCardRW.res
 0006:00000ee8       $R000CC8                   0000000180036ee8     SmartCardRW.res
 0006:000013c0       $R0011A0                   00000001800373c0     SmartCardRW.res
 0006:000043e8       $R0041C8                   000000018003a3e8     SmartCardRW.res
 0006:00004420       $R004200                   000000018003a420     SmartCardRW.res
