 OPOSCashDrawer

 Timestamp is 61a758c1 (Wed Dec  1 20:13:05 2021)

 Preferred load address is 0000000180000000

 Start         Length     Name                   Class
 0001:00000000 000000c0H .text$di                CODE
 0001:000000c0 00023630H .text$mn                CODE
 0001:000236f0 00000040H .text$mn$00             CODE
 0001:00023730 00000660H .text$x                 CODE
 0001:00023d90 00000078H .text$yd                CODE
 0002:00000000 00000638H .idata$5                DATA
 0002:00000638 00000030H .00cfg                  DATA
 0002:00000668 00000008H .CRT$XCA                DATA
 0002:00000670 00000008H .CRT$XCL                DATA
 0002:00000678 00000020H .CRT$XCU                DATA
 0002:00000698 00000008H .CRT$XCZ                DATA
 0002:000006a0 00000008H .CRT$XIA                DATA
 0002:000006a8 00000020H .CRT$XIC                DATA
 0002:000006c8 00000008H .CRT$XIZ                DATA
 0002:000006d0 00000008H .CRT$XLA                DATA
 0002:000006d8 00000008H .CRT$XLZ                DATA
 0002:000006e0 00000008H .CRT$XPA                DATA
 0002:000006e8 00000010H .CRT$XPX                DATA
 0002:000006f8 00000008H .CRT$XPXA               DATA
 0002:00000700 00000008H .CRT$XPZ                DATA
 0002:00000708 00000008H .CRT$XTA                DATA
 0002:00000710 00000010H .CRT$XTZ                DATA
 0002:00000718 00000000H .gehcont$y              DATA
 0002:00000718 00000000H .gfids$y                DATA
 0002:00000720 0000a360H .rdata                  DATA
 0002:0000aa80 00000000H .rdata$CastGuardVftablesA DATA
 0002:0000aa80 00000000H .rdata$CastGuardVftablesC DATA
 0002:0000aa80 00000028H .rdata$T                DATA
 0002:0000aaa8 00000274H .rdata$r                DATA
 0002:0000ad1c 00000048H .rdata$voltmd           DATA
 0002:0000ad64 00000434H .rdata$zzzdbg           DATA
 0002:0000b198 00000008H .rtc$IAA                DATA
 0002:0000b1a0 00000008H .rtc$IZZ                DATA
 0002:0000b1a8 00000008H .rtc$TAA                DATA
 0002:0000b1b0 00000008H .rtc$TZZ                DATA
 0002:0000b1b8 00000004H .tls                    DATA
 0002:0000b1bc 00000004H .tls$                   DATA
 0002:0000b1c0 00000008H .tls$ZZZ                DATA
 0002:0000b1c8 00001918H .xdata                  DATA
 0002:0000cae0 00000150H .xdata$x                DATA
 0002:0000cc30 00000008H ATL$__a                 DATA
 0002:0000cc38 00000008H ATL$__z                 DATA
 0002:0000cc40 000000acH .edata                  DATA
 0002:0000ccec 00000078H .idata$2                DATA
 0002:0000cd64 00000014H .idata$3                DATA
 0002:0000cd78 00000638H .idata$4                DATA
 0002:0000d3b0 00000c5cH .idata$6                DATA
 0003:00000000 00000d98H .data                   DATA
 0003:00000d98 000000a8H .data$r                 DATA
 0003:00000e40 00000020H .data$rs                DATA
 0003:00000e60 000013ecH .bss                    DATA
 0004:00000000 00001fb0H .pdata                  DATA
 0005:00000000 000000f4H _RDATA                  DATA
 0006:00000000 00000220H .rsrc$01                DATA
 0006:00000220 000038d0H .rsrc$02                DATA

  Address         Publics by Value              Rva+Base               Lib:Object

 0000:00000000       __x64_code_ranges_to_entry_points 0000000000000000     <absolute>
 0000:00000000       __x64_code_ranges_to_entry_points_count 0000000000000000     <absolute>
 0000:00000000       __guard_fids_count         0000000000000000     <absolute>
 0000:00000000       __arm64x_extra_rfe_table   0000000000000000     <absolute>
 0000:00000000       __arm64x_redirection_metadata 0000000000000000     <absolute>
 0000:00000000       __guard_longjmp_table      0000000000000000     <absolute>
 0000:00000000       __guard_iat_table          0000000000000000     <absolute>
 0000:00000000       __hybrid_code_map          0000000000000000     <absolute>
 0000:00000000       __arm64x_extra_rfe_table_size 0000000000000000     <absolute>
 0000:00000000       ___safe_se_handler_count   0000000000000000     <absolute>
 0000:00000000       __guard_iat_count          0000000000000000     <absolute>
 0000:00000000       __guard_longjmp_count      0000000000000000     <absolute>
 0000:00000000       ___safe_se_handler_table   0000000000000000     <absolute>
 0000:00000000       __dynamic_value_reloc_table 0000000000000000     <absolute>
 0000:00000000       __hybrid_auxiliary_iat     0000000000000000     <absolute>
 0000:00000000       __hybrid_auxiliary_iat_copy 0000000000000000     <absolute>
 0000:00000000       __guard_eh_cont_count      0000000000000000     <absolute>
 0000:00000000       __AbsoluteZero             0000000000000000     <absolute>
 0000:00000000       __guard_check_icall_a64n_fptr 0000000000000000     <absolute>
 0000:00000000       __guard_fids_table         0000000000000000     <absolute>
 0000:00000000       __arm64x_redirection_metadata_count 0000000000000000     <absolute>
 0000:00000000       __enclave_config           0000000000000000     <absolute>
 0000:00000000       __guard_eh_cont_table      0000000000000000     <absolute>
 0000:00000000       __arm64x_native_entrypoint 0000000000000000     <absolute>
 0000:00000000       __hybrid_code_map_count    0000000000000000     <absolute>
 0000:00000100       __guard_flags              0000000000000100     <absolute>
 0000:00000000       __ImageBase                0000000180000000     <linker-defined>
 0001:000000c0       ?DupWide@_CW@@AEAAXXZ      00000001800010c0 f   CWString.obj
 0001:000000e8       ?cw_dup@@YAXPEBDAEAHAEAPEA_W1@Z 00000001800010e8 f   CWString.obj
 0001:000001c8       ?cw_memcpy@@YAHPEA_WPEBDH@Z 00000001800011c8 f   CWString.obj
 0001:00000214       ?cw_strcpy@@YAHPEA_WPEBD@Z 0000000180001214 f   CWString.obj
 0001:00000228       ??0CAtlComModule@ATL@@QEAA@XZ 0000000180001228 f i OposVariant.obj
 0001:000002a8       ??0CAtlWinModule@ATL@@QEAA@XZ 00000001800012a8 f i OposVariant.obj
 0001:00000314       ??0OposDispParms@@QEAA@PEAVOposVariant@@H@Z 0000000180001314 f   OposVariant.obj
 0001:000003bc       ??1OposDispParms@@QEAA@XZ  00000001800013bc f   OposVariant.obj
 0001:000003d4       ??_Estringdispid@CComTypeInfoHolder@ATL@@QEAAPEAXI@Z 00000001800013d4 f i OposVariant.obj
 0001:00000478       ?AtlWinModuleTerm@ATL@@YAJPEAU_ATL_WIN_MODULE70@1@PEAUHINSTANCE__@@@Z 0000000180001478 f i OposVariant.obj
 0001:00000528       ?ChangeBSTR@OposVariant@@QEAAXPEAPEA_WAEAJ@Z 0000000180001528 f   OposVariant.obj
 0001:00000588       ?ChangeLONG@OposVariant@@QEAAXPEAJAEAJ@Z 0000000180001588 f   OposVariant.obj
 0001:000005e4       ?GetLONG@OposVariant@@QEAAJXZ 00000001800015e4 f   OposVariant.obj
 0001:00000608       ?SetBSTR@OposVariant@@QEAAXPEA_WAEAJ@Z 0000000180001608 f   OposVariant.obj
 0001:00000648       ?SetBSTR_Copy@OposVariant@@QEAAXPEA_WAEAJ@Z 0000000180001648 f   OposVariant.obj
 0001:000006b8       ?SetBSTR_InOutPtr@OposVariant@@QEAA_NPEAPEA_WAEAJ@Z 00000001800016b8 f   OposVariant.obj
 0001:00000708       ?SetDispatch_Ptr@OposVariant@@QEAAXPEAUIDispatch@@AEAJ@Z 0000000180001708 f   OposVariant.obj
 0001:00000760       ?SetLONG@OposVariant@@QEAAXJ@Z 0000000180001760 f   OposVariant.obj
 0001:00000790       ?SetLONG_Ptr@OposVariant@@QEAAXPEAJAEAJ@Z 0000000180001790 f   OposVariant.obj
 0001:000007dc       ?SetString@OposVariant@@QEAAXPEB_WAEAJ@Z 00000001800017dc f   OposVariant.obj
 0001:00000840       ?SetVARIANT_BOOL@OposVariant@@QEAAXF@Z 0000000180001840 f   OposVariant.obj
 0001:00000878       ?Term@CAtlComModule@ATL@@QEAAXXZ 0000000180001878 f i OposVariant.obj
 0001:000008e8       ?_AtlInitializeCriticalSectionEx@ATL@@YAHPEAU_RTL_CRITICAL_SECTION@@KK@Z 00000001800018e8 f i OposVariant.obj
 0001:000008f0       ?_AtlRaiseException@ATL@@YAXKK@Z 00000001800018f0 f i OposVariant.obj
 0001:00000900       ?Next@?$CComEnumImpl@UIEnumConnections@@$1?_GUID_b196b287_bab4_101a_b69c_00aa00341d07@@3U__s_GUID@@BUtagCONNECTDATA@@V?$_Copy@UtagCONNECTDATA@@@ATL@@@ATL@@UEAAJKPEAUtagCONNECTDATA@@PEAK@Z 0000000180001900 f i CashDrawer.obj
 0001:000009c8       ?Skip@?$CComEnumImpl@UIEnumConnections@@$1?_GUID_b196b287_bab4_101a_b69c_00aa00341d07@@3U__s_GUID@@BUtagCONNECTDATA@@V?$_Copy@UtagCONNECTDATA@@@ATL@@@ATL@@UEAAJK@Z 00000001800019c8 f i CashDrawer.obj
 0001:000009f4       ?Reset@?$CComEnumImpl@UIEnumConnectionPoints@@$1?_GUID_b196b285_bab4_101a_b69c_00aa00341d07@@3U__s_GUID@@BPEAUIConnectionPoint@@V?$_CopyInterface@UIConnectionPoint@@@ATL@@@ATL@@UEAAJXZ 00000001800019f4 f i CashDrawer.obj
 0001:000009f4       ?Reset@?$CComEnumImpl@UIEnumConnections@@$1?_GUID_b196b287_bab4_101a_b69c_00aa00341d07@@3U__s_GUID@@BUtagCONNECTDATA@@V?$_Copy@UtagCONNECTDATA@@@ATL@@@ATL@@UEAAJXZ 00000001800019f4 f i CashDrawer.obj
 0001:00000a00       ?Clone@?$CComEnumImpl@UIEnumConnections@@$1?_GUID_b196b287_bab4_101a_b69c_00aa00341d07@@3U__s_GUID@@BUtagCONNECTDATA@@V?$_Copy@UtagCONNECTDATA@@@ATL@@@ATL@@UEAAJPEAPEAUIEnumConnections@@@Z 0000000180001a00 f i CashDrawer.obj
 0001:00000b2c       ?AddRef@?$CComObject@V?$CComEnum@UIEnumConnectionPoints@@$1?_GUID_b196b285_bab4_101a_b69c_00aa00341d07@@3U__s_GUID@@BPEAUIConnectionPoint@@V?$_CopyInterface@UIConnectionPoint@@@ATL@@VCComSingleThreadModel@6@@ATL@@@ATL@@UEAAKXZ 0000000180001b2c f i CashDrawer.obj
 0001:00000b2c       ?AddRef@?$CComObject@V?$CComEnum@UIEnumConnections@@$1?_GUID_b196b287_bab4_101a_b69c_00aa00341d07@@3U__s_GUID@@BUtagCONNECTDATA@@V?$_Copy@UtagCONNECTDATA@@@ATL@@VCComSingleThreadModel@6@@ATL@@@ATL@@UEAAKXZ 0000000180001b2c f i CashDrawer.obj
 0001:00000b38       ?Release@?$CComObject@V?$CComEnum@UIEnumConnectionPoints@@$1?_GUID_b196b285_bab4_101a_b69c_00aa00341d07@@3U__s_GUID@@BPEAUIConnectionPoint@@V?$_CopyInterface@UIConnectionPoint@@@ATL@@VCComSingleThreadModel@6@@ATL@@@ATL@@UEAAKXZ 0000000180001b38 f i CashDrawer.obj
 0001:00000b38       ?Release@?$CComObject@V?$CComEnum@UIEnumConnections@@$1?_GUID_b196b287_bab4_101a_b69c_00aa00341d07@@3U__s_GUID@@BUtagCONNECTDATA@@V?$_Copy@UtagCONNECTDATA@@@ATL@@VCComSingleThreadModel@6@@ATL@@@ATL@@UEAAKXZ 0000000180001b38 f i CashDrawer.obj
 0001:00000b8c       ?QueryInterface@?$CComObject@V?$CComEnum@UIEnumConnections@@$1?_GUID_b196b287_bab4_101a_b69c_00aa00341d07@@3U__s_GUID@@BUtagCONNECTDATA@@V?$_Copy@UtagCONNECTDATA@@@ATL@@VCComSingleThreadModel@6@@ATL@@@ATL@@UEAAJAEBU_GUID@@PEAPEAX@Z 0000000180001b8c f i CashDrawer.obj
 0001:00000ba0       ??_E?$CComObject@V?$CComEnum@UIEnumConnections@@$1?_GUID_b196b287_bab4_101a_b69c_00aa00341d07@@3U__s_GUID@@BUtagCONNECTDATA@@V?$_Copy@UtagCONNECTDATA@@@ATL@@VCComSingleThreadModel@6@@ATL@@@ATL@@UEAAPEAXI@Z 0000000180001ba0 f i CashDrawer.obj
 0001:00000ba0       ??_G?$CComObject@V?$CComEnum@UIEnumConnections@@$1?_GUID_b196b287_bab4_101a_b69c_00aa00341d07@@3U__s_GUID@@BUtagCONNECTDATA@@V?$_Copy@UtagCONNECTDATA@@@ATL@@VCComSingleThreadModel@6@@ATL@@@ATL@@UEAAPEAXI@Z 0000000180001ba0 f i CashDrawer.obj
 0001:00000bf8       ?OnFinalMessage@?$CWindowImplBaseT@VCWindow@ATL@@V?$CWinTraits@$0FGAAAAAA@$0A@@2@@ATL@@UEAAXPEAUHWND__@@@Z 0000000180001bf8 f i CashDrawer.obj
 0001:00000bf8       _guard_check_icall_nop     0000000180001bf8 f i LIBCMT:guard_support.obj
 0001:00000bf8       ?ObjectMain@CComObjectRootBase@ATL@@SAX_N@Z 0000000180001bf8 f i CashDrawer.obj
 0001:00000bfc       ?ResizeBorder@?$IOleInPlaceActiveObjectImpl@VCOPOSCashDrawer@@@ATL@@UEAAJPEBUtagRECT@@PEAUIOleInPlaceUIWindow@@H@Z 0000000180001bfc f i CashDrawer.obj
 0001:00000bfc       ?SaveCompleted@?$IPersistStorageImpl@VCOPOSCashDrawer@@@ATL@@UEAAJPEAUIStorage@@@Z 0000000180001bfc f i CashDrawer.obj
 0001:00000bfc       ?Release@CRegObject@ATL@@UEAAKXZ 0000000180001bfc f i CashDrawer.obj
 0001:00000bfc       ?OnAmbientPropertyChange@?$IOleControlImpl@VCOPOSCashDrawer@@@ATL@@UEAAJJ@Z 0000000180001bfc f i CashDrawer.obj
 0001:00000bfc       ?IsUpToDate@?$IOleObjectImpl@VCOPOSCashDrawer@@@ATL@@UEAAJXZ 0000000180001bfc f i CashDrawer.obj
 0001:00000bfc       ?Update@?$IOleObjectImpl@VCOPOSCashDrawer@@@ATL@@UEAAJXZ 0000000180001bfc f i CashDrawer.obj
 0001:00000bfc       ?GetObjectDescription@?$CComCoClass@VCOPOSCashDrawer@@$1?CLSID_OPOSCashDrawer@@3U_GUID@@B@ATL@@SAPEB_WXZ 0000000180001bfc f i CashDrawer.obj
 0001:00000bfc       ?EnableModeless@?$IOleInPlaceActiveObjectImpl@VCOPOSCashDrawer@@@ATL@@UEAAJH@Z 0000000180001bfc f i CashDrawer.obj
 0001:00000bfc       ?OnFrameWindowActivate@?$IOleInPlaceActiveObjectImpl@VCOPOSCashDrawer@@@ATL@@UEAAJH@Z 0000000180001bfc f i CashDrawer.obj
 0001:00000bfc       ?SetHostNames@?$IOleObjectImpl@VCOPOSCashDrawer@@@ATL@@UEAAJPEB_W0@Z 0000000180001bfc f i CashDrawer.obj
 0001:00000bfc       ?GetCategoryMap@CComObjectRootBase@ATL@@SAPEBU_ATL_CATMAP_ENTRY@2@XZ 0000000180001bfc f i CashDrawer.obj
 0001:00000bfc       ?HandsOffStorage@?$IPersistStorageImpl@VCOPOSCashDrawer@@@ATL@@UEAAJXZ 0000000180001bfc f i CashDrawer.obj
 0001:00000c00       ??_E?$CComObject@VCOPOSCashDrawer@@@ATL@@W7EAAPEAXI@Z 0000000180001c00 f i CashDrawer.obj
 0001:00000c0c       ??_E?$CComObject@VCOPOSCashDrawer@@@ATL@@WHA@EAAPEAXI@Z 0000000180001c0c f i CashDrawer.obj
 0001:00000c18       ?QueryInterface@?$CComObject@VCOPOSCashDrawer@@@ATL@@WLI@EAAJAEBU_GUID@@PEAPEAX@Z 0000000180001c18 f i CashDrawer.obj
 0001:00000c24       ?AddRef@?$CComObject@VCOPOSCashDrawer@@@ATL@@WLI@EAAKXZ 0000000180001c24 f i CashDrawer.obj
 0001:00000c30       ?Release@?$CComObject@VCOPOSCashDrawer@@@ATL@@WLI@EAAKXZ 0000000180001c30 f i CashDrawer.obj
 0001:00000c3c       ?QueryInterface@?$CComObject@VCOPOSCashDrawer@@@ATL@@WMA@EAAJAEBU_GUID@@PEAPEAX@Z 0000000180001c3c f i CashDrawer.obj
 0001:00000c48       ?AddRef@?$CComObject@VCOPOSCashDrawer@@@ATL@@WMA@EAAKXZ 0000000180001c48 f i CashDrawer.obj
 0001:00000c54       ?Release@?$CComObject@VCOPOSCashDrawer@@@ATL@@WMA@EAAKXZ 0000000180001c54 f i CashDrawer.obj
 0001:00000c60       ?QueryInterface@?$CComObject@VCOPOSCashDrawer@@@ATL@@WMI@EAAJAEBU_GUID@@PEAPEAX@Z 0000000180001c60 f i CashDrawer.obj
 0001:00000c6c       ?AddRef@?$CComObject@VCOPOSCashDrawer@@@ATL@@WMI@EAAKXZ 0000000180001c6c f i CashDrawer.obj
 0001:00000c78       ?Release@?$CComObject@VCOPOSCashDrawer@@@ATL@@WMI@EAAKXZ 0000000180001c78 f i CashDrawer.obj
 0001:00000c84       ?QueryInterface@?$CComObject@VCOPOSCashDrawer@@@ATL@@WNA@EAAJAEBU_GUID@@PEAPEAX@Z 0000000180001c84 f i CashDrawer.obj
 0001:00000c90       ?AddRef@?$CComObject@VCOPOSCashDrawer@@@ATL@@WNA@EAAKXZ 0000000180001c90 f i CashDrawer.obj
 0001:00000c9c       ?Release@?$CComObject@VCOPOSCashDrawer@@@ATL@@WNA@EAAKXZ 0000000180001c9c f i CashDrawer.obj
 0001:00000ca8       ?QueryInterface@?$CComObject@VCOPOSCashDrawer@@@ATL@@WNI@EAAJAEBU_GUID@@PEAPEAX@Z 0000000180001ca8 f i CashDrawer.obj
 0001:00000cb4       ?AddRef@?$CComObject@VCOPOSCashDrawer@@@ATL@@WNI@EAAKXZ 0000000180001cb4 f i CashDrawer.obj
 0001:00000cc0       ?Release@?$CComObject@VCOPOSCashDrawer@@@ATL@@WNI@EAAKXZ 0000000180001cc0 f i CashDrawer.obj
 0001:00000ccc       ?QueryInterface@?$CComObject@VCOPOSCashDrawer@@@ATL@@WOA@EAAJAEBU_GUID@@PEAPEAX@Z 0000000180001ccc f i CashDrawer.obj
 0001:00000cd8       ?AddRef@?$CComObject@VCOPOSCashDrawer@@@ATL@@WOA@EAAKXZ 0000000180001cd8 f i CashDrawer.obj
 0001:00000ce4       ?Release@?$CComObject@VCOPOSCashDrawer@@@ATL@@WOA@EAAKXZ 0000000180001ce4 f i CashDrawer.obj
 0001:00000cf0       ?QueryInterface@?$CComObject@VCOPOSCashDrawer@@@ATL@@WOI@EAAJAEBU_GUID@@PEAPEAX@Z 0000000180001cf0 f i CashDrawer.obj
 0001:00000cfc       ?AddRef@?$CComObject@VCOPOSCashDrawer@@@ATL@@WOI@EAAKXZ 0000000180001cfc f i CashDrawer.obj
 0001:00000d08       ?Release@?$CComObject@VCOPOSCashDrawer@@@ATL@@WOI@EAAKXZ 0000000180001d08 f i CashDrawer.obj
 0001:00000d14       ?QueryInterface@?$CComObject@VCOPOSCashDrawer@@@ATL@@WPA@EAAJAEBU_GUID@@PEAPEAX@Z 0000000180001d14 f i CashDrawer.obj
 0001:00000d20       ?AddRef@?$CComObject@VCOPOSCashDrawer@@@ATL@@WPA@EAAKXZ 0000000180001d20 f i CashDrawer.obj
 0001:00000d2c       ?Release@?$CComObject@VCOPOSCashDrawer@@@ATL@@WPA@EAAKXZ 0000000180001d2c f i CashDrawer.obj
 0001:00000d38       ?QueryInterface@?$CComObject@VCOPOSCashDrawer@@@ATL@@WPI@EAAJAEBU_GUID@@PEAPEAX@Z 0000000180001d38 f i CashDrawer.obj
 0001:00000d44       ?AddRef@?$CComObject@VCOPOSCashDrawer@@@ATL@@WPI@EAAKXZ 0000000180001d44 f i CashDrawer.obj
 0001:00000d50       ?Release@?$CComObject@VCOPOSCashDrawer@@@ATL@@WPI@EAAKXZ 0000000180001d50 f i CashDrawer.obj
 0001:00000d5c       ?QueryInterface@?$CComObject@VCOPOSCashDrawer@@@ATL@@WBAA@EAAJAEBU_GUID@@PEAPEAX@Z 0000000180001d5c f i CashDrawer.obj
 0001:00000d68       ?AddRef@?$CComObject@VCOPOSCashDrawer@@@ATL@@WBAA@EAAKXZ 0000000180001d68 f i CashDrawer.obj
 0001:00000d74       ?Release@?$CComObject@VCOPOSCashDrawer@@@ATL@@WBAA@EAAKXZ 0000000180001d74 f i CashDrawer.obj
 0001:00000d80       ?QueryInterface@?$CComObject@VCOPOSCashDrawer@@@ATL@@WBAI@EAAJAEBU_GUID@@PEAPEAX@Z 0000000180001d80 f i CashDrawer.obj
 0001:00000d8c       ?AddRef@?$CComObject@VCOPOSCashDrawer@@@ATL@@WBAI@EAAKXZ 0000000180001d8c f i CashDrawer.obj
 0001:00000d98       ?Release@?$CComObject@VCOPOSCashDrawer@@@ATL@@WBAI@EAAKXZ 0000000180001d98 f i CashDrawer.obj
 0001:00000da4       ?QueryInterface@?$CComObject@VCOPOSCashDrawer@@@ATL@@WBBA@EAAJAEBU_GUID@@PEAPEAX@Z 0000000180001da4 f i CashDrawer.obj
 0001:00000db0       ?AddRef@?$CComObject@VCOPOSCashDrawer@@@ATL@@WBBA@EAAKXZ 0000000180001db0 f i CashDrawer.obj
 0001:00000dbc       ?Release@?$CComObject@VCOPOSCashDrawer@@@ATL@@WBBA@EAAKXZ 0000000180001dbc f i CashDrawer.obj
 0001:00000dc8       ?QueryInterface@?$CComObject@VCOPOSCashDrawer@@@ATL@@WBBI@EAAJAEBU_GUID@@PEAPEAX@Z 0000000180001dc8 f i CashDrawer.obj
 0001:00000dd4       ?AddRef@?$CComObject@VCOPOSCashDrawer@@@ATL@@WBBI@EAAKXZ 0000000180001dd4 f i CashDrawer.obj
 0001:00000de0       ?Release@?$CComObject@VCOPOSCashDrawer@@@ATL@@WBBI@EAAKXZ 0000000180001de0 f i CashDrawer.obj
 0001:00000dec       ?AddRef@?$CComObject@VCOPOSCashDrawer@@@ATL@@WBCI@EAAKXZ 0000000180001dec f i CashDrawer.obj
 0001:00000df8       ?Release@?$CComObject@VCOPOSCashDrawer@@@ATL@@WBCI@EAAKXZ 0000000180001df8 f i CashDrawer.obj
 0001:00000e04       ?AddRef@?$CComObject@VCOPOSCashDrawer@@@ATL@@WBEA@EAAKXZ 0000000180001e04 f i CashDrawer.obj
 0001:00000e10       ?Release@?$CComObject@VCOPOSCashDrawer@@@ATL@@WBEA@EAAKXZ 0000000180001e10 f i CashDrawer.obj
 0001:00000e1c       ??_E?$CComContainedObject@VCOPOSCashDrawer@@@ATL@@W7EAAPEAXI@Z 0000000180001e1c f i CashDrawer.obj
 0001:00000e28       ??_E?$CComContainedObject@VCOPOSCashDrawer@@@ATL@@WHA@EAAPEAXI@Z 0000000180001e28 f i CashDrawer.obj
 0001:00000e34       ?QueryInterface@?$CComContainedObject@VCOPOSCashDrawer@@@ATL@@WLI@EAAJAEBU_GUID@@PEAPEAX@Z 0000000180001e34 f i CashDrawer.obj
 0001:00000e40       ?AddRef@?$CComContainedObject@VCOPOSCashDrawer@@@ATL@@WLI@EAAKXZ 0000000180001e40 f i CashDrawer.obj
 0001:00000e4c       ?Release@?$CComContainedObject@VCOPOSCashDrawer@@@ATL@@WLI@EAAKXZ 0000000180001e4c f i CashDrawer.obj
 0001:00000e58       ?QueryInterface@?$CComContainedObject@VCOPOSCashDrawer@@@ATL@@WMA@EAAJAEBU_GUID@@PEAPEAX@Z 0000000180001e58 f i CashDrawer.obj
 0001:00000e64       ?AddRef@?$CComContainedObject@VCOPOSCashDrawer@@@ATL@@WMA@EAAKXZ 0000000180001e64 f i CashDrawer.obj
 0001:00000e70       ?Release@?$CComContainedObject@VCOPOSCashDrawer@@@ATL@@WMA@EAAKXZ 0000000180001e70 f i CashDrawer.obj
 0001:00000e7c       ?QueryInterface@?$CComContainedObject@VCOPOSCashDrawer@@@ATL@@WMI@EAAJAEBU_GUID@@PEAPEAX@Z 0000000180001e7c f i CashDrawer.obj
 0001:00000e88       ?AddRef@?$CComContainedObject@VCOPOSCashDrawer@@@ATL@@WMI@EAAKXZ 0000000180001e88 f i CashDrawer.obj
 0001:00000e94       ?Release@?$CComContainedObject@VCOPOSCashDrawer@@@ATL@@WMI@EAAKXZ 0000000180001e94 f i CashDrawer.obj
 0001:00000ea0       ?QueryInterface@?$CComContainedObject@VCOPOSCashDrawer@@@ATL@@WNA@EAAJAEBU_GUID@@PEAPEAX@Z 0000000180001ea0 f i CashDrawer.obj
 0001:00000eac       ?AddRef@?$CComContainedObject@VCOPOSCashDrawer@@@ATL@@WNA@EAAKXZ 0000000180001eac f i CashDrawer.obj
 0001:00000eb8       ?Release@?$CComContainedObject@VCOPOSCashDrawer@@@ATL@@WNA@EAAKXZ 0000000180001eb8 f i CashDrawer.obj
 0001:00000ec4       ?QueryInterface@?$CComContainedObject@VCOPOSCashDrawer@@@ATL@@WNI@EAAJAEBU_GUID@@PEAPEAX@Z 0000000180001ec4 f i CashDrawer.obj
 0001:00000ed0       ?AddRef@?$CComContainedObject@VCOPOSCashDrawer@@@ATL@@WNI@EAAKXZ 0000000180001ed0 f i CashDrawer.obj
 0001:00000edc       ?Release@?$CComContainedObject@VCOPOSCashDrawer@@@ATL@@WNI@EAAKXZ 0000000180001edc f i CashDrawer.obj
 0001:00000ee8       ?QueryInterface@?$CComContainedObject@VCOPOSCashDrawer@@@ATL@@WOA@EAAJAEBU_GUID@@PEAPEAX@Z 0000000180001ee8 f i CashDrawer.obj
 0001:00000ef4       ?AddRef@?$CComContainedObject@VCOPOSCashDrawer@@@ATL@@WOA@EAAKXZ 0000000180001ef4 f i CashDrawer.obj
 0001:00000f00       ?Release@?$CComContainedObject@VCOPOSCashDrawer@@@ATL@@WOA@EAAKXZ 0000000180001f00 f i CashDrawer.obj
 0001:00000f0c       ?QueryInterface@?$CComContainedObject@VCOPOSCashDrawer@@@ATL@@WOI@EAAJAEBU_GUID@@PEAPEAX@Z 0000000180001f0c f i CashDrawer.obj
 0001:00000f18       ?AddRef@?$CComContainedObject@VCOPOSCashDrawer@@@ATL@@WOI@EAAKXZ 0000000180001f18 f i CashDrawer.obj
 0001:00000f24       ?Release@?$CComContainedObject@VCOPOSCashDrawer@@@ATL@@WOI@EAAKXZ 0000000180001f24 f i CashDrawer.obj
 0001:00000f30       ?QueryInterface@?$CComContainedObject@VCOPOSCashDrawer@@@ATL@@WPA@EAAJAEBU_GUID@@PEAPEAX@Z 0000000180001f30 f i CashDrawer.obj
 0001:00000f3c       ?AddRef@?$CComContainedObject@VCOPOSCashDrawer@@@ATL@@WPA@EAAKXZ 0000000180001f3c f i CashDrawer.obj
 0001:00000f48       ?Release@?$CComContainedObject@VCOPOSCashDrawer@@@ATL@@WPA@EAAKXZ 0000000180001f48 f i CashDrawer.obj
 0001:00000f54       ?QueryInterface@?$CComContainedObject@VCOPOSCashDrawer@@@ATL@@WPI@EAAJAEBU_GUID@@PEAPEAX@Z 0000000180001f54 f i CashDrawer.obj
 0001:00000f60       ?AddRef@?$CComContainedObject@VCOPOSCashDrawer@@@ATL@@WPI@EAAKXZ 0000000180001f60 f i CashDrawer.obj
 0001:00000f6c       ?Release@?$CComContainedObject@VCOPOSCashDrawer@@@ATL@@WPI@EAAKXZ 0000000180001f6c f i CashDrawer.obj
 0001:00000f78       ?QueryInterface@?$CComContainedObject@VCOPOSCashDrawer@@@ATL@@WBAA@EAAJAEBU_GUID@@PEAPEAX@Z 0000000180001f78 f i CashDrawer.obj
 0001:00000f84       ?AddRef@?$CComContainedObject@VCOPOSCashDrawer@@@ATL@@WBAA@EAAKXZ 0000000180001f84 f i CashDrawer.obj
 0001:00000f90       ?Release@?$CComContainedObject@VCOPOSCashDrawer@@@ATL@@WBAA@EAAKXZ 0000000180001f90 f i CashDrawer.obj
 0001:00000f9c       ?QueryInterface@?$CComContainedObject@VCOPOSCashDrawer@@@ATL@@WBAI@EAAJAEBU_GUID@@PEAPEAX@Z 0000000180001f9c f i CashDrawer.obj
 0001:00000fa8       ?AddRef@?$CComContainedObject@VCOPOSCashDrawer@@@ATL@@WBAI@EAAKXZ 0000000180001fa8 f i CashDrawer.obj
 0001:00000fb4       ?Release@?$CComContainedObject@VCOPOSCashDrawer@@@ATL@@WBAI@EAAKXZ 0000000180001fb4 f i CashDrawer.obj
 0001:00000fc0       ?QueryInterface@?$CComContainedObject@VCOPOSCashDrawer@@@ATL@@WBBA@EAAJAEBU_GUID@@PEAPEAX@Z 0000000180001fc0 f i CashDrawer.obj
 0001:00000fcc       ?AddRef@?$CComContainedObject@VCOPOSCashDrawer@@@ATL@@WBBA@EAAKXZ 0000000180001fcc f i CashDrawer.obj
 0001:00000fd8       ?Release@?$CComContainedObject@VCOPOSCashDrawer@@@ATL@@WBBA@EAAKXZ 0000000180001fd8 f i CashDrawer.obj
 0001:00000fe4       ?QueryInterface@?$CComContainedObject@VCOPOSCashDrawer@@@ATL@@WBBI@EAAJAEBU_GUID@@PEAPEAX@Z 0000000180001fe4 f i CashDrawer.obj
 0001:00000ff0       ?AddRef@?$CComContainedObject@VCOPOSCashDrawer@@@ATL@@WBBI@EAAKXZ 0000000180001ff0 f i CashDrawer.obj
 0001:00000ffc       ?Release@?$CComContainedObject@VCOPOSCashDrawer@@@ATL@@WBBI@EAAKXZ 0000000180001ffc f i CashDrawer.obj
 0001:00001008       ?AddRef@?$CComContainedObject@VCOPOSCashDrawer@@@ATL@@WBCI@EAAKXZ 0000000180002008 f i CashDrawer.obj
 0001:00001014       ?Release@?$CComContainedObject@VCOPOSCashDrawer@@@ATL@@WBCI@EAAKXZ 0000000180002014 f i CashDrawer.obj
 0001:00001020       ?AddRef@?$CComContainedObject@VCOPOSCashDrawer@@@ATL@@WBEA@EAAKXZ 0000000180002020 f i CashDrawer.obj
 0001:0000102c       ?Release@?$CComContainedObject@VCOPOSCashDrawer@@@ATL@@WBEA@EAAKXZ 000000018000202c f i CashDrawer.obj
 0001:00001038       ?CreateInstance@CComClassFactory@ATL@@UEAAJPEAUIUnknown@@AEBU_GUID@@PEAPEAX@Z 0000000180002038 f i CashDrawer.obj
 0001:00001098       ?LockServer@CComClassFactory@ATL@@UEAAJH@Z 0000000180002098 f i CashDrawer.obj
 0001:000010bc       ??_ECComClassFactory@ATL@@UEAAPEAXI@Z 00000001800020bc f i CashDrawer.obj
 0001:000010bc       ??_GCComClassFactory@ATL@@UEAAPEAXI@Z 00000001800020bc f i CashDrawer.obj
 0001:0000110c       ?GetWindowProc@?$CWindowImplBaseT@VCWindow@ATL@@V?$CWinTraits@$0FGAAAAAA@$0A@@2@@ATL@@UEAAP6A_JPEAUHWND__@@I_K_J@ZXZ 000000018000210c f i CashDrawer.obj
 0001:00001114       ?StartWindowProc@?$CWindowImplBaseT@VCWindow@ATL@@V?$CWinTraits@$0FGAAAAAA@$0A@@2@@ATL@@SA_JPEAUHWND__@@I_K_J@Z 0000000180002114 f i CashDrawer.obj
 0001:000011c8       ?GetTypeInfoCount@?$IDispatchImpl@UIOPOSCashDrawer@@$1?IID_IOPOSCashDrawer@@3U_GUID@@B$1?LIBID_OposCashDrawer_CCO@@3U3@B$00$0A@VCComTypeInfoHolder@ATL@@@ATL@@UEAAJPEAI@Z 00000001800021c8 f i CashDrawer.obj
 0001:000011dc       ?GetTypeInfo@?$IDispatchImpl@UIOPOSCashDrawer@@$1?IID_IOPOSCashDrawer@@3U_GUID@@B$1?LIBID_OposCashDrawer_CCO@@3U3@B$00$0A@VCComTypeInfoHolder@ATL@@@ATL@@UEAAJIKPEAPEAUITypeInfo@@@Z 00000001800021dc f i CashDrawer.obj
 0001:00001240       ?GetIDsOfNames@?$IDispatchImpl@UIOPOSCashDrawer@@$1?IID_IOPOSCashDrawer@@3U_GUID@@B$1?LIBID_OposCashDrawer_CCO@@3U3@B$00$0A@VCComTypeInfoHolder@ATL@@@ATL@@UEAAJAEBU_GUID@@PEAPEA_WIKPEAJ@Z 0000000180002240 f i CashDrawer.obj
 0001:0000124c       ?Invoke@?$IDispatchImpl@UIOPOSCashDrawer@@$1?IID_IOPOSCashDrawer@@3U_GUID@@B$1?LIBID_OposCashDrawer_CCO@@3U3@B$00$0A@VCComTypeInfoHolder@ATL@@@ATL@@UEAAJJAEBU_GUID@@KGPEAUtagDISPPARAMS@@PEAUtagVARIANT@@PEAUtagEXCEPINFO@@PEAI@Z 000000018000224c f i CashDrawer.obj
 0001:000012dc       ?CreateControlWindow@?$CComControl@VCOPOSCashDrawer@@V?$CWindowImpl@VCOPOSCashDrawer@@VCWindow@ATL@@V?$CWinTraits@$0FGAAAAAA@$0A@@3@@ATL@@@ATL@@UEAAPEAUHWND__@@PEAU3@AEAUtagRECT@@@Z 00000001800022dc f i CashDrawer.obj
 0001:00001314       ?ControlQueryInterface@?$CComControl@VCOPOSCashDrawer@@V?$CWindowImpl@VCOPOSCashDrawer@@VCWindow@ATL@@V?$CWinTraits@$0FGAAAAAA@$0A@@3@@ATL@@@ATL@@UEAAJAEBU_GUID@@PEAPEAX@Z 0000000180002314 f i CashDrawer.obj
 0001:00001328       ?GetUserClassID@?$IOleObjectImpl@VCOPOSCashDrawer@@@ATL@@UEAAJPEAU_GUID@@@Z 0000000180002328 f i CashDrawer.obj
 0001:00001328       ?GetClassID@?$IPersistStorageImpl@VCOPOSCashDrawer@@@ATL@@UEAAJPEAU_GUID@@@Z 0000000180002328 f i CashDrawer.obj
 0001:00001328       ?GetClassID@?$IPersistStreamInitImpl@VCOPOSCashDrawer@@@ATL@@UEAAJPEAU_GUID@@@Z 0000000180002328 f i CashDrawer.obj
 0001:00001344       ?IsDirty@?$IPersistStreamInitImpl@VCOPOSCashDrawer@@@ATL@@UEAAJXZ 0000000180002344 f i CashDrawer.obj
 0001:00001360       ?Load@?$IPersistStreamInitImpl@VCOPOSCashDrawer@@@ATL@@UEAAJPEAUIStream@@@Z 0000000180002360 f i CashDrawer.obj
 0001:00001378       ?Save@?$IPersistStreamInitImpl@VCOPOSCashDrawer@@@ATL@@UEAAJPEAUIStream@@H@Z 0000000180002378 f i CashDrawer.obj
 0001:00001390       ?GetSizeMax@?$IPersistStreamInitImpl@VCOPOSCashDrawer@@@ATL@@UEAAJPEAT_ULARGE_INTEGER@@@Z 0000000180002390 f i CashDrawer.obj
 0001:000015b4       ?InitNew@?$IPersistStreamInitImpl@VCOPOSCashDrawer@@@ATL@@UEAAJXZ 00000001800025b4 f i CashDrawer.obj
 0001:000015cc       ?SetData@?$IDataObjectImpl@VCOPOSCashDrawer@@@ATL@@UEAAJPEAUtagFORMATETC@@PEAUtagSTGMEDIUM@@H@Z 00000001800025cc f i CashDrawer.obj
 0001:000015cc       ?SOErrorDummy@COPOSCashDrawer@@MEAAJJJJPEAJ@Z 00000001800025cc f i CashDrawer.obj
 0001:000015cc       ?GetColorSet@?$IViewObjectExImpl@VCOPOSCashDrawer@@@ATL@@UEAAJKJPEAXPEAUtagDVTARGETDEVICE@@PEAUHDC__@@PEAPEAUtagLOGPALETTE@@@Z 00000001800025cc f i CashDrawer.obj
 0001:000015cc       ?Freeze@?$IViewObjectExImpl@VCOPOSCashDrawer@@@ATL@@UEAAJKJPEAXPEAK@Z 00000001800025cc f i CashDrawer.obj
 0001:000015cc       ?SOOutputCompleteDummy@COPOSCashDrawer@@MEAAJJ@Z 00000001800025cc f i CashDrawer.obj
 0001:000015cc       ?ReactivateAndUndo@?$IOleInPlaceObjectWindowlessImpl@VCOPOSCashDrawer@@@ATL@@UEAAJXZ 00000001800025cc f i CashDrawer.obj
 0001:000015cc       ?GetClipboardData@?$IOleObjectImpl@VCOPOSCashDrawer@@@ATL@@UEAAJKPEAPEAUIDataObject@@@Z 00000001800025cc f i CashDrawer.obj
 0001:000015cc       ?Unfreeze@?$IViewObjectExImpl@VCOPOSCashDrawer@@@ATL@@UEAAJK@Z 00000001800025cc f i CashDrawer.obj
 0001:000015cc       ?GetDataHere@?$IDataObjectImpl@VCOPOSCashDrawer@@@ATL@@UEAAJPEAUtagFORMATETC@@PEAUtagSTGMEDIUM@@@Z 00000001800025cc f i CashDrawer.obj
 0001:000015cc       ?OnMnemonic@?$IOleControlImpl@VCOPOSCashDrawer@@@ATL@@UEAAJPEAUtagMSG@@@Z 00000001800025cc f i CashDrawer.obj
 0001:000015cc       ?GetControlInfo@?$IOleControlImpl@VCOPOSCashDrawer@@@ATL@@UEAAJPEAUtagCONTROLINFO@@@Z 00000001800025cc f i CashDrawer.obj
 0001:000015cc       ?ContextSensitiveHelp@?$IOleInPlaceActiveObjectImpl@VCOPOSCashDrawer@@@ATL@@UEAAJH@Z 00000001800025cc f i CashDrawer.obj
 0001:000015cc       ?GetMoniker@?$IOleObjectImpl@VCOPOSCashDrawer@@@ATL@@UEAAJKKPEAPEAUIMoniker@@@Z 00000001800025cc f i CashDrawer.obj
 0001:000015cc       ?QueryGetData@?$IDataObjectImpl@VCOPOSCashDrawer@@@ATL@@UEAAJPEAUtagFORMATETC@@@Z 00000001800025cc f i CashDrawer.obj
 0001:000015cc       ?QueryInterface@CRegObject@ATL@@UEAAJAEBU_GUID@@PEAPEAX@Z 00000001800025cc f i CashDrawer.obj
 0001:000015cc       ?GetDropTarget@?$IOleInPlaceObjectWindowlessImpl@VCOPOSCashDrawer@@@ATL@@UEAAJPEAPEAUIDropTarget@@@Z 00000001800025cc f i CashDrawer.obj
 0001:000015cc       ?GetCanonicalFormatEtc@?$IDataObjectImpl@VCOPOSCashDrawer@@@ATL@@UEAAJPEAUtagFORMATETC@@0@Z 00000001800025cc f i CashDrawer.obj
 0001:000015cc       ?GetRect@?$IViewObjectExImpl@VCOPOSCashDrawer@@@ATL@@UEAAJKPEAU_RECTL@@@Z 00000001800025cc f i CashDrawer.obj
 0001:000015cc       ?SetMoniker@?$IOleObjectImpl@VCOPOSCashDrawer@@@ATL@@UEAAJKPEAUIMoniker@@@Z 00000001800025cc f i CashDrawer.obj
 0001:000015cc       ?SetColorScheme@?$IOleObjectImpl@VCOPOSCashDrawer@@@ATL@@UEAAJPEAUtagLOGPALETTE@@@Z 00000001800025cc f i CashDrawer.obj
 0001:000015cc       ?ContextSensitiveHelp@?$IOleInPlaceObjectWindowlessImpl@VCOPOSCashDrawer@@@ATL@@UEAAJH@Z 00000001800025cc f i CashDrawer.obj
 0001:000015cc       ?EnumFormatEtc@?$IDataObjectImpl@VCOPOSCashDrawer@@@ATL@@UEAAJKPEAPEAUIEnumFORMATETC@@@Z 00000001800025cc f i CashDrawer.obj
 0001:000015cc       ?InitFromData@?$IOleObjectImpl@VCOPOSCashDrawer@@@ATL@@UEAAJPEAUIDataObject@@HK@Z 00000001800025cc f i CashDrawer.obj
 0001:000015cc       ?SODataDummy@COPOSCashDrawer@@MEAAJJ@Z 00000001800025cc f i CashDrawer.obj
 0001:000015d4       ?SetClientSite@?$IOleObjectImpl@VCOPOSCashDrawer@@@ATL@@UEAAJPEAUIOleClientSite@@@Z 00000001800025d4 f i CashDrawer.obj
 0001:000015f0       ?GetClientSite@?$IOleObjectImpl@VCOPOSCashDrawer@@@ATL@@UEAAJPEAPEAUIOleClientSite@@@Z 00000001800025f0 f i CashDrawer.obj
 0001:00001638       ?Close@?$IOleObjectImpl@VCOPOSCashDrawer@@@ATL@@UEAAJK@Z 0000000180002638 f i CashDrawer.obj
 0001:00001654       ?DoVerb@?$IOleObjectImpl@VCOPOSCashDrawer@@@ATL@@UEAAJJPEAUtagMSG@@PEAUIOleClientSite@@JPEAUHWND__@@PEBUtagRECT@@@Z 0000000180002654 f i CashDrawer.obj
 0001:000017f8       ?EnumVerbs@?$IOleObjectImpl@VCOPOSCashDrawer@@@ATL@@UEAAJPEAPEAUIEnumOLEVERB@@@Z 00000001800027f8 f i CashDrawer.obj
 0001:00001814       ?GetUserType@?$IOleObjectImpl@VCOPOSCashDrawer@@@ATL@@UEAAJKPEAPEA_W@Z 0000000180002814 f i CashDrawer.obj
 0001:00001824       ?SetExtent@?$IOleObjectImpl@VCOPOSCashDrawer@@@ATL@@UEAAJKPEAUtagSIZE@@@Z 0000000180002824 f i CashDrawer.obj
 0001:00001840       ?GetExtent@?$IOleObjectImpl@VCOPOSCashDrawer@@@ATL@@UEAAJKPEAUtagSIZE@@@Z 0000000180002840 f i CashDrawer.obj
 0001:00001870       ?Advise@?$IOleObjectImpl@VCOPOSCashDrawer@@@ATL@@UEAAJPEAUIAdviseSink@@PEAK@Z 0000000180002870 f i CashDrawer.obj
 0001:000018cc       ?Unadvise@?$IOleObjectImpl@VCOPOSCashDrawer@@@ATL@@UEAAJK@Z 00000001800028cc f i CashDrawer.obj
 0001:00001904       ?EnumAdvise@?$IOleObjectImpl@VCOPOSCashDrawer@@@ATL@@UEAAJPEAPEAUIEnumSTATDATA@@@Z 0000000180002904 f i CashDrawer.obj
 0001:0000194c       ?GetMiscStatus@?$IOleObjectImpl@VCOPOSCashDrawer@@@ATL@@UEAAJKPEAK@Z 000000018000294c f i CashDrawer.obj
 0001:0000195c       ?GetWindow@?$IOleInPlaceActiveObjectImpl@VCOPOSCashDrawer@@@ATL@@UEAAJPEAPEAUHWND__@@@Z 000000018000295c f i CashDrawer.obj
 0001:000019b0       ?TranslateAcceleratorW@?$IOleInPlaceActiveObjectImpl@VCOPOSCashDrawer@@@ATL@@UEAAJPEAUtagMSG@@@Z 00000001800029b0 f i CashDrawer.obj
 0001:00001aa4       ?OnDocWindowActivate@?$IOleInPlaceActiveObjectImpl@VCOPOSCashDrawer@@@ATL@@UEAAJH@Z 0000000180002aa4 f i CashDrawer.obj
 0001:00001ad0       ?Draw@?$IViewObjectExImpl@VCOPOSCashDrawer@@@ATL@@UEAAJKJPEAXPEAUtagDVTARGETDEVICE@@PEAUHDC__@@2PEBU_RECTL@@3P6AH_K@Z4@Z 0000000180002ad0 f i CashDrawer.obj
 0001:00001b34       ?SetAdvise@?$IViewObjectExImpl@VCOPOSCashDrawer@@@ATL@@UEAAJKKPEAUIAdviseSink@@@Z 0000000180002b34 f i CashDrawer.obj
 0001:00001b88       ?GetAdvise@?$IViewObjectExImpl@VCOPOSCashDrawer@@@ATL@@UEAAJPEAK0PEAPEAUIAdviseSink@@@Z 0000000180002b88 f i CashDrawer.obj
 0001:00001bc4       ?GetExtent@?$IViewObjectExImpl@VCOPOSCashDrawer@@@ATL@@UEAAJKJPEAUtagDVTARGETDEVICE@@PEAUtagSIZE@@@Z 0000000180002bc4 f i CashDrawer.obj
 0001:00001bf4       ?GetViewStatus@?$IViewObjectExImpl@VCOPOSCashDrawer@@@ATL@@UEAAJPEAK@Z 0000000180002bf4 f i CashDrawer.obj
 0001:00001c08       ?QueryHitPoint@?$IViewObjectExImpl@VCOPOSCashDrawer@@@ATL@@UEAAJKPEBUtagRECT@@UtagPOINT@@JPEAK@Z 0000000180002c08 f i CashDrawer.obj
 0001:00001c4c       ?QueryHitRect@?$IViewObjectExImpl@VCOPOSCashDrawer@@@ATL@@UEAAJKPEBUtagRECT@@0JPEAK@Z 0000000180002c4c f i CashDrawer.obj
 0001:00001cb4       ?GetNaturalExtent@?$IViewObjectExImpl@VCOPOSCashDrawer@@@ATL@@UEAAJKJPEAUtagDVTARGETDEVICE@@PEAUHDC__@@PEAUtagExtentInfo@@PEAUtagSIZE@@@Z 0000000180002cb4 f i CashDrawer.obj
 0001:00001cfc       ?GetWindow@?$IOleInPlaceObjectWindowlessImpl@VCOPOSCashDrawer@@@ATL@@UEAAJPEAPEAUHWND__@@@Z 0000000180002cfc f i CashDrawer.obj
 0001:00001d50       ?InPlaceDeactivate@?$IOleInPlaceObjectWindowlessImpl@VCOPOSCashDrawer@@@ATL@@UEAAJXZ 0000000180002d50 f i CashDrawer.obj
 0001:00001d6c       ?UIDeactivate@?$IOleInPlaceObjectWindowlessImpl@VCOPOSCashDrawer@@@ATL@@UEAAJXZ 0000000180002d6c f i CashDrawer.obj
 0001:00001d88       ?SetObjectRects@?$IOleInPlaceObjectWindowlessImpl@VCOPOSCashDrawer@@@ATL@@UEAAJPEBUtagRECT@@0@Z 0000000180002d88 f i CashDrawer.obj
 0001:00001da4       ?OnWindowMessage@?$IOleInPlaceObjectWindowlessImpl@VCOPOSCashDrawer@@@ATL@@UEAAJI_K_JPEA_J@Z 0000000180002da4 f i CashDrawer.obj
 0001:00001e6c       ?EnumConnectionPoints@?$IConnectionPointContainerImpl@VCOPOSCashDrawer@@@ATL@@UEAAJPEAPEAUIEnumConnectionPoints@@@Z 0000000180002e6c f i CashDrawer.obj
 0001:000020b4       ?FindConnectionPoint@?$IConnectionPointContainerImpl@VCOPOSCashDrawer@@@ATL@@UEAAJAEBU_GUID@@PEAPEAUIConnectionPoint@@@Z 00000001800030b4 f i CashDrawer.obj
 0001:00002184       ?IsDirty@?$IPersistStorageImpl@VCOPOSCashDrawer@@@ATL@@UEAAJXZ 0000000180003184 f i CashDrawer.obj
 0001:000021c4       ?InitNew@?$IPersistStorageImpl@VCOPOSCashDrawer@@@ATL@@UEAAJPEAUIStorage@@@Z 00000001800031c4 f i CashDrawer.obj
 0001:00002204       ?Load@?$IPersistStorageImpl@VCOPOSCashDrawer@@@ATL@@UEAAJPEAUIStorage@@@Z 0000000180003204 f i CashDrawer.obj
 0001:000022a4       ?Save@?$IPersistStorageImpl@VCOPOSCashDrawer@@@ATL@@UEAAJPEAUIStorage@@H@Z 00000001800032a4 f i CashDrawer.obj
 0001:00002354       ?GetPages@?$ISpecifyPropertyPagesImpl@VCOPOSCashDrawer@@@ATL@@UEAAJPEAUtagCAUUID@@@Z 0000000180003354 f i CashDrawer.obj
 0001:00002360       ?QuickActivate@?$IQuickActivateImpl@VCOPOSCashDrawer@@@ATL@@UEAAJPEAUtagQACONTAINER@@PEAUtagQACONTROL@@@Z 0000000180003360 f i CashDrawer.obj
 0001:0000237c       ?SetContentExtent@?$IQuickActivateImpl@VCOPOSCashDrawer@@@ATL@@UEAAJPEAUtagSIZE@@@Z 000000018000337c f i CashDrawer.obj
 0001:000023b0       ?GetContentExtent@?$IQuickActivateImpl@VCOPOSCashDrawer@@@ATL@@UEAAJPEAUtagSIZE@@@Z 00000001800033b0 f i CashDrawer.obj
 0001:000023e8       ?GetData@?$IDataObjectImpl@VCOPOSCashDrawer@@@ATL@@UEAAJPEAUtagFORMATETC@@PEAUtagSTGMEDIUM@@@Z 00000001800033e8 f i CashDrawer.obj
 0001:00002404       ?DAdvise@?$IDataObjectImpl@VCOPOSCashDrawer@@@ATL@@UEAAJPEAUtagFORMATETC@@KPEAUIAdviseSink@@PEAK@Z 0000000180003404 f i CashDrawer.obj
 0001:0000248c       ?DUnadvise@?$IDataObjectImpl@VCOPOSCashDrawer@@@ATL@@UEAAJK@Z 000000018000348c f i CashDrawer.obj
 0001:000024b8       ?EnumDAdvise@?$IDataObjectImpl@VCOPOSCashDrawer@@@ATL@@UEAAJPEAPEAUIEnumSTATDATA@@@Z 00000001800034b8 f i CashDrawer.obj
 0001:000024f4       ?GetClassInfoW@?$IProvideClassInfo2Impl@$1?CLSID_OPOSCashDrawer@@3U_GUID@@B$1?DIID__IOPOSCashDrawerEvents@@3U2@B$1?LIBID_OposCashDrawer_CCO@@3U2@B$00$0A@VCComTypeInfoHolder@ATL@@@ATL@@UEAAJPEAPEAUITypeInfo@@@Z 00000001800034f4 f i CashDrawer.obj
 0001:0000254c       ?GetGUID@?$IProvideClassInfo2Impl@$1?CLSID_OPOSCashDrawer@@3U_GUID@@B$1?DIID__IOPOSCashDrawerEvents@@3U2@B$1?LIBID_OposCashDrawer_CCO@@3U2@B$00$0A@VCComTypeInfoHolder@ATL@@@ATL@@UEAAJKPEAU_GUID@@@Z 000000018000354c f i CashDrawer.obj
 0001:00002580       ?FAccessAllowed@?$IObjectSafetyImpl@VCOPOSCashDrawer@@$02@ATL@@MEAAHXZ 0000000180003580 f i CashDrawer.obj
 0001:00002580       ?AddRef@CRegObject@ATL@@UEAAKXZ 0000000180003580 f i CashDrawer.obj
 0001:00002580       _get_startup_argv_mode     0000000180003580 f i LIBCMT:argv_mode.obj
 0001:00002588       ?GetInterfaceSafetyOptions@?$IObjectSafetyImpl@VCOPOSCashDrawer@@$02@ATL@@UEAAJAEBU_GUID@@PEAK1@Z 0000000180003588 f i CashDrawer.obj
 0001:0000261c       ?SetInterfaceSafetyOptions@?$IObjectSafetyImpl@VCOPOSCashDrawer@@$02@ATL@@UEAAJAEBU_GUID@@KK@Z 000000018000361c f i CashDrawer.obj
 0001:000026c0       ?_LocCPQueryInterface@?$IConnectionPointImpl@VCOPOSCashDrawer@@$1?IID_IPropertyNotifySink@@3U_GUID@@BVCComDynamicUnkArray@ATL@@@ATL@@UEAAJAEBU_GUID@@PEAPEAX@Z 00000001800036c0 f i CashDrawer.obj
 0001:000026c0       ?_LocCPQueryInterface@?$IConnectionPointImpl@VCOPOSCashDrawer@@$1?DIID__IOPOSCashDrawerEvents@@3U_GUID@@BVCComDynamicUnkArray@ATL@@@ATL@@UEAAJAEBU_GUID@@PEAPEAX@Z 00000001800036c0 f i CashDrawer.obj
 0001:00002734       ?GetConnectionInterface@?$IConnectionPointImpl@VCOPOSCashDrawer@@$1?IID_IPropertyNotifySink@@3U_GUID@@BVCComDynamicUnkArray@ATL@@@ATL@@UEAAJPEAU_GUID@@@Z 0000000180003734 f i CashDrawer.obj
 0001:00002750       ?GetConnectionPointContainer@?$IConnectionPointImpl@VCOPOSCashDrawer@@$1?IID_IPropertyNotifySink@@3U_GUID@@BVCComDynamicUnkArray@ATL@@@ATL@@UEAAJPEAPEAUIConnectionPointContainer@@@Z 0000000180003750 f i CashDrawer.obj
 0001:00002770       ?Advise@?$IConnectionPointImpl@VCOPOSCashDrawer@@$1?IID_IPropertyNotifySink@@3U_GUID@@BVCComDynamicUnkArray@ATL@@@ATL@@UEAAJPEAUIUnknown@@PEAK@Z 0000000180003770 f i CashDrawer.obj
 0001:00002770       ?Advise@?$IConnectionPointImpl@VCOPOSCashDrawer@@$1?DIID__IOPOSCashDrawerEvents@@3U_GUID@@BVCComDynamicUnkArray@ATL@@@ATL@@UEAAJPEAUIUnknown@@PEAK@Z 0000000180003770 f i CashDrawer.obj
 0001:0000282c       ?Unadvise@?$IConnectionPointImpl@VCOPOSCashDrawer@@$1?IID_IPropertyNotifySink@@3U_GUID@@BVCComDynamicUnkArray@ATL@@@ATL@@UEAAJK@Z 000000018000382c f i CashDrawer.obj
 0001:0000282c       ?Unadvise@?$IConnectionPointImpl@VCOPOSCashDrawer@@$1?DIID__IOPOSCashDrawerEvents@@3U_GUID@@BVCComDynamicUnkArray@ATL@@@ATL@@UEAAJK@Z 000000018000382c f i CashDrawer.obj
 0001:00002894       ?EnumConnections@?$IConnectionPointImpl@VCOPOSCashDrawer@@$1?DIID__IOPOSCashDrawerEvents@@3U_GUID@@BVCComDynamicUnkArray@ATL@@@ATL@@UEAAJPEAPEAUIEnumConnections@@@Z 0000000180003894 f i CashDrawer.obj
 0001:00002894       ?EnumConnections@?$IConnectionPointImpl@VCOPOSCashDrawer@@$1?IID_IPropertyNotifySink@@3U_GUID@@BVCComDynamicUnkArray@ATL@@@ATL@@UEAAJPEAPEAUIEnumConnections@@@Z 0000000180003894 f i CashDrawer.obj
 0001:00002a28       ?GetConnectionInterface@?$IConnectionPointImpl@VCOPOSCashDrawer@@$1?DIID__IOPOSCashDrawerEvents@@3U_GUID@@BVCComDynamicUnkArray@ATL@@@ATL@@UEAAJPEAU_GUID@@@Z 0000000180003a28 f i CashDrawer.obj
 0001:00002a44       ?GetConnectionPointContainer@?$IConnectionPointImpl@VCOPOSCashDrawer@@$1?DIID__IOPOSCashDrawerEvents@@3U_GUID@@BVCComDynamicUnkArray@ATL@@@ATL@@UEAAJPEAPEAUIConnectionPointContainer@@@Z 0000000180003a44 f i CashDrawer.obj
 0001:00002a64       ?Lock@CAtlModule@ATL@@UEAAJXZ 0000000180003a64 f i CashDrawer.obj
 0001:00002a74       ?Unlock@CAtlModule@ATL@@UEAAJXZ 0000000180003a74 f i CashDrawer.obj
 0001:00002a80       ?GetLockCount@CAtlModule@ATL@@UEAAJXZ 0000000180003a80 f i CashDrawer.obj
 0001:00002a84       ?GetGITPtr@CAtlModule@ATL@@UEAAJPEAPEAUIGlobalInterfaceTable@@@Z 0000000180003a84 f i CashDrawer.obj
 0001:00002af4       ?UpdateRegistry@COPOSCashDrawer@@SAJH@Z 0000000180003af4 f i CashDrawer.obj
 0001:00002b0c       ?ProcessWindowMessage@COPOSCashDrawer@@UEAAHPEAUHWND__@@I_K_JAEA_JK@Z 0000000180003b0c f i CashDrawer.obj
 0001:00002b9c       ?SODirectIO@COPOSCashDrawer@@MEAAJJPEAJPEAPEA_W@Z 0000000180003b9c f i CashDrawer.obj
 0001:00002c14       ?SOStatusUpdate@COPOSCashDrawer@@MEAAJJ@Z 0000000180003c14 f i CashDrawer.obj
 0001:00002c64       ?AddCommonRGSReplacements@?$CAtlModuleT@VCComModule@ATL@@@ATL@@UEAAJPEAUIRegistrarBase@@@Z 0000000180003c64 f i CashDrawer.obj
 0001:00002c7c       ?UpdateRegistryFromResourceD@CComModule@ATL@@UEAAJIHPEAU_ATL_REGMAP_ENTRY@2@@Z 0000000180003c7c f i CashDrawer.obj
 0001:00002c7c       ?UpdateRegistryFromResourceD@CComModule@ATL@@UEAAJPEB_WHPEAU_ATL_REGMAP_ENTRY@2@@Z 0000000180003c7c f i CashDrawer.obj
 0001:00002c84       ?UpdateRegistryFromResource@CComModule@ATL@@UEAAJPEB_WHPEAU_ATL_REGMAP_ENTRY@2@@Z 0000000180003c84 f i CashDrawer.obj
 0001:00002c8c       ?UpdateRegistryFromResource@CComModule@ATL@@UEAAJIHPEAU_ATL_REGMAP_ENTRY@2@@Z 0000000180003c8c f i CashDrawer.obj
 0001:00002c94       ??_ECComModule@ATL@@UEAAPEAXI@Z 0000000180003c94 f i CashDrawer.obj
 0001:00002c94       ??_GCComModule@ATL@@UEAAPEAXI@Z 0000000180003c94 f i CashDrawer.obj
 0001:00002cd4       ?CreateInstance@?$CComCreator@V?$CComObjectCached@VCComClassFactory@ATL@@@ATL@@@ATL@@SAJPEAXAEBU_GUID@@PEAPEAX@Z 0000000180003cd4 f i CashDrawer.obj
 0001:00002df8       ?CreateInstance@?$CComCreator2@V?$CComCreator@V?$CComObject@VCOPOSCashDrawer@@@ATL@@@ATL@@V?$CComCreator@V?$CComAggObject@VCOPOSCashDrawer@@@ATL@@@2@@ATL@@SAJPEAXAEBU_GUID@@PEAPEAX@Z 0000000180003df8 f i CashDrawer.obj
 0001:00002e08       ?AddRef@?$CComObjectCached@VCComClassFactory@ATL@@@ATL@@UEAAKXZ 0000000180003e08 f i CashDrawer.obj
 0001:00002e34       ?Release@?$CComObjectCached@VCComClassFactory@ATL@@@ATL@@UEAAKXZ 0000000180003e34 f i CashDrawer.obj
 0001:00002e74       ?QueryInterface@?$CComObjectCached@VCComClassFactory@ATL@@@ATL@@UEAAJAEBU_GUID@@PEAPEAX@Z 0000000180003e74 f i CashDrawer.obj
 0001:00002e88       ??_E?$CComObjectCached@VCComClassFactory@ATL@@@ATL@@UEAAPEAXI@Z 0000000180003e88 f i CashDrawer.obj
 0001:00002e88       ??_G?$CComObjectCached@VCComClassFactory@ATL@@@ATL@@UEAAPEAXI@Z 0000000180003e88 f i CashDrawer.obj
 0001:00002ee0       ?Next@?$CComEnumImpl@UIEnumConnectionPoints@@$1?_GUID_b196b285_bab4_101a_b69c_00aa00341d07@@3U__s_GUID@@BPEAUIConnectionPoint@@V?$_CopyInterface@UIConnectionPoint@@@ATL@@@ATL@@UEAAJKPEAPEAUIConnectionPoint@@PEAK@Z 0000000180003ee0 f i CashDrawer.obj
 0001:00002fa4       ?Skip@?$CComEnumImpl@UIEnumConnectionPoints@@$1?_GUID_b196b285_bab4_101a_b69c_00aa00341d07@@3U__s_GUID@@BPEAUIConnectionPoint@@V?$_CopyInterface@UIConnectionPoint@@@ATL@@@ATL@@UEAAJK@Z 0000000180003fa4 f i CashDrawer.obj
 0001:00002fd0       ?Clone@?$CComEnumImpl@UIEnumConnectionPoints@@$1?_GUID_b196b285_bab4_101a_b69c_00aa00341d07@@3U__s_GUID@@BPEAUIConnectionPoint@@V?$_CopyInterface@UIConnectionPoint@@@ATL@@@ATL@@UEAAJPEAPEAUIEnumConnectionPoints@@@Z 0000000180003fd0 f i CashDrawer.obj
 0001:000030fc       ?QueryInterface@?$CComObject@V?$CComEnum@UIEnumConnectionPoints@@$1?_GUID_b196b285_bab4_101a_b69c_00aa00341d07@@3U__s_GUID@@BPEAUIConnectionPoint@@V?$_CopyInterface@UIConnectionPoint@@@ATL@@VCComSingleThreadModel@6@@ATL@@@ATL@@UEAAJAEBU_GUID@@PEAPEAX@Z 00000001800040fc f i CashDrawer.obj
 0001:00003110       ??_E?$CComObject@V?$CComEnum@UIEnumConnectionPoints@@$1?_GUID_b196b285_bab4_101a_b69c_00aa00341d07@@3U__s_GUID@@BPEAUIConnectionPoint@@V?$_CopyInterface@UIConnectionPoint@@@ATL@@VCComSingleThreadModel@6@@ATL@@@ATL@@UEAAPEAXI@Z 0000000180004110 f i CashDrawer.obj
 0001:00003110       ??_G?$CComObject@V?$CComEnum@UIEnumConnectionPoints@@$1?_GUID_b196b285_bab4_101a_b69c_00aa00341d07@@3U__s_GUID@@BPEAUIConnectionPoint@@V?$_CopyInterface@UIConnectionPoint@@@ATL@@VCComSingleThreadModel@6@@ATL@@@ATL@@UEAAPEAXI@Z 0000000180004110 f i CashDrawer.obj
 0001:00003168       ?AddReplacement@CRegObject@ATL@@UEAAJPEB_W0@Z 0000000180004168 f i CashDrawer.obj
 0001:00003198       ?ClearReplacements@CRegObject@ATL@@UEAAJXZ 0000000180004198 f i CashDrawer.obj
 0001:000031a4       ??_ECRegObject@ATL@@UEAAPEAXI@Z 00000001800041a4 f i CashDrawer.obj
 0001:000031a4       ??_GCRegObject@ATL@@UEAAPEAXI@Z 00000001800041a4 f i CashDrawer.obj
 0001:00003224       ?AddRef@?$CComAggObject@VCOPOSCashDrawer@@@ATL@@UEAAKXZ 0000000180004224 f i CashDrawer.obj
 0001:00003230       ?Release@?$CComAggObject@VCOPOSCashDrawer@@@ATL@@UEAAKXZ 0000000180004230 f i CashDrawer.obj
 0001:00003284       ?QueryInterface@?$CComAggObject@VCOPOSCashDrawer@@@ATL@@UEAAJAEBU_GUID@@PEAPEAX@Z 0000000180004284 f i CashDrawer.obj
 0001:000032e4       ?AddRef@?$CComContainedObject@VCOPOSCashDrawer@@@ATL@@UEAAKXZ 00000001800042e4 f i CashDrawer.obj
 0001:000032f4       ?Release@?$CComContainedObject@VCOPOSCashDrawer@@@ATL@@UEAAKXZ 00000001800042f4 f i CashDrawer.obj
 0001:00003304       ?QueryInterface@?$CComContainedObject@VCOPOSCashDrawer@@@ATL@@UEAAJAEBU_GUID@@PEAPEAX@Z 0000000180004304 f i CashDrawer.obj
 0001:00003314       ??_G?$CComAggObject@VCOPOSCashDrawer@@@ATL@@UEAAPEAXI@Z 0000000180004314 f i CashDrawer.obj
 0001:00003314       ??_E?$CComAggObject@VCOPOSCashDrawer@@@ATL@@UEAAPEAXI@Z 0000000180004314 f i CashDrawer.obj
 0001:0000336c       ?AddRef@?$CComObject@VCOPOSCashDrawer@@@ATL@@UEAAKXZ 000000018000436c f i CashDrawer.obj
 0001:0000337c       ?Release@?$CComObject@VCOPOSCashDrawer@@@ATL@@UEAAKXZ 000000018000437c f i CashDrawer.obj
 0001:000033d4       ?QueryInterface@?$CComObject@VCOPOSCashDrawer@@@ATL@@UEAAJAEBU_GUID@@PEAPEAX@Z 00000001800043d4 f i CashDrawer.obj
 0001:000033e8       ?OnDrawAdvanced@CComControlBase@ATL@@UEAAJAEAUATL_DRAWINFO@@@Z 00000001800043e8 f i CashDrawer.obj
 0001:00003574       ??$AtlModuleRegisterWndClassInfoT@VAtlModuleRegisterWndClassInfoParamW@ATL@@@ATL@@YAGPEAU_ATL_BASE_MODULE70@0@PEAU_ATL_WIN_MODULE70@0@PEAU_ATL_WNDCLASSINFOW@0@PEAP6A_JPEAUHWND__@@I_K_J@ZVAtlModuleRegisterWndClassInfoParamW@0@@Z 0000000180004574 f i CashDrawer.obj
 0001:00003774       ??0?$CComContainedObject@VCOPOSCashDrawer@@@ATL@@QEAA@PEAX@Z 0000000180004774 f i CashDrawer.obj
 0001:00003890       ??0?$CComObject@VCOPOSCashDrawer@@@ATL@@QEAA@PEAX@Z 0000000180004890 f i CashDrawer.obj
 0001:000039a8       ??0CAtlModule@ATL@@QEAA@XZ 00000001800049a8 f i CashDrawer.obj
 0001:00003a1c       ??1?$CComEnumImpl@UIEnumConnectionPoints@@$1?_GUID_b196b285_bab4_101a_b69c_00aa00341d07@@3U__s_GUID@@BPEAUIConnectionPoint@@V?$_CopyInterface@UIConnectionPoint@@@ATL@@@ATL@@UEAA@XZ 0000000180004a1c f i CashDrawer.obj
 0001:00003a74       ??1?$CComEnumImpl@UIEnumConnections@@$1?_GUID_b196b287_bab4_101a_b69c_00aa00341d07@@3U__s_GUID@@BUtagCONNECTDATA@@V?$_Copy@UtagCONNECTDATA@@@ATL@@@ATL@@UEAA@XZ 0000000180004a74 f i CashDrawer.obj
 0001:00003acc       ??1?$CComObject@VCOPOSCashDrawer@@@ATL@@UEAA@XZ 0000000180004acc f i CashDrawer.obj
 0001:00003bec       ??_G?$CComContainedObject@VCOPOSCashDrawer@@@ATL@@UEAAPEAXI@Z 0000000180004bec f i CashDrawer.obj
 0001:00003bec       ??_E?$CComContainedObject@VCOPOSCashDrawer@@@ATL@@UEAAPEAXI@Z 0000000180004bec f i CashDrawer.obj
 0001:00003c20       ??_G?$CComObject@VCOPOSCashDrawer@@@ATL@@UEAAPEAXI@Z 0000000180004c20 f i CashDrawer.obj
 0001:00003c20       ??_E?$CComObject@VCOPOSCashDrawer@@@ATL@@UEAAPEAXI@Z 0000000180004c20 f i CashDrawer.obj
 0001:00003c54       ?Add@?$CSimpleArray@GV?$CSimpleArrayEqualHelper@G@ATL@@@ATL@@QEAAHAEBG@Z 0000000180004c54 f i CashDrawer.obj
 0001:00003cf4       ?Add@?$CSimpleMap@PEA_WPEA_WVCExpansionVectorEqualHelper@ATL@@@ATL@@QEAAHAEBQEA_W0@Z 0000000180004cf4 f i CashDrawer.obj
 0001:00003d90       ?Add@CComDynamicUnkArray@ATL@@QEAAKPEAUIUnknown@@@Z 0000000180004d90 f i CashDrawer.obj
 0001:00003e74       ?Add@CExpansionVector@ATL@@QEAAHPEB_W0@Z 0000000180004e74 f i CashDrawer.obj
 0001:00003fa8       ?AddTermFunc@CAtlModule@ATL@@QEAAJP6AX_K@Z0@Z 0000000180004fa8 f i CashDrawer.obj
 0001:00004044       ?AddValue@CRegParser@ATL@@IEAAJAEAVCRegKey@2@PEB_WPEA_W@Z 0000000180005044 f i CashDrawer.obj
 0001:00004454       ?AllocateHeap@?$CTempBuffer@_W$0EAA@VCCRTAllocator@ATL@@@ATL@@AEAAX_K@Z 0000000180005454 f i CashDrawer.obj
 0001:00004454       ?AllocateHeap@?$CTempBuffer@E$0BAA@VCCRTAllocator@ATL@@@ATL@@AEAAX_K@Z 0000000180005454 f i CashDrawer.obj
 0001:00004454       ?AllocateHeap@?$CTempBuffer@_W$0BAA@VCCRTAllocator@ATL@@@ATL@@AEAAX_K@Z 0000000180005454 f i CashDrawer.obj
 0001:00004480       ?Append@CParseBuffer@CRegParser@ATL@@QEAAHPEB_WH@Z 0000000180005480 f i CashDrawer.obj
 0001:000045b4       ?AtlComModuleGetClassObject@ATL@@YAJPEAU_ATL_COM_MODULE70@1@AEBU_GUID@@1PEAPEAX@Z 00000001800055b4 f i CashDrawer.obj
 0001:000046f0       ?AtlComModuleRegisterServer@ATL@@YAJPEAU_ATL_COM_MODULE70@1@HPEBU_GUID@@@Z 00000001800056f0 f i CashDrawer.obj
 0001:000047b0       ?AtlComModuleUnregisterServer@ATL@@YAJPEAU_ATL_COM_MODULE70@1@HPEBU_GUID@@@Z 00000001800057b0 f i CashDrawer.obj
 0001:0000486c       ?AtlHiMetricToPixel@ATL@@YAXPEBUtagSIZE@@PEAU2@@Z 000000018000586c f i CashDrawer.obj
 0001:0000491c       ?AtlHresultFromLastError@ATL@@YAJXZ 000000018000591c f i CashDrawer.obj
 0001:0000493c       ?AtlHresultFromWin32@ATL@@YAJK@Z 000000018000593c f i CashDrawer.obj
 0001:0000494c       ?AtlInternalOleLoadFromStream@ATL@@YAJPEAUIStream@@AEBU_GUID@@PEAPEAXTClassesAllowedInStream@1@K@Z 000000018000594c f i CashDrawer.obj
 0001:00004a9c       ?AtlInternalQueryInterface@ATL@@YAJPEAXPEBU_ATL_INTMAP_ENTRY@1@AEBU_GUID@@PEAPEAX@Z 0000000180005a9c f i CashDrawer.obj
 0001:00004ba4       ?AtlLoadTypeLib@ATL@@YAJPEAUHINSTANCE__@@PEB_WPEAPEA_WPEAPEAUITypeLib@@@Z 0000000180005ba4 f i CashDrawer.obj
 0001:00004e00       ?AtlRegisterClassCategoriesHelper@ATL@@YAJAEBU_GUID@@PEBU_ATL_CATMAP_ENTRY@1@H@Z 0000000180005e00 f i CashDrawer.obj
 0001:00005284       ?AtlRegisterTypeLib@ATL@@YAJPEAUHINSTANCE__@@PEB_W@Z 0000000180006284 f i CashDrawer.obj
 0001:00005480       ?AtlThrowImpl@ATL@@YAXJ@Z  0000000180006480 f i CashDrawer.obj
 0001:000054a4       ?AtlUnRegisterTypeLib@ATL@@YAJPEAUHINSTANCE__@@PEB_W@Z 00000001800064a4 f i CashDrawer.obj
 0001:0000556c       ?AtlWinModuleExtractCreateWndData@ATL@@YAPEAXPEAU_ATL_WIN_MODULE70@1@@Z 000000018000656c f i CashDrawer.obj
 0001:000055f8       ?ChToByte@CRegParser@ATL@@KAE_W@Z 00000001800065f8 f i CashDrawer.obj
 0001:00005684       ?Cleanup@CComTypeInfoHolder@ATL@@SAX_K@Z 0000000180006684 f i CashDrawer.obj
 0001:000056c4       ?ClearReplacements@CExpansionVector@ATL@@QEAAJXZ 00000001800066c4 f i CashDrawer.obj
 0001:00005760       ?CreateInstance@?$CComCreator@V?$CComAggObject@VCOPOSCashDrawer@@@ATL@@@ATL@@SAJPEAXAEBU_GUID@@PEAPEAX@Z 0000000180006760 f i CashDrawer.obj
 0001:00005844       ?CreateInstance@?$CComCreator@V?$CComObject@VCOPOSCashDrawer@@@ATL@@@ATL@@SAJPEAXAEBU_GUID@@PEAPEAX@Z 0000000180006844 f i CashDrawer.obj
 0001:00005904       ?CreateInstance@?$CComObject@V?$CComEnum@UIEnumConnectionPoints@@$1?_GUID_b196b285_bab4_101a_b69c_00aa00341d07@@3U__s_GUID@@BPEAUIConnectionPoint@@V?$_CopyInterface@UIConnectionPoint@@@ATL@@VCComSingleThreadModel@6@@ATL@@@ATL@@SAJPEAPEAV12@@Z 0000000180006904 f i CashDrawer.obj
 0001:00005994       ?CreateInstance@?$CComObject@V?$CComEnum@UIEnumConnections@@$1?_GUID_b196b287_bab4_101a_b69c_00aa00341d07@@3U__s_GUID@@BUtagCONNECTDATA@@V?$_Copy@UtagCONNECTDATA@@@ATL@@VCComSingleThreadModel@6@@ATL@@@ATL@@SAJPEAPEAV12@@Z 0000000180006994 f i CashDrawer.obj
 0001:00005a24       ?DefaultReflectionHandler@?$CWindowImplRoot@VCWindow@ATL@@@ATL@@SAHPEAUHWND__@@I_K_JAEA_J@Z 0000000180006a24 f i CashDrawer.obj
 0001:00005ab8       ?DeleteSubKey@CRegKey@ATL@@QEAAJPEB_W@Z 0000000180006ab8 f i CashDrawer.obj
 0001:00005b50       ?DoEvent@COPOSCashDrawer@@IEAAXI_K_J@Z 0000000180006b50 f i CashDrawer.obj
 0001:00005c04       ?DoVerbPrimary@?$IOleObjectImpl@VCOPOSCashDrawer@@@ATL@@QEAAJPEBUtagRECT@@PEAUHWND__@@@Z 0000000180006c04 f i CashDrawer.obj
 0001:00005d30       ?DoVerbProperties@CComControlBase@ATL@@QEAAJPEBUtagRECT@@PEAUHWND__@@@Z 0000000180006d30 f i CashDrawer.obj
 0001:00005f58       ?FireTheEvent@?$CProxy_IOPOSEvents@VCOPOSCashDrawer@@@@IEAAXPEAVOposVariant@@IAEAJPEB_WJ@Z 0000000180006f58 f i CashDrawer.obj
 0001:00006044       ?FireViewChange@CComControlBase@ATL@@QEAAJXZ 0000000180007044 f i CashDrawer.obj
 0001:000060a8       ?Fire_DirectIOEvent@?$CProxy_IOPOSEvents@VCOPOSCashDrawer@@@@QEAAXJPEAJPEAPEA_W@Z 00000001800070a8 f i CashDrawer.obj
 0001:00006208       ?Fire_StatusUpdateEvent@?$CProxy_IOPOSEvents@VCOPOSCashDrawer@@@@QEAAXJ@Z 0000000180007208 f i CashDrawer.obj
 0001:000062f4       ?FreeHeap@?$CTempBuffer@_W$0BAA@VCCRTAllocator@ATL@@@ATL@@AEAAXXZ 00000001800072f4 f i CashDrawer.obj
 0001:000062f4       ?FreeHeap@?$CTempBuffer@_W$0EAA@VCCRTAllocator@ATL@@@ATL@@AEAAXXZ 00000001800072f4 f i CashDrawer.obj
 0001:000062f4       ?FreeHeap@?$CTempBuffer@E$0BAA@VCCRTAllocator@ATL@@@ATL@@AEAAXXZ 00000001800072f4 f i CashDrawer.obj
 0001:000062fc       ?GetAmbientLocaleID@CComControlBase@ATL@@QEAAJAEAK@Z 00000001800072fc f i CashDrawer.obj
 0001:000063bc       ?GetAmbientUserMode@CComControlBase@ATL@@QEAAJAEAH@Z 00000001800073bc f i CashDrawer.obj
 0001:0000648c       ?GetClassObject@CComModule@ATL@@QEAAJAEBU_GUID@@0PEAPEAX@Z 000000018000748c f i CashDrawer.obj
 0001:00006580       ?GetConnMap@COPOSCashDrawer@@SAPEBU_ATL_CONNMAP_ENTRY@ATL@@PEAH@Z 0000000180007580 f i CashDrawer.obj
 0001:00006608       ?GetIDsOfNames@CComTypeInfoHolder@ATL@@QEAAJAEBU_GUID@@PEAPEA_WIKPEAJ@Z 0000000180007608 f i CashDrawer.obj
 0001:00006778       ?GetPagesHelper@?$ISpecifyPropertyPagesImpl@VCOPOSCashDrawer@@@ATL@@IEAAJPEAUtagCAUUID@@PEBUATL_PROPMAP_ENTRY@2@@Z 0000000180007778 f i CashDrawer.obj
 0001:00006918       ?GetSizeMax@CComVariant@ATL@@QEBAJPEAT_ULARGE_INTEGER@@@Z 0000000180007918 f i CashDrawer.obj
 0001:00006b48       ?GetTI@CComTypeInfoHolder@ATL@@QEAAJK@Z 0000000180007b48 f i CashDrawer.obj
 0001:00006e2c       ?GetZoomInfo@CComControlBase@ATL@@QEAAXAEAUATL_DRAWINFO@@@Z 0000000180007e2c f i CashDrawer.obj
 0001:00006ed0       ?HKeyFromString@CRegParser@ATL@@KAPEAUHKEY__@@PEA_W@Z 0000000180007ed0 f i CashDrawer.obj
 0001:00006f34       ?IDataObject_GetData@CComControlBase@ATL@@QEAAJPEAUtagFORMATETC@@PEAUtagSTGMEDIUM@@@Z 0000000180007f34 f i CashDrawer.obj
 0001:00007128       ?IOleInPlaceObject_InPlaceDeactivate@CComControlBase@ATL@@QEAAJXZ 0000000180008128 f i CashDrawer.obj
 0001:000071c8       ?IOleInPlaceObject_SetObjectRects@CComControlBase@ATL@@QEAAJPEBUtagRECT@@0@Z 00000001800081c8 f i CashDrawer.obj
 0001:000072b8       ?IOleInPlaceObject_UIDeactivate@CComControlBase@ATL@@QEAAJXZ 00000001800082b8 f i CashDrawer.obj
 0001:000073c4       ?IOleObject_Close@CComControlBase@ATL@@QEAAJK@Z 00000001800083c4 f i CashDrawer.obj
 0001:000074dc       ?IOleObject_SetClientSite@CComControlBase@ATL@@QEAAJPEAUIOleClientSite@@@Z 00000001800084dc f i CashDrawer.obj
 0001:00007550       ?IOleObject_SetExtent@CComControlBase@ATL@@QEAAJKPEAUtagSIZE@@@Z 0000000180008550 f i CashDrawer.obj
 0001:000075e8       ?IPSI_GetIPersistStreamInit@?$IPersistStorageImpl@VCOPOSCashDrawer@@@ATL@@AEAAPEAUIPersistStreamInit@@XZ 00000001800085e8 f i CashDrawer.obj
 0001:000076d0       ?IPersistStreamInit_Load@?$IPersistStreamInitImpl@VCOPOSCashDrawer@@@ATL@@QEAAJPEAUIStream@@PEBUATL_PROPMAP_ENTRY@2@@Z 00000001800086d0 f i CashDrawer.obj
 0001:000079f8       ?IPersistStreamInit_Save@?$IPersistStreamInitImpl@VCOPOSCashDrawer@@@ATL@@QEAAJPEAUIStream@@HPEBUATL_PROPMAP_ENTRY@2@@Z 00000001800089f8 f i CashDrawer.obj
 0001:00007c94       ?IQuickActivate_QuickActivate@CComControlBase@ATL@@QEAAJPEAUtagQACONTAINER@@PEAUtagQACONTROL@@@Z 0000000180008c94 f i CashDrawer.obj
 0001:00007f58       ?IViewObject_Draw@CComControlBase@ATL@@QEAAJKJPEAXPEAUtagDVTARGETDEVICE@@PEAUHDC__@@2PEBU_RECTL@@3@Z 0000000180008f58 f i CashDrawer.obj
 0001:0000806c       ?InPlaceActivate@CComControlBase@ATL@@QEAAJJPEBUtagRECT@@@Z 000000018000906c f i CashDrawer.obj
 0001:0000839c       ?Init@?$CComEnumImpl@UIEnumConnectionPoints@@$1?_GUID_b196b285_bab4_101a_b69c_00aa00341d07@@3U__s_GUID@@BPEAUIConnectionPoint@@V?$_CopyInterface@UIConnectionPoint@@@ATL@@@ATL@@QEAAJPEAPEAUIConnectionPoint@@0PEAUIUnknown@@W4CComEnumFlags@2@@Z 000000018000939c f i CashDrawer.obj
 0001:000084b8       ?Init@?$CComEnumImpl@UIEnumConnections@@$1?_GUID_b196b287_bab4_101a_b69c_00aa00341d07@@3U__s_GUID@@BUtagCONNECTDATA@@V?$_Copy@UtagCONNECTDATA@@@ATL@@@ATL@@QEAAJPEAUtagCONNECTDATA@@0PEAUIUnknown@@W4CComEnumFlags@2@@Z 00000001800094b8 f i CashDrawer.obj
 0001:000085d8       ?IsEqualObject@?$CComPtrBase@UIOleClientSite@@@ATL@@QEAA_NPEAUIUnknown@@@Z 00000001800095d8 f i CashDrawer.obj
 0001:00008664       ?LoadNameCache@CComTypeInfoHolder@ATL@@QEAAJPEAUITypeInfo@@@Z 0000000180009664 f i CashDrawer.obj
 0001:000087f4       ?Lookup@?$CSimpleMap@PEA_WPEA_WVCExpansionVectorEqualHelper@ATL@@@ATL@@QEBAPEA_WAEBQEA_W@Z 00000001800097f4 f i CashDrawer.obj
 0001:0000887c       ?NextToken@CRegParser@ATL@@IEAAJPEA_W@Z 000000018000987c f i CashDrawer.obj
 0001:00008a18       ?OnKillFocus@CComControlBase@ATL@@QEAA_JI_K_JAEAH@Z 0000000180009a18 f i CashDrawer.obj
 0001:00008ab4       ?OnMouseActivate@CComControlBase@ATL@@QEAA_JI_K_JAEAH@Z 0000000180009ab4 f i CashDrawer.obj
 0001:00008b54       ?OnPaint@CComControlBase@ATL@@QEAA_JI_K_JAEAH@Z 0000000180009b54 f i CashDrawer.obj
 0001:00008c40       ?OnSetFocus@CComControlBase@ATL@@QEAA_JI_K_JAEAH@Z 0000000180009c40 f i CashDrawer.obj
 0001:00008d48       ?PreProcessBuffer@CRegParser@ATL@@QEAAJPEA_WPEAPEA_W@Z 0000000180009d48 f i CashDrawer.obj
 0001:000090d0       ?ProcessWindowMessage@?$CComControl@VCOPOSCashDrawer@@V?$CWindowImpl@VCOPOSCashDrawer@@VCWindow@ATL@@V?$CWinTraits@$0FGAAAAAA@$0A@@3@@ATL@@@ATL@@UEAAHPEAUHWND__@@I_K_JAEA_JK@Z 000000018000a0d0 f i CashDrawer.obj
 0001:000091bc       ?ReadFromStream@CComBSTR@ATL@@QEAAJPEAUIStream@@@Z 000000018000a1bc f i CashDrawer.obj
 0001:0000930c       ?ReadFromStream@CComVariant@ATL@@QEAAJPEAUIStream@@GTClassesAllowedInStream@2@K@Z 000000018000a30c f i CashDrawer.obj
 0001:00009550       ?RecurseDeleteKey@CRegKey@ATL@@QEAAJPEB_W@Z 000000018000a550 f i CashDrawer.obj
 0001:000096a8       ?RegCreateKeyExW@CAtlTransactionManager@ATL@@QEAAJPEAUHKEY__@@PEB_WKPEA_WKKQEAU_SECURITY_ATTRIBUTES@@PEAPEAU3@PEAK@Z 000000018000a6a8 f i CashDrawer.obj
 0001:000097dc       ?RegDeleteKeyW@CAtlTransactionManager@ATL@@QEAAJPEAUHKEY__@@PEB_W@Z 000000018000a7dc f i CashDrawer.obj
 0001:00009868       ?RegOpenKeyExW@CAtlTransactionManager@ATL@@QEAAJPEAUHKEY__@@PEB_WKKPEAPEAU3@@Z 000000018000a868 f i CashDrawer.obj
 0001:00009920       ?RegisterBuffer@CRegParser@ATL@@QEAAJPEA_WH@Z 000000018000a920 f i CashDrawer.obj
 0001:00009a8c       ?RegisterFromResource@CRegObject@ATL@@IEAAJPEB_W00H@Z 000000018000aa8c f i CashDrawer.obj
 0001:00009c48       ?RegisterServer@CComModule@ATL@@QEAAJHPEBU_GUID@@@Z 000000018000ac48 f i CashDrawer.obj
 0001:00009d04       ?RegisterSubkeys@CRegParser@ATL@@IEAAJPEA_WPEAUHKEY__@@HH@Z 000000018000ad04 f i CashDrawer.obj
 0001:0000a584       ?SendOnDataChange@CComControlBase@ATL@@QEAAJK@Z 000000018000b584 f i CashDrawer.obj
 0001:0000a5f4       ?SetControlFocus@CComControlBase@ATL@@QEAAHH@Z 000000018000b5f4 f i CashDrawer.obj
 0001:0000a6c4       ?SkipAssignment@CRegParser@ATL@@IEAAJPEA_W@Z 000000018000b6c4 f i CashDrawer.obj
 0001:0000a77c       ?Term@CAtlModule@ATL@@QEAAXXZ 000000018000b77c f i CashDrawer.obj
 0001:0000a834       ?Term@CComModule@ATL@@QEAAXXZ 000000018000b834 f i CashDrawer.obj
 0001:0000a8b0       ?UnregisterServer@CComModule@ATL@@QEAAJHPEBU_GUID@@@Z 000000018000b8b0 f i CashDrawer.obj
 0001:0000a960       ?UpdateRegistryFromResource@CAtlModule@ATL@@QEAAJIHPEAU_ATL_REGMAP_ENTRY@2@@Z 000000018000b960 f i CashDrawer.obj
 0001:0000ac6c       ?UpdateRegistryFromResource@CAtlModule@ATL@@QEAAJPEB_WHPEAU_ATL_REGMAP_ENTRY@2@@Z 000000018000bc6c f i CashDrawer.obj
 0001:0000af90       ?VTFromRegType@CRegParser@ATL@@KAHPEB_WAEAG@Z 000000018000bf90 f i CashDrawer.obj
 0001:0000b02c       ?WindowProc@?$CWindowImplBaseT@VCWindow@ATL@@V?$CWinTraits@$0FGAAAAAA@$0A@@2@@ATL@@SA_JPEAUHWND__@@I_K_J@Z 000000018000c02c f i CashDrawer.obj
 0001:0000b198       ?WriteToStream@CComVariant@ATL@@QEAAJPEAUIStream@@@Z 000000018000c198 f i CashDrawer.obj
 0001:0000b404       ?WriteToStream@CComVariant@ATL@@QEAAJPEAUIStream@@G@Z 000000018000c404 f i CashDrawer.obj
 0001:0000b49c       ?_AtlVerifyStackAvailable@_ATL_SAFE_ALLOCA_IMPL@ATL@@YA_N_K@Z 000000018000c49c f i CashDrawer.obj
 0001:0000b520       ?atlCreate@?$CWindowImpl@VCOPOSCashDrawer@@VCWindow@ATL@@V?$CWinTraits@$0FGAAAAAA@$0A@@3@@ATL@@QEAAPEAUHWND__@@PEAU3@V_U_RECT@2@PEB_WKKV_U_MENUorID@2@PEAX@Z 000000018000c520 f i CashDrawer.obj
 0001:0000b5dc       ?atlCreate@?$CWindowImplBaseT@VCWindow@ATL@@V?$CWinTraits@$0FGAAAAAA@$0A@@2@@ATL@@QEAAPEAUHWND__@@PEAU3@V_U_RECT@2@PEB_WKKV_U_MENUorID@2@GPEAX@Z 000000018000c5dc f i CashDrawer.obj
 0001:0000b74c       ?ocscpy_s@@YA_NPEA_W_KPEB_W@Z 000000018000c74c f i CashDrawer.obj
 0001:0000b7fc       DllCanUnloadNow            000000018000c7fc f   CashDrawer.obj
 0001:0000b808       DllGetClassObject          000000018000c808 f   CashDrawer.obj
 0001:0000b820       DllMain                    000000018000c820 f   CashDrawer.obj
 0001:0000b8c8       DllRegisterServer          000000018000c8c8 f   CashDrawer.obj
 0001:0000b8dc       DllUnregisterServer        000000018000c8dc f   CashDrawer.obj
 0001:0000b8f0       __local_stdio_printf_options 000000018000c8f0 f i CashDrawer.obj
 0001:0000b8f8       swprintf_s                 000000018000c8f8 f i CashDrawer.obj
 0001:0000b94c       ??0COPOSCashDrawer@@QEAA@XZ 000000018000c94c f   CashDrawerImpl.obj
 0001:0000ba08       ??1?$IConnectionPointImpl@VCOPOSCashDrawer@@$1?DIID__IOPOSCashDrawerEvents@@3U_GUID@@BVCComDynamicUnkArray@ATL@@@ATL@@QEAA@XZ 000000018000ca08 f i CashDrawerImpl.obj
 0001:0000ba08       ??1?$IConnectionPointImpl@VCOPOSCashDrawer@@$1?IID_IPropertyNotifySink@@3U_GUID@@BVCComDynamicUnkArray@ATL@@@ATL@@QEAA@XZ 000000018000ca08 f i CashDrawerImpl.obj
 0001:0000ba64       ??1CComControlBase@ATL@@UEAA@XZ 000000018000ca64 f i CashDrawerImpl.obj
 0001:0000bae0       ??1COPOSCashDrawer@@UEAA@XZ 000000018000cae0 f   CashDrawerImpl.obj
 0001:0000bb44       ?CheckHealth@COPOSCashDrawer@@UEAAJJPEAJ@Z 000000018000cb44 f   CashDrawerImpl.obj
 0001:0000bbc0       ?ClaimDevice@COPOSCashDrawer@@UEAAJJPEAJ@Z 000000018000cbc0 f   CashDrawerImpl.obj
 0001:0000bc58       ?Close@COPOSCashDrawer@@UEAAJPEAJ@Z 000000018000cc58 f   CashDrawerImpl.obj
 0001:0000bd10       ?CompareFirmwareVersion@COPOSCashDrawer@@UEAAJPEA_WPEAJ1@Z 000000018000cd10 f   CashDrawerImpl.obj
 0001:0000bdec       ?DirectIO@COPOSCashDrawer@@UEAAJJPEAJPEAPEA_W0@Z 000000018000cdec f   CashDrawerImpl.obj
 0001:0000bee8       ?DoInvoke@COPOSCashDrawer@@IEAAJJPEAVOposVariant@@IHPEAJ_N@Z 000000018000cee8 f   CashDrawerImpl.obj
 0001:0000c01c       ?EventInit@COPOSCashDrawer@@IEAAJXZ 000000018000d01c f i CashDrawerImpl.obj
 0001:0000c16c       ?EventUninit@COPOSCashDrawer@@IEAAXXZ 000000018000d16c f i CashDrawerImpl.obj
 0001:0000c1d0       ?EventWindowProc@COPOSCashDrawer@@IEAA_JI_K_J@Z 000000018000d1d0 f i CashDrawerImpl.obj
 0001:0000c294       ?FinalConstruct@COPOSCashDrawer@@QEAAJXZ 000000018000d294 f   CashDrawerImpl.obj
 0001:0000c2d0       ?FreezeEvents@COPOSCashDrawer@@MEAAJH@Z 000000018000d2d0 f   CashDrawerImpl.obj
 0001:0000c33c       ?GetOposProp@COPOSCashDrawer@@IEAAJJPEAJJ@Z 000000018000d33c f   CashDrawerImpl.obj
 0001:0000c458       ?GetOposProp@COPOSCashDrawer@@IEAAJJPEAPEA_WJ@Z 000000018000d458 f   CashDrawerImpl.obj
 0001:0000c584       ?OnDraw@COPOSCashDrawer@@MEAAJAEAUATL_DRAWINFO@@@Z 000000018000d584 f   CashDrawerImpl.obj
 0001:0000c670       ?Open@COPOSCashDrawer@@UEAAJPEA_WPEAJ@Z 000000018000d670 f   CashDrawerImpl.obj
 0001:0000cee4       ?OpenDrawer@COPOSCashDrawer@@UEAAJPEAJ@Z 000000018000dee4 f   CashDrawerImpl.obj
 0001:0000cf0c       ?ReleaseDevice@COPOSCashDrawer@@UEAAJPEAJ@Z 000000018000df0c f   CashDrawerImpl.obj
 0001:0000cf50       ?ResetStatistics@COPOSCashDrawer@@UEAAJPEA_WPEAJ@Z 000000018000df50 f   CashDrawerImpl.obj
 0001:0000cfd8       ?RetrieveStatistics@COPOSCashDrawer@@UEAAJPEAPEA_WPEAJ@Z 000000018000dfd8 f   CashDrawerImpl.obj
 0001:0000d060       ?SOProcessID@COPOSCashDrawer@@UEAAJPEAJ@Z 000000018000e060 f   CashDrawerImpl.obj
 0001:0000d07c       ?SetCOFreezeEvents@COPOSCashDrawer@@IEAAXF@Z 000000018000e07c f   CashDrawerImpl.obj
 0001:0000d160       ?SetOposProp@COPOSCashDrawer@@IEAAJJJJ@Z 000000018000e160 f   CashDrawerImpl.obj
 0001:0000d2c0       ?UpdateFirmware@COPOSCashDrawer@@UEAAJPEA_WPEAJ@Z 000000018000e2c0 f   CashDrawerImpl.obj
 0001:0000d348       ?UpdateStatistics@COPOSCashDrawer@@UEAAJPEA_WPEAJ@Z 000000018000e348 f   CashDrawerImpl.obj
 0001:0000d3d0       ?WaitForDrawerClose@COPOSCashDrawer@@UEAAJJJJJPEAJ@Z 000000018000e3d0 f   CashDrawerImpl.obj
 0001:0000d4cc       ?get_BinaryConversion@COPOSCashDrawer@@UEAAJPEAJ@Z 000000018000e4cc f   CashDrawerImpl.obj
 0001:0000d4e0       ?get_CapCompareFirmwareVersion@COPOSCashDrawer@@UEAAJPEAF@Z 000000018000e4e0 f   CashDrawerImpl.obj
 0001:0000d514       ?get_CapPowerReporting@COPOSCashDrawer@@UEAAJPEAJ@Z 000000018000e514 f   CashDrawerImpl.obj
 0001:0000d528       ?get_CapStatisticsReporting@COPOSCashDrawer@@UEAAJPEAF@Z 000000018000e528 f   CashDrawerImpl.obj
 0001:0000d55c       ?get_CapStatus@COPOSCashDrawer@@UEAAJPEAF@Z 000000018000e55c f   CashDrawerImpl.obj
 0001:0000d58c       ?get_CapStatusMultiDrawerDetect@COPOSCashDrawer@@UEAAJPEAF@Z 000000018000e58c f   CashDrawerImpl.obj
 0001:0000d5c0       ?get_CapUpdateFirmware@COPOSCashDrawer@@UEAAJPEAF@Z 000000018000e5c0 f   CashDrawerImpl.obj
 0001:0000d5f4       ?get_CapUpdateStatistics@COPOSCashDrawer@@UEAAJPEAF@Z 000000018000e5f4 f   CashDrawerImpl.obj
 0001:0000d628       ?get_CheckHealthText@COPOSCashDrawer@@UEAAJPEAPEA_W@Z 000000018000e628 f   CashDrawerImpl.obj
 0001:0000d638       ?get_Claimed@COPOSCashDrawer@@UEAAJPEAF@Z 000000018000e638 f   CashDrawerImpl.obj
 0001:0000d668       ?get_ControlObjectDescription@COPOSCashDrawer@@UEAAJPEAPEA_W@Z 000000018000e668 f   CashDrawerImpl.obj
 0001:0000d6cc       ?get_ControlObjectVersion@COPOSCashDrawer@@UEAAJPEAJ@Z 000000018000e6cc f   CashDrawerImpl.obj
 0001:0000d6d8       ?get_DeviceDescription@COPOSCashDrawer@@UEAAJPEAPEA_W@Z 000000018000e6d8 f   CashDrawerImpl.obj
 0001:0000d6e8       ?get_DeviceEnabled@COPOSCashDrawer@@UEAAJPEAF@Z 000000018000e6e8 f   CashDrawerImpl.obj
 0001:0000d718       ?get_DeviceName@COPOSCashDrawer@@UEAAJPEAPEA_W@Z 000000018000e718 f   CashDrawerImpl.obj
 0001:0000d728       ?get_DrawerOpened@COPOSCashDrawer@@UEAAJPEAF@Z 000000018000e728 f   CashDrawerImpl.obj
 0001:0000d758       ?get_FreezeEvents@COPOSCashDrawer@@UEAAJPEAF@Z 000000018000e758 f   CashDrawerImpl.obj
 0001:0000d788       ?get_OpenResult@COPOSCashDrawer@@UEAAJPEAJ@Z 000000018000e788 f   CashDrawerImpl.obj
 0001:0000d794       ?get_PowerNotify@COPOSCashDrawer@@UEAAJPEAJ@Z 000000018000e794 f   CashDrawerImpl.obj
 0001:0000d7a8       ?get_PowerState@COPOSCashDrawer@@UEAAJPEAJ@Z 000000018000e7a8 f   CashDrawerImpl.obj
 0001:0000d7bc       ?get_ResultCode@COPOSCashDrawer@@UEAAJPEAJ@Z 000000018000e7bc f   CashDrawerImpl.obj
 0001:0000d7f8       ?get_ResultCodeExtended@COPOSCashDrawer@@UEAAJPEAJ@Z 000000018000e7f8 f   CashDrawerImpl.obj
 0001:0000d808       ?get_ServiceObjectDescription@COPOSCashDrawer@@UEAAJPEAPEA_W@Z 000000018000e808 f   CashDrawerImpl.obj
 0001:0000d818       ?get_ServiceObjectVersion@COPOSCashDrawer@@UEAAJPEAJ@Z 000000018000e818 f   CashDrawerImpl.obj
 0001:0000d828       ?get_State@COPOSCashDrawer@@UEAAJPEAJ@Z 000000018000e828 f   CashDrawerImpl.obj
 0001:0000d854       ?put_BinaryConversion@COPOSCashDrawer@@UEAAJJ@Z 000000018000e854 f   CashDrawerImpl.obj
 0001:0000d868       ?put_DeviceEnabled@COPOSCashDrawer@@UEAAJF@Z 000000018000e868 f   CashDrawerImpl.obj
 0001:0000d880       ?put_FreezeEvents@COPOSCashDrawer@@UEAAJF@Z 000000018000e880 f   CashDrawerImpl.obj
 0001:0000d8d0       ?put_PowerNotify@COPOSCashDrawer@@UEAAJJ@Z 000000018000e8d0 f   CashDrawerImpl.obj
 0001:0000d8e4       ?s_EventWindowProc@COPOSCashDrawer@@KA_JPEAUHWND__@@I_K_J@Z 000000018000e8e4 f i CashDrawerImpl.obj
 0001:0000d960       ??_U@YAPEAX_K@Z            000000018000e960 f   LIBCMT:new_array.obj
 0001:0000d968       ??_V@YAXPEAX@Z             000000018000e968 f   LIBCMT:delete_array.obj
 0001:0000d968       ??3@YAXPEAX_K@Z            000000018000e968 f   LIBCMT:delete_scalar_size.obj
 0001:0000d970       ??_V@YAXPEAX_K@Z           000000018000e970 f   LIBCMT:delete_array_size.obj
 0001:0000d978       __scrt_acquire_startup_lock 000000018000e978 f   LIBCMT:utility.obj
 0001:0000d9b4       __scrt_dllmain_after_initialize_c 000000018000e9b4 f   LIBCMT:utility.obj
 0001:0000d9e8       __scrt_dllmain_before_initialize_c 000000018000e9e8 f   LIBCMT:utility.obj
 0001:0000da00       __scrt_dllmain_crt_thread_attach 000000018000ea00 f   LIBCMT:utility.obj
 0001:0000da28       __scrt_dllmain_crt_thread_detach 000000018000ea28 f   LIBCMT:utility.obj
 0001:0000da40       __scrt_dllmain_exception_filter 000000018000ea40 f   LIBCMT:utility.obj
 0001:0000daa0       __scrt_dllmain_uninitialize_c 000000018000eaa0 f   LIBCMT:utility.obj
 0001:0000dad0       __scrt_dllmain_uninitialize_critical 000000018000ead0 f   LIBCMT:utility.obj
 0001:0000dae4       __scrt_initialize_crt      000000018000eae4 f   LIBCMT:utility.obj
 0001:0000db30       __scrt_initialize_onexit_tables 000000018000eb30 f   LIBCMT:utility.obj
 0001:0000dbbc       __scrt_is_nonwritable_in_current_image 000000018000ebbc f   LIBCMT:utility.obj
 0001:0000dc54       __scrt_release_startup_lock 000000018000ec54 f   LIBCMT:utility.obj
 0001:0000dc78       __scrt_uninitialize_crt    000000018000ec78 f   LIBCMT:utility.obj
 0001:0000dca4       _onexit                    000000018000eca4 f   LIBCMT:utility.obj
 0001:0000dce0       atexit                     000000018000ece0 f   LIBCMT:utility.obj
 0001:0000dcf8       ??3@YAXPEAX@Z              000000018000ecf8 f   LIBCMT:delete_scalar.obj
 0001:0000ddf8       _Init_thread_footer        000000018000edf8 f   LIBCMT:thread_safe_statics.obj
 0001:0000de58       _Init_thread_header        000000018000ee58 f   LIBCMT:thread_safe_statics.obj
 0001:0000dec0       _Init_thread_notify        000000018000eec0 f   LIBCMT:thread_safe_statics.obj
 0001:0000df04       _Init_thread_wait          000000018000ef04 f   LIBCMT:thread_safe_statics.obj
 0001:0000df68       __raise_securityfailure    000000018000ef68 f   LIBCMT:gs_report.obj
 0001:0000df9c       __report_gsfailure         000000018000ef9c f   LIBCMT:gs_report.obj
 0001:0000e070       __report_rangecheckfailure 000000018000f070 f   LIBCMT:gs_report.obj
 0001:0000e084       __report_securityfailure   000000018000f084 f   LIBCMT:gs_report.obj
 0001:0000e204       ??2@YAPEAX_KAEBUnothrow_t@std@@@Z 000000018000f204 f   LIBCMT:new_scalar_nothrow.obj
 0001:0000e218       ??_U@YAPEAX_KAEBUnothrow_t@std@@@Z 000000018000f218 f   LIBCMT:new_array_nothrow.obj
 0001:0000e220       __GSHandlerCheck           000000018000f220 f   LIBCMT:gshandler.obj
 0001:0000e240       __GSHandlerCheckCommon     000000018000f240 f   LIBCMT:gshandler.obj
 0001:0000e29c       __GSHandlerCheck_SEH       000000018000f29c f   LIBCMT:gshandlerseh.obj
 0001:0000e340       __chkstk                   000000018000f340 f   LIBCMT:chkstk.obj
 0001:0000e340       _alloca_probe              000000018000f340 f   LIBCMT:chkstk.obj
 0001:0000e3a0       __security_check_cookie    000000018000f3a0 f   LIBCMT:amdsecgs.obj
 0001:0000e6e0       _DllMainCRTStartup         000000018000f6e0 f   LIBCMT:dll_dllmain.obj
 0001:0000e720       ??2@YAPEAX_K@Z             000000018000f720 f   LIBCMT:new_scalar.obj
 0001:0000e75c       __isa_available_init       000000018000f75c f   LIBCMT:cpu_disp.obj
 0001:0000e900       __scrt_is_ucrt_dll_in_use  000000018000f900 f   LIBCMT:ucrt_detection.obj
 0001:0000e90c       __crt_debugger_hook        000000018000f90c f   LIBCMT:utility_desktop.obj
 0001:0000e914       __scrt_fastfail            000000018000f914 f   LIBCMT:utility_desktop.obj
 0001:0000ea60       __security_init_cookie     000000018000fa60 f   LIBCMT:gs_support.obj
 0001:0000eb0c       ?__scrt_initialize_type_info@@YAXXZ 000000018000fb0c f   LIBCMT:tncleanup.obj
 0001:0000eb1c       ?__scrt_uninitialize_type_info@@YAXXZ 000000018000fb1c f   LIBCMT:tncleanup.obj
 0001:0000eb28       __local_stdio_scanf_options 000000018000fb28 f i LIBCMT:default_local_stdio_options.obj
 0001:0000eb30       __scrt_initialize_default_local_stdio_options 000000018000fb30 f   LIBCMT:default_local_stdio_options.obj
 0001:0000eb4c       __scrt_get_dyn_tls_init_callback 000000018000fb4c f   LIBCMT:dyn_tls_init.obj
 0001:0000eb54       _RTC_Initialize            000000018000fb54 f   LIBCMT:initsect.obj
 0001:0000eb90       _RTC_Terminate             000000018000fb90 f   LIBCMT:initsect.obj
 0001:0000ebcc       ??0bad_alloc@std@@QEAA@AEBV01@@Z 000000018000fbcc f i LIBCMT:throw_bad_alloc.obj
 0001:0000ec08       ??0bad_alloc@std@@QEAA@XZ  000000018000fc08 f i LIBCMT:throw_bad_alloc.obj
 0001:0000ec28       ??0bad_array_new_length@std@@QEAA@AEBV01@@Z 000000018000fc28 f i LIBCMT:throw_bad_alloc.obj
 0001:0000ec64       ??0bad_array_new_length@std@@QEAA@XZ 000000018000fc64 f i LIBCMT:throw_bad_alloc.obj
 0001:0000ec84       ??0exception@std@@QEAA@AEBV01@@Z 000000018000fc84 f i LIBCMT:throw_bad_alloc.obj
 0001:0000ecb8       ??1bad_array_new_length@std@@UEAA@XZ 000000018000fcb8 f i LIBCMT:throw_bad_alloc.obj
 0001:0000ecb8       ??1bad_alloc@std@@UEAA@XZ  000000018000fcb8 f i LIBCMT:throw_bad_alloc.obj
 0001:0000ecb8       ??1bad_exception@std@@UEAA@XZ 000000018000fcb8 f i libvcruntime:frame.obj
 0001:0000eccc       ??_Eexception@std@@UEAAPEAXI@Z 000000018000fccc f i LIBCMT:throw_bad_alloc.obj
 0001:0000eccc       ??_Ebad_exception@std@@UEAAPEAXI@Z 000000018000fccc f i libvcruntime:frame.obj
 0001:0000eccc       ??_Gexception@std@@UEAAPEAXI@Z 000000018000fccc f i LIBCMT:throw_bad_alloc.obj
 0001:0000eccc       ??_Ebad_array_new_length@std@@UEAAPEAXI@Z 000000018000fccc f i LIBCMT:throw_bad_alloc.obj
 0001:0000eccc       ??_Gbad_array_new_length@std@@UEAAPEAXI@Z 000000018000fccc f i LIBCMT:throw_bad_alloc.obj
 0001:0000eccc       ??_Gbad_alloc@std@@UEAAPEAXI@Z 000000018000fccc f i LIBCMT:throw_bad_alloc.obj
 0001:0000eccc       ??_Gbad_exception@std@@UEAAPEAXI@Z 000000018000fccc f i libvcruntime:frame.obj
 0001:0000eccc       ??_Ebad_alloc@std@@UEAAPEAXI@Z 000000018000fccc f i LIBCMT:throw_bad_alloc.obj
 0001:0000ed10       ?__scrt_throw_std_bad_alloc@@YAXXZ 000000018000fd10 f   LIBCMT:throw_bad_alloc.obj
 0001:0000ed30       ?__scrt_throw_std_bad_array_new_length@@YAXXZ 000000018000fd30 f   LIBCMT:throw_bad_alloc.obj
 0001:0000ed50       ?what@exception@std@@UEBAPEBDXZ 000000018000fd50 f i LIBCMT:throw_bad_alloc.obj
 0001:0000ed70       ??_Etype_info@@UEAAPEAXI@Z 000000018000fd70 f i LIBCMT:std_type_info_static.obj
 0001:0000ed70       ??_Gtype_info@@UEAAPEAXI@Z 000000018000fd70 f i LIBCMT:std_type_info_static.obj
 0001:0000ed9c       ??0CAtlBaseModule@ATL@@QEAA@XZ 000000018000fd9c f   atls:atlbase.obj
 0001:0000ee44       ??1CAtlBaseModule@ATL@@QEAA@XZ 000000018000fe44 f   atls:atlbase.obj
 0001:0000ef78       ?__AllocStdCallThunk_cmn@@YAPEAXXZ 000000018000ff78 f   atls:atlthunk.obj
 0001:0000f0d0       AtlThunk_AllocateData      00000001800100d0 f   atls:atlthunk.obj
 0001:0000f14c       AtlThunk_DataToCode        000000018001014c f   atls:atlthunk.obj
 0001:0000f1a0       AtlThunk_FreeData          00000001800101a0 f   atls:atlthunk.obj
 0001:0000f200       AtlThunk_InitData          0000000180010200 f   atls:atlthunk.obj
 0001:0000f2a8       _get_purecall_handler      00000001800102a8 f   libvcruntime:purevirt.obj
 0001:0000f2b4       _purecall                  00000001800102b4 f   libvcruntime:purevirt.obj
 0001:0000f2d0       wcsstr                     00000001800102d0 f   libvcruntime:wcsstr.obj
 0001:0000f500       memcmp                     0000000180010500 f   libvcruntime:memcmp.obj
 0001:0000f5e0       memcpy_repmovs             00000001800105e0 f   libvcruntime:memcpy.obj
 0001:0000f600       memcpy                     0000000180010600 f   libvcruntime:memcpy.obj
 0001:0000f600       memmove                    0000000180010600 f   libvcruntime:memcpy.obj
 0001:0000fc90       memset_repmovs             0000000180010c90 f   libvcruntime:memset.obj
 0001:0000fcb0       memset                     0000000180010cb0 f   libvcruntime:memset.obj
 0001:0000fe40       __vcrt_initialize          0000000180010e40 f   libvcruntime:initialization.obj
 0001:0000fe68       __vcrt_thread_attach       0000000180010e68 f   libvcruntime:initialization.obj
 0001:0000fe7c       __vcrt_thread_detach       0000000180010e7c f   libvcruntime:initialization.obj
 0001:0000fe90       __vcrt_uninitialize        0000000180010e90 f   libvcruntime:initialization.obj
 0001:0000feac       __vcrt_uninitialize_critical 0000000180010eac f   libvcruntime:initialization.obj
 0001:0000febc       __C_specific_handler       0000000180010ebc f   libvcruntime:riscchandler.obj
 0001:000100b4       ??$_CallSETranslator@V__FrameHandler3@@@@YAHPEAUEHExceptionRecord@@PEA_KPEAU_CONTEXT@@PEAU_xDISPATCHER_CONTEXT@@PEBU_s_FuncInfo@@K1H@Z 00000001800110b4 f i libvcruntime:risctrnsctrl.obj
 0001:00010108       ??$_CallSETranslator@V__FrameHandler4@@@@YAHPEAUEHExceptionRecord@@PEA_KPEAU_CONTEXT@@PEAU_xDISPATCHER_CONTEXT@@PEAUFuncInfo4@FH4@@K1H@Z 0000000180011108 f i libvcruntime:risctrnsctrl.obj
 0001:0001015c       ?CatchTryBlock@__FrameHandler3@@SAPEBU_s_TryBlockMapEntry@@PEBU_s_FuncInfo@@H@Z 000000018001115c f   libvcruntime:risctrnsctrl.obj
 0001:000101c0       ?DecompFuncInfo@FH4@@YA_JPEAEAEAUFuncInfo4@1@_KH_N@Z 00000001800111c0 f i libvcruntime:risctrnsctrl.obj
 0001:000102e4       ?ExecutionInCatch@__FrameHandler3@@SA_NPEAU_xDISPATCHER_CONTEXT@@PEBU_s_FuncInfo@@@Z 00000001800112e4 f   libvcruntime:risctrnsctrl.obj
 0001:00010310       ?ExecutionInCatch@__FrameHandler4@@SA_NPEAU_xDISPATCHER_CONTEXT@@PEAUFuncInfo4@FH4@@@Z 0000000180011310 f   libvcruntime:risctrnsctrl.obj
 0001:00010318       ?FrameUnwindToEmptyState@__FrameHandler3@@SAXPEA_KPEAU_xDISPATCHER_CONTEXT@@PEBU_s_FuncInfo@@@Z 0000000180011318 f   libvcruntime:risctrnsctrl.obj
 0001:0001037c       ?FrameUnwindToEmptyState@__FrameHandler4@@SAXPEA_KPEAU_xDISPATCHER_CONTEXT@@PEAUFuncInfo4@FH4@@@Z 000000018001137c f   libvcruntime:risctrnsctrl.obj
 0001:000103b0       ?GetEstablisherFrame@__FrameHandler3@@SAPEA_KPEA_KPEAU_xDISPATCHER_CONTEXT@@PEBU_s_FuncInfo@@0@Z 00000001800113b0 f   libvcruntime:risctrnsctrl.obj
 0001:0001047c       ?GetEstablisherFrame@__FrameHandler4@@SAPEA_KPEA_KPEAU_xDISPATCHER_CONTEXT@@PEAUFuncInfo4@FH4@@0@Z 000000018001147c f   libvcruntime:risctrnsctrl.obj
 0001:000104a0       ?GetRangeOfTrysToCheck@__FrameHandler3@@SA?AU?$pair@Viterator@TryBlockMap@__FrameHandler3@@V123@@std@@AEAVTryBlockMap@1@HPEAU_xDISPATCHER_CONTEXT@@PEBU_s_FuncInfo@@H@Z 00000001800114a0 f   libvcruntime:risctrnsctrl.obj
 0001:000105e0       ?GetRangeOfTrysToCheck@__FrameHandler4@@SA?AU?$pair@Viterator@TryBlockMap4@FH4@@V123@@std@@AEAVTryBlockMap4@FH4@@HPEAU_xDISPATCHER_CONTEXT@@PEAUFuncInfo4@5@H@Z 00000001800115e0 f   libvcruntime:risctrnsctrl.obj
 0001:0001074c       ?UnwindNestedFrames@__FrameHandler3@@SAXPEA_KPEAUEHExceptionRecord@@PEAU_CONTEXT@@0PEAXPEBU_s_FuncInfo@@HHPEBU_s_HandlerType@@PEAU_xDISPATCHER_CONTEXT@@E@Z 000000018001174c f   libvcruntime:risctrnsctrl.obj
 0001:00010850       ?UnwindNestedFrames@__FrameHandler4@@SAXPEA_KPEAUEHExceptionRecord@@PEAU_CONTEXT@@0PEAXPEAUFuncInfo4@FH4@@HHPEAUHandlerType4@5@PEAU_xDISPATCHER_CONTEXT@@E@Z 0000000180011850 f   libvcruntime:risctrnsctrl.obj
 0001:00010970       ?setBuffer@TryBlockMap4@FH4@@QEAAXViterator@12@@Z 0000000180011970 f i libvcruntime:risctrnsctrl.obj
 0001:00010b34       _CreateFrameInfo           0000000180011b34 f   libvcruntime:risctrnsctrl.obj
 0001:00010b70       _FindAndUnlinkFrame        0000000180011b70 f   libvcruntime:risctrnsctrl.obj
 0001:00010bc4       _GetImageBase              0000000180011bc4 f   libvcruntime:risctrnsctrl.obj
 0001:00010bd8       _GetThrowImageBase         0000000180011bd8 f   libvcruntime:risctrnsctrl.obj
 0001:00010bec       _SetImageBase              0000000180011bec f   libvcruntime:risctrnsctrl.obj
 0001:00010c04       _SetThrowImageBase         0000000180011c04 f   libvcruntime:risctrnsctrl.obj
 0001:00010c1c       __CxxFrameHandler3         0000000180011c1c f   libvcruntime:risctrnsctrl.obj
 0001:00010ca4       __CxxFrameHandler4         0000000180011ca4 f   libvcruntime:risctrnsctrl.obj
 0001:00010d64       __DestructExceptionObject  0000000180011d64 f   libvcruntime:ehhelpers.obj
 0001:00010dd4       ?_CallMemberFunction0@@YAXQEAX0@Z 0000000180011dd4 f i libvcruntime:ehhelpers.obj
 0001:00010dd8       _IsExceptionObjectToBeDestroyed 0000000180011dd8 f   libvcruntime:ehhelpers.obj
 0001:00010e08       __AdjustPointer            0000000180011e08 f   libvcruntime:ehhelpers.obj
 0001:00010e2c       __FrameUnwindFilter        0000000180011e2c f   libvcruntime:ehhelpers.obj
 0001:00010e94       __std_terminate            0000000180011e94 f   libvcruntime:ehhelpers.obj
 0001:00010ea0       __std_type_info_compare    0000000180011ea0 f   libvcruntime:std_type_info.obj
 0001:00010ec8       __std_type_info_destroy_list 0000000180011ec8 f   libvcruntime:std_type_info.obj
 0001:00010ef4       __std_exception_copy       0000000180011ef4 f   libvcruntime:std_exception.obj
 0001:00010f84       __std_exception_destroy    0000000180011f84 f   libvcruntime:std_exception.obj
 0001:00010fac       _CxxThrowException         0000000180011fac f   libvcruntime:throw.obj
 0001:0001104c       __vcrt_freefls             000000018001204c f   libvcruntime:per_thread_data.obj
 0001:0001106c       __vcrt_freeptd             000000018001206c f   libvcruntime:per_thread_data.obj
 0001:000110bc       __vcrt_getptd              00000001800120bc f   libvcruntime:per_thread_data.obj
 0001:000110d8       __vcrt_getptd_noexit       00000001800120d8 f   libvcruntime:per_thread_data.obj
 0001:00011198       __vcrt_initialize_ptd      0000000180012198 f   libvcruntime:per_thread_data.obj
 0001:000111e0       __vcrt_uninitialize_ptd    00000001800121e0 f   libvcruntime:per_thread_data.obj
 0001:00011204       __vcrt_initialize_locks    0000000180012204 f   libvcruntime:locks.obj
 0001:0001124c       __vcrt_uninitialize_locks  000000018001224c f   libvcruntime:locks.obj
 0001:000112a0       _NLG_Notify                00000001800122a0 f   libvcruntime:notify.obj
 0001:000112c0       __NLG_Dispatch2            00000001800122c0 f   libvcruntime:notify.obj
 0001:000112d0       __NLG_Return2              00000001800122d0 f   libvcruntime:notify.obj
 0001:000112d4       __except_validate_context_record 00000001800122d4 f   libvcruntime:jbcxrval.obj
 0001:0001130c       ?GetCurrentState@__FrameHandler3@@SAHPEA_KPEAU_xDISPATCHER_CONTEXT@@PEBU_s_FuncInfo@@@Z 000000018001230c f   libvcruntime:ehstate.obj
 0001:00011334       ?GetUnwindTryBlock@__FrameHandler3@@SAHPEA_KPEAU_xDISPATCHER_CONTEXT@@PEBU_s_FuncInfo@@@Z 0000000180012334 f   libvcruntime:ehstate.obj
 0001:00011360       ?SetState@__FrameHandler3@@SAXPEA_KPEBU_s_FuncInfo@@H@Z 0000000180012360 f   libvcruntime:ehstate.obj
 0001:0001136c       ?SetUnwindTryBlock@__FrameHandler3@@SAXPEA_KPEAU_xDISPATCHER_CONTEXT@@PEBU_s_FuncInfo@@H@Z 000000018001236c f   libvcruntime:ehstate.obj
 0001:000113a8       ?StateFromControlPc@__FrameHandler3@@SAHPEBU_s_FuncInfo@@PEAU_xDISPATCHER_CONTEXT@@@Z 00000001800123a8 f   libvcruntime:ehstate.obj
 0001:000113b0       ?StateFromControlPc@__FrameHandler4@@SAHPEAUFuncInfo4@FH4@@PEAU_xDISPATCHER_CONTEXT@@@Z 00000001800123b0 f   libvcruntime:ehstate.obj
 0001:000113b8       ?StateFromIp@__FrameHandler3@@SAHPEBU_s_FuncInfo@@PEAU_xDISPATCHER_CONTEXT@@_K@Z 00000001800123b8 f   libvcruntime:ehstate.obj
 0001:00011420       ?StateFromIp@__FrameHandler4@@SAHPEAUFuncInfo4@FH4@@PEAU_xDISPATCHER_CONTEXT@@_K@Z 0000000180012420 f   libvcruntime:ehstate.obj
 0001:00012b20       ??$TypeMatchHelper@V__FrameHandler3@@@@YAHPEBU_s_HandlerType@@PEBU_s_CatchableType@@PEBU_s_ThrowInfo@@@Z 0000000180013b20 f i libvcruntime:frame.obj
 0001:00012c60       ??$TypeMatchHelper@V__FrameHandler4@@@@YAHPEAUHandlerType4@FH4@@PEBU_s_CatchableType@@PEBU_s_ThrowInfo@@@Z 0000000180013c60 f i libvcruntime:frame.obj
 0001:00012da4       ??$__InternalCxxFrameHandler@V__FrameHandler3@@@@YA?AW4_EXCEPTION_DISPOSITION@@PEAUEHExceptionRecord@@PEA_KPEAU_CONTEXT@@PEAU_xDISPATCHER_CONTEXT@@PEBU_s_FuncInfo@@H1E@Z 0000000180013da4 f i libvcruntime:frame.obj
 0001:00012fdc       ??$__InternalCxxFrameHandler@V__FrameHandler4@@@@YA?AW4_EXCEPTION_DISPOSITION@@PEAUEHExceptionRecord@@PEA_KPEAU_CONTEXT@@PEAU_xDISPATCHER_CONTEXT@@PEAUFuncInfo4@FH4@@H1E@Z 0000000180013fdc f i libvcruntime:frame.obj
 0001:00013270       ??0HandlerMap4@FH4@@QEAA@PEBUTryBlockMapEntry4@1@_KH@Z 0000000180014270 f i libvcruntime:frame.obj
 0001:000132ec       ??0TryBlockMap4@FH4@@QEAA@PEBUFuncInfo4@1@_K@Z 00000001800142ec f i libvcruntime:frame.obj
 0001:000133c4       ??0bad_exception@std@@QEAA@AEBV01@@Z 00000001800143c4 f i libvcruntime:frame.obj
 0001:00013400       ??0bad_exception@std@@QEAA@XZ 0000000180014400 f i libvcruntime:frame.obj
 0001:00013420       ?CxxCallCatchBlock@__FrameHandler3@@SAPEAXPEAU_EXCEPTION_RECORD@@@Z 0000000180014420 f   libvcruntime:frame.obj
 0001:0001360c       ?CxxCallCatchBlock@__FrameHandler4@@SAPEAXPEAU_EXCEPTION_RECORD@@@Z 000000018001460c f   libvcruntime:frame.obj
 0001:0001385c       ?DecompHandler@HandlerMap4@FH4@@AEAAXXZ 000000018001485c f i libvcruntime:frame.obj
 0001:00013aa8       ?FrameUnwindToState@__FrameHandler3@@SAXPEA_KPEAU_xDISPATCHER_CONTEXT@@PEBU_s_FuncInfo@@H@Z 0000000180014aa8 f   libvcruntime:frame.obj
 0001:00013c34       ?FrameUnwindToState@__FrameHandler4@@SAXPEA_KPEAU_xDISPATCHER_CONTEXT@@PEAUFuncInfo4@FH4@@H@Z 0000000180014c34 f   libvcruntime:frame.obj
 0001:00013f30       ?GetHandlerSearchState@__FrameHandler3@@SAHPEA_KPEAU_xDISPATCHER_CONTEXT@@PEBU_s_FuncInfo@@@Z 0000000180014f30 f i libvcruntime:frame.obj
 0001:00014140       ?ReadEntry@UWMap4@FH4@@AEAAXPEAPEAE@Z 0000000180015140 f i libvcruntime:frame.obj
 0001:000141dc       ?_CallMemberFunction1@@YAXQEAX00@Z 00000001800151dc f i libvcruntime:frame.obj
 0001:000141e8       ?_CallMemberFunction2@@YAXQEAX00H@Z 00000001800151e8 f i libvcruntime:frame.obj
 0001:000141f8       ?getStartStop@UWMap4@FH4@@QEAAXHHAEAViterator@12@0@Z 00000001800151f8 f i libvcruntime:frame.obj
 0001:000142c8       ?getStateFromIterators@UWMap4@FH4@@SAHAEBViterator@12@H0H0@Z 00000001800152c8 f i libvcruntime:frame.obj
 0001:000144e4       __vcrt_FlsAlloc            00000001800154e4 f   libvcruntime:winapi_downlevel.obj
 0001:0001452c       __vcrt_FlsFree             000000018001552c f   libvcruntime:winapi_downlevel.obj
 0001:00014574       __vcrt_FlsGetValue         0000000180015574 f   libvcruntime:winapi_downlevel.obj
 0001:000145bc       __vcrt_FlsSetValue         00000001800155bc f   libvcruntime:winapi_downlevel.obj
 0001:00014610       __vcrt_InitializeCriticalSectionEx 0000000180015610 f   libvcruntime:winapi_downlevel.obj
 0001:00014690       _CallSettingFrame          0000000180015690 f   libvcruntime:handlers.obj
 0001:000146e0       _CallSettingFrame_LookupContinuationIndex 00000001800156e0 f   libvcruntime:handlers.obj
 0001:00014710       _CallSettingFrame_NotifyContinuationAddr 0000000180015710 f   libvcruntime:handlers.obj
 0001:00014740       _CallSettingFrameEncoded   0000000180015740 f   libvcruntime:handlers.obj
 0001:00014788       free                       0000000180015788 f   libucrt:free.obj
 0001:0001479c       ?get_raw_ptd@__crt_cached_ptd_host@@QEAAPEAU__acrt_ptd@@XZ 000000018001579c f i libucrt:invalid_parameter.obj
 0001:00014804       ?get_raw_ptd_noexit@__crt_cached_ptd_host@@QEAAPEAU__acrt_ptd@@XZ 0000000180015804 f i libucrt:invalid_parameter.obj
 0001:00014870       ?value@?$dual_state_global@P6AXPEB_W00I_K@Z@__crt_state_management@@QEAAAEAP6AXPEB_W00I_K@ZAEAV__crt_cached_ptd_host@@@Z 0000000180015870 f i libucrt:invalid_parameter.obj
 0001:000148bc       __acrt_call_reportfault    00000001800158bc f   libucrt:invalid_parameter.obj
 0001:00014a18       __acrt_initialize_invalid_parameter_handler 0000000180015a18 f   libucrt:invalid_parameter.obj
 0001:00014a20       _invalid_parameter         0000000180015a20 f   libucrt:invalid_parameter.obj
 0001:00014abc       _invalid_parameter_internal 0000000180015abc f   libucrt:invalid_parameter.obj
 0001:00014b8c       _invalid_parameter_noinfo  0000000180015b8c f   libucrt:invalid_parameter.obj
 0001:00014bac       _invoke_watson             0000000180015bac f   libucrt:invalid_parameter.obj
 0001:00014bf4       __acrt_errno_from_os_error 0000000180015bf4 f   libucrt:errno.obj
 0001:00014c3c       __acrt_errno_map_os_error  0000000180015c3c f   libucrt:errno.obj
 0001:00014c84       __acrt_errno_map_os_error_ptd 0000000180015c84 f   libucrt:errno.obj
 0001:00014ca8       __doserrno                 0000000180015ca8 f   libucrt:errno.obj
 0001:00014cc8       _errno                     0000000180015cc8 f   libucrt:errno.obj
 0001:00014ce8       calloc                     0000000180015ce8 f   libucrt:calloc.obj
 0001:00014cf0       malloc                     0000000180015cf0 f   libucrt:malloc.obj
 0001:00014cf8       _recalloc                  0000000180015cf8 f   libucrt:recalloc.obj
 0001:00014d00       _recalloc_base             0000000180015d00 f   libucrt:recalloc.obj
 0001:00014d98       _resetstkoflw              0000000180015d98 f   libucrt:resetstk.obj
 0001:00014ec4       wcscat_s                   0000000180015ec4 f   libucrt:wcscat_s.obj
 0001:00014f48       wcscpy_s                   0000000180015f48 f   libucrt:wcscpy_s.obj
 0001:00014fb0       wcsncpy_s                  0000000180015fb0 f   libucrt:wcsncpy_s.obj
 0001:00015264       ??$ensure_buffer_is_big_enough@D@formatting_buffer@__crt_stdio_output@@QEAA_N_KAEAV__crt_cached_ptd_host@@@Z 0000000180016264 f i libucrt:output.obj
 0001:0001530c       ??$ensure_buffer_is_big_enough@_W@formatting_buffer@__crt_stdio_output@@QEAA_N_KAEAV__crt_cached_ptd_host@@@Z 000000018001630c f i libucrt:output.obj
 0001:000153b8       ??$is_wide_character_specifier@_W@__crt_stdio_output@@YA_N_K_WW4length_modifier@0@@Z 00000001800163b8 f i libucrt:output.obj
 0001:000153f8       ??$parse_integer@KV?$c_string_character_source@_W@__crt_strtox@@$0A@@__crt_strtox@@YAKAEAV__crt_cached_ptd_host@@V?$c_string_character_source@_W@0@H_N@Z 00000001800163f8 f i libucrt:output.obj
 0001:00015b50       ??$type_case_integer@$07@?$output_processor@_WV?$string_output_adapter@_W@__crt_stdio_output@@V?$format_validation_base@_WV?$string_output_adapter@_W@__crt_stdio_output@@@2@@__crt_stdio_output@@AEAA_N_N@Z 0000000180016b50 f i libucrt:output.obj
 0001:00015d3c       ??$type_case_integer@$09@?$output_processor@_WV?$string_output_adapter@_W@__crt_stdio_output@@V?$format_validation_base@_WV?$string_output_adapter@_W@__crt_stdio_output@@@2@@__crt_stdio_output@@AEAA_N_N@Z 0000000180016d3c f i libucrt:output.obj
 0001:00015f28       ??$type_case_integer@$0BA@@?$output_processor@_WV?$string_output_adapter@_W@__crt_stdio_output@@V?$format_validation_base@_WV?$string_output_adapter@_W@__crt_stdio_output@@@2@@__crt_stdio_output@@AEAA_N_N@Z 0000000180016f28 f i libucrt:output.obj
 0001:00016114       ??$type_case_integer_parse_into_buffer@I$07@?$output_processor@_WV?$string_output_adapter@_W@__crt_stdio_output@@V?$format_validation_base@_WV?$string_output_adapter@_W@__crt_stdio_output@@@2@@__crt_stdio_output@@AEAAXI_N@Z 0000000180017114 f i libucrt:output.obj
 0001:0001619c       ??$type_case_integer_parse_into_buffer@I$09@?$output_processor@_WV?$string_output_adapter@_W@__crt_stdio_output@@V?$format_validation_base@_WV?$string_output_adapter@_W@__crt_stdio_output@@@2@@__crt_stdio_output@@AEAAXI_N@Z 000000018001719c f i libucrt:output.obj
 0001:00016254       ??$type_case_integer_parse_into_buffer@I$0BA@@?$output_processor@_WV?$string_output_adapter@_W@__crt_stdio_output@@V?$format_validation_base@_WV?$string_output_adapter@_W@__crt_stdio_output@@@2@@__crt_stdio_output@@AEAAXI_N@Z 0000000180017254 f i libucrt:output.obj
 0001:000162f8       ??$type_case_integer_parse_into_buffer@_K$07@?$output_processor@_WV?$string_output_adapter@_W@__crt_stdio_output@@V?$format_validation_base@_WV?$string_output_adapter@_W@__crt_stdio_output@@@2@@__crt_stdio_output@@AEAAX_K_N@Z 00000001800172f8 f i libucrt:output.obj
 0001:00016380       ??$type_case_integer_parse_into_buffer@_K$09@?$output_processor@_WV?$string_output_adapter@_W@__crt_stdio_output@@V?$format_validation_base@_WV?$string_output_adapter@_W@__crt_stdio_output@@@2@@__crt_stdio_output@@AEAAX_K_N@Z 0000000180017380 f i libucrt:output.obj
 0001:00016440       ??$type_case_integer_parse_into_buffer@_K$0BA@@?$output_processor@_WV?$string_output_adapter@_W@__crt_stdio_output@@V?$format_validation_base@_WV?$string_output_adapter@_W@__crt_stdio_output@@@2@@__crt_stdio_output@@AEAAX_K_N@Z 0000000180017440 f i libucrt:output.obj
 0001:000164e4       ?crop_zeroes@__crt_stdio_output@@YAXPEADQEAU__crt_locale_pointers@@@Z 00000001800174e4 f i libucrt:output.obj
 0001:00016550       ?parse_int_from_format_string@?$output_processor@_WV?$string_output_adapter@_W@__crt_stdio_output@@V?$format_validation_base@_WV?$string_output_adapter@_W@__crt_stdio_output@@@2@@__crt_stdio_output@@AEAA_NQEAH@Z 0000000180017550 f i libucrt:output.obj
 0001:000165e0       ?process@?$output_processor@_WV?$string_output_adapter@_W@__crt_stdio_output@@V?$format_validation_base@_WV?$string_output_adapter@_W@__crt_stdio_output@@@2@@__crt_stdio_output@@QEAAHXZ 00000001800175e0 f i libucrt:output.obj
 0001:000168bc       ?state_case_size@?$output_processor@_WV?$string_output_adapter@_W@__crt_stdio_output@@V?$format_validation_base@_WV?$string_output_adapter@_W@__crt_stdio_output@@@2@@__crt_stdio_output@@AEAA_NXZ 00000001800178bc f i libucrt:output.obj
 0001:00016a68       ?state_case_type@?$output_processor@_WV?$string_output_adapter@_W@__crt_stdio_output@@V?$format_validation_base@_WV?$string_output_adapter@_W@__crt_stdio_output@@@2@@__crt_stdio_output@@AEAA_NXZ 0000000180017a68 f i libucrt:output.obj
 0001:00016ec4       ?type_case_Z@?$output_processor@_WV?$string_output_adapter@_W@__crt_stdio_output@@V?$format_validation_base@_WV?$string_output_adapter@_W@__crt_stdio_output@@@2@@__crt_stdio_output@@AEAA_NXZ 0000000180017ec4 f i libucrt:output.obj
 0001:00016f40       ?type_case_a@?$output_processor@_WV?$string_output_adapter@_W@__crt_stdio_output@@V?$format_validation_base@_WV?$string_output_adapter@_W@__crt_stdio_output@@@2@@__crt_stdio_output@@AEAA_NXZ 0000000180017f40 f i libucrt:output.obj
 0001:000171a0       ?type_case_c_tchar@?$output_processor@_WV?$string_output_adapter@_W@__crt_stdio_output@@V?$format_validation_base@_WV?$string_output_adapter@_W@__crt_stdio_output@@@2@@__crt_stdio_output@@AEAA_N_W@Z 00000001800181a0 f i libucrt:output.obj
 0001:00017264       ?type_case_n@?$output_processor@_WV?$string_output_adapter@_W@__crt_stdio_output@@V?$format_validation_base@_WV?$string_output_adapter@_W@__crt_stdio_output@@@2@@__crt_stdio_output@@AEAA_NXZ 0000000180018264 f i libucrt:output.obj
 0001:00017318       ?type_case_s@?$output_processor@_WV?$string_output_adapter@_W@__crt_stdio_output@@V?$format_validation_base@_WV?$string_output_adapter@_W@__crt_stdio_output@@@2@@__crt_stdio_output@@AEAA_NXZ 0000000180018318 f i libucrt:output.obj
 0001:000173b0       ?type_case_s_compute_narrow_string_length@?$output_processor@_WV?$string_output_adapter@_W@__crt_stdio_output@@V?$format_validation_base@_WV?$string_output_adapter@_W@__crt_stdio_output@@@2@@__crt_stdio_output@@AEAAHH_W@Z 00000001800183b0 f i libucrt:output.obj
 0001:00017430       ?update_locale_slow@__crt_cached_ptd_host@@AEAAXXZ 0000000180018430 f i libucrt:output.obj
 0001:000174a8       ?write_string@?$string_output_adapter@_W@__crt_stdio_output@@QEBAXQEB_WHQEAHAEAV__crt_cached_ptd_host@@@Z 00000001800184a8 f i libucrt:output.obj
 0001:00017550       __stdio_common_vswprintf_s 0000000180018550 f   libucrt:output.obj
 0001:00017664       _seh_filter_dll            0000000180018664 f   libucrt:exception_filter.obj
 0001:00017678       _seh_filter_exe            0000000180018678 f   libucrt:exception_filter.obj
 0001:00017a9c       __acrt_initialize_thread_local_exit_callback 0000000180018a9c f   libucrt:exit.obj
 0001:00017aa4       _cexit                     0000000180018aa4 f   libucrt:exit.obj
 0001:00017ab4       _exit                      0000000180018ab4 f   libucrt:exit.obj
 0001:00017ac0       _is_c_termination_complete 0000000180018ac0 f   libucrt:exit.obj
 0001:00017c88       __acrt_allocate_buffer_for_argv 0000000180018c88 f   libucrt:argv_parsing.obj
 0001:00017ce8       _configure_narrow_argv     0000000180018ce8 f   libucrt:argv_parsing.obj
 0001:00018070       __dcrt_uninitialize_environments_nolock 0000000180019070 f   libucrt:environment_initialization.obj
 0001:000180b4       _initialize_narrow_environment 00000001800190b4 f   libucrt:environment_initialization.obj
 0001:00018404       _crt_atexit                0000000180019404 f   libucrt:onexit.obj
 0001:00018414       _execute_onexit_table      0000000180019414 f   libucrt:onexit.obj
 0001:00018458       _initialize_onexit_table   0000000180019458 f   libucrt:onexit.obj
 0001:00018480       _register_onexit_function  0000000180019480 f   libucrt:onexit.obj
 0001:00018500       __acrt_uninitialize_command_line 0000000180019500 f   libucrt:argv_data.obj
 0001:000185f8       __acrt_initialize          00000001800195f8 f   libucrt:initialization.obj
 0001:0001860c       __acrt_thread_attach       000000018001960c f   libucrt:initialization.obj
 0001:00018620       __acrt_thread_detach       0000000180019620 f   libucrt:initialization.obj
 0001:00018630       __acrt_uninitialize        0000000180019630 f   libucrt:initialization.obj
 0001:00018668       __acrt_uninitialize_critical 0000000180019668 f   libucrt:initialization.obj
 0001:00018678       _initterm                  0000000180019678 f   libucrt:initterm.obj
 0001:000186bc       _initterm_e                00000001800196bc f   libucrt:initterm.obj
 0001:00018704       __acrt_initialize_new_handler 0000000180019704 f   libucrt:new_handler.obj
 0001:0001870c       _callnewh                  000000018001970c f   libucrt:new_handler.obj
 0001:00018748       _query_new_handler         0000000180019748 f   libucrt:new_handler.obj
 0001:0001877c       terminate                  000000018001977c f   libucrt:terminate.obj
 0001:000187a8       abort                      00000001800197a8 f   libucrt:abort.obj
 0001:00018800       strcpy_s                   0000000180019800 f   libucrt:strcpy_s.obj
 0001:00018870       strncmp                    0000000180019870 f   libucrt:strncmp.obj
 0001:000188f0       wcsncmp                    00000001800198f0 f   libucrt:wcsncmp.obj
 0001:0001891c       _free_base                 000000018001991c f   libucrt:free_base.obj
 0001:00018cd0       __acrt_freeptd             0000000180019cd0 f   libucrt:per_thread_data.obj
 0001:00018d14       __acrt_getptd              0000000180019d14 f   libucrt:per_thread_data.obj
 0001:00018de8       __acrt_getptd_head         0000000180019de8 f   libucrt:per_thread_data.obj
 0001:00018e8c       __acrt_getptd_noexit       0000000180019e8c f   libucrt:per_thread_data.obj
 0001:00018f54       __acrt_getptd_noexit_explicit 0000000180019f54 f   libucrt:per_thread_data.obj
 0001:00019014       __acrt_initialize_ptd      000000018001a014 f   libucrt:per_thread_data.obj
 0001:00019050       __acrt_uninitialize_ptd    000000018001a050 f   libucrt:per_thread_data.obj
 0001:000190e4       __acrt_set_locale_changed  000000018001a0e4 f   libucrt:wsetlocale.obj
 0001:000190f0       __acrt_uninitialize_locale 000000018001a0f0 f   libucrt:wsetlocale.obj
 0001:00019120       _calloc_base               000000018001a120 f   libucrt:calloc_base.obj
 0001:00019198       _malloc_base               000000018001a198 f   libucrt:malloc_base.obj
 0001:000191f8       _msize_base                000000018001a1f8 f   libucrt:msize.obj
 0001:00019234       _realloc_base              000000018001a234 f   libucrt:realloc_base.obj
 0001:00019470       __acrt_AppPolicyGetProcessTerminationMethodInternal 000000018001a470 f   libucrt:winapi_thunks.obj
 0001:000194c8       __acrt_AreFileApisANSI     000000018001a4c8 f   libucrt:winapi_thunks.obj
 0001:0001950c       __acrt_FlsAlloc            000000018001a50c f   libucrt:winapi_thunks.obj
 0001:00019514       __acrt_FlsFree             000000018001a514 f   libucrt:winapi_thunks.obj
 0001:0001951c       __acrt_FlsGetValue         000000018001a51c f   libucrt:winapi_thunks.obj
 0001:00019524       __acrt_FlsSetValue         000000018001a524 f   libucrt:winapi_thunks.obj
 0001:0001952c       __acrt_InitializeCriticalSectionEx 000000018001a52c f   libucrt:winapi_thunks.obj
 0001:0001959c       __acrt_LCMapStringEx       000000018001a59c f   libucrt:winapi_thunks.obj
 0001:00019688       __acrt_LocaleNameToLCID    000000018001a688 f   libucrt:winapi_thunks.obj
 0001:000196e8       __acrt_SetThreadStackGuarantee 000000018001a6e8 f   libucrt:winapi_thunks.obj
 0001:00019734       __acrt_initialize_winapi_thunks 000000018001a734 f   libucrt:winapi_thunks.obj
 0001:00019758       __acrt_uninitialize_winapi_thunks 000000018001a758 f   libucrt:winapi_thunks.obj
 0001:0001979c       wcsnlen                    000000018001a79c f   libucrt:strnlen.obj
 0001:00019974       __acrt_update_locale_info  000000018001a974 f   libucrt:locale_update.obj
 0001:000199a8       __acrt_update_locale_info_explicit 000000018001a9a8 f   libucrt:locale_update.obj
 0001:000199e0       __acrt_update_multibyte_info 000000018001a9e0 f   libucrt:locale_update.obj
 0001:00019a14       __acrt_update_multibyte_info_explicit 000000018001aa14 f   libucrt:locale_update.obj
 0001:0001a57c       __acrt_fp_format           000000018001b57c f   libucrt:cvt.obj
 0001:0001a864       _mbtowc_internal           000000018001b864 f   libucrt:mbtowc.obj
 0001:0001a9dc       _fileno                    000000018001b9dc f   libucrt:fileno.obj
 0001:0001aa04       __acrt_initialize_stdio    000000018001ba04 f   libucrt:_file.obj
 0001:0001ab24       __acrt_uninitialize_stdio  000000018001bb24 f   libucrt:_file.obj
 0001:0001ab80       _lock_file                 000000018001bb80 f   libucrt:_file.obj
 0001:0001ab8c       _unlock_file               000000018001bb8c f   libucrt:_file.obj
 0001:0001ab98       _get_printf_count_output   000000018001bb98 f   libucrt:printf_count_output.obj
 0001:0001ada8       __acrt_initialize_lowio    000000018001bda8 f   libucrt:ioinit.obj
 0001:0001ade4       __acrt_uninitialize_lowio  000000018001bde4 f   libucrt:ioinit.obj
 0001:0001ae24       __acrt_initialize_locks    000000018001be24 f   libucrt:locks.obj
 0001:0001ae6c       __acrt_lock                000000018001be6c f   libucrt:locks.obj
 0001:0001ae88       __acrt_uninitialize_locks  000000018001be88 f   libucrt:locks.obj
 0001:0001aec0       __acrt_unlock              000000018001bec0 f   libucrt:locks.obj
 0001:0001aedc       __acrt_get_process_end_policy 000000018001bedc f   libucrt:win_policies.obj
 0001:0001af2c       ??$__acrt_convert_wcs_mbs_cp@D_WV<lambda_7c9dea7b4ca7285d2cdb541a38da6275>@@U__crt_win32_buffer_internal_dynamic_resizing@@@@YAHQEBDAEAV?$__crt_win32_buffer@_WU__crt_win32_buffer_internal_dynamic_resizing@@@@AEBV<lambda_7c9dea7b4ca7285d2cdb541a38da6275>@@I@Z 000000018001bf2c f i libucrt:argv_wildcards.obj
 0001:0001b0a8       ??$__acrt_convert_wcs_mbs_cp@_WDV<lambda_d8593a27d1aa8c02be35c86a17d324c4>@@U__crt_win32_buffer_internal_dynamic_resizing@@@@YAHQEB_WAEAV?$__crt_win32_buffer@DU__crt_win32_buffer_internal_dynamic_resizing@@@@AEBV<lambda_d8593a27d1aa8c02be35c86a17d324c4>@@I@Z 000000018001c0a8 f i libucrt:argv_wildcards.obj
 0001:0001b950       ??0_LocaleUpdate@@QEAA@QEAU__crt_locale_pointers@@@Z 000000018001c950 f i libucrt:argv_wildcards.obj
 0001:0001b9ec       __acrt_expand_narrow_argv_wildcards 000000018001c9ec f   libucrt:argv_wildcards.obj
 0001:0001b9f4       ??$__acrt_convert_wcs_mbs_cp@_WDV<lambda_f788ae46380686e8b737efdd8c720d07>@@U__crt_win32_buffer_no_resizing@@@@YAHQEB_WAEAV?$__crt_win32_buffer@DU__crt_win32_buffer_no_resizing@@@@AEBV<lambda_f788ae46380686e8b737efdd8c720d07>@@I@Z 000000018001c9f4 f i libucrt:getmodulefilenamea.obj
 0001:0001bb10       __acrt_GetModuleFileNameA  000000018001cb10 f   libucrt:getmodulefilenamea.obj
 0001:0001c42c       __acrt_initialize_multibyte 000000018001d42c f   libucrt:mbctype.obj
 0001:0001c48c       __acrt_update_thread_multibyte_data 000000018001d48c f   libucrt:mbctype.obj
 0001:0001c4a8       _setmbcp_nolock            000000018001d4a8 f   libucrt:mbctype.obj
 0001:0001c7dc       _ismbblead                 000000018001d7dc f   libucrt:ismbbyte.obj
 0001:0001c7f0       __acrt_initialize_command_line 000000018001d7f0 f   libucrt:argv_data.obj
 0001:0001c818       __acrt_MultiByteToWideChar 000000018001d818 f   libucrt:multibytetowidechar.obj
 0001:0001c874       __acrt_WideCharToMultiByte 000000018001d874 f   libucrt:widechartomultibyte.obj
 0001:0001c924       __dcrt_get_narrow_environment_from_os 000000018001d924 f   libucrt:get_environment_from_os.obj
 0001:0001ca34       __acrt_initialize_heap     000000018001da34 f   libucrt:heap_handle.obj
 0001:0001ca50       __acrt_uninitialize_heap   000000018001da50 f   libucrt:heap_handle.obj
 0001:0001ca5c       __acrt_execute_initializers 000000018001da5c f   libucrt:shared_initialization.obj
 0001:0001caf0       __acrt_execute_uninitializers 000000018001daf0 f   libucrt:shared_initialization.obj
 0001:0001cb80       __acrt_get_sigabrt_handler 000000018001db80 f   libucrt:signal.obj
 0001:0001cbb0       __acrt_initialize_signal_handlers 000000018001dbb0 f   libucrt:signal.obj
 0001:0001cbd0       raise                      000000018001dbd0 f   libucrt:signal.obj
 0001:0001ce50       __acrt_has_user_matherr    000000018001de50 f   libucrt:matherr.obj
 0001:0001ce70       __acrt_initialize_user_matherr 000000018001de70 f   libucrt:matherr.obj
 0001:0001ce78       __acrt_invoke_user_matherr 000000018001de78 f   libucrt:matherr.obj
 0001:0001d08c       __acrt_stdio_flush_nolock  000000018001e08c f   libucrt:fflush.obj
 0001:0001d118       _fflush_nolock             000000018001e118 f   libucrt:fflush.obj
 0001:0001d1ec       _flushall                  000000018001e1ec f   libucrt:fflush.obj
 0001:0001d1f4       __acrt_add_locale_ref      000000018001e1f4 f   libucrt:locale_refcounting.obj
 0001:0001d280       __acrt_free_locale         000000018001e280 f   libucrt:locale_refcounting.obj
 0001:0001d3f8       __acrt_locale_add_lc_time_reference 000000018001e3f8 f   libucrt:locale_refcounting.obj
 0001:0001d420       __acrt_locale_free_lc_time_if_unreferenced 000000018001e420 f   libucrt:locale_refcounting.obj
 0001:0001d458       __acrt_locale_release_lc_time_reference 000000018001e458 f   libucrt:locale_refcounting.obj
 0001:0001d480       __acrt_release_locale_ref  000000018001e480 f   libucrt:locale_refcounting.obj
 0001:0001d528       __acrt_update_thread_locale_data 000000018001e528 f   libucrt:locale_refcounting.obj
 0001:0001d598       _updatetlocinfoEx_nolock   000000018001e598 f   libucrt:locale_refcounting.obj
 0001:0001d600       __acrt_locale_free_monetary 000000018001e600 f   libucrt:initmon.obj
 0001:0001d70c       __acrt_locale_free_numeric 000000018001e70c f   libucrt:initnum.obj
 0001:0001d7ac       __acrt_locale_free_time    000000018001e7ac f   libucrt:inittime.obj
 0001:0001d8b4       __acrt_GetStringTypeA      000000018001e8b4 f   libucrt:getstringtypea.obj
 0001:0001da50       _query_new_mode            000000018001ea50 f   libucrt:new_mode.obj
 0001:0001da58       __acrt_DownlevelLocaleNameToLCID 000000018001ea58 f   libucrt:lcidtoname_downlevel.obj
 0001:0001db00       __acrt_fp_strflt_to_string 000000018001eb00 f   libucrt:_fptostr.obj
 0001:0001dc90       ?divide@__crt_strtox@@YA_KAEAUbig_integer@1@AEBU21@@Z 000000018001ec90 f i libucrt:cfout.obj
 0001:0001e11c       __acrt_fltout              000000018001f11c f   libucrt:cfout.obj
 0001:0001f3e4       fegetround                 00000001800203e4 f   libucrt:fegetround.obj
 0001:0001f3f8       ?__mbrtowc_utf8@__crt_mbstring@@YA_KPEA_WPEBD_KPEAU_Mbstatet@@AEAV__crt_cached_ptd_host@@@Z 00000001800203f8 f   libucrt:mbrtowc.obj
 0001:0001f43c       ?__mbsrtowcs_utf8@__crt_mbstring@@YA_KPEA_WPEAPEBD_KPEAU_Mbstatet@@AEAV__crt_cached_ptd_host@@@Z 000000018002043c f   libucrt:mbrtowc.obj
 0001:0001f5e0       _fcloseall                 00000001800205e0 f   libucrt:closeall.obj
 0001:0001f694       __acrt_stdio_free_buffer_nolock 0000000180020694 f   libucrt:_freebuf.obj
 0001:0001f6d4       _isatty                    00000001800206d4 f   libucrt:isatty.obj
 0001:0001f734       __acrt_lowio_create_handle_array 0000000180020734 f   libucrt:osfinfo.obj
 0001:0001f7dc       __acrt_lowio_destroy_handle_array 00000001800207dc f   libucrt:osfinfo.obj
 0001:0001f82c       __acrt_lowio_ensure_fh_exists 000000018002082c f   libucrt:osfinfo.obj
 0001:0001f8d4       __acrt_lowio_lock_fh       00000001800208d4 f   libucrt:osfinfo.obj
 0001:0001f8fc       __acrt_lowio_unlock_fh     00000001800208fc f   libucrt:osfinfo.obj
 0001:0001f924       _free_osfhnd               0000000180020924 f   libucrt:osfinfo.obj
 0001:0001f9e0       _get_osfhandle             00000001800209e0 f   libucrt:osfinfo.obj
 0001:0001fa60       qsort                      0000000180020a60 f   libucrt:qsort.obj
 0001:0001fe70       strncpy_s                  0000000180020e70 f   libucrt:strncpy_s.obj
 0001:00020000       strpbrk                    0000000180021000 f   libucrt:strpbrk.obj
 0001:000203c8       _mbsdec                    00000001800213c8 f   libucrt:mbsdec.obj
 0001:000203d0       _mbsdec_l                  00000001800213d0 f   libucrt:mbsdec.obj
 0001:00020784       __acrt_LCMapStringA        0000000180021784 f   libucrt:lcmapstringa.obj
 0001:000208c0       _commit                    00000001800218c0 f   libucrt:commit.obj
 0001:00021170       _write_internal            0000000180022170 f   libucrt:write.obj
 0001:00021298       _write_nolock              0000000180022298 f   libucrt:write.obj
 0001:000215a8       __ascii_wcsnicmp           00000001800225a8 f   libucrt:wcsnicmp.obj
 0001:000215f4       _controlfp_s               00000001800225f4 f   libucrt:contrlfp.obj
 0001:00021658       fegetenv                   0000000180022658 f   libucrt:fegetenv.obj
 0001:00021678       fesetenv                   0000000180022678 f   libucrt:fesetenv.obj
 0001:000216c4       feholdexcept               00000001800226c4 f   libucrt:feholdexcept.obj
 0001:00021714       ceil                       0000000180022714 f   libucrt:ceil.obj
 0001:000217e0       log10                      00000001800227e0 f   libucrt:log10.obj
 0001:00021d8c       __acrt_fenv_get_common_round_control 0000000180022d8c f   libucrt:_fenvutils.obj
 0001:00021d98       __acrt_fenv_get_control    0000000180022d98 f   libucrt:_fenvutils.obj
 0001:00021e7c       __acrt_fenv_get_status     0000000180022e7c f   libucrt:_fenvutils.obj
 0001:00021ed4       __acrt_fenv_set_control    0000000180022ed4 f   libucrt:_fenvutils.obj
 0001:00022010       __acrt_fenv_set_status     0000000180023010 f   libucrt:_fenvutils.obj
 0001:00022084       ?reset_and_return@__crt_mbstring@@YA_K_KPEAU_Mbstatet@@@Z 0000000180023084 f   libucrt:common_utf8.obj
 0001:0002208c       ?return_illegal_sequence@__crt_mbstring@@YA_KPEAU_Mbstatet@@AEAV__crt_cached_ptd_host@@@Z 000000018002308c f   libucrt:common_utf8.obj
 0001:000220a0       ?__mbrtoc32_utf8@__crt_mbstring@@YA_KPEA_UPEBD_KPEAU_Mbstatet@@AEAV__crt_cached_ptd_host@@@Z 00000001800230a0 f   libucrt:mbrtoc32.obj
 0001:0002239c       fclose                     000000018002339c f   libucrt:fclose.obj
 0001:000224e0       _lseeki64_nolock_internal  00000001800234e0 f   libucrt:lseek.obj
 0001:000224e8       _query_app_type            00000001800234e8 f   libucrt:report_runtime_error.obj
 0001:000224f0       __strncnt                  00000001800234f0 f   libucrt:strncnt.obj
 0001:00022508       _putwch_nolock             0000000180023508 f   libucrt:putwch.obj
 0001:00022544       _clearfp                   0000000180023544 f   libucrt:ieee.obj
 0001:000225b4       _control87                 00000001800235b4 f   libucrt:ieee.obj
 0001:000229a0       _handle_error              00000001800239a0 f   libucrt:libm_error.obj
 0001:00022ac8       _handle_nan                0000000180023ac8 f   libucrt:libm_error.obj
 0001:00022af0       __acrt_initialize_fma3     0000000180023af0 f   libucrt:fma3_available.obj
 0001:00022b60       _log10_special             0000000180023b60 f   libucrt:log_special.obj
 0001:00022c90       _close_internal            0000000180023c90 f   libucrt:close.obj
 0001:00022d54       _close_nolock_internal     0000000180023d54 f   libucrt:close.obj
 0001:00022e24       ?__acrt_stdio_free_stream@@YAXV__crt_stdio_stream@@@Z 0000000180023e24 f   libucrt:stream.obj
 0001:00022e40       __dcrt_lowio_ensure_console_output_initialized 0000000180023e40 f   libucrt:initcon.obj
 0001:00022e94       __dcrt_terminate_console_output 0000000180023e94 f   libucrt:initcon.obj
 0001:00022eb0       __dcrt_write_console       0000000180023eb0 f   libucrt:initcon.obj
 0001:00022f80       _get_fpsr                  0000000180023f80 f   libucrt:fpsr.obj
 0001:00022f90       _set_fpsr                  0000000180023f90 f   libucrt:fpsr.obj
 0001:00022f9a       _fclrf                     0000000180023f9a f   libucrt:fpsr.obj
 0001:00022fae       _frnd                      0000000180023fae f   libucrt:fpsr.obj
 0001:00022fd0       _raise_exc                 0000000180023fd0 f   libucrt:fpexcept.obj
 0001:00022ff8       _raise_exc_ex              0000000180023ff8 f   libucrt:fpexcept.obj
 0001:00023308       _set_errno_from_matherr    0000000180024308 f   libucrt:fpexcept.obj
 0001:00023338       _clrfp                     0000000180024338 f   libucrt:fpctrl.obj
 0001:00023358       _ctrlfp                    0000000180024358 f   libucrt:fpctrl.obj
 0001:000233d4       _set_statfp                00000001800243d4 f   libucrt:fpctrl.obj
 0001:000233f4       _statfp                    00000001800243f4 f   libucrt:fpctrl.obj
 0001:00023410       _FindPESection             0000000180024410 f   LIBCMT:pesect.obj
 0001:00023460       _IsNonwritableInCurrentImage 0000000180024460 f   LIBCMT:pesect.obj
 0001:000234b0       _ValidateImageBase         00000001800244b0 f   LIBCMT:pesect.obj
 0001:000234dc       __GSHandlerCheck_EH        00000001800244dc f   LIBCMT:gshandlereh.obj
 0001:0002355c       __C_specific_handler_noexcept 000000018002455c f   libvcruntime:chandler_noexcept.obj
 0001:000235a8       strrchr                    00000001800245a8 f   libvcruntime:strrchr.obj
 0001:00023700       _guard_dispatch_icall_nop  0000000180024700 f   LIBCMT:guard_dispatch.obj
 0001:00023720       _guard_xfg_dispatch_icall_nop 0000000180024720 f   LIBCMT:guard_xfg_dispatch.obj
 0002:00000000       __imp_RegQueryValueExW     0000000180025000     advapi32:ADVAPI32.dll
 0002:00000008       __imp_RegSetValueExW       0000000180025008     advapi32:ADVAPI32.dll
 0002:00000010       __imp_RegQueryInfoKeyW     0000000180025010     advapi32:ADVAPI32.dll
 0002:00000018       __imp_RegOpenKeyExW        0000000180025018     advapi32:ADVAPI32.dll
 0002:00000020       __imp_RegEnumKeyExW        0000000180025020     advapi32:ADVAPI32.dll
 0002:00000028       __imp_RegDeleteValueW      0000000180025028     advapi32:ADVAPI32.dll
 0002:00000030       __imp_RegDeleteKeyW        0000000180025030     advapi32:ADVAPI32.dll
 0002:00000038       __imp_RegCreateKeyExW      0000000180025038     advapi32:ADVAPI32.dll
 0002:00000040       __imp_RegCloseKey          0000000180025040     advapi32:ADVAPI32.dll
 0002:00000048       \177ADVAPI32_NULL_THUNK_DATA 0000000180025048     advapi32:ADVAPI32.dll
 0002:00000050       __imp_GetObjectW           0000000180025050     gdi32:GDI32.dll
 0002:00000058       __imp_SelectObject         0000000180025058     gdi32:GDI32.dll
 0002:00000060       __imp_DeleteObject         0000000180025060     gdi32:GDI32.dll
 0002:00000068       __imp_CreateCompatibleDC   0000000180025068     gdi32:GDI32.dll
 0002:00000070       __imp_BitBlt               0000000180025070     gdi32:GDI32.dll
 0002:00000078       __imp_SetWindowOrgEx       0000000180025078     gdi32:GDI32.dll
 0002:00000080       __imp_SetWindowExtEx       0000000180025080     gdi32:GDI32.dll
 0002:00000088       __imp_SetViewportOrgEx     0000000180025088     gdi32:GDI32.dll
 0002:00000090       __imp_LPtoDP               0000000180025090     gdi32:GDI32.dll
 0002:00000098       __imp_SetMapMode           0000000180025098     gdi32:GDI32.dll
 0002:000000a0       __imp_SaveDC               00000001800250a0     gdi32:GDI32.dll
 0002:000000a8       __imp_RestoreDC            00000001800250a8     gdi32:GDI32.dll
 0002:000000b0       __imp_GetDeviceCaps        00000001800250b0     gdi32:GDI32.dll
 0002:000000b8       __imp_DeleteMetaFile       00000001800250b8     gdi32:GDI32.dll
 0002:000000c0       __imp_DeleteDC             00000001800250c0     gdi32:GDI32.dll
 0002:000000c8       __imp_CreateRectRgnIndirect 00000001800250c8     gdi32:GDI32.dll
 0002:000000d0       __imp_CreateMetaFileW      00000001800250d0     gdi32:GDI32.dll
 0002:000000d8       __imp_CreateDCW            00000001800250d8     gdi32:GDI32.dll
 0002:000000e0       __imp_CloseMetaFile        00000001800250e0     gdi32:GDI32.dll
 0002:000000e8       \177GDI32_NULL_THUNK_DATA  00000001800250e8     gdi32:GDI32.dll
 0002:000000f0       __imp_CloseHandle          00000001800250f0     kernel32:KERNEL32.dll
 0002:000000f8       __imp_SetEvent             00000001800250f8     kernel32:KERNEL32.dll
 0002:00000100       __imp_CreateMutexW         0000000180025100     kernel32:KERNEL32.dll
 0002:00000108       __imp_CreateEventW         0000000180025108     kernel32:KERNEL32.dll
 0002:00000110       __imp_GetCurrentProcessId  0000000180025110     kernel32:KERNEL32.dll
 0002:00000118       __imp_WriteConsoleW        0000000180025118     kernel32:KERNEL32.dll
 0002:00000120       __imp_CreateFileW          0000000180025120     kernel32:KERNEL32.dll
 0002:00000128       __imp_GetConsoleMode       0000000180025128     kernel32:KERNEL32.dll
 0002:00000130       __imp_GetConsoleOutputCP   0000000180025130     kernel32:KERNEL32.dll
 0002:00000138       __imp_WriteFile            0000000180025138     kernel32:KERNEL32.dll
 0002:00000140       __imp_FlushFileBuffers     0000000180025140     kernel32:KERNEL32.dll
 0002:00000148       __imp_SetStdHandle         0000000180025148     kernel32:KERNEL32.dll
 0002:00000150       __imp_SetFilePointerEx     0000000180025150     kernel32:KERNEL32.dll
 0002:00000158       __imp_GetStringTypeW       0000000180025158     kernel32:KERNEL32.dll
 0002:00000160       __imp_FreeEnvironmentStringsW 0000000180025160     kernel32:KERNEL32.dll
 0002:00000168       __imp_lstrcmpiW            0000000180025168     kernel32:KERNEL32.dll
 0002:00000170       __imp_GetCommandLineW      0000000180025170     kernel32:KERNEL32.dll
 0002:00000178       __imp_GetCommandLineA      0000000180025178     kernel32:KERNEL32.dll
 0002:00000180       __imp_GetCPInfo            0000000180025180     kernel32:KERNEL32.dll
 0002:00000188       __imp_GetOEMCP             0000000180025188     kernel32:KERNEL32.dll
 0002:00000190       __imp_GetACP               0000000180025190     kernel32:KERNEL32.dll
 0002:00000198       __imp_IsValidCodePage      0000000180025198     kernel32:KERNEL32.dll
 0002:000001a0       __imp_FindNextFileW        00000001800251a0     kernel32:KERNEL32.dll
 0002:000001a8       __imp_FindFirstFileExW     00000001800251a8     kernel32:KERNEL32.dll
 0002:000001b0       __imp_FindClose            00000001800251b0     kernel32:KERNEL32.dll
 0002:000001b8       __imp_GetFileType          00000001800251b8     kernel32:KERNEL32.dll
 0002:000001c0       __imp_GetStdHandle         00000001800251c0     kernel32:KERNEL32.dll
 0002:000001c8       __imp_LCMapStringW         00000001800251c8     kernel32:KERNEL32.dll
 0002:000001d0       __imp_FlsFree              00000001800251d0     kernel32:KERNEL32.dll
 0002:000001d8       __imp_FlsSetValue          00000001800251d8     kernel32:KERNEL32.dll
 0002:000001e0       __imp_MulDiv               00000001800251e0     kernel32:KERNEL32.dll
 0002:000001e8       __imp_GlobalLock           00000001800251e8     kernel32:KERNEL32.dll
 0002:000001f0       __imp_GlobalUnlock         00000001800251f0     kernel32:KERNEL32.dll
 0002:000001f8       __imp_GlobalAlloc          00000001800251f8     kernel32:KERNEL32.dll
 0002:00000200       __imp_FindResourceW        0000000180025200     kernel32:KERNEL32.dll
 0002:00000208       __imp_SizeofResource       0000000180025208     kernel32:KERNEL32.dll
 0002:00000210       __imp_LoadResource         0000000180025210     kernel32:KERNEL32.dll
 0002:00000218       __imp_LoadLibraryExW       0000000180025218     kernel32:KERNEL32.dll
 0002:00000220       __imp_GetProcAddress       0000000180025220     kernel32:KERNEL32.dll
 0002:00000228       __imp_GetModuleHandleW     0000000180025228     kernel32:KERNEL32.dll
 0002:00000230       __imp_GetModuleFileNameW   0000000180025230     kernel32:KERNEL32.dll
 0002:00000238       __imp_FreeLibrary          0000000180025238     kernel32:KERNEL32.dll
 0002:00000240       __imp_DisableThreadLibraryCalls 0000000180025240     kernel32:KERNEL32.dll
 0002:00000248       __imp_GetCurrentThreadId   0000000180025248     kernel32:KERNEL32.dll
 0002:00000250       __imp_Sleep                0000000180025250     kernel32:KERNEL32.dll
 0002:00000258       __imp_WaitForSingleObject  0000000180025258     kernel32:KERNEL32.dll
 0002:00000260       __imp_ReleaseMutex         0000000180025260     kernel32:KERNEL32.dll
 0002:00000268       __imp_ResetEvent           0000000180025268     kernel32:KERNEL32.dll
 0002:00000270       __imp_EnterCriticalSection 0000000180025270     kernel32:KERNEL32.dll
 0002:00000278       __imp_LeaveCriticalSection 0000000180025278     kernel32:KERNEL32.dll
 0002:00000280       __imp_SetLastError         0000000180025280     kernel32:KERNEL32.dll
 0002:00000288       __imp_EncodePointer        0000000180025288     kernel32:KERNEL32.dll
 0002:00000290       __imp_DeleteCriticalSection 0000000180025290     kernel32:KERNEL32.dll
 0002:00000298       __imp_InitializeCriticalSectionEx 0000000180025298     kernel32:KERNEL32.dll
 0002:000002a0       __imp_GetLastError         00000001800252a0     kernel32:KERNEL32.dll
 0002:000002a8       __imp_RaiseException       00000001800252a8     kernel32:KERNEL32.dll
 0002:000002b0       __imp_DecodePointer        00000001800252b0     kernel32:KERNEL32.dll
 0002:000002b8       __imp_WideCharToMultiByte  00000001800252b8     kernel32:KERNEL32.dll
 0002:000002c0       __imp_GetEnvironmentStringsW 00000001800252c0     kernel32:KERNEL32.dll
 0002:000002c8       __imp_MultiByteToWideChar  00000001800252c8     kernel32:KERNEL32.dll
 0002:000002d0       __imp_FlsGetValue          00000001800252d0     kernel32:KERNEL32.dll
 0002:000002d8       __imp_FlsAlloc             00000001800252d8     kernel32:KERNEL32.dll
 0002:000002e0       __imp_HeapReAlloc          00000001800252e0     kernel32:KERNEL32.dll
 0002:000002e8       __imp_HeapSize             00000001800252e8     kernel32:KERNEL32.dll
 0002:000002f0       __imp_GetModuleHandleExW   00000001800252f0     kernel32:KERNEL32.dll
 0002:000002f8       __imp_ExitProcess          00000001800252f8     kernel32:KERNEL32.dll
 0002:00000300       __imp_VirtualQuery         0000000180025300     kernel32:KERNEL32.dll
 0002:00000308       __imp_VirtualProtect       0000000180025308     kernel32:KERNEL32.dll
 0002:00000310       __imp_GetSystemInfo        0000000180025310     kernel32:KERNEL32.dll
 0002:00000318       __imp_TlsFree              0000000180025318     kernel32:KERNEL32.dll
 0002:00000320       __imp_TlsSetValue          0000000180025320     kernel32:KERNEL32.dll
 0002:00000328       __imp_TlsGetValue          0000000180025328     kernel32:KERNEL32.dll
 0002:00000330       __imp_TlsAlloc             0000000180025330     kernel32:KERNEL32.dll
 0002:00000338       __imp_RtlPcToFileHeader    0000000180025338     kernel32:KERNEL32.dll
 0002:00000340       __imp_InterlockedFlushSList 0000000180025340     kernel32:KERNEL32.dll
 0002:00000348       __imp_RtlUnwindEx          0000000180025348     kernel32:KERNEL32.dll
 0002:00000350       __imp_LoadLibraryExA       0000000180025350     kernel32:KERNEL32.dll
 0002:00000358       __imp_VirtualFree          0000000180025358     kernel32:KERNEL32.dll
 0002:00000360       __imp_VirtualAlloc         0000000180025360     kernel32:KERNEL32.dll
 0002:00000368       __imp_FlushInstructionCache 0000000180025368     kernel32:KERNEL32.dll
 0002:00000370       __imp_InterlockedPushEntrySList 0000000180025370     kernel32:KERNEL32.dll
 0002:00000378       __imp_InterlockedPopEntrySList 0000000180025378     kernel32:KERNEL32.dll
 0002:00000380       __imp_GetProcessHeap       0000000180025380     kernel32:KERNEL32.dll
 0002:00000388       __imp_HeapFree             0000000180025388     kernel32:KERNEL32.dll
 0002:00000390       __imp_HeapAlloc            0000000180025390     kernel32:KERNEL32.dll
 0002:00000398       __imp_OutputDebugStringW   0000000180025398     kernel32:KERNEL32.dll
 0002:000003a0       __imp_InitializeSListHead  00000001800253a0     kernel32:KERNEL32.dll
 0002:000003a8       __imp_GetSystemTimeAsFileTime 00000001800253a8     kernel32:KERNEL32.dll
 0002:000003b0       __imp_QueryPerformanceCounter 00000001800253b0     kernel32:KERNEL32.dll
 0002:000003b8       __imp_GetStartupInfoW      00000001800253b8     kernel32:KERNEL32.dll
 0002:000003c0       __imp_InitializeCriticalSectionAndSpinCount 00000001800253c0     kernel32:KERNEL32.dll
 0002:000003c8       __imp_WaitForSingleObjectEx 00000001800253c8     kernel32:KERNEL32.dll
 0002:000003d0       __imp_RtlCaptureContext    00000001800253d0     kernel32:KERNEL32.dll
 0002:000003d8       __imp_RtlLookupFunctionEntry 00000001800253d8     kernel32:KERNEL32.dll
 0002:000003e0       __imp_RtlVirtualUnwind     00000001800253e0     kernel32:KERNEL32.dll
 0002:000003e8       __imp_UnhandledExceptionFilter 00000001800253e8     kernel32:KERNEL32.dll
 0002:000003f0       __imp_SetUnhandledExceptionFilter 00000001800253f0     kernel32:KERNEL32.dll
 0002:000003f8       __imp_GetCurrentProcess    00000001800253f8     kernel32:KERNEL32.dll
 0002:00000400       __imp_TerminateProcess     0000000180025400     kernel32:KERNEL32.dll
 0002:00000408       __imp_IsProcessorFeaturePresent 0000000180025408     kernel32:KERNEL32.dll
 0002:00000410       __imp_IsDebuggerPresent    0000000180025410     kernel32:KERNEL32.dll
 0002:00000418       \177KERNEL32_NULL_THUNK_DATA 0000000180025418     kernel32:KERNEL32.dll
 0002:00000420       __imp_OleCreatePropertyFrame 0000000180025420     oleaut32:OLEAUT32.dll
 0002:00000428       __imp_UnRegisterTypeLib    0000000180025428     oleaut32:OLEAUT32.dll
 0002:00000430       __imp_RegisterTypeLib      0000000180025430     oleaut32:OLEAUT32.dll
 0002:00000438       __imp_LoadRegTypeLib       0000000180025438     oleaut32:OLEAUT32.dll
 0002:00000440       __imp_LoadTypeLib          0000000180025440     oleaut32:OLEAUT32.dll
 0002:00000448       __imp_VarUI4FromStr        0000000180025448     oleaut32:OLEAUT32.dll
 0002:00000450       __imp_VariantInit          0000000180025450     oleaut32:OLEAUT32.dll
 0002:00000458       __imp_SysAllocStringByteLen 0000000180025458     oleaut32:OLEAUT32.dll
 0002:00000460       __imp_SysStringByteLen     0000000180025460     oleaut32:OLEAUT32.dll
 0002:00000468       __imp_VariantChangeType    0000000180025468     oleaut32:OLEAUT32.dll
 0002:00000470       __imp_VariantClear         0000000180025470     oleaut32:OLEAUT32.dll
 0002:00000478       __imp_SysStringLen         0000000180025478     oleaut32:OLEAUT32.dll
 0002:00000480       __imp_SysFreeString        0000000180025480     oleaut32:OLEAUT32.dll
 0002:00000488       __imp_SysAllocStringLen    0000000180025488     oleaut32:OLEAUT32.dll
 0002:00000490       __imp_SysAllocString       0000000180025490     oleaut32:OLEAUT32.dll
 0002:00000498       \177OLEAUT32_NULL_THUNK_DATA 0000000180025498     oleaut32:OLEAUT32.dll
 0002:000004a0       __imp_UnregisterClassW     00000001800254a0     user32:USER32.dll
 0002:000004a8       __imp_PostMessageW         00000001800254a8     user32:USER32.dll
 0002:000004b0       __imp_DefWindowProcW       00000001800254b0     user32:USER32.dll
 0002:000004b8       __imp_CallWindowProcW      00000001800254b8     user32:USER32.dll
 0002:000004c0       __imp_RegisterClassExW     00000001800254c0     user32:USER32.dll
 0002:000004c8       __imp_GetClassInfoExW      00000001800254c8     user32:USER32.dll
 0002:000004d0       __imp_CreateWindowExW      00000001800254d0     user32:USER32.dll
 0002:000004d8       __imp_IsWindow             00000001800254d8     user32:USER32.dll
 0002:000004e0       __imp_IsChild              00000001800254e0     user32:USER32.dll
 0002:000004e8       __imp_DestroyWindow        00000001800254e8     user32:USER32.dll
 0002:000004f0       __imp_ShowWindow           00000001800254f0     user32:USER32.dll
 0002:000004f8       __imp_SetWindowPos         00000001800254f8     user32:USER32.dll
 0002:00000500       __imp_CharNextW            0000000180025500     user32:USER32.dll
 0002:00000508       __imp_SetFocus             0000000180025508     user32:USER32.dll
 0002:00000510       __imp_LoadBitmapW          0000000180025510     user32:USER32.dll
 0002:00000518       __imp_RegisterClassW       0000000180025518     user32:USER32.dll
 0002:00000520       __imp_PeekMessageW         0000000180025520     user32:USER32.dll
 0002:00000528       __imp_LoadCursorW          0000000180025528     user32:USER32.dll
 0002:00000530       __imp_GetParent            0000000180025530     user32:USER32.dll
 0002:00000538       __imp_SetWindowLongPtrW    0000000180025538     user32:USER32.dll
 0002:00000540       __imp_GetWindowLongPtrW    0000000180025540     user32:USER32.dll
 0002:00000548       __imp_PtInRect             0000000180025548     user32:USER32.dll
 0002:00000550       __imp_EqualRect            0000000180025550     user32:USER32.dll
 0002:00000558       __imp_OffsetRect           0000000180025558     user32:USER32.dll
 0002:00000560       __imp_UnionRect            0000000180025560     user32:USER32.dll
 0002:00000568       __imp_IntersectRect        0000000180025568     user32:USER32.dll
 0002:00000570       __imp_GetClientRect        0000000180025570     user32:USER32.dll
 0002:00000578       __imp_InvalidateRect       0000000180025578     user32:USER32.dll
 0002:00000580       __imp_SetWindowRgn         0000000180025580     user32:USER32.dll
 0002:00000588       __imp_EndPaint             0000000180025588     user32:USER32.dll
 0002:00000590       __imp_BeginPaint           0000000180025590     user32:USER32.dll
 0002:00000598       __imp_ReleaseDC            0000000180025598     user32:USER32.dll
 0002:000005a0       __imp_GetDC                00000001800255a0     user32:USER32.dll
 0002:000005a8       __imp_GetKeyState          00000001800255a8     user32:USER32.dll
 0002:000005b0       __imp_GetFocus             00000001800255b0     user32:USER32.dll
 0002:000005b8       \177USER32_NULL_THUNK_DATA 00000001800255b8     user32:USER32.dll
 0002:000005c0       __imp_CoCreateInstance     00000001800255c0     ole32:ole32.dll
 0002:000005c8       __imp_StringFromGUID2      00000001800255c8     ole32:ole32.dll
 0002:000005d0       __imp_CoTaskMemAlloc       00000001800255d0     ole32:ole32.dll
 0002:000005d8       __imp_CoTaskMemRealloc     00000001800255d8     ole32:ole32.dll
 0002:000005e0       __imp_CoTaskMemFree        00000001800255e0     ole32:ole32.dll
 0002:000005e8       __imp_WriteClassStm        00000001800255e8     ole32:ole32.dll
 0002:000005f0       __imp_CreateDataAdviseHolder 00000001800255f0     ole32:ole32.dll
 0002:000005f8       __imp_OleSaveToStream      00000001800255f8     ole32:ole32.dll
 0002:00000600       __imp_CreateOleAdviseHolder 0000000180025600     ole32:ole32.dll
 0002:00000608       __imp_OleRegGetUserType    0000000180025608     ole32:ole32.dll
 0002:00000610       __imp_OleRegGetMiscStatus  0000000180025610     ole32:ole32.dll
 0002:00000618       __imp_OleRegEnumVerbs      0000000180025618     ole32:ole32.dll
 0002:00000620       __imp_CLSIDFromProgID      0000000180025620     ole32:ole32.dll
 0002:00000628       __imp_ReadClassStm         0000000180025628     ole32:ole32.dll
 0002:00000630       \177ole32_NULL_THUNK_DATA  0000000180025630     ole32:ole32.dll
 0002:00000638       __guard_check_icall_fptr   0000000180025638     LIBCMT:guard_support.obj
 0002:00000640       __guard_xfg_check_icall_fptr 0000000180025640     LIBCMT:guard_support.obj
 0002:00000648       __guard_dispatch_icall_fptr 0000000180025648     LIBCMT:guard_support.obj
 0002:00000650       __guard_xfg_dispatch_icall_fptr 0000000180025650     LIBCMT:guard_support.obj
 0002:00000658       __guard_xfg_table_dispatch_icall_fptr 0000000180025658     LIBCMT:guard_support.obj
 0002:00000660       __castguard_check_failure_os_handled_fptr 0000000180025660     LIBCMT:guard_support.obj
 0002:00000668       __xc_a                     0000000180025668     LIBCMT:initializers.obj
 0002:00000698       __xc_z                     0000000180025698     LIBCMT:initializers.obj
 0002:000006a0       __xi_a                     00000001800256a0     LIBCMT:initializers.obj
 0002:000006b0       __acrt_stdio_initializer   00000001800256b0     libucrt:stdio_initializer.obj
 0002:000006b8       __acrt_multibyte_initializer 00000001800256b8     libucrt:multibyte_initializer.obj
 0002:000006c0       __acrt_tran_fma3_initializer 00000001800256c0     libucrt:fma3_initializer.obj
 0002:000006c8       __xi_z                     00000001800256c8     LIBCMT:initializers.obj
 0002:000006d0       __xl_a                     00000001800256d0     LIBCMT:tlssup.obj
 0002:000006d8       __xl_z                     00000001800256d8     LIBCMT:tlssup.obj
 0002:000006e0       __xp_a                     00000001800256e0     LIBCMT:initializers.obj
 0002:000006e8       __acrt_locale_terminator   00000001800256e8     libucrt:locale_initializer.obj
 0002:000006f0       __dcrt_console_output_terminator 00000001800256f0     libucrt:console_output_initializer.obj
 0002:000006f8       __acrt_stdio_terminator    00000001800256f8     libucrt:stdio_initializer.obj
 0002:00000700       __xp_z                     0000000180025700     LIBCMT:initializers.obj
 0002:00000708       __xt_a                     0000000180025708     LIBCMT:initializers.obj
 0002:00000710       __xt_z                     0000000180025710     LIBCMT:initializers.obj
 0002:00000720       ??_C@_13HADIAKP@?$AAS@     0000000180025720     OposVariant.obj
 0002:00000724       ??_C@_13LHMFKAAD@?$AAM@    0000000180025724     OposVariant.obj
 0002:00000728       ??_C@_13MKMNOPIJ@?$AAD@    0000000180025728     OposVariant.obj
 0002:0000072c       ??_C@_13OPKGLAFF@?$AAB@    000000018002572c     OposVariant.obj
 0002:00000730       ??_C@_17LLMMEOJD@?$AAV?$AAa?$AAl@ 0000000180025730     OposVariant.obj
 0002:00000738       ??_C@_1BI@JFAIJMHL@?$AAF?$AAo?$AAr?$AAc?$AAe?$AAR?$AAe?$AAm?$AAo?$AAv?$AAe@ 0000000180025738     OposVariant.obj
 0002:00000750       ??_C@_1BC@GCKHIPE@?$AAN?$AAo?$AAR?$AAe?$AAm?$AAo?$AAv?$AAe@ 0000000180025750     OposVariant.obj
 0002:00000768       ??_C@_1O@JDLOHAN@?$AAD?$AAe?$AAl?$AAe?$AAt?$AAe@ 0000000180025768     OposVariant.obj
 0002:00000778       ??_C@_11LOCGONAA@@         0000000180025778     OposVariant.obj
 0002:00000780       ??_7?$CComObject@V?$CComEnum@UIEnumConnections@@$1?_GUID_b196b287_bab4_101a_b69c_00aa00341d07@@3U__s_GUID@@BUtagCONNECTDATA@@V?$_Copy@UtagCONNECTDATA@@@ATL@@VCComSingleThreadModel@6@@ATL@@@ATL@@6B@ 0000000180025780     CashDrawer.obj
 0002:000007c0       _GUID_55980ba0_35aa_11cf_b671_00aa004cd6d8 00000001800257c0     CashDrawer.obj
 0002:000007d0       _GUID_b196b28b_bab4_101a_b69c_00aa00341d07 00000001800257d0     CashDrawer.obj
 0002:000007e0       ?_entries@?1??_GetEntries@?$CComEnum@UIEnumConnections@@$1?_GUID_b196b287_bab4_101a_b69c_00aa00341d07@@3U__s_GUID@@BUtagCONNECTDATA@@V?$_Copy@UtagCONNECTDATA@@@ATL@@VCComSingleThreadModel@6@@ATL@@SAPEBU_ATL_INTMAP_ENTRY@3@XZ@4QBU43@B 00000001800257e0     CashDrawer.obj
 0002:00000810       ??_7CComClassFactory@ATL@@6B@ 0000000180025810     CashDrawer.obj
 0002:00000840       ?_entries@?1??_GetEntries@CComClassFactory@ATL@@SAPEBU_ATL_INTMAP_ENTRY@3@XZ@4QBU43@B 0000000180025840     CashDrawer.obj
 0002:00000870       _GUID_00000001_0000_0000_c000_000000000046 0000000180025870     CashDrawer.obj
 0002:00000880       IID_IOPOSCashDrawer_1_5    0000000180025880     CashDrawer.obj
 0002:00000890       IID_IOPOSCashDrawer_1_8    0000000180025890     CashDrawer.obj
 0002:000008a0       IID_IOPOSCashDrawer_1_9    00000001800258a0     CashDrawer.obj
 0002:000008b0       IID_IOPOSCashDrawer        00000001800258b0     CashDrawer.obj
 0002:000008c0       LIBID_OposCashDrawer_CCO   00000001800258c0     CashDrawer.obj
 0002:000008d0       DIID__IOPOSCashDrawerEvents 00000001800258d0     CashDrawer.obj
 0002:000008e0       CLSID_OPOSCashDrawer       00000001800258e0     CashDrawer.obj
 0002:000008f0       ??_C@_1BK@BIGILECK@?$AAA?$AAd?$AAv?$AAa?$AAp?$AAi?$AA3?$AA2?$AA?4?$AAd?$AAl?$AAl@ 00000001800258f0     CashDrawer.obj
 0002:00000910       ??_C@_0BI@MNCFCPFK@RegCreateKeyTransactedW@ 0000000180025910     CashDrawer.obj
 0002:00000928       _GUID_00000114_0000_0000_c000_000000000046 0000000180025928     CashDrawer.obj
 0002:00000938       _GUID_b196b287_bab4_101a_b69c_00aa00341d07 0000000180025938     CashDrawer.obj
 0002:00000948       _GUID_b196b285_bab4_101a_b69c_00aa00341d07 0000000180025948     CashDrawer.obj
 0002:00000958       _GUID_a6bc3ac0_dbaa_11ce_9de3_00aa004bb851 0000000180025958     CashDrawer.obj
 0002:00000968       _GUID_0000010c_0000_0000_c000_000000000046 0000000180025968     CashDrawer.obj
 0002:00000978       _GUID_00000146_0000_0000_c000_000000000046 0000000180025978     CashDrawer.obj
 0002:00000990       ?_entries@?1??_GetEntries@COPOSCashDrawer@@SAPEBU_ATL_INTMAP_ENTRY@ATL@@XZ@4QBU34@B 0000000180025990     CashDrawer.obj
 0002:00000c00       _GUID_cf51ed10_62fe_11cf_bf86_00a0c9034836 0000000180025c00     CashDrawer.obj
 0002:00000c10       _GUID_0000010a_0000_0000_c000_000000000046 0000000180025c10     CashDrawer.obj
 0002:00000c20       _GUID_b196b283_bab4_101a_b69c_00aa00341d07 0000000180025c20     CashDrawer.obj
 0002:00000c30       _GUID_cb5bdc81_93c1_11cf_8f20_00805f2cd064 0000000180025c30     CashDrawer.obj
 0002:00000c40       ?pPropMap@?1??GetPropertyMap@COPOSCashDrawer@@SAPEBUATL_PROPMAP_ENTRY@ATL@@XZ@4QBU34@B 0000000180025c40     CashDrawer.obj
 0002:00000ce8       ??_C@_17DGDADEHL@?$AA_?$AAc?$AAx@ 0000000180025ce8     CashDrawer.obj
 0002:00000cf0       ??_C@_17IOIMFDBO@?$AA_?$AAc?$AAy@ 0000000180025cf0     CashDrawer.obj
 0002:00000cf8       ??_7CComModule@ATL@@6B@    0000000180025cf8     CashDrawer.obj
 0002:00000d48       _GUID_00000000_0000_0000_c000_000000000046 0000000180025d48     CashDrawer.obj
 0002:00000d58       _GUID_00020400_0000_0000_c000_000000000046 0000000180025d58     CashDrawer.obj
 0002:00000d68       ??_7?$CComObjectCached@VCComClassFactory@ATL@@@ATL@@6B@ 0000000180025d68     CashDrawer.obj
 0002:00000d98       _GUID_922eada0_3424_11cf_b670_00aa004cd6d8 0000000180025d98     CashDrawer.obj
 0002:00000da8       _GUID_9c2cad80_3424_11cf_b670_00aa004cd6d8 0000000180025da8     CashDrawer.obj
 0002:00000db8       _GUID_00000119_0000_0000_c000_000000000046 0000000180025db8     CashDrawer.obj
 0002:00000dc8       _GUID_b196b289_bab4_101a_b69c_00aa00341d07 0000000180025dc8     CashDrawer.obj
 0002:00000dd8       ??_C@_1CE@PGFMOFKI@?$AAS?$AAt?$AAa?$AAt?$AAu?$AAs?$AAU?$AAp?$AAd?$AAa?$AAt?$AAe?$AAE?$AAv?$AAe@ 0000000180025dd8     CashDrawer.obj
 0002:00000e00       ??_C@_1BM@CBGEBBBJ@?$AAD?$AAi?$AAr?$AAe?$AAc?$AAt?$AAI?$AAO?$AAE?$AAv?$AAe?$AAn?$AAt@ 0000000180025e00     CashDrawer.obj
 0002:00000e20       _GUID_b196b286_bab4_101a_b69c_00aa00341d07 0000000180025e20     CashDrawer.obj
 0002:00000e30       _GUID_00000117_0000_0000_c000_000000000046 0000000180025e30     CashDrawer.obj
 0002:00000e40       ??_C@_1BC@ENICKDH@?$AAC?$AAo?$AAn?$AAt?$AAe?$AAn?$AAt?$AAs@ 0000000180025e40     CashDrawer.obj
 0002:00000e58       ??_7?$CComObject@V?$CComEnum@UIEnumConnectionPoints@@$1?_GUID_b196b285_bab4_101a_b69c_00aa00341d07@@3U__s_GUID@@BPEAUIConnectionPoint@@V?$_CopyInterface@UIConnectionPoint@@@ATL@@VCComSingleThreadModel@6@@ATL@@@ATL@@6B@ 0000000180025e58     CashDrawer.obj
 0002:00000e98       ??_C@_1M@KANJNLFF@?$AAC?$AAL?$AAS?$AAI?$AAD@ 0000000180025e98     CashDrawer.obj
 0002:00000ea8       ??_C@_1M@EJNEECMJ@?$AAA?$AAp?$AAp?$AAI?$AAD@ 0000000180025ea8     CashDrawer.obj
 0002:00000eb8       _GUID_0000010e_0000_0000_c000_000000000046 0000000180025eb8     CashDrawer.obj
 0002:00000ed0       ?rgszNeverDelete@CRegParser@ATL@@1QBQEB_WB 0000000180025ed0     CashDrawer.obj
 0002:00000f30       _GUID_b196b288_bab4_101a_b69c_00aa00341d07 0000000180025f30     CashDrawer.obj
 0002:00000f40       ??_7CRegObject@ATL@@6B@    0000000180025f40     CashDrawer.obj
 0002:00000f70       _GUID_00000113_0000_0000_c000_000000000046 0000000180025f70     CashDrawer.obj
 0002:00000f80       ??_C@_1CK@OEKPKBNA@?$AAC?$AAo?$AAm?$AAp?$AAo?$AAn?$AAe?$AAn?$AAt?$AA?5?$AAC?$AAa?$AAt?$AAe?$AAg@ 0000000180025f80     CashDrawer.obj
 0002:00000fb0       ??_C@_1BC@NKMMNMGL@?$AAF?$AAi?$AAl?$AAe?$AAT?$AAy?$AAp?$AAe@ 0000000180025fb0     CashDrawer.obj
 0002:00000fc8       ??_C@_1BE@EKPAFMCP@?$AAI?$AAn?$AAt?$AAe?$AAr?$AAf?$AAa?$AAc?$AAe@ 0000000180025fc8     CashDrawer.obj
 0002:00000fe0       ??_C@_1BC@MAICEHGI@?$AAH?$AAa?$AAr?$AAd?$AAw?$AAa?$AAr?$AAe@ 0000000180025fe0     CashDrawer.obj
 0002:00000ff8       ??_C@_19HLLLM@?$AAM?$AAi?$AAm?$AAe@ 0000000180025ff8     CashDrawer.obj
 0002:00001008       ??_C@_17OMAOINJK@?$AAS?$AAA?$AAM@ 0000000180026008     CashDrawer.obj
 0002:00001010       ??_C@_1BC@IBECJAAI@?$AAS?$AAE?$AAC?$AAU?$AAR?$AAI?$AAT?$AAY@ 0000000180026010     CashDrawer.obj
 0002:00001028       ??_C@_1O@GBFINDKL@?$AAS?$AAY?$AAS?$AAT?$AAE?$AAM@ 0000000180026028     CashDrawer.obj
 0002:00001038       ??_C@_1BC@EAHCMADO@?$AAS?$AAo?$AAf?$AAt?$AAw?$AAa?$AAr?$AAe@ 0000000180026038     CashDrawer.obj
 0002:00001050       ??_C@_1BA@JIHHIEDE@?$AAT?$AAy?$AAp?$AAe?$AAL?$AAi?$AAb@ 0000000180026050     CashDrawer.obj
 0002:00001060       _GUID_1c2056cc_5ef4_101b_8bc8_00aa003e3b29 0000000180026060     CashDrawer.obj
 0002:00001070       ?map@?1??HKeyFromString@CRegParser@ATL@@KAPEAUHKEY__@@PEA_W@Z@4QBUkeymap@?1??123@KAPEAU4@0@Z@B 0000000180026070     CashDrawer.obj
 0002:00001150       ??_C@_19NCHLBIN@?$AAH?$AAK?$AAC?$AAR@ 0000000180026150     CashDrawer.obj
 0002:00001160       ??_C@_19JAPAIJDE@?$AAH?$AAK?$AAC?$AAU@ 0000000180026160     CashDrawer.obj
 0002:00001170       ??_C@_19PEALEEJB@?$AAH?$AAK?$AAL?$AAM@ 0000000180026170     CashDrawer.obj
 0002:00001180       ??_C@_17PJOJPMPB@?$AAH?$AAK?$AAU@ 0000000180026180     CashDrawer.obj
 0002:00001188       ??_C@_19PNBHMJPL@?$AAH?$AAK?$AAP?$AAD@ 0000000180026188     CashDrawer.obj
 0002:00001198       ??_C@_19GFFAIJHG@?$AAH?$AAK?$AAD?$AAD@ 0000000180026198     CashDrawer.obj
 0002:000011a8       ??_C@_19OFICIBHH@?$AAH?$AAK?$AAC?$AAC@ 00000001800261a8     CashDrawer.obj
 0002:000011b8       ??_C@_1CE@PACHPJFI@?$AAH?$AAK?$AAE?$AAY?$AA_?$AAC?$AAL?$AAA?$AAS?$AAS?$AAE?$AAS?$AA_?$AAR?$AAO@ 00000001800261b8     CashDrawer.obj
 0002:000011e0       ??_C@_1CE@HLHNCBPM@?$AAH?$AAK?$AAE?$AAY?$AA_?$AAC?$AAU?$AAR?$AAR?$AAE?$AAN?$AAT?$AA_?$AAU?$AAS@ 00000001800261e0     CashDrawer.obj
 0002:00001208       ??_C@_1CG@GFBEANJL@?$AAH?$AAK?$AAE?$AAY?$AA_?$AAL?$AAO?$AAC?$AAA?$AAL?$AA_?$AAM?$AAA?$AAC?$AAH@ 0000000180026208     CashDrawer.obj
 0002:00001230       ??_C@_1BG@BGODANIO@?$AAH?$AAK?$AAE?$AAY?$AA_?$AAU?$AAS?$AAE?$AAR?$AAS@ 0000000180026230     CashDrawer.obj
 0002:00001248       ??_C@_1CM@KHNNAOIC@?$AAH?$AAK?$AAE?$AAY?$AA_?$AAP?$AAE?$AAR?$AAF?$AAO?$AAR?$AAM?$AAA?$AAN?$AAC@ 0000000180026248     CashDrawer.obj
 0002:00001278       ??_C@_1BM@HAGMMHIA@?$AAH?$AAK?$AAE?$AAY?$AA_?$AAD?$AAY?$AAN?$AA_?$AAD?$AAA?$AAT?$AAA@ 0000000180026278     CashDrawer.obj
 0002:00001298       ??_C@_1CI@BBJOACGG@?$AAH?$AAK?$AAE?$AAY?$AA_?$AAC?$AAU?$AAR?$AAR?$AAE?$AAN?$AAT?$AA_?$AAC?$AAO@ 0000000180026298     CashDrawer.obj
 0002:000012c0       _GUID_00000109_0000_0000_c000_000000000046 00000001800262c0     CashDrawer.obj
 0002:000012d0       _GUID_7fd52380_4e07_101b_ae2d_08002b2ec713 00000001800262d0     CashDrawer.obj
 0002:000012e0       _GUID_00000112_0000_0000_c000_000000000046 00000001800262e0     CashDrawer.obj
 0002:000012f0       ??_C@_1EA@NHKLICFA@?$AAH?$AAK?$AAC?$AAU?$AA?$AN?$AA?6?$AA?$HL?$AA?7?$AAS?$AAo?$AAf?$AAt?$AAw?$AAa?$AAr@ 00000001800262f0     CashDrawer.obj
 0002:00001330       ??_C@_1BE@LJOLIMEM@?$AA?$AN?$AA?6?$AA?7?$AA?$HN?$AA?$AN?$AA?6?$AA?$HN?$AA?$AN?$AA?6@ 0000000180026330     CashDrawer.obj
 0002:00001348       _GUID_3af24292_0c96_11ce_a0cf_00aa00600ab8 0000000180026348     CashDrawer.obj
 0002:00001358       _GUID_00000127_0000_0000_c000_000000000046 0000000180026358     CashDrawer.obj
 0002:00001368       _GUID_0000010d_0000_0000_c000_000000000046 0000000180026368     CashDrawer.obj
 0002:00001378       ??_C@_1M@PPPPCDEP@?$AAA?$AAP?$AAP?$AAI?$AAD@ 0000000180026378     CashDrawer.obj
 0002:00001388       ??_C@_1O@MNLDABAF@?$AAM?$AAo?$AAd?$AAu?$AAl?$AAe@ 0000000180026388     CashDrawer.obj
 0002:00001398       ??_C@_1BG@JBACFMF@?$AAM?$AAo?$AAd?$AAu?$AAl?$AAe?$AA_?$AAR?$AAa?$AAw@ 0000000180026398     CashDrawer.obj
 0002:000013b0       ??_C@_1BC@KAILKFFG@?$AAR?$AAE?$AAG?$AAI?$AAS?$AAT?$AAR?$AAY@ 00000001800263b0     CashDrawer.obj
 0002:000013c8       ??_7?$CComContainedObject@VCOPOSCashDrawer@@@ATL@@6B?$IDispatchImpl@UIOPOSCashDrawer@@$1?IID_IOPOSCashDrawer@@3U_GUID@@B$1?LIBID_OposCashDrawer_CCO@@3U3@B$00$0A@VCComTypeInfoHolder@ATL@@@1@@ 00000001800263c8     CashDrawer.obj
 0002:00001580       ??_7?$CComContainedObject@VCOPOSCashDrawer@@@ATL@@6BCComControlBase@1@@ 0000000180026580     CashDrawer.obj
 0002:000015a8       ??_7?$CComContainedObject@VCOPOSCashDrawer@@@ATL@@6B?$CWindowImpl@VCOPOSCashDrawer@@VCWindow@ATL@@V?$CWinTraits@$0FGAAAAAA@$0A@@3@@1@@ 00000001800265a8     CashDrawer.obj
 0002:000015c8       ??_7?$CComContainedObject@VCOPOSCashDrawer@@@ATL@@6B?$IPersistStreamInitImpl@VCOPOSCashDrawer@@@1@@ 00000001800265c8     CashDrawer.obj
 0002:00001610       ??_7?$CComContainedObject@VCOPOSCashDrawer@@@ATL@@6B?$IOleControlImpl@VCOPOSCashDrawer@@@1@@ 0000000180026610     CashDrawer.obj
 0002:00001648       ??_7?$CComContainedObject@VCOPOSCashDrawer@@@ATL@@6B?$IOleObjectImpl@VCOPOSCashDrawer@@@1@@ 0000000180026648     CashDrawer.obj
 0002:00001708       ??_7?$CComContainedObject@VCOPOSCashDrawer@@@ATL@@6B?$IOleInPlaceActiveObjectImpl@VCOPOSCashDrawer@@@1@@ 0000000180026708     CashDrawer.obj
 0002:00001758       ??_7?$CComContainedObject@VCOPOSCashDrawer@@@ATL@@6B?$IViewObjectExImpl@VCOPOSCashDrawer@@@1@@ 0000000180026758     CashDrawer.obj
 0002:000017d0       ??_7?$CComContainedObject@VCOPOSCashDrawer@@@ATL@@6B?$IOleInPlaceObjectWindowlessImpl@VCOPOSCashDrawer@@@1@@ 00000001800267d0     CashDrawer.obj
 0002:00001828       ??_7?$CComContainedObject@VCOPOSCashDrawer@@@ATL@@6B?$IConnectionPointContainerImpl@VCOPOSCashDrawer@@@1@@ 0000000180026828     CashDrawer.obj
 0002:00001850       ??_7?$CComContainedObject@VCOPOSCashDrawer@@@ATL@@6B?$IPersistStorageImpl@VCOPOSCashDrawer@@@1@@ 0000000180026850     CashDrawer.obj
 0002:000018a0       ??_7?$CComContainedObject@VCOPOSCashDrawer@@@ATL@@6B?$ISpecifyPropertyPagesImpl@VCOPOSCashDrawer@@@1@@ 00000001800268a0     CashDrawer.obj
 0002:000018c0       ??_7?$CComContainedObject@VCOPOSCashDrawer@@@ATL@@6B?$IQuickActivateImpl@VCOPOSCashDrawer@@@1@@ 00000001800268c0     CashDrawer.obj
 0002:000018f0       ??_7?$CComContainedObject@VCOPOSCashDrawer@@@ATL@@6B?$IDataObjectImpl@VCOPOSCashDrawer@@@1@@ 00000001800268f0     CashDrawer.obj
 0002:00001950       ??_7?$CComContainedObject@VCOPOSCashDrawer@@@ATL@@6B?$IProvideClassInfo2Impl@$1?CLSID_OPOSCashDrawer@@3U_GUID@@B$1?DIID__IOPOSCashDrawerEvents@@3U2@B$1?LIBID_OposCashDrawer_CCO@@3U2@B$00$0A@VCComTypeInfoHolder@ATL@@@1@@ 0000000180026950     CashDrawer.obj
 0002:00001978       ??_7?$CComContainedObject@VCOPOSCashDrawer@@@ATL@@6B?$IObjectSafetyImpl@VCOPOSCashDrawer@@$02@1@@ 0000000180026978     CashDrawer.obj
 0002:000019a8       ??_7?$CComContainedObject@VCOPOSCashDrawer@@@ATL@@6B?$IPropertyNotifySinkCP@VCOPOSCashDrawer@@VCComDynamicUnkArray@ATL@@@1@@ 00000001800269a8     CashDrawer.obj
 0002:000019e8       ??_7?$CComContainedObject@VCOPOSCashDrawer@@@ATL@@6B?$CProxy_IOPOSEvents@VCOPOSCashDrawer@@@@@ 00000001800269e8     CashDrawer.obj
 0002:00001a28       ??_7?$CComAggObject@VCOPOSCashDrawer@@@ATL@@6B@ 0000000180026a28     CashDrawer.obj
 0002:00001a48       ??_7?$CComObject@VCOPOSCashDrawer@@@ATL@@6B?$IDispatchImpl@UIOPOSCashDrawer@@$1?IID_IOPOSCashDrawer@@3U_GUID@@B$1?LIBID_OposCashDrawer_CCO@@3U3@B$00$0A@VCComTypeInfoHolder@ATL@@@1@@ 0000000180026a48     CashDrawer.obj
 0002:00001c00       ??_7?$CComObject@VCOPOSCashDrawer@@@ATL@@6BCComControlBase@1@@ 0000000180026c00     CashDrawer.obj
 0002:00001c28       ??_7?$CComObject@VCOPOSCashDrawer@@@ATL@@6B?$CWindowImpl@VCOPOSCashDrawer@@VCWindow@ATL@@V?$CWinTraits@$0FGAAAAAA@$0A@@3@@1@@ 0000000180026c28     CashDrawer.obj
 0002:00001c48       ??_7?$CComObject@VCOPOSCashDrawer@@@ATL@@6B?$IPersistStreamInitImpl@VCOPOSCashDrawer@@@1@@ 0000000180026c48     CashDrawer.obj
 0002:00001c90       ??_7?$CComObject@VCOPOSCashDrawer@@@ATL@@6B?$IOleControlImpl@VCOPOSCashDrawer@@@1@@ 0000000180026c90     CashDrawer.obj
 0002:00001cc8       ??_7?$CComObject@VCOPOSCashDrawer@@@ATL@@6B?$IOleObjectImpl@VCOPOSCashDrawer@@@1@@ 0000000180026cc8     CashDrawer.obj
 0002:00001d88       ??_7?$CComObject@VCOPOSCashDrawer@@@ATL@@6B?$IOleInPlaceActiveObjectImpl@VCOPOSCashDrawer@@@1@@ 0000000180026d88     CashDrawer.obj
 0002:00001dd8       ??_7?$CComObject@VCOPOSCashDrawer@@@ATL@@6B?$IViewObjectExImpl@VCOPOSCashDrawer@@@1@@ 0000000180026dd8     CashDrawer.obj
 0002:00001e50       ??_7?$CComObject@VCOPOSCashDrawer@@@ATL@@6B?$IOleInPlaceObjectWindowlessImpl@VCOPOSCashDrawer@@@1@@ 0000000180026e50     CashDrawer.obj
 0002:00001ea8       ??_7?$CComObject@VCOPOSCashDrawer@@@ATL@@6B?$IConnectionPointContainerImpl@VCOPOSCashDrawer@@@1@@ 0000000180026ea8     CashDrawer.obj
 0002:00001ed0       ??_7?$CComObject@VCOPOSCashDrawer@@@ATL@@6B?$IPersistStorageImpl@VCOPOSCashDrawer@@@1@@ 0000000180026ed0     CashDrawer.obj
 0002:00001f20       ??_7?$CComObject@VCOPOSCashDrawer@@@ATL@@6B?$ISpecifyPropertyPagesImpl@VCOPOSCashDrawer@@@1@@ 0000000180026f20     CashDrawer.obj
 0002:00001f40       ??_7?$CComObject@VCOPOSCashDrawer@@@ATL@@6B?$IQuickActivateImpl@VCOPOSCashDrawer@@@1@@ 0000000180026f40     CashDrawer.obj
 0002:00001f70       ??_7?$CComObject@VCOPOSCashDrawer@@@ATL@@6B?$IDataObjectImpl@VCOPOSCashDrawer@@@1@@ 0000000180026f70     CashDrawer.obj
 0002:00001fd0       ??_7?$CComObject@VCOPOSCashDrawer@@@ATL@@6B?$IProvideClassInfo2Impl@$1?CLSID_OPOSCashDrawer@@3U_GUID@@B$1?DIID__IOPOSCashDrawerEvents@@3U2@B$1?LIBID_OposCashDrawer_CCO@@3U2@B$00$0A@VCComTypeInfoHolder@ATL@@@1@@ 0000000180026fd0     CashDrawer.obj
 0002:00001ff8       ??_7?$CComObject@VCOPOSCashDrawer@@@ATL@@6B?$IObjectSafetyImpl@VCOPOSCashDrawer@@$02@1@@ 0000000180026ff8     CashDrawer.obj
 0002:00002028       ??_7?$CComObject@VCOPOSCashDrawer@@@ATL@@6B?$IPropertyNotifySinkCP@VCOPOSCashDrawer@@VCComDynamicUnkArray@ATL@@@1@@ 0000000180027028     CashDrawer.obj
 0002:00002068       ??_7?$CComObject@VCOPOSCashDrawer@@@ATL@@6B?$CProxy_IOPOSEvents@VCOPOSCashDrawer@@@@@ 0000000180027068     CashDrawer.obj
 0002:000020a8       ??_C@_1O@GBFKGNEO@?$AAA?$AAT?$AAL?$AA?3?$AA?$CF?$AAp@ 00000001800270a8     CashDrawer.obj
 0002:000020b8       ??_C@_1BA@PICGEGJB@?$AAD?$AAI?$AAS?$AAP?$AAL?$AAA?$AAY@ 00000001800270b8     CashDrawer.obj
 0002:000020c8       _GUID_b196b284_bab4_101a_b69c_00aa00341d07 00000001800270c8     CashDrawer.obj
 0002:000020d8       _GUID_9bfbbc02_eff1_101a_84ed_00aa00341d07 00000001800270d8     CashDrawer.obj
 0002:000020e8       ?_entries@?1??_GetEntries@?$CComEnum@UIEnumConnectionPoints@@$1?_GUID_b196b285_bab4_101a_b69c_00aa00341d07@@3U__s_GUID@@BPEAUIConnectionPoint@@V?$_CopyInterface@UIConnectionPoint@@@ATL@@VCComSingleThreadModel@6@@ATL@@SAPEBU_ATL_INTMAP_ENTRY@3@XZ@4QBU43@B 00000001800270e8     CashDrawer.obj
 0002:00002118       _GUID_00020412_0000_0000_c000_000000000046 0000000180027118     CashDrawer.obj
 0002:00002128       _GUID_00020401_0000_0000_c000_000000000046 0000000180027128     CashDrawer.obj
 0002:00002138       ??_C@_0BG@EKFFMJIO@RegOpenKeyTransactedW@ 0000000180027138     CashDrawer.obj
 0002:00002150       ??_C@_0BI@HAKLOOGP@RegDeleteKeyTransactedW@ 0000000180027150     CashDrawer.obj
 0002:00002168       ??_C@_0BA@LILAPHGE@RegDeleteKeyExW@ 0000000180027168     CashDrawer.obj
 0002:00002178       ??_C@_19ILOCMLCJ@?$AA?4?$AAt?$AAl?$AAb@ 0000000180027178     CashDrawer.obj
 0002:00002188       _GUID_0002e012_0000_0000_c000_000000000046 0000000180027188     CashDrawer.obj
 0002:00002198       ??_C@_1O@FHBGLCIO@?$AAC?$AAL?$AAS?$AAI?$AAD?$AA?2@ 0000000180027198     CashDrawer.obj
 0002:000021a8       ??_C@_1CK@IFBKBFAA@?$AA?2?$AAR?$AAe?$AAq?$AAu?$AAi?$AAr?$AAe?$AAd?$AA?5?$AAC?$AAa?$AAt?$AAe?$AAg@ 00000001800271a8     CashDrawer.obj
 0002:000021d8       ??_C@_1DA@BIHALFED@?$AA?2?$AAI?$AAm?$AAp?$AAl?$AAe?$AAm?$AAe?$AAn?$AAt?$AAe?$AAd?$AA?5?$AAC?$AAa@ 00000001800271d8     CashDrawer.obj
 0002:00002208       ??_C@_1BK@EDKOLFBJ@?$AAO?$AAL?$AAE?$AAA?$AAU?$AAT?$AA3?$AA2?$AA?4?$AAD?$AAL?$AAL@ 0000000180027208     CashDrawer.obj
 0002:00002228       ??_C@_0BJ@CNLFOMHB@UnRegisterTypeLibForUser@ 0000000180027228     CashDrawer.obj
 0002:00002248       ??_C@_0BH@LBOMMKPJ@RegisterTypeLibForUser@ 0000000180027248     CashDrawer.obj
 0002:00002260       ??_C@_0P@MMNMMLGK@COFreezeEvents@ 0000000180027260     CashDrawerImpl.obj
 0002:00002270       ??_C@_0BC@OGCGGIMP@GetPropertyNumber@ 0000000180027270     CashDrawerImpl.obj
 0002:00002288       ??_C@_0BC@MDCNODNB@SetPropertyNumber@ 0000000180027288     CashDrawerImpl.obj
 0002:000022a0       ??_C@_0BC@CFCCMIMD@GetPropertyString@ 00000001800272a0     CashDrawerImpl.obj
 0002:000022b8       ??_C@_0BC@CJEDNN@SetPropertyString@ 00000001800272b8     CashDrawerImpl.obj
 0002:000022d0       ??_C@_0M@LNPKKKDA@OpenService@ 00000001800272d0     CashDrawerImpl.obj
 0002:000022e0       ??_C@_0M@PCMCHHMH@CheckHealth@ 00000001800272e0     CashDrawerImpl.obj
 0002:000022f0       ??_C@_0M@JGMIDNEK@ClaimDevice@ 00000001800272f0     CashDrawerImpl.obj
 0002:00002300       ??_C@_0N@DDFIIBMP@CloseService@ 0000000180027300     CashDrawerImpl.obj
 0002:00002310       ??_C@_08EEIHICPC@DirectIO@ 0000000180027310     CashDrawerImpl.obj
 0002:00002320       ??_C@_0O@BCPMENMJ@ReleaseDevice@ 0000000180027320     CashDrawerImpl.obj
 0002:00002330       ??_C@_0L@DBFHJAH@OpenDrawer@ 0000000180027330     CashDrawerImpl.obj
 0002:00002340       ??_C@_0BD@OMLIOAJI@WaitForDrawerClose@ 0000000180027340     CashDrawerImpl.obj
 0002:00002358       ??_C@_0BA@GFABKEEE@ResetStatistics@ 0000000180027358     CashDrawerImpl.obj
 0002:00002368       ??_C@_0BD@DPALHJGC@RetrieveStatistics@ 0000000180027368     CashDrawerImpl.obj
 0002:00002380       ??_C@_0BB@KOHIKNFC@UpdateStatistics@ 0000000180027380     CashDrawerImpl.obj
 0002:00002398       ??_C@_0BH@PBKBNMGB@CompareFirmwareVersion@ 0000000180027398     CashDrawerImpl.obj
 0002:000023b0       ??_C@_0P@FBPDPIPA@UpdateFirmware@ 00000001800273b0     CashDrawerImpl.obj
 0002:000023c0       ??_7?$CProxy_IOPOSEvents@VCOPOSCashDrawer@@@@6B@ 00000001800273c0     CashDrawerImpl.obj
 0002:00002400       ??_C@_1BA@IFHENID@?$AA?$FL?$AAE?$AAr?$AAr?$AAo?$AAr?$AA?$FN@ 0000000180027400     CashDrawerImpl.obj
 0002:00002410       ??_C@_0CN@FIMOCEHP@SOFTWARE?2OLEforRetail?2ServiceOP@ 0000000180027410     CashDrawerImpl.obj
 0002:00002440       ??_C@_1M@IAIJHCCH@?$AAC?$AAl?$AAo?$AAs?$AAe@ 0000000180027440     CashDrawerImpl.obj
 0002:00002450       ??_C@_1M@PCPKGJAH@?$AAC?$AAl?$AAa?$AAi?$AAm@ 0000000180027450     CashDrawerImpl.obj
 0002:00002460       ??_C@_1BA@NDFKIOCP@?$AAR?$AAe?$AAl?$AAe?$AAa?$AAs?$AAe@ 0000000180027460     CashDrawerImpl.obj
 0002:00002470       ??_C@_0L@NINGDDGK@CashDrawer@ 0000000180027470     CashDrawerImpl.obj
 0002:00002480       ??_C@_1BM@IJMNMBPK@?$AAG?$AAe?$AAt?$AAO?$AAp?$AAe?$AAn?$AAR?$AAe?$AAs?$AAu?$AAl?$AAt@ 0000000180027480     CashDrawerImpl.obj
 0002:000024a0       IID_IDispatch              00000001800274a0     uuid:oaidl_i.obj
 0002:000024b0       IID_IPropertyNotifySink    00000001800274b0     uuid:ocidl_i.obj
 0002:000024c0       GUID_NULL                  00000001800274c0     uuid:cguid_i.obj
 0002:000024d0       CLSID_StdGlobalInterfaceTable 00000001800274d0     uuid:cguid_i.obj
 0002:000024e0       CLSID_StdComponentCategoriesMgr 00000001800274e0     uuid:ieguids.obj
 0002:000024f0       IID_IUnknown               00000001800274f0     uuid:unknwn_i.obj
 0002:00002500       __xmm@ffffffffffffffffffffffffffffffff 0000000180027500     LIBCMT:utility.obj
 0002:00002510       ??_C@_1EC@JIJBPKFM@?$AAa?$AAp?$AAi?$AA?9?$AAm?$AAs?$AA?9?$AAw?$AAi?$AAn?$AA?9?$AAc?$AAo?$AAr?$AAe@ 0000000180027510     LIBCMT:thread_safe_statics.obj
 0002:00002558       ??_C@_1BK@MGMFAEKH@?$AAk?$AAe?$AAr?$AAn?$AAe?$AAl?$AA3?$AA2?$AA?4?$AAd?$AAl?$AAl@ 0000000180027558     LIBCMT:thread_safe_statics.obj
 0002:00002578       ??_C@_0BJ@JEBJOJFJ@SleepConditionVariableCS@ 0000000180027578     LIBCMT:thread_safe_statics.obj
 0002:00002598       ??_C@_0BJ@PGPPEPCC@WakeAllConditionVariable@ 0000000180027598     LIBCMT:thread_safe_statics.obj
 0002:000025b1       ?nothrow@std@@3Unothrow_t@1@B 00000001800275b1     LIBCMT:std_nothrow.obj
 0002:000025c8       _pDefaultRawDllMain        00000001800275c8     LIBCMT:dll_dllmain.obj
 0002:000025c8       _pRawDllMain               00000001800275c8     LIBCMT:dll_dllmain.obj
 0002:000025d8       ??_7exception@std@@6B@     00000001800275d8     LIBCMT:throw_bad_alloc.obj
 0002:000025e8       ??_C@_0BC@EOODALEL@Unknown?5exception@ 00000001800275e8     LIBCMT:throw_bad_alloc.obj
 0002:00002608       ??_7bad_alloc@std@@6B@     0000000180027608     LIBCMT:throw_bad_alloc.obj
 0002:00002618       ??_C@_0P@GHFPNOJB@bad?5allocation@ 0000000180027618     LIBCMT:throw_bad_alloc.obj
 0002:00002630       ??_7bad_array_new_length@std@@6B@ 0000000180027630     LIBCMT:throw_bad_alloc.obj
 0002:00002640       ??_C@_0BF@KINCDENJ@bad?5array?5new?5length@ 0000000180027640     LIBCMT:throw_bad_alloc.obj
 0002:00002660       ??_7type_info@@6B@         0000000180027660     LIBCMT:std_type_info_static.obj
 0002:00002668       GUID_ATLVer110             0000000180027668     atls:atlbase.obj
 0002:00002680       ??_C@_1IC@ONKHOIDK@?$AAE?$AAR?$AAR?$AAO?$AAR?$AA?5?$AA?3?$AA?5?$AAU?$AAn?$AAa?$AAb?$AAl?$AAe?$AA?5@ 0000000180027680     atls:atlbase.obj
 0002:00002708       ??_C@_0N@FJEPLCIH@atlthunk?4dll@ 0000000180027708     atls:atlthunk.obj
 0002:00002718       ??_C@_0BG@GAKFHCBM@AtlThunk_AllocateData@ 0000000180027718     atls:atlthunk.obj
 0002:00002730       ??_C@_0BC@JKONFIAH@AtlThunk_InitData@ 0000000180027730     atls:atlthunk.obj
 0002:00002748       ??_C@_0BE@IAOEELAK@AtlThunk_DataToCode@ 0000000180027748     atls:atlthunk.obj
 0002:00002760       ??_C@_0BC@GBGKAIPI@AtlThunk_FreeData@ 0000000180027760     atls:atlthunk.obj
 0002:00002778       ?s_negLengthTab@FH4@@3QBCB 0000000180027778     libvcruntime:risctrnsctrl.obj
 0002:00002788       ?s_shiftTab@FH4@@3QBEB     0000000180027788     libvcruntime:risctrnsctrl.obj
 0002:000028d8       _pDestructExceptionObject  00000001800278d8     libvcruntime:ehhelpers.obj
 0002:000028e8       ??_7bad_exception@std@@6B@ 00000001800278e8     libvcruntime:frame.obj
 0002:000028f8       ??_C@_0O@DPKOEFFH@bad?5exception@ 00000001800278f8     libvcruntime:frame.obj
 0002:00003020       ??_C@_08EHJDFFNH@__based?$CI@ 0000000180028020     libvcruntime:undname.obj
 0002:00003030       ??_C@_07KOLFKCDI@__cdecl@  0000000180028030     libvcruntime:undname.obj
 0002:00003038       ??_C@_08GHMPAG@__pascal@   0000000180028038     libvcruntime:undname.obj
 0002:00003048       ??_C@_09IFJBGAPI@__stdcall@ 0000000180028048     libvcruntime:undname.obj
 0002:00003058       ??_C@_0L@NPHFGOKO@__thiscall@ 0000000180028058     libvcruntime:undname.obj
 0002:00003068       ??_C@_0L@JMKHOMEK@__fastcall@ 0000000180028068     libvcruntime:undname.obj
 0002:00003078       ??_C@_0N@BCKKPABJ@__vectorcall@ 0000000180028078     libvcruntime:undname.obj
 0002:00003088       ??_C@_09HIJEGCPM@__clrcall@ 0000000180028088     libvcruntime:undname.obj
 0002:00003094       ??_C@_06GHPCKEAG@__eabi@   0000000180028094     libvcruntime:undname.obj
 0002:000030a0       ??_C@_09IOPIDJLG@__swift_1@ 00000001800280a0     libvcruntime:undname.obj
 0002:000030b0       ??_C@_09KFNFGKHF@__swift_2@ 00000001800280b0     libvcruntime:undname.obj
 0002:000030c0       ??_C@_09LMMOFLDE@__swift_3@ 00000001800280c0     libvcruntime:undname.obj
 0002:000030d0       ??_C@_07JOMMBBKO@__ptr64@  00000001800280d0     libvcruntime:undname.obj
 0002:000030d8       ??_C@_0L@PILCLIHE@__restrict@ 00000001800280d8     libvcruntime:undname.obj
 0002:000030e8       ??_C@_0M@GFIIJFMG@__unaligned@ 00000001800280e8     libvcruntime:undname.obj
 0002:000030f8       ??_C@_09DHDLOLLB@restrict?$CI@ 00000001800280f8     libvcruntime:undname.obj
 0002:00003102       ??_C@_00CNPNBAHC@@         0000000180028102     libvcruntime:undname.obj
 0002:00003104       ??_C@_04NIHEBCM@?5new@     0000000180028104     libvcruntime:undname.obj
 0002:00003110       ??_C@_07FPCDHGMM@?5delete@ 0000000180028110     libvcruntime:undname.obj
 0002:00003118       ??_C@_01NEMOKFLO@?$DN@     0000000180028118     libvcruntime:undname.obj
 0002:0000311c       ??_C@_02GPIOPFAK@?$DO?$DO@ 000000018002811c     libvcruntime:undname.obj
 0002:00003120       ??_C@_02FODMEDOG@?$DM?$DM@ 0000000180028120     libvcruntime:undname.obj
 0002:00003124       ??_C@_01DCLJPIOD@?$CB@     0000000180028124     libvcruntime:undname.obj
 0002:00003128       ??_C@_02EGOFBIJA@?$DN?$DN@ 0000000180028128     libvcruntime:undname.obj
 0002:0000312c       ??_C@_02FDNJECIE@?$CB?$DN@ 000000018002812c     libvcruntime:undname.obj
 0002:00003130       ??_C@_02GPECMEKF@?$FL?$FN@ 0000000180028130     libvcruntime:undname.obj
 0002:00003138       ??_C@_08LHJFAFGD@operator@ 0000000180028138     libvcruntime:undname.obj
 0002:00003144       ??_C@_02HBOOOICD@?9?$DO@   0000000180028144     libvcruntime:undname.obj
 0002:00003148       ??_C@_01NBENCBCI@?$CK@     0000000180028148     libvcruntime:undname.obj
 0002:0000314c       ??_C@_02ECNGHCIF@?$CL?$CL@ 000000018002814c     libvcruntime:undname.obj
 0002:00003150       ??_C@_02BAABKJLB@?9?9@     0000000180028150     libvcruntime:undname.obj
 0002:00003154       ??_C@_01JOAMLHOP@?9@       0000000180028154     libvcruntime:undname.obj
 0002:00003158       ??_C@_01MIFGBAGJ@?$CL@     0000000180028158     libvcruntime:undname.obj
 0002:0000315c       ??_C@_01HNPIGOCE@?$CG@     000000018002815c     libvcruntime:undname.obj
 0002:00003160       ??_C@_03MNHNFDLC@?9?$DO?$CK@ 0000000180028160     libvcruntime:undname.obj
 0002:00003164       ??_C@_01KMDKNFGN@?1@       0000000180028164     libvcruntime:undname.obj
 0002:00003168       ??_C@_01FGNFDNOH@?$CF@     0000000180028168     libvcruntime:undname.obj
 0002:0000316c       ??_C@_01MNNFJEPP@?$DM@     000000018002816c     libvcruntime:undname.obj
 0002:00003170       ??_C@_02EHCHHCKH@?$DM?$DN@ 0000000180028170     libvcruntime:undname.obj
 0002:00003174       ??_C@_01PPODPGHN@?$DO@     0000000180028174     libvcruntime:undname.obj
 0002:00003178       ??_C@_02EEKDKGMJ@?$DO?$DN@ 0000000180028178     libvcruntime:undname.obj
 0002:0000317c       ??_C@_01IHBHIGKO@?0@       000000018002817c     libvcruntime:undname.obj
 0002:00003180       ??_C@_02HCKGKOFO@?$CI?$CJ@ 0000000180028180     libvcruntime:undname.obj
 0002:00003184       ??_C@_01PJKLJHI@?$HO@      0000000180028184     libvcruntime:undname.obj
 0002:00003188       ??_C@_01JKBOJNNK@?$FO@     0000000180028188     libvcruntime:undname.obj
 0002:0000318c       ??_C@_01DNKMNLPK@?$HM@     000000018002818c     libvcruntime:undname.obj
 0002:00003190       ??_C@_02PPKAJPJL@?$CG?$CG@ 0000000180028190     libvcruntime:undname.obj
 0002:00003194       ??_C@_02NONPIBCD@?$HM?$HM@ 0000000180028194     libvcruntime:undname.obj
 0002:00003198       ??_C@_02FPIMKNGF@?$CK?$DN@ 0000000180028198     libvcruntime:undname.obj
 0002:0000319c       ??_C@_02FOEOMHFC@?$CL?$DN@ 000000018002819c     libvcruntime:undname.obj
 0002:000031a0       ??_C@_02FKMDLLOA@?9?$DN@   00000001800281a0     libvcruntime:undname.obj
 0002:000031a4       ??_C@_02FJEHGPIO@?1?$DN@   00000001800281a4     libvcruntime:undname.obj
 0002:000031a8       ??_C@_02FENAOKFI@?$CF?$DN@ 00000001800281a8     libvcruntime:undname.obj
 0002:000031ac       ??_C@_03IKFCCPFF@?$DO?$DO?$DN@ 00000001800281ac     libvcruntime:undname.obj
 0002:000031b0       ??_C@_03CDNPDDLA@?$DM?$DM?$DN@ 00000001800281b0     libvcruntime:undname.obj
 0002:000031b4       ??_C@_02FGJGFEAB@?$CG?$DN@ 00000001800281b4     libvcruntime:undname.obj
 0002:000031b8       ??_C@_02DHLNPPGH@?$HM?$DN@ 00000001800281b8     libvcruntime:undname.obj
 0002:000031bc       ??_C@_02MHEGNOJ@?$FO?$DN@  00000001800281bc     libvcruntime:undname.obj
 0002:000031c0       ??_C@_09IFPLHPGF@?$GAvftable?8@ 00000001800281c0     libvcruntime:undname.obj
 0002:000031d0       ??_C@_09BLBHBJP@?$GAvbtable?8@ 00000001800281d0     libvcruntime:undname.obj
 0002:000031e0       ??_C@_07FEEIOKP@?$GAvcall?8@ 00000001800281e0     libvcruntime:undname.obj
 0002:000031e8       ??_C@_08LLFFHHDJ@?$GAtypeof?8@ 00000001800281e8     libvcruntime:undname.obj
 0002:000031f8       ??_C@_0BF@KDPPACIK@?$GAlocal?5static?5guard?8@ 00000001800281f8     libvcruntime:undname.obj
 0002:00003210       ??_C@_08OBABFOLI@?$GAstring?8@ 0000000180028210     libvcruntime:undname.obj
 0002:00003220       ??_C@_0BD@JDLKDPAB@?$GAvbase?5destructor?8@ 0000000180028220     libvcruntime:undname.obj
 0002:00003238       ??_C@_0BN@DEGPLNFK@?$GAvector?5deleting?5destructor?8@ 0000000180028238     libvcruntime:undname.obj
 0002:00003258       ??_C@_0BO@OBMKPJIG@?$GAdefault?5constructor?5closure?8@ 0000000180028258     libvcruntime:undname.obj
 0002:00003278       ??_C@_0BN@IMDCHIKM@?$GAscalar?5deleting?5destructor?8@ 0000000180028278     libvcruntime:undname.obj
 0002:00003298       ??_C@_0BO@PFGOCPJJ@?$GAvector?5constructor?5iterator?8@ 0000000180028298     libvcruntime:undname.obj
 0002:000032b8       ??_C@_0BN@LFPFMEDL@?$GAvector?5destructor?5iterator?8@ 00000001800282b8     libvcruntime:undname.obj
 0002:000032d8       ??_C@_0CE@IKBNEHA@?$GAvector?5vbase?5constructor?5itera@ 00000001800282d8     libvcruntime:undname.obj
 0002:00003300       ??_C@_0BL@NILFHHPC@?$GAvirtual?5displacement?5map?8@ 0000000180028300     libvcruntime:undname.obj
 0002:00003320       ??_C@_0CB@JONCMFFK@?$GAeh?5vector?5constructor?5iterator@ 0000000180028320     libvcruntime:undname.obj
 0002:00003348       ??_C@_0CA@GCEOPDGL@?$GAeh?5vector?5destructor?5iterator?8@ 0000000180028348     libvcruntime:undname.obj
 0002:00003368       ??_C@_0CH@OOJPLCPH@?$GAeh?5vector?5vbase?5constructor?5it@ 0000000180028368     libvcruntime:undname.obj
 0002:00003390       ??_C@_0BL@LLKPOHJI@?$GAcopy?5constructor?5closure?8@ 0000000180028390     libvcruntime:undname.obj
 0002:000033b0       ??_C@_0BA@KBCDOMBN@?$GAudt?5returning?8@ 00000001800283b0     libvcruntime:undname.obj
 0002:000033c0       ??_C@_03KLGMFNMG@?$GAEH@   00000001800283c0     libvcruntime:undname.obj
 0002:000033c4       ??_C@_05KHLCHHI@?$GARTTI@  00000001800283c4     libvcruntime:undname.obj
 0002:000033d0       ??_C@_0BA@KKLDJDLB@?$GAlocal?5vftable?8@ 00000001800283d0     libvcruntime:undname.obj
 0002:000033e0       ??_C@_0CE@IIHCMGGL@?$GAlocal?5vftable?5constructor?5clos@ 00000001800283e0     libvcruntime:undname.obj
 0002:00003404       ??_C@_06FHBGPFGH@?5new?$FL?$FN@ 0000000180028404     libvcruntime:undname.obj
 0002:00003410       ??_C@_09LBNFPBCA@?5delete?$FL?$FN@ 0000000180028410     libvcruntime:undname.obj
 0002:00003420       ??_C@_0P@HJKNJFNN@?$GAomni?5callsig?8@ 0000000180028420     libvcruntime:undname.obj
 0002:00003430       ??_C@_0BL@CNOONJFP@?$GAplacement?5delete?5closure?8@ 0000000180028430     libvcruntime:undname.obj
 0002:00003450       ??_C@_0BN@CKNJLHMB@?$GAplacement?5delete?$FL?$FN?5closure?8@ 0000000180028450     libvcruntime:undname.obj
 0002:00003470       ??_C@_0CG@CFDHKGGD@?$GAmanaged?5vector?5constructor?5ite@ 0000000180028470     libvcruntime:undname.obj
 0002:00003498       ??_C@_0CF@IMGKMJNO@?$GAmanaged?5vector?5destructor?5iter@ 0000000180028498     libvcruntime:undname.obj
 0002:000034c0       ??_C@_0CG@HLDDJMAG@?$GAeh?5vector?5copy?5constructor?5ite@ 00000001800284c0     libvcruntime:undname.obj
 0002:000034e8       ??_C@_0CM@FCBBDIGB@?$GAeh?5vector?5vbase?5copy?5construct@ 00000001800284e8     libvcruntime:undname.obj
 0002:00003518       ??_C@_0BL@CLIPGLGB@?$GAdynamic?5initializer?5for?5?8@ 0000000180028518     libvcruntime:undname.obj
 0002:00003538       ??_C@_0CB@PDBIFEP@?$GAdynamic?5atexit?5destructor?5for?5@ 0000000180028538     libvcruntime:undname.obj
 0002:00003560       ??_C@_0CD@CGAJBKEJ@?$GAvector?5copy?5constructor?5iterat@ 0000000180028560     libvcruntime:undname.obj
 0002:00003588       ??_C@_0CJ@GJELGAMM@?$GAvector?5vbase?5copy?5constructor?5@ 0000000180028588     libvcruntime:undname.obj
 0002:000035b8       ??_C@_0CL@FGIJHLCE@?$GAmanaged?5vector?5copy?5constructo@ 00000001800285b8     libvcruntime:undname.obj
 0002:000035e8       ??_C@_0BM@PMGGMLDN@?$GAlocal?5static?5thread?5guard?8@ 00000001800285e8     libvcruntime:undname.obj
 0002:00003608       ??_C@_0N@BDNMDMOL@operator?5?$CC?$CC?5@ 0000000180028608     libvcruntime:undname.obj
 0002:00003618       ??_C@_0BC@GGEBGALA@operator?5co_await@ 0000000180028618     libvcruntime:undname.obj
 0002:00003630       ??_C@_0M@GAAIMMOH@operator?$DM?$DN?$DO@ 0000000180028630     libvcruntime:undname.obj
 0002:00003640       ??_C@_0BC@DAFEJGAK@?5Type?5Descriptor?8@ 0000000180028640     libvcruntime:undname.obj
 0002:00003658       ??_C@_0BM@LDKODKLH@?5Base?5Class?5Descriptor?5at?5?$CI@ 0000000180028658     libvcruntime:undname.obj
 0002:00003678       ??_C@_0BD@LGICGFMM@?5Base?5Class?5Array?8@ 0000000180028678     libvcruntime:undname.obj
 0002:00003690       ??_C@_0BN@MECKDCOJ@?5Class?5Hierarchy?5Descriptor?8@ 0000000180028690     libvcruntime:undname.obj
 0002:000036b0       ??_C@_0BK@CFCOFLF@?5Complete?5Object?5Locator?8@ 00000001800286b0     libvcruntime:undname.obj
 0002:000036d0       ??_C@_0BG@JNJLAMPM@?$GAanonymous?5namespace?8@ 00000001800286d0     libvcruntime:undname.obj
 0002:00003700       ??_C@_1DM@KHCHBNEB@?$AAa?$AAp?$AAi?$AA?9?$AAm?$AAs?$AA?9?$AAw?$AAi?$AAn?$AA?9?$AAc?$AAo?$AAr?$AAe@ 0000000180028700     libvcruntime:winapi_downlevel.obj
 0002:00003740       ??_C@_1DK@LPPGFMPP@?$AAa?$AAp?$AAi?$AA?9?$AAm?$AAs?$AA?9?$AAw?$AAi?$AAn?$AA?9?$AAc?$AAo?$AAr?$AAe@ 0000000180028740     libvcruntime:winapi_downlevel.obj
 0002:00003780       ??_C@_1BC@GDMECMAK@?$AAk?$AAe?$AAr?$AAn?$AAe?$AAl?$AA3?$AA2@ 0000000180028780     libvcruntime:winapi_downlevel.obj
 0002:00003798       ??_C@_1BA@PFFKHIOG@?$AAa?$AAp?$AAi?$AA?9?$AAm?$AAs?$AA?9@ 0000000180028798     libvcruntime:winapi_downlevel.obj
 0002:000037b0       ??_C@_08KNHFBNJ@FlsAlloc@  00000001800287b0     libvcruntime:winapi_downlevel.obj
 0002:000037c8       ??_C@_07PEJMOBNF@FlsFree@  00000001800287c8     libvcruntime:winapi_downlevel.obj
 0002:000037d8       ??_C@_0M@GDNOONDI@FlsGetValue@ 00000001800287d8     libvcruntime:winapi_downlevel.obj
 0002:000037f0       ??_C@_0M@JCPCPOEF@FlsSetValue@ 00000001800287f0     libvcruntime:winapi_downlevel.obj
 0002:00003808       ??_C@_0BM@HCFOFFN@InitializeCriticalSectionEx@ 0000000180028808     libvcruntime:winapi_downlevel.obj
 0002:000039a0       ?format_validation_lookup_table_spectre@__crt_stdio_output@@3V?$spectre_mitigated_lookup_table@Ustate_transition_pair@__crt_stdio_output@@$0IA@@1@B 00000001800289a0     libucrt:output.obj
 0002:00003aa0       ??_C@_1O@CEDCILHN@?$AA?$CI?$AAn?$AAu?$AAl?$AAl?$AA?$CJ@ 0000000180028aa0     libucrt:output.obj
 0002:00003ab0       ??_C@_06OJHGLDPL@?$CInull?$CJ@ 0000000180028ab0     libucrt:output.obj
 0002:00003ac0       __acrt_exception_action_table 0000000180028ac0     libucrt:exception_filter.obj
 0002:00003b80       __acrt_signal_action_table_count 0000000180028b80     libucrt:exception_filter.obj
 0002:00003b88       __acrt_signal_action_first_fpe_index 0000000180028b88     libucrt:exception_filter.obj
 0002:00003b90       __acrt_signal_action_fpe_count 0000000180028b90     libucrt:exception_filter.obj
 0002:00003be8       ??_C@_1BI@BGOHAHKC@?$AAm?$AAs?$AAc?$AAo?$AAr?$AAe?$AAe?$AA?4?$AAd?$AAl?$AAl@ 0000000180028be8     libucrt:exit.obj
 0002:00003c00       ??_C@_0P@MIGLKIOC@CorExitProcess@ 0000000180028c00     libucrt:exit.obj
 0002:00003d60       __lc_time_c                0000000180028d60     libucrt:nlsdata.obj
 0002:00004020       ??_C@_03KOEHGMDN@Sun@      0000000180029020     libucrt:nlsdata.obj
 0002:00004024       ??_C@_03PDAGKDH@Mon@       0000000180029024     libucrt:nlsdata.obj
 0002:00004028       ??_C@_03NAGEINEP@Tue@      0000000180029028     libucrt:nlsdata.obj
 0002:0000402c       ??_C@_03MHOMLAJA@Wed@      000000018002902c     libucrt:nlsdata.obj
 0002:00004030       ??_C@_03IOFIKPDN@Thu@      0000000180029030     libucrt:nlsdata.obj
 0002:00004034       ??_C@_03IDIOELNC@Fri@      0000000180029034     libucrt:nlsdata.obj
 0002:00004038       ??_C@_03FEFJNEK@Sat@       0000000180029038     libucrt:nlsdata.obj
 0002:0000403c       ??_C@_06OOPIFAJ@Sunday@    000000018002903c     libucrt:nlsdata.obj
 0002:00004044       ??_C@_06JLEDEDGH@Monday@   0000000180029044     libucrt:nlsdata.obj
 0002:00004050       ??_C@_07BAAGCFCM@Tuesday@  0000000180029050     libucrt:nlsdata.obj
 0002:00004058       ??_C@_09DLIGFAKA@Wednesday@ 0000000180029058     libucrt:nlsdata.obj
 0002:00004068       ??_C@_08HACCIKIA@Thursday@ 0000000180029068     libucrt:nlsdata.obj
 0002:00004074       ??_C@_06JECMNKMI@Friday@   0000000180029074     libucrt:nlsdata.obj
 0002:00004080       ??_C@_08INBOOONO@Saturday@ 0000000180029080     libucrt:nlsdata.obj
 0002:0000408c       ??_C@_03JIHJHPIE@Jan@      000000018002908c     libucrt:nlsdata.obj
 0002:00004090       ??_C@_03HJBDCHOM@Feb@      0000000180029090     libucrt:nlsdata.obj
 0002:00004094       ??_C@_03ODNJBKGA@Mar@      0000000180029094     libucrt:nlsdata.obj
 0002:00004098       ??_C@_03LEOLGMJP@Apr@      0000000180029098     libucrt:nlsdata.obj
 0002:0000409c       ??_C@_03CNMDKL@May@        000000018002909c     libucrt:nlsdata.obj
 0002:000040a0       ??_C@_03IDFGHECI@Jun@      00000001800290a0     libucrt:nlsdata.obj
 0002:000040a4       ??_C@_03LBGABGKK@Jul@      00000001800290a4     libucrt:nlsdata.obj
 0002:000040a8       ??_C@_03IFJFEIGA@Aug@      00000001800290a8     libucrt:nlsdata.obj
 0002:000040ac       ??_C@_03GGCAPAJC@Sep@      00000001800290ac     libucrt:nlsdata.obj
 0002:000040b0       ??_C@_03BMAOKBAD@Oct@      00000001800290b0     libucrt:nlsdata.obj
 0002:000040b4       ??_C@_03JPJOFNIA@Nov@      00000001800290b4     libucrt:nlsdata.obj
 0002:000040b8       ??_C@_03MKABNOCG@Dec@      00000001800290b8     libucrt:nlsdata.obj
 0002:000040c0       ??_C@_07CGJPFGJA@January@  00000001800290c0     libucrt:nlsdata.obj
 0002:000040c8       ??_C@_08GNJGEPFN@February@ 00000001800290c8     libucrt:nlsdata.obj
 0002:000040d4       ??_C@_05HPCKOFNC@March@    00000001800290d4     libucrt:nlsdata.obj
 0002:000040dc       ??_C@_05DMJDNLEJ@April@    00000001800290dc     libucrt:nlsdata.obj
 0002:000040e4       ??_C@_04CNLMGBGM@June@     00000001800290e4     libucrt:nlsdata.obj
 0002:000040ec       ??_C@_04MIEPOIFP@July@     00000001800290ec     libucrt:nlsdata.obj
 0002:000040f4       ??_C@_06LBBHFDDG@August@   00000001800290f4     libucrt:nlsdata.obj
 0002:00004100       ??_C@_09BHHEALKD@September@ 0000000180029100     libucrt:nlsdata.obj
 0002:00004110       ??_C@_07JJNFCEND@October@  0000000180029110     libucrt:nlsdata.obj
 0002:00004118       ??_C@_08HCHEGEOA@November@ 0000000180029118     libucrt:nlsdata.obj
 0002:00004128       ??_C@_08EDHMEBNP@December@ 0000000180029128     libucrt:nlsdata.obj
 0002:00004134       ??_C@_02DEDBPAFC@AM@       0000000180029134     libucrt:nlsdata.obj
 0002:00004138       ??_C@_02CJNFDJBF@PM@       0000000180029138     libucrt:nlsdata.obj
 0002:00004140       ??_C@_08BPBNCDIB@MM?1dd?1yy@ 0000000180029140     libucrt:nlsdata.obj
 0002:00004150       ??_C@_0BE@CKGJFCPC@dddd?0?5MMMM?5dd?0?5yyyy@ 0000000180029150     libucrt:nlsdata.obj
 0002:00004168       ??_C@_08JCCMCCIL@HH?3mm?3ss@ 0000000180029168     libucrt:nlsdata.obj
 0002:00004178       ??_C@_17MBGCMIPB@?$AAS?$AAu?$AAn@ 0000000180029178     libucrt:nlsdata.obj
 0002:00004180       ??_C@_17KBOMKBF@?$AAM?$AAo?$AAn@ 0000000180029180     libucrt:nlsdata.obj
 0002:00004188       ??_C@_17BMKGEGOJ@?$AAT?$AAu?$AAe@ 0000000180029188     libucrt:nlsdata.obj
 0002:00004190       ??_C@_17CJEDCEPE@?$AAW?$AAe?$AAd@ 0000000180029190     libucrt:nlsdata.obj
 0002:00004198       ??_C@_17PDPHAADD@?$AAT?$AAh?$AAu@ 0000000180029198     libucrt:nlsdata.obj
 0002:000041a0       ??_C@_17HFOLPPLP@?$AAF?$AAr?$AAi@ 00000001800291a0     libucrt:nlsdata.obj
 0002:000041a8       ??_C@_17GGIBDPIH@?$AAS?$AAa?$AAt@ 00000001800291a8     libucrt:nlsdata.obj
 0002:000041b0       ??_C@_1O@IHNHDHPB@?$AAS?$AAu?$AAn?$AAd?$AAa?$AAy@ 00000001800291b0     libucrt:nlsdata.obj
 0002:000041c0       ??_C@_1O@MMNBFLIA@?$AAM?$AAo?$AAn?$AAd?$AAa?$AAy@ 00000001800291c0     libucrt:nlsdata.obj
 0002:000041d0       ??_C@_1BA@ENFBFFEK@?$AAT?$AAu?$AAe?$AAs?$AAd?$AAa?$AAy@ 00000001800291d0     libucrt:nlsdata.obj
 0002:000041e0       ??_C@_1BE@EBOGMDOH@?$AAW?$AAe?$AAd?$AAn?$AAe?$AAs?$AAd?$AAa?$AAy@ 00000001800291e0     libucrt:nlsdata.obj
 0002:000041f8       ??_C@_1BC@HHMNLIHE@?$AAT?$AAh?$AAu?$AAr?$AAs?$AAd?$AAa?$AAy@ 00000001800291f8     libucrt:nlsdata.obj
 0002:00004210       ??_C@_1O@PDICJHAG@?$AAF?$AAr?$AAi?$AAd?$AAa?$AAy@ 0000000180029210     libucrt:nlsdata.obj
 0002:00004220       ??_C@_1BC@ENMNNPAJ@?$AAS?$AAa?$AAt?$AAu?$AAr?$AAd?$AAa?$AAy@ 0000000180029220     libucrt:nlsdata.obj
 0002:00004238       ??_C@_17DKNBKCHM@?$AAJ?$AAa?$AAn@ 0000000180029238     libucrt:nlsdata.obj
 0002:00004240       ??_C@_17LMDJEKJN@?$AAF?$AAe?$AAb@ 0000000180029240     libucrt:nlsdata.obj
 0002:00004248       ??_C@_17CKNLEDEC@?$AAM?$AAa?$AAr@ 0000000180029248     libucrt:nlsdata.obj
 0002:00004250       ??_C@_17LFPOIHDD@?$AAA?$AAp?$AAr@ 0000000180029250     libucrt:nlsdata.obj
 0002:00004258       ??_C@_17PNNKMEED@?$AAM?$AAa?$AAy@ 0000000180029258     libucrt:nlsdata.obj
 0002:00004260       ??_C@_17KCJGOCPB@?$AAJ?$AAu?$AAn@ 0000000180029260     libucrt:nlsdata.obj
 0002:00004268       ??_C@_17IJPCKHK@?$AAJ?$AAu?$AAl@ 0000000180029268     libucrt:nlsdata.obj
 0002:00004270       ??_C@_17ICPELBCN@?$AAA?$AAu?$AAg@ 0000000180029270     libucrt:nlsdata.obj
 0002:00004278       ??_C@_17HCHCOKMG@?$AAS?$AAe?$AAp@ 0000000180029278     libucrt:nlsdata.obj
 0002:00004280       ??_C@_17FNLKOI@?$AAO?$AAc?$AAt@ 0000000180029280     libucrt:nlsdata.obj
 0002:00004288       ??_C@_17BBDMLCIG@?$AAN?$AAo?$AAv@ 0000000180029288     libucrt:nlsdata.obj
 0002:00004290       ??_C@_17EGKACKIF@?$AAD?$AAe?$AAc@ 0000000180029290     libucrt:nlsdata.obj
 0002:00004298       ??_C@_1BA@EFMEIEBA@?$AAJ?$AAa?$AAn?$AAu?$AAa?$AAr?$AAy@ 0000000180029298     libucrt:nlsdata.obj
 0002:000042a8       ??_C@_1BC@JGDDFFAM@?$AAF?$AAe?$AAb?$AAr?$AAu?$AAa?$AAr?$AAy@ 00000001800292a8     libucrt:nlsdata.obj
 0002:000042c0       ??_C@_1M@IKEENEDF@?$AAM?$AAa?$AAr?$AAc?$AAh@ 00000001800292c0     libucrt:nlsdata.obj
 0002:000042d0       ??_C@_1M@GJNLMHFD@?$AAA?$AAp?$AAr?$AAi?$AAl@ 00000001800292d0     libucrt:nlsdata.obj
 0002:000042e0       ??_C@_19EPFLPGAP@?$AAJ?$AAu?$AAn?$AAe@ 00000001800292e0     libucrt:nlsdata.obj
 0002:000042f0       ??_C@_19BIFMLPCD@?$AAJ?$AAu?$AAl?$AAy@ 00000001800292f0     libucrt:nlsdata.obj
 0002:00004300       ??_C@_1O@PAHLKOAC@?$AAA?$AAu?$AAg?$AAu?$AAs?$AAt@ 0000000180029300     libucrt:nlsdata.obj
 0002:00004310       ??_C@_1BE@DKAAMBJL@?$AAS?$AAe?$AAp?$AAt?$AAe?$AAm?$AAb?$AAe?$AAr@ 0000000180029310     libucrt:nlsdata.obj
 0002:00004328       ??_C@_1BA@EPANDLNG@?$AAO?$AAc?$AAt?$AAo?$AAb?$AAe?$AAr@ 0000000180029328     libucrt:nlsdata.obj
 0002:00004338       ??_C@_1BC@BGLIFPF@?$AAN?$AAo?$AAv?$AAe?$AAm?$AAb?$AAe?$AAr@ 0000000180029338     libucrt:nlsdata.obj
 0002:00004350       ??_C@_1BC@FEMKIFH@?$AAD?$AAe?$AAc?$AAe?$AAm?$AAb?$AAe?$AAr@ 0000000180029350     libucrt:nlsdata.obj
 0002:00004364       ??_C@_15ODEHAHHF@?$AAA?$AAM@ 0000000180029364     libucrt:nlsdata.obj
 0002:0000436c       ??_C@_15CLMNNGEL@?$AAP?$AAM@ 000000018002936c     libucrt:nlsdata.obj
 0002:00004378       ??_C@_1BC@IEBCMHCM@?$AAM?$AAM?$AA?1?$AAd?$AAd?$AA?1?$AAy?$AAy@ 0000000180029378     libucrt:nlsdata.obj
 0002:00004390       ??_C@_1CI@KNAKOEBC@?$AAd?$AAd?$AAd?$AAd?$AA?0?$AA?5?$AAM?$AAM?$AAM?$AAM?$AA?5?$AAd?$AAd?$AA?0?$AA?5@ 0000000180029390     libucrt:nlsdata.obj
 0002:000043b8       ??_C@_1BC@GDGBMEMK@?$AAH?$AAH?$AA?3?$AAm?$AAm?$AA?3?$AAs?$AAs@ 00000001800293b8     libucrt:nlsdata.obj
 0002:000043d0       ??_C@_1M@BMHNFIME@?$AAe?$AAn?$AA?9?$AAU?$AAS@ 00000001800293d0     libucrt:nlsdata.obj
 0002:00004480       ??_C@_1EA@JGEFHKEI@?$AAa?$AAp?$AAi?$AA?9?$AAm?$AAs?$AA?9?$AAw?$AAi?$AAn?$AA?9?$AAc?$AAo?$AAr?$AAe@ 0000000180029480     libucrt:winapi_thunks.obj
 0002:000044c0       ??_C@_1DI@IJCEHOCB@?$AAa?$AAp?$AAi?$AA?9?$AAm?$AAs?$AA?9?$AAw?$AAi?$AAn?$AA?9?$AAc?$AAo?$AAr?$AAe@ 00000001800294c0     libucrt:winapi_thunks.obj
 0002:00004500       ??_C@_1EI@MPIAOHOC@?$AAa?$AAp?$AAi?$AA?9?$AAm?$AAs?$AA?9?$AAw?$AAi?$AAn?$AA?9?$AAc?$AAo?$AAr?$AAe@ 0000000180029500     libucrt:winapi_thunks.obj
 0002:00004550       ??_C@_1FK@FPHCKFIE@?$AAa?$AAp?$AAi?$AA?9?$AAm?$AAs?$AA?9?$AAw?$AAi?$AAn?$AA?9?$AAc?$AAo?$AAr?$AAe@ 0000000180029550     libucrt:winapi_thunks.obj
 0002:000045b0       ??_C@_1EM@DILCGIIO@?$AAa?$AAp?$AAi?$AA?9?$AAm?$AAs?$AA?9?$AAw?$AAi?$AAn?$AA?9?$AAc?$AAo?$AAr?$AAe@ 00000001800295b0     libucrt:winapi_thunks.obj
 0002:00004600       ??_C@_1DM@LNCGDDPN@?$AAa?$AAp?$AAi?$AA?9?$AAm?$AAs?$AA?9?$AAw?$AAi?$AAn?$AA?9?$AAc?$AAo?$AAr?$AAe@ 0000000180029600     libucrt:winapi_thunks.obj
 0002:00004640       ??_C@_1DO@FPAPJEMD@?$AAa?$AAp?$AAi?$AA?9?$AAm?$AAs?$AA?9?$AAw?$AAi?$AAn?$AA?9?$AAc?$AAo?$AAr?$AAe@ 0000000180029640     libucrt:winapi_thunks.obj
 0002:00004680       ??_C@_1DK@NDHNAHIO@?$AAa?$AAp?$AAi?$AA?9?$AAm?$AAs?$AA?9?$AAw?$AAi?$AAn?$AA?9?$AAc?$AAo?$AAr?$AAe@ 0000000180029680     libucrt:winapi_thunks.obj
 0002:000046c0       ??_C@_1DM@KGHDGBCM@?$AAa?$AAp?$AAi?$AA?9?$AAm?$AAs?$AA?9?$AAw?$AAi?$AAn?$AA?9?$AAc?$AAo?$AAr?$AAe@ 00000001800296c0     libucrt:winapi_thunks.obj
 0002:00004700       ??_C@_1EO@IJIOEFOH@?$AAa?$AAp?$AAi?$AA?9?$AAm?$AAs?$AA?9?$AAw?$AAi?$AAn?$AA?9?$AAr?$AAt?$AAc?$AAo@ 0000000180029700     libucrt:winapi_thunks.obj
 0002:00004750       ??_C@_1FG@HHGEKANL@?$AAa?$AAp?$AAi?$AA?9?$AAm?$AAs?$AA?9?$AAw?$AAi?$AAn?$AA?9?$AAs?$AAe?$AAc?$AAu@ 0000000180029750     libucrt:winapi_thunks.obj
 0002:000047b0       ??_C@_1EG@DBIOJECG@?$AAe?$AAx?$AAt?$AA?9?$AAm?$AAs?$AA?9?$AAw?$AAi?$AAn?$AA?9?$AAn?$AAt?$AAu?$AAs@ 00000001800297b0     libucrt:winapi_thunks.obj
 0002:00004800       ??_C@_1EO@FIHMJCLF@?$AAe?$AAx?$AAt?$AA?9?$AAm?$AAs?$AA?9?$AAw?$AAi?$AAn?$AA?9?$AAn?$AAt?$AAu?$AAs@ 0000000180029800     libucrt:winapi_thunks.obj
 0002:00004850       ??_C@_1BC@DNHGCMLG@?$AAa?$AAd?$AAv?$AAa?$AAp?$AAi?$AA3?$AA2@ 0000000180029850     libucrt:winapi_thunks.obj
 0002:00004868       ??_C@_1M@OAIMIKLP@?$AAn?$AAt?$AAd?$AAl?$AAl@ 0000000180029868     libucrt:winapi_thunks.obj
 0002:00004880       ??_C@_1EG@DPGNFKGC@?$AAa?$AAp?$AAi?$AA?9?$AAm?$AAs?$AA?9?$AAw?$AAi?$AAn?$AA?9?$AAa?$AAp?$AAp?$AAm@ 0000000180029880     libucrt:winapi_thunks.obj
 0002:000048c8       ??_C@_1O@BCCLBEOE@?$AAu?$AAs?$AAe?$AAr?$AA3?$AA2@ 00000001800298c8     libucrt:winapi_thunks.obj
 0002:000048d8       ??_C@_1BA@IAIFMGEF@?$AAe?$AAx?$AAt?$AA?9?$AAm?$AAs?$AA?9@ 00000001800298d8     libucrt:winapi_thunks.obj
 0002:000048f0       ??_C@_0BA@FHFNEAED@AreFileApisANSI@ 00000001800298f0     libucrt:winapi_thunks.obj
 0002:00004910       ??_C@_0O@KKBNKAPF@LCMapStringEx@ 0000000180029910     libucrt:winapi_thunks.obj
 0002:00004928       ??_C@_0BB@HBDEELFH@LocaleNameToLCID@ 0000000180029928     libucrt:winapi_thunks.obj
 0002:00004940       ??_C@_0CF@OJOFEIGO@AppPolicyGetProcessTerminationM@ 0000000180029940     libucrt:winapi_thunks.obj
 0002:00004970       ??_C@_0BI@BKLFFAPO@SetThreadStackGuarantee@ 0000000180029970     libucrt:winapi_thunks.obj
 0002:00004a10       ??_C@_03OEIAHPBN@INF@      0000000180029a10     libucrt:cvt.obj
 0002:00004a14       ??_C@_03OJHLLCGB@inf@      0000000180029a14     libucrt:cvt.obj
 0002:00004a18       ??_C@_03LKNCIKJB@NAN@      0000000180029a18     libucrt:cvt.obj
 0002:00004a1c       ??_C@_03LHCJEHON@nan@      0000000180029a1c     libucrt:cvt.obj
 0002:00004a20       ??_C@_09OFJJIMPC@NAN?$CISNAN?$CJ@ 0000000180029a20     libucrt:cvt.obj
 0002:00004a30       ??_C@_09IPFBKMDL@nan?$CIsnan?$CJ@ 0000000180029a30     libucrt:cvt.obj
 0002:00004a40       ??_C@_08IKHNHAJ@NAN?$CIIND?$CJ@ 0000000180029a40     libucrt:cvt.obj
 0002:00004a50       ??_C@_08OFCDMILK@nan?$CIind?$CJ@ 0000000180029a50     libucrt:cvt.obj
 0002:00004a5c       ??_C@_05KLBDPFGC@e?$CL000@ 0000000180029a5c     libucrt:cvt.obj
 0002:00004a88       ??_C@_1M@HPNHIDJI@?$AAj?$AAa?$AA?9?$AAJ?$AAP@ 0000000180029a88     libucrt:mbctype.obj
 0002:00004a98       ??_C@_1M@BIBDDEMK@?$AAz?$AAh?$AA?9?$AAC?$AAN@ 0000000180029a98     libucrt:mbctype.obj
 0002:00004aa8       ??_C@_1M@JLOOOEGK@?$AAk?$AAo?$AA?9?$AAK?$AAR@ 0000000180029aa8     libucrt:mbctype.obj
 0002:00004ab8       ??_C@_1M@CLNBBOPM@?$AAz?$AAh?$AA?9?$AAT?$AAW@ 0000000180029ab8     libucrt:mbctype.obj
 0002:00004ad0       __newctype                 0000000180029ad0     libucrt:ctype.obj
 0002:00004dd0       __newclmap                 0000000180029dd0     libucrt:ctype.obj
 0002:00004f50       __newcumap                 0000000180029f50     libucrt:ctype.obj
 0002:000050d0       ??_C@_15PJPFLCCM@?$AAu?$AAk@ 000000018002a0d0     libucrt:get_qualified_locale.obj
 0002:00005f20       ??_C@_15EMKDOKLE@?$AAa?$AAr@ 000000018002af20     libucrt:lcidtoname_downlevel.obj
 0002:00005f28       ??_C@_15KNPADPLH@?$AAb?$AAg@ 000000018002af28     libucrt:lcidtoname_downlevel.obj
 0002:00005f30       ??_C@_15EDMHLDMO@?$AAc?$AAa@ 000000018002af30     libucrt:lcidtoname_downlevel.obj
 0002:00005f38       ??_C@_1O@BPEAJADD@?$AAz?$AAh?$AA?9?$AAC?$AAH?$AAS@ 000000018002af38     libucrt:lcidtoname_downlevel.obj
 0002:00005f48       ??_C@_15LJNHCMNK@?$AAc?$AAs@ 000000018002af48     libucrt:lcidtoname_downlevel.obj
 0002:00005f50       ??_C@_15FOMCIDHG@?$AAd?$AAa@ 000000018002af50     libucrt:lcidtoname_downlevel.obj
 0002:00005f58       ??_C@_15NBKABECB@?$AAd?$AAe@ 000000018002af58     libucrt:lcidtoname_downlevel.obj
 0002:00005f60       ??_C@_15GHPEIIAO@?$AAe?$AAl@ 000000018002af60     libucrt:lcidtoname_downlevel.obj
 0002:00005f68       ??_C@_15MNPNEAIF@?$AAe?$AAn@ 000000018002af68     libucrt:lcidtoname_downlevel.obj
 0002:00005f70       ??_C@_15GPIOMPMH@?$AAe?$AAs@ 000000018002af70     libucrt:lcidtoname_downlevel.obj
 0002:00005f78       ??_C@_15NGLOAKJC@?$AAf?$AAi@ 000000018002af78     libucrt:lcidtoname_downlevel.obj
 0002:00005f80       ??_C@_15FBKGNKAM@?$AAf?$AAr@ 000000018002af80     libucrt:lcidtoname_downlevel.obj
 0002:00005f88       ??_C@_15KGGCNEFK@?$AAh?$AAe@ 000000018002af88     libucrt:lcidtoname_downlevel.obj
 0002:00005f90       ??_C@_15PGHLIDMF@?$AAh?$AAu@ 000000018002af90     libucrt:lcidtoname_downlevel.obj
 0002:00005f98       ??_C@_15BIEMAPLM@?$AAi?$AAs@ 000000018002af98     libucrt:lcidtoname_downlevel.obj
 0002:00005fa0       ??_C@_15IFJLDHAF@?$AAi?$AAt@ 000000018002afa0     libucrt:lcidtoname_downlevel.obj
 0002:00005fa8       ??_C@_15GEMIOCAG@?$AAj?$AAa@ 000000018002afa8     libucrt:lcidtoname_downlevel.obj
 0002:00005fb0       ??_C@_15EPELEGJA@?$AAk?$AAo@ 000000018002afb0     libucrt:lcidtoname_downlevel.obj
 0002:00005fb8       ??_C@_15NDDHIMN@?$AAn?$AAl@ 000000018002afb8     libucrt:lcidtoname_downlevel.obj
 0002:00005fc0       ??_C@_15BPIGNHCD@?$AAn?$AAo@ 000000018002afc0     libucrt:lcidtoname_downlevel.obj
 0002:00005fc8       ??_C@_15DEOPBLCG@?$AAp?$AAl@ 000000018002afc8     libucrt:lcidtoname_downlevel.obj
 0002:00005fd0       ??_C@_15KBECGEFG@?$AAp?$AAt@ 000000018002afd0     libucrt:lcidtoname_downlevel.obj
 0002:00005fd8       ??_C@_15GLJCBFMD@?$AAr?$AAo@ 000000018002afd8     libucrt:lcidtoname_downlevel.obj
 0002:00005fe0       ??_C@_15FEDGKCDI@?$AAr?$AAu@ 000000018002afe0     libucrt:lcidtoname_downlevel.obj
 0002:00005fe8       ??_C@_15GLKMLLHM@?$AAh?$AAr@ 000000018002afe8     libucrt:lcidtoname_downlevel.obj
 0002:00005ff0       ??_C@_15CPKMFBDB@?$AAs?$AAk@ 000000018002aff0     libucrt:lcidtoname_downlevel.obj
 0002:00005ff8       ??_C@_15BAAIOGMK@?$AAs?$AAq@ 000000018002aff8     libucrt:lcidtoname_downlevel.obj
 0002:00006000       ??_C@_15INNPNOHD@?$AAs?$AAv@ 000000018002b000     libucrt:lcidtoname_downlevel.obj
 0002:00006008       ??_C@_15CABMMOGH@?$AAt?$AAh@ 000000018002b008     libucrt:lcidtoname_downlevel.obj
 0002:00006010       ??_C@_15BPLIHJJM@?$AAt?$AAr@ 000000018002b010     libucrt:lcidtoname_downlevel.obj
 0002:00006018       ??_C@_15NEOEKKDJ@?$AAu?$AAr@ 000000018002b018     libucrt:lcidtoname_downlevel.obj
 0002:00006020       ??_C@_15NFICGAJK@?$AAi?$AAd@ 000000018002b020     libucrt:lcidtoname_downlevel.obj
 0002:00006028       ??_C@_15HPJPHDM@?$AAb?$AAe@ 000000018002b028     libucrt:lcidtoname_downlevel.obj
 0002:00006030       ??_C@_15LCHLGJII@?$AAs?$AAl@ 000000018002b030     libucrt:lcidtoname_downlevel.obj
 0002:00006038       ??_C@_15PCFJPHHO@?$AAe?$AAt@ 000000018002b038     libucrt:lcidtoname_downlevel.obj
 0002:00006040       ??_C@_15HPFPGODN@?$AAl?$AAv@ 000000018002b040     libucrt:lcidtoname_downlevel.obj
 0002:00006048       ??_C@_15NFFGKGLG@?$AAl?$AAt@ 000000018002b048     libucrt:lcidtoname_downlevel.obj
 0002:00006050       ??_C@_15BDAKCCHN@?$AAf?$AAa@ 000000018002b050     libucrt:lcidtoname_downlevel.obj
 0002:00006058       ??_C@_15NFGIAIAJ@?$AAv?$AAi@ 000000018002b058     libucrt:lcidtoname_downlevel.obj
 0002:00006060       ??_C@_15LMKNDMHN@?$AAh?$AAy@ 000000018002b060     libucrt:lcidtoname_downlevel.obj
 0002:00006068       ??_C@_15IJBHMCFL@?$AAa?$AAz@ 000000018002b068     libucrt:lcidtoname_downlevel.obj
 0002:00006070       ??_C@_15EKOFJABL@?$AAe?$AAu@ 000000018002b070     libucrt:lcidtoname_downlevel.obj
 0002:00006078       ??_C@_15BGHADCNK@?$AAm?$AAk@ 000000018002b078     libucrt:lcidtoname_downlevel.obj
 0002:00006080       ??_C@_15JDNICKHM@?$AAa?$AAf@ 000000018002b080     libucrt:lcidtoname_downlevel.obj
 0002:00006088       ??_C@_15KPJEDBKD@?$AAk?$AAa@ 000000018002b088     libucrt:lcidtoname_downlevel.obj
 0002:00006090       ??_C@_15PDNFFFEO@?$AAf?$AAo@ 000000018002b090     libucrt:lcidtoname_downlevel.obj
 0002:00006098       ??_C@_15OMLEGLOC@?$AAh?$AAi@ 000000018002b098     libucrt:lcidtoname_downlevel.obj
 0002:000060a0       ??_C@_15IDNNENKK@?$AAm?$AAs@ 000000018002b0a0     libucrt:lcidtoname_downlevel.obj
 0002:000060a8       ??_C@_15MACJNBMH@?$AAk?$AAk@ 000000018002b0a8     libucrt:lcidtoname_downlevel.obj
 0002:000060b0       ??_C@_15DKDJEOND@?$AAk?$AAy@ 000000018002b0b0     libucrt:lcidtoname_downlevel.obj
 0002:000060b8       ??_C@_15DFGDLJBG@?$AAs?$AAw@ 000000018002b0b8     libucrt:lcidtoname_downlevel.obj
 0002:000060c0       ??_C@_15BBFAICNG@?$AAu?$AAz@ 000000018002b0c0     libucrt:lcidtoname_downlevel.obj
 0002:000060c8       ??_C@_15DKNDCGEA@?$AAt?$AAt@ 000000018002b0c8     libucrt:lcidtoname_downlevel.obj
 0002:000060d0       ??_C@_15MGIFMDPL@?$AAp?$AAa@ 000000018002b0d0     libucrt:lcidtoname_downlevel.obj
 0002:000060d8       ??_C@_15HCNDBBA@?$AAg?$AAu@ 000000018002b0d8     libucrt:lcidtoname_downlevel.obj
 0002:000060e0       ??_C@_15FNBEIBON@?$AAt?$AAa@ 000000018002b0e0     libucrt:lcidtoname_downlevel.obj
 0002:000060e8       ??_C@_15NCHGBGLK@?$AAt?$AAe@ 000000018002b0e8     libucrt:lcidtoname_downlevel.obj
 0002:000060f0       ??_C@_15PHPHCBPF@?$AAk?$AAn@ 000000018002b0f0     libucrt:lcidtoname_downlevel.obj
 0002:000060f8       ??_C@_15DLGBCKMP@?$AAm?$AAr@ 000000018002b0f8     libucrt:lcidtoname_downlevel.obj
 0002:00006100       ??_C@_15EABBLBFF@?$AAs?$AAa@ 000000018002b100     libucrt:lcidtoname_downlevel.obj
 0002:00006108       ??_C@_15CBKOMCOI@?$AAm?$AAn@ 000000018002b108     libucrt:lcidtoname_downlevel.obj
 0002:00006110       ??_C@_15CKDMCJAF@?$AAg?$AAl@ 000000018002b110     libucrt:lcidtoname_downlevel.obj
 0002:00006118       ??_C@_17CNJFBPG@?$AAk?$AAo?$AAk@ 000000018002b118     libucrt:lcidtoname_downlevel.obj
 0002:00006120       ??_C@_17FFBJICPL@?$AAs?$AAy?$AAr@ 000000018002b120     libucrt:lcidtoname_downlevel.obj
 0002:00006128       ??_C@_17KPNDCPAF@?$AAd?$AAi?$AAv@ 000000018002b128     libucrt:lcidtoname_downlevel.obj
 0002:00006130       ??_C@_1M@OKAHONE@?$AAa?$AAr?$AA?9?$AAS?$AAA@ 000000018002b130     libucrt:lcidtoname_downlevel.obj
 0002:00006140       ??_C@_1M@FFFIGIGK@?$AAb?$AAg?$AA?9?$AAB?$AAG@ 000000018002b140     libucrt:lcidtoname_downlevel.obj
 0002:00006150       ??_C@_1M@BJNKEDC@?$AAc?$AAa?$AA?9?$AAE?$AAS@ 000000018002b150     libucrt:lcidtoname_downlevel.obj
 0002:00006160       ??_C@_1M@IJJHFJHA@?$AAc?$AAs?$AA?9?$AAC?$AAZ@ 000000018002b160     libucrt:lcidtoname_downlevel.obj
 0002:00006170       ??_C@_1M@CLPEOBGI@?$AAd?$AAa?$AA?9?$AAD?$AAK@ 000000018002b170     libucrt:lcidtoname_downlevel.obj
 0002:00006180       ??_C@_1M@MCMADGCB@?$AAd?$AAe?$AA?9?$AAD?$AAE@ 000000018002b180     libucrt:lcidtoname_downlevel.obj
 0002:00006190       ??_C@_1M@OOCKEMAM@?$AAe?$AAl?$AA?9?$AAG?$AAR@ 000000018002b190     libucrt:lcidtoname_downlevel.obj
 0002:000061a0       ??_C@_1M@DDNJFGID@?$AAf?$AAi?$AA?9?$AAF?$AAI@ 000000018002b1a0     libucrt:lcidtoname_downlevel.obj
 0002:000061b0       ??_C@_1M@GLIPPMAC@?$AAf?$AAr?$AA?9?$AAF?$AAR@ 000000018002b1b0     libucrt:lcidtoname_downlevel.obj
 0002:000061c0       ??_C@_1M@GFMCHPE@?$AAh?$AAe?$AA?9?$AAI?$AAL@ 000000018002b1c0     libucrt:lcidtoname_downlevel.obj
 0002:000061d0       ??_C@_1M@MHLPGNKM@?$AAh?$AAu?$AA?9?$AAH?$AAU@ 000000018002b1d0     libucrt:lcidtoname_downlevel.obj
 0002:000061e0       ??_C@_1M@LPDDNNPN@?$AAi?$AAs?$AA?9?$AAI?$AAS@ 000000018002b1e0     libucrt:lcidtoname_downlevel.obj
 0002:000061f0       ??_C@_1M@MADIPODN@?$AAi?$AAt?$AA?9?$AAI?$AAT@ 000000018002b1f0     libucrt:lcidtoname_downlevel.obj
 0002:00006200       ??_C@_1M@IHBJJGG@?$AAn?$AAl?$AA?9?$AAN?$AAL@ 000000018002b200     libucrt:lcidtoname_downlevel.obj
 0002:00006210       ??_C@_1M@EANAGDL@?$AAn?$AAb?$AA?9?$AAN?$AAO@ 000000018002b210     libucrt:lcidtoname_downlevel.obj
 0002:00006220       ??_C@_1M@NEIEMEGP@?$AAp?$AAl?$AA?9?$AAP?$AAL@ 000000018002b220     libucrt:lcidtoname_downlevel.obj
 0002:00006230       ??_C@_1M@BOCFIGEP@?$AAp?$AAt?$AA?9?$AAB?$AAR@ 000000018002b230     libucrt:lcidtoname_downlevel.obj
 0002:00006240       ??_C@_1M@IMPFOPBG@?$AAr?$AAo?$AA?9?$AAR?$AAO@ 000000018002b240     libucrt:lcidtoname_downlevel.obj
 0002:00006250       ??_C@_1M@IDNNEJMM@?$AAr?$AAu?$AA?9?$AAR?$AAU@ 000000018002b250     libucrt:lcidtoname_downlevel.obj
 0002:00006260       ??_C@_1M@LILEEOGM@?$AAh?$AAr?$AA?9?$AAH?$AAR@ 000000018002b260     libucrt:lcidtoname_downlevel.obj
 0002:00006270       ??_C@_1M@FKIFEHPB@?$AAs?$AAk?$AA?9?$AAS?$AAK@ 000000018002b270     libucrt:lcidtoname_downlevel.obj
 0002:00006280       ??_C@_1M@LJMAMNPJ@?$AAs?$AAq?$AA?9?$AAA?$AAL@ 000000018002b280     libucrt:lcidtoname_downlevel.obj
 0002:00006290       ??_C@_1M@GIAKDKJK@?$AAs?$AAv?$AA?9?$AAS?$AAE@ 000000018002b290     libucrt:lcidtoname_downlevel.obj
 0002:000062a0       ??_C@_1M@MKJKIKCL@?$AAt?$AAh?$AA?9?$AAT?$AAH@ 000000018002b2a0     libucrt:lcidtoname_downlevel.obj
 0002:000062b0       ??_C@_1M@MFLCCMPB@?$AAt?$AAr?$AA?9?$AAT?$AAR@ 000000018002b2b0     libucrt:lcidtoname_downlevel.obj
 0002:000062c0       ??_C@_1M@OIJHDKJN@?$AAu?$AAr?$AA?9?$AAP?$AAK@ 000000018002b2c0     libucrt:lcidtoname_downlevel.obj
 0002:000062d0       ??_C@_1M@LHIPCIEK@?$AAi?$AAd?$AA?9?$AAI?$AAD@ 000000018002b2d0     libucrt:lcidtoname_downlevel.obj
 0002:000062e0       ??_C@_1M@MFMOBGI@?$AAu?$AAk?$AA?9?$AAU?$AAA@ 000000018002b2e0     libucrt:lcidtoname_downlevel.obj
 0002:000062f0       ??_C@_1M@OBGLJIPL@?$AAb?$AAe?$AA?9?$AAB?$AAY@ 000000018002b2f0     libucrt:lcidtoname_downlevel.obj
 0002:00006300       ??_C@_1M@BCFAJEAD@?$AAs?$AAl?$AA?9?$AAS?$AAI@ 000000018002b300     libucrt:lcidtoname_downlevel.obj
 0002:00006310       ??_C@_1M@FKFFEDDN@?$AAe?$AAt?$AA?9?$AAE?$AAE@ 000000018002b310     libucrt:lcidtoname_downlevel.obj
 0002:00006320       ??_C@_1M@KGKKAACI@?$AAl?$AAv?$AA?9?$AAL?$AAV@ 000000018002b320     libucrt:lcidtoname_downlevel.obj
 0002:00006330       ??_C@_1M@IFGBIJO@?$AAl?$AAt?$AA?9?$AAL?$AAT@ 000000018002b330     libucrt:lcidtoname_downlevel.obj
 0002:00006340       ??_C@_1M@FGEAHEDM@?$AAf?$AAa?$AA?9?$AAI?$AAR@ 000000018002b340     libucrt:lcidtoname_downlevel.obj
 0002:00006350       ??_C@_1M@KBMAIBFN@?$AAv?$AAi?$AA?9?$AAV?$AAN@ 000000018002b350     libucrt:lcidtoname_downlevel.obj
 0002:00006360       ??_C@_1M@GPCBKDJK@?$AAh?$AAy?$AA?9?$AAA?$AAM@ 000000018002b360     libucrt:lcidtoname_downlevel.obj
 0002:00006370       ??_C@_1BG@BECMDDJB@?$AAa?$AAz?$AA?9?$AAA?$AAZ?$AA?9?$AAL?$AAa?$AAt?$AAn@ 000000018002b370     libucrt:lcidtoname_downlevel.obj
 0002:00006388       ??_C@_1M@MAOFCAEA@?$AAe?$AAu?$AA?9?$AAE?$AAS@ 000000018002b388     libucrt:lcidtoname_downlevel.obj
 0002:00006398       ??_C@_1M@IGHABKPI@?$AAm?$AAk?$AA?9?$AAM?$AAK@ 000000018002b398     libucrt:lcidtoname_downlevel.obj
 0002:000063a8       ??_C@_1M@IAIGNEJG@?$AAt?$AAn?$AA?9?$AAZ?$AAA@ 000000018002b3a8     libucrt:lcidtoname_downlevel.obj
 0002:000063b8       ??_C@_1M@IIJCOJFA@?$AAx?$AAh?$AA?9?$AAZ?$AAA@ 000000018002b3b8     libucrt:lcidtoname_downlevel.obj
 0002:000063c8       ??_C@_1M@LGPJHNJH@?$AAz?$AAu?$AA?9?$AAZ?$AAA@ 000000018002b3c8     libucrt:lcidtoname_downlevel.obj
 0002:000063d8       ??_C@_1M@HOKAOIO@?$AAa?$AAf?$AA?9?$AAZ?$AAA@ 000000018002b3d8     libucrt:lcidtoname_downlevel.obj
 0002:000063e8       ??_C@_1M@DPCLHLIE@?$AAk?$AAa?$AA?9?$AAG?$AAE@ 000000018002b3e8     libucrt:lcidtoname_downlevel.obj
 0002:000063f8       ??_C@_1M@BLKMHJBI@?$AAf?$AAo?$AA?9?$AAF?$AAO@ 000000018002b3f8     libucrt:lcidtoname_downlevel.obj
 0002:00006408       ??_C@_1M@LGGJAPPB@?$AAh?$AAi?$AA?9?$AAI?$AAN@ 000000018002b408     libucrt:lcidtoname_downlevel.obj
 0002:00006418       ??_C@_1M@FIKPIHFE@?$AAm?$AAt?$AA?9?$AAM?$AAT@ 000000018002b418     libucrt:lcidtoname_downlevel.obj
 0002:00006428       ??_C@_1M@HEGGPBFA@?$AAs?$AAe?$AA?9?$AAN?$AAO@ 000000018002b428     libucrt:lcidtoname_downlevel.obj
 0002:00006438       ??_C@_1M@EIBJEEPA@?$AAm?$AAs?$AA?9?$AAM?$AAY@ 000000018002b438     libucrt:lcidtoname_downlevel.obj
 0002:00006448       ??_C@_1M@FHLBGMPP@?$AAk?$AAk?$AA?9?$AAK?$AAZ@ 000000018002b448     libucrt:lcidtoname_downlevel.obj
 0002:00006458       ??_C@_1M@NGJJLCGI@?$AAk?$AAy?$AA?9?$AAK?$AAG@ 000000018002b458     libucrt:lcidtoname_downlevel.obj
 0002:00006468       ??_C@_1M@GIENNBFC@?$AAs?$AAw?$AA?9?$AAK?$AAE@ 000000018002b468     libucrt:lcidtoname_downlevel.obj
 0002:00006478       ??_C@_1BG@NDGMJIMJ@?$AAu?$AAz?$AA?9?$AAU?$AAZ?$AA?9?$AAL?$AAa?$AAt?$AAn@ 000000018002b478     libucrt:lcidtoname_downlevel.obj
 0002:00006490       ??_C@_1M@IDCCIHBC@?$AAt?$AAt?$AA?9?$AAR?$AAU@ 000000018002b490     libucrt:lcidtoname_downlevel.obj
 0002:000064a0       ??_C@_1M@LOICPMOJ@?$AAb?$AAn?$AA?9?$AAI?$AAN@ 000000018002b4a0     libucrt:lcidtoname_downlevel.obj
 0002:000064b0       ??_C@_1M@KPKKNEAH@?$AAp?$AAa?$AA?9?$AAI?$AAN@ 000000018002b4b0     libucrt:lcidtoname_downlevel.obj
 0002:000064c0       ??_C@_1M@PJGPPBOG@?$AAg?$AAu?$AA?9?$AAI?$AAN@ 000000018002b4c0     libucrt:lcidtoname_downlevel.obj
 0002:000064d0       ??_C@_1M@KMKMOPHI@?$AAt?$AAa?$AA?9?$AAI?$AAN@ 000000018002b4d0     libucrt:lcidtoname_downlevel.obj
 0002:000064e0       ??_C@_1M@KFEHEPAC@?$AAt?$AAe?$AA?9?$AAI?$AAN@ 000000018002b4e0     libucrt:lcidtoname_downlevel.obj
 0002:000064f0       ??_C@_1M@CDCLMGHI@?$AAk?$AAn?$AA?9?$AAI?$AAN@ 000000018002b4f0     libucrt:lcidtoname_downlevel.obj
 0002:00006500       ??_C@_1M@MIODLDKF@?$AAm?$AAl?$AA?9?$AAI?$AAN@ 000000018002b500     libucrt:lcidtoname_downlevel.obj
 0002:00006510       ??_C@_1M@PBIEACPO@?$AAm?$AAr?$AA?9?$AAI?$AAN@ 000000018002b510     libucrt:lcidtoname_downlevel.obj
 0002:00006520       ??_C@_1M@NIDEAGPH@?$AAs?$AAa?$AA?9?$AAI?$AAN@ 000000018002b520     libucrt:lcidtoname_downlevel.obj
 0002:00006530       ??_C@_1M@FHIHCBIO@?$AAm?$AAn?$AA?9?$AAM?$AAN@ 000000018002b530     libucrt:lcidtoname_downlevel.obj
 0002:00006540       ??_C@_1M@JAIJPENP@?$AAc?$AAy?$AA?9?$AAG?$AAB@ 000000018002b540     libucrt:lcidtoname_downlevel.obj
 0002:00006550       ??_C@_1M@PHGFBEPN@?$AAg?$AAl?$AA?9?$AAE?$AAS@ 000000018002b550     libucrt:lcidtoname_downlevel.obj
 0002:00006560       ??_C@_1O@KPIPDNCP@?$AAk?$AAo?$AAk?$AA?9?$AAI?$AAN@ 000000018002b560     libucrt:lcidtoname_downlevel.obj
 0002:00006570       ??_C@_1O@KNHJLDJA@?$AAs?$AAy?$AAr?$AA?9?$AAS?$AAY@ 000000018002b570     libucrt:lcidtoname_downlevel.obj
 0002:00006580       ??_C@_1O@MKEKBLAH@?$AAd?$AAi?$AAv?$AA?9?$AAM?$AAV@ 000000018002b580     libucrt:lcidtoname_downlevel.obj
 0002:00006590       ??_C@_1O@OHDCKDDF@?$AAq?$AAu?$AAz?$AA?9?$AAB?$AAO@ 000000018002b590     libucrt:lcidtoname_downlevel.obj
 0002:000065a0       ??_C@_1M@LEPJNLFD@?$AAn?$AAs?$AA?9?$AAZ?$AAA@ 000000018002b5a0     libucrt:lcidtoname_downlevel.obj
 0002:000065b0       ??_C@_1M@OMLEIIJB@?$AAm?$AAi?$AA?9?$AAN?$AAZ@ 000000018002b5b0     libucrt:lcidtoname_downlevel.obj
 0002:000065c0       ??_C@_1M@PMPEAILG@?$AAa?$AAr?$AA?9?$AAI?$AAQ@ 000000018002b5c0     libucrt:lcidtoname_downlevel.obj
 0002:000065d0       ??_C@_1M@CNKPNOEE@?$AAd?$AAe?$AA?9?$AAC?$AAH@ 000000018002b5d0     libucrt:lcidtoname_downlevel.obj
 0002:000065e0       ??_C@_1M@LKMGMLKO@?$AAe?$AAn?$AA?9?$AAG?$AAB@ 000000018002b5e0     libucrt:lcidtoname_downlevel.obj
 0002:000065f0       ??_C@_1M@PGKJFFGL@?$AAe?$AAs?$AA?9?$AAM?$AAX@ 000000018002b5f0     libucrt:lcidtoname_downlevel.obj
 0002:00006600       ??_C@_1M@DNNANBDC@?$AAf?$AAr?$AA?9?$AAB?$AAE@ 000000018002b600     libucrt:lcidtoname_downlevel.obj
 0002:00006610       ??_C@_1M@HLGMDFHM@?$AAi?$AAt?$AA?9?$AAC?$AAH@ 000000018002b610     libucrt:lcidtoname_downlevel.obj
 0002:00006620       ??_C@_1M@CLLBGJH@?$AAn?$AAl?$AA?9?$AAB?$AAE@ 000000018002b620     libucrt:lcidtoname_downlevel.obj
 0002:00006630       ??_C@_1M@BODBOGLF@?$AAn?$AAn?$AA?9?$AAN?$AAO@ 000000018002b630     libucrt:lcidtoname_downlevel.obj
 0002:00006640       ??_C@_1M@HFFAHKAD@?$AAp?$AAt?$AA?9?$AAP?$AAT@ 000000018002b640     libucrt:lcidtoname_downlevel.obj
 0002:00006650       ??_C@_1BG@LNOAKHIE@?$AAs?$AAr?$AA?9?$AAS?$AAP?$AA?9?$AAL?$AAa?$AAt?$AAn@ 000000018002b650     libucrt:lcidtoname_downlevel.obj
 0002:00006668       ??_C@_1M@HBMHBGAK@?$AAs?$AAv?$AA?9?$AAF?$AAI@ 000000018002b668     libucrt:lcidtoname_downlevel.obj
 0002:00006678       ??_C@_1BG@DGCJGJBE@?$AAa?$AAz?$AA?9?$AAA?$AAZ?$AA?9?$AAC?$AAy?$AAr?$AAl@ 000000018002b678     libucrt:lcidtoname_downlevel.obj
 0002:00006690       ??_C@_1M@KEJDAAHB@?$AAs?$AAe?$AA?9?$AAS?$AAE@ 000000018002b690     libucrt:lcidtoname_downlevel.obj
 0002:000066a0       ??_C@_1M@HEIBJJAD@?$AAm?$AAs?$AA?9?$AAB?$AAN@ 000000018002b6a0     libucrt:lcidtoname_downlevel.obj
 0002:000066b0       ??_C@_1BG@PBGJMCEM@?$AAu?$AAz?$AA?9?$AAU?$AAZ?$AA?9?$AAC?$AAy?$AAr?$AAl@ 000000018002b6b0     libucrt:lcidtoname_downlevel.obj
 0002:000066c8       ??_C@_1O@LAOBCMDF@?$AAq?$AAu?$AAz?$AA?9?$AAE?$AAC@ 000000018002b6c8     libucrt:lcidtoname_downlevel.obj
 0002:000066d8       ??_C@_1M@POEEMAIO@?$AAa?$AAr?$AA?9?$AAE?$AAG@ 000000018002b6d8     libucrt:lcidtoname_downlevel.obj
 0002:000066e8       ??_C@_1M@EFAKDEDL@?$AAz?$AAh?$AA?9?$AAH?$AAK@ 000000018002b6e8     libucrt:lcidtoname_downlevel.obj
 0002:000066f8       ??_C@_1M@HKKIJHGI@?$AAd?$AAe?$AA?9?$AAA?$AAT@ 000000018002b6f8     libucrt:lcidtoname_downlevel.obj
 0002:00006708       ??_C@_1M@KBFBEHJF@?$AAe?$AAn?$AA?9?$AAA?$AAU@ 000000018002b708     libucrt:lcidtoname_downlevel.obj
 0002:00006718       ??_C@_1M@MNPLFAAH@?$AAe?$AAs?$AA?9?$AAE?$AAS@ 000000018002b718     libucrt:lcidtoname_downlevel.obj
 0002:00006728       ??_C@_1M@HJOOJFMA@?$AAf?$AAr?$AA?9?$AAC?$AAA@ 000000018002b728     libucrt:lcidtoname_downlevel.obj
 0002:00006738       ??_C@_1BG@JPOFPNAB@?$AAs?$AAr?$AA?9?$AAS?$AAP?$AA?9?$AAC?$AAy?$AAr?$AAl@ 000000018002b738     libucrt:lcidtoname_downlevel.obj
 0002:00006750       ??_C@_1M@LNFOCMOB@?$AAs?$AAe?$AA?9?$AAF?$AAI@ 000000018002b750     libucrt:lcidtoname_downlevel.obj
 0002:00006760       ??_C@_1O@MGJBOAMB@?$AAq?$AAu?$AAz?$AA?9?$AAP?$AAE@ 000000018002b760     libucrt:lcidtoname_downlevel.obj
 0002:00006770       ??_C@_1M@GJINLBOK@?$AAa?$AAr?$AA?9?$AAL?$AAY@ 000000018002b770     libucrt:lcidtoname_downlevel.obj
 0002:00006780       ??_C@_1M@GGMNHJNL@?$AAz?$AAh?$AA?9?$AAS?$AAG@ 000000018002b780     libucrt:lcidtoname_downlevel.obj
 0002:00006790       ??_C@_1M@HOIKODND@?$AAd?$AAe?$AA?9?$AAL?$AAU@ 000000018002b790     libucrt:lcidtoname_downlevel.obj
 0002:000067a0       ??_C@_1M@DDOCCGFG@?$AAe?$AAn?$AA?9?$AAC?$AAA@ 000000018002b7a0     libucrt:lcidtoname_downlevel.obj
 0002:000067b0       ??_C@_1M@BNOEMJLF@?$AAe?$AAs?$AA?9?$AAG?$AAT@ 000000018002b7b0     libucrt:lcidtoname_downlevel.obj
 0002:000067c0       ??_C@_1M@EOGNKEK@?$AAf?$AAr?$AA?9?$AAC?$AAH@ 000000018002b7c0     libucrt:lcidtoname_downlevel.obj
 0002:000067d0       ??_C@_1M@FLIDJFHL@?$AAh?$AAr?$AA?9?$AAB?$AAA@ 000000018002b7d0     libucrt:lcidtoname_downlevel.obj
 0002:000067e0       ??_C@_1O@FMCELNAJ@?$AAs?$AAm?$AAj?$AA?9?$AAN?$AAO@ 000000018002b7e0     libucrt:lcidtoname_downlevel.obj
 0002:000067f0       ??_C@_1M@JHGLJMGJ@?$AAa?$AAr?$AA?9?$AAD?$AAZ@ 000000018002b7f0     libucrt:lcidtoname_downlevel.obj
 0002:00006800       ??_C@_1M@JKKFDCNP@?$AAz?$AAh?$AA?9?$AAM?$AAO@ 000000018002b800     libucrt:lcidtoname_downlevel.obj
 0002:00006810       ??_C@_1M@GEEFALPE@?$AAd?$AAe?$AA?9?$AAL?$AAI@ 000000018002b810     libucrt:lcidtoname_downlevel.obj
 0002:00006820       ??_C@_1M@IGEOFBG@?$AAe?$AAn?$AA?9?$AAN?$AAZ@ 000000018002b820     libucrt:lcidtoname_downlevel.obj
 0002:00006830       ??_C@_1M@KDBONEHP@?$AAe?$AAs?$AA?9?$AAC?$AAR@ 000000018002b830     libucrt:lcidtoname_downlevel.obj
 0002:00006840       ??_C@_1M@FHMDOHNN@?$AAf?$AAr?$AA?9?$AAL?$AAU@ 000000018002b840     libucrt:lcidtoname_downlevel.obj
 0002:00006850       ??_C@_1BG@NFKKMAFG@?$AAb?$AAs?$AA?9?$AAB?$AAA?$AA?9?$AAL?$AAa?$AAt?$AAn@ 000000018002b850     libucrt:lcidtoname_downlevel.obj
 0002:00006868       ??_C@_1O@IMNBEMCI@?$AAs?$AAm?$AAj?$AA?9?$AAS?$AAE@ 000000018002b868     libucrt:lcidtoname_downlevel.obj
 0002:00006878       ??_C@_1M@DHHMBNDP@?$AAa?$AAr?$AA?9?$AAM?$AAA@ 000000018002b878     libucrt:lcidtoname_downlevel.obj
 0002:00006888       ??_C@_1M@BNBLJCGH@?$AAe?$AAn?$AA?9?$AAI?$AAE@ 000000018002b888     libucrt:lcidtoname_downlevel.obj
 0002:00006898       ??_C@_1M@GEPAFMDL@?$AAe?$AAs?$AA?9?$AAP?$AAA@ 000000018002b898     libucrt:lcidtoname_downlevel.obj
 0002:000068a8       ??_C@_1M@OJONDMDL@?$AAf?$AAr?$AA?9?$AAM?$AAC@ 000000018002b8a8     libucrt:lcidtoname_downlevel.obj
 0002:000068b8       ??_C@_1BG@OBCNFJB@?$AAs?$AAr?$AA?9?$AAB?$AAA?$AA?9?$AAL?$AAa?$AAt?$AAn@ 000000018002b8b8     libucrt:lcidtoname_downlevel.obj
 0002:000068d0       ??_C@_1O@KEMEEGPO@?$AAs?$AAm?$AAa?$AA?9?$AAN?$AAO@ 000000018002b8d0     libucrt:lcidtoname_downlevel.obj
 0002:000068e0       ??_C@_1M@ELMGFODK@?$AAa?$AAr?$AA?9?$AAT?$AAN@ 000000018002b8e0     libucrt:lcidtoname_downlevel.obj
 0002:000068f0       ??_C@_1M@BHDLHFAF@?$AAe?$AAn?$AA?9?$AAZ?$AAA@ 000000018002b8f0     libucrt:lcidtoname_downlevel.obj
 0002:00006900       ??_C@_1M@BMGIGLIF@?$AAe?$AAs?$AA?9?$AAD?$AAO@ 000000018002b900     libucrt:lcidtoname_downlevel.obj
 0002:00006910       ??_C@_1BG@CMBHIPBE@?$AAs?$AAr?$AA?9?$AAB?$AAA?$AA?9?$AAC?$AAy?$AAr?$AAl@ 000000018002b910     libucrt:lcidtoname_downlevel.obj
 0002:00006928       ??_C@_1O@HEDBLHNP@?$AAs?$AAm?$AAa?$AA?9?$AAS?$AAE@ 000000018002b928     libucrt:lcidtoname_downlevel.obj
 0002:00006938       ??_C@_1M@DAGCADIM@?$AAa?$AAr?$AA?9?$AAO?$AAM@ 000000018002b938     libucrt:lcidtoname_downlevel.obj
 0002:00006948       ??_C@_1M@FODLMICG@?$AAe?$AAn?$AA?9?$AAJ?$AAM@ 000000018002b948     libucrt:lcidtoname_downlevel.obj
 0002:00006958       ??_C@_1M@DNMLCIHB@?$AAe?$AAs?$AA?9?$AAV?$AAE@ 000000018002b958     libucrt:lcidtoname_downlevel.obj
 0002:00006968       ??_C@_1O@EOKHMKJK@?$AAs?$AAm?$AAs?$AA?9?$AAF?$AAI@ 000000018002b968     libucrt:lcidtoname_downlevel.obj
 0002:00006978       ??_C@_1M@CAFJMKOF@?$AAa?$AAr?$AA?9?$AAY?$AAE@ 000000018002b978     libucrt:lcidtoname_downlevel.obj
 0002:00006988       ??_C@_1M@CBFHIJLI@?$AAe?$AAn?$AA?9?$AAC?$AAB@ 000000018002b988     libucrt:lcidtoname_downlevel.obj
 0002:00006998       ??_C@_1M@BGNFLDN@?$AAe?$AAs?$AA?9?$AAC?$AAO@ 000000018002b998     libucrt:lcidtoname_downlevel.obj
 0002:000069a8       ??_C@_1O@JMPHMAMC@?$AAs?$AAm?$AAn?$AA?9?$AAF?$AAI@ 000000018002b9a8     libucrt:lcidtoname_downlevel.obj
 0002:000069b8       ??_C@_1M@JLANABKE@?$AAa?$AAr?$AA?9?$AAS?$AAY@ 000000018002b9b8     libucrt:lcidtoname_downlevel.obj
 0002:000069c8       ??_C@_1M@HPKGCFGN@?$AAe?$AAn?$AA?9?$AAB?$AAZ@ 000000018002b9c8     libucrt:lcidtoname_downlevel.obj
 0002:000069d8       ??_C@_1M@OLJCMLGM@?$AAe?$AAs?$AA?9?$AAP?$AAE@ 000000018002b9d8     libucrt:lcidtoname_downlevel.obj
 0002:000069e8       ??_C@_1M@MKKGFKLE@?$AAa?$AAr?$AA?9?$AAJ?$AAO@ 000000018002b9e8     libucrt:lcidtoname_downlevel.obj
 0002:000069f8       ??_C@_1M@EKPGLDNI@?$AAe?$AAn?$AA?9?$AAT?$AAT@ 000000018002b9f8     libucrt:lcidtoname_downlevel.obj
 0002:00006a08       ??_C@_1M@OONGHFHE@?$AAe?$AAs?$AA?9?$AAA?$AAR@ 000000018002ba08     libucrt:lcidtoname_downlevel.obj
 0002:00006a18       ??_C@_1M@OOJFGBHE@?$AAa?$AAr?$AA?9?$AAL?$AAB@ 000000018002ba18     libucrt:lcidtoname_downlevel.obj
 0002:00006a28       ??_C@_1M@GCEJHNEG@?$AAe?$AAn?$AA?9?$AAZ?$AAW@ 000000018002ba28     libucrt:lcidtoname_downlevel.obj
 0002:00006a38       ??_C@_1M@JNOCAHJI@?$AAe?$AAs?$AA?9?$AAE?$AAC@ 000000018002ba38     libucrt:lcidtoname_downlevel.obj
 0002:00006a48       ??_C@_1M@JEFHPGGB@?$AAa?$AAr?$AA?9?$AAK?$AAW@ 000000018002ba48     libucrt:lcidtoname_downlevel.obj
 0002:00006a58       ??_C@_1M@MLKIBJOJ@?$AAe?$AAn?$AA?9?$AAP?$AAH@ 000000018002ba58     libucrt:lcidtoname_downlevel.obj
 0002:00006a68       ??_C@_1M@BDNIPEND@?$AAe?$AAs?$AA?9?$AAC?$AAL@ 000000018002ba68     libucrt:lcidtoname_downlevel.obj
 0002:00006a78       ??_C@_1M@MPNMEKBD@?$AAa?$AAr?$AA?9?$AAA?$AAE@ 000000018002ba78     libucrt:lcidtoname_downlevel.obj
 0002:00006a88       ??_C@_1M@KBJALCPI@?$AAe?$AAs?$AA?9?$AAU?$AAY@ 000000018002ba88     libucrt:lcidtoname_downlevel.obj
 0002:00006a98       ??_C@_1M@LLCCOAGA@?$AAa?$AAr?$AA?9?$AAB?$AAH@ 000000018002ba98     libucrt:lcidtoname_downlevel.obj
 0002:00006aa8       ??_C@_1M@PBFNCDEL@?$AAe?$AAs?$AA?9?$AAP?$AAY@ 000000018002baa8     libucrt:lcidtoname_downlevel.obj
 0002:00006ab8       ??_C@_1M@EDGINPNP@?$AAa?$AAr?$AA?9?$AAQ?$AAA@ 000000018002bab8     libucrt:lcidtoname_downlevel.obj
 0002:00006ac8       ??_C@_1M@MKDBIIJI@?$AAe?$AAs?$AA?9?$AAB?$AAO@ 000000018002bac8     libucrt:lcidtoname_downlevel.obj
 0002:00006ad8       ??_C@_1M@CPKKEBLD@?$AAe?$AAs?$AA?9?$AAS?$AAV@ 000000018002bad8     libucrt:lcidtoname_downlevel.obj
 0002:00006ae8       ??_C@_1M@NDBGMMJL@?$AAe?$AAs?$AA?9?$AAH?$AAN@ 000000018002bae8     libucrt:lcidtoname_downlevel.obj
 0002:00006af8       ??_C@_1M@JIJIBHDP@?$AAe?$AAs?$AA?9?$AAN?$AAI@ 000000018002baf8     libucrt:lcidtoname_downlevel.obj
 0002:00006b08       ??_C@_1M@CGFMKEEK@?$AAe?$AAs?$AA?9?$AAP?$AAR@ 000000018002bb08     libucrt:lcidtoname_downlevel.obj
 0002:00006b18       ??_C@_1O@ICJHKIIK@?$AAz?$AAh?$AA?9?$AAC?$AAH?$AAT@ 000000018002bb18     libucrt:lcidtoname_downlevel.obj
 0002:00006b28       ??_C@_15CLNEJCE@?$AAs?$AAr@ 000000018002bb28     libucrt:lcidtoname_downlevel.obj
 0002:00007970       ??_C@_1M@KAHEKEIG@?$AAa?$AAf?$AA?9?$AAz?$AAa@ 000000018002c970     libucrt:lcidtoname_downlevel.obj
 0002:00007980       ??_C@_1M@GIECOABL@?$AAa?$AAr?$AA?9?$AAa?$AAe@ 000000018002c980     libucrt:lcidtoname_downlevel.obj
 0002:00007990       ??_C@_1M@BMLMEKGI@?$AAa?$AAr?$AA?9?$AAb?$AAh@ 000000018002c990     libucrt:lcidtoname_downlevel.obj
 0002:000079a0       ??_C@_1M@DAPFDGGB@?$AAa?$AAr?$AA?9?$AAd?$AAz@ 000000018002c9a0     libucrt:lcidtoname_downlevel.obj
 0002:000079b0       ??_C@_1M@FJNKGKIG@?$AAa?$AAr?$AA?9?$AAe?$AAg@ 000000018002c9b0     libucrt:lcidtoname_downlevel.obj
 0002:000079c0       ??_C@_1M@FLGKKCLO@?$AAa?$AAr?$AA?9?$AAi?$AAq@ 000000018002c9c0     libucrt:lcidtoname_downlevel.obj
 0002:000079d0       ??_C@_1M@GNDIPALM@?$AAa?$AAr?$AA?9?$AAj?$AAo@ 000000018002c9d0     libucrt:lcidtoname_downlevel.obj
 0002:000079e0       ??_C@_1M@DDMJFMGJ@?$AAa?$AAr?$AA?9?$AAk?$AAw@ 000000018002c9e0     libucrt:lcidtoname_downlevel.obj
 0002:000079f0       ??_C@_1M@EJALMLHM@?$AAa?$AAr?$AA?9?$AAl?$AAb@ 000000018002c9f0     libucrt:lcidtoname_downlevel.obj
 0002:00007a00       ??_C@_1M@MOBDBLOC@?$AAa?$AAr?$AA?9?$AAl?$AAy@ 000000018002ca00     libucrt:lcidtoname_downlevel.obj
 0002:00007a10       ??_C@_1M@JAOCLHDH@?$AAa?$AAr?$AA?9?$AAm?$AAa@ 000000018002ca10     libucrt:lcidtoname_downlevel.obj
 0002:00007a20       ??_C@_1M@JHPMKJIE@?$AAa?$AAr?$AA?9?$AAo?$AAm@ 000000018002ca20     libucrt:lcidtoname_downlevel.obj
 0002:00007a30       ??_C@_1M@OEPGHFNH@?$AAa?$AAr?$AA?9?$AAq?$AAa@ 000000018002ca30     libucrt:lcidtoname_downlevel.obj
 0002:00007a40       ??_C@_1M@KJDONENM@?$AAa?$AAr?$AA?9?$AAs?$AAa@ 000000018002ca40     libucrt:lcidtoname_downlevel.obj
 0002:00007a50       ??_C@_1M@DMJDKLKM@?$AAa?$AAr?$AA?9?$AAs?$AAy@ 000000018002ca50     libucrt:lcidtoname_downlevel.obj
 0002:00007a60       ??_C@_1M@OMFIPEDC@?$AAa?$AAr?$AA?9?$AAt?$AAn@ 000000018002ca60     libucrt:lcidtoname_downlevel.obj
 0002:00007a70       ??_C@_1M@IHMHGAON@?$AAa?$AAr?$AA?9?$AAy?$AAe@ 000000018002ca70     libucrt:lcidtoname_downlevel.obj
 0002:00007a80       ??_C@_1BG@KDCPGJGB@?$AAa?$AAz?$AA?9?$AAa?$AAz?$AA?9?$AAc?$AAy?$AAr?$AAl@ 000000018002ca80     libucrt:lcidtoname_downlevel.obj
 0002:00007a98       ??_C@_1BG@IBCKDDOE@?$AAa?$AAz?$AA?9?$AAa?$AAz?$AA?9?$AAl?$AAa?$AAt?$AAn@ 000000018002ca98     libucrt:lcidtoname_downlevel.obj
 0002:00007ab0       ??_C@_1M@EGPFDCPD@?$AAb?$AAe?$AA?9?$AAb?$AAy@ 000000018002cab0     libucrt:lcidtoname_downlevel.obj
 0002:00007ac0       ??_C@_1M@PCMGMCGC@?$AAb?$AAg?$AA?9?$AAb?$AAg@ 000000018002cac0     libucrt:lcidtoname_downlevel.obj
 0002:00007ad0       ??_C@_1M@BJBMFGOB@?$AAb?$AAn?$AA?9?$AAi?$AAn@ 000000018002cad0     libucrt:lcidtoname_downlevel.obj
 0002:00007ae0       ??_C@_1BG@EAKMMACD@?$AAb?$AAs?$AA?9?$AAb?$AAa?$AA?9?$AAl?$AAa?$AAt?$AAn@ 000000018002cae0     libucrt:lcidtoname_downlevel.obj
 0002:00007af8       ??_C@_1M@KGADAODK@?$AAc?$AAa?$AA?9?$AAe?$AAs@ 000000018002caf8     libucrt:lcidtoname_downlevel.obj
 0002:00007b08       ??_C@_1M@COAJPDHI@?$AAc?$AAs?$AA?9?$AAc?$AAz@ 000000018002cb08     libucrt:lcidtoname_downlevel.obj
 0002:00007b18       ??_C@_1M@DHBHFONH@?$AAc?$AAy?$AA?9?$AAg?$AAb@ 000000018002cb18     libucrt:lcidtoname_downlevel.obj
 0002:00007b28       ??_C@_1M@IMGKELGA@?$AAd?$AAa?$AA?9?$AAd?$AAk@ 000000018002cb28     libucrt:lcidtoname_downlevel.obj
 0002:00007b38       ??_C@_1M@NNDGDNGA@?$AAd?$AAe?$AA?9?$AAa?$AAt@ 000000018002cb38     libucrt:lcidtoname_downlevel.obj
 0002:00007b48       ??_C@_1M@IKDBHEEM@?$AAd?$AAe?$AA?9?$AAc?$AAh@ 000000018002cb48     libucrt:lcidtoname_downlevel.obj
 0002:00007b58       ??_C@_1M@GFFOJMCJ@?$AAd?$AAe?$AA?9?$AAd?$AAe@ 000000018002cb58     libucrt:lcidtoname_downlevel.obj
 0002:00007b68       ??_C@_1M@MDNLKBPM@?$AAd?$AAe?$AA?9?$AAl?$AAi@ 000000018002cb68     libucrt:lcidtoname_downlevel.obj
 0002:00007b78       ??_C@_1M@NJBEEJNL@?$AAd?$AAe?$AA?9?$AAl?$AAu@ 000000018002cb78     libucrt:lcidtoname_downlevel.obj
 0002:00007b88       ??_C@_1O@GNNELBAP@?$AAd?$AAi?$AAv?$AA?9?$AAm?$AAv@ 000000018002cb88     libucrt:lcidtoname_downlevel.obj
 0002:00007b98       ??_C@_1M@EJLEOGAE@?$AAe?$AAl?$AA?9?$AAg?$AAr@ 000000018002cb98     libucrt:lcidtoname_downlevel.obj
 0002:00007ba8       ??_C@_1M@GMPONJN@?$AAe?$AAn?$AA?9?$AAa?$AAu@ 000000018002cba8     libucrt:lcidtoname_downlevel.obj
 0002:00007bb8       ??_C@_1M@NIDIIPGF@?$AAe?$AAn?$AA?9?$AAb?$AAz@ 000000018002cbb8     libucrt:lcidtoname_downlevel.obj
 0002:00007bc8       ??_C@_1M@JEHMIMFO@?$AAe?$AAn?$AA?9?$AAc?$AAa@ 000000018002cbc8     libucrt:lcidtoname_downlevel.obj
 0002:00007bd8       ??_C@_1M@IGMJCDLA@?$AAe?$AAn?$AA?9?$AAc?$AAb@ 000000018002cbd8     libucrt:lcidtoname_downlevel.obj
 0002:00007be8       ??_C@_1M@BNFIGBKG@?$AAe?$AAn?$AA?9?$AAg?$AAb@ 000000018002cbe8     libucrt:lcidtoname_downlevel.obj
 0002:00007bf8       ??_C@_1M@LKIFDIGP@?$AAe?$AAn?$AA?9?$AAi?$AAe@ 000000018002cbf8     libucrt:lcidtoname_downlevel.obj
 0002:00007c08       ??_C@_1M@PJKFGCCO@?$AAe?$AAn?$AA?9?$AAj?$AAm@ 000000018002cc08     libucrt:lcidtoname_downlevel.obj
 0002:00007c18       ??_C@_1M@KPPKEPBO@?$AAe?$AAn?$AA?9?$AAn?$AAz@ 000000018002cc18     libucrt:lcidtoname_downlevel.obj
 0002:00007c28       ??_C@_1M@GMDGLDOB@?$AAe?$AAn?$AA?9?$AAp?$AAh@ 000000018002cc28     libucrt:lcidtoname_downlevel.obj
 0002:00007c38       ??_C@_1M@ONGIBJNA@?$AAe?$AAn?$AA?9?$AAt?$AAt@ 000000018002cc38     libucrt:lcidtoname_downlevel.obj
 0002:00007c48       ??_C@_1M@LLODPCMM@?$AAe?$AAn?$AA?9?$AAu?$AAs@ 000000018002cc48     libucrt:lcidtoname_downlevel.obj
 0002:00007c58       ??_C@_1M@LAKFNPAN@?$AAe?$AAn?$AA?9?$AAz?$AAa@ 000000018002cc58     libucrt:lcidtoname_downlevel.obj
 0002:00007c68       ??_C@_1M@MFNHNHEO@?$AAe?$AAn?$AA?9?$AAz?$AAw@ 000000018002cc68     libucrt:lcidtoname_downlevel.obj
 0002:00007c78       ??_C@_1M@EJEINPHM@?$AAe?$AAs?$AA?9?$AAa?$AAr@ 000000018002cc78     libucrt:lcidtoname_downlevel.obj
 0002:00007c88       ??_C@_1M@GNKPCCJA@?$AAe?$AAs?$AA?9?$AAb?$AAo@ 000000018002cc88     libucrt:lcidtoname_downlevel.obj
 0002:00007c98       ??_C@_1M@LEEGFONL@?$AAe?$AAs?$AA?9?$AAc?$AAl@ 000000018002cc98     libucrt:lcidtoname_downlevel.obj
 0002:00007ca8       ??_C@_1M@KGPDPBDF@?$AAe?$AAs?$AA?9?$AAc?$AAo@ 000000018002cca8     libucrt:lcidtoname_downlevel.obj
 0002:00007cb8       ??_C@_1M@EIAHOHH@?$AAe?$AAs?$AA?9?$AAc?$AAr@ 000000018002ccb8     libucrt:lcidtoname_downlevel.obj
 0002:00007cc8       ??_C@_1M@LLPGMBIN@?$AAe?$AAs?$AA?9?$AAd?$AAo@ 000000018002ccc8     libucrt:lcidtoname_downlevel.obj
 0002:00007cd8       ??_C@_1M@DKHMKNJA@?$AAe?$AAs?$AA?9?$AAe?$AAc@ 000000018002ccd8     libucrt:lcidtoname_downlevel.obj
 0002:00007ce8       ??_C@_1M@GKGFPKAP@?$AAe?$AAs?$AA?9?$AAe?$AAs@ 000000018002cce8     libucrt:lcidtoname_downlevel.obj
 0002:00007cf8       ??_C@_1M@LKHKGDLN@?$AAe?$AAs?$AA?9?$AAg?$AAt@ 000000018002ccf8     libucrt:lcidtoname_downlevel.obj
 0002:00007d08       ??_C@_1M@HEIIGGJD@?$AAe?$AAs?$AA?9?$AAh?$AAn@ 000000018002cd08     libucrt:lcidtoname_downlevel.obj
 0002:00007d18       ??_C@_1M@FBDHPPGD@?$AAe?$AAs?$AA?9?$AAm?$AAx@ 000000018002cd18     libucrt:lcidtoname_downlevel.obj
 0002:00007d28       ??_C@_1M@DPAGLNDH@?$AAe?$AAs?$AA?9?$AAn?$AAi@ 000000018002cd28     libucrt:lcidtoname_downlevel.obj
 0002:00007d38       ??_C@_1M@MDGOPGDD@?$AAe?$AAs?$AA?9?$AAp?$AAa@ 000000018002cd38     libucrt:lcidtoname_downlevel.obj
 0002:00007d48       ??_C@_1M@EMAMGBGE@?$AAe?$AAs?$AA?9?$AAp?$AAe@ 000000018002cd48     libucrt:lcidtoname_downlevel.obj
 0002:00007d58       ??_C@_1M@IBMCAOEC@?$AAe?$AAs?$AA?9?$AAp?$AAr@ 000000018002cd58     libucrt:lcidtoname_downlevel.obj
 0002:00007d68       ??_C@_1M@FGMDIJED@?$AAe?$AAs?$AA?9?$AAp?$AAy@ 000000018002cd68     libucrt:lcidtoname_downlevel.obj
 0002:00007d78       ??_C@_1M@IIDEOLLL@?$AAe?$AAs?$AA?9?$AAs?$AAv@ 000000018002cd78     libucrt:lcidtoname_downlevel.obj
 0002:00007d88       ??_C@_1M@GAOBIPA@?$AAe?$AAs?$AA?9?$AAu?$AAy@ 000000018002cd88     libucrt:lcidtoname_downlevel.obj
 0002:00007d98       ??_C@_1M@JKFFICHJ@?$AAe?$AAs?$AA?9?$AAv?$AAe@ 000000018002cd98     libucrt:lcidtoname_downlevel.obj
 0002:00007da8       ??_C@_1M@PNMLOJDF@?$AAe?$AAt?$AA?9?$AAe?$AAe@ 000000018002cda8     libucrt:lcidtoname_downlevel.obj
 0002:00007db8       ??_C@_1M@GHHLIKEI@?$AAe?$AAu?$AA?9?$AAe?$AAs@ 000000018002cdb8     libucrt:lcidtoname_downlevel.obj
 0002:00007dc8       ??_C@_1M@PBNONODE@?$AAf?$AAa?$AA?9?$AAi?$AAr@ 000000018002cdc8     libucrt:lcidtoname_downlevel.obj
 0002:00007dd8       ??_C@_1M@JEEHPMIL@?$AAf?$AAi?$AA?9?$AAf?$AAi@ 000000018002cdd8     libucrt:lcidtoname_downlevel.obj
 0002:00007de8       ??_C@_1M@LMDCNDBA@?$AAf?$AAo?$AA?9?$AAf?$AAo@ 000000018002cde8     libucrt:lcidtoname_downlevel.obj
 0002:00007df8       ??_C@_1M@JKEOHLDK@?$AAf?$AAr?$AA?9?$AAb?$AAe@ 000000018002cdf8     libucrt:lcidtoname_downlevel.obj
 0002:00007e08       ??_C@_1M@NOHADPMI@?$AAf?$AAr?$AA?9?$AAc?$AAa@ 000000018002ce08     libucrt:lcidtoname_downlevel.obj
 0002:00007e18       ??_C@_1M@KDHIHAEC@?$AAf?$AAr?$AA?9?$AAc?$AAh@ 000000018002ce18     libucrt:lcidtoname_downlevel.obj
 0002:00007e28       ??_C@_1M@MMBBFGAK@?$AAf?$AAr?$AA?9?$AAf?$AAr@ 000000018002ce28     libucrt:lcidtoname_downlevel.obj
 0002:00007e38       ??_C@_1M@PAFNENNF@?$AAf?$AAr?$AA?9?$AAl?$AAu@ 000000018002ce38     libucrt:lcidtoname_downlevel.obj
 0002:00007e48       ??_C@_1M@EOHDJGDD@?$AAf?$AAr?$AA?9?$AAm?$AAc@ 000000018002ce48     libucrt:lcidtoname_downlevel.obj
 0002:00007e58       ??_C@_1M@FAPLLOPF@?$AAg?$AAl?$AA?9?$AAe?$AAs@ 000000018002ce58     libucrt:lcidtoname_downlevel.obj
 0002:00007e68       ??_C@_1M@FOPBFLOO@?$AAg?$AAu?$AA?9?$AAi?$AAn@ 000000018002ce68     libucrt:lcidtoname_downlevel.obj
 0002:00007e78       ??_C@_1M@KBMCINPM@?$AAh?$AAe?$AA?9?$AAi?$AAl@ 000000018002ce78     libucrt:lcidtoname_downlevel.obj
 0002:00007e88       ??_C@_1M@BBPHKFPJ@?$AAh?$AAi?$AA?9?$AAi?$AAn@ 000000018002ce88     libucrt:lcidtoname_downlevel.obj
 0002:00007e98       ??_C@_1M@PMBNDPHD@?$AAh?$AAr?$AA?9?$AAb?$AAa@ 000000018002ce98     libucrt:lcidtoname_downlevel.obj
 0002:00007ea8       ??_C@_1M@BPCKOEGE@?$AAh?$AAr?$AA?9?$AAh?$AAr@ 000000018002cea8     libucrt:lcidtoname_downlevel.obj
 0002:00007eb8       ??_C@_1M@GACBMHKE@?$AAh?$AAu?$AA?9?$AAh?$AAu@ 000000018002ceb8     libucrt:lcidtoname_downlevel.obj
 0002:00007ec8       ??_C@_1M@MILPAJJC@?$AAh?$AAy?$AA?9?$AAa?$AAm@ 000000018002cec8     libucrt:lcidtoname_downlevel.obj
 0002:00007ed8       ??_C@_1M@BABBICEC@?$AAi?$AAd?$AA?9?$AAi?$AAd@ 000000018002ced8     libucrt:lcidtoname_downlevel.obj
 0002:00007ee8       ??_C@_1M@BIKNHHPF@?$AAi?$AAs?$AA?9?$AAi?$AAs@ 000000018002cee8     libucrt:lcidtoname_downlevel.obj
 0002:00007ef8       ??_C@_1M@NMPCJPHE@?$AAi?$AAt?$AA?9?$AAc?$AAh@ 000000018002cef8     libucrt:lcidtoname_downlevel.obj
 0002:00007f08       ??_C@_1M@GHKGFEDF@?$AAi?$AAt?$AA?9?$AAi?$AAt@ 000000018002cf08     libucrt:lcidtoname_downlevel.obj
 0002:00007f18       ??_C@_1M@NIEJCJJA@?$AAj?$AAa?$AA?9?$AAj?$AAp@ 000000018002cf18     libucrt:lcidtoname_downlevel.obj
 0002:00007f28       ??_C@_1M@JILFNBIM@?$AAk?$AAa?$AA?9?$AAg?$AAe@ 000000018002cf28     libucrt:lcidtoname_downlevel.obj
 0002:00007f38       ??_C@_1M@PACPMGPH@?$AAk?$AAk?$AA?9?$AAk?$AAz@ 000000018002cf38     libucrt:lcidtoname_downlevel.obj
 0002:00007f48       ??_C@_1M@IELFGMHA@?$AAk?$AAn?$AA?9?$AAi?$AAn@ 000000018002cf48     libucrt:lcidtoname_downlevel.obj
 0002:00007f58       ??_C@_1O@IBBJHCH@?$AAk?$AAo?$AAk?$AA?9?$AAi?$AAn@ 000000018002cf58     libucrt:lcidtoname_downlevel.obj
 0002:00007f68       ??_C@_1M@DMHAEOGC@?$AAk?$AAo?$AA?9?$AAk?$AAr@ 000000018002cf68     libucrt:lcidtoname_downlevel.obj
 0002:00007f78       ??_C@_1M@HBAHBIGA@?$AAk?$AAy?$AA?9?$AAk?$AAg@ 000000018002cf78     libucrt:lcidtoname_downlevel.obj
 0002:00007f88       ??_C@_1M@KPMILCJG@?$AAl?$AAt?$AA?9?$AAl?$AAt@ 000000018002cf88     libucrt:lcidtoname_downlevel.obj
 0002:00007f98       ??_C@_1M@BDEKKCA@?$AAl?$AAv?$AA?9?$AAl?$AAv@ 000000018002cf98     libucrt:lcidtoname_downlevel.obj
 0002:00007fa8       ??_C@_1M@ELCKCCJJ@?$AAm?$AAi?$AA?9?$AAn?$AAz@ 000000018002cfa8     libucrt:lcidtoname_downlevel.obj
 0002:00007fb8       ??_C@_1M@CBOOLAPA@?$AAm?$AAk?$AA?9?$AAm?$AAk@ 000000018002cfb8     libucrt:lcidtoname_downlevel.obj
 0002:00007fc8       ??_C@_1M@GPHNBJKN@?$AAm?$AAl?$AA?9?$AAi?$AAn@ 000000018002cfc8     libucrt:lcidtoname_downlevel.obj
 0002:00007fd8       ??_C@_1M@PABJILIG@?$AAm?$AAn?$AA?9?$AAm?$AAn@ 000000018002cfd8     libucrt:lcidtoname_downlevel.obj
 0002:00007fe8       ??_C@_1M@FGBKKIPG@?$AAm?$AAr?$AA?9?$AAi?$AAn@ 000000018002cfe8     libucrt:lcidtoname_downlevel.obj
 0002:00007ff8       ??_C@_1M@NDBPDDAL@?$AAm?$AAs?$AA?9?$AAb?$AAn@ 000000018002cff8     libucrt:lcidtoname_downlevel.obj
 0002:00008008       ??_C@_1M@OPIHOOPI@?$AAm?$AAs?$AA?9?$AAm?$AAy@ 000000018002d008     libucrt:lcidtoname_downlevel.obj
 0002:00008018       ??_C@_1M@PPDBCNFM@?$AAm?$AAt?$AA?9?$AAm?$AAt@ 000000018002d018     libucrt:lcidtoname_downlevel.obj
 0002:00008028       ??_C@_1M@KDJDKMDD@?$AAn?$AAb?$AA?9?$AAn?$AAo@ 000000018002d028     libucrt:lcidtoname_downlevel.obj
 0002:00008038       ??_C@_1M@KFCFLMJP@?$AAn?$AAl?$AA?9?$AAb?$AAe@ 000000018002d038     libucrt:lcidtoname_downlevel.obj
 0002:00008048       ??_C@_1M@KPOPDDGO@?$AAn?$AAl?$AA?9?$AAn?$AAl@ 000000018002d048     libucrt:lcidtoname_downlevel.obj
 0002:00008058       ??_C@_1M@LJKPEMLN@?$AAn?$AAn?$AA?9?$AAn?$AAo@ 000000018002d058     libucrt:lcidtoname_downlevel.obj
 0002:00008068       ??_C@_1M@BDGHHBFL@?$AAn?$AAs?$AA?9?$AAz?$AAa@ 000000018002d068     libucrt:lcidtoname_downlevel.obj
 0002:00008078       ??_C@_1M@IDEHOAP@?$AAp?$AAa?$AA?9?$AAi?$AAn@ 000000018002d078     libucrt:lcidtoname_downlevel.obj
 0002:00008088       ??_C@_1M@HDBKGOGH@?$AAp?$AAl?$AA?9?$AAp?$AAl@ 000000018002d088     libucrt:lcidtoname_downlevel.obj
 0002:00008098       ??_C@_1M@LJLLCMEH@?$AAp?$AAt?$AA?9?$AAb?$AAr@ 000000018002d098     libucrt:lcidtoname_downlevel.obj
 0002:000080a8       ??_C@_1M@NCMONAAL@?$AAp?$AAt?$AA?9?$AAp?$AAt@ 000000018002d0a8     libucrt:lcidtoname_downlevel.obj
 0002:000080b8       ??_C@_1O@EAKMAJDN@?$AAq?$AAu?$AAz?$AA?9?$AAb?$AAo@ 000000018002d0b8     libucrt:lcidtoname_downlevel.obj
 0002:000080c8       ??_C@_1O@BHHPIGDN@?$AAq?$AAu?$AAz?$AA?9?$AAe?$AAc@ 000000018002d0c8     libucrt:lcidtoname_downlevel.obj
 0002:000080d8       ??_C@_1O@GBAPEKMJ@?$AAq?$AAu?$AAz?$AA?9?$AAp?$AAe@ 000000018002d0d8     libucrt:lcidtoname_downlevel.obj
 0002:000080e8       ??_C@_1M@CLGLEFBO@?$AAr?$AAo?$AA?9?$AAr?$AAo@ 000000018002d0e8     libucrt:lcidtoname_downlevel.obj
 0002:000080f8       ??_C@_1M@CEEDODME@?$AAr?$AAu?$AA?9?$AAr?$AAu@ 000000018002d0f8     libucrt:lcidtoname_downlevel.obj
 0002:00008108       ??_C@_1M@HPKKKMPP@?$AAs?$AAa?$AA?9?$AAi?$AAn@ 000000018002d108     libucrt:lcidtoname_downlevel.obj
 0002:00008118       ??_C@_1M@BKMAIGOJ@?$AAs?$AAe?$AA?9?$AAf?$AAi@ 000000018002d118     libucrt:lcidtoname_downlevel.obj
 0002:00008128       ??_C@_1M@NDPIFLFI@?$AAs?$AAe?$AA?9?$AAn?$AAo@ 000000018002d128     libucrt:lcidtoname_downlevel.obj
 0002:00008138       ??_C@_1M@DANKKHJ@?$AAs?$AAe?$AA?9?$AAs?$AAe@ 000000018002d138     libucrt:lcidtoname_downlevel.obj
 0002:00008148       ??_C@_1M@PNBLONPJ@?$AAs?$AAk?$AA?9?$AAs?$AAk@ 000000018002d148     libucrt:lcidtoname_downlevel.obj
 0002:00008158       ??_C@_1M@LFMODOAL@?$AAs?$AAl?$AA?9?$AAs?$AAi@ 000000018002d158     libucrt:lcidtoname_downlevel.obj
 0002:00008168       ??_C@_1O@DFKOMPG@?$AAs?$AAm?$AAa?$AA?9?$AAn?$AAo@ 000000018002d168     libucrt:lcidtoname_downlevel.obj
 0002:00008178       ??_C@_1O@NDKPBNNH@?$AAs?$AAm?$AAa?$AA?9?$AAs?$AAe@ 000000018002d178     libucrt:lcidtoname_downlevel.obj
 0002:00008188       ??_C@_1O@PLLKBHAB@?$AAs?$AAm?$AAj?$AA?9?$AAn?$AAo@ 000000018002d188     libucrt:lcidtoname_downlevel.obj
 0002:00008198       ??_C@_1O@CLEPOGCA@?$AAs?$AAm?$AAj?$AA?9?$AAs?$AAe@ 000000018002d198     libucrt:lcidtoname_downlevel.obj
 0002:000081a8       ??_C@_1O@DLGJGKMK@?$AAs?$AAm?$AAn?$AA?9?$AAf?$AAi@ 000000018002d1a8     libucrt:lcidtoname_downlevel.obj
 0002:000081b8       ??_C@_1O@OJDJGAJC@?$AAs?$AAm?$AAs?$AA?9?$AAf?$AAi@ 000000018002d1b8     libucrt:lcidtoname_downlevel.obj
 0002:000081c8       ??_C@_1M@BOFOGHPB@?$AAs?$AAq?$AA?9?$AAa?$AAl@ 000000018002d1c8     libucrt:lcidtoname_downlevel.obj
 0002:000081d8       ??_C@_1BG@LJBBIPGB@?$AAs?$AAr?$AA?9?$AAb?$AAa?$AA?9?$AAc?$AAy?$AAr?$AAl@ 000000018002d1d8     libucrt:lcidtoname_downlevel.obj
 0002:000081f0       ??_C@_1BG@JLBENFOE@?$AAs?$AAr?$AA?9?$AAb?$AAa?$AA?9?$AAl?$AAa?$AAt?$AAn@ 000000018002d1f0     libucrt:lcidtoname_downlevel.obj
 0002:00008208       ??_C@_1BG@KODPNHE@?$AAs?$AAr?$AA?9?$AAs?$AAp?$AA?9?$AAc?$AAy?$AAr?$AAl@ 000000018002d208     libucrt:lcidtoname_downlevel.obj
 0002:00008220       ??_C@_1BG@CIOGKHPB@?$AAs?$AAr?$AA?9?$AAs?$AAp?$AA?9?$AAl?$AAa?$AAt?$AAn@ 000000018002d220     libucrt:lcidtoname_downlevel.obj
 0002:00008238       ??_C@_1M@NGFJLMAC@?$AAs?$AAv?$AA?9?$AAf?$AAi@ 000000018002d238     libucrt:lcidtoname_downlevel.obj
 0002:00008248       ??_C@_1M@MPJEJAJC@?$AAs?$AAv?$AA?9?$AAs?$AAe@ 000000018002d248     libucrt:lcidtoname_downlevel.obj
 0002:00008258       ??_C@_1M@MPNDHLFK@?$AAs?$AAw?$AA?9?$AAk?$AAe@ 000000018002d258     libucrt:lcidtoname_downlevel.obj
 0002:00008268       ??_C@_1O@KOHBJJI@?$AAs?$AAy?$AAr?$AA?9?$AAs?$AAy@ 000000018002d268     libucrt:lcidtoname_downlevel.obj
 0002:00008278       ??_C@_1M@LDCEFHA@?$AAt?$AAa?$AA?9?$AAi?$AAn@ 000000018002d278     libucrt:lcidtoname_downlevel.obj
 0002:00008288       ??_C@_1M@CNJOFAK@?$AAt?$AAe?$AA?9?$AAi?$AAn@ 000000018002d288     libucrt:lcidtoname_downlevel.obj
 0002:00008298       ??_C@_1M@GNAECACD@?$AAt?$AAh?$AA?9?$AAt?$AAh@ 000000018002d298     libucrt:lcidtoname_downlevel.obj
 0002:000082a8       ??_C@_1M@CHBIHOJO@?$AAt?$AAn?$AA?9?$AAz?$AAa@ 000000018002d2a8     libucrt:lcidtoname_downlevel.obj
 0002:000082b8       ??_C@_1M@GCCMIGPJ@?$AAt?$AAr?$AA?9?$AAt?$AAr@ 000000018002d2b8     libucrt:lcidtoname_downlevel.obj
 0002:000082c8       ??_C@_1M@CELMCNBK@?$AAt?$AAt?$AA?9?$AAr?$AAu@ 000000018002d2c8     libucrt:lcidtoname_downlevel.obj
 0002:000082d8       ??_C@_1M@KLMCELGA@?$AAu?$AAk?$AA?9?$AAu?$AAa@ 000000018002d2d8     libucrt:lcidtoname_downlevel.obj
 0002:000082e8       ??_C@_1M@EPAJJAJF@?$AAu?$AAr?$AA?9?$AAp?$AAk@ 000000018002d2e8     libucrt:lcidtoname_downlevel.obj
 0002:000082f8       ??_C@_1BG@GEGPMCDJ@?$AAu?$AAz?$AA?9?$AAu?$AAz?$AA?9?$AAc?$AAy?$AAr?$AAl@ 000000018002d2f8     libucrt:lcidtoname_downlevel.obj
 0002:00008310       ??_C@_1BG@EGGKJILM@?$AAu?$AAz?$AA?9?$AAu?$AAz?$AA?9?$AAl?$AAa?$AAt?$AAn@ 000000018002d310     libucrt:lcidtoname_downlevel.obj
 0002:00008328       ??_C@_1M@GFOCLFF@?$AAv?$AAi?$AA?9?$AAv?$AAn@ 000000018002d328     libucrt:lcidtoname_downlevel.obj
 0002:00008338       ??_C@_1M@CPAMEDFI@?$AAx?$AAh?$AA?9?$AAz?$AAa@ 000000018002d338     libucrt:lcidtoname_downlevel.obj
 0002:00008348       ??_C@_1O@EBKIFIGN@?$AAz?$AAh?$AA?9?$AAc?$AAh?$AAs@ 000000018002d348     libucrt:lcidtoname_downlevel.obj
 0002:00008358       ??_C@_1O@NMHPGANE@?$AAz?$AAh?$AA?9?$AAc?$AAh?$AAt@ 000000018002d358     libucrt:lcidtoname_downlevel.obj
 0002:00008368       ??_C@_1M@LPINJOMC@?$AAz?$AAh?$AA?9?$AAc?$AAn@ 000000018002d368     libucrt:lcidtoname_downlevel.obj
 0002:00008378       ??_C@_1M@OCJEJODD@?$AAz?$AAh?$AA?9?$AAh?$AAk@ 000000018002d378     libucrt:lcidtoname_downlevel.obj
 0002:00008388       ??_C@_1M@DNDLJINH@?$AAz?$AAh?$AA?9?$AAm?$AAo@ 000000018002d388     libucrt:lcidtoname_downlevel.obj
 0002:00008398       ??_C@_1M@MBFDNDND@?$AAz?$AAh?$AA?9?$AAs?$AAg@ 000000018002d398     libucrt:lcidtoname_downlevel.obj
 0002:000083a8       ??_C@_1M@IMEPLEPE@?$AAz?$AAh?$AA?9?$AAt?$AAw@ 000000018002d3a8     libucrt:lcidtoname_downlevel.obj
 0002:000083b8       ??_C@_1M@BBGHNHJP@?$AAz?$AAu?$AA?9?$AAz?$AAa@ 000000018002d3b8     libucrt:lcidtoname_downlevel.obj
 0002:000083d0       ?large_power_data@?1??multiply_by_power_of_ten@__crt_strtox@@YA_NAEAUbig_integer@2@I@Z@4QBIB 000000018002d3d0     libucrt:cfout.obj
 0002:00008ce0       ?large_power_indices@?1??multiply_by_power_of_ten@__crt_strtox@@YA_NAEAUbig_integer@2@I@Z@4QBUunpack_index@?1??12@YA_N0I@Z@B 000000018002dce0     libucrt:cfout.obj
 0002:00008d78       ?small_powers_of_ten@?1??multiply_by_power_of_ten@__crt_strtox@@YA_NAEAUbig_integer@2@I@Z@4QBIB 000000018002dd78     libucrt:cfout.obj
 0002:00008d9c       ??_C@_01GBGANLPD@0@        000000018002dd9c     libucrt:cfout.obj
 0002:00008da0       ??_C@_05DNEBIAHO@1?$CDINF@ 000000018002dda0     libucrt:cfout.obj
 0002:00008da8       ??_C@_06IMKFLFPG@1?$CDQNAN@ 000000018002dda8     libucrt:cfout.obj
 0002:00008db0       ??_C@_06PGGFOGJG@1?$CDSNAN@ 000000018002ddb0     libucrt:cfout.obj
 0002:00008db8       ??_C@_05PHHOCPM@1?$CDIND@  000000018002ddb8     libucrt:cfout.obj
 0002:00008de8       __real@3ff0000000000000    000000018002dde8     libucrt:ceil.obj
 0002:00009040       __log10_256_lead           000000018002e040     libucrt:log10_256_lead_tail_table.obj
 0002:00009850       __log10_256_tail           000000018002e850     libucrt:log10_256_lead_tail_table.obj
 0002:0000a060       __log_F_inv_qword          000000018002f060     libucrt:log_f_inv_qword_table.obj
 0002:0000a870       ??_C@_05HGHHAHAP@log10@    000000018002f870     libucrt:log_special.obj
 0002:0000a878       ??_C@_1BA@BALFACEM@?$AAC?$AAO?$AAN?$AAO?$AAU?$AAT?$AA$@ 000000018002f878     libucrt:initcon.obj
 0002:0000a900       _load_config_used          000000018002f900     LIBCMT:loadcfg.obj
 0002:0000aa80       _tls_used                  000000018002fa80     LIBCMT:tlssup.obj
 0002:0000aaa8       ??_R4exception@std@@6B@    000000018002faa8     LIBCMT:throw_bad_alloc.obj
 0002:0000aad0       ??_R3exception@std@@8      000000018002fad0     LIBCMT:throw_bad_alloc.obj
 0002:0000aae8       ??_R2exception@std@@8      000000018002fae8     LIBCMT:throw_bad_alloc.obj
 0002:0000aaf8       ??_R1A@?0A@EA@exception@std@@8 000000018002faf8     LIBCMT:throw_bad_alloc.obj
 0002:0000ab20       ??_R4bad_alloc@std@@6B@    000000018002fb20     LIBCMT:throw_bad_alloc.obj
 0002:0000ab48       ??_R3bad_alloc@std@@8      000000018002fb48     LIBCMT:throw_bad_alloc.obj
 0002:0000ab60       ??_R2bad_alloc@std@@8      000000018002fb60     LIBCMT:throw_bad_alloc.obj
 0002:0000ab78       ??_R1A@?0A@EA@bad_alloc@std@@8 000000018002fb78     LIBCMT:throw_bad_alloc.obj
 0002:0000aba0       ??_R4bad_array_new_length@std@@6B@ 000000018002fba0     LIBCMT:throw_bad_alloc.obj
 0002:0000abc8       ??_R3bad_array_new_length@std@@8 000000018002fbc8     LIBCMT:throw_bad_alloc.obj
 0002:0000abe0       ??_R2bad_array_new_length@std@@8 000000018002fbe0     LIBCMT:throw_bad_alloc.obj
 0002:0000ac00       ??_R1A@?0A@EA@bad_array_new_length@std@@8 000000018002fc00     LIBCMT:throw_bad_alloc.obj
 0002:0000ac28       ??_R4type_info@@6B@        000000018002fc28     LIBCMT:std_type_info_static.obj
 0002:0000ac50       ??_R3type_info@@8          000000018002fc50     LIBCMT:std_type_info_static.obj
 0002:0000ac68       ??_R2type_info@@8          000000018002fc68     LIBCMT:std_type_info_static.obj
 0002:0000ac78       ??_R1A@?0A@EA@type_info@@8 000000018002fc78     LIBCMT:std_type_info_static.obj
 0002:0000aca0       ??_R4bad_exception@std@@6B@ 000000018002fca0     libvcruntime:frame.obj
 0002:0000acc8       ??_R3bad_exception@std@@8  000000018002fcc8     libvcruntime:frame.obj
 0002:0000ace0       ??_R2bad_exception@std@@8  000000018002fce0     libvcruntime:frame.obj
 0002:0000acf8       ??_R1A@?0A@EA@bad_exception@std@@8 000000018002fcf8     libvcruntime:frame.obj
 0002:0000ad1c       __volatile_metadata        000000018002fd1c     <linker-defined>
 0002:0000b198       __rtc_iaa                  0000000180030198     LIBCMT:initsect.obj
 0002:0000b1a0       __rtc_izz                  00000001800301a0     LIBCMT:initsect.obj
 0002:0000b1a8       __rtc_taa                  00000001800301a8     LIBCMT:initsect.obj
 0002:0000b1b0       __rtc_tzz                  00000001800301b0     LIBCMT:initsect.obj
 0002:0000b1b8       _tls_start                 00000001800301b8     LIBCMT:tlssup.obj
 0002:0000b1bc       _Init_thread_epoch         00000001800301bc     LIBCMT:thread_safe_statics.obj
 0002:0000b1c0       _tls_end                   00000001800301c0     LIBCMT:tlssup.obj
 0002:0000cae0       _TI2?AVbad_alloc@std@@     0000000180031ae0     LIBCMT:throw_bad_alloc.obj
 0002:0000cb00       _CTA2?AVbad_alloc@std@@    0000000180031b00     LIBCMT:throw_bad_alloc.obj
 0002:0000cb18       _CT??_R0?AVbad_alloc@std@@@8??0bad_alloc@std@@QEAA@AEBV01@@Z24 0000000180031b18     LIBCMT:throw_bad_alloc.obj
 0002:0000cb40       _CT??_R0?AVexception@std@@@8??0exception@std@@QEAA@AEBV01@@Z24 0000000180031b40     LIBCMT:throw_bad_alloc.obj
 0002:0000cb68       _TI3?AVbad_array_new_length@std@@ 0000000180031b68     LIBCMT:throw_bad_alloc.obj
 0002:0000cb88       _CTA3?AVbad_array_new_length@std@@ 0000000180031b88     LIBCMT:throw_bad_alloc.obj
 0002:0000cba8       _CT??_R0?AVbad_array_new_length@std@@@8??0bad_array_new_length@std@@QEAA@AEBV01@@Z24 0000000180031ba8     LIBCMT:throw_bad_alloc.obj
 0002:0000cbd0       _TI2?AVbad_exception@std@@ 0000000180031bd0     libvcruntime:frame.obj
 0002:0000cbf0       _CTA2?AVbad_exception@std@@ 0000000180031bf0     libvcruntime:frame.obj
 0002:0000cc08       _CT??_R0?AVbad_exception@std@@@8??0bad_exception@std@@QEAA@AEBV01@@Z24 0000000180031c08     libvcruntime:frame.obj
 0002:0000cc30       __pobjMapEntryFirst        0000000180031c30     OposVariant.obj
 0002:0000cc38       __pobjMapEntryLast         0000000180031c38     OposVariant.obj
 0002:0000ccec       __IMPORT_DESCRIPTOR_KERNEL32 0000000180031cec     kernel32:KERNEL32.dll
 0002:0000cd00       __IMPORT_DESCRIPTOR_USER32 0000000180031d00     user32:USER32.dll
 0002:0000cd14       __IMPORT_DESCRIPTOR_GDI32  0000000180031d14     gdi32:GDI32.dll
 0002:0000cd28       __IMPORT_DESCRIPTOR_ADVAPI32 0000000180031d28     advapi32:ADVAPI32.dll
 0002:0000cd3c       __IMPORT_DESCRIPTOR_ole32  0000000180031d3c     ole32:ole32.dll
 0002:0000cd50       __IMPORT_DESCRIPTOR_OLEAUT32 0000000180031d50     oleaut32:OLEAUT32.dll
 0002:0000cd64       __NULL_IMPORT_DESCRIPTOR   0000000180031d64     kernel32:KERNEL32.dll
 0003:00000000       ?rcDefault@CWindow@ATL@@2UtagRECT@@A 0000000180034000     CashDrawer.obj
 0003:00000010       ?s_Claim@?7??GetIDsOfNames@CComTypeInfoHolder@ATL@@QEAAJAEBU_GUID@@PEAPEA_WIKPEAJ@Z@4PA_WA 0000000180034010     CashDrawer.obj
 0003:00000028       ?s_Release@?7??GetIDsOfNames@CComTypeInfoHolder@ATL@@QEAAJAEBU_GUID@@PEAPEA_WIKPEAJ@Z@4PA_WA 0000000180034028     CashDrawer.obj
 0003:00000048       ?_tih@?$IDispatchImpl@UIOPOSCashDrawer@@$1?IID_IOPOSCashDrawer@@3U_GUID@@B$1?LIBID_OposCashDrawer_CCO@@3U3@B$00$0A@VCComTypeInfoHolder@ATL@@@ATL@@1VCComTypeInfoHolder@2@A 0000000180034048     CashDrawer.obj
 0003:00000080       ?_tih@?$IProvideClassInfo2Impl@$1?CLSID_OPOSCashDrawer@@3U_GUID@@B$1?DIID__IOPOSCashDrawerEvents@@3U2@B$1?LIBID_OposCashDrawer_CCO@@3U2@B$00$0A@VCComTypeInfoHolder@ATL@@@ATL@@1VCComTypeInfoHolder@2@A 0000000180034080     CashDrawer.obj
 0003:000000b8       ?vszContents@?6??Save@?$IPersistStorageImpl@VCOPOSCashDrawer@@@ATL@@UEAAJPEAUIStorage@@H@Z@4PEB_WEB 00000001800340b8     CashDrawer.obj
 0003:000000c0       ?wc@?1??GetWndClassInfo@?$CWindowImpl@VCOPOSCashDrawer@@VCWindow@ATL@@V?$CWinTraits@$0FGAAAAAA@$0A@@3@@ATL@@SAAEAU_ATL_WNDCLASSINFOW@3@XZ@4U43@A 00000001800340c0     CashDrawer.obj
 0003:00000250       ?g_WindowName@@3PA_WA      0000000180034250     CashDrawerImpl.obj
 0003:00000274       ?g_ControlVersion@@3JA     0000000180034274     CashDrawerImpl.obj
 0003:00000280       ?g_ControlDescription@@3PADA 0000000180034280     CashDrawerImpl.obj
 0003:00000390       __scrt_native_dllmain_reason 0000000180034390     LIBCMT:utility.obj
 0003:00000394       _Init_global_epoch         0000000180034394     LIBCMT:thread_safe_statics.obj
 0003:000003a0       __security_cookie          00000001800343a0     LIBCMT:gs_cookie.obj
 0003:000003a8       __security_cookie_complement 00000001800343a8     LIBCMT:gs_cookie.obj
 0003:000003b0       __isa_available            00000001800343b0     LIBCMT:cpu_disp.obj
 0003:000003b4       __isa_enabled              00000001800343b4     LIBCMT:cpu_disp.obj
 0003:000003b8       __memcpy_nt_iters          00000001800343b8     LIBCMT:cpu_disp.obj
 0003:000003c0       __memset_nt_iters          00000001800343c0     LIBCMT:cpu_disp.obj
 0003:000003e8       __abort_behavior           00000001800343e8     libucrt:abort.obj
 0003:00000400       __acrt_initial_locale_data 0000000180034400     libucrt:nlsdata.obj
 0003:00000558       __acrt_initial_locale_pointers 0000000180034558     libucrt:nlsdata.obj
 0003:00000568       __acrt_wide_c_locale_string 0000000180034568     libucrt:nlsdata.obj
 0003:00000570       _iob                       0000000180034570     libucrt:_file.obj
 0003:00000680       __acrt_initial_multibyte_data 0000000180034680     libucrt:mbctype.obj
 0003:00000bc0       __acrt_lconv_c             0000000180034bc0     libucrt:localeconv.obj
 0003:00000c58       __acrt_lconv_static_decimal 0000000180034c58     libucrt:localeconv.obj
 0003:00000c5c       __acrt_lconv_static_W_decimal 0000000180034c5c     libucrt:localeconv.obj
 0003:00000c60       __globallocalestatus       0000000180034c60     libucrt:glstatus.obj
 0003:00000c70       _lookuptrailbytes          0000000180034c70     libucrt:read.obj
 0003:00000d94       _fltused                   0000000180034d94     LIBCMT:fltused.obj
 0003:00000d98       ??_R0?AVbad_alloc@std@@@8  0000000180034d98     LIBCMT:throw_bad_alloc.obj
 0003:00000dc0       ??_R0?AVexception@std@@@8  0000000180034dc0     LIBCMT:throw_bad_alloc.obj
 0003:00000de8       ??_R0?AVbad_array_new_length@std@@@8 0000000180034de8     LIBCMT:throw_bad_alloc.obj
 0003:00000e18       ??_R0?AVbad_exception@std@@@8 0000000180034e18     libvcruntime:frame.obj
 0003:00000e40       ??_R0?AVtype_info@@@8      0000000180034e40     LIBCMT:std_type_info_static.obj
 0003:00000e60       ?m_bInitFailed@CAtlBaseModule@ATL@@2_NA 0000000180034e60     OposVariant.obj
 0003:00000e68       ?_pPerfRegFunc@ATL@@3P6AJPEAUHINSTANCE__@@@ZEA 0000000180034e68     OposVariant.obj
 0003:00000e70       ?_pPerfUnRegFunc@ATL@@3P6AJXZEA 0000000180034e70     OposVariant.obj
 0003:00000e78       ?_AtlRegisterPerUser@ATL@@3_NA 0000000180034e78     OposVariant.obj
 0003:00000e80       ?_pAtlModule@ATL@@3PEAVCAtlModule@1@EA 0000000180034e80     OposVariant.obj
 0003:00000e88       ?_pModule@ATL@@3PEAVCComModule@1@EA 0000000180034e88     OposVariant.obj
 0003:00000e90       ?_AtlComModule@ATL@@3VCAtlComModule@1@A 0000000180034e90     OposVariant.obj
 0003:00000ee0       ?_AtlWinModule@ATL@@3VCAtlWinModule@1@A 0000000180034ee0     OposVariant.obj
 0003:00000f28       ?m_libid@CAtlModule@ATL@@2U_GUID@@A 0000000180034f28     CashDrawer.obj
 0003:00000f38       ?_entries@?1??GetConnMap@COPOSCashDrawer@@SAPEBU_ATL_CONNMAP_ENTRY@ATL@@PEAH@Z@4QBU34@B 0000000180034f38     CashDrawer.obj
 0003:00000f50       ?$TSS0@?1??GetConnMap@COPOSCashDrawer@@SAPEBU_ATL_CONNMAP_ENTRY@ATL@@PEAH@Z@4HA 0000000180034f50     CashDrawer.obj
 0003:00000f58       ?_OptionsStorage@?1??__local_stdio_printf_options@@9@4_KA 0000000180034f58     CashDrawer.obj
 0003:00000f60       ?pfnRegDeleteKeyEx@?1??DeleteSubKey@CRegKey@ATL@@QEAAJPEB_W@Z@4P6AJPEAUHKEY__@@0KK@ZEA 0000000180034f60     CashDrawer.obj
 0003:00000f68       ?bInitialized@?1??DeleteSubKey@CRegKey@ATL@@QEAAJPEB_W@Z@4_NA 0000000180034f68     CashDrawer.obj
 0003:00000f70       ?_Module@@3VCComModule@ATL@@A 0000000180034f70     CashDrawer.obj
 0003:00000fc0       ?pConnMap@?$IConnectionPointContainerImpl@VCOPOSCashDrawer@@@ATL@@0PEBU_ATL_CONNMAP_ENTRY@2@EB 0000000180034fc0     CashDrawer.obj
 0003:00000fc8       ?s_nInstances@COPOSCashDrawer@@1HA 0000000180034fc8     CashDrawerImpl.obj
 0003:00000fd0       __scrt_current_native_startup_state 0000000180034fd0     LIBCMT:utility.obj
 0003:00000fd8       __scrt_native_startup_lock 0000000180034fd8     LIBCMT:utility.obj
 0003:000015d0       _tls_index                 00000001800355d0     LIBCMT:tlssup.obj
 0003:000015d8       __favor                    00000001800355d8     LIBCMT:cpu_disp.obj
 0003:000015dc       __scrt_debugger_hook_flag  00000001800355dc     LIBCMT:utility_desktop.obj
 0003:000015e0       ?__type_info_root_node@@3U__type_info_node@@A 00000001800355e0     LIBCMT:tncleanup.obj
 0003:000015f0       ?_OptionsStorage@?1??__local_stdio_scanf_options@@9@4_KA 00000001800355f0     LIBCMT:default_local_stdio_options.obj
 0003:00001600       ?_AtlBaseModule@ATL@@3VCAtlBaseModule@1@A 0000000180035600     atls:atlbase.obj
 0003:00001660       ?__AtlThunkPool@@3PEAT_SLIST_HEADER@@EA 0000000180035660     atls:atlthunk.obj
 0003:0000168c       __@@_PchSym_@00@UzABUPdlipUCAUhUrmgvinvwrzgvUexgllohUzgohOmzgrevkilqPBACIAJCBDBUlyqiUznwGEUhgwzucOlyq@4B2008FD98C1DD4 000000018003568c     atls:stdafx.obj
 0003:00001690       ?__WinRTOutOfMemoryExceptionCallback@@3P6APEAXXZEA 0000000180035690     libvcruntime:ehhelpers.obj
 0003:00001698       __pPurecall                0000000180035698     libvcruntime:purevirt_data.obj
 0003:00001750       ?pArgList@UnDecorator@@0PEAVReplicator@@EA 0000000180035750     libvcruntime:undname.obj
 0003:00001758       ?pZNameList@UnDecorator@@0PEAVReplicator@@EA 0000000180035758     libvcruntime:undname.obj
 0003:00001760       ?pTemplateArgList@UnDecorator@@0PEAVReplicator@@EA 0000000180035760     libvcruntime:undname.obj
 0003:00001768       ?gName@UnDecorator@@0PEBDEB 0000000180035768     libvcruntime:undname.obj
 0003:00001770       ?name@UnDecorator@@0PEBDEB 0000000180035770     libvcruntime:undname.obj
 0003:00001778       ?disableFlags@UnDecorator@@0KA 0000000180035778     libvcruntime:undname.obj
 0003:0000177c       ?fExplicitTemplateParams@UnDecorator@@0_NA 000000018003577c     libvcruntime:undname.obj
 0003:0000177d       ?fGetTemplateArgumentList@UnDecorator@@0_NA 000000018003577d     libvcruntime:undname.obj
 0003:00001780       ?m_pGetParameter@UnDecorator@@0P6APEADJ@ZEA 0000000180035780     libvcruntime:undname.obj
 0003:00001788       ?m_CHPENameOffset@UnDecorator@@0KA 0000000180035788     libvcruntime:undname.obj
 0003:0000178c       ?m_recursionLevel@UnDecorator@@0KA 000000018003578c     libvcruntime:undname.obj
 0003:00001810       ?c_exit_complete@?1???R<lambda_6e4b09c48022b2350581041d5f6b0c4c>@@QEBA@XZ@4_NA 0000000180035810     libucrt:exit.obj
 0003:00001928       _environ_table             0000000180035928     libucrt:environment_initialization.obj
 0003:00001930       _wenviron_table            0000000180035930     libucrt:environment_initialization.obj
 0003:00001938       __dcrt_initial_wide_environment 0000000180035938     libucrt:environment_initialization.obj
 0003:00001940       __dcrt_initial_narrow_environment 0000000180035940     libucrt:environment_initialization.obj
 0003:00001948       __acrt_atexit_table        0000000180035948     libucrt:onexit.obj
 0003:00001960       __acrt_at_quick_exit_table 0000000180035960     libucrt:onexit.obj
 0003:00001980       __acrt_locale_changed_data 0000000180035980     libucrt:wsetlocale.obj
 0003:00001988       __acrt_current_locale_data 0000000180035988     libucrt:nlsdata.obj
 0003:00001b28       _nstream                   0000000180035b28     libucrt:_file.obj
 0003:00001b30       __piob                     0000000180035b30     libucrt:_file.obj
 0003:00001b40       __acrt_stdout_buffer       0000000180035b40     libucrt:_sftbuf.obj
 0003:00001b48       __acrt_stderr_buffer       0000000180035b48     libucrt:_sftbuf.obj
 0003:00001b50       __pioinfo                  0000000180035b50     libucrt:ioinit.obj
 0003:00001f50       _nhandle                   0000000180035f50     libucrt:ioinit.obj
 0003:00002198       _mbctype                   0000000180036198     libucrt:mbctype.obj
 0003:000021a0       _mbcasemap                 00000001800361a0     libucrt:mbctype.obj
 0003:000021a8       __acrt_current_multibyte_data 00000001800361a8     libucrt:mbctype.obj
 0003:000021b8       _pgmptr                    00000001800361b8     libucrt:argv_data.obj
 0003:000021c0       __argc                     00000001800361c0     libucrt:argv_data.obj
 0003:000021c8       __argv                     00000001800361c8     libucrt:argv_data.obj
 0003:000021d0       __wargv                    00000001800361d0     libucrt:argv_data.obj
 0003:000021d8       _acmdln                    00000001800361d8     libucrt:argv_data.obj
 0003:000021e0       _wcmdln                    00000001800361e0     libucrt:argv_data.obj
 0003:000021e8       __acrt_heap                00000001800361e8     libucrt:heap_handle.obj
 0003:00002218       __acrt_lconv_static_null   0000000180036218     libucrt:localeconv.obj
 0003:0000221c       __acrt_lconv_static_W_null 000000018003621c     libucrt:localeconv.obj
 0003:00002234       __fma3_is_available        0000000180036234     libucrt:fma3_available.obj
 0003:00002238       __use_fma3_lib             0000000180036238     libucrt:fma3_available.obj
 0003:00002240       __dyn_tls_init_callback    0000000180036240     <common>
 0003:00002248       __scrt_ucrt_dll_is_in_use  0000000180036248     <common>

 entry point at        0001:0000e6e0

 Static symbols

 0000:fffc1000       .debug$S                   0000000180000000     OPOSCashDrawer.exp
 0000:fffc1000       .debug$S                   0000000180000000     advapi32:ADVAPI32.dll
 0000:fffc1000       .debug$S                   0000000180000000     advapi32:ADVAPI32.dll
 0000:fffc1000       .debug$S                   0000000180000000     advapi32:ADVAPI32.dll
 0000:fffc1000       .debug$S                   0000000180000000     advapi32:ADVAPI32.dll
 0000:fffc1000       .debug$S                   0000000180000000     advapi32:ADVAPI32.dll
 0000:fffc1000       .debug$S                   0000000180000000     advapi32:ADVAPI32.dll
 0000:fffc1000       .debug$S                   0000000180000000     advapi32:ADVAPI32.dll
 0000:fffc1000       .debug$S                   0000000180000000     advapi32:ADVAPI32.dll
 0000:fffc1000       .debug$S                   0000000180000000     advapi32:ADVAPI32.dll
 0000:fffc1000       .debug$S                   0000000180000000     gdi32:GDI32.dll
 0000:fffc1000       .debug$S                   0000000180000000     gdi32:GDI32.dll
 0000:fffc1000       .debug$S                   0000000180000000     gdi32:GDI32.dll
 0000:fffc1000       .debug$S                   0000000180000000     gdi32:GDI32.dll
 0000:fffc1000       .debug$S                   0000000180000000     gdi32:GDI32.dll
 0000:fffc1000       .debug$S                   0000000180000000     gdi32:GDI32.dll
 0000:fffc1000       .debug$S                   0000000180000000     gdi32:GDI32.dll
 0000:fffc1000       .debug$S                   0000000180000000     gdi32:GDI32.dll
 0000:fffc1000       .debug$S                   0000000180000000     gdi32:GDI32.dll
 0000:fffc1000       .debug$S                   0000000180000000     gdi32:GDI32.dll
 0000:fffc1000       .debug$S                   0000000180000000     gdi32:GDI32.dll
 0000:fffc1000       .debug$S                   0000000180000000     gdi32:GDI32.dll
 0000:fffc1000       .debug$S                   0000000180000000     gdi32:GDI32.dll
 0000:fffc1000       .debug$S                   0000000180000000     gdi32:GDI32.dll
 0000:fffc1000       .debug$S                   0000000180000000     gdi32:GDI32.dll
 0000:fffc1000       .debug$S                   0000000180000000     gdi32:GDI32.dll
 0000:fffc1000       .debug$S                   0000000180000000     gdi32:GDI32.dll
 0000:fffc1000       .debug$S                   0000000180000000     gdi32:GDI32.dll
 0000:fffc1000       .debug$S                   0000000180000000     gdi32:GDI32.dll
 0000:fffc1000       .debug$S                   0000000180000000     kernel32:KERNEL32.dll
 0000:fffc1000       .debug$S                   0000000180000000     kernel32:KERNEL32.dll
 0000:fffc1000       .debug$S                   0000000180000000     kernel32:KERNEL32.dll
 0000:fffc1000       .debug$S                   0000000180000000     kernel32:KERNEL32.dll
 0000:fffc1000       .debug$S                   0000000180000000     kernel32:KERNEL32.dll
 0000:fffc1000       .debug$S                   0000000180000000     kernel32:KERNEL32.dll
 0000:fffc1000       .debug$S                   0000000180000000     kernel32:KERNEL32.dll
 0000:fffc1000       .debug$S                   0000000180000000     kernel32:KERNEL32.dll
 0000:fffc1000       .debug$S                   0000000180000000     kernel32:KERNEL32.dll
 0000:fffc1000       .debug$S                   0000000180000000     kernel32:KERNEL32.dll
 0000:fffc1000       .debug$S                   0000000180000000     kernel32:KERNEL32.dll
 0000:fffc1000       .debug$S                   0000000180000000     kernel32:KERNEL32.dll
 0000:fffc1000       .debug$S                   0000000180000000     kernel32:KERNEL32.dll
 0000:fffc1000       .debug$S                   0000000180000000     kernel32:KERNEL32.dll
 0000:fffc1000       .debug$S                   0000000180000000     kernel32:KERNEL32.dll
 0000:fffc1000       .debug$S                   0000000180000000     kernel32:KERNEL32.dll
 0000:fffc1000       .debug$S                   0000000180000000     kernel32:KERNEL32.dll
 0000:fffc1000       .debug$S                   0000000180000000     kernel32:KERNEL32.dll
 0000:fffc1000       .debug$S                   0000000180000000     kernel32:KERNEL32.dll
 0000:fffc1000       .debug$S                   0000000180000000     kernel32:KERNEL32.dll
 0000:fffc1000       .debug$S                   0000000180000000     kernel32:KERNEL32.dll
 0000:fffc1000       .debug$S                   0000000180000000     kernel32:KERNEL32.dll
 0000:fffc1000       .debug$S                   0000000180000000     kernel32:KERNEL32.dll
 0000:fffc1000       .debug$S                   0000000180000000     kernel32:KERNEL32.dll
 0000:fffc1000       .debug$S                   0000000180000000     kernel32:KERNEL32.dll
 0000:fffc1000       .debug$S                   0000000180000000     kernel32:KERNEL32.dll
 0000:fffc1000       .debug$S                   0000000180000000     kernel32:KERNEL32.dll
 0000:fffc1000       .debug$S                   0000000180000000     kernel32:KERNEL32.dll
 0000:fffc1000       .debug$S                   0000000180000000     kernel32:KERNEL32.dll
 0000:fffc1000       .debug$S                   0000000180000000     kernel32:KERNEL32.dll
 0000:fffc1000       .debug$S                   0000000180000000     kernel32:KERNEL32.dll
 0000:fffc1000       .debug$S                   0000000180000000     kernel32:KERNEL32.dll
 0000:fffc1000       .debug$S                   0000000180000000     kernel32:KERNEL32.dll
 0000:fffc1000       .debug$S                   0000000180000000     kernel32:KERNEL32.dll
 0000:fffc1000       .debug$S                   0000000180000000     kernel32:KERNEL32.dll
 0000:fffc1000       .debug$S                   0000000180000000     kernel32:KERNEL32.dll
 0000:fffc1000       .debug$S                   0000000180000000     kernel32:KERNEL32.dll
 0000:fffc1000       .debug$S                   0000000180000000     kernel32:KERNEL32.dll
 0000:fffc1000       .debug$S                   0000000180000000     kernel32:KERNEL32.dll
 0000:fffc1000       .debug$S                   0000000180000000     kernel32:KERNEL32.dll
 0000:fffc1000       .debug$S                   0000000180000000     kernel32:KERNEL32.dll
 0000:fffc1000       .debug$S                   0000000180000000     kernel32:KERNEL32.dll
 0000:fffc1000       .debug$S                   0000000180000000     kernel32:KERNEL32.dll
 0000:fffc1000       .debug$S                   0000000180000000     kernel32:KERNEL32.dll
 0000:fffc1000       .debug$S                   0000000180000000     kernel32:KERNEL32.dll
 0000:fffc1000       .debug$S                   0000000180000000     kernel32:KERNEL32.dll
 0000:fffc1000       .debug$S                   0000000180000000     kernel32:KERNEL32.dll
 0000:fffc1000       .debug$S                   0000000180000000     kernel32:KERNEL32.dll
 0000:fffc1000       .debug$S                   0000000180000000     kernel32:KERNEL32.dll
 0000:fffc1000       .debug$S                   0000000180000000     kernel32:KERNEL32.dll
 0000:fffc1000       .debug$S                   0000000180000000     kernel32:KERNEL32.dll
 0000:fffc1000       .debug$S                   0000000180000000     kernel32:KERNEL32.dll
 0000:fffc1000       .debug$S                   0000000180000000     kernel32:KERNEL32.dll
 0000:fffc1000       .debug$S                   0000000180000000     kernel32:KERNEL32.dll
 0000:fffc1000       .debug$S                   0000000180000000     kernel32:KERNEL32.dll
 0000:fffc1000       .debug$S                   0000000180000000     kernel32:KERNEL32.dll
 0000:fffc1000       .debug$S                   0000000180000000     kernel32:KERNEL32.dll
 0000:fffc1000       .debug$S                   0000000180000000     kernel32:KERNEL32.dll
 0000:fffc1000       .debug$S                   0000000180000000     kernel32:KERNEL32.dll
 0000:fffc1000       .debug$S                   0000000180000000     kernel32:KERNEL32.dll
 0000:fffc1000       .debug$S                   0000000180000000     kernel32:KERNEL32.dll
 0000:fffc1000       .debug$S                   0000000180000000     kernel32:KERNEL32.dll
 0000:fffc1000       .debug$S                   0000000180000000     kernel32:KERNEL32.dll
 0000:fffc1000       .debug$S                   0000000180000000     kernel32:KERNEL32.dll
 0000:fffc1000       .debug$S                   0000000180000000     kernel32:KERNEL32.dll
 0000:fffc1000       .debug$S                   0000000180000000     kernel32:KERNEL32.dll
 0000:fffc1000       .debug$S                   0000000180000000     kernel32:KERNEL32.dll
 0000:fffc1000       .debug$S                   0000000180000000     kernel32:KERNEL32.dll
 0000:fffc1000       .debug$S                   0000000180000000     kernel32:KERNEL32.dll
 0000:fffc1000       .debug$S                   0000000180000000     kernel32:KERNEL32.dll
 0000:fffc1000       .debug$S                   0000000180000000     kernel32:KERNEL32.dll
 0000:fffc1000       .debug$S                   0000000180000000     kernel32:KERNEL32.dll
 0000:fffc1000       .debug$S                   0000000180000000     kernel32:KERNEL32.dll
 0000:fffc1000       .debug$S                   0000000180000000     kernel32:KERNEL32.dll
 0000:fffc1000       .debug$S                   0000000180000000     kernel32:KERNEL32.dll
 0000:fffc1000       .debug$S                   0000000180000000     kernel32:KERNEL32.dll
 0000:fffc1000       .debug$S                   0000000180000000     kernel32:KERNEL32.dll
 0000:fffc1000       .debug$S                   0000000180000000     kernel32:KERNEL32.dll
 0000:fffc1000       .debug$S                   0000000180000000     kernel32:KERNEL32.dll
 0000:fffc1000       .debug$S                   0000000180000000     kernel32:KERNEL32.dll
 0000:fffc1000       .debug$S                   0000000180000000     kernel32:KERNEL32.dll
 0000:fffc1000       .debug$S                   0000000180000000     kernel32:KERNEL32.dll
 0000:fffc1000       .debug$S                   0000000180000000     kernel32:KERNEL32.dll
 0000:fffc1000       .debug$S                   0000000180000000     kernel32:KERNEL32.dll
 0000:fffc1000       .debug$S                   0000000180000000     kernel32:KERNEL32.dll
 0000:fffc1000       .debug$S                   0000000180000000     kernel32:KERNEL32.dll
 0000:fffc1000       .debug$S                   0000000180000000     kernel32:KERNEL32.dll
 0000:fffc1000       .debug$S                   0000000180000000     kernel32:KERNEL32.dll
 0000:fffc1000       .debug$S                   0000000180000000     kernel32:KERNEL32.dll
 0000:fffc1000       .debug$S                   0000000180000000     kernel32:KERNEL32.dll
 0000:fffc1000       .debug$S                   0000000180000000     kernel32:KERNEL32.dll
 0000:fffc1000       .debug$S                   0000000180000000     kernel32:KERNEL32.dll
 0000:fffc1000       .debug$S                   0000000180000000     kernel32:KERNEL32.dll
 0000:fffc1000       .debug$S                   0000000180000000     kernel32:KERNEL32.dll
 0000:fffc1000       .debug$S                   0000000180000000     kernel32:KERNEL32.dll
 0000:fffc1000       .debug$S                   0000000180000000     kernel32:KERNEL32.dll
 0000:fffc1000       .debug$S                   0000000180000000     kernel32:KERNEL32.dll
 0000:fffc1000       .debug$S                   0000000180000000     kernel32:KERNEL32.dll
 0000:fffc1000       .debug$S                   0000000180000000     kernel32:KERNEL32.dll
 0000:fffc1000       .debug$S                   0000000180000000     kernel32:KERNEL32.dll
 0000:fffc1000       .debug$S                   0000000180000000     kernel32:KERNEL32.dll
 0000:fffc1000       .debug$S                   0000000180000000     kernel32:KERNEL32.dll
 0000:fffc1000       .debug$S                   0000000180000000     kernel32:KERNEL32.dll
 0000:fffc1000       .debug$S                   0000000180000000     kernel32:KERNEL32.dll
 0000:fffc1000       .debug$S                   0000000180000000     kernel32:KERNEL32.dll
 0000:fffc1000       .debug$S                   0000000180000000     kernel32:KERNEL32.dll
 0000:fffc1000       .debug$S                   0000000180000000     kernel32:KERNEL32.dll
 0000:fffc1000       .debug$S                   0000000180000000     kernel32:KERNEL32.dll
 0000:fffc1000       .debug$S                   0000000180000000     kernel32:KERNEL32.dll
 0000:fffc1000       .debug$S                   0000000180000000     kernel32:KERNEL32.dll
 0000:fffc1000       .debug$S                   0000000180000000     kernel32:KERNEL32.dll
 0000:fffc1000       .debug$S                   0000000180000000     kernel32:KERNEL32.dll
 0000:fffc1000       .debug$S                   0000000180000000     kernel32:KERNEL32.dll
 0000:fffc1000       .debug$S                   0000000180000000     kernel32:KERNEL32.dll
 0000:fffc1000       .debug$S                   0000000180000000     kernel32:KERNEL32.dll
 0000:fffc1000       .debug$S                   0000000180000000     ole32:ole32.dll
 0000:fffc1000       .debug$S                   0000000180000000     ole32:ole32.dll
 0000:fffc1000       .debug$S                   0000000180000000     ole32:ole32.dll
 0000:fffc1000       .debug$S                   0000000180000000     ole32:ole32.dll
 0000:fffc1000       .debug$S                   0000000180000000     ole32:ole32.dll
 0000:fffc1000       .debug$S                   0000000180000000     ole32:ole32.dll
 0000:fffc1000       .debug$S                   0000000180000000     ole32:ole32.dll
 0000:fffc1000       .debug$S                   0000000180000000     ole32:ole32.dll
 0000:fffc1000       .debug$S                   0000000180000000     ole32:ole32.dll
 0000:fffc1000       .debug$S                   0000000180000000     ole32:ole32.dll
 0000:fffc1000       .debug$S                   0000000180000000     ole32:ole32.dll
 0000:fffc1000       .debug$S                   0000000180000000     ole32:ole32.dll
 0000:fffc1000       .debug$S                   0000000180000000     ole32:ole32.dll
 0000:fffc1000       .debug$S                   0000000180000000     ole32:ole32.dll
 0000:fffc1000       .debug$S                   0000000180000000     oleaut32:OLEAUT32.dll
 0000:fffc1000       .debug$S                   0000000180000000     oleaut32:OLEAUT32.dll
 0000:fffc1000       .debug$S                   0000000180000000     oleaut32:OLEAUT32.dll
 0000:fffc1000       .debug$S                   0000000180000000     oleaut32:OLEAUT32.dll
 0000:fffc1000       .debug$S                   0000000180000000     oleaut32:OLEAUT32.dll
 0000:fffc1000       .debug$S                   0000000180000000     oleaut32:OLEAUT32.dll
 0000:fffc1000       .debug$S                   0000000180000000     oleaut32:OLEAUT32.dll
 0000:fffc1000       .debug$S                   0000000180000000     oleaut32:OLEAUT32.dll
 0000:fffc1000       .debug$S                   0000000180000000     oleaut32:OLEAUT32.dll
 0000:fffc1000       .debug$S                   0000000180000000     oleaut32:OLEAUT32.dll
 0000:fffc1000       .debug$S                   0000000180000000     oleaut32:OLEAUT32.dll
 0000:fffc1000       .debug$S                   0000000180000000     oleaut32:OLEAUT32.dll
 0000:fffc1000       .debug$S                   0000000180000000     oleaut32:OLEAUT32.dll
 0000:fffc1000       .debug$S                   0000000180000000     oleaut32:OLEAUT32.dll
 0000:fffc1000       .debug$S                   0000000180000000     oleaut32:OLEAUT32.dll
 0000:fffc1000       .debug$S                   0000000180000000     oleaut32:OLEAUT32.dll
 0000:fffc1000       .debug$S                   0000000180000000     user32:USER32.dll
 0000:fffc1000       .debug$S                   0000000180000000     user32:USER32.dll
 0000:fffc1000       .debug$S                   0000000180000000     user32:USER32.dll
 0000:fffc1000       .debug$S                   0000000180000000     user32:USER32.dll
 0000:fffc1000       .debug$S                   0000000180000000     user32:USER32.dll
 0000:fffc1000       .debug$S                   0000000180000000     user32:USER32.dll
 0000:fffc1000       .debug$S                   0000000180000000     user32:USER32.dll
 0000:fffc1000       .debug$S                   0000000180000000     user32:USER32.dll
 0000:fffc1000       .debug$S                   0000000180000000     user32:USER32.dll
 0000:fffc1000       .debug$S                   0000000180000000     user32:USER32.dll
 0000:fffc1000       .debug$S                   0000000180000000     user32:USER32.dll
 0000:fffc1000       .debug$S                   0000000180000000     user32:USER32.dll
 0000:fffc1000       .debug$S                   0000000180000000     user32:USER32.dll
 0000:fffc1000       .debug$S                   0000000180000000     user32:USER32.dll
 0000:fffc1000       .debug$S                   0000000180000000     user32:USER32.dll
 0000:fffc1000       .debug$S                   0000000180000000     user32:USER32.dll
 0000:fffc1000       .debug$S                   0000000180000000     user32:USER32.dll
 0000:fffc1000       .debug$S                   0000000180000000     user32:USER32.dll
 0000:fffc1000       .debug$S                   0000000180000000     user32:USER32.dll
 0000:fffc1000       .debug$S                   0000000180000000     user32:USER32.dll
 0000:fffc1000       .debug$S                   0000000180000000     user32:USER32.dll
 0000:fffc1000       .debug$S                   0000000180000000     user32:USER32.dll
 0000:fffc1000       .debug$S                   0000000180000000     user32:USER32.dll
 0000:fffc1000       .debug$S                   0000000180000000     user32:USER32.dll
 0000:fffc1000       .debug$S                   0000000180000000     user32:USER32.dll
 0000:fffc1000       .debug$S                   0000000180000000     user32:USER32.dll
 0000:fffc1000       .debug$S                   0000000180000000     user32:USER32.dll
 0000:fffc1000       .debug$S                   0000000180000000     user32:USER32.dll
 0000:fffc1000       .debug$S                   0000000180000000     user32:USER32.dll
 0000:fffc1000       .debug$S                   0000000180000000     user32:USER32.dll
 0000:fffc1000       .debug$S                   0000000180000000     user32:USER32.dll
 0000:fffc1000       .debug$S                   0000000180000000     user32:USER32.dll
 0000:fffc1000       .debug$S                   0000000180000000     user32:USER32.dll
 0000:fffc1000       .debug$S                   0000000180000000     user32:USER32.dll
 0000:fffc1000       .debug$S                   0000000180000000     user32:USER32.dll
 0001:00000000       ??__E_AtlComModule@ATL@@YAXXZ 0000000180001000 f   OposVariant.obj
 0001:00000020       ??__E_AtlWinModule@ATL@@YAXXZ 0000000180001020 f   OposVariant.obj
 0001:00000040       ??__E?pConnMap@?$IConnectionPointContainerImpl@VCOPOSCashDrawer@@@ATL@@0PEBU_ATL_CONNMAP_ENTRY@2@EB@@YAXXZ 0000000180001040 f   CashDrawer.obj
 0001:00000058       ??__E_Module@@YAXXZ        0000000180001058 f   CashDrawer.obj
 0001:00000094       ??__E_AtlBaseModule@ATL@@YAXXZ 0000000180001094 f   atls:atlbase.obj
 0001:0000dd00       ?__scrt_initialize_thread_safe_statics@@YAHXZ 000000018000ed00 f   LIBCMT:thread_safe_statics.obj
 0001:0000ddd0       ?__scrt_uninitialize_thread_safe_statics@@YAXXZ 000000018000edd0 f   LIBCMT:thread_safe_statics.obj
 0001:0000e120       capture_current_context    000000018000f120 f   LIBCMT:gs_report.obj
 0001:0000e190       capture_previous_context   000000018000f190 f   LIBCMT:gs_report.obj
 0001:0000e330       $$000000                   000000018000f330     LIBCMT:chkstk.obj
 0001:0000e390       $$000000                   000000018000f390     LIBCMT:amdsecgs.obj
 0001:0000e3c0       ?dllmain_crt_dispatch@@YAHQEAUHINSTANCE__@@KQEAX@Z 000000018000f3c0 f   LIBCMT:dll_dllmain.obj
 0001:0000e410       ?dllmain_crt_process_attach@@YAHQEAUHINSTANCE__@@QEAX@Z 000000018000f410 f   LIBCMT:dll_dllmain.obj
 0001:0000e528       ?dllmain_crt_process_detach@@YAH_N@Z 000000018000f528 f   LIBCMT:dll_dllmain.obj
 0001:0000e5ac       ?dllmain_dispatch@@YAHQEAUHINSTANCE__@@KQEAX@Z 000000018000f5ac f   LIBCMT:dll_dllmain.obj
 0001:0000ee78       ??$GetProcAddressAll@P6AP6A_JPEAUHWND__@@I_K_J@ZPEAUAtlThunkData_t@@@Z@@YAP6AP6A_JPEAUHWND__@@I_K_J@ZPEAUAtlThunkData_t@@@ZPEAP6AP6A_J0I12@Z3@Z@Z 000000018000fe78 f   atls:atlthunk.obj
 0001:0000ee78       ??$GetProcAddressAll@P6APEAUAtlThunkData_t@@XZ@@YAP6APEAUAtlThunkData_t@@XZPEAP6APEAU0@XZ@Z 000000018000fe78 f   atls:atlthunk.obj
 0001:0000ee78       ??$GetProcAddressAll@P6AXPEAUAtlThunkData_t@@@Z@@YAP6AXPEAUAtlThunkData_t@@@ZPEAP6AX0@Z@Z 000000018000fe78 f   atls:atlthunk.obj
 0001:0000ee78       ??$GetProcAddressAll@P6AXPEAUAtlThunkData_t@@PEAX_K@Z@@YAP6AXPEAUAtlThunkData_t@@PEAX_K@ZPEAP6AX012@Z@Z 000000018000fe78 f   atls:atlthunk.obj
 0001:0000f050       ?__InitializeThunkPool@@YAHXZ 0000000180010050 f   atls:atlthunk.obj
 0001:0000f4f0       $$000000                   00000001800104f0     libvcruntime:memcmp.obj
 0001:0000f5d0       $$000000                   00000001800105d0     libvcruntime:memcpy.obj
 0001:0000fc80       $$000000                   0000000180010c80     libvcruntime:memset.obj
 0001:00011290       $$000000                   0000000180012290     libvcruntime:notify.obj
 0001:00011510       ??$BuildCatchObjectHelperInternal@V__FrameHandler3@@@@YAHPEAUEHExceptionRecord@@PEAXPEBU_s_HandlerType@@PEBU_s_CatchableType@@@Z 0000000180012510 f   libvcruntime:frame.obj
 0001:00011710       ??$BuildCatchObjectHelperInternal@V__FrameHandler4@@@@YAHPEAUEHExceptionRecord@@PEAXPEAUHandlerType4@FH4@@PEBU_s_CatchableType@@@Z 0000000180012710 f   libvcruntime:frame.obj
 0001:00011914       ??$BuildCatchObjectInternal@V__FrameHandler3@@@@YAXPEAUEHExceptionRecord@@PEAXPEBU_s_HandlerType@@PEBU_s_CatchableType@@@Z 0000000180012914 f   libvcruntime:frame.obj
 0001:000119d4       ??$BuildCatchObjectInternal@V__FrameHandler4@@@@YAXPEAUEHExceptionRecord@@PEAXPEAUHandlerType4@FH4@@PEBU_s_CatchableType@@@Z 00000001800129d4 f   libvcruntime:frame.obj
 0001:00011a98       ??$CatchIt@V__FrameHandler3@@@@YAXPEAUEHExceptionRecord@@PEA_KPEAU_CONTEXT@@PEAU_xDISPATCHER_CONTEXT@@PEBU_s_FuncInfo@@PEBU_s_HandlerType@@PEBU_s_CatchableType@@PEBU_s_TryBlockMapEntry@@H1EE@Z 0000000180012a98 f   libvcruntime:frame.obj
 0001:00011b6c       ??$CatchIt@V__FrameHandler4@@@@YAXPEAUEHExceptionRecord@@PEA_KPEAU_CONTEXT@@PEAU_xDISPATCHER_CONTEXT@@PEAUFuncInfo4@FH4@@PEAUHandlerType4@4@PEBU_s_CatchableType@@PEAUTryBlockMapEntry4@4@H1EE@Z 0000000180012b6c f   libvcruntime:frame.obj
 0001:00011c40       ??$FindHandler@V__FrameHandler3@@@@YAXPEAUEHExceptionRecord@@PEA_KPEAU_CONTEXT@@PEAU_xDISPATCHER_CONTEXT@@PEBU_s_FuncInfo@@EH1@Z 0000000180012c40 f   libvcruntime:frame.obj
 0001:00012118       ??$FindHandler@V__FrameHandler4@@@@YAXPEAUEHExceptionRecord@@PEA_KPEAU_CONTEXT@@PEAU_xDISPATCHER_CONTEXT@@PEAUFuncInfo4@FH4@@EH1@Z 0000000180013118 f   libvcruntime:frame.obj
 0001:00012614       ??$FindHandlerForForeignException@V__FrameHandler3@@@@YAXPEAUEHExceptionRecord@@PEA_KPEAU_CONTEXT@@PEAU_xDISPATCHER_CONTEXT@@PEBU_s_FuncInfo@@HH1@Z 0000000180013614 f   libvcruntime:frame.obj
 0001:00012830       ??$FindHandlerForForeignException@V__FrameHandler4@@@@YAXPEAUEHExceptionRecord@@PEA_KPEAU_CONTEXT@@PEAU_xDISPATCHER_CONTEXT@@PEAUFuncInfo4@FH4@@HH1@Z 0000000180013830 f   libvcruntime:frame.obj
 0001:000139f0       ?ExFilterRethrow@@YAHPEAU_EXCEPTION_POINTERS@@PEAUEHExceptionRecord@@PEAH@Z 00000001800149f0 f   libvcruntime:frame.obj
 0001:00013a78       ?ExFilterRethrowFH4@@YAHPEAU_EXCEPTION_POINTERS@@PEAUEHExceptionRecord@@HPEAH@Z 0000000180014a78 f   libvcruntime:frame.obj
 0001:00013fc8       ?IsInExceptionSpec@@YAEPEAUEHExceptionRecord@@PEBU_s_ESTypeList@@@Z 0000000180014fc8 f   libvcruntime:frame.obj
 0001:000140b8       ?Is_bad_exception_allowed@@YAEPEBU_s_ESTypeList@@@Z 00000001800150b8 f   libvcruntime:frame.obj
 0001:00014394       ?try_get_function@@YAPEAXW4function_id@?A0xbc0cc709@@QEBDQEBW4module_id@2@2@Z 0000000180015394 f   libvcruntime:winapi_downlevel.obj
 0001:00014680       $$000000                   0000000180015680     libvcruntime:handlers.obj
 0001:000150ac       ??$common_vsprintf@Vformat_validation_base@__crt_stdio_output@@_W@@YAH_KQEA_W0QEB_WAEAV__crt_cached_ptd_host@@QEAD@Z 00000001800160ac f   libucrt:output.obj
 0001:000177fc       ??$?RV<lambda_d80eeec6fff315bfe5c115232f3240e3>@@AEAV<lambda_6e4b09c48022b2350581041d5f6b0c4c>@@V<lambda_2358e3775559c9db80273638284d5e45>@@@?$__crt_seh_guarded_call@X@@QEAAX$$QEAV<lambda_d80eeec6fff315bfe5c115232f3240e3>@@AEAV<lambda_6e4b09c48022b2350581041d5f6b0c4c>@@$$QEAV<lambda_2358e3775559c9db80273638284d5e45>@@@Z 00000001800187fc f   libucrt:exit.obj
 0001:00017834       ??R<lambda_6e4b09c48022b2350581041d5f6b0c4c>@@QEBA@XZ 0000000180018834 f   libucrt:exit.obj
 0001:00017900       ?common_exit@@YAXHW4_crt_exit_cleanup_mode@@W4_crt_exit_return_mode@@@Z 0000000180018900 f   libucrt:exit.obj
 0001:000179c8       ?exit_or_terminate_process@@YAXI@Z 00000001800189c8 f   libucrt:exit.obj
 0001:000179fc       ?should_call_terminate_process@@YA_NXZ 00000001800189fc f   libucrt:exit.obj
 0001:00017a2c       ?try_cor_exit_process@@YAXI@Z 0000000180018a2c f   libucrt:exit.obj
 0001:00017ac8       ??$parse_command_line@D@@YAXPEADPEAPEAD0PEA_K2@Z 0000000180018ac8 f   libucrt:argv_parsing.obj
 0001:00017e70       ??$common_initialize_environment_nolock@D@@YAHXZ 0000000180018e70 f   libucrt:environment_initialization.obj
 0001:00017ee4       ??$create_environment@D@@YAQEAPEADQEAD@Z 0000000180018ee4 f   libucrt:environment_initialization.obj
 0001:00017ff4       ??$free_environment@D@@YAXQEAPEAD@Z 0000000180018ff4 f   libucrt:environment_initialization.obj
 0001:00017ff4       ??$free_environment@_W@@YAXQEAPEA_W@Z 0000000180018ff4 f   libucrt:environment_initialization.obj
 0001:00018038       ??$uninitialize_environment_internal@D@@YAXAEAPEAPEAD@Z 0000000180019038 f   libucrt:environment_initialization.obj
 0001:00018054       ??$uninitialize_environment_internal@_W@@YAXAEAPEAPEA_W@Z 0000000180019054 f   libucrt:environment_initialization.obj
 0001:000180bc       ??$?RV<lambda_638799b9deba96c50f710eeac98168cd>@@AEAV<lambda_22ebabd17bc4fa466a2aca6d8deb888d>@@V<lambda_a6f7d7db0129f75315ebf26d50c089f1>@@@?$__crt_seh_guarded_call@H@@QEAAH$$QEAV<lambda_638799b9deba96c50f710eeac98168cd>@@AEAV<lambda_22ebabd17bc4fa466a2aca6d8deb888d>@@$$QEAV<lambda_a6f7d7db0129f75315ebf26d50c089f1>@@@Z 00000001800190bc f   libucrt:onexit.obj
 0001:000180f8       ??$?RV<lambda_7777bce6b2f8c936911f934f8298dc43>@@AEAV<lambda_f03950bc5685219e0bcd2087efbe011e>@@V<lambda_3883c3dff614d5e0c5f61bb1ac94921c>@@@?$__crt_seh_guarded_call@H@@QEAAH$$QEAV<lambda_7777bce6b2f8c936911f934f8298dc43>@@AEAV<lambda_f03950bc5685219e0bcd2087efbe011e>@@$$QEAV<lambda_3883c3dff614d5e0c5f61bb1ac94921c>@@@Z 00000001800190f8 f   libucrt:onexit.obj
 0001:00018134       ??R<lambda_22ebabd17bc4fa466a2aca6d8deb888d>@@QEBAHXZ 0000000180019134 f   libucrt:onexit.obj
 0001:000182e4       ??R<lambda_f03950bc5685219e0bcd2087efbe011e>@@QEBAHXZ 00000001800192e4 f   libucrt:onexit.obj
 0001:000184c8       initialize_global_variables 00000001800194c8 f   libucrt:initialization.obj
 0001:000184dc       initialize_c               00000001800194dc f   libucrt:initialization.obj
 0001:00018500       initialize_environment     0000000180019500 f   libucrt:initialization.obj
 0001:00018500       initialize_global_state_isolation 0000000180019500 f   libucrt:initialization.obj
 0001:00018500       report_memory_leaks        0000000180019500 f   libucrt:initialization.obj
 0001:00018500       uninitialize_c             0000000180019500 f   libucrt:initialization.obj
 0001:00018500       uninitialize_global_state_isolation 0000000180019500 f   libucrt:initialization.obj
 0001:00018504       uninitialize_environment   0000000180019504 f   libucrt:initialization.obj
 0001:00018514       initialize_pointers        0000000180019514 f   libucrt:initialization.obj
 0001:00018554       uninitialize_vcruntime     0000000180019554 f   libucrt:initialization.obj
 0001:0001855c       uninitialize_allocated_memory 000000018001955c f   libucrt:initialization.obj
 0001:0001859c       uninitialize_allocated_io_buffers 000000018001959c f   libucrt:initialization.obj
 0001:00018860       $$000000                   0000000180019860     libucrt:strncmp.obj
 0001:00018958       ??$?RV<lambda_0ae27a3a962d80f24befdcbee591983d>@@AEAV<lambda_8d0ee55de4b1038c4002e0adecdf1839>@@V<lambda_dc504788e8f1664fe9b84e20bfb512f2>@@@?$__crt_seh_guarded_call@X@@QEAAX$$QEAV<lambda_0ae27a3a962d80f24befdcbee591983d>@@AEAV<lambda_8d0ee55de4b1038c4002e0adecdf1839>@@$$QEAV<lambda_dc504788e8f1664fe9b84e20bfb512f2>@@@Z 0000000180019958 f   libucrt:per_thread_data.obj
 0001:00018998       ??$?RV<lambda_2d41944a1d46af3157314b8a01080d33>@@AEAV<lambda_8f455de75cd7d7f24b4096f044d8b9e6>@@V<lambda_aa500f224e6afead328df44964fe2772>@@@?$__crt_seh_guarded_call@X@@QEAAX$$QEAV<lambda_2d41944a1d46af3157314b8a01080d33>@@AEAV<lambda_8f455de75cd7d7f24b4096f044d8b9e6>@@$$QEAV<lambda_aa500f224e6afead328df44964fe2772>@@@Z 0000000180019998 f   libucrt:per_thread_data.obj
 0001:000189d8       ??$?RV<lambda_aa87e3671a710a21b5dc78c0bdf72e11>@@AEAV<lambda_92619d2358a28f41a33ba319515a20b9>@@V<lambda_6992ecaafeb10aed2b74cb1fae11a551>@@@?$__crt_seh_guarded_call@X@@QEAAX$$QEAV<lambda_aa87e3671a710a21b5dc78c0bdf72e11>@@AEAV<lambda_92619d2358a28f41a33ba319515a20b9>@@$$QEAV<lambda_6992ecaafeb10aed2b74cb1fae11a551>@@@Z 00000001800199d8 f   libucrt:per_thread_data.obj
 0001:00018a20       ??$?RV<lambda_f2e299630e499de9f9a165e60fcd3db5>@@AEAV<lambda_2ae9d31cdba2644fcbeaf08da7c24588>@@V<lambda_40d01ff24d0e7b3814fdbdcee8eab3c7>@@@?$__crt_seh_guarded_call@X@@QEAAX$$QEAV<lambda_f2e299630e499de9f9a165e60fcd3db5>@@AEAV<lambda_2ae9d31cdba2644fcbeaf08da7c24588>@@$$QEAV<lambda_40d01ff24d0e7b3814fdbdcee8eab3c7>@@@Z 0000000180019a20 f   libucrt:per_thread_data.obj
 0001:00018a80       ?construct_ptd_array@@YAXQEAU__acrt_ptd@@@Z 0000000180019a80 f   libucrt:per_thread_data.obj
 0001:00018b50       ?destroy_fls@@YAXPEAX@Z    0000000180019b50 f   libucrt:per_thread_data.obj
 0001:00018b70       ?destroy_ptd_array@@YAXQEAU__acrt_ptd@@@Z 0000000180019b70 f   libucrt:per_thread_data.obj
 0001:00018c68       ?replace_current_thread_locale_nolock@@YAXQEAU__acrt_ptd@@QEAU__crt_locale_data@@@Z 0000000180019c68 f   libucrt:per_thread_data.obj
 0001:00019074       ??$?RV<lambda_410d79af7f07d98d83a3f525b3859a53>@@AEAV<lambda_3e16ef9562a7dcce91392c22ab16ea36>@@V<lambda_38119f0e861e05405d8a144b9b982f0a>@@@?$__crt_seh_guarded_call@X@@QEAAX$$QEAV<lambda_410d79af7f07d98d83a3f525b3859a53>@@AEAV<lambda_3e16ef9562a7dcce91392c22ab16ea36>@@$$QEAV<lambda_38119f0e861e05405d8a144b9b982f0a>@@@Z 000000018001a074 f   libucrt:wsetlocale.obj
 0001:000192b0       ?try_get_function@@YAPEAXW4function_id@?A0x391cf84c@@QEBDQEBW4module_id@2@2@Z 000000018001a2b0 f   libucrt:winapi_thunks.obj
 0001:00019a4c       ?fp_format_a@@YAHQEBNPEAD_KQEAD2H_NIW4__acrt_rounding_mode@@AEAV__crt_cached_ptd_host@@@Z 000000018001aa4c f   libucrt:cvt.obj
 0001:00019e00       ?fp_format_e@@YAHQEBNQEAD_K12H_NIW4__acrt_rounding_mode@@AEAV__crt_cached_ptd_host@@@Z 000000018001ae00 f   libucrt:cvt.obj
 0001:00019efc       ?fp_format_e_internal@@YAHQEAD_KH_NIQEAU_strflt@@2AEAV__crt_cached_ptd_host@@@Z 000000018001aefc f   libucrt:cvt.obj
 0001:0001a0e0       ?fp_format_f@@YAHQEBNQEAD_K12HW4__acrt_rounding_mode@@AEAV__crt_cached_ptd_host@@@Z 000000018001b0e0 f   libucrt:cvt.obj
 0001:0001a1b8       ?fp_format_f_internal@@YAHQEAD_KHQEAU_strflt@@_NAEAV__crt_cached_ptd_host@@@Z 000000018001b1b8 f   libucrt:cvt.obj
 0001:0001a310       ?fp_format_g@@YAHQEBNQEAD_K12H_NIW4__acrt_rounding_mode@@AEAV__crt_cached_ptd_host@@@Z 000000018001b310 f   libucrt:cvt.obj
 0001:0001a464       ?should_round_up@@YA_NQEBN_KFW4__acrt_rounding_mode@@@Z 000000018001b464 f   libucrt:cvt.obj
 0001:0001abb0       ?initialize_inherited_file_handles_nolock@@YAXXZ 000000018001bbb0 f   libucrt:ioinit.obj
 0001:0001aca0       ?initialize_stdio_handles_nolock@@YAXXZ 000000018001bca0 f   libucrt:ioinit.obj
 0001:0001af18       ?<lambda_invoker_cdecl>@<lambda_a1ce4c8ae42411fd470c77163914f50e>@@CAHPEBX0@Z 000000018001bf18 f   libucrt:argv_wildcards.obj
 0001:0001b234       ??$common_expand_argv_wildcards@D@@YAHQEAPEADQEAPEAPEAD@Z 000000018001c234 f   libucrt:argv_wildcards.obj
 0001:0001b478       ??$copy_and_add_argument_to_buffer@D@@YAHQEBD0_KAEAV?$argument_list@D@?A0x5f5c8891@@@Z 000000018001c478 f   libucrt:argv_wildcards.obj
 0001:0001b600       ??$expand_argument_wildcards@D@@YAHQEAD0AEAV?$argument_list@D@?A0x5f5c8891@@@Z 000000018001c600 f   libucrt:argv_wildcards.obj
 0001:0001bc34       ??$?RV<lambda_efdfa57d1f175319df784efa44bb7b81>@@AEAV<lambda_5f0a4c1567f8adc6734073e5d1e1b35c>@@V<lambda_2e8a7d3640ea6ccb4c2413664c2db6fd>@@@?$__crt_seh_guarded_call@X@@QEAAX$$QEAV<lambda_efdfa57d1f175319df784efa44bb7b81>@@AEAV<lambda_5f0a4c1567f8adc6734073e5d1e1b35c>@@$$QEAV<lambda_2e8a7d3640ea6ccb4c2413664c2db6fd>@@@Z 000000018001cc34 f   libucrt:mbctype.obj
 0001:0001be04       ?getSystemCP@@YAHH@Z       000000018001ce04 f   libucrt:mbctype.obj
 0001:0001be84       ?setSBCS@@YAXPEAU__crt_multibyte_data@@@Z 000000018001ce84 f   libucrt:mbctype.obj
 0001:0001bf1c       ?setSBUpLow@@YAXPEAU__crt_multibyte_data@@@Z 000000018001cf1c f   libucrt:mbctype.obj
 0001:0001c104       ?setmbcp_internal@@YAHH_NQEAU__acrt_ptd@@QEAPEAU__crt_multibyte_data@@@Z 000000018001d104 f   libucrt:mbctype.obj
 0001:0001c374       ?update_thread_multibyte_data_internal@@YAPEAU__crt_multibyte_data@@QEAU__acrt_ptd@@QEAPEAU1@@Z 000000018001d374 f   libucrt:mbctype.obj
 0001:0001c768       ?x_ismbbtype_l@@YAHPEAU__crt_locale_pointers@@IHH@Z 000000018001d768 f   libucrt:ismbbyte.obj
 0001:0001cb38       ??$?RV<lambda_450d765d439847d4c735a33c368b5fc0>@@AEAV<lambda_44731a7d0e6d81c3e6aa82d741081786>@@V<lambda_601a2a7da3b7a96e9554ac7215c4b07c>@@@?$__crt_seh_guarded_call@P6AXH@Z@@QEAAP6AXH@Z$$QEAV<lambda_450d765d439847d4c735a33c368b5fc0>@@AEAV<lambda_44731a7d0e6d81c3e6aa82d741081786>@@$$QEAV<lambda_601a2a7da3b7a96e9554ac7215c4b07c>@@@Z 000000018001db38 f   libucrt:signal.obj
 0001:0001ceb0       ??$?RV<lambda_842d9ff0dc9ef11c61343bbaebe7f885>@@AEAV<lambda_c5860995281e5c4ce005b3de8f5874ee>@@V<lambda_d90129c13df834fdcbf8d2b88dafcf2d>@@@?$__crt_seh_guarded_call@X@@QEAAX$$QEAV<lambda_842d9ff0dc9ef11c61343bbaebe7f885>@@AEAV<lambda_c5860995281e5c4ce005b3de8f5874ee>@@$$QEAV<lambda_d90129c13df834fdcbf8d2b88dafcf2d>@@@Z 000000018001deb0 f   libucrt:fflush.obj
 0001:0001cf4c       ??$?RV<lambda_886d6c58226a84441f68b9f2b8217b83>@@AEAV<lambda_ab61a845afdef5b7c387490eaf3616ee>@@V<lambda_f7f22ab5edc0698d5f6905b0d3f44752>@@@?$__crt_seh_guarded_call@X@@QEAAX$$QEAV<lambda_886d6c58226a84441f68b9f2b8217b83>@@AEAV<lambda_ab61a845afdef5b7c387490eaf3616ee>@@$$QEAV<lambda_f7f22ab5edc0698d5f6905b0d3f44752>@@@Z 000000018001df4c f   libucrt:fflush.obj
 0001:0001d02c       ?common_flush_all@@YAH_N@Z 000000018001e02c f   libucrt:fflush.obj
 0001:0001d778       ?free_crt_array_internal@@YAXQEAPEBX_K@Z 000000018001e778 f   libucrt:inittime.obj
 0001:0001f35c       memcpy_s                   000000018002035c f   libucrt:cfout.obj
 0001:0001ff60       fallbackMethod             0000000180020f60 f   libucrt:strpbrk.obj
 0001:0002030c       $LN78                      000000018002130c     libucrt:strpbrk.obj
 0001:00020348       $LN77                      0000000180021348     libucrt:strpbrk.obj
 0001:00020388       $LN76                      0000000180021388     libucrt:strpbrk.obj
 0001:00020464       ?__acrt_LCMapStringA_stat@@YAHPEAU__crt_locale_pointers@@PEB_WKPEBDHPEADHHH@Z 0000000180021464 f   libucrt:lcmapstringa.obj
 0001:0002081c       ?initialize_multibyte@@YAHXZ 000000018002181c f   libucrt:multibyte_initializer.obj
 0001:00020834       ??$?RV<lambda_a37b2b86f63e897a80ea819b0eb08c01>@@AEAV<lambda_38ce7e780aa69e748d6df282ebc68efe>@@V<lambda_99fb1378e971ab6e7edea83e3a7a83a2>@@@?$__crt_seh_guarded_call@H@@QEAAH$$QEAV<lambda_a37b2b86f63e897a80ea819b0eb08c01>@@AEAV<lambda_38ce7e780aa69e748d6df282ebc68efe>@@$$QEAV<lambda_99fb1378e971ab6e7edea83e3a7a83a2>@@@Z 0000000180021834 f   libucrt:commit.obj
 0001:00020954       ?write_double_translated_ansi_nolock@@YA?AUwrite_result@?A0x17268360@@HQEBDIAEAV__crt_cached_ptd_host@@@Z 0000000180021954 f   libucrt:write.obj
 0001:00020de0       ?write_text_ansi_nolock@@YA?AUwrite_result@?A0x17268360@@HQEBDI@Z 0000000180021de0 f   libucrt:write.obj
 0001:00020ee4       ?write_text_utf16le_nolock@@YA?AUwrite_result@?A0x17268360@@HQEBDI@Z 0000000180021ee4 f   libucrt:write.obj
 0001:00021000       ?write_text_utf8_nolock@@YA?AUwrite_result@?A0x17268360@@HQEBDI@Z 0000000180022000 f   libucrt:write.obj
 0001:000217e0       $$000000                   00000001800227e0     libucrt:log10.obj
 0001:0002227c       ?_fclose_internal@@YAHQEAU_iobuf@@AEAV__crt_cached_ptd_host@@@Z 000000018002327c f   libucrt:fclose.obj
 0001:000222f8       ?_fclose_nolock_internal@@YAHQEAU_iobuf@@AEAV__crt_cached_ptd_host@@@Z 00000001800232f8 f   libucrt:fclose.obj
 0001:00022434       ??$common_lseek_nolock@_J@@YA_JH_JHAEAV__crt_cached_ptd_host@@@Z 0000000180023434 f   libucrt:lseek.obj
 0001:000225bc       common_control87           00000001800235bc f   libucrt:ieee.obj
 0001:0002287c       _call_matherr              000000018002387c f   libucrt:libm_error.obj
 0001:000228e4       _exception_enabled         00000001800238e4 f   libucrt:libm_error.obj
 0001:00022b80       _log_special_common        0000000180023b80 f   libucrt:log_special.obj
 0001:00022c18       ??$?RV<lambda_ad8af0d99a0adf03d037d7dffe354bb5>@@AEAV<lambda_c9ba49e555ba839a7b07aa3fbecb7617>@@V<lambda_2f1ebd5d68526518146ae959c9e734c8>@@@?$__crt_seh_guarded_call@H@@QEAAH$$QEAV<lambda_ad8af0d99a0adf03d037d7dffe354bb5>@@AEAV<lambda_c9ba49e555ba839a7b07aa3fbecb7617>@@$$QEAV<lambda_2f1ebd5d68526518146ae959c9e734c8>@@@Z 0000000180023c18 f   libucrt:close.obj
 0001:00022f70       $$000000                   0000000180023f70     libucrt:fpsr.obj
 0001:000236f0       $$000000                   00000001800246f0     LIBCMT:guard_dispatch.obj
 0001:00023710       $$000000                   0000000180024710     LIBCMT:guard_xfg_dispatch.obj
 0001:00023730       ?filt$0@?0??_AtlVerifyStackAvailable@_ATL_SAFE_ALLOCA_IMPL@ATL@@YA_N_K@Z@4HA 0000000180024730 f   CashDrawer.obj
 0001:00023751       __scrt_is_nonwritable_in_current_image$filt$0 0000000180024751 f   LIBCMT:utility.obj
 0001:00023769       ?catch$0@?0???2@YAPEAX_KAEBUnothrow_t@std@@@Z@4HA 0000000180024769 f   LIBCMT:new_scalar_nothrow.obj
 0001:00023776       __catch$??2@YAPEAX_KAEBUnothrow_t@std@@@Z$0 0000000180024776 f   LIBCMT:new_scalar_nothrow.obj
 0001:00023787       ?fin$0@?0??dllmain_crt_process_attach@@YAHQEAUHINSTANCE__@@QEAX@Z@4HA 0000000180024787 f   LIBCMT:dll_dllmain.obj
 0001:0002379e       ?fin$0@?0??dllmain_crt_process_detach@@YAH_N@Z@4HA 000000018002479e f   LIBCMT:dll_dllmain.obj
 0001:000237b7       ?fin$1@?0??dllmain_crt_process_detach@@YAH_N@Z@4HA 00000001800247b7 f   LIBCMT:dll_dllmain.obj
 0001:000237cb       ?filt$0@?0??dllmain_dispatch@@YAHQEAUHINSTANCE__@@KQEAX@Z@4HA 00000001800247cb f   LIBCMT:dll_dllmain.obj
 0001:00023801       ?filt$0@?0???$_CallSETranslator@V__FrameHandler3@@@@YAHPEAUEHExceptionRecord@@PEA_KPEAU_CONTEXT@@PEAU_xDISPATCHER_CONTEXT@@PEBU_s_FuncInfo@@K1H@Z@4HA 0000000180024801 f   libvcruntime:risctrnsctrl.obj
 0001:00023892       ?filt$0@?0???$_CallSETranslator@V__FrameHandler4@@@@YAHPEAUEHExceptionRecord@@PEA_KPEAU_CONTEXT@@PEAU_xDISPATCHER_CONTEXT@@PEAUFuncInfo4@FH4@@K1H@Z@4HA 0000000180024892 f   libvcruntime:risctrnsctrl.obj
 0001:00023931       __DestructExceptionObject$filt$0 0000000180024931 f   libvcruntime:ehhelpers.obj
 0001:000239c7       ?filt$0@?0??CxxCallCatchBlock@__FrameHandler3@@SAPEAXPEAU_EXCEPTION_RECORD@@@Z@4HA 00000001800249c7 f   libvcruntime:frame.obj
 0001:000239ec       ?fin$1@?0??CxxCallCatchBlock@__FrameHandler3@@SAPEAXPEAU_EXCEPTION_RECORD@@@Z@4HA 00000001800249ec f   libvcruntime:frame.obj
 0001:00023a72       ?filt$0@?0??CxxCallCatchBlock@__FrameHandler4@@SAPEAXPEAU_EXCEPTION_RECORD@@@Z@4HA 0000000180024a72 f   libvcruntime:frame.obj
 0001:00023aa1       ?fin$1@?0??CxxCallCatchBlock@__FrameHandler4@@SAPEAXPEAU_EXCEPTION_RECORD@@@Z@4HA 0000000180024aa1 f   libvcruntime:frame.obj
 0001:00023b32       ?filt$0@?0??FrameUnwindToState@__FrameHandler3@@SAXPEA_KPEAU_xDISPATCHER_CONTEXT@@PEBU_s_FuncInfo@@H@Z@4HA 0000000180024b32 f   libvcruntime:frame.obj
 0001:00023b48       ?fin$1@?0??FrameUnwindToState@__FrameHandler3@@SAXPEA_KPEAU_xDISPATCHER_CONTEXT@@PEBU_s_FuncInfo@@H@Z@4HA 0000000180024b48 f   libvcruntime:frame.obj
 0001:00023b6b       ?filt$0@?0??FrameUnwindToState@__FrameHandler4@@SAXPEA_KPEAU_xDISPATCHER_CONTEXT@@PEAUFuncInfo4@FH4@@H@Z@4HA 0000000180024b6b f   libvcruntime:frame.obj
 0001:00023b81       ?fin$1@?0??FrameUnwindToState@__FrameHandler4@@SAXPEA_KPEAU_xDISPATCHER_CONTEXT@@PEAUFuncInfo4@FH4@@H@Z@4HA 0000000180024b81 f   libvcruntime:frame.obj
 0001:00023ba4       ?fin$0@?0???$?RV<lambda_0ae27a3a962d80f24befdcbee591983d>@@AEAV<lambda_8d0ee55de4b1038c4002e0adecdf1839>@@V<lambda_dc504788e8f1664fe9b84e20bfb512f2>@@@?$__crt_seh_guarded_call@X@@QEAAX$$QEAV<lambda_0ae27a3a962d80f24befdcbee591983d>@@AEAV<lambda_8d0ee55de4b1038c4002e0adecdf1839>@@$$QEAV<lambda_dc504788e8f1664fe9b84e20bfb512f2>@@@Z@4HA 0000000180024ba4 f   libucrt:per_thread_data.obj
 0001:00023ba4       ?fin$0@?0???$?RV<lambda_2d41944a1d46af3157314b8a01080d33>@@AEAV<lambda_8f455de75cd7d7f24b4096f044d8b9e6>@@V<lambda_aa500f224e6afead328df44964fe2772>@@@?$__crt_seh_guarded_call@X@@QEAAX$$QEAV<lambda_2d41944a1d46af3157314b8a01080d33>@@AEAV<lambda_8f455de75cd7d7f24b4096f044d8b9e6>@@$$QEAV<lambda_aa500f224e6afead328df44964fe2772>@@@Z@4HA 0000000180024ba4 f   libucrt:per_thread_data.obj
 0001:00023ba4       ?fin$0@?0???$?RV<lambda_aa87e3671a710a21b5dc78c0bdf72e11>@@AEAV<lambda_92619d2358a28f41a33ba319515a20b9>@@V<lambda_6992ecaafeb10aed2b74cb1fae11a551>@@@?$__crt_seh_guarded_call@X@@QEAAX$$QEAV<lambda_aa87e3671a710a21b5dc78c0bdf72e11>@@AEAV<lambda_92619d2358a28f41a33ba319515a20b9>@@$$QEAV<lambda_6992ecaafeb10aed2b74cb1fae11a551>@@@Z@4HA 0000000180024ba4 f   libucrt:per_thread_data.obj
 0001:00023ba4       ?fin$0@?0???$?RV<lambda_f2e299630e499de9f9a165e60fcd3db5>@@AEAV<lambda_2ae9d31cdba2644fcbeaf08da7c24588>@@V<lambda_40d01ff24d0e7b3814fdbdcee8eab3c7>@@@?$__crt_seh_guarded_call@X@@QEAAX$$QEAV<lambda_f2e299630e499de9f9a165e60fcd3db5>@@AEAV<lambda_2ae9d31cdba2644fcbeaf08da7c24588>@@$$QEAV<lambda_40d01ff24d0e7b3814fdbdcee8eab3c7>@@@Z@4HA 0000000180024ba4 f   libucrt:per_thread_data.obj
 0001:00023ba4       ?fin$0@?0???$?RV<lambda_450d765d439847d4c735a33c368b5fc0>@@AEAV<lambda_44731a7d0e6d81c3e6aa82d741081786>@@V<lambda_601a2a7da3b7a96e9554ac7215c4b07c>@@@?$__crt_seh_guarded_call@P6AXH@Z@@QEAAP6AXH@Z$$QEAV<lambda_450d765d439847d4c735a33c368b5fc0>@@AEAV<lambda_44731a7d0e6d81c3e6aa82d741081786>@@$$QEAV<lambda_601a2a7da3b7a96e9554ac7215c4b07c>@@@Z@4HA 0000000180024ba4 f   libucrt:signal.obj
 0001:00023ba4       ?fin$0@?0???$?RV<lambda_d80eeec6fff315bfe5c115232f3240e3>@@AEAV<lambda_6e4b09c48022b2350581041d5f6b0c4c>@@V<lambda_2358e3775559c9db80273638284d5e45>@@@?$__crt_seh_guarded_call@X@@QEAAX$$QEAV<lambda_d80eeec6fff315bfe5c115232f3240e3>@@AEAV<lambda_6e4b09c48022b2350581041d5f6b0c4c>@@$$QEAV<lambda_2358e3775559c9db80273638284d5e45>@@@Z@4HA 0000000180024ba4 f   libucrt:exit.obj
 0001:00023ba4       ?fin$0@?0???$?RV<lambda_638799b9deba96c50f710eeac98168cd>@@AEAV<lambda_22ebabd17bc4fa466a2aca6d8deb888d>@@V<lambda_a6f7d7db0129f75315ebf26d50c089f1>@@@?$__crt_seh_guarded_call@H@@QEAAH$$QEAV<lambda_638799b9deba96c50f710eeac98168cd>@@AEAV<lambda_22ebabd17bc4fa466a2aca6d8deb888d>@@$$QEAV<lambda_a6f7d7db0129f75315ebf26d50c089f1>@@@Z@4HA 0000000180024ba4 f   libucrt:onexit.obj
 0001:00023ba4       ?fin$0@?0???$?RV<lambda_7777bce6b2f8c936911f934f8298dc43>@@AEAV<lambda_f03950bc5685219e0bcd2087efbe011e>@@V<lambda_3883c3dff614d5e0c5f61bb1ac94921c>@@@?$__crt_seh_guarded_call@H@@QEAAH$$QEAV<lambda_7777bce6b2f8c936911f934f8298dc43>@@AEAV<lambda_f03950bc5685219e0bcd2087efbe011e>@@$$QEAV<lambda_3883c3dff614d5e0c5f61bb1ac94921c>@@@Z@4HA 0000000180024ba4 f   libucrt:onexit.obj
 0001:00023bbe       ?filt$0@?0???R<lambda_6e4b09c48022b2350581041d5f6b0c4c>@@QEBA@XZ@4HA 0000000180024bbe f   libucrt:exit.obj
 0001:00023beb       _query_new_handler$fin$0   0000000180024beb f   libucrt:new_handler.obj
 0001:00023c01       ?fin$0@?0???$?RV<lambda_410d79af7f07d98d83a3f525b3859a53>@@AEAV<lambda_3e16ef9562a7dcce91392c22ab16ea36>@@V<lambda_38119f0e861e05405d8a144b9b982f0a>@@@?$__crt_seh_guarded_call@X@@QEAAX$$QEAV<lambda_410d79af7f07d98d83a3f525b3859a53>@@AEAV<lambda_3e16ef9562a7dcce91392c22ab16ea36>@@$$QEAV<lambda_38119f0e861e05405d8a144b9b982f0a>@@@Z@4HA 0000000180024c01 f   libucrt:wsetlocale.obj
 0001:00023c1b       __acrt_initialize_lowio$fin$0 0000000180024c1b f   libucrt:ioinit.obj
 0001:00023c1b       __acrt_lowio_ensure_fh_exists$fin$0 0000000180024c1b f   libucrt:osfinfo.obj
 0001:00023c34       ?fin$0@?0???$?RV<lambda_efdfa57d1f175319df784efa44bb7b81>@@AEAV<lambda_5f0a4c1567f8adc6734073e5d1e1b35c>@@V<lambda_2e8a7d3640ea6ccb4c2413664c2db6fd>@@@?$__crt_seh_guarded_call@X@@QEAAX$$QEAV<lambda_efdfa57d1f175319df784efa44bb7b81>@@AEAV<lambda_5f0a4c1567f8adc6734073e5d1e1b35c>@@$$QEAV<lambda_2e8a7d3640ea6ccb4c2413664c2db6fd>@@@Z@4HA 0000000180024c34 f   libucrt:mbctype.obj
 0001:00023c4e       ?fin$0@?0??update_thread_multibyte_data_internal@@YAPEAU__crt_multibyte_data@@QEAU__acrt_ptd@@QEAPEAU1@@Z@4HA 0000000180024c4e f   libucrt:mbctype.obj
 0001:00023c67       raise$fin$0                0000000180024c67 f   libucrt:signal.obj
 0001:00023c88       ?fin$0@?0???$?RV<lambda_842d9ff0dc9ef11c61343bbaebe7f885>@@AEAV<lambda_c5860995281e5c4ce005b3de8f5874ee>@@V<lambda_d90129c13df834fdcbf8d2b88dafcf2d>@@@?$__crt_seh_guarded_call@X@@QEAAX$$QEAV<lambda_842d9ff0dc9ef11c61343bbaebe7f885>@@AEAV<lambda_c5860995281e5c4ce005b3de8f5874ee>@@$$QEAV<lambda_d90129c13df834fdcbf8d2b88dafcf2d>@@@Z@4HA 0000000180024c88 f   libucrt:fflush.obj
 0001:00023ca3       ?fin$0@?0???$?RV<lambda_886d6c58226a84441f68b9f2b8217b83>@@AEAV<lambda_ab61a845afdef5b7c387490eaf3616ee>@@V<lambda_f7f22ab5edc0698d5f6905b0d3f44752>@@@?$__crt_seh_guarded_call@X@@QEAAX$$QEAV<lambda_886d6c58226a84441f68b9f2b8217b83>@@AEAV<lambda_ab61a845afdef5b7c387490eaf3616ee>@@$$QEAV<lambda_f7f22ab5edc0698d5f6905b0d3f44752>@@@Z@4HA 0000000180024ca3 f   libucrt:fflush.obj
 0001:00023cc0       __acrt_update_thread_locale_data$fin$0 0000000180024cc0 f   libucrt:locale_refcounting.obj
 0001:00023cd9       _fcloseall$fin$0           0000000180024cd9 f   libucrt:closeall.obj
 0001:00023cf2       ?fin$0@?0???$?RV<lambda_ad8af0d99a0adf03d037d7dffe354bb5>@@AEAV<lambda_c9ba49e555ba839a7b07aa3fbecb7617>@@V<lambda_2f1ebd5d68526518146ae959c9e734c8>@@@?$__crt_seh_guarded_call@H@@QEAAH$$QEAV<lambda_ad8af0d99a0adf03d037d7dffe354bb5>@@AEAV<lambda_c9ba49e555ba839a7b07aa3fbecb7617>@@$$QEAV<lambda_2f1ebd5d68526518146ae959c9e734c8>@@@Z@4HA 0000000180024cf2 f   libucrt:close.obj
 0001:00023cf2       ?fin$0@?0???$?RV<lambda_a37b2b86f63e897a80ea819b0eb08c01>@@AEAV<lambda_38ce7e780aa69e748d6df282ebc68efe>@@V<lambda_99fb1378e971ab6e7edea83e3a7a83a2>@@@?$__crt_seh_guarded_call@H@@QEAAH$$QEAV<lambda_a37b2b86f63e897a80ea819b0eb08c01>@@AEAV<lambda_38ce7e780aa69e748d6df282ebc68efe>@@$$QEAV<lambda_99fb1378e971ab6e7edea83e3a7a83a2>@@@Z@4HA 0000000180024cf2 f   libucrt:commit.obj
 0001:00023d0c       _write_internal$fin$0      0000000180024d0c f   libucrt:write.obj
 0001:00023d23       ?fin$0@?0??_fclose_internal@@YAHQEAU_iobuf@@AEAV__crt_cached_ptd_host@@@Z@4HA 0000000180024d23 f   libucrt:fclose.obj
 0001:00023d3b       _ctrlfp$filt$0             0000000180024d3b f   libucrt:fpctrl.obj
 0001:00023d3b       common_control87$filt$0    0000000180024d3b f   libucrt:ieee.obj
 0001:00023d70       _IsNonwritableInCurrentImage$filt$0 0000000180024d70 f   LIBCMT:pesect.obj
 0001:00023d90       ??__F_AtlComModule@ATL@@YAXXZ 0000000180024d90 f   OposVariant.obj
 0001:00023d9c       ??__F_AtlWinModule@ATL@@YAXXZ 0000000180024d9c f   OposVariant.obj
 0001:00023de0       ??__F_Module@@YAXXZ        0000000180024de0 f   CashDrawer.obj
 0001:00023dfc       ??__F_AtlBaseModule@ATL@@YAXXZ 0000000180024dfc f   atls:atlbase.obj
 0002:00000670       ?_AtlBaseModule$initializer$@ATL@@3P6AXXZEA 0000000180025670     atls:atlbase.obj
 0002:00000678       ?_AtlComModule$initializer$@ATL@@3P6AXXZEA 0000000180025678     OposVariant.obj
 0002:00000680       ?_AtlWinModule$initializer$@ATL@@3P6AXXZEA 0000000180025680     OposVariant.obj
 0002:00000688       ?_Module$initializer$@@3P6AXXZEA 0000000180025688     CashDrawer.obj
 0002:00000690       ??pConnMap$initializer$@?$IConnectionPointContainerImpl@VCOPOSCashDrawer@@@ATL@@0P6AXXZEA@@3P6AXXZEA 0000000180025690     CashDrawer.obj
 0002:000006a8       ?__scrt_initialize_tss_var@@3P6AHXZEA 00000001800256a8     LIBCMT:thread_safe_statics.obj
 0002:000025b8       GS_ExceptionPointers       00000001800275b8     LIBCMT:gs_report.obj
 0002:000027a0       ?ExceptionTemplate@?1??UnwindNestedFrames@__FrameHandler4@@SAXPEA_KPEAUEHExceptionRecord@@PEAU_CONTEXT@@0PEAXPEAUFuncInfo4@FH4@@HHPEAUHandlerType4@6@PEAU_xDISPATCHER_CONTEXT@@E@Z@4U_EXCEPTION_RECORD@@B 00000001800277a0     libvcruntime:risctrnsctrl.obj
 0002:00002840       ?ExceptionTemplate@?1??UnwindNestedFrames@__FrameHandler3@@SAXPEA_KPEAUEHExceptionRecord@@PEAU_CONTEXT@@0PEAXPEBU_s_FuncInfo@@HHPEBU_s_HandlerType@@PEAU_xDISPATCHER_CONTEXT@@E@Z@4U_EXCEPTION_RECORD@@B 0000000180027840     libvcruntime:risctrnsctrl.obj
 0002:00002910       ?tokenTable@@3QBUStringLiteral@@B 0000000180027910     libvcruntime:undname.obj
 0002:00002a20       ?nameTable@@3QBUStringLiteral@@B 0000000180027a20     libvcruntime:undname.obj
 0002:00002f50       ?rttiTable@@3QBUStringLiteral@@B 0000000180027f50     libvcruntime:undname.obj
 0002:00002fa0       ?IndirectionName@@3QBUStringLiteral@@B 0000000180027fa0     libvcruntime:undname.obj
 0002:00003000       ?PrefixName@@3QBUStringLiteral@@B 0000000180028000     libvcruntime:undname.obj
 0002:000036e8       ?module_names@?A0xbc0cc709@@3QBQEB_WB 00000001800286e8     libvcruntime:winapi_downlevel.obj
 0002:000037a8       ?candidate_modules@?1??try_get_FlsAlloc@@YAP6AKP6AXPEAX@Z@ZXZ@4QBW4module_id@?A0xbc0cc709@@B 00000001800287a8     libvcruntime:winapi_downlevel.obj
 0002:000037c0       ?candidate_modules@?1??try_get_FlsFree@@YAP6AHK@ZXZ@4QBW4module_id@?A0xbc0cc709@@B 00000001800287c0     libvcruntime:winapi_downlevel.obj
 0002:000037d0       ?candidate_modules@?1??try_get_FlsGetValue@@YAP6APEAXK@ZXZ@4QBW4module_id@?A0xbc0cc709@@B 00000001800287d0     libvcruntime:winapi_downlevel.obj
 0002:000037e8       ?candidate_modules@?1??try_get_FlsSetValue@@YAP6AHKPEAX@ZXZ@4QBW4module_id@?A0xbc0cc709@@B 00000001800287e8     libvcruntime:winapi_downlevel.obj
 0002:00003800       ?candidate_modules@?1??try_get_InitializeCriticalSectionEx@@YAP6AHPEAU_RTL_CRITICAL_SECTION@@KK@ZXZ@4QBW4module_id@?A0xbc0cc709@@B 0000000180028800     libvcruntime:winapi_downlevel.obj
 0002:00003830       ?errtable@@3QBUerrentry@?A0x31fdb9ec@@B 0000000180028830     libucrt:errno.obj
 0002:00003b98       $cppxdata$?try_cor_exit_process@@YAXI@Z 0000000180028b98     libucrt:exit.obj
 0002:00003bc0       $cppxdata$?common_exit@@YAXHW4_crt_exit_cleanup_mode@@W4_crt_exit_return_mode@@@Z 0000000180028bc0     libucrt:exit.obj
 0002:00003c10       $cppxdata$__dcrt_uninitialize_environments_nolock 0000000180028c10     libucrt:environment_initialization.obj
 0002:00003c38       $cppxdata$_execute_onexit_table 0000000180028c38     libucrt:onexit.obj
 0002:00003c60       __acrt_initializers        0000000180028c60     libucrt:initialization.obj
 0002:000043e0       ?module_names@?A0x391cf84c@@3QBQEB_WB 00000001800293e0     libucrt:winapi_thunks.obj
 0002:000048e8       ?candidate_modules@?1??try_get_AreFileApisANSI@@YAP6AHXZXZ@4QBW4module_id@?A0x391cf84c@@B 00000001800298e8     libucrt:winapi_thunks.obj
 0002:00004900       ?candidate_modules@?1??try_get_InitializeCriticalSectionEx@@YAP6AHPEAU_RTL_CRITICAL_SECTION@@KK@ZXZ@4QBW4module_id@?A0x391cf84c@@B 0000000180029900     libucrt:winapi_thunks.obj
 0002:00004908       ?candidate_modules@?1??try_get_LCMapStringEx@@YAP6AHPEB_WK0HPEA_WHPEAU_nlsversioninfo@@PEAX_J@ZXZ@4QBW4module_id@?A0x391cf84c@@B 0000000180029908     libucrt:winapi_thunks.obj
 0002:00004920       ?candidate_modules@?1??try_get_LocaleNameToLCID@@YAP6AKPEB_WK@ZXZ@4QBW4module_id@?A0x391cf84c@@B 0000000180029920     libucrt:winapi_thunks.obj
 0002:0000493c       ?candidate_modules@?1??try_get_AppPolicyGetProcessTerminationMethod@@YAP6AJPEAXPEAW4AppPolicyProcessTerminationMethod@@@ZXZ@4QBW4module_id@?A0x391cf84c@@B 000000018002993c     libucrt:winapi_thunks.obj
 0002:00004968       ?candidate_modules@?1??try_get_SetThreadStackGuarantee@@YAP6AHPEAK@ZXZ@4QBW4module_id@?A0x391cf84c@@B 0000000180029968     libucrt:winapi_thunks.obj
 0002:00004990       ?strings@?1??fp_format_nan_or_infinity@@YAHW4__acrt_fp_class@@_NPEAD_K1@Z@4QAY03QEBDA 0000000180029990     libucrt:cvt.obj
 0002:00004a68       ?_mb_locale_names@@3QBQEB_WB 0000000180029a68     libucrt:mbctype.obj
 0002:000050e0       ?LcidToLocaleNameTable@?A0x881e4c05@@3QBULcidToLocaleName@1@B 000000018002a0e0     libucrt:lcidtoname_downlevel.obj
 0002:00006b30       ?LocaleNameToIndexTable@?A0x881e4c05@@3QBULocaleNameIndex@1@B 000000018002bb30     libucrt:lcidtoname_downlevel.obj
 0002:00008dc0       $cppxdata$?write_double_translated_ansi_nolock@@YA?AUwrite_result@?A0x17268360@@HQEBDIAEAV__crt_cached_ptd_host@@@Z 000000018002ddc0     libucrt:write.obj
 0002:00008df0       __real_ninf                000000018002ddf0     libucrt:log10.obj
 0002:00008e00       __real_inf                 000000018002de00     libucrt:log10.obj
 0002:00008e10       __real_neg_qnan            000000018002de10     libucrt:log10.obj
 0002:00008e20       __real_qnanbit             000000018002de20     libucrt:log10.obj
 0002:00008e30       __int_1023                 000000018002de30     libucrt:log10.obj
 0002:00008e40       __mask_001                 000000018002de40     libucrt:log10.obj
 0002:00008e50       __mask_mant                000000018002de50     libucrt:log10.obj
 0002:00008e60       __mask_mant_top8           000000018002de60     libucrt:log10.obj
 0002:00008e70       __mask_mant9               000000018002de70     libucrt:log10.obj
 0002:00008e80       __real_log10_e             000000018002de80     libucrt:log10.obj
 0002:00008e90       __real_log10_e_lead        000000018002de90     libucrt:log10.obj
 0002:00008ea0       __real_log10_e_tail        000000018002dea0     libucrt:log10.obj
 0002:00008eb0       __real_log10_2_lead        000000018002deb0     libucrt:log10.obj
 0002:00008ec0       __real_log10_2_tail        000000018002dec0     libucrt:log10.obj
 0002:00008ed0       __real_two                 000000018002ded0     libucrt:log10.obj
 0002:00008ee0       __real_one                 000000018002dee0     libucrt:log10.obj
 0002:00008ef0       __real_half                000000018002def0     libucrt:log10.obj
 0002:00008f00       __mask_100                 000000018002df00     libucrt:log10.obj
 0002:00008f10       __real_1_over_512          000000018002df10     libucrt:log10.obj
 0002:00008f20       __real_1_over_2            000000018002df20     libucrt:log10.obj
 0002:00008f30       __real_1_over_3            000000018002df30     libucrt:log10.obj
 0002:00008f40       __real_1_over_4            000000018002df40     libucrt:log10.obj
 0002:00008f50       __real_1_over_5            000000018002df50     libucrt:log10.obj
 0002:00008f60       __real_1_over_6            000000018002df60     libucrt:log10.obj
 0002:00008f70       __real_neg_1023            000000018002df70     libucrt:log10.obj
 0002:00008f80       __mask_2045                000000018002df80     libucrt:log10.obj
 0002:00008f90       __real_threshold           000000018002df90     libucrt:log10.obj
 0002:00008fa0       __real_near_one_lt         000000018002dfa0     libucrt:log10.obj
 0002:00008fb0       __real_near_one_gt         000000018002dfb0     libucrt:log10.obj
 0002:00008fc0       __real_min_norm            000000018002dfc0     libucrt:log10.obj
 0002:00008fd0       __real_notsign             000000018002dfd0     libucrt:log10.obj
 0002:00008fe0       __real_ca1                 000000018002dfe0     libucrt:log10.obj
 0002:00008ff0       __real_ca2                 000000018002dff0     libucrt:log10.obj
 0002:00009000       __real_ca3                 000000018002e000     libucrt:log10.obj
 0002:00009010       __real_ca4                 000000018002e010     libucrt:log10.obj
 0002:00009020       __mask_lower               000000018002e020     libucrt:log10.obj
 0002:00009030       __flag_x_zero              000000018002e030     libucrt:log10.obj
 0002:00009034       __flag_x_neg               000000018002e034     libucrt:log10.obj
 0002:00009038       __flag_x_nan               000000018002e038     libucrt:log10.obj
 0002:0000a890       __real@433fffffffffffff    000000018002f890     libucrt:fpsr.obj
 0002:0000a898       __real@c33fffffffffffff    000000018002f898     libucrt:fpsr.obj
 0002:0000b1c8       $unwind$?cw_memcpy@@YAHPEA_WPEBDH@Z 00000001800301c8     CWString.obj
 0002:0000b1c8       $unwind$_invalid_parameter_noinfo 00000001800301c8     libucrt:invalid_parameter.obj
 0002:0000b1c8       $unwind$?state_case_size@?$output_processor@_WV?$string_output_adapter@_W@__crt_stdio_output@@V?$format_validation_base@_WV?$string_output_adapter@_W@__crt_stdio_output@@@2@@__crt_stdio_output@@AEAA_NXZ 00000001800301c8     libucrt:output.obj
 0002:0000b1c8       $unwind$_log10_special     00000001800301c8     libucrt:log_special.obj
 0002:0000b1d0       $unwind$?cw_strcpy@@YAHPEA_WPEBD@Z 00000001800301d0     CWString.obj
 0002:0000b1d0       $unwind$??__E?pConnMap@?$IConnectionPointContainerImpl@VCOPOSCashDrawer@@@ATL@@0PEBU_ATL_CONNMAP_ENTRY@2@EB@@YAXXZ 00000001800301d0     CashDrawer.obj
 0002:0000b1d0       $unwind$?AddReplacement@CRegObject@ATL@@UEAAJPEB_W0@Z 00000001800301d0     CashDrawer.obj
 0002:0000b1d0       $unwind$?AtlHresultFromLastError@ATL@@YAJXZ 00000001800301d0     CashDrawer.obj
 0002:0000b1d0       $unwind$?AtlThrowImpl@ATL@@YAXJ@Z 00000001800301d0     CashDrawer.obj
 0002:0000b1d0       $unwind$?CreateInstance@CComClassFactory@ATL@@UEAAJPEAUIUnknown@@AEBU_GUID@@PEAPEAX@Z 00000001800301d0     CashDrawer.obj
 0002:0000b1d0       $unwind$?DefaultReflectionHandler@?$CWindowImplRoot@VCWindow@ATL@@@ATL@@SAHPEAUHWND__@@I_K_JAEA_J@Z 00000001800301d0     CashDrawer.obj
 0002:0000b1d0       $unwind$?EnumAdvise@?$IOleObjectImpl@VCOPOSCashDrawer@@@ATL@@UEAAJPEAPEAUIEnumSTATDATA@@@Z 00000001800301d0     CashDrawer.obj
 0002:0000b1d0       $unwind$?FireViewChange@CComControlBase@ATL@@QEAAJXZ 00000001800301d0     CashDrawer.obj
 0002:0000b1d0       $unwind$?GetAdvise@?$IViewObjectExImpl@VCOPOSCashDrawer@@@ATL@@UEAAJPEAK0PEAPEAUIAdviseSink@@@Z 00000001800301d0     CashDrawer.obj
 0002:0000b1d0       $unwind$?LockServer@CComClassFactory@ATL@@UEAAJH@Z 00000001800301d0     CashDrawer.obj
 0002:0000b1d0       $unwind$?OnDocWindowActivate@?$IOleInPlaceActiveObjectImpl@VCOPOSCashDrawer@@@ATL@@UEAAJH@Z 00000001800301d0     CashDrawer.obj
 0002:0000b1d0       $unwind$?Unadvise@?$IOleObjectImpl@VCOPOSCashDrawer@@@ATL@@UEAAJK@Z 00000001800301d0     CashDrawer.obj
 0002:0000b1d0       $unwind$?_LocCPQueryInterface@?$IConnectionPointImpl@VCOPOSCashDrawer@@$1?DIID__IOPOSCashDrawerEvents@@3U_GUID@@BVCComDynamicUnkArray@ATL@@@ATL@@UEAAJAEBU_GUID@@PEAPEAX@Z 00000001800301d0     CashDrawer.obj
 0002:0000b1d0       $unwind$?_LocCPQueryInterface@?$IConnectionPointImpl@VCOPOSCashDrawer@@$1?IID_IPropertyNotifySink@@3U_GUID@@BVCComDynamicUnkArray@ATL@@@ATL@@UEAAJAEBU_GUID@@PEAPEAX@Z 00000001800301d0     CashDrawer.obj
 0002:0000b1d0       $unwind$?FinalConstruct@COPOSCashDrawer@@QEAAJXZ 00000001800301d0     CashDrawerImpl.obj
 0002:0000b1d0       $unwind$?get_ResultCode@COPOSCashDrawer@@UEAAJPEAJ@Z 00000001800301d0     CashDrawerImpl.obj
 0002:0000b1d0       $unwind$?get_State@COPOSCashDrawer@@UEAAJPEAJ@Z 00000001800301d0     CashDrawerImpl.obj
 0002:0000b1d0       $unwind$??1OposDispParms@@QEAA@XZ 00000001800301d0     OposVariant.obj
 0002:0000b1d0       $unwind$??__E_AtlComModule@ATL@@YAXXZ 00000001800301d0     OposVariant.obj
 0002:0000b1d0       $unwind$??__E_AtlWinModule@ATL@@YAXXZ 00000001800301d0     OposVariant.obj
 0002:0000b1d0       $unwind$??__F_AtlWinModule@ATL@@YAXXZ 00000001800301d0     OposVariant.obj
 0002:0000b1d0       $unwind$?GetLONG@OposVariant@@QEAAJXZ 00000001800301d0     OposVariant.obj
 0002:0000b1d0       $unwind$__dcrt_terminate_console_output 00000001800301d0     libucrt:initcon.obj
 0002:0000b1d0       $unwind$??$uninitialize_environment_internal@D@@YAXAEAPEAPEAD@Z 00000001800301d0     libucrt:environment_initialization.obj
 0002:0000b1d0       $unwind$??$uninitialize_environment_internal@_W@@YAXAEAPEAPEA_W@Z 00000001800301d0     libucrt:environment_initialization.obj
 0002:0000b1d0       $unwind$__acrt_initialize_heap 00000001800301d0     libucrt:heap_handle.obj
 0002:0000b1d0       $unwind$_msize_base        00000001800301d0     libucrt:msize.obj
 0002:0000b1d0       $unwind$?initialize_multibyte@@YAHXZ 00000001800301d0     libucrt:multibyte_initializer.obj
 0002:0000b1d0       $unwind$__acrt_thread_attach 00000001800301d0     libucrt:initialization.obj
 0002:0000b1d0       $unwind$__acrt_thread_detach 00000001800301d0     libucrt:initialization.obj
 0002:0000b1d0       $unwind$__acrt_uninitialize 00000001800301d0     libucrt:initialization.obj
 0002:0000b1d0       $unwind$__acrt_uninitialize_critical 00000001800301d0     libucrt:initialization.obj
 0002:0000b1d0       $unwind$initialize_c       00000001800301d0     libucrt:initialization.obj
 0002:0000b1d0       $unwind$uninitialize_allocated_io_buffers 00000001800301d0     libucrt:initialization.obj
 0002:0000b1d0       $unwind$uninitialize_environment 00000001800301d0     libucrt:initialization.obj
 0002:0000b1d0       $unwind$__acrt_initialize_ptd 00000001800301d0     libucrt:per_thread_data.obj
 0002:0000b1d0       $unwind$__acrt_uninitialize_ptd 00000001800301d0     libucrt:per_thread_data.obj
 0002:0000b1d0       $unwind$__acrt_AreFileApisANSI 00000001800301d0     libucrt:winapi_thunks.obj
 0002:0000b1d0       $unwind$__acrt_release_locale_ref 00000001800301d0     libucrt:locale_refcounting.obj
 0002:0000b1d0       $unwind$_isatty            00000001800301d0     libucrt:isatty.obj
 0002:0000b1d0       $unwind$_get_osfhandle     00000001800301d0     libucrt:osfinfo.obj
 0002:0000b1d0       $unwind$__acrt_initialize_multibyte 00000001800301d0     libucrt:mbctype.obj
 0002:0000b1d0       $unwind$__acrt_update_thread_multibyte_data 00000001800301d0     libucrt:mbctype.obj
 0002:0000b1d0       $unwind$__doserrno         00000001800301d0     libucrt:errno.obj
 0002:0000b1d0       $unwind$_errno             00000001800301d0     libucrt:errno.obj
 0002:0000b1d0       $unwind$_invoke_watson     00000001800301d0     libucrt:invalid_parameter.obj
 0002:0000b1d0       $unwind$abort              00000001800301d0     libucrt:abort.obj
 0002:0000b1d0       $unwind$__acrt_initialize_command_line 00000001800301d0     libucrt:argv_data.obj
 0002:0000b1d0       $unwind$?should_call_terminate_process@@YA_NXZ 00000001800301d0     libucrt:exit.obj
 0002:0000b1d0       $unwind$_fileno            00000001800301d0     libucrt:fileno.obj
 0002:0000b1d0       $unwind$_statfp            00000001800301d0     libucrt:fpctrl.obj
 0002:0000b1d0       $unwind$fegetround         00000001800301d0     libucrt:fegetround.obj
 0002:0000b1d0       $unwind$_set_errno_from_matherr 00000001800301d0     libucrt:fpexcept.obj
 0002:0000b1d0       $unwind$??__E_AtlBaseModule@ATL@@YAXXZ 00000001800301d0     atls:atlbase.obj
 0002:0000b1d0       $unwind$__scrt_initialize_default_local_stdio_options 00000001800301d0     LIBCMT:default_local_stdio_options.obj
 0002:0000b1d0       $unwind$?dllmain_crt_dispatch@@YAHQEAUHINSTANCE__@@KQEAX@Z 00000001800301d0     LIBCMT:dll_dllmain.obj
 0002:0000b1d0       $unwind$__report_rangecheckfailure 00000001800301d0     LIBCMT:gs_report.obj
 0002:0000b1d0       $unwind$__GSHandlerCheck   00000001800301d0     LIBCMT:gshandler.obj
 0002:0000b1d0       $unwind$?__scrt_uninitialize_thread_safe_statics@@YAXXZ 00000001800301d0     LIBCMT:thread_safe_statics.obj
 0002:0000b1d0       $unwind$_Init_thread_notify 00000001800301d0     LIBCMT:thread_safe_statics.obj
 0002:0000b1d0       $unwind$__scrt_acquire_startup_lock 00000001800301d0     LIBCMT:utility.obj
 0002:0000b1d0       $unwind$__scrt_dllmain_after_initialize_c 00000001800301d0     LIBCMT:utility.obj
 0002:0000b1d0       $unwind$__scrt_dllmain_before_initialize_c 00000001800301d0     LIBCMT:utility.obj
 0002:0000b1d0       $unwind$__scrt_dllmain_crt_thread_attach 00000001800301d0     LIBCMT:utility.obj
 0002:0000b1d0       $unwind$__scrt_dllmain_crt_thread_detach 00000001800301d0     LIBCMT:utility.obj
 0002:0000b1d0       $unwind$__scrt_dllmain_uninitialize_c 00000001800301d0     LIBCMT:utility.obj
 0002:0000b1d0       $unwind$__scrt_dllmain_uninitialize_critical 00000001800301d0     LIBCMT:utility.obj
 0002:0000b1d0       $unwind$atexit             00000001800301d0     LIBCMT:utility.obj
 0002:0000b1d0       $unwind$__std_terminate    00000001800301d0     libvcruntime:ehhelpers.obj
 0002:0000b1d0       $unwind$?GetCurrentState@__FrameHandler3@@SAHPEA_KPEAU_xDISPATCHER_CONTEXT@@PEBU_s_FuncInfo@@@Z 00000001800301d0     libvcruntime:ehstate.obj
 0002:0000b1d0       $unwind$__vcrt_initialize  00000001800301d0     libvcruntime:initialization.obj
 0002:0000b1d0       $unwind$__vcrt_thread_attach 00000001800301d0     libvcruntime:initialization.obj
 0002:0000b1d0       $unwind$__vcrt_thread_detach 00000001800301d0     libvcruntime:initialization.obj
 0002:0000b1d0       $unwind$__vcrt_uninitialize 00000001800301d0     libvcruntime:initialization.obj
 0002:0000b1d0       $unwind$__vcrt_uninitialize_critical 00000001800301d0     libvcruntime:initialization.obj
 0002:0000b1d0       $unwind$__vcrt_freefls     00000001800301d0     libvcruntime:per_thread_data.obj
 0002:0000b1d0       $unwind$__vcrt_getptd      00000001800301d0     libvcruntime:per_thread_data.obj
 0002:0000b1d0       $unwind$__vcrt_initialize_ptd 00000001800301d0     libvcruntime:per_thread_data.obj
 0002:0000b1d0       $unwind$__vcrt_uninitialize_ptd 00000001800301d0     libvcruntime:per_thread_data.obj
 0002:0000b1d0       $unwind$_purecall          00000001800301d0     libvcruntime:purevirt.obj
 0002:0000b1d0       $unwind$?FrameUnwindToEmptyState@__FrameHandler4@@SAXPEA_KPEAU_xDISPATCHER_CONTEXT@@PEAUFuncInfo4@FH4@@@Z 00000001800301d0     libvcruntime:risctrnsctrl.obj
 0002:0000b1d0       $unwind$_GetImageBase      00000001800301d0     libvcruntime:risctrnsctrl.obj
 0002:0000b1d0       $unwind$_GetThrowImageBase 00000001800301d0     libvcruntime:risctrnsctrl.obj
 0002:0000b1d8       $unwind$?cw_dup@@YAXPEBDAEAHAEAPEA_W1@Z 00000001800301d8     CWString.obj
 0002:0000b1d8       $unwind$?DAdvise@?$IDataObjectImpl@VCOPOSCashDrawer@@@ATL@@UEAAJPEAUtagFORMATETC@@KPEAUIAdviseSink@@PEAK@Z 00000001800301d8     CashDrawer.obj
 0002:0000b1d8       $unwind$??$create_environment@D@@YAQEAPEADQEAD@Z 00000001800301d8     libucrt:environment_initialization.obj
 0002:0000b1d8       $unwind$_mbtowc_internal   00000001800301d8     libucrt:mbtowc.obj
 0002:0000b1d8       $unwind$??$__acrt_convert_wcs_mbs_cp@D_WV<lambda_7c9dea7b4ca7285d2cdb541a38da6275>@@U__crt_win32_buffer_internal_dynamic_resizing@@@@YAHQEBDAEAV?$__crt_win32_buffer@_WU__crt_win32_buffer_internal_dynamic_resizing@@@@AEBV<lambda_7c9dea7b4ca7285d2cdb541a38da6275>@@I@Z 00000001800301d8     libucrt:argv_wildcards.obj
 0002:0000b1d8       $unwind$?process@?$output_processor@_WV?$string_output_adapter@_W@__crt_stdio_output@@V?$format_validation_base@_WV?$string_output_adapter@_W@__crt_stdio_output@@@2@@__crt_stdio_output@@QEAAHXZ 00000001800301d8     libucrt:output.obj
 0002:0000b1f0       $unwind$?DupWide@_CW@@AEAAXXZ 00000001800301f0     CWString.obj
 0002:0000b1f0       $unwind$??0?$CComObject@VCOPOSCashDrawer@@@ATL@@QEAA@PEAX@Z 00000001800301f0     CashDrawer.obj
 0002:0000b1f0       $unwind$??0CAtlModule@ATL@@QEAA@XZ 00000001800301f0     CashDrawer.obj
 0002:0000b1f0       $unwind$??1?$CComObject@VCOPOSCashDrawer@@@ATL@@UEAA@XZ 00000001800301f0     CashDrawer.obj
 0002:0000b1f0       $unwind$??__E_Module@@YAXXZ 00000001800301f0     CashDrawer.obj
 0002:0000b1f0       $unwind$?AddRef@?$CComObjectCached@VCComClassFactory@ATL@@@ATL@@UEAAKXZ 00000001800301f0     CashDrawer.obj
 0002:0000b1f0       $unwind$?AllocateHeap@?$CTempBuffer@E$0BAA@VCCRTAllocator@ATL@@@ATL@@AEAAX_K@Z 00000001800301f0     CashDrawer.obj
 0002:0000b1f0       $unwind$?AllocateHeap@?$CTempBuffer@_W$0BAA@VCCRTAllocator@ATL@@@ATL@@AEAAX_K@Z 00000001800301f0     CashDrawer.obj
 0002:0000b1f0       $unwind$?AllocateHeap@?$CTempBuffer@_W$0EAA@VCCRTAllocator@ATL@@@ATL@@AEAAX_K@Z 00000001800301f0     CashDrawer.obj
 0002:0000b1f0       $unwind$?GetClassInfoW@?$IProvideClassInfo2Impl@$1?CLSID_OPOSCashDrawer@@3U_GUID@@B$1?DIID__IOPOSCashDrawerEvents@@3U2@B$1?LIBID_OposCashDrawer_CCO@@3U2@B$00$0A@VCComTypeInfoHolder@ATL@@@ATL@@UEAAJPEAPEAUITypeInfo@@@Z 00000001800301f0     CashDrawer.obj
 0002:0000b1f0       $unwind$?GetClientSite@?$IOleObjectImpl@VCOPOSCashDrawer@@@ATL@@UEAAJPEAPEAUIOleClientSite@@@Z 00000001800301f0     CashDrawer.obj
 0002:0000b1f0       $unwind$?GetConnMap@COPOSCashDrawer@@SAPEBU_ATL_CONNMAP_ENTRY@ATL@@PEAH@Z 00000001800301f0     CashDrawer.obj
 0002:0000b1f0       $unwind$?GetTypeInfo@?$IDispatchImpl@UIOPOSCashDrawer@@$1?IID_IOPOSCashDrawer@@3U_GUID@@B$1?LIBID_OposCashDrawer_CCO@@3U3@B$00$0A@VCComTypeInfoHolder@ATL@@@ATL@@UEAAJIKPEAPEAUITypeInfo@@@Z 00000001800301f0     CashDrawer.obj
 0002:0000b1f0       $unwind$?IOleInPlaceObject_InPlaceDeactivate@CComControlBase@ATL@@QEAAJXZ 00000001800301f0     CashDrawer.obj
 0002:0000b1f0       $unwind$?IOleObject_SetExtent@CComControlBase@ATL@@QEAAJKPEAUtagSIZE@@@Z 00000001800301f0     CashDrawer.obj
 0002:0000b1f0       $unwind$?IsEqualObject@?$CComPtrBase@UIOleClientSite@@@ATL@@QEAA_NPEAUIUnknown@@@Z 00000001800301f0     CashDrawer.obj
 0002:0000b1f0       $unwind$?QueryHitPoint@?$IViewObjectExImpl@VCOPOSCashDrawer@@@ATL@@UEAAJKPEBUtagRECT@@UtagPOINT@@JPEAK@Z 00000001800301f0     CashDrawer.obj
 0002:0000b1f0       $unwind$?QueryInterface@?$CComAggObject@VCOPOSCashDrawer@@@ATL@@UEAAJAEBU_GUID@@PEAPEAX@Z 00000001800301f0     CashDrawer.obj
 0002:0000b1f0       $unwind$?Release@?$CComObjectCached@VCComClassFactory@ATL@@@ATL@@UEAAKXZ 00000001800301f0     CashDrawer.obj
 0002:0000b1f0       $unwind$?Unadvise@?$IConnectionPointImpl@VCOPOSCashDrawer@@$1?DIID__IOPOSCashDrawerEvents@@3U_GUID@@BVCComDynamicUnkArray@ATL@@@ATL@@UEAAJK@Z 00000001800301f0     CashDrawer.obj
 0002:0000b1f0       $unwind$?Unadvise@?$IConnectionPointImpl@VCOPOSCashDrawer@@$1?IID_IPropertyNotifySink@@3U_GUID@@BVCComDynamicUnkArray@ATL@@@ATL@@UEAAJK@Z 00000001800301f0     CashDrawer.obj
 0002:0000b1f0       $unwind$??1CComControlBase@ATL@@UEAA@XZ 00000001800301f0     CashDrawerImpl.obj
 0002:0000b1f0       $unwind$??1COPOSCashDrawer@@UEAA@XZ 00000001800301f0     CashDrawerImpl.obj
 0002:0000b1f0       $unwind$?EventUninit@COPOSCashDrawer@@IEAAXXZ 00000001800301f0     CashDrawerImpl.obj
 0002:0000b1f0       $unwind$?FreezeEvents@COPOSCashDrawer@@MEAAJH@Z 00000001800301f0     CashDrawerImpl.obj
 0002:0000b1f0       $unwind$?SOProcessID@COPOSCashDrawer@@UEAAJPEAJ@Z 00000001800301f0     CashDrawerImpl.obj
 0002:0000b1f0       $unwind$?get_CapCompareFirmwareVersion@COPOSCashDrawer@@UEAAJPEAF@Z 00000001800301f0     CashDrawerImpl.obj
 0002:0000b1f0       $unwind$?get_CapStatisticsReporting@COPOSCashDrawer@@UEAAJPEAF@Z 00000001800301f0     CashDrawerImpl.obj
 0002:0000b1f0       $unwind$?get_CapStatus@COPOSCashDrawer@@UEAAJPEAF@Z 00000001800301f0     CashDrawerImpl.obj
 0002:0000b1f0       $unwind$?get_CapStatusMultiDrawerDetect@COPOSCashDrawer@@UEAAJPEAF@Z 00000001800301f0     CashDrawerImpl.obj
 0002:0000b1f0       $unwind$?get_CapUpdateFirmware@COPOSCashDrawer@@UEAAJPEAF@Z 00000001800301f0     CashDrawerImpl.obj
 0002:0000b1f0       $unwind$?get_CapUpdateStatistics@COPOSCashDrawer@@UEAAJPEAF@Z 00000001800301f0     CashDrawerImpl.obj
 0002:0000b1f0       $unwind$?get_Claimed@COPOSCashDrawer@@UEAAJPEAF@Z 00000001800301f0     CashDrawerImpl.obj
 0002:0000b1f0       $unwind$?get_DeviceEnabled@COPOSCashDrawer@@UEAAJPEAF@Z 00000001800301f0     CashDrawerImpl.obj
 0002:0000b1f0       $unwind$?get_DrawerOpened@COPOSCashDrawer@@UEAAJPEAF@Z 00000001800301f0     CashDrawerImpl.obj
 0002:0000b1f0       $unwind$?get_FreezeEvents@COPOSCashDrawer@@UEAAJPEAF@Z 00000001800301f0     CashDrawerImpl.obj
 0002:0000b1f0       $unwind$?put_FreezeEvents@COPOSCashDrawer@@UEAAJF@Z 00000001800301f0     CashDrawerImpl.obj
 0002:0000b1f0       $unwind$??0CAtlComModule@ATL@@QEAA@XZ 00000001800301f0     OposVariant.obj
 0002:0000b1f0       $unwind$??0CAtlWinModule@ATL@@QEAA@XZ 00000001800301f0     OposVariant.obj
 0002:0000b1f0       $unwind$_calloc_base       00000001800301f0     libucrt:calloc_base.obj
 0002:0000b1f0       $unwind$_malloc_base       00000001800301f0     libucrt:malloc_base.obj
 0002:0000b1f0       $unwind$_callnewh          00000001800301f0     libucrt:new_handler.obj
 0002:0000b1f0       $unwind$initialize_pointers 00000001800301f0     libucrt:initialization.obj
 0002:0000b1f0       $unwind$uninitialize_allocated_memory 00000001800301f0     libucrt:initialization.obj
 0002:0000b1f0       $unwind$__acrt_initialize_locks 00000001800301f0     libucrt:locks.obj
 0002:0000b1f0       $unwind$__acrt_uninitialize_locks 00000001800301f0     libucrt:locks.obj
 0002:0000b1f0       $unwind$__acrt_freeptd     00000001800301f0     libucrt:per_thread_data.obj
 0002:0000b1f0       $unwind$__acrt_getptd_head 00000001800301f0     libucrt:per_thread_data.obj
 0002:0000b1f0       $unwind$__acrt_get_process_end_policy 00000001800301f0     libucrt:win_policies.obj
 0002:0000b1f0       $unwind$__acrt_AppPolicyGetProcessTerminationMethodInternal 00000001800301f0     libucrt:winapi_thunks.obj
 0002:0000b1f0       $unwind$__acrt_SetThreadStackGuarantee 00000001800301f0     libucrt:winapi_thunks.obj
 0002:0000b1f0       $unwind$__acrt_uninitialize_winapi_thunks 00000001800301f0     libucrt:winapi_thunks.obj
 0002:0000b1f0       $unwind$__acrt_update_locale_info 00000001800301f0     libucrt:locale_update.obj
 0002:0000b1f0       $unwind$__acrt_update_locale_info_explicit 00000001800301f0     libucrt:locale_update.obj
 0002:0000b1f0       $unwind$__acrt_update_multibyte_info 00000001800301f0     libucrt:locale_update.obj
 0002:0000b1f0       $unwind$__acrt_update_multibyte_info_explicit 00000001800301f0     libucrt:locale_update.obj
 0002:0000b1f0       $unwind$__acrt_errno_map_os_error 00000001800301f0     libucrt:errno.obj
 0002:0000b1f0       $unwind$__acrt_errno_map_os_error_ptd 00000001800301f0     libucrt:errno.obj
 0002:0000b1f0       $unwind$__acrt_allocate_buffer_for_argv 00000001800301f0     libucrt:argv_parsing.obj
 0002:0000b1f0       $unwind$?exit_or_terminate_process@@YAXI@Z 00000001800301f0     libucrt:exit.obj
 0002:0000b1f0       $unwind$__acrt_uninitialize_stdio 00000001800301f0     libucrt:_file.obj
 0002:0000b1f0       $unwind$__acrt_stdio_free_buffer_nolock 00000001800301f0     libucrt:_freebuf.obj
 0002:0000b1f0       $unwind$strcpy_s           00000001800301f0     libucrt:strcpy_s.obj
 0002:0000b1f0       $unwind$wcscat_s           00000001800301f0     libucrt:wcscat_s.obj
 0002:0000b1f0       $unwind$wcscpy_s           00000001800301f0     libucrt:wcscpy_s.obj
 0002:0000b1f0       $unwind$_clrfp             00000001800301f0     libucrt:fpctrl.obj
 0002:0000b1f0       $unwind$_set_statfp        00000001800301f0     libucrt:fpctrl.obj
 0002:0000b1f0       $unwind$_clearfp           00000001800301f0     libucrt:ieee.obj
 0002:0000b1f0       $unwind$_controlfp_s       00000001800301f0     libucrt:contrlfp.obj
 0002:0000b1f0       $unwind$fegetenv           00000001800301f0     libucrt:fegetenv.obj
 0002:0000b1f0       $unwind$feholdexcept       00000001800301f0     libucrt:feholdexcept.obj
 0002:0000b1f0       $unwind$fesetenv           00000001800301f0     libucrt:fesetenv.obj
 0002:0000b1f0       $unwind$??1CAtlBaseModule@ATL@@QEAA@XZ 00000001800301f0     atls:atlbase.obj
 0002:0000b1f0       $unwind$AtlThunk_AllocateData 00000001800301f0     atls:atlthunk.obj
 0002:0000b1f0       $unwind$__raise_securityfailure 00000001800301f0     LIBCMT:gs_report.obj
 0002:0000b1f0       $unwind$??2@YAPEAX_K@Z     00000001800301f0     LIBCMT:new_scalar.obj
 0002:0000b1f0       $unwind$??_Gtype_info@@UEAAPEAXI@Z 00000001800301f0     LIBCMT:std_type_info_static.obj
 0002:0000b1f0       $unwind$_Init_thread_footer 00000001800301f0     LIBCMT:thread_safe_statics.obj
 0002:0000b1f0       $unwind$_Init_thread_header 00000001800301f0     LIBCMT:thread_safe_statics.obj
 0002:0000b1f0       $unwind$_Init_thread_wait  00000001800301f0     LIBCMT:thread_safe_statics.obj
 0002:0000b1f0       $unwind$??0bad_alloc@std@@QEAA@AEBV01@@Z 00000001800301f0     LIBCMT:throw_bad_alloc.obj
 0002:0000b1f0       $unwind$??0bad_array_new_length@std@@QEAA@AEBV01@@Z 00000001800301f0     LIBCMT:throw_bad_alloc.obj
 0002:0000b1f0       $unwind$??0exception@std@@QEAA@AEBV01@@Z 00000001800301f0     LIBCMT:throw_bad_alloc.obj
 0002:0000b1f0       $unwind$__scrt_initialize_crt 00000001800301f0     LIBCMT:utility.obj
 0002:0000b1f0       $unwind$__scrt_initialize_onexit_tables 00000001800301f0     LIBCMT:utility.obj
 0002:0000b1f0       $unwind$__scrt_release_startup_lock 00000001800301f0     LIBCMT:utility.obj
 0002:0000b1f0       $unwind$__scrt_uninitialize_crt 00000001800301f0     LIBCMT:utility.obj
 0002:0000b1f0       $unwind$_onexit            00000001800301f0     LIBCMT:utility.obj
 0002:0000b1f0       $unwind$_IsExceptionObjectToBeDestroyed 00000001800301f0     libvcruntime:ehhelpers.obj
 0002:0000b1f0       $unwind$?GetUnwindTryBlock@__FrameHandler3@@SAHPEA_KPEAU_xDISPATCHER_CONTEXT@@PEBU_s_FuncInfo@@@Z 00000001800301f0     libvcruntime:ehstate.obj
 0002:0000b1f0       $unwind$?StateFromIp@__FrameHandler3@@SAHPEBU_s_FuncInfo@@PEAU_xDISPATCHER_CONTEXT@@_K@Z 00000001800301f0     libvcruntime:ehstate.obj
 0002:0000b1f0       $unwind$??0HandlerMap4@FH4@@QEAA@PEBUTryBlockMapEntry4@1@_KH@Z 00000001800301f0     libvcruntime:frame.obj
 0002:0000b1f0       $unwind$??0bad_exception@std@@QEAA@AEBV01@@Z 00000001800301f0     libvcruntime:frame.obj
 0002:0000b1f0       $unwind$__vcrt_initialize_locks 00000001800301f0     libvcruntime:locks.obj
 0002:0000b1f0       $unwind$__vcrt_uninitialize_locks 00000001800301f0     libvcruntime:locks.obj
 0002:0000b1f0       $unwind$__vcrt_freeptd     00000001800301f0     libvcruntime:per_thread_data.obj
 0002:0000b1f0       $unwind$?ExecutionInCatch@__FrameHandler3@@SA_NPEAU_xDISPATCHER_CONTEXT@@PEBU_s_FuncInfo@@@Z 00000001800301f0     libvcruntime:risctrnsctrl.obj
 0002:0000b1f0       $unwind$_CreateFrameInfo   00000001800301f0     libvcruntime:risctrnsctrl.obj
 0002:0000b1f0       $unwind$_SetImageBase      00000001800301f0     libvcruntime:risctrnsctrl.obj
 0002:0000b1f0       $unwind$_SetThrowImageBase 00000001800301f0     libvcruntime:risctrnsctrl.obj
 0002:0000b1f0       $unwind$__std_exception_destroy 00000001800301f0     libvcruntime:std_exception.obj
 0002:0000b1f0       $unwind$__std_type_info_destroy_list 00000001800301f0     libvcruntime:std_type_info.obj
 0002:0000b1f0       $unwind$__vcrt_FlsAlloc    00000001800301f0     libvcruntime:winapi_downlevel.obj
 0002:0000b1f0       $unwind$__vcrt_FlsFree     00000001800301f0     libvcruntime:winapi_downlevel.obj
 0002:0000b1f0       $unwind$__vcrt_FlsGetValue 00000001800301f0     libvcruntime:winapi_downlevel.obj
 0002:0000b1f8       $unwind$?AtlWinModuleExtractCreateWndData@ATL@@YAPEAXPEAU_ATL_WIN_MODULE70@1@@Z 00000001800301f8     CashDrawer.obj
 0002:0000b1f8       $unwind$?CreateInstance@?$CComCreator@V?$CComObject@VCOPOSCashDrawer@@@ATL@@@ATL@@SAJPEAXAEBU_GUID@@PEAPEAX@Z 00000001800301f8     CashDrawer.obj
 0002:0000b1f8       $unwind$?DoEvent@COPOSCashDrawer@@IEAAXI_K_J@Z 00000001800301f8     CashDrawer.obj
 0002:0000b1f8       $unwind$?DoVerb@?$IOleObjectImpl@VCOPOSCashDrawer@@@ATL@@UEAAJJPEAUtagMSG@@PEAUIOleClientSite@@JPEAUHWND__@@PEBUtagRECT@@@Z 00000001800301f8     CashDrawer.obj
 0002:0000b1f8       $unwind$?HKeyFromString@CRegParser@ATL@@KAPEAUHKEY__@@PEA_W@Z 00000001800301f8     CashDrawer.obj
 0002:0000b1f8       $unwind$?Next@?$CComEnumImpl@UIEnumConnectionPoints@@$1?_GUID_b196b285_bab4_101a_b69c_00aa00341d07@@3U__s_GUID@@BPEAUIConnectionPoint@@V?$_CopyInterface@UIConnectionPoint@@@ATL@@@ATL@@UEAAJKPEAPEAUIConnectionPoint@@PEAK@Z 00000001800301f8     CashDrawer.obj
 0002:0000b1f8       $unwind$?Next@?$CComEnumImpl@UIEnumConnections@@$1?_GUID_b196b287_bab4_101a_b69c_00aa00341d07@@3U__s_GUID@@BUtagCONNECTDATA@@V?$_Copy@UtagCONNECTDATA@@@ATL@@@ATL@@UEAAJKPEAUtagCONNECTDATA@@PEAK@Z 00000001800301f8     CashDrawer.obj
 0002:0000b1f8       $unwind$?SODirectIO@COPOSCashDrawer@@MEAAJJPEAJPEAPEA_W@Z 00000001800301f8     CashDrawer.obj
 0002:0000b1f8       $unwind$?SetControlFocus@CComControlBase@ATL@@QEAAHH@Z 00000001800301f8     CashDrawer.obj
 0002:0000b1f8       $unwind$?ocscpy_s@@YA_NPEA_W_KPEB_W@Z 00000001800301f8     CashDrawer.obj
 0002:0000b1f8       $unwind$?s_EventWindowProc@COPOSCashDrawer@@KA_JPEAUHWND__@@I_K_J@Z 00000001800301f8     CashDrawerImpl.obj
 0002:0000b1f8       $unwind$?AtlWinModuleTerm@ATL@@YAJPEAU_ATL_WIN_MODULE70@1@PEAUHINSTANCE__@@@Z 00000001800301f8     OposVariant.obj
 0002:0000b1f8       $unwind$_recalloc_base     00000001800301f8     libucrt:recalloc.obj
 0002:0000b1f8       $unwind$__acrt_free_locale 00000001800301f8     libucrt:locale_refcounting.obj
 0002:0000b1f8       $unwind$__acrt_lowio_create_handle_array 00000001800301f8     libucrt:osfinfo.obj
 0002:0000b1f8       $unwind$_seh_filter_exe    00000001800301f8     libucrt:exception_filter.obj
 0002:0000b1f8       $unwind$__acrt_stdio_flush_nolock 00000001800301f8     libucrt:fflush.obj
 0002:0000b1f8       $unwind$??$ensure_buffer_is_big_enough@D@formatting_buffer@__crt_stdio_output@@QEAA_N_KAEAV__crt_cached_ptd_host@@@Z 00000001800301f8     libucrt:output.obj
 0002:0000b1f8       $unwind$??$ensure_buffer_is_big_enough@_W@formatting_buffer@__crt_stdio_output@@QEAA_N_KAEAV__crt_cached_ptd_host@@@Z 00000001800301f8     libucrt:output.obj
 0002:0000b1f8       $unwind$__scrt_dllmain_exception_filter 00000001800301f8     LIBCMT:utility.obj
 0002:0000b1f8       $unwind$?GetHandlerSearchState@__FrameHandler3@@SAHPEA_KPEAU_xDISPATCHER_CONTEXT@@PEBU_s_FuncInfo@@@Z 00000001800301f8     libvcruntime:frame.obj
 0002:0000b1f8       $unwind$?Is_bad_exception_allowed@@YAEPEBU_s_ESTypeList@@@Z 00000001800301f8     libvcruntime:frame.obj
 0002:0000b1f8       $unwind$?CatchTryBlock@__FrameHandler3@@SAPEBU_s_TryBlockMapEntry@@PEBU_s_FuncInfo@@H@Z 00000001800301f8     libvcruntime:risctrnsctrl.obj
 0002:0000b20c       $unwind$??_GCRegObject@ATL@@UEAAPEAXI@Z 000000018003020c     CashDrawer.obj
 0002:0000b20c       $unwind$?Add@?$CSimpleArray@GV?$CSimpleArrayEqualHelper@G@ATL@@@ATL@@QEAAHAEBG@Z 000000018003020c     CashDrawer.obj
 0002:0000b20c       $unwind$?Add@?$CSimpleMap@PEA_WPEA_WVCExpansionVectorEqualHelper@ATL@@@ATL@@QEAAHAEBQEA_W0@Z 000000018003020c     CashDrawer.obj
 0002:0000b20c       $unwind$?Add@CComDynamicUnkArray@ATL@@QEAAKPEAUIUnknown@@@Z 000000018003020c     CashDrawer.obj
 0002:0000b20c       $unwind$?Advise@?$IOleObjectImpl@VCOPOSCashDrawer@@@ATL@@UEAAJPEAUIAdviseSink@@PEAK@Z 000000018003020c     CashDrawer.obj
 0002:0000b20c       $unwind$?ClearReplacements@CExpansionVector@ATL@@QEAAJXZ 000000018003020c     CashDrawer.obj
 0002:0000b20c       $unwind$?CreateInstance@?$CComObject@V?$CComEnum@UIEnumConnectionPoints@@$1?_GUID_b196b285_bab4_101a_b69c_00aa00341d07@@3U__s_GUID@@BPEAUIConnectionPoint@@V?$_CopyInterface@UIConnectionPoint@@@ATL@@VCComSingleThreadModel@6@@ATL@@@ATL@@SAJPEAPEAV12@@Z 000000018003020c     CashDrawer.obj
 0002:0000b20c       $unwind$?CreateInstance@?$CComObject@V?$CComEnum@UIEnumConnections@@$1?_GUID_b196b287_bab4_101a_b69c_00aa00341d07@@3U__s_GUID@@BUtagCONNECTDATA@@V?$_Copy@UtagCONNECTDATA@@@ATL@@VCComSingleThreadModel@6@@ATL@@@ATL@@SAJPEAPEAV12@@Z 000000018003020c     CashDrawer.obj
 0002:0000b20c       $unwind$?RegisterServer@CComModule@ATL@@QEAAJHPEBU_GUID@@@Z 000000018003020c     CashDrawer.obj
 0002:0000b20c       $unwind$?UnregisterServer@CComModule@ATL@@QEAAJHPEBU_GUID@@@Z 000000018003020c     CashDrawer.obj
 0002:0000b20c       $unwind$?VTFromRegType@CRegParser@ATL@@KAHPEB_WAEAG@Z 000000018003020c     CashDrawer.obj
 0002:0000b20c       $unwind$??0OposDispParms@@QEAA@PEAVOposVariant@@H@Z 000000018003020c     OposVariant.obj
 0002:0000b20c       $unwind$?SetBSTR_Copy@OposVariant@@QEAAXPEA_WAEAJ@Z 000000018003020c     OposVariant.obj
 0002:0000b20c       $unwind$?SetBSTR_InOutPtr@OposVariant@@QEAA_NPEAPEA_WAEAJ@Z 000000018003020c     OposVariant.obj
 0002:0000b20c       $unwind$?SetDispatch_Ptr@OposVariant@@QEAAXPEAUIDispatch@@AEAJ@Z 000000018003020c     OposVariant.obj
 0002:0000b20c       $unwind$?SetLONG_Ptr@OposVariant@@QEAAXPEAJAEAJ@Z 000000018003020c     OposVariant.obj
 0002:0000b20c       $unwind$?SetString@OposVariant@@QEAAXPEB_WAEAJ@Z 000000018003020c     OposVariant.obj
 0002:0000b20c       $unwind$?Term@CAtlComModule@ATL@@QEAAXXZ 000000018003020c     OposVariant.obj
 0002:0000b20c       $unwind$memcpy_s           000000018003020c     libucrt:cfout.obj
 0002:0000b20c       $unwind$__acrt_getptd      000000018003020c     libucrt:per_thread_data.obj
 0002:0000b20c       $unwind$__acrt_getptd_noexit 000000018003020c     libucrt:per_thread_data.obj
 0002:0000b20c       $unwind$__acrt_getptd_noexit_explicit 000000018003020c     libucrt:per_thread_data.obj
 0002:0000b20c       $unwind$__acrt_execute_initializers 000000018003020c     libucrt:shared_initialization.obj
 0002:0000b20c       $unwind$__acrt_InitializeCriticalSectionEx 000000018003020c     libucrt:winapi_thunks.obj
 0002:0000b20c       $unwind$_close_nolock_internal 000000018003020c     libucrt:close.obj
 0002:0000b20c       $unwind$?value@?$dual_state_global@P6AXPEB_W00I_K@Z@__crt_state_management@@QEAAAEAP6AXPEB_W00I_K@ZAEAV__crt_cached_ptd_host@@@Z 000000018003020c     libucrt:invalid_parameter.obj
 0002:0000b20c       $unwind$??0_LocaleUpdate@@QEAA@QEAU__crt_locale_pointers@@@Z 000000018003020c     libucrt:argv_wildcards.obj
 0002:0000b20c       $unwind$?type_case_Z@?$output_processor@_WV?$string_output_adapter@_W@__crt_stdio_output@@V?$format_validation_base@_WV?$string_output_adapter@_W@__crt_stdio_output@@@2@@__crt_stdio_output@@AEAA_NXZ 000000018003020c     libucrt:output.obj
 0002:0000b20c       $unwind$?type_case_s@?$output_processor@_WV?$string_output_adapter@_W@__crt_stdio_output@@V?$format_validation_base@_WV?$string_output_adapter@_W@__crt_stdio_output@@@2@@__crt_stdio_output@@AEAA_NXZ 000000018003020c     libucrt:output.obj
 0002:0000b20c       $unwind$?type_case_s_compute_narrow_string_length@?$output_processor@_WV?$string_output_adapter@_W@__crt_stdio_output@@V?$format_validation_base@_WV?$string_output_adapter@_W@__crt_stdio_output@@@2@@__crt_stdio_output@@AEAAHH_W@Z 000000018003020c     libucrt:output.obj
 0002:0000b20c       $unwind$?update_locale_slow@__crt_cached_ptd_host@@AEAAXXZ 000000018003020c     libucrt:output.obj
 0002:0000b20c       $unwind$strncpy_s          000000018003020c     libucrt:strncpy_s.obj
 0002:0000b20c       $unwind$wcsncpy_s          000000018003020c     libucrt:wcsncpy_s.obj
 0002:0000b20c       $unwind$_exception_enabled 000000018003020c     libucrt:libm_error.obj
 0002:0000b20c       $unwind$_DllMainCRTStartup 000000018003020c     LIBCMT:dll_dllmain.obj
 0002:0000b20c       $unwind$__vcrt_getptd_noexit 000000018003020c     libvcruntime:per_thread_data.obj
 0002:0000b20c       $unwind$?FrameUnwindToEmptyState@__FrameHandler3@@SAXPEA_KPEAU_xDISPATCHER_CONTEXT@@PEBU_s_FuncInfo@@@Z 000000018003020c     libvcruntime:risctrnsctrl.obj
 0002:0000b20c       $unwind$__vcrt_InitializeCriticalSectionEx 000000018003020c     libvcruntime:winapi_downlevel.obj
 0002:0000b21c       $unwind$?AddTermFunc@CAtlModule@ATL@@QEAAJP6AX_K@Z0@Z 000000018003021c     CashDrawer.obj
 0002:0000b21c       $unwind$?AtlComModuleRegisterServer@ATL@@YAJPEAU_ATL_COM_MODULE70@1@HPEBU_GUID@@@Z 000000018003021c     CashDrawer.obj
 0002:0000b21c       $unwind$?AtlComModuleUnregisterServer@ATL@@YAJPEAU_ATL_COM_MODULE70@1@HPEBU_GUID@@@Z 000000018003021c     CashDrawer.obj
 0002:0000b21c       $unwind$?CreateInstance@?$CComCreator@V?$CComAggObject@VCOPOSCashDrawer@@@ATL@@@ATL@@SAJPEAXAEBU_GUID@@PEAPEAX@Z 000000018003021c     CashDrawer.obj
 0002:0000b21c       $unwind$?CreateInstance@?$CComCreator@V?$CComObjectCached@VCComClassFactory@ATL@@@ATL@@@ATL@@SAJPEAXAEBU_GUID@@PEAPEAX@Z 000000018003021c     CashDrawer.obj
 0002:0000b21c       $unwind$?GetPagesHelper@?$ISpecifyPropertyPagesImpl@VCOPOSCashDrawer@@@ATL@@IEAAJPEAUtagCAUUID@@PEBUATL_PROPMAP_ENTRY@2@@Z 000000018003021c     CashDrawer.obj
 0002:0000b21c       $unwind$?Term@CAtlModule@ATL@@QEAAXXZ 000000018003021c     CashDrawer.obj
 0002:0000b21c       $unwind$??_Estringdispid@CComTypeInfoHolder@ATL@@QEAAPEAXI@Z 000000018003021c     OposVariant.obj
 0002:0000b21c       $unwind$?initialize_stdio_handles_nolock@@YAXXZ 000000018003021c     libucrt:ioinit.obj
 0002:0000b21c       $unwind$__acrt_initialize_stdio 000000018003021c     libucrt:_file.obj
 0002:0000b21c       $unwind$__GSHandlerCheck_EH 000000018003021c     LIBCMT:gshandlereh.obj
 0002:0000b21c       $unwind$__GSHandlerCheck_SEH 000000018003021c     LIBCMT:gshandlerseh.obj
 0002:0000b21c       $unwind$??$TypeMatchHelper@V__FrameHandler3@@@@YAHPEBU_s_HandlerType@@PEBU_s_CatchableType@@PEBU_s_ThrowInfo@@@Z 000000018003021c     libvcruntime:frame.obj
 0002:0000b21c       $unwind$??$TypeMatchHelper@V__FrameHandler4@@@@YAHPEAUHandlerType4@FH4@@PEBU_s_CatchableType@@PEBU_s_ThrowInfo@@@Z 000000018003021c     libvcruntime:frame.obj
 0002:0000b234       $unwind$??0?$CComContainedObject@VCOPOSCashDrawer@@@ATL@@QEAA@PEAX@Z 0000000180030234     CashDrawer.obj
 0002:0000b234       $unwind$??1?$CComEnumImpl@UIEnumConnectionPoints@@$1?_GUID_b196b285_bab4_101a_b69c_00aa00341d07@@3U__s_GUID@@BPEAUIConnectionPoint@@V?$_CopyInterface@UIConnectionPoint@@@ATL@@@ATL@@UEAA@XZ 0000000180030234     CashDrawer.obj
 0002:0000b234       $unwind$??1?$CComEnumImpl@UIEnumConnections@@$1?_GUID_b196b287_bab4_101a_b69c_00aa00341d07@@3U__s_GUID@@BUtagCONNECTDATA@@V?$_Copy@UtagCONNECTDATA@@@ATL@@@ATL@@UEAA@XZ 0000000180030234     CashDrawer.obj
 0002:0000b234       $unwind$??_G?$CComAggObject@VCOPOSCashDrawer@@@ATL@@UEAAPEAXI@Z 0000000180030234     CashDrawer.obj
 0002:0000b234       $unwind$??_G?$CComContainedObject@VCOPOSCashDrawer@@@ATL@@UEAAPEAXI@Z 0000000180030234     CashDrawer.obj
 0002:0000b234       $unwind$??_G?$CComObject@V?$CComEnum@UIEnumConnectionPoints@@$1?_GUID_b196b285_bab4_101a_b69c_00aa00341d07@@3U__s_GUID@@BPEAUIConnectionPoint@@V?$_CopyInterface@UIConnectionPoint@@@ATL@@VCComSingleThreadModel@6@@ATL@@@ATL@@UEAAPEAXI@Z 0000000180030234     CashDrawer.obj
 0002:0000b234       $unwind$??_G?$CComObject@V?$CComEnum@UIEnumConnections@@$1?_GUID_b196b287_bab4_101a_b69c_00aa00341d07@@3U__s_GUID@@BUtagCONNECTDATA@@V?$_Copy@UtagCONNECTDATA@@@ATL@@VCComSingleThreadModel@6@@ATL@@@ATL@@UEAAPEAXI@Z 0000000180030234     CashDrawer.obj
 0002:0000b234       $unwind$??_G?$CComObject@VCOPOSCashDrawer@@@ATL@@UEAAPEAXI@Z 0000000180030234     CashDrawer.obj
 0002:0000b234       $unwind$??_G?$CComObjectCached@VCComClassFactory@ATL@@@ATL@@UEAAPEAXI@Z 0000000180030234     CashDrawer.obj
 0002:0000b234       $unwind$??_GCComClassFactory@ATL@@UEAAPEAXI@Z 0000000180030234     CashDrawer.obj
 0002:0000b234       $unwind$??_GCComModule@ATL@@UEAAPEAXI@Z 0000000180030234     CashDrawer.obj
 0002:0000b234       $unwind$?DeleteSubKey@CRegKey@ATL@@QEAAJPEB_W@Z 0000000180030234     CashDrawer.obj
 0002:0000b234       $unwind$?IOleObject_SetClientSite@CComControlBase@ATL@@QEAAJPEAUIOleClientSite@@@Z 0000000180030234     CashDrawer.obj
 0002:0000b234       $unwind$?InitNew@?$IPersistStorageImpl@VCOPOSCashDrawer@@@ATL@@UEAAJPEAUIStorage@@@Z 0000000180030234     CashDrawer.obj
 0002:0000b234       $unwind$?IsDirty@?$IPersistStorageImpl@VCOPOSCashDrawer@@@ATL@@UEAAJXZ 0000000180030234     CashDrawer.obj
 0002:0000b234       $unwind$?Release@?$CComAggObject@VCOPOSCashDrawer@@@ATL@@UEAAKXZ 0000000180030234     CashDrawer.obj
 0002:0000b234       $unwind$?Release@?$CComObject@V?$CComEnum@UIEnumConnectionPoints@@$1?_GUID_b196b285_bab4_101a_b69c_00aa00341d07@@3U__s_GUID@@BPEAUIConnectionPoint@@V?$_CopyInterface@UIConnectionPoint@@@ATL@@VCComSingleThreadModel@6@@ATL@@@ATL@@UEAAKXZ 0000000180030234     CashDrawer.obj
 0002:0000b234       $unwind$?Release@?$CComObject@V?$CComEnum@UIEnumConnections@@$1?_GUID_b196b287_bab4_101a_b69c_00aa00341d07@@3U__s_GUID@@BUtagCONNECTDATA@@V?$_Copy@UtagCONNECTDATA@@@ATL@@VCComSingleThreadModel@6@@ATL@@@ATL@@UEAAKXZ 0000000180030234     CashDrawer.obj
 0002:0000b234       $unwind$?Release@?$CComObject@VCOPOSCashDrawer@@@ATL@@UEAAKXZ 0000000180030234     CashDrawer.obj
 0002:0000b234       $unwind$?SOStatusUpdate@COPOSCashDrawer@@MEAAJJ@Z 0000000180030234     CashDrawer.obj
 0002:0000b234       $unwind$?SetAdvise@?$IViewObjectExImpl@VCOPOSCashDrawer@@@ATL@@UEAAJKKPEAUIAdviseSink@@@Z 0000000180030234     CashDrawer.obj
 0002:0000b234       $unwind$?Term@CComModule@ATL@@QEAAXXZ 0000000180030234     CashDrawer.obj
 0002:0000b234       $unwind$DllMain            0000000180030234     CashDrawer.obj
 0002:0000b234       $unwind$??1?$IConnectionPointImpl@VCOPOSCashDrawer@@$1?DIID__IOPOSCashDrawerEvents@@3U_GUID@@BVCComDynamicUnkArray@ATL@@@ATL@@QEAA@XZ 0000000180030234     CashDrawerImpl.obj
 0002:0000b234       $unwind$??1?$IConnectionPointImpl@VCOPOSCashDrawer@@$1?IID_IPropertyNotifySink@@3U_GUID@@BVCComDynamicUnkArray@ATL@@@ATL@@QEAA@XZ 0000000180030234     CashDrawerImpl.obj
 0002:0000b234       $unwind$?EventWindowProc@COPOSCashDrawer@@IEAA_JI_K_J@Z 0000000180030234     CashDrawerImpl.obj
 0002:0000b234       $unwind$?SetBSTR@OposVariant@@QEAAXPEA_WAEAJ@Z 0000000180030234     OposVariant.obj
 0002:0000b234       $unwind$?SetLONG@OposVariant@@QEAAXJ@Z 0000000180030234     OposVariant.obj
 0002:0000b234       $unwind$?SetVARIANT_BOOL@OposVariant@@QEAAXF@Z 0000000180030234     OposVariant.obj
 0002:0000b234       $unwind$??$common_initialize_environment_nolock@D@@YAHXZ 0000000180030234     libucrt:environment_initialization.obj
 0002:0000b234       $unwind$_realloc_base      0000000180030234     libucrt:realloc_base.obj
 0002:0000b234       $unwind$?replace_current_thread_locale_nolock@@YAXQEAU__acrt_ptd@@QEAU__crt_locale_data@@@Z 0000000180030234     libucrt:per_thread_data.obj
 0002:0000b234       $unwind$__acrt_execute_uninitializers 0000000180030234     libucrt:shared_initialization.obj
 0002:0000b234       $unwind$__acrt_LocaleNameToLCID 0000000180030234     libucrt:winapi_thunks.obj
 0002:0000b234       $unwind$?free_crt_array_internal@@YAXQEAPEBX_K@Z 0000000180030234     libucrt:inittime.obj
 0002:0000b234       $unwind$_updatetlocinfoEx_nolock 0000000180030234     libucrt:locale_refcounting.obj
 0002:0000b234       $unwind$__acrt_uninitialize_lowio 0000000180030234     libucrt:ioinit.obj
 0002:0000b234       $unwind$?setSBCS@@YAXPEAU__crt_multibyte_data@@@Z 0000000180030234     libucrt:mbctype.obj
 0002:0000b234       $unwind$_initterm_e        0000000180030234     libucrt:initterm.obj
 0002:0000b234       $unwind$??0CAtlBaseModule@ATL@@QEAA@XZ 0000000180030234     atls:atlbase.obj
 0002:0000b234       $unwind$??$GetProcAddressAll@P6AP6A_JPEAUHWND__@@I_K_J@ZPEAUAtlThunkData_t@@@Z@@YAP6AP6A_JPEAUHWND__@@I_K_J@ZPEAUAtlThunkData_t@@@ZPEAP6AP6A_J0I12@Z3@Z@Z 0000000180030234     atls:atlthunk.obj
 0002:0000b234       $unwind$??$GetProcAddressAll@P6APEAUAtlThunkData_t@@XZ@@YAP6APEAUAtlThunkData_t@@XZPEAP6APEAU0@XZ@Z 0000000180030234     atls:atlthunk.obj
 0002:0000b234       $unwind$??$GetProcAddressAll@P6AXPEAUAtlThunkData_t@@@Z@@YAP6AXPEAUAtlThunkData_t@@@ZPEAP6AX0@Z@Z 0000000180030234     atls:atlthunk.obj
 0002:0000b234       $unwind$??$GetProcAddressAll@P6AXPEAUAtlThunkData_t@@PEAX_K@Z@@YAP6AXPEAUAtlThunkData_t@@PEAX_K@ZPEAP6AX012@Z@Z 0000000180030234     atls:atlthunk.obj
 0002:0000b234       $unwind$?__AllocStdCallThunk_cmn@@YAPEAXXZ 0000000180030234     atls:atlthunk.obj
 0002:0000b234       $unwind$?__InitializeThunkPool@@YAHXZ 0000000180030234     atls:atlthunk.obj
 0002:0000b234       $unwind$AtlThunk_DataToCode 0000000180030234     atls:atlthunk.obj
 0002:0000b234       $unwind$_RTC_Initialize    0000000180030234     LIBCMT:initsect.obj
 0002:0000b234       $unwind$_RTC_Terminate     0000000180030234     LIBCMT:initsect.obj
 0002:0000b234       $unwind$?__scrt_initialize_thread_safe_statics@@YAHXZ 0000000180030234     LIBCMT:thread_safe_statics.obj
 0002:0000b234       $unwind$??_Gbad_alloc@std@@UEAAPEAXI@Z 0000000180030234     LIBCMT:throw_bad_alloc.obj
 0002:0000b234       $unwind$??_Gbad_array_new_length@std@@UEAAPEAXI@Z 0000000180030234     LIBCMT:throw_bad_alloc.obj
 0002:0000b234       $unwind$??_Gexception@std@@UEAAPEAXI@Z 0000000180030234     LIBCMT:throw_bad_alloc.obj
 0002:0000b234       $unwind$__C_specific_handler_noexcept 0000000180030234     libvcruntime:chandler_noexcept.obj
 0002:0000b234       $unwind$__FrameUnwindFilter 0000000180030234     libvcruntime:ehhelpers.obj
 0002:0000b234       $unwind$?SetUnwindTryBlock@__FrameHandler3@@SAXPEA_KPEAU_xDISPATCHER_CONTEXT@@PEBU_s_FuncInfo@@H@Z 0000000180030234     libvcruntime:ehstate.obj
 0002:0000b234       $unwind$??_Gbad_exception@std@@UEAAPEAXI@Z 0000000180030234     libvcruntime:frame.obj
 0002:0000b234       $unwind$?ExFilterRethrow@@YAHPEAU_EXCEPTION_POINTERS@@PEAUEHExceptionRecord@@PEAH@Z 0000000180030234     libvcruntime:frame.obj
 0002:0000b234       $unwind$?ExFilterRethrowFH4@@YAHPEAU_EXCEPTION_POINTERS@@PEAUEHExceptionRecord@@HPEAH@Z 0000000180030234     libvcruntime:frame.obj
 0002:0000b234       $unwind$_FindAndUnlinkFrame 0000000180030234     libvcruntime:risctrnsctrl.obj
 0002:0000b234       $unwind$__vcrt_FlsSetValue 0000000180030234     libvcruntime:winapi_downlevel.obj
 0002:0000b240       $unwind$?ChangeBSTR@OposVariant@@QEAAXPEAPEA_WAEAJ@Z 0000000180030240     OposVariant.obj
 0002:0000b240       $unwind$?ChangeLONG@OposVariant@@QEAAXPEAJAEAJ@Z 0000000180030240     OposVariant.obj
 0002:0000b240       $unwind$?x_ismbbtype_l@@YAHPEAU__crt_locale_pointers@@IHH@Z 0000000180030240     libucrt:ismbbyte.obj
 0002:0000b250       $unwind$swprintf_s         0000000180030250     CashDrawer.obj
 0002:0000b260       $unwind$?_AtlVerifyStackAvailable@_ATL_SAFE_ALLOCA_IMPL@ATL@@YA_N_K@Z 0000000180030260     CashDrawer.obj
 0002:0000b28c       $unwind$?filt$0@?0??_AtlVerifyStackAvailable@_ATL_SAFE_ALLOCA_IMPL@ATL@@YA_N_K@Z@4HA 000000018003028c     CashDrawer.obj
 0002:0000b28c       $unwind$_query_new_handler$fin$0 000000018003028c     libucrt:new_handler.obj
 0002:0000b28c       $unwind$?fin$0@?0???$?RV<lambda_0ae27a3a962d80f24befdcbee591983d>@@AEAV<lambda_8d0ee55de4b1038c4002e0adecdf1839>@@V<lambda_dc504788e8f1664fe9b84e20bfb512f2>@@@?$__crt_seh_guarded_call@X@@QEAAX$$QEAV<lambda_0ae27a3a962d80f24befdcbee591983d>@@AEAV<lambda_8d0ee55de4b1038c4002e0adecdf1839>@@$$QEAV<lambda_dc504788e8f1664fe9b84e20bfb512f2>@@@Z@4HA 000000018003028c     libucrt:per_thread_data.obj
 0002:0000b28c       $unwind$?fin$0@?0???$?RV<lambda_2d41944a1d46af3157314b8a01080d33>@@AEAV<lambda_8f455de75cd7d7f24b4096f044d8b9e6>@@V<lambda_aa500f224e6afead328df44964fe2772>@@@?$__crt_seh_guarded_call@X@@QEAAX$$QEAV<lambda_2d41944a1d46af3157314b8a01080d33>@@AEAV<lambda_8f455de75cd7d7f24b4096f044d8b9e6>@@$$QEAV<lambda_aa500f224e6afead328df44964fe2772>@@@Z@4HA 000000018003028c     libucrt:per_thread_data.obj
 0002:0000b28c       $unwind$?fin$0@?0???$?RV<lambda_aa87e3671a710a21b5dc78c0bdf72e11>@@AEAV<lambda_92619d2358a28f41a33ba319515a20b9>@@V<lambda_6992ecaafeb10aed2b74cb1fae11a551>@@@?$__crt_seh_guarded_call@X@@QEAAX$$QEAV<lambda_aa87e3671a710a21b5dc78c0bdf72e11>@@AEAV<lambda_92619d2358a28f41a33ba319515a20b9>@@$$QEAV<lambda_6992ecaafeb10aed2b74cb1fae11a551>@@@Z@4HA 000000018003028c     libucrt:per_thread_data.obj
 0002:0000b28c       $unwind$?fin$0@?0???$?RV<lambda_f2e299630e499de9f9a165e60fcd3db5>@@AEAV<lambda_2ae9d31cdba2644fcbeaf08da7c24588>@@V<lambda_40d01ff24d0e7b3814fdbdcee8eab3c7>@@@?$__crt_seh_guarded_call@X@@QEAAX$$QEAV<lambda_f2e299630e499de9f9a165e60fcd3db5>@@AEAV<lambda_2ae9d31cdba2644fcbeaf08da7c24588>@@$$QEAV<lambda_40d01ff24d0e7b3814fdbdcee8eab3c7>@@@Z@4HA 000000018003028c     libucrt:per_thread_data.obj
 0002:0000b28c       $unwind$__acrt_update_thread_locale_data$fin$0 000000018003028c     libucrt:locale_refcounting.obj
 0002:0000b28c       $unwind$?fin$0@?0???$?RV<lambda_410d79af7f07d98d83a3f525b3859a53>@@AEAV<lambda_3e16ef9562a7dcce91392c22ab16ea36>@@V<lambda_38119f0e861e05405d8a144b9b982f0a>@@@?$__crt_seh_guarded_call@X@@QEAAX$$QEAV<lambda_410d79af7f07d98d83a3f525b3859a53>@@AEAV<lambda_3e16ef9562a7dcce91392c22ab16ea36>@@$$QEAV<lambda_38119f0e861e05405d8a144b9b982f0a>@@@Z@4HA 000000018003028c     libucrt:wsetlocale.obj
 0002:0000b28c       $unwind$?fin$0@?0???$?RV<lambda_ad8af0d99a0adf03d037d7dffe354bb5>@@AEAV<lambda_c9ba49e555ba839a7b07aa3fbecb7617>@@V<lambda_2f1ebd5d68526518146ae959c9e734c8>@@@?$__crt_seh_guarded_call@H@@QEAAH$$QEAV<lambda_ad8af0d99a0adf03d037d7dffe354bb5>@@AEAV<lambda_c9ba49e555ba839a7b07aa3fbecb7617>@@$$QEAV<lambda_2f1ebd5d68526518146ae959c9e734c8>@@@Z@4HA 000000018003028c     libucrt:close.obj
 0002:0000b28c       $unwind$?fin$0@?0???$?RV<lambda_a37b2b86f63e897a80ea819b0eb08c01>@@AEAV<lambda_38ce7e780aa69e748d6df282ebc68efe>@@V<lambda_99fb1378e971ab6e7edea83e3a7a83a2>@@@?$__crt_seh_guarded_call@H@@QEAAH$$QEAV<lambda_a37b2b86f63e897a80ea819b0eb08c01>@@AEAV<lambda_38ce7e780aa69e748d6df282ebc68efe>@@$$QEAV<lambda_99fb1378e971ab6e7edea83e3a7a83a2>@@@Z@4HA 000000018003028c     libucrt:commit.obj
 0002:0000b28c       $unwind$__acrt_initialize_lowio$fin$0 000000018003028c     libucrt:ioinit.obj
 0002:0000b28c       $unwind$__acrt_lowio_ensure_fh_exists$fin$0 000000018003028c     libucrt:osfinfo.obj
 0002:0000b28c       $unwind$?fin$0@?0???$?RV<lambda_efdfa57d1f175319df784efa44bb7b81>@@AEAV<lambda_5f0a4c1567f8adc6734073e5d1e1b35c>@@V<lambda_2e8a7d3640ea6ccb4c2413664c2db6fd>@@@?$__crt_seh_guarded_call@X@@QEAAX$$QEAV<lambda_efdfa57d1f175319df784efa44bb7b81>@@AEAV<lambda_5f0a4c1567f8adc6734073e5d1e1b35c>@@$$QEAV<lambda_2e8a7d3640ea6ccb4c2413664c2db6fd>@@@Z@4HA 000000018003028c     libucrt:mbctype.obj
 0002:0000b28c       $unwind$?fin$0@?0??update_thread_multibyte_data_internal@@YAPEAU__crt_multibyte_data@@QEAU__acrt_ptd@@QEAPEAU1@@Z@4HA 000000018003028c     libucrt:mbctype.obj
 0002:0000b28c       $unwind$?fin$0@?0???$?RV<lambda_450d765d439847d4c735a33c368b5fc0>@@AEAV<lambda_44731a7d0e6d81c3e6aa82d741081786>@@V<lambda_601a2a7da3b7a96e9554ac7215c4b07c>@@@?$__crt_seh_guarded_call@P6AXH@Z@@QEAAP6AXH@Z$$QEAV<lambda_450d765d439847d4c735a33c368b5fc0>@@AEAV<lambda_44731a7d0e6d81c3e6aa82d741081786>@@$$QEAV<lambda_601a2a7da3b7a96e9554ac7215c4b07c>@@@Z@4HA 000000018003028c     libucrt:signal.obj
 0002:0000b28c       $unwind$raise$fin$0        000000018003028c     libucrt:signal.obj
 0002:0000b28c       $unwind$?filt$0@?0???R<lambda_6e4b09c48022b2350581041d5f6b0c4c>@@QEBA@XZ@4HA 000000018003028c     libucrt:exit.obj
 0002:0000b28c       $unwind$?fin$0@?0???$?RV<lambda_d80eeec6fff315bfe5c115232f3240e3>@@AEAV<lambda_6e4b09c48022b2350581041d5f6b0c4c>@@V<lambda_2358e3775559c9db80273638284d5e45>@@@?$__crt_seh_guarded_call@X@@QEAAX$$QEAV<lambda_d80eeec6fff315bfe5c115232f3240e3>@@AEAV<lambda_6e4b09c48022b2350581041d5f6b0c4c>@@$$QEAV<lambda_2358e3775559c9db80273638284d5e45>@@@Z@4HA 000000018003028c     libucrt:exit.obj
 0002:0000b28c       $unwind$?fin$0@?0???$?RV<lambda_638799b9deba96c50f710eeac98168cd>@@AEAV<lambda_22ebabd17bc4fa466a2aca6d8deb888d>@@V<lambda_a6f7d7db0129f75315ebf26d50c089f1>@@@?$__crt_seh_guarded_call@H@@QEAAH$$QEAV<lambda_638799b9deba96c50f710eeac98168cd>@@AEAV<lambda_22ebabd17bc4fa466a2aca6d8deb888d>@@$$QEAV<lambda_a6f7d7db0129f75315ebf26d50c089f1>@@@Z@4HA 000000018003028c     libucrt:onexit.obj
 0002:0000b28c       $unwind$?fin$0@?0???$?RV<lambda_7777bce6b2f8c936911f934f8298dc43>@@AEAV<lambda_f03950bc5685219e0bcd2087efbe011e>@@V<lambda_3883c3dff614d5e0c5f61bb1ac94921c>@@@?$__crt_seh_guarded_call@H@@QEAAH$$QEAV<lambda_7777bce6b2f8c936911f934f8298dc43>@@AEAV<lambda_f03950bc5685219e0bcd2087efbe011e>@@$$QEAV<lambda_3883c3dff614d5e0c5f61bb1ac94921c>@@@Z@4HA 000000018003028c     libucrt:onexit.obj
 0002:0000b28c       $unwind$_fcloseall$fin$0   000000018003028c     libucrt:closeall.obj
 0002:0000b28c       $unwind$?fin$0@?0???$?RV<lambda_842d9ff0dc9ef11c61343bbaebe7f885>@@AEAV<lambda_c5860995281e5c4ce005b3de8f5874ee>@@V<lambda_d90129c13df834fdcbf8d2b88dafcf2d>@@@?$__crt_seh_guarded_call@X@@QEAAX$$QEAV<lambda_842d9ff0dc9ef11c61343bbaebe7f885>@@AEAV<lambda_c5860995281e5c4ce005b3de8f5874ee>@@$$QEAV<lambda_d90129c13df834fdcbf8d2b88dafcf2d>@@@Z@4HA 000000018003028c     libucrt:fflush.obj
 0002:0000b28c       $unwind$?fin$0@?0???$?RV<lambda_886d6c58226a84441f68b9f2b8217b83>@@AEAV<lambda_ab61a845afdef5b7c387490eaf3616ee>@@V<lambda_f7f22ab5edc0698d5f6905b0d3f44752>@@@?$__crt_seh_guarded_call@X@@QEAAX$$QEAV<lambda_886d6c58226a84441f68b9f2b8217b83>@@AEAV<lambda_ab61a845afdef5b7c387490eaf3616ee>@@$$QEAV<lambda_f7f22ab5edc0698d5f6905b0d3f44752>@@@Z@4HA 000000018003028c     libucrt:fflush.obj
 0002:0000b28c       $unwind$_ctrlfp$filt$0     000000018003028c     libucrt:fpctrl.obj
 0002:0000b28c       $unwind$common_control87$filt$0 000000018003028c     libucrt:ieee.obj
 0002:0000b28c       $unwind$?fin$0@?0??dllmain_crt_process_attach@@YAHQEAUHINSTANCE__@@QEAX@Z@4HA 000000018003028c     LIBCMT:dll_dllmain.obj
 0002:0000b28c       $unwind$?fin$0@?0??dllmain_crt_process_detach@@YAH_N@Z@4HA 000000018003028c     LIBCMT:dll_dllmain.obj
 0002:0000b28c       $unwind$?fin$1@?0??dllmain_crt_process_detach@@YAH_N@Z@4HA 000000018003028c     LIBCMT:dll_dllmain.obj
 0002:0000b28c       $unwind$_IsNonwritableInCurrentImage$filt$0 000000018003028c     LIBCMT:pesect.obj
 0002:0000b28c       $unwind$?filt$0@?0??CxxCallCatchBlock@__FrameHandler3@@SAPEAXPEAU_EXCEPTION_RECORD@@@Z@4HA 000000018003028c     libvcruntime:frame.obj
 0002:0000b28c       $unwind$?filt$0@?0??CxxCallCatchBlock@__FrameHandler4@@SAPEAXPEAU_EXCEPTION_RECORD@@@Z@4HA 000000018003028c     libvcruntime:frame.obj
 0002:0000b28c       $unwind$?filt$0@?0??FrameUnwindToState@__FrameHandler3@@SAXPEA_KPEAU_xDISPATCHER_CONTEXT@@PEBU_s_FuncInfo@@H@Z@4HA 000000018003028c     libvcruntime:frame.obj
 0002:0000b28c       $unwind$?fin$1@?0??FrameUnwindToState@__FrameHandler3@@SAXPEA_KPEAU_xDISPATCHER_CONTEXT@@PEBU_s_FuncInfo@@H@Z@4HA 000000018003028c     libvcruntime:frame.obj
 0002:0000b294       $unwind$?AtlInternalOleLoadFromStream@ATL@@YAJPEAUIStream@@AEBU_GUID@@PEAPEAXTClassesAllowedInStream@1@K@Z 0000000180030294     CashDrawer.obj
 0002:0000b2b0       $unwind$?ReadFromStream@CComBSTR@ATL@@QEAAJPEAUIStream@@@Z 00000001800302b0     CashDrawer.obj
 0002:0000b2b0       $unwind$_configure_narrow_argv 00000001800302b0     libucrt:argv_parsing.obj
 0002:0000b2c4       $unwind$?WriteToStream@CComVariant@ATL@@QEAAJPEAUIStream@@@Z 00000001800302c4     CashDrawer.obj
 0002:0000b2d8       $unwind$?RegOpenKeyExW@CAtlTransactionManager@ATL@@QEAAJPEAUHKEY__@@PEB_WKKPEAPEAU3@@Z 00000001800302d8     CashDrawer.obj
 0002:0000b2d8       $unwind$?WriteToStream@CComVariant@ATL@@QEAAJPEAUIStream@@G@Z 00000001800302d8     CashDrawer.obj
 0002:0000b2d8       $unwind$__dcrt_write_console 00000001800302d8     libucrt:initcon.obj
 0002:0000b2d8       $unwind$??$__acrt_convert_wcs_mbs_cp@_WDV<lambda_f788ae46380686e8b737efdd8c720d07>@@U__crt_win32_buffer_no_resizing@@@@YAHQEB_WAEAV?$__crt_win32_buffer@DU__crt_win32_buffer_no_resizing@@@@AEBV<lambda_f788ae46380686e8b737efdd8c720d07>@@I@Z 00000001800302d8     libucrt:getmodulefilenamea.obj
 0002:0000b2ec       $unwind$?ReadFromStream@CComVariant@ATL@@QEAAJPEAUIStream@@GTClassesAllowedInStream@2@K@Z 00000001800302ec     CashDrawer.obj
 0002:0000b304       $unwind$?GetSizeMax@CComVariant@ATL@@QEBAJPEAT_ULARGE_INTEGER@@@Z 0000000180030304     CashDrawer.obj
 0002:0000b318       $unwind$?RegCreateKeyExW@CAtlTransactionManager@ATL@@QEAAJPEAUHKEY__@@PEB_WKPEA_WKKQEAU_SECURITY_ATTRIBUTES@@PEAPEAU3@PEAK@Z 0000000180030318     CashDrawer.obj
 0002:0000b32c       $unwind$?GetGITPtr@CAtlModule@ATL@@UEAAJPEAPEAUIGlobalInterfaceTable@@@Z 000000018003032c     CashDrawer.obj
 0002:0000b32c       $unwind$?RegDeleteKeyW@CAtlTransactionManager@ATL@@QEAAJPEAUHKEY__@@PEB_W@Z 000000018003032c     CashDrawer.obj
 0002:0000b32c       $unwind$?getStateFromIterators@UWMap4@FH4@@SAHAEBViterator@12@H0H0@Z 000000018003032c     libvcruntime:frame.obj
 0002:0000b33c       $unwind$?AtlHiMetricToPixel@ATL@@YAXPEBUtagSIZE@@PEAU2@@Z 000000018003033c     CashDrawer.obj
 0002:0000b33c       $unwind$?AtlInternalQueryInterface@ATL@@YAJPEAXPEBU_ATL_INTMAP_ENTRY@1@AEBU_GUID@@PEAPEAX@Z 000000018003033c     CashDrawer.obj
 0002:0000b354       $unwind$?Append@CParseBuffer@CRegParser@ATL@@QEAAHPEB_WH@Z 0000000180030354     CashDrawer.obj
 0002:0000b354       $unwind$?AtlComModuleGetClassObject@ATL@@YAJPEAU_ATL_COM_MODULE70@1@AEBU_GUID@@1PEAPEAX@Z 0000000180030354     CashDrawer.obj
 0002:0000b354       $unwind$?GetClassObject@CComModule@ATL@@QEAAJAEBU_GUID@@0PEAPEAX@Z 0000000180030354     CashDrawer.obj
 0002:0000b354       $unwind$?NextToken@CRegParser@ATL@@IEAAJPEA_W@Z 0000000180030354     CashDrawer.obj
 0002:0000b354       $unwind$?StartWindowProc@?$CWindowImplBaseT@VCWindow@ATL@@V?$CWinTraits@$0FGAAAAAA@$0A@@2@@ATL@@SA_JPEAUHWND__@@I_K_J@Z 0000000180030354     CashDrawer.obj
 0002:0000b354       $unwind$?fp_format_f_internal@@YAHQEAD_KHQEAU_strflt@@_NAEAV__crt_cached_ptd_host@@@Z 0000000180030354     libucrt:cvt.obj
 0002:0000b354       $unwind$__acrt_DownlevelLocaleNameToLCID 0000000180030354     libucrt:lcidtoname_downlevel.obj
 0002:0000b354       $unwind$??R<lambda_f03950bc5685219e0bcd2087efbe011e>@@QEBAHXZ 0000000180030354     libucrt:onexit.obj
 0002:0000b36c       $unwind$?AtlRegisterClassCategoriesHelper@ATL@@YAJAEBU_GUID@@PEBU_ATL_CATMAP_ENTRY@1@H@Z 000000018003036c     CashDrawer.obj
 0002:0000b390       $unwind$?AtlLoadTypeLib@ATL@@YAJPEAUHINSTANCE__@@PEB_WPEAPEA_WPEAPEAUITypeLib@@@Z 0000000180030390     CashDrawer.obj
 0002:0000b3b0       $unwind$?AtlRegisterTypeLib@ATL@@YAJPEAUHINSTANCE__@@PEB_W@Z 00000001800303b0     CashDrawer.obj
 0002:0000b3cc       $unwind$?AtlUnRegisterTypeLib@ATL@@YAJPEAUHINSTANCE__@@PEB_W@Z 00000001800303cc     CashDrawer.obj
 0002:0000b3d4       $unwind$?GetTI@CComTypeInfoHolder@ATL@@QEAAJK@Z 00000001800303d4     CashDrawer.obj
 0002:0000b3d4       $unwind$?RecurseDeleteKey@CRegKey@ATL@@QEAAJPEB_W@Z 00000001800303d4     CashDrawer.obj
 0002:0000b3f4       $unwind$?UpdateRegistryFromResource@CAtlModule@ATL@@QEAAJIHPEAU_ATL_REGMAP_ENTRY@2@@Z 00000001800303f4     CashDrawer.obj
 0002:0000b3f4       $unwind$?UpdateRegistryFromResource@CAtlModule@ATL@@QEAAJPEB_WHPEAU_ATL_REGMAP_ENTRY@2@@Z 00000001800303f4     CashDrawer.obj
 0002:0000b414       $unwind$?Lookup@?$CSimpleMap@PEA_WPEA_WVCExpansionVectorEqualHelper@ATL@@@ATL@@QEBAPEA_WAEBQEA_W@Z 0000000180030414     CashDrawer.obj
 0002:0000b414       $unwind$_free_osfhnd       0000000180030414     libucrt:osfinfo.obj
 0002:0000b414       $unwind$__std_exception_copy 0000000180030414     libvcruntime:std_exception.obj
 0002:0000b428       $unwind$?Add@CExpansionVector@ATL@@QEAAHPEB_W0@Z 0000000180030428     CashDrawer.obj
 0002:0000b440       $unwind$?PreProcessBuffer@CRegParser@ATL@@QEAAJPEA_WPEAPEA_W@Z 0000000180030440     CashDrawer.obj
 0002:0000b464       $unwind$?RegisterBuffer@CRegParser@ATL@@QEAAJPEA_WH@Z 0000000180030464     CashDrawer.obj
 0002:0000b484       $unwind$?AddValue@CRegParser@ATL@@IEAAJAEAVCRegKey@2@PEB_WPEA_W@Z 0000000180030484     CashDrawer.obj
 0002:0000b4a4       $unwind$?RegisterSubkeys@CRegParser@ATL@@IEAAJPEA_WPEAUHKEY__@@HH@Z 00000001800304a4     CashDrawer.obj
 0002:0000b4c4       $unwind$?SkipAssignment@CRegParser@ATL@@IEAAJPEA_W@Z 00000001800304c4     CashDrawer.obj
 0002:0000b4e0       $unwind$?RegisterFromResource@CRegObject@ATL@@IEAAJPEB_W00H@Z 00000001800304e0     CashDrawer.obj
 0002:0000b500       $unwind$?Cleanup@CComTypeInfoHolder@ATL@@SAX_K@Z 0000000180030500     CashDrawer.obj
 0002:0000b500       $unwind$_free_base         0000000180030500     libucrt:free_base.obj
 0002:0000b500       $unwind$?destroy_fls@@YAXPEAX@Z 0000000180030500     libucrt:per_thread_data.obj
 0002:0000b500       $unwind$__acrt_locale_free_numeric 0000000180030500     libucrt:initnum.obj
 0002:0000b500       $unwind$__acrt_locale_free_lc_time_if_unreferenced 0000000180030500     libucrt:locale_refcounting.obj
 0002:0000b500       $unwind$AtlThunk_FreeData  0000000180030500     atls:atlthunk.obj
 0002:0000b508       $unwind$?GetIDsOfNames@CComTypeInfoHolder@ATL@@QEAAJAEBU_GUID@@PEAPEA_WIKPEAJ@Z 0000000180030508     CashDrawer.obj
 0002:0000b524       $unwind$?LoadNameCache@CComTypeInfoHolder@ATL@@QEAAJPEAUITypeInfo@@@Z 0000000180030524     CashDrawer.obj
 0002:0000b53c       $unwind$?WindowProc@?$CWindowImplBaseT@VCWindow@ATL@@V?$CWinTraits@$0FGAAAAAA@$0A@@2@@ATL@@SA_JPEAUHWND__@@I_K_J@Z 000000018003053c     CashDrawer.obj
 0002:0000b554       $unwind$?atlCreate@?$CWindowImplBaseT@VCWindow@ATL@@V?$CWinTraits@$0FGAAAAAA@$0A@@2@@ATL@@QEAAPEAUHWND__@@PEAU3@V_U_RECT@2@PEB_WKKV_U_MENUorID@2@GPEAX@Z 0000000180030554     CashDrawer.obj
 0002:0000b56c       $unwind$??$AtlModuleRegisterWndClassInfoT@VAtlModuleRegisterWndClassInfoParamW@ATL@@@ATL@@YAGPEAU_ATL_BASE_MODULE70@0@PEAU_ATL_WIN_MODULE70@0@PEAU_ATL_WNDCLASSINFOW@0@PEAP6A_JPEAUHWND__@@I_K_J@ZVAtlModuleRegisterWndClassInfoParamW@0@@Z 000000018003056c     CashDrawer.obj
 0002:0000b58c       $unwind$?GetZoomInfo@CComControlBase@ATL@@QEAAXAEAUATL_DRAWINFO@@@Z 000000018003058c     CashDrawer.obj
 0002:0000b58c       $unwind$?OnKillFocus@CComControlBase@ATL@@QEAA_JI_K_JAEAH@Z 000000018003058c     CashDrawer.obj
 0002:0000b58c       $unwind$?get_raw_ptd@__crt_cached_ptd_host@@QEAAPEAU__acrt_ptd@@XZ 000000018003058c     libucrt:invalid_parameter.obj
 0002:0000b598       $unwind$?SendOnDataChange@CComControlBase@ATL@@QEAAJK@Z 0000000180030598     CashDrawer.obj
 0002:0000b5a8       $unwind$?OnSetFocus@CComControlBase@ATL@@QEAA_JI_K_JAEAH@Z 00000001800305a8     CashDrawer.obj
 0002:0000b5bc       $unwind$?OnMouseActivate@CComControlBase@ATL@@QEAA_JI_K_JAEAH@Z 00000001800305bc     CashDrawer.obj
 0002:0000b5c4       $unwind$?GetAmbientLocaleID@CComControlBase@ATL@@QEAAJAEAK@Z 00000001800305c4     CashDrawer.obj
 0002:0000b5c4       $unwind$?GetAmbientUserMode@CComControlBase@ATL@@QEAAJAEAH@Z 00000001800305c4     CashDrawer.obj
 0002:0000b5d4       $unwind$?IQuickActivate_QuickActivate@CComControlBase@ATL@@QEAAJPEAUtagQACONTAINER@@PEAUtagQACONTROL@@@Z 00000001800305d4     CashDrawer.obj
 0002:0000b5ec       $unwind$?DoVerbProperties@CComControlBase@ATL@@QEAAJPEBUtagRECT@@PEAUHWND__@@@Z 00000001800305ec     CashDrawer.obj
 0002:0000b604       $unwind$?InPlaceActivate@CComControlBase@ATL@@QEAAJJPEBUtagRECT@@@Z 0000000180030604     CashDrawer.obj
 0002:0000b624       $unwind$?IOleObject_Close@CComControlBase@ATL@@QEAAJK@Z 0000000180030624     CashDrawer.obj
 0002:0000b624       $unwind$?get_raw_ptd_noexit@__crt_cached_ptd_host@@QEAAPEAU__acrt_ptd@@XZ 0000000180030624     libucrt:invalid_parameter.obj
 0002:0000b624       $unwind$?type_case_c_tchar@?$output_processor@_WV?$string_output_adapter@_W@__crt_stdio_output@@V?$format_validation_base@_WV?$string_output_adapter@_W@__crt_stdio_output@@@2@@__crt_stdio_output@@AEAA_N_W@Z 0000000180030624     libucrt:output.obj
 0002:0000b634       $unwind$?IOleInPlaceObject_UIDeactivate@CComControlBase@ATL@@QEAAJXZ 0000000180030634     CashDrawer.obj
 0002:0000b64c       $unwind$?IOleInPlaceObject_SetObjectRects@CComControlBase@ATL@@QEAAJPEBUtagRECT@@0@Z 000000018003064c     CashDrawer.obj
 0002:0000b660       $unwind$?IViewObject_Draw@CComControlBase@ATL@@QEAAJKJPEAXPEAUtagDVTARGETDEVICE@@PEAUHDC__@@2PEBU_RECTL@@3@Z 0000000180030660     CashDrawer.obj
 0002:0000b67c       $unwind$?IDataObject_GetData@CComControlBase@ATL@@QEAAJPEAUtagFORMATETC@@PEAUtagSTGMEDIUM@@@Z 000000018003067c     CashDrawer.obj
 0002:0000b69c       $unwind$?OnPaint@CComControlBase@ATL@@QEAA_JI_K_JAEAH@Z 000000018003069c     CashDrawer.obj
 0002:0000b6b8       $unwind$?OnDrawAdvanced@CComControlBase@ATL@@UEAAJAEAUATL_DRAWINFO@@@Z 00000001800306b8     CashDrawer.obj
 0002:0000b6d4       $unwind$?Invoke@?$IDispatchImpl@UIOPOSCashDrawer@@$1?IID_IOPOSCashDrawer@@3U_GUID@@B$1?LIBID_OposCashDrawer_CCO@@3U3@B$00$0A@VCComTypeInfoHolder@ATL@@@ATL@@UEAAJJAEBU_GUID@@KGPEAUtagDISPPARAMS@@PEAUtagVARIANT@@PEAUtagEXCEPINFO@@PEAI@Z 00000001800306d4     CashDrawer.obj
 0002:0000b6d4       $unwind$_mbsdec_l          00000001800306d4     libucrt:mbsdec.obj
 0002:0000b6e0       $unwind$?atlCreate@?$CWindowImpl@VCOPOSCashDrawer@@VCWindow@ATL@@V?$CWinTraits@$0FGAAAAAA@$0A@@3@@ATL@@QEAAPEAUHWND__@@PEAU3@V_U_RECT@2@PEB_WKKV_U_MENUorID@2@PEAX@Z 00000001800306e0     CashDrawer.obj
 0002:0000b6e0       $unwind$?fp_format_f@@YAHQEBNQEAD_K12HW4__acrt_rounding_mode@@AEAV__crt_cached_ptd_host@@@Z 00000001800306e0     libucrt:cvt.obj
 0002:0000b6e0       $unwind$__acrt_LCMapStringEx 00000001800306e0     libucrt:winapi_thunks.obj
 0002:0000b6f4       $unwind$?CreateControlWindow@?$CComControl@VCOPOSCashDrawer@@V?$CWindowImpl@VCOPOSCashDrawer@@VCWindow@ATL@@V?$CWinTraits@$0FGAAAAAA@$0A@@3@@ATL@@@ATL@@UEAAPEAUHWND__@@PEAU3@AEAUtagRECT@@@Z 00000001800306f4     CashDrawer.obj
 0002:0000b6f4       $unwind$?OpenDrawer@COPOSCashDrawer@@UEAAJPEAJ@Z 00000001800306f4     CashDrawerImpl.obj
 0002:0000b6f4       $unwind$?ReleaseDevice@COPOSCashDrawer@@UEAAJPEAJ@Z 00000001800306f4     CashDrawerImpl.obj
 0002:0000b6f4       $unwind$_raise_exc         00000001800306f4     libucrt:fpexcept.obj
 0002:0000b6f4       $unwind$?__scrt_throw_std_bad_alloc@@YAXXZ 00000001800306f4     LIBCMT:throw_bad_alloc.obj
 0002:0000b6f4       $unwind$?__scrt_throw_std_bad_array_new_length@@YAXXZ 00000001800306f4     LIBCMT:throw_bad_alloc.obj
 0002:0000b6fc       $unwind$?ProcessWindowMessage@?$CComControl@VCOPOSCashDrawer@@V?$CWindowImpl@VCOPOSCashDrawer@@VCWindow@ATL@@V?$CWinTraits@$0FGAAAAAA@$0A@@3@@ATL@@@ATL@@UEAAHPEAUHWND__@@I_K_JAEA_JK@Z 00000001800306fc     CashDrawer.obj
 0002:0000b704       $unwind$?GetSizeMax@?$IPersistStreamInitImpl@VCOPOSCashDrawer@@@ATL@@UEAAJPEAT_ULARGE_INTEGER@@@Z 0000000180030704     CashDrawer.obj
 0002:0000b71c       $unwind$?IPersistStreamInit_Load@?$IPersistStreamInitImpl@VCOPOSCashDrawer@@@ATL@@QEAAJPEAUIStream@@PEBUATL_PROPMAP_ENTRY@2@@Z 000000018003071c     CashDrawer.obj
 0002:0000b738       $unwind$?IPersistStreamInit_Save@?$IPersistStreamInitImpl@VCOPOSCashDrawer@@@ATL@@QEAAJPEAUIStream@@HPEBUATL_PROPMAP_ENTRY@2@@Z 0000000180030738     CashDrawer.obj
 0002:0000b754       $unwind$?DoVerbPrimary@?$IOleObjectImpl@VCOPOSCashDrawer@@@ATL@@QEAAJPEBUtagRECT@@PEAUHWND__@@@Z 0000000180030754     CashDrawer.obj
 0002:0000b76c       $unwind$?TranslateAcceleratorW@?$IOleInPlaceActiveObjectImpl@VCOPOSCashDrawer@@@ATL@@UEAAJPEAUtagMSG@@@Z 000000018003076c     CashDrawer.obj
 0002:0000b778       $unwind$?Draw@?$IViewObjectExImpl@VCOPOSCashDrawer@@@ATL@@UEAAJKJPEAXPEAUtagDVTARGETDEVICE@@PEAUHDC__@@2PEBU_RECTL@@3P6AH_K@Z4@Z 0000000180030778     CashDrawer.obj
 0002:0000b780       $unwind$?QueryHitRect@?$IViewObjectExImpl@VCOPOSCashDrawer@@@ATL@@UEAAJKPEBUtagRECT@@0JPEAK@Z 0000000180030780     CashDrawer.obj
 0002:0000b790       $unwind$?OnWindowMessage@?$IOleInPlaceObjectWindowlessImpl@VCOPOSCashDrawer@@@ATL@@UEAAJI_K_JPEA_J@Z 0000000180030790     CashDrawer.obj
 0002:0000b7a4       $unwind$?EnumConnectionPoints@?$IConnectionPointContainerImpl@VCOPOSCashDrawer@@@ATL@@UEAAJPEAPEAUIEnumConnectionPoints@@@Z 00000001800307a4     CashDrawer.obj
 0002:0000b7cc       $unwind$?FindConnectionPoint@?$IConnectionPointContainerImpl@VCOPOSCashDrawer@@@ATL@@UEAAJAEBU_GUID@@PEAPEAUIConnectionPoint@@@Z 00000001800307cc     CashDrawer.obj
 0002:0000b7e8       $unwind$?Load@?$IPersistStorageImpl@VCOPOSCashDrawer@@@ATL@@UEAAJPEAUIStorage@@@Z 00000001800307e8     CashDrawer.obj
 0002:0000b7f8       $unwind$?Save@?$IPersistStorageImpl@VCOPOSCashDrawer@@@ATL@@UEAAJPEAUIStorage@@H@Z 00000001800307f8     CashDrawer.obj
 0002:0000b80c       $unwind$?IPSI_GetIPersistStreamInit@?$IPersistStorageImpl@VCOPOSCashDrawer@@@ATL@@AEAAPEAUIPersistStreamInit@@XZ 000000018003080c     CashDrawer.obj
 0002:0000b820       $unwind$?GetInterfaceSafetyOptions@?$IObjectSafetyImpl@VCOPOSCashDrawer@@$02@ATL@@UEAAJAEBU_GUID@@PEAK1@Z 0000000180030820     CashDrawer.obj
 0002:0000b834       $unwind$?SetInterfaceSafetyOptions@?$IObjectSafetyImpl@VCOPOSCashDrawer@@$02@ATL@@UEAAJAEBU_GUID@@KK@Z 0000000180030834     CashDrawer.obj
 0002:0000b848       $unwind$?Advise@?$IConnectionPointImpl@VCOPOSCashDrawer@@$1?DIID__IOPOSCashDrawerEvents@@3U_GUID@@BVCComDynamicUnkArray@ATL@@@ATL@@UEAAJPEAUIUnknown@@PEAK@Z 0000000180030848     CashDrawer.obj
 0002:0000b848       $unwind$?Advise@?$IConnectionPointImpl@VCOPOSCashDrawer@@$1?IID_IPropertyNotifySink@@3U_GUID@@BVCComDynamicUnkArray@ATL@@@ATL@@UEAAJPEAUIUnknown@@PEAK@Z 0000000180030848     CashDrawer.obj
 0002:0000b85c       $unwind$?EnumConnections@?$IConnectionPointImpl@VCOPOSCashDrawer@@$1?DIID__IOPOSCashDrawerEvents@@3U_GUID@@BVCComDynamicUnkArray@ATL@@@ATL@@UEAAJPEAPEAUIEnumConnections@@@Z 000000018003085c     CashDrawer.obj
 0002:0000b85c       $unwind$?EnumConnections@?$IConnectionPointImpl@VCOPOSCashDrawer@@$1?IID_IPropertyNotifySink@@3U_GUID@@BVCComDynamicUnkArray@ATL@@@ATL@@UEAAJPEAPEAUIEnumConnections@@@Z 000000018003085c     CashDrawer.obj
 0002:0000b874       $unwind$?Fire_DirectIOEvent@?$CProxy_IOPOSEvents@VCOPOSCashDrawer@@@@QEAAXJPEAJPEAPEA_W@Z 0000000180030874     CashDrawer.obj
 0002:0000b894       $unwind$?Fire_StatusUpdateEvent@?$CProxy_IOPOSEvents@VCOPOSCashDrawer@@@@QEAAXJ@Z 0000000180030894     CashDrawer.obj
 0002:0000b894       $unwind$?fp_format_e@@YAHQEBNQEAD_K12H_NIW4__acrt_rounding_mode@@AEAV__crt_cached_ptd_host@@@Z 0000000180030894     libucrt:cvt.obj
 0002:0000b894       $unwind$??$__InternalCxxFrameHandler@V__FrameHandler3@@@@YA?AW4_EXCEPTION_DISPOSITION@@PEAUEHExceptionRecord@@PEA_KPEAU_CONTEXT@@PEAU_xDISPATCHER_CONTEXT@@PEBU_s_FuncInfo@@H1E@Z 0000000180030894     libvcruntime:frame.obj
 0002:0000b8ac       $unwind$?FireTheEvent@?$CProxy_IOPOSEvents@VCOPOSCashDrawer@@@@IEAAXPEAVOposVariant@@IAEAJPEB_WJ@Z 00000001800308ac     CashDrawer.obj
 0002:0000b8bc       $unwind$?ProcessWindowMessage@COPOSCashDrawer@@UEAAHPEAUHWND__@@I_K_JAEA_JK@Z 00000001800308bc     CashDrawer.obj
 0002:0000b8d4       $unwind$?Clone@?$CComEnumImpl@UIEnumConnectionPoints@@$1?_GUID_b196b285_bab4_101a_b69c_00aa00341d07@@3U__s_GUID@@BPEAUIConnectionPoint@@V?$_CopyInterface@UIConnectionPoint@@@ATL@@@ATL@@UEAAJPEAPEAUIEnumConnectionPoints@@@Z 00000001800308d4     CashDrawer.obj
 0002:0000b8d4       $unwind$?Clone@?$CComEnumImpl@UIEnumConnections@@$1?_GUID_b196b287_bab4_101a_b69c_00aa00341d07@@3U__s_GUID@@BUtagCONNECTDATA@@V?$_Copy@UtagCONNECTDATA@@@ATL@@@ATL@@UEAAJPEAPEAUIEnumConnections@@@Z 00000001800308d4     CashDrawer.obj
 0002:0000b8ec       $unwind$?Init@?$CComEnumImpl@UIEnumConnectionPoints@@$1?_GUID_b196b285_bab4_101a_b69c_00aa00341d07@@3U__s_GUID@@BPEAUIConnectionPoint@@V?$_CopyInterface@UIConnectionPoint@@@ATL@@@ATL@@QEAAJPEAPEAUIConnectionPoint@@0PEAUIUnknown@@W4CComEnumFlags@2@@Z 00000001800308ec     CashDrawer.obj
 0002:0000b8ec       $unwind$?Init@?$CComEnumImpl@UIEnumConnections@@$1?_GUID_b196b287_bab4_101a_b69c_00aa00341d07@@3U__s_GUID@@BUtagCONNECTDATA@@V?$_Copy@UtagCONNECTDATA@@@ATL@@@ATL@@QEAAJPEAUtagCONNECTDATA@@0PEAUIUnknown@@W4CComEnumFlags@2@@Z 00000001800308ec     CashDrawer.obj
 0002:0000b8ec       $unwind$?should_round_up@@YA_NQEBN_KFW4__acrt_rounding_mode@@@Z 00000001800308ec     libucrt:cvt.obj
 0002:0000b8ec       $unwind$??$parse_command_line@D@@YAXPEADPEAPEAD0PEA_K2@Z 00000001800308ec     libucrt:argv_parsing.obj
 0002:0000b908       $unwind$?GetOposProp@COPOSCashDrawer@@IEAAJJPEAJJ@Z 0000000180030908     CashDrawerImpl.obj
 0002:0000b908       $unwind$?GetOposProp@COPOSCashDrawer@@IEAAJJPEAPEA_WJ@Z 0000000180030908     CashDrawerImpl.obj
 0002:0000b920       $unwind$?SetOposProp@COPOSCashDrawer@@IEAAJJJJ@Z 0000000180030920     CashDrawerImpl.obj
 0002:0000b940       $unwind$?DoInvoke@COPOSCashDrawer@@IEAAJJPEAVOposVariant@@IHPEAJ_N@Z 0000000180030940     CashDrawerImpl.obj
 0002:0000b958       $unwind$?SetCOFreezeEvents@COPOSCashDrawer@@IEAAXF@Z 0000000180030958     CashDrawerImpl.obj
 0002:0000b96c       $unwind$?OnDraw@COPOSCashDrawer@@MEAAJAEAUATL_DRAWINFO@@@Z 000000018003096c     CashDrawerImpl.obj
 0002:0000b984       $unwind$?EventInit@COPOSCashDrawer@@IEAAJXZ 0000000180030984     CashDrawerImpl.obj
 0002:0000b998       $unwind$?get_ControlObjectDescription@COPOSCashDrawer@@UEAAJPEAPEA_W@Z 0000000180030998     CashDrawerImpl.obj
 0002:0000b998       $unwind$__dcrt_lowio_ensure_console_output_initialized 0000000180030998     libucrt:initcon.obj
 0002:0000b998       $unwind$?__mbrtowc_utf8@__crt_mbstring@@YA_KPEA_WPEBD_KPEAU_Mbstatet@@AEAV__crt_cached_ptd_host@@@Z 0000000180030998     libucrt:mbrtowc.obj
 0002:0000b998       $unwind$?getSystemCP@@YAHH@Z 0000000180030998     libucrt:mbctype.obj
 0002:0000b9a0       $unwind$?CheckHealth@COPOSCashDrawer@@UEAAJJPEAJ@Z 00000001800309a0     CashDrawerImpl.obj
 0002:0000b9a0       $unwind$?ResetStatistics@COPOSCashDrawer@@UEAAJPEA_WPEAJ@Z 00000001800309a0     CashDrawerImpl.obj
 0002:0000b9a0       $unwind$?RetrieveStatistics@COPOSCashDrawer@@UEAAJPEAPEA_WPEAJ@Z 00000001800309a0     CashDrawerImpl.obj
 0002:0000b9a0       $unwind$?UpdateFirmware@COPOSCashDrawer@@UEAAJPEA_WPEAJ@Z 00000001800309a0     CashDrawerImpl.obj
 0002:0000b9a0       $unwind$?UpdateStatistics@COPOSCashDrawer@@UEAAJPEA_WPEAJ@Z 00000001800309a0     CashDrawerImpl.obj
 0002:0000b9b0       $unwind$?ClaimDevice@COPOSCashDrawer@@UEAAJJPEAJ@Z 00000001800309b0     CashDrawerImpl.obj
 0002:0000b9c0       $unwind$?Close@COPOSCashDrawer@@UEAAJPEAJ@Z 00000001800309c0     CashDrawerImpl.obj
 0002:0000b9cc       $unwind$?DirectIO@COPOSCashDrawer@@UEAAJJPEAJPEAPEA_W0@Z 00000001800309cc     CashDrawerImpl.obj
 0002:0000b9e8       $unwind$?Open@COPOSCashDrawer@@UEAAJPEA_WPEAJ@Z 00000001800309e8     CashDrawerImpl.obj
 0002:0000ba0c       $unwind$?WaitForDrawerClose@COPOSCashDrawer@@UEAAJJJJJPEAJ@Z 0000000180030a0c     CashDrawerImpl.obj
 0002:0000ba28       $unwind$?CompareFirmwareVersion@COPOSCashDrawer@@UEAAJPEA_WPEAJ1@Z 0000000180030a28     CashDrawerImpl.obj
 0002:0000ba28       $unwind$?initialize_inherited_file_handles_nolock@@YAXXZ 0000000180030a28     libucrt:ioinit.obj
 0002:0000ba44       $unwind$__scrt_is_nonwritable_in_current_image 0000000180030a44     LIBCMT:utility.obj
 0002:0000ba64       $unwind$__scrt_is_nonwritable_in_current_image$filt$0 0000000180030a64     LIBCMT:utility.obj
 0002:0000ba6c       $unwind$__report_securityfailure 0000000180030a6c     LIBCMT:gs_report.obj
 0002:0000ba74       $unwind$__report_gsfailure 0000000180030a74     LIBCMT:gs_report.obj
 0002:0000ba7c       $unwind$capture_current_context 0000000180030a7c     LIBCMT:gs_report.obj
 0002:0000ba88       $unwind$capture_previous_context 0000000180030a88     LIBCMT:gs_report.obj
 0002:0000ba94       $unwind$??2@YAPEAX_KAEBUnothrow_t@std@@@Z 0000000180030a94     LIBCMT:new_scalar_nothrow.obj
 0002:0000baa4       $cppxdata$??2@YAPEAX_KAEBUnothrow_t@std@@@Z 0000000180030aa4     LIBCMT:new_scalar_nothrow.obj
 0002:0000bab1       $stateUnwindMap$??2@YAPEAX_KAEBUnothrow_t@std@@@Z 0000000180030ab1     LIBCMT:new_scalar_nothrow.obj
 0002:0000bab4       $tryMap$??2@YAPEAX_KAEBUnothrow_t@std@@@Z 0000000180030ab4     LIBCMT:new_scalar_nothrow.obj
 0002:0000babc       $handlerMap$??2@YAPEAX_KAEBUnothrow_t@std@@@Z 0000000180030abc     LIBCMT:new_scalar_nothrow.obj
 0002:0000bac4       $ip2state$??2@YAPEAX_KAEBUnothrow_t@std@@@Z 0000000180030ac4     LIBCMT:new_scalar_nothrow.obj
 0002:0000bac8       $unwind$?catch$0@?0???2@YAPEAX_KAEBUnothrow_t@std@@@Z@4HA 0000000180030ac8     LIBCMT:new_scalar_nothrow.obj
 0002:0000bad8       $cppxdata$?catch$0@?0???2@YAPEAX_KAEBUnothrow_t@std@@@Z@4HA 0000000180030ad8     LIBCMT:new_scalar_nothrow.obj
 0002:0000bae2       $stateUnwindMap$?catch$0@?0???2@YAPEAX_KAEBUnothrow_t@std@@@Z@4HA 0000000180030ae2     LIBCMT:new_scalar_nothrow.obj
 0002:0000bae4       $ip2state$?catch$0@?0???2@YAPEAX_KAEBUnothrow_t@std@@@Z@4HA 0000000180030ae4     LIBCMT:new_scalar_nothrow.obj
 0002:0000bae8       $unwind$__GSHandlerCheckCommon 0000000180030ae8     LIBCMT:gshandler.obj
 0002:0000baf0       $xdatasym                  0000000180030af0     LIBCMT:chkstk.obj
 0002:0000baf8       $xdatasym                  0000000180030af8     LIBCMT:amdsecgs.obj
 0002:0000bafc       $unwind$?dllmain_crt_process_attach@@YAHQEAUHINSTANCE__@@QEAX@Z 0000000180030afc     LIBCMT:dll_dllmain.obj
 0002:0000bb38       $unwind$?dllmain_crt_process_detach@@YAH_N@Z 0000000180030b38     LIBCMT:dll_dllmain.obj
 0002:0000bb8c       $unwind$?dllmain_dispatch@@YAHQEAUHINSTANCE__@@KQEAX@Z 0000000180030b8c     LIBCMT:dll_dllmain.obj
 0002:0000bbb4       $unwind$_write_internal$fin$0 0000000180030bb4     libucrt:write.obj
 0002:0000bbb4       $unwind$?fin$0@?0??_fclose_internal@@YAHQEAU_iobuf@@AEAV__crt_cached_ptd_host@@@Z@4HA 0000000180030bb4     libucrt:fclose.obj
 0002:0000bbb4       $unwind$?filt$0@?0??dllmain_dispatch@@YAHQEAUHINSTANCE__@@KQEAX@Z@4HA 0000000180030bb4     LIBCMT:dll_dllmain.obj
 0002:0000bbb4       $unwind$?filt$0@?0??FrameUnwindToState@__FrameHandler4@@SAXPEA_KPEAU_xDISPATCHER_CONTEXT@@PEAUFuncInfo4@FH4@@H@Z@4HA 0000000180030bb4     libvcruntime:frame.obj
 0002:0000bbb4       $unwind$?fin$1@?0??FrameUnwindToState@__FrameHandler4@@SAXPEA_KPEAU_xDISPATCHER_CONTEXT@@PEAUFuncInfo4@FH4@@H@Z@4HA 0000000180030bb4     libvcruntime:frame.obj
 0002:0000bbbc       $unwind$__isa_available_init 0000000180030bbc     LIBCMT:cpu_disp.obj
 0002:0000bbcc       $unwind$__scrt_fastfail    0000000180030bcc     LIBCMT:utility_desktop.obj
 0002:0000bbdc       $unwind$__security_init_cookie 0000000180030bdc     LIBCMT:gs_support.obj
 0002:0000bbe8       $xdatasym                  0000000180030be8     LIBCMT:guard_dispatch.obj
 0002:0000bbf0       $xdatasym                  0000000180030bf0     LIBCMT:guard_xfg_dispatch.obj
 0002:0000bbf4       $unwind$AtlThunk_InitData  0000000180030bf4     atls:atlthunk.obj
 0002:0000bc08       $unwind$wcsstr             0000000180030c08     libvcruntime:wcsstr.obj
 0002:0000bc20       $xdatasym                  0000000180030c20     libvcruntime:memcmp.obj
 0002:0000bc28       $xdatasym                  0000000180030c28     libvcruntime:memcpy.obj
 0002:0000bc38       $xdatasym                  0000000180030c38     libvcruntime:memset.obj
 0002:0000bc48       $unwind$__C_specific_handler 0000000180030c48     libvcruntime:riscchandler.obj
 0002:0000bc48       $unwind$?GetRangeOfTrysToCheck@__FrameHandler3@@SA?AU?$pair@Viterator@TryBlockMap@__FrameHandler3@@V123@@std@@AEAVTryBlockMap@1@HPEAU_xDISPATCHER_CONTEXT@@PEBU_s_FuncInfo@@H@Z 0000000180030c48     libvcruntime:risctrnsctrl.obj
 0002:0000bc64       $unwind$?StateFromIp@__FrameHandler4@@SAHPEAUFuncInfo4@FH4@@PEAU_xDISPATCHER_CONTEXT@@_K@Z 0000000180030c64     libvcruntime:ehstate.obj
 0002:0000bc64       $unwind$?DecompFuncInfo@FH4@@YA_JPEAEAEAUFuncInfo4@1@_KH_N@Z 0000000180030c64     libvcruntime:risctrnsctrl.obj
 0002:0000bc7c       $unwind$?GetEstablisherFrame@__FrameHandler3@@SAPEA_KPEA_KPEAU_xDISPATCHER_CONTEXT@@PEBU_s_FuncInfo@@0@Z 0000000180030c7c     libvcruntime:risctrnsctrl.obj
 0002:0000bc94       $unwind$?UnwindNestedFrames@__FrameHandler3@@SAXPEA_KPEAUEHExceptionRecord@@PEAU_CONTEXT@@0PEAXPEBU_s_FuncInfo@@HHPEBU_s_HandlerType@@PEAU_xDISPATCHER_CONTEXT@@E@Z 0000000180030c94     libvcruntime:risctrnsctrl.obj
 0002:0000bc94       $unwind$?UnwindNestedFrames@__FrameHandler4@@SAXPEA_KPEAUEHExceptionRecord@@PEAU_CONTEXT@@0PEAXPEAUFuncInfo4@FH4@@HHPEAUHandlerType4@5@PEAU_xDISPATCHER_CONTEXT@@E@Z 0000000180030c94     libvcruntime:risctrnsctrl.obj
 0002:0000bca8       $unwind$?GetRangeOfTrysToCheck@__FrameHandler4@@SA?AU?$pair@Viterator@TryBlockMap4@FH4@@V123@@std@@AEAVTryBlockMap4@FH4@@HPEAU_xDISPATCHER_CONTEXT@@PEAUFuncInfo4@5@H@Z 0000000180030ca8     libvcruntime:risctrnsctrl.obj
 0002:0000bcc4       $unwind$__CxxFrameHandler3 0000000180030cc4     libvcruntime:risctrnsctrl.obj
 0002:0000bcd8       $unwind$__CxxFrameHandler4 0000000180030cd8     libvcruntime:risctrnsctrl.obj
 0002:0000bcec       $unwind$??$_CallSETranslator@V__FrameHandler4@@@@YAHPEAUEHExceptionRecord@@PEA_KPEAU_CONTEXT@@PEAU_xDISPATCHER_CONTEXT@@PEAUFuncInfo4@FH4@@K1H@Z 0000000180030cec     libvcruntime:risctrnsctrl.obj
 0002:0000bd0c       $unwind$?filt$0@?0???$_CallSETranslator@V__FrameHandler3@@@@YAHPEAUEHExceptionRecord@@PEA_KPEAU_CONTEXT@@PEAU_xDISPATCHER_CONTEXT@@PEBU_s_FuncInfo@@K1H@Z@4HA 0000000180030d0c     libvcruntime:risctrnsctrl.obj
 0002:0000bd0c       $unwind$?filt$0@?0???$_CallSETranslator@V__FrameHandler4@@@@YAHPEAUEHExceptionRecord@@PEA_KPEAU_CONTEXT@@PEAU_xDISPATCHER_CONTEXT@@PEAUFuncInfo4@FH4@@K1H@Z@4HA 0000000180030d0c     libvcruntime:risctrnsctrl.obj
 0002:0000bd18       $unwind$??$_CallSETranslator@V__FrameHandler3@@@@YAHPEAUEHExceptionRecord@@PEA_KPEAU_CONTEXT@@PEAU_xDISPATCHER_CONTEXT@@PEBU_s_FuncInfo@@K1H@Z 0000000180030d18     libvcruntime:risctrnsctrl.obj
 0002:0000bd38       $unwind$__DestructExceptionObject 0000000180030d38     libvcruntime:ehhelpers.obj
 0002:0000bd58       $unwind$__DestructExceptionObject$filt$0 0000000180030d58     libvcruntime:ehhelpers.obj
 0002:0000bd58       $unwind$?fin$1@?0??CxxCallCatchBlock@__FrameHandler3@@SAPEAXPEAU_EXCEPTION_RECORD@@@Z@4HA 0000000180030d58     libvcruntime:frame.obj
 0002:0000bd58       $unwind$?fin$1@?0??CxxCallCatchBlock@__FrameHandler4@@SAPEAXPEAU_EXCEPTION_RECORD@@@Z@4HA 0000000180030d58     libvcruntime:frame.obj
 0002:0000bd64       $unwind$_CxxThrowException 0000000180030d64     libvcruntime:throw.obj
 0002:0000bd78       $xdatasym                  0000000180030d78     libvcruntime:notify.obj
 0002:0000bd84       $unwind$?getStartStop@UWMap4@FH4@@QEAAXHHAEAViterator@12@0@Z 0000000180030d84     libvcruntime:frame.obj
 0002:0000bd9c       $unwind$?FrameUnwindToState@__FrameHandler3@@SAXPEA_KPEAU_xDISPATCHER_CONTEXT@@PEBU_s_FuncInfo@@H@Z 0000000180030d9c     libvcruntime:frame.obj
 0002:0000bde8       $unwind$?CxxCallCatchBlock@__FrameHandler3@@SAPEAXPEAU_EXCEPTION_RECORD@@@Z 0000000180030de8     libvcruntime:frame.obj
 0002:0000be24       $unwind$?FrameUnwindToState@__FrameHandler4@@SAXPEA_KPEAU_xDISPATCHER_CONTEXT@@PEAUFuncInfo4@FH4@@H@Z 0000000180030e24     libvcruntime:frame.obj
 0002:0000be6c       $unwind$?CxxCallCatchBlock@__FrameHandler4@@SAPEAXPEAU_EXCEPTION_RECORD@@@Z 0000000180030e6c     libvcruntime:frame.obj
 0002:0000bec8       $unwind$?IsInExceptionSpec@@YAEPEAUEHExceptionRecord@@PEBU_s_ESTypeList@@@Z 0000000180030ec8     libvcruntime:frame.obj
 0002:0000bee4       $unwind$??$__InternalCxxFrameHandler@V__FrameHandler4@@@@YA?AW4_EXCEPTION_DISPOSITION@@PEAUEHExceptionRecord@@PEA_KPEAU_CONTEXT@@PEAU_xDISPATCHER_CONTEXT@@PEAUFuncInfo4@FH4@@H1E@Z 0000000180030ee4     libvcruntime:frame.obj
 0002:0000befc       $unwind$??$BuildCatchObjectHelperInternal@V__FrameHandler3@@@@YAHPEAUEHExceptionRecord@@PEAXPEBU_s_HandlerType@@PEBU_s_CatchableType@@@Z 0000000180030efc     libvcruntime:frame.obj
 0002:0000bf3c       $unwind$??$BuildCatchObjectHelperInternal@V__FrameHandler4@@@@YAHPEAUEHExceptionRecord@@PEAXPEAUHandlerType4@FH4@@PEBU_s_CatchableType@@@Z 0000000180030f3c     libvcruntime:frame.obj
 0002:0000bf7c       $unwind$??$BuildCatchObjectInternal@V__FrameHandler3@@@@YAXPEAUEHExceptionRecord@@PEAXPEBU_s_HandlerType@@PEBU_s_CatchableType@@@Z 0000000180030f7c     libvcruntime:frame.obj
 0002:0000bfa8       $unwind$??$BuildCatchObjectInternal@V__FrameHandler4@@@@YAXPEAUEHExceptionRecord@@PEAXPEAUHandlerType4@FH4@@PEBU_s_CatchableType@@@Z 0000000180030fa8     libvcruntime:frame.obj
 0002:0000bfd4       $unwind$??$FindHandler@V__FrameHandler3@@@@YAXPEAUEHExceptionRecord@@PEA_KPEAU_CONTEXT@@PEAU_xDISPATCHER_CONTEXT@@PEBU_s_FuncInfo@@EH1@Z 0000000180030fd4     libvcruntime:frame.obj
 0002:0000bff4       $unwind$??$FindHandler@V__FrameHandler4@@@@YAXPEAUEHExceptionRecord@@PEA_KPEAU_CONTEXT@@PEAU_xDISPATCHER_CONTEXT@@PEAUFuncInfo4@FH4@@EH1@Z 0000000180030ff4     libvcruntime:frame.obj
 0002:0000c014       $unwind$??$CatchIt@V__FrameHandler3@@@@YAXPEAUEHExceptionRecord@@PEA_KPEAU_CONTEXT@@PEAU_xDISPATCHER_CONTEXT@@PEBU_s_FuncInfo@@PEBU_s_HandlerType@@PEBU_s_CatchableType@@PEBU_s_TryBlockMapEntry@@H1EE@Z 0000000180031014     libvcruntime:frame.obj
 0002:0000c014       $unwind$??$CatchIt@V__FrameHandler4@@@@YAXPEAUEHExceptionRecord@@PEA_KPEAU_CONTEXT@@PEAU_xDISPATCHER_CONTEXT@@PEAUFuncInfo4@FH4@@PEAUHandlerType4@4@PEBU_s_CatchableType@@PEAUTryBlockMapEntry4@4@H1EE@Z 0000000180031014     libvcruntime:frame.obj
 0002:0000c02c       $unwind$??$FindHandlerForForeignException@V__FrameHandler3@@@@YAXPEAUEHExceptionRecord@@PEA_KPEAU_CONTEXT@@PEAU_xDISPATCHER_CONTEXT@@PEBU_s_FuncInfo@@HH1@Z 000000018003102c     libvcruntime:frame.obj
 0002:0000c048       $unwind$??$FindHandlerForForeignException@V__FrameHandler4@@@@YAXPEAUEHExceptionRecord@@PEA_KPEAU_CONTEXT@@PEAU_xDISPATCHER_CONTEXT@@PEAUFuncInfo4@FH4@@HH1@Z 0000000180031048     libvcruntime:frame.obj
 0002:0000c068       $unwind$?try_get_function@@YAPEAXW4function_id@?A0x391cf84c@@QEBDQEBW4module_id@2@2@Z 0000000180031068     libucrt:winapi_thunks.obj
 0002:0000c068       $unwind$?try_get_function@@YAPEAXW4function_id@?A0xbc0cc709@@QEBDQEBW4module_id@2@2@Z 0000000180031068     libvcruntime:winapi_downlevel.obj
 0002:0000c088       $xdatasym                  0000000180031088     libvcruntime:handlers.obj
 0002:0000c0a8       $unwind$__acrt_call_reportfault 00000001800310a8     libucrt:invalid_parameter.obj
 0002:0000c0c8       $unwind$??$common_lseek_nolock@_J@@YA_JH_JHAEAV__crt_cached_ptd_host@@@Z 00000001800310c8     libucrt:lseek.obj
 0002:0000c0c8       $unwind$_invalid_parameter_internal 00000001800310c8     libucrt:invalid_parameter.obj
 0002:0000c0c8       $unwind$??$type_case_integer@$07@?$output_processor@_WV?$string_output_adapter@_W@__crt_stdio_output@@V?$format_validation_base@_WV?$string_output_adapter@_W@__crt_stdio_output@@@2@@__crt_stdio_output@@AEAA_N_N@Z 00000001800310c8     libucrt:output.obj
 0002:0000c0c8       $unwind$??$type_case_integer@$09@?$output_processor@_WV?$string_output_adapter@_W@__crt_stdio_output@@V?$format_validation_base@_WV?$string_output_adapter@_W@__crt_stdio_output@@@2@@__crt_stdio_output@@AEAA_N_N@Z 00000001800310c8     libucrt:output.obj
 0002:0000c0c8       $unwind$??$type_case_integer@$0BA@@?$output_processor@_WV?$string_output_adapter@_W@__crt_stdio_output@@V?$format_validation_base@_WV?$string_output_adapter@_W@__crt_stdio_output@@@2@@__crt_stdio_output@@AEAA_N_N@Z 00000001800310c8     libucrt:output.obj
 0002:0000c0dc       $unwind$_invalid_parameter 00000001800310dc     libucrt:invalid_parameter.obj
 0002:0000c0e8       $unwind$_resetstkoflw      00000001800310e8     libucrt:resetstk.obj
 0002:0000c10c       $unwind$__stdio_common_vswprintf_s 000000018003110c     libucrt:output.obj
 0002:0000c120       $unwind$?write_string@?$string_output_adapter@_W@__crt_stdio_output@@QEBAXQEB_WHQEAHAEAV__crt_cached_ptd_host@@@Z 0000000180031120     libucrt:output.obj
 0002:0000c138       $unwind$??$common_vsprintf@Vformat_validation_base@__crt_stdio_output@@_W@@YAH_KQEA_W0QEB_WAEAV__crt_cached_ptd_host@@QEAD@Z 0000000180031138     libucrt:output.obj
 0002:0000c158       $unwind$?parse_int_from_format_string@?$output_processor@_WV?$string_output_adapter@_W@__crt_stdio_output@@V?$format_validation_base@_WV?$string_output_adapter@_W@__crt_stdio_output@@@2@@__crt_stdio_output@@AEAA_NQEAH@Z 0000000180031158     libucrt:output.obj
 0002:0000c16c       $unwind$?state_case_type@?$output_processor@_WV?$string_output_adapter@_W@__crt_stdio_output@@V?$format_validation_base@_WV?$string_output_adapter@_W@__crt_stdio_output@@@2@@__crt_stdio_output@@AEAA_NXZ 000000018003116c     libucrt:output.obj
 0002:0000c190       $unwind$?type_case_a@?$output_processor@_WV?$string_output_adapter@_W@__crt_stdio_output@@V?$format_validation_base@_WV?$string_output_adapter@_W@__crt_stdio_output@@@2@@__crt_stdio_output@@AEAA_NXZ 0000000180031190     libucrt:output.obj
 0002:0000c1a4       $unwind$?type_case_n@?$output_processor@_WV?$string_output_adapter@_W@__crt_stdio_output@@V?$format_validation_base@_WV?$string_output_adapter@_W@__crt_stdio_output@@@2@@__crt_stdio_output@@AEAA_NXZ 00000001800311a4     libucrt:output.obj
 0002:0000c1b0       $unwind$??$parse_integer@KV?$c_string_character_source@_W@__crt_strtox@@$0A@@__crt_strtox@@YAKAEAV__crt_cached_ptd_host@@V?$c_string_character_source@_W@0@H_N@Z 00000001800311b0     libucrt:output.obj
 0002:0000c1cc       $unwind$?try_cor_exit_process@@YAXI@Z 00000001800311cc     libucrt:exit.obj
 0002:0000c1e0       $ip2state$?try_cor_exit_process@@YAXI@Z 00000001800311e0     libucrt:exit.obj
 0002:0000c1e8       $unwind$?common_exit@@YAXHW4_crt_exit_cleanup_mode@@W4_crt_exit_return_mode@@@Z 00000001800311e8     libucrt:exit.obj
 0002:0000c1fc       $stateUnwindMap$__dcrt_uninitialize_environments_nolock 00000001800311fc     libucrt:environment_initialization.obj
 0002:0000c1fc       $stateUnwindMap$?common_exit@@YAXHW4_crt_exit_cleanup_mode@@W4_crt_exit_return_mode@@@Z 00000001800311fc     libucrt:exit.obj
 0002:0000c1fc       $stateUnwindMap$_execute_onexit_table 00000001800311fc     libucrt:onexit.obj
 0002:0000c208       $ip2state$?common_exit@@YAXHW4_crt_exit_cleanup_mode@@W4_crt_exit_return_mode@@@Z 0000000180031208     libucrt:exit.obj
 0002:0000c210       $unwind$??R<lambda_6e4b09c48022b2350581041d5f6b0c4c>@@QEBA@XZ 0000000180031210     libucrt:exit.obj
 0002:0000c230       $unwind$??$?RV<lambda_d80eeec6fff315bfe5c115232f3240e3>@@AEAV<lambda_6e4b09c48022b2350581041d5f6b0c4c>@@V<lambda_2358e3775559c9db80273638284d5e45>@@@?$__crt_seh_guarded_call@X@@QEAAX$$QEAV<lambda_d80eeec6fff315bfe5c115232f3240e3>@@AEAV<lambda_6e4b09c48022b2350581041d5f6b0c4c>@@$$QEAV<lambda_2358e3775559c9db80273638284d5e45>@@@Z 0000000180031230     libucrt:exit.obj
 0002:0000c254       $unwind$__dcrt_uninitialize_environments_nolock 0000000180031254     libucrt:environment_initialization.obj
 0002:0000c264       $unwind$??$free_environment@D@@YAXQEAPEAD@Z 0000000180031264     libucrt:environment_initialization.obj
 0002:0000c264       $unwind$??$free_environment@_W@@YAXQEAPEA_W@Z 0000000180031264     libucrt:environment_initialization.obj
 0002:0000c264       $unwind$_initterm          0000000180031264     libucrt:initterm.obj
 0002:0000c270       $unwind$_register_onexit_function 0000000180031270     libucrt:onexit.obj
 0002:0000c278       $unwind$_execute_onexit_table 0000000180031278     libucrt:onexit.obj
 0002:0000c288       $ip2state$_execute_onexit_table 0000000180031288     libucrt:onexit.obj
 0002:0000c290       $unwind$??R<lambda_22ebabd17bc4fa466a2aca6d8deb888d>@@QEBAHXZ 0000000180031290     libucrt:onexit.obj
 0002:0000c2a8       $unwind$??$?RV<lambda_638799b9deba96c50f710eeac98168cd>@@AEAV<lambda_22ebabd17bc4fa466a2aca6d8deb888d>@@V<lambda_a6f7d7db0129f75315ebf26d50c089f1>@@@?$__crt_seh_guarded_call@H@@QEAAH$$QEAV<lambda_638799b9deba96c50f710eeac98168cd>@@AEAV<lambda_22ebabd17bc4fa466a2aca6d8deb888d>@@$$QEAV<lambda_a6f7d7db0129f75315ebf26d50c089f1>@@@Z 00000001800312a8     libucrt:onexit.obj
 0002:0000c2cc       $unwind$??$?RV<lambda_7777bce6b2f8c936911f934f8298dc43>@@AEAV<lambda_f03950bc5685219e0bcd2087efbe011e>@@V<lambda_3883c3dff614d5e0c5f61bb1ac94921c>@@@?$__crt_seh_guarded_call@H@@QEAAH$$QEAV<lambda_7777bce6b2f8c936911f934f8298dc43>@@AEAV<lambda_f03950bc5685219e0bcd2087efbe011e>@@$$QEAV<lambda_3883c3dff614d5e0c5f61bb1ac94921c>@@@Z 00000001800312cc     libucrt:onexit.obj
 0002:0000c2f0       $unwind$_query_new_handler 00000001800312f0     libucrt:new_handler.obj
 0002:0000c310       $unwind$terminate          0000000180031310     libucrt:terminate.obj
 0002:0000c330       $xdatasym                  0000000180031330     libucrt:strncmp.obj
 0002:0000c334       $unwind$?construct_ptd_array@@YAXQEAU__acrt_ptd@@@Z 0000000180031334     libucrt:per_thread_data.obj
 0002:0000c33c       $unwind$?destroy_ptd_array@@YAXQEAU__acrt_ptd@@@Z 000000018003133c     libucrt:per_thread_data.obj
 0002:0000c344       $unwind$??$?RV<lambda_0ae27a3a962d80f24befdcbee591983d>@@AEAV<lambda_8d0ee55de4b1038c4002e0adecdf1839>@@V<lambda_dc504788e8f1664fe9b84e20bfb512f2>@@@?$__crt_seh_guarded_call@X@@QEAAX$$QEAV<lambda_0ae27a3a962d80f24befdcbee591983d>@@AEAV<lambda_8d0ee55de4b1038c4002e0adecdf1839>@@$$QEAV<lambda_dc504788e8f1664fe9b84e20bfb512f2>@@@Z 0000000180031344     libucrt:per_thread_data.obj
 0002:0000c368       $unwind$??$?RV<lambda_aa87e3671a710a21b5dc78c0bdf72e11>@@AEAV<lambda_92619d2358a28f41a33ba319515a20b9>@@V<lambda_6992ecaafeb10aed2b74cb1fae11a551>@@@?$__crt_seh_guarded_call@X@@QEAAX$$QEAV<lambda_aa87e3671a710a21b5dc78c0bdf72e11>@@AEAV<lambda_92619d2358a28f41a33ba319515a20b9>@@$$QEAV<lambda_6992ecaafeb10aed2b74cb1fae11a551>@@@Z 0000000180031368     libucrt:per_thread_data.obj
 0002:0000c38c       $unwind$??$?RV<lambda_f2e299630e499de9f9a165e60fcd3db5>@@AEAV<lambda_2ae9d31cdba2644fcbeaf08da7c24588>@@V<lambda_40d01ff24d0e7b3814fdbdcee8eab3c7>@@@?$__crt_seh_guarded_call@X@@QEAAX$$QEAV<lambda_f2e299630e499de9f9a165e60fcd3db5>@@AEAV<lambda_2ae9d31cdba2644fcbeaf08da7c24588>@@$$QEAV<lambda_40d01ff24d0e7b3814fdbdcee8eab3c7>@@@Z 000000018003138c     libucrt:per_thread_data.obj
 0002:0000c3b0       $unwind$??$?RV<lambda_2d41944a1d46af3157314b8a01080d33>@@AEAV<lambda_8f455de75cd7d7f24b4096f044d8b9e6>@@V<lambda_aa500f224e6afead328df44964fe2772>@@@?$__crt_seh_guarded_call@X@@QEAAX$$QEAV<lambda_2d41944a1d46af3157314b8a01080d33>@@AEAV<lambda_8f455de75cd7d7f24b4096f044d8b9e6>@@$$QEAV<lambda_aa500f224e6afead328df44964fe2772>@@@Z 00000001800313b0     libucrt:per_thread_data.obj
 0002:0000c3d4       $unwind$__acrt_uninitialize_locale 00000001800313d4     libucrt:wsetlocale.obj
 0002:0000c3d4       $unwind$__acrt_get_sigabrt_handler 00000001800313d4     libucrt:signal.obj
 0002:0000c3dc       $unwind$??$?RV<lambda_410d79af7f07d98d83a3f525b3859a53>@@AEAV<lambda_3e16ef9562a7dcce91392c22ab16ea36>@@V<lambda_38119f0e861e05405d8a144b9b982f0a>@@@?$__crt_seh_guarded_call@X@@QEAAX$$QEAV<lambda_410d79af7f07d98d83a3f525b3859a53>@@AEAV<lambda_3e16ef9562a7dcce91392c22ab16ea36>@@$$QEAV<lambda_38119f0e861e05405d8a144b9b982f0a>@@@Z 00000001800313dc     libucrt:wsetlocale.obj
 0002:0000c404       $unwind$__acrt_initialize_winapi_thunks 0000000180031404     libucrt:winapi_thunks.obj
 0002:0000c404       $unwind$__acrt_fenv_get_control 0000000180031404     libucrt:_fenvutils.obj
 0002:0000c40c       $unwind$__acrt_fp_format   000000018003140c     libucrt:cvt.obj
 0002:0000c41c       $unwind$?fp_format_e_internal@@YAHQEAD_KH_NIQEAU_strflt@@2AEAV__crt_cached_ptd_host@@@Z 000000018003141c     libucrt:cvt.obj
 0002:0000c438       $unwind$?fp_format_a@@YAHQEBNPEAD_KQEAD2H_NIW4__acrt_rounding_mode@@AEAV__crt_cached_ptd_host@@@Z 0000000180031438     libucrt:cvt.obj
 0002:0000c454       $unwind$?fp_format_g@@YAHQEBNQEAD_K12H_NIW4__acrt_rounding_mode@@AEAV__crt_cached_ptd_host@@@Z 0000000180031454     libucrt:cvt.obj
 0002:0000c46c       $unwind$__acrt_initialize_lowio 000000018003146c     libucrt:ioinit.obj
 0002:0000c48c       $unwind$??$common_expand_argv_wildcards@D@@YAHQEAPEADQEAPEAPEAD@Z 000000018003148c     libucrt:argv_wildcards.obj
 0002:0000c4a4       $unwind$__dcrt_get_narrow_environment_from_os 00000001800314a4     libucrt:get_environment_from_os.obj
 0002:0000c4a4       $unwind$??$__acrt_convert_wcs_mbs_cp@_WDV<lambda_d8593a27d1aa8c02be35c86a17d324c4>@@U__crt_win32_buffer_internal_dynamic_resizing@@@@YAHQEB_WAEAV?$__crt_win32_buffer@DU__crt_win32_buffer_internal_dynamic_resizing@@@@AEBV<lambda_d8593a27d1aa8c02be35c86a17d324c4>@@I@Z 00000001800314a4     libucrt:argv_wildcards.obj
 0002:0000c4bc       $unwind$??$copy_and_add_argument_to_buffer@D@@YAHQEBD0_KAEAV?$argument_list@D@?A0x5f5c8891@@@Z 00000001800314bc     libucrt:argv_wildcards.obj
 0002:0000c4d8       $unwind$??$expand_argument_wildcards@D@@YAHQEAD0AEAV?$argument_list@D@?A0x5f5c8891@@@Z 00000001800314d8     libucrt:argv_wildcards.obj
 0002:0000c4f8       $unwind$__acrt_GetModuleFileNameA 00000001800314f8     libucrt:getmodulefilenamea.obj
 0002:0000c514       $unwind$_setmbcp_nolock    0000000180031514     libucrt:mbctype.obj
 0002:0000c534       $unwind$?update_thread_multibyte_data_internal@@YAPEAU__crt_multibyte_data@@QEAU__acrt_ptd@@QEAPEAU1@@Z 0000000180031534     libucrt:mbctype.obj
 0002:0000c55c       $unwind$?setmbcp_internal@@YAHH_NQEAU__acrt_ptd@@QEAPEAU__crt_multibyte_data@@@Z 000000018003155c     libucrt:mbctype.obj
 0002:0000c574       $unwind$?setSBUpLow@@YAXPEAU__crt_multibyte_data@@@Z 0000000180031574     libucrt:mbctype.obj
 0002:0000c590       $unwind$??$?RV<lambda_efdfa57d1f175319df784efa44bb7b81>@@AEAV<lambda_5f0a4c1567f8adc6734073e5d1e1b35c>@@V<lambda_2e8a7d3640ea6ccb4c2413664c2db6fd>@@@?$__crt_seh_guarded_call@X@@QEAAX$$QEAV<lambda_efdfa57d1f175319df784efa44bb7b81>@@AEAV<lambda_5f0a4c1567f8adc6734073e5d1e1b35c>@@$$QEAV<lambda_2e8a7d3640ea6ccb4c2413664c2db6fd>@@@Z 0000000180031590     libucrt:mbctype.obj
 0002:0000c5b4       $unwind$__acrt_WideCharToMultiByte 00000001800315b4     libucrt:widechartomultibyte.obj
 0002:0000c5c0       $unwind$raise              00000001800315c0     libucrt:signal.obj
 0002:0000c5fc       $unwind$??$?RV<lambda_450d765d439847d4c735a33c368b5fc0>@@AEAV<lambda_44731a7d0e6d81c3e6aa82d741081786>@@V<lambda_601a2a7da3b7a96e9554ac7215c4b07c>@@@?$__crt_seh_guarded_call@P6AXH@Z@@QEAAP6AXH@Z$$QEAV<lambda_450d765d439847d4c735a33c368b5fc0>@@AEAV<lambda_44731a7d0e6d81c3e6aa82d741081786>@@$$QEAV<lambda_601a2a7da3b7a96e9554ac7215c4b07c>@@@Z 00000001800315fc     libucrt:signal.obj
 0002:0000c620       $unwind$fclose             0000000180031620     libucrt:fclose.obj
 0002:0000c620       $unwind$_fflush_nolock     0000000180031620     libucrt:fflush.obj
 0002:0000c630       $unwind$?common_flush_all@@YAH_N@Z 0000000180031630     libucrt:fflush.obj
 0002:0000c638       $unwind$??$?RV<lambda_842d9ff0dc9ef11c61343bbaebe7f885>@@AEAV<lambda_c5860995281e5c4ce005b3de8f5874ee>@@V<lambda_d90129c13df834fdcbf8d2b88dafcf2d>@@@?$__crt_seh_guarded_call@X@@QEAAX$$QEAV<lambda_842d9ff0dc9ef11c61343bbaebe7f885>@@AEAV<lambda_c5860995281e5c4ce005b3de8f5874ee>@@$$QEAV<lambda_d90129c13df834fdcbf8d2b88dafcf2d>@@@Z 0000000180031638     libucrt:fflush.obj
 0002:0000c65c       $unwind$??$?RV<lambda_886d6c58226a84441f68b9f2b8217b83>@@AEAV<lambda_ab61a845afdef5b7c387490eaf3616ee>@@V<lambda_f7f22ab5edc0698d5f6905b0d3f44752>@@@?$__crt_seh_guarded_call@X@@QEAAX$$QEAV<lambda_886d6c58226a84441f68b9f2b8217b83>@@AEAV<lambda_ab61a845afdef5b7c387490eaf3616ee>@@$$QEAV<lambda_f7f22ab5edc0698d5f6905b0d3f44752>@@@Z 000000018003165c     libucrt:fflush.obj
 0002:0000c684       $unwind$__acrt_update_thread_locale_data 0000000180031684     libucrt:locale_refcounting.obj
 0002:0000c6a8       $unwind$__acrt_locale_free_monetary 00000001800316a8     libucrt:initmon.obj
 0002:0000c6b0       $unwind$__acrt_locale_free_time 00000001800316b0     libucrt:inittime.obj
 0002:0000c6c0       $unwind$__acrt_GetStringTypeA 00000001800316c0     libucrt:getstringtypea.obj
 0002:0000c6e8       $unwind$__acrt_fp_strflt_to_string 00000001800316e8     libucrt:_fptostr.obj
 0002:0000c704       $unwind$__acrt_fltout      0000000180031704     libucrt:cfout.obj
 0002:0000c724       $unwind$?divide@__crt_strtox@@YA_KAEAUbig_integer@1@AEBU21@@Z 0000000180031724     libucrt:cfout.obj
 0002:0000c73c       $chain$0$?divide@__crt_strtox@@YA_KAEAUbig_integer@1@AEBU21@@Z 000000018003173c     libucrt:cfout.obj
 0002:0000c750       $chain$1$?divide@__crt_strtox@@YA_KAEAUbig_integer@1@AEBU21@@Z 0000000180031750     libucrt:cfout.obj
 0002:0000c760       $unwind$?__mbsrtowcs_utf8@__crt_mbstring@@YA_KPEA_WPEAPEBD_KPEAU_Mbstatet@@AEAV__crt_cached_ptd_host@@@Z 0000000180031760     libucrt:mbrtowc.obj
 0002:0000c778       $unwind$_fcloseall         0000000180031778     libucrt:closeall.obj
 0002:0000c79c       $unwind$__acrt_lowio_destroy_handle_array 000000018003179c     libucrt:osfinfo.obj
 0002:0000c7ac       $unwind$__acrt_lowio_ensure_fh_exists 00000001800317ac     libucrt:osfinfo.obj
 0002:0000c7d8       $unwind$qsort              00000001800317d8     libucrt:qsort.obj
 0002:0000c7f0       $chain$4$qsort             00000001800317f0     libucrt:qsort.obj
 0002:0000c814       $chain$5$qsort             0000000180031814     libucrt:qsort.obj
 0002:0000c824       $unwind$strpbrk            0000000180031824     libucrt:strpbrk.obj
 0002:0000c834       $unwind$fallbackMethod     0000000180031834     libucrt:strpbrk.obj
 0002:0000c844       $unwind$__acrt_LCMapStringA 0000000180031844     libucrt:lcmapstringa.obj
 0002:0000c854       $unwind$?__acrt_LCMapStringA_stat@@YAHPEAU__crt_locale_pointers@@PEB_WKPEBDHPEADHHH@Z 0000000180031854     libucrt:lcmapstringa.obj
 0002:0000c87c       $unwind$_commit            000000018003187c     libucrt:commit.obj
 0002:0000c884       $unwind$??$?RV<lambda_a37b2b86f63e897a80ea819b0eb08c01>@@AEAV<lambda_38ce7e780aa69e748d6df282ebc68efe>@@V<lambda_99fb1378e971ab6e7edea83e3a7a83a2>@@@?$__crt_seh_guarded_call@H@@QEAAH$$QEAV<lambda_a37b2b86f63e897a80ea819b0eb08c01>@@AEAV<lambda_38ce7e780aa69e748d6df282ebc68efe>@@$$QEAV<lambda_99fb1378e971ab6e7edea83e3a7a83a2>@@@Z 0000000180031884     libucrt:commit.obj
 0002:0000c8a8       $unwind$_write_nolock      00000001800318a8     libucrt:write.obj
 0002:0000c8c0       $unwind$_write_internal    00000001800318c0     libucrt:write.obj
 0002:0000c8f0       $unwind$?write_double_translated_ansi_nolock@@YA?AUwrite_result@?A0x17268360@@HQEBDIAEAV__crt_cached_ptd_host@@@Z 00000001800318f0     libucrt:write.obj
 0002:0000c918       $ip2state$?write_double_translated_ansi_nolock@@YA?AUwrite_result@?A0x17268360@@HQEBDIAEAV__crt_cached_ptd_host@@@Z 0000000180031918     libucrt:write.obj
 0002:0000c920       $unwind$?write_text_ansi_nolock@@YA?AUwrite_result@?A0x17268360@@HQEBDI@Z 0000000180031920     libucrt:write.obj
 0002:0000c920       $unwind$?write_text_utf16le_nolock@@YA?AUwrite_result@?A0x17268360@@HQEBDI@Z 0000000180031920     libucrt:write.obj
 0002:0000c940       $unwind$?write_text_utf8_nolock@@YA?AUwrite_result@?A0x17268360@@HQEBDI@Z 0000000180031940     libucrt:write.obj
 0002:0000c968       $xdatasym                  0000000180031968     libucrt:log10.obj
 0002:0000c974       $unwind$__acrt_fenv_set_control 0000000180031974     libucrt:_fenvutils.obj
 0002:0000c984       $unwind$?__mbrtoc32_utf8@__crt_mbstring@@YA_KPEA_UPEBD_KPEAU_Mbstatet@@AEAV__crt_cached_ptd_host@@@Z 0000000180031984     libucrt:mbrtoc32.obj
 0002:0000c9a0       $unwind$?_fclose_nolock_internal@@YAHQEAU_iobuf@@AEAV__crt_cached_ptd_host@@@Z 00000001800319a0     libucrt:fclose.obj
 0002:0000c9b0       $unwind$?_fclose_internal@@YAHQEAU_iobuf@@AEAV__crt_cached_ptd_host@@@Z 00000001800319b0     libucrt:fclose.obj
 0002:0000c9d4       $unwind$_putwch_nolock     00000001800319d4     libucrt:putwch.obj
 0002:0000c9dc       $unwind$common_control87   00000001800319dc     libucrt:ieee.obj
 0002:0000ca08       $unwind$_call_matherr      0000000180031a08     libucrt:libm_error.obj
 0002:0000ca10       $unwind$_handle_error      0000000180031a10     libucrt:libm_error.obj
 0002:0000ca30       $unwind$__acrt_initialize_fma3 0000000180031a30     libucrt:fma3_available.obj
 0002:0000ca38       $unwind$_log_special_common 0000000180031a38     libucrt:log_special.obj
 0002:0000ca44       $unwind$_close_internal    0000000180031a44     libucrt:close.obj
 0002:0000ca4c       $unwind$??$?RV<lambda_ad8af0d99a0adf03d037d7dffe354bb5>@@AEAV<lambda_c9ba49e555ba839a7b07aa3fbecb7617>@@V<lambda_2f1ebd5d68526518146ae959c9e734c8>@@@?$__crt_seh_guarded_call@H@@QEAAH$$QEAV<lambda_ad8af0d99a0adf03d037d7dffe354bb5>@@AEAV<lambda_c9ba49e555ba839a7b07aa3fbecb7617>@@$$QEAV<lambda_2f1ebd5d68526518146ae959c9e734c8>@@@Z 0000000180031a4c     libucrt:close.obj
 0002:0000ca70       $xdatasym                  0000000180031a70     libucrt:fpsr.obj
 0002:0000ca78       $unwind$_raise_exc_ex      0000000180031a78     libucrt:fpexcept.obj
 0002:0000ca8c       $unwind$_ctrlfp            0000000180031a8c     libucrt:fpctrl.obj
 0002:0000cab4       $unwind$_IsNonwritableInCurrentImage 0000000180031ab4     LIBCMT:pesect.obj
 0002:0000cad8       $unwind$strrchr            0000000180031ad8     libvcruntime:strrchr.obj
 0002:0000cc40       .edata                     0000000180031c40     OPOSCashDrawer.exp
 0002:0000cc68       rgpv                       0000000180031c68     OPOSCashDrawer.exp
 0002:0000cc78       rgszName                   0000000180031c78     OPOSCashDrawer.exp
 0002:0000cc88       rgwOrd                     0000000180031c88     OPOSCashDrawer.exp
 0002:0000cc90       szName                     0000000180031c90     OPOSCashDrawer.exp
 0002:0000cca3       $N00001                    0000000180031ca3     OPOSCashDrawer.exp
 0002:0000ccb3       $N00002                    0000000180031cb3     OPOSCashDrawer.exp
 0002:0000ccc5       $N00003                    0000000180031cc5     OPOSCashDrawer.exp
 0002:0000ccd7       $N00004                    0000000180031cd7     OPOSCashDrawer.exp
 0002:0000d622       .idata$6                   0000000180032622     kernel32:KERNEL32.dll
 0002:0000d83a       .idata$6                   000000018003283a     user32:USER32.dll
 0002:0000d96e       .idata$6                   000000018003296e     gdi32:GDI32.dll
 0002:0000da14       .idata$6                   0000000180032a14     advapi32:ADVAPI32.dll
 0002:0000db30       .idata$6                   0000000180032b30     ole32:ole32.dll
 0002:0000db3a       .idata$6                   0000000180032b3a     oleaut32:OLEAUT32.dll
 0003:000001c0       ?ObjectMap@@3PAU_ATL_OBJMAP_ENTRY30@ATL@@A 00000001800341c0     CashDrawer.obj
 0003:000002d0       ?s_SOMethodNames@@3PAPEADA 00000001800342d0     CashDrawerImpl.obj
 0003:00000368       ?s_RequiredMethodsPerRelease@@3PAHA 0000000180034368     CashDrawerImpl.obj
 0003:000003d0       ?__vcrt_flsindex@@3KA      00000001800343d0     libvcruntime:per_thread_data.obj
 0003:000003e0       ?errno_no_memory@@3HA      00000001800343e0     libucrt:errno.obj
 0003:000003e4       ?doserrno_no_memory@@3KA   00000001800343e4     libucrt:errno.obj
 0003:000003f0       ?__acrt_flsindex@@3KA      00000001800343f0     libucrt:per_thread_data.obj
 0003:000008b0       _mbctypes                  00000001800348b0     libucrt:mbctype.obj
 0003:000009c0       _mbcasemaps                00000001800349c0     libucrt:mbctype.obj
 0003:00000ac0       ?__rgctypeflag@@3PADA      0000000180034ac0     libucrt:mbctype.obj
 0003:00000ad0       ?__rgcode_page_info@@3PAUcode_page_info@@A 0000000180034ad0     libucrt:mbctype.obj
 0003:00000d70       ?dazSupported@?1??common_control87@@9@9 0000000180034d70     libucrt:ieee.obj
 0003:00000d80       ?__dcrt_lowio_console_output_handle@@3PEAXEA 0000000180034d80     libucrt:initcon.obj
 0003:00000d90       ?dazSupported@?1??_ctrlfp@@9@9 0000000180034d90     libucrt:fpctrl.obj
 0003:00000fe0       ?is_initialized_as_dll@@3_NA 0000000180034fe0     LIBCMT:utility.obj
 0003:00000fe1       ?module_local_atexit_table_initialized@@3_NA 0000000180034fe1     LIBCMT:utility.obj
 0003:00000fe8       ?module_local_atexit_table@@3U_onexit_table_t@@A 0000000180034fe8     LIBCMT:utility.obj
 0003:00001000       ?module_local_at_quick_exit_table@@3U_onexit_table_t@@A 0000000180035000     LIBCMT:utility.obj
 0003:00001018       ?g_tss_cv@@3U_RTL_CONDITION_VARIABLE@@A 0000000180035018     LIBCMT:thread_safe_statics.obj
 0003:00001020       ?g_tss_event@@3PEAXEA      0000000180035020     LIBCMT:thread_safe_statics.obj
 0003:00001028       ?g_tss_mutex@@3U_RTL_CRITICAL_SECTION@@A 0000000180035028     LIBCMT:thread_safe_statics.obj
 0003:00001050       ?g_sleep_condition_variable_cs@@3P6AHPEAU_RTL_CONDITION_VARIABLE@@PEAU_RTL_CRITICAL_SECTION@@K@ZEA 0000000180035050     LIBCMT:thread_safe_statics.obj
 0003:00001058       ?g_wake_all_condition_variable@@3P6AXPEAU_RTL_CONDITION_VARIABLE@@@ZEA 0000000180035058     LIBCMT:thread_safe_statics.obj
 0003:00001060       GS_ExceptionRecord         0000000180035060     LIBCMT:gs_report.obj
 0003:00001100       GS_ContextRecord           0000000180035100     LIBCMT:gs_report.obj
 0003:000015d4       ?__proc_attached@@3HA      00000001800355d4     LIBCMT:dll_dllmain.obj
 0003:00001668       ?AllocateData@@3P6APEAUAtlThunkData_t@@XZEA 0000000180035668     atls:atlthunk.obj
 0003:00001670       ?InitData@@3P6AXPEAUAtlThunkData_t@@PEAX_K@ZEA 0000000180035670     atls:atlthunk.obj
 0003:00001678       ?DataToCode@@3P6AP6A_JPEAUHWND__@@I_K_J@ZPEAUAtlThunkData_t@@@ZEA 0000000180035678     atls:atlthunk.obj
 0003:00001680       ?FreeData@@3P6AXPEAUAtlThunkData_t@@@ZEA 0000000180035680     atls:atlthunk.obj
 0003:00001688       ?Initialized@@3_NA         0000000180035688     atls:atlthunk.obj
 0003:000016a0       ?__vcrt_startup_thread_ptd@@3U__vcrt_ptd@@A 00000001800356a0     libvcruntime:per_thread_data.obj
 0003:00001720       __vcrt_lock_table          0000000180035720     libvcruntime:locks.obj
 0003:00001748       __vcrt_locks_initialized   0000000180035748     libvcruntime:locks.obj
 0003:00001790       ?heap@@3V_HeapManager@@A   0000000180035790     libvcruntime:undname.obj
 0003:000017b8       ?module_handles@@3PAPEAUHINSTANCE__@@A 00000001800357b8     libvcruntime:winapi_downlevel.obj
 0003:000017d0       ?function_pointers@@3PAPEAXA 00000001800357d0     libvcruntime:winapi_downlevel.obj
 0003:000017f8       ?__acrt_invalid_parameter_handler@@3V?$dual_state_global@P6AXPEB_W00I_K@Z@__crt_state_management@@A 00000001800357f8     libucrt:invalid_parameter.obj
 0003:00001800       ?c_termination_complete@@3JA 0000000180035800     libucrt:exit.obj
 0003:00001808       ?thread_local_exit_callback_func@@3P6AXPEAXK0@ZEA 0000000180035808     libucrt:exit.obj
 0003:00001820       ?program_name@?1???$common_configure_argv@D@@YAHW4_crt_argv_mode@@@Z@4PADA 0000000180035820     libucrt:argv_parsing.obj
 0003:00001978       ?__acrt_new_handler@@3V?$dual_state_global@P6AH_K@Z@__crt_state_management@@A 0000000180035978     libucrt:new_handler.obj
 0003:00001990       ?module_handles@@3PAPEAUHINSTANCE__@@A 0000000180035990     libucrt:winapi_thunks.obj
 0003:00001a30       ?encoded_function_pointers@@3PAPEAXA 0000000180035a30     libucrt:winapi_thunks.obj
 0003:00001b20       ?internal_state@?1??_mbtowc_internal@@9@4U_Mbstatet@@A 0000000180035b20     libucrt:mbtowc.obj
 0003:00001b38       ?enable_percent_n@@3_KA    0000000180035b38     libucrt:printf_count_output.obj
 0003:00001f60       ?__acrt_lock_table@@3PAU_RTL_CRITICAL_SECTION@@A 0000000180035f60     libucrt:locks.obj
 0003:00002190       ?__acrt_locks_initialized@@3IA 0000000180036190     libucrt:locks.obj
 0003:000021b0       ?fSystemSet@@3HA           00000001800361b0     libucrt:mbctype.obj
 0003:000021b4       ?initialized@?1??__acrt_initialize_multibyte@@9@4_NA 00000001800361b4     libucrt:mbctype.obj
 0003:000021f0       ?ctrlc_action@@3V?$dual_state_global@P6AXH@Z@__crt_state_management@@A 00000001800361f0     libucrt:signal.obj
 0003:000021f8       ?ctrlbreak_action@@3V?$dual_state_global@P6AXH@Z@__crt_state_management@@A 00000001800361f8     libucrt:signal.obj
 0003:00002200       ?abort_action@@3V?$dual_state_global@P6AXH@Z@__crt_state_management@@A 0000000180036200     libucrt:signal.obj
 0003:00002208       ?term_action@@3V?$dual_state_global@P6AXH@Z@__crt_state_management@@A 0000000180036208     libucrt:signal.obj
 0003:00002210       ?user_matherr@@3V?$dual_state_global@P6AHPEAU_exception@@@Z@__crt_state_management@@A 0000000180036210     libucrt:matherr.obj
 0003:00002220       ?__acrt_global_new_mode@@3V?$dual_state_global@J@__crt_state_management@@A 0000000180036220     libucrt:new_mode.obj
 0003:00002228       ?internal_pst@?1??__mbrtoc32_utf8@__crt_mbstring@@YA_KPEA_UPEBD_KPEAU_Mbstatet@@AEAV__crt_cached_ptd_host@@@Z@4U3@A 0000000180036228     libucrt:mbrtoc32.obj
 0003:00002230       ?__acrt_app_type@@3W4_crt_app_type@@A 0000000180036230     libucrt:report_runtime_error.obj
 0005:00000000       MoveSmall                  0000000180039000     libvcruntime:memcpy.obj
 0005:00000040       MoveSmallYmm               0000000180039040     libvcruntime:memcpy.obj
 0005:00000064       MoveSmallYmmNT             0000000180039064     libvcruntime:memcpy.obj
 0005:00000088       MoveSmallXmm               0000000180039088     libvcruntime:memcpy.obj
 0005:000000b0       MsetTab                    00000001800390b0     libvcruntime:memset.obj
 0006:00000220       $R000000                   000000018003a220     CashDrawer.res
 0006:00000bb8       $R000998                   000000018003abb8     CashDrawer.res
 0006:00000ca0       $R000A80                   000000018003aca0     CashDrawer.res
 0006:00000f08       $R000CE8                   000000018003af08     CashDrawer.res
 0006:00001470       $R001250                   000000018003b470     CashDrawer.res
 0006:00003938       $R003718                   000000018003d938     CashDrawer.res
 0006:00003970       $R003750                   000000018003d970     CashDrawer.res
