 OPOSMotionSensor

 Timestamp is 600f795c (Tue Jan 26 11:07:24 2021)

 Preferred load address is 0000000180000000

 Start         Length     Name                   Class
 0001:00000000 000000c0H .text$di                CODE
 0001:000000c0 00020ac0H .text$mn                CODE
 0001:00020b80 00000040H .text$mn$00             CODE
 0001:00020bc0 000004b0H .text$x                 CODE
 0001:00021070 00000078H .text$yd                CODE
 0002:00000000 00000618H .idata$5                DATA
 0002:00000618 00000028H .00cfg                  DATA
 0002:00000640 00000008H .CRT$XCA                DATA
 0002:00000648 00000008H .CRT$XCL                DATA
 0002:00000650 00000020H .CRT$XCU                DATA
 0002:00000670 00000008H .CRT$XCZ                DATA
 0002:00000678 00000008H .CRT$XIA                DATA
 0002:00000680 00000020H .CRT$XIC                DATA
 0002:000006a0 00000008H .CRT$XIZ                DATA
 0002:000006a8 00000008H .CRT$XLA                DATA
 0002:000006b0 00000008H .CRT$XLZ                DATA
 0002:000006b8 00000008H .CRT$XPA                DATA
 0002:000006c0 00000010H .CRT$XPX                DATA
 0002:000006d0 00000008H .CRT$XPXA               DATA
 0002:000006d8 00000008H .CRT$XPZ                DATA
 0002:000006e0 00000008H .CRT$XTA                DATA
 0002:000006e8 00000008H .CRT$XTZ                DATA
 0002:000006f0 00000000H .gehcont$y              DATA
 0002:000006f0 00000000H .gfids$y                DATA
 0002:000006f0 0000a710H .rdata                  DATA
 0002:0000ae00 00000000H .rdata$CastGuardVftablesA DATA
 0002:0000ae00 00000000H .rdata$CastGuardVftablesC DATA
 0002:0000ae00 00000028H .rdata$T                DATA
 0002:0000ae28 00000274H .rdata$r                DATA
 0002:0000b09c 0000040cH .rdata$zzzdbg           DATA
 0002:0000b4a8 00000008H .rtc$IAA                DATA
 0002:0000b4b0 00000008H .rtc$IZZ                DATA
 0002:0000b4b8 00000008H .rtc$TAA                DATA
 0002:0000b4c0 00000008H .rtc$TZZ                DATA
 0002:0000b4c8 00000004H .tls                    DATA
 0002:0000b4cc 00000004H .tls$                   DATA
 0002:0000b4d0 00000008H .tls$ZZZ                DATA
 0002:0000b4d8 00001690H .xdata                  DATA
 0002:0000cb68 00000150H .xdata$x                DATA
 0002:0000ccb8 00000008H ATL$__a                 DATA
 0002:0000ccc0 00000010H ATL$__z                 DATA
 0002:0000ccd0 000000b0H .edata                  DATA
 0002:0000cd80 00000078H .idata$2                DATA
 0002:0000cdf8 00000018H .idata$3                DATA
 0002:0000ce10 00000618H .idata$4                DATA
 0002:0000d428 00000c2aH .idata$6                DATA
 0003:00000000 00000d78H .data                   DATA
 0003:00000d78 000000c8H .data$r                 DATA
 0003:00000e40 0000141cH .bss                    DATA
 0004:00000000 00001de8H .pdata                  DATA
 0005:00000000 00000094H _RDATA                  DATA
 0006:00000000 00000220H .rsrc$01                DATA
 0006:00000220 00003718H .rsrc$02                DATA

  Address         Publics by Value              Rva+Base               Lib:Object

 0000:00000000       __x64_code_ranges_to_entry_points 0000000000000000     <absolute>
 0000:00000000       __x64_code_ranges_to_entry_points_count 0000000000000000     <absolute>
 0000:00000000       __guard_fids_count         0000000000000000     <absolute>
 0000:00000000       __arm64x_extra_rfe_table   0000000000000000     <absolute>
 0000:00000000       __arm64x_redirection_metadata 0000000000000000     <absolute>
 0000:00000000       __guard_iat_table          0000000000000000     <absolute>
 0000:00000000       __guard_longjmp_table      0000000000000000     <absolute>
 0000:00000000       __hybrid_code_map          0000000000000000     <absolute>
 0000:00000000       __volatile_metadata        0000000000000000     <absolute>
 0000:00000000       __arm64x_extra_rfe_table_size 0000000000000000     <absolute>
 0000:00000000       ___safe_se_handler_count   0000000000000000     <absolute>
 0000:00000000       __guard_iat_count          0000000000000000     <absolute>
 0000:00000000       __guard_longjmp_count      0000000000000000     <absolute>
 0000:00000000       ___safe_se_handler_table   0000000000000000     <absolute>
 0000:00000000       __dynamic_value_reloc_table 0000000000000000     <absolute>
 0000:00000000       __hybrid_auxiliary_iat     0000000000000000     <absolute>
 0000:00000000       __guard_eh_cont_count      0000000000000000     <absolute>
 0000:00000000       __AbsoluteZero             0000000000000000     <absolute>
 0000:00000000       __guard_fids_table         0000000000000000     <absolute>
 0000:00000000       __arm64x_redirection_metadata_count 0000000000000000     <absolute>
 0000:00000000       __enclave_config           0000000000000000     <absolute>
 0000:00000000       __guard_eh_cont_table      0000000000000000     <absolute>
 0000:00000000       __arm64x_native_entrypoint 0000000000000000     <absolute>
 0000:00000000       __hybrid_code_map_count    0000000000000000     <absolute>
 0000:00000100       __guard_flags              0000000000000100     <absolute>
 0000:00000000       __ImageBase                0000000180000000     <linker-defined>
 0001:000000c0       ?DupWide@_CW@@AEAAXXZ      00000001800010c0 f   CWString.obj
 0001:000000e8       ?cw_dup@@YAXPEBDAEAHAEAPEA_W1@Z 00000001800010e8 f   CWString.obj
 0001:000001c8       ?cw_memcpy@@YAHPEA_WPEBDH@Z 00000001800011c8 f   CWString.obj
 0001:00000214       ?cw_strcpy@@YAHPEA_WPEBD@Z 0000000180001214 f   CWString.obj
 0001:00000228       ??0CAtlComModule@ATL@@QEAA@XZ 0000000180001228 f i OposVariant.obj
 0001:000002a8       ??0CAtlWinModule@ATL@@QEAA@XZ 00000001800012a8 f i OposVariant.obj
 0001:00000314       ??0OposDispParms@@QEAA@PEAVOposVariant@@H@Z 0000000180001314 f   OposVariant.obj
 0001:000003bc       ??1OposDispParms@@QEAA@XZ  00000001800013bc f   OposVariant.obj
 0001:000003d4       ??_Estringdispid@CComTypeInfoHolder@ATL@@QEAAPEAXI@Z 00000001800013d4 f i OposVariant.obj
 0001:00000478       ?AtlWinModuleTerm@ATL@@YAJPEAU_ATL_WIN_MODULE70@1@PEAUHINSTANCE__@@@Z 0000000180001478 f i OposVariant.obj
 0001:00000528       ?ChangeBSTR@OposVariant@@QEAAXPEAPEA_WAEAJ@Z 0000000180001528 f   OposVariant.obj
 0001:00000588       ?ChangeLONG@OposVariant@@QEAAXPEAJAEAJ@Z 0000000180001588 f   OposVariant.obj
 0001:000005e4       ?GetLONG@OposVariant@@QEAAJXZ 00000001800015e4 f   OposVariant.obj
 0001:00000608       ?SetBSTR@OposVariant@@QEAAXPEA_WAEAJ@Z 0000000180001608 f   OposVariant.obj
 0001:00000648       ?SetBSTR_Copy@OposVariant@@QEAAXPEA_WAEAJ@Z 0000000180001648 f   OposVariant.obj
 0001:000006b8       ?SetBSTR_InOutPtr@OposVariant@@QEAA_NPEAPEA_WAEAJ@Z 00000001800016b8 f   OposVariant.obj
 0001:00000708       ?SetDispatch_Ptr@OposVariant@@QEAAXPEAUIDispatch@@AEAJ@Z 0000000180001708 f   OposVariant.obj
 0001:00000760       ?SetLONG@OposVariant@@QEAAXJ@Z 0000000180001760 f   OposVariant.obj
 0001:00000790       ?SetLONG_Ptr@OposVariant@@QEAAXPEAJAEAJ@Z 0000000180001790 f   OposVariant.obj
 0001:000007dc       ?SetString@OposVariant@@QEAAXPEB_WAEAJ@Z 00000001800017dc f   OposVariant.obj
 0001:00000840       ?SetVARIANT_BOOL@OposVariant@@QEAAXF@Z 0000000180001840 f   OposVariant.obj
 0001:00000878       ?Term@CAtlComModule@ATL@@QEAAXXZ 0000000180001878 f i OposVariant.obj
 0001:000008e8       ?_AtlInitializeCriticalSectionEx@ATL@@YAHPEAU_RTL_CRITICAL_SECTION@@KK@Z 00000001800018e8 f i OposVariant.obj
 0001:000008f0       ?_AtlRaiseException@ATL@@YAXKK@Z 00000001800018f0 f i OposVariant.obj
 0001:00000900       ?GetWindowProc@?$CWindowImplBaseT@VCWindow@ATL@@V?$CWinTraits@$0FGAAAAAA@$0A@@2@@ATL@@UEAAP6A_JPEAUHWND__@@I_K_J@ZXZ 0000000180001900 f i MotionSensor.obj
 0001:00000908       ?StartWindowProc@?$CWindowImplBaseT@VCWindow@ATL@@V?$CWinTraits@$0FGAAAAAA@$0A@@2@@ATL@@SA_JPEAUHWND__@@I_K_J@Z 0000000180001908 f i MotionSensor.obj
 0001:000009cc       ?ObjectMain@CComObjectRootBase@ATL@@SAX_N@Z 00000001800019cc f i MotionSensor.obj
 0001:000009cc       ?OnFinalMessage@?$CWindowImplBaseT@VCWindow@ATL@@V?$CWinTraits@$0FGAAAAAA@$0A@@2@@ATL@@UEAAXPEAUHWND__@@@Z 00000001800019cc f i MotionSensor.obj
 0001:000009cc       _guard_check_icall_nop     00000001800019cc f i LIBCMT:guard_support.obj
 0001:000009d0       ?GetTypeInfoCount@?$IDispatchImpl@UIOPOSMotionSensor@@$1?IID_IOPOSMotionSensor@@3U_GUID@@B$1?LIBID_OposMotionSensor_CCO@@3U3@B$00$0A@VCComTypeInfoHolder@ATL@@@ATL@@UEAAJPEAI@Z 00000001800019d0 f i MotionSensor.obj
 0001:000009e4       ?GetTypeInfo@?$IDispatchImpl@UIOPOSMotionSensor@@$1?IID_IOPOSMotionSensor@@3U_GUID@@B$1?LIBID_OposMotionSensor_CCO@@3U3@B$00$0A@VCComTypeInfoHolder@ATL@@@ATL@@UEAAJIKPEAPEAUITypeInfo@@@Z 00000001800019e4 f i MotionSensor.obj
 0001:00000a48       ?GetIDsOfNames@?$IDispatchImpl@UIOPOSMotionSensor@@$1?IID_IOPOSMotionSensor@@3U_GUID@@B$1?LIBID_OposMotionSensor_CCO@@3U3@B$00$0A@VCComTypeInfoHolder@ATL@@@ATL@@UEAAJAEBU_GUID@@PEAPEA_WIKPEAJ@Z 0000000180001a48 f i MotionSensor.obj
 0001:00000a54       ?Invoke@?$IDispatchImpl@UIOPOSMotionSensor@@$1?IID_IOPOSMotionSensor@@3U_GUID@@B$1?LIBID_OposMotionSensor_CCO@@3U3@B$00$0A@VCComTypeInfoHolder@ATL@@@ATL@@UEAAJJAEBU_GUID@@KGPEAUtagDISPPARAMS@@PEAUtagVARIANT@@PEAUtagEXCEPINFO@@PEAI@Z 0000000180001a54 f i MotionSensor.obj
 0001:00000ae4       ?CreateControlWindow@?$CComControl@VCOPOSMotionSensor@@V?$CWindowImpl@VCOPOSMotionSensor@@VCWindow@ATL@@V?$CWinTraits@$0FGAAAAAA@$0A@@3@@ATL@@@ATL@@UEAAPEAUHWND__@@PEAU3@AEAUtagRECT@@@Z 0000000180001ae4 f i MotionSensor.obj
 0001:00000b1c       ?ControlQueryInterface@?$CComControl@VCOPOSMotionSensor@@V?$CWindowImpl@VCOPOSMotionSensor@@VCWindow@ATL@@V?$CWinTraits@$0FGAAAAAA@$0A@@3@@ATL@@@ATL@@UEAAJAEBU_GUID@@PEAPEAX@Z 0000000180001b1c f i MotionSensor.obj
 0001:00000b30       ?GetClassID@?$IPersistStreamInitImpl@VCOPOSMotionSensor@@@ATL@@UEAAJPEAU_GUID@@@Z 0000000180001b30 f i MotionSensor.obj
 0001:00000b30       ?GetUserClassID@?$IOleObjectImpl@VCOPOSMotionSensor@@@ATL@@UEAAJPEAU_GUID@@@Z 0000000180001b30 f i MotionSensor.obj
 0001:00000b30       ?GetClassID@?$IPersistStorageImpl@VCOPOSMotionSensor@@@ATL@@UEAAJPEAU_GUID@@@Z 0000000180001b30 f i MotionSensor.obj
 0001:00000b4c       ?IsDirty@?$IPersistStreamInitImpl@VCOPOSMotionSensor@@@ATL@@UEAAJXZ 0000000180001b4c f i MotionSensor.obj
 0001:00000b68       ?Load@?$IPersistStreamInitImpl@VCOPOSMotionSensor@@@ATL@@UEAAJPEAUIStream@@@Z 0000000180001b68 f i MotionSensor.obj
 0001:00000b80       ?Save@?$IPersistStreamInitImpl@VCOPOSMotionSensor@@@ATL@@UEAAJPEAUIStream@@H@Z 0000000180001b80 f i MotionSensor.obj
 0001:00000b98       ?GetSizeMax@?$IPersistStreamInitImpl@VCOPOSMotionSensor@@@ATL@@UEAAJPEAT_ULARGE_INTEGER@@@Z 0000000180001b98 f i MotionSensor.obj
 0001:00000dc4       ?InitNew@?$IPersistStreamInitImpl@VCOPOSMotionSensor@@@ATL@@UEAAJXZ 0000000180001dc4 f i MotionSensor.obj
 0001:00000ddc       ?GetDropTarget@?$IOleInPlaceObjectWindowlessImpl@VCOPOSMotionSensor@@@ATL@@UEAAJPEAPEAUIDropTarget@@@Z 0000000180001ddc f i MotionSensor.obj
 0001:00000ddc       ?GetClipboardData@?$IOleObjectImpl@VCOPOSMotionSensor@@@ATL@@UEAAJKPEAPEAUIDataObject@@@Z 0000000180001ddc f i MotionSensor.obj
 0001:00000ddc       ?QueryInterface@CRegObject@ATL@@UEAAJAEBU_GUID@@PEAPEAX@Z 0000000180001ddc f i MotionSensor.obj
 0001:00000ddc       ?SOOutputCompleteDummy@COPOSMotionSensor@@MEAAJJ@Z 0000000180001ddc f i MotionSensor.obj
 0001:00000ddc       ?Unfreeze@?$IViewObjectExImpl@VCOPOSMotionSensor@@@ATL@@UEAAJK@Z 0000000180001ddc f i MotionSensor.obj
 0001:00000ddc       ?GetControlInfo@?$IOleControlImpl@VCOPOSMotionSensor@@@ATL@@UEAAJPEAUtagCONTROLINFO@@@Z 0000000180001ddc f i MotionSensor.obj
 0001:00000ddc       ?OnMnemonic@?$IOleControlImpl@VCOPOSMotionSensor@@@ATL@@UEAAJPEAUtagMSG@@@Z 0000000180001ddc f i MotionSensor.obj
 0001:00000ddc       ?SetColorScheme@?$IOleObjectImpl@VCOPOSMotionSensor@@@ATL@@UEAAJPEAUtagLOGPALETTE@@@Z 0000000180001ddc f i MotionSensor.obj
 0001:00000ddc       ?GetColorSet@?$IViewObjectExImpl@VCOPOSMotionSensor@@@ATL@@UEAAJKJPEAXPEAUtagDVTARGETDEVICE@@PEAUHDC__@@PEAPEAUtagLOGPALETTE@@@Z 0000000180001ddc f i MotionSensor.obj
 0001:00000ddc       ?SetData@?$IDataObjectImpl@VCOPOSMotionSensor@@@ATL@@UEAAJPEAUtagFORMATETC@@PEAUtagSTGMEDIUM@@H@Z 0000000180001ddc f i MotionSensor.obj
 0001:00000ddc       ?GetRect@?$IViewObjectExImpl@VCOPOSMotionSensor@@@ATL@@UEAAJKPEAU_RECTL@@@Z 0000000180001ddc f i MotionSensor.obj
 0001:00000ddc       ?GetDataHere@?$IDataObjectImpl@VCOPOSMotionSensor@@@ATL@@UEAAJPEAUtagFORMATETC@@PEAUtagSTGMEDIUM@@@Z 0000000180001ddc f i MotionSensor.obj
 0001:00000ddc       ?QueryGetData@?$IDataObjectImpl@VCOPOSMotionSensor@@@ATL@@UEAAJPEAUtagFORMATETC@@@Z 0000000180001ddc f i MotionSensor.obj
 0001:00000ddc       ?EnumFormatEtc@?$IDataObjectImpl@VCOPOSMotionSensor@@@ATL@@UEAAJKPEAPEAUIEnumFORMATETC@@@Z 0000000180001ddc f i MotionSensor.obj
 0001:00000ddc       ?ContextSensitiveHelp@?$IOleInPlaceObjectWindowlessImpl@VCOPOSMotionSensor@@@ATL@@UEAAJH@Z 0000000180001ddc f i MotionSensor.obj
 0001:00000ddc       ?ReactivateAndUndo@?$IOleInPlaceObjectWindowlessImpl@VCOPOSMotionSensor@@@ATL@@UEAAJXZ 0000000180001ddc f i MotionSensor.obj
 0001:00000ddc       ?ContextSensitiveHelp@?$IOleInPlaceActiveObjectImpl@VCOPOSMotionSensor@@@ATL@@UEAAJH@Z 0000000180001ddc f i MotionSensor.obj
 0001:00000ddc       ?SODataDummy@COPOSMotionSensor@@MEAAJJ@Z 0000000180001ddc f i MotionSensor.obj
 0001:00000ddc       ?SetMoniker@?$IOleObjectImpl@VCOPOSMotionSensor@@@ATL@@UEAAJKPEAUIMoniker@@@Z 0000000180001ddc f i MotionSensor.obj
 0001:00000ddc       ?GetMoniker@?$IOleObjectImpl@VCOPOSMotionSensor@@@ATL@@UEAAJKKPEAPEAUIMoniker@@@Z 0000000180001ddc f i MotionSensor.obj
 0001:00000ddc       ?Freeze@?$IViewObjectExImpl@VCOPOSMotionSensor@@@ATL@@UEAAJKJPEAXPEAK@Z 0000000180001ddc f i MotionSensor.obj
 0001:00000ddc       ?GetCanonicalFormatEtc@?$IDataObjectImpl@VCOPOSMotionSensor@@@ATL@@UEAAJPEAUtagFORMATETC@@0@Z 0000000180001ddc f i MotionSensor.obj
 0001:00000ddc       ?SOErrorDummy@COPOSMotionSensor@@MEAAJJJJPEAJ@Z 0000000180001ddc f i MotionSensor.obj
 0001:00000ddc       ?InitFromData@?$IOleObjectImpl@VCOPOSMotionSensor@@@ATL@@UEAAJPEAUIDataObject@@HK@Z 0000000180001ddc f i MotionSensor.obj
 0001:00000de4       ?EnableModeless@?$IOleInPlaceActiveObjectImpl@VCOPOSMotionSensor@@@ATL@@UEAAJH@Z 0000000180001de4 f i MotionSensor.obj
 0001:00000de4       ?SetHostNames@?$IOleObjectImpl@VCOPOSMotionSensor@@@ATL@@UEAAJPEB_W0@Z 0000000180001de4 f i MotionSensor.obj
 0001:00000de4       ?SaveCompleted@?$IPersistStorageImpl@VCOPOSMotionSensor@@@ATL@@UEAAJPEAUIStorage@@@Z 0000000180001de4 f i MotionSensor.obj
 0001:00000de4       ?IsUpToDate@?$IOleObjectImpl@VCOPOSMotionSensor@@@ATL@@UEAAJXZ 0000000180001de4 f i MotionSensor.obj
 0001:00000de4       ?ResizeBorder@?$IOleInPlaceActiveObjectImpl@VCOPOSMotionSensor@@@ATL@@UEAAJPEBUtagRECT@@PEAUIOleInPlaceUIWindow@@H@Z 0000000180001de4 f i MotionSensor.obj
 0001:00000de4       ?GetCategoryMap@CComObjectRootBase@ATL@@SAPEBU_ATL_CATMAP_ENTRY@2@XZ 0000000180001de4 f i MotionSensor.obj
 0001:00000de4       ?HandsOffStorage@?$IPersistStorageImpl@VCOPOSMotionSensor@@@ATL@@UEAAJXZ 0000000180001de4 f i MotionSensor.obj
 0001:00000de4       ?GetObjectDescription@?$CComCoClass@VCOPOSMotionSensor@@$1?CLSID_OPOSMotionSensor@@3U_GUID@@B@ATL@@SAPEB_WXZ 0000000180001de4 f i MotionSensor.obj
 0001:00000de4       ?Update@?$IOleObjectImpl@VCOPOSMotionSensor@@@ATL@@UEAAJXZ 0000000180001de4 f i MotionSensor.obj
 0001:00000de4       ?Release@CRegObject@ATL@@UEAAKXZ 0000000180001de4 f i MotionSensor.obj
 0001:00000de4       ?OnFrameWindowActivate@?$IOleInPlaceActiveObjectImpl@VCOPOSMotionSensor@@@ATL@@UEAAJH@Z 0000000180001de4 f i MotionSensor.obj
 0001:00000de4       ?OnAmbientPropertyChange@?$IOleControlImpl@VCOPOSMotionSensor@@@ATL@@UEAAJJ@Z 0000000180001de4 f i MotionSensor.obj
 0001:00000de8       ?SetClientSite@?$IOleObjectImpl@VCOPOSMotionSensor@@@ATL@@UEAAJPEAUIOleClientSite@@@Z 0000000180001de8 f i MotionSensor.obj
 0001:00000e04       ?GetClientSite@?$IOleObjectImpl@VCOPOSMotionSensor@@@ATL@@UEAAJPEAPEAUIOleClientSite@@@Z 0000000180001e04 f i MotionSensor.obj
 0001:00000e4c       ?Close@?$IOleObjectImpl@VCOPOSMotionSensor@@@ATL@@UEAAJK@Z 0000000180001e4c f i MotionSensor.obj
 0001:00000e68       ?DoVerb@?$IOleObjectImpl@VCOPOSMotionSensor@@@ATL@@UEAAJJPEAUtagMSG@@PEAUIOleClientSite@@JPEAUHWND__@@PEBUtagRECT@@@Z 0000000180001e68 f i MotionSensor.obj
 0001:0000100c       ?EnumVerbs@?$IOleObjectImpl@VCOPOSMotionSensor@@@ATL@@UEAAJPEAPEAUIEnumOLEVERB@@@Z 000000018000200c f i MotionSensor.obj
 0001:00001028       ?GetUserType@?$IOleObjectImpl@VCOPOSMotionSensor@@@ATL@@UEAAJKPEAPEA_W@Z 0000000180002028 f i MotionSensor.obj
 0001:00001038       ?SetExtent@?$IOleObjectImpl@VCOPOSMotionSensor@@@ATL@@UEAAJKPEAUtagSIZE@@@Z 0000000180002038 f i MotionSensor.obj
 0001:00001054       ?GetExtent@?$IOleObjectImpl@VCOPOSMotionSensor@@@ATL@@UEAAJKPEAUtagSIZE@@@Z 0000000180002054 f i MotionSensor.obj
 0001:00001084       ?Advise@?$IOleObjectImpl@VCOPOSMotionSensor@@@ATL@@UEAAJPEAUIAdviseSink@@PEAK@Z 0000000180002084 f i MotionSensor.obj
 0001:000010e0       ?Unadvise@?$IOleObjectImpl@VCOPOSMotionSensor@@@ATL@@UEAAJK@Z 00000001800020e0 f i MotionSensor.obj
 0001:00001118       ?EnumAdvise@?$IOleObjectImpl@VCOPOSMotionSensor@@@ATL@@UEAAJPEAPEAUIEnumSTATDATA@@@Z 0000000180002118 f i MotionSensor.obj
 0001:00001160       ?GetMiscStatus@?$IOleObjectImpl@VCOPOSMotionSensor@@@ATL@@UEAAJKPEAK@Z 0000000180002160 f i MotionSensor.obj
 0001:00001170       ?GetWindow@?$IOleInPlaceActiveObjectImpl@VCOPOSMotionSensor@@@ATL@@UEAAJPEAPEAUHWND__@@@Z 0000000180002170 f i MotionSensor.obj
 0001:000011c4       ?TranslateAcceleratorW@?$IOleInPlaceActiveObjectImpl@VCOPOSMotionSensor@@@ATL@@UEAAJPEAUtagMSG@@@Z 00000001800021c4 f i MotionSensor.obj
 0001:000012b8       ?OnDocWindowActivate@?$IOleInPlaceActiveObjectImpl@VCOPOSMotionSensor@@@ATL@@UEAAJH@Z 00000001800022b8 f i MotionSensor.obj
 0001:000012e4       ?Draw@?$IViewObjectExImpl@VCOPOSMotionSensor@@@ATL@@UEAAJKJPEAXPEAUtagDVTARGETDEVICE@@PEAUHDC__@@2PEBU_RECTL@@3P6AH_K@Z4@Z 00000001800022e4 f i MotionSensor.obj
 0001:00001348       ?SetAdvise@?$IViewObjectExImpl@VCOPOSMotionSensor@@@ATL@@UEAAJKKPEAUIAdviseSink@@@Z 0000000180002348 f i MotionSensor.obj
 0001:0000139c       ?GetAdvise@?$IViewObjectExImpl@VCOPOSMotionSensor@@@ATL@@UEAAJPEAK0PEAPEAUIAdviseSink@@@Z 000000018000239c f i MotionSensor.obj
 0001:000013d8       ?GetExtent@?$IViewObjectExImpl@VCOPOSMotionSensor@@@ATL@@UEAAJKJPEAUtagDVTARGETDEVICE@@PEAUtagSIZE@@@Z 00000001800023d8 f i MotionSensor.obj
 0001:00001408       ?GetViewStatus@?$IViewObjectExImpl@VCOPOSMotionSensor@@@ATL@@UEAAJPEAK@Z 0000000180002408 f i MotionSensor.obj
 0001:0000141c       ?QueryHitPoint@?$IViewObjectExImpl@VCOPOSMotionSensor@@@ATL@@UEAAJKPEBUtagRECT@@UtagPOINT@@JPEAK@Z 000000018000241c f i MotionSensor.obj
 0001:00001460       ?QueryHitRect@?$IViewObjectExImpl@VCOPOSMotionSensor@@@ATL@@UEAAJKPEBUtagRECT@@0JPEAK@Z 0000000180002460 f i MotionSensor.obj
 0001:000014c8       ?GetNaturalExtent@?$IViewObjectExImpl@VCOPOSMotionSensor@@@ATL@@UEAAJKJPEAUtagDVTARGETDEVICE@@PEAUHDC__@@PEAUtagExtentInfo@@PEAUtagSIZE@@@Z 00000001800024c8 f i MotionSensor.obj
 0001:00001510       ?GetWindow@?$IOleInPlaceObjectWindowlessImpl@VCOPOSMotionSensor@@@ATL@@UEAAJPEAPEAUHWND__@@@Z 0000000180002510 f i MotionSensor.obj
 0001:00001564       ?InPlaceDeactivate@?$IOleInPlaceObjectWindowlessImpl@VCOPOSMotionSensor@@@ATL@@UEAAJXZ 0000000180002564 f i MotionSensor.obj
 0001:00001580       ?UIDeactivate@?$IOleInPlaceObjectWindowlessImpl@VCOPOSMotionSensor@@@ATL@@UEAAJXZ 0000000180002580 f i MotionSensor.obj
 0001:0000159c       ?SetObjectRects@?$IOleInPlaceObjectWindowlessImpl@VCOPOSMotionSensor@@@ATL@@UEAAJPEBUtagRECT@@0@Z 000000018000259c f i MotionSensor.obj
 0001:000015b8       ?OnWindowMessage@?$IOleInPlaceObjectWindowlessImpl@VCOPOSMotionSensor@@@ATL@@UEAAJI_K_JPEA_J@Z 00000001800025b8 f i MotionSensor.obj
 0001:00001680       ?EnumConnectionPoints@?$IConnectionPointContainerImpl@VCOPOSMotionSensor@@@ATL@@UEAAJPEAPEAUIEnumConnectionPoints@@@Z 0000000180002680 f i MotionSensor.obj
 0001:000018cc       ?FindConnectionPoint@?$IConnectionPointContainerImpl@VCOPOSMotionSensor@@@ATL@@UEAAJAEBU_GUID@@PEAPEAUIConnectionPoint@@@Z 00000001800028cc f i MotionSensor.obj
 0001:0000199c       ?IsDirty@?$IPersistStorageImpl@VCOPOSMotionSensor@@@ATL@@UEAAJXZ 000000018000299c f i MotionSensor.obj
 0001:000019dc       ?InitNew@?$IPersistStorageImpl@VCOPOSMotionSensor@@@ATL@@UEAAJPEAUIStorage@@@Z 00000001800029dc f i MotionSensor.obj
 0001:00001a1c       ?Load@?$IPersistStorageImpl@VCOPOSMotionSensor@@@ATL@@UEAAJPEAUIStorage@@@Z 0000000180002a1c f i MotionSensor.obj
 0001:00001abc       ?Save@?$IPersistStorageImpl@VCOPOSMotionSensor@@@ATL@@UEAAJPEAUIStorage@@H@Z 0000000180002abc f i MotionSensor.obj
 0001:00001b6c       ?GetPages@?$ISpecifyPropertyPagesImpl@VCOPOSMotionSensor@@@ATL@@UEAAJPEAUtagCAUUID@@@Z 0000000180002b6c f i MotionSensor.obj
 0001:00001b78       ?QuickActivate@?$IQuickActivateImpl@VCOPOSMotionSensor@@@ATL@@UEAAJPEAUtagQACONTAINER@@PEAUtagQACONTROL@@@Z 0000000180002b78 f i MotionSensor.obj
 0001:00001b94       ?SetContentExtent@?$IQuickActivateImpl@VCOPOSMotionSensor@@@ATL@@UEAAJPEAUtagSIZE@@@Z 0000000180002b94 f i MotionSensor.obj
 0001:00001bc8       ?GetContentExtent@?$IQuickActivateImpl@VCOPOSMotionSensor@@@ATL@@UEAAJPEAUtagSIZE@@@Z 0000000180002bc8 f i MotionSensor.obj
 0001:00001c00       ?GetData@?$IDataObjectImpl@VCOPOSMotionSensor@@@ATL@@UEAAJPEAUtagFORMATETC@@PEAUtagSTGMEDIUM@@@Z 0000000180002c00 f i MotionSensor.obj
 0001:00001c1c       ?DAdvise@?$IDataObjectImpl@VCOPOSMotionSensor@@@ATL@@UEAAJPEAUtagFORMATETC@@KPEAUIAdviseSink@@PEAK@Z 0000000180002c1c f i MotionSensor.obj
 0001:00001ca4       ?DUnadvise@?$IDataObjectImpl@VCOPOSMotionSensor@@@ATL@@UEAAJK@Z 0000000180002ca4 f i MotionSensor.obj
 0001:00001cd0       ?EnumDAdvise@?$IDataObjectImpl@VCOPOSMotionSensor@@@ATL@@UEAAJPEAPEAUIEnumSTATDATA@@@Z 0000000180002cd0 f i MotionSensor.obj
 0001:00001d0c       ?GetClassInfoW@?$IProvideClassInfo2Impl@$1?CLSID_OPOSMotionSensor@@3U_GUID@@B$1?DIID__IOPOSMotionSensorEvents@@3U2@B$1?LIBID_OposMotionSensor_CCO@@3U2@B$00$0A@VCComTypeInfoHolder@ATL@@@ATL@@UEAAJPEAPEAUITypeInfo@@@Z 0000000180002d0c f i MotionSensor.obj
 0001:00001d64       ?GetGUID@?$IProvideClassInfo2Impl@$1?CLSID_OPOSMotionSensor@@3U_GUID@@B$1?DIID__IOPOSMotionSensorEvents@@3U2@B$1?LIBID_OposMotionSensor_CCO@@3U2@B$00$0A@VCComTypeInfoHolder@ATL@@@ATL@@UEAAJKPEAU_GUID@@@Z 0000000180002d64 f i MotionSensor.obj
 0001:00001d98       ?AddRef@CRegObject@ATL@@UEAAKXZ 0000000180002d98 f i MotionSensor.obj
 0001:00001d98       ?FAccessAllowed@?$IObjectSafetyImpl@VCOPOSMotionSensor@@$02@ATL@@MEAAHXZ 0000000180002d98 f i MotionSensor.obj
 0001:00001d98       _get_startup_argv_mode     0000000180002d98 f i LIBCMT:argv_mode.obj
 0001:00001da0       ?GetInterfaceSafetyOptions@?$IObjectSafetyImpl@VCOPOSMotionSensor@@$02@ATL@@UEAAJAEBU_GUID@@PEAK1@Z 0000000180002da0 f i MotionSensor.obj
 0001:00001e34       ?SetInterfaceSafetyOptions@?$IObjectSafetyImpl@VCOPOSMotionSensor@@$02@ATL@@UEAAJAEBU_GUID@@KK@Z 0000000180002e34 f i MotionSensor.obj
 0001:00001ed8       ?_LocCPQueryInterface@?$IConnectionPointImpl@VCOPOSMotionSensor@@$1?IID_IPropertyNotifySink@@3U_GUID@@BVCComDynamicUnkArray@ATL@@@ATL@@UEAAJAEBU_GUID@@PEAPEAX@Z 0000000180002ed8 f i MotionSensor.obj
 0001:00001ed8       ?_LocCPQueryInterface@?$IConnectionPointImpl@VCOPOSMotionSensor@@$1?DIID__IOPOSMotionSensorEvents@@3U_GUID@@BVCComDynamicUnkArray@ATL@@@ATL@@UEAAJAEBU_GUID@@PEAPEAX@Z 0000000180002ed8 f i MotionSensor.obj
 0001:00001f48       ?GetConnectionInterface@?$IConnectionPointImpl@VCOPOSMotionSensor@@$1?IID_IPropertyNotifySink@@3U_GUID@@BVCComDynamicUnkArray@ATL@@@ATL@@UEAAJPEAU_GUID@@@Z 0000000180002f48 f i MotionSensor.obj
 0001:00001f64       ?GetConnectionPointContainer@?$IConnectionPointImpl@VCOPOSMotionSensor@@$1?IID_IPropertyNotifySink@@3U_GUID@@BVCComDynamicUnkArray@ATL@@@ATL@@UEAAJPEAPEAUIConnectionPointContainer@@@Z 0000000180002f64 f i MotionSensor.obj
 0001:00001f84       ?Advise@?$IConnectionPointImpl@VCOPOSMotionSensor@@$1?IID_IPropertyNotifySink@@3U_GUID@@BVCComDynamicUnkArray@ATL@@@ATL@@UEAAJPEAUIUnknown@@PEAK@Z 0000000180002f84 f i MotionSensor.obj
 0001:00001f84       ?Advise@?$IConnectionPointImpl@VCOPOSMotionSensor@@$1?DIID__IOPOSMotionSensorEvents@@3U_GUID@@BVCComDynamicUnkArray@ATL@@@ATL@@UEAAJPEAUIUnknown@@PEAK@Z 0000000180002f84 f i MotionSensor.obj
 0001:00002040       ?Unadvise@?$IConnectionPointImpl@VCOPOSMotionSensor@@$1?IID_IPropertyNotifySink@@3U_GUID@@BVCComDynamicUnkArray@ATL@@@ATL@@UEAAJK@Z 0000000180003040 f i MotionSensor.obj
 0001:00002040       ?Unadvise@?$IConnectionPointImpl@VCOPOSMotionSensor@@$1?DIID__IOPOSMotionSensorEvents@@3U_GUID@@BVCComDynamicUnkArray@ATL@@@ATL@@UEAAJK@Z 0000000180003040 f i MotionSensor.obj
 0001:000020a8       ?EnumConnections@?$IConnectionPointImpl@VCOPOSMotionSensor@@$1?DIID__IOPOSMotionSensorEvents@@3U_GUID@@BVCComDynamicUnkArray@ATL@@@ATL@@UEAAJPEAPEAUIEnumConnections@@@Z 00000001800030a8 f i MotionSensor.obj
 0001:000020a8       ?EnumConnections@?$IConnectionPointImpl@VCOPOSMotionSensor@@$1?IID_IPropertyNotifySink@@3U_GUID@@BVCComDynamicUnkArray@ATL@@@ATL@@UEAAJPEAPEAUIEnumConnections@@@Z 00000001800030a8 f i MotionSensor.obj
 0001:00002254       ?GetConnectionInterface@?$IConnectionPointImpl@VCOPOSMotionSensor@@$1?DIID__IOPOSMotionSensorEvents@@3U_GUID@@BVCComDynamicUnkArray@ATL@@@ATL@@UEAAJPEAU_GUID@@@Z 0000000180003254 f i MotionSensor.obj
 0001:00002270       ?GetConnectionPointContainer@?$IConnectionPointImpl@VCOPOSMotionSensor@@$1?DIID__IOPOSMotionSensorEvents@@3U_GUID@@BVCComDynamicUnkArray@ATL@@@ATL@@UEAAJPEAPEAUIConnectionPointContainer@@@Z 0000000180003270 f i MotionSensor.obj
 0001:00002290       ?UpdateRegistry@COPOSMotionSensor@@SAJH@Z 0000000180003290 f i MotionSensor.obj
 0001:000022a8       ?ProcessWindowMessage@COPOSMotionSensor@@UEAAHPEAUHWND__@@I_K_JAEA_JK@Z 00000001800032a8 f i MotionSensor.obj
 0001:00002330       ?SODirectIO@COPOSMotionSensor@@MEAAJJPEAJPEAPEA_W@Z 0000000180003330 f i MotionSensor.obj
 0001:000023a8       ?SOStatusUpdate@COPOSMotionSensor@@MEAAJJ@Z 00000001800033a8 f i MotionSensor.obj
 0001:000023f8       ?Lock@CAtlModule@ATL@@UEAAJXZ 00000001800033f8 f i MotionSensor.obj
 0001:00002408       ?Unlock@CAtlModule@ATL@@UEAAJXZ 0000000180003408 f i MotionSensor.obj
 0001:00002414       ?GetLockCount@CAtlModule@ATL@@UEAAJXZ 0000000180003414 f i MotionSensor.obj
 0001:00002418       ?GetGITPtr@CAtlModule@ATL@@UEAAJPEAPEAUIGlobalInterfaceTable@@@Z 0000000180003418 f i MotionSensor.obj
 0001:00002488       ?CreateInstance@?$CComCreator@V?$CComObjectCached@VCComClassFactory@ATL@@@ATL@@@ATL@@SAJPEAXAEBU_GUID@@PEAPEAX@Z 0000000180003488 f i MotionSensor.obj
 0001:000025ac       ?CreateInstance@?$CComCreator2@V?$CComCreator@V?$CComObject@VCOPOSMotionSensor@@@ATL@@@ATL@@V?$CComCreator@V?$CComAggObject@VCOPOSMotionSensor@@@ATL@@@2@@ATL@@SAJPEAXAEBU_GUID@@PEAPEAX@Z 00000001800035ac f i MotionSensor.obj
 0001:000025bc       ?AddCommonRGSReplacements@?$CAtlModuleT@VCComModule@ATL@@@ATL@@UEAAJPEAUIRegistrarBase@@@Z 00000001800035bc f i MotionSensor.obj
 0001:000025d4       ?AddRef@?$CComObjectCached@VCComClassFactory@ATL@@@ATL@@UEAAKXZ 00000001800035d4 f i MotionSensor.obj
 0001:00002600       ?Release@?$CComObjectCached@VCComClassFactory@ATL@@@ATL@@UEAAKXZ 0000000180003600 f i MotionSensor.obj
 0001:00002640       ?QueryInterface@?$CComObjectCached@VCComClassFactory@ATL@@@ATL@@UEAAJAEBU_GUID@@PEAPEAX@Z 0000000180003640 f i MotionSensor.obj
 0001:00002654       ??_E?$CComObjectCached@VCComClassFactory@ATL@@@ATL@@UEAAPEAXI@Z 0000000180003654 f i MotionSensor.obj
 0001:00002654       ??_G?$CComObjectCached@VCComClassFactory@ATL@@@ATL@@UEAAPEAXI@Z 0000000180003654 f i MotionSensor.obj
 0001:000026ac       ?UpdateRegistryFromResourceD@CComModule@ATL@@UEAAJIHPEAU_ATL_REGMAP_ENTRY@2@@Z 00000001800036ac f i MotionSensor.obj
 0001:000026ac       ?UpdateRegistryFromResourceD@CComModule@ATL@@UEAAJPEB_WHPEAU_ATL_REGMAP_ENTRY@2@@Z 00000001800036ac f i MotionSensor.obj
 0001:000026b4       ?UpdateRegistryFromResource@CComModule@ATL@@UEAAJPEB_WHPEAU_ATL_REGMAP_ENTRY@2@@Z 00000001800036b4 f i MotionSensor.obj
 0001:000026bc       ?UpdateRegistryFromResource@CComModule@ATL@@UEAAJIHPEAU_ATL_REGMAP_ENTRY@2@@Z 00000001800036bc f i MotionSensor.obj
 0001:000026c4       ??_ECComModule@ATL@@UEAAPEAXI@Z 00000001800036c4 f i MotionSensor.obj
 0001:000026c4       ??_GCComModule@ATL@@UEAAPEAXI@Z 00000001800036c4 f i MotionSensor.obj
 0001:00002704       ?Next@?$CComEnumImpl@UIEnumConnectionPoints@@$1?_GUID_b196b285_bab4_101a_b69c_00aa00341d07@@3U__s_GUID@@BPEAUIConnectionPoint@@V?$_CopyInterface@UIConnectionPoint@@@ATL@@@ATL@@UEAAJKPEAPEAUIConnectionPoint@@PEAK@Z 0000000180003704 f i MotionSensor.obj
 0001:000027d0       ?Skip@?$CComEnumImpl@UIEnumConnectionPoints@@$1?_GUID_b196b285_bab4_101a_b69c_00aa00341d07@@3U__s_GUID@@BPEAUIConnectionPoint@@V?$_CopyInterface@UIConnectionPoint@@@ATL@@@ATL@@UEAAJK@Z 00000001800037d0 f i MotionSensor.obj
 0001:000027fc       ?Reset@?$CComEnumImpl@UIEnumConnections@@$1?_GUID_b196b287_bab4_101a_b69c_00aa00341d07@@3U__s_GUID@@BUtagCONNECTDATA@@V?$_Copy@UtagCONNECTDATA@@@ATL@@@ATL@@UEAAJXZ 00000001800037fc f i MotionSensor.obj
 0001:000027fc       ?Reset@?$CComEnumImpl@UIEnumConnectionPoints@@$1?_GUID_b196b285_bab4_101a_b69c_00aa00341d07@@3U__s_GUID@@BPEAUIConnectionPoint@@V?$_CopyInterface@UIConnectionPoint@@@ATL@@@ATL@@UEAAJXZ 00000001800037fc f i MotionSensor.obj
 0001:00002808       ?Clone@?$CComEnumImpl@UIEnumConnectionPoints@@$1?_GUID_b196b285_bab4_101a_b69c_00aa00341d07@@3U__s_GUID@@BPEAUIConnectionPoint@@V?$_CopyInterface@UIConnectionPoint@@@ATL@@@ATL@@UEAAJPEAPEAUIEnumConnectionPoints@@@Z 0000000180003808 f i MotionSensor.obj
 0001:00002934       ?AddRef@?$CComObject@V?$CComEnum@UIEnumConnections@@$1?_GUID_b196b287_bab4_101a_b69c_00aa00341d07@@3U__s_GUID@@BUtagCONNECTDATA@@V?$_Copy@UtagCONNECTDATA@@@ATL@@VCComSingleThreadModel@6@@ATL@@@ATL@@UEAAKXZ 0000000180003934 f i MotionSensor.obj
 0001:00002934       ?AddRef@?$CComObject@V?$CComEnum@UIEnumConnectionPoints@@$1?_GUID_b196b285_bab4_101a_b69c_00aa00341d07@@3U__s_GUID@@BPEAUIConnectionPoint@@V?$_CopyInterface@UIConnectionPoint@@@ATL@@VCComSingleThreadModel@6@@ATL@@@ATL@@UEAAKXZ 0000000180003934 f i MotionSensor.obj
 0001:00002940       ?Release@?$CComObject@V?$CComEnum@UIEnumConnections@@$1?_GUID_b196b287_bab4_101a_b69c_00aa00341d07@@3U__s_GUID@@BUtagCONNECTDATA@@V?$_Copy@UtagCONNECTDATA@@@ATL@@VCComSingleThreadModel@6@@ATL@@@ATL@@UEAAKXZ 0000000180003940 f i MotionSensor.obj
 0001:00002940       ?Release@?$CComObject@V?$CComEnum@UIEnumConnectionPoints@@$1?_GUID_b196b285_bab4_101a_b69c_00aa00341d07@@3U__s_GUID@@BPEAUIConnectionPoint@@V?$_CopyInterface@UIConnectionPoint@@@ATL@@VCComSingleThreadModel@6@@ATL@@@ATL@@UEAAKXZ 0000000180003940 f i MotionSensor.obj
 0001:00002994       ?QueryInterface@?$CComObject@V?$CComEnum@UIEnumConnectionPoints@@$1?_GUID_b196b285_bab4_101a_b69c_00aa00341d07@@3U__s_GUID@@BPEAUIConnectionPoint@@V?$_CopyInterface@UIConnectionPoint@@@ATL@@VCComSingleThreadModel@6@@ATL@@@ATL@@UEAAJAEBU_GUID@@PEAPEAX@Z 0000000180003994 f i MotionSensor.obj
 0001:000029a8       ??_G?$CComObject@V?$CComEnum@UIEnumConnectionPoints@@$1?_GUID_b196b285_bab4_101a_b69c_00aa00341d07@@3U__s_GUID@@BPEAUIConnectionPoint@@V?$_CopyInterface@UIConnectionPoint@@@ATL@@VCComSingleThreadModel@6@@ATL@@@ATL@@UEAAPEAXI@Z 00000001800039a8 f i MotionSensor.obj
 0001:000029a8       ??_E?$CComObject@V?$CComEnum@UIEnumConnectionPoints@@$1?_GUID_b196b285_bab4_101a_b69c_00aa00341d07@@3U__s_GUID@@BPEAUIConnectionPoint@@V?$_CopyInterface@UIConnectionPoint@@@ATL@@VCComSingleThreadModel@6@@ATL@@@ATL@@UEAAPEAXI@Z 00000001800039a8 f i MotionSensor.obj
 0001:00002a00       ?AddReplacement@CRegObject@ATL@@UEAAJPEB_W0@Z 0000000180003a00 f i MotionSensor.obj
 0001:00002a30       ?ClearReplacements@CRegObject@ATL@@UEAAJXZ 0000000180003a30 f i MotionSensor.obj
 0001:00002a3c       ??_ECRegObject@ATL@@UEAAPEAXI@Z 0000000180003a3c f i MotionSensor.obj
 0001:00002a3c       ??_GCRegObject@ATL@@UEAAPEAXI@Z 0000000180003a3c f i MotionSensor.obj
 0001:00002abc       ?AddRef@?$CComAggObject@VCOPOSMotionSensor@@@ATL@@UEAAKXZ 0000000180003abc f i MotionSensor.obj
 0001:00002ac8       ?Release@?$CComAggObject@VCOPOSMotionSensor@@@ATL@@UEAAKXZ 0000000180003ac8 f i MotionSensor.obj
 0001:00002b1c       ?QueryInterface@?$CComAggObject@VCOPOSMotionSensor@@@ATL@@UEAAJAEBU_GUID@@PEAPEAX@Z 0000000180003b1c f i MotionSensor.obj
 0001:00002b7c       ?AddRef@?$CComContainedObject@VCOPOSMotionSensor@@@ATL@@UEAAKXZ 0000000180003b7c f i MotionSensor.obj
 0001:00002b8c       ?Release@?$CComContainedObject@VCOPOSMotionSensor@@@ATL@@UEAAKXZ 0000000180003b8c f i MotionSensor.obj
 0001:00002b9c       ?QueryInterface@?$CComContainedObject@VCOPOSMotionSensor@@@ATL@@UEAAJAEBU_GUID@@PEAPEAX@Z 0000000180003b9c f i MotionSensor.obj
 0001:00002bac       ??_E?$CComAggObject@VCOPOSMotionSensor@@@ATL@@UEAAPEAXI@Z 0000000180003bac f i MotionSensor.obj
 0001:00002bac       ??_G?$CComAggObject@VCOPOSMotionSensor@@@ATL@@UEAAPEAXI@Z 0000000180003bac f i MotionSensor.obj
 0001:00002c04       ?AddRef@?$CComObject@VCOPOSMotionSensor@@@ATL@@UEAAKXZ 0000000180003c04 f i MotionSensor.obj
 0001:00002c14       ?Release@?$CComObject@VCOPOSMotionSensor@@@ATL@@UEAAKXZ 0000000180003c14 f i MotionSensor.obj
 0001:00002c6c       ?QueryInterface@?$CComObject@VCOPOSMotionSensor@@@ATL@@UEAAJAEBU_GUID@@PEAPEAX@Z 0000000180003c6c f i MotionSensor.obj
 0001:00002c80       ?OnDrawAdvanced@CComControlBase@ATL@@UEAAJAEAUATL_DRAWINFO@@@Z 0000000180003c80 f i MotionSensor.obj
 0001:00002e0c       ?Next@?$CComEnumImpl@UIEnumConnections@@$1?_GUID_b196b287_bab4_101a_b69c_00aa00341d07@@3U__s_GUID@@BUtagCONNECTDATA@@V?$_Copy@UtagCONNECTDATA@@@ATL@@@ATL@@UEAAJKPEAUtagCONNECTDATA@@PEAK@Z 0000000180003e0c f i MotionSensor.obj
 0001:00002ee0       ?Skip@?$CComEnumImpl@UIEnumConnections@@$1?_GUID_b196b287_bab4_101a_b69c_00aa00341d07@@3U__s_GUID@@BUtagCONNECTDATA@@V?$_Copy@UtagCONNECTDATA@@@ATL@@@ATL@@UEAAJK@Z 0000000180003ee0 f i MotionSensor.obj
 0001:00002f0c       ?Clone@?$CComEnumImpl@UIEnumConnections@@$1?_GUID_b196b287_bab4_101a_b69c_00aa00341d07@@3U__s_GUID@@BUtagCONNECTDATA@@V?$_Copy@UtagCONNECTDATA@@@ATL@@@ATL@@UEAAJPEAPEAUIEnumConnections@@@Z 0000000180003f0c f i MotionSensor.obj
 0001:00003038       ?QueryInterface@?$CComObject@V?$CComEnum@UIEnumConnections@@$1?_GUID_b196b287_bab4_101a_b69c_00aa00341d07@@3U__s_GUID@@BUtagCONNECTDATA@@V?$_Copy@UtagCONNECTDATA@@@ATL@@VCComSingleThreadModel@6@@ATL@@@ATL@@UEAAJAEBU_GUID@@PEAPEAX@Z 0000000180004038 f i MotionSensor.obj
 0001:0000304c       ??_E?$CComObject@V?$CComEnum@UIEnumConnections@@$1?_GUID_b196b287_bab4_101a_b69c_00aa00341d07@@3U__s_GUID@@BUtagCONNECTDATA@@V?$_Copy@UtagCONNECTDATA@@@ATL@@VCComSingleThreadModel@6@@ATL@@@ATL@@UEAAPEAXI@Z 000000018000404c f i MotionSensor.obj
 0001:0000304c       ??_G?$CComObject@V?$CComEnum@UIEnumConnections@@$1?_GUID_b196b287_bab4_101a_b69c_00aa00341d07@@3U__s_GUID@@BUtagCONNECTDATA@@V?$_Copy@UtagCONNECTDATA@@@ATL@@VCComSingleThreadModel@6@@ATL@@@ATL@@UEAAPEAXI@Z 000000018000404c f i MotionSensor.obj
 0001:000030a4       ??_E?$CComObject@VCOPOSMotionSensor@@@ATL@@W7EAAPEAXI@Z 00000001800040a4 f i MotionSensor.obj
 0001:000030b0       ??_E?$CComObject@VCOPOSMotionSensor@@@ATL@@WHA@EAAPEAXI@Z 00000001800040b0 f i MotionSensor.obj
 0001:000030bc       ?QueryInterface@?$CComObject@VCOPOSMotionSensor@@@ATL@@WLI@EAAJAEBU_GUID@@PEAPEAX@Z 00000001800040bc f i MotionSensor.obj
 0001:000030c8       ?AddRef@?$CComObject@VCOPOSMotionSensor@@@ATL@@WLI@EAAKXZ 00000001800040c8 f i MotionSensor.obj
 0001:000030d4       ?Release@?$CComObject@VCOPOSMotionSensor@@@ATL@@WLI@EAAKXZ 00000001800040d4 f i MotionSensor.obj
 0001:000030e0       ?QueryInterface@?$CComObject@VCOPOSMotionSensor@@@ATL@@WMA@EAAJAEBU_GUID@@PEAPEAX@Z 00000001800040e0 f i MotionSensor.obj
 0001:000030ec       ?AddRef@?$CComObject@VCOPOSMotionSensor@@@ATL@@WMA@EAAKXZ 00000001800040ec f i MotionSensor.obj
 0001:000030f8       ?Release@?$CComObject@VCOPOSMotionSensor@@@ATL@@WMA@EAAKXZ 00000001800040f8 f i MotionSensor.obj
 0001:00003104       ?QueryInterface@?$CComObject@VCOPOSMotionSensor@@@ATL@@WMI@EAAJAEBU_GUID@@PEAPEAX@Z 0000000180004104 f i MotionSensor.obj
 0001:00003110       ?AddRef@?$CComObject@VCOPOSMotionSensor@@@ATL@@WMI@EAAKXZ 0000000180004110 f i MotionSensor.obj
 0001:0000311c       ?Release@?$CComObject@VCOPOSMotionSensor@@@ATL@@WMI@EAAKXZ 000000018000411c f i MotionSensor.obj
 0001:00003128       ?QueryInterface@?$CComObject@VCOPOSMotionSensor@@@ATL@@WNA@EAAJAEBU_GUID@@PEAPEAX@Z 0000000180004128 f i MotionSensor.obj
 0001:00003134       ?AddRef@?$CComObject@VCOPOSMotionSensor@@@ATL@@WNA@EAAKXZ 0000000180004134 f i MotionSensor.obj
 0001:00003140       ?Release@?$CComObject@VCOPOSMotionSensor@@@ATL@@WNA@EAAKXZ 0000000180004140 f i MotionSensor.obj
 0001:0000314c       ?QueryInterface@?$CComObject@VCOPOSMotionSensor@@@ATL@@WNI@EAAJAEBU_GUID@@PEAPEAX@Z 000000018000414c f i MotionSensor.obj
 0001:00003158       ?AddRef@?$CComObject@VCOPOSMotionSensor@@@ATL@@WNI@EAAKXZ 0000000180004158 f i MotionSensor.obj
 0001:00003164       ?Release@?$CComObject@VCOPOSMotionSensor@@@ATL@@WNI@EAAKXZ 0000000180004164 f i MotionSensor.obj
 0001:00003170       ?QueryInterface@?$CComObject@VCOPOSMotionSensor@@@ATL@@WOA@EAAJAEBU_GUID@@PEAPEAX@Z 0000000180004170 f i MotionSensor.obj
 0001:0000317c       ?AddRef@?$CComObject@VCOPOSMotionSensor@@@ATL@@WOA@EAAKXZ 000000018000417c f i MotionSensor.obj
 0001:00003188       ?Release@?$CComObject@VCOPOSMotionSensor@@@ATL@@WOA@EAAKXZ 0000000180004188 f i MotionSensor.obj
 0001:00003194       ?QueryInterface@?$CComObject@VCOPOSMotionSensor@@@ATL@@WOI@EAAJAEBU_GUID@@PEAPEAX@Z 0000000180004194 f i MotionSensor.obj
 0001:000031a0       ?AddRef@?$CComObject@VCOPOSMotionSensor@@@ATL@@WOI@EAAKXZ 00000001800041a0 f i MotionSensor.obj
 0001:000031ac       ?Release@?$CComObject@VCOPOSMotionSensor@@@ATL@@WOI@EAAKXZ 00000001800041ac f i MotionSensor.obj
 0001:000031b8       ?QueryInterface@?$CComObject@VCOPOSMotionSensor@@@ATL@@WPA@EAAJAEBU_GUID@@PEAPEAX@Z 00000001800041b8 f i MotionSensor.obj
 0001:000031c4       ?AddRef@?$CComObject@VCOPOSMotionSensor@@@ATL@@WPA@EAAKXZ 00000001800041c4 f i MotionSensor.obj
 0001:000031d0       ?Release@?$CComObject@VCOPOSMotionSensor@@@ATL@@WPA@EAAKXZ 00000001800041d0 f i MotionSensor.obj
 0001:000031dc       ?QueryInterface@?$CComObject@VCOPOSMotionSensor@@@ATL@@WPI@EAAJAEBU_GUID@@PEAPEAX@Z 00000001800041dc f i MotionSensor.obj
 0001:000031e8       ?AddRef@?$CComObject@VCOPOSMotionSensor@@@ATL@@WPI@EAAKXZ 00000001800041e8 f i MotionSensor.obj
 0001:000031f4       ?Release@?$CComObject@VCOPOSMotionSensor@@@ATL@@WPI@EAAKXZ 00000001800041f4 f i MotionSensor.obj
 0001:00003200       ?QueryInterface@?$CComObject@VCOPOSMotionSensor@@@ATL@@WBAA@EAAJAEBU_GUID@@PEAPEAX@Z 0000000180004200 f i MotionSensor.obj
 0001:0000320c       ?AddRef@?$CComObject@VCOPOSMotionSensor@@@ATL@@WBAA@EAAKXZ 000000018000420c f i MotionSensor.obj
 0001:00003218       ?Release@?$CComObject@VCOPOSMotionSensor@@@ATL@@WBAA@EAAKXZ 0000000180004218 f i MotionSensor.obj
 0001:00003224       ?QueryInterface@?$CComObject@VCOPOSMotionSensor@@@ATL@@WBAI@EAAJAEBU_GUID@@PEAPEAX@Z 0000000180004224 f i MotionSensor.obj
 0001:00003230       ?AddRef@?$CComObject@VCOPOSMotionSensor@@@ATL@@WBAI@EAAKXZ 0000000180004230 f i MotionSensor.obj
 0001:0000323c       ?Release@?$CComObject@VCOPOSMotionSensor@@@ATL@@WBAI@EAAKXZ 000000018000423c f i MotionSensor.obj
 0001:00003248       ?QueryInterface@?$CComObject@VCOPOSMotionSensor@@@ATL@@WBBA@EAAJAEBU_GUID@@PEAPEAX@Z 0000000180004248 f i MotionSensor.obj
 0001:00003254       ?AddRef@?$CComObject@VCOPOSMotionSensor@@@ATL@@WBBA@EAAKXZ 0000000180004254 f i MotionSensor.obj
 0001:00003260       ?Release@?$CComObject@VCOPOSMotionSensor@@@ATL@@WBBA@EAAKXZ 0000000180004260 f i MotionSensor.obj
 0001:0000326c       ?QueryInterface@?$CComObject@VCOPOSMotionSensor@@@ATL@@WBBI@EAAJAEBU_GUID@@PEAPEAX@Z 000000018000426c f i MotionSensor.obj
 0001:00003278       ?AddRef@?$CComObject@VCOPOSMotionSensor@@@ATL@@WBBI@EAAKXZ 0000000180004278 f i MotionSensor.obj
 0001:00003284       ?Release@?$CComObject@VCOPOSMotionSensor@@@ATL@@WBBI@EAAKXZ 0000000180004284 f i MotionSensor.obj
 0001:00003290       ?AddRef@?$CComObject@VCOPOSMotionSensor@@@ATL@@WBCI@EAAKXZ 0000000180004290 f i MotionSensor.obj
 0001:0000329c       ?Release@?$CComObject@VCOPOSMotionSensor@@@ATL@@WBCI@EAAKXZ 000000018000429c f i MotionSensor.obj
 0001:000032a8       ?AddRef@?$CComObject@VCOPOSMotionSensor@@@ATL@@WBEA@EAAKXZ 00000001800042a8 f i MotionSensor.obj
 0001:000032b4       ?Release@?$CComObject@VCOPOSMotionSensor@@@ATL@@WBEA@EAAKXZ 00000001800042b4 f i MotionSensor.obj
 0001:000032c0       ??_E?$CComContainedObject@VCOPOSMotionSensor@@@ATL@@W7EAAPEAXI@Z 00000001800042c0 f i MotionSensor.obj
 0001:000032cc       ??_E?$CComContainedObject@VCOPOSMotionSensor@@@ATL@@WHA@EAAPEAXI@Z 00000001800042cc f i MotionSensor.obj
 0001:000032d8       ?QueryInterface@?$CComContainedObject@VCOPOSMotionSensor@@@ATL@@WLI@EAAJAEBU_GUID@@PEAPEAX@Z 00000001800042d8 f i MotionSensor.obj
 0001:000032e4       ?AddRef@?$CComContainedObject@VCOPOSMotionSensor@@@ATL@@WLI@EAAKXZ 00000001800042e4 f i MotionSensor.obj
 0001:000032f0       ?Release@?$CComContainedObject@VCOPOSMotionSensor@@@ATL@@WLI@EAAKXZ 00000001800042f0 f i MotionSensor.obj
 0001:000032fc       ?QueryInterface@?$CComContainedObject@VCOPOSMotionSensor@@@ATL@@WMA@EAAJAEBU_GUID@@PEAPEAX@Z 00000001800042fc f i MotionSensor.obj
 0001:00003308       ?AddRef@?$CComContainedObject@VCOPOSMotionSensor@@@ATL@@WMA@EAAKXZ 0000000180004308 f i MotionSensor.obj
 0001:00003314       ?Release@?$CComContainedObject@VCOPOSMotionSensor@@@ATL@@WMA@EAAKXZ 0000000180004314 f i MotionSensor.obj
 0001:00003320       ?QueryInterface@?$CComContainedObject@VCOPOSMotionSensor@@@ATL@@WMI@EAAJAEBU_GUID@@PEAPEAX@Z 0000000180004320 f i MotionSensor.obj
 0001:0000332c       ?AddRef@?$CComContainedObject@VCOPOSMotionSensor@@@ATL@@WMI@EAAKXZ 000000018000432c f i MotionSensor.obj
 0001:00003338       ?Release@?$CComContainedObject@VCOPOSMotionSensor@@@ATL@@WMI@EAAKXZ 0000000180004338 f i MotionSensor.obj
 0001:00003344       ?QueryInterface@?$CComContainedObject@VCOPOSMotionSensor@@@ATL@@WNA@EAAJAEBU_GUID@@PEAPEAX@Z 0000000180004344 f i MotionSensor.obj
 0001:00003350       ?AddRef@?$CComContainedObject@VCOPOSMotionSensor@@@ATL@@WNA@EAAKXZ 0000000180004350 f i MotionSensor.obj
 0001:0000335c       ?Release@?$CComContainedObject@VCOPOSMotionSensor@@@ATL@@WNA@EAAKXZ 000000018000435c f i MotionSensor.obj
 0001:00003368       ?QueryInterface@?$CComContainedObject@VCOPOSMotionSensor@@@ATL@@WNI@EAAJAEBU_GUID@@PEAPEAX@Z 0000000180004368 f i MotionSensor.obj
 0001:00003374       ?AddRef@?$CComContainedObject@VCOPOSMotionSensor@@@ATL@@WNI@EAAKXZ 0000000180004374 f i MotionSensor.obj
 0001:00003380       ?Release@?$CComContainedObject@VCOPOSMotionSensor@@@ATL@@WNI@EAAKXZ 0000000180004380 f i MotionSensor.obj
 0001:0000338c       ?QueryInterface@?$CComContainedObject@VCOPOSMotionSensor@@@ATL@@WOA@EAAJAEBU_GUID@@PEAPEAX@Z 000000018000438c f i MotionSensor.obj
 0001:00003398       ?AddRef@?$CComContainedObject@VCOPOSMotionSensor@@@ATL@@WOA@EAAKXZ 0000000180004398 f i MotionSensor.obj
 0001:000033a4       ?Release@?$CComContainedObject@VCOPOSMotionSensor@@@ATL@@WOA@EAAKXZ 00000001800043a4 f i MotionSensor.obj
 0001:000033b0       ?QueryInterface@?$CComContainedObject@VCOPOSMotionSensor@@@ATL@@WOI@EAAJAEBU_GUID@@PEAPEAX@Z 00000001800043b0 f i MotionSensor.obj
 0001:000033bc       ?AddRef@?$CComContainedObject@VCOPOSMotionSensor@@@ATL@@WOI@EAAKXZ 00000001800043bc f i MotionSensor.obj
 0001:000033c8       ?Release@?$CComContainedObject@VCOPOSMotionSensor@@@ATL@@WOI@EAAKXZ 00000001800043c8 f i MotionSensor.obj
 0001:000033d4       ?QueryInterface@?$CComContainedObject@VCOPOSMotionSensor@@@ATL@@WPA@EAAJAEBU_GUID@@PEAPEAX@Z 00000001800043d4 f i MotionSensor.obj
 0001:000033e0       ?AddRef@?$CComContainedObject@VCOPOSMotionSensor@@@ATL@@WPA@EAAKXZ 00000001800043e0 f i MotionSensor.obj
 0001:000033ec       ?Release@?$CComContainedObject@VCOPOSMotionSensor@@@ATL@@WPA@EAAKXZ 00000001800043ec f i MotionSensor.obj
 0001:000033f8       ?QueryInterface@?$CComContainedObject@VCOPOSMotionSensor@@@ATL@@WPI@EAAJAEBU_GUID@@PEAPEAX@Z 00000001800043f8 f i MotionSensor.obj
 0001:00003404       ?AddRef@?$CComContainedObject@VCOPOSMotionSensor@@@ATL@@WPI@EAAKXZ 0000000180004404 f i MotionSensor.obj
 0001:00003410       ?Release@?$CComContainedObject@VCOPOSMotionSensor@@@ATL@@WPI@EAAKXZ 0000000180004410 f i MotionSensor.obj
 0001:0000341c       ?QueryInterface@?$CComContainedObject@VCOPOSMotionSensor@@@ATL@@WBAA@EAAJAEBU_GUID@@PEAPEAX@Z 000000018000441c f i MotionSensor.obj
 0001:00003428       ?AddRef@?$CComContainedObject@VCOPOSMotionSensor@@@ATL@@WBAA@EAAKXZ 0000000180004428 f i MotionSensor.obj
 0001:00003434       ?Release@?$CComContainedObject@VCOPOSMotionSensor@@@ATL@@WBAA@EAAKXZ 0000000180004434 f i MotionSensor.obj
 0001:00003440       ?QueryInterface@?$CComContainedObject@VCOPOSMotionSensor@@@ATL@@WBAI@EAAJAEBU_GUID@@PEAPEAX@Z 0000000180004440 f i MotionSensor.obj
 0001:0000344c       ?AddRef@?$CComContainedObject@VCOPOSMotionSensor@@@ATL@@WBAI@EAAKXZ 000000018000444c f i MotionSensor.obj
 0001:00003458       ?Release@?$CComContainedObject@VCOPOSMotionSensor@@@ATL@@WBAI@EAAKXZ 0000000180004458 f i MotionSensor.obj
 0001:00003464       ?QueryInterface@?$CComContainedObject@VCOPOSMotionSensor@@@ATL@@WBBA@EAAJAEBU_GUID@@PEAPEAX@Z 0000000180004464 f i MotionSensor.obj
 0001:00003470       ?AddRef@?$CComContainedObject@VCOPOSMotionSensor@@@ATL@@WBBA@EAAKXZ 0000000180004470 f i MotionSensor.obj
 0001:0000347c       ?Release@?$CComContainedObject@VCOPOSMotionSensor@@@ATL@@WBBA@EAAKXZ 000000018000447c f i MotionSensor.obj
 0001:00003488       ?QueryInterface@?$CComContainedObject@VCOPOSMotionSensor@@@ATL@@WBBI@EAAJAEBU_GUID@@PEAPEAX@Z 0000000180004488 f i MotionSensor.obj
 0001:00003494       ?AddRef@?$CComContainedObject@VCOPOSMotionSensor@@@ATL@@WBBI@EAAKXZ 0000000180004494 f i MotionSensor.obj
 0001:000034a0       ?Release@?$CComContainedObject@VCOPOSMotionSensor@@@ATL@@WBBI@EAAKXZ 00000001800044a0 f i MotionSensor.obj
 0001:000034ac       ?AddRef@?$CComContainedObject@VCOPOSMotionSensor@@@ATL@@WBCI@EAAKXZ 00000001800044ac f i MotionSensor.obj
 0001:000034b8       ?Release@?$CComContainedObject@VCOPOSMotionSensor@@@ATL@@WBCI@EAAKXZ 00000001800044b8 f i MotionSensor.obj
 0001:000034c4       ?AddRef@?$CComContainedObject@VCOPOSMotionSensor@@@ATL@@WBEA@EAAKXZ 00000001800044c4 f i MotionSensor.obj
 0001:000034d0       ?Release@?$CComContainedObject@VCOPOSMotionSensor@@@ATL@@WBEA@EAAKXZ 00000001800044d0 f i MotionSensor.obj
 0001:000034dc       ?CreateInstance@CComClassFactory@ATL@@UEAAJPEAUIUnknown@@AEBU_GUID@@PEAPEAX@Z 00000001800044dc f i MotionSensor.obj
 0001:0000353c       ?LockServer@CComClassFactory@ATL@@UEAAJH@Z 000000018000453c f i MotionSensor.obj
 0001:00003560       ??_ECComClassFactory@ATL@@UEAAPEAXI@Z 0000000180004560 f i MotionSensor.obj
 0001:00003560       ??_GCComClassFactory@ATL@@UEAAPEAXI@Z 0000000180004560 f i MotionSensor.obj
 0001:000035b0       ??$AtlModuleRegisterWndClassInfoT@VAtlModuleRegisterWndClassInfoParamW@ATL@@@ATL@@YAGPEAU_ATL_BASE_MODULE70@0@PEAU_ATL_WIN_MODULE70@0@PEAU_ATL_WNDCLASSINFOW@0@PEAP6A_JPEAUHWND__@@I_K_J@ZVAtlModuleRegisterWndClassInfoParamW@0@@Z 00000001800045b0 f i MotionSensor.obj
 0001:000037b0       ??0?$CComContainedObject@VCOPOSMotionSensor@@@ATL@@QEAA@PEAX@Z 00000001800047b0 f i MotionSensor.obj
 0001:000038cc       ??0?$CComObject@VCOPOSMotionSensor@@@ATL@@QEAA@PEAX@Z 00000001800048cc f i MotionSensor.obj
 0001:000039e4       ??0CAtlModule@ATL@@QEAA@XZ 00000001800049e4 f i MotionSensor.obj
 0001:00003a58       ??1?$CComEnumImpl@UIEnumConnectionPoints@@$1?_GUID_b196b285_bab4_101a_b69c_00aa00341d07@@3U__s_GUID@@BPEAUIConnectionPoint@@V?$_CopyInterface@UIConnectionPoint@@@ATL@@@ATL@@UEAA@XZ 0000000180004a58 f i MotionSensor.obj
 0001:00003ab4       ??1?$CComEnumImpl@UIEnumConnections@@$1?_GUID_b196b287_bab4_101a_b69c_00aa00341d07@@3U__s_GUID@@BUtagCONNECTDATA@@V?$_Copy@UtagCONNECTDATA@@@ATL@@@ATL@@UEAA@XZ 0000000180004ab4 f i MotionSensor.obj
 0001:00003b10       ??1?$CComObject@VCOPOSMotionSensor@@@ATL@@UEAA@XZ 0000000180004b10 f i MotionSensor.obj
 0001:00003c30       ??_G?$CComContainedObject@VCOPOSMotionSensor@@@ATL@@UEAAPEAXI@Z 0000000180004c30 f i MotionSensor.obj
 0001:00003c30       ??_E?$CComContainedObject@VCOPOSMotionSensor@@@ATL@@UEAAPEAXI@Z 0000000180004c30 f i MotionSensor.obj
 0001:00003c64       ??_G?$CComObject@VCOPOSMotionSensor@@@ATL@@UEAAPEAXI@Z 0000000180004c64 f i MotionSensor.obj
 0001:00003c64       ??_E?$CComObject@VCOPOSMotionSensor@@@ATL@@UEAAPEAXI@Z 0000000180004c64 f i MotionSensor.obj
 0001:00003c98       ?Add@?$CSimpleArray@GV?$CSimpleArrayEqualHelper@G@ATL@@@ATL@@QEAAHAEBG@Z 0000000180004c98 f i MotionSensor.obj
 0001:00003d4c       ?Add@?$CSimpleMap@PEA_WPEA_WVCExpansionVectorEqualHelper@ATL@@@ATL@@QEAAHAEBQEA_W0@Z 0000000180004d4c f i MotionSensor.obj
 0001:00003dec       ?Add@CComDynamicUnkArray@ATL@@QEAAKPEAUIUnknown@@@Z 0000000180004dec f i MotionSensor.obj
 0001:00003ed8       ?Add@CExpansionVector@ATL@@QEAAHPEB_W0@Z 0000000180004ed8 f i MotionSensor.obj
 0001:0000400c       ?AddTermFunc@CAtlModule@ATL@@QEAAJP6AX_K@Z0@Z 000000018000500c f i MotionSensor.obj
 0001:000040a8       ?AddValue@CRegParser@ATL@@IEAAJAEAVCRegKey@2@PEB_WPEA_W@Z 00000001800050a8 f i MotionSensor.obj
 0001:000044f0       ?AllocateHeap@?$CTempBuffer@_W$0EAA@VCCRTAllocator@ATL@@@ATL@@AEAAX_K@Z 00000001800054f0 f i MotionSensor.obj
 0001:000044f0       ?AllocateHeap@?$CTempBuffer@E$0BAA@VCCRTAllocator@ATL@@@ATL@@AEAAX_K@Z 00000001800054f0 f i MotionSensor.obj
 0001:000044f0       ?AllocateHeap@?$CTempBuffer@_W$0BAA@VCCRTAllocator@ATL@@@ATL@@AEAAX_K@Z 00000001800054f0 f i MotionSensor.obj
 0001:0000451c       ?Append@CParseBuffer@CRegParser@ATL@@QEAAHPEB_WH@Z 000000018000551c f i MotionSensor.obj
 0001:00004664       ?AtlComModuleGetClassObject@ATL@@YAJPEAU_ATL_COM_MODULE70@1@AEBU_GUID@@1PEAPEAX@Z 0000000180005664 f i MotionSensor.obj
 0001:000047a4       ?AtlComModuleRegisterServer@ATL@@YAJPEAU_ATL_COM_MODULE70@1@HPEBU_GUID@@@Z 00000001800057a4 f i MotionSensor.obj
 0001:00004864       ?AtlComModuleUnregisterServer@ATL@@YAJPEAU_ATL_COM_MODULE70@1@HPEBU_GUID@@@Z 0000000180005864 f i MotionSensor.obj
 0001:00004920       ?AtlHiMetricToPixel@ATL@@YAXPEBUtagSIZE@@PEAU2@@Z 0000000180005920 f i MotionSensor.obj
 0001:000049d0       ?AtlHresultFromLastError@ATL@@YAJXZ 00000001800059d0 f i MotionSensor.obj
 0001:000049f0       ?AtlHresultFromWin32@ATL@@YAJK@Z 00000001800059f0 f i MotionSensor.obj
 0001:00004a00       ?AtlInternalOleLoadFromStream@ATL@@YAJPEAUIStream@@AEBU_GUID@@PEAPEAXTClassesAllowedInStream@1@K@Z 0000000180005a00 f i MotionSensor.obj
 0001:00004b44       ?AtlInternalQueryInterface@ATL@@YAJPEAXPEBU_ATL_INTMAP_ENTRY@1@AEBU_GUID@@PEAPEAX@Z 0000000180005b44 f i MotionSensor.obj
 0001:00004c4c       ?AtlLoadTypeLib@ATL@@YAJPEAUHINSTANCE__@@PEB_WPEAPEA_WPEAPEAUITypeLib@@@Z 0000000180005c4c f i MotionSensor.obj
 0001:00004ea8       ?AtlRegisterClassCategoriesHelper@ATL@@YAJAEBU_GUID@@PEBU_ATL_CATMAP_ENTRY@1@H@Z 0000000180005ea8 f i MotionSensor.obj
 0001:0000532c       ?AtlRegisterTypeLib@ATL@@YAJPEAUHINSTANCE__@@PEB_W@Z 000000018000632c f i MotionSensor.obj
 0001:00005528       ?AtlThrowImpl@ATL@@YAXJ@Z  0000000180006528 f i MotionSensor.obj
 0001:0000554c       ?AtlUnRegisterTypeLib@ATL@@YAJPEAUHINSTANCE__@@PEB_W@Z 000000018000654c f i MotionSensor.obj
 0001:00005614       ?AtlWinModuleExtractCreateWndData@ATL@@YAPEAXPEAU_ATL_WIN_MODULE70@1@@Z 0000000180006614 f i MotionSensor.obj
 0001:000056a0       ?Cleanup@CComTypeInfoHolder@ATL@@SAX_K@Z 00000001800066a0 f i MotionSensor.obj
 0001:000056e0       ?ClearReplacements@CExpansionVector@ATL@@QEAAJXZ 00000001800066e0 f i MotionSensor.obj
 0001:0000577c       ?CreateInstance@?$CComCreator@V?$CComAggObject@VCOPOSMotionSensor@@@ATL@@@ATL@@SAJPEAXAEBU_GUID@@PEAPEAX@Z 000000018000677c f i MotionSensor.obj
 0001:00005860       ?CreateInstance@?$CComCreator@V?$CComObject@VCOPOSMotionSensor@@@ATL@@@ATL@@SAJPEAXAEBU_GUID@@PEAPEAX@Z 0000000180006860 f i MotionSensor.obj
 0001:00005914       ?CreateInstance@?$CComObject@V?$CComEnum@UIEnumConnectionPoints@@$1?_GUID_b196b285_bab4_101a_b69c_00aa00341d07@@3U__s_GUID@@BPEAUIConnectionPoint@@V?$_CopyInterface@UIConnectionPoint@@@ATL@@VCComSingleThreadModel@6@@ATL@@@ATL@@SAJPEAPEAV12@@Z 0000000180006914 f i MotionSensor.obj
 0001:000059a4       ?CreateInstance@?$CComObject@V?$CComEnum@UIEnumConnections@@$1?_GUID_b196b287_bab4_101a_b69c_00aa00341d07@@3U__s_GUID@@BUtagCONNECTDATA@@V?$_Copy@UtagCONNECTDATA@@@ATL@@VCComSingleThreadModel@6@@ATL@@@ATL@@SAJPEAPEAV12@@Z 00000001800069a4 f i MotionSensor.obj
 0001:00005a34       ?DefaultReflectionHandler@?$CWindowImplRoot@VCWindow@ATL@@@ATL@@SAHPEAUHWND__@@I_K_JAEA_J@Z 0000000180006a34 f i MotionSensor.obj
 0001:00005a98       ?DeleteSubKey@CRegKey@ATL@@QEAAJPEB_W@Z 0000000180006a98 f i MotionSensor.obj
 0001:00005b30       ?DoEvent@COPOSMotionSensor@@IEAAXI_K_J@Z 0000000180006b30 f i MotionSensor.obj
 0001:00005be4       ?DoVerbPrimary@?$IOleObjectImpl@VCOPOSMotionSensor@@@ATL@@QEAAJPEBUtagRECT@@PEAUHWND__@@@Z 0000000180006be4 f i MotionSensor.obj
 0001:00005d10       ?DoVerbProperties@CComControlBase@ATL@@QEAAJPEBUtagRECT@@PEAUHWND__@@@Z 0000000180006d10 f i MotionSensor.obj
 0001:00005f38       ?FireTheEvent@?$CProxy_IOPOSEvents@VCOPOSMotionSensor@@@@IEAAXPEAVOposVariant@@IAEAJPEB_WJ@Z 0000000180006f38 f i MotionSensor.obj
 0001:00006024       ?FireViewChange@CComControlBase@ATL@@QEAAJXZ 0000000180007024 f i MotionSensor.obj
 0001:00006088       ?Fire_DirectIOEvent@?$CProxy_IOPOSEvents@VCOPOSMotionSensor@@@@QEAAXJPEAJPEAPEA_W@Z 0000000180007088 f i MotionSensor.obj
 0001:000061e8       ?Fire_StatusUpdateEvent@?$CProxy_IOPOSEvents@VCOPOSMotionSensor@@@@QEAAXJ@Z 00000001800071e8 f i MotionSensor.obj
 0001:000062d4       ?FreeHeap@?$CTempBuffer@_W$0EAA@VCCRTAllocator@ATL@@@ATL@@AEAAXXZ 00000001800072d4 f i MotionSensor.obj
 0001:000062d4       ?FreeHeap@?$CTempBuffer@E$0BAA@VCCRTAllocator@ATL@@@ATL@@AEAAXXZ 00000001800072d4 f i MotionSensor.obj
 0001:000062d4       ?FreeHeap@?$CTempBuffer@_W$0BAA@VCCRTAllocator@ATL@@@ATL@@AEAAXXZ 00000001800072d4 f i MotionSensor.obj
 0001:000062dc       ?GetAmbientLocaleID@CComControlBase@ATL@@QEAAJAEAK@Z 00000001800072dc f i MotionSensor.obj
 0001:0000639c       ?GetAmbientUserMode@CComControlBase@ATL@@QEAAJAEAH@Z 000000018000739c f i MotionSensor.obj
 0001:0000646c       ?GetClassObject@CComModule@ATL@@QEAAJAEBU_GUID@@0PEAPEAX@Z 000000018000746c f i MotionSensor.obj
 0001:00006560       ?GetConnMap@COPOSMotionSensor@@SAPEBU_ATL_CONNMAP_ENTRY@ATL@@PEAH@Z 0000000180007560 f i MotionSensor.obj
 0001:000065e8       ?GetIDsOfNames@CComTypeInfoHolder@ATL@@QEAAJAEBU_GUID@@PEAPEA_WIKPEAJ@Z 00000001800075e8 f i MotionSensor.obj
 0001:00006760       ?GetPagesHelper@?$ISpecifyPropertyPagesImpl@VCOPOSMotionSensor@@@ATL@@IEAAJPEAUtagCAUUID@@PEBUATL_PROPMAP_ENTRY@2@@Z 0000000180007760 f i MotionSensor.obj
 0001:00006900       ?GetSizeMax@CComVariant@ATL@@QEBAJPEAT_ULARGE_INTEGER@@@Z 0000000180007900 f i MotionSensor.obj
 0001:00006b30       ?GetTI@CComTypeInfoHolder@ATL@@QEAAJK@Z 0000000180007b30 f i MotionSensor.obj
 0001:00006e18       ?GetZoomInfo@CComControlBase@ATL@@QEAAXAEAUATL_DRAWINFO@@@Z 0000000180007e18 f i MotionSensor.obj
 0001:00006ebc       ?HKeyFromString@CRegParser@ATL@@KAPEAUHKEY__@@PEA_W@Z 0000000180007ebc f i MotionSensor.obj
 0001:00006f20       ?IDataObject_GetData@CComControlBase@ATL@@QEAAJPEAUtagFORMATETC@@PEAUtagSTGMEDIUM@@@Z 0000000180007f20 f i MotionSensor.obj
 0001:00007114       ?IOleInPlaceObject_InPlaceDeactivate@CComControlBase@ATL@@QEAAJXZ 0000000180008114 f i MotionSensor.obj
 0001:000071b4       ?IOleInPlaceObject_SetObjectRects@CComControlBase@ATL@@QEAAJPEBUtagRECT@@0@Z 00000001800081b4 f i MotionSensor.obj
 0001:000072a4       ?IOleInPlaceObject_UIDeactivate@CComControlBase@ATL@@QEAAJXZ 00000001800082a4 f i MotionSensor.obj
 0001:000073b0       ?IOleObject_Close@CComControlBase@ATL@@QEAAJK@Z 00000001800083b0 f i MotionSensor.obj
 0001:000074c8       ?IOleObject_SetClientSite@CComControlBase@ATL@@QEAAJPEAUIOleClientSite@@@Z 00000001800084c8 f i MotionSensor.obj
 0001:00007540       ?IOleObject_SetExtent@CComControlBase@ATL@@QEAAJKPEAUtagSIZE@@@Z 0000000180008540 f i MotionSensor.obj
 0001:000075d8       ?IPSI_GetIPersistStreamInit@?$IPersistStorageImpl@VCOPOSMotionSensor@@@ATL@@AEAAPEAUIPersistStreamInit@@XZ 00000001800085d8 f i MotionSensor.obj
 0001:000076c0       ?IPersistStreamInit_Load@?$IPersistStreamInitImpl@VCOPOSMotionSensor@@@ATL@@QEAAJPEAUIStream@@PEBUATL_PROPMAP_ENTRY@2@@Z 00000001800086c0 f i MotionSensor.obj
 0001:000079ec       ?IPersistStreamInit_Save@?$IPersistStreamInitImpl@VCOPOSMotionSensor@@@ATL@@QEAAJPEAUIStream@@HPEBUATL_PROPMAP_ENTRY@2@@Z 00000001800089ec f i MotionSensor.obj
 0001:00007c8c       ?IQuickActivate_QuickActivate@CComControlBase@ATL@@QEAAJPEAUtagQACONTAINER@@PEAUtagQACONTROL@@@Z 0000000180008c8c f i MotionSensor.obj
 0001:00007f50       ?IViewObject_Draw@CComControlBase@ATL@@QEAAJKJPEAXPEAUtagDVTARGETDEVICE@@PEAUHDC__@@2PEBU_RECTL@@3@Z 0000000180008f50 f i MotionSensor.obj
 0001:00008064       ?InPlaceActivate@CComControlBase@ATL@@QEAAJJPEBUtagRECT@@@Z 0000000180009064 f i MotionSensor.obj
 0001:00008398       ?Init@?$CComEnumImpl@UIEnumConnectionPoints@@$1?_GUID_b196b285_bab4_101a_b69c_00aa00341d07@@3U__s_GUID@@BPEAUIConnectionPoint@@V?$_CopyInterface@UIConnectionPoint@@@ATL@@@ATL@@QEAAJPEAPEAUIConnectionPoint@@0PEAUIUnknown@@W4CComEnumFlags@2@@Z 0000000180009398 f i MotionSensor.obj
 0001:000084b8       ?Init@?$CComEnumImpl@UIEnumConnections@@$1?_GUID_b196b287_bab4_101a_b69c_00aa00341d07@@3U__s_GUID@@BUtagCONNECTDATA@@V?$_Copy@UtagCONNECTDATA@@@ATL@@@ATL@@QEAAJPEAUtagCONNECTDATA@@0PEAUIUnknown@@W4CComEnumFlags@2@@Z 00000001800094b8 f i MotionSensor.obj
 0001:000085dc       ?IsEqualObject@?$CComPtrBase@UIOleClientSite@@@ATL@@QEAA_NPEAUIUnknown@@@Z 00000001800095dc f i MotionSensor.obj
 0001:00008668       ?LoadNameCache@CComTypeInfoHolder@ATL@@QEAAJPEAUITypeInfo@@@Z 0000000180009668 f i MotionSensor.obj
 0001:000087e8       ?Lookup@?$CSimpleMap@PEA_WPEA_WVCExpansionVectorEqualHelper@ATL@@@ATL@@QEBAPEA_WAEBQEA_W@Z 00000001800097e8 f i MotionSensor.obj
 0001:00008870       ?NextToken@CRegParser@ATL@@IEAAJPEA_W@Z 0000000180009870 f i MotionSensor.obj
 0001:00008a28       ?OnKillFocus@CComControlBase@ATL@@QEAA_JI_K_JAEAH@Z 0000000180009a28 f i MotionSensor.obj
 0001:00008ac4       ?OnMouseActivate@CComControlBase@ATL@@QEAA_JI_K_JAEAH@Z 0000000180009ac4 f i MotionSensor.obj
 0001:00008b64       ?OnPaint@CComControlBase@ATL@@QEAA_JI_K_JAEAH@Z 0000000180009b64 f i MotionSensor.obj
 0001:00008c50       ?OnSetFocus@CComControlBase@ATL@@QEAA_JI_K_JAEAH@Z 0000000180009c50 f i MotionSensor.obj
 0001:00008d4c       ?PreProcessBuffer@CRegParser@ATL@@QEAAJPEA_WPEAPEA_W@Z 0000000180009d4c f i MotionSensor.obj
 0001:000090d8       ?ProcessWindowMessage@?$CComControl@VCOPOSMotionSensor@@V?$CWindowImpl@VCOPOSMotionSensor@@VCWindow@ATL@@V?$CWinTraits@$0FGAAAAAA@$0A@@3@@ATL@@@ATL@@UEAAHPEAUHWND__@@I_K_JAEA_JK@Z 000000018000a0d8 f i MotionSensor.obj
 0001:000091bc       ?ReadFromStream@CComBSTR@ATL@@QEAAJPEAUIStream@@@Z 000000018000a1bc f i MotionSensor.obj
 0001:0000930c       ?ReadFromStream@CComVariant@ATL@@QEAAJPEAUIStream@@GTClassesAllowedInStream@2@K@Z 000000018000a30c f i MotionSensor.obj
 0001:00009530       ?RecurseDeleteKey@CRegKey@ATL@@QEAAJPEB_W@Z 000000018000a530 f i MotionSensor.obj
 0001:00009688       ?RegCreateKeyExW@CAtlTransactionManager@ATL@@QEAAJPEAUHKEY__@@PEB_WKPEA_WKKQEAU_SECURITY_ATTRIBUTES@@PEAPEAU3@PEAK@Z 000000018000a688 f i MotionSensor.obj
 0001:000097bc       ?RegDeleteKeyW@CAtlTransactionManager@ATL@@QEAAJPEAUHKEY__@@PEB_W@Z 000000018000a7bc f i MotionSensor.obj
 0001:00009848       ?RegOpenKeyExW@CAtlTransactionManager@ATL@@QEAAJPEAUHKEY__@@PEB_WKKPEAPEAU3@@Z 000000018000a848 f i MotionSensor.obj
 0001:00009900       ?RegisterBuffer@CRegParser@ATL@@QEAAJPEA_WH@Z 000000018000a900 f i MotionSensor.obj
 0001:00009a68       ?RegisterFromResource@CRegObject@ATL@@IEAAJPEB_W00H@Z 000000018000aa68 f i MotionSensor.obj
 0001:00009c24       ?RegisterServer@CComModule@ATL@@QEAAJHPEBU_GUID@@@Z 000000018000ac24 f i MotionSensor.obj
 0001:00009ce4       ?RegisterSubkeys@CRegParser@ATL@@IEAAJPEA_WPEAUHKEY__@@HH@Z 000000018000ace4 f i MotionSensor.obj
 0001:0000a550       ?SendOnDataChange@CComControlBase@ATL@@QEAAJK@Z 000000018000b550 f i MotionSensor.obj
 0001:0000a5c0       ?SetControlFocus@CComControlBase@ATL@@QEAAHH@Z 000000018000b5c0 f i MotionSensor.obj
 0001:0000a69c       ?SkipAssignment@CRegParser@ATL@@IEAAJPEA_W@Z 000000018000b69c f i MotionSensor.obj
 0001:0000a740       ?Term@CAtlModule@ATL@@QEAAXXZ 000000018000b740 f i MotionSensor.obj
 0001:0000a7c0       ?Term@CComModule@ATL@@QEAAXXZ 000000018000b7c0 f i MotionSensor.obj
 0001:0000a83c       ?UnregisterServer@CComModule@ATL@@QEAAJHPEBU_GUID@@@Z 000000018000b83c f i MotionSensor.obj
 0001:0000a8ec       ?UpdateRegistryFromResource@CAtlModule@ATL@@QEAAJIHPEAU_ATL_REGMAP_ENTRY@2@@Z 000000018000b8ec f i MotionSensor.obj
 0001:0000abf8       ?UpdateRegistryFromResource@CAtlModule@ATL@@QEAAJPEB_WHPEAU_ATL_REGMAP_ENTRY@2@@Z 000000018000bbf8 f i MotionSensor.obj
 0001:0000af1c       ?VTFromRegType@CRegParser@ATL@@KAHPEB_WAEAG@Z 000000018000bf1c f i MotionSensor.obj
 0001:0000afb8       ?WindowProc@?$CWindowImplBaseT@VCWindow@ATL@@V?$CWinTraits@$0FGAAAAAA@$0A@@2@@ATL@@SA_JPEAUHWND__@@I_K_J@Z 000000018000bfb8 f i MotionSensor.obj
 0001:0000b124       ?WriteToStream@CComVariant@ATL@@QEAAJPEAUIStream@@@Z 000000018000c124 f i MotionSensor.obj
 0001:0000b3a0       ?WriteToStream@CComVariant@ATL@@QEAAJPEAUIStream@@G@Z 000000018000c3a0 f i MotionSensor.obj
 0001:0000b438       ?_AtlVerifyStackAvailable@_ATL_SAFE_ALLOCA_IMPL@ATL@@YA_N_K@Z 000000018000c438 f i MotionSensor.obj
 0001:0000b4bc       ?atlCreate@?$CWindowImpl@VCOPOSMotionSensor@@VCWindow@ATL@@V?$CWinTraits@$0FGAAAAAA@$0A@@3@@ATL@@QEAAPEAUHWND__@@PEAU3@V_U_RECT@2@PEB_WKKV_U_MENUorID@2@PEAX@Z 000000018000c4bc f i MotionSensor.obj
 0001:0000b570       ?atlCreate@?$CWindowImplBaseT@VCWindow@ATL@@V?$CWinTraits@$0FGAAAAAA@$0A@@2@@ATL@@QEAAPEAUHWND__@@PEAU3@V_U_RECT@2@PEB_WKKV_U_MENUorID@2@GPEAX@Z 000000018000c570 f i MotionSensor.obj
 0001:0000b6e0       ?ocscpy_s@@YA_NPEA_W_KPEB_W@Z 000000018000c6e0 f i MotionSensor.obj
 0001:0000b790       DllCanUnloadNow            000000018000c790 f   MotionSensor.obj
 0001:0000b79c       DllGetClassObject          000000018000c79c f   MotionSensor.obj
 0001:0000b7b4       DllMain                    000000018000c7b4 f   MotionSensor.obj
 0001:0000b85c       DllRegisterServer          000000018000c85c f   MotionSensor.obj
 0001:0000b870       DllUnregisterServer        000000018000c870 f   MotionSensor.obj
 0001:0000b884       __local_stdio_printf_options 000000018000c884 f i MotionSensor.obj
 0001:0000b88c       swprintf_s                 000000018000c88c f i MotionSensor.obj
 0001:0000b8e0       ??0COPOSMotionSensor@@QEAA@XZ 000000018000c8e0 f   MotionSensorImpl.obj
 0001:0000b99c       ??1?$IConnectionPointImpl@VCOPOSMotionSensor@@$1?IID_IPropertyNotifySink@@3U_GUID@@BVCComDynamicUnkArray@ATL@@@ATL@@QEAA@XZ 000000018000c99c f i MotionSensorImpl.obj
 0001:0000b99c       ??1?$IConnectionPointImpl@VCOPOSMotionSensor@@$1?DIID__IOPOSMotionSensorEvents@@3U_GUID@@BVCComDynamicUnkArray@ATL@@@ATL@@QEAA@XZ 000000018000c99c f i MotionSensorImpl.obj
 0001:0000b9f8       ??1CComControlBase@ATL@@UEAA@XZ 000000018000c9f8 f i MotionSensorImpl.obj
 0001:0000ba74       ??1COPOSMotionSensor@@UEAA@XZ 000000018000ca74 f   MotionSensorImpl.obj
 0001:0000bad8       ?CheckHealth@COPOSMotionSensor@@UEAAJJPEAJ@Z 000000018000cad8 f   MotionSensorImpl.obj
 0001:0000bb54       ?ClaimDevice@COPOSMotionSensor@@UEAAJJPEAJ@Z 000000018000cb54 f   MotionSensorImpl.obj
 0001:0000bbec       ?Close@COPOSMotionSensor@@UEAAJPEAJ@Z 000000018000cbec f   MotionSensorImpl.obj
 0001:0000bca4       ?CompareFirmwareVersion@COPOSMotionSensor@@UEAAJPEA_WPEAJ1@Z 000000018000cca4 f   MotionSensorImpl.obj
 0001:0000bd80       ?DirectIO@COPOSMotionSensor@@UEAAJJPEAJPEAPEA_W0@Z 000000018000cd80 f   MotionSensorImpl.obj
 0001:0000be7c       ?DoInvoke@COPOSMotionSensor@@IEAAJJPEAVOposVariant@@IHPEAJ_N@Z 000000018000ce7c f   MotionSensorImpl.obj
 0001:0000bfb0       ?EventInit@COPOSMotionSensor@@IEAAJXZ 000000018000cfb0 f i MotionSensorImpl.obj
 0001:0000c0f8       ?EventUninit@COPOSMotionSensor@@IEAAXXZ 000000018000d0f8 f i MotionSensorImpl.obj
 0001:0000c15c       ?EventWindowProc@COPOSMotionSensor@@IEAA_JI_K_J@Z 000000018000d15c f i MotionSensorImpl.obj
 0001:0000c220       ?FinalConstruct@COPOSMotionSensor@@QEAAJXZ 000000018000d220 f   MotionSensorImpl.obj
 0001:0000c25c       ?FreezeEvents@COPOSMotionSensor@@MEAAJH@Z 000000018000d25c f   MotionSensorImpl.obj
 0001:0000c2d0       ?GetOposProp@COPOSMotionSensor@@IEAAJJPEAJJ@Z 000000018000d2d0 f   MotionSensorImpl.obj
 0001:0000c3ec       ?GetOposProp@COPOSMotionSensor@@IEAAJJPEAPEA_WJ@Z 000000018000d3ec f   MotionSensorImpl.obj
 0001:0000c518       ?OnDraw@COPOSMotionSensor@@MEAAJAEAUATL_DRAWINFO@@@Z 000000018000d518 f   MotionSensorImpl.obj
 0001:0000c604       ?Open@COPOSMotionSensor@@UEAAJPEA_WPEAJ@Z 000000018000d604 f   MotionSensorImpl.obj
 0001:0000ce80       ?ReleaseDevice@COPOSMotionSensor@@UEAAJPEAJ@Z 000000018000de80 f   MotionSensorImpl.obj
 0001:0000cec4       ?ResetStatistics@COPOSMotionSensor@@UEAAJPEA_WPEAJ@Z 000000018000dec4 f   MotionSensorImpl.obj
 0001:0000cf4c       ?RetrieveStatistics@COPOSMotionSensor@@UEAAJPEAPEA_WPEAJ@Z 000000018000df4c f   MotionSensorImpl.obj
 0001:0000cfd4       ?SOProcessID@COPOSMotionSensor@@UEAAJPEAJ@Z 000000018000dfd4 f   MotionSensorImpl.obj
 0001:0000cff0       ?SetCOFreezeEvents@COPOSMotionSensor@@IEAAXF@Z 000000018000dff0 f   MotionSensorImpl.obj
 0001:0000d0d4       ?SetOposProp@COPOSMotionSensor@@IEAAJJJJ@Z 000000018000e0d4 f   MotionSensorImpl.obj
 0001:0000d234       ?UpdateFirmware@COPOSMotionSensor@@UEAAJPEA_WPEAJ@Z 000000018000e234 f   MotionSensorImpl.obj
 0001:0000d2bc       ?UpdateStatistics@COPOSMotionSensor@@UEAAJPEA_WPEAJ@Z 000000018000e2bc f   MotionSensorImpl.obj
 0001:0000d344       ?WaitForMotion@COPOSMotionSensor@@UEAAJJPEAJ@Z 000000018000e344 f   MotionSensorImpl.obj
 0001:0000d3c0       ?get_BinaryConversion@COPOSMotionSensor@@UEAAJPEAJ@Z 000000018000e3c0 f   MotionSensorImpl.obj
 0001:0000d3d4       ?get_CapCompareFirmwareVersion@COPOSMotionSensor@@UEAAJPEAF@Z 000000018000e3d4 f   MotionSensorImpl.obj
 0001:0000d408       ?get_CapPowerReporting@COPOSMotionSensor@@UEAAJPEAJ@Z 000000018000e408 f   MotionSensorImpl.obj
 0001:0000d41c       ?get_CapStatisticsReporting@COPOSMotionSensor@@UEAAJPEAF@Z 000000018000e41c f   MotionSensorImpl.obj
 0001:0000d450       ?get_CapUpdateFirmware@COPOSMotionSensor@@UEAAJPEAF@Z 000000018000e450 f   MotionSensorImpl.obj
 0001:0000d484       ?get_CapUpdateStatistics@COPOSMotionSensor@@UEAAJPEAF@Z 000000018000e484 f   MotionSensorImpl.obj
 0001:0000d4b8       ?get_CheckHealthText@COPOSMotionSensor@@UEAAJPEAPEA_W@Z 000000018000e4b8 f   MotionSensorImpl.obj
 0001:0000d4cc       ?get_Claimed@COPOSMotionSensor@@UEAAJPEAF@Z 000000018000e4cc f   MotionSensorImpl.obj
 0001:0000d500       ?get_ControlObjectDescription@COPOSMotionSensor@@UEAAJPEAPEA_W@Z 000000018000e500 f   MotionSensorImpl.obj
 0001:0000d564       ?get_ControlObjectVersion@COPOSMotionSensor@@UEAAJPEAJ@Z 000000018000e564 f   MotionSensorImpl.obj
 0001:0000d570       ?get_DeviceDescription@COPOSMotionSensor@@UEAAJPEAPEA_W@Z 000000018000e570 f   MotionSensorImpl.obj
 0001:0000d584       ?get_DeviceEnabled@COPOSMotionSensor@@UEAAJPEAF@Z 000000018000e584 f   MotionSensorImpl.obj
 0001:0000d5b8       ?get_DeviceName@COPOSMotionSensor@@UEAAJPEAPEA_W@Z 000000018000e5b8 f   MotionSensorImpl.obj
 0001:0000d5cc       ?get_FreezeEvents@COPOSMotionSensor@@UEAAJPEAF@Z 000000018000e5cc f   MotionSensorImpl.obj
 0001:0000d5fc       ?get_Motion@COPOSMotionSensor@@UEAAJPEAF@Z 000000018000e5fc f   MotionSensorImpl.obj
 0001:0000d630       ?get_OpenResult@COPOSMotionSensor@@UEAAJPEAJ@Z 000000018000e630 f   MotionSensorImpl.obj
 0001:0000d63c       ?get_PowerNotify@COPOSMotionSensor@@UEAAJPEAJ@Z 000000018000e63c f   MotionSensorImpl.obj
 0001:0000d650       ?get_PowerState@COPOSMotionSensor@@UEAAJPEAJ@Z 000000018000e650 f   MotionSensorImpl.obj
 0001:0000d664       ?get_ResultCode@COPOSMotionSensor@@UEAAJPEAJ@Z 000000018000e664 f   MotionSensorImpl.obj
 0001:0000d6a0       ?get_ResultCodeExtended@COPOSMotionSensor@@UEAAJPEAJ@Z 000000018000e6a0 f   MotionSensorImpl.obj
 0001:0000d6b4       ?get_ServiceObjectDescription@COPOSMotionSensor@@UEAAJPEAPEA_W@Z 000000018000e6b4 f   MotionSensorImpl.obj
 0001:0000d6c8       ?get_ServiceObjectVersion@COPOSMotionSensor@@UEAAJPEAJ@Z 000000018000e6c8 f   MotionSensorImpl.obj
 0001:0000d6dc       ?get_State@COPOSMotionSensor@@UEAAJPEAJ@Z 000000018000e6dc f   MotionSensorImpl.obj
 0001:0000d708       ?get_Timeout@COPOSMotionSensor@@UEAAJPEAJ@Z 000000018000e708 f   MotionSensorImpl.obj
 0001:0000d71c       ?put_BinaryConversion@COPOSMotionSensor@@UEAAJJ@Z 000000018000e71c f   MotionSensorImpl.obj
 0001:0000d730       ?put_DeviceEnabled@COPOSMotionSensor@@UEAAJF@Z 000000018000e730 f   MotionSensorImpl.obj
 0001:0000d748       ?put_FreezeEvents@COPOSMotionSensor@@UEAAJF@Z 000000018000e748 f   MotionSensorImpl.obj
 0001:0000d798       ?put_PowerNotify@COPOSMotionSensor@@UEAAJJ@Z 000000018000e798 f   MotionSensorImpl.obj
 0001:0000d7ac       ?put_Timeout@COPOSMotionSensor@@UEAAJJ@Z 000000018000e7ac f   MotionSensorImpl.obj
 0001:0000d7c0       ?s_EventWindowProc@COPOSMotionSensor@@KA_JPEAUHWND__@@I_K_J@Z 000000018000e7c0 f i MotionSensorImpl.obj
 0001:0000d83c       ??_U@YAPEAX_K@Z            000000018000e83c f   LIBCMT:new_array.obj
 0001:0000d844       ??_V@YAXPEAX@Z             000000018000e844 f   LIBCMT:delete_array.obj
 0001:0000d844       ??3@YAXPEAX_K@Z            000000018000e844 f   LIBCMT:delete_scalar_size.obj
 0001:0000d84c       ??_V@YAXPEAX_K@Z           000000018000e84c f   LIBCMT:delete_array_size.obj
 0001:0000d854       __scrt_acquire_startup_lock 000000018000e854 f   LIBCMT:utility.obj
 0001:0000d890       __scrt_dllmain_after_initialize_c 000000018000e890 f   LIBCMT:utility.obj
 0001:0000d8c4       __scrt_dllmain_before_initialize_c 000000018000e8c4 f   LIBCMT:utility.obj
 0001:0000d8dc       __scrt_dllmain_crt_thread_attach 000000018000e8dc f   LIBCMT:utility.obj
 0001:0000d904       __scrt_dllmain_crt_thread_detach 000000018000e904 f   LIBCMT:utility.obj
 0001:0000d91c       __scrt_dllmain_exception_filter 000000018000e91c f   LIBCMT:utility.obj
 0001:0000d97c       __scrt_dllmain_uninitialize_c 000000018000e97c f   LIBCMT:utility.obj
 0001:0000d9ac       __scrt_dllmain_uninitialize_critical 000000018000e9ac f   LIBCMT:utility.obj
 0001:0000d9c0       __scrt_initialize_crt      000000018000e9c0 f   LIBCMT:utility.obj
 0001:0000da0c       __scrt_initialize_onexit_tables 000000018000ea0c f   LIBCMT:utility.obj
 0001:0000da98       __scrt_is_nonwritable_in_current_image 000000018000ea98 f   LIBCMT:utility.obj
 0001:0000db30       __scrt_release_startup_lock 000000018000eb30 f   LIBCMT:utility.obj
 0001:0000db54       __scrt_uninitialize_crt    000000018000eb54 f   LIBCMT:utility.obj
 0001:0000db80       _onexit                    000000018000eb80 f   LIBCMT:utility.obj
 0001:0000dbbc       atexit                     000000018000ebbc f   LIBCMT:utility.obj
 0001:0000dbd4       ??3@YAXPEAX@Z              000000018000ebd4 f   LIBCMT:delete_scalar.obj
 0001:0000dcd4       _Init_thread_footer        000000018000ecd4 f   LIBCMT:thread_safe_statics.obj
 0001:0000dd34       _Init_thread_header        000000018000ed34 f   LIBCMT:thread_safe_statics.obj
 0001:0000dd9c       _Init_thread_notify        000000018000ed9c f   LIBCMT:thread_safe_statics.obj
 0001:0000dde0       _Init_thread_wait          000000018000ede0 f   LIBCMT:thread_safe_statics.obj
 0001:0000de44       __raise_securityfailure    000000018000ee44 f   LIBCMT:gs_report.obj
 0001:0000de78       __report_gsfailure         000000018000ee78 f   LIBCMT:gs_report.obj
 0001:0000df4c       __report_rangecheckfailure 000000018000ef4c f   LIBCMT:gs_report.obj
 0001:0000df60       __report_securityfailure   000000018000ef60 f   LIBCMT:gs_report.obj
 0001:0000e0e0       ??2@YAPEAX_KAEBUnothrow_t@std@@@Z 000000018000f0e0 f   LIBCMT:new_scalar_nothrow.obj
 0001:0000e0f4       ??_U@YAPEAX_KAEBUnothrow_t@std@@@Z 000000018000f0f4 f   LIBCMT:new_array_nothrow.obj
 0001:0000e0fc       __GSHandlerCheck           000000018000f0fc f   LIBCMT:gshandler.obj
 0001:0000e11c       __GSHandlerCheckCommon     000000018000f11c f   LIBCMT:gshandler.obj
 0001:0000e178       __GSHandlerCheck_SEH       000000018000f178 f   LIBCMT:gshandlerseh.obj
 0001:0000e210       _alloca_probe              000000018000f210 f   LIBCMT:chkstk.obj
 0001:0000e210       __chkstk                   000000018000f210 f   LIBCMT:chkstk.obj
 0001:0000e280       __security_check_cookie    000000018000f280 f   LIBCMT:amdsecgs.obj
 0001:0000e5c4       _DllMainCRTStartup         000000018000f5c4 f   LIBCMT:dll_dllmain.obj
 0001:0000e604       ??2@YAPEAX_K@Z             000000018000f604 f   LIBCMT:new_scalar.obj
 0001:0000e640       __isa_available_init       000000018000f640 f   LIBCMT:cpu_disp.obj
 0001:0000e7e4       __scrt_is_ucrt_dll_in_use  000000018000f7e4 f   LIBCMT:ucrt_detection.obj
 0001:0000e7f0       __crt_debugger_hook        000000018000f7f0 f   LIBCMT:utility_desktop.obj
 0001:0000e7f8       __scrt_fastfail            000000018000f7f8 f   LIBCMT:utility_desktop.obj
 0001:0000e944       __security_init_cookie     000000018000f944 f   LIBCMT:gs_support.obj
 0001:0000e9f0       ?__scrt_initialize_type_info@@YAXXZ 000000018000f9f0 f   LIBCMT:tncleanup.obj
 0001:0000ea00       ?__scrt_uninitialize_type_info@@YAXXZ 000000018000fa00 f   LIBCMT:tncleanup.obj
 0001:0000ea0c       __local_stdio_scanf_options 000000018000fa0c f i LIBCMT:default_local_stdio_options.obj
 0001:0000ea14       __scrt_initialize_default_local_stdio_options 000000018000fa14 f   LIBCMT:default_local_stdio_options.obj
 0001:0000ea30       __scrt_get_dyn_tls_init_callback 000000018000fa30 f   LIBCMT:dyn_tls_init.obj
 0001:0000ea38       _RTC_Initialize            000000018000fa38 f   LIBCMT:initsect.obj
 0001:0000ea74       _RTC_Terminate             000000018000fa74 f   LIBCMT:initsect.obj
 0001:0000eab0       ??0bad_alloc@std@@QEAA@AEBV01@@Z 000000018000fab0 f i LIBCMT:throw_bad_alloc.obj
 0001:0000eaec       ??0bad_alloc@std@@QEAA@XZ  000000018000faec f i LIBCMT:throw_bad_alloc.obj
 0001:0000eb0c       ??0bad_array_new_length@std@@QEAA@AEBV01@@Z 000000018000fb0c f i LIBCMT:throw_bad_alloc.obj
 0001:0000eb48       ??0bad_array_new_length@std@@QEAA@XZ 000000018000fb48 f i LIBCMT:throw_bad_alloc.obj
 0001:0000eb68       ??0exception@std@@QEAA@AEBV01@@Z 000000018000fb68 f i LIBCMT:throw_bad_alloc.obj
 0001:0000eb9c       ??1bad_array_new_length@std@@UEAA@XZ 000000018000fb9c f i LIBCMT:throw_bad_alloc.obj
 0001:0000eb9c       ??1bad_exception@std@@UEAA@XZ 000000018000fb9c f i libvcruntime:frame.obj
 0001:0000eb9c       ??1bad_alloc@std@@UEAA@XZ  000000018000fb9c f i LIBCMT:throw_bad_alloc.obj
 0001:0000ebb0       ??_Gbad_alloc@std@@UEAAPEAXI@Z 000000018000fbb0 f i LIBCMT:throw_bad_alloc.obj
 0001:0000ebb0       ??_Eexception@std@@UEAAPEAXI@Z 000000018000fbb0 f i LIBCMT:throw_bad_alloc.obj
 0001:0000ebb0       ??_Ebad_exception@std@@UEAAPEAXI@Z 000000018000fbb0 f i libvcruntime:frame.obj
 0001:0000ebb0       ??_Gexception@std@@UEAAPEAXI@Z 000000018000fbb0 f i LIBCMT:throw_bad_alloc.obj
 0001:0000ebb0       ??_Ebad_array_new_length@std@@UEAAPEAXI@Z 000000018000fbb0 f i LIBCMT:throw_bad_alloc.obj
 0001:0000ebb0       ??_Gbad_array_new_length@std@@UEAAPEAXI@Z 000000018000fbb0 f i LIBCMT:throw_bad_alloc.obj
 0001:0000ebb0       ??_Gbad_exception@std@@UEAAPEAXI@Z 000000018000fbb0 f i libvcruntime:frame.obj
 0001:0000ebb0       ??_Ebad_alloc@std@@UEAAPEAXI@Z 000000018000fbb0 f i LIBCMT:throw_bad_alloc.obj
 0001:0000ebf4       ?__scrt_throw_std_bad_alloc@@YAXXZ 000000018000fbf4 f   LIBCMT:throw_bad_alloc.obj
 0001:0000ec14       ?__scrt_throw_std_bad_array_new_length@@YAXXZ 000000018000fc14 f   LIBCMT:throw_bad_alloc.obj
 0001:0000ec34       ?what@exception@std@@UEBAPEBDXZ 000000018000fc34 f i LIBCMT:throw_bad_alloc.obj
 0001:0000ec50       ??_Etype_info@@UEAAPEAXI@Z 000000018000fc50 f i LIBCMT:std_type_info_static.obj
 0001:0000ec50       ??_Gtype_info@@UEAAPEAXI@Z 000000018000fc50 f i LIBCMT:std_type_info_static.obj
 0001:0000ec7c       ??0CAtlBaseModule@ATL@@QEAA@XZ 000000018000fc7c f   atls:atlbase.obj
 0001:0000ed24       ??1CAtlBaseModule@ATL@@QEAA@XZ 000000018000fd24 f   atls:atlbase.obj
 0001:0000ee58       ?__AllocStdCallThunk_cmn@@YAPEAXXZ 000000018000fe58 f   atls:atlthunk.obj
 0001:0000efb0       AtlThunk_AllocateData      000000018000ffb0 f   atls:atlthunk.obj
 0001:0000f02c       AtlThunk_DataToCode        000000018001002c f   atls:atlthunk.obj
 0001:0000f080       AtlThunk_FreeData          0000000180010080 f   atls:atlthunk.obj
 0001:0000f0e0       AtlThunk_InitData          00000001800100e0 f   atls:atlthunk.obj
 0001:0000f188       _get_purecall_handler      0000000180010188 f   libvcruntime:purevirt.obj
 0001:0000f190       _purecall                  0000000180010190 f   libvcruntime:purevirt.obj
 0001:0000f1ac       wcsstr                     00000001800101ac f   libvcruntime:wcsstr.obj
 0001:0000f3e0       memcmp                     00000001800103e0 f   libvcruntime:memcmp.obj
 0001:0000f4c0       memcpy_repmovs             00000001800104c0 f   libvcruntime:memcpy.obj
 0001:0000f4e0       memmove                    00000001800104e0 f   libvcruntime:memcpy.obj
 0001:0000f4e0       memcpy                     00000001800104e0 f   libvcruntime:memcpy.obj
 0001:0000f8d0       memset_repmovs             00000001800108d0 f   libvcruntime:memset.obj
 0001:0000f8f0       memset                     00000001800108f0 f   libvcruntime:memset.obj
 0001:0000fa80       __vcrt_initialize          0000000180010a80 f   libvcruntime:initialization.obj
 0001:0000faa8       __vcrt_thread_attach       0000000180010aa8 f   libvcruntime:initialization.obj
 0001:0000fabc       __vcrt_thread_detach       0000000180010abc f   libvcruntime:initialization.obj
 0001:0000fad0       __vcrt_uninitialize        0000000180010ad0 f   libvcruntime:initialization.obj
 0001:0000faec       __vcrt_uninitialize_critical 0000000180010aec f   libvcruntime:initialization.obj
 0001:0000fafc       __C_specific_handler       0000000180010afc f   libvcruntime:riscchandler.obj
 0001:0000fd08       ??$_CallSETranslator@V__FrameHandler4@@@@YAHPEAUEHExceptionRecord@@PEA_KPEAU_CONTEXT@@PEAU_xDISPATCHER_CONTEXT@@PEAUFuncInfo4@FH4@@K1H@Z 0000000180010d08 f i libvcruntime:risctrnsctrl.obj
 0001:0000fd5c       ?DecompFuncInfo@FH4@@YA_JPEAEAEAUFuncInfo4@1@_KH_N@Z 0000000180010d5c f i libvcruntime:risctrnsctrl.obj
 0001:0000fe80       ?ExecutionInCatch@__FrameHandler4@@SA_NPEAU_xDISPATCHER_CONTEXT@@PEAUFuncInfo4@FH4@@@Z 0000000180010e80 f   libvcruntime:risctrnsctrl.obj
 0001:0000fe88       ?FrameUnwindToEmptyState@__FrameHandler4@@SAXPEA_KPEAU_xDISPATCHER_CONTEXT@@PEAUFuncInfo4@FH4@@@Z 0000000180010e88 f   libvcruntime:risctrnsctrl.obj
 0001:0000febc       ?GetEstablisherFrame@__FrameHandler4@@SAPEA_KPEA_KPEAU_xDISPATCHER_CONTEXT@@PEAUFuncInfo4@FH4@@0@Z 0000000180010ebc f   libvcruntime:risctrnsctrl.obj
 0001:0000fee0       ?GetRangeOfTrysToCheck@__FrameHandler4@@SA?AU?$pair@Viterator@TryBlockMap4@FH4@@V123@@std@@AEAVTryBlockMap4@FH4@@HPEAU_xDISPATCHER_CONTEXT@@PEAUFuncInfo4@5@H@Z 0000000180010ee0 f   libvcruntime:risctrnsctrl.obj
 0001:00010048       ?UnwindNestedFrames@__FrameHandler4@@SAXPEA_KPEAUEHExceptionRecord@@PEAU_CONTEXT@@0PEAXPEAUFuncInfo4@FH4@@HHPEAUHandlerType4@5@PEAU_xDISPATCHER_CONTEXT@@E@Z 0000000180011048 f   libvcruntime:risctrnsctrl.obj
 0001:00010168       ?setBuffer@TryBlockMap4@FH4@@QEAAXViterator@12@@Z 0000000180011168 f i libvcruntime:risctrnsctrl.obj
 0001:00010328       _CreateFrameInfo           0000000180011328 f   libvcruntime:risctrnsctrl.obj
 0001:00010364       _FindAndUnlinkFrame        0000000180011364 f   libvcruntime:risctrnsctrl.obj
 0001:000103b8       _GetImageBase              00000001800113b8 f   libvcruntime:risctrnsctrl.obj
 0001:000103cc       _GetThrowImageBase         00000001800113cc f   libvcruntime:risctrnsctrl.obj
 0001:000103e0       _SetImageBase              00000001800113e0 f   libvcruntime:risctrnsctrl.obj
 0001:000103f8       _SetThrowImageBase         00000001800113f8 f   libvcruntime:risctrnsctrl.obj
 0001:00010410       __CxxFrameHandler4         0000000180011410 f   libvcruntime:risctrnsctrl.obj
 0001:000104d0       __DestructExceptionObject  00000001800114d0 f   libvcruntime:ehhelpers.obj
 0001:00010540       ?_CallMemberFunction0@@YAXQEAX0@Z 0000000180011540 f i libvcruntime:ehhelpers.obj
 0001:00010544       _IsExceptionObjectToBeDestroyed 0000000180011544 f   libvcruntime:ehhelpers.obj
 0001:00010574       __AdjustPointer            0000000180011574 f   libvcruntime:ehhelpers.obj
 0001:00010598       __FrameUnwindFilter        0000000180011598 f   libvcruntime:ehhelpers.obj
 0001:00010600       __std_type_info_compare    0000000180011600 f   libvcruntime:std_type_info.obj
 0001:00010628       __std_type_info_destroy_list 0000000180011628 f   libvcruntime:std_type_info.obj
 0001:00010654       __std_exception_copy       0000000180011654 f   libvcruntime:std_exception.obj
 0001:000106e4       __std_exception_destroy    00000001800116e4 f   libvcruntime:std_exception.obj
 0001:0001070c       _CxxThrowException         000000018001170c f   libvcruntime:throw.obj
 0001:000107ac       __vcrt_freefls             00000001800117ac f   libvcruntime:per_thread_data.obj
 0001:000107cc       __vcrt_freeptd             00000001800117cc f   libvcruntime:per_thread_data.obj
 0001:0001081c       __vcrt_getptd              000000018001181c f   libvcruntime:per_thread_data.obj
 0001:00010838       __vcrt_getptd_noexit       0000000180011838 f   libvcruntime:per_thread_data.obj
 0001:000108f8       __vcrt_initialize_ptd      00000001800118f8 f   libvcruntime:per_thread_data.obj
 0001:00010940       __vcrt_uninitialize_ptd    0000000180011940 f   libvcruntime:per_thread_data.obj
 0001:00010964       __vcrt_initialize_locks    0000000180011964 f   libvcruntime:locks.obj
 0001:00010998       __vcrt_uninitialize_locks  0000000180011998 f   libvcruntime:locks.obj
 0001:000109e0       _NLG_Notify                00000001800119e0 f   libvcruntime:notify.obj
 0001:00010a00       __NLG_Dispatch2            0000000180011a00 f   libvcruntime:notify.obj
 0001:00010a10       __NLG_Return2              0000000180011a10 f   libvcruntime:notify.obj
 0001:00010a14       __except_validate_context_record 0000000180011a14 f   libvcruntime:jbcxrval.obj
 0001:00010a4c       ?StateFromControlPc@__FrameHandler4@@SAHPEAUFuncInfo4@FH4@@PEAU_xDISPATCHER_CONTEXT@@@Z 0000000180011a4c f   libvcruntime:ehstate.obj
 0001:00010a54       ?StateFromIp@__FrameHandler4@@SAHPEAUFuncInfo4@FH4@@PEAU_xDISPATCHER_CONTEXT@@_K@Z 0000000180011a54 f   libvcruntime:ehstate.obj
 0001:000116d8       ??$TypeMatchHelper@V__FrameHandler3@@@@YAHPEBU_s_HandlerType@@PEBU_s_CatchableType@@PEBU_s_ThrowInfo@@@Z 00000001800126d8 f i libvcruntime:frame.obj
 0001:00011818       ??$TypeMatchHelper@V__FrameHandler4@@@@YAHPEAUHandlerType4@FH4@@PEBU_s_CatchableType@@PEBU_s_ThrowInfo@@@Z 0000000180012818 f i libvcruntime:frame.obj
 0001:0001195c       ??$__InternalCxxFrameHandler@V__FrameHandler4@@@@YA?AW4_EXCEPTION_DISPOSITION@@PEAUEHExceptionRecord@@PEA_KPEAU_CONTEXT@@PEAU_xDISPATCHER_CONTEXT@@PEAUFuncInfo4@FH4@@H1E@Z 000000018001295c f i libvcruntime:frame.obj
 0001:00011bf0       ??0HandlerMap4@FH4@@QEAA@PEBUTryBlockMapEntry4@1@_KH@Z 0000000180012bf0 f i libvcruntime:frame.obj
 0001:00011c6c       ??0TryBlockMap4@FH4@@QEAA@PEBUFuncInfo4@1@_K@Z 0000000180012c6c f i libvcruntime:frame.obj
 0001:00011d44       ??0bad_exception@std@@QEAA@AEBV01@@Z 0000000180012d44 f i libvcruntime:frame.obj
 0001:00011d80       ??0bad_exception@std@@QEAA@XZ 0000000180012d80 f i libvcruntime:frame.obj
 0001:00011da0       ?CxxCallCatchBlock@__FrameHandler4@@SAPEAXPEAU_EXCEPTION_RECORD@@@Z 0000000180012da0 f   libvcruntime:frame.obj
 0001:00011ff0       ?DecompHandler@HandlerMap4@FH4@@AEAAXXZ 0000000180012ff0 f i libvcruntime:frame.obj
 0001:00012230       ?FrameUnwindToState@__FrameHandler4@@SAXPEA_KPEAU_xDISPATCHER_CONTEXT@@PEAUFuncInfo4@FH4@@H@Z 0000000180013230 f   libvcruntime:frame.obj
 0001:00012690       ?ReadEntry@UWMap4@FH4@@AEAAXPEAPEAE@Z 0000000180013690 f i libvcruntime:frame.obj
 0001:00012730       ?_CallMemberFunction1@@YAXQEAX00@Z 0000000180013730 f i libvcruntime:frame.obj
 0001:0001273c       ?_CallMemberFunction2@@YAXQEAX00H@Z 000000018001373c f i libvcruntime:frame.obj
 0001:0001274c       ?getStartStop@UWMap4@FH4@@QEAAXHHAEAViterator@12@0@Z 000000018001374c f i libvcruntime:frame.obj
 0001:0001281c       ?getStateFromIterators@UWMap4@FH4@@SAHAEBViterator@12@H0H0@Z 000000018001381c f i libvcruntime:frame.obj
 0001:00012a30       __vcrt_FlsAlloc            0000000180013a30 f   libvcruntime:winapi_downlevel.obj
 0001:00012a78       __vcrt_FlsFree             0000000180013a78 f   libvcruntime:winapi_downlevel.obj
 0001:00012ac0       __vcrt_FlsGetValue         0000000180013ac0 f   libvcruntime:winapi_downlevel.obj
 0001:00012b08       __vcrt_FlsSetValue         0000000180013b08 f   libvcruntime:winapi_downlevel.obj
 0001:00012b5c       __vcrt_InitializeCriticalSectionEx 0000000180013b5c f   libvcruntime:winapi_downlevel.obj
 0001:00012bd0       _CallSettingFrame          0000000180013bd0 f   libvcruntime:handlers.obj
 0001:00012c20       _CallSettingFrame_LookupContinuationIndex 0000000180013c20 f   libvcruntime:handlers.obj
 0001:00012c50       _CallSettingFrame_NotifyContinuationAddr 0000000180013c50 f   libvcruntime:handlers.obj
 0001:00012c80       _CallSettingFrameEncoded   0000000180013c80 f   libvcruntime:handlers.obj
 0001:00012cc8       free                       0000000180013cc8 f   libucrt:free.obj
 0001:00012cdc       __acrt_call_reportfault    0000000180013cdc f   libucrt:invalid_parameter.obj
 0001:00012e38       __acrt_initialize_invalid_parameter_handler 0000000180013e38 f   libucrt:invalid_parameter.obj
 0001:00012e40       _invalid_parameter         0000000180013e40 f   libucrt:invalid_parameter.obj
 0001:00012ef0       _invalid_parameter_noinfo  0000000180013ef0 f   libucrt:invalid_parameter.obj
 0001:00012f10       _invoke_watson             0000000180013f10 f   libucrt:invalid_parameter.obj
 0001:00012f58       __acrt_errno_from_os_error 0000000180013f58 f   libucrt:errno.obj
 0001:00012fa0       __acrt_errno_map_os_error  0000000180013fa0 f   libucrt:errno.obj
 0001:00012ff0       __doserrno                 0000000180013ff0 f   libucrt:errno.obj
 0001:00013010       _errno                     0000000180014010 f   libucrt:errno.obj
 0001:00013030       calloc                     0000000180014030 f   libucrt:calloc.obj
 0001:00013038       malloc                     0000000180014038 f   libucrt:malloc.obj
 0001:00013040       _recalloc                  0000000180014040 f   libucrt:recalloc.obj
 0001:00013048       _recalloc_base             0000000180014048 f   libucrt:recalloc.obj
 0001:000130e0       _resetstkoflw              00000001800140e0 f   libucrt:resetstk.obj
 0001:0001320c       wcscat_s                   000000018001420c f   libucrt:wcscat_s.obj
 0001:0001328c       wcscpy_s                   000000018001428c f   libucrt:wcscpy_s.obj
 0001:000132f4       wcsncpy_s                  00000001800142f4 f   libucrt:wcsncpy_s.obj
 0001:000135ac       ??$ensure_buffer_is_big_enough@D@formatting_buffer@__crt_stdio_output@@QEAA_N_K@Z 00000001800145ac f i libucrt:output.obj
 0001:00013654       ??$ensure_buffer_is_big_enough@_W@formatting_buffer@__crt_stdio_output@@QEAA_N_K@Z 0000000180014654 f i libucrt:output.obj
 0001:00013700       ??$is_wide_character_specifier@_W@__crt_stdio_output@@YA_N_K_WW4length_modifier@0@@Z 0000000180014700 f i libucrt:output.obj
 0001:00013740       ??$type_case_integer_parse_into_buffer@I@?$output_processor@_WV?$string_output_adapter@_W@__crt_stdio_output@@V?$format_validation_base@_WV?$string_output_adapter@_W@__crt_stdio_output@@@2@@__crt_stdio_output@@AEAAXII_N@Z 0000000180014740 f i libucrt:output.obj
 0001:000137e4       ??$type_case_integer_parse_into_buffer@_K@?$output_processor@_WV?$string_output_adapter@_W@__crt_stdio_output@@V?$format_validation_base@_WV?$string_output_adapter@_W@__crt_stdio_output@@@2@@__crt_stdio_output@@AEAAX_KI_N@Z 00000001800147e4 f i libucrt:output.obj
 0001:00013888       ??$write_multiple_characters@V?$string_output_adapter@_W@__crt_stdio_output@@D@__crt_stdio_output@@YAXAEBV?$string_output_adapter@_W@0@DHQEAH@Z 0000000180014888 f i libucrt:output.obj
 0001:00013900       ??0_LocaleUpdate@@QEAA@QEAU__crt_locale_pointers@@@Z 0000000180014900 f i libucrt:output.obj
 0001:000139a0       ?crop_zeroes@__crt_stdio_output@@YAXPEADQEAU__crt_locale_pointers@@@Z 00000001800149a0 f i libucrt:output.obj
 0001:00013a40       ?force_decimal_point@__crt_stdio_output@@YAXPEADQEAU__crt_locale_pointers@@@Z 0000000180014a40 f i libucrt:output.obj
 0001:00013ab8       ?parse_int_from_format_string@?$output_processor@_WV?$string_output_adapter@_W@__crt_stdio_output@@V?$format_validation_base@_WV?$string_output_adapter@_W@__crt_stdio_output@@@2@@__crt_stdio_output@@AEAA_NQEAH@Z 0000000180014ab8 f i libucrt:output.obj
 0001:00013b5c       ?process@?$output_processor@_WV?$string_output_adapter@_W@__crt_stdio_output@@V?$format_validation_base@_WV?$string_output_adapter@_W@__crt_stdio_output@@@2@@__crt_stdio_output@@QEAAHXZ 0000000180014b5c f i libucrt:output.obj
 0001:00013dd4       ?state_case_size@?$output_processor@_WV?$string_output_adapter@_W@__crt_stdio_output@@V?$format_validation_base@_WV?$string_output_adapter@_W@__crt_stdio_output@@@2@@__crt_stdio_output@@AEAA_NXZ 0000000180014dd4 f i libucrt:output.obj
 0001:00013f68       ?state_case_type@?$output_processor@_WV?$string_output_adapter@_W@__crt_stdio_output@@V?$format_validation_base@_WV?$string_output_adapter@_W@__crt_stdio_output@@@2@@__crt_stdio_output@@AEAA_NXZ 0000000180014f68 f i libucrt:output.obj
 0001:00014240       ?to_integer_size@__crt_stdio_output@@YA_KW4length_modifier@1@@Z 0000000180015240 f i libucrt:output.obj
 0001:000142a8       ?type_case_Z@?$output_processor@_WV?$string_output_adapter@_W@__crt_stdio_output@@V?$format_validation_base@_WV?$string_output_adapter@_W@__crt_stdio_output@@@2@@__crt_stdio_output@@AEAA_NXZ 00000001800152a8 f i libucrt:output.obj
 0001:00014324       ?type_case_a@?$output_processor@_WV?$string_output_adapter@_W@__crt_stdio_output@@V?$format_validation_base@_WV?$string_output_adapter@_W@__crt_stdio_output@@@2@@__crt_stdio_output@@AEAA_NXZ 0000000180015324 f i libucrt:output.obj
 0001:00014504       ?type_case_c_tchar@?$output_processor@_WV?$string_output_adapter@_W@__crt_stdio_output@@V?$format_validation_base@_WV?$string_output_adapter@_W@__crt_stdio_output@@@2@@__crt_stdio_output@@AEAA_N_W@Z 0000000180015504 f i libucrt:output.obj
 0001:000145ac       ?type_case_integer@?$output_processor@_WV?$string_output_adapter@_W@__crt_stdio_output@@V?$format_validation_base@_WV?$string_output_adapter@_W@__crt_stdio_output@@@2@@__crt_stdio_output@@AEAA_NI_N@Z 00000001800155ac f i libucrt:output.obj
 0001:00014734       ?type_case_n@?$output_processor@_WV?$string_output_adapter@_W@__crt_stdio_output@@V?$format_validation_base@_WV?$string_output_adapter@_W@__crt_stdio_output@@@2@@__crt_stdio_output@@AEAA_NXZ 0000000180015734 f i libucrt:output.obj
 0001:000147bc       ?type_case_s@?$output_processor@_WV?$string_output_adapter@_W@__crt_stdio_output@@V?$format_validation_base@_WV?$string_output_adapter@_W@__crt_stdio_output@@@2@@__crt_stdio_output@@AEAA_NXZ 00000001800157bc f i libucrt:output.obj
 0001:00014884       ?write_stored_string_tchar@?$output_processor@_WV?$string_output_adapter@_W@__crt_stdio_output@@V?$format_validation_base@_WV?$string_output_adapter@_W@__crt_stdio_output@@@2@@__crt_stdio_output@@AEAA_N_W@Z 0000000180015884 f i libucrt:output.obj
 0001:0001496c       ?write_string@?$string_output_adapter@_W@__crt_stdio_output@@QEBAXQEB_WHQEAHAEAV__crt_deferred_errno_cache@@@Z 000000018001596c f i libucrt:output.obj
 0001:00014a14       __stdio_common_vswprintf_s 0000000180015a14 f   libucrt:output.obj
 0001:00014a84       _seh_filter_dll            0000000180015a84 f   libucrt:exception_filter.obj
 0001:00014a98       _seh_filter_exe            0000000180015a98 f   libucrt:exception_filter.obj
 0001:00014e88       __acrt_initialize_thread_local_exit_callback 0000000180015e88 f   libucrt:exit.obj
 0001:00014e90       _cexit                     0000000180015e90 f   libucrt:exit.obj
 0001:00014ea0       _exit                      0000000180015ea0 f   libucrt:exit.obj
 0001:00014eac       _is_c_termination_complete 0000000180015eac f   libucrt:exit.obj
 0001:00015074       __acrt_allocate_buffer_for_argv 0000000180016074 f   libucrt:argv_parsing.obj
 0001:000150d4       _configure_narrow_argv     00000001800160d4 f   libucrt:argv_parsing.obj
 0001:0001544c       __dcrt_uninitialize_environments_nolock 000000018001644c f   libucrt:environment_initialization.obj
 0001:00015484       _initialize_narrow_environment 0000000180016484 f   libucrt:environment_initialization.obj
 0001:000157cc       _crt_atexit                00000001800167cc f   libucrt:onexit.obj
 0001:000157dc       _execute_onexit_table      00000001800167dc f   libucrt:onexit.obj
 0001:00015818       _initialize_onexit_table   0000000180016818 f   libucrt:onexit.obj
 0001:00015840       _register_onexit_function  0000000180016840 f   libucrt:onexit.obj
 0001:000158c0       __acrt_uninitialize_command_line 00000001800168c0 f   libucrt:argv_data.obj
 0001:000159b8       __acrt_initialize          00000001800169b8 f   libucrt:initialization.obj
 0001:000159cc       __acrt_thread_attach       00000001800169cc f   libucrt:initialization.obj
 0001:000159e0       __acrt_thread_detach       00000001800169e0 f   libucrt:initialization.obj
 0001:000159f0       __acrt_uninitialize        00000001800169f0 f   libucrt:initialization.obj
 0001:00015a28       __acrt_uninitialize_critical 0000000180016a28 f   libucrt:initialization.obj
 0001:00015a38       _initterm                  0000000180016a38 f   libucrt:initterm.obj
 0001:00015a9c       _initterm_e                0000000180016a9c f   libucrt:initterm.obj
 0001:00015adc       __acrt_initialize_new_handler 0000000180016adc f   libucrt:new_handler.obj
 0001:00015ae4       _callnewh                  0000000180016ae4 f   libucrt:new_handler.obj
 0001:00015b14       _query_new_handler         0000000180016b14 f   libucrt:new_handler.obj
 0001:00015b48       terminate                  0000000180016b48 f   libucrt:terminate.obj
 0001:00015b68       abort                      0000000180016b68 f   libucrt:abort.obj
 0001:00015bc0       strcpy_s                   0000000180016bc0 f   libucrt:strcpy_s.obj
 0001:00015c20       ??$parse_integer@KV?$c_string_character_source@_W@__crt_strtox@@@__crt_strtox@@YAKQEAU__crt_locale_pointers@@V?$c_string_character_source@_W@0@H_N@Z 0000000180016c20 f i libucrt:atox.obj
 0001:000162e0       strncmp                    00000001800172e0 f   libucrt:strncmp.obj
 0001:00016360       wcsncmp                    0000000180017360 f   libucrt:wcsncmp.obj
 0001:0001638c       _free_base                 000000018001738c f   libucrt:free_base.obj
 0001:00016744       __acrt_freeptd             0000000180017744 f   libucrt:per_thread_data.obj
 0001:00016788       __acrt_getptd              0000000180017788 f   libucrt:per_thread_data.obj
 0001:0001685c       __acrt_getptd_head         000000018001785c f   libucrt:per_thread_data.obj
 0001:00016904       __acrt_getptd_noexit       0000000180017904 f   libucrt:per_thread_data.obj
 0001:000169d0       __acrt_initialize_ptd      00000001800179d0 f   libucrt:per_thread_data.obj
 0001:00016a0c       __acrt_uninitialize_ptd    0000000180017a0c f   libucrt:per_thread_data.obj
 0001:00016a30       _calloc_base               0000000180017a30 f   libucrt:calloc_base.obj
 0001:00016aa8       _malloc_base               0000000180017aa8 f   libucrt:malloc_base.obj
 0001:00016b08       _msize_base                0000000180017b08 f   libucrt:msize.obj
 0001:00016b44       _realloc_base              0000000180017b44 f   libucrt:realloc_base.obj
 0001:00016d98       __acrt_AppPolicyGetProcessTerminationMethodInternal 0000000180017d98 f   libucrt:winapi_thunks.obj
 0001:00016de8       __acrt_AreFileApisANSI     0000000180017de8 f   libucrt:winapi_thunks.obj
 0001:00016e24       __acrt_FlsAlloc            0000000180017e24 f   libucrt:winapi_thunks.obj
 0001:00016e6c       __acrt_FlsFree             0000000180017e6c f   libucrt:winapi_thunks.obj
 0001:00016eb4       __acrt_FlsGetValue         0000000180017eb4 f   libucrt:winapi_thunks.obj
 0001:00016efc       __acrt_FlsSetValue         0000000180017efc f   libucrt:winapi_thunks.obj
 0001:00016f50       __acrt_InitializeCriticalSectionEx 0000000180017f50 f   libucrt:winapi_thunks.obj
 0001:00016fb4       __acrt_LCMapStringEx       0000000180017fb4 f   libucrt:winapi_thunks.obj
 0001:00017090       __acrt_LocaleNameToLCID    0000000180018090 f   libucrt:winapi_thunks.obj
 0001:000170e0       __acrt_SetThreadStackGuarantee 00000001800180e0 f   libucrt:winapi_thunks.obj
 0001:00017124       __acrt_initialize_winapi_thunks 0000000180018124 f   libucrt:winapi_thunks.obj
 0001:00017158       __acrt_uninitialize_winapi_thunks 0000000180018158 f   libucrt:winapi_thunks.obj
 0001:0001719c       wcstol                     000000018001819c f   libucrt:strtox.obj
 0001:000171c8       _mbtowc_l                  00000001800181c8 f   libucrt:mbtowc.obj
 0001:00017348       mbtowc                     0000000180018348 f   libucrt:mbtowc.obj
 0001:00017350       wcsnlen                    0000000180018350 f   libucrt:strnlen.obj
 0001:00017528       __acrt_update_locale_info  0000000180018528 f   libucrt:locale_update.obj
 0001:0001755c       __acrt_update_multibyte_info 000000018001855c f   libucrt:locale_update.obj
 0001:00017f94       __acrt_fp_format           0000000180018f94 f   libucrt:cvt.obj
 0001:000182cc       _fileno                    00000001800192cc f   libucrt:fileno.obj
 0001:000182f4       __acrt_initialize_stdio    00000001800192f4 f   libucrt:_file.obj
 0001:00018414       __acrt_uninitialize_stdio  0000000180019414 f   libucrt:_file.obj
 0001:00018470       _lock_file                 0000000180019470 f   libucrt:_file.obj
 0001:0001847c       _unlock_file               000000018001947c f   libucrt:_file.obj
 0001:00018488       _get_printf_count_output   0000000180019488 f   libucrt:printf_count_output.obj
 0001:00018510       __acrt_set_locale_changed  0000000180019510 f   libucrt:wsetlocale.obj
 0001:0001851c       __acrt_uninitialize_locale 000000018001951c f   libucrt:wsetlocale.obj
 0001:00018748       __acrt_initialize_lowio    0000000180019748 f   libucrt:ioinit.obj
 0001:00018784       __acrt_uninitialize_lowio  0000000180019784 f   libucrt:ioinit.obj
 0001:000187c4       __acrt_initialize_locks    00000001800197c4 f   libucrt:locks.obj
 0001:0001880c       __acrt_lock                000000018001980c f   libucrt:locks.obj
 0001:00018828       __acrt_uninitialize_locks  0000000180019828 f   libucrt:locks.obj
 0001:00018860       __acrt_unlock              0000000180019860 f   libucrt:locks.obj
 0001:0001887c       __acrt_get_process_end_policy 000000018001987c f   libucrt:win_policies.obj
 0001:000188cc       ??$__acrt_mbs_to_wcs_cp@U__crt_win32_buffer_internal_dynamic_resizing@@@@YAHQEBDAEAV?$__crt_win32_buffer@_WU__crt_win32_buffer_internal_dynamic_resizing@@@@I@Z 00000001800198cc f i libucrt:argv_wildcards.obj
 0001:00018a44       ??$__acrt_wcs_to_mbs_cp@U__crt_win32_buffer_internal_dynamic_resizing@@@@YAHQEB_WAEAV?$__crt_win32_buffer@DU__crt_win32_buffer_internal_dynamic_resizing@@@@I@Z 0000000180019a44 f i libucrt:argv_wildcards.obj
 0001:00019274       __acrt_expand_narrow_argv_wildcards 000000018001a274 f   libucrt:argv_wildcards.obj
 0001:0001927c       ??$__acrt_wcs_to_mbs_cp@U__crt_win32_buffer_no_resizing@@@@YAHQEB_WAEAV?$__crt_win32_buffer@DU__crt_win32_buffer_no_resizing@@@@I@Z 000000018001a27c f i libucrt:getmodulefilenamea.obj
 0001:00019390       __acrt_GetModuleFileNameA  000000018001a390 f   libucrt:getmodulefilenamea.obj
 0001:00019bd8       __acrt_initialize_multibyte 000000018001abd8 f   libucrt:mbctype.obj
 0001:00019c38       __acrt_update_thread_multibyte_data 000000018001ac38 f   libucrt:mbctype.obj
 0001:00019c54       _setmbcp_nolock            000000018001ac54 f   libucrt:mbctype.obj
 0001:00019f88       _ismbblead                 000000018001af88 f   libucrt:ismbbyte.obj
 0001:00019f9c       __acrt_initialize_command_line 000000018001af9c f   libucrt:argv_data.obj
 0001:00019fc4       __acrt_MultiByteToWideChar 000000018001afc4 f   libucrt:multibytetowidechar.obj
 0001:0001a020       __acrt_WideCharToMultiByte 000000018001b020 f   libucrt:widechartomultibyte.obj
 0001:0001a0d0       __dcrt_get_narrow_environment_from_os 000000018001b0d0 f   libucrt:get_environment_from_os.obj
 0001:0001a1d4       __acrt_initialize_heap     000000018001b1d4 f   libucrt:heap_handle.obj
 0001:0001a1f0       __acrt_uninitialize_heap   000000018001b1f0 f   libucrt:heap_handle.obj
 0001:0001a1fc       __acrt_execute_initializers 000000018001b1fc f   libucrt:shared_initialization.obj
 0001:0001a27c       __acrt_execute_uninitializers 000000018001b27c f   libucrt:shared_initialization.obj
 0001:0001a300       __acrt_get_sigabrt_handler 000000018001b300 f   libucrt:signal.obj
 0001:0001a330       __acrt_initialize_signal_handlers 000000018001b330 f   libucrt:signal.obj
 0001:0001a350       raise                      000000018001b350 f   libucrt:signal.obj
 0001:0001a5bc       __acrt_has_user_matherr    000000018001b5bc f   libucrt:matherr.obj
 0001:0001a5dc       __acrt_initialize_user_matherr 000000018001b5dc f   libucrt:matherr.obj
 0001:0001a5e4       __acrt_invoke_user_matherr 000000018001b5e4 f   libucrt:matherr.obj
 0001:0001a7f0       __acrt_stdio_flush_nolock  000000018001b7f0 f   libucrt:fflush.obj
 0001:0001a86c       _fflush_nolock             000000018001b86c f   libucrt:fflush.obj
 0001:0001a8b8       _flushall                  000000018001b8b8 f   libucrt:fflush.obj
 0001:0001a8c0       __pctype_func              000000018001b8c0 f   libucrt:ctype.obj
 0001:0001a8f0       iswctype                   000000018001b8f0 f   libucrt:iswctype.obj
 0001:0001a95c       __acrt_add_locale_ref      000000018001b95c f   libucrt:locale_refcounting.obj
 0001:0001a9e8       __acrt_free_locale         000000018001b9e8 f   libucrt:locale_refcounting.obj
 0001:0001ab60       __acrt_locale_add_lc_time_reference 000000018001bb60 f   libucrt:locale_refcounting.obj
 0001:0001ab88       __acrt_locale_free_lc_time_if_unreferenced 000000018001bb88 f   libucrt:locale_refcounting.obj
 0001:0001abc0       __acrt_locale_release_lc_time_reference 000000018001bbc0 f   libucrt:locale_refcounting.obj
 0001:0001abe8       __acrt_release_locale_ref  000000018001bbe8 f   libucrt:locale_refcounting.obj
 0001:0001ac90       __acrt_update_thread_locale_data 000000018001bc90 f   libucrt:locale_refcounting.obj
 0001:0001ad00       _updatetlocinfoEx_nolock   000000018001bd00 f   libucrt:locale_refcounting.obj
 0001:0001ad68       _query_new_mode            000000018001bd68 f   libucrt:new_mode.obj
 0001:0001ad70       __acrt_DownlevelLocaleNameToLCID 000000018001bd70 f   libucrt:lcidtoname_downlevel.obj
 0001:0001ae20       _isleadbyte_l              000000018001be20 f i libucrt:_wctype.obj
 0001:0001ae6c       ?__mbrtowc_utf8@__crt_mbstring@@YA_KPEA_WPEBD_KPEAU_Mbstatet@@@Z 000000018001be6c f   libucrt:mbrtowc.obj
 0001:0001aea8       ?__mbsrtowcs_utf8@__crt_mbstring@@YA_KPEA_WPEAPEBD_KPEAU_Mbstatet@@@Z 000000018001bea8 f   libucrt:mbrtowc.obj
 0001:0001b020       __acrt_fp_strflt_to_string 000000018001c020 f   libucrt:_fptostr.obj
 0001:0001b170       ?divide@__crt_strtox@@YA_KAEAUbig_integer@1@AEBU21@@Z 000000018001c170 f i libucrt:cfout.obj
 0001:0001b59c       __acrt_fltout              000000018001c59c f   libucrt:cfout.obj
 0001:0001c868       fegetround                 000000018001d868 f   libucrt:fegetround.obj
 0001:0001c87c       _fcloseall                 000000018001d87c f   libucrt:closeall.obj
 0001:0001c930       __acrt_stdio_free_buffer_nolock 000000018001d930 f   libucrt:_freebuf.obj
 0001:0001c970       _isatty                    000000018001d970 f   libucrt:isatty.obj
 0001:0001c9d0       __acrt_locale_free_monetary 000000018001d9d0 f   libucrt:initmon.obj
 0001:0001cadc       __acrt_locale_free_numeric 000000018001dadc f   libucrt:initnum.obj
 0001:0001cba0       __acrt_locale_free_time    000000018001dba0 f   libucrt:inittime.obj
 0001:0001cca8       __acrt_GetStringTypeA      000000018001dca8 f   libucrt:getstringtypea.obj
 0001:0001ce38       __acrt_lowio_create_handle_array 000000018001de38 f   libucrt:osfinfo.obj
 0001:0001cee0       __acrt_lowio_destroy_handle_array 000000018001dee0 f   libucrt:osfinfo.obj
 0001:0001cf30       __acrt_lowio_ensure_fh_exists 000000018001df30 f   libucrt:osfinfo.obj
 0001:0001cfd8       __acrt_lowio_lock_fh       000000018001dfd8 f   libucrt:osfinfo.obj
 0001:0001d000       __acrt_lowio_unlock_fh     000000018001e000 f   libucrt:osfinfo.obj
 0001:0001d028       _free_osfhnd               000000018001e028 f   libucrt:osfinfo.obj
 0001:0001d0e4       _get_osfhandle             000000018001e0e4 f   libucrt:osfinfo.obj
 0001:0001d160       qsort                      000000018001e160 f   libucrt:qsort.obj
 0001:0001d500       strncpy_s                  000000018001e500 f   libucrt:strncpy_s.obj
 0001:0001d680       strpbrk                    000000018001e680 f   libucrt:strpbrk.obj
 0001:0001da48       _mbsdec                    000000018001ea48 f   libucrt:mbsdec.obj
 0001:0001da50       _mbsdec_l                  000000018001ea50 f   libucrt:mbsdec.obj
 0001:0001ddfc       __acrt_LCMapStringA        000000018001edfc f   libucrt:lcmapstringa.obj
 0001:0001df38       _commit                    000000018001ef38 f   libucrt:commit.obj
 0001:0001e848       _write                     000000018001f848 f   libucrt:write.obj
 0001:0001e934       _write_nolock              000000018001f934 f   libucrt:write.obj
 0001:0001ec18       __acrt_GetStringTypeW      000000018001fc18 f   libucrt:getstringtypew.obj
 0001:0001ec20       __ascii_wcsnicmp           000000018001fc20 f   libucrt:wcsnicmp.obj
 0001:0001ec6c       ?__mbrtoc32_utf8@__crt_mbstring@@YA_KPEA_UPEBD_KPEAU_Mbstatet@@@Z 000000018001fc6c f   libucrt:mbrtoc32.obj
 0001:0001ee44       _controlfp_s               000000018001fe44 f   libucrt:contrlfp.obj
 0001:0001eea8       fegetenv                   000000018001fea8 f   libucrt:fegetenv.obj
 0001:0001eec8       fesetenv                   000000018001fec8 f   libucrt:fesetenv.obj
 0001:0001ef14       feholdexcept               000000018001ff14 f   libucrt:feholdexcept.obj
 0001:0001ef64       ceil                       000000018001ff64 f   libucrt:ceil.obj
 0001:0001f030       log10                      0000000180020030 f   libucrt:log10.obj
 0001:0001f5dc       __acrt_fenv_get_common_round_control 00000001800205dc f   libucrt:_fenvutils.obj
 0001:0001f5e8       __acrt_fenv_get_control    00000001800205e8 f   libucrt:_fenvutils.obj
 0001:0001f6dc       __acrt_fenv_get_status     00000001800206dc f   libucrt:_fenvutils.obj
 0001:0001f730       __acrt_fenv_set_control    0000000180020730 f   libucrt:_fenvutils.obj
 0001:0001f878       __acrt_fenv_set_status     0000000180020878 f   libucrt:_fenvutils.obj
 0001:0001f998       _lseeki64_nolock           0000000180020998 f   libucrt:lseek.obj
 0001:0001f9a0       _fclose_nolock             00000001800209a0 f   libucrt:fclose.obj
 0001:0001fa24       fclose                     0000000180020a24 f   libucrt:fclose.obj
 0001:0001fa88       _query_app_type            0000000180020a88 f   libucrt:report_runtime_error.obj
 0001:0001fa90       __strncnt                  0000000180020a90 f   libucrt:strncnt.obj
 0001:0001faa8       _putwch_nolock             0000000180020aa8 f   libucrt:putwch.obj
 0001:0001fae4       _clearfp                   0000000180020ae4 f   libucrt:ieee.obj
 0001:0001fb54       _control87                 0000000180020b54 f   libucrt:ieee.obj
 0001:0001ff40       _handle_error              0000000180020f40 f   libucrt:libm_error.obj
 0001:00020068       _handle_nan                0000000180021068 f   libucrt:libm_error.obj
 0001:00020090       __acrt_initialize_fma3     0000000180021090 f   libucrt:fma3_available.obj
 0001:00020100       _log10_special             0000000180021100 f   libucrt:log_special.obj
 0001:0002022c       _close                     000000018002122c f   libucrt:close.obj
 0001:000202d0       _close_nolock              00000001800212d0 f   libucrt:close.obj
 0001:00020390       ?__acrt_stdio_free_stream@@YAXV__crt_stdio_stream@@@Z 0000000180021390 f   libucrt:stream.obj
 0001:000203ac       __dcrt_lowio_ensure_console_output_initialized 00000001800213ac f   libucrt:initcon.obj
 0001:00020400       __dcrt_terminate_console_output 0000000180021400 f   libucrt:initcon.obj
 0001:0002041c       __dcrt_write_console       000000018002141c f   libucrt:initcon.obj
 0001:000204f0       _get_fpsr                  00000001800214f0 f   libucrt:fpsr.obj
 0001:00020500       _set_fpsr                  0000000180021500 f   libucrt:fpsr.obj
 0001:0002050a       _fclrf                     000000018002150a f   libucrt:fpsr.obj
 0001:0002051e       _frnd                      000000018002151e f   libucrt:fpsr.obj
 0001:00020540       _raise_exc                 0000000180021540 f   libucrt:fpexcept.obj
 0001:00020568       _raise_exc_ex              0000000180021568 f   libucrt:fpexcept.obj
 0001:00020878       _set_errno_from_matherr    0000000180021878 f   libucrt:fpexcept.obj
 0001:000208a8       _clrfp                     00000001800218a8 f   libucrt:fpctrl.obj
 0001:000208c8       _ctrlfp                    00000001800218c8 f   libucrt:fpctrl.obj
 0001:00020944       _set_statfp                0000000180021944 f   libucrt:fpctrl.obj
 0001:00020964       _statfp                    0000000180021964 f   libucrt:fpctrl.obj
 0001:00020975       IsProcessorFeaturePresent  0000000180021975 f   kernel32:KERNEL32.dll
 0001:00020980       _FindPESection             0000000180021980 f   LIBCMT:pesect.obj
 0001:000209d0       _IsNonwritableInCurrentImage 00000001800219d0 f   LIBCMT:pesect.obj
 0001:00020a20       _ValidateImageBase         0000000180021a20 f   LIBCMT:pesect.obj
 0001:00020a50       strrchr                    0000000180021a50 f   libvcruntime:strrchr.obj
 0001:00020b90       _guard_dispatch_icall_nop  0000000180021b90 f   LIBCMT:guard_dispatch.obj
 0001:00020bb0       _guard_xfg_dispatch_icall_nop 0000000180021bb0 f   LIBCMT:guard_xfg_dispatch.obj
 0002:00000000       __imp_RegQueryValueExW     0000000180023000     advapi32:ADVAPI32.dll
 0002:00000008       __imp_RegSetValueExW       0000000180023008     advapi32:ADVAPI32.dll
 0002:00000010       __imp_RegQueryInfoKeyW     0000000180023010     advapi32:ADVAPI32.dll
 0002:00000018       __imp_RegOpenKeyExW        0000000180023018     advapi32:ADVAPI32.dll
 0002:00000020       __imp_RegEnumKeyExW        0000000180023020     advapi32:ADVAPI32.dll
 0002:00000028       __imp_RegDeleteValueW      0000000180023028     advapi32:ADVAPI32.dll
 0002:00000030       __imp_RegDeleteKeyW        0000000180023030     advapi32:ADVAPI32.dll
 0002:00000038       __imp_RegCreateKeyExW      0000000180023038     advapi32:ADVAPI32.dll
 0002:00000040       __imp_RegCloseKey          0000000180023040     advapi32:ADVAPI32.dll
 0002:00000048       \177ADVAPI32_NULL_THUNK_DATA 0000000180023048     advapi32:ADVAPI32.dll
 0002:00000050       __imp_GetObjectW           0000000180023050     gdi32:GDI32.dll
 0002:00000058       __imp_SelectObject         0000000180023058     gdi32:GDI32.dll
 0002:00000060       __imp_DeleteObject         0000000180023060     gdi32:GDI32.dll
 0002:00000068       __imp_CreateCompatibleDC   0000000180023068     gdi32:GDI32.dll
 0002:00000070       __imp_BitBlt               0000000180023070     gdi32:GDI32.dll
 0002:00000078       __imp_SetWindowOrgEx       0000000180023078     gdi32:GDI32.dll
 0002:00000080       __imp_SetWindowExtEx       0000000180023080     gdi32:GDI32.dll
 0002:00000088       __imp_SetViewportOrgEx     0000000180023088     gdi32:GDI32.dll
 0002:00000090       __imp_LPtoDP               0000000180023090     gdi32:GDI32.dll
 0002:00000098       __imp_SetMapMode           0000000180023098     gdi32:GDI32.dll
 0002:000000a0       __imp_SaveDC               00000001800230a0     gdi32:GDI32.dll
 0002:000000a8       __imp_RestoreDC            00000001800230a8     gdi32:GDI32.dll
 0002:000000b0       __imp_GetDeviceCaps        00000001800230b0     gdi32:GDI32.dll
 0002:000000b8       __imp_DeleteMetaFile       00000001800230b8     gdi32:GDI32.dll
 0002:000000c0       __imp_DeleteDC             00000001800230c0     gdi32:GDI32.dll
 0002:000000c8       __imp_CreateRectRgnIndirect 00000001800230c8     gdi32:GDI32.dll
 0002:000000d0       __imp_CreateMetaFileW      00000001800230d0     gdi32:GDI32.dll
 0002:000000d8       __imp_CreateDCW            00000001800230d8     gdi32:GDI32.dll
 0002:000000e0       __imp_CloseMetaFile        00000001800230e0     gdi32:GDI32.dll
 0002:000000e8       \177GDI32_NULL_THUNK_DATA  00000001800230e8     gdi32:GDI32.dll
 0002:000000f0       __imp_CloseHandle          00000001800230f0     kernel32:KERNEL32.dll
 0002:000000f8       __imp_SetEvent             00000001800230f8     kernel32:KERNEL32.dll
 0002:00000100       __imp_CreateMutexW         0000000180023100     kernel32:KERNEL32.dll
 0002:00000108       __imp_CreateEventW         0000000180023108     kernel32:KERNEL32.dll
 0002:00000110       __imp_GetCurrentProcessId  0000000180023110     kernel32:KERNEL32.dll
 0002:00000118       __imp_WriteConsoleW        0000000180023118     kernel32:KERNEL32.dll
 0002:00000120       __imp_CreateFileW          0000000180023120     kernel32:KERNEL32.dll
 0002:00000128       __imp_GetConsoleMode       0000000180023128     kernel32:KERNEL32.dll
 0002:00000130       __imp_GetConsoleOutputCP   0000000180023130     kernel32:KERNEL32.dll
 0002:00000138       __imp_WriteFile            0000000180023138     kernel32:KERNEL32.dll
 0002:00000140       __imp_FlushFileBuffers     0000000180023140     kernel32:KERNEL32.dll
 0002:00000148       __imp_SetStdHandle         0000000180023148     kernel32:KERNEL32.dll
 0002:00000150       __imp_GetStringTypeW       0000000180023150     kernel32:KERNEL32.dll
 0002:00000158       __imp_SetFilePointerEx     0000000180023158     kernel32:KERNEL32.dll
 0002:00000160       __imp_FreeEnvironmentStringsW 0000000180023160     kernel32:KERNEL32.dll
 0002:00000168       __imp_lstrcmpiW            0000000180023168     kernel32:KERNEL32.dll
 0002:00000170       __imp_GetCommandLineW      0000000180023170     kernel32:KERNEL32.dll
 0002:00000178       __imp_GetCommandLineA      0000000180023178     kernel32:KERNEL32.dll
 0002:00000180       __imp_GetCPInfo            0000000180023180     kernel32:KERNEL32.dll
 0002:00000188       __imp_GetOEMCP             0000000180023188     kernel32:KERNEL32.dll
 0002:00000190       __imp_GetACP               0000000180023190     kernel32:KERNEL32.dll
 0002:00000198       __imp_IsValidCodePage      0000000180023198     kernel32:KERNEL32.dll
 0002:000001a0       __imp_FindNextFileW        00000001800231a0     kernel32:KERNEL32.dll
 0002:000001a8       __imp_FindFirstFileExW     00000001800231a8     kernel32:KERNEL32.dll
 0002:000001b0       __imp_FindClose            00000001800231b0     kernel32:KERNEL32.dll
 0002:000001b8       __imp_GetFileType          00000001800231b8     kernel32:KERNEL32.dll
 0002:000001c0       __imp_GetStdHandle         00000001800231c0     kernel32:KERNEL32.dll
 0002:000001c8       __imp_LCMapStringW         00000001800231c8     kernel32:KERNEL32.dll
 0002:000001d0       __imp_HeapReAlloc          00000001800231d0     kernel32:KERNEL32.dll
 0002:000001d8       __imp_HeapSize             00000001800231d8     kernel32:KERNEL32.dll
 0002:000001e0       __imp_MulDiv               00000001800231e0     kernel32:KERNEL32.dll
 0002:000001e8       __imp_GlobalLock           00000001800231e8     kernel32:KERNEL32.dll
 0002:000001f0       __imp_GlobalUnlock         00000001800231f0     kernel32:KERNEL32.dll
 0002:000001f8       __imp_GlobalAlloc          00000001800231f8     kernel32:KERNEL32.dll
 0002:00000200       __imp_FindResourceW        0000000180023200     kernel32:KERNEL32.dll
 0002:00000208       __imp_SizeofResource       0000000180023208     kernel32:KERNEL32.dll
 0002:00000210       __imp_LoadResource         0000000180023210     kernel32:KERNEL32.dll
 0002:00000218       __imp_LoadLibraryExW       0000000180023218     kernel32:KERNEL32.dll
 0002:00000220       __imp_GetProcAddress       0000000180023220     kernel32:KERNEL32.dll
 0002:00000228       __imp_GetModuleHandleW     0000000180023228     kernel32:KERNEL32.dll
 0002:00000230       __imp_GetModuleFileNameW   0000000180023230     kernel32:KERNEL32.dll
 0002:00000238       __imp_FreeLibrary          0000000180023238     kernel32:KERNEL32.dll
 0002:00000240       __imp_DisableThreadLibraryCalls 0000000180023240     kernel32:KERNEL32.dll
 0002:00000248       __imp_GetCurrentThreadId   0000000180023248     kernel32:KERNEL32.dll
 0002:00000250       __imp_Sleep                0000000180023250     kernel32:KERNEL32.dll
 0002:00000258       __imp_WaitForSingleObject  0000000180023258     kernel32:KERNEL32.dll
 0002:00000260       __imp_ReleaseMutex         0000000180023260     kernel32:KERNEL32.dll
 0002:00000268       __imp_ResetEvent           0000000180023268     kernel32:KERNEL32.dll
 0002:00000270       __imp_EnterCriticalSection 0000000180023270     kernel32:KERNEL32.dll
 0002:00000278       __imp_LeaveCriticalSection 0000000180023278     kernel32:KERNEL32.dll
 0002:00000280       __imp_SetLastError         0000000180023280     kernel32:KERNEL32.dll
 0002:00000288       __imp_EncodePointer        0000000180023288     kernel32:KERNEL32.dll
 0002:00000290       __imp_DeleteCriticalSection 0000000180023290     kernel32:KERNEL32.dll
 0002:00000298       __imp_InitializeCriticalSectionEx 0000000180023298     kernel32:KERNEL32.dll
 0002:000002a0       __imp_GetLastError         00000001800232a0     kernel32:KERNEL32.dll
 0002:000002a8       __imp_RaiseException       00000001800232a8     kernel32:KERNEL32.dll
 0002:000002b0       __imp_DecodePointer        00000001800232b0     kernel32:KERNEL32.dll
 0002:000002b8       __imp_WideCharToMultiByte  00000001800232b8     kernel32:KERNEL32.dll
 0002:000002c0       __imp_GetEnvironmentStringsW 00000001800232c0     kernel32:KERNEL32.dll
 0002:000002c8       __imp_MultiByteToWideChar  00000001800232c8     kernel32:KERNEL32.dll
 0002:000002d0       __imp_GetModuleHandleExW   00000001800232d0     kernel32:KERNEL32.dll
 0002:000002d8       __imp_ExitProcess          00000001800232d8     kernel32:KERNEL32.dll
 0002:000002e0       __imp_VirtualQuery         00000001800232e0     kernel32:KERNEL32.dll
 0002:000002e8       __imp_VirtualProtect       00000001800232e8     kernel32:KERNEL32.dll
 0002:000002f0       __imp_GetSystemInfo        00000001800232f0     kernel32:KERNEL32.dll
 0002:000002f8       __imp_TlsFree              00000001800232f8     kernel32:KERNEL32.dll
 0002:00000300       __imp_TlsSetValue          0000000180023300     kernel32:KERNEL32.dll
 0002:00000308       __imp_TlsGetValue          0000000180023308     kernel32:KERNEL32.dll
 0002:00000310       __imp_TlsAlloc             0000000180023310     kernel32:KERNEL32.dll
 0002:00000318       __imp_RtlPcToFileHeader    0000000180023318     kernel32:KERNEL32.dll
 0002:00000320       __imp_InterlockedFlushSList 0000000180023320     kernel32:KERNEL32.dll
 0002:00000328       __imp_RtlUnwindEx          0000000180023328     kernel32:KERNEL32.dll
 0002:00000330       __imp_LoadLibraryExA       0000000180023330     kernel32:KERNEL32.dll
 0002:00000338       __imp_VirtualFree          0000000180023338     kernel32:KERNEL32.dll
 0002:00000340       __imp_VirtualAlloc         0000000180023340     kernel32:KERNEL32.dll
 0002:00000348       __imp_FlushInstructionCache 0000000180023348     kernel32:KERNEL32.dll
 0002:00000350       __imp_InterlockedPushEntrySList 0000000180023350     kernel32:KERNEL32.dll
 0002:00000358       __imp_InterlockedPopEntrySList 0000000180023358     kernel32:KERNEL32.dll
 0002:00000360       __imp_GetProcessHeap       0000000180023360     kernel32:KERNEL32.dll
 0002:00000368       __imp_HeapFree             0000000180023368     kernel32:KERNEL32.dll
 0002:00000370       __imp_HeapAlloc            0000000180023370     kernel32:KERNEL32.dll
 0002:00000378       __imp_OutputDebugStringW   0000000180023378     kernel32:KERNEL32.dll
 0002:00000380       __imp_InitializeSListHead  0000000180023380     kernel32:KERNEL32.dll
 0002:00000388       __imp_GetSystemTimeAsFileTime 0000000180023388     kernel32:KERNEL32.dll
 0002:00000390       __imp_QueryPerformanceCounter 0000000180023390     kernel32:KERNEL32.dll
 0002:00000398       __imp_GetStartupInfoW      0000000180023398     kernel32:KERNEL32.dll
 0002:000003a0       __imp_IsDebuggerPresent    00000001800233a0     kernel32:KERNEL32.dll
 0002:000003a8       __imp_IsProcessorFeaturePresent 00000001800233a8     kernel32:KERNEL32.dll
 0002:000003b0       __imp_TerminateProcess     00000001800233b0     kernel32:KERNEL32.dll
 0002:000003b8       __imp_GetCurrentProcess    00000001800233b8     kernel32:KERNEL32.dll
 0002:000003c0       __imp_InitializeCriticalSectionAndSpinCount 00000001800233c0     kernel32:KERNEL32.dll
 0002:000003c8       __imp_WaitForSingleObjectEx 00000001800233c8     kernel32:KERNEL32.dll
 0002:000003d0       __imp_RtlCaptureContext    00000001800233d0     kernel32:KERNEL32.dll
 0002:000003d8       __imp_RtlLookupFunctionEntry 00000001800233d8     kernel32:KERNEL32.dll
 0002:000003e0       __imp_RtlVirtualUnwind     00000001800233e0     kernel32:KERNEL32.dll
 0002:000003e8       __imp_UnhandledExceptionFilter 00000001800233e8     kernel32:KERNEL32.dll
 0002:000003f0       __imp_SetUnhandledExceptionFilter 00000001800233f0     kernel32:KERNEL32.dll
 0002:000003f8       \177KERNEL32_NULL_THUNK_DATA 00000001800233f8     kernel32:KERNEL32.dll
 0002:00000400       __imp_OleCreatePropertyFrame 0000000180023400     oleaut32:OLEAUT32.dll
 0002:00000408       __imp_UnRegisterTypeLib    0000000180023408     oleaut32:OLEAUT32.dll
 0002:00000410       __imp_RegisterTypeLib      0000000180023410     oleaut32:OLEAUT32.dll
 0002:00000418       __imp_LoadRegTypeLib       0000000180023418     oleaut32:OLEAUT32.dll
 0002:00000420       __imp_LoadTypeLib          0000000180023420     oleaut32:OLEAUT32.dll
 0002:00000428       __imp_VarUI4FromStr        0000000180023428     oleaut32:OLEAUT32.dll
 0002:00000430       __imp_VariantInit          0000000180023430     oleaut32:OLEAUT32.dll
 0002:00000438       __imp_SysAllocStringByteLen 0000000180023438     oleaut32:OLEAUT32.dll
 0002:00000440       __imp_SysStringByteLen     0000000180023440     oleaut32:OLEAUT32.dll
 0002:00000448       __imp_VariantChangeType    0000000180023448     oleaut32:OLEAUT32.dll
 0002:00000450       __imp_VariantClear         0000000180023450     oleaut32:OLEAUT32.dll
 0002:00000458       __imp_SysStringLen         0000000180023458     oleaut32:OLEAUT32.dll
 0002:00000460       __imp_SysFreeString        0000000180023460     oleaut32:OLEAUT32.dll
 0002:00000468       __imp_SysAllocStringLen    0000000180023468     oleaut32:OLEAUT32.dll
 0002:00000470       __imp_SysAllocString       0000000180023470     oleaut32:OLEAUT32.dll
 0002:00000478       \177OLEAUT32_NULL_THUNK_DATA 0000000180023478     oleaut32:OLEAUT32.dll
 0002:00000480       __imp_UnregisterClassW     0000000180023480     user32:USER32.dll
 0002:00000488       __imp_PostMessageW         0000000180023488     user32:USER32.dll
 0002:00000490       __imp_DefWindowProcW       0000000180023490     user32:USER32.dll
 0002:00000498       __imp_CallWindowProcW      0000000180023498     user32:USER32.dll
 0002:000004a0       __imp_RegisterClassExW     00000001800234a0     user32:USER32.dll
 0002:000004a8       __imp_GetClassInfoExW      00000001800234a8     user32:USER32.dll
 0002:000004b0       __imp_CreateWindowExW      00000001800234b0     user32:USER32.dll
 0002:000004b8       __imp_IsWindow             00000001800234b8     user32:USER32.dll
 0002:000004c0       __imp_IsChild              00000001800234c0     user32:USER32.dll
 0002:000004c8       __imp_DestroyWindow        00000001800234c8     user32:USER32.dll
 0002:000004d0       __imp_ShowWindow           00000001800234d0     user32:USER32.dll
 0002:000004d8       __imp_SetWindowPos         00000001800234d8     user32:USER32.dll
 0002:000004e0       __imp_CharNextW            00000001800234e0     user32:USER32.dll
 0002:000004e8       __imp_SetFocus             00000001800234e8     user32:USER32.dll
 0002:000004f0       __imp_LoadBitmapW          00000001800234f0     user32:USER32.dll
 0002:000004f8       __imp_RegisterClassW       00000001800234f8     user32:USER32.dll
 0002:00000500       __imp_PeekMessageW         0000000180023500     user32:USER32.dll
 0002:00000508       __imp_LoadCursorW          0000000180023508     user32:USER32.dll
 0002:00000510       __imp_GetParent            0000000180023510     user32:USER32.dll
 0002:00000518       __imp_SetWindowLongPtrW    0000000180023518     user32:USER32.dll
 0002:00000520       __imp_GetWindowLongPtrW    0000000180023520     user32:USER32.dll
 0002:00000528       __imp_PtInRect             0000000180023528     user32:USER32.dll
 0002:00000530       __imp_EqualRect            0000000180023530     user32:USER32.dll
 0002:00000538       __imp_OffsetRect           0000000180023538     user32:USER32.dll
 0002:00000540       __imp_UnionRect            0000000180023540     user32:USER32.dll
 0002:00000548       __imp_IntersectRect        0000000180023548     user32:USER32.dll
 0002:00000550       __imp_GetClientRect        0000000180023550     user32:USER32.dll
 0002:00000558       __imp_InvalidateRect       0000000180023558     user32:USER32.dll
 0002:00000560       __imp_SetWindowRgn         0000000180023560     user32:USER32.dll
 0002:00000568       __imp_EndPaint             0000000180023568     user32:USER32.dll
 0002:00000570       __imp_BeginPaint           0000000180023570     user32:USER32.dll
 0002:00000578       __imp_ReleaseDC            0000000180023578     user32:USER32.dll
 0002:00000580       __imp_GetDC                0000000180023580     user32:USER32.dll
 0002:00000588       __imp_GetKeyState          0000000180023588     user32:USER32.dll
 0002:00000590       __imp_GetFocus             0000000180023590     user32:USER32.dll
 0002:00000598       \177USER32_NULL_THUNK_DATA 0000000180023598     user32:USER32.dll
 0002:000005a0       __imp_CoCreateInstance     00000001800235a0     ole32:ole32.dll
 0002:000005a8       __imp_StringFromGUID2      00000001800235a8     ole32:ole32.dll
 0002:000005b0       __imp_CoTaskMemAlloc       00000001800235b0     ole32:ole32.dll
 0002:000005b8       __imp_CoTaskMemFree        00000001800235b8     ole32:ole32.dll
 0002:000005c0       __imp_ReadClassStm         00000001800235c0     ole32:ole32.dll
 0002:000005c8       __imp_WriteClassStm        00000001800235c8     ole32:ole32.dll
 0002:000005d0       __imp_CreateDataAdviseHolder 00000001800235d0     ole32:ole32.dll
 0002:000005d8       __imp_OleSaveToStream      00000001800235d8     ole32:ole32.dll
 0002:000005e0       __imp_CreateOleAdviseHolder 00000001800235e0     ole32:ole32.dll
 0002:000005e8       __imp_OleRegGetUserType    00000001800235e8     ole32:ole32.dll
 0002:000005f0       __imp_OleRegGetMiscStatus  00000001800235f0     ole32:ole32.dll
 0002:000005f8       __imp_OleRegEnumVerbs      00000001800235f8     ole32:ole32.dll
 0002:00000600       __imp_CLSIDFromProgID      0000000180023600     ole32:ole32.dll
 0002:00000608       __imp_CoTaskMemRealloc     0000000180023608     ole32:ole32.dll
 0002:00000610       \177ole32_NULL_THUNK_DATA  0000000180023610     ole32:ole32.dll
 0002:00000618       __guard_check_icall_fptr   0000000180023618     LIBCMT:guard_support.obj
 0002:00000620       __guard_xfg_check_icall_fptr 0000000180023620     LIBCMT:guard_support.obj
 0002:00000628       __guard_dispatch_icall_fptr 0000000180023628     LIBCMT:guard_support.obj
 0002:00000630       __guard_xfg_dispatch_icall_fptr 0000000180023630     LIBCMT:guard_support.obj
 0002:00000638       __guard_xfg_table_dispatch_icall_fptr 0000000180023638     LIBCMT:guard_support.obj
 0002:00000640       __xc_a                     0000000180023640     LIBCMT:initializers.obj
 0002:00000670       __xc_z                     0000000180023670     LIBCMT:initializers.obj
 0002:00000678       __xi_a                     0000000180023678     LIBCMT:initializers.obj
 0002:00000688       __acrt_stdio_initializer   0000000180023688     libucrt:stdio_initializer.obj
 0002:00000690       __acrt_multibyte_initializer 0000000180023690     libucrt:multibyte_initializer.obj
 0002:00000698       __acrt_tran_fma3_initializer 0000000180023698     libucrt:fma3_initializer.obj
 0002:000006a0       __xi_z                     00000001800236a0     LIBCMT:initializers.obj
 0002:000006a8       __xl_a                     00000001800236a8     LIBCMT:tlssup.obj
 0002:000006b0       __xl_z                     00000001800236b0     LIBCMT:tlssup.obj
 0002:000006b8       __xp_a                     00000001800236b8     LIBCMT:initializers.obj
 0002:000006c0       __acrt_locale_terminator   00000001800236c0     libucrt:locale_initializer.obj
 0002:000006c8       __dcrt_console_output_terminator 00000001800236c8     libucrt:console_output_initializer.obj
 0002:000006d0       __acrt_stdio_terminator    00000001800236d0     libucrt:stdio_initializer.obj
 0002:000006d8       __xp_z                     00000001800236d8     LIBCMT:initializers.obj
 0002:000006e0       __xt_a                     00000001800236e0     LIBCMT:initializers.obj
 0002:000006e8       __xt_z                     00000001800236e8     LIBCMT:initializers.obj
 0002:000006f0       ??_C@_13HADIAKP@?$AAS@     00000001800236f0     OposVariant.obj
 0002:000006f4       ??_C@_13LHMFKAAD@?$AAM@    00000001800236f4     OposVariant.obj
 0002:000006f8       ??_C@_13MKMNOPIJ@?$AAD@    00000001800236f8     OposVariant.obj
 0002:000006fc       ??_C@_13OPKGLAFF@?$AAB@    00000001800236fc     OposVariant.obj
 0002:00000700       ??_C@_17LLMMEOJD@?$AAV?$AAa?$AAl@ 0000000180023700     OposVariant.obj
 0002:00000708       ??_C@_1BI@JFAIJMHL@?$AAF?$AAo?$AAr?$AAc?$AAe?$AAR?$AAe?$AAm?$AAo?$AAv?$AAe@ 0000000180023708     OposVariant.obj
 0002:00000720       ??_C@_1BC@GCKHIPE@?$AAN?$AAo?$AAR?$AAe?$AAm?$AAo?$AAv?$AAe@ 0000000180023720     OposVariant.obj
 0002:00000738       ??_C@_1O@JDLOHAN@?$AAD?$AAe?$AAl?$AAe?$AAt?$AAe@ 0000000180023738     OposVariant.obj
 0002:00000748       ??_C@_11LOCGONAA@@         0000000180023748     OposVariant.obj
 0002:00000750       IID_IOPOSMotionSensor_1_7  0000000180023750     MotionSensor.obj
 0002:00000760       IID_IOPOSMotionSensor_1_8  0000000180023760     MotionSensor.obj
 0002:00000770       IID_IOPOSMotionSensor_1_9  0000000180023770     MotionSensor.obj
 0002:00000780       IID_IOPOSMotionSensor      0000000180023780     MotionSensor.obj
 0002:00000790       LIBID_OposMotionSensor_CCO 0000000180023790     MotionSensor.obj
 0002:000007a0       DIID__IOPOSMotionSensorEvents 00000001800237a0     MotionSensor.obj
 0002:000007b0       CLSID_OPOSMotionSensor     00000001800237b0     MotionSensor.obj
 0002:000007c0       _GUID_00000114_0000_0000_c000_000000000046 00000001800237c0     MotionSensor.obj
 0002:000007d0       ??_C@_1BK@BIGILECK@?$AAA?$AAd?$AAv?$AAa?$AAp?$AAi?$AA3?$AA2?$AA?4?$AAd?$AAl?$AAl@ 00000001800237d0     MotionSensor.obj
 0002:000007f0       ??_C@_0BI@MNCFCPFK@RegCreateKeyTransactedW@ 00000001800237f0     MotionSensor.obj
 0002:00000808       _GUID_b196b287_bab4_101a_b69c_00aa00341d07 0000000180023808     MotionSensor.obj
 0002:00000818       _GUID_b196b285_bab4_101a_b69c_00aa00341d07 0000000180023818     MotionSensor.obj
 0002:00000828       _GUID_a6bc3ac0_dbaa_11ce_9de3_00aa004bb851 0000000180023828     MotionSensor.obj
 0002:00000840       ?_entries@?1??_GetEntries@COPOSMotionSensor@@SAPEBU_ATL_INTMAP_ENTRY@ATL@@XZ@4QBU34@B 0000000180023840     MotionSensor.obj
 0002:00000ab0       _GUID_0000010c_0000_0000_c000_000000000046 0000000180023ab0     MotionSensor.obj
 0002:00000ac0       _GUID_cf51ed10_62fe_11cf_bf86_00a0c9034836 0000000180023ac0     MotionSensor.obj
 0002:00000ad0       _GUID_0000010a_0000_0000_c000_000000000046 0000000180023ad0     MotionSensor.obj
 0002:00000ae0       _GUID_b196b283_bab4_101a_b69c_00aa00341d07 0000000180023ae0     MotionSensor.obj
 0002:00000af0       _GUID_cb5bdc81_93c1_11cf_8f20_00805f2cd064 0000000180023af0     MotionSensor.obj
 0002:00000b00       ?pPropMap@?1??GetPropertyMap@COPOSMotionSensor@@SAPEBUATL_PROPMAP_ENTRY@ATL@@XZ@4QBU34@B 0000000180023b00     MotionSensor.obj
 0002:00000ba8       ??_C@_17DGDADEHL@?$AA_?$AAc?$AAx@ 0000000180023ba8     MotionSensor.obj
 0002:00000bb0       ??_C@_17IOIMFDBO@?$AA_?$AAc?$AAy@ 0000000180023bb0     MotionSensor.obj
 0002:00000bb8       _GUID_00000146_0000_0000_c000_000000000046 0000000180023bb8     MotionSensor.obj
 0002:00000bc8       ??_7?$CComObjectCached@VCComClassFactory@ATL@@@ATL@@6B@ 0000000180023bc8     MotionSensor.obj
 0002:00000bf8       ??_C@_1CE@PGFMOFKI@?$AAS?$AAt?$AAa?$AAt?$AAu?$AAs?$AAU?$AAp?$AAd?$AAa?$AAt?$AAe?$AAE?$AAv?$AAe@ 0000000180023bf8     MotionSensor.obj
 0002:00000c20       _GUID_922eada0_3424_11cf_b670_00aa004cd6d8 0000000180023c20     MotionSensor.obj
 0002:00000c30       _GUID_9c2cad80_3424_11cf_b670_00aa004cd6d8 0000000180023c30     MotionSensor.obj
 0002:00000c40       _GUID_00000119_0000_0000_c000_000000000046 0000000180023c40     MotionSensor.obj
 0002:00000c50       ??_C@_1BM@CBGEBBBJ@?$AAD?$AAi?$AAr?$AAe?$AAc?$AAt?$AAI?$AAO?$AAE?$AAv?$AAe?$AAn?$AAt@ 0000000180023c50     MotionSensor.obj
 0002:00000c70       _GUID_b196b289_bab4_101a_b69c_00aa00341d07 0000000180023c70     MotionSensor.obj
 0002:00000c80       _GUID_b196b286_bab4_101a_b69c_00aa00341d07 0000000180023c80     MotionSensor.obj
 0002:00000c90       ??_7CComModule@ATL@@6B@    0000000180023c90     MotionSensor.obj
 0002:00000ce0       ??_C@_1BC@ENICKDH@?$AAC?$AAo?$AAn?$AAt?$AAe?$AAn?$AAt?$AAs@ 0000000180023ce0     MotionSensor.obj
 0002:00000cf8       _GUID_00000117_0000_0000_c000_000000000046 0000000180023cf8     MotionSensor.obj
 0002:00000d08       _GUID_00000000_0000_0000_c000_000000000046 0000000180023d08     MotionSensor.obj
 0002:00000d18       _GUID_00020400_0000_0000_c000_000000000046 0000000180023d18     MotionSensor.obj
 0002:00000d28       ??_7?$CComObject@V?$CComEnum@UIEnumConnectionPoints@@$1?_GUID_b196b285_bab4_101a_b69c_00aa00341d07@@3U__s_GUID@@BPEAUIConnectionPoint@@V?$_CopyInterface@UIConnectionPoint@@@ATL@@VCComSingleThreadModel@6@@ATL@@@ATL@@6B@ 0000000180023d28     MotionSensor.obj
 0002:00000d68       ??_C@_1M@KANJNLFF@?$AAC?$AAL?$AAS?$AAI?$AAD@ 0000000180023d68     MotionSensor.obj
 0002:00000d78       _GUID_0000010e_0000_0000_c000_000000000046 0000000180023d78     MotionSensor.obj
 0002:00000d88       _GUID_b196b288_bab4_101a_b69c_00aa00341d07 0000000180023d88     MotionSensor.obj
 0002:00000d98       ??_C@_1M@EJNEECMJ@?$AAA?$AAp?$AAp?$AAI?$AAD@ 0000000180023d98     MotionSensor.obj
 0002:00000db0       ?rgszNeverDelete@CRegParser@ATL@@1QBQEB_WB 0000000180023db0     MotionSensor.obj
 0002:00000e10       _GUID_00000113_0000_0000_c000_000000000046 0000000180023e10     MotionSensor.obj
 0002:00000e20       ??_7CRegObject@ATL@@6B@    0000000180023e20     MotionSensor.obj
 0002:00000e50       _GUID_1c2056cc_5ef4_101b_8bc8_00aa003e3b29 0000000180023e50     MotionSensor.obj
 0002:00000e60       ??_C@_1CK@OEKPKBNA@?$AAC?$AAo?$AAm?$AAp?$AAo?$AAn?$AAe?$AAn?$AAt?$AA?5?$AAC?$AAa?$AAt?$AAe?$AAg@ 0000000180023e60     MotionSensor.obj
 0002:00000e90       ??_C@_1BC@NKMMNMGL@?$AAF?$AAi?$AAl?$AAe?$AAT?$AAy?$AAp?$AAe@ 0000000180023e90     MotionSensor.obj
 0002:00000ea8       ??_C@_1BE@EKPAFMCP@?$AAI?$AAn?$AAt?$AAe?$AAr?$AAf?$AAa?$AAc?$AAe@ 0000000180023ea8     MotionSensor.obj
 0002:00000ec0       ??_C@_1BC@MAICEHGI@?$AAH?$AAa?$AAr?$AAd?$AAw?$AAa?$AAr?$AAe@ 0000000180023ec0     MotionSensor.obj
 0002:00000ed8       ??_C@_19HLLLM@?$AAM?$AAi?$AAm?$AAe@ 0000000180023ed8     MotionSensor.obj
 0002:00000ee8       ??_C@_17OMAOINJK@?$AAS?$AAA?$AAM@ 0000000180023ee8     MotionSensor.obj
 0002:00000ef0       ??_C@_1BC@IBECJAAI@?$AAS?$AAE?$AAC?$AAU?$AAR?$AAI?$AAT?$AAY@ 0000000180023ef0     MotionSensor.obj
 0002:00000f08       ??_C@_1O@GBFINDKL@?$AAS?$AAY?$AAS?$AAT?$AAE?$AAM@ 0000000180023f08     MotionSensor.obj
 0002:00000f18       ??_C@_1BC@EAHCMADO@?$AAS?$AAo?$AAf?$AAt?$AAw?$AAa?$AAr?$AAe@ 0000000180023f18     MotionSensor.obj
 0002:00000f30       ??_C@_1BA@JIHHIEDE@?$AAT?$AAy?$AAp?$AAe?$AAL?$AAi?$AAb@ 0000000180023f30     MotionSensor.obj
 0002:00000f40       _GUID_00000112_0000_0000_c000_000000000046 0000000180023f40     MotionSensor.obj
 0002:00000f50       ?map@?1??HKeyFromString@CRegParser@ATL@@KAPEAUHKEY__@@PEA_W@Z@4QBUkeymap@?1??123@KAPEAU4@0@Z@B 0000000180023f50     MotionSensor.obj
 0002:00001030       ??_C@_19NCHLBIN@?$AAH?$AAK?$AAC?$AAR@ 0000000180024030     MotionSensor.obj
 0002:00001040       ??_C@_19JAPAIJDE@?$AAH?$AAK?$AAC?$AAU@ 0000000180024040     MotionSensor.obj
 0002:00001050       ??_C@_19PEALEEJB@?$AAH?$AAK?$AAL?$AAM@ 0000000180024050     MotionSensor.obj
 0002:00001060       ??_C@_17PJOJPMPB@?$AAH?$AAK?$AAU@ 0000000180024060     MotionSensor.obj
 0002:00001068       ??_C@_19PNBHMJPL@?$AAH?$AAK?$AAP?$AAD@ 0000000180024068     MotionSensor.obj
 0002:00001078       ??_C@_19GFFAIJHG@?$AAH?$AAK?$AAD?$AAD@ 0000000180024078     MotionSensor.obj
 0002:00001088       ??_C@_19OFICIBHH@?$AAH?$AAK?$AAC?$AAC@ 0000000180024088     MotionSensor.obj
 0002:00001098       ??_C@_1CE@PACHPJFI@?$AAH?$AAK?$AAE?$AAY?$AA_?$AAC?$AAL?$AAA?$AAS?$AAS?$AAE?$AAS?$AA_?$AAR?$AAO@ 0000000180024098     MotionSensor.obj
 0002:000010c0       ??_C@_1CE@HLHNCBPM@?$AAH?$AAK?$AAE?$AAY?$AA_?$AAC?$AAU?$AAR?$AAR?$AAE?$AAN?$AAT?$AA_?$AAU?$AAS@ 00000001800240c0     MotionSensor.obj
 0002:000010e8       ??_C@_1CG@GFBEANJL@?$AAH?$AAK?$AAE?$AAY?$AA_?$AAL?$AAO?$AAC?$AAA?$AAL?$AA_?$AAM?$AAA?$AAC?$AAH@ 00000001800240e8     MotionSensor.obj
 0002:00001110       ??_C@_1BG@BGODANIO@?$AAH?$AAK?$AAE?$AAY?$AA_?$AAU?$AAS?$AAE?$AAR?$AAS@ 0000000180024110     MotionSensor.obj
 0002:00001128       ??_C@_1CM@KHNNAOIC@?$AAH?$AAK?$AAE?$AAY?$AA_?$AAP?$AAE?$AAR?$AAF?$AAO?$AAR?$AAM?$AAA?$AAN?$AAC@ 0000000180024128     MotionSensor.obj
 0002:00001158       _GUID_3af24292_0c96_11ce_a0cf_00aa00600ab8 0000000180024158     MotionSensor.obj
 0002:00001168       ??_C@_1BM@HAGMMHIA@?$AAH?$AAK?$AAE?$AAY?$AA_?$AAD?$AAY?$AAN?$AA_?$AAD?$AAA?$AAT?$AAA@ 0000000180024168     MotionSensor.obj
 0002:00001188       ??_C@_1CI@BBJOACGG@?$AAH?$AAK?$AAE?$AAY?$AA_?$AAC?$AAU?$AAR?$AAR?$AAE?$AAN?$AAT?$AA_?$AAC?$AAO@ 0000000180024188     MotionSensor.obj
 0002:000011b0       _GUID_00000127_0000_0000_c000_000000000046 00000001800241b0     MotionSensor.obj
 0002:000011c0       _GUID_0000010d_0000_0000_c000_000000000046 00000001800241c0     MotionSensor.obj
 0002:000011d0       ??_C@_1M@PPPPCDEP@?$AAA?$AAP?$AAP?$AAI?$AAD@ 00000001800241d0     MotionSensor.obj
 0002:000011e0       _GUID_00000109_0000_0000_c000_000000000046 00000001800241e0     MotionSensor.obj
 0002:000011f0       _GUID_7fd52380_4e07_101b_ae2d_08002b2ec713 00000001800241f0     MotionSensor.obj
 0002:00001200       ??_C@_1EA@NHKLICFA@?$AAH?$AAK?$AAC?$AAU?$AA?$AN?$AA?6?$AA?$HL?$AA?7?$AAS?$AAo?$AAf?$AAt?$AAw?$AAa?$AAr@ 0000000180024200     MotionSensor.obj
 0002:00001240       ??_C@_1BE@LJOLIMEM@?$AA?$AN?$AA?6?$AA?7?$AA?$HN?$AA?$AN?$AA?6?$AA?$HN?$AA?$AN?$AA?6@ 0000000180024240     MotionSensor.obj
 0002:00001258       ??_7?$CComContainedObject@VCOPOSMotionSensor@@@ATL@@6B?$IDispatchImpl@UIOPOSMotionSensor@@$1?IID_IOPOSMotionSensor@@3U_GUID@@B$1?LIBID_OposMotionSensor_CCO@@3U3@B$00$0A@VCComTypeInfoHolder@ATL@@@1@@ 0000000180024258     MotionSensor.obj
 0002:00001408       ??_7?$CComContainedObject@VCOPOSMotionSensor@@@ATL@@6BCComControlBase@1@@ 0000000180024408     MotionSensor.obj
 0002:00001430       ??_7?$CComContainedObject@VCOPOSMotionSensor@@@ATL@@6B?$CWindowImpl@VCOPOSMotionSensor@@VCWindow@ATL@@V?$CWinTraits@$0FGAAAAAA@$0A@@3@@1@@ 0000000180024430     MotionSensor.obj
 0002:00001450       ??_7?$CComContainedObject@VCOPOSMotionSensor@@@ATL@@6B?$IPersistStreamInitImpl@VCOPOSMotionSensor@@@1@@ 0000000180024450     MotionSensor.obj
 0002:00001498       ??_7?$CComContainedObject@VCOPOSMotionSensor@@@ATL@@6B?$IOleControlImpl@VCOPOSMotionSensor@@@1@@ 0000000180024498     MotionSensor.obj
 0002:000014d0       ??_7?$CComContainedObject@VCOPOSMotionSensor@@@ATL@@6B?$IOleObjectImpl@VCOPOSMotionSensor@@@1@@ 00000001800244d0     MotionSensor.obj
 0002:00001590       ??_7?$CComContainedObject@VCOPOSMotionSensor@@@ATL@@6B?$IOleInPlaceActiveObjectImpl@VCOPOSMotionSensor@@@1@@ 0000000180024590     MotionSensor.obj
 0002:000015e0       ??_7?$CComContainedObject@VCOPOSMotionSensor@@@ATL@@6B?$IViewObjectExImpl@VCOPOSMotionSensor@@@1@@ 00000001800245e0     MotionSensor.obj
 0002:00001658       ??_7?$CComContainedObject@VCOPOSMotionSensor@@@ATL@@6B?$IOleInPlaceObjectWindowlessImpl@VCOPOSMotionSensor@@@1@@ 0000000180024658     MotionSensor.obj
 0002:000016b0       ??_7?$CComContainedObject@VCOPOSMotionSensor@@@ATL@@6B?$IConnectionPointContainerImpl@VCOPOSMotionSensor@@@1@@ 00000001800246b0     MotionSensor.obj
 0002:000016d8       ??_7?$CComContainedObject@VCOPOSMotionSensor@@@ATL@@6B?$IPersistStorageImpl@VCOPOSMotionSensor@@@1@@ 00000001800246d8     MotionSensor.obj
 0002:00001728       ??_7?$CComContainedObject@VCOPOSMotionSensor@@@ATL@@6B?$ISpecifyPropertyPagesImpl@VCOPOSMotionSensor@@@1@@ 0000000180024728     MotionSensor.obj
 0002:00001748       ??_7?$CComContainedObject@VCOPOSMotionSensor@@@ATL@@6B?$IQuickActivateImpl@VCOPOSMotionSensor@@@1@@ 0000000180024748     MotionSensor.obj
 0002:00001778       ??_7?$CComContainedObject@VCOPOSMotionSensor@@@ATL@@6B?$IDataObjectImpl@VCOPOSMotionSensor@@@1@@ 0000000180024778     MotionSensor.obj
 0002:000017d8       ??_7?$CComContainedObject@VCOPOSMotionSensor@@@ATL@@6B?$IProvideClassInfo2Impl@$1?CLSID_OPOSMotionSensor@@3U_GUID@@B$1?DIID__IOPOSMotionSensorEvents@@3U2@B$1?LIBID_OposMotionSensor_CCO@@3U2@B$00$0A@VCComTypeInfoHolder@ATL@@@1@@ 00000001800247d8     MotionSensor.obj
 0002:00001800       ??_7?$CComContainedObject@VCOPOSMotionSensor@@@ATL@@6B?$IObjectSafetyImpl@VCOPOSMotionSensor@@$02@1@@ 0000000180024800     MotionSensor.obj
 0002:00001830       ??_7?$CComContainedObject@VCOPOSMotionSensor@@@ATL@@6B?$IPropertyNotifySinkCP@VCOPOSMotionSensor@@VCComDynamicUnkArray@ATL@@@1@@ 0000000180024830     MotionSensor.obj
 0002:00001870       ??_7?$CComContainedObject@VCOPOSMotionSensor@@@ATL@@6B?$CProxy_IOPOSEvents@VCOPOSMotionSensor@@@@@ 0000000180024870     MotionSensor.obj
 0002:000018b0       ??_7?$CComAggObject@VCOPOSMotionSensor@@@ATL@@6B@ 00000001800248b0     MotionSensor.obj
 0002:000018d0       ??_7?$CComObject@VCOPOSMotionSensor@@@ATL@@6B?$IDispatchImpl@UIOPOSMotionSensor@@$1?IID_IOPOSMotionSensor@@3U_GUID@@B$1?LIBID_OposMotionSensor_CCO@@3U3@B$00$0A@VCComTypeInfoHolder@ATL@@@1@@ 00000001800248d0     MotionSensor.obj
 0002:00001a80       ??_7?$CComObject@VCOPOSMotionSensor@@@ATL@@6BCComControlBase@1@@ 0000000180024a80     MotionSensor.obj
 0002:00001aa8       ??_7?$CComObject@VCOPOSMotionSensor@@@ATL@@6B?$CWindowImpl@VCOPOSMotionSensor@@VCWindow@ATL@@V?$CWinTraits@$0FGAAAAAA@$0A@@3@@1@@ 0000000180024aa8     MotionSensor.obj
 0002:00001ac8       ??_7?$CComObject@VCOPOSMotionSensor@@@ATL@@6B?$IPersistStreamInitImpl@VCOPOSMotionSensor@@@1@@ 0000000180024ac8     MotionSensor.obj
 0002:00001b10       ??_7?$CComObject@VCOPOSMotionSensor@@@ATL@@6B?$IOleControlImpl@VCOPOSMotionSensor@@@1@@ 0000000180024b10     MotionSensor.obj
 0002:00001b48       ??_7?$CComObject@VCOPOSMotionSensor@@@ATL@@6B?$IOleObjectImpl@VCOPOSMotionSensor@@@1@@ 0000000180024b48     MotionSensor.obj
 0002:00001c08       ??_7?$CComObject@VCOPOSMotionSensor@@@ATL@@6B?$IOleInPlaceActiveObjectImpl@VCOPOSMotionSensor@@@1@@ 0000000180024c08     MotionSensor.obj
 0002:00001c58       ??_7?$CComObject@VCOPOSMotionSensor@@@ATL@@6B?$IViewObjectExImpl@VCOPOSMotionSensor@@@1@@ 0000000180024c58     MotionSensor.obj
 0002:00001cd0       ??_7?$CComObject@VCOPOSMotionSensor@@@ATL@@6B?$IOleInPlaceObjectWindowlessImpl@VCOPOSMotionSensor@@@1@@ 0000000180024cd0     MotionSensor.obj
 0002:00001d28       ??_7?$CComObject@VCOPOSMotionSensor@@@ATL@@6B?$IConnectionPointContainerImpl@VCOPOSMotionSensor@@@1@@ 0000000180024d28     MotionSensor.obj
 0002:00001d50       ??_7?$CComObject@VCOPOSMotionSensor@@@ATL@@6B?$IPersistStorageImpl@VCOPOSMotionSensor@@@1@@ 0000000180024d50     MotionSensor.obj
 0002:00001da0       ??_7?$CComObject@VCOPOSMotionSensor@@@ATL@@6B?$ISpecifyPropertyPagesImpl@VCOPOSMotionSensor@@@1@@ 0000000180024da0     MotionSensor.obj
 0002:00001dc0       ??_7?$CComObject@VCOPOSMotionSensor@@@ATL@@6B?$IQuickActivateImpl@VCOPOSMotionSensor@@@1@@ 0000000180024dc0     MotionSensor.obj
 0002:00001df0       ??_7?$CComObject@VCOPOSMotionSensor@@@ATL@@6B?$IDataObjectImpl@VCOPOSMotionSensor@@@1@@ 0000000180024df0     MotionSensor.obj
 0002:00001e50       ??_7?$CComObject@VCOPOSMotionSensor@@@ATL@@6B?$IProvideClassInfo2Impl@$1?CLSID_OPOSMotionSensor@@3U_GUID@@B$1?DIID__IOPOSMotionSensorEvents@@3U2@B$1?LIBID_OposMotionSensor_CCO@@3U2@B$00$0A@VCComTypeInfoHolder@ATL@@@1@@ 0000000180024e50     MotionSensor.obj
 0002:00001e78       ??_7?$CComObject@VCOPOSMotionSensor@@@ATL@@6B?$IObjectSafetyImpl@VCOPOSMotionSensor@@$02@1@@ 0000000180024e78     MotionSensor.obj
 0002:00001ea8       ??_7?$CComObject@VCOPOSMotionSensor@@@ATL@@6B?$IPropertyNotifySinkCP@VCOPOSMotionSensor@@VCComDynamicUnkArray@ATL@@@1@@ 0000000180024ea8     MotionSensor.obj
 0002:00001ee8       ??_7?$CComObject@VCOPOSMotionSensor@@@ATL@@6B?$CProxy_IOPOSEvents@VCOPOSMotionSensor@@@@@ 0000000180024ee8     MotionSensor.obj
 0002:00001f28       ??_C@_1O@MNLDABAF@?$AAM?$AAo?$AAd?$AAu?$AAl?$AAe@ 0000000180024f28     MotionSensor.obj
 0002:00001f38       ??_C@_1BG@JBACFMF@?$AAM?$AAo?$AAd?$AAu?$AAl?$AAe?$AA_?$AAR?$AAa?$AAw@ 0000000180024f38     MotionSensor.obj
 0002:00001f50       ??_C@_1BC@KAILKFFG@?$AAR?$AAE?$AAG?$AAI?$AAS?$AAT?$AAR?$AAY@ 0000000180024f50     MotionSensor.obj
 0002:00001f68       ??_C@_1O@GBFKGNEO@?$AAA?$AAT?$AAL?$AA?3?$AA?$CF?$AAp@ 0000000180024f68     MotionSensor.obj
 0002:00001f78       ??_C@_1BA@PICGEGJB@?$AAD?$AAI?$AAS?$AAP?$AAL?$AAA?$AAY@ 0000000180024f78     MotionSensor.obj
 0002:00001f88       _GUID_9bfbbc02_eff1_101a_84ed_00aa00341d07 0000000180024f88     MotionSensor.obj
 0002:00001f98       ?_entries@?1??_GetEntries@?$CComEnum@UIEnumConnectionPoints@@$1?_GUID_b196b285_bab4_101a_b69c_00aa00341d07@@3U__s_GUID@@BPEAUIConnectionPoint@@V?$_CopyInterface@UIConnectionPoint@@@ATL@@VCComSingleThreadModel@6@@ATL@@SAPEBU_ATL_INTMAP_ENTRY@3@XZ@4QBU43@B 0000000180024f98     MotionSensor.obj
 0002:00001fc8       _GUID_b196b284_bab4_101a_b69c_00aa00341d07 0000000180024fc8     MotionSensor.obj
 0002:00001fd8       _GUID_00020412_0000_0000_c000_000000000046 0000000180024fd8     MotionSensor.obj
 0002:00001fe8       _GUID_00020401_0000_0000_c000_000000000046 0000000180024fe8     MotionSensor.obj
 0002:00001ff8       ??_7?$CComObject@V?$CComEnum@UIEnumConnections@@$1?_GUID_b196b287_bab4_101a_b69c_00aa00341d07@@3U__s_GUID@@BUtagCONNECTDATA@@V?$_Copy@UtagCONNECTDATA@@@ATL@@VCComSingleThreadModel@6@@ATL@@@ATL@@6B@ 0000000180024ff8     MotionSensor.obj
 0002:00002038       _GUID_55980ba0_35aa_11cf_b671_00aa004cd6d8 0000000180025038     MotionSensor.obj
 0002:00002048       _GUID_b196b28b_bab4_101a_b69c_00aa00341d07 0000000180025048     MotionSensor.obj
 0002:00002058       ?_entries@?1??_GetEntries@?$CComEnum@UIEnumConnections@@$1?_GUID_b196b287_bab4_101a_b69c_00aa00341d07@@3U__s_GUID@@BUtagCONNECTDATA@@V?$_Copy@UtagCONNECTDATA@@@ATL@@VCComSingleThreadModel@6@@ATL@@SAPEBU_ATL_INTMAP_ENTRY@3@XZ@4QBU43@B 0000000180025058     MotionSensor.obj
 0002:00002088       ??_7CComClassFactory@ATL@@6B@ 0000000180025088     MotionSensor.obj
 0002:000020b8       ?_entries@?1??_GetEntries@CComClassFactory@ATL@@SAPEBU_ATL_INTMAP_ENTRY@3@XZ@4QBU43@B 00000001800250b8     MotionSensor.obj
 0002:000020e8       _GUID_00000001_0000_0000_c000_000000000046 00000001800250e8     MotionSensor.obj
 0002:000020f8       ??_C@_0BG@EKFFMJIO@RegOpenKeyTransactedW@ 00000001800250f8     MotionSensor.obj
 0002:00002110       ??_C@_0BI@HAKLOOGP@RegDeleteKeyTransactedW@ 0000000180025110     MotionSensor.obj
 0002:00002128       ??_C@_0BA@LILAPHGE@RegDeleteKeyExW@ 0000000180025128     MotionSensor.obj
 0002:00002138       ??_C@_19ILOCMLCJ@?$AA?4?$AAt?$AAl?$AAb@ 0000000180025138     MotionSensor.obj
 0002:00002148       _GUID_0002e012_0000_0000_c000_000000000046 0000000180025148     MotionSensor.obj
 0002:00002158       ??_C@_1O@FHBGLCIO@?$AAC?$AAL?$AAS?$AAI?$AAD?$AA?2@ 0000000180025158     MotionSensor.obj
 0002:00002168       ??_C@_1CK@IFBKBFAA@?$AA?2?$AAR?$AAe?$AAq?$AAu?$AAi?$AAr?$AAe?$AAd?$AA?5?$AAC?$AAa?$AAt?$AAe?$AAg@ 0000000180025168     MotionSensor.obj
 0002:00002198       ??_C@_1DA@BIHALFED@?$AA?2?$AAI?$AAm?$AAp?$AAl?$AAe?$AAm?$AAe?$AAn?$AAt?$AAe?$AAd?$AA?5?$AAC?$AAa@ 0000000180025198     MotionSensor.obj
 0002:000021c8       ??_C@_1BK@EDKOLFBJ@?$AAO?$AAL?$AAE?$AAA?$AAU?$AAT?$AA3?$AA2?$AA?4?$AAD?$AAL?$AAL@ 00000001800251c8     MotionSensor.obj
 0002:000021e8       ??_C@_0BJ@CNLFOMHB@UnRegisterTypeLibForUser@ 00000001800251e8     MotionSensor.obj
 0002:00002208       ??_C@_0BH@LBOMMKPJ@RegisterTypeLibForUser@ 0000000180025208     MotionSensor.obj
 0002:00002220       ??_C@_0P@MMNMMLGK@COFreezeEvents@ 0000000180025220     MotionSensorImpl.obj
 0002:00002230       ??_C@_0BC@OGCGGIMP@GetPropertyNumber@ 0000000180025230     MotionSensorImpl.obj
 0002:00002248       ??_C@_0BC@MDCNODNB@SetPropertyNumber@ 0000000180025248     MotionSensorImpl.obj
 0002:00002260       ??_C@_0BC@CFCCMIMD@GetPropertyString@ 0000000180025260     MotionSensorImpl.obj
 0002:00002278       ??_C@_0BC@CJEDNN@SetPropertyString@ 0000000180025278     MotionSensorImpl.obj
 0002:00002290       ??_C@_0M@LNPKKKDA@OpenService@ 0000000180025290     MotionSensorImpl.obj
 0002:000022a0       ??_C@_0M@PCMCHHMH@CheckHealth@ 00000001800252a0     MotionSensorImpl.obj
 0002:000022b0       ??_C@_0M@JGMIDNEK@ClaimDevice@ 00000001800252b0     MotionSensorImpl.obj
 0002:000022c0       ??_C@_0N@DDFIIBMP@CloseService@ 00000001800252c0     MotionSensorImpl.obj
 0002:000022d0       ??_C@_08EEIHICPC@DirectIO@ 00000001800252d0     MotionSensorImpl.obj
 0002:000022e0       ??_C@_0O@BCPMENMJ@ReleaseDevice@ 00000001800252e0     MotionSensorImpl.obj
 0002:000022f0       ??_C@_0O@JEBLKBKN@WaitForMotion@ 00000001800252f0     MotionSensorImpl.obj
 0002:00002300       ??_C@_0BA@GFABKEEE@ResetStatistics@ 0000000180025300     MotionSensorImpl.obj
 0002:00002310       ??_C@_0BD@DPALHJGC@RetrieveStatistics@ 0000000180025310     MotionSensorImpl.obj
 0002:00002328       ??_C@_0BB@KOHIKNFC@UpdateStatistics@ 0000000180025328     MotionSensorImpl.obj
 0002:00002340       ??_C@_0BH@PBKBNMGB@CompareFirmwareVersion@ 0000000180025340     MotionSensorImpl.obj
 0002:00002358       ??_C@_0P@FBPDPIPA@UpdateFirmware@ 0000000180025358     MotionSensorImpl.obj
 0002:00002368       ??_7?$CProxy_IOPOSEvents@VCOPOSMotionSensor@@@@6B@ 0000000180025368     MotionSensorImpl.obj
 0002:000023a8       ??_C@_1BA@IFHENID@?$AA?$FL?$AAE?$AAr?$AAr?$AAo?$AAr?$AA?$FN@ 00000001800253a8     MotionSensorImpl.obj
 0002:000023b8       ??_C@_0CP@IKDGJGNJ@SOFTWARE?2OLEforRetail?2ServiceOP@ 00000001800253b8     MotionSensorImpl.obj
 0002:000023e8       ??_C@_1M@IAIJHCCH@?$AAC?$AAl?$AAo?$AAs?$AAe@ 00000001800253e8     MotionSensorImpl.obj
 0002:000023f8       ??_C@_1M@PCPKGJAH@?$AAC?$AAl?$AAa?$AAi?$AAm@ 00000001800253f8     MotionSensorImpl.obj
 0002:00002408       ??_C@_1BA@NDFKIOCP@?$AAR?$AAe?$AAl?$AAe?$AAa?$AAs?$AAe@ 0000000180025408     MotionSensorImpl.obj
 0002:00002418       ??_C@_0N@DOFAHFBC@MotionSensor@ 0000000180025418     MotionSensorImpl.obj
 0002:00002428       ??_C@_1BM@IJMNMBPK@?$AAG?$AAe?$AAt?$AAO?$AAp?$AAe?$AAn?$AAR?$AAe?$AAs?$AAu?$AAl?$AAt@ 0000000180025428     MotionSensorImpl.obj
 0002:00002448       IID_IDispatch              0000000180025448     uuid:oaidl_i.obj
 0002:00002458       IID_IPropertyNotifySink    0000000180025458     uuid:ocidl_i.obj
 0002:00002468       GUID_NULL                  0000000180025468     uuid:cguid_i.obj
 0002:00002478       CLSID_StdGlobalInterfaceTable 0000000180025478     uuid:cguid_i.obj
 0002:00002488       CLSID_StdComponentCategoriesMgr 0000000180025488     uuid:ieguids.obj
 0002:00002498       IID_IUnknown               0000000180025498     uuid:unknwn_i.obj
 0002:000024b0       __xmm@ffffffffffffffffffffffffffffffff 00000001800254b0     LIBCMT:utility.obj
 0002:000024c0       ??_C@_1EC@JIJBPKFM@?$AAa?$AAp?$AAi?$AA?9?$AAm?$AAs?$AA?9?$AAw?$AAi?$AAn?$AA?9?$AAc?$AAo?$AAr?$AAe@ 00000001800254c0     LIBCMT:thread_safe_statics.obj
 0002:00002508       ??_C@_1BK@MGMFAEKH@?$AAk?$AAe?$AAr?$AAn?$AAe?$AAl?$AA3?$AA2?$AA?4?$AAd?$AAl?$AAl@ 0000000180025508     LIBCMT:thread_safe_statics.obj
 0002:00002528       ??_C@_0BJ@JEBJOJFJ@SleepConditionVariableCS@ 0000000180025528     LIBCMT:thread_safe_statics.obj
 0002:00002548       ??_C@_0BJ@PGPPEPCC@WakeAllConditionVariable@ 0000000180025548     LIBCMT:thread_safe_statics.obj
 0002:00002561       ?nothrow@std@@3Unothrow_t@1@B 0000000180025561     LIBCMT:std_nothrow.obj
 0002:00002578       _pDefaultRawDllMain        0000000180025578     LIBCMT:dll_dllmain.obj
 0002:00002578       _pRawDllMain               0000000180025578     LIBCMT:dll_dllmain.obj
 0002:00002588       ??_7exception@std@@6B@     0000000180025588     LIBCMT:throw_bad_alloc.obj
 0002:00002598       ??_C@_0BC@EOODALEL@Unknown?5exception@ 0000000180025598     LIBCMT:throw_bad_alloc.obj
 0002:000025b8       ??_7bad_alloc@std@@6B@     00000001800255b8     LIBCMT:throw_bad_alloc.obj
 0002:000025c8       ??_C@_0P@GHFPNOJB@bad?5allocation@ 00000001800255c8     LIBCMT:throw_bad_alloc.obj
 0002:000025e0       ??_7bad_array_new_length@std@@6B@ 00000001800255e0     LIBCMT:throw_bad_alloc.obj
 0002:000025f0       ??_C@_0BF@KINCDENJ@bad?5array?5new?5length@ 00000001800255f0     LIBCMT:throw_bad_alloc.obj
 0002:00002610       ??_7type_info@@6B@         0000000180025610     LIBCMT:std_type_info_static.obj
 0002:00002618       GUID_ATLVer110             0000000180025618     atls:atlbase.obj
 0002:00002630       ??_C@_1IC@ONKHOIDK@?$AAE?$AAR?$AAR?$AAO?$AAR?$AA?5?$AA?3?$AA?5?$AAU?$AAn?$AAa?$AAb?$AAl?$AAe?$AA?5@ 0000000180025630     atls:atlbase.obj
 0002:000026b8       ??_C@_0N@FJEPLCIH@atlthunk?4dll@ 00000001800256b8     atls:atlthunk.obj
 0002:000026c8       ??_C@_0BG@GAKFHCBM@AtlThunk_AllocateData@ 00000001800256c8     atls:atlthunk.obj
 0002:000026e0       ??_C@_0BC@JKONFIAH@AtlThunk_InitData@ 00000001800256e0     atls:atlthunk.obj
 0002:000026f8       ??_C@_0BE@IAOEELAK@AtlThunk_DataToCode@ 00000001800256f8     atls:atlthunk.obj
 0002:00002710       ??_C@_0BC@GBGKAIPI@AtlThunk_FreeData@ 0000000180025710     atls:atlthunk.obj
 0002:00002728       ?s_negLengthTab@FH4@@3QBCB 0000000180025728     libvcruntime:risctrnsctrl.obj
 0002:00002738       ?s_shiftTab@FH4@@3QBEB     0000000180025738     libvcruntime:risctrnsctrl.obj
 0002:000027e8       _pDestructExceptionObject  00000001800257e8     libvcruntime:ehhelpers.obj
 0002:000027f8       ??_7bad_exception@std@@6B@ 00000001800257f8     libvcruntime:frame.obj
 0002:00002808       ??_C@_0O@DPKOEFFH@bad?5exception@ 0000000180025808     libvcruntime:frame.obj
 0002:00002f20       ??_C@_08EHJDFFNH@__based?$CI@ 0000000180025f20     libvcruntime:undname.obj
 0002:00002f30       ??_C@_07KOLFKCDI@__cdecl@  0000000180025f30     libvcruntime:undname.obj
 0002:00002f38       ??_C@_08GHMPAG@__pascal@   0000000180025f38     libvcruntime:undname.obj
 0002:00002f48       ??_C@_09IFJBGAPI@__stdcall@ 0000000180025f48     libvcruntime:undname.obj
 0002:00002f58       ??_C@_0L@NPHFGOKO@__thiscall@ 0000000180025f58     libvcruntime:undname.obj
 0002:00002f68       ??_C@_0L@JMKHOMEK@__fastcall@ 0000000180025f68     libvcruntime:undname.obj
 0002:00002f78       ??_C@_0N@BCKKPABJ@__vectorcall@ 0000000180025f78     libvcruntime:undname.obj
 0002:00002f88       ??_C@_09HIJEGCPM@__clrcall@ 0000000180025f88     libvcruntime:undname.obj
 0002:00002f94       ??_C@_06GHPCKEAG@__eabi@   0000000180025f94     libvcruntime:undname.obj
 0002:00002fa0       ??_C@_09IOPIDJLG@__swift_1@ 0000000180025fa0     libvcruntime:undname.obj
 0002:00002fb0       ??_C@_09KFNFGKHF@__swift_2@ 0000000180025fb0     libvcruntime:undname.obj
 0002:00002fc0       ??_C@_07JOMMBBKO@__ptr64@  0000000180025fc0     libvcruntime:undname.obj
 0002:00002fc8       ??_C@_0L@PILCLIHE@__restrict@ 0000000180025fc8     libvcruntime:undname.obj
 0002:00002fd8       ??_C@_0M@GFIIJFMG@__unaligned@ 0000000180025fd8     libvcruntime:undname.obj
 0002:00002fe8       ??_C@_09DHDLOLLB@restrict?$CI@ 0000000180025fe8     libvcruntime:undname.obj
 0002:00002ff2       ??_C@_00CNPNBAHC@@         0000000180025ff2     libvcruntime:undname.obj
 0002:00002ff4       ??_C@_04NIHEBCM@?5new@     0000000180025ff4     libvcruntime:undname.obj
 0002:00003000       ??_C@_07FPCDHGMM@?5delete@ 0000000180026000     libvcruntime:undname.obj
 0002:00003008       ??_C@_01NEMOKFLO@?$DN@     0000000180026008     libvcruntime:undname.obj
 0002:0000300c       ??_C@_02GPIOPFAK@?$DO?$DO@ 000000018002600c     libvcruntime:undname.obj
 0002:00003010       ??_C@_02FODMEDOG@?$DM?$DM@ 0000000180026010     libvcruntime:undname.obj
 0002:00003014       ??_C@_01DCLJPIOD@?$CB@     0000000180026014     libvcruntime:undname.obj
 0002:00003018       ??_C@_02EGOFBIJA@?$DN?$DN@ 0000000180026018     libvcruntime:undname.obj
 0002:0000301c       ??_C@_02FDNJECIE@?$CB?$DN@ 000000018002601c     libvcruntime:undname.obj
 0002:00003020       ??_C@_02GPECMEKF@?$FL?$FN@ 0000000180026020     libvcruntime:undname.obj
 0002:00003028       ??_C@_08LHJFAFGD@operator@ 0000000180026028     libvcruntime:undname.obj
 0002:00003034       ??_C@_02HBOOOICD@?9?$DO@   0000000180026034     libvcruntime:undname.obj
 0002:00003038       ??_C@_01NBENCBCI@?$CK@     0000000180026038     libvcruntime:undname.obj
 0002:0000303c       ??_C@_02ECNGHCIF@?$CL?$CL@ 000000018002603c     libvcruntime:undname.obj
 0002:00003040       ??_C@_02BAABKJLB@?9?9@     0000000180026040     libvcruntime:undname.obj
 0002:00003044       ??_C@_01JOAMLHOP@?9@       0000000180026044     libvcruntime:undname.obj
 0002:00003048       ??_C@_01MIFGBAGJ@?$CL@     0000000180026048     libvcruntime:undname.obj
 0002:0000304c       ??_C@_01HNPIGOCE@?$CG@     000000018002604c     libvcruntime:undname.obj
 0002:00003050       ??_C@_03MNHNFDLC@?9?$DO?$CK@ 0000000180026050     libvcruntime:undname.obj
 0002:00003054       ??_C@_01KMDKNFGN@?1@       0000000180026054     libvcruntime:undname.obj
 0002:00003058       ??_C@_01FGNFDNOH@?$CF@     0000000180026058     libvcruntime:undname.obj
 0002:0000305c       ??_C@_01MNNFJEPP@?$DM@     000000018002605c     libvcruntime:undname.obj
 0002:00003060       ??_C@_02EHCHHCKH@?$DM?$DN@ 0000000180026060     libvcruntime:undname.obj
 0002:00003064       ??_C@_01PPODPGHN@?$DO@     0000000180026064     libvcruntime:undname.obj
 0002:00003068       ??_C@_02EEKDKGMJ@?$DO?$DN@ 0000000180026068     libvcruntime:undname.obj
 0002:0000306c       ??_C@_01IHBHIGKO@?0@       000000018002606c     libvcruntime:undname.obj
 0002:00003070       ??_C@_02HCKGKOFO@?$CI?$CJ@ 0000000180026070     libvcruntime:undname.obj
 0002:00003074       ??_C@_01PJKLJHI@?$HO@      0000000180026074     libvcruntime:undname.obj
 0002:00003078       ??_C@_01JKBOJNNK@?$FO@     0000000180026078     libvcruntime:undname.obj
 0002:0000307c       ??_C@_01DNKMNLPK@?$HM@     000000018002607c     libvcruntime:undname.obj
 0002:00003080       ??_C@_02PPKAJPJL@?$CG?$CG@ 0000000180026080     libvcruntime:undname.obj
 0002:00003084       ??_C@_02NONPIBCD@?$HM?$HM@ 0000000180026084     libvcruntime:undname.obj
 0002:00003088       ??_C@_02FPIMKNGF@?$CK?$DN@ 0000000180026088     libvcruntime:undname.obj
 0002:0000308c       ??_C@_02FOEOMHFC@?$CL?$DN@ 000000018002608c     libvcruntime:undname.obj
 0002:00003090       ??_C@_02FKMDLLOA@?9?$DN@   0000000180026090     libvcruntime:undname.obj
 0002:00003094       ??_C@_02FJEHGPIO@?1?$DN@   0000000180026094     libvcruntime:undname.obj
 0002:00003098       ??_C@_02FENAOKFI@?$CF?$DN@ 0000000180026098     libvcruntime:undname.obj
 0002:0000309c       ??_C@_03IKFCCPFF@?$DO?$DO?$DN@ 000000018002609c     libvcruntime:undname.obj
 0002:000030a0       ??_C@_03CDNPDDLA@?$DM?$DM?$DN@ 00000001800260a0     libvcruntime:undname.obj
 0002:000030a4       ??_C@_02FGJGFEAB@?$CG?$DN@ 00000001800260a4     libvcruntime:undname.obj
 0002:000030a8       ??_C@_02DHLNPPGH@?$HM?$DN@ 00000001800260a8     libvcruntime:undname.obj
 0002:000030ac       ??_C@_02MHEGNOJ@?$FO?$DN@  00000001800260ac     libvcruntime:undname.obj
 0002:000030b0       ??_C@_09IFPLHPGF@?$GAvftable?8@ 00000001800260b0     libvcruntime:undname.obj
 0002:000030c0       ??_C@_09BLBHBJP@?$GAvbtable?8@ 00000001800260c0     libvcruntime:undname.obj
 0002:000030d0       ??_C@_07FEEIOKP@?$GAvcall?8@ 00000001800260d0     libvcruntime:undname.obj
 0002:000030d8       ??_C@_08LLFFHHDJ@?$GAtypeof?8@ 00000001800260d8     libvcruntime:undname.obj
 0002:000030e8       ??_C@_0BF@KDPPACIK@?$GAlocal?5static?5guard?8@ 00000001800260e8     libvcruntime:undname.obj
 0002:00003100       ??_C@_08OBABFOLI@?$GAstring?8@ 0000000180026100     libvcruntime:undname.obj
 0002:00003110       ??_C@_0BD@JDLKDPAB@?$GAvbase?5destructor?8@ 0000000180026110     libvcruntime:undname.obj
 0002:00003128       ??_C@_0BN@DEGPLNFK@?$GAvector?5deleting?5destructor?8@ 0000000180026128     libvcruntime:undname.obj
 0002:00003148       ??_C@_0BO@OBMKPJIG@?$GAdefault?5constructor?5closure?8@ 0000000180026148     libvcruntime:undname.obj
 0002:00003168       ??_C@_0BN@IMDCHIKM@?$GAscalar?5deleting?5destructor?8@ 0000000180026168     libvcruntime:undname.obj
 0002:00003188       ??_C@_0BO@PFGOCPJJ@?$GAvector?5constructor?5iterator?8@ 0000000180026188     libvcruntime:undname.obj
 0002:000031a8       ??_C@_0BN@LFPFMEDL@?$GAvector?5destructor?5iterator?8@ 00000001800261a8     libvcruntime:undname.obj
 0002:000031c8       ??_C@_0CE@IKBNEHA@?$GAvector?5vbase?5constructor?5itera@ 00000001800261c8     libvcruntime:undname.obj
 0002:000031f0       ??_C@_0BL@NILFHHPC@?$GAvirtual?5displacement?5map?8@ 00000001800261f0     libvcruntime:undname.obj
 0002:00003210       ??_C@_0CB@JONCMFFK@?$GAeh?5vector?5constructor?5iterator@ 0000000180026210     libvcruntime:undname.obj
 0002:00003238       ??_C@_0CA@GCEOPDGL@?$GAeh?5vector?5destructor?5iterator?8@ 0000000180026238     libvcruntime:undname.obj
 0002:00003258       ??_C@_0CH@OOJPLCPH@?$GAeh?5vector?5vbase?5constructor?5it@ 0000000180026258     libvcruntime:undname.obj
 0002:00003280       ??_C@_0BL@LLKPOHJI@?$GAcopy?5constructor?5closure?8@ 0000000180026280     libvcruntime:undname.obj
 0002:000032a0       ??_C@_0BA@KBCDOMBN@?$GAudt?5returning?8@ 00000001800262a0     libvcruntime:undname.obj
 0002:000032b0       ??_C@_03KLGMFNMG@?$GAEH@   00000001800262b0     libvcruntime:undname.obj
 0002:000032b4       ??_C@_05KHLCHHI@?$GARTTI@  00000001800262b4     libvcruntime:undname.obj
 0002:000032c0       ??_C@_0BA@KKLDJDLB@?$GAlocal?5vftable?8@ 00000001800262c0     libvcruntime:undname.obj
 0002:000032d0       ??_C@_0CE@IIHCMGGL@?$GAlocal?5vftable?5constructor?5clos@ 00000001800262d0     libvcruntime:undname.obj
 0002:000032f4       ??_C@_06FHBGPFGH@?5new?$FL?$FN@ 00000001800262f4     libvcruntime:undname.obj
 0002:00003300       ??_C@_09LBNFPBCA@?5delete?$FL?$FN@ 0000000180026300     libvcruntime:undname.obj
 0002:00003310       ??_C@_0P@HJKNJFNN@?$GAomni?5callsig?8@ 0000000180026310     libvcruntime:undname.obj
 0002:00003320       ??_C@_0BL@CNOONJFP@?$GAplacement?5delete?5closure?8@ 0000000180026320     libvcruntime:undname.obj
 0002:00003340       ??_C@_0BN@CKNJLHMB@?$GAplacement?5delete?$FL?$FN?5closure?8@ 0000000180026340     libvcruntime:undname.obj
 0002:00003360       ??_C@_0CG@CFDHKGGD@?$GAmanaged?5vector?5constructor?5ite@ 0000000180026360     libvcruntime:undname.obj
 0002:00003388       ??_C@_0CF@IMGKMJNO@?$GAmanaged?5vector?5destructor?5iter@ 0000000180026388     libvcruntime:undname.obj
 0002:000033b0       ??_C@_0CG@HLDDJMAG@?$GAeh?5vector?5copy?5constructor?5ite@ 00000001800263b0     libvcruntime:undname.obj
 0002:000033d8       ??_C@_0CM@FCBBDIGB@?$GAeh?5vector?5vbase?5copy?5construct@ 00000001800263d8     libvcruntime:undname.obj
 0002:00003408       ??_C@_0BL@CLIPGLGB@?$GAdynamic?5initializer?5for?5?8@ 0000000180026408     libvcruntime:undname.obj
 0002:00003428       ??_C@_0CB@PDBIFEP@?$GAdynamic?5atexit?5destructor?5for?5@ 0000000180026428     libvcruntime:undname.obj
 0002:00003450       ??_C@_0CD@CGAJBKEJ@?$GAvector?5copy?5constructor?5iterat@ 0000000180026450     libvcruntime:undname.obj
 0002:00003478       ??_C@_0CJ@GJELGAMM@?$GAvector?5vbase?5copy?5constructor?5@ 0000000180026478     libvcruntime:undname.obj
 0002:000034a8       ??_C@_0CL@FGIJHLCE@?$GAmanaged?5vector?5copy?5constructo@ 00000001800264a8     libvcruntime:undname.obj
 0002:000034d8       ??_C@_0BM@PMGGMLDN@?$GAlocal?5static?5thread?5guard?8@ 00000001800264d8     libvcruntime:undname.obj
 0002:000034f8       ??_C@_0N@BDNMDMOL@operator?5?$CC?$CC?5@ 00000001800264f8     libvcruntime:undname.obj
 0002:00003508       ??_C@_0BC@GGEBGALA@operator?5co_await@ 0000000180026508     libvcruntime:undname.obj
 0002:00003520       ??_C@_0M@GAAIMMOH@operator?$DM?$DN?$DO@ 0000000180026520     libvcruntime:undname.obj
 0002:00003530       ??_C@_0BC@DAFEJGAK@?5Type?5Descriptor?8@ 0000000180026530     libvcruntime:undname.obj
 0002:00003548       ??_C@_0BM@LDKODKLH@?5Base?5Class?5Descriptor?5at?5?$CI@ 0000000180026548     libvcruntime:undname.obj
 0002:00003568       ??_C@_0BD@LGICGFMM@?5Base?5Class?5Array?8@ 0000000180026568     libvcruntime:undname.obj
 0002:00003580       ??_C@_0BN@MECKDCOJ@?5Class?5Hierarchy?5Descriptor?8@ 0000000180026580     libvcruntime:undname.obj
 0002:000035a0       ??_C@_0BK@CFCOFLF@?5Complete?5Object?5Locator?8@ 00000001800265a0     libvcruntime:undname.obj
 0002:000035c0       ??_C@_0BG@JNJLAMPM@?$GAanonymous?5namespace?8@ 00000001800265c0     libvcruntime:undname.obj
 0002:000035f0       ??_C@_1DM@KHCHBNEB@?$AAa?$AAp?$AAi?$AA?9?$AAm?$AAs?$AA?9?$AAw?$AAi?$AAn?$AA?9?$AAc?$AAo?$AAr?$AAe@ 00000001800265f0     libvcruntime:winapi_downlevel.obj
 0002:00003630       ??_C@_1DK@LPPGFMPP@?$AAa?$AAp?$AAi?$AA?9?$AAm?$AAs?$AA?9?$AAw?$AAi?$AAn?$AA?9?$AAc?$AAo?$AAr?$AAe@ 0000000180026630     libvcruntime:winapi_downlevel.obj
 0002:00003670       ??_C@_1BC@GDMECMAK@?$AAk?$AAe?$AAr?$AAn?$AAe?$AAl?$AA3?$AA2@ 0000000180026670     libvcruntime:winapi_downlevel.obj
 0002:00003688       ??_C@_1BA@PFFKHIOG@?$AAa?$AAp?$AAi?$AA?9?$AAm?$AAs?$AA?9@ 0000000180026688     libvcruntime:winapi_downlevel.obj
 0002:000036a0       ??_C@_08KNHFBNJ@FlsAlloc@  00000001800266a0     libvcruntime:winapi_downlevel.obj
 0002:000036b8       ??_C@_07PEJMOBNF@FlsFree@  00000001800266b8     libvcruntime:winapi_downlevel.obj
 0002:000036c8       ??_C@_0M@GDNOONDI@FlsGetValue@ 00000001800266c8     libvcruntime:winapi_downlevel.obj
 0002:000036e0       ??_C@_0M@JCPCPOEF@FlsSetValue@ 00000001800266e0     libvcruntime:winapi_downlevel.obj
 0002:000036f8       ??_C@_0BM@HCFOFFN@InitializeCriticalSectionEx@ 00000001800266f8     libvcruntime:winapi_downlevel.obj
 0002:00003890       ?format_validation_lookup_table_spectre@__crt_stdio_output@@3V?$spectre_mitigated_lookup_table@Ustate_transition_pair@__crt_stdio_output@@$0IA@@1@B 0000000180026890     libucrt:output.obj
 0002:00003c90       ??_C@_1O@CEDCILHN@?$AA?$CI?$AAn?$AAu?$AAl?$AAl?$AA?$CJ@ 0000000180026c90     libucrt:output.obj
 0002:00003ca0       ??_C@_06OJHGLDPL@?$CInull?$CJ@ 0000000180026ca0     libucrt:output.obj
 0002:00003cb0       __acrt_exception_action_table 0000000180026cb0     libucrt:exception_filter.obj
 0002:00003d70       __acrt_signal_action_table_count 0000000180026d70     libucrt:exception_filter.obj
 0002:00003d78       __acrt_signal_action_first_fpe_index 0000000180026d78     libucrt:exception_filter.obj
 0002:00003d80       __acrt_signal_action_fpe_count 0000000180026d80     libucrt:exception_filter.obj
 0002:00003d88       ??_C@_1BI@BGOHAHKC@?$AAm?$AAs?$AAc?$AAo?$AAr?$AAe?$AAe?$AA?4?$AAd?$AAl?$AAl@ 0000000180026d88     libucrt:exit.obj
 0002:00003da0       ??_C@_0P@MIGLKIOC@CorExitProcess@ 0000000180026da0     libucrt:exit.obj
 0002:00003f50       ??_C@_1EA@JGEFHKEI@?$AAa?$AAp?$AAi?$AA?9?$AAm?$AAs?$AA?9?$AAw?$AAi?$AAn?$AA?9?$AAc?$AAo?$AAr?$AAe@ 0000000180026f50     libucrt:winapi_thunks.obj
 0002:00003f90       ??_C@_1DI@IJCEHOCB@?$AAa?$AAp?$AAi?$AA?9?$AAm?$AAs?$AA?9?$AAw?$AAi?$AAn?$AA?9?$AAc?$AAo?$AAr?$AAe@ 0000000180026f90     libucrt:winapi_thunks.obj
 0002:00003fd0       ??_C@_1EI@MPIAOHOC@?$AAa?$AAp?$AAi?$AA?9?$AAm?$AAs?$AA?9?$AAw?$AAi?$AAn?$AA?9?$AAc?$AAo?$AAr?$AAe@ 0000000180026fd0     libucrt:winapi_thunks.obj
 0002:00004020       ??_C@_1FK@FPHCKFIE@?$AAa?$AAp?$AAi?$AA?9?$AAm?$AAs?$AA?9?$AAw?$AAi?$AAn?$AA?9?$AAc?$AAo?$AAr?$AAe@ 0000000180027020     libucrt:winapi_thunks.obj
 0002:00004080       ??_C@_1EM@DILCGIIO@?$AAa?$AAp?$AAi?$AA?9?$AAm?$AAs?$AA?9?$AAw?$AAi?$AAn?$AA?9?$AAc?$AAo?$AAr?$AAe@ 0000000180027080     libucrt:winapi_thunks.obj
 0002:000040d0       ??_C@_1DM@LNCGDDPN@?$AAa?$AAp?$AAi?$AA?9?$AAm?$AAs?$AA?9?$AAw?$AAi?$AAn?$AA?9?$AAc?$AAo?$AAr?$AAe@ 00000001800270d0     libucrt:winapi_thunks.obj
 0002:00004110       ??_C@_1DO@FPAPJEMD@?$AAa?$AAp?$AAi?$AA?9?$AAm?$AAs?$AA?9?$AAw?$AAi?$AAn?$AA?9?$AAc?$AAo?$AAr?$AAe@ 0000000180027110     libucrt:winapi_thunks.obj
 0002:00004150       ??_C@_1DK@NDHNAHIO@?$AAa?$AAp?$AAi?$AA?9?$AAm?$AAs?$AA?9?$AAw?$AAi?$AAn?$AA?9?$AAc?$AAo?$AAr?$AAe@ 0000000180027150     libucrt:winapi_thunks.obj
 0002:00004190       ??_C@_1DM@KGHDGBCM@?$AAa?$AAp?$AAi?$AA?9?$AAm?$AAs?$AA?9?$AAw?$AAi?$AAn?$AA?9?$AAc?$AAo?$AAr?$AAe@ 0000000180027190     libucrt:winapi_thunks.obj
 0002:000041d0       ??_C@_1EO@IJIOEFOH@?$AAa?$AAp?$AAi?$AA?9?$AAm?$AAs?$AA?9?$AAw?$AAi?$AAn?$AA?9?$AAr?$AAt?$AAc?$AAo@ 00000001800271d0     libucrt:winapi_thunks.obj
 0002:00004220       ??_C@_1FG@HHGEKANL@?$AAa?$AAp?$AAi?$AA?9?$AAm?$AAs?$AA?9?$AAw?$AAi?$AAn?$AA?9?$AAs?$AAe?$AAc?$AAu@ 0000000180027220     libucrt:winapi_thunks.obj
 0002:00004280       ??_C@_1EG@DBIOJECG@?$AAe?$AAx?$AAt?$AA?9?$AAm?$AAs?$AA?9?$AAw?$AAi?$AAn?$AA?9?$AAn?$AAt?$AAu?$AAs@ 0000000180027280     libucrt:winapi_thunks.obj
 0002:000042d0       ??_C@_1EO@FIHMJCLF@?$AAe?$AAx?$AAt?$AA?9?$AAm?$AAs?$AA?9?$AAw?$AAi?$AAn?$AA?9?$AAn?$AAt?$AAu?$AAs@ 00000001800272d0     libucrt:winapi_thunks.obj
 0002:00004320       ??_C@_1BC@DNHGCMLG@?$AAa?$AAd?$AAv?$AAa?$AAp?$AAi?$AA3?$AA2@ 0000000180027320     libucrt:winapi_thunks.obj
 0002:00004338       ??_C@_1M@OAIMIKLP@?$AAn?$AAt?$AAd?$AAl?$AAl@ 0000000180027338     libucrt:winapi_thunks.obj
 0002:00004350       ??_C@_1EG@DPGNFKGC@?$AAa?$AAp?$AAi?$AA?9?$AAm?$AAs?$AA?9?$AAw?$AAi?$AAn?$AA?9?$AAa?$AAp?$AAp?$AAm@ 0000000180027350     libucrt:winapi_thunks.obj
 0002:00004398       ??_C@_1O@BCCLBEOE@?$AAu?$AAs?$AAe?$AAr?$AA3?$AA2@ 0000000180027398     libucrt:winapi_thunks.obj
 0002:000043a8       ??_C@_1BA@IAIFMGEF@?$AAe?$AAx?$AAt?$AA?9?$AAm?$AAs?$AA?9@ 00000001800273a8     libucrt:winapi_thunks.obj
 0002:000043c0       ??_C@_0BA@FHFNEAED@AreFileApisANSI@ 00000001800273c0     libucrt:winapi_thunks.obj
 0002:00004400       ??_C@_0O@KKBNKAPF@LCMapStringEx@ 0000000180027400     libucrt:winapi_thunks.obj
 0002:00004418       ??_C@_0BB@HBDEELFH@LocaleNameToLCID@ 0000000180027418     libucrt:winapi_thunks.obj
 0002:00004430       ??_C@_0CF@OJOFEIGO@AppPolicyGetProcessTerminationM@ 0000000180027430     libucrt:winapi_thunks.obj
 0002:00004460       ??_C@_0BI@BKLFFAPO@SetThreadStackGuarantee@ 0000000180027460     libucrt:winapi_thunks.obj
 0002:00004500       ??_C@_03OEIAHPBN@INF@      0000000180027500     libucrt:cvt.obj
 0002:00004504       ??_C@_03OJHLLCGB@inf@      0000000180027504     libucrt:cvt.obj
 0002:00004508       ??_C@_03LKNCIKJB@NAN@      0000000180027508     libucrt:cvt.obj
 0002:0000450c       ??_C@_03LHCJEHON@nan@      000000018002750c     libucrt:cvt.obj
 0002:00004510       ??_C@_09OFJJIMPC@NAN?$CISNAN?$CJ@ 0000000180027510     libucrt:cvt.obj
 0002:00004520       ??_C@_09IPFBKMDL@nan?$CIsnan?$CJ@ 0000000180027520     libucrt:cvt.obj
 0002:00004530       ??_C@_08IKHNHAJ@NAN?$CIIND?$CJ@ 0000000180027530     libucrt:cvt.obj
 0002:00004540       ??_C@_08OFCDMILK@nan?$CIind?$CJ@ 0000000180027540     libucrt:cvt.obj
 0002:0000454c       ??_C@_05KLBDPFGC@e?$CL000@ 000000018002754c     libucrt:cvt.obj
 0002:00004560       __lc_time_c                0000000180027560     libucrt:nlsdata.obj
 0002:00004820       ??_C@_03KOEHGMDN@Sun@      0000000180027820     libucrt:nlsdata.obj
 0002:00004824       ??_C@_03PDAGKDH@Mon@       0000000180027824     libucrt:nlsdata.obj
 0002:00004828       ??_C@_03NAGEINEP@Tue@      0000000180027828     libucrt:nlsdata.obj
 0002:0000482c       ??_C@_03MHOMLAJA@Wed@      000000018002782c     libucrt:nlsdata.obj
 0002:00004830       ??_C@_03IOFIKPDN@Thu@      0000000180027830     libucrt:nlsdata.obj
 0002:00004834       ??_C@_03IDIOELNC@Fri@      0000000180027834     libucrt:nlsdata.obj
 0002:00004838       ??_C@_03FEFJNEK@Sat@       0000000180027838     libucrt:nlsdata.obj
 0002:0000483c       ??_C@_06OOPIFAJ@Sunday@    000000018002783c     libucrt:nlsdata.obj
 0002:00004844       ??_C@_06JLEDEDGH@Monday@   0000000180027844     libucrt:nlsdata.obj
 0002:00004850       ??_C@_07BAAGCFCM@Tuesday@  0000000180027850     libucrt:nlsdata.obj
 0002:00004858       ??_C@_09DLIGFAKA@Wednesday@ 0000000180027858     libucrt:nlsdata.obj
 0002:00004868       ??_C@_08HACCIKIA@Thursday@ 0000000180027868     libucrt:nlsdata.obj
 0002:00004874       ??_C@_06JECMNKMI@Friday@   0000000180027874     libucrt:nlsdata.obj
 0002:00004880       ??_C@_08INBOOONO@Saturday@ 0000000180027880     libucrt:nlsdata.obj
 0002:0000488c       ??_C@_03JIHJHPIE@Jan@      000000018002788c     libucrt:nlsdata.obj
 0002:00004890       ??_C@_03HJBDCHOM@Feb@      0000000180027890     libucrt:nlsdata.obj
 0002:00004894       ??_C@_03ODNJBKGA@Mar@      0000000180027894     libucrt:nlsdata.obj
 0002:00004898       ??_C@_03LEOLGMJP@Apr@      0000000180027898     libucrt:nlsdata.obj
 0002:0000489c       ??_C@_03CNMDKL@May@        000000018002789c     libucrt:nlsdata.obj
 0002:000048a0       ??_C@_03IDFGHECI@Jun@      00000001800278a0     libucrt:nlsdata.obj
 0002:000048a4       ??_C@_03LBGABGKK@Jul@      00000001800278a4     libucrt:nlsdata.obj
 0002:000048a8       ??_C@_03IFJFEIGA@Aug@      00000001800278a8     libucrt:nlsdata.obj
 0002:000048ac       ??_C@_03GGCAPAJC@Sep@      00000001800278ac     libucrt:nlsdata.obj
 0002:000048b0       ??_C@_03BMAOKBAD@Oct@      00000001800278b0     libucrt:nlsdata.obj
 0002:000048b4       ??_C@_03JPJOFNIA@Nov@      00000001800278b4     libucrt:nlsdata.obj
 0002:000048b8       ??_C@_03MKABNOCG@Dec@      00000001800278b8     libucrt:nlsdata.obj
 0002:000048c0       ??_C@_07CGJPFGJA@January@  00000001800278c0     libucrt:nlsdata.obj
 0002:000048c8       ??_C@_08GNJGEPFN@February@ 00000001800278c8     libucrt:nlsdata.obj
 0002:000048d4       ??_C@_05HPCKOFNC@March@    00000001800278d4     libucrt:nlsdata.obj
 0002:000048dc       ??_C@_05DMJDNLEJ@April@    00000001800278dc     libucrt:nlsdata.obj
 0002:000048e4       ??_C@_04CNLMGBGM@June@     00000001800278e4     libucrt:nlsdata.obj
 0002:000048ec       ??_C@_04MIEPOIFP@July@     00000001800278ec     libucrt:nlsdata.obj
 0002:000048f4       ??_C@_06LBBHFDDG@August@   00000001800278f4     libucrt:nlsdata.obj
 0002:00004900       ??_C@_09BHHEALKD@September@ 0000000180027900     libucrt:nlsdata.obj
 0002:00004910       ??_C@_07JJNFCEND@October@  0000000180027910     libucrt:nlsdata.obj
 0002:00004918       ??_C@_08HCHEGEOA@November@ 0000000180027918     libucrt:nlsdata.obj
 0002:00004928       ??_C@_08EDHMEBNP@December@ 0000000180027928     libucrt:nlsdata.obj
 0002:00004934       ??_C@_02DEDBPAFC@AM@       0000000180027934     libucrt:nlsdata.obj
 0002:00004938       ??_C@_02CJNFDJBF@PM@       0000000180027938     libucrt:nlsdata.obj
 0002:00004940       ??_C@_08BPBNCDIB@MM?1dd?1yy@ 0000000180027940     libucrt:nlsdata.obj
 0002:00004950       ??_C@_0BE@CKGJFCPC@dddd?0?5MMMM?5dd?0?5yyyy@ 0000000180027950     libucrt:nlsdata.obj
 0002:00004968       ??_C@_08JCCMCCIL@HH?3mm?3ss@ 0000000180027968     libucrt:nlsdata.obj
 0002:00004978       ??_C@_17MBGCMIPB@?$AAS?$AAu?$AAn@ 0000000180027978     libucrt:nlsdata.obj
 0002:00004980       ??_C@_17KBOMKBF@?$AAM?$AAo?$AAn@ 0000000180027980     libucrt:nlsdata.obj
 0002:00004988       ??_C@_17BMKGEGOJ@?$AAT?$AAu?$AAe@ 0000000180027988     libucrt:nlsdata.obj
 0002:00004990       ??_C@_17CJEDCEPE@?$AAW?$AAe?$AAd@ 0000000180027990     libucrt:nlsdata.obj
 0002:00004998       ??_C@_17PDPHAADD@?$AAT?$AAh?$AAu@ 0000000180027998     libucrt:nlsdata.obj
 0002:000049a0       ??_C@_17HFOLPPLP@?$AAF?$AAr?$AAi@ 00000001800279a0     libucrt:nlsdata.obj
 0002:000049a8       ??_C@_17GGIBDPIH@?$AAS?$AAa?$AAt@ 00000001800279a8     libucrt:nlsdata.obj
 0002:000049b0       ??_C@_1O@IHNHDHPB@?$AAS?$AAu?$AAn?$AAd?$AAa?$AAy@ 00000001800279b0     libucrt:nlsdata.obj
 0002:000049c0       ??_C@_1O@MMNBFLIA@?$AAM?$AAo?$AAn?$AAd?$AAa?$AAy@ 00000001800279c0     libucrt:nlsdata.obj
 0002:000049d0       ??_C@_1BA@ENFBFFEK@?$AAT?$AAu?$AAe?$AAs?$AAd?$AAa?$AAy@ 00000001800279d0     libucrt:nlsdata.obj
 0002:000049e0       ??_C@_1BE@EBOGMDOH@?$AAW?$AAe?$AAd?$AAn?$AAe?$AAs?$AAd?$AAa?$AAy@ 00000001800279e0     libucrt:nlsdata.obj
 0002:000049f8       ??_C@_1BC@HHMNLIHE@?$AAT?$AAh?$AAu?$AAr?$AAs?$AAd?$AAa?$AAy@ 00000001800279f8     libucrt:nlsdata.obj
 0002:00004a10       ??_C@_1O@PDICJHAG@?$AAF?$AAr?$AAi?$AAd?$AAa?$AAy@ 0000000180027a10     libucrt:nlsdata.obj
 0002:00004a20       ??_C@_1BC@ENMNNPAJ@?$AAS?$AAa?$AAt?$AAu?$AAr?$AAd?$AAa?$AAy@ 0000000180027a20     libucrt:nlsdata.obj
 0002:00004a38       ??_C@_17DKNBKCHM@?$AAJ?$AAa?$AAn@ 0000000180027a38     libucrt:nlsdata.obj
 0002:00004a40       ??_C@_17LMDJEKJN@?$AAF?$AAe?$AAb@ 0000000180027a40     libucrt:nlsdata.obj
 0002:00004a48       ??_C@_17CKNLEDEC@?$AAM?$AAa?$AAr@ 0000000180027a48     libucrt:nlsdata.obj
 0002:00004a50       ??_C@_17LFPOIHDD@?$AAA?$AAp?$AAr@ 0000000180027a50     libucrt:nlsdata.obj
 0002:00004a58       ??_C@_17PNNKMEED@?$AAM?$AAa?$AAy@ 0000000180027a58     libucrt:nlsdata.obj
 0002:00004a60       ??_C@_17KCJGOCPB@?$AAJ?$AAu?$AAn@ 0000000180027a60     libucrt:nlsdata.obj
 0002:00004a68       ??_C@_17IJPCKHK@?$AAJ?$AAu?$AAl@ 0000000180027a68     libucrt:nlsdata.obj
 0002:00004a70       ??_C@_17ICPELBCN@?$AAA?$AAu?$AAg@ 0000000180027a70     libucrt:nlsdata.obj
 0002:00004a78       ??_C@_17HCHCOKMG@?$AAS?$AAe?$AAp@ 0000000180027a78     libucrt:nlsdata.obj
 0002:00004a80       ??_C@_17FNLKOI@?$AAO?$AAc?$AAt@ 0000000180027a80     libucrt:nlsdata.obj
 0002:00004a88       ??_C@_17BBDMLCIG@?$AAN?$AAo?$AAv@ 0000000180027a88     libucrt:nlsdata.obj
 0002:00004a90       ??_C@_17EGKACKIF@?$AAD?$AAe?$AAc@ 0000000180027a90     libucrt:nlsdata.obj
 0002:00004a98       ??_C@_1BA@EFMEIEBA@?$AAJ?$AAa?$AAn?$AAu?$AAa?$AAr?$AAy@ 0000000180027a98     libucrt:nlsdata.obj
 0002:00004aa8       ??_C@_1BC@JGDDFFAM@?$AAF?$AAe?$AAb?$AAr?$AAu?$AAa?$AAr?$AAy@ 0000000180027aa8     libucrt:nlsdata.obj
 0002:00004ac0       ??_C@_1M@IKEENEDF@?$AAM?$AAa?$AAr?$AAc?$AAh@ 0000000180027ac0     libucrt:nlsdata.obj
 0002:00004ad0       ??_C@_1M@GJNLMHFD@?$AAA?$AAp?$AAr?$AAi?$AAl@ 0000000180027ad0     libucrt:nlsdata.obj
 0002:00004ae0       ??_C@_19EPFLPGAP@?$AAJ?$AAu?$AAn?$AAe@ 0000000180027ae0     libucrt:nlsdata.obj
 0002:00004af0       ??_C@_19BIFMLPCD@?$AAJ?$AAu?$AAl?$AAy@ 0000000180027af0     libucrt:nlsdata.obj
 0002:00004b00       ??_C@_1O@PAHLKOAC@?$AAA?$AAu?$AAg?$AAu?$AAs?$AAt@ 0000000180027b00     libucrt:nlsdata.obj
 0002:00004b10       ??_C@_1BE@DKAAMBJL@?$AAS?$AAe?$AAp?$AAt?$AAe?$AAm?$AAb?$AAe?$AAr@ 0000000180027b10     libucrt:nlsdata.obj
 0002:00004b28       ??_C@_1BA@EPANDLNG@?$AAO?$AAc?$AAt?$AAo?$AAb?$AAe?$AAr@ 0000000180027b28     libucrt:nlsdata.obj
 0002:00004b38       ??_C@_1BC@BGLIFPF@?$AAN?$AAo?$AAv?$AAe?$AAm?$AAb?$AAe?$AAr@ 0000000180027b38     libucrt:nlsdata.obj
 0002:00004b50       ??_C@_1BC@FEMKIFH@?$AAD?$AAe?$AAc?$AAe?$AAm?$AAb?$AAe?$AAr@ 0000000180027b50     libucrt:nlsdata.obj
 0002:00004b64       ??_C@_15ODEHAHHF@?$AAA?$AAM@ 0000000180027b64     libucrt:nlsdata.obj
 0002:00004b6c       ??_C@_15CLMNNGEL@?$AAP?$AAM@ 0000000180027b6c     libucrt:nlsdata.obj
 0002:00004b78       ??_C@_1BC@IEBCMHCM@?$AAM?$AAM?$AA?1?$AAd?$AAd?$AA?1?$AAy?$AAy@ 0000000180027b78     libucrt:nlsdata.obj
 0002:00004b90       ??_C@_1CI@KNAKOEBC@?$AAd?$AAd?$AAd?$AAd?$AA?0?$AA?5?$AAM?$AAM?$AAM?$AAM?$AA?5?$AAd?$AAd?$AA?0?$AA?5@ 0000000180027b90     libucrt:nlsdata.obj
 0002:00004bb8       ??_C@_1BC@GDGBMEMK@?$AAH?$AAH?$AA?3?$AAm?$AAm?$AA?3?$AAs?$AAs@ 0000000180027bb8     libucrt:nlsdata.obj
 0002:00004bd0       ??_C@_1M@BMHNFIME@?$AAe?$AAn?$AA?9?$AAU?$AAS@ 0000000180027bd0     libucrt:nlsdata.obj
 0002:00004c00       ??_C@_1M@HPNHIDJI@?$AAj?$AAa?$AA?9?$AAJ?$AAP@ 0000000180027c00     libucrt:mbctype.obj
 0002:00004c10       ??_C@_1M@BIBDDEMK@?$AAz?$AAh?$AA?9?$AAC?$AAN@ 0000000180027c10     libucrt:mbctype.obj
 0002:00004c20       ??_C@_1M@JLOOOEGK@?$AAk?$AAo?$AA?9?$AAK?$AAR@ 0000000180027c20     libucrt:mbctype.obj
 0002:00004c30       ??_C@_1M@CLNBBOPM@?$AAz?$AAh?$AA?9?$AAT?$AAW@ 0000000180027c30     libucrt:mbctype.obj
 0002:00004c40       __newctype                 0000000180027c40     libucrt:ctype.obj
 0002:00004f40       __newclmap                 0000000180027f40     libucrt:ctype.obj
 0002:000050c0       __newcumap                 00000001800280c0     libucrt:ctype.obj
 0002:00005240       _wctype                    0000000180028240     libucrt:ctype.obj
 0002:00006290       ??_C@_15EMKDOKLE@?$AAa?$AAr@ 0000000180029290     libucrt:lcidtoname_downlevel.obj
 0002:00006298       ??_C@_15KNPADPLH@?$AAb?$AAg@ 0000000180029298     libucrt:lcidtoname_downlevel.obj
 0002:000062a0       ??_C@_15EDMHLDMO@?$AAc?$AAa@ 00000001800292a0     libucrt:lcidtoname_downlevel.obj
 0002:000062a8       ??_C@_1O@BPEAJADD@?$AAz?$AAh?$AA?9?$AAC?$AAH?$AAS@ 00000001800292a8     libucrt:lcidtoname_downlevel.obj
 0002:000062b8       ??_C@_15LJNHCMNK@?$AAc?$AAs@ 00000001800292b8     libucrt:lcidtoname_downlevel.obj
 0002:000062c0       ??_C@_15FOMCIDHG@?$AAd?$AAa@ 00000001800292c0     libucrt:lcidtoname_downlevel.obj
 0002:000062c8       ??_C@_15NBKABECB@?$AAd?$AAe@ 00000001800292c8     libucrt:lcidtoname_downlevel.obj
 0002:000062d0       ??_C@_15GHPEIIAO@?$AAe?$AAl@ 00000001800292d0     libucrt:lcidtoname_downlevel.obj
 0002:000062d8       ??_C@_15MNPNEAIF@?$AAe?$AAn@ 00000001800292d8     libucrt:lcidtoname_downlevel.obj
 0002:000062e0       ??_C@_15GPIOMPMH@?$AAe?$AAs@ 00000001800292e0     libucrt:lcidtoname_downlevel.obj
 0002:000062e8       ??_C@_15NGLOAKJC@?$AAf?$AAi@ 00000001800292e8     libucrt:lcidtoname_downlevel.obj
 0002:000062f0       ??_C@_15FBKGNKAM@?$AAf?$AAr@ 00000001800292f0     libucrt:lcidtoname_downlevel.obj
 0002:000062f8       ??_C@_15KGGCNEFK@?$AAh?$AAe@ 00000001800292f8     libucrt:lcidtoname_downlevel.obj
 0002:00006300       ??_C@_15PGHLIDMF@?$AAh?$AAu@ 0000000180029300     libucrt:lcidtoname_downlevel.obj
 0002:00006308       ??_C@_15BIEMAPLM@?$AAi?$AAs@ 0000000180029308     libucrt:lcidtoname_downlevel.obj
 0002:00006310       ??_C@_15IFJLDHAF@?$AAi?$AAt@ 0000000180029310     libucrt:lcidtoname_downlevel.obj
 0002:00006318       ??_C@_15GEMIOCAG@?$AAj?$AAa@ 0000000180029318     libucrt:lcidtoname_downlevel.obj
 0002:00006320       ??_C@_15EPELEGJA@?$AAk?$AAo@ 0000000180029320     libucrt:lcidtoname_downlevel.obj
 0002:00006328       ??_C@_15NDDHIMN@?$AAn?$AAl@ 0000000180029328     libucrt:lcidtoname_downlevel.obj
 0002:00006330       ??_C@_15BPIGNHCD@?$AAn?$AAo@ 0000000180029330     libucrt:lcidtoname_downlevel.obj
 0002:00006338       ??_C@_15DEOPBLCG@?$AAp?$AAl@ 0000000180029338     libucrt:lcidtoname_downlevel.obj
 0002:00006340       ??_C@_15KBECGEFG@?$AAp?$AAt@ 0000000180029340     libucrt:lcidtoname_downlevel.obj
 0002:00006348       ??_C@_15GLJCBFMD@?$AAr?$AAo@ 0000000180029348     libucrt:lcidtoname_downlevel.obj
 0002:00006350       ??_C@_15FEDGKCDI@?$AAr?$AAu@ 0000000180029350     libucrt:lcidtoname_downlevel.obj
 0002:00006358       ??_C@_15GLKMLLHM@?$AAh?$AAr@ 0000000180029358     libucrt:lcidtoname_downlevel.obj
 0002:00006360       ??_C@_15CPKMFBDB@?$AAs?$AAk@ 0000000180029360     libucrt:lcidtoname_downlevel.obj
 0002:00006368       ??_C@_15BAAIOGMK@?$AAs?$AAq@ 0000000180029368     libucrt:lcidtoname_downlevel.obj
 0002:00006370       ??_C@_15INNPNOHD@?$AAs?$AAv@ 0000000180029370     libucrt:lcidtoname_downlevel.obj
 0002:00006378       ??_C@_15CABMMOGH@?$AAt?$AAh@ 0000000180029378     libucrt:lcidtoname_downlevel.obj
 0002:00006380       ??_C@_15BPLIHJJM@?$AAt?$AAr@ 0000000180029380     libucrt:lcidtoname_downlevel.obj
 0002:00006388       ??_C@_15NEOEKKDJ@?$AAu?$AAr@ 0000000180029388     libucrt:lcidtoname_downlevel.obj
 0002:00006390       ??_C@_15NFICGAJK@?$AAi?$AAd@ 0000000180029390     libucrt:lcidtoname_downlevel.obj
 0002:00006398       ??_C@_15PJPFLCCM@?$AAu?$AAk@ 0000000180029398     libucrt:lcidtoname_downlevel.obj
 0002:000063a0       ??_C@_15HPJPHDM@?$AAb?$AAe@ 00000001800293a0     libucrt:lcidtoname_downlevel.obj
 0002:000063a8       ??_C@_15LCHLGJII@?$AAs?$AAl@ 00000001800293a8     libucrt:lcidtoname_downlevel.obj
 0002:000063b0       ??_C@_15PCFJPHHO@?$AAe?$AAt@ 00000001800293b0     libucrt:lcidtoname_downlevel.obj
 0002:000063b8       ??_C@_15HPFPGODN@?$AAl?$AAv@ 00000001800293b8     libucrt:lcidtoname_downlevel.obj
 0002:000063c0       ??_C@_15NFFGKGLG@?$AAl?$AAt@ 00000001800293c0     libucrt:lcidtoname_downlevel.obj
 0002:000063c8       ??_C@_15BDAKCCHN@?$AAf?$AAa@ 00000001800293c8     libucrt:lcidtoname_downlevel.obj
 0002:000063d0       ??_C@_15NFGIAIAJ@?$AAv?$AAi@ 00000001800293d0     libucrt:lcidtoname_downlevel.obj
 0002:000063d8       ??_C@_15LMKNDMHN@?$AAh?$AAy@ 00000001800293d8     libucrt:lcidtoname_downlevel.obj
 0002:000063e0       ??_C@_15IJBHMCFL@?$AAa?$AAz@ 00000001800293e0     libucrt:lcidtoname_downlevel.obj
 0002:000063e8       ??_C@_15EKOFJABL@?$AAe?$AAu@ 00000001800293e8     libucrt:lcidtoname_downlevel.obj
 0002:000063f0       ??_C@_15BGHADCNK@?$AAm?$AAk@ 00000001800293f0     libucrt:lcidtoname_downlevel.obj
 0002:000063f8       ??_C@_15JDNICKHM@?$AAa?$AAf@ 00000001800293f8     libucrt:lcidtoname_downlevel.obj
 0002:00006400       ??_C@_15KPJEDBKD@?$AAk?$AAa@ 0000000180029400     libucrt:lcidtoname_downlevel.obj
 0002:00006408       ??_C@_15PDNFFFEO@?$AAf?$AAo@ 0000000180029408     libucrt:lcidtoname_downlevel.obj
 0002:00006410       ??_C@_15OMLEGLOC@?$AAh?$AAi@ 0000000180029410     libucrt:lcidtoname_downlevel.obj
 0002:00006418       ??_C@_15IDNNENKK@?$AAm?$AAs@ 0000000180029418     libucrt:lcidtoname_downlevel.obj
 0002:00006420       ??_C@_15MACJNBMH@?$AAk?$AAk@ 0000000180029420     libucrt:lcidtoname_downlevel.obj
 0002:00006428       ??_C@_15DKDJEOND@?$AAk?$AAy@ 0000000180029428     libucrt:lcidtoname_downlevel.obj
 0002:00006430       ??_C@_15DFGDLJBG@?$AAs?$AAw@ 0000000180029430     libucrt:lcidtoname_downlevel.obj
 0002:00006438       ??_C@_15BBFAICNG@?$AAu?$AAz@ 0000000180029438     libucrt:lcidtoname_downlevel.obj
 0002:00006440       ??_C@_15DKNDCGEA@?$AAt?$AAt@ 0000000180029440     libucrt:lcidtoname_downlevel.obj
 0002:00006448       ??_C@_15MGIFMDPL@?$AAp?$AAa@ 0000000180029448     libucrt:lcidtoname_downlevel.obj
 0002:00006450       ??_C@_15HCNDBBA@?$AAg?$AAu@ 0000000180029450     libucrt:lcidtoname_downlevel.obj
 0002:00006458       ??_C@_15FNBEIBON@?$AAt?$AAa@ 0000000180029458     libucrt:lcidtoname_downlevel.obj
 0002:00006460       ??_C@_15NCHGBGLK@?$AAt?$AAe@ 0000000180029460     libucrt:lcidtoname_downlevel.obj
 0002:00006468       ??_C@_15PHPHCBPF@?$AAk?$AAn@ 0000000180029468     libucrt:lcidtoname_downlevel.obj
 0002:00006470       ??_C@_15DLGBCKMP@?$AAm?$AAr@ 0000000180029470     libucrt:lcidtoname_downlevel.obj
 0002:00006478       ??_C@_15EABBLBFF@?$AAs?$AAa@ 0000000180029478     libucrt:lcidtoname_downlevel.obj
 0002:00006480       ??_C@_15CBKOMCOI@?$AAm?$AAn@ 0000000180029480     libucrt:lcidtoname_downlevel.obj
 0002:00006488       ??_C@_15CKDMCJAF@?$AAg?$AAl@ 0000000180029488     libucrt:lcidtoname_downlevel.obj
 0002:00006490       ??_C@_17CNJFBPG@?$AAk?$AAo?$AAk@ 0000000180029490     libucrt:lcidtoname_downlevel.obj
 0002:00006498       ??_C@_17FFBJICPL@?$AAs?$AAy?$AAr@ 0000000180029498     libucrt:lcidtoname_downlevel.obj
 0002:000064a0       ??_C@_17KPNDCPAF@?$AAd?$AAi?$AAv@ 00000001800294a0     libucrt:lcidtoname_downlevel.obj
 0002:000064a8       ??_C@_1M@OKAHONE@?$AAa?$AAr?$AA?9?$AAS?$AAA@ 00000001800294a8     libucrt:lcidtoname_downlevel.obj
 0002:000064b8       ??_C@_1M@FFFIGIGK@?$AAb?$AAg?$AA?9?$AAB?$AAG@ 00000001800294b8     libucrt:lcidtoname_downlevel.obj
 0002:000064c8       ??_C@_1M@BJNKEDC@?$AAc?$AAa?$AA?9?$AAE?$AAS@ 00000001800294c8     libucrt:lcidtoname_downlevel.obj
 0002:000064d8       ??_C@_1M@IJJHFJHA@?$AAc?$AAs?$AA?9?$AAC?$AAZ@ 00000001800294d8     libucrt:lcidtoname_downlevel.obj
 0002:000064e8       ??_C@_1M@CLPEOBGI@?$AAd?$AAa?$AA?9?$AAD?$AAK@ 00000001800294e8     libucrt:lcidtoname_downlevel.obj
 0002:000064f8       ??_C@_1M@MCMADGCB@?$AAd?$AAe?$AA?9?$AAD?$AAE@ 00000001800294f8     libucrt:lcidtoname_downlevel.obj
 0002:00006508       ??_C@_1M@OOCKEMAM@?$AAe?$AAl?$AA?9?$AAG?$AAR@ 0000000180029508     libucrt:lcidtoname_downlevel.obj
 0002:00006518       ??_C@_1M@DDNJFGID@?$AAf?$AAi?$AA?9?$AAF?$AAI@ 0000000180029518     libucrt:lcidtoname_downlevel.obj
 0002:00006528       ??_C@_1M@GLIPPMAC@?$AAf?$AAr?$AA?9?$AAF?$AAR@ 0000000180029528     libucrt:lcidtoname_downlevel.obj
 0002:00006538       ??_C@_1M@GFMCHPE@?$AAh?$AAe?$AA?9?$AAI?$AAL@ 0000000180029538     libucrt:lcidtoname_downlevel.obj
 0002:00006548       ??_C@_1M@MHLPGNKM@?$AAh?$AAu?$AA?9?$AAH?$AAU@ 0000000180029548     libucrt:lcidtoname_downlevel.obj
 0002:00006558       ??_C@_1M@LPDDNNPN@?$AAi?$AAs?$AA?9?$AAI?$AAS@ 0000000180029558     libucrt:lcidtoname_downlevel.obj
 0002:00006568       ??_C@_1M@MADIPODN@?$AAi?$AAt?$AA?9?$AAI?$AAT@ 0000000180029568     libucrt:lcidtoname_downlevel.obj
 0002:00006578       ??_C@_1M@IHBJJGG@?$AAn?$AAl?$AA?9?$AAN?$AAL@ 0000000180029578     libucrt:lcidtoname_downlevel.obj
 0002:00006588       ??_C@_1M@EANAGDL@?$AAn?$AAb?$AA?9?$AAN?$AAO@ 0000000180029588     libucrt:lcidtoname_downlevel.obj
 0002:00006598       ??_C@_1M@NEIEMEGP@?$AAp?$AAl?$AA?9?$AAP?$AAL@ 0000000180029598     libucrt:lcidtoname_downlevel.obj
 0002:000065a8       ??_C@_1M@BOCFIGEP@?$AAp?$AAt?$AA?9?$AAB?$AAR@ 00000001800295a8     libucrt:lcidtoname_downlevel.obj
 0002:000065b8       ??_C@_1M@IMPFOPBG@?$AAr?$AAo?$AA?9?$AAR?$AAO@ 00000001800295b8     libucrt:lcidtoname_downlevel.obj
 0002:000065c8       ??_C@_1M@IDNNEJMM@?$AAr?$AAu?$AA?9?$AAR?$AAU@ 00000001800295c8     libucrt:lcidtoname_downlevel.obj
 0002:000065d8       ??_C@_1M@LILEEOGM@?$AAh?$AAr?$AA?9?$AAH?$AAR@ 00000001800295d8     libucrt:lcidtoname_downlevel.obj
 0002:000065e8       ??_C@_1M@FKIFEHPB@?$AAs?$AAk?$AA?9?$AAS?$AAK@ 00000001800295e8     libucrt:lcidtoname_downlevel.obj
 0002:000065f8       ??_C@_1M@LJMAMNPJ@?$AAs?$AAq?$AA?9?$AAA?$AAL@ 00000001800295f8     libucrt:lcidtoname_downlevel.obj
 0002:00006608       ??_C@_1M@GIAKDKJK@?$AAs?$AAv?$AA?9?$AAS?$AAE@ 0000000180029608     libucrt:lcidtoname_downlevel.obj
 0002:00006618       ??_C@_1M@MKJKIKCL@?$AAt?$AAh?$AA?9?$AAT?$AAH@ 0000000180029618     libucrt:lcidtoname_downlevel.obj
 0002:00006628       ??_C@_1M@MFLCCMPB@?$AAt?$AAr?$AA?9?$AAT?$AAR@ 0000000180029628     libucrt:lcidtoname_downlevel.obj
 0002:00006638       ??_C@_1M@OIJHDKJN@?$AAu?$AAr?$AA?9?$AAP?$AAK@ 0000000180029638     libucrt:lcidtoname_downlevel.obj
 0002:00006648       ??_C@_1M@LHIPCIEK@?$AAi?$AAd?$AA?9?$AAI?$AAD@ 0000000180029648     libucrt:lcidtoname_downlevel.obj
 0002:00006658       ??_C@_1M@MFMOBGI@?$AAu?$AAk?$AA?9?$AAU?$AAA@ 0000000180029658     libucrt:lcidtoname_downlevel.obj
 0002:00006668       ??_C@_1M@OBGLJIPL@?$AAb?$AAe?$AA?9?$AAB?$AAY@ 0000000180029668     libucrt:lcidtoname_downlevel.obj
 0002:00006678       ??_C@_1M@BCFAJEAD@?$AAs?$AAl?$AA?9?$AAS?$AAI@ 0000000180029678     libucrt:lcidtoname_downlevel.obj
 0002:00006688       ??_C@_1M@FKFFEDDN@?$AAe?$AAt?$AA?9?$AAE?$AAE@ 0000000180029688     libucrt:lcidtoname_downlevel.obj
 0002:00006698       ??_C@_1M@KGKKAACI@?$AAl?$AAv?$AA?9?$AAL?$AAV@ 0000000180029698     libucrt:lcidtoname_downlevel.obj
 0002:000066a8       ??_C@_1M@IFGBIJO@?$AAl?$AAt?$AA?9?$AAL?$AAT@ 00000001800296a8     libucrt:lcidtoname_downlevel.obj
 0002:000066b8       ??_C@_1M@FGEAHEDM@?$AAf?$AAa?$AA?9?$AAI?$AAR@ 00000001800296b8     libucrt:lcidtoname_downlevel.obj
 0002:000066c8       ??_C@_1M@KBMAIBFN@?$AAv?$AAi?$AA?9?$AAV?$AAN@ 00000001800296c8     libucrt:lcidtoname_downlevel.obj
 0002:000066d8       ??_C@_1M@GPCBKDJK@?$AAh?$AAy?$AA?9?$AAA?$AAM@ 00000001800296d8     libucrt:lcidtoname_downlevel.obj
 0002:000066e8       ??_C@_1BG@BECMDDJB@?$AAa?$AAz?$AA?9?$AAA?$AAZ?$AA?9?$AAL?$AAa?$AAt?$AAn@ 00000001800296e8     libucrt:lcidtoname_downlevel.obj
 0002:00006700       ??_C@_1M@MAOFCAEA@?$AAe?$AAu?$AA?9?$AAE?$AAS@ 0000000180029700     libucrt:lcidtoname_downlevel.obj
 0002:00006710       ??_C@_1M@IGHABKPI@?$AAm?$AAk?$AA?9?$AAM?$AAK@ 0000000180029710     libucrt:lcidtoname_downlevel.obj
 0002:00006720       ??_C@_1M@IAIGNEJG@?$AAt?$AAn?$AA?9?$AAZ?$AAA@ 0000000180029720     libucrt:lcidtoname_downlevel.obj
 0002:00006730       ??_C@_1M@IIJCOJFA@?$AAx?$AAh?$AA?9?$AAZ?$AAA@ 0000000180029730     libucrt:lcidtoname_downlevel.obj
 0002:00006740       ??_C@_1M@LGPJHNJH@?$AAz?$AAu?$AA?9?$AAZ?$AAA@ 0000000180029740     libucrt:lcidtoname_downlevel.obj
 0002:00006750       ??_C@_1M@HOKAOIO@?$AAa?$AAf?$AA?9?$AAZ?$AAA@ 0000000180029750     libucrt:lcidtoname_downlevel.obj
 0002:00006760       ??_C@_1M@DPCLHLIE@?$AAk?$AAa?$AA?9?$AAG?$AAE@ 0000000180029760     libucrt:lcidtoname_downlevel.obj
 0002:00006770       ??_C@_1M@BLKMHJBI@?$AAf?$AAo?$AA?9?$AAF?$AAO@ 0000000180029770     libucrt:lcidtoname_downlevel.obj
 0002:00006780       ??_C@_1M@LGGJAPPB@?$AAh?$AAi?$AA?9?$AAI?$AAN@ 0000000180029780     libucrt:lcidtoname_downlevel.obj
 0002:00006790       ??_C@_1M@FIKPIHFE@?$AAm?$AAt?$AA?9?$AAM?$AAT@ 0000000180029790     libucrt:lcidtoname_downlevel.obj
 0002:000067a0       ??_C@_1M@HEGGPBFA@?$AAs?$AAe?$AA?9?$AAN?$AAO@ 00000001800297a0     libucrt:lcidtoname_downlevel.obj
 0002:000067b0       ??_C@_1M@EIBJEEPA@?$AAm?$AAs?$AA?9?$AAM?$AAY@ 00000001800297b0     libucrt:lcidtoname_downlevel.obj
 0002:000067c0       ??_C@_1M@FHLBGMPP@?$AAk?$AAk?$AA?9?$AAK?$AAZ@ 00000001800297c0     libucrt:lcidtoname_downlevel.obj
 0002:000067d0       ??_C@_1M@NGJJLCGI@?$AAk?$AAy?$AA?9?$AAK?$AAG@ 00000001800297d0     libucrt:lcidtoname_downlevel.obj
 0002:000067e0       ??_C@_1M@GIENNBFC@?$AAs?$AAw?$AA?9?$AAK?$AAE@ 00000001800297e0     libucrt:lcidtoname_downlevel.obj
 0002:000067f0       ??_C@_1BG@NDGMJIMJ@?$AAu?$AAz?$AA?9?$AAU?$AAZ?$AA?9?$AAL?$AAa?$AAt?$AAn@ 00000001800297f0     libucrt:lcidtoname_downlevel.obj
 0002:00006808       ??_C@_1M@IDCCIHBC@?$AAt?$AAt?$AA?9?$AAR?$AAU@ 0000000180029808     libucrt:lcidtoname_downlevel.obj
 0002:00006818       ??_C@_1M@LOICPMOJ@?$AAb?$AAn?$AA?9?$AAI?$AAN@ 0000000180029818     libucrt:lcidtoname_downlevel.obj
 0002:00006828       ??_C@_1M@KPKKNEAH@?$AAp?$AAa?$AA?9?$AAI?$AAN@ 0000000180029828     libucrt:lcidtoname_downlevel.obj
 0002:00006838       ??_C@_1M@PJGPPBOG@?$AAg?$AAu?$AA?9?$AAI?$AAN@ 0000000180029838     libucrt:lcidtoname_downlevel.obj
 0002:00006848       ??_C@_1M@KMKMOPHI@?$AAt?$AAa?$AA?9?$AAI?$AAN@ 0000000180029848     libucrt:lcidtoname_downlevel.obj
 0002:00006858       ??_C@_1M@KFEHEPAC@?$AAt?$AAe?$AA?9?$AAI?$AAN@ 0000000180029858     libucrt:lcidtoname_downlevel.obj
 0002:00006868       ??_C@_1M@CDCLMGHI@?$AAk?$AAn?$AA?9?$AAI?$AAN@ 0000000180029868     libucrt:lcidtoname_downlevel.obj
 0002:00006878       ??_C@_1M@MIODLDKF@?$AAm?$AAl?$AA?9?$AAI?$AAN@ 0000000180029878     libucrt:lcidtoname_downlevel.obj
 0002:00006888       ??_C@_1M@PBIEACPO@?$AAm?$AAr?$AA?9?$AAI?$AAN@ 0000000180029888     libucrt:lcidtoname_downlevel.obj
 0002:00006898       ??_C@_1M@NIDEAGPH@?$AAs?$AAa?$AA?9?$AAI?$AAN@ 0000000180029898     libucrt:lcidtoname_downlevel.obj
 0002:000068a8       ??_C@_1M@FHIHCBIO@?$AAm?$AAn?$AA?9?$AAM?$AAN@ 00000001800298a8     libucrt:lcidtoname_downlevel.obj
 0002:000068b8       ??_C@_1M@JAIJPENP@?$AAc?$AAy?$AA?9?$AAG?$AAB@ 00000001800298b8     libucrt:lcidtoname_downlevel.obj
 0002:000068c8       ??_C@_1M@PHGFBEPN@?$AAg?$AAl?$AA?9?$AAE?$AAS@ 00000001800298c8     libucrt:lcidtoname_downlevel.obj
 0002:000068d8       ??_C@_1O@KPIPDNCP@?$AAk?$AAo?$AAk?$AA?9?$AAI?$AAN@ 00000001800298d8     libucrt:lcidtoname_downlevel.obj
 0002:000068e8       ??_C@_1O@KNHJLDJA@?$AAs?$AAy?$AAr?$AA?9?$AAS?$AAY@ 00000001800298e8     libucrt:lcidtoname_downlevel.obj
 0002:000068f8       ??_C@_1O@MKEKBLAH@?$AAd?$AAi?$AAv?$AA?9?$AAM?$AAV@ 00000001800298f8     libucrt:lcidtoname_downlevel.obj
 0002:00006908       ??_C@_1O@OHDCKDDF@?$AAq?$AAu?$AAz?$AA?9?$AAB?$AAO@ 0000000180029908     libucrt:lcidtoname_downlevel.obj
 0002:00006918       ??_C@_1M@LEPJNLFD@?$AAn?$AAs?$AA?9?$AAZ?$AAA@ 0000000180029918     libucrt:lcidtoname_downlevel.obj
 0002:00006928       ??_C@_1M@OMLEIIJB@?$AAm?$AAi?$AA?9?$AAN?$AAZ@ 0000000180029928     libucrt:lcidtoname_downlevel.obj
 0002:00006938       ??_C@_1M@PMPEAILG@?$AAa?$AAr?$AA?9?$AAI?$AAQ@ 0000000180029938     libucrt:lcidtoname_downlevel.obj
 0002:00006948       ??_C@_1M@CNKPNOEE@?$AAd?$AAe?$AA?9?$AAC?$AAH@ 0000000180029948     libucrt:lcidtoname_downlevel.obj
 0002:00006958       ??_C@_1M@LKMGMLKO@?$AAe?$AAn?$AA?9?$AAG?$AAB@ 0000000180029958     libucrt:lcidtoname_downlevel.obj
 0002:00006968       ??_C@_1M@PGKJFFGL@?$AAe?$AAs?$AA?9?$AAM?$AAX@ 0000000180029968     libucrt:lcidtoname_downlevel.obj
 0002:00006978       ??_C@_1M@DNNANBDC@?$AAf?$AAr?$AA?9?$AAB?$AAE@ 0000000180029978     libucrt:lcidtoname_downlevel.obj
 0002:00006988       ??_C@_1M@HLGMDFHM@?$AAi?$AAt?$AA?9?$AAC?$AAH@ 0000000180029988     libucrt:lcidtoname_downlevel.obj
 0002:00006998       ??_C@_1M@CLLBGJH@?$AAn?$AAl?$AA?9?$AAB?$AAE@ 0000000180029998     libucrt:lcidtoname_downlevel.obj
 0002:000069a8       ??_C@_1M@BODBOGLF@?$AAn?$AAn?$AA?9?$AAN?$AAO@ 00000001800299a8     libucrt:lcidtoname_downlevel.obj
 0002:000069b8       ??_C@_1M@HFFAHKAD@?$AAp?$AAt?$AA?9?$AAP?$AAT@ 00000001800299b8     libucrt:lcidtoname_downlevel.obj
 0002:000069c8       ??_C@_1BG@LNOAKHIE@?$AAs?$AAr?$AA?9?$AAS?$AAP?$AA?9?$AAL?$AAa?$AAt?$AAn@ 00000001800299c8     libucrt:lcidtoname_downlevel.obj
 0002:000069e0       ??_C@_1M@HBMHBGAK@?$AAs?$AAv?$AA?9?$AAF?$AAI@ 00000001800299e0     libucrt:lcidtoname_downlevel.obj
 0002:000069f0       ??_C@_1BG@DGCJGJBE@?$AAa?$AAz?$AA?9?$AAA?$AAZ?$AA?9?$AAC?$AAy?$AAr?$AAl@ 00000001800299f0     libucrt:lcidtoname_downlevel.obj
 0002:00006a08       ??_C@_1M@KEJDAAHB@?$AAs?$AAe?$AA?9?$AAS?$AAE@ 0000000180029a08     libucrt:lcidtoname_downlevel.obj
 0002:00006a18       ??_C@_1M@HEIBJJAD@?$AAm?$AAs?$AA?9?$AAB?$AAN@ 0000000180029a18     libucrt:lcidtoname_downlevel.obj
 0002:00006a28       ??_C@_1BG@PBGJMCEM@?$AAu?$AAz?$AA?9?$AAU?$AAZ?$AA?9?$AAC?$AAy?$AAr?$AAl@ 0000000180029a28     libucrt:lcidtoname_downlevel.obj
 0002:00006a40       ??_C@_1O@LAOBCMDF@?$AAq?$AAu?$AAz?$AA?9?$AAE?$AAC@ 0000000180029a40     libucrt:lcidtoname_downlevel.obj
 0002:00006a50       ??_C@_1M@POEEMAIO@?$AAa?$AAr?$AA?9?$AAE?$AAG@ 0000000180029a50     libucrt:lcidtoname_downlevel.obj
 0002:00006a60       ??_C@_1M@EFAKDEDL@?$AAz?$AAh?$AA?9?$AAH?$AAK@ 0000000180029a60     libucrt:lcidtoname_downlevel.obj
 0002:00006a70       ??_C@_1M@HKKIJHGI@?$AAd?$AAe?$AA?9?$AAA?$AAT@ 0000000180029a70     libucrt:lcidtoname_downlevel.obj
 0002:00006a80       ??_C@_1M@KBFBEHJF@?$AAe?$AAn?$AA?9?$AAA?$AAU@ 0000000180029a80     libucrt:lcidtoname_downlevel.obj
 0002:00006a90       ??_C@_1M@MNPLFAAH@?$AAe?$AAs?$AA?9?$AAE?$AAS@ 0000000180029a90     libucrt:lcidtoname_downlevel.obj
 0002:00006aa0       ??_C@_1M@HJOOJFMA@?$AAf?$AAr?$AA?9?$AAC?$AAA@ 0000000180029aa0     libucrt:lcidtoname_downlevel.obj
 0002:00006ab0       ??_C@_1BG@JPOFPNAB@?$AAs?$AAr?$AA?9?$AAS?$AAP?$AA?9?$AAC?$AAy?$AAr?$AAl@ 0000000180029ab0     libucrt:lcidtoname_downlevel.obj
 0002:00006ac8       ??_C@_1M@LNFOCMOB@?$AAs?$AAe?$AA?9?$AAF?$AAI@ 0000000180029ac8     libucrt:lcidtoname_downlevel.obj
 0002:00006ad8       ??_C@_1O@MGJBOAMB@?$AAq?$AAu?$AAz?$AA?9?$AAP?$AAE@ 0000000180029ad8     libucrt:lcidtoname_downlevel.obj
 0002:00006ae8       ??_C@_1M@GJINLBOK@?$AAa?$AAr?$AA?9?$AAL?$AAY@ 0000000180029ae8     libucrt:lcidtoname_downlevel.obj
 0002:00006af8       ??_C@_1M@GGMNHJNL@?$AAz?$AAh?$AA?9?$AAS?$AAG@ 0000000180029af8     libucrt:lcidtoname_downlevel.obj
 0002:00006b08       ??_C@_1M@HOIKODND@?$AAd?$AAe?$AA?9?$AAL?$AAU@ 0000000180029b08     libucrt:lcidtoname_downlevel.obj
 0002:00006b18       ??_C@_1M@DDOCCGFG@?$AAe?$AAn?$AA?9?$AAC?$AAA@ 0000000180029b18     libucrt:lcidtoname_downlevel.obj
 0002:00006b28       ??_C@_1M@BNOEMJLF@?$AAe?$AAs?$AA?9?$AAG?$AAT@ 0000000180029b28     libucrt:lcidtoname_downlevel.obj
 0002:00006b38       ??_C@_1M@EOGNKEK@?$AAf?$AAr?$AA?9?$AAC?$AAH@ 0000000180029b38     libucrt:lcidtoname_downlevel.obj
 0002:00006b48       ??_C@_1M@FLIDJFHL@?$AAh?$AAr?$AA?9?$AAB?$AAA@ 0000000180029b48     libucrt:lcidtoname_downlevel.obj
 0002:00006b58       ??_C@_1O@FMCELNAJ@?$AAs?$AAm?$AAj?$AA?9?$AAN?$AAO@ 0000000180029b58     libucrt:lcidtoname_downlevel.obj
 0002:00006b68       ??_C@_1M@JHGLJMGJ@?$AAa?$AAr?$AA?9?$AAD?$AAZ@ 0000000180029b68     libucrt:lcidtoname_downlevel.obj
 0002:00006b78       ??_C@_1M@JKKFDCNP@?$AAz?$AAh?$AA?9?$AAM?$AAO@ 0000000180029b78     libucrt:lcidtoname_downlevel.obj
 0002:00006b88       ??_C@_1M@GEEFALPE@?$AAd?$AAe?$AA?9?$AAL?$AAI@ 0000000180029b88     libucrt:lcidtoname_downlevel.obj
 0002:00006b98       ??_C@_1M@IGEOFBG@?$AAe?$AAn?$AA?9?$AAN?$AAZ@ 0000000180029b98     libucrt:lcidtoname_downlevel.obj
 0002:00006ba8       ??_C@_1M@KDBONEHP@?$AAe?$AAs?$AA?9?$AAC?$AAR@ 0000000180029ba8     libucrt:lcidtoname_downlevel.obj
 0002:00006bb8       ??_C@_1M@FHMDOHNN@?$AAf?$AAr?$AA?9?$AAL?$AAU@ 0000000180029bb8     libucrt:lcidtoname_downlevel.obj
 0002:00006bc8       ??_C@_1BG@NFKKMAFG@?$AAb?$AAs?$AA?9?$AAB?$AAA?$AA?9?$AAL?$AAa?$AAt?$AAn@ 0000000180029bc8     libucrt:lcidtoname_downlevel.obj
 0002:00006be0       ??_C@_1O@IMNBEMCI@?$AAs?$AAm?$AAj?$AA?9?$AAS?$AAE@ 0000000180029be0     libucrt:lcidtoname_downlevel.obj
 0002:00006bf0       ??_C@_1M@DHHMBNDP@?$AAa?$AAr?$AA?9?$AAM?$AAA@ 0000000180029bf0     libucrt:lcidtoname_downlevel.obj
 0002:00006c00       ??_C@_1M@BNBLJCGH@?$AAe?$AAn?$AA?9?$AAI?$AAE@ 0000000180029c00     libucrt:lcidtoname_downlevel.obj
 0002:00006c10       ??_C@_1M@GEPAFMDL@?$AAe?$AAs?$AA?9?$AAP?$AAA@ 0000000180029c10     libucrt:lcidtoname_downlevel.obj
 0002:00006c20       ??_C@_1M@OJONDMDL@?$AAf?$AAr?$AA?9?$AAM?$AAC@ 0000000180029c20     libucrt:lcidtoname_downlevel.obj
 0002:00006c30       ??_C@_1BG@OBCNFJB@?$AAs?$AAr?$AA?9?$AAB?$AAA?$AA?9?$AAL?$AAa?$AAt?$AAn@ 0000000180029c30     libucrt:lcidtoname_downlevel.obj
 0002:00006c48       ??_C@_1O@KEMEEGPO@?$AAs?$AAm?$AAa?$AA?9?$AAN?$AAO@ 0000000180029c48     libucrt:lcidtoname_downlevel.obj
 0002:00006c58       ??_C@_1M@ELMGFODK@?$AAa?$AAr?$AA?9?$AAT?$AAN@ 0000000180029c58     libucrt:lcidtoname_downlevel.obj
 0002:00006c68       ??_C@_1M@BHDLHFAF@?$AAe?$AAn?$AA?9?$AAZ?$AAA@ 0000000180029c68     libucrt:lcidtoname_downlevel.obj
 0002:00006c78       ??_C@_1M@BMGIGLIF@?$AAe?$AAs?$AA?9?$AAD?$AAO@ 0000000180029c78     libucrt:lcidtoname_downlevel.obj
 0002:00006c88       ??_C@_1BG@CMBHIPBE@?$AAs?$AAr?$AA?9?$AAB?$AAA?$AA?9?$AAC?$AAy?$AAr?$AAl@ 0000000180029c88     libucrt:lcidtoname_downlevel.obj
 0002:00006ca0       ??_C@_1O@HEDBLHNP@?$AAs?$AAm?$AAa?$AA?9?$AAS?$AAE@ 0000000180029ca0     libucrt:lcidtoname_downlevel.obj
 0002:00006cb0       ??_C@_1M@DAGCADIM@?$AAa?$AAr?$AA?9?$AAO?$AAM@ 0000000180029cb0     libucrt:lcidtoname_downlevel.obj
 0002:00006cc0       ??_C@_1M@FODLMICG@?$AAe?$AAn?$AA?9?$AAJ?$AAM@ 0000000180029cc0     libucrt:lcidtoname_downlevel.obj
 0002:00006cd0       ??_C@_1M@DNMLCIHB@?$AAe?$AAs?$AA?9?$AAV?$AAE@ 0000000180029cd0     libucrt:lcidtoname_downlevel.obj
 0002:00006ce0       ??_C@_1O@EOKHMKJK@?$AAs?$AAm?$AAs?$AA?9?$AAF?$AAI@ 0000000180029ce0     libucrt:lcidtoname_downlevel.obj
 0002:00006cf0       ??_C@_1M@CAFJMKOF@?$AAa?$AAr?$AA?9?$AAY?$AAE@ 0000000180029cf0     libucrt:lcidtoname_downlevel.obj
 0002:00006d00       ??_C@_1M@CBFHIJLI@?$AAe?$AAn?$AA?9?$AAC?$AAB@ 0000000180029d00     libucrt:lcidtoname_downlevel.obj
 0002:00006d10       ??_C@_1M@BGNFLDN@?$AAe?$AAs?$AA?9?$AAC?$AAO@ 0000000180029d10     libucrt:lcidtoname_downlevel.obj
 0002:00006d20       ??_C@_1O@JMPHMAMC@?$AAs?$AAm?$AAn?$AA?9?$AAF?$AAI@ 0000000180029d20     libucrt:lcidtoname_downlevel.obj
 0002:00006d30       ??_C@_1M@JLANABKE@?$AAa?$AAr?$AA?9?$AAS?$AAY@ 0000000180029d30     libucrt:lcidtoname_downlevel.obj
 0002:00006d40       ??_C@_1M@HPKGCFGN@?$AAe?$AAn?$AA?9?$AAB?$AAZ@ 0000000180029d40     libucrt:lcidtoname_downlevel.obj
 0002:00006d50       ??_C@_1M@OLJCMLGM@?$AAe?$AAs?$AA?9?$AAP?$AAE@ 0000000180029d50     libucrt:lcidtoname_downlevel.obj
 0002:00006d60       ??_C@_1M@MKKGFKLE@?$AAa?$AAr?$AA?9?$AAJ?$AAO@ 0000000180029d60     libucrt:lcidtoname_downlevel.obj
 0002:00006d70       ??_C@_1M@EKPGLDNI@?$AAe?$AAn?$AA?9?$AAT?$AAT@ 0000000180029d70     libucrt:lcidtoname_downlevel.obj
 0002:00006d80       ??_C@_1M@OONGHFHE@?$AAe?$AAs?$AA?9?$AAA?$AAR@ 0000000180029d80     libucrt:lcidtoname_downlevel.obj
 0002:00006d90       ??_C@_1M@OOJFGBHE@?$AAa?$AAr?$AA?9?$AAL?$AAB@ 0000000180029d90     libucrt:lcidtoname_downlevel.obj
 0002:00006da0       ??_C@_1M@GCEJHNEG@?$AAe?$AAn?$AA?9?$AAZ?$AAW@ 0000000180029da0     libucrt:lcidtoname_downlevel.obj
 0002:00006db0       ??_C@_1M@JNOCAHJI@?$AAe?$AAs?$AA?9?$AAE?$AAC@ 0000000180029db0     libucrt:lcidtoname_downlevel.obj
 0002:00006dc0       ??_C@_1M@JEFHPGGB@?$AAa?$AAr?$AA?9?$AAK?$AAW@ 0000000180029dc0     libucrt:lcidtoname_downlevel.obj
 0002:00006dd0       ??_C@_1M@MLKIBJOJ@?$AAe?$AAn?$AA?9?$AAP?$AAH@ 0000000180029dd0     libucrt:lcidtoname_downlevel.obj
 0002:00006de0       ??_C@_1M@BDNIPEND@?$AAe?$AAs?$AA?9?$AAC?$AAL@ 0000000180029de0     libucrt:lcidtoname_downlevel.obj
 0002:00006df0       ??_C@_1M@MPNMEKBD@?$AAa?$AAr?$AA?9?$AAA?$AAE@ 0000000180029df0     libucrt:lcidtoname_downlevel.obj
 0002:00006e00       ??_C@_1M@KBJALCPI@?$AAe?$AAs?$AA?9?$AAU?$AAY@ 0000000180029e00     libucrt:lcidtoname_downlevel.obj
 0002:00006e10       ??_C@_1M@LLCCOAGA@?$AAa?$AAr?$AA?9?$AAB?$AAH@ 0000000180029e10     libucrt:lcidtoname_downlevel.obj
 0002:00006e20       ??_C@_1M@PBFNCDEL@?$AAe?$AAs?$AA?9?$AAP?$AAY@ 0000000180029e20     libucrt:lcidtoname_downlevel.obj
 0002:00006e30       ??_C@_1M@EDGINPNP@?$AAa?$AAr?$AA?9?$AAQ?$AAA@ 0000000180029e30     libucrt:lcidtoname_downlevel.obj
 0002:00006e40       ??_C@_1M@MKDBIIJI@?$AAe?$AAs?$AA?9?$AAB?$AAO@ 0000000180029e40     libucrt:lcidtoname_downlevel.obj
 0002:00006e50       ??_C@_1M@CPKKEBLD@?$AAe?$AAs?$AA?9?$AAS?$AAV@ 0000000180029e50     libucrt:lcidtoname_downlevel.obj
 0002:00006e60       ??_C@_1M@NDBGMMJL@?$AAe?$AAs?$AA?9?$AAH?$AAN@ 0000000180029e60     libucrt:lcidtoname_downlevel.obj
 0002:00006e70       ??_C@_1M@JIJIBHDP@?$AAe?$AAs?$AA?9?$AAN?$AAI@ 0000000180029e70     libucrt:lcidtoname_downlevel.obj
 0002:00006e80       ??_C@_1M@CGFMKEEK@?$AAe?$AAs?$AA?9?$AAP?$AAR@ 0000000180029e80     libucrt:lcidtoname_downlevel.obj
 0002:00006e90       ??_C@_1O@ICJHKIIK@?$AAz?$AAh?$AA?9?$AAC?$AAH?$AAT@ 0000000180029e90     libucrt:lcidtoname_downlevel.obj
 0002:00006ea0       ??_C@_15CLNEJCE@?$AAs?$AAr@ 0000000180029ea0     libucrt:lcidtoname_downlevel.obj
 0002:00007cf0       ??_C@_1M@KAHEKEIG@?$AAa?$AAf?$AA?9?$AAz?$AAa@ 000000018002acf0     libucrt:lcidtoname_downlevel.obj
 0002:00007d00       ??_C@_1M@GIECOABL@?$AAa?$AAr?$AA?9?$AAa?$AAe@ 000000018002ad00     libucrt:lcidtoname_downlevel.obj
 0002:00007d10       ??_C@_1M@BMLMEKGI@?$AAa?$AAr?$AA?9?$AAb?$AAh@ 000000018002ad10     libucrt:lcidtoname_downlevel.obj
 0002:00007d20       ??_C@_1M@DAPFDGGB@?$AAa?$AAr?$AA?9?$AAd?$AAz@ 000000018002ad20     libucrt:lcidtoname_downlevel.obj
 0002:00007d30       ??_C@_1M@FJNKGKIG@?$AAa?$AAr?$AA?9?$AAe?$AAg@ 000000018002ad30     libucrt:lcidtoname_downlevel.obj
 0002:00007d40       ??_C@_1M@FLGKKCLO@?$AAa?$AAr?$AA?9?$AAi?$AAq@ 000000018002ad40     libucrt:lcidtoname_downlevel.obj
 0002:00007d50       ??_C@_1M@GNDIPALM@?$AAa?$AAr?$AA?9?$AAj?$AAo@ 000000018002ad50     libucrt:lcidtoname_downlevel.obj
 0002:00007d60       ??_C@_1M@DDMJFMGJ@?$AAa?$AAr?$AA?9?$AAk?$AAw@ 000000018002ad60     libucrt:lcidtoname_downlevel.obj
 0002:00007d70       ??_C@_1M@EJALMLHM@?$AAa?$AAr?$AA?9?$AAl?$AAb@ 000000018002ad70     libucrt:lcidtoname_downlevel.obj
 0002:00007d80       ??_C@_1M@MOBDBLOC@?$AAa?$AAr?$AA?9?$AAl?$AAy@ 000000018002ad80     libucrt:lcidtoname_downlevel.obj
 0002:00007d90       ??_C@_1M@JAOCLHDH@?$AAa?$AAr?$AA?9?$AAm?$AAa@ 000000018002ad90     libucrt:lcidtoname_downlevel.obj
 0002:00007da0       ??_C@_1M@JHPMKJIE@?$AAa?$AAr?$AA?9?$AAo?$AAm@ 000000018002ada0     libucrt:lcidtoname_downlevel.obj
 0002:00007db0       ??_C@_1M@OEPGHFNH@?$AAa?$AAr?$AA?9?$AAq?$AAa@ 000000018002adb0     libucrt:lcidtoname_downlevel.obj
 0002:00007dc0       ??_C@_1M@KJDONENM@?$AAa?$AAr?$AA?9?$AAs?$AAa@ 000000018002adc0     libucrt:lcidtoname_downlevel.obj
 0002:00007dd0       ??_C@_1M@DMJDKLKM@?$AAa?$AAr?$AA?9?$AAs?$AAy@ 000000018002add0     libucrt:lcidtoname_downlevel.obj
 0002:00007de0       ??_C@_1M@OMFIPEDC@?$AAa?$AAr?$AA?9?$AAt?$AAn@ 000000018002ade0     libucrt:lcidtoname_downlevel.obj
 0002:00007df0       ??_C@_1M@IHMHGAON@?$AAa?$AAr?$AA?9?$AAy?$AAe@ 000000018002adf0     libucrt:lcidtoname_downlevel.obj
 0002:00007e00       ??_C@_1BG@KDCPGJGB@?$AAa?$AAz?$AA?9?$AAa?$AAz?$AA?9?$AAc?$AAy?$AAr?$AAl@ 000000018002ae00     libucrt:lcidtoname_downlevel.obj
 0002:00007e18       ??_C@_1BG@IBCKDDOE@?$AAa?$AAz?$AA?9?$AAa?$AAz?$AA?9?$AAl?$AAa?$AAt?$AAn@ 000000018002ae18     libucrt:lcidtoname_downlevel.obj
 0002:00007e30       ??_C@_1M@EGPFDCPD@?$AAb?$AAe?$AA?9?$AAb?$AAy@ 000000018002ae30     libucrt:lcidtoname_downlevel.obj
 0002:00007e40       ??_C@_1M@PCMGMCGC@?$AAb?$AAg?$AA?9?$AAb?$AAg@ 000000018002ae40     libucrt:lcidtoname_downlevel.obj
 0002:00007e50       ??_C@_1M@BJBMFGOB@?$AAb?$AAn?$AA?9?$AAi?$AAn@ 000000018002ae50     libucrt:lcidtoname_downlevel.obj
 0002:00007e60       ??_C@_1BG@EAKMMACD@?$AAb?$AAs?$AA?9?$AAb?$AAa?$AA?9?$AAl?$AAa?$AAt?$AAn@ 000000018002ae60     libucrt:lcidtoname_downlevel.obj
 0002:00007e78       ??_C@_1M@KGADAODK@?$AAc?$AAa?$AA?9?$AAe?$AAs@ 000000018002ae78     libucrt:lcidtoname_downlevel.obj
 0002:00007e88       ??_C@_1M@COAJPDHI@?$AAc?$AAs?$AA?9?$AAc?$AAz@ 000000018002ae88     libucrt:lcidtoname_downlevel.obj
 0002:00007e98       ??_C@_1M@DHBHFONH@?$AAc?$AAy?$AA?9?$AAg?$AAb@ 000000018002ae98     libucrt:lcidtoname_downlevel.obj
 0002:00007ea8       ??_C@_1M@IMGKELGA@?$AAd?$AAa?$AA?9?$AAd?$AAk@ 000000018002aea8     libucrt:lcidtoname_downlevel.obj
 0002:00007eb8       ??_C@_1M@NNDGDNGA@?$AAd?$AAe?$AA?9?$AAa?$AAt@ 000000018002aeb8     libucrt:lcidtoname_downlevel.obj
 0002:00007ec8       ??_C@_1M@IKDBHEEM@?$AAd?$AAe?$AA?9?$AAc?$AAh@ 000000018002aec8     libucrt:lcidtoname_downlevel.obj
 0002:00007ed8       ??_C@_1M@GFFOJMCJ@?$AAd?$AAe?$AA?9?$AAd?$AAe@ 000000018002aed8     libucrt:lcidtoname_downlevel.obj
 0002:00007ee8       ??_C@_1M@MDNLKBPM@?$AAd?$AAe?$AA?9?$AAl?$AAi@ 000000018002aee8     libucrt:lcidtoname_downlevel.obj
 0002:00007ef8       ??_C@_1M@NJBEEJNL@?$AAd?$AAe?$AA?9?$AAl?$AAu@ 000000018002aef8     libucrt:lcidtoname_downlevel.obj
 0002:00007f08       ??_C@_1O@GNNELBAP@?$AAd?$AAi?$AAv?$AA?9?$AAm?$AAv@ 000000018002af08     libucrt:lcidtoname_downlevel.obj
 0002:00007f18       ??_C@_1M@EJLEOGAE@?$AAe?$AAl?$AA?9?$AAg?$AAr@ 000000018002af18     libucrt:lcidtoname_downlevel.obj
 0002:00007f28       ??_C@_1M@GMPONJN@?$AAe?$AAn?$AA?9?$AAa?$AAu@ 000000018002af28     libucrt:lcidtoname_downlevel.obj
 0002:00007f38       ??_C@_1M@NIDIIPGF@?$AAe?$AAn?$AA?9?$AAb?$AAz@ 000000018002af38     libucrt:lcidtoname_downlevel.obj
 0002:00007f48       ??_C@_1M@JEHMIMFO@?$AAe?$AAn?$AA?9?$AAc?$AAa@ 000000018002af48     libucrt:lcidtoname_downlevel.obj
 0002:00007f58       ??_C@_1M@IGMJCDLA@?$AAe?$AAn?$AA?9?$AAc?$AAb@ 000000018002af58     libucrt:lcidtoname_downlevel.obj
 0002:00007f68       ??_C@_1M@BNFIGBKG@?$AAe?$AAn?$AA?9?$AAg?$AAb@ 000000018002af68     libucrt:lcidtoname_downlevel.obj
 0002:00007f78       ??_C@_1M@LKIFDIGP@?$AAe?$AAn?$AA?9?$AAi?$AAe@ 000000018002af78     libucrt:lcidtoname_downlevel.obj
 0002:00007f88       ??_C@_1M@PJKFGCCO@?$AAe?$AAn?$AA?9?$AAj?$AAm@ 000000018002af88     libucrt:lcidtoname_downlevel.obj
 0002:00007f98       ??_C@_1M@KPPKEPBO@?$AAe?$AAn?$AA?9?$AAn?$AAz@ 000000018002af98     libucrt:lcidtoname_downlevel.obj
 0002:00007fa8       ??_C@_1M@GMDGLDOB@?$AAe?$AAn?$AA?9?$AAp?$AAh@ 000000018002afa8     libucrt:lcidtoname_downlevel.obj
 0002:00007fb8       ??_C@_1M@ONGIBJNA@?$AAe?$AAn?$AA?9?$AAt?$AAt@ 000000018002afb8     libucrt:lcidtoname_downlevel.obj
 0002:00007fc8       ??_C@_1M@LLODPCMM@?$AAe?$AAn?$AA?9?$AAu?$AAs@ 000000018002afc8     libucrt:lcidtoname_downlevel.obj
 0002:00007fd8       ??_C@_1M@LAKFNPAN@?$AAe?$AAn?$AA?9?$AAz?$AAa@ 000000018002afd8     libucrt:lcidtoname_downlevel.obj
 0002:00007fe8       ??_C@_1M@MFNHNHEO@?$AAe?$AAn?$AA?9?$AAz?$AAw@ 000000018002afe8     libucrt:lcidtoname_downlevel.obj
 0002:00007ff8       ??_C@_1M@EJEINPHM@?$AAe?$AAs?$AA?9?$AAa?$AAr@ 000000018002aff8     libucrt:lcidtoname_downlevel.obj
 0002:00008008       ??_C@_1M@GNKPCCJA@?$AAe?$AAs?$AA?9?$AAb?$AAo@ 000000018002b008     libucrt:lcidtoname_downlevel.obj
 0002:00008018       ??_C@_1M@LEEGFONL@?$AAe?$AAs?$AA?9?$AAc?$AAl@ 000000018002b018     libucrt:lcidtoname_downlevel.obj
 0002:00008028       ??_C@_1M@KGPDPBDF@?$AAe?$AAs?$AA?9?$AAc?$AAo@ 000000018002b028     libucrt:lcidtoname_downlevel.obj
 0002:00008038       ??_C@_1M@EIAHOHH@?$AAe?$AAs?$AA?9?$AAc?$AAr@ 000000018002b038     libucrt:lcidtoname_downlevel.obj
 0002:00008048       ??_C@_1M@LLPGMBIN@?$AAe?$AAs?$AA?9?$AAd?$AAo@ 000000018002b048     libucrt:lcidtoname_downlevel.obj
 0002:00008058       ??_C@_1M@DKHMKNJA@?$AAe?$AAs?$AA?9?$AAe?$AAc@ 000000018002b058     libucrt:lcidtoname_downlevel.obj
 0002:00008068       ??_C@_1M@GKGFPKAP@?$AAe?$AAs?$AA?9?$AAe?$AAs@ 000000018002b068     libucrt:lcidtoname_downlevel.obj
 0002:00008078       ??_C@_1M@LKHKGDLN@?$AAe?$AAs?$AA?9?$AAg?$AAt@ 000000018002b078     libucrt:lcidtoname_downlevel.obj
 0002:00008088       ??_C@_1M@HEIIGGJD@?$AAe?$AAs?$AA?9?$AAh?$AAn@ 000000018002b088     libucrt:lcidtoname_downlevel.obj
 0002:00008098       ??_C@_1M@FBDHPPGD@?$AAe?$AAs?$AA?9?$AAm?$AAx@ 000000018002b098     libucrt:lcidtoname_downlevel.obj
 0002:000080a8       ??_C@_1M@DPAGLNDH@?$AAe?$AAs?$AA?9?$AAn?$AAi@ 000000018002b0a8     libucrt:lcidtoname_downlevel.obj
 0002:000080b8       ??_C@_1M@MDGOPGDD@?$AAe?$AAs?$AA?9?$AAp?$AAa@ 000000018002b0b8     libucrt:lcidtoname_downlevel.obj
 0002:000080c8       ??_C@_1M@EMAMGBGE@?$AAe?$AAs?$AA?9?$AAp?$AAe@ 000000018002b0c8     libucrt:lcidtoname_downlevel.obj
 0002:000080d8       ??_C@_1M@IBMCAOEC@?$AAe?$AAs?$AA?9?$AAp?$AAr@ 000000018002b0d8     libucrt:lcidtoname_downlevel.obj
 0002:000080e8       ??_C@_1M@FGMDIJED@?$AAe?$AAs?$AA?9?$AAp?$AAy@ 000000018002b0e8     libucrt:lcidtoname_downlevel.obj
 0002:000080f8       ??_C@_1M@IIDEOLLL@?$AAe?$AAs?$AA?9?$AAs?$AAv@ 000000018002b0f8     libucrt:lcidtoname_downlevel.obj
 0002:00008108       ??_C@_1M@GAOBIPA@?$AAe?$AAs?$AA?9?$AAu?$AAy@ 000000018002b108     libucrt:lcidtoname_downlevel.obj
 0002:00008118       ??_C@_1M@JKFFICHJ@?$AAe?$AAs?$AA?9?$AAv?$AAe@ 000000018002b118     libucrt:lcidtoname_downlevel.obj
 0002:00008128       ??_C@_1M@PNMLOJDF@?$AAe?$AAt?$AA?9?$AAe?$AAe@ 000000018002b128     libucrt:lcidtoname_downlevel.obj
 0002:00008138       ??_C@_1M@GHHLIKEI@?$AAe?$AAu?$AA?9?$AAe?$AAs@ 000000018002b138     libucrt:lcidtoname_downlevel.obj
 0002:00008148       ??_C@_1M@PBNONODE@?$AAf?$AAa?$AA?9?$AAi?$AAr@ 000000018002b148     libucrt:lcidtoname_downlevel.obj
 0002:00008158       ??_C@_1M@JEEHPMIL@?$AAf?$AAi?$AA?9?$AAf?$AAi@ 000000018002b158     libucrt:lcidtoname_downlevel.obj
 0002:00008168       ??_C@_1M@LMDCNDBA@?$AAf?$AAo?$AA?9?$AAf?$AAo@ 000000018002b168     libucrt:lcidtoname_downlevel.obj
 0002:00008178       ??_C@_1M@JKEOHLDK@?$AAf?$AAr?$AA?9?$AAb?$AAe@ 000000018002b178     libucrt:lcidtoname_downlevel.obj
 0002:00008188       ??_C@_1M@NOHADPMI@?$AAf?$AAr?$AA?9?$AAc?$AAa@ 000000018002b188     libucrt:lcidtoname_downlevel.obj
 0002:00008198       ??_C@_1M@KDHIHAEC@?$AAf?$AAr?$AA?9?$AAc?$AAh@ 000000018002b198     libucrt:lcidtoname_downlevel.obj
 0002:000081a8       ??_C@_1M@MMBBFGAK@?$AAf?$AAr?$AA?9?$AAf?$AAr@ 000000018002b1a8     libucrt:lcidtoname_downlevel.obj
 0002:000081b8       ??_C@_1M@PAFNENNF@?$AAf?$AAr?$AA?9?$AAl?$AAu@ 000000018002b1b8     libucrt:lcidtoname_downlevel.obj
 0002:000081c8       ??_C@_1M@EOHDJGDD@?$AAf?$AAr?$AA?9?$AAm?$AAc@ 000000018002b1c8     libucrt:lcidtoname_downlevel.obj
 0002:000081d8       ??_C@_1M@FAPLLOPF@?$AAg?$AAl?$AA?9?$AAe?$AAs@ 000000018002b1d8     libucrt:lcidtoname_downlevel.obj
 0002:000081e8       ??_C@_1M@FOPBFLOO@?$AAg?$AAu?$AA?9?$AAi?$AAn@ 000000018002b1e8     libucrt:lcidtoname_downlevel.obj
 0002:000081f8       ??_C@_1M@KBMCINPM@?$AAh?$AAe?$AA?9?$AAi?$AAl@ 000000018002b1f8     libucrt:lcidtoname_downlevel.obj
 0002:00008208       ??_C@_1M@BBPHKFPJ@?$AAh?$AAi?$AA?9?$AAi?$AAn@ 000000018002b208     libucrt:lcidtoname_downlevel.obj
 0002:00008218       ??_C@_1M@PMBNDPHD@?$AAh?$AAr?$AA?9?$AAb?$AAa@ 000000018002b218     libucrt:lcidtoname_downlevel.obj
 0002:00008228       ??_C@_1M@BPCKOEGE@?$AAh?$AAr?$AA?9?$AAh?$AAr@ 000000018002b228     libucrt:lcidtoname_downlevel.obj
 0002:00008238       ??_C@_1M@GACBMHKE@?$AAh?$AAu?$AA?9?$AAh?$AAu@ 000000018002b238     libucrt:lcidtoname_downlevel.obj
 0002:00008248       ??_C@_1M@MILPAJJC@?$AAh?$AAy?$AA?9?$AAa?$AAm@ 000000018002b248     libucrt:lcidtoname_downlevel.obj
 0002:00008258       ??_C@_1M@BABBICEC@?$AAi?$AAd?$AA?9?$AAi?$AAd@ 000000018002b258     libucrt:lcidtoname_downlevel.obj
 0002:00008268       ??_C@_1M@BIKNHHPF@?$AAi?$AAs?$AA?9?$AAi?$AAs@ 000000018002b268     libucrt:lcidtoname_downlevel.obj
 0002:00008278       ??_C@_1M@NMPCJPHE@?$AAi?$AAt?$AA?9?$AAc?$AAh@ 000000018002b278     libucrt:lcidtoname_downlevel.obj
 0002:00008288       ??_C@_1M@GHKGFEDF@?$AAi?$AAt?$AA?9?$AAi?$AAt@ 000000018002b288     libucrt:lcidtoname_downlevel.obj
 0002:00008298       ??_C@_1M@NIEJCJJA@?$AAj?$AAa?$AA?9?$AAj?$AAp@ 000000018002b298     libucrt:lcidtoname_downlevel.obj
 0002:000082a8       ??_C@_1M@JILFNBIM@?$AAk?$AAa?$AA?9?$AAg?$AAe@ 000000018002b2a8     libucrt:lcidtoname_downlevel.obj
 0002:000082b8       ??_C@_1M@PACPMGPH@?$AAk?$AAk?$AA?9?$AAk?$AAz@ 000000018002b2b8     libucrt:lcidtoname_downlevel.obj
 0002:000082c8       ??_C@_1M@IELFGMHA@?$AAk?$AAn?$AA?9?$AAi?$AAn@ 000000018002b2c8     libucrt:lcidtoname_downlevel.obj
 0002:000082d8       ??_C@_1O@IBBJHCH@?$AAk?$AAo?$AAk?$AA?9?$AAi?$AAn@ 000000018002b2d8     libucrt:lcidtoname_downlevel.obj
 0002:000082e8       ??_C@_1M@DMHAEOGC@?$AAk?$AAo?$AA?9?$AAk?$AAr@ 000000018002b2e8     libucrt:lcidtoname_downlevel.obj
 0002:000082f8       ??_C@_1M@HBAHBIGA@?$AAk?$AAy?$AA?9?$AAk?$AAg@ 000000018002b2f8     libucrt:lcidtoname_downlevel.obj
 0002:00008308       ??_C@_1M@KPMILCJG@?$AAl?$AAt?$AA?9?$AAl?$AAt@ 000000018002b308     libucrt:lcidtoname_downlevel.obj
 0002:00008318       ??_C@_1M@BDEKKCA@?$AAl?$AAv?$AA?9?$AAl?$AAv@ 000000018002b318     libucrt:lcidtoname_downlevel.obj
 0002:00008328       ??_C@_1M@ELCKCCJJ@?$AAm?$AAi?$AA?9?$AAn?$AAz@ 000000018002b328     libucrt:lcidtoname_downlevel.obj
 0002:00008338       ??_C@_1M@CBOOLAPA@?$AAm?$AAk?$AA?9?$AAm?$AAk@ 000000018002b338     libucrt:lcidtoname_downlevel.obj
 0002:00008348       ??_C@_1M@GPHNBJKN@?$AAm?$AAl?$AA?9?$AAi?$AAn@ 000000018002b348     libucrt:lcidtoname_downlevel.obj
 0002:00008358       ??_C@_1M@PABJILIG@?$AAm?$AAn?$AA?9?$AAm?$AAn@ 000000018002b358     libucrt:lcidtoname_downlevel.obj
 0002:00008368       ??_C@_1M@FGBKKIPG@?$AAm?$AAr?$AA?9?$AAi?$AAn@ 000000018002b368     libucrt:lcidtoname_downlevel.obj
 0002:00008378       ??_C@_1M@NDBPDDAL@?$AAm?$AAs?$AA?9?$AAb?$AAn@ 000000018002b378     libucrt:lcidtoname_downlevel.obj
 0002:00008388       ??_C@_1M@OPIHOOPI@?$AAm?$AAs?$AA?9?$AAm?$AAy@ 000000018002b388     libucrt:lcidtoname_downlevel.obj
 0002:00008398       ??_C@_1M@PPDBCNFM@?$AAm?$AAt?$AA?9?$AAm?$AAt@ 000000018002b398     libucrt:lcidtoname_downlevel.obj
 0002:000083a8       ??_C@_1M@KDJDKMDD@?$AAn?$AAb?$AA?9?$AAn?$AAo@ 000000018002b3a8     libucrt:lcidtoname_downlevel.obj
 0002:000083b8       ??_C@_1M@KFCFLMJP@?$AAn?$AAl?$AA?9?$AAb?$AAe@ 000000018002b3b8     libucrt:lcidtoname_downlevel.obj
 0002:000083c8       ??_C@_1M@KPOPDDGO@?$AAn?$AAl?$AA?9?$AAn?$AAl@ 000000018002b3c8     libucrt:lcidtoname_downlevel.obj
 0002:000083d8       ??_C@_1M@LJKPEMLN@?$AAn?$AAn?$AA?9?$AAn?$AAo@ 000000018002b3d8     libucrt:lcidtoname_downlevel.obj
 0002:000083e8       ??_C@_1M@BDGHHBFL@?$AAn?$AAs?$AA?9?$AAz?$AAa@ 000000018002b3e8     libucrt:lcidtoname_downlevel.obj
 0002:000083f8       ??_C@_1M@IDEHOAP@?$AAp?$AAa?$AA?9?$AAi?$AAn@ 000000018002b3f8     libucrt:lcidtoname_downlevel.obj
 0002:00008408       ??_C@_1M@HDBKGOGH@?$AAp?$AAl?$AA?9?$AAp?$AAl@ 000000018002b408     libucrt:lcidtoname_downlevel.obj
 0002:00008418       ??_C@_1M@LJLLCMEH@?$AAp?$AAt?$AA?9?$AAb?$AAr@ 000000018002b418     libucrt:lcidtoname_downlevel.obj
 0002:00008428       ??_C@_1M@NCMONAAL@?$AAp?$AAt?$AA?9?$AAp?$AAt@ 000000018002b428     libucrt:lcidtoname_downlevel.obj
 0002:00008438       ??_C@_1O@EAKMAJDN@?$AAq?$AAu?$AAz?$AA?9?$AAb?$AAo@ 000000018002b438     libucrt:lcidtoname_downlevel.obj
 0002:00008448       ??_C@_1O@BHHPIGDN@?$AAq?$AAu?$AAz?$AA?9?$AAe?$AAc@ 000000018002b448     libucrt:lcidtoname_downlevel.obj
 0002:00008458       ??_C@_1O@GBAPEKMJ@?$AAq?$AAu?$AAz?$AA?9?$AAp?$AAe@ 000000018002b458     libucrt:lcidtoname_downlevel.obj
 0002:00008468       ??_C@_1M@CLGLEFBO@?$AAr?$AAo?$AA?9?$AAr?$AAo@ 000000018002b468     libucrt:lcidtoname_downlevel.obj
 0002:00008478       ??_C@_1M@CEEDODME@?$AAr?$AAu?$AA?9?$AAr?$AAu@ 000000018002b478     libucrt:lcidtoname_downlevel.obj
 0002:00008488       ??_C@_1M@HPKKKMPP@?$AAs?$AAa?$AA?9?$AAi?$AAn@ 000000018002b488     libucrt:lcidtoname_downlevel.obj
 0002:00008498       ??_C@_1M@BKMAIGOJ@?$AAs?$AAe?$AA?9?$AAf?$AAi@ 000000018002b498     libucrt:lcidtoname_downlevel.obj
 0002:000084a8       ??_C@_1M@NDPIFLFI@?$AAs?$AAe?$AA?9?$AAn?$AAo@ 000000018002b4a8     libucrt:lcidtoname_downlevel.obj
 0002:000084b8       ??_C@_1M@DANKKHJ@?$AAs?$AAe?$AA?9?$AAs?$AAe@ 000000018002b4b8     libucrt:lcidtoname_downlevel.obj
 0002:000084c8       ??_C@_1M@PNBLONPJ@?$AAs?$AAk?$AA?9?$AAs?$AAk@ 000000018002b4c8     libucrt:lcidtoname_downlevel.obj
 0002:000084d8       ??_C@_1M@LFMODOAL@?$AAs?$AAl?$AA?9?$AAs?$AAi@ 000000018002b4d8     libucrt:lcidtoname_downlevel.obj
 0002:000084e8       ??_C@_1O@DFKOMPG@?$AAs?$AAm?$AAa?$AA?9?$AAn?$AAo@ 000000018002b4e8     libucrt:lcidtoname_downlevel.obj
 0002:000084f8       ??_C@_1O@NDKPBNNH@?$AAs?$AAm?$AAa?$AA?9?$AAs?$AAe@ 000000018002b4f8     libucrt:lcidtoname_downlevel.obj
 0002:00008508       ??_C@_1O@PLLKBHAB@?$AAs?$AAm?$AAj?$AA?9?$AAn?$AAo@ 000000018002b508     libucrt:lcidtoname_downlevel.obj
 0002:00008518       ??_C@_1O@CLEPOGCA@?$AAs?$AAm?$AAj?$AA?9?$AAs?$AAe@ 000000018002b518     libucrt:lcidtoname_downlevel.obj
 0002:00008528       ??_C@_1O@DLGJGKMK@?$AAs?$AAm?$AAn?$AA?9?$AAf?$AAi@ 000000018002b528     libucrt:lcidtoname_downlevel.obj
 0002:00008538       ??_C@_1O@OJDJGAJC@?$AAs?$AAm?$AAs?$AA?9?$AAf?$AAi@ 000000018002b538     libucrt:lcidtoname_downlevel.obj
 0002:00008548       ??_C@_1M@BOFOGHPB@?$AAs?$AAq?$AA?9?$AAa?$AAl@ 000000018002b548     libucrt:lcidtoname_downlevel.obj
 0002:00008558       ??_C@_1BG@LJBBIPGB@?$AAs?$AAr?$AA?9?$AAb?$AAa?$AA?9?$AAc?$AAy?$AAr?$AAl@ 000000018002b558     libucrt:lcidtoname_downlevel.obj
 0002:00008570       ??_C@_1BG@JLBENFOE@?$AAs?$AAr?$AA?9?$AAb?$AAa?$AA?9?$AAl?$AAa?$AAt?$AAn@ 000000018002b570     libucrt:lcidtoname_downlevel.obj
 0002:00008588       ??_C@_1BG@KODPNHE@?$AAs?$AAr?$AA?9?$AAs?$AAp?$AA?9?$AAc?$AAy?$AAr?$AAl@ 000000018002b588     libucrt:lcidtoname_downlevel.obj
 0002:000085a0       ??_C@_1BG@CIOGKHPB@?$AAs?$AAr?$AA?9?$AAs?$AAp?$AA?9?$AAl?$AAa?$AAt?$AAn@ 000000018002b5a0     libucrt:lcidtoname_downlevel.obj
 0002:000085b8       ??_C@_1M@NGFJLMAC@?$AAs?$AAv?$AA?9?$AAf?$AAi@ 000000018002b5b8     libucrt:lcidtoname_downlevel.obj
 0002:000085c8       ??_C@_1M@MPJEJAJC@?$AAs?$AAv?$AA?9?$AAs?$AAe@ 000000018002b5c8     libucrt:lcidtoname_downlevel.obj
 0002:000085d8       ??_C@_1M@MPNDHLFK@?$AAs?$AAw?$AA?9?$AAk?$AAe@ 000000018002b5d8     libucrt:lcidtoname_downlevel.obj
 0002:000085e8       ??_C@_1O@KOHBJJI@?$AAs?$AAy?$AAr?$AA?9?$AAs?$AAy@ 000000018002b5e8     libucrt:lcidtoname_downlevel.obj
 0002:000085f8       ??_C@_1M@LDCEFHA@?$AAt?$AAa?$AA?9?$AAi?$AAn@ 000000018002b5f8     libucrt:lcidtoname_downlevel.obj
 0002:00008608       ??_C@_1M@CNJOFAK@?$AAt?$AAe?$AA?9?$AAi?$AAn@ 000000018002b608     libucrt:lcidtoname_downlevel.obj
 0002:00008618       ??_C@_1M@GNAECACD@?$AAt?$AAh?$AA?9?$AAt?$AAh@ 000000018002b618     libucrt:lcidtoname_downlevel.obj
 0002:00008628       ??_C@_1M@CHBIHOJO@?$AAt?$AAn?$AA?9?$AAz?$AAa@ 000000018002b628     libucrt:lcidtoname_downlevel.obj
 0002:00008638       ??_C@_1M@GCCMIGPJ@?$AAt?$AAr?$AA?9?$AAt?$AAr@ 000000018002b638     libucrt:lcidtoname_downlevel.obj
 0002:00008648       ??_C@_1M@CELMCNBK@?$AAt?$AAt?$AA?9?$AAr?$AAu@ 000000018002b648     libucrt:lcidtoname_downlevel.obj
 0002:00008658       ??_C@_1M@KLMCELGA@?$AAu?$AAk?$AA?9?$AAu?$AAa@ 000000018002b658     libucrt:lcidtoname_downlevel.obj
 0002:00008668       ??_C@_1M@EPAJJAJF@?$AAu?$AAr?$AA?9?$AAp?$AAk@ 000000018002b668     libucrt:lcidtoname_downlevel.obj
 0002:00008678       ??_C@_1BG@GEGPMCDJ@?$AAu?$AAz?$AA?9?$AAu?$AAz?$AA?9?$AAc?$AAy?$AAr?$AAl@ 000000018002b678     libucrt:lcidtoname_downlevel.obj
 0002:00008690       ??_C@_1BG@EGGKJILM@?$AAu?$AAz?$AA?9?$AAu?$AAz?$AA?9?$AAl?$AAa?$AAt?$AAn@ 000000018002b690     libucrt:lcidtoname_downlevel.obj
 0002:000086a8       ??_C@_1M@GFOCLFF@?$AAv?$AAi?$AA?9?$AAv?$AAn@ 000000018002b6a8     libucrt:lcidtoname_downlevel.obj
 0002:000086b8       ??_C@_1M@CPAMEDFI@?$AAx?$AAh?$AA?9?$AAz?$AAa@ 000000018002b6b8     libucrt:lcidtoname_downlevel.obj
 0002:000086c8       ??_C@_1O@EBKIFIGN@?$AAz?$AAh?$AA?9?$AAc?$AAh?$AAs@ 000000018002b6c8     libucrt:lcidtoname_downlevel.obj
 0002:000086d8       ??_C@_1O@NMHPGANE@?$AAz?$AAh?$AA?9?$AAc?$AAh?$AAt@ 000000018002b6d8     libucrt:lcidtoname_downlevel.obj
 0002:000086e8       ??_C@_1M@LPINJOMC@?$AAz?$AAh?$AA?9?$AAc?$AAn@ 000000018002b6e8     libucrt:lcidtoname_downlevel.obj
 0002:000086f8       ??_C@_1M@OCJEJODD@?$AAz?$AAh?$AA?9?$AAh?$AAk@ 000000018002b6f8     libucrt:lcidtoname_downlevel.obj
 0002:00008708       ??_C@_1M@DNDLJINH@?$AAz?$AAh?$AA?9?$AAm?$AAo@ 000000018002b708     libucrt:lcidtoname_downlevel.obj
 0002:00008718       ??_C@_1M@MBFDNDND@?$AAz?$AAh?$AA?9?$AAs?$AAg@ 000000018002b718     libucrt:lcidtoname_downlevel.obj
 0002:00008728       ??_C@_1M@IMEPLEPE@?$AAz?$AAh?$AA?9?$AAt?$AAw@ 000000018002b728     libucrt:lcidtoname_downlevel.obj
 0002:00008738       ??_C@_1M@BBGHNHJP@?$AAz?$AAu?$AA?9?$AAz?$AAa@ 000000018002b738     libucrt:lcidtoname_downlevel.obj
 0002:00008750       ?large_power_data@?1??multiply_by_power_of_ten@__crt_strtox@@YA_NAEAUbig_integer@2@I@Z@4QBIB 000000018002b750     libucrt:cfout.obj
 0002:00009060       ?large_power_indices@?1??multiply_by_power_of_ten@__crt_strtox@@YA_NAEAUbig_integer@2@I@Z@4QBUunpack_index@?1??12@YA_N0I@Z@B 000000018002c060     libucrt:cfout.obj
 0002:000090f8       ?small_powers_of_ten@?1??multiply_by_power_of_ten@__crt_strtox@@YA_NAEAUbig_integer@2@I@Z@4QBIB 000000018002c0f8     libucrt:cfout.obj
 0002:0000911c       ??_C@_01GBGANLPD@0@        000000018002c11c     libucrt:cfout.obj
 0002:00009120       ??_C@_05DNEBIAHO@1?$CDINF@ 000000018002c120     libucrt:cfout.obj
 0002:00009128       ??_C@_06IMKFLFPG@1?$CDQNAN@ 000000018002c128     libucrt:cfout.obj
 0002:00009130       ??_C@_06PGGFOGJG@1?$CDSNAN@ 000000018002c130     libucrt:cfout.obj
 0002:00009138       ??_C@_05PHHOCPM@1?$CDIND@  000000018002c138     libucrt:cfout.obj
 0002:00009140       __real@3ff0000000000000    000000018002c140     libucrt:ceil.obj
 0002:000093a0       __log10_256_lead           000000018002c3a0     libucrt:log10_256_lead_tail_table.obj
 0002:00009bb0       __log10_256_tail           000000018002cbb0     libucrt:log10_256_lead_tail_table.obj
 0002:0000a3c0       __log_F_inv_qword          000000018002d3c0     libucrt:log_f_inv_qword_table.obj
 0002:0000abd0       ??_C@_05HGHHAHAP@log10@    000000018002dbd0     libucrt:log_special.obj
 0002:0000abd8       ??_C@_1BA@BALFACEM@?$AAC?$AAO?$AAN?$AAO?$AAU?$AAT?$AA$@ 000000018002dbd8     libucrt:initcon.obj
 0002:0000ac60       _load_config_used          000000018002dc60     LIBCMT:loadcfg.obj
 0002:0000ae00       _tls_used                  000000018002de00     LIBCMT:tlssup.obj
 0002:0000ae28       ??_R4exception@std@@6B@    000000018002de28     LIBCMT:throw_bad_alloc.obj
 0002:0000ae50       ??_R3exception@std@@8      000000018002de50     LIBCMT:throw_bad_alloc.obj
 0002:0000ae68       ??_R2exception@std@@8      000000018002de68     LIBCMT:throw_bad_alloc.obj
 0002:0000ae78       ??_R1A@?0A@EA@exception@std@@8 000000018002de78     LIBCMT:throw_bad_alloc.obj
 0002:0000aea0       ??_R4bad_alloc@std@@6B@    000000018002dea0     LIBCMT:throw_bad_alloc.obj
 0002:0000aec8       ??_R3bad_alloc@std@@8      000000018002dec8     LIBCMT:throw_bad_alloc.obj
 0002:0000aee0       ??_R2bad_alloc@std@@8      000000018002dee0     LIBCMT:throw_bad_alloc.obj
 0002:0000aef8       ??_R1A@?0A@EA@bad_alloc@std@@8 000000018002def8     LIBCMT:throw_bad_alloc.obj
 0002:0000af20       ??_R4bad_array_new_length@std@@6B@ 000000018002df20     LIBCMT:throw_bad_alloc.obj
 0002:0000af48       ??_R3bad_array_new_length@std@@8 000000018002df48     LIBCMT:throw_bad_alloc.obj
 0002:0000af60       ??_R2bad_array_new_length@std@@8 000000018002df60     LIBCMT:throw_bad_alloc.obj
 0002:0000af80       ??_R1A@?0A@EA@bad_array_new_length@std@@8 000000018002df80     LIBCMT:throw_bad_alloc.obj
 0002:0000afa8       ??_R4type_info@@6B@        000000018002dfa8     LIBCMT:std_type_info_static.obj
 0002:0000afd0       ??_R3type_info@@8          000000018002dfd0     LIBCMT:std_type_info_static.obj
 0002:0000afe8       ??_R2type_info@@8          000000018002dfe8     LIBCMT:std_type_info_static.obj
 0002:0000aff8       ??_R1A@?0A@EA@type_info@@8 000000018002dff8     LIBCMT:std_type_info_static.obj
 0002:0000b020       ??_R4bad_exception@std@@6B@ 000000018002e020     libvcruntime:frame.obj
 0002:0000b048       ??_R3bad_exception@std@@8  000000018002e048     libvcruntime:frame.obj
 0002:0000b060       ??_R2bad_exception@std@@8  000000018002e060     libvcruntime:frame.obj
 0002:0000b078       ??_R1A@?0A@EA@bad_exception@std@@8 000000018002e078     libvcruntime:frame.obj
 0002:0000b4a8       __rtc_iaa                  000000018002e4a8     LIBCMT:initsect.obj
 0002:0000b4b0       __rtc_izz                  000000018002e4b0     LIBCMT:initsect.obj
 0002:0000b4b8       __rtc_taa                  000000018002e4b8     LIBCMT:initsect.obj
 0002:0000b4c0       __rtc_tzz                  000000018002e4c0     LIBCMT:initsect.obj
 0002:0000b4c8       _tls_start                 000000018002e4c8     LIBCMT:tlssup.obj
 0002:0000b4cc       _Init_thread_epoch         000000018002e4cc     LIBCMT:thread_safe_statics.obj
 0002:0000b4d0       _tls_end                   000000018002e4d0     LIBCMT:tlssup.obj
 0002:0000cb68       _TI2?AVbad_alloc@std@@     000000018002fb68     LIBCMT:throw_bad_alloc.obj
 0002:0000cb88       _CTA2?AVbad_alloc@std@@    000000018002fb88     LIBCMT:throw_bad_alloc.obj
 0002:0000cba0       _CT??_R0?AVbad_alloc@std@@@8??0bad_alloc@std@@QEAA@AEBV01@@Z24 000000018002fba0     LIBCMT:throw_bad_alloc.obj
 0002:0000cbc8       _CT??_R0?AVexception@std@@@8??0exception@std@@QEAA@AEBV01@@Z24 000000018002fbc8     LIBCMT:throw_bad_alloc.obj
 0002:0000cbf0       _TI3?AVbad_array_new_length@std@@ 000000018002fbf0     LIBCMT:throw_bad_alloc.obj
 0002:0000cc10       _CTA3?AVbad_array_new_length@std@@ 000000018002fc10     LIBCMT:throw_bad_alloc.obj
 0002:0000cc30       _CT??_R0?AVbad_array_new_length@std@@@8??0bad_array_new_length@std@@QEAA@AEBV01@@Z24 000000018002fc30     LIBCMT:throw_bad_alloc.obj
 0002:0000cc58       _TI2?AVbad_exception@std@@ 000000018002fc58     libvcruntime:frame.obj
 0002:0000cc78       _CTA2?AVbad_exception@std@@ 000000018002fc78     libvcruntime:frame.obj
 0002:0000cc90       _CT??_R0?AVbad_exception@std@@@8??0bad_exception@std@@QEAA@AEBV01@@Z24 000000018002fc90     libvcruntime:frame.obj
 0002:0000ccb8       __pobjMapEntryFirst        000000018002fcb8     OposVariant.obj
 0002:0000ccc0       __pobjMapEntryLast         000000018002fcc0     OposVariant.obj
 0002:0000cd80       __IMPORT_DESCRIPTOR_KERNEL32 000000018002fd80     kernel32:KERNEL32.dll
 0002:0000cd94       __IMPORT_DESCRIPTOR_USER32 000000018002fd94     user32:USER32.dll
 0002:0000cda8       __IMPORT_DESCRIPTOR_GDI32  000000018002fda8     gdi32:GDI32.dll
 0002:0000cdbc       __IMPORT_DESCRIPTOR_ADVAPI32 000000018002fdbc     advapi32:ADVAPI32.dll
 0002:0000cdd0       __IMPORT_DESCRIPTOR_ole32  000000018002fdd0     ole32:ole32.dll
 0002:0000cde4       __IMPORT_DESCRIPTOR_OLEAUT32 000000018002fde4     oleaut32:OLEAUT32.dll
 0002:0000cdf8       __NULL_IMPORT_DESCRIPTOR   000000018002fdf8     kernel32:KERNEL32.dll
 0003:00000000       ?s_Claim@?7??GetIDsOfNames@CComTypeInfoHolder@ATL@@QEAAJAEBU_GUID@@PEAPEA_WIKPEAJ@Z@4PA_WA 0000000180032000     MotionSensor.obj
 0003:00000018       ?s_Release@?7??GetIDsOfNames@CComTypeInfoHolder@ATL@@QEAAJAEBU_GUID@@PEAPEA_WIKPEAJ@Z@4PA_WA 0000000180032018     MotionSensor.obj
 0003:00000038       ?_tih@?$IDispatchImpl@UIOPOSMotionSensor@@$1?IID_IOPOSMotionSensor@@3U_GUID@@B$1?LIBID_OposMotionSensor_CCO@@3U3@B$00$0A@VCComTypeInfoHolder@ATL@@@ATL@@1VCComTypeInfoHolder@2@A 0000000180032038     MotionSensor.obj
 0003:00000070       ?_tih@?$IProvideClassInfo2Impl@$1?CLSID_OPOSMotionSensor@@3U_GUID@@B$1?DIID__IOPOSMotionSensorEvents@@3U2@B$1?LIBID_OposMotionSensor_CCO@@3U2@B$00$0A@VCComTypeInfoHolder@ATL@@@ATL@@1VCComTypeInfoHolder@2@A 0000000180032070     MotionSensor.obj
 0003:000000a8       ?vszContents@?6??Save@?$IPersistStorageImpl@VCOPOSMotionSensor@@@ATL@@UEAAJPEAUIStorage@@H@Z@4PEB_WEB 00000001800320a8     MotionSensor.obj
 0003:000000b0       ?wc@?1??GetWndClassInfo@?$CWindowImpl@VCOPOSMotionSensor@@VCWindow@ATL@@V?$CWinTraits@$0FGAAAAAA@$0A@@3@@ATL@@SAAEAU_ATL_WNDCLASSINFOW@3@XZ@4U43@A 00000001800320b0     MotionSensor.obj
 0003:000001a8       ?rcDefault@CWindow@ATL@@2UtagRECT@@A 00000001800321a8     MotionSensor.obj
 0003:00000250       ?g_WindowName@@3PA_WA      0000000180032250     MotionSensorImpl.obj
 0003:00000278       ?g_ControlVersion@@3JA     0000000180032278     MotionSensorImpl.obj
 0003:00000280       ?g_ControlDescription@@3PADA 0000000180032280     MotionSensorImpl.obj
 0003:0000036c       __scrt_native_dllmain_reason 000000018003236c     LIBCMT:utility.obj
 0003:00000370       _Init_global_epoch         0000000180032370     LIBCMT:thread_safe_statics.obj
 0003:00000380       __security_cookie_complement 0000000180032380     LIBCMT:gs_cookie.obj
 0003:00000388       __security_cookie          0000000180032388     LIBCMT:gs_cookie.obj
 0003:00000390       __isa_available            0000000180032390     LIBCMT:cpu_disp.obj
 0003:00000394       __isa_enabled              0000000180032394     LIBCMT:cpu_disp.obj
 0003:00000398       __memcpy_nt_iters          0000000180032398     LIBCMT:cpu_disp.obj
 0003:000003a0       __memset_nt_iters          00000001800323a0     LIBCMT:cpu_disp.obj
 0003:000003c8       __abort_behavior           00000001800323c8     libucrt:abort.obj
 0003:000003e0       _iob                       00000001800323e0     libucrt:_file.obj
 0003:000004f0       __acrt_initial_locale_data 00000001800324f0     libucrt:nlsdata.obj
 0003:00000648       __acrt_initial_locale_pointers 0000000180032648     libucrt:nlsdata.obj
 0003:00000658       __acrt_wide_c_locale_string 0000000180032658     libucrt:nlsdata.obj
 0003:00000660       __acrt_initial_multibyte_data 0000000180032660     libucrt:mbctype.obj
 0003:00000ba0       _pwctype                   0000000180032ba0     libucrt:ctype.obj
 0003:00000ba8       __globallocalestatus       0000000180032ba8     libucrt:glstatus.obj
 0003:00000bb0       __acrt_lconv_c             0000000180032bb0     libucrt:localeconv.obj
 0003:00000c48       __acrt_lconv_static_decimal 0000000180032c48     libucrt:localeconv.obj
 0003:00000c4c       __acrt_lconv_static_W_decimal 0000000180032c4c     libucrt:localeconv.obj
 0003:00000c50       _lookuptrailbytes          0000000180032c50     libucrt:read.obj
 0003:00000d74       _fltused                   0000000180032d74     LIBCMT:fltused.obj
 0003:00000d78       ??_R0?AVbad_alloc@std@@@8  0000000180032d78     LIBCMT:throw_bad_alloc.obj
 0003:00000da0       ??_R0?AVexception@std@@@8  0000000180032da0     LIBCMT:throw_bad_alloc.obj
 0003:00000dc8       ??_R0?AVbad_array_new_length@std@@@8 0000000180032dc8     LIBCMT:throw_bad_alloc.obj
 0003:00000df8       ??_R0?AVtype_info@@@8      0000000180032df8     LIBCMT:std_type_info_static.obj
 0003:00000e18       ??_R0?AVbad_exception@std@@@8 0000000180032e18     libvcruntime:frame.obj
 0003:00000e40       ?_pPerfRegFunc@ATL@@3P6AJPEAUHINSTANCE__@@@ZEA 0000000180032e40     OposVariant.obj
 0003:00000e48       ?_pPerfUnRegFunc@ATL@@3P6AJXZEA 0000000180032e48     OposVariant.obj
 0003:00000e50       ?_AtlRegisterPerUser@ATL@@3_NA 0000000180032e50     OposVariant.obj
 0003:00000e58       ?_pAtlModule@ATL@@3PEAVCAtlModule@1@EA 0000000180032e58     OposVariant.obj
 0003:00000e60       ?_pModule@ATL@@3PEAVCComModule@1@EA 0000000180032e60     OposVariant.obj
 0003:00000e68       ?m_bInitFailed@CAtlBaseModule@ATL@@2_NA 0000000180032e68     OposVariant.obj
 0003:00000e70       ?_AtlComModule@ATL@@3VCAtlComModule@1@A 0000000180032e70     OposVariant.obj
 0003:00000ec0       ?_AtlWinModule@ATL@@3VCAtlWinModule@1@A 0000000180032ec0     OposVariant.obj
 0003:00000f08       ?m_libid@CAtlModule@ATL@@2U_GUID@@A 0000000180032f08     MotionSensor.obj
 0003:00000f18       ?_entries@?1??GetConnMap@COPOSMotionSensor@@SAPEBU_ATL_CONNMAP_ENTRY@ATL@@PEAH@Z@4QBU34@B 0000000180032f18     MotionSensor.obj
 0003:00000f30       ?$TSS0@?1??GetConnMap@COPOSMotionSensor@@SAPEBU_ATL_CONNMAP_ENTRY@ATL@@PEAH@Z@4HA 0000000180032f30     MotionSensor.obj
 0003:00000f38       ?_OptionsStorage@?1??__local_stdio_printf_options@@9@4_KA 0000000180032f38     MotionSensor.obj
 0003:00000f40       ?pfnRegDeleteKeyEx@?1??DeleteSubKey@CRegKey@ATL@@QEAAJPEB_W@Z@4P6AJPEAUHKEY__@@0KK@ZEA 0000000180032f40     MotionSensor.obj
 0003:00000f48       ?bInitialized@?1??DeleteSubKey@CRegKey@ATL@@QEAAJPEB_W@Z@4_NA 0000000180032f48     MotionSensor.obj
 0003:00000f50       ?_Module@@3VCComModule@ATL@@A 0000000180032f50     MotionSensor.obj
 0003:00000fa0       ?pConnMap@?$IConnectionPointContainerImpl@VCOPOSMotionSensor@@@ATL@@0PEBU_ATL_CONNMAP_ENTRY@2@EB 0000000180032fa0     MotionSensor.obj
 0003:00000fa8       ?s_nInstances@COPOSMotionSensor@@1HA 0000000180032fa8     MotionSensorImpl.obj
 0003:00000fb0       __scrt_current_native_startup_state 0000000180032fb0     LIBCMT:utility.obj
 0003:00000fb8       __scrt_native_startup_lock 0000000180032fb8     LIBCMT:utility.obj
 0003:000015b0       _tls_index                 00000001800335b0     LIBCMT:tlssup.obj
 0003:000015b8       __favor                    00000001800335b8     LIBCMT:cpu_disp.obj
 0003:000015bc       __scrt_debugger_hook_flag  00000001800335bc     LIBCMT:utility_desktop.obj
 0003:000015c0       __castguard_check_failure_os_handled_fptr 00000001800335c0     LIBCMT:guard_support.obj
 0003:000015d0       ?__type_info_root_node@@3U__type_info_node@@A 00000001800335d0     LIBCMT:tncleanup.obj
 0003:000015e0       ?_OptionsStorage@?1??__local_stdio_scanf_options@@9@4_KA 00000001800335e0     LIBCMT:default_local_stdio_options.obj
 0003:000015f0       ?_AtlBaseModule@ATL@@3VCAtlBaseModule@1@A 00000001800335f0     atls:atlbase.obj
 0003:00001650       ?__AtlThunkPool@@3PEAT_SLIST_HEADER@@EA 0000000180033650     atls:atlthunk.obj
 0003:0000167c       __@@_PchSym_@00@UztvmgUPdlipUGDUhUrmgvinvwrzgvUexgllohUzgohOmzgrevkilqPBACIAJCBDBUlyqiUznwGEUhgwzucOlyq@4B2008FD98C1DD4 000000018003367c     atls:stdafx.obj
 0003:00001680       ?__WinRTOutOfMemoryExceptionCallback@@3P6APEAXXZEA 0000000180033680     libvcruntime:ehhelpers.obj
 0003:00001688       __pPurecall                0000000180033688     libvcruntime:purevirt_data.obj
 0003:00001740       ?pArgList@UnDecorator@@0PEAVReplicator@@EA 0000000180033740     libvcruntime:undname.obj
 0003:00001748       ?pZNameList@UnDecorator@@0PEAVReplicator@@EA 0000000180033748     libvcruntime:undname.obj
 0003:00001750       ?pTemplateArgList@UnDecorator@@0PEAVReplicator@@EA 0000000180033750     libvcruntime:undname.obj
 0003:00001758       ?gName@UnDecorator@@0PEBDEB 0000000180033758     libvcruntime:undname.obj
 0003:00001760       ?name@UnDecorator@@0PEBDEB 0000000180033760     libvcruntime:undname.obj
 0003:00001768       ?disableFlags@UnDecorator@@0KA 0000000180033768     libvcruntime:undname.obj
 0003:0000176c       ?fExplicitTemplateParams@UnDecorator@@0_NA 000000018003376c     libvcruntime:undname.obj
 0003:0000176d       ?fGetTemplateArgumentList@UnDecorator@@0_NA 000000018003376d     libvcruntime:undname.obj
 0003:00001770       ?m_pGetParameter@UnDecorator@@0P6APEADJ@ZEA 0000000180033770     libvcruntime:undname.obj
 0003:00001778       ?m_CHPENameOffset@UnDecorator@@0KA 0000000180033778     libvcruntime:undname.obj
 0003:0000177c       ?m_recursionLevel@UnDecorator@@0KA 000000018003377c     libvcruntime:undname.obj
 0003:00001800       ?c_exit_complete@?1???R<lambda_6e4b09c48022b2350581041d5f6b0c4c>@@QEBA@XZ@4_NA 0000000180033800     libucrt:exit.obj
 0003:00001918       _environ_table             0000000180033918     libucrt:environment_initialization.obj
 0003:00001920       _wenviron_table            0000000180033920     libucrt:environment_initialization.obj
 0003:00001928       __dcrt_initial_wide_environment 0000000180033928     libucrt:environment_initialization.obj
 0003:00001930       __dcrt_initial_narrow_environment 0000000180033930     libucrt:environment_initialization.obj
 0003:00001938       __acrt_atexit_table        0000000180033938     libucrt:onexit.obj
 0003:00001950       __acrt_at_quick_exit_table 0000000180033950     libucrt:onexit.obj
 0003:00001b28       _nstream                   0000000180033b28     libucrt:_file.obj
 0003:00001b30       __piob                     0000000180033b30     libucrt:_file.obj
 0003:00001b40       __acrt_stdout_buffer       0000000180033b40     libucrt:_sftbuf.obj
 0003:00001b48       __acrt_stderr_buffer       0000000180033b48     libucrt:_sftbuf.obj
 0003:00001b50       __acrt_locale_changed_data 0000000180033b50     libucrt:wsetlocale.obj
 0003:00001b58       __acrt_current_locale_data 0000000180033b58     libucrt:nlsdata.obj
 0003:00001b60       __pioinfo                  0000000180033b60     libucrt:ioinit.obj
 0003:00001f60       _nhandle                   0000000180033f60     libucrt:ioinit.obj
 0003:000021a8       _mbctype                   00000001800341a8     libucrt:mbctype.obj
 0003:000021b0       _mbcasemap                 00000001800341b0     libucrt:mbctype.obj
 0003:000021b8       __acrt_current_multibyte_data 00000001800341b8     libucrt:mbctype.obj
 0003:000021c8       _pgmptr                    00000001800341c8     libucrt:argv_data.obj
 0003:000021d0       __argc                     00000001800341d0     libucrt:argv_data.obj
 0003:000021d8       __argv                     00000001800341d8     libucrt:argv_data.obj
 0003:000021e0       __wargv                    00000001800341e0     libucrt:argv_data.obj
 0003:000021e8       _acmdln                    00000001800341e8     libucrt:argv_data.obj
 0003:000021f0       _wcmdln                    00000001800341f0     libucrt:argv_data.obj
 0003:000021f8       __acrt_heap                00000001800341f8     libucrt:heap_handle.obj
 0003:0000222c       __acrt_lconv_static_null   000000018003422c     libucrt:localeconv.obj
 0003:00002230       __acrt_lconv_static_W_null 0000000180034230     libucrt:localeconv.obj
 0003:00002244       __fma3_is_available        0000000180034244     libucrt:fma3_available.obj
 0003:00002248       __use_fma3_lib             0000000180034248     libucrt:fma3_available.obj
 0003:00002250       __dyn_tls_init_callback    0000000180034250     <common>
 0003:00002258       __scrt_ucrt_dll_is_in_use  0000000180034258     <common>

 entry point at        0001:0000e5c4

 Static symbols

 0000:fffc3000       .debug$S                   0000000180000000     OPOSMotionSensor.exp
 0000:fffc3000       .debug$S                   0000000180000000     advapi32:ADVAPI32.dll
 0000:fffc3000       .debug$S                   0000000180000000     advapi32:ADVAPI32.dll
 0000:fffc3000       .debug$S                   0000000180000000     advapi32:ADVAPI32.dll
 0000:fffc3000       .debug$S                   0000000180000000     advapi32:ADVAPI32.dll
 0000:fffc3000       .debug$S                   0000000180000000     advapi32:ADVAPI32.dll
 0000:fffc3000       .debug$S                   0000000180000000     advapi32:ADVAPI32.dll
 0000:fffc3000       .debug$S                   0000000180000000     advapi32:ADVAPI32.dll
 0000:fffc3000       .debug$S                   0000000180000000     advapi32:ADVAPI32.dll
 0000:fffc3000       .debug$S                   0000000180000000     advapi32:ADVAPI32.dll
 0000:fffc3000       .debug$S                   0000000180000000     gdi32:GDI32.dll
 0000:fffc3000       .debug$S                   0000000180000000     gdi32:GDI32.dll
 0000:fffc3000       .debug$S                   0000000180000000     gdi32:GDI32.dll
 0000:fffc3000       .debug$S                   0000000180000000     gdi32:GDI32.dll
 0000:fffc3000       .debug$S                   0000000180000000     gdi32:GDI32.dll
 0000:fffc3000       .debug$S                   0000000180000000     gdi32:GDI32.dll
 0000:fffc3000       .debug$S                   0000000180000000     gdi32:GDI32.dll
 0000:fffc3000       .debug$S                   0000000180000000     gdi32:GDI32.dll
 0000:fffc3000       .debug$S                   0000000180000000     gdi32:GDI32.dll
 0000:fffc3000       .debug$S                   0000000180000000     gdi32:GDI32.dll
 0000:fffc3000       .debug$S                   0000000180000000     gdi32:GDI32.dll
 0000:fffc3000       .debug$S                   0000000180000000     gdi32:GDI32.dll
 0000:fffc3000       .debug$S                   0000000180000000     gdi32:GDI32.dll
 0000:fffc3000       .debug$S                   0000000180000000     gdi32:GDI32.dll
 0000:fffc3000       .debug$S                   0000000180000000     gdi32:GDI32.dll
 0000:fffc3000       .debug$S                   0000000180000000     gdi32:GDI32.dll
 0000:fffc3000       .debug$S                   0000000180000000     gdi32:GDI32.dll
 0000:fffc3000       .debug$S                   0000000180000000     gdi32:GDI32.dll
 0000:fffc3000       .debug$S                   0000000180000000     gdi32:GDI32.dll
 0000:fffc3000       .debug$S                   0000000180000000     kernel32:KERNEL32.dll
 0000:fffc3000       .debug$S                   0000000180000000     kernel32:KERNEL32.dll
 0000:fffc3000       .debug$S                   0000000180000000     kernel32:KERNEL32.dll
 0000:fffc3000       .debug$S                   0000000180000000     kernel32:KERNEL32.dll
 0000:fffc3000       .debug$S                   0000000180000000     kernel32:KERNEL32.dll
 0000:fffc3000       .debug$S                   0000000180000000     kernel32:KERNEL32.dll
 0000:fffc3000       .debug$S                   0000000180000000     kernel32:KERNEL32.dll
 0000:fffc3000       .debug$S                   0000000180000000     kernel32:KERNEL32.dll
 0000:fffc3000       .debug$S                   0000000180000000     kernel32:KERNEL32.dll
 0000:fffc3000       .debug$S                   0000000180000000     kernel32:KERNEL32.dll
 0000:fffc3000       .debug$S                   0000000180000000     kernel32:KERNEL32.dll
 0000:fffc3000       .debug$S                   0000000180000000     kernel32:KERNEL32.dll
 0000:fffc3000       .debug$S                   0000000180000000     kernel32:KERNEL32.dll
 0000:fffc3000       .debug$S                   0000000180000000     kernel32:KERNEL32.dll
 0000:fffc3000       .debug$S                   0000000180000000     kernel32:KERNEL32.dll
 0000:fffc3000       .debug$S                   0000000180000000     kernel32:KERNEL32.dll
 0000:fffc3000       .debug$S                   0000000180000000     kernel32:KERNEL32.dll
 0000:fffc3000       .debug$S                   0000000180000000     kernel32:KERNEL32.dll
 0000:fffc3000       .debug$S                   0000000180000000     kernel32:KERNEL32.dll
 0000:fffc3000       .debug$S                   0000000180000000     kernel32:KERNEL32.dll
 0000:fffc3000       .debug$S                   0000000180000000     kernel32:KERNEL32.dll
 0000:fffc3000       .debug$S                   0000000180000000     kernel32:KERNEL32.dll
 0000:fffc3000       .debug$S                   0000000180000000     kernel32:KERNEL32.dll
 0000:fffc3000       .debug$S                   0000000180000000     kernel32:KERNEL32.dll
 0000:fffc3000       .debug$S                   0000000180000000     kernel32:KERNEL32.dll
 0000:fffc3000       .debug$S                   0000000180000000     kernel32:KERNEL32.dll
 0000:fffc3000       .debug$S                   0000000180000000     kernel32:KERNEL32.dll
 0000:fffc3000       .debug$S                   0000000180000000     kernel32:KERNEL32.dll
 0000:fffc3000       .debug$S                   0000000180000000     kernel32:KERNEL32.dll
 0000:fffc3000       .debug$S                   0000000180000000     kernel32:KERNEL32.dll
 0000:fffc3000       .debug$S                   0000000180000000     kernel32:KERNEL32.dll
 0000:fffc3000       .debug$S                   0000000180000000     kernel32:KERNEL32.dll
 0000:fffc3000       .debug$S                   0000000180000000     kernel32:KERNEL32.dll
 0000:fffc3000       .debug$S                   0000000180000000     kernel32:KERNEL32.dll
 0000:fffc3000       .debug$S                   0000000180000000     kernel32:KERNEL32.dll
 0000:fffc3000       .debug$S                   0000000180000000     kernel32:KERNEL32.dll
 0000:fffc3000       .debug$S                   0000000180000000     kernel32:KERNEL32.dll
 0000:fffc3000       .debug$S                   0000000180000000     kernel32:KERNEL32.dll
 0000:fffc3000       .debug$S                   0000000180000000     kernel32:KERNEL32.dll
 0000:fffc3000       .debug$S                   0000000180000000     kernel32:KERNEL32.dll
 0000:fffc3000       .debug$S                   0000000180000000     kernel32:KERNEL32.dll
 0000:fffc3000       .debug$S                   0000000180000000     kernel32:KERNEL32.dll
 0000:fffc3000       .debug$S                   0000000180000000     kernel32:KERNEL32.dll
 0000:fffc3000       .debug$S                   0000000180000000     kernel32:KERNEL32.dll
 0000:fffc3000       .debug$S                   0000000180000000     kernel32:KERNEL32.dll
 0000:fffc3000       .debug$S                   0000000180000000     kernel32:KERNEL32.dll
 0000:fffc3000       .debug$S                   0000000180000000     kernel32:KERNEL32.dll
 0000:fffc3000       .debug$S                   0000000180000000     kernel32:KERNEL32.dll
 0000:fffc3000       .debug$S                   0000000180000000     kernel32:KERNEL32.dll
 0000:fffc3000       .debug$S                   0000000180000000     kernel32:KERNEL32.dll
 0000:fffc3000       .debug$S                   0000000180000000     kernel32:KERNEL32.dll
 0000:fffc3000       .debug$S                   0000000180000000     kernel32:KERNEL32.dll
 0000:fffc3000       .debug$S                   0000000180000000     kernel32:KERNEL32.dll
 0000:fffc3000       .debug$S                   0000000180000000     kernel32:KERNEL32.dll
 0000:fffc3000       .debug$S                   0000000180000000     kernel32:KERNEL32.dll
 0000:fffc3000       .debug$S                   0000000180000000     kernel32:KERNEL32.dll
 0000:fffc3000       .debug$S                   0000000180000000     kernel32:KERNEL32.dll
 0000:fffc3000       .debug$S                   0000000180000000     kernel32:KERNEL32.dll
 0000:fffc3000       .debug$S                   0000000180000000     kernel32:KERNEL32.dll
 0000:fffc3000       .debug$S                   0000000180000000     kernel32:KERNEL32.dll
 0000:fffc3000       .debug$S                   0000000180000000     kernel32:KERNEL32.dll
 0000:fffc3000       .debug$S                   0000000180000000     kernel32:KERNEL32.dll
 0000:fffc3000       .debug$S                   0000000180000000     kernel32:KERNEL32.dll
 0000:fffc3000       .debug$S                   0000000180000000     kernel32:KERNEL32.dll
 0000:fffc3000       .debug$S                   0000000180000000     kernel32:KERNEL32.dll
 0000:fffc3000       .debug$S                   0000000180000000     kernel32:KERNEL32.dll
 0000:fffc3000       .debug$S                   0000000180000000     kernel32:KERNEL32.dll
 0000:fffc3000       .debug$S                   0000000180000000     kernel32:KERNEL32.dll
 0000:fffc3000       .debug$S                   0000000180000000     kernel32:KERNEL32.dll
 0000:fffc3000       .debug$S                   0000000180000000     kernel32:KERNEL32.dll
 0000:fffc3000       .debug$S                   0000000180000000     kernel32:KERNEL32.dll
 0000:fffc3000       .debug$S                   0000000180000000     kernel32:KERNEL32.dll
 0000:fffc3000       .debug$S                   0000000180000000     kernel32:KERNEL32.dll
 0000:fffc3000       .debug$S                   0000000180000000     kernel32:KERNEL32.dll
 0000:fffc3000       .debug$S                   0000000180000000     kernel32:KERNEL32.dll
 0000:fffc3000       .debug$S                   0000000180000000     kernel32:KERNEL32.dll
 0000:fffc3000       .debug$S                   0000000180000000     kernel32:KERNEL32.dll
 0000:fffc3000       .debug$S                   0000000180000000     kernel32:KERNEL32.dll
 0000:fffc3000       .debug$S                   0000000180000000     kernel32:KERNEL32.dll
 0000:fffc3000       .debug$S                   0000000180000000     kernel32:KERNEL32.dll
 0000:fffc3000       .debug$S                   0000000180000000     kernel32:KERNEL32.dll
 0000:fffc3000       .debug$S                   0000000180000000     kernel32:KERNEL32.dll
 0000:fffc3000       .debug$S                   0000000180000000     kernel32:KERNEL32.dll
 0000:fffc3000       .debug$S                   0000000180000000     kernel32:KERNEL32.dll
 0000:fffc3000       .debug$S                   0000000180000000     kernel32:KERNEL32.dll
 0000:fffc3000       .debug$S                   0000000180000000     kernel32:KERNEL32.dll
 0000:fffc3000       .debug$S                   0000000180000000     kernel32:KERNEL32.dll
 0000:fffc3000       .debug$S                   0000000180000000     kernel32:KERNEL32.dll
 0000:fffc3000       .debug$S                   0000000180000000     kernel32:KERNEL32.dll
 0000:fffc3000       .debug$S                   0000000180000000     kernel32:KERNEL32.dll
 0000:fffc3000       .debug$S                   0000000180000000     kernel32:KERNEL32.dll
 0000:fffc3000       .debug$S                   0000000180000000     kernel32:KERNEL32.dll
 0000:fffc3000       .debug$S                   0000000180000000     kernel32:KERNEL32.dll
 0000:fffc3000       .debug$S                   0000000180000000     kernel32:KERNEL32.dll
 0000:fffc3000       .debug$S                   0000000180000000     kernel32:KERNEL32.dll
 0000:fffc3000       .debug$S                   0000000180000000     kernel32:KERNEL32.dll
 0000:fffc3000       .debug$S                   0000000180000000     kernel32:KERNEL32.dll
 0000:fffc3000       .debug$S                   0000000180000000     kernel32:KERNEL32.dll
 0000:fffc3000       .debug$S                   0000000180000000     kernel32:KERNEL32.dll
 0000:fffc3000       .debug$S                   0000000180000000     kernel32:KERNEL32.dll
 0000:fffc3000       .debug$S                   0000000180000000     kernel32:KERNEL32.dll
 0000:fffc3000       .debug$S                   0000000180000000     kernel32:KERNEL32.dll
 0000:fffc3000       .debug$S                   0000000180000000     kernel32:KERNEL32.dll
 0000:fffc3000       .debug$S                   0000000180000000     kernel32:KERNEL32.dll
 0000:fffc3000       .debug$S                   0000000180000000     kernel32:KERNEL32.dll
 0000:fffc3000       .debug$S                   0000000180000000     kernel32:KERNEL32.dll
 0000:fffc3000       .debug$S                   0000000180000000     kernel32:KERNEL32.dll
 0000:fffc3000       .debug$S                   0000000180000000     kernel32:KERNEL32.dll
 0000:fffc3000       .debug$S                   0000000180000000     kernel32:KERNEL32.dll
 0000:fffc3000       .debug$S                   0000000180000000     kernel32:KERNEL32.dll
 0000:fffc3000       .debug$S                   0000000180000000     kernel32:KERNEL32.dll
 0000:fffc3000       .debug$S                   0000000180000000     ole32:ole32.dll
 0000:fffc3000       .debug$S                   0000000180000000     ole32:ole32.dll
 0000:fffc3000       .debug$S                   0000000180000000     ole32:ole32.dll
 0000:fffc3000       .debug$S                   0000000180000000     ole32:ole32.dll
 0000:fffc3000       .debug$S                   0000000180000000     ole32:ole32.dll
 0000:fffc3000       .debug$S                   0000000180000000     ole32:ole32.dll
 0000:fffc3000       .debug$S                   0000000180000000     ole32:ole32.dll
 0000:fffc3000       .debug$S                   0000000180000000     ole32:ole32.dll
 0000:fffc3000       .debug$S                   0000000180000000     ole32:ole32.dll
 0000:fffc3000       .debug$S                   0000000180000000     ole32:ole32.dll
 0000:fffc3000       .debug$S                   0000000180000000     ole32:ole32.dll
 0000:fffc3000       .debug$S                   0000000180000000     ole32:ole32.dll
 0000:fffc3000       .debug$S                   0000000180000000     ole32:ole32.dll
 0000:fffc3000       .debug$S                   0000000180000000     ole32:ole32.dll
 0000:fffc3000       .debug$S                   0000000180000000     oleaut32:OLEAUT32.dll
 0000:fffc3000       .debug$S                   0000000180000000     oleaut32:OLEAUT32.dll
 0000:fffc3000       .debug$S                   0000000180000000     oleaut32:OLEAUT32.dll
 0000:fffc3000       .debug$S                   0000000180000000     oleaut32:OLEAUT32.dll
 0000:fffc3000       .debug$S                   0000000180000000     oleaut32:OLEAUT32.dll
 0000:fffc3000       .debug$S                   0000000180000000     oleaut32:OLEAUT32.dll
 0000:fffc3000       .debug$S                   0000000180000000     oleaut32:OLEAUT32.dll
 0000:fffc3000       .debug$S                   0000000180000000     oleaut32:OLEAUT32.dll
 0000:fffc3000       .debug$S                   0000000180000000     oleaut32:OLEAUT32.dll
 0000:fffc3000       .debug$S                   0000000180000000     oleaut32:OLEAUT32.dll
 0000:fffc3000       .debug$S                   0000000180000000     oleaut32:OLEAUT32.dll
 0000:fffc3000       .debug$S                   0000000180000000     oleaut32:OLEAUT32.dll
 0000:fffc3000       .debug$S                   0000000180000000     oleaut32:OLEAUT32.dll
 0000:fffc3000       .debug$S                   0000000180000000     oleaut32:OLEAUT32.dll
 0000:fffc3000       .debug$S                   0000000180000000     oleaut32:OLEAUT32.dll
 0000:fffc3000       .debug$S                   0000000180000000     oleaut32:OLEAUT32.dll
 0000:fffc3000       .debug$S                   0000000180000000     user32:USER32.dll
 0000:fffc3000       .debug$S                   0000000180000000     user32:USER32.dll
 0000:fffc3000       .debug$S                   0000000180000000     user32:USER32.dll
 0000:fffc3000       .debug$S                   0000000180000000     user32:USER32.dll
 0000:fffc3000       .debug$S                   0000000180000000     user32:USER32.dll
 0000:fffc3000       .debug$S                   0000000180000000     user32:USER32.dll
 0000:fffc3000       .debug$S                   0000000180000000     user32:USER32.dll
 0000:fffc3000       .debug$S                   0000000180000000     user32:USER32.dll
 0000:fffc3000       .debug$S                   0000000180000000     user32:USER32.dll
 0000:fffc3000       .debug$S                   0000000180000000     user32:USER32.dll
 0000:fffc3000       .debug$S                   0000000180000000     user32:USER32.dll
 0000:fffc3000       .debug$S                   0000000180000000     user32:USER32.dll
 0000:fffc3000       .debug$S                   0000000180000000     user32:USER32.dll
 0000:fffc3000       .debug$S                   0000000180000000     user32:USER32.dll
 0000:fffc3000       .debug$S                   0000000180000000     user32:USER32.dll
 0000:fffc3000       .debug$S                   0000000180000000     user32:USER32.dll
 0000:fffc3000       .debug$S                   0000000180000000     user32:USER32.dll
 0000:fffc3000       .debug$S                   0000000180000000     user32:USER32.dll
 0000:fffc3000       .debug$S                   0000000180000000     user32:USER32.dll
 0000:fffc3000       .debug$S                   0000000180000000     user32:USER32.dll
 0000:fffc3000       .debug$S                   0000000180000000     user32:USER32.dll
 0000:fffc3000       .debug$S                   0000000180000000     user32:USER32.dll
 0000:fffc3000       .debug$S                   0000000180000000     user32:USER32.dll
 0000:fffc3000       .debug$S                   0000000180000000     user32:USER32.dll
 0000:fffc3000       .debug$S                   0000000180000000     user32:USER32.dll
 0000:fffc3000       .debug$S                   0000000180000000     user32:USER32.dll
 0000:fffc3000       .debug$S                   0000000180000000     user32:USER32.dll
 0000:fffc3000       .debug$S                   0000000180000000     user32:USER32.dll
 0000:fffc3000       .debug$S                   0000000180000000     user32:USER32.dll
 0000:fffc3000       .debug$S                   0000000180000000     user32:USER32.dll
 0000:fffc3000       .debug$S                   0000000180000000     user32:USER32.dll
 0000:fffc3000       .debug$S                   0000000180000000     user32:USER32.dll
 0000:fffc3000       .debug$S                   0000000180000000     user32:USER32.dll
 0000:fffc3000       .debug$S                   0000000180000000     user32:USER32.dll
 0000:fffc3000       .debug$S                   0000000180000000     user32:USER32.dll
 0001:00000000       ??__E_AtlComModule@ATL@@YAXXZ 0000000180001000 f   OposVariant.obj
 0001:00000020       ??__E_AtlWinModule@ATL@@YAXXZ 0000000180001020 f   OposVariant.obj
 0001:00000040       ??__E?pConnMap@?$IConnectionPointContainerImpl@VCOPOSMotionSensor@@@ATL@@0PEBU_ATL_CONNMAP_ENTRY@2@EB@@YAXXZ 0000000180001040 f   MotionSensor.obj
 0001:00000058       ??__E_Module@@YAXXZ        0000000180001058 f   MotionSensor.obj
 0001:00000094       ??__E_AtlBaseModule@ATL@@YAXXZ 0000000180001094 f   atls:atlbase.obj
 0001:0000dbdc       ?__scrt_initialize_thread_safe_statics@@YAHXZ 000000018000ebdc f   LIBCMT:thread_safe_statics.obj
 0001:0000dcac       ?__scrt_uninitialize_thread_safe_statics@@YAXXZ 000000018000ecac f   LIBCMT:thread_safe_statics.obj
 0001:0000dffc       capture_current_context    000000018000effc f   LIBCMT:gs_report.obj
 0001:0000e06c       capture_previous_context   000000018000f06c f   LIBCMT:gs_report.obj
 0001:0000e200       $$000000                   000000018000f200     LIBCMT:chkstk.obj
 0001:0000e270       $$000000                   000000018000f270     LIBCMT:amdsecgs.obj
 0001:0000e2a4       ?dllmain_crt_dispatch@@YAHQEAUHINSTANCE__@@KQEAX@Z 000000018000f2a4 f   LIBCMT:dll_dllmain.obj
 0001:0000e2f4       ?dllmain_crt_process_attach@@YAHQEAUHINSTANCE__@@QEAX@Z 000000018000f2f4 f   LIBCMT:dll_dllmain.obj
 0001:0000e40c       ?dllmain_crt_process_detach@@YAH_N@Z 000000018000f40c f   LIBCMT:dll_dllmain.obj
 0001:0000e490       ?dllmain_dispatch@@YAHQEAUHINSTANCE__@@KQEAX@Z 000000018000f490 f   LIBCMT:dll_dllmain.obj
 0001:0000ed58       ??$GetProcAddressAll@P6AP6A_JPEAUHWND__@@I_K_J@ZPEAUAtlThunkData_t@@@Z@@YAP6AP6A_JPEAUHWND__@@I_K_J@ZPEAUAtlThunkData_t@@@ZPEAP6AP6A_J0I12@Z3@Z@Z 000000018000fd58 f   atls:atlthunk.obj
 0001:0000ed58       ??$GetProcAddressAll@P6APEAUAtlThunkData_t@@XZ@@YAP6APEAUAtlThunkData_t@@XZPEAP6APEAU0@XZ@Z 000000018000fd58 f   atls:atlthunk.obj
 0001:0000ed58       ??$GetProcAddressAll@P6AXPEAUAtlThunkData_t@@@Z@@YAP6AXPEAUAtlThunkData_t@@@ZPEAP6AX0@Z@Z 000000018000fd58 f   atls:atlthunk.obj
 0001:0000ed58       ??$GetProcAddressAll@P6AXPEAUAtlThunkData_t@@PEAX_K@Z@@YAP6AXPEAUAtlThunkData_t@@PEAX_K@ZPEAP6AX012@Z@Z 000000018000fd58 f   atls:atlthunk.obj
 0001:0000ef30       ?__InitializeThunkPool@@YAHXZ 000000018000ff30 f   atls:atlthunk.obj
 0001:0000f3d0       $$000000                   00000001800103d0     libvcruntime:memcmp.obj
 0001:0000f4b0       $$000000                   00000001800104b0     libvcruntime:memcpy.obj
 0001:0000f8c0       $$000000                   00000001800108c0     libvcruntime:memset.obj
 0001:000109d0       $$000000                   00000001800119d0     libvcruntime:notify.obj
 0001:00010b3c       ??$BuildCatchObjectHelperInternal@V__FrameHandler4@@@@YAHPEAUEHExceptionRecord@@PEAXPEAUHandlerType4@FH4@@PEBU_s_CatchableType@@@Z 0000000180011b3c f   libvcruntime:frame.obj
 0001:00010d40       ??$BuildCatchObjectInternal@V__FrameHandler4@@@@YAXPEAUEHExceptionRecord@@PEAXPEAUHandlerType4@FH4@@PEBU_s_CatchableType@@@Z 0000000180011d40 f   libvcruntime:frame.obj
 0001:00010e04       ??$CatchIt@V__FrameHandler4@@@@YAXPEAUEHExceptionRecord@@PEA_KPEAU_CONTEXT@@PEAU_xDISPATCHER_CONTEXT@@PEAUFuncInfo4@FH4@@PEAUHandlerType4@4@PEBU_s_CatchableType@@PEAUTryBlockMapEntry4@4@H1EE@Z 0000000180011e04 f   libvcruntime:frame.obj
 0001:00010ed8       ??$FindHandler@V__FrameHandler4@@@@YAXPEAUEHExceptionRecord@@PEA_KPEAU_CONTEXT@@PEAU_xDISPATCHER_CONTEXT@@PEAUFuncInfo4@FH4@@EH1@Z 0000000180011ed8 f   libvcruntime:frame.obj
 0001:000113e8       ??$FindHandlerForForeignException@V__FrameHandler4@@@@YAXPEAUEHExceptionRecord@@PEA_KPEAU_CONTEXT@@PEAU_xDISPATCHER_CONTEXT@@PEAUFuncInfo4@FH4@@HH1@Z 00000001800123e8 f   libvcruntime:frame.obj
 0001:00012178       ?ExFilterRethrow@@YAHPEAU_EXCEPTION_POINTERS@@PEAUEHExceptionRecord@@PEAH@Z 0000000180013178 f   libvcruntime:frame.obj
 0001:00012200       ?ExFilterRethrowFH4@@YAHPEAU_EXCEPTION_POINTERS@@PEAUEHExceptionRecord@@HPEAH@Z 0000000180013200 f   libvcruntime:frame.obj
 0001:00012518       ?IsInExceptionSpec@@YAEPEAUEHExceptionRecord@@PEBU_s_ESTypeList@@@Z 0000000180013518 f   libvcruntime:frame.obj
 0001:00012608       ?Is_bad_exception_allowed@@YAEPEBU_s_ESTypeList@@@Z 0000000180013608 f   libvcruntime:frame.obj
 0001:000128e4       ?try_get_function@@YAPEAXW4function_id@?A0x84e3c32f@@QEBDQEBW4module_id@2@2@Z 00000001800138e4 f   libvcruntime:winapi_downlevel.obj
 0001:00012bc0       $$000000                   0000000180013bc0     libvcruntime:handlers.obj
 0001:000133d8       ??$common_vsprintf@Vformat_validation_base@__crt_stdio_output@@_W@@YAH_KQEA_W0QEB_WQEAU__crt_locale_pointers@@QEAD@Z 00000001800143d8 f   libucrt:output.obj
 0001:00014278       $LN17                      0000000180015278     libucrt:output.obj
 0001:00014c1c       ??$?RV<lambda_d80eeec6fff315bfe5c115232f3240e3>@@AEAV<lambda_6e4b09c48022b2350581041d5f6b0c4c>@@V<lambda_2358e3775559c9db80273638284d5e45>@@@?$__crt_seh_guarded_call@X@@QEAAX$$QEAV<lambda_d80eeec6fff315bfe5c115232f3240e3>@@AEAV<lambda_6e4b09c48022b2350581041d5f6b0c4c>@@$$QEAV<lambda_2358e3775559c9db80273638284d5e45>@@@Z 0000000180015c1c f   libucrt:exit.obj
 0001:00014c54       ??R<lambda_6e4b09c48022b2350581041d5f6b0c4c>@@QEBA@XZ 0000000180015c54 f   libucrt:exit.obj
 0001:00014d18       ?atexit_exception_filter@@YAHK@Z 0000000180015d18 f   libucrt:exit.obj
 0001:00014d24       ?common_exit@@YAXHW4_crt_exit_cleanup_mode@@W4_crt_exit_return_mode@@@Z 0000000180015d24 f   libucrt:exit.obj
 0001:00014de0       ?exit_or_terminate_process@@YAXI@Z 0000000180015de0 f   libucrt:exit.obj
 0001:00014e2c       ?try_cor_exit_process@@YAXI@Z 0000000180015e2c f   libucrt:exit.obj
 0001:00014eb4       ??$parse_command_line@D@@YAXPEADPEAPEAD0PEA_K2@Z 0000000180015eb4 f   libucrt:argv_parsing.obj
 0001:0001525c       ??$common_initialize_environment_nolock@D@@YAHXZ 000000018001625c f   libucrt:environment_initialization.obj
 0001:000152c8       ??$create_environment@D@@YAQEAPEADQEAD@Z 00000001800162c8 f   libucrt:environment_initialization.obj
 0001:000153d0       ??$free_environment@D@@YAXQEAPEAD@Z 00000001800163d0 f   libucrt:environment_initialization.obj
 0001:000153d0       ??$free_environment@_W@@YAXQEAPEA_W@Z 00000001800163d0 f   libucrt:environment_initialization.obj
 0001:00015414       ??$uninitialize_environment_internal@D@@YAXAEAPEAPEAD@Z 0000000180016414 f   libucrt:environment_initialization.obj
 0001:00015430       ??$uninitialize_environment_internal@_W@@YAXAEAPEAPEA_W@Z 0000000180016430 f   libucrt:environment_initialization.obj
 0001:0001548c       ??$?RV<lambda_638799b9deba96c50f710eeac98168cd>@@AEAV<lambda_22ebabd17bc4fa466a2aca6d8deb888d>@@V<lambda_a6f7d7db0129f75315ebf26d50c089f1>@@@?$__crt_seh_guarded_call@H@@QEAAH$$QEAV<lambda_638799b9deba96c50f710eeac98168cd>@@AEAV<lambda_22ebabd17bc4fa466a2aca6d8deb888d>@@$$QEAV<lambda_a6f7d7db0129f75315ebf26d50c089f1>@@@Z 000000018001648c f   libucrt:onexit.obj
 0001:000154c8       ??$?RV<lambda_7777bce6b2f8c936911f934f8298dc43>@@AEAV<lambda_f03950bc5685219e0bcd2087efbe011e>@@V<lambda_3883c3dff614d5e0c5f61bb1ac94921c>@@@?$__crt_seh_guarded_call@H@@QEAAH$$QEAV<lambda_7777bce6b2f8c936911f934f8298dc43>@@AEAV<lambda_f03950bc5685219e0bcd2087efbe011e>@@$$QEAV<lambda_3883c3dff614d5e0c5f61bb1ac94921c>@@@Z 00000001800164c8 f   libucrt:onexit.obj
 0001:00015504       ??R<lambda_22ebabd17bc4fa466a2aca6d8deb888d>@@QEBAHXZ 0000000180016504 f   libucrt:onexit.obj
 0001:000156b4       ??R<lambda_f03950bc5685219e0bcd2087efbe011e>@@QEBAHXZ 00000001800166b4 f   libucrt:onexit.obj
 0001:00015888       initialize_global_variables 0000000180016888 f   libucrt:initialization.obj
 0001:0001589c       initialize_c               000000018001689c f   libucrt:initialization.obj
 0001:000158c0       initialize_environment     00000001800168c0 f   libucrt:initialization.obj
 0001:000158c0       initialize_global_state_isolation 00000001800168c0 f   libucrt:initialization.obj
 0001:000158c0       report_memory_leaks        00000001800168c0 f   libucrt:initialization.obj
 0001:000158c0       uninitialize_c             00000001800168c0 f   libucrt:initialization.obj
 0001:000158c0       uninitialize_global_state_isolation 00000001800168c0 f   libucrt:initialization.obj
 0001:000158c4       uninitialize_environment   00000001800168c4 f   libucrt:initialization.obj
 0001:000158d4       initialize_pointers        00000001800168d4 f   libucrt:initialization.obj
 0001:00015914       uninitialize_vcruntime     0000000180016914 f   libucrt:initialization.obj
 0001:0001591c       uninitialize_allocated_memory 000000018001691c f   libucrt:initialization.obj
 0001:0001595c       uninitialize_allocated_io_buffers 000000018001695c f   libucrt:initialization.obj
 0001:000162d0       $$000000                   00000001800172d0     libucrt:strncmp.obj
 0001:000163cc       ??$?RV<lambda_0ae27a3a962d80f24befdcbee591983d>@@AEAV<lambda_8d0ee55de4b1038c4002e0adecdf1839>@@V<lambda_dc504788e8f1664fe9b84e20bfb512f2>@@@?$__crt_seh_guarded_call@X@@QEAAX$$QEAV<lambda_0ae27a3a962d80f24befdcbee591983d>@@AEAV<lambda_8d0ee55de4b1038c4002e0adecdf1839>@@$$QEAV<lambda_dc504788e8f1664fe9b84e20bfb512f2>@@@Z 00000001800173cc f   libucrt:per_thread_data.obj
 0001:0001640c       ??$?RV<lambda_2d41944a1d46af3157314b8a01080d33>@@AEAV<lambda_8f455de75cd7d7f24b4096f044d8b9e6>@@V<lambda_aa500f224e6afead328df44964fe2772>@@@?$__crt_seh_guarded_call@X@@QEAAX$$QEAV<lambda_2d41944a1d46af3157314b8a01080d33>@@AEAV<lambda_8f455de75cd7d7f24b4096f044d8b9e6>@@$$QEAV<lambda_aa500f224e6afead328df44964fe2772>@@@Z 000000018001740c f   libucrt:per_thread_data.obj
 0001:0001644c       ??$?RV<lambda_aa87e3671a710a21b5dc78c0bdf72e11>@@AEAV<lambda_92619d2358a28f41a33ba319515a20b9>@@V<lambda_6992ecaafeb10aed2b74cb1fae11a551>@@@?$__crt_seh_guarded_call@X@@QEAAX$$QEAV<lambda_aa87e3671a710a21b5dc78c0bdf72e11>@@AEAV<lambda_92619d2358a28f41a33ba319515a20b9>@@$$QEAV<lambda_6992ecaafeb10aed2b74cb1fae11a551>@@@Z 000000018001744c f   libucrt:per_thread_data.obj
 0001:00016494       ??$?RV<lambda_f2e299630e499de9f9a165e60fcd3db5>@@AEAV<lambda_2ae9d31cdba2644fcbeaf08da7c24588>@@V<lambda_40d01ff24d0e7b3814fdbdcee8eab3c7>@@@?$__crt_seh_guarded_call@X@@QEAAX$$QEAV<lambda_f2e299630e499de9f9a165e60fcd3db5>@@AEAV<lambda_2ae9d31cdba2644fcbeaf08da7c24588>@@$$QEAV<lambda_40d01ff24d0e7b3814fdbdcee8eab3c7>@@@Z 0000000180017494 f   libucrt:per_thread_data.obj
 0001:000164f4       ?construct_ptd_array@@YAXQEAU__acrt_ptd@@@Z 00000001800174f4 f   libucrt:per_thread_data.obj
 0001:000165c4       ?destroy_fls@@YAXPEAX@Z    00000001800175c4 f   libucrt:per_thread_data.obj
 0001:000165e4       ?destroy_ptd_array@@YAXQEAU__acrt_ptd@@@Z 00000001800175e4 f   libucrt:per_thread_data.obj
 0001:000166dc       ?replace_current_thread_locale_nolock@@YAXQEAU__acrt_ptd@@QEAU__crt_locale_data@@@Z 00000001800176dc f   libucrt:per_thread_data.obj
 0001:00016bc0       ?try_get_function@@YAPEAXW4function_id@?A0x391cf84c@@QEBDQEBW4module_id@2@2@Z 0000000180017bc0 f   libucrt:winapi_thunks.obj
 0001:00017590       ?fp_format_a@@YAHQEBNPEAD_KQEAD2H_NIQEAU__crt_locale_pointers@@W4__acrt_rounding_mode@@@Z 0000000180018590 f   libucrt:cvt.obj
 0001:00017910       ?fp_format_e@@YAHQEBNQEAD_K12H_NIQEAU__crt_locale_pointers@@W4__acrt_rounding_mode@@@Z 0000000180018910 f   libucrt:cvt.obj
 0001:00017a00       ?fp_format_e_internal@@YAHQEAD_KH_NIQEAU_strflt@@2QEAU__crt_locale_pointers@@@Z 0000000180018a00 f   libucrt:cvt.obj
 0001:00017bd4       ?fp_format_f_internal@@YAHQEAD_KHQEAU_strflt@@_NQEAU__crt_locale_pointers@@@Z 0000000180018bd4 f   libucrt:cvt.obj
 0001:00017d3c       ?fp_format_g@@YAHQEBNQEAD_K12H_NIQEAU__crt_locale_pointers@@@Z 0000000180018d3c f   libucrt:cvt.obj
 0001:00017e7c       ?should_round_up@@YA_NQEBN_KFW4__acrt_rounding_mode@@@Z 0000000180018e7c f   libucrt:cvt.obj
 0001:000184a0       ??$?RV<lambda_410d79af7f07d98d83a3f525b3859a53>@@AEAV<lambda_3e16ef9562a7dcce91392c22ab16ea36>@@V<lambda_38119f0e861e05405d8a144b9b982f0a>@@@?$__crt_seh_guarded_call@X@@QEAAX$$QEAV<lambda_410d79af7f07d98d83a3f525b3859a53>@@AEAV<lambda_3e16ef9562a7dcce91392c22ab16ea36>@@$$QEAV<lambda_38119f0e861e05405d8a144b9b982f0a>@@@Z 00000001800194a0 f   libucrt:wsetlocale.obj
 0001:0001854c       ?initialize_inherited_file_handles_nolock@@YAXXZ 000000018001954c f   libucrt:ioinit.obj
 0001:0001863c       ?initialize_stdio_handles_nolock@@YAXXZ 000000018001963c f   libucrt:ioinit.obj
 0001:000188b8       ?<lambda_invoker_cdecl>@<lambda_a1ce4c8ae42411fd470c77163914f50e>@@CAHPEBX0@Z 00000001800198b8 f   libucrt:argv_wildcards.obj
 0001:00018bd0       ??$common_expand_argv_wildcards@D@@YAHQEAPEADQEAPEAPEAD@Z 0000000180019bd0 f   libucrt:argv_wildcards.obj
 0001:00018ddc       ??$copy_and_add_argument_to_buffer@D@@YAHQEBD0_KAEAV?$argument_list@D@?A0x5f5c8891@@@Z 0000000180019ddc f   libucrt:argv_wildcards.obj
 0001:00018f64       ??$expand_argument_wildcards@D@@YAHQEAD0AEAV?$argument_list@D@?A0x5f5c8891@@@Z 0000000180019f64 f   libucrt:argv_wildcards.obj
 0001:000194b0       ??$?RV<lambda_efdfa57d1f175319df784efa44bb7b81>@@AEAV<lambda_5f0a4c1567f8adc6734073e5d1e1b35c>@@V<lambda_2e8a7d3640ea6ccb4c2413664c2db6fd>@@@?$__crt_seh_guarded_call@X@@QEAAX$$QEAV<lambda_efdfa57d1f175319df784efa44bb7b81>@@AEAV<lambda_5f0a4c1567f8adc6734073e5d1e1b35c>@@$$QEAV<lambda_2e8a7d3640ea6ccb4c2413664c2db6fd>@@@Z 000000018001a4b0 f   libucrt:mbctype.obj
 0001:0001966c       ?getSystemCP@@YAHH@Z       000000018001a66c f   libucrt:mbctype.obj
 0001:000196ec       ?setSBCS@@YAXPEAU__crt_multibyte_data@@@Z 000000018001a6ec f   libucrt:mbctype.obj
 0001:0001977c       ?setSBUpLow@@YAXPEAU__crt_multibyte_data@@@Z 000000018001a77c f   libucrt:mbctype.obj
 0001:00019960       ?setmbcp_internal@@YAHH_NQEAU__acrt_ptd@@QEAPEAU__crt_multibyte_data@@@Z 000000018001a960 f   libucrt:mbctype.obj
 0001:00019b20       ?update_thread_multibyte_data_internal@@YAPEAU__crt_multibyte_data@@QEAU__acrt_ptd@@QEAPEAU1@@Z 000000018001ab20 f   libucrt:mbctype.obj
 0001:00019f10       ?x_ismbbtype_l@@YAHPEAU__crt_locale_pointers@@IHH@Z 000000018001af10 f   libucrt:ismbbyte.obj
 0001:0001a2b8       ??$?RV<lambda_450d765d439847d4c735a33c368b5fc0>@@AEAV<lambda_44731a7d0e6d81c3e6aa82d741081786>@@V<lambda_601a2a7da3b7a96e9554ac7215c4b07c>@@@?$__crt_seh_guarded_call@P6AXH@Z@@QEAAP6AXH@Z$$QEAV<lambda_450d765d439847d4c735a33c368b5fc0>@@AEAV<lambda_44731a7d0e6d81c3e6aa82d741081786>@@$$QEAV<lambda_601a2a7da3b7a96e9554ac7215c4b07c>@@@Z 000000018001b2b8 f   libucrt:signal.obj
 0001:0001a614       ??$?RV<lambda_842d9ff0dc9ef11c61343bbaebe7f885>@@AEAV<lambda_c5860995281e5c4ce005b3de8f5874ee>@@V<lambda_d90129c13df834fdcbf8d2b88dafcf2d>@@@?$__crt_seh_guarded_call@X@@QEAAX$$QEAV<lambda_842d9ff0dc9ef11c61343bbaebe7f885>@@AEAV<lambda_c5860995281e5c4ce005b3de8f5874ee>@@$$QEAV<lambda_d90129c13df834fdcbf8d2b88dafcf2d>@@@Z 000000018001b614 f   libucrt:fflush.obj
 0001:0001a6b0       ??$?RV<lambda_886d6c58226a84441f68b9f2b8217b83>@@AEAV<lambda_ab61a845afdef5b7c387490eaf3616ee>@@V<lambda_f7f22ab5edc0698d5f6905b0d3f44752>@@@?$__crt_seh_guarded_call@X@@QEAAX$$QEAV<lambda_886d6c58226a84441f68b9f2b8217b83>@@AEAV<lambda_ab61a845afdef5b7c387490eaf3616ee>@@$$QEAV<lambda_f7f22ab5edc0698d5f6905b0d3f44752>@@@Z 000000018001b6b0 f   libucrt:fflush.obj
 0001:0001a790       ?common_flush_all@@YAH_N@Z 000000018001b790 f   libucrt:fflush.obj
 0001:0001c7e0       memcpy_s                   000000018001d7e0 f   libucrt:cfout.obj
 0001:0001cb48       ?free_crt_array_internal@@YAXQEAPEBX_K@Z 000000018001db48 f   libucrt:inittime.obj
 0001:0001d5d4       fallbackMethod             000000018001e5d4 f   libucrt:strpbrk.obj
 0001:0001d98c       $LN78                      000000018001e98c     libucrt:strpbrk.obj
 0001:0001d9c8       $LN77                      000000018001e9c8     libucrt:strpbrk.obj
 0001:0001da08       $LN76                      000000018001ea08     libucrt:strpbrk.obj
 0001:0001dae4       ?__acrt_LCMapStringA_stat@@YAHPEAU__crt_locale_pointers@@PEB_WKPEBDHPEADHHH@Z 000000018001eae4 f   libucrt:lcmapstringa.obj
 0001:0001de94       ?initialize_multibyte@@YAHXZ 000000018001ee94 f   libucrt:multibyte_initializer.obj
 0001:0001deac       ??$?RV<lambda_a37b2b86f63e897a80ea819b0eb08c01>@@AEAV<lambda_38ce7e780aa69e748d6df282ebc68efe>@@V<lambda_99fb1378e971ab6e7edea83e3a7a83a2>@@@?$__crt_seh_guarded_call@H@@QEAAH$$QEAV<lambda_a37b2b86f63e897a80ea819b0eb08c01>@@AEAV<lambda_38ce7e780aa69e748d6df282ebc68efe>@@$$QEAV<lambda_99fb1378e971ab6e7edea83e3a7a83a2>@@@Z 000000018001eeac f   libucrt:commit.obj
 0001:0001dfcc       ?write_double_translated_ansi_nolock@@YA?AUwrite_result@?A0x17268360@@HQEBDI@Z 000000018001efcc f   libucrt:write.obj
 0001:0001e4b8       ?write_text_ansi_nolock@@YA?AUwrite_result@?A0x17268360@@HQEBDI@Z 000000018001f4b8 f   libucrt:write.obj
 0001:0001e5bc       ?write_text_utf16le_nolock@@YA?AUwrite_result@?A0x17268360@@HQEBDI@Z 000000018001f5bc f   libucrt:write.obj
 0001:0001e6d8       ?write_text_utf8_nolock@@YA?AUwrite_result@?A0x17268360@@HQEBDI@Z 000000018001f6d8 f   libucrt:write.obj
 0001:0001f030       $$000000                   0000000180020030     libucrt:log10.obj
 0001:0001f8fc       ??$common_lseek_nolock@_J@@YA_JH_JH@Z 00000001800208fc f   libucrt:lseek.obj
 0001:0001fb5c       common_control87           0000000180020b5c f   libucrt:ieee.obj
 0001:0001fe1c       _call_matherr              0000000180020e1c f   libucrt:libm_error.obj
 0001:0001fe84       _exception_enabled         0000000180020e84 f   libucrt:libm_error.obj
 0001:00020120       _log_special_common        0000000180021120 f   libucrt:log_special.obj
 0001:000201b8       ??$?RV<lambda_751a882b2c74d4b022dec766aa51a29a>@@AEAV<lambda_628dfdc04ba53c8bfc02c9951375f3f5>@@V<lambda_f6c7be5f7998530c34de24c7437d6b54>@@@?$__crt_seh_guarded_call@H@@QEAAH$$QEAV<lambda_751a882b2c74d4b022dec766aa51a29a>@@AEAV<lambda_628dfdc04ba53c8bfc02c9951375f3f5>@@$$QEAV<lambda_f6c7be5f7998530c34de24c7437d6b54>@@@Z 00000001800211b8 f   libucrt:close.obj
 0001:000204e0       $$000000                   00000001800214e0     libucrt:fpsr.obj
 0001:00020b80       $$000000                   0000000180021b80     LIBCMT:guard_dispatch.obj
 0001:00020ba0       $$000000                   0000000180021ba0     LIBCMT:guard_xfg_dispatch.obj
 0001:00020bc0       ?filt$0@?0??_AtlVerifyStackAvailable@_ATL_SAFE_ALLOCA_IMPL@ATL@@YA_N_K@Z@4HA 0000000180021bc0 f   MotionSensor.obj
 0001:00020be1       __scrt_is_nonwritable_in_current_image$filt$0 0000000180021be1 f   LIBCMT:utility.obj
 0001:00020bf9       ?catch$0@?0???2@YAPEAX_KAEBUnothrow_t@std@@@Z@4HA 0000000180021bf9 f   LIBCMT:new_scalar_nothrow.obj
 0001:00020c06       __catch$??2@YAPEAX_KAEBUnothrow_t@std@@@Z$0 0000000180021c06 f   LIBCMT:new_scalar_nothrow.obj
 0001:00020c17       ?fin$0@?0??dllmain_crt_process_attach@@YAHQEAUHINSTANCE__@@QEAX@Z@4HA 0000000180021c17 f   LIBCMT:dll_dllmain.obj
 0001:00020c2e       ?fin$0@?0??dllmain_crt_process_detach@@YAH_N@Z@4HA 0000000180021c2e f   LIBCMT:dll_dllmain.obj
 0001:00020c47       ?fin$1@?0??dllmain_crt_process_detach@@YAH_N@Z@4HA 0000000180021c47 f   LIBCMT:dll_dllmain.obj
 0001:00020c5b       ?filt$0@?0??dllmain_dispatch@@YAHQEAUHINSTANCE__@@KQEAX@Z@4HA 0000000180021c5b f   LIBCMT:dll_dllmain.obj
 0001:00020c91       ?filt$0@?0???$_CallSETranslator@V__FrameHandler4@@@@YAHPEAUEHExceptionRecord@@PEA_KPEAU_CONTEXT@@PEAU_xDISPATCHER_CONTEXT@@PEAUFuncInfo4@FH4@@K1H@Z@4HA 0000000180021c91 f   libvcruntime:risctrnsctrl.obj
 0001:00020d30       __DestructExceptionObject$filt$0 0000000180021d30 f   libvcruntime:ehhelpers.obj
 0001:00020dc6       ?filt$0@?0??CxxCallCatchBlock@__FrameHandler4@@SAPEAXPEAU_EXCEPTION_RECORD@@@Z@4HA 0000000180021dc6 f   libvcruntime:frame.obj
 0001:00020df5       ?fin$1@?0??CxxCallCatchBlock@__FrameHandler4@@SAPEAXPEAU_EXCEPTION_RECORD@@@Z@4HA 0000000180021df5 f   libvcruntime:frame.obj
 0001:00020e78       ?filt$0@?0??FrameUnwindToState@__FrameHandler4@@SAXPEA_KPEAU_xDISPATCHER_CONTEXT@@PEAUFuncInfo4@FH4@@H@Z@4HA 0000000180021e78 f   libvcruntime:frame.obj
 0001:00020e8e       ?fin$1@?0??FrameUnwindToState@__FrameHandler4@@SAXPEA_KPEAU_xDISPATCHER_CONTEXT@@PEAUFuncInfo4@FH4@@H@Z@4HA 0000000180021e8e f   libvcruntime:frame.obj
 0001:00020eb1       ?fin$0@?0???$?RV<lambda_0ae27a3a962d80f24befdcbee591983d>@@AEAV<lambda_8d0ee55de4b1038c4002e0adecdf1839>@@V<lambda_dc504788e8f1664fe9b84e20bfb512f2>@@@?$__crt_seh_guarded_call@X@@QEAAX$$QEAV<lambda_0ae27a3a962d80f24befdcbee591983d>@@AEAV<lambda_8d0ee55de4b1038c4002e0adecdf1839>@@$$QEAV<lambda_dc504788e8f1664fe9b84e20bfb512f2>@@@Z@4HA 0000000180021eb1 f   libucrt:per_thread_data.obj
 0001:00020eb1       ?fin$0@?0???$?RV<lambda_2d41944a1d46af3157314b8a01080d33>@@AEAV<lambda_8f455de75cd7d7f24b4096f044d8b9e6>@@V<lambda_aa500f224e6afead328df44964fe2772>@@@?$__crt_seh_guarded_call@X@@QEAAX$$QEAV<lambda_2d41944a1d46af3157314b8a01080d33>@@AEAV<lambda_8f455de75cd7d7f24b4096f044d8b9e6>@@$$QEAV<lambda_aa500f224e6afead328df44964fe2772>@@@Z@4HA 0000000180021eb1 f   libucrt:per_thread_data.obj
 0001:00020eb1       ?fin$0@?0???$?RV<lambda_aa87e3671a710a21b5dc78c0bdf72e11>@@AEAV<lambda_92619d2358a28f41a33ba319515a20b9>@@V<lambda_6992ecaafeb10aed2b74cb1fae11a551>@@@?$__crt_seh_guarded_call@X@@QEAAX$$QEAV<lambda_aa87e3671a710a21b5dc78c0bdf72e11>@@AEAV<lambda_92619d2358a28f41a33ba319515a20b9>@@$$QEAV<lambda_6992ecaafeb10aed2b74cb1fae11a551>@@@Z@4HA 0000000180021eb1 f   libucrt:per_thread_data.obj
 0001:00020eb1       ?fin$0@?0???$?RV<lambda_f2e299630e499de9f9a165e60fcd3db5>@@AEAV<lambda_2ae9d31cdba2644fcbeaf08da7c24588>@@V<lambda_40d01ff24d0e7b3814fdbdcee8eab3c7>@@@?$__crt_seh_guarded_call@X@@QEAAX$$QEAV<lambda_f2e299630e499de9f9a165e60fcd3db5>@@AEAV<lambda_2ae9d31cdba2644fcbeaf08da7c24588>@@$$QEAV<lambda_40d01ff24d0e7b3814fdbdcee8eab3c7>@@@Z@4HA 0000000180021eb1 f   libucrt:per_thread_data.obj
 0001:00020eb1       ?fin$0@?0???$?RV<lambda_efdfa57d1f175319df784efa44bb7b81>@@AEAV<lambda_5f0a4c1567f8adc6734073e5d1e1b35c>@@V<lambda_2e8a7d3640ea6ccb4c2413664c2db6fd>@@@?$__crt_seh_guarded_call@X@@QEAAX$$QEAV<lambda_efdfa57d1f175319df784efa44bb7b81>@@AEAV<lambda_5f0a4c1567f8adc6734073e5d1e1b35c>@@$$QEAV<lambda_2e8a7d3640ea6ccb4c2413664c2db6fd>@@@Z@4HA 0000000180021eb1 f   libucrt:mbctype.obj
 0001:00020eb1       ?fin$0@?0???$?RV<lambda_450d765d439847d4c735a33c368b5fc0>@@AEAV<lambda_44731a7d0e6d81c3e6aa82d741081786>@@V<lambda_601a2a7da3b7a96e9554ac7215c4b07c>@@@?$__crt_seh_guarded_call@P6AXH@Z@@QEAAP6AXH@Z$$QEAV<lambda_450d765d439847d4c735a33c368b5fc0>@@AEAV<lambda_44731a7d0e6d81c3e6aa82d741081786>@@$$QEAV<lambda_601a2a7da3b7a96e9554ac7215c4b07c>@@@Z@4HA 0000000180021eb1 f   libucrt:signal.obj
 0001:00020eb1       ?fin$0@?0???$?RV<lambda_d80eeec6fff315bfe5c115232f3240e3>@@AEAV<lambda_6e4b09c48022b2350581041d5f6b0c4c>@@V<lambda_2358e3775559c9db80273638284d5e45>@@@?$__crt_seh_guarded_call@X@@QEAAX$$QEAV<lambda_d80eeec6fff315bfe5c115232f3240e3>@@AEAV<lambda_6e4b09c48022b2350581041d5f6b0c4c>@@$$QEAV<lambda_2358e3775559c9db80273638284d5e45>@@@Z@4HA 0000000180021eb1 f   libucrt:exit.obj
 0001:00020eb1       ?fin$0@?0???$?RV<lambda_638799b9deba96c50f710eeac98168cd>@@AEAV<lambda_22ebabd17bc4fa466a2aca6d8deb888d>@@V<lambda_a6f7d7db0129f75315ebf26d50c089f1>@@@?$__crt_seh_guarded_call@H@@QEAAH$$QEAV<lambda_638799b9deba96c50f710eeac98168cd>@@AEAV<lambda_22ebabd17bc4fa466a2aca6d8deb888d>@@$$QEAV<lambda_a6f7d7db0129f75315ebf26d50c089f1>@@@Z@4HA 0000000180021eb1 f   libucrt:onexit.obj
 0001:00020eb1       ?fin$0@?0???$?RV<lambda_7777bce6b2f8c936911f934f8298dc43>@@AEAV<lambda_f03950bc5685219e0bcd2087efbe011e>@@V<lambda_3883c3dff614d5e0c5f61bb1ac94921c>@@@?$__crt_seh_guarded_call@H@@QEAAH$$QEAV<lambda_7777bce6b2f8c936911f934f8298dc43>@@AEAV<lambda_f03950bc5685219e0bcd2087efbe011e>@@$$QEAV<lambda_3883c3dff614d5e0c5f61bb1ac94921c>@@@Z@4HA 0000000180021eb1 f   libucrt:onexit.obj
 0001:00020ecb       ?filt$0@?0???R<lambda_6e4b09c48022b2350581041d5f6b0c4c>@@QEBA@XZ@4HA 0000000180021ecb f   libucrt:exit.obj
 0001:00020ee6       _query_new_handler$fin$0   0000000180021ee6 f   libucrt:new_handler.obj
 0001:00020efc       ?fin$0@?0???$?RV<lambda_410d79af7f07d98d83a3f525b3859a53>@@AEAV<lambda_3e16ef9562a7dcce91392c22ab16ea36>@@V<lambda_38119f0e861e05405d8a144b9b982f0a>@@@?$__crt_seh_guarded_call@X@@QEAAX$$QEAV<lambda_410d79af7f07d98d83a3f525b3859a53>@@AEAV<lambda_3e16ef9562a7dcce91392c22ab16ea36>@@$$QEAV<lambda_38119f0e861e05405d8a144b9b982f0a>@@@Z@4HA 0000000180021efc f   libucrt:wsetlocale.obj
 0001:00020f16       __acrt_initialize_lowio$fin$0 0000000180021f16 f   libucrt:ioinit.obj
 0001:00020f16       __acrt_lowio_ensure_fh_exists$fin$0 0000000180021f16 f   libucrt:osfinfo.obj
 0001:00020f2f       ?fin$0@?0??update_thread_multibyte_data_internal@@YAPEAU__crt_multibyte_data@@QEAU__acrt_ptd@@QEAPEAU1@@Z@4HA 0000000180021f2f f   libucrt:mbctype.obj
 0001:00020f48       raise$fin$0                0000000180021f48 f   libucrt:signal.obj
 0001:00020f69       ?fin$0@?0???$?RV<lambda_842d9ff0dc9ef11c61343bbaebe7f885>@@AEAV<lambda_c5860995281e5c4ce005b3de8f5874ee>@@V<lambda_d90129c13df834fdcbf8d2b88dafcf2d>@@@?$__crt_seh_guarded_call@X@@QEAAX$$QEAV<lambda_842d9ff0dc9ef11c61343bbaebe7f885>@@AEAV<lambda_c5860995281e5c4ce005b3de8f5874ee>@@$$QEAV<lambda_d90129c13df834fdcbf8d2b88dafcf2d>@@@Z@4HA 0000000180021f69 f   libucrt:fflush.obj
 0001:00020f84       ?fin$0@?0???$?RV<lambda_886d6c58226a84441f68b9f2b8217b83>@@AEAV<lambda_ab61a845afdef5b7c387490eaf3616ee>@@V<lambda_f7f22ab5edc0698d5f6905b0d3f44752>@@@?$__crt_seh_guarded_call@X@@QEAAX$$QEAV<lambda_886d6c58226a84441f68b9f2b8217b83>@@AEAV<lambda_ab61a845afdef5b7c387490eaf3616ee>@@$$QEAV<lambda_f7f22ab5edc0698d5f6905b0d3f44752>@@@Z@4HA 0000000180021f84 f   libucrt:fflush.obj
 0001:00020fa1       __acrt_update_thread_locale_data$fin$0 0000000180021fa1 f   libucrt:locale_refcounting.obj
 0001:00020fba       _fcloseall$fin$0           0000000180021fba f   libucrt:closeall.obj
 0001:00020fd3       ?fin$0@?0???$?RV<lambda_751a882b2c74d4b022dec766aa51a29a>@@AEAV<lambda_628dfdc04ba53c8bfc02c9951375f3f5>@@V<lambda_f6c7be5f7998530c34de24c7437d6b54>@@@?$__crt_seh_guarded_call@H@@QEAAH$$QEAV<lambda_751a882b2c74d4b022dec766aa51a29a>@@AEAV<lambda_628dfdc04ba53c8bfc02c9951375f3f5>@@$$QEAV<lambda_f6c7be5f7998530c34de24c7437d6b54>@@@Z@4HA 0000000180021fd3 f   libucrt:close.obj
 0001:00020fd3       ?fin$0@?0???$?RV<lambda_a37b2b86f63e897a80ea819b0eb08c01>@@AEAV<lambda_38ce7e780aa69e748d6df282ebc68efe>@@V<lambda_99fb1378e971ab6e7edea83e3a7a83a2>@@@?$__crt_seh_guarded_call@H@@QEAAH$$QEAV<lambda_a37b2b86f63e897a80ea819b0eb08c01>@@AEAV<lambda_38ce7e780aa69e748d6df282ebc68efe>@@$$QEAV<lambda_99fb1378e971ab6e7edea83e3a7a83a2>@@@Z@4HA 0000000180021fd3 f   libucrt:commit.obj
 0001:00020fed       _write$fin$0               0000000180021fed f   libucrt:write.obj
 0001:00021004       fclose$fin$0               0000000180022004 f   libucrt:fclose.obj
 0001:0002101c       _ctrlfp$filt$0             000000018002201c f   libucrt:fpctrl.obj
 0001:0002101c       common_control87$filt$0    000000018002201c f   libucrt:ieee.obj
 0001:00021050       _IsNonwritableInCurrentImage$filt$0 0000000180022050 f   LIBCMT:pesect.obj
 0001:00021070       ??__F_AtlComModule@ATL@@YAXXZ 0000000180022070 f   OposVariant.obj
 0001:0002107c       ??__F_AtlWinModule@ATL@@YAXXZ 000000018002207c f   OposVariant.obj
 0001:000210c0       ??__F_Module@@YAXXZ        00000001800220c0 f   MotionSensor.obj
 0001:000210dc       ??__F_AtlBaseModule@ATL@@YAXXZ 00000001800220dc f   atls:atlbase.obj
 0002:00000648       ?_AtlBaseModule$initializer$@ATL@@3P6AXXZEA 0000000180023648     atls:atlbase.obj
 0002:00000650       ?_AtlComModule$initializer$@ATL@@3P6AXXZEA 0000000180023650     OposVariant.obj
 0002:00000658       ?_AtlWinModule$initializer$@ATL@@3P6AXXZEA 0000000180023658     OposVariant.obj
 0002:00000660       ?_Module$initializer$@@3P6AXXZEA 0000000180023660     MotionSensor.obj
 0002:00000668       ??pConnMap$initializer$@?$IConnectionPointContainerImpl@VCOPOSMotionSensor@@@ATL@@0P6AXXZEA@@3P6AXXZEA 0000000180023668     MotionSensor.obj
 0002:00000680       ?__scrt_initialize_tss_var@@3P6AHXZEA 0000000180023680     LIBCMT:thread_safe_statics.obj
 0002:00002568       GS_ExceptionPointers       0000000180025568     LIBCMT:gs_report.obj
 0002:00002750       ?ExceptionTemplate@?1??UnwindNestedFrames@__FrameHandler4@@SAXPEA_KPEAUEHExceptionRecord@@PEAU_CONTEXT@@0PEAXPEAUFuncInfo4@FH4@@HHPEAUHandlerType4@6@PEAU_xDISPATCHER_CONTEXT@@E@Z@4U_EXCEPTION_RECORD@@B 0000000180025750     libvcruntime:risctrnsctrl.obj
 0002:00002820       ?tokenTable@@3QBUStringLiteral@@B 0000000180025820     libvcruntime:undname.obj
 0002:00002920       ?nameTable@@3QBUStringLiteral@@B 0000000180025920     libvcruntime:undname.obj
 0002:00002e50       ?rttiTable@@3QBUStringLiteral@@B 0000000180025e50     libvcruntime:undname.obj
 0002:00002ea0       ?IndirectionName@@3QBUStringLiteral@@B 0000000180025ea0     libvcruntime:undname.obj
 0002:00002f00       ?PrefixName@@3QBUStringLiteral@@B 0000000180025f00     libvcruntime:undname.obj
 0002:000035d8       ?module_names@?A0x84e3c32f@@3QBQEB_WB 00000001800265d8     libvcruntime:winapi_downlevel.obj
 0002:00003698       ?candidate_modules@?1??try_get_FlsAlloc@@YAP6AKP6AXPEAX@Z@ZXZ@4QBW4module_id@?A0x84e3c32f@@B 0000000180026698     libvcruntime:winapi_downlevel.obj
 0002:000036b0       ?candidate_modules@?1??try_get_FlsFree@@YAP6AHK@ZXZ@4QBW4module_id@?A0x84e3c32f@@B 00000001800266b0     libvcruntime:winapi_downlevel.obj
 0002:000036c0       ?candidate_modules@?1??try_get_FlsGetValue@@YAP6APEAXK@ZXZ@4QBW4module_id@?A0x84e3c32f@@B 00000001800266c0     libvcruntime:winapi_downlevel.obj
 0002:000036d8       ?candidate_modules@?1??try_get_FlsSetValue@@YAP6AHKPEAX@ZXZ@4QBW4module_id@?A0x84e3c32f@@B 00000001800266d8     libvcruntime:winapi_downlevel.obj
 0002:000036f0       ?candidate_modules@?1??try_get_InitializeCriticalSectionEx@@YAP6AHPEAU_RTL_CRITICAL_SECTION@@KK@ZXZ@4QBW4module_id@?A0x84e3c32f@@B 00000001800266f0     libvcruntime:winapi_downlevel.obj
 0002:00003720       ?errtable@@3QBUerrentry@?A0x31fdb9ec@@B 0000000180026720     libucrt:errno.obj
 0002:00003db0       __acrt_initializers        0000000180026db0     libucrt:initialization.obj
 0002:00003eb0       ?module_names@?A0x391cf84c@@3QBQEB_WB 0000000180026eb0     libucrt:winapi_thunks.obj
 0002:000043b8       ?candidate_modules@?1??try_get_AreFileApisANSI@@YAP6AHXZXZ@4QBW4module_id@?A0x391cf84c@@B 00000001800273b8     libucrt:winapi_thunks.obj
 0002:000043d0       ?candidate_modules@?1??try_get_FlsAlloc@@YAP6AKP6AXPEAX@Z@ZXZ@4QBW4module_id@?A0x391cf84c@@B 00000001800273d0     libucrt:winapi_thunks.obj
 0002:000043d8       ?candidate_modules@?1??try_get_FlsFree@@YAP6AHK@ZXZ@4QBW4module_id@?A0x391cf84c@@B 00000001800273d8     libucrt:winapi_thunks.obj
 0002:000043e0       ?candidate_modules@?1??try_get_FlsGetValue@@YAP6APEAXK@ZXZ@4QBW4module_id@?A0x391cf84c@@B 00000001800273e0     libucrt:winapi_thunks.obj
 0002:000043e8       ?candidate_modules@?1??try_get_FlsSetValue@@YAP6AHKPEAX@ZXZ@4QBW4module_id@?A0x391cf84c@@B 00000001800273e8     libucrt:winapi_thunks.obj
 0002:000043f0       ?candidate_modules@?1??try_get_InitializeCriticalSectionEx@@YAP6AHPEAU_RTL_CRITICAL_SECTION@@KK@ZXZ@4QBW4module_id@?A0x391cf84c@@B 00000001800273f0     libucrt:winapi_thunks.obj
 0002:000043f8       ?candidate_modules@?1??try_get_LCMapStringEx@@YAP6AHPEB_WK0HPEA_WHPEAU_nlsversioninfo@@PEAX_J@ZXZ@4QBW4module_id@?A0x391cf84c@@B 00000001800273f8     libucrt:winapi_thunks.obj
 0002:00004410       ?candidate_modules@?1??try_get_LocaleNameToLCID@@YAP6AKPEB_WK@ZXZ@4QBW4module_id@?A0x391cf84c@@B 0000000180027410     libucrt:winapi_thunks.obj
 0002:0000442c       ?candidate_modules@?1??try_get_AppPolicyGetProcessTerminationMethod@@YAP6AJPEAXPEAW4AppPolicyProcessTerminationMethod@@@ZXZ@4QBW4module_id@?A0x391cf84c@@B 000000018002742c     libucrt:winapi_thunks.obj
 0002:00004458       ?candidate_modules@?1??try_get_SetThreadStackGuarantee@@YAP6AHPEAK@ZXZ@4QBW4module_id@?A0x391cf84c@@B 0000000180027458     libucrt:winapi_thunks.obj
 0002:00004480       ?strings@?1??fp_format_nan_or_infinity@@YAHW4__acrt_fp_class@@_NPEAD_K1@Z@4QAY03QEBDA 0000000180027480     libucrt:cvt.obj
 0002:00004be0       ?_mb_locale_names@@3QBQEB_WB 0000000180027be0     libucrt:mbctype.obj
 0002:00005450       ?LcidToLocaleNameTable@?A0x881e4c05@@3QBULcidToLocaleName@1@B 0000000180028450     libucrt:lcidtoname_downlevel.obj
 0002:00006eb0       ?LocaleNameToIndexTable@?A0x881e4c05@@3QBULocaleNameIndex@1@B 0000000180029eb0     libucrt:lcidtoname_downlevel.obj
 0002:00009150       __real_ninf                000000018002c150     libucrt:log10.obj
 0002:00009160       __real_inf                 000000018002c160     libucrt:log10.obj
 0002:00009170       __real_neg_qnan            000000018002c170     libucrt:log10.obj
 0002:00009180       __real_qnanbit             000000018002c180     libucrt:log10.obj
 0002:00009190       __int_1023                 000000018002c190     libucrt:log10.obj
 0002:000091a0       __mask_001                 000000018002c1a0     libucrt:log10.obj
 0002:000091b0       __mask_mant                000000018002c1b0     libucrt:log10.obj
 0002:000091c0       __mask_mant_top8           000000018002c1c0     libucrt:log10.obj
 0002:000091d0       __mask_mant9               000000018002c1d0     libucrt:log10.obj
 0002:000091e0       __real_log10_e             000000018002c1e0     libucrt:log10.obj
 0002:000091f0       __real_log10_e_lead        000000018002c1f0     libucrt:log10.obj
 0002:00009200       __real_log10_e_tail        000000018002c200     libucrt:log10.obj
 0002:00009210       __real_log10_2_lead        000000018002c210     libucrt:log10.obj
 0002:00009220       __real_log10_2_tail        000000018002c220     libucrt:log10.obj
 0002:00009230       __real_two                 000000018002c230     libucrt:log10.obj
 0002:00009240       __real_one                 000000018002c240     libucrt:log10.obj
 0002:00009250       __real_half                000000018002c250     libucrt:log10.obj
 0002:00009260       __mask_100                 000000018002c260     libucrt:log10.obj
 0002:00009270       __real_1_over_512          000000018002c270     libucrt:log10.obj
 0002:00009280       __real_1_over_2            000000018002c280     libucrt:log10.obj
 0002:00009290       __real_1_over_3            000000018002c290     libucrt:log10.obj
 0002:000092a0       __real_1_over_4            000000018002c2a0     libucrt:log10.obj
 0002:000092b0       __real_1_over_5            000000018002c2b0     libucrt:log10.obj
 0002:000092c0       __real_1_over_6            000000018002c2c0     libucrt:log10.obj
 0002:000092d0       __real_neg_1023            000000018002c2d0     libucrt:log10.obj
 0002:000092e0       __mask_2045                000000018002c2e0     libucrt:log10.obj
 0002:000092f0       __real_threshold           000000018002c2f0     libucrt:log10.obj
 0002:00009300       __real_near_one_lt         000000018002c300     libucrt:log10.obj
 0002:00009310       __real_near_one_gt         000000018002c310     libucrt:log10.obj
 0002:00009320       __real_min_norm            000000018002c320     libucrt:log10.obj
 0002:00009330       __real_notsign             000000018002c330     libucrt:log10.obj
 0002:00009340       __real_ca1                 000000018002c340     libucrt:log10.obj
 0002:00009350       __real_ca2                 000000018002c350     libucrt:log10.obj
 0002:00009360       __real_ca3                 000000018002c360     libucrt:log10.obj
 0002:00009370       __real_ca4                 000000018002c370     libucrt:log10.obj
 0002:00009380       __mask_lower               000000018002c380     libucrt:log10.obj
 0002:00009390       __flag_x_zero              000000018002c390     libucrt:log10.obj
 0002:00009394       __flag_x_neg               000000018002c394     libucrt:log10.obj
 0002:00009398       __flag_x_nan               000000018002c398     libucrt:log10.obj
 0002:0000abf0       __real@433fffffffffffff    000000018002dbf0     libucrt:fpsr.obj
 0002:0000abf8       __real@c33fffffffffffff    000000018002dbf8     libucrt:fpsr.obj
 0002:0000b4d8       $unwind$?cw_memcpy@@YAHPEA_WPEBDH@Z 000000018002e4d8     CWString.obj
 0002:0000b4d8       $unwind$?ProcessWindowMessage@?$CComControl@VCOPOSMotionSensor@@V?$CWindowImpl@VCOPOSMotionSensor@@VCWindow@ATL@@V?$CWinTraits@$0FGAAAAAA@$0A@@3@@ATL@@@ATL@@UEAAHPEAUHWND__@@I_K_JAEA_JK@Z 000000018002e4d8     MotionSensor.obj
 0002:0000b4d8       $unwind$wcstol             000000018002e4d8     libucrt:strtox.obj
 0002:0000b4d8       $unwind$_invalid_parameter_noinfo 000000018002e4d8     libucrt:invalid_parameter.obj
 0002:0000b4d8       $unwind$_log10_special     000000018002e4d8     libucrt:log_special.obj
 0002:0000b4e0       $unwind$?cw_strcpy@@YAHPEA_WPEBD@Z 000000018002e4e0     CWString.obj
 0002:0000b4e0       $unwind$??__E?pConnMap@?$IConnectionPointContainerImpl@VCOPOSMotionSensor@@@ATL@@0PEBU_ATL_CONNMAP_ENTRY@2@EB@@YAXXZ 000000018002e4e0     MotionSensor.obj
 0002:0000b4e0       $unwind$?AddReplacement@CRegObject@ATL@@UEAAJPEB_W0@Z 000000018002e4e0     MotionSensor.obj
 0002:0000b4e0       $unwind$?AtlHresultFromLastError@ATL@@YAJXZ 000000018002e4e0     MotionSensor.obj
 0002:0000b4e0       $unwind$?AtlThrowImpl@ATL@@YAXJ@Z 000000018002e4e0     MotionSensor.obj
 0002:0000b4e0       $unwind$?CreateInstance@CComClassFactory@ATL@@UEAAJPEAUIUnknown@@AEBU_GUID@@PEAPEAX@Z 000000018002e4e0     MotionSensor.obj
 0002:0000b4e0       $unwind$?DefaultReflectionHandler@?$CWindowImplRoot@VCWindow@ATL@@@ATL@@SAHPEAUHWND__@@I_K_JAEA_J@Z 000000018002e4e0     MotionSensor.obj
 0002:0000b4e0       $unwind$?EnumAdvise@?$IOleObjectImpl@VCOPOSMotionSensor@@@ATL@@UEAAJPEAPEAUIEnumSTATDATA@@@Z 000000018002e4e0     MotionSensor.obj
 0002:0000b4e0       $unwind$?FireViewChange@CComControlBase@ATL@@QEAAJXZ 000000018002e4e0     MotionSensor.obj
 0002:0000b4e0       $unwind$?GetAdvise@?$IViewObjectExImpl@VCOPOSMotionSensor@@@ATL@@UEAAJPEAK0PEAPEAUIAdviseSink@@@Z 000000018002e4e0     MotionSensor.obj
 0002:0000b4e0       $unwind$?LockServer@CComClassFactory@ATL@@UEAAJH@Z 000000018002e4e0     MotionSensor.obj
 0002:0000b4e0       $unwind$?OnDocWindowActivate@?$IOleInPlaceActiveObjectImpl@VCOPOSMotionSensor@@@ATL@@UEAAJH@Z 000000018002e4e0     MotionSensor.obj
 0002:0000b4e0       $unwind$?Unadvise@?$IOleObjectImpl@VCOPOSMotionSensor@@@ATL@@UEAAJK@Z 000000018002e4e0     MotionSensor.obj
 0002:0000b4e0       $unwind$?_LocCPQueryInterface@?$IConnectionPointImpl@VCOPOSMotionSensor@@$1?DIID__IOPOSMotionSensorEvents@@3U_GUID@@BVCComDynamicUnkArray@ATL@@@ATL@@UEAAJAEBU_GUID@@PEAPEAX@Z 000000018002e4e0     MotionSensor.obj
 0002:0000b4e0       $unwind$?_LocCPQueryInterface@?$IConnectionPointImpl@VCOPOSMotionSensor@@$1?IID_IPropertyNotifySink@@3U_GUID@@BVCComDynamicUnkArray@ATL@@@ATL@@UEAAJAEBU_GUID@@PEAPEAX@Z 000000018002e4e0     MotionSensor.obj
 0002:0000b4e0       $unwind$?FinalConstruct@COPOSMotionSensor@@QEAAJXZ 000000018002e4e0     MotionSensorImpl.obj
 0002:0000b4e0       $unwind$?get_ResultCode@COPOSMotionSensor@@UEAAJPEAJ@Z 000000018002e4e0     MotionSensorImpl.obj
 0002:0000b4e0       $unwind$?get_State@COPOSMotionSensor@@UEAAJPEAJ@Z 000000018002e4e0     MotionSensorImpl.obj
 0002:0000b4e0       $unwind$??1OposDispParms@@QEAA@XZ 000000018002e4e0     OposVariant.obj
 0002:0000b4e0       $unwind$??__E_AtlComModule@ATL@@YAXXZ 000000018002e4e0     OposVariant.obj
 0002:0000b4e0       $unwind$??__E_AtlWinModule@ATL@@YAXXZ 000000018002e4e0     OposVariant.obj
 0002:0000b4e0       $unwind$??__F_AtlWinModule@ATL@@YAXXZ 000000018002e4e0     OposVariant.obj
 0002:0000b4e0       $unwind$?GetLONG@OposVariant@@QEAAJXZ 000000018002e4e0     OposVariant.obj
 0002:0000b4e0       $unwind$??__E_AtlBaseModule@ATL@@YAXXZ 000000018002e4e0     atls:atlbase.obj
 0002:0000b4e0       $unwind$__scrt_initialize_default_local_stdio_options 000000018002e4e0     LIBCMT:default_local_stdio_options.obj
 0002:0000b4e0       $unwind$?dllmain_crt_dispatch@@YAHQEAUHINSTANCE__@@KQEAX@Z 000000018002e4e0     LIBCMT:dll_dllmain.obj
 0002:0000b4e0       $unwind$__report_rangecheckfailure 000000018002e4e0     LIBCMT:gs_report.obj
 0002:0000b4e0       $unwind$__GSHandlerCheck   000000018002e4e0     LIBCMT:gshandler.obj
 0002:0000b4e0       $unwind$?__scrt_uninitialize_thread_safe_statics@@YAXXZ 000000018002e4e0     LIBCMT:thread_safe_statics.obj
 0002:0000b4e0       $unwind$_Init_thread_notify 000000018002e4e0     LIBCMT:thread_safe_statics.obj
 0002:0000b4e0       $unwind$__scrt_acquire_startup_lock 000000018002e4e0     LIBCMT:utility.obj
 0002:0000b4e0       $unwind$__scrt_dllmain_after_initialize_c 000000018002e4e0     LIBCMT:utility.obj
 0002:0000b4e0       $unwind$__scrt_dllmain_before_initialize_c 000000018002e4e0     LIBCMT:utility.obj
 0002:0000b4e0       $unwind$__scrt_dllmain_crt_thread_attach 000000018002e4e0     LIBCMT:utility.obj
 0002:0000b4e0       $unwind$__scrt_dllmain_crt_thread_detach 000000018002e4e0     LIBCMT:utility.obj
 0002:0000b4e0       $unwind$__scrt_dllmain_uninitialize_c 000000018002e4e0     LIBCMT:utility.obj
 0002:0000b4e0       $unwind$__scrt_dllmain_uninitialize_critical 000000018002e4e0     LIBCMT:utility.obj
 0002:0000b4e0       $unwind$atexit             000000018002e4e0     LIBCMT:utility.obj
 0002:0000b4e0       $unwind$__vcrt_initialize  000000018002e4e0     libvcruntime:initialization.obj
 0002:0000b4e0       $unwind$__vcrt_thread_attach 000000018002e4e0     libvcruntime:initialization.obj
 0002:0000b4e0       $unwind$__vcrt_thread_detach 000000018002e4e0     libvcruntime:initialization.obj
 0002:0000b4e0       $unwind$__vcrt_uninitialize 000000018002e4e0     libvcruntime:initialization.obj
 0002:0000b4e0       $unwind$__vcrt_uninitialize_critical 000000018002e4e0     libvcruntime:initialization.obj
 0002:0000b4e0       $unwind$__vcrt_initialize_locks 000000018002e4e0     libvcruntime:locks.obj
 0002:0000b4e0       $unwind$__vcrt_freefls     000000018002e4e0     libvcruntime:per_thread_data.obj
 0002:0000b4e0       $unwind$__vcrt_getptd      000000018002e4e0     libvcruntime:per_thread_data.obj
 0002:0000b4e0       $unwind$__vcrt_initialize_ptd 000000018002e4e0     libvcruntime:per_thread_data.obj
 0002:0000b4e0       $unwind$__vcrt_uninitialize_ptd 000000018002e4e0     libvcruntime:per_thread_data.obj
 0002:0000b4e0       $unwind$_purecall          000000018002e4e0     libvcruntime:purevirt.obj
 0002:0000b4e0       $unwind$?FrameUnwindToEmptyState@__FrameHandler4@@SAXPEA_KPEAU_xDISPATCHER_CONTEXT@@PEAUFuncInfo4@FH4@@@Z 000000018002e4e0     libvcruntime:risctrnsctrl.obj
 0002:0000b4e0       $unwind$_GetImageBase      000000018002e4e0     libvcruntime:risctrnsctrl.obj
 0002:0000b4e0       $unwind$_GetThrowImageBase 000000018002e4e0     libvcruntime:risctrnsctrl.obj
 0002:0000b4e0       $unwind$__dcrt_terminate_console_output 000000018002e4e0     libucrt:initcon.obj
 0002:0000b4e0       $unwind$??$uninitialize_environment_internal@D@@YAXAEAPEAPEAD@Z 000000018002e4e0     libucrt:environment_initialization.obj
 0002:0000b4e0       $unwind$??$uninitialize_environment_internal@_W@@YAXAEAPEAPEA_W@Z 000000018002e4e0     libucrt:environment_initialization.obj
 0002:0000b4e0       $unwind$__dcrt_uninitialize_environments_nolock 000000018002e4e0     libucrt:environment_initialization.obj
 0002:0000b4e0       $unwind$__acrt_initialize_heap 000000018002e4e0     libucrt:heap_handle.obj
 0002:0000b4e0       $unwind$_msize_base        000000018002e4e0     libucrt:msize.obj
 0002:0000b4e0       $unwind$?initialize_multibyte@@YAHXZ 000000018002e4e0     libucrt:multibyte_initializer.obj
 0002:0000b4e0       $unwind$__acrt_thread_attach 000000018002e4e0     libucrt:initialization.obj
 0002:0000b4e0       $unwind$__acrt_thread_detach 000000018002e4e0     libucrt:initialization.obj
 0002:0000b4e0       $unwind$__acrt_uninitialize 000000018002e4e0     libucrt:initialization.obj
 0002:0000b4e0       $unwind$__acrt_uninitialize_critical 000000018002e4e0     libucrt:initialization.obj
 0002:0000b4e0       $unwind$initialize_c       000000018002e4e0     libucrt:initialization.obj
 0002:0000b4e0       $unwind$uninitialize_allocated_io_buffers 000000018002e4e0     libucrt:initialization.obj
 0002:0000b4e0       $unwind$uninitialize_environment 000000018002e4e0     libucrt:initialization.obj
 0002:0000b4e0       $unwind$__acrt_initialize_ptd 000000018002e4e0     libucrt:per_thread_data.obj
 0002:0000b4e0       $unwind$__acrt_uninitialize_ptd 000000018002e4e0     libucrt:per_thread_data.obj
 0002:0000b4e0       $unwind$__acrt_AreFileApisANSI 000000018002e4e0     libucrt:winapi_thunks.obj
 0002:0000b4e0       $unwind$__pctype_func      000000018002e4e0     libucrt:ctype.obj
 0002:0000b4e0       $unwind$__acrt_release_locale_ref 000000018002e4e0     libucrt:locale_refcounting.obj
 0002:0000b4e0       $unwind$_isatty            000000018002e4e0     libucrt:isatty.obj
 0002:0000b4e0       $unwind$_get_osfhandle     000000018002e4e0     libucrt:osfinfo.obj
 0002:0000b4e0       $unwind$__acrt_initialize_multibyte 000000018002e4e0     libucrt:mbctype.obj
 0002:0000b4e0       $unwind$__acrt_update_thread_multibyte_data 000000018002e4e0     libucrt:mbctype.obj
 0002:0000b4e0       $unwind$__doserrno         000000018002e4e0     libucrt:errno.obj
 0002:0000b4e0       $unwind$_errno             000000018002e4e0     libucrt:errno.obj
 0002:0000b4e0       $unwind$_invoke_watson     000000018002e4e0     libucrt:invalid_parameter.obj
 0002:0000b4e0       $unwind$abort              000000018002e4e0     libucrt:abort.obj
 0002:0000b4e0       $unwind$__acrt_initialize_command_line 000000018002e4e0     libucrt:argv_data.obj
 0002:0000b4e0       $unwind$_fileno            000000018002e4e0     libucrt:fileno.obj
 0002:0000b4e0       $unwind$?state_case_size@?$output_processor@_WV?$string_output_adapter@_W@__crt_stdio_output@@V?$format_validation_base@_WV?$string_output_adapter@_W@__crt_stdio_output@@@2@@__crt_stdio_output@@AEAA_NXZ 000000018002e4e0     libucrt:output.obj
 0002:0000b4e0       $unwind$_statfp            000000018002e4e0     libucrt:fpctrl.obj
 0002:0000b4e0       $unwind$fegetround         000000018002e4e0     libucrt:fegetround.obj
 0002:0000b4e0       $unwind$_set_errno_from_matherr 000000018002e4e0     libucrt:fpexcept.obj
 0002:0000b4e8       $unwind$?cw_dup@@YAXPEBDAEAHAEAPEA_W1@Z 000000018002e4e8     CWString.obj
 0002:0000b4e8       $unwind$?DAdvise@?$IDataObjectImpl@VCOPOSMotionSensor@@@ATL@@UEAAJPEAUtagFORMATETC@@KPEAUIAdviseSink@@PEAK@Z 000000018002e4e8     MotionSensor.obj
 0002:0000b4e8       $unwind$??$__acrt_mbs_to_wcs_cp@U__crt_win32_buffer_internal_dynamic_resizing@@@@YAHQEBDAEAV?$__crt_win32_buffer@_WU__crt_win32_buffer_internal_dynamic_resizing@@@@I@Z 000000018002e4e8     libucrt:argv_wildcards.obj
 0002:0000b500       $unwind$?DupWide@_CW@@AEAAXXZ 000000018002e500     CWString.obj
 0002:0000b500       $unwind$??0?$CComObject@VCOPOSMotionSensor@@@ATL@@QEAA@PEAX@Z 000000018002e500     MotionSensor.obj
 0002:0000b500       $unwind$??0CAtlModule@ATL@@QEAA@XZ 000000018002e500     MotionSensor.obj
 0002:0000b500       $unwind$??1?$CComObject@VCOPOSMotionSensor@@@ATL@@UEAA@XZ 000000018002e500     MotionSensor.obj
 0002:0000b500       $unwind$??__E_Module@@YAXXZ 000000018002e500     MotionSensor.obj
 0002:0000b500       $unwind$?AddRef@?$CComObjectCached@VCComClassFactory@ATL@@@ATL@@UEAAKXZ 000000018002e500     MotionSensor.obj
 0002:0000b500       $unwind$?AllocateHeap@?$CTempBuffer@E$0BAA@VCCRTAllocator@ATL@@@ATL@@AEAAX_K@Z 000000018002e500     MotionSensor.obj
 0002:0000b500       $unwind$?AllocateHeap@?$CTempBuffer@_W$0BAA@VCCRTAllocator@ATL@@@ATL@@AEAAX_K@Z 000000018002e500     MotionSensor.obj
 0002:0000b500       $unwind$?AllocateHeap@?$CTempBuffer@_W$0EAA@VCCRTAllocator@ATL@@@ATL@@AEAAX_K@Z 000000018002e500     MotionSensor.obj
 0002:0000b500       $unwind$?GetClassInfoW@?$IProvideClassInfo2Impl@$1?CLSID_OPOSMotionSensor@@3U_GUID@@B$1?DIID__IOPOSMotionSensorEvents@@3U2@B$1?LIBID_OposMotionSensor_CCO@@3U2@B$00$0A@VCComTypeInfoHolder@ATL@@@ATL@@UEAAJPEAPEAUITypeInfo@@@Z 000000018002e500     MotionSensor.obj
 0002:0000b500       $unwind$?GetClientSite@?$IOleObjectImpl@VCOPOSMotionSensor@@@ATL@@UEAAJPEAPEAUIOleClientSite@@@Z 000000018002e500     MotionSensor.obj
 0002:0000b500       $unwind$?GetConnMap@COPOSMotionSensor@@SAPEBU_ATL_CONNMAP_ENTRY@ATL@@PEAH@Z 000000018002e500     MotionSensor.obj
 0002:0000b500       $unwind$?GetTypeInfo@?$IDispatchImpl@UIOPOSMotionSensor@@$1?IID_IOPOSMotionSensor@@3U_GUID@@B$1?LIBID_OposMotionSensor_CCO@@3U3@B$00$0A@VCComTypeInfoHolder@ATL@@@ATL@@UEAAJIKPEAPEAUITypeInfo@@@Z 000000018002e500     MotionSensor.obj
 0002:0000b500       $unwind$?IOleInPlaceObject_InPlaceDeactivate@CComControlBase@ATL@@QEAAJXZ 000000018002e500     MotionSensor.obj
 0002:0000b500       $unwind$?IOleObject_SetExtent@CComControlBase@ATL@@QEAAJKPEAUtagSIZE@@@Z 000000018002e500     MotionSensor.obj
 0002:0000b500       $unwind$?IsEqualObject@?$CComPtrBase@UIOleClientSite@@@ATL@@QEAA_NPEAUIUnknown@@@Z 000000018002e500     MotionSensor.obj
 0002:0000b500       $unwind$?QueryHitPoint@?$IViewObjectExImpl@VCOPOSMotionSensor@@@ATL@@UEAAJKPEBUtagRECT@@UtagPOINT@@JPEAK@Z 000000018002e500     MotionSensor.obj
 0002:0000b500       $unwind$?QueryInterface@?$CComAggObject@VCOPOSMotionSensor@@@ATL@@UEAAJAEBU_GUID@@PEAPEAX@Z 000000018002e500     MotionSensor.obj
 0002:0000b500       $unwind$?Release@?$CComObjectCached@VCComClassFactory@ATL@@@ATL@@UEAAKXZ 000000018002e500     MotionSensor.obj
 0002:0000b500       $unwind$?Unadvise@?$IConnectionPointImpl@VCOPOSMotionSensor@@$1?DIID__IOPOSMotionSensorEvents@@3U_GUID@@BVCComDynamicUnkArray@ATL@@@ATL@@UEAAJK@Z 000000018002e500     MotionSensor.obj
 0002:0000b500       $unwind$?Unadvise@?$IConnectionPointImpl@VCOPOSMotionSensor@@$1?IID_IPropertyNotifySink@@3U_GUID@@BVCComDynamicUnkArray@ATL@@@ATL@@UEAAJK@Z 000000018002e500     MotionSensor.obj
 0002:0000b500       $unwind$??1CComControlBase@ATL@@UEAA@XZ 000000018002e500     MotionSensorImpl.obj
 0002:0000b500       $unwind$??1COPOSMotionSensor@@UEAA@XZ 000000018002e500     MotionSensorImpl.obj
 0002:0000b500       $unwind$?EventUninit@COPOSMotionSensor@@IEAAXXZ 000000018002e500     MotionSensorImpl.obj
 0002:0000b500       $unwind$?FreezeEvents@COPOSMotionSensor@@MEAAJH@Z 000000018002e500     MotionSensorImpl.obj
 0002:0000b500       $unwind$?SOProcessID@COPOSMotionSensor@@UEAAJPEAJ@Z 000000018002e500     MotionSensorImpl.obj
 0002:0000b500       $unwind$?get_CapCompareFirmwareVersion@COPOSMotionSensor@@UEAAJPEAF@Z 000000018002e500     MotionSensorImpl.obj
 0002:0000b500       $unwind$?get_CapStatisticsReporting@COPOSMotionSensor@@UEAAJPEAF@Z 000000018002e500     MotionSensorImpl.obj
 0002:0000b500       $unwind$?get_CapUpdateFirmware@COPOSMotionSensor@@UEAAJPEAF@Z 000000018002e500     MotionSensorImpl.obj
 0002:0000b500       $unwind$?get_CapUpdateStatistics@COPOSMotionSensor@@UEAAJPEAF@Z 000000018002e500     MotionSensorImpl.obj
 0002:0000b500       $unwind$?get_Claimed@COPOSMotionSensor@@UEAAJPEAF@Z 000000018002e500     MotionSensorImpl.obj
 0002:0000b500       $unwind$?get_DeviceEnabled@COPOSMotionSensor@@UEAAJPEAF@Z 000000018002e500     MotionSensorImpl.obj
 0002:0000b500       $unwind$?get_FreezeEvents@COPOSMotionSensor@@UEAAJPEAF@Z 000000018002e500     MotionSensorImpl.obj
 0002:0000b500       $unwind$?get_Motion@COPOSMotionSensor@@UEAAJPEAF@Z 000000018002e500     MotionSensorImpl.obj
 0002:0000b500       $unwind$?put_FreezeEvents@COPOSMotionSensor@@UEAAJF@Z 000000018002e500     MotionSensorImpl.obj
 0002:0000b500       $unwind$??0CAtlComModule@ATL@@QEAA@XZ 000000018002e500     OposVariant.obj
 0002:0000b500       $unwind$??0CAtlWinModule@ATL@@QEAA@XZ 000000018002e500     OposVariant.obj
 0002:0000b500       $unwind$??1CAtlBaseModule@ATL@@QEAA@XZ 000000018002e500     atls:atlbase.obj
 0002:0000b500       $unwind$AtlThunk_AllocateData 000000018002e500     atls:atlthunk.obj
 0002:0000b500       $unwind$__raise_securityfailure 000000018002e500     LIBCMT:gs_report.obj
 0002:0000b500       $unwind$??2@YAPEAX_K@Z     000000018002e500     LIBCMT:new_scalar.obj
 0002:0000b500       $unwind$??_Gtype_info@@UEAAPEAXI@Z 000000018002e500     LIBCMT:std_type_info_static.obj
 0002:0000b500       $unwind$_Init_thread_footer 000000018002e500     LIBCMT:thread_safe_statics.obj
 0002:0000b500       $unwind$_Init_thread_header 000000018002e500     LIBCMT:thread_safe_statics.obj
 0002:0000b500       $unwind$_Init_thread_wait  000000018002e500     LIBCMT:thread_safe_statics.obj
 0002:0000b500       $unwind$??0bad_alloc@std@@QEAA@AEBV01@@Z 000000018002e500     LIBCMT:throw_bad_alloc.obj
 0002:0000b500       $unwind$??0bad_array_new_length@std@@QEAA@AEBV01@@Z 000000018002e500     LIBCMT:throw_bad_alloc.obj
 0002:0000b500       $unwind$??0exception@std@@QEAA@AEBV01@@Z 000000018002e500     LIBCMT:throw_bad_alloc.obj
 0002:0000b500       $unwind$__scrt_initialize_crt 000000018002e500     LIBCMT:utility.obj
 0002:0000b500       $unwind$__scrt_initialize_onexit_tables 000000018002e500     LIBCMT:utility.obj
 0002:0000b500       $unwind$__scrt_release_startup_lock 000000018002e500     LIBCMT:utility.obj
 0002:0000b500       $unwind$__scrt_uninitialize_crt 000000018002e500     LIBCMT:utility.obj
 0002:0000b500       $unwind$_onexit            000000018002e500     LIBCMT:utility.obj
 0002:0000b500       $unwind$_IsExceptionObjectToBeDestroyed 000000018002e500     libvcruntime:ehhelpers.obj
 0002:0000b500       $unwind$??0HandlerMap4@FH4@@QEAA@PEBUTryBlockMapEntry4@1@_KH@Z 000000018002e500     libvcruntime:frame.obj
 0002:0000b500       $unwind$??0bad_exception@std@@QEAA@AEBV01@@Z 000000018002e500     libvcruntime:frame.obj
 0002:0000b500       $unwind$?ExFilterRethrow@@YAHPEAU_EXCEPTION_POINTERS@@PEAUEHExceptionRecord@@PEAH@Z 000000018002e500     libvcruntime:frame.obj
 0002:0000b500       $unwind$__vcrt_uninitialize_locks 000000018002e500     libvcruntime:locks.obj
 0002:0000b500       $unwind$__vcrt_freeptd     000000018002e500     libvcruntime:per_thread_data.obj
 0002:0000b500       $unwind$_CreateFrameInfo   000000018002e500     libvcruntime:risctrnsctrl.obj
 0002:0000b500       $unwind$_SetImageBase      000000018002e500     libvcruntime:risctrnsctrl.obj
 0002:0000b500       $unwind$_SetThrowImageBase 000000018002e500     libvcruntime:risctrnsctrl.obj
 0002:0000b500       $unwind$__std_exception_destroy 000000018002e500     libvcruntime:std_exception.obj
 0002:0000b500       $unwind$__std_type_info_destroy_list 000000018002e500     libvcruntime:std_type_info.obj
 0002:0000b500       $unwind$__vcrt_FlsAlloc    000000018002e500     libvcruntime:winapi_downlevel.obj
 0002:0000b500       $unwind$__vcrt_FlsFree     000000018002e500     libvcruntime:winapi_downlevel.obj
 0002:0000b500       $unwind$__vcrt_FlsGetValue 000000018002e500     libvcruntime:winapi_downlevel.obj
 0002:0000b500       $unwind$_calloc_base       000000018002e500     libucrt:calloc_base.obj
 0002:0000b500       $unwind$_malloc_base       000000018002e500     libucrt:malloc_base.obj
 0002:0000b500       $unwind$_callnewh          000000018002e500     libucrt:new_handler.obj
 0002:0000b500       $unwind$initialize_pointers 000000018002e500     libucrt:initialization.obj
 0002:0000b500       $unwind$uninitialize_allocated_memory 000000018002e500     libucrt:initialization.obj
 0002:0000b500       $unwind$__acrt_initialize_locks 000000018002e500     libucrt:locks.obj
 0002:0000b500       $unwind$__acrt_uninitialize_locks 000000018002e500     libucrt:locks.obj
 0002:0000b500       $unwind$__acrt_freeptd     000000018002e500     libucrt:per_thread_data.obj
 0002:0000b500       $unwind$__acrt_getptd_head 000000018002e500     libucrt:per_thread_data.obj
 0002:0000b500       $unwind$__acrt_get_process_end_policy 000000018002e500     libucrt:win_policies.obj
 0002:0000b500       $unwind$__acrt_AppPolicyGetProcessTerminationMethodInternal 000000018002e500     libucrt:winapi_thunks.obj
 0002:0000b500       $unwind$__acrt_FlsAlloc    000000018002e500     libucrt:winapi_thunks.obj
 0002:0000b500       $unwind$__acrt_FlsFree     000000018002e500     libucrt:winapi_thunks.obj
 0002:0000b500       $unwind$__acrt_FlsGetValue 000000018002e500     libucrt:winapi_thunks.obj
 0002:0000b500       $unwind$__acrt_SetThreadStackGuarantee 000000018002e500     libucrt:winapi_thunks.obj
 0002:0000b500       $unwind$__acrt_uninitialize_winapi_thunks 000000018002e500     libucrt:winapi_thunks.obj
 0002:0000b500       $unwind$__acrt_update_locale_info 000000018002e500     libucrt:locale_update.obj
 0002:0000b500       $unwind$__acrt_update_multibyte_info 000000018002e500     libucrt:locale_update.obj
 0002:0000b500       $unwind$__acrt_allocate_buffer_for_argv 000000018002e500     libucrt:argv_parsing.obj
 0002:0000b500       $unwind$?exit_or_terminate_process@@YAXI@Z 000000018002e500     libucrt:exit.obj
 0002:0000b500       $unwind$?try_cor_exit_process@@YAXI@Z 000000018002e500     libucrt:exit.obj
 0002:0000b500       $unwind$__acrt_uninitialize_stdio 000000018002e500     libucrt:_file.obj
 0002:0000b500       $unwind$__acrt_stdio_free_buffer_nolock 000000018002e500     libucrt:_freebuf.obj
 0002:0000b500       $unwind$_fflush_nolock     000000018002e500     libucrt:fflush.obj
 0002:0000b500       $unwind$strcpy_s           000000018002e500     libucrt:strcpy_s.obj
 0002:0000b500       $unwind$wcscat_s           000000018002e500     libucrt:wcscat_s.obj
 0002:0000b500       $unwind$wcscpy_s           000000018002e500     libucrt:wcscpy_s.obj
 0002:0000b500       $unwind$_clrfp             000000018002e500     libucrt:fpctrl.obj
 0002:0000b500       $unwind$_set_statfp        000000018002e500     libucrt:fpctrl.obj
 0002:0000b500       $unwind$_clearfp           000000018002e500     libucrt:ieee.obj
 0002:0000b500       $unwind$_controlfp_s       000000018002e500     libucrt:contrlfp.obj
 0002:0000b500       $unwind$fegetenv           000000018002e500     libucrt:fegetenv.obj
 0002:0000b500       $unwind$feholdexcept       000000018002e500     libucrt:feholdexcept.obj
 0002:0000b500       $unwind$fesetenv           000000018002e500     libucrt:fesetenv.obj
 0002:0000b508       $unwind$?AtlWinModuleExtractCreateWndData@ATL@@YAPEAXPEAU_ATL_WIN_MODULE70@1@@Z 000000018002e508     MotionSensor.obj
 0002:0000b508       $unwind$?CreateInstance@?$CComCreator@V?$CComObject@VCOPOSMotionSensor@@@ATL@@@ATL@@SAJPEAXAEBU_GUID@@PEAPEAX@Z 000000018002e508     MotionSensor.obj
 0002:0000b508       $unwind$?DoEvent@COPOSMotionSensor@@IEAAXI_K_J@Z 000000018002e508     MotionSensor.obj
 0002:0000b508       $unwind$?DoVerb@?$IOleObjectImpl@VCOPOSMotionSensor@@@ATL@@UEAAJJPEAUtagMSG@@PEAUIOleClientSite@@JPEAUHWND__@@PEBUtagRECT@@@Z 000000018002e508     MotionSensor.obj
 0002:0000b508       $unwind$?HKeyFromString@CRegParser@ATL@@KAPEAUHKEY__@@PEA_W@Z 000000018002e508     MotionSensor.obj
 0002:0000b508       $unwind$?Next@?$CComEnumImpl@UIEnumConnectionPoints@@$1?_GUID_b196b285_bab4_101a_b69c_00aa00341d07@@3U__s_GUID@@BPEAUIConnectionPoint@@V?$_CopyInterface@UIConnectionPoint@@@ATL@@@ATL@@UEAAJKPEAPEAUIConnectionPoint@@PEAK@Z 000000018002e508     MotionSensor.obj
 0002:0000b508       $unwind$?Next@?$CComEnumImpl@UIEnumConnections@@$1?_GUID_b196b287_bab4_101a_b69c_00aa00341d07@@3U__s_GUID@@BUtagCONNECTDATA@@V?$_Copy@UtagCONNECTDATA@@@ATL@@@ATL@@UEAAJKPEAUtagCONNECTDATA@@PEAK@Z 000000018002e508     MotionSensor.obj
 0002:0000b508       $unwind$?SODirectIO@COPOSMotionSensor@@MEAAJJPEAJPEAPEA_W@Z 000000018002e508     MotionSensor.obj
 0002:0000b508       $unwind$?SetControlFocus@CComControlBase@ATL@@QEAAHH@Z 000000018002e508     MotionSensor.obj
 0002:0000b508       $unwind$?ocscpy_s@@YA_NPEA_W_KPEB_W@Z 000000018002e508     MotionSensor.obj
 0002:0000b508       $unwind$?s_EventWindowProc@COPOSMotionSensor@@KA_JPEAUHWND__@@I_K_J@Z 000000018002e508     MotionSensorImpl.obj
 0002:0000b508       $unwind$?AtlWinModuleTerm@ATL@@YAJPEAU_ATL_WIN_MODULE70@1@PEAUHINSTANCE__@@@Z 000000018002e508     OposVariant.obj
 0002:0000b508       $unwind$__scrt_dllmain_exception_filter 000000018002e508     LIBCMT:utility.obj
 0002:0000b508       $unwind$?Is_bad_exception_allowed@@YAEPEBU_s_ESTypeList@@@Z 000000018002e508     libvcruntime:frame.obj
 0002:0000b508       $unwind$_recalloc_base     000000018002e508     libucrt:recalloc.obj
 0002:0000b508       $unwind$__acrt_free_locale 000000018002e508     libucrt:locale_refcounting.obj
 0002:0000b508       $unwind$__acrt_lowio_create_handle_array 000000018002e508     libucrt:osfinfo.obj
 0002:0000b508       $unwind$?setSBCS@@YAXPEAU__crt_multibyte_data@@@Z 000000018002e508     libucrt:mbctype.obj
 0002:0000b508       $unwind$_seh_filter_exe    000000018002e508     libucrt:exception_filter.obj
 0002:0000b508       $unwind$_initterm          000000018002e508     libucrt:initterm.obj
 0002:0000b508       $unwind$??$ensure_buffer_is_big_enough@D@formatting_buffer@__crt_stdio_output@@QEAA_N_K@Z 000000018002e508     libucrt:output.obj
 0002:0000b508       $unwind$??$ensure_buffer_is_big_enough@_W@formatting_buffer@__crt_stdio_output@@QEAA_N_K@Z 000000018002e508     libucrt:output.obj
 0002:0000b51c       $unwind$??_GCRegObject@ATL@@UEAAPEAXI@Z 000000018002e51c     MotionSensor.obj
 0002:0000b51c       $unwind$?Add@?$CSimpleArray@GV?$CSimpleArrayEqualHelper@G@ATL@@@ATL@@QEAAHAEBG@Z 000000018002e51c     MotionSensor.obj
 0002:0000b51c       $unwind$?Add@?$CSimpleMap@PEA_WPEA_WVCExpansionVectorEqualHelper@ATL@@@ATL@@QEAAHAEBQEA_W0@Z 000000018002e51c     MotionSensor.obj
 0002:0000b51c       $unwind$?Add@CComDynamicUnkArray@ATL@@QEAAKPEAUIUnknown@@@Z 000000018002e51c     MotionSensor.obj
 0002:0000b51c       $unwind$?Advise@?$IOleObjectImpl@VCOPOSMotionSensor@@@ATL@@UEAAJPEAUIAdviseSink@@PEAK@Z 000000018002e51c     MotionSensor.obj
 0002:0000b51c       $unwind$?ClearReplacements@CExpansionVector@ATL@@QEAAJXZ 000000018002e51c     MotionSensor.obj
 0002:0000b51c       $unwind$?CreateInstance@?$CComObject@V?$CComEnum@UIEnumConnectionPoints@@$1?_GUID_b196b285_bab4_101a_b69c_00aa00341d07@@3U__s_GUID@@BPEAUIConnectionPoint@@V?$_CopyInterface@UIConnectionPoint@@@ATL@@VCComSingleThreadModel@6@@ATL@@@ATL@@SAJPEAPEAV12@@Z 000000018002e51c     MotionSensor.obj
 0002:0000b51c       $unwind$?CreateInstance@?$CComObject@V?$CComEnum@UIEnumConnections@@$1?_GUID_b196b287_bab4_101a_b69c_00aa00341d07@@3U__s_GUID@@BUtagCONNECTDATA@@V?$_Copy@UtagCONNECTDATA@@@ATL@@VCComSingleThreadModel@6@@ATL@@@ATL@@SAJPEAPEAV12@@Z 000000018002e51c     MotionSensor.obj
 0002:0000b51c       $unwind$?RegisterServer@CComModule@ATL@@QEAAJHPEBU_GUID@@@Z 000000018002e51c     MotionSensor.obj
 0002:0000b51c       $unwind$?Term@CAtlModule@ATL@@QEAAXXZ 000000018002e51c     MotionSensor.obj
 0002:0000b51c       $unwind$?UnregisterServer@CComModule@ATL@@QEAAJHPEBU_GUID@@@Z 000000018002e51c     MotionSensor.obj
 0002:0000b51c       $unwind$?VTFromRegType@CRegParser@ATL@@KAHPEB_WAEAG@Z 000000018002e51c     MotionSensor.obj
 0002:0000b51c       $unwind$??0OposDispParms@@QEAA@PEAVOposVariant@@H@Z 000000018002e51c     OposVariant.obj
 0002:0000b51c       $unwind$?SetBSTR_Copy@OposVariant@@QEAAXPEA_WAEAJ@Z 000000018002e51c     OposVariant.obj
 0002:0000b51c       $unwind$?SetBSTR_InOutPtr@OposVariant@@QEAA_NPEAPEA_WAEAJ@Z 000000018002e51c     OposVariant.obj
 0002:0000b51c       $unwind$?SetDispatch_Ptr@OposVariant@@QEAAXPEAUIDispatch@@AEAJ@Z 000000018002e51c     OposVariant.obj
 0002:0000b51c       $unwind$?SetLONG_Ptr@OposVariant@@QEAAXPEAJAEAJ@Z 000000018002e51c     OposVariant.obj
 0002:0000b51c       $unwind$?SetString@OposVariant@@QEAAXPEB_WAEAJ@Z 000000018002e51c     OposVariant.obj
 0002:0000b51c       $unwind$?Term@CAtlComModule@ATL@@QEAAXXZ 000000018002e51c     OposVariant.obj
 0002:0000b51c       $unwind$_DllMainCRTStartup 000000018002e51c     LIBCMT:dll_dllmain.obj
 0002:0000b51c       $unwind$__vcrt_getptd_noexit 000000018002e51c     libvcruntime:per_thread_data.obj
 0002:0000b51c       $unwind$__vcrt_InitializeCriticalSectionEx 000000018002e51c     libvcruntime:winapi_downlevel.obj
 0002:0000b51c       $unwind$memcpy_s           000000018002e51c     libucrt:cfout.obj
 0002:0000b51c       $unwind$__acrt_getptd      000000018002e51c     libucrt:per_thread_data.obj
 0002:0000b51c       $unwind$__acrt_getptd_noexit 000000018002e51c     libucrt:per_thread_data.obj
 0002:0000b51c       $unwind$__acrt_execute_initializers 000000018002e51c     libucrt:shared_initialization.obj
 0002:0000b51c       $unwind$__acrt_InitializeCriticalSectionEx 000000018002e51c     libucrt:winapi_thunks.obj
 0002:0000b51c       $unwind$?free_crt_array_internal@@YAXQEAPEBX_K@Z 000000018002e51c     libucrt:inittime.obj
 0002:0000b51c       $unwind$??$common_lseek_nolock@_J@@YA_JH_JH@Z 000000018002e51c     libucrt:lseek.obj
 0002:0000b51c       $unwind$__acrt_stdio_flush_nolock 000000018002e51c     libucrt:fflush.obj
 0002:0000b51c       $unwind$??0_LocaleUpdate@@QEAA@QEAU__crt_locale_pointers@@@Z 000000018002e51c     libucrt:output.obj
 0002:0000b51c       $unwind$?type_case_Z@?$output_processor@_WV?$string_output_adapter@_W@__crt_stdio_output@@V?$format_validation_base@_WV?$string_output_adapter@_W@__crt_stdio_output@@@2@@__crt_stdio_output@@AEAA_NXZ 000000018002e51c     libucrt:output.obj
 0002:0000b51c       $unwind$?type_case_s@?$output_processor@_WV?$string_output_adapter@_W@__crt_stdio_output@@V?$format_validation_base@_WV?$string_output_adapter@_W@__crt_stdio_output@@@2@@__crt_stdio_output@@AEAA_NXZ 000000018002e51c     libucrt:output.obj
 0002:0000b51c       $unwind$_exception_enabled 000000018002e51c     libucrt:libm_error.obj
 0002:0000b52c       $unwind$?AddTermFunc@CAtlModule@ATL@@QEAAJP6AX_K@Z0@Z 000000018002e52c     MotionSensor.obj
 0002:0000b52c       $unwind$?AtlComModuleRegisterServer@ATL@@YAJPEAU_ATL_COM_MODULE70@1@HPEBU_GUID@@@Z 000000018002e52c     MotionSensor.obj
 0002:0000b52c       $unwind$?AtlComModuleUnregisterServer@ATL@@YAJPEAU_ATL_COM_MODULE70@1@HPEBU_GUID@@@Z 000000018002e52c     MotionSensor.obj
 0002:0000b52c       $unwind$?CreateInstance@?$CComCreator@V?$CComAggObject@VCOPOSMotionSensor@@@ATL@@@ATL@@SAJPEAXAEBU_GUID@@PEAPEAX@Z 000000018002e52c     MotionSensor.obj
 0002:0000b52c       $unwind$?CreateInstance@?$CComCreator@V?$CComObjectCached@VCComClassFactory@ATL@@@ATL@@@ATL@@SAJPEAXAEBU_GUID@@PEAPEAX@Z 000000018002e52c     MotionSensor.obj
 0002:0000b52c       $unwind$?GetPagesHelper@?$ISpecifyPropertyPagesImpl@VCOPOSMotionSensor@@@ATL@@IEAAJPEAUtagCAUUID@@PEBUATL_PROPMAP_ENTRY@2@@Z 000000018002e52c     MotionSensor.obj
 0002:0000b52c       $unwind$??_Estringdispid@CComTypeInfoHolder@ATL@@QEAAPEAXI@Z 000000018002e52c     OposVariant.obj
 0002:0000b52c       $unwind$__GSHandlerCheck_SEH 000000018002e52c     LIBCMT:gshandlerseh.obj
 0002:0000b52c       $unwind$??$TypeMatchHelper@V__FrameHandler3@@@@YAHPEBU_s_HandlerType@@PEBU_s_CatchableType@@PEBU_s_ThrowInfo@@@Z 000000018002e52c     libvcruntime:frame.obj
 0002:0000b52c       $unwind$??$TypeMatchHelper@V__FrameHandler4@@@@YAHPEAUHandlerType4@FH4@@PEBU_s_CatchableType@@PEBU_s_ThrowInfo@@@Z 000000018002e52c     libvcruntime:frame.obj
 0002:0000b52c       $unwind$?initialize_stdio_handles_nolock@@YAXXZ 000000018002e52c     libucrt:ioinit.obj
 0002:0000b52c       $unwind$__acrt_initialize_stdio 000000018002e52c     libucrt:_file.obj
 0002:0000b52c       $unwind$?process@?$output_processor@_WV?$string_output_adapter@_W@__crt_stdio_output@@V?$format_validation_base@_WV?$string_output_adapter@_W@__crt_stdio_output@@@2@@__crt_stdio_output@@QEAAHXZ 000000018002e52c     libucrt:output.obj
 0002:0000b52c       $unwind$?type_case_integer@?$output_processor@_WV?$string_output_adapter@_W@__crt_stdio_output@@V?$format_validation_base@_WV?$string_output_adapter@_W@__crt_stdio_output@@@2@@__crt_stdio_output@@AEAA_NI_N@Z 000000018002e52c     libucrt:output.obj
 0002:0000b544       $unwind$??0?$CComContainedObject@VCOPOSMotionSensor@@@ATL@@QEAA@PEAX@Z 000000018002e544     MotionSensor.obj
 0002:0000b544       $unwind$??1?$CComEnumImpl@UIEnumConnectionPoints@@$1?_GUID_b196b285_bab4_101a_b69c_00aa00341d07@@3U__s_GUID@@BPEAUIConnectionPoint@@V?$_CopyInterface@UIConnectionPoint@@@ATL@@@ATL@@UEAA@XZ 000000018002e544     MotionSensor.obj
 0002:0000b544       $unwind$??1?$CComEnumImpl@UIEnumConnections@@$1?_GUID_b196b287_bab4_101a_b69c_00aa00341d07@@3U__s_GUID@@BUtagCONNECTDATA@@V?$_Copy@UtagCONNECTDATA@@@ATL@@@ATL@@UEAA@XZ 000000018002e544     MotionSensor.obj
 0002:0000b544       $unwind$??_G?$CComAggObject@VCOPOSMotionSensor@@@ATL@@UEAAPEAXI@Z 000000018002e544     MotionSensor.obj
 0002:0000b544       $unwind$??_G?$CComContainedObject@VCOPOSMotionSensor@@@ATL@@UEAAPEAXI@Z 000000018002e544     MotionSensor.obj
 0002:0000b544       $unwind$??_G?$CComObject@V?$CComEnum@UIEnumConnectionPoints@@$1?_GUID_b196b285_bab4_101a_b69c_00aa00341d07@@3U__s_GUID@@BPEAUIConnectionPoint@@V?$_CopyInterface@UIConnectionPoint@@@ATL@@VCComSingleThreadModel@6@@ATL@@@ATL@@UEAAPEAXI@Z 000000018002e544     MotionSensor.obj
 0002:0000b544       $unwind$??_G?$CComObject@V?$CComEnum@UIEnumConnections@@$1?_GUID_b196b287_bab4_101a_b69c_00aa00341d07@@3U__s_GUID@@BUtagCONNECTDATA@@V?$_Copy@UtagCONNECTDATA@@@ATL@@VCComSingleThreadModel@6@@ATL@@@ATL@@UEAAPEAXI@Z 000000018002e544     MotionSensor.obj
 0002:0000b544       $unwind$??_G?$CComObject@VCOPOSMotionSensor@@@ATL@@UEAAPEAXI@Z 000000018002e544     MotionSensor.obj
 0002:0000b544       $unwind$??_G?$CComObjectCached@VCComClassFactory@ATL@@@ATL@@UEAAPEAXI@Z 000000018002e544     MotionSensor.obj
 0002:0000b544       $unwind$??_GCComClassFactory@ATL@@UEAAPEAXI@Z 000000018002e544     MotionSensor.obj
 0002:0000b544       $unwind$??_GCComModule@ATL@@UEAAPEAXI@Z 000000018002e544     MotionSensor.obj
 0002:0000b544       $unwind$?DeleteSubKey@CRegKey@ATL@@QEAAJPEB_W@Z 000000018002e544     MotionSensor.obj
 0002:0000b544       $unwind$?IOleObject_SetClientSite@CComControlBase@ATL@@QEAAJPEAUIOleClientSite@@@Z 000000018002e544     MotionSensor.obj
 0002:0000b544       $unwind$?InitNew@?$IPersistStorageImpl@VCOPOSMotionSensor@@@ATL@@UEAAJPEAUIStorage@@@Z 000000018002e544     MotionSensor.obj
 0002:0000b544       $unwind$?IsDirty@?$IPersistStorageImpl@VCOPOSMotionSensor@@@ATL@@UEAAJXZ 000000018002e544     MotionSensor.obj
 0002:0000b544       $unwind$?Release@?$CComAggObject@VCOPOSMotionSensor@@@ATL@@UEAAKXZ 000000018002e544     MotionSensor.obj
 0002:0000b544       $unwind$?Release@?$CComObject@V?$CComEnum@UIEnumConnectionPoints@@$1?_GUID_b196b285_bab4_101a_b69c_00aa00341d07@@3U__s_GUID@@BPEAUIConnectionPoint@@V?$_CopyInterface@UIConnectionPoint@@@ATL@@VCComSingleThreadModel@6@@ATL@@@ATL@@UEAAKXZ 000000018002e544     MotionSensor.obj
 0002:0000b544       $unwind$?Release@?$CComObject@V?$CComEnum@UIEnumConnections@@$1?_GUID_b196b287_bab4_101a_b69c_00aa00341d07@@3U__s_GUID@@BUtagCONNECTDATA@@V?$_Copy@UtagCONNECTDATA@@@ATL@@VCComSingleThreadModel@6@@ATL@@@ATL@@UEAAKXZ 000000018002e544     MotionSensor.obj
 0002:0000b544       $unwind$?Release@?$CComObject@VCOPOSMotionSensor@@@ATL@@UEAAKXZ 000000018002e544     MotionSensor.obj
 0002:0000b544       $unwind$?SOStatusUpdate@COPOSMotionSensor@@MEAAJJ@Z 000000018002e544     MotionSensor.obj
 0002:0000b544       $unwind$?SetAdvise@?$IViewObjectExImpl@VCOPOSMotionSensor@@@ATL@@UEAAJKKPEAUIAdviseSink@@@Z 000000018002e544     MotionSensor.obj
 0002:0000b544       $unwind$?Term@CComModule@ATL@@QEAAXXZ 000000018002e544     MotionSensor.obj
 0002:0000b544       $unwind$DllMain            000000018002e544     MotionSensor.obj
 0002:0000b544       $unwind$??1?$IConnectionPointImpl@VCOPOSMotionSensor@@$1?DIID__IOPOSMotionSensorEvents@@3U_GUID@@BVCComDynamicUnkArray@ATL@@@ATL@@QEAA@XZ 000000018002e544     MotionSensorImpl.obj
 0002:0000b544       $unwind$??1?$IConnectionPointImpl@VCOPOSMotionSensor@@$1?IID_IPropertyNotifySink@@3U_GUID@@BVCComDynamicUnkArray@ATL@@@ATL@@QEAA@XZ 000000018002e544     MotionSensorImpl.obj
 0002:0000b544       $unwind$?EventWindowProc@COPOSMotionSensor@@IEAA_JI_K_J@Z 000000018002e544     MotionSensorImpl.obj
 0002:0000b544       $unwind$?SetBSTR@OposVariant@@QEAAXPEA_WAEAJ@Z 000000018002e544     OposVariant.obj
 0002:0000b544       $unwind$?SetLONG@OposVariant@@QEAAXJ@Z 000000018002e544     OposVariant.obj
 0002:0000b544       $unwind$?SetVARIANT_BOOL@OposVariant@@QEAAXF@Z 000000018002e544     OposVariant.obj
 0002:0000b544       $unwind$??0CAtlBaseModule@ATL@@QEAA@XZ 000000018002e544     atls:atlbase.obj
 0002:0000b544       $unwind$??$GetProcAddressAll@P6AP6A_JPEAUHWND__@@I_K_J@ZPEAUAtlThunkData_t@@@Z@@YAP6AP6A_JPEAUHWND__@@I_K_J@ZPEAUAtlThunkData_t@@@ZPEAP6AP6A_J0I12@Z3@Z@Z 000000018002e544     atls:atlthunk.obj
 0002:0000b544       $unwind$??$GetProcAddressAll@P6APEAUAtlThunkData_t@@XZ@@YAP6APEAUAtlThunkData_t@@XZPEAP6APEAU0@XZ@Z 000000018002e544     atls:atlthunk.obj
 0002:0000b544       $unwind$??$GetProcAddressAll@P6AXPEAUAtlThunkData_t@@@Z@@YAP6AXPEAUAtlThunkData_t@@@ZPEAP6AX0@Z@Z 000000018002e544     atls:atlthunk.obj
 0002:0000b544       $unwind$??$GetProcAddressAll@P6AXPEAUAtlThunkData_t@@PEAX_K@Z@@YAP6AXPEAUAtlThunkData_t@@PEAX_K@ZPEAP6AX012@Z@Z 000000018002e544     atls:atlthunk.obj
 0002:0000b544       $unwind$?__AllocStdCallThunk_cmn@@YAPEAXXZ 000000018002e544     atls:atlthunk.obj
 0002:0000b544       $unwind$?__InitializeThunkPool@@YAHXZ 000000018002e544     atls:atlthunk.obj
 0002:0000b544       $unwind$AtlThunk_DataToCode 000000018002e544     atls:atlthunk.obj
 0002:0000b544       $unwind$_RTC_Initialize    000000018002e544     LIBCMT:initsect.obj
 0002:0000b544       $unwind$_RTC_Terminate     000000018002e544     LIBCMT:initsect.obj
 0002:0000b544       $unwind$?__scrt_initialize_thread_safe_statics@@YAHXZ 000000018002e544     LIBCMT:thread_safe_statics.obj
 0002:0000b544       $unwind$??_Gbad_alloc@std@@UEAAPEAXI@Z 000000018002e544     LIBCMT:throw_bad_alloc.obj
 0002:0000b544       $unwind$??_Gbad_array_new_length@std@@UEAAPEAXI@Z 000000018002e544     LIBCMT:throw_bad_alloc.obj
 0002:0000b544       $unwind$??_Gexception@std@@UEAAPEAXI@Z 000000018002e544     LIBCMT:throw_bad_alloc.obj
 0002:0000b544       $unwind$__FrameUnwindFilter 000000018002e544     libvcruntime:ehhelpers.obj
 0002:0000b544       $unwind$??_Gbad_exception@std@@UEAAPEAXI@Z 000000018002e544     libvcruntime:frame.obj
 0002:0000b544       $unwind$?ExFilterRethrowFH4@@YAHPEAU_EXCEPTION_POINTERS@@PEAUEHExceptionRecord@@HPEAH@Z 000000018002e544     libvcruntime:frame.obj
 0002:0000b544       $unwind$_FindAndUnlinkFrame 000000018002e544     libvcruntime:risctrnsctrl.obj
 0002:0000b544       $unwind$__vcrt_FlsSetValue 000000018002e544     libvcruntime:winapi_downlevel.obj
 0002:0000b544       $unwind$??$common_initialize_environment_nolock@D@@YAHXZ 000000018002e544     libucrt:environment_initialization.obj
 0002:0000b544       $unwind$_realloc_base      000000018002e544     libucrt:realloc_base.obj
 0002:0000b544       $unwind$?replace_current_thread_locale_nolock@@YAXQEAU__acrt_ptd@@QEAU__crt_locale_data@@@Z 000000018002e544     libucrt:per_thread_data.obj
 0002:0000b544       $unwind$__acrt_execute_uninitializers 000000018002e544     libucrt:shared_initialization.obj
 0002:0000b544       $unwind$__acrt_FlsSetValue 000000018002e544     libucrt:winapi_thunks.obj
 0002:0000b544       $unwind$__acrt_LocaleNameToLCID 000000018002e544     libucrt:winapi_thunks.obj
 0002:0000b544       $unwind$_updatetlocinfoEx_nolock 000000018002e544     libucrt:locale_refcounting.obj
 0002:0000b544       $unwind$_close_nolock      000000018002e544     libucrt:close.obj
 0002:0000b544       $unwind$__acrt_uninitialize_lowio 000000018002e544     libucrt:ioinit.obj
 0002:0000b544       $unwind$__acrt_errno_map_os_error 000000018002e544     libucrt:errno.obj
 0002:0000b544       $unwind$_initterm_e        000000018002e544     libucrt:initterm.obj
 0002:0000b544       $unwind$_fclose_nolock     000000018002e544     libucrt:fclose.obj
 0002:0000b544       $unwind$?type_case_n@?$output_processor@_WV?$string_output_adapter@_W@__crt_stdio_output@@V?$format_validation_base@_WV?$string_output_adapter@_W@__crt_stdio_output@@@2@@__crt_stdio_output@@AEAA_NXZ 000000018002e544     libucrt:output.obj
 0002:0000b544       $unwind$strncpy_s          000000018002e544     libucrt:strncpy_s.obj
 0002:0000b544       $unwind$wcsncpy_s          000000018002e544     libucrt:wcsncpy_s.obj
 0002:0000b550       $unwind$?ChangeBSTR@OposVariant@@QEAAXPEAPEA_WAEAJ@Z 000000018002e550     OposVariant.obj
 0002:0000b550       $unwind$?ChangeLONG@OposVariant@@QEAAXPEAJAEAJ@Z 000000018002e550     OposVariant.obj
 0002:0000b550       $unwind$?x_ismbbtype_l@@YAHPEAU__crt_locale_pointers@@IHH@Z 000000018002e550     libucrt:ismbbyte.obj
 0002:0000b560       $unwind$swprintf_s         000000018002e560     MotionSensor.obj
 0002:0000b570       $unwind$?_AtlVerifyStackAvailable@_ATL_SAFE_ALLOCA_IMPL@ATL@@YA_N_K@Z 000000018002e570     MotionSensor.obj
 0002:0000b59c       $unwind$?filt$0@?0??_AtlVerifyStackAvailable@_ATL_SAFE_ALLOCA_IMPL@ATL@@YA_N_K@Z@4HA 000000018002e59c     MotionSensor.obj
 0002:0000b59c       $unwind$?fin$0@?0??dllmain_crt_process_attach@@YAHQEAUHINSTANCE__@@QEAX@Z@4HA 000000018002e59c     LIBCMT:dll_dllmain.obj
 0002:0000b59c       $unwind$?fin$0@?0??dllmain_crt_process_detach@@YAH_N@Z@4HA 000000018002e59c     LIBCMT:dll_dllmain.obj
 0002:0000b59c       $unwind$?fin$1@?0??dllmain_crt_process_detach@@YAH_N@Z@4HA 000000018002e59c     LIBCMT:dll_dllmain.obj
 0002:0000b59c       $unwind$_IsNonwritableInCurrentImage$filt$0 000000018002e59c     LIBCMT:pesect.obj
 0002:0000b59c       $unwind$?filt$0@?0??CxxCallCatchBlock@__FrameHandler4@@SAPEAXPEAU_EXCEPTION_RECORD@@@Z@4HA 000000018002e59c     libvcruntime:frame.obj
 0002:0000b59c       $unwind$_query_new_handler$fin$0 000000018002e59c     libucrt:new_handler.obj
 0002:0000b59c       $unwind$?fin$0@?0???$?RV<lambda_0ae27a3a962d80f24befdcbee591983d>@@AEAV<lambda_8d0ee55de4b1038c4002e0adecdf1839>@@V<lambda_dc504788e8f1664fe9b84e20bfb512f2>@@@?$__crt_seh_guarded_call@X@@QEAAX$$QEAV<lambda_0ae27a3a962d80f24befdcbee591983d>@@AEAV<lambda_8d0ee55de4b1038c4002e0adecdf1839>@@$$QEAV<lambda_dc504788e8f1664fe9b84e20bfb512f2>@@@Z@4HA 000000018002e59c     libucrt:per_thread_data.obj
 0002:0000b59c       $unwind$?fin$0@?0???$?RV<lambda_2d41944a1d46af3157314b8a01080d33>@@AEAV<lambda_8f455de75cd7d7f24b4096f044d8b9e6>@@V<lambda_aa500f224e6afead328df44964fe2772>@@@?$__crt_seh_guarded_call@X@@QEAAX$$QEAV<lambda_2d41944a1d46af3157314b8a01080d33>@@AEAV<lambda_8f455de75cd7d7f24b4096f044d8b9e6>@@$$QEAV<lambda_aa500f224e6afead328df44964fe2772>@@@Z@4HA 000000018002e59c     libucrt:per_thread_data.obj
 0002:0000b59c       $unwind$?fin$0@?0???$?RV<lambda_aa87e3671a710a21b5dc78c0bdf72e11>@@AEAV<lambda_92619d2358a28f41a33ba319515a20b9>@@V<lambda_6992ecaafeb10aed2b74cb1fae11a551>@@@?$__crt_seh_guarded_call@X@@QEAAX$$QEAV<lambda_aa87e3671a710a21b5dc78c0bdf72e11>@@AEAV<lambda_92619d2358a28f41a33ba319515a20b9>@@$$QEAV<lambda_6992ecaafeb10aed2b74cb1fae11a551>@@@Z@4HA 000000018002e59c     libucrt:per_thread_data.obj
 0002:0000b59c       $unwind$?fin$0@?0???$?RV<lambda_f2e299630e499de9f9a165e60fcd3db5>@@AEAV<lambda_2ae9d31cdba2644fcbeaf08da7c24588>@@V<lambda_40d01ff24d0e7b3814fdbdcee8eab3c7>@@@?$__crt_seh_guarded_call@X@@QEAAX$$QEAV<lambda_f2e299630e499de9f9a165e60fcd3db5>@@AEAV<lambda_2ae9d31cdba2644fcbeaf08da7c24588>@@$$QEAV<lambda_40d01ff24d0e7b3814fdbdcee8eab3c7>@@@Z@4HA 000000018002e59c     libucrt:per_thread_data.obj
 0002:0000b59c       $unwind$__acrt_update_thread_locale_data$fin$0 000000018002e59c     libucrt:locale_refcounting.obj
 0002:0000b59c       $unwind$?fin$0@?0???$?RV<lambda_410d79af7f07d98d83a3f525b3859a53>@@AEAV<lambda_3e16ef9562a7dcce91392c22ab16ea36>@@V<lambda_38119f0e861e05405d8a144b9b982f0a>@@@?$__crt_seh_guarded_call@X@@QEAAX$$QEAV<lambda_410d79af7f07d98d83a3f525b3859a53>@@AEAV<lambda_3e16ef9562a7dcce91392c22ab16ea36>@@$$QEAV<lambda_38119f0e861e05405d8a144b9b982f0a>@@@Z@4HA 000000018002e59c     libucrt:wsetlocale.obj
 0002:0000b59c       $unwind$?fin$0@?0???$?RV<lambda_751a882b2c74d4b022dec766aa51a29a>@@AEAV<lambda_628dfdc04ba53c8bfc02c9951375f3f5>@@V<lambda_f6c7be5f7998530c34de24c7437d6b54>@@@?$__crt_seh_guarded_call@H@@QEAAH$$QEAV<lambda_751a882b2c74d4b022dec766aa51a29a>@@AEAV<lambda_628dfdc04ba53c8bfc02c9951375f3f5>@@$$QEAV<lambda_f6c7be5f7998530c34de24c7437d6b54>@@@Z@4HA 000000018002e59c     libucrt:close.obj
 0002:0000b59c       $unwind$?fin$0@?0???$?RV<lambda_a37b2b86f63e897a80ea819b0eb08c01>@@AEAV<lambda_38ce7e780aa69e748d6df282ebc68efe>@@V<lambda_99fb1378e971ab6e7edea83e3a7a83a2>@@@?$__crt_seh_guarded_call@H@@QEAAH$$QEAV<lambda_a37b2b86f63e897a80ea819b0eb08c01>@@AEAV<lambda_38ce7e780aa69e748d6df282ebc68efe>@@$$QEAV<lambda_99fb1378e971ab6e7edea83e3a7a83a2>@@@Z@4HA 000000018002e59c     libucrt:commit.obj
 0002:0000b59c       $unwind$__acrt_initialize_lowio$fin$0 000000018002e59c     libucrt:ioinit.obj
 0002:0000b59c       $unwind$__acrt_lowio_ensure_fh_exists$fin$0 000000018002e59c     libucrt:osfinfo.obj
 0002:0000b59c       $unwind$_write$fin$0       000000018002e59c     libucrt:write.obj
 0002:0000b59c       $unwind$?fin$0@?0???$?RV<lambda_efdfa57d1f175319df784efa44bb7b81>@@AEAV<lambda_5f0a4c1567f8adc6734073e5d1e1b35c>@@V<lambda_2e8a7d3640ea6ccb4c2413664c2db6fd>@@@?$__crt_seh_guarded_call@X@@QEAAX$$QEAV<lambda_efdfa57d1f175319df784efa44bb7b81>@@AEAV<lambda_5f0a4c1567f8adc6734073e5d1e1b35c>@@$$QEAV<lambda_2e8a7d3640ea6ccb4c2413664c2db6fd>@@@Z@4HA 000000018002e59c     libucrt:mbctype.obj
 0002:0000b59c       $unwind$?fin$0@?0??update_thread_multibyte_data_internal@@YAPEAU__crt_multibyte_data@@QEAU__acrt_ptd@@QEAPEAU1@@Z@4HA 000000018002e59c     libucrt:mbctype.obj
 0002:0000b59c       $unwind$?fin$0@?0???$?RV<lambda_450d765d439847d4c735a33c368b5fc0>@@AEAV<lambda_44731a7d0e6d81c3e6aa82d741081786>@@V<lambda_601a2a7da3b7a96e9554ac7215c4b07c>@@@?$__crt_seh_guarded_call@P6AXH@Z@@QEAAP6AXH@Z$$QEAV<lambda_450d765d439847d4c735a33c368b5fc0>@@AEAV<lambda_44731a7d0e6d81c3e6aa82d741081786>@@$$QEAV<lambda_601a2a7da3b7a96e9554ac7215c4b07c>@@@Z@4HA 000000018002e59c     libucrt:signal.obj
 0002:0000b59c       $unwind$raise$fin$0        000000018002e59c     libucrt:signal.obj
 0002:0000b59c       $unwind$?filt$0@?0???R<lambda_6e4b09c48022b2350581041d5f6b0c4c>@@QEBA@XZ@4HA 000000018002e59c     libucrt:exit.obj
 0002:0000b59c       $unwind$?fin$0@?0???$?RV<lambda_d80eeec6fff315bfe5c115232f3240e3>@@AEAV<lambda_6e4b09c48022b2350581041d5f6b0c4c>@@V<lambda_2358e3775559c9db80273638284d5e45>@@@?$__crt_seh_guarded_call@X@@QEAAX$$QEAV<lambda_d80eeec6fff315bfe5c115232f3240e3>@@AEAV<lambda_6e4b09c48022b2350581041d5f6b0c4c>@@$$QEAV<lambda_2358e3775559c9db80273638284d5e45>@@@Z@4HA 000000018002e59c     libucrt:exit.obj
 0002:0000b59c       $unwind$?fin$0@?0???$?RV<lambda_638799b9deba96c50f710eeac98168cd>@@AEAV<lambda_22ebabd17bc4fa466a2aca6d8deb888d>@@V<lambda_a6f7d7db0129f75315ebf26d50c089f1>@@@?$__crt_seh_guarded_call@H@@QEAAH$$QEAV<lambda_638799b9deba96c50f710eeac98168cd>@@AEAV<lambda_22ebabd17bc4fa466a2aca6d8deb888d>@@$$QEAV<lambda_a6f7d7db0129f75315ebf26d50c089f1>@@@Z@4HA 000000018002e59c     libucrt:onexit.obj
 0002:0000b59c       $unwind$?fin$0@?0???$?RV<lambda_7777bce6b2f8c936911f934f8298dc43>@@AEAV<lambda_f03950bc5685219e0bcd2087efbe011e>@@V<lambda_3883c3dff614d5e0c5f61bb1ac94921c>@@@?$__crt_seh_guarded_call@H@@QEAAH$$QEAV<lambda_7777bce6b2f8c936911f934f8298dc43>@@AEAV<lambda_f03950bc5685219e0bcd2087efbe011e>@@$$QEAV<lambda_3883c3dff614d5e0c5f61bb1ac94921c>@@@Z@4HA 000000018002e59c     libucrt:onexit.obj
 0002:0000b59c       $unwind$_fcloseall$fin$0   000000018002e59c     libucrt:closeall.obj
 0002:0000b59c       $unwind$fclose$fin$0       000000018002e59c     libucrt:fclose.obj
 0002:0000b59c       $unwind$?fin$0@?0???$?RV<lambda_842d9ff0dc9ef11c61343bbaebe7f885>@@AEAV<lambda_c5860995281e5c4ce005b3de8f5874ee>@@V<lambda_d90129c13df834fdcbf8d2b88dafcf2d>@@@?$__crt_seh_guarded_call@X@@QEAAX$$QEAV<lambda_842d9ff0dc9ef11c61343bbaebe7f885>@@AEAV<lambda_c5860995281e5c4ce005b3de8f5874ee>@@$$QEAV<lambda_d90129c13df834fdcbf8d2b88dafcf2d>@@@Z@4HA 000000018002e59c     libucrt:fflush.obj
 0002:0000b59c       $unwind$?fin$0@?0???$?RV<lambda_886d6c58226a84441f68b9f2b8217b83>@@AEAV<lambda_ab61a845afdef5b7c387490eaf3616ee>@@V<lambda_f7f22ab5edc0698d5f6905b0d3f44752>@@@?$__crt_seh_guarded_call@X@@QEAAX$$QEAV<lambda_886d6c58226a84441f68b9f2b8217b83>@@AEAV<lambda_ab61a845afdef5b7c387490eaf3616ee>@@$$QEAV<lambda_f7f22ab5edc0698d5f6905b0d3f44752>@@@Z@4HA 000000018002e59c     libucrt:fflush.obj
 0002:0000b59c       $unwind$_ctrlfp$filt$0     000000018002e59c     libucrt:fpctrl.obj
 0002:0000b59c       $unwind$common_control87$filt$0 000000018002e59c     libucrt:ieee.obj
 0002:0000b5a4       $unwind$?AtlInternalOleLoadFromStream@ATL@@YAJPEAUIStream@@AEBU_GUID@@PEAPEAXTClassesAllowedInStream@1@K@Z 000000018002e5a4     MotionSensor.obj
 0002:0000b5c0       $unwind$?ReadFromStream@CComBSTR@ATL@@QEAAJPEAUIStream@@@Z 000000018002e5c0     MotionSensor.obj
 0002:0000b5c0       $unwind$_configure_narrow_argv 000000018002e5c0     libucrt:argv_parsing.obj
 0002:0000b5d4       $unwind$?WriteToStream@CComVariant@ATL@@QEAAJPEAUIStream@@@Z 000000018002e5d4     MotionSensor.obj
 0002:0000b5e8       $unwind$?RegOpenKeyExW@CAtlTransactionManager@ATL@@QEAAJPEAUHKEY__@@PEB_WKKPEAPEAU3@@Z 000000018002e5e8     MotionSensor.obj
 0002:0000b5e8       $unwind$?WriteToStream@CComVariant@ATL@@QEAAJPEAUIStream@@G@Z 000000018002e5e8     MotionSensor.obj
 0002:0000b5e8       $unwind$__dcrt_write_console 000000018002e5e8     libucrt:initcon.obj
 0002:0000b5e8       $unwind$??$__acrt_wcs_to_mbs_cp@U__crt_win32_buffer_no_resizing@@@@YAHQEB_WAEAV?$__crt_win32_buffer@DU__crt_win32_buffer_no_resizing@@@@I@Z 000000018002e5e8     libucrt:getmodulefilenamea.obj
 0002:0000b5fc       $unwind$?ReadFromStream@CComVariant@ATL@@QEAAJPEAUIStream@@GTClassesAllowedInStream@2@K@Z 000000018002e5fc     MotionSensor.obj
 0002:0000b614       $unwind$?GetSizeMax@CComVariant@ATL@@QEBAJPEAT_ULARGE_INTEGER@@@Z 000000018002e614     MotionSensor.obj
 0002:0000b62c       $unwind$?RegCreateKeyExW@CAtlTransactionManager@ATL@@QEAAJPEAUHKEY__@@PEB_WKPEA_WKKQEAU_SECURITY_ATTRIBUTES@@PEAPEAU3@PEAK@Z 000000018002e62c     MotionSensor.obj
 0002:0000b640       $unwind$?GetGITPtr@CAtlModule@ATL@@UEAAJPEAPEAUIGlobalInterfaceTable@@@Z 000000018002e640     MotionSensor.obj
 0002:0000b640       $unwind$?RegDeleteKeyW@CAtlTransactionManager@ATL@@QEAAJPEAUHKEY__@@PEB_W@Z 000000018002e640     MotionSensor.obj
 0002:0000b640       $unwind$?getStateFromIterators@UWMap4@FH4@@SAHAEBViterator@12@H0H0@Z 000000018002e640     libvcruntime:frame.obj
 0002:0000b650       $unwind$?AtlHiMetricToPixel@ATL@@YAXPEBUtagSIZE@@PEAU2@@Z 000000018002e650     MotionSensor.obj
 0002:0000b650       $unwind$?AtlInternalQueryInterface@ATL@@YAJPEAXPEBU_ATL_INTMAP_ENTRY@1@AEBU_GUID@@PEAPEAX@Z 000000018002e650     MotionSensor.obj
 0002:0000b668       $unwind$?Append@CParseBuffer@CRegParser@ATL@@QEAAHPEB_WH@Z 000000018002e668     MotionSensor.obj
 0002:0000b668       $unwind$?AtlComModuleGetClassObject@ATL@@YAJPEAU_ATL_COM_MODULE70@1@AEBU_GUID@@1PEAPEAX@Z 000000018002e668     MotionSensor.obj
 0002:0000b668       $unwind$?EnumConnections@?$IConnectionPointImpl@VCOPOSMotionSensor@@$1?DIID__IOPOSMotionSensorEvents@@3U_GUID@@BVCComDynamicUnkArray@ATL@@@ATL@@UEAAJPEAPEAUIEnumConnections@@@Z 000000018002e668     MotionSensor.obj
 0002:0000b668       $unwind$?EnumConnections@?$IConnectionPointImpl@VCOPOSMotionSensor@@$1?IID_IPropertyNotifySink@@3U_GUID@@BVCComDynamicUnkArray@ATL@@@ATL@@UEAAJPEAPEAUIEnumConnections@@@Z 000000018002e668     MotionSensor.obj
 0002:0000b668       $unwind$?GetClassObject@CComModule@ATL@@QEAAJAEBU_GUID@@0PEAPEAX@Z 000000018002e668     MotionSensor.obj
 0002:0000b668       $unwind$?Init@?$CComEnumImpl@UIEnumConnectionPoints@@$1?_GUID_b196b285_bab4_101a_b69c_00aa00341d07@@3U__s_GUID@@BPEAUIConnectionPoint@@V?$_CopyInterface@UIConnectionPoint@@@ATL@@@ATL@@QEAAJPEAPEAUIConnectionPoint@@0PEAUIUnknown@@W4CComEnumFlags@2@@Z 000000018002e668     MotionSensor.obj
 0002:0000b668       $unwind$?Init@?$CComEnumImpl@UIEnumConnections@@$1?_GUID_b196b287_bab4_101a_b69c_00aa00341d07@@3U__s_GUID@@BUtagCONNECTDATA@@V?$_Copy@UtagCONNECTDATA@@@ATL@@@ATL@@QEAAJPEAUtagCONNECTDATA@@0PEAUIUnknown@@W4CComEnumFlags@2@@Z 000000018002e668     MotionSensor.obj
 0002:0000b668       $unwind$?NextToken@CRegParser@ATL@@IEAAJPEA_W@Z 000000018002e668     MotionSensor.obj
 0002:0000b668       $unwind$__acrt_fp_strflt_to_string 000000018002e668     libucrt:_fptostr.obj
 0002:0000b668       $unwind$__acrt_DownlevelLocaleNameToLCID 000000018002e668     libucrt:lcidtoname_downlevel.obj
 0002:0000b668       $unwind$??R<lambda_f03950bc5685219e0bcd2087efbe011e>@@QEBAHXZ 000000018002e668     libucrt:onexit.obj
 0002:0000b680       $unwind$?AtlRegisterClassCategoriesHelper@ATL@@YAJAEBU_GUID@@PEBU_ATL_CATMAP_ENTRY@1@H@Z 000000018002e680     MotionSensor.obj
 0002:0000b6a4       $unwind$?AtlLoadTypeLib@ATL@@YAJPEAUHINSTANCE__@@PEB_WPEAPEA_WPEAPEAUITypeLib@@@Z 000000018002e6a4     MotionSensor.obj
 0002:0000b6c4       $unwind$?AtlRegisterTypeLib@ATL@@YAJPEAUHINSTANCE__@@PEB_W@Z 000000018002e6c4     MotionSensor.obj
 0002:0000b6e0       $unwind$?AtlUnRegisterTypeLib@ATL@@YAJPEAUHINSTANCE__@@PEB_W@Z 000000018002e6e0     MotionSensor.obj
 0002:0000b6e8       $unwind$?GetTI@CComTypeInfoHolder@ATL@@QEAAJK@Z 000000018002e6e8     MotionSensor.obj
 0002:0000b6e8       $unwind$?RecurseDeleteKey@CRegKey@ATL@@QEAAJPEB_W@Z 000000018002e6e8     MotionSensor.obj
 0002:0000b708       $unwind$?UpdateRegistryFromResource@CAtlModule@ATL@@QEAAJIHPEAU_ATL_REGMAP_ENTRY@2@@Z 000000018002e708     MotionSensor.obj
 0002:0000b708       $unwind$?UpdateRegistryFromResource@CAtlModule@ATL@@QEAAJPEB_WHPEAU_ATL_REGMAP_ENTRY@2@@Z 000000018002e708     MotionSensor.obj
 0002:0000b728       $unwind$?Lookup@?$CSimpleMap@PEA_WPEA_WVCExpansionVectorEqualHelper@ATL@@@ATL@@QEBAPEA_WAEBQEA_W@Z 000000018002e728     MotionSensor.obj
 0002:0000b728       $unwind$__std_exception_copy 000000018002e728     libvcruntime:std_exception.obj
 0002:0000b728       $unwind$_free_osfhnd       000000018002e728     libucrt:osfinfo.obj
 0002:0000b73c       $unwind$?Add@CExpansionVector@ATL@@QEAAHPEB_W0@Z 000000018002e73c     MotionSensor.obj
 0002:0000b754       $unwind$?PreProcessBuffer@CRegParser@ATL@@QEAAJPEA_WPEAPEA_W@Z 000000018002e754     MotionSensor.obj
 0002:0000b778       $unwind$?RegisterBuffer@CRegParser@ATL@@QEAAJPEA_WH@Z 000000018002e778     MotionSensor.obj
 0002:0000b798       $unwind$?AddValue@CRegParser@ATL@@IEAAJAEAVCRegKey@2@PEB_WPEA_W@Z 000000018002e798     MotionSensor.obj
 0002:0000b7b8       $unwind$?RegisterSubkeys@CRegParser@ATL@@IEAAJPEA_WPEAUHKEY__@@HH@Z 000000018002e7b8     MotionSensor.obj
 0002:0000b7d8       $unwind$?SkipAssignment@CRegParser@ATL@@IEAAJPEA_W@Z 000000018002e7d8     MotionSensor.obj
 0002:0000b7f0       $unwind$?RegisterFromResource@CRegObject@ATL@@IEAAJPEB_W00H@Z 000000018002e7f0     MotionSensor.obj
 0002:0000b810       $unwind$?Cleanup@CComTypeInfoHolder@ATL@@SAX_K@Z 000000018002e810     MotionSensor.obj
 0002:0000b810       $unwind$AtlThunk_FreeData  000000018002e810     atls:atlthunk.obj
 0002:0000b810       $unwind$_free_base         000000018002e810     libucrt:free_base.obj
 0002:0000b810       $unwind$?destroy_fls@@YAXPEAX@Z 000000018002e810     libucrt:per_thread_data.obj
 0002:0000b810       $unwind$__acrt_locale_free_numeric 000000018002e810     libucrt:initnum.obj
 0002:0000b810       $unwind$__acrt_locale_free_lc_time_if_unreferenced 000000018002e810     libucrt:locale_refcounting.obj
 0002:0000b818       $unwind$?GetIDsOfNames@CComTypeInfoHolder@ATL@@QEAAJAEBU_GUID@@PEAPEA_WIKPEAJ@Z 000000018002e818     MotionSensor.obj
 0002:0000b834       $unwind$?LoadNameCache@CComTypeInfoHolder@ATL@@QEAAJPEAUITypeInfo@@@Z 000000018002e834     MotionSensor.obj
 0002:0000b848       $unwind$?StartWindowProc@?$CWindowImplBaseT@VCWindow@ATL@@V?$CWinTraits@$0FGAAAAAA@$0A@@2@@ATL@@SA_JPEAUHWND__@@I_K_J@Z 000000018002e848     MotionSensor.obj
 0002:0000b848       $unwind$?should_round_up@@YA_NQEBN_KFW4__acrt_rounding_mode@@@Z 000000018002e848     libucrt:cvt.obj
 0002:0000b848       $unwind$??$parse_command_line@D@@YAXPEADPEAPEAD0PEA_K2@Z 000000018002e848     libucrt:argv_parsing.obj
 0002:0000b864       $unwind$?WindowProc@?$CWindowImplBaseT@VCWindow@ATL@@V?$CWinTraits@$0FGAAAAAA@$0A@@2@@ATL@@SA_JPEAUHWND__@@I_K_J@Z 000000018002e864     MotionSensor.obj
 0002:0000b87c       $unwind$?atlCreate@?$CWindowImplBaseT@VCWindow@ATL@@V?$CWinTraits@$0FGAAAAAA@$0A@@2@@ATL@@QEAAPEAUHWND__@@PEAU3@V_U_RECT@2@PEB_WKKV_U_MENUorID@2@GPEAX@Z 000000018002e87c     MotionSensor.obj
 0002:0000b894       $unwind$??$AtlModuleRegisterWndClassInfoT@VAtlModuleRegisterWndClassInfoParamW@ATL@@@ATL@@YAGPEAU_ATL_BASE_MODULE70@0@PEAU_ATL_WIN_MODULE70@0@PEAU_ATL_WNDCLASSINFOW@0@PEAP6A_JPEAUHWND__@@I_K_J@ZVAtlModuleRegisterWndClassInfoParamW@0@@Z 000000018002e894     MotionSensor.obj
 0002:0000b8b4       $unwind$?GetZoomInfo@CComControlBase@ATL@@QEAAXAEAUATL_DRAWINFO@@@Z 000000018002e8b4     MotionSensor.obj
 0002:0000b8b4       $unwind$?OnKillFocus@CComControlBase@ATL@@QEAA_JI_K_JAEAH@Z 000000018002e8b4     MotionSensor.obj
 0002:0000b8b4       $unwind$iswctype           000000018002e8b4     libucrt:iswctype.obj
 0002:0000b8c0       $unwind$?SendOnDataChange@CComControlBase@ATL@@QEAAJK@Z 000000018002e8c0     MotionSensor.obj
 0002:0000b8d0       $unwind$?OnSetFocus@CComControlBase@ATL@@QEAA_JI_K_JAEAH@Z 000000018002e8d0     MotionSensor.obj
 0002:0000b8e0       $unwind$?OnMouseActivate@CComControlBase@ATL@@QEAA_JI_K_JAEAH@Z 000000018002e8e0     MotionSensor.obj
 0002:0000b8e8       $unwind$?GetAmbientLocaleID@CComControlBase@ATL@@QEAAJAEAK@Z 000000018002e8e8     MotionSensor.obj
 0002:0000b8e8       $unwind$?GetAmbientUserMode@CComControlBase@ATL@@QEAAJAEAH@Z 000000018002e8e8     MotionSensor.obj
 0002:0000b8f8       $unwind$?IQuickActivate_QuickActivate@CComControlBase@ATL@@QEAAJPEAUtagQACONTAINER@@PEAUtagQACONTROL@@@Z 000000018002e8f8     MotionSensor.obj
 0002:0000b910       $unwind$?DoVerbProperties@CComControlBase@ATL@@QEAAJPEBUtagRECT@@PEAUHWND__@@@Z 000000018002e910     MotionSensor.obj
 0002:0000b928       $unwind$?InPlaceActivate@CComControlBase@ATL@@QEAAJJPEBUtagRECT@@@Z 000000018002e928     MotionSensor.obj
 0002:0000b948       $unwind$?IOleObject_Close@CComControlBase@ATL@@QEAAJK@Z 000000018002e948     MotionSensor.obj
 0002:0000b948       $unwind$?type_case_c_tchar@?$output_processor@_WV?$string_output_adapter@_W@__crt_stdio_output@@V?$format_validation_base@_WV?$string_output_adapter@_W@__crt_stdio_output@@@2@@__crt_stdio_output@@AEAA_N_W@Z 000000018002e948     libucrt:output.obj
 0002:0000b958       $unwind$?IOleInPlaceObject_UIDeactivate@CComControlBase@ATL@@QEAAJXZ 000000018002e958     MotionSensor.obj
 0002:0000b970       $unwind$?IOleInPlaceObject_SetObjectRects@CComControlBase@ATL@@QEAAJPEBUtagRECT@@0@Z 000000018002e970     MotionSensor.obj
 0002:0000b984       $unwind$?IViewObject_Draw@CComControlBase@ATL@@QEAAJKJPEAXPEAUtagDVTARGETDEVICE@@PEAUHDC__@@2PEBU_RECTL@@3@Z 000000018002e984     MotionSensor.obj
 0002:0000b9a0       $unwind$?IDataObject_GetData@CComControlBase@ATL@@QEAAJPEAUtagFORMATETC@@PEAUtagSTGMEDIUM@@@Z 000000018002e9a0     MotionSensor.obj
 0002:0000b9c0       $unwind$?OnPaint@CComControlBase@ATL@@QEAA_JI_K_JAEAH@Z 000000018002e9c0     MotionSensor.obj
 0002:0000b9dc       $unwind$?OnDrawAdvanced@CComControlBase@ATL@@UEAAJAEAUATL_DRAWINFO@@@Z 000000018002e9dc     MotionSensor.obj
 0002:0000b9f8       $unwind$?Invoke@?$IDispatchImpl@UIOPOSMotionSensor@@$1?IID_IOPOSMotionSensor@@3U_GUID@@B$1?LIBID_OposMotionSensor_CCO@@3U3@B$00$0A@VCComTypeInfoHolder@ATL@@@ATL@@UEAAJJAEBU_GUID@@KGPEAUtagDISPPARAMS@@PEAUtagVARIANT@@PEAUtagEXCEPINFO@@PEAI@Z 000000018002e9f8     MotionSensor.obj
 0002:0000b9f8       $unwind$_mbsdec_l          000000018002e9f8     libucrt:mbsdec.obj
 0002:0000ba04       $unwind$?atlCreate@?$CWindowImpl@VCOPOSMotionSensor@@VCWindow@ATL@@V?$CWinTraits@$0FGAAAAAA@$0A@@3@@ATL@@QEAAPEAUHWND__@@PEAU3@V_U_RECT@2@PEB_WKKV_U_MENUorID@2@PEAX@Z 000000018002ea04     MotionSensor.obj
 0002:0000ba04       $unwind$?fp_format_e@@YAHQEBNQEAD_K12H_NIQEAU__crt_locale_pointers@@W4__acrt_rounding_mode@@@Z 000000018002ea04     libucrt:cvt.obj
 0002:0000ba04       $unwind$_mbtowc_l          000000018002ea04     libucrt:mbtowc.obj
 0002:0000ba04       $unwind$__acrt_LCMapStringEx 000000018002ea04     libucrt:winapi_thunks.obj
 0002:0000ba18       $unwind$?CreateControlWindow@?$CComControl@VCOPOSMotionSensor@@V?$CWindowImpl@VCOPOSMotionSensor@@VCWindow@ATL@@V?$CWinTraits@$0FGAAAAAA@$0A@@3@@ATL@@@ATL@@UEAAPEAUHWND__@@PEAU3@AEAUtagRECT@@@Z 000000018002ea18     MotionSensor.obj
 0002:0000ba18       $unwind$?ReleaseDevice@COPOSMotionSensor@@UEAAJPEAJ@Z 000000018002ea18     MotionSensorImpl.obj
 0002:0000ba18       $unwind$?__scrt_throw_std_bad_alloc@@YAXXZ 000000018002ea18     LIBCMT:throw_bad_alloc.obj
 0002:0000ba18       $unwind$?__scrt_throw_std_bad_array_new_length@@YAXXZ 000000018002ea18     LIBCMT:throw_bad_alloc.obj
 0002:0000ba18       $unwind$_raise_exc         000000018002ea18     libucrt:fpexcept.obj
 0002:0000ba20       $unwind$?GetSizeMax@?$IPersistStreamInitImpl@VCOPOSMotionSensor@@@ATL@@UEAAJPEAT_ULARGE_INTEGER@@@Z 000000018002ea20     MotionSensor.obj
 0002:0000ba38       $unwind$?IPersistStreamInit_Load@?$IPersistStreamInitImpl@VCOPOSMotionSensor@@@ATL@@QEAAJPEAUIStream@@PEBUATL_PROPMAP_ENTRY@2@@Z 000000018002ea38     MotionSensor.obj
 0002:0000ba54       $unwind$?IPersistStreamInit_Save@?$IPersistStreamInitImpl@VCOPOSMotionSensor@@@ATL@@QEAAJPEAUIStream@@HPEBUATL_PROPMAP_ENTRY@2@@Z 000000018002ea54     MotionSensor.obj
 0002:0000ba70       $unwind$?DoVerbPrimary@?$IOleObjectImpl@VCOPOSMotionSensor@@@ATL@@QEAAJPEBUtagRECT@@PEAUHWND__@@@Z 000000018002ea70     MotionSensor.obj
 0002:0000ba88       $unwind$?TranslateAcceleratorW@?$IOleInPlaceActiveObjectImpl@VCOPOSMotionSensor@@@ATL@@UEAAJPEAUtagMSG@@@Z 000000018002ea88     MotionSensor.obj
 0002:0000ba94       $unwind$?Draw@?$IViewObjectExImpl@VCOPOSMotionSensor@@@ATL@@UEAAJKJPEAXPEAUtagDVTARGETDEVICE@@PEAUHDC__@@2PEBU_RECTL@@3P6AH_K@Z4@Z 000000018002ea94     MotionSensor.obj
 0002:0000ba9c       $unwind$?QueryHitRect@?$IViewObjectExImpl@VCOPOSMotionSensor@@@ATL@@UEAAJKPEBUtagRECT@@0JPEAK@Z 000000018002ea9c     MotionSensor.obj
 0002:0000baac       $unwind$?OnWindowMessage@?$IOleInPlaceObjectWindowlessImpl@VCOPOSMotionSensor@@@ATL@@UEAAJI_K_JPEA_J@Z 000000018002eaac     MotionSensor.obj
 0002:0000bac0       $unwind$?EnumConnectionPoints@?$IConnectionPointContainerImpl@VCOPOSMotionSensor@@@ATL@@UEAAJPEAPEAUIEnumConnectionPoints@@@Z 000000018002eac0     MotionSensor.obj
 0002:0000bae8       $unwind$?FindConnectionPoint@?$IConnectionPointContainerImpl@VCOPOSMotionSensor@@@ATL@@UEAAJAEBU_GUID@@PEAPEAUIConnectionPoint@@@Z 000000018002eae8     MotionSensor.obj
 0002:0000bae8       $unwind$?__mbrtoc32_utf8@__crt_mbstring@@YA_KPEA_UPEBD_KPEAU_Mbstatet@@@Z 000000018002eae8     libucrt:mbrtoc32.obj
 0002:0000bb04       $unwind$?Load@?$IPersistStorageImpl@VCOPOSMotionSensor@@@ATL@@UEAAJPEAUIStorage@@@Z 000000018002eb04     MotionSensor.obj
 0002:0000bb14       $unwind$?Save@?$IPersistStorageImpl@VCOPOSMotionSensor@@@ATL@@UEAAJPEAUIStorage@@H@Z 000000018002eb14     MotionSensor.obj
 0002:0000bb28       $unwind$?IPSI_GetIPersistStreamInit@?$IPersistStorageImpl@VCOPOSMotionSensor@@@ATL@@AEAAPEAUIPersistStreamInit@@XZ 000000018002eb28     MotionSensor.obj
 0002:0000bb28       $unwind$?parse_int_from_format_string@?$output_processor@_WV?$string_output_adapter@_W@__crt_stdio_output@@V?$format_validation_base@_WV?$string_output_adapter@_W@__crt_stdio_output@@@2@@__crt_stdio_output@@AEAA_NQEAH@Z 000000018002eb28     libucrt:output.obj
 0002:0000bb3c       $unwind$?GetInterfaceSafetyOptions@?$IObjectSafetyImpl@VCOPOSMotionSensor@@$02@ATL@@UEAAJAEBU_GUID@@PEAK1@Z 000000018002eb3c     MotionSensor.obj
 0002:0000bb50       $unwind$?SetInterfaceSafetyOptions@?$IObjectSafetyImpl@VCOPOSMotionSensor@@$02@ATL@@UEAAJAEBU_GUID@@KK@Z 000000018002eb50     MotionSensor.obj
 0002:0000bb64       $unwind$?Advise@?$IConnectionPointImpl@VCOPOSMotionSensor@@$1?DIID__IOPOSMotionSensorEvents@@3U_GUID@@BVCComDynamicUnkArray@ATL@@@ATL@@UEAAJPEAUIUnknown@@PEAK@Z 000000018002eb64     MotionSensor.obj
 0002:0000bb64       $unwind$?Advise@?$IConnectionPointImpl@VCOPOSMotionSensor@@$1?IID_IPropertyNotifySink@@3U_GUID@@BVCComDynamicUnkArray@ATL@@@ATL@@UEAAJPEAUIUnknown@@PEAK@Z 000000018002eb64     MotionSensor.obj
 0002:0000bb78       $unwind$?Fire_DirectIOEvent@?$CProxy_IOPOSEvents@VCOPOSMotionSensor@@@@QEAAXJPEAJPEAPEA_W@Z 000000018002eb78     MotionSensor.obj
 0002:0000bb98       $unwind$?Fire_StatusUpdateEvent@?$CProxy_IOPOSEvents@VCOPOSMotionSensor@@@@QEAAXJ@Z 000000018002eb98     MotionSensor.obj
 0002:0000bbb0       $unwind$?FireTheEvent@?$CProxy_IOPOSEvents@VCOPOSMotionSensor@@@@IEAAXPEAVOposVariant@@IAEAJPEB_WJ@Z 000000018002ebb0     MotionSensor.obj
 0002:0000bbc0       $unwind$?ProcessWindowMessage@COPOSMotionSensor@@UEAAHPEAUHWND__@@I_K_JAEA_JK@Z 000000018002ebc0     MotionSensor.obj
 0002:0000bbc0       $unwind$__dcrt_get_narrow_environment_from_os 000000018002ebc0     libucrt:get_environment_from_os.obj
 0002:0000bbc0       $unwind$?fp_format_f_internal@@YAHQEAD_KHQEAU_strflt@@_NQEAU__crt_locale_pointers@@@Z 000000018002ebc0     libucrt:cvt.obj
 0002:0000bbc0       $unwind$??$__acrt_wcs_to_mbs_cp@U__crt_win32_buffer_internal_dynamic_resizing@@@@YAHQEB_WAEAV?$__crt_win32_buffer@DU__crt_win32_buffer_internal_dynamic_resizing@@@@I@Z 000000018002ebc0     libucrt:argv_wildcards.obj
 0002:0000bbd8       $unwind$?Clone@?$CComEnumImpl@UIEnumConnectionPoints@@$1?_GUID_b196b285_bab4_101a_b69c_00aa00341d07@@3U__s_GUID@@BPEAUIConnectionPoint@@V?$_CopyInterface@UIConnectionPoint@@@ATL@@@ATL@@UEAAJPEAPEAUIEnumConnectionPoints@@@Z 000000018002ebd8     MotionSensor.obj
 0002:0000bbd8       $unwind$?Clone@?$CComEnumImpl@UIEnumConnections@@$1?_GUID_b196b287_bab4_101a_b69c_00aa00341d07@@3U__s_GUID@@BUtagCONNECTDATA@@V?$_Copy@UtagCONNECTDATA@@@ATL@@@ATL@@UEAAJPEAPEAUIEnumConnections@@@Z 000000018002ebd8     MotionSensor.obj
 0002:0000bbf0       $unwind$?GetOposProp@COPOSMotionSensor@@IEAAJJPEAJJ@Z 000000018002ebf0     MotionSensorImpl.obj
 0002:0000bbf0       $unwind$?GetOposProp@COPOSMotionSensor@@IEAAJJPEAPEA_WJ@Z 000000018002ebf0     MotionSensorImpl.obj
 0002:0000bc08       $unwind$?SetOposProp@COPOSMotionSensor@@IEAAJJJJ@Z 000000018002ec08     MotionSensorImpl.obj
 0002:0000bc28       $unwind$?DoInvoke@COPOSMotionSensor@@IEAAJJPEAVOposVariant@@IHPEAJ_N@Z 000000018002ec28     MotionSensorImpl.obj
 0002:0000bc40       $unwind$?SetCOFreezeEvents@COPOSMotionSensor@@IEAAXF@Z 000000018002ec40     MotionSensorImpl.obj
 0002:0000bc54       $unwind$?OnDraw@COPOSMotionSensor@@MEAAJAEAUATL_DRAWINFO@@@Z 000000018002ec54     MotionSensorImpl.obj
 0002:0000bc6c       $unwind$?EventInit@COPOSMotionSensor@@IEAAJXZ 000000018002ec6c     MotionSensorImpl.obj
 0002:0000bc80       $unwind$?get_ControlObjectDescription@COPOSMotionSensor@@UEAAJPEAPEA_W@Z 000000018002ec80     MotionSensorImpl.obj
 0002:0000bc80       $unwind$__dcrt_lowio_ensure_console_output_initialized 000000018002ec80     libucrt:initcon.obj
 0002:0000bc80       $unwind$_isleadbyte_l      000000018002ec80     libucrt:_wctype.obj
 0002:0000bc80       $unwind$?getSystemCP@@YAHH@Z 000000018002ec80     libucrt:mbctype.obj
 0002:0000bc88       $unwind$?CheckHealth@COPOSMotionSensor@@UEAAJJPEAJ@Z 000000018002ec88     MotionSensorImpl.obj
 0002:0000bc88       $unwind$?ResetStatistics@COPOSMotionSensor@@UEAAJPEA_WPEAJ@Z 000000018002ec88     MotionSensorImpl.obj
 0002:0000bc88       $unwind$?RetrieveStatistics@COPOSMotionSensor@@UEAAJPEAPEA_WPEAJ@Z 000000018002ec88     MotionSensorImpl.obj
 0002:0000bc88       $unwind$?UpdateFirmware@COPOSMotionSensor@@UEAAJPEA_WPEAJ@Z 000000018002ec88     MotionSensorImpl.obj
 0002:0000bc88       $unwind$?UpdateStatistics@COPOSMotionSensor@@UEAAJPEA_WPEAJ@Z 000000018002ec88     MotionSensorImpl.obj
 0002:0000bc88       $unwind$?WaitForMotion@COPOSMotionSensor@@UEAAJJPEAJ@Z 000000018002ec88     MotionSensorImpl.obj
 0002:0000bc98       $unwind$?ClaimDevice@COPOSMotionSensor@@UEAAJJPEAJ@Z 000000018002ec98     MotionSensorImpl.obj
 0002:0000bca8       $unwind$?Close@COPOSMotionSensor@@UEAAJPEAJ@Z 000000018002eca8     MotionSensorImpl.obj
 0002:0000bcb4       $unwind$?DirectIO@COPOSMotionSensor@@UEAAJJPEAJPEAPEA_W0@Z 000000018002ecb4     MotionSensorImpl.obj
 0002:0000bcd0       $unwind$?Open@COPOSMotionSensor@@UEAAJPEA_WPEAJ@Z 000000018002ecd0     MotionSensorImpl.obj
 0002:0000bcf4       $unwind$?CompareFirmwareVersion@COPOSMotionSensor@@UEAAJPEA_WPEAJ1@Z 000000018002ecf4     MotionSensorImpl.obj
 0002:0000bcf4       $unwind$?initialize_inherited_file_handles_nolock@@YAXXZ 000000018002ecf4     libucrt:ioinit.obj
 0002:0000bd10       $unwind$__scrt_is_nonwritable_in_current_image 000000018002ed10     LIBCMT:utility.obj
 0002:0000bd30       $unwind$__scrt_is_nonwritable_in_current_image$filt$0 000000018002ed30     LIBCMT:utility.obj
 0002:0000bd38       $unwind$__report_securityfailure 000000018002ed38     LIBCMT:gs_report.obj
 0002:0000bd40       $unwind$__report_gsfailure 000000018002ed40     LIBCMT:gs_report.obj
 0002:0000bd48       $unwind$capture_current_context 000000018002ed48     LIBCMT:gs_report.obj
 0002:0000bd54       $unwind$capture_previous_context 000000018002ed54     LIBCMT:gs_report.obj
 0002:0000bd60       $unwind$??2@YAPEAX_KAEBUnothrow_t@std@@@Z 000000018002ed60     LIBCMT:new_scalar_nothrow.obj
 0002:0000bd70       $cppxdata$??2@YAPEAX_KAEBUnothrow_t@std@@@Z 000000018002ed70     LIBCMT:new_scalar_nothrow.obj
 0002:0000bd7d       $stateUnwindMap$??2@YAPEAX_KAEBUnothrow_t@std@@@Z 000000018002ed7d     LIBCMT:new_scalar_nothrow.obj
 0002:0000bd80       $tryMap$??2@YAPEAX_KAEBUnothrow_t@std@@@Z 000000018002ed80     LIBCMT:new_scalar_nothrow.obj
 0002:0000bd88       $handlerMap$??2@YAPEAX_KAEBUnothrow_t@std@@@Z 000000018002ed88     LIBCMT:new_scalar_nothrow.obj
 0002:0000bd90       $ip2state$??2@YAPEAX_KAEBUnothrow_t@std@@@Z 000000018002ed90     LIBCMT:new_scalar_nothrow.obj
 0002:0000bd94       $unwind$?catch$0@?0???2@YAPEAX_KAEBUnothrow_t@std@@@Z@4HA 000000018002ed94     LIBCMT:new_scalar_nothrow.obj
 0002:0000bda4       $cppxdata$?catch$0@?0???2@YAPEAX_KAEBUnothrow_t@std@@@Z@4HA 000000018002eda4     LIBCMT:new_scalar_nothrow.obj
 0002:0000bdae       $stateUnwindMap$?catch$0@?0???2@YAPEAX_KAEBUnothrow_t@std@@@Z@4HA 000000018002edae     LIBCMT:new_scalar_nothrow.obj
 0002:0000bdb0       $ip2state$?catch$0@?0???2@YAPEAX_KAEBUnothrow_t@std@@@Z@4HA 000000018002edb0     LIBCMT:new_scalar_nothrow.obj
 0002:0000bdb4       $unwind$__GSHandlerCheckCommon 000000018002edb4     LIBCMT:gshandler.obj
 0002:0000bdc0       $xdatasym                  000000018002edc0     LIBCMT:chkstk.obj
 0002:0000bdc8       $xdatasym                  000000018002edc8     LIBCMT:amdsecgs.obj
 0002:0000bdcc       $unwind$?dllmain_crt_process_attach@@YAHQEAUHINSTANCE__@@QEAX@Z 000000018002edcc     LIBCMT:dll_dllmain.obj
 0002:0000be08       $unwind$?dllmain_crt_process_detach@@YAH_N@Z 000000018002ee08     LIBCMT:dll_dllmain.obj
 0002:0000be5c       $unwind$?dllmain_dispatch@@YAHQEAUHINSTANCE__@@KQEAX@Z 000000018002ee5c     LIBCMT:dll_dllmain.obj
 0002:0000be84       $unwind$?filt$0@?0??dllmain_dispatch@@YAHQEAUHINSTANCE__@@KQEAX@Z@4HA 000000018002ee84     LIBCMT:dll_dllmain.obj
 0002:0000be84       $unwind$?filt$0@?0??FrameUnwindToState@__FrameHandler4@@SAXPEA_KPEAU_xDISPATCHER_CONTEXT@@PEAUFuncInfo4@FH4@@H@Z@4HA 000000018002ee84     libvcruntime:frame.obj
 0002:0000be84       $unwind$?fin$1@?0??FrameUnwindToState@__FrameHandler4@@SAXPEA_KPEAU_xDISPATCHER_CONTEXT@@PEAUFuncInfo4@FH4@@H@Z@4HA 000000018002ee84     libvcruntime:frame.obj
 0002:0000be8c       $unwind$__isa_available_init 000000018002ee8c     LIBCMT:cpu_disp.obj
 0002:0000be9c       $unwind$__scrt_fastfail    000000018002ee9c     LIBCMT:utility_desktop.obj
 0002:0000beac       $unwind$__security_init_cookie 000000018002eeac     LIBCMT:gs_support.obj
 0002:0000beb8       $xdatasym                  000000018002eeb8     LIBCMT:guard_dispatch.obj
 0002:0000bec0       $xdatasym                  000000018002eec0     LIBCMT:guard_xfg_dispatch.obj
 0002:0000bec4       $unwind$AtlThunk_InitData  000000018002eec4     atls:atlthunk.obj
 0002:0000bed8       $unwind$wcsstr             000000018002eed8     libvcruntime:wcsstr.obj
 0002:0000bef0       $xdatasym                  000000018002eef0     libvcruntime:memcmp.obj
 0002:0000bef8       $xdatasym                  000000018002eef8     libvcruntime:memcpy.obj
 0002:0000bf08       $xdatasym                  000000018002ef08     libvcruntime:memset.obj
 0002:0000bf18       $unwind$__C_specific_handler 000000018002ef18     libvcruntime:riscchandler.obj
 0002:0000bf34       $unwind$?DecompFuncInfo@FH4@@YA_JPEAEAEAUFuncInfo4@1@_KH_N@Z 000000018002ef34     libvcruntime:risctrnsctrl.obj
 0002:0000bf4c       $unwind$?UnwindNestedFrames@__FrameHandler4@@SAXPEA_KPEAUEHExceptionRecord@@PEAU_CONTEXT@@0PEAXPEAUFuncInfo4@FH4@@HHPEAUHandlerType4@5@PEAU_xDISPATCHER_CONTEXT@@E@Z 000000018002ef4c     libvcruntime:risctrnsctrl.obj
 0002:0000bf60       $unwind$?GetRangeOfTrysToCheck@__FrameHandler4@@SA?AU?$pair@Viterator@TryBlockMap4@FH4@@V123@@std@@AEAVTryBlockMap4@FH4@@HPEAU_xDISPATCHER_CONTEXT@@PEAUFuncInfo4@5@H@Z 000000018002ef60     libvcruntime:risctrnsctrl.obj
 0002:0000bf7c       $unwind$__CxxFrameHandler4 000000018002ef7c     libvcruntime:risctrnsctrl.obj
 0002:0000bf90       $unwind$??$_CallSETranslator@V__FrameHandler4@@@@YAHPEAUEHExceptionRecord@@PEA_KPEAU_CONTEXT@@PEAU_xDISPATCHER_CONTEXT@@PEAUFuncInfo4@FH4@@K1H@Z 000000018002ef90     libvcruntime:risctrnsctrl.obj
 0002:0000bfb0       $unwind$?filt$0@?0???$_CallSETranslator@V__FrameHandler4@@@@YAHPEAUEHExceptionRecord@@PEA_KPEAU_CONTEXT@@PEAU_xDISPATCHER_CONTEXT@@PEAUFuncInfo4@FH4@@K1H@Z@4HA 000000018002efb0     libvcruntime:risctrnsctrl.obj
 0002:0000bfbc       $unwind$__DestructExceptionObject 000000018002efbc     libvcruntime:ehhelpers.obj
 0002:0000bfdc       $unwind$__DestructExceptionObject$filt$0 000000018002efdc     libvcruntime:ehhelpers.obj
 0002:0000bfdc       $unwind$?fin$1@?0??CxxCallCatchBlock@__FrameHandler4@@SAPEAXPEAU_EXCEPTION_RECORD@@@Z@4HA 000000018002efdc     libvcruntime:frame.obj
 0002:0000bfe8       $unwind$_CxxThrowException 000000018002efe8     libvcruntime:throw.obj
 0002:0000bff8       $xdatasym                  000000018002eff8     libvcruntime:notify.obj
 0002:0000c004       $unwind$?StateFromIp@__FrameHandler4@@SAHPEAUFuncInfo4@FH4@@PEAU_xDISPATCHER_CONTEXT@@_K@Z 000000018002f004     libvcruntime:ehstate.obj
 0002:0000c018       $unwind$?getStartStop@UWMap4@FH4@@QEAAXHHAEAViterator@12@0@Z 000000018002f018     libvcruntime:frame.obj
 0002:0000c030       $unwind$?FrameUnwindToState@__FrameHandler4@@SAXPEA_KPEAU_xDISPATCHER_CONTEXT@@PEAUFuncInfo4@FH4@@H@Z 000000018002f030     libvcruntime:frame.obj
 0002:0000c078       $unwind$?CxxCallCatchBlock@__FrameHandler4@@SAPEAXPEAU_EXCEPTION_RECORD@@@Z 000000018002f078     libvcruntime:frame.obj
 0002:0000c0d4       $unwind$?IsInExceptionSpec@@YAEPEAUEHExceptionRecord@@PEBU_s_ESTypeList@@@Z 000000018002f0d4     libvcruntime:frame.obj
 0002:0000c0f0       $unwind$??$__InternalCxxFrameHandler@V__FrameHandler4@@@@YA?AW4_EXCEPTION_DISPOSITION@@PEAUEHExceptionRecord@@PEA_KPEAU_CONTEXT@@PEAU_xDISPATCHER_CONTEXT@@PEAUFuncInfo4@FH4@@H1E@Z 000000018002f0f0     libvcruntime:frame.obj
 0002:0000c108       $unwind$??$BuildCatchObjectHelperInternal@V__FrameHandler4@@@@YAHPEAUEHExceptionRecord@@PEAXPEAUHandlerType4@FH4@@PEBU_s_CatchableType@@@Z 000000018002f108     libvcruntime:frame.obj
 0002:0000c148       $unwind$??$BuildCatchObjectInternal@V__FrameHandler4@@@@YAXPEAUEHExceptionRecord@@PEAXPEAUHandlerType4@FH4@@PEBU_s_CatchableType@@@Z 000000018002f148     libvcruntime:frame.obj
 0002:0000c174       $unwind$??$FindHandler@V__FrameHandler4@@@@YAXPEAUEHExceptionRecord@@PEA_KPEAU_CONTEXT@@PEAU_xDISPATCHER_CONTEXT@@PEAUFuncInfo4@FH4@@EH1@Z 000000018002f174     libvcruntime:frame.obj
 0002:0000c194       $unwind$??$CatchIt@V__FrameHandler4@@@@YAXPEAUEHExceptionRecord@@PEA_KPEAU_CONTEXT@@PEAU_xDISPATCHER_CONTEXT@@PEAUFuncInfo4@FH4@@PEAUHandlerType4@4@PEBU_s_CatchableType@@PEAUTryBlockMapEntry4@4@H1EE@Z 000000018002f194     libvcruntime:frame.obj
 0002:0000c1ac       $unwind$??$FindHandlerForForeignException@V__FrameHandler4@@@@YAXPEAUEHExceptionRecord@@PEA_KPEAU_CONTEXT@@PEAU_xDISPATCHER_CONTEXT@@PEAUFuncInfo4@FH4@@HH1@Z 000000018002f1ac     libvcruntime:frame.obj
 0002:0000c1cc       $unwind$?try_get_function@@YAPEAXW4function_id@?A0x84e3c32f@@QEBDQEBW4module_id@2@2@Z 000000018002f1cc     libvcruntime:winapi_downlevel.obj
 0002:0000c1cc       $unwind$?try_get_function@@YAPEAXW4function_id@?A0x391cf84c@@QEBDQEBW4module_id@2@2@Z 000000018002f1cc     libucrt:winapi_thunks.obj
 0002:0000c1e8       $xdatasym                  000000018002f1e8     libvcruntime:handlers.obj
 0002:0000c208       $unwind$__acrt_call_reportfault 000000018002f208     libucrt:invalid_parameter.obj
 0002:0000c228       $unwind$_invalid_parameter 000000018002f228     libucrt:invalid_parameter.obj
 0002:0000c23c       $unwind$_resetstkoflw      000000018002f23c     libucrt:resetstk.obj
 0002:0000c260       $unwind$__stdio_common_vswprintf_s 000000018002f260     libucrt:output.obj
 0002:0000c26c       $unwind$?write_string@?$string_output_adapter@_W@__crt_stdio_output@@QEBAXQEB_WHQEAHAEAV__crt_deferred_errno_cache@@@Z 000000018002f26c     libucrt:output.obj
 0002:0000c284       $unwind$??$common_vsprintf@Vformat_validation_base@__crt_stdio_output@@_W@@YAH_KQEA_W0QEB_WQEAU__crt_locale_pointers@@QEAD@Z 000000018002f284     libucrt:output.obj
 0002:0000c2a4       $unwind$??$write_multiple_characters@V?$string_output_adapter@_W@__crt_stdio_output@@D@__crt_stdio_output@@YAXAEBV?$string_output_adapter@_W@0@DHQEAH@Z 000000018002f2a4     libucrt:output.obj
 0002:0000c2b0       $unwind$?state_case_type@?$output_processor@_WV?$string_output_adapter@_W@__crt_stdio_output@@V?$format_validation_base@_WV?$string_output_adapter@_W@__crt_stdio_output@@@2@@__crt_stdio_output@@AEAA_NXZ 000000018002f2b0     libucrt:output.obj
 0002:0000c2d4       $unwind$?type_case_a@?$output_processor@_WV?$string_output_adapter@_W@__crt_stdio_output@@V?$format_validation_base@_WV?$string_output_adapter@_W@__crt_stdio_output@@@2@@__crt_stdio_output@@AEAA_NXZ 000000018002f2d4     libucrt:output.obj
 0002:0000c2e4       $unwind$?write_stored_string_tchar@?$output_processor@_WV?$string_output_adapter@_W@__crt_stdio_output@@V?$format_validation_base@_WV?$string_output_adapter@_W@__crt_stdio_output@@@2@@__crt_stdio_output@@AEAA_N_W@Z 000000018002f2e4     libucrt:output.obj
 0002:0000c2f8       $unwind$??$type_case_integer_parse_into_buffer@I@?$output_processor@_WV?$string_output_adapter@_W@__crt_stdio_output@@V?$format_validation_base@_WV?$string_output_adapter@_W@__crt_stdio_output@@@2@@__crt_stdio_output@@AEAAXII_N@Z 000000018002f2f8     libucrt:output.obj
 0002:0000c2f8       $unwind$??$type_case_integer_parse_into_buffer@_K@?$output_processor@_WV?$string_output_adapter@_W@__crt_stdio_output@@V?$format_validation_base@_WV?$string_output_adapter@_W@__crt_stdio_output@@@2@@__crt_stdio_output@@AEAAX_KI_N@Z 000000018002f2f8     libucrt:output.obj
 0002:0000c300       $unwind$?common_exit@@YAXHW4_crt_exit_cleanup_mode@@W4_crt_exit_return_mode@@@Z 000000018002f300     libucrt:exit.obj
 0002:0000c30c       $unwind$??R<lambda_6e4b09c48022b2350581041d5f6b0c4c>@@QEBA@XZ 000000018002f30c     libucrt:exit.obj
 0002:0000c32c       $unwind$??$?RV<lambda_d80eeec6fff315bfe5c115232f3240e3>@@AEAV<lambda_6e4b09c48022b2350581041d5f6b0c4c>@@V<lambda_2358e3775559c9db80273638284d5e45>@@@?$__crt_seh_guarded_call@X@@QEAAX$$QEAV<lambda_d80eeec6fff315bfe5c115232f3240e3>@@AEAV<lambda_6e4b09c48022b2350581041d5f6b0c4c>@@$$QEAV<lambda_2358e3775559c9db80273638284d5e45>@@@Z 000000018002f32c     libucrt:exit.obj
 0002:0000c350       $unwind$??$free_environment@D@@YAXQEAPEAD@Z 000000018002f350     libucrt:environment_initialization.obj
 0002:0000c350       $unwind$??$free_environment@_W@@YAXQEAPEA_W@Z 000000018002f350     libucrt:environment_initialization.obj
 0002:0000c35c       $unwind$??$create_environment@D@@YAQEAPEADQEAD@Z 000000018002f35c     libucrt:environment_initialization.obj
 0002:0000c374       $unwind$_register_onexit_function 000000018002f374     libucrt:onexit.obj
 0002:0000c37c       $unwind$_execute_onexit_table 000000018002f37c     libucrt:onexit.obj
 0002:0000c384       $unwind$??R<lambda_22ebabd17bc4fa466a2aca6d8deb888d>@@QEBAHXZ 000000018002f384     libucrt:onexit.obj
 0002:0000c39c       $unwind$??$?RV<lambda_638799b9deba96c50f710eeac98168cd>@@AEAV<lambda_22ebabd17bc4fa466a2aca6d8deb888d>@@V<lambda_a6f7d7db0129f75315ebf26d50c089f1>@@@?$__crt_seh_guarded_call@H@@QEAAH$$QEAV<lambda_638799b9deba96c50f710eeac98168cd>@@AEAV<lambda_22ebabd17bc4fa466a2aca6d8deb888d>@@$$QEAV<lambda_a6f7d7db0129f75315ebf26d50c089f1>@@@Z 000000018002f39c     libucrt:onexit.obj
 0002:0000c3c0       $unwind$??$?RV<lambda_7777bce6b2f8c936911f934f8298dc43>@@AEAV<lambda_f03950bc5685219e0bcd2087efbe011e>@@V<lambda_3883c3dff614d5e0c5f61bb1ac94921c>@@@?$__crt_seh_guarded_call@H@@QEAAH$$QEAV<lambda_7777bce6b2f8c936911f934f8298dc43>@@AEAV<lambda_f03950bc5685219e0bcd2087efbe011e>@@$$QEAV<lambda_3883c3dff614d5e0c5f61bb1ac94921c>@@@Z 000000018002f3c0     libucrt:onexit.obj
 0002:0000c3e4       $unwind$_query_new_handler 000000018002f3e4     libucrt:new_handler.obj
 0002:0000c404       $unwind$terminate          000000018002f404     libucrt:terminate.obj
 0002:0000c424       $unwind$??$parse_integer@KV?$c_string_character_source@_W@__crt_strtox@@@__crt_strtox@@YAKQEAU__crt_locale_pointers@@V?$c_string_character_source@_W@0@H_N@Z 000000018002f424     libucrt:atox.obj
 0002:0000c440       $xdatasym                  000000018002f440     libucrt:strncmp.obj
 0002:0000c444       $unwind$?construct_ptd_array@@YAXQEAU__acrt_ptd@@@Z 000000018002f444     libucrt:per_thread_data.obj
 0002:0000c44c       $unwind$?destroy_ptd_array@@YAXQEAU__acrt_ptd@@@Z 000000018002f44c     libucrt:per_thread_data.obj
 0002:0000c454       $unwind$??$?RV<lambda_0ae27a3a962d80f24befdcbee591983d>@@AEAV<lambda_8d0ee55de4b1038c4002e0adecdf1839>@@V<lambda_dc504788e8f1664fe9b84e20bfb512f2>@@@?$__crt_seh_guarded_call@X@@QEAAX$$QEAV<lambda_0ae27a3a962d80f24befdcbee591983d>@@AEAV<lambda_8d0ee55de4b1038c4002e0adecdf1839>@@$$QEAV<lambda_dc504788e8f1664fe9b84e20bfb512f2>@@@Z 000000018002f454     libucrt:per_thread_data.obj
 0002:0000c478       $unwind$??$?RV<lambda_aa87e3671a710a21b5dc78c0bdf72e11>@@AEAV<lambda_92619d2358a28f41a33ba319515a20b9>@@V<lambda_6992ecaafeb10aed2b74cb1fae11a551>@@@?$__crt_seh_guarded_call@X@@QEAAX$$QEAV<lambda_aa87e3671a710a21b5dc78c0bdf72e11>@@AEAV<lambda_92619d2358a28f41a33ba319515a20b9>@@$$QEAV<lambda_6992ecaafeb10aed2b74cb1fae11a551>@@@Z 000000018002f478     libucrt:per_thread_data.obj
 0002:0000c49c       $unwind$??$?RV<lambda_f2e299630e499de9f9a165e60fcd3db5>@@AEAV<lambda_2ae9d31cdba2644fcbeaf08da7c24588>@@V<lambda_40d01ff24d0e7b3814fdbdcee8eab3c7>@@@?$__crt_seh_guarded_call@X@@QEAAX$$QEAV<lambda_f2e299630e499de9f9a165e60fcd3db5>@@AEAV<lambda_2ae9d31cdba2644fcbeaf08da7c24588>@@$$QEAV<lambda_40d01ff24d0e7b3814fdbdcee8eab3c7>@@@Z 000000018002f49c     libucrt:per_thread_data.obj
 0002:0000c4c0       $unwind$??$?RV<lambda_2d41944a1d46af3157314b8a01080d33>@@AEAV<lambda_8f455de75cd7d7f24b4096f044d8b9e6>@@V<lambda_aa500f224e6afead328df44964fe2772>@@@?$__crt_seh_guarded_call@X@@QEAAX$$QEAV<lambda_2d41944a1d46af3157314b8a01080d33>@@AEAV<lambda_8f455de75cd7d7f24b4096f044d8b9e6>@@$$QEAV<lambda_aa500f224e6afead328df44964fe2772>@@@Z 000000018002f4c0     libucrt:per_thread_data.obj
 0002:0000c4e4       $unwind$__acrt_initialize_winapi_thunks 000000018002f4e4     libucrt:winapi_thunks.obj
 0002:0000c4ec       $unwind$__acrt_fp_format   000000018002f4ec     libucrt:cvt.obj
 0002:0000c504       $unwind$?fp_format_e_internal@@YAHQEAD_KH_NIQEAU_strflt@@2QEAU__crt_locale_pointers@@@Z 000000018002f504     libucrt:cvt.obj
 0002:0000c51c       $unwind$?fp_format_a@@YAHQEBNPEAD_KQEAD2H_NIQEAU__crt_locale_pointers@@W4__acrt_rounding_mode@@@Z 000000018002f51c     libucrt:cvt.obj
 0002:0000c538       $unwind$?fp_format_g@@YAHQEBNQEAD_K12H_NIQEAU__crt_locale_pointers@@@Z 000000018002f538     libucrt:cvt.obj
 0002:0000c54c       $unwind$__acrt_uninitialize_locale 000000018002f54c     libucrt:wsetlocale.obj
 0002:0000c54c       $unwind$__acrt_get_sigabrt_handler 000000018002f54c     libucrt:signal.obj
 0002:0000c554       $unwind$??$?RV<lambda_410d79af7f07d98d83a3f525b3859a53>@@AEAV<lambda_3e16ef9562a7dcce91392c22ab16ea36>@@V<lambda_38119f0e861e05405d8a144b9b982f0a>@@@?$__crt_seh_guarded_call@X@@QEAAX$$QEAV<lambda_410d79af7f07d98d83a3f525b3859a53>@@AEAV<lambda_3e16ef9562a7dcce91392c22ab16ea36>@@$$QEAV<lambda_38119f0e861e05405d8a144b9b982f0a>@@@Z 000000018002f554     libucrt:wsetlocale.obj
 0002:0000c57c       $unwind$__acrt_initialize_lowio 000000018002f57c     libucrt:ioinit.obj
 0002:0000c59c       $unwind$??$common_expand_argv_wildcards@D@@YAHQEAPEADQEAPEAPEAD@Z 000000018002f59c     libucrt:argv_wildcards.obj
 0002:0000c5b4       $unwind$??$copy_and_add_argument_to_buffer@D@@YAHQEBD0_KAEAV?$argument_list@D@?A0x5f5c8891@@@Z 000000018002f5b4     libucrt:argv_wildcards.obj
 0002:0000c5d0       $unwind$??$expand_argument_wildcards@D@@YAHQEAD0AEAV?$argument_list@D@?A0x5f5c8891@@@Z 000000018002f5d0     libucrt:argv_wildcards.obj
 0002:0000c5f4       $unwind$__acrt_GetModuleFileNameA 000000018002f5f4     libucrt:getmodulefilenamea.obj
 0002:0000c610       $unwind$_setmbcp_nolock    000000018002f610     libucrt:mbctype.obj
 0002:0000c630       $unwind$?update_thread_multibyte_data_internal@@YAPEAU__crt_multibyte_data@@QEAU__acrt_ptd@@QEAPEAU1@@Z 000000018002f630     libucrt:mbctype.obj
 0002:0000c658       $unwind$?setmbcp_internal@@YAHH_NQEAU__acrt_ptd@@QEAPEAU__crt_multibyte_data@@@Z 000000018002f658     libucrt:mbctype.obj
 0002:0000c668       $unwind$?setSBUpLow@@YAXPEAU__crt_multibyte_data@@@Z 000000018002f668     libucrt:mbctype.obj
 0002:0000c684       $unwind$??$?RV<lambda_efdfa57d1f175319df784efa44bb7b81>@@AEAV<lambda_5f0a4c1567f8adc6734073e5d1e1b35c>@@V<lambda_2e8a7d3640ea6ccb4c2413664c2db6fd>@@@?$__crt_seh_guarded_call@X@@QEAAX$$QEAV<lambda_efdfa57d1f175319df784efa44bb7b81>@@AEAV<lambda_5f0a4c1567f8adc6734073e5d1e1b35c>@@$$QEAV<lambda_2e8a7d3640ea6ccb4c2413664c2db6fd>@@@Z 000000018002f684     libucrt:mbctype.obj
 0002:0000c6a8       $unwind$__acrt_WideCharToMultiByte 000000018002f6a8     libucrt:widechartomultibyte.obj
 0002:0000c6b4       $unwind$raise              000000018002f6b4     libucrt:signal.obj
 0002:0000c6f0       $unwind$??$?RV<lambda_450d765d439847d4c735a33c368b5fc0>@@AEAV<lambda_44731a7d0e6d81c3e6aa82d741081786>@@V<lambda_601a2a7da3b7a96e9554ac7215c4b07c>@@@?$__crt_seh_guarded_call@P6AXH@Z@@QEAAP6AXH@Z$$QEAV<lambda_450d765d439847d4c735a33c368b5fc0>@@AEAV<lambda_44731a7d0e6d81c3e6aa82d741081786>@@$$QEAV<lambda_601a2a7da3b7a96e9554ac7215c4b07c>@@@Z 000000018002f6f0     libucrt:signal.obj
 0002:0000c714       $unwind$?common_flush_all@@YAH_N@Z 000000018002f714     libucrt:fflush.obj
 0002:0000c71c       $unwind$??$?RV<lambda_842d9ff0dc9ef11c61343bbaebe7f885>@@AEAV<lambda_c5860995281e5c4ce005b3de8f5874ee>@@V<lambda_d90129c13df834fdcbf8d2b88dafcf2d>@@@?$__crt_seh_guarded_call@X@@QEAAX$$QEAV<lambda_842d9ff0dc9ef11c61343bbaebe7f885>@@AEAV<lambda_c5860995281e5c4ce005b3de8f5874ee>@@$$QEAV<lambda_d90129c13df834fdcbf8d2b88dafcf2d>@@@Z 000000018002f71c     libucrt:fflush.obj
 0002:0000c740       $unwind$??$?RV<lambda_886d6c58226a84441f68b9f2b8217b83>@@AEAV<lambda_ab61a845afdef5b7c387490eaf3616ee>@@V<lambda_f7f22ab5edc0698d5f6905b0d3f44752>@@@?$__crt_seh_guarded_call@X@@QEAAX$$QEAV<lambda_886d6c58226a84441f68b9f2b8217b83>@@AEAV<lambda_ab61a845afdef5b7c387490eaf3616ee>@@$$QEAV<lambda_f7f22ab5edc0698d5f6905b0d3f44752>@@@Z 000000018002f740     libucrt:fflush.obj
 0002:0000c768       $unwind$__acrt_update_thread_locale_data 000000018002f768     libucrt:locale_refcounting.obj
 0002:0000c78c       $unwind$?__mbrtowc_utf8@__crt_mbstring@@YA_KPEA_WPEBD_KPEAU_Mbstatet@@@Z 000000018002f78c     libucrt:mbrtowc.obj
 0002:0000c794       $unwind$?__mbsrtowcs_utf8@__crt_mbstring@@YA_KPEA_WPEAPEBD_KPEAU_Mbstatet@@@Z 000000018002f794     libucrt:mbrtowc.obj
 0002:0000c7ac       $unwind$__acrt_fltout      000000018002f7ac     libucrt:cfout.obj
 0002:0000c7cc       $unwind$?divide@__crt_strtox@@YA_KAEAUbig_integer@1@AEBU21@@Z 000000018002f7cc     libucrt:cfout.obj
 0002:0000c7e4       $chain$0$?divide@__crt_strtox@@YA_KAEAUbig_integer@1@AEBU21@@Z 000000018002f7e4     libucrt:cfout.obj
 0002:0000c7f8       $chain$1$?divide@__crt_strtox@@YA_KAEAUbig_integer@1@AEBU21@@Z 000000018002f7f8     libucrt:cfout.obj
 0002:0000c808       $unwind$_fcloseall         000000018002f808     libucrt:closeall.obj
 0002:0000c82c       $unwind$__acrt_locale_free_monetary 000000018002f82c     libucrt:initmon.obj
 0002:0000c834       $unwind$__acrt_locale_free_time 000000018002f834     libucrt:inittime.obj
 0002:0000c844       $unwind$__acrt_GetStringTypeA 000000018002f844     libucrt:getstringtypea.obj
 0002:0000c86c       $unwind$__acrt_lowio_destroy_handle_array 000000018002f86c     libucrt:osfinfo.obj
 0002:0000c87c       $unwind$__acrt_lowio_ensure_fh_exists 000000018002f87c     libucrt:osfinfo.obj
 0002:0000c8a8       $unwind$qsort              000000018002f8a8     libucrt:qsort.obj
 0002:0000c8c0       $chain$4$qsort             000000018002f8c0     libucrt:qsort.obj
 0002:0000c8e4       $chain$5$qsort             000000018002f8e4     libucrt:qsort.obj
 0002:0000c8f4       $unwind$strpbrk            000000018002f8f4     libucrt:strpbrk.obj
 0002:0000c904       $unwind$fallbackMethod     000000018002f904     libucrt:strpbrk.obj
 0002:0000c914       $unwind$__acrt_LCMapStringA 000000018002f914     libucrt:lcmapstringa.obj
 0002:0000c924       $unwind$?__acrt_LCMapStringA_stat@@YAHPEAU__crt_locale_pointers@@PEB_WKPEBDHPEADHHH@Z 000000018002f924     libucrt:lcmapstringa.obj
 0002:0000c94c       $unwind$_close             000000018002f94c     libucrt:close.obj
 0002:0000c94c       $unwind$_commit            000000018002f94c     libucrt:commit.obj
 0002:0000c954       $unwind$??$?RV<lambda_a37b2b86f63e897a80ea819b0eb08c01>@@AEAV<lambda_38ce7e780aa69e748d6df282ebc68efe>@@V<lambda_99fb1378e971ab6e7edea83e3a7a83a2>@@@?$__crt_seh_guarded_call@H@@QEAAH$$QEAV<lambda_a37b2b86f63e897a80ea819b0eb08c01>@@AEAV<lambda_38ce7e780aa69e748d6df282ebc68efe>@@$$QEAV<lambda_99fb1378e971ab6e7edea83e3a7a83a2>@@@Z 000000018002f954     libucrt:commit.obj
 0002:0000c978       $unwind$_write             000000018002f978     libucrt:write.obj
 0002:0000c9a8       $unwind$_write_nolock      000000018002f9a8     libucrt:write.obj
 0002:0000c9c0       $unwind$?write_double_translated_ansi_nolock@@YA?AUwrite_result@?A0x17268360@@HQEBDI@Z 000000018002f9c0     libucrt:write.obj
 0002:0000c9e4       $unwind$?write_text_ansi_nolock@@YA?AUwrite_result@?A0x17268360@@HQEBDI@Z 000000018002f9e4     libucrt:write.obj
 0002:0000c9e4       $unwind$?write_text_utf16le_nolock@@YA?AUwrite_result@?A0x17268360@@HQEBDI@Z 000000018002f9e4     libucrt:write.obj
 0002:0000ca04       $unwind$?write_text_utf8_nolock@@YA?AUwrite_result@?A0x17268360@@HQEBDI@Z 000000018002fa04     libucrt:write.obj
 0002:0000ca28       $xdatasym                  000000018002fa28     libucrt:log10.obj
 0002:0000ca34       $unwind$__acrt_fenv_set_control 000000018002fa34     libucrt:_fenvutils.obj
 0002:0000ca44       $unwind$fclose             000000018002fa44     libucrt:fclose.obj
 0002:0000ca68       $unwind$_putwch_nolock     000000018002fa68     libucrt:putwch.obj
 0002:0000ca70       $unwind$common_control87   000000018002fa70     libucrt:ieee.obj
 0002:0000ca9c       $unwind$_call_matherr      000000018002fa9c     libucrt:libm_error.obj
 0002:0000caa4       $unwind$_handle_error      000000018002faa4     libucrt:libm_error.obj
 0002:0000cac4       $unwind$__acrt_initialize_fma3 000000018002fac4     libucrt:fma3_available.obj
 0002:0000cacc       $unwind$_log_special_common 000000018002facc     libucrt:log_special.obj
 0002:0000cad8       $unwind$??$?RV<lambda_751a882b2c74d4b022dec766aa51a29a>@@AEAV<lambda_628dfdc04ba53c8bfc02c9951375f3f5>@@V<lambda_f6c7be5f7998530c34de24c7437d6b54>@@@?$__crt_seh_guarded_call@H@@QEAAH$$QEAV<lambda_751a882b2c74d4b022dec766aa51a29a>@@AEAV<lambda_628dfdc04ba53c8bfc02c9951375f3f5>@@$$QEAV<lambda_f6c7be5f7998530c34de24c7437d6b54>@@@Z 000000018002fad8     libucrt:close.obj
 0002:0000cb00       $xdatasym                  000000018002fb00     libucrt:fpsr.obj
 0002:0000cb08       $unwind$_raise_exc_ex      000000018002fb08     libucrt:fpexcept.obj
 0002:0000cb1c       $unwind$_ctrlfp            000000018002fb1c     libucrt:fpctrl.obj
 0002:0000cb44       $unwind$_IsNonwritableInCurrentImage 000000018002fb44     LIBCMT:pesect.obj
 0002:0000ccd0       .edata                     000000018002fcd0     OPOSMotionSensor.exp
 0002:0000ccf8       rgpv                       000000018002fcf8     OPOSMotionSensor.exp
 0002:0000cd08       rgszName                   000000018002fd08     OPOSMotionSensor.exp
 0002:0000cd18       rgwOrd                     000000018002fd18     OPOSMotionSensor.exp
 0002:0000cd20       szName                     000000018002fd20     OPOSMotionSensor.exp
 0002:0000cd35       $N00001                    000000018002fd35     OPOSMotionSensor.exp
 0002:0000cd45       $N00002                    000000018002fd45     OPOSMotionSensor.exp
 0002:0000cd57       $N00003                    000000018002fd57     OPOSMotionSensor.exp
 0002:0000cd69       $N00004                    000000018002fd69     OPOSMotionSensor.exp
 0002:0000d69a       .idata$6                   000000018003069a     kernel32:KERNEL32.dll
 0002:0000d8b2       .idata$6                   00000001800308b2     user32:USER32.dll
 0002:0000d9e6       .idata$6                   00000001800309e6     gdi32:GDI32.dll
 0002:0000da8c       .idata$6                   0000000180030a8c     advapi32:ADVAPI32.dll
 0002:0000dba8       .idata$6                   0000000180030ba8     ole32:ole32.dll
 0002:0000dbb2       .idata$6                   0000000180030bb2     oleaut32:OLEAUT32.dll
 0003:000001c0       ?ObjectMap@@3PAU_ATL_OBJMAP_ENTRY30@ATL@@A 00000001800321c0     MotionSensor.obj
 0003:000002d0       ?s_SOMethodNames@@3PAPEADA 00000001800322d0     MotionSensorImpl.obj
 0003:00000360       ?s_RequiredMethodsPerRelease@@3PAHA 0000000180032360     MotionSensorImpl.obj
 0003:000003b0       ?__vcrt_flsindex@@3KA      00000001800323b0     libvcruntime:per_thread_data.obj
 0003:000003c0       ?errno_no_memory@@3HA      00000001800323c0     libucrt:errno.obj
 0003:000003c4       ?doserrno_no_memory@@3KA   00000001800323c4     libucrt:errno.obj
 0003:000003d0       ?__acrt_flsindex@@3KA      00000001800323d0     libucrt:per_thread_data.obj
 0003:00000890       _mbctypes                  0000000180032890     libucrt:mbctype.obj
 0003:000009a0       _mbcasemaps                00000001800329a0     libucrt:mbctype.obj
 0003:00000aa0       ?__rgctypeflag@@3PADA      0000000180032aa0     libucrt:mbctype.obj
 0003:00000ab0       ?__rgcode_page_info@@3PAUcode_page_info@@A 0000000180032ab0     libucrt:mbctype.obj
 0003:00000d50       ?dazSupported@?1??common_control87@@9@9 0000000180032d50     libucrt:ieee.obj
 0003:00000d60       ?__dcrt_lowio_console_output_handle@@3PEAXEA 0000000180032d60     libucrt:initcon.obj
 0003:00000d70       ?dazSupported@?1??_ctrlfp@@9@9 0000000180032d70     libucrt:fpctrl.obj
 0003:00000fc0       ?is_initialized_as_dll@@3_NA 0000000180032fc0     LIBCMT:utility.obj
 0003:00000fc1       ?module_local_atexit_table_initialized@@3_NA 0000000180032fc1     LIBCMT:utility.obj
 0003:00000fc8       ?module_local_atexit_table@@3U_onexit_table_t@@A 0000000180032fc8     LIBCMT:utility.obj
 0003:00000fe0       ?module_local_at_quick_exit_table@@3U_onexit_table_t@@A 0000000180032fe0     LIBCMT:utility.obj
 0003:00000ff8       ?g_tss_cv@@3U_RTL_CONDITION_VARIABLE@@A 0000000180032ff8     LIBCMT:thread_safe_statics.obj
 0003:00001000       ?g_tss_event@@3PEAXEA      0000000180033000     LIBCMT:thread_safe_statics.obj
 0003:00001008       ?g_tss_mutex@@3U_RTL_CRITICAL_SECTION@@A 0000000180033008     LIBCMT:thread_safe_statics.obj
 0003:00001030       ?g_sleep_condition_variable_cs@@3P6AHPEAU_RTL_CONDITION_VARIABLE@@PEAU_RTL_CRITICAL_SECTION@@K@ZEA 0000000180033030     LIBCMT:thread_safe_statics.obj
 0003:00001038       ?g_wake_all_condition_variable@@3P6AXPEAU_RTL_CONDITION_VARIABLE@@@ZEA 0000000180033038     LIBCMT:thread_safe_statics.obj
 0003:00001040       GS_ExceptionRecord         0000000180033040     LIBCMT:gs_report.obj
 0003:000010e0       GS_ContextRecord           00000001800330e0     LIBCMT:gs_report.obj
 0003:000015b4       ?__proc_attached@@3HA      00000001800335b4     LIBCMT:dll_dllmain.obj
 0003:00001658       ?AllocateData@@3P6APEAUAtlThunkData_t@@XZEA 0000000180033658     atls:atlthunk.obj
 0003:00001660       ?InitData@@3P6AXPEAUAtlThunkData_t@@PEAX_K@ZEA 0000000180033660     atls:atlthunk.obj
 0003:00001668       ?DataToCode@@3P6AP6A_JPEAUHWND__@@I_K_J@ZPEAUAtlThunkData_t@@@ZEA 0000000180033668     atls:atlthunk.obj
 0003:00001670       ?FreeData@@3P6AXPEAUAtlThunkData_t@@@ZEA 0000000180033670     atls:atlthunk.obj
 0003:00001678       ?Initialized@@3_NA         0000000180033678     atls:atlthunk.obj
 0003:00001690       ?__vcrt_startup_thread_ptd@@3U__vcrt_ptd@@A 0000000180033690     libvcruntime:per_thread_data.obj
 0003:00001710       __vcrt_lock_table          0000000180033710     libvcruntime:locks.obj
 0003:00001738       __vcrt_locks_initialized   0000000180033738     libvcruntime:locks.obj
 0003:00001780       ?heap@@3V_HeapManager@@A   0000000180033780     libvcruntime:undname.obj
 0003:000017a8       ?module_handles@@3PAPEAUHINSTANCE__@@A 00000001800337a8     libvcruntime:winapi_downlevel.obj
 0003:000017c0       ?function_pointers@@3PAPEAXA 00000001800337c0     libvcruntime:winapi_downlevel.obj
 0003:000017e8       ?__acrt_invalid_parameter_handler@@3V?$dual_state_global@P6AXPEB_W00I_K@Z@__crt_state_management@@A 00000001800337e8     libucrt:invalid_parameter.obj
 0003:000017f0       ?c_termination_complete@@3JA 00000001800337f0     libucrt:exit.obj
 0003:000017f8       ?thread_local_exit_callback_func@@3P6AXPEAXK0@ZEA 00000001800337f8     libucrt:exit.obj
 0003:00001810       ?program_name@?1???$common_configure_argv@D@@YAHW4_crt_argv_mode@@@Z@4PADA 0000000180033810     libucrt:argv_parsing.obj
 0003:00001968       ?__acrt_new_handler@@3V?$dual_state_global@P6AH_K@Z@__crt_state_management@@A 0000000180033968     libucrt:new_handler.obj
 0003:00001970       ?module_handles@@3PAPEAUHINSTANCE__@@A 0000000180033970     libucrt:winapi_thunks.obj
 0003:00001a10       ?encoded_function_pointers@@3PAPEAXA 0000000180033a10     libucrt:winapi_thunks.obj
 0003:00001b20       ?internal_state@?1??_mbtowc_l@@9@4U_Mbstatet@@A 0000000180033b20     libucrt:mbtowc.obj
 0003:00001b38       ?enable_percent_n@@3_KA    0000000180033b38     libucrt:printf_count_output.obj
 0003:00001f70       ?__acrt_lock_table@@3PAU_RTL_CRITICAL_SECTION@@A 0000000180033f70     libucrt:locks.obj
 0003:000021a0       ?__acrt_locks_initialized@@3IA 00000001800341a0     libucrt:locks.obj
 0003:000021c0       ?fSystemSet@@3HA           00000001800341c0     libucrt:mbctype.obj
 0003:000021c4       ?initialized@?1??__acrt_initialize_multibyte@@9@4_NA 00000001800341c4     libucrt:mbctype.obj
 0003:00002200       ?ctrlc_action@@3V?$dual_state_global@P6AXH@Z@__crt_state_management@@A 0000000180034200     libucrt:signal.obj
 0003:00002208       ?ctrlbreak_action@@3V?$dual_state_global@P6AXH@Z@__crt_state_management@@A 0000000180034208     libucrt:signal.obj
 0003:00002210       ?abort_action@@3V?$dual_state_global@P6AXH@Z@__crt_state_management@@A 0000000180034210     libucrt:signal.obj
 0003:00002218       ?term_action@@3V?$dual_state_global@P6AXH@Z@__crt_state_management@@A 0000000180034218     libucrt:signal.obj
 0003:00002220       ?user_matherr@@3V?$dual_state_global@P6AHPEAU_exception@@@Z@__crt_state_management@@A 0000000180034220     libucrt:matherr.obj
 0003:00002228       ?__acrt_global_new_mode@@3V?$dual_state_global@J@__crt_state_management@@A 0000000180034228     libucrt:new_mode.obj
 0003:00002238       ?internal_pst@?1??__mbrtoc32_utf8@__crt_mbstring@@YA_KPEA_UPEBD_KPEAU_Mbstatet@@@Z@4U3@A 0000000180034238     libucrt:mbrtoc32.obj
 0003:00002240       ?__acrt_app_type@@3W4_crt_app_type@@A 0000000180034240     libucrt:report_runtime_error.obj
 0005:00000000       MoveSmall                  0000000180037000     libvcruntime:memcpy.obj
 0005:00000050       MsetTab                    0000000180037050     libvcruntime:memset.obj
 0006:00000220       $R000000                   0000000180038220     MotionSensor.res
 0006:00000bc8       $R0009A8                   0000000180038bc8     MotionSensor.res
 0006:00000cb0       $R000A90                   0000000180038cb0     MotionSensor.res
 0006:00000f18       $R000CF8                   0000000180038f18     MotionSensor.res
 0006:00001430       $R001210                   0000000180039430     MotionSensor.res
 0006:00003780       $R003560                   000000018003b780     MotionSensor.res
 0006:000037b8       $R003598                   000000018003b7b8     MotionSensor.res
