 OPOSCashChanger

 Timestamp is 61a758c8 (Wed Dec  1 20:13:12 2021)

 Preferred load address is 0000000180000000

 Start         Length     Name                   Class
 0001:00000000 000000c0H .text$di                CODE
 0001:000000c0 000240d0H .text$mn                CODE
 0001:00024190 00000040H .text$mn$00             CODE
 0001:000241d0 00000660H .text$x                 CODE
 0001:00024830 00000078H .text$yd                CODE
 0002:00000000 00000638H .idata$5                DATA
 0002:00000638 00000030H .00cfg                  DATA
 0002:00000668 00000008H .CRT$XCA                DATA
 0002:00000670 00000008H .CRT$XCL                DATA
 0002:00000678 00000020H .CRT$XCU                DATA
 0002:00000698 00000008H .CRT$XCZ                DATA
 0002:000006a0 00000008H .CRT$XIA                DATA
 0002:000006a8 00000020H .CRT$XIC                DATA
 0002:000006c8 00000008H .CRT$XIZ                DATA
 0002:000006d0 00000008H .CRT$XLA                DATA
 0002:000006d8 00000008H .CRT$XLZ                DATA
 0002:000006e0 00000008H .CRT$XPA                DATA
 0002:000006e8 00000010H .CRT$XPX                DATA
 0002:000006f8 00000008H .CRT$XPXA               DATA
 0002:00000700 00000008H .CRT$XPZ                DATA
 0002:00000708 00000008H .CRT$XTA                DATA
 0002:00000710 00000010H .CRT$XTZ                DATA
 0002:00000718 00000000H .gehcont$y              DATA
 0002:00000718 00000000H .gfids$y                DATA
 0002:00000720 0000a6e0H .rdata                  DATA
 0002:0000ae00 00000000H .rdata$CastGuardVftablesA DATA
 0002:0000ae00 00000000H .rdata$CastGuardVftablesC DATA
 0002:0000ae00 00000028H .rdata$T                DATA
 0002:0000ae28 00000274H .rdata$r                DATA
 0002:0000b09c 00000048H .rdata$voltmd           DATA
 0002:0000b0e4 00000434H .rdata$zzzdbg           DATA
 0002:0000b518 00000008H .rtc$IAA                DATA
 0002:0000b520 00000008H .rtc$IZZ                DATA
 0002:0000b528 00000008H .rtc$TAA                DATA
 0002:0000b530 00000008H .rtc$TZZ                DATA
 0002:0000b538 00000004H .tls                    DATA
 0002:0000b53c 00000004H .tls$                   DATA
 0002:0000b540 00000008H .tls$ZZZ                DATA
 0002:0000b548 00001918H .xdata                  DATA
 0002:0000ce60 00000150H .xdata$x                DATA
 0002:0000cfb0 00000008H ATL$__a                 DATA
 0002:0000cfb8 00000008H ATL$__z                 DATA
 0002:0000cfc0 000000acH .edata                  DATA
 0002:0000d06c 00000078H .idata$2                DATA
 0002:0000d0e4 00000014H .idata$3                DATA
 0002:0000d0f8 00000638H .idata$4                DATA
 0002:0000d730 00000c5cH .idata$6                DATA
 0003:00000000 00000dc8H .data                   DATA
 0003:00000dc8 000000a8H .data$r                 DATA
 0003:00000e70 00000020H .data$rs                DATA
 0003:00000e90 000013ecH .bss                    DATA
 0004:00000000 000020c4H .pdata                  DATA
 0005:00000000 000000f4H _RDATA                  DATA
 0006:00000000 00000220H .rsrc$01                DATA
 0006:00000220 00004e98H .rsrc$02                DATA

  Address         Publics by Value              Rva+Base               Lib:Object

 0000:00000000       ___safe_se_handler_table   0000000000000000     <absolute>
 0000:00000000       __guard_longjmp_table      0000000000000000     <absolute>
 0000:00000000       __arm64x_redirection_metadata 0000000000000000     <absolute>
 0000:00000000       __x64_code_ranges_to_entry_points 0000000000000000     <absolute>
 0000:00000000       __guard_iat_table          0000000000000000     <absolute>
 0000:00000000       __guard_fids_count         0000000000000000     <absolute>
 0000:00000000       __arm64x_extra_rfe_table   0000000000000000     <absolute>
 0000:00000000       __guard_iat_count          0000000000000000     <absolute>
 0000:00000000       __guard_longjmp_count      0000000000000000     <absolute>
 0000:00000000       __dynamic_value_reloc_table 0000000000000000     <absolute>
 0000:00000000       __x64_code_ranges_to_entry_points_count 0000000000000000     <absolute>
 0000:00000000       __hybrid_auxiliary_iat     0000000000000000     <absolute>
 0000:00000000       __hybrid_code_map          0000000000000000     <absolute>
 0000:00000000       __hybrid_auxiliary_iat_copy 0000000000000000     <absolute>
 0000:00000000       __arm64x_extra_rfe_table_size 0000000000000000     <absolute>
 0000:00000000       ___safe_se_handler_count   0000000000000000     <absolute>
 0000:00000000       __AbsoluteZero             0000000000000000     <absolute>
 0000:00000000       __guard_check_icall_a64n_fptr 0000000000000000     <absolute>
 0000:00000000       __guard_fids_table         0000000000000000     <absolute>
 0000:00000000       __guard_eh_cont_count      0000000000000000     <absolute>
 0000:00000000       __arm64x_redirection_metadata_count 0000000000000000     <absolute>
 0000:00000000       __enclave_config           0000000000000000     <absolute>
 0000:00000000       __guard_eh_cont_table      0000000000000000     <absolute>
 0000:00000000       __arm64x_native_entrypoint 0000000000000000     <absolute>
 0000:00000000       __hybrid_code_map_count    0000000000000000     <absolute>
 0000:00000100       __guard_flags              0000000000000100     <absolute>
 0000:00000000       __ImageBase                0000000180000000     <linker-defined>
 0001:000000c0       ?DupWide@_CW@@AEAAXXZ      00000001800010c0 f   CWString.obj
 0001:000000e8       ?cw_dup@@YAXPEBDAEAHAEAPEA_W1@Z 00000001800010e8 f   CWString.obj
 0001:000001c8       ?cw_memcpy@@YAHPEA_WPEBDH@Z 00000001800011c8 f   CWString.obj
 0001:00000214       ?cw_strcpy@@YAHPEA_WPEBD@Z 0000000180001214 f   CWString.obj
 0001:00000228       ??0CAtlComModule@ATL@@QEAA@XZ 0000000180001228 f i OposVariant.obj
 0001:000002a8       ??0CAtlWinModule@ATL@@QEAA@XZ 00000001800012a8 f i OposVariant.obj
 0001:00000314       ??0OposDispParms@@QEAA@PEAVOposVariant@@H@Z 0000000180001314 f   OposVariant.obj
 0001:000003bc       ??1OposDispParms@@QEAA@XZ  00000001800013bc f   OposVariant.obj
 0001:000003d4       ??_Estringdispid@CComTypeInfoHolder@ATL@@QEAAPEAXI@Z 00000001800013d4 f i OposVariant.obj
 0001:00000478       ?AtlWinModuleTerm@ATL@@YAJPEAU_ATL_WIN_MODULE70@1@PEAUHINSTANCE__@@@Z 0000000180001478 f i OposVariant.obj
 0001:00000528       ?ChangeBSTR@OposVariant@@QEAAXPEAPEA_WAEAJ@Z 0000000180001528 f   OposVariant.obj
 0001:00000588       ?ChangeLONG@OposVariant@@QEAAXPEAJAEAJ@Z 0000000180001588 f   OposVariant.obj
 0001:000005e4       ?GetLONG@OposVariant@@QEAAJXZ 00000001800015e4 f   OposVariant.obj
 0001:00000608       ?SetBSTR@OposVariant@@QEAAXPEA_WAEAJ@Z 0000000180001608 f   OposVariant.obj
 0001:00000648       ?SetBSTR_Copy@OposVariant@@QEAAXPEA_WAEAJ@Z 0000000180001648 f   OposVariant.obj
 0001:000006b8       ?SetBSTR_InOutPtr@OposVariant@@QEAA_NPEAPEA_WAEAJ@Z 00000001800016b8 f   OposVariant.obj
 0001:00000708       ?SetBSTR_OutPtr@OposVariant@@QEAA_NPEAPEA_WAEAJ@Z 0000000180001708 f   OposVariant.obj
 0001:00000724       ?SetDispatch_Ptr@OposVariant@@QEAAXPEAUIDispatch@@AEAJ@Z 0000000180001724 f   OposVariant.obj
 0001:0000077c       ?SetLONG@OposVariant@@QEAAXJ@Z 000000018000177c f   OposVariant.obj
 0001:000007ac       ?SetLONG_Ptr@OposVariant@@QEAAXPEAJAEAJ@Z 00000001800017ac f   OposVariant.obj
 0001:000007f8       ?SetString@OposVariant@@QEAAXPEB_WAEAJ@Z 00000001800017f8 f   OposVariant.obj
 0001:0000085c       ?SetVARIANT_BOOL@OposVariant@@QEAAXF@Z 000000018000185c f   OposVariant.obj
 0001:00000894       ?SetVARIANT_BOOL_Ptr@OposVariant@@QEAAXPEAFAEAJ@Z 0000000180001894 f   OposVariant.obj
 0001:000008e0       ?Term@CAtlComModule@ATL@@QEAAXXZ 00000001800018e0 f i OposVariant.obj
 0001:00000950       ?_AtlInitializeCriticalSectionEx@ATL@@YAHPEAU_RTL_CRITICAL_SECTION@@KK@Z 0000000180001950 f i OposVariant.obj
 0001:00000958       ?_AtlRaiseException@ATL@@YAXKK@Z 0000000180001958 f i OposVariant.obj
 0001:00000968       ?Next@?$CComEnumImpl@UIEnumConnections@@$1?_GUID_b196b287_bab4_101a_b69c_00aa00341d07@@3U__s_GUID@@BUtagCONNECTDATA@@V?$_Copy@UtagCONNECTDATA@@@ATL@@@ATL@@UEAAJKPEAUtagCONNECTDATA@@PEAK@Z 0000000180001968 f i CashChanger.obj
 0001:00000a30       ?Skip@?$CComEnumImpl@UIEnumConnections@@$1?_GUID_b196b287_bab4_101a_b69c_00aa00341d07@@3U__s_GUID@@BUtagCONNECTDATA@@V?$_Copy@UtagCONNECTDATA@@@ATL@@@ATL@@UEAAJK@Z 0000000180001a30 f i CashChanger.obj
 0001:00000a5c       ?Reset@?$CComEnumImpl@UIEnumConnectionPoints@@$1?_GUID_b196b285_bab4_101a_b69c_00aa00341d07@@3U__s_GUID@@BPEAUIConnectionPoint@@V?$_CopyInterface@UIConnectionPoint@@@ATL@@@ATL@@UEAAJXZ 0000000180001a5c f i CashChanger.obj
 0001:00000a5c       ?Reset@?$CComEnumImpl@UIEnumConnections@@$1?_GUID_b196b287_bab4_101a_b69c_00aa00341d07@@3U__s_GUID@@BUtagCONNECTDATA@@V?$_Copy@UtagCONNECTDATA@@@ATL@@@ATL@@UEAAJXZ 0000000180001a5c f i CashChanger.obj
 0001:00000a68       ?Clone@?$CComEnumImpl@UIEnumConnections@@$1?_GUID_b196b287_bab4_101a_b69c_00aa00341d07@@3U__s_GUID@@BUtagCONNECTDATA@@V?$_Copy@UtagCONNECTDATA@@@ATL@@@ATL@@UEAAJPEAPEAUIEnumConnections@@@Z 0000000180001a68 f i CashChanger.obj
 0001:00000b94       ?AddRef@?$CComObject@V?$CComEnum@UIEnumConnections@@$1?_GUID_b196b287_bab4_101a_b69c_00aa00341d07@@3U__s_GUID@@BUtagCONNECTDATA@@V?$_Copy@UtagCONNECTDATA@@@ATL@@VCComSingleThreadModel@6@@ATL@@@ATL@@UEAAKXZ 0000000180001b94 f i CashChanger.obj
 0001:00000b94       ?AddRef@?$CComObject@V?$CComEnum@UIEnumConnectionPoints@@$1?_GUID_b196b285_bab4_101a_b69c_00aa00341d07@@3U__s_GUID@@BPEAUIConnectionPoint@@V?$_CopyInterface@UIConnectionPoint@@@ATL@@VCComSingleThreadModel@6@@ATL@@@ATL@@UEAAKXZ 0000000180001b94 f i CashChanger.obj
 0001:00000ba0       ?Release@?$CComObject@V?$CComEnum@UIEnumConnections@@$1?_GUID_b196b287_bab4_101a_b69c_00aa00341d07@@3U__s_GUID@@BUtagCONNECTDATA@@V?$_Copy@UtagCONNECTDATA@@@ATL@@VCComSingleThreadModel@6@@ATL@@@ATL@@UEAAKXZ 0000000180001ba0 f i CashChanger.obj
 0001:00000ba0       ?Release@?$CComObject@V?$CComEnum@UIEnumConnectionPoints@@$1?_GUID_b196b285_bab4_101a_b69c_00aa00341d07@@3U__s_GUID@@BPEAUIConnectionPoint@@V?$_CopyInterface@UIConnectionPoint@@@ATL@@VCComSingleThreadModel@6@@ATL@@@ATL@@UEAAKXZ 0000000180001ba0 f i CashChanger.obj
 0001:00000bf4       ?QueryInterface@?$CComObject@V?$CComEnum@UIEnumConnections@@$1?_GUID_b196b287_bab4_101a_b69c_00aa00341d07@@3U__s_GUID@@BUtagCONNECTDATA@@V?$_Copy@UtagCONNECTDATA@@@ATL@@VCComSingleThreadModel@6@@ATL@@@ATL@@UEAAJAEBU_GUID@@PEAPEAX@Z 0000000180001bf4 f i CashChanger.obj
 0001:00000c08       ??_G?$CComObject@V?$CComEnum@UIEnumConnections@@$1?_GUID_b196b287_bab4_101a_b69c_00aa00341d07@@3U__s_GUID@@BUtagCONNECTDATA@@V?$_Copy@UtagCONNECTDATA@@@ATL@@VCComSingleThreadModel@6@@ATL@@@ATL@@UEAAPEAXI@Z 0000000180001c08 f i CashChanger.obj
 0001:00000c08       ??_E?$CComObject@V?$CComEnum@UIEnumConnections@@$1?_GUID_b196b287_bab4_101a_b69c_00aa00341d07@@3U__s_GUID@@BUtagCONNECTDATA@@V?$_Copy@UtagCONNECTDATA@@@ATL@@VCComSingleThreadModel@6@@ATL@@@ATL@@UEAAPEAXI@Z 0000000180001c08 f i CashChanger.obj
 0001:00000c60       ?ObjectMain@CComObjectRootBase@ATL@@SAX_N@Z 0000000180001c60 f i CashChanger.obj
 0001:00000c60       _guard_check_icall_nop     0000000180001c60 f i LIBCMT:guard_support.obj
 0001:00000c60       ?OnFinalMessage@?$CWindowImplBaseT@VCWindow@ATL@@V?$CWinTraits@$0FGAAAAAA@$0A@@2@@ATL@@UEAAXPEAUHWND__@@@Z 0000000180001c60 f i CashChanger.obj
 0001:00000c64       ?HandsOffStorage@?$IPersistStorageImpl@VCOPOSCashChanger@@@ATL@@UEAAJXZ 0000000180001c64 f i CashChanger.obj
 0001:00000c64       ?SaveCompleted@?$IPersistStorageImpl@VCOPOSCashChanger@@@ATL@@UEAAJPEAUIStorage@@@Z 0000000180001c64 f i CashChanger.obj
 0001:00000c64       ?EnableModeless@?$IOleInPlaceActiveObjectImpl@VCOPOSCashChanger@@@ATL@@UEAAJH@Z 0000000180001c64 f i CashChanger.obj
 0001:00000c64       ?IsUpToDate@?$IOleObjectImpl@VCOPOSCashChanger@@@ATL@@UEAAJXZ 0000000180001c64 f i CashChanger.obj
 0001:00000c64       ?Release@CRegObject@ATL@@UEAAKXZ 0000000180001c64 f i CashChanger.obj
 0001:00000c64       ?OnFrameWindowActivate@?$IOleInPlaceActiveObjectImpl@VCOPOSCashChanger@@@ATL@@UEAAJH@Z 0000000180001c64 f i CashChanger.obj
 0001:00000c64       ?Update@?$IOleObjectImpl@VCOPOSCashChanger@@@ATL@@UEAAJXZ 0000000180001c64 f i CashChanger.obj
 0001:00000c64       ?GetCategoryMap@CComObjectRootBase@ATL@@SAPEBU_ATL_CATMAP_ENTRY@2@XZ 0000000180001c64 f i CashChanger.obj
 0001:00000c64       ?ResizeBorder@?$IOleInPlaceActiveObjectImpl@VCOPOSCashChanger@@@ATL@@UEAAJPEBUtagRECT@@PEAUIOleInPlaceUIWindow@@H@Z 0000000180001c64 f i CashChanger.obj
 0001:00000c64       ?SetHostNames@?$IOleObjectImpl@VCOPOSCashChanger@@@ATL@@UEAAJPEB_W0@Z 0000000180001c64 f i CashChanger.obj
 0001:00000c64       ?GetObjectDescription@?$CComCoClass@VCOPOSCashChanger@@$1?CLSID_OPOSCashChanger@@3U_GUID@@B@ATL@@SAPEB_WXZ 0000000180001c64 f i CashChanger.obj
 0001:00000c64       ?OnAmbientPropertyChange@?$IOleControlImpl@VCOPOSCashChanger@@@ATL@@UEAAJJ@Z 0000000180001c64 f i CashChanger.obj
 0001:00000c68       ?CreateInstance@CComClassFactory@ATL@@UEAAJPEAUIUnknown@@AEBU_GUID@@PEAPEAX@Z 0000000180001c68 f i CashChanger.obj
 0001:00000cc8       ??_E?$CComObject@VCOPOSCashChanger@@@ATL@@W7EAAPEAXI@Z 0000000180001cc8 f i CashChanger.obj
 0001:00000cd4       ??_E?$CComObject@VCOPOSCashChanger@@@ATL@@WHA@EAAPEAXI@Z 0000000180001cd4 f i CashChanger.obj
 0001:00000ce0       ?LockServer@CComClassFactory@ATL@@UEAAJH@Z 0000000180001ce0 f i CashChanger.obj
 0001:00000d04       ?QueryInterface@?$CComObject@VCOPOSCashChanger@@@ATL@@WLI@EAAJAEBU_GUID@@PEAPEAX@Z 0000000180001d04 f i CashChanger.obj
 0001:00000d10       ?AddRef@?$CComObject@VCOPOSCashChanger@@@ATL@@WLI@EAAKXZ 0000000180001d10 f i CashChanger.obj
 0001:00000d1c       ?Release@?$CComObject@VCOPOSCashChanger@@@ATL@@WLI@EAAKXZ 0000000180001d1c f i CashChanger.obj
 0001:00000d28       ?QueryInterface@?$CComObject@VCOPOSCashChanger@@@ATL@@WMA@EAAJAEBU_GUID@@PEAPEAX@Z 0000000180001d28 f i CashChanger.obj
 0001:00000d34       ?AddRef@?$CComObject@VCOPOSCashChanger@@@ATL@@WMA@EAAKXZ 0000000180001d34 f i CashChanger.obj
 0001:00000d40       ?Release@?$CComObject@VCOPOSCashChanger@@@ATL@@WMA@EAAKXZ 0000000180001d40 f i CashChanger.obj
 0001:00000d4c       ?QueryInterface@?$CComObject@VCOPOSCashChanger@@@ATL@@WMI@EAAJAEBU_GUID@@PEAPEAX@Z 0000000180001d4c f i CashChanger.obj
 0001:00000d58       ?AddRef@?$CComObject@VCOPOSCashChanger@@@ATL@@WMI@EAAKXZ 0000000180001d58 f i CashChanger.obj
 0001:00000d64       ?Release@?$CComObject@VCOPOSCashChanger@@@ATL@@WMI@EAAKXZ 0000000180001d64 f i CashChanger.obj
 0001:00000d70       ?QueryInterface@?$CComObject@VCOPOSCashChanger@@@ATL@@WNA@EAAJAEBU_GUID@@PEAPEAX@Z 0000000180001d70 f i CashChanger.obj
 0001:00000d7c       ?AddRef@?$CComObject@VCOPOSCashChanger@@@ATL@@WNA@EAAKXZ 0000000180001d7c f i CashChanger.obj
 0001:00000d88       ?Release@?$CComObject@VCOPOSCashChanger@@@ATL@@WNA@EAAKXZ 0000000180001d88 f i CashChanger.obj
 0001:00000d94       ?QueryInterface@?$CComObject@VCOPOSCashChanger@@@ATL@@WNI@EAAJAEBU_GUID@@PEAPEAX@Z 0000000180001d94 f i CashChanger.obj
 0001:00000da0       ??_ECComClassFactory@ATL@@UEAAPEAXI@Z 0000000180001da0 f i CashChanger.obj
 0001:00000da0       ??_GCComClassFactory@ATL@@UEAAPEAXI@Z 0000000180001da0 f i CashChanger.obj
 0001:00000df0       ?AddRef@?$CComObject@VCOPOSCashChanger@@@ATL@@WNI@EAAKXZ 0000000180001df0 f i CashChanger.obj
 0001:00000dfc       ?Release@?$CComObject@VCOPOSCashChanger@@@ATL@@WNI@EAAKXZ 0000000180001dfc f i CashChanger.obj
 0001:00000e08       ?QueryInterface@?$CComObject@VCOPOSCashChanger@@@ATL@@WOA@EAAJAEBU_GUID@@PEAPEAX@Z 0000000180001e08 f i CashChanger.obj
 0001:00000e14       ?AddRef@?$CComObject@VCOPOSCashChanger@@@ATL@@WOA@EAAKXZ 0000000180001e14 f i CashChanger.obj
 0001:00000e20       ?Release@?$CComObject@VCOPOSCashChanger@@@ATL@@WOA@EAAKXZ 0000000180001e20 f i CashChanger.obj
 0001:00000e2c       ?QueryInterface@?$CComObject@VCOPOSCashChanger@@@ATL@@WOI@EAAJAEBU_GUID@@PEAPEAX@Z 0000000180001e2c f i CashChanger.obj
 0001:00000e38       ?AddRef@?$CComObject@VCOPOSCashChanger@@@ATL@@WOI@EAAKXZ 0000000180001e38 f i CashChanger.obj
 0001:00000e44       ?Release@?$CComObject@VCOPOSCashChanger@@@ATL@@WOI@EAAKXZ 0000000180001e44 f i CashChanger.obj
 0001:00000e50       ?QueryInterface@?$CComObject@VCOPOSCashChanger@@@ATL@@WPA@EAAJAEBU_GUID@@PEAPEAX@Z 0000000180001e50 f i CashChanger.obj
 0001:00000e5c       ?AddRef@?$CComObject@VCOPOSCashChanger@@@ATL@@WPA@EAAKXZ 0000000180001e5c f i CashChanger.obj
 0001:00000e68       ?Release@?$CComObject@VCOPOSCashChanger@@@ATL@@WPA@EAAKXZ 0000000180001e68 f i CashChanger.obj
 0001:00000e74       ?QueryInterface@?$CComObject@VCOPOSCashChanger@@@ATL@@WPI@EAAJAEBU_GUID@@PEAPEAX@Z 0000000180001e74 f i CashChanger.obj
 0001:00000e80       ?AddRef@?$CComObject@VCOPOSCashChanger@@@ATL@@WPI@EAAKXZ 0000000180001e80 f i CashChanger.obj
 0001:00000e8c       ?Release@?$CComObject@VCOPOSCashChanger@@@ATL@@WPI@EAAKXZ 0000000180001e8c f i CashChanger.obj
 0001:00000e98       ?QueryInterface@?$CComObject@VCOPOSCashChanger@@@ATL@@WBAA@EAAJAEBU_GUID@@PEAPEAX@Z 0000000180001e98 f i CashChanger.obj
 0001:00000ea4       ?AddRef@?$CComObject@VCOPOSCashChanger@@@ATL@@WBAA@EAAKXZ 0000000180001ea4 f i CashChanger.obj
 0001:00000eb0       ?Release@?$CComObject@VCOPOSCashChanger@@@ATL@@WBAA@EAAKXZ 0000000180001eb0 f i CashChanger.obj
 0001:00000ebc       ?QueryInterface@?$CComObject@VCOPOSCashChanger@@@ATL@@WBAI@EAAJAEBU_GUID@@PEAPEAX@Z 0000000180001ebc f i CashChanger.obj
 0001:00000ec8       ?AddRef@?$CComObject@VCOPOSCashChanger@@@ATL@@WBAI@EAAKXZ 0000000180001ec8 f i CashChanger.obj
 0001:00000ed4       ?Release@?$CComObject@VCOPOSCashChanger@@@ATL@@WBAI@EAAKXZ 0000000180001ed4 f i CashChanger.obj
 0001:00000ee0       ?QueryInterface@?$CComObject@VCOPOSCashChanger@@@ATL@@WBBA@EAAJAEBU_GUID@@PEAPEAX@Z 0000000180001ee0 f i CashChanger.obj
 0001:00000eec       ?AddRef@?$CComObject@VCOPOSCashChanger@@@ATL@@WBBA@EAAKXZ 0000000180001eec f i CashChanger.obj
 0001:00000ef8       ?Release@?$CComObject@VCOPOSCashChanger@@@ATL@@WBBA@EAAKXZ 0000000180001ef8 f i CashChanger.obj
 0001:00000f04       ?QueryInterface@?$CComObject@VCOPOSCashChanger@@@ATL@@WBBI@EAAJAEBU_GUID@@PEAPEAX@Z 0000000180001f04 f i CashChanger.obj
 0001:00000f10       ?AddRef@?$CComObject@VCOPOSCashChanger@@@ATL@@WBBI@EAAKXZ 0000000180001f10 f i CashChanger.obj
 0001:00000f1c       ?Release@?$CComObject@VCOPOSCashChanger@@@ATL@@WBBI@EAAKXZ 0000000180001f1c f i CashChanger.obj
 0001:00000f28       ?AddRef@?$CComObject@VCOPOSCashChanger@@@ATL@@WBCI@EAAKXZ 0000000180001f28 f i CashChanger.obj
 0001:00000f34       ?Release@?$CComObject@VCOPOSCashChanger@@@ATL@@WBCI@EAAKXZ 0000000180001f34 f i CashChanger.obj
 0001:00000f40       ?AddRef@?$CComObject@VCOPOSCashChanger@@@ATL@@WBEA@EAAKXZ 0000000180001f40 f i CashChanger.obj
 0001:00000f4c       ?Release@?$CComObject@VCOPOSCashChanger@@@ATL@@WBEA@EAAKXZ 0000000180001f4c f i CashChanger.obj
 0001:00000f58       ??_E?$CComContainedObject@VCOPOSCashChanger@@@ATL@@W7EAAPEAXI@Z 0000000180001f58 f i CashChanger.obj
 0001:00000f64       ??_E?$CComContainedObject@VCOPOSCashChanger@@@ATL@@WHA@EAAPEAXI@Z 0000000180001f64 f i CashChanger.obj
 0001:00000f70       ?QueryInterface@?$CComContainedObject@VCOPOSCashChanger@@@ATL@@WLI@EAAJAEBU_GUID@@PEAPEAX@Z 0000000180001f70 f i CashChanger.obj
 0001:00000f7c       ?AddRef@?$CComContainedObject@VCOPOSCashChanger@@@ATL@@WLI@EAAKXZ 0000000180001f7c f i CashChanger.obj
 0001:00000f88       ?Release@?$CComContainedObject@VCOPOSCashChanger@@@ATL@@WLI@EAAKXZ 0000000180001f88 f i CashChanger.obj
 0001:00000f94       ?QueryInterface@?$CComContainedObject@VCOPOSCashChanger@@@ATL@@WMA@EAAJAEBU_GUID@@PEAPEAX@Z 0000000180001f94 f i CashChanger.obj
 0001:00000fa0       ?AddRef@?$CComContainedObject@VCOPOSCashChanger@@@ATL@@WMA@EAAKXZ 0000000180001fa0 f i CashChanger.obj
 0001:00000fac       ?Release@?$CComContainedObject@VCOPOSCashChanger@@@ATL@@WMA@EAAKXZ 0000000180001fac f i CashChanger.obj
 0001:00000fb8       ?QueryInterface@?$CComContainedObject@VCOPOSCashChanger@@@ATL@@WMI@EAAJAEBU_GUID@@PEAPEAX@Z 0000000180001fb8 f i CashChanger.obj
 0001:00000fc4       ?AddRef@?$CComContainedObject@VCOPOSCashChanger@@@ATL@@WMI@EAAKXZ 0000000180001fc4 f i CashChanger.obj
 0001:00000fd0       ?Release@?$CComContainedObject@VCOPOSCashChanger@@@ATL@@WMI@EAAKXZ 0000000180001fd0 f i CashChanger.obj
 0001:00000fdc       ?QueryInterface@?$CComContainedObject@VCOPOSCashChanger@@@ATL@@WNA@EAAJAEBU_GUID@@PEAPEAX@Z 0000000180001fdc f i CashChanger.obj
 0001:00000fe8       ?AddRef@?$CComContainedObject@VCOPOSCashChanger@@@ATL@@WNA@EAAKXZ 0000000180001fe8 f i CashChanger.obj
 0001:00000ff4       ?Release@?$CComContainedObject@VCOPOSCashChanger@@@ATL@@WNA@EAAKXZ 0000000180001ff4 f i CashChanger.obj
 0001:00001000       ?QueryInterface@?$CComContainedObject@VCOPOSCashChanger@@@ATL@@WNI@EAAJAEBU_GUID@@PEAPEAX@Z 0000000180002000 f i CashChanger.obj
 0001:0000100c       ?AddRef@?$CComContainedObject@VCOPOSCashChanger@@@ATL@@WNI@EAAKXZ 000000018000200c f i CashChanger.obj
 0001:00001018       ?Release@?$CComContainedObject@VCOPOSCashChanger@@@ATL@@WNI@EAAKXZ 0000000180002018 f i CashChanger.obj
 0001:00001024       ?QueryInterface@?$CComContainedObject@VCOPOSCashChanger@@@ATL@@WOA@EAAJAEBU_GUID@@PEAPEAX@Z 0000000180002024 f i CashChanger.obj
 0001:00001030       ?AddRef@?$CComContainedObject@VCOPOSCashChanger@@@ATL@@WOA@EAAKXZ 0000000180002030 f i CashChanger.obj
 0001:0000103c       ?Release@?$CComContainedObject@VCOPOSCashChanger@@@ATL@@WOA@EAAKXZ 000000018000203c f i CashChanger.obj
 0001:00001048       ?QueryInterface@?$CComContainedObject@VCOPOSCashChanger@@@ATL@@WOI@EAAJAEBU_GUID@@PEAPEAX@Z 0000000180002048 f i CashChanger.obj
 0001:00001054       ?AddRef@?$CComContainedObject@VCOPOSCashChanger@@@ATL@@WOI@EAAKXZ 0000000180002054 f i CashChanger.obj
 0001:00001060       ?Release@?$CComContainedObject@VCOPOSCashChanger@@@ATL@@WOI@EAAKXZ 0000000180002060 f i CashChanger.obj
 0001:0000106c       ?QueryInterface@?$CComContainedObject@VCOPOSCashChanger@@@ATL@@WPA@EAAJAEBU_GUID@@PEAPEAX@Z 000000018000206c f i CashChanger.obj
 0001:00001078       ?AddRef@?$CComContainedObject@VCOPOSCashChanger@@@ATL@@WPA@EAAKXZ 0000000180002078 f i CashChanger.obj
 0001:00001084       ?Release@?$CComContainedObject@VCOPOSCashChanger@@@ATL@@WPA@EAAKXZ 0000000180002084 f i CashChanger.obj
 0001:00001090       ?QueryInterface@?$CComContainedObject@VCOPOSCashChanger@@@ATL@@WPI@EAAJAEBU_GUID@@PEAPEAX@Z 0000000180002090 f i CashChanger.obj
 0001:0000109c       ?AddRef@?$CComContainedObject@VCOPOSCashChanger@@@ATL@@WPI@EAAKXZ 000000018000209c f i CashChanger.obj
 0001:000010a8       ?Release@?$CComContainedObject@VCOPOSCashChanger@@@ATL@@WPI@EAAKXZ 00000001800020a8 f i CashChanger.obj
 0001:000010b4       ?QueryInterface@?$CComContainedObject@VCOPOSCashChanger@@@ATL@@WBAA@EAAJAEBU_GUID@@PEAPEAX@Z 00000001800020b4 f i CashChanger.obj
 0001:000010c0       ?AddRef@?$CComContainedObject@VCOPOSCashChanger@@@ATL@@WBAA@EAAKXZ 00000001800020c0 f i CashChanger.obj
 0001:000010cc       ?Release@?$CComContainedObject@VCOPOSCashChanger@@@ATL@@WBAA@EAAKXZ 00000001800020cc f i CashChanger.obj
 0001:000010d8       ?QueryInterface@?$CComContainedObject@VCOPOSCashChanger@@@ATL@@WBAI@EAAJAEBU_GUID@@PEAPEAX@Z 00000001800020d8 f i CashChanger.obj
 0001:000010e4       ?AddRef@?$CComContainedObject@VCOPOSCashChanger@@@ATL@@WBAI@EAAKXZ 00000001800020e4 f i CashChanger.obj
 0001:000010f0       ?Release@?$CComContainedObject@VCOPOSCashChanger@@@ATL@@WBAI@EAAKXZ 00000001800020f0 f i CashChanger.obj
 0001:000010fc       ?QueryInterface@?$CComContainedObject@VCOPOSCashChanger@@@ATL@@WBBA@EAAJAEBU_GUID@@PEAPEAX@Z 00000001800020fc f i CashChanger.obj
 0001:00001108       ?AddRef@?$CComContainedObject@VCOPOSCashChanger@@@ATL@@WBBA@EAAKXZ 0000000180002108 f i CashChanger.obj
 0001:00001114       ?Release@?$CComContainedObject@VCOPOSCashChanger@@@ATL@@WBBA@EAAKXZ 0000000180002114 f i CashChanger.obj
 0001:00001120       ?QueryInterface@?$CComContainedObject@VCOPOSCashChanger@@@ATL@@WBBI@EAAJAEBU_GUID@@PEAPEAX@Z 0000000180002120 f i CashChanger.obj
 0001:0000112c       ?AddRef@?$CComContainedObject@VCOPOSCashChanger@@@ATL@@WBBI@EAAKXZ 000000018000212c f i CashChanger.obj
 0001:00001138       ?Release@?$CComContainedObject@VCOPOSCashChanger@@@ATL@@WBBI@EAAKXZ 0000000180002138 f i CashChanger.obj
 0001:00001144       ?AddRef@?$CComContainedObject@VCOPOSCashChanger@@@ATL@@WBCI@EAAKXZ 0000000180002144 f i CashChanger.obj
 0001:00001150       ?Release@?$CComContainedObject@VCOPOSCashChanger@@@ATL@@WBCI@EAAKXZ 0000000180002150 f i CashChanger.obj
 0001:0000115c       ?AddRef@?$CComContainedObject@VCOPOSCashChanger@@@ATL@@WBEA@EAAKXZ 000000018000215c f i CashChanger.obj
 0001:00001168       ?Release@?$CComContainedObject@VCOPOSCashChanger@@@ATL@@WBEA@EAAKXZ 0000000180002168 f i CashChanger.obj
 0001:00001174       ?GetWindowProc@?$CWindowImplBaseT@VCWindow@ATL@@V?$CWinTraits@$0FGAAAAAA@$0A@@2@@ATL@@UEAAP6A_JPEAUHWND__@@I_K_J@ZXZ 0000000180002174 f i CashChanger.obj
 0001:0000117c       ?StartWindowProc@?$CWindowImplBaseT@VCWindow@ATL@@V?$CWinTraits@$0FGAAAAAA@$0A@@2@@ATL@@SA_JPEAUHWND__@@I_K_J@Z 000000018000217c f i CashChanger.obj
 0001:00001230       ?GetTypeInfoCount@?$IDispatchImpl@UIOPOSCashChanger@@$1?IID_IOPOSCashChanger@@3U_GUID@@B$1?LIBID_OposCashChanger_CCO@@3U3@B$00$0A@VCComTypeInfoHolder@ATL@@@ATL@@UEAAJPEAI@Z 0000000180002230 f i CashChanger.obj
 0001:00001244       ?GetTypeInfo@?$IDispatchImpl@UIOPOSCashChanger@@$1?IID_IOPOSCashChanger@@3U_GUID@@B$1?LIBID_OposCashChanger_CCO@@3U3@B$00$0A@VCComTypeInfoHolder@ATL@@@ATL@@UEAAJIKPEAPEAUITypeInfo@@@Z 0000000180002244 f i CashChanger.obj
 0001:000012a8       ?GetIDsOfNames@?$IDispatchImpl@UIOPOSCashChanger@@$1?IID_IOPOSCashChanger@@3U_GUID@@B$1?LIBID_OposCashChanger_CCO@@3U3@B$00$0A@VCComTypeInfoHolder@ATL@@@ATL@@UEAAJAEBU_GUID@@PEAPEA_WIKPEAJ@Z 00000001800022a8 f i CashChanger.obj
 0001:000012b4       ?Invoke@?$IDispatchImpl@UIOPOSCashChanger@@$1?IID_IOPOSCashChanger@@3U_GUID@@B$1?LIBID_OposCashChanger_CCO@@3U3@B$00$0A@VCComTypeInfoHolder@ATL@@@ATL@@UEAAJJAEBU_GUID@@KGPEAUtagDISPPARAMS@@PEAUtagVARIANT@@PEAUtagEXCEPINFO@@PEAI@Z 00000001800022b4 f i CashChanger.obj
 0001:00001344       ?CreateControlWindow@?$CComControl@VCOPOSCashChanger@@V?$CWindowImpl@VCOPOSCashChanger@@VCWindow@ATL@@V?$CWinTraits@$0FGAAAAAA@$0A@@3@@ATL@@@ATL@@UEAAPEAUHWND__@@PEAU3@AEAUtagRECT@@@Z 0000000180002344 f i CashChanger.obj
 0001:0000137c       ?ControlQueryInterface@?$CComControl@VCOPOSCashChanger@@V?$CWindowImpl@VCOPOSCashChanger@@VCWindow@ATL@@V?$CWinTraits@$0FGAAAAAA@$0A@@3@@ATL@@@ATL@@UEAAJAEBU_GUID@@PEAPEAX@Z 000000018000237c f i CashChanger.obj
 0001:00001390       ?GetClassID@?$IPersistStorageImpl@VCOPOSCashChanger@@@ATL@@UEAAJPEAU_GUID@@@Z 0000000180002390 f i CashChanger.obj
 0001:00001390       ?GetClassID@?$IPersistStreamInitImpl@VCOPOSCashChanger@@@ATL@@UEAAJPEAU_GUID@@@Z 0000000180002390 f i CashChanger.obj
 0001:00001390       ?GetUserClassID@?$IOleObjectImpl@VCOPOSCashChanger@@@ATL@@UEAAJPEAU_GUID@@@Z 0000000180002390 f i CashChanger.obj
 0001:000013ac       ?IsDirty@?$IPersistStreamInitImpl@VCOPOSCashChanger@@@ATL@@UEAAJXZ 00000001800023ac f i CashChanger.obj
 0001:000013c8       ?Load@?$IPersistStreamInitImpl@VCOPOSCashChanger@@@ATL@@UEAAJPEAUIStream@@@Z 00000001800023c8 f i CashChanger.obj
 0001:000013e0       ?Save@?$IPersistStreamInitImpl@VCOPOSCashChanger@@@ATL@@UEAAJPEAUIStream@@H@Z 00000001800023e0 f i CashChanger.obj
 0001:000013f8       ?GetSizeMax@?$IPersistStreamInitImpl@VCOPOSCashChanger@@@ATL@@UEAAJPEAT_ULARGE_INTEGER@@@Z 00000001800023f8 f i CashChanger.obj
 0001:0000161c       ?InitNew@?$IPersistStreamInitImpl@VCOPOSCashChanger@@@ATL@@UEAAJXZ 000000018000261c f i CashChanger.obj
 0001:00001634       ?GetColorSet@?$IViewObjectExImpl@VCOPOSCashChanger@@@ATL@@UEAAJKJPEAXPEAUtagDVTARGETDEVICE@@PEAUHDC__@@PEAPEAUtagLOGPALETTE@@@Z 0000000180002634 f i CashChanger.obj
 0001:00001634       ?GetRect@?$IViewObjectExImpl@VCOPOSCashChanger@@@ATL@@UEAAJKPEAU_RECTL@@@Z 0000000180002634 f i CashChanger.obj
 0001:00001634       ?SetData@?$IDataObjectImpl@VCOPOSCashChanger@@@ATL@@UEAAJPEAUtagFORMATETC@@PEAUtagSTGMEDIUM@@H@Z 0000000180002634 f i CashChanger.obj
 0001:00001634       ?GetDataHere@?$IDataObjectImpl@VCOPOSCashChanger@@@ATL@@UEAAJPEAUtagFORMATETC@@PEAUtagSTGMEDIUM@@@Z 0000000180002634 f i CashChanger.obj
 0001:00001634       ?GetMoniker@?$IOleObjectImpl@VCOPOSCashChanger@@@ATL@@UEAAJKKPEAPEAUIMoniker@@@Z 0000000180002634 f i CashChanger.obj
 0001:00001634       ?GetCanonicalFormatEtc@?$IDataObjectImpl@VCOPOSCashChanger@@@ATL@@UEAAJPEAUtagFORMATETC@@0@Z 0000000180002634 f i CashChanger.obj
 0001:00001634       ?ContextSensitiveHelp@?$IOleInPlaceObjectWindowlessImpl@VCOPOSCashChanger@@@ATL@@UEAAJH@Z 0000000180002634 f i CashChanger.obj
 0001:00001634       ?QueryGetData@?$IDataObjectImpl@VCOPOSCashChanger@@@ATL@@UEAAJPEAUtagFORMATETC@@@Z 0000000180002634 f i CashChanger.obj
 0001:00001634       ?SetMoniker@?$IOleObjectImpl@VCOPOSCashChanger@@@ATL@@UEAAJKPEAUIMoniker@@@Z 0000000180002634 f i CashChanger.obj
 0001:00001634       ?OnMnemonic@?$IOleControlImpl@VCOPOSCashChanger@@@ATL@@UEAAJPEAUtagMSG@@@Z 0000000180002634 f i CashChanger.obj
 0001:00001634       ?ContextSensitiveHelp@?$IOleInPlaceActiveObjectImpl@VCOPOSCashChanger@@@ATL@@UEAAJH@Z 0000000180002634 f i CashChanger.obj
 0001:00001634       ?SOErrorDummy@COPOSCashChanger@@MEAAJJJJPEAJ@Z 0000000180002634 f i CashChanger.obj
 0001:00001634       ?GetClipboardData@?$IOleObjectImpl@VCOPOSCashChanger@@@ATL@@UEAAJKPEAPEAUIDataObject@@@Z 0000000180002634 f i CashChanger.obj
 0001:00001634       ?Freeze@?$IViewObjectExImpl@VCOPOSCashChanger@@@ATL@@UEAAJKJPEAXPEAK@Z 0000000180002634 f i CashChanger.obj
 0001:00001634       ?SOOutputCompleteDummy@COPOSCashChanger@@MEAAJJ@Z 0000000180002634 f i CashChanger.obj
 0001:00001634       ?GetDropTarget@?$IOleInPlaceObjectWindowlessImpl@VCOPOSCashChanger@@@ATL@@UEAAJPEAPEAUIDropTarget@@@Z 0000000180002634 f i CashChanger.obj
 0001:00001634       ?InitFromData@?$IOleObjectImpl@VCOPOSCashChanger@@@ATL@@UEAAJPEAUIDataObject@@HK@Z 0000000180002634 f i CashChanger.obj
 0001:00001634       ?ReactivateAndUndo@?$IOleInPlaceObjectWindowlessImpl@VCOPOSCashChanger@@@ATL@@UEAAJXZ 0000000180002634 f i CashChanger.obj
 0001:00001634       ?EnumFormatEtc@?$IDataObjectImpl@VCOPOSCashChanger@@@ATL@@UEAAJKPEAPEAUIEnumFORMATETC@@@Z 0000000180002634 f i CashChanger.obj
 0001:00001634       ?Unfreeze@?$IViewObjectExImpl@VCOPOSCashChanger@@@ATL@@UEAAJK@Z 0000000180002634 f i CashChanger.obj
 0001:00001634       ?QueryInterface@CRegObject@ATL@@UEAAJAEBU_GUID@@PEAPEAX@Z 0000000180002634 f i CashChanger.obj
 0001:00001634       ?SetColorScheme@?$IOleObjectImpl@VCOPOSCashChanger@@@ATL@@UEAAJPEAUtagLOGPALETTE@@@Z 0000000180002634 f i CashChanger.obj
 0001:00001634       ?GetControlInfo@?$IOleControlImpl@VCOPOSCashChanger@@@ATL@@UEAAJPEAUtagCONTROLINFO@@@Z 0000000180002634 f i CashChanger.obj
 0001:0000163c       ?SetClientSite@?$IOleObjectImpl@VCOPOSCashChanger@@@ATL@@UEAAJPEAUIOleClientSite@@@Z 000000018000263c f i CashChanger.obj
 0001:00001658       ?GetClientSite@?$IOleObjectImpl@VCOPOSCashChanger@@@ATL@@UEAAJPEAPEAUIOleClientSite@@@Z 0000000180002658 f i CashChanger.obj
 0001:000016a0       ?Close@?$IOleObjectImpl@VCOPOSCashChanger@@@ATL@@UEAAJK@Z 00000001800026a0 f i CashChanger.obj
 0001:000016bc       ?DoVerb@?$IOleObjectImpl@VCOPOSCashChanger@@@ATL@@UEAAJJPEAUtagMSG@@PEAUIOleClientSite@@JPEAUHWND__@@PEBUtagRECT@@@Z 00000001800026bc f i CashChanger.obj
 0001:00001860       ?EnumVerbs@?$IOleObjectImpl@VCOPOSCashChanger@@@ATL@@UEAAJPEAPEAUIEnumOLEVERB@@@Z 0000000180002860 f i CashChanger.obj
 0001:0000187c       ?GetUserType@?$IOleObjectImpl@VCOPOSCashChanger@@@ATL@@UEAAJKPEAPEA_W@Z 000000018000287c f i CashChanger.obj
 0001:0000188c       ?SetExtent@?$IOleObjectImpl@VCOPOSCashChanger@@@ATL@@UEAAJKPEAUtagSIZE@@@Z 000000018000288c f i CashChanger.obj
 0001:000018a8       ?GetExtent@?$IOleObjectImpl@VCOPOSCashChanger@@@ATL@@UEAAJKPEAUtagSIZE@@@Z 00000001800028a8 f i CashChanger.obj
 0001:000018d8       ?Advise@?$IOleObjectImpl@VCOPOSCashChanger@@@ATL@@UEAAJPEAUIAdviseSink@@PEAK@Z 00000001800028d8 f i CashChanger.obj
 0001:00001934       ?Unadvise@?$IOleObjectImpl@VCOPOSCashChanger@@@ATL@@UEAAJK@Z 0000000180002934 f i CashChanger.obj
 0001:0000196c       ?EnumAdvise@?$IOleObjectImpl@VCOPOSCashChanger@@@ATL@@UEAAJPEAPEAUIEnumSTATDATA@@@Z 000000018000296c f i CashChanger.obj
 0001:000019b4       ?GetMiscStatus@?$IOleObjectImpl@VCOPOSCashChanger@@@ATL@@UEAAJKPEAK@Z 00000001800029b4 f i CashChanger.obj
 0001:000019c4       ?GetWindow@?$IOleInPlaceActiveObjectImpl@VCOPOSCashChanger@@@ATL@@UEAAJPEAPEAUHWND__@@@Z 00000001800029c4 f i CashChanger.obj
 0001:00001a18       ?TranslateAcceleratorW@?$IOleInPlaceActiveObjectImpl@VCOPOSCashChanger@@@ATL@@UEAAJPEAUtagMSG@@@Z 0000000180002a18 f i CashChanger.obj
 0001:00001b0c       ?OnDocWindowActivate@?$IOleInPlaceActiveObjectImpl@VCOPOSCashChanger@@@ATL@@UEAAJH@Z 0000000180002b0c f i CashChanger.obj
 0001:00001b38       ?Draw@?$IViewObjectExImpl@VCOPOSCashChanger@@@ATL@@UEAAJKJPEAXPEAUtagDVTARGETDEVICE@@PEAUHDC__@@2PEBU_RECTL@@3P6AH_K@Z4@Z 0000000180002b38 f i CashChanger.obj
 0001:00001b9c       ?SetAdvise@?$IViewObjectExImpl@VCOPOSCashChanger@@@ATL@@UEAAJKKPEAUIAdviseSink@@@Z 0000000180002b9c f i CashChanger.obj
 0001:00001bf0       ?GetAdvise@?$IViewObjectExImpl@VCOPOSCashChanger@@@ATL@@UEAAJPEAK0PEAPEAUIAdviseSink@@@Z 0000000180002bf0 f i CashChanger.obj
 0001:00001c2c       ?GetExtent@?$IViewObjectExImpl@VCOPOSCashChanger@@@ATL@@UEAAJKJPEAUtagDVTARGETDEVICE@@PEAUtagSIZE@@@Z 0000000180002c2c f i CashChanger.obj
 0001:00001c5c       ?GetViewStatus@?$IViewObjectExImpl@VCOPOSCashChanger@@@ATL@@UEAAJPEAK@Z 0000000180002c5c f i CashChanger.obj
 0001:00001c70       ?QueryHitPoint@?$IViewObjectExImpl@VCOPOSCashChanger@@@ATL@@UEAAJKPEBUtagRECT@@UtagPOINT@@JPEAK@Z 0000000180002c70 f i CashChanger.obj
 0001:00001cb4       ?QueryHitRect@?$IViewObjectExImpl@VCOPOSCashChanger@@@ATL@@UEAAJKPEBUtagRECT@@0JPEAK@Z 0000000180002cb4 f i CashChanger.obj
 0001:00001d1c       ?GetNaturalExtent@?$IViewObjectExImpl@VCOPOSCashChanger@@@ATL@@UEAAJKJPEAUtagDVTARGETDEVICE@@PEAUHDC__@@PEAUtagExtentInfo@@PEAUtagSIZE@@@Z 0000000180002d1c f i CashChanger.obj
 0001:00001d64       ?GetWindow@?$IOleInPlaceObjectWindowlessImpl@VCOPOSCashChanger@@@ATL@@UEAAJPEAPEAUHWND__@@@Z 0000000180002d64 f i CashChanger.obj
 0001:00001db8       ?InPlaceDeactivate@?$IOleInPlaceObjectWindowlessImpl@VCOPOSCashChanger@@@ATL@@UEAAJXZ 0000000180002db8 f i CashChanger.obj
 0001:00001dd4       ?UIDeactivate@?$IOleInPlaceObjectWindowlessImpl@VCOPOSCashChanger@@@ATL@@UEAAJXZ 0000000180002dd4 f i CashChanger.obj
 0001:00001df0       ?SetObjectRects@?$IOleInPlaceObjectWindowlessImpl@VCOPOSCashChanger@@@ATL@@UEAAJPEBUtagRECT@@0@Z 0000000180002df0 f i CashChanger.obj
 0001:00001e0c       ?OnWindowMessage@?$IOleInPlaceObjectWindowlessImpl@VCOPOSCashChanger@@@ATL@@UEAAJI_K_JPEA_J@Z 0000000180002e0c f i CashChanger.obj
 0001:00001ed4       ?EnumConnectionPoints@?$IConnectionPointContainerImpl@VCOPOSCashChanger@@@ATL@@UEAAJPEAPEAUIEnumConnectionPoints@@@Z 0000000180002ed4 f i CashChanger.obj
 0001:0000211c       ?FindConnectionPoint@?$IConnectionPointContainerImpl@VCOPOSCashChanger@@@ATL@@UEAAJAEBU_GUID@@PEAPEAUIConnectionPoint@@@Z 000000018000311c f i CashChanger.obj
 0001:000021ec       ?IsDirty@?$IPersistStorageImpl@VCOPOSCashChanger@@@ATL@@UEAAJXZ 00000001800031ec f i CashChanger.obj
 0001:0000222c       ?InitNew@?$IPersistStorageImpl@VCOPOSCashChanger@@@ATL@@UEAAJPEAUIStorage@@@Z 000000018000322c f i CashChanger.obj
 0001:0000226c       ?Load@?$IPersistStorageImpl@VCOPOSCashChanger@@@ATL@@UEAAJPEAUIStorage@@@Z 000000018000326c f i CashChanger.obj
 0001:0000230c       ?Save@?$IPersistStorageImpl@VCOPOSCashChanger@@@ATL@@UEAAJPEAUIStorage@@H@Z 000000018000330c f i CashChanger.obj
 0001:000023bc       ?GetPages@?$ISpecifyPropertyPagesImpl@VCOPOSCashChanger@@@ATL@@UEAAJPEAUtagCAUUID@@@Z 00000001800033bc f i CashChanger.obj
 0001:000023c8       ?QuickActivate@?$IQuickActivateImpl@VCOPOSCashChanger@@@ATL@@UEAAJPEAUtagQACONTAINER@@PEAUtagQACONTROL@@@Z 00000001800033c8 f i CashChanger.obj
 0001:000023e4       ?SetContentExtent@?$IQuickActivateImpl@VCOPOSCashChanger@@@ATL@@UEAAJPEAUtagSIZE@@@Z 00000001800033e4 f i CashChanger.obj
 0001:00002418       ?GetContentExtent@?$IQuickActivateImpl@VCOPOSCashChanger@@@ATL@@UEAAJPEAUtagSIZE@@@Z 0000000180003418 f i CashChanger.obj
 0001:00002450       ?GetData@?$IDataObjectImpl@VCOPOSCashChanger@@@ATL@@UEAAJPEAUtagFORMATETC@@PEAUtagSTGMEDIUM@@@Z 0000000180003450 f i CashChanger.obj
 0001:0000246c       ?DAdvise@?$IDataObjectImpl@VCOPOSCashChanger@@@ATL@@UEAAJPEAUtagFORMATETC@@KPEAUIAdviseSink@@PEAK@Z 000000018000346c f i CashChanger.obj
 0001:000024f4       ?DUnadvise@?$IDataObjectImpl@VCOPOSCashChanger@@@ATL@@UEAAJK@Z 00000001800034f4 f i CashChanger.obj
 0001:00002520       ?EnumDAdvise@?$IDataObjectImpl@VCOPOSCashChanger@@@ATL@@UEAAJPEAPEAUIEnumSTATDATA@@@Z 0000000180003520 f i CashChanger.obj
 0001:0000255c       ?GetClassInfoW@?$IProvideClassInfo2Impl@$1?CLSID_OPOSCashChanger@@3U_GUID@@B$1?DIID__IOPOSCashChangerEvents@@3U2@B$1?LIBID_OposCashChanger_CCO@@3U2@B$00$0A@VCComTypeInfoHolder@ATL@@@ATL@@UEAAJPEAPEAUITypeInfo@@@Z 000000018000355c f i CashChanger.obj
 0001:000025b4       ?GetGUID@?$IProvideClassInfo2Impl@$1?CLSID_OPOSCashChanger@@3U_GUID@@B$1?DIID__IOPOSCashChangerEvents@@3U2@B$1?LIBID_OposCashChanger_CCO@@3U2@B$00$0A@VCComTypeInfoHolder@ATL@@@ATL@@UEAAJKPEAU_GUID@@@Z 00000001800035b4 f i CashChanger.obj
 0001:000025e8       _get_startup_argv_mode     00000001800035e8 f i LIBCMT:argv_mode.obj
 0001:000025e8       ?FAccessAllowed@?$IObjectSafetyImpl@VCOPOSCashChanger@@$02@ATL@@MEAAHXZ 00000001800035e8 f i CashChanger.obj
 0001:000025e8       ?AddRef@CRegObject@ATL@@UEAAKXZ 00000001800035e8 f i CashChanger.obj
 0001:000025f0       ?GetInterfaceSafetyOptions@?$IObjectSafetyImpl@VCOPOSCashChanger@@$02@ATL@@UEAAJAEBU_GUID@@PEAK1@Z 00000001800035f0 f i CashChanger.obj
 0001:00002684       ?SetInterfaceSafetyOptions@?$IObjectSafetyImpl@VCOPOSCashChanger@@$02@ATL@@UEAAJAEBU_GUID@@KK@Z 0000000180003684 f i CashChanger.obj
 0001:00002728       ?_LocCPQueryInterface@?$IConnectionPointImpl@VCOPOSCashChanger@@$1?DIID__IOPOSCashChangerEvents@@3U_GUID@@BVCComDynamicUnkArray@ATL@@@ATL@@UEAAJAEBU_GUID@@PEAPEAX@Z 0000000180003728 f i CashChanger.obj
 0001:00002728       ?_LocCPQueryInterface@?$IConnectionPointImpl@VCOPOSCashChanger@@$1?IID_IPropertyNotifySink@@3U_GUID@@BVCComDynamicUnkArray@ATL@@@ATL@@UEAAJAEBU_GUID@@PEAPEAX@Z 0000000180003728 f i CashChanger.obj
 0001:0000279c       ?GetConnectionInterface@?$IConnectionPointImpl@VCOPOSCashChanger@@$1?IID_IPropertyNotifySink@@3U_GUID@@BVCComDynamicUnkArray@ATL@@@ATL@@UEAAJPEAU_GUID@@@Z 000000018000379c f i CashChanger.obj
 0001:000027b8       ?GetConnectionPointContainer@?$IConnectionPointImpl@VCOPOSCashChanger@@$1?IID_IPropertyNotifySink@@3U_GUID@@BVCComDynamicUnkArray@ATL@@@ATL@@UEAAJPEAPEAUIConnectionPointContainer@@@Z 00000001800037b8 f i CashChanger.obj
 0001:000027d8       ?Advise@?$IConnectionPointImpl@VCOPOSCashChanger@@$1?DIID__IOPOSCashChangerEvents@@3U_GUID@@BVCComDynamicUnkArray@ATL@@@ATL@@UEAAJPEAUIUnknown@@PEAK@Z 00000001800037d8 f i CashChanger.obj
 0001:000027d8       ?Advise@?$IConnectionPointImpl@VCOPOSCashChanger@@$1?IID_IPropertyNotifySink@@3U_GUID@@BVCComDynamicUnkArray@ATL@@@ATL@@UEAAJPEAUIUnknown@@PEAK@Z 00000001800037d8 f i CashChanger.obj
 0001:00002894       ?Unadvise@?$IConnectionPointImpl@VCOPOSCashChanger@@$1?DIID__IOPOSCashChangerEvents@@3U_GUID@@BVCComDynamicUnkArray@ATL@@@ATL@@UEAAJK@Z 0000000180003894 f i CashChanger.obj
 0001:00002894       ?Unadvise@?$IConnectionPointImpl@VCOPOSCashChanger@@$1?IID_IPropertyNotifySink@@3U_GUID@@BVCComDynamicUnkArray@ATL@@@ATL@@UEAAJK@Z 0000000180003894 f i CashChanger.obj
 0001:000028fc       ?EnumConnections@?$IConnectionPointImpl@VCOPOSCashChanger@@$1?DIID__IOPOSCashChangerEvents@@3U_GUID@@BVCComDynamicUnkArray@ATL@@@ATL@@UEAAJPEAPEAUIEnumConnections@@@Z 00000001800038fc f i CashChanger.obj
 0001:000028fc       ?EnumConnections@?$IConnectionPointImpl@VCOPOSCashChanger@@$1?IID_IPropertyNotifySink@@3U_GUID@@BVCComDynamicUnkArray@ATL@@@ATL@@UEAAJPEAPEAUIEnumConnections@@@Z 00000001800038fc f i CashChanger.obj
 0001:00002a90       ?Lock@CAtlModule@ATL@@UEAAJXZ 0000000180003a90 f i CashChanger.obj
 0001:00002aa0       ?Unlock@CAtlModule@ATL@@UEAAJXZ 0000000180003aa0 f i CashChanger.obj
 0001:00002aac       ?GetLockCount@CAtlModule@ATL@@UEAAJXZ 0000000180003aac f i CashChanger.obj
 0001:00002ab0       ?GetConnectionInterface@?$IConnectionPointImpl@VCOPOSCashChanger@@$1?DIID__IOPOSCashChangerEvents@@3U_GUID@@BVCComDynamicUnkArray@ATL@@@ATL@@UEAAJPEAU_GUID@@@Z 0000000180003ab0 f i CashChanger.obj
 0001:00002acc       ?GetConnectionPointContainer@?$IConnectionPointImpl@VCOPOSCashChanger@@$1?DIID__IOPOSCashChangerEvents@@3U_GUID@@BVCComDynamicUnkArray@ATL@@@ATL@@UEAAJPEAPEAUIConnectionPointContainer@@@Z 0000000180003acc f i CashChanger.obj
 0001:00002aec       ?GetGITPtr@CAtlModule@ATL@@UEAAJPEAPEAUIGlobalInterfaceTable@@@Z 0000000180003aec f i CashChanger.obj
 0001:00002b5c       ?UpdateRegistry@COPOSCashChanger@@SAJH@Z 0000000180003b5c f i CashChanger.obj
 0001:00002b74       ?ProcessWindowMessage@COPOSCashChanger@@UEAAHPEAUHWND__@@I_K_JAEA_JK@Z 0000000180003b74 f i CashChanger.obj
 0001:00002c04       ?SOData@COPOSCashChanger@@MEAAJJ@Z 0000000180003c04 f i CashChanger.obj
 0001:00002c54       ?SODirectIO@COPOSCashChanger@@MEAAJJPEAJPEAPEA_W@Z 0000000180003c54 f i CashChanger.obj
 0001:00002ccc       ?SOStatusUpdate@COPOSCashChanger@@MEAAJJ@Z 0000000180003ccc f i CashChanger.obj
 0001:00002d1c       ?AddCommonRGSReplacements@?$CAtlModuleT@VCComModule@ATL@@@ATL@@UEAAJPEAUIRegistrarBase@@@Z 0000000180003d1c f i CashChanger.obj
 0001:00002d34       ?UpdateRegistryFromResourceD@CComModule@ATL@@UEAAJPEB_WHPEAU_ATL_REGMAP_ENTRY@2@@Z 0000000180003d34 f i CashChanger.obj
 0001:00002d34       ?UpdateRegistryFromResourceD@CComModule@ATL@@UEAAJIHPEAU_ATL_REGMAP_ENTRY@2@@Z 0000000180003d34 f i CashChanger.obj
 0001:00002d3c       ?UpdateRegistryFromResource@CComModule@ATL@@UEAAJPEB_WHPEAU_ATL_REGMAP_ENTRY@2@@Z 0000000180003d3c f i CashChanger.obj
 0001:00002d44       ?UpdateRegistryFromResource@CComModule@ATL@@UEAAJIHPEAU_ATL_REGMAP_ENTRY@2@@Z 0000000180003d44 f i CashChanger.obj
 0001:00002d4c       ??_GCComModule@ATL@@UEAAPEAXI@Z 0000000180003d4c f i CashChanger.obj
 0001:00002d4c       ??_ECComModule@ATL@@UEAAPEAXI@Z 0000000180003d4c f i CashChanger.obj
 0001:00002d8c       ?CreateInstance@?$CComCreator@V?$CComObjectCached@VCComClassFactory@ATL@@@ATL@@@ATL@@SAJPEAXAEBU_GUID@@PEAPEAX@Z 0000000180003d8c f i CashChanger.obj
 0001:00002eb0       ?CreateInstance@?$CComCreator2@V?$CComCreator@V?$CComObject@VCOPOSCashChanger@@@ATL@@@ATL@@V?$CComCreator@V?$CComAggObject@VCOPOSCashChanger@@@ATL@@@2@@ATL@@SAJPEAXAEBU_GUID@@PEAPEAX@Z 0000000180003eb0 f i CashChanger.obj
 0001:00002ec0       ?AddRef@?$CComObjectCached@VCComClassFactory@ATL@@@ATL@@UEAAKXZ 0000000180003ec0 f i CashChanger.obj
 0001:00002eec       ?Release@?$CComObjectCached@VCComClassFactory@ATL@@@ATL@@UEAAKXZ 0000000180003eec f i CashChanger.obj
 0001:00002f2c       ?QueryInterface@?$CComObjectCached@VCComClassFactory@ATL@@@ATL@@UEAAJAEBU_GUID@@PEAPEAX@Z 0000000180003f2c f i CashChanger.obj
 0001:00002f40       ??_G?$CComObjectCached@VCComClassFactory@ATL@@@ATL@@UEAAPEAXI@Z 0000000180003f40 f i CashChanger.obj
 0001:00002f40       ??_E?$CComObjectCached@VCComClassFactory@ATL@@@ATL@@UEAAPEAXI@Z 0000000180003f40 f i CashChanger.obj
 0001:00002f98       ?Next@?$CComEnumImpl@UIEnumConnectionPoints@@$1?_GUID_b196b285_bab4_101a_b69c_00aa00341d07@@3U__s_GUID@@BPEAUIConnectionPoint@@V?$_CopyInterface@UIConnectionPoint@@@ATL@@@ATL@@UEAAJKPEAPEAUIConnectionPoint@@PEAK@Z 0000000180003f98 f i CashChanger.obj
 0001:0000305c       ?Skip@?$CComEnumImpl@UIEnumConnectionPoints@@$1?_GUID_b196b285_bab4_101a_b69c_00aa00341d07@@3U__s_GUID@@BPEAUIConnectionPoint@@V?$_CopyInterface@UIConnectionPoint@@@ATL@@@ATL@@UEAAJK@Z 000000018000405c f i CashChanger.obj
 0001:00003088       ?Clone@?$CComEnumImpl@UIEnumConnectionPoints@@$1?_GUID_b196b285_bab4_101a_b69c_00aa00341d07@@3U__s_GUID@@BPEAUIConnectionPoint@@V?$_CopyInterface@UIConnectionPoint@@@ATL@@@ATL@@UEAAJPEAPEAUIEnumConnectionPoints@@@Z 0000000180004088 f i CashChanger.obj
 0001:000031b4       ?QueryInterface@?$CComObject@V?$CComEnum@UIEnumConnectionPoints@@$1?_GUID_b196b285_bab4_101a_b69c_00aa00341d07@@3U__s_GUID@@BPEAUIConnectionPoint@@V?$_CopyInterface@UIConnectionPoint@@@ATL@@VCComSingleThreadModel@6@@ATL@@@ATL@@UEAAJAEBU_GUID@@PEAPEAX@Z 00000001800041b4 f i CashChanger.obj
 0001:000031c8       ??_E?$CComObject@V?$CComEnum@UIEnumConnectionPoints@@$1?_GUID_b196b285_bab4_101a_b69c_00aa00341d07@@3U__s_GUID@@BPEAUIConnectionPoint@@V?$_CopyInterface@UIConnectionPoint@@@ATL@@VCComSingleThreadModel@6@@ATL@@@ATL@@UEAAPEAXI@Z 00000001800041c8 f i CashChanger.obj
 0001:000031c8       ??_G?$CComObject@V?$CComEnum@UIEnumConnectionPoints@@$1?_GUID_b196b285_bab4_101a_b69c_00aa00341d07@@3U__s_GUID@@BPEAUIConnectionPoint@@V?$_CopyInterface@UIConnectionPoint@@@ATL@@VCComSingleThreadModel@6@@ATL@@@ATL@@UEAAPEAXI@Z 00000001800041c8 f i CashChanger.obj
 0001:00003220       ?AddReplacement@CRegObject@ATL@@UEAAJPEB_W0@Z 0000000180004220 f i CashChanger.obj
 0001:00003250       ?ClearReplacements@CRegObject@ATL@@UEAAJXZ 0000000180004250 f i CashChanger.obj
 0001:0000325c       ??_ECRegObject@ATL@@UEAAPEAXI@Z 000000018000425c f i CashChanger.obj
 0001:0000325c       ??_GCRegObject@ATL@@UEAAPEAXI@Z 000000018000425c f i CashChanger.obj
 0001:000032dc       ?AddRef@?$CComAggObject@VCOPOSCashChanger@@@ATL@@UEAAKXZ 00000001800042dc f i CashChanger.obj
 0001:000032e8       ?Release@?$CComAggObject@VCOPOSCashChanger@@@ATL@@UEAAKXZ 00000001800042e8 f i CashChanger.obj
 0001:0000333c       ?QueryInterface@?$CComAggObject@VCOPOSCashChanger@@@ATL@@UEAAJAEBU_GUID@@PEAPEAX@Z 000000018000433c f i CashChanger.obj
 0001:0000339c       ?AddRef@?$CComContainedObject@VCOPOSCashChanger@@@ATL@@UEAAKXZ 000000018000439c f i CashChanger.obj
 0001:000033ac       ?Release@?$CComContainedObject@VCOPOSCashChanger@@@ATL@@UEAAKXZ 00000001800043ac f i CashChanger.obj
 0001:000033bc       ?QueryInterface@?$CComContainedObject@VCOPOSCashChanger@@@ATL@@UEAAJAEBU_GUID@@PEAPEAX@Z 00000001800043bc f i CashChanger.obj
 0001:000033cc       ??_G?$CComAggObject@VCOPOSCashChanger@@@ATL@@UEAAPEAXI@Z 00000001800043cc f i CashChanger.obj
 0001:000033cc       ??_E?$CComAggObject@VCOPOSCashChanger@@@ATL@@UEAAPEAXI@Z 00000001800043cc f i CashChanger.obj
 0001:00003424       ?AddRef@?$CComObject@VCOPOSCashChanger@@@ATL@@UEAAKXZ 0000000180004424 f i CashChanger.obj
 0001:00003434       ?Release@?$CComObject@VCOPOSCashChanger@@@ATL@@UEAAKXZ 0000000180004434 f i CashChanger.obj
 0001:0000348c       ?QueryInterface@?$CComObject@VCOPOSCashChanger@@@ATL@@UEAAJAEBU_GUID@@PEAPEAX@Z 000000018000448c f i CashChanger.obj
 0001:000034a0       ?OnDrawAdvanced@CComControlBase@ATL@@UEAAJAEAUATL_DRAWINFO@@@Z 00000001800044a0 f i CashChanger.obj
 0001:0000362c       ??$AtlModuleRegisterWndClassInfoT@VAtlModuleRegisterWndClassInfoParamW@ATL@@@ATL@@YAGPEAU_ATL_BASE_MODULE70@0@PEAU_ATL_WIN_MODULE70@0@PEAU_ATL_WNDCLASSINFOW@0@PEAP6A_JPEAUHWND__@@I_K_J@ZVAtlModuleRegisterWndClassInfoParamW@0@@Z 000000018000462c f i CashChanger.obj
 0001:0000382c       ??0?$CComContainedObject@VCOPOSCashChanger@@@ATL@@QEAA@PEAX@Z 000000018000482c f i CashChanger.obj
 0001:00003948       ??0?$CComObject@VCOPOSCashChanger@@@ATL@@QEAA@PEAX@Z 0000000180004948 f i CashChanger.obj
 0001:00003a60       ??0CAtlModule@ATL@@QEAA@XZ 0000000180004a60 f i CashChanger.obj
 0001:00003ad4       ??1?$CComEnumImpl@UIEnumConnectionPoints@@$1?_GUID_b196b285_bab4_101a_b69c_00aa00341d07@@3U__s_GUID@@BPEAUIConnectionPoint@@V?$_CopyInterface@UIConnectionPoint@@@ATL@@@ATL@@UEAA@XZ 0000000180004ad4 f i CashChanger.obj
 0001:00003b2c       ??1?$CComEnumImpl@UIEnumConnections@@$1?_GUID_b196b287_bab4_101a_b69c_00aa00341d07@@3U__s_GUID@@BUtagCONNECTDATA@@V?$_Copy@UtagCONNECTDATA@@@ATL@@@ATL@@UEAA@XZ 0000000180004b2c f i CashChanger.obj
 0001:00003b84       ??1?$CComObject@VCOPOSCashChanger@@@ATL@@UEAA@XZ 0000000180004b84 f i CashChanger.obj
 0001:00003ca4       ??_G?$CComContainedObject@VCOPOSCashChanger@@@ATL@@UEAAPEAXI@Z 0000000180004ca4 f i CashChanger.obj
 0001:00003ca4       ??_E?$CComContainedObject@VCOPOSCashChanger@@@ATL@@UEAAPEAXI@Z 0000000180004ca4 f i CashChanger.obj
 0001:00003cd8       ??_G?$CComObject@VCOPOSCashChanger@@@ATL@@UEAAPEAXI@Z 0000000180004cd8 f i CashChanger.obj
 0001:00003cd8       ??_E?$CComObject@VCOPOSCashChanger@@@ATL@@UEAAPEAXI@Z 0000000180004cd8 f i CashChanger.obj
 0001:00003d0c       ?Add@?$CSimpleArray@GV?$CSimpleArrayEqualHelper@G@ATL@@@ATL@@QEAAHAEBG@Z 0000000180004d0c f i CashChanger.obj
 0001:00003dac       ?Add@?$CSimpleMap@PEA_WPEA_WVCExpansionVectorEqualHelper@ATL@@@ATL@@QEAAHAEBQEA_W0@Z 0000000180004dac f i CashChanger.obj
 0001:00003e48       ?Add@CComDynamicUnkArray@ATL@@QEAAKPEAUIUnknown@@@Z 0000000180004e48 f i CashChanger.obj
 0001:00003f2c       ?Add@CExpansionVector@ATL@@QEAAHPEB_W0@Z 0000000180004f2c f i CashChanger.obj
 0001:00004060       ?AddTermFunc@CAtlModule@ATL@@QEAAJP6AX_K@Z0@Z 0000000180005060 f i CashChanger.obj
 0001:000040fc       ?AddValue@CRegParser@ATL@@IEAAJAEAVCRegKey@2@PEB_WPEA_W@Z 00000001800050fc f i CashChanger.obj
 0001:0000450c       ?AllocateHeap@?$CTempBuffer@E$0BAA@VCCRTAllocator@ATL@@@ATL@@AEAAX_K@Z 000000018000550c f i CashChanger.obj
 0001:0000450c       ?AllocateHeap@?$CTempBuffer@_W$0EAA@VCCRTAllocator@ATL@@@ATL@@AEAAX_K@Z 000000018000550c f i CashChanger.obj
 0001:0000450c       ?AllocateHeap@?$CTempBuffer@_W$0BAA@VCCRTAllocator@ATL@@@ATL@@AEAAX_K@Z 000000018000550c f i CashChanger.obj
 0001:00004538       ?Append@CParseBuffer@CRegParser@ATL@@QEAAHPEB_WH@Z 0000000180005538 f i CashChanger.obj
 0001:0000466c       ?AtlComModuleGetClassObject@ATL@@YAJPEAU_ATL_COM_MODULE70@1@AEBU_GUID@@1PEAPEAX@Z 000000018000566c f i CashChanger.obj
 0001:000047a8       ?AtlComModuleRegisterServer@ATL@@YAJPEAU_ATL_COM_MODULE70@1@HPEBU_GUID@@@Z 00000001800057a8 f i CashChanger.obj
 0001:00004868       ?AtlComModuleUnregisterServer@ATL@@YAJPEAU_ATL_COM_MODULE70@1@HPEBU_GUID@@@Z 0000000180005868 f i CashChanger.obj
 0001:00004924       ?AtlHiMetricToPixel@ATL@@YAXPEBUtagSIZE@@PEAU2@@Z 0000000180005924 f i CashChanger.obj
 0001:000049d4       ?AtlHresultFromLastError@ATL@@YAJXZ 00000001800059d4 f i CashChanger.obj
 0001:000049f4       ?AtlHresultFromWin32@ATL@@YAJK@Z 00000001800059f4 f i CashChanger.obj
 0001:00004a04       ?AtlInternalOleLoadFromStream@ATL@@YAJPEAUIStream@@AEBU_GUID@@PEAPEAXTClassesAllowedInStream@1@K@Z 0000000180005a04 f i CashChanger.obj
 0001:00004b54       ?AtlInternalQueryInterface@ATL@@YAJPEAXPEBU_ATL_INTMAP_ENTRY@1@AEBU_GUID@@PEAPEAX@Z 0000000180005b54 f i CashChanger.obj
 0001:00004c5c       ?AtlLoadTypeLib@ATL@@YAJPEAUHINSTANCE__@@PEB_WPEAPEA_WPEAPEAUITypeLib@@@Z 0000000180005c5c f i CashChanger.obj
 0001:00004eb8       ?AtlRegisterClassCategoriesHelper@ATL@@YAJAEBU_GUID@@PEBU_ATL_CATMAP_ENTRY@1@H@Z 0000000180005eb8 f i CashChanger.obj
 0001:0000533c       ?AtlRegisterTypeLib@ATL@@YAJPEAUHINSTANCE__@@PEB_W@Z 000000018000633c f i CashChanger.obj
 0001:00005538       ?AtlThrowImpl@ATL@@YAXJ@Z  0000000180006538 f i CashChanger.obj
 0001:0000555c       ?AtlUnRegisterTypeLib@ATL@@YAJPEAUHINSTANCE__@@PEB_W@Z 000000018000655c f i CashChanger.obj
 0001:00005624       ?AtlWinModuleExtractCreateWndData@ATL@@YAPEAXPEAU_ATL_WIN_MODULE70@1@@Z 0000000180006624 f i CashChanger.obj
 0001:000056b0       ?ChToByte@CRegParser@ATL@@KAE_W@Z 00000001800066b0 f i CashChanger.obj
 0001:0000573c       ?Cleanup@CComTypeInfoHolder@ATL@@SAX_K@Z 000000018000673c f i CashChanger.obj
 0001:0000577c       ?ClearReplacements@CExpansionVector@ATL@@QEAAJXZ 000000018000677c f i CashChanger.obj
 0001:00005818       ?CreateInstance@?$CComCreator@V?$CComAggObject@VCOPOSCashChanger@@@ATL@@@ATL@@SAJPEAXAEBU_GUID@@PEAPEAX@Z 0000000180006818 f i CashChanger.obj
 0001:000058fc       ?CreateInstance@?$CComCreator@V?$CComObject@VCOPOSCashChanger@@@ATL@@@ATL@@SAJPEAXAEBU_GUID@@PEAPEAX@Z 00000001800068fc f i CashChanger.obj
 0001:000059bc       ?CreateInstance@?$CComObject@V?$CComEnum@UIEnumConnectionPoints@@$1?_GUID_b196b285_bab4_101a_b69c_00aa00341d07@@3U__s_GUID@@BPEAUIConnectionPoint@@V?$_CopyInterface@UIConnectionPoint@@@ATL@@VCComSingleThreadModel@6@@ATL@@@ATL@@SAJPEAPEAV12@@Z 00000001800069bc f i CashChanger.obj
 0001:00005a4c       ?CreateInstance@?$CComObject@V?$CComEnum@UIEnumConnections@@$1?_GUID_b196b287_bab4_101a_b69c_00aa00341d07@@3U__s_GUID@@BUtagCONNECTDATA@@V?$_Copy@UtagCONNECTDATA@@@ATL@@VCComSingleThreadModel@6@@ATL@@@ATL@@SAJPEAPEAV12@@Z 0000000180006a4c f i CashChanger.obj
 0001:00005adc       ?DefaultReflectionHandler@?$CWindowImplRoot@VCWindow@ATL@@@ATL@@SAHPEAUHWND__@@I_K_JAEA_J@Z 0000000180006adc f i CashChanger.obj
 0001:00005b70       ?DeleteSubKey@CRegKey@ATL@@QEAAJPEB_W@Z 0000000180006b70 f i CashChanger.obj
 0001:00005c08       ?DoEvent@COPOSCashChanger@@IEAAXI_K_J@Z 0000000180006c08 f i CashChanger.obj
 0001:00005cbc       ?DoVerbPrimary@?$IOleObjectImpl@VCOPOSCashChanger@@@ATL@@QEAAJPEBUtagRECT@@PEAUHWND__@@@Z 0000000180006cbc f i CashChanger.obj
 0001:00005de8       ?DoVerbProperties@CComControlBase@ATL@@QEAAJPEBUtagRECT@@PEAUHWND__@@@Z 0000000180006de8 f i CashChanger.obj
 0001:00006010       ?FireTheEvent@?$CProxy_IOPOSEvents@VCOPOSCashChanger@@@@IEAAXPEAVOposVariant@@IAEAJPEB_WJ@Z 0000000180007010 f i CashChanger.obj
 0001:000060fc       ?FireViewChange@CComControlBase@ATL@@QEAAJXZ 00000001800070fc f i CashChanger.obj
 0001:00006160       ?Fire_DataEvent@?$CProxy_IOPOSEvents@VCOPOSCashChanger@@@@QEAAXJ@Z 0000000180007160 f i CashChanger.obj
 0001:0000624c       ?Fire_DirectIOEvent@?$CProxy_IOPOSEvents@VCOPOSCashChanger@@@@QEAAXJPEAJPEAPEA_W@Z 000000018000724c f i CashChanger.obj
 0001:000063ac       ?Fire_StatusUpdateEvent@?$CProxy_IOPOSEvents@VCOPOSCashChanger@@@@QEAAXJ@Z 00000001800073ac f i CashChanger.obj
 0001:00006498       ?FreeHeap@?$CTempBuffer@E$0BAA@VCCRTAllocator@ATL@@@ATL@@AEAAXXZ 0000000180007498 f i CashChanger.obj
 0001:00006498       ?FreeHeap@?$CTempBuffer@_W$0EAA@VCCRTAllocator@ATL@@@ATL@@AEAAXXZ 0000000180007498 f i CashChanger.obj
 0001:00006498       ?FreeHeap@?$CTempBuffer@_W$0BAA@VCCRTAllocator@ATL@@@ATL@@AEAAXXZ 0000000180007498 f i CashChanger.obj
 0001:000064a0       ?GetAmbientLocaleID@CComControlBase@ATL@@QEAAJAEAK@Z 00000001800074a0 f i CashChanger.obj
 0001:00006560       ?GetAmbientUserMode@CComControlBase@ATL@@QEAAJAEAH@Z 0000000180007560 f i CashChanger.obj
 0001:00006630       ?GetClassObject@CComModule@ATL@@QEAAJAEBU_GUID@@0PEAPEAX@Z 0000000180007630 f i CashChanger.obj
 0001:00006724       ?GetConnMap@COPOSCashChanger@@SAPEBU_ATL_CONNMAP_ENTRY@ATL@@PEAH@Z 0000000180007724 f i CashChanger.obj
 0001:000067ac       ?GetIDsOfNames@CComTypeInfoHolder@ATL@@QEAAJAEBU_GUID@@PEAPEA_WIKPEAJ@Z 00000001800077ac f i CashChanger.obj
 0001:0000691c       ?GetPagesHelper@?$ISpecifyPropertyPagesImpl@VCOPOSCashChanger@@@ATL@@IEAAJPEAUtagCAUUID@@PEBUATL_PROPMAP_ENTRY@2@@Z 000000018000791c f i CashChanger.obj
 0001:00006abc       ?GetSizeMax@CComVariant@ATL@@QEBAJPEAT_ULARGE_INTEGER@@@Z 0000000180007abc f i CashChanger.obj
 0001:00006cec       ?GetTI@CComTypeInfoHolder@ATL@@QEAAJK@Z 0000000180007cec f i CashChanger.obj
 0001:00006fd0       ?GetZoomInfo@CComControlBase@ATL@@QEAAXAEAUATL_DRAWINFO@@@Z 0000000180007fd0 f i CashChanger.obj
 0001:00007074       ?HKeyFromString@CRegParser@ATL@@KAPEAUHKEY__@@PEA_W@Z 0000000180008074 f i CashChanger.obj
 0001:000070d8       ?IDataObject_GetData@CComControlBase@ATL@@QEAAJPEAUtagFORMATETC@@PEAUtagSTGMEDIUM@@@Z 00000001800080d8 f i CashChanger.obj
 0001:000072cc       ?IOleInPlaceObject_InPlaceDeactivate@CComControlBase@ATL@@QEAAJXZ 00000001800082cc f i CashChanger.obj
 0001:0000736c       ?IOleInPlaceObject_SetObjectRects@CComControlBase@ATL@@QEAAJPEBUtagRECT@@0@Z 000000018000836c f i CashChanger.obj
 0001:0000745c       ?IOleInPlaceObject_UIDeactivate@CComControlBase@ATL@@QEAAJXZ 000000018000845c f i CashChanger.obj
 0001:00007568       ?IOleObject_Close@CComControlBase@ATL@@QEAAJK@Z 0000000180008568 f i CashChanger.obj
 0001:00007680       ?IOleObject_SetClientSite@CComControlBase@ATL@@QEAAJPEAUIOleClientSite@@@Z 0000000180008680 f i CashChanger.obj
 0001:000076f4       ?IOleObject_SetExtent@CComControlBase@ATL@@QEAAJKPEAUtagSIZE@@@Z 00000001800086f4 f i CashChanger.obj
 0001:0000778c       ?IPSI_GetIPersistStreamInit@?$IPersistStorageImpl@VCOPOSCashChanger@@@ATL@@AEAAPEAUIPersistStreamInit@@XZ 000000018000878c f i CashChanger.obj
 0001:00007874       ?IPersistStreamInit_Load@?$IPersistStreamInitImpl@VCOPOSCashChanger@@@ATL@@QEAAJPEAUIStream@@PEBUATL_PROPMAP_ENTRY@2@@Z 0000000180008874 f i CashChanger.obj
 0001:00007b9c       ?IPersistStreamInit_Save@?$IPersistStreamInitImpl@VCOPOSCashChanger@@@ATL@@QEAAJPEAUIStream@@HPEBUATL_PROPMAP_ENTRY@2@@Z 0000000180008b9c f i CashChanger.obj
 0001:00007e38       ?IQuickActivate_QuickActivate@CComControlBase@ATL@@QEAAJPEAUtagQACONTAINER@@PEAUtagQACONTROL@@@Z 0000000180008e38 f i CashChanger.obj
 0001:000080fc       ?IViewObject_Draw@CComControlBase@ATL@@QEAAJKJPEAXPEAUtagDVTARGETDEVICE@@PEAUHDC__@@2PEBU_RECTL@@3@Z 00000001800090fc f i CashChanger.obj
 0001:00008210       ?InPlaceActivate@CComControlBase@ATL@@QEAAJJPEBUtagRECT@@@Z 0000000180009210 f i CashChanger.obj
 0001:00008540       ?Init@?$CComEnumImpl@UIEnumConnectionPoints@@$1?_GUID_b196b285_bab4_101a_b69c_00aa00341d07@@3U__s_GUID@@BPEAUIConnectionPoint@@V?$_CopyInterface@UIConnectionPoint@@@ATL@@@ATL@@QEAAJPEAPEAUIConnectionPoint@@0PEAUIUnknown@@W4CComEnumFlags@2@@Z 0000000180009540 f i CashChanger.obj
 0001:0000865c       ?Init@?$CComEnumImpl@UIEnumConnections@@$1?_GUID_b196b287_bab4_101a_b69c_00aa00341d07@@3U__s_GUID@@BUtagCONNECTDATA@@V?$_Copy@UtagCONNECTDATA@@@ATL@@@ATL@@QEAAJPEAUtagCONNECTDATA@@0PEAUIUnknown@@W4CComEnumFlags@2@@Z 000000018000965c f i CashChanger.obj
 0001:0000877c       ?IsEqualObject@?$CComPtrBase@UIOleClientSite@@@ATL@@QEAA_NPEAUIUnknown@@@Z 000000018000977c f i CashChanger.obj
 0001:00008808       ?LoadNameCache@CComTypeInfoHolder@ATL@@QEAAJPEAUITypeInfo@@@Z 0000000180009808 f i CashChanger.obj
 0001:00008998       ?Lookup@?$CSimpleMap@PEA_WPEA_WVCExpansionVectorEqualHelper@ATL@@@ATL@@QEBAPEA_WAEBQEA_W@Z 0000000180009998 f i CashChanger.obj
 0001:00008a20       ?NextToken@CRegParser@ATL@@IEAAJPEA_W@Z 0000000180009a20 f i CashChanger.obj
 0001:00008bbc       ?OnKillFocus@CComControlBase@ATL@@QEAA_JI_K_JAEAH@Z 0000000180009bbc f i CashChanger.obj
 0001:00008c58       ?OnMouseActivate@CComControlBase@ATL@@QEAA_JI_K_JAEAH@Z 0000000180009c58 f i CashChanger.obj
 0001:00008cf8       ?OnPaint@CComControlBase@ATL@@QEAA_JI_K_JAEAH@Z 0000000180009cf8 f i CashChanger.obj
 0001:00008de4       ?OnSetFocus@CComControlBase@ATL@@QEAA_JI_K_JAEAH@Z 0000000180009de4 f i CashChanger.obj
 0001:00008eec       ?PreProcessBuffer@CRegParser@ATL@@QEAAJPEA_WPEAPEA_W@Z 0000000180009eec f i CashChanger.obj
 0001:00009274       ?ProcessWindowMessage@?$CComControl@VCOPOSCashChanger@@V?$CWindowImpl@VCOPOSCashChanger@@VCWindow@ATL@@V?$CWinTraits@$0FGAAAAAA@$0A@@3@@ATL@@@ATL@@UEAAHPEAUHWND__@@I_K_JAEA_JK@Z 000000018000a274 f i CashChanger.obj
 0001:00009360       ?ReadFromStream@CComBSTR@ATL@@QEAAJPEAUIStream@@@Z 000000018000a360 f i CashChanger.obj
 0001:000094b0       ?ReadFromStream@CComVariant@ATL@@QEAAJPEAUIStream@@GTClassesAllowedInStream@2@K@Z 000000018000a4b0 f i CashChanger.obj
 0001:000096f4       ?RecurseDeleteKey@CRegKey@ATL@@QEAAJPEB_W@Z 000000018000a6f4 f i CashChanger.obj
 0001:0000984c       ?RegCreateKeyExW@CAtlTransactionManager@ATL@@QEAAJPEAUHKEY__@@PEB_WKPEA_WKKQEAU_SECURITY_ATTRIBUTES@@PEAPEAU3@PEAK@Z 000000018000a84c f i CashChanger.obj
 0001:00009980       ?RegDeleteKeyW@CAtlTransactionManager@ATL@@QEAAJPEAUHKEY__@@PEB_W@Z 000000018000a980 f i CashChanger.obj
 0001:00009a0c       ?RegOpenKeyExW@CAtlTransactionManager@ATL@@QEAAJPEAUHKEY__@@PEB_WKKPEAPEAU3@@Z 000000018000aa0c f i CashChanger.obj
 0001:00009ac4       ?RegisterBuffer@CRegParser@ATL@@QEAAJPEA_WH@Z 000000018000aac4 f i CashChanger.obj
 0001:00009c30       ?RegisterFromResource@CRegObject@ATL@@IEAAJPEB_W00H@Z 000000018000ac30 f i CashChanger.obj
 0001:00009dec       ?RegisterServer@CComModule@ATL@@QEAAJHPEBU_GUID@@@Z 000000018000adec f i CashChanger.obj
 0001:00009ea8       ?RegisterSubkeys@CRegParser@ATL@@IEAAJPEA_WPEAUHKEY__@@HH@Z 000000018000aea8 f i CashChanger.obj
 0001:0000a728       ?SendOnDataChange@CComControlBase@ATL@@QEAAJK@Z 000000018000b728 f i CashChanger.obj
 0001:0000a798       ?SetControlFocus@CComControlBase@ATL@@QEAAHH@Z 000000018000b798 f i CashChanger.obj
 0001:0000a868       ?SkipAssignment@CRegParser@ATL@@IEAAJPEA_W@Z 000000018000b868 f i CashChanger.obj
 0001:0000a920       ?Term@CAtlModule@ATL@@QEAAXXZ 000000018000b920 f i CashChanger.obj
 0001:0000a9d8       ?Term@CComModule@ATL@@QEAAXXZ 000000018000b9d8 f i CashChanger.obj
 0001:0000aa54       ?UnregisterServer@CComModule@ATL@@QEAAJHPEBU_GUID@@@Z 000000018000ba54 f i CashChanger.obj
 0001:0000ab04       ?UpdateRegistryFromResource@CAtlModule@ATL@@QEAAJIHPEAU_ATL_REGMAP_ENTRY@2@@Z 000000018000bb04 f i CashChanger.obj
 0001:0000ae10       ?UpdateRegistryFromResource@CAtlModule@ATL@@QEAAJPEB_WHPEAU_ATL_REGMAP_ENTRY@2@@Z 000000018000be10 f i CashChanger.obj
 0001:0000b134       ?VTFromRegType@CRegParser@ATL@@KAHPEB_WAEAG@Z 000000018000c134 f i CashChanger.obj
 0001:0000b1d0       ?WindowProc@?$CWindowImplBaseT@VCWindow@ATL@@V?$CWinTraits@$0FGAAAAAA@$0A@@2@@ATL@@SA_JPEAUHWND__@@I_K_J@Z 000000018000c1d0 f i CashChanger.obj
 0001:0000b33c       ?WriteToStream@CComVariant@ATL@@QEAAJPEAUIStream@@@Z 000000018000c33c f i CashChanger.obj
 0001:0000b5a8       ?WriteToStream@CComVariant@ATL@@QEAAJPEAUIStream@@G@Z 000000018000c5a8 f i CashChanger.obj
 0001:0000b640       ?_AtlVerifyStackAvailable@_ATL_SAFE_ALLOCA_IMPL@ATL@@YA_N_K@Z 000000018000c640 f i CashChanger.obj
 0001:0000b6c4       ?atlCreate@?$CWindowImpl@VCOPOSCashChanger@@VCWindow@ATL@@V?$CWinTraits@$0FGAAAAAA@$0A@@3@@ATL@@QEAAPEAUHWND__@@PEAU3@V_U_RECT@2@PEB_WKKV_U_MENUorID@2@PEAX@Z 000000018000c6c4 f i CashChanger.obj
 0001:0000b780       ?atlCreate@?$CWindowImplBaseT@VCWindow@ATL@@V?$CWinTraits@$0FGAAAAAA@$0A@@2@@ATL@@QEAAPEAUHWND__@@PEAU3@V_U_RECT@2@PEB_WKKV_U_MENUorID@2@GPEAX@Z 000000018000c780 f i CashChanger.obj
 0001:0000b8f0       ?ocscpy_s@@YA_NPEA_W_KPEB_W@Z 000000018000c8f0 f i CashChanger.obj
 0001:0000b9a0       DllCanUnloadNow            000000018000c9a0 f   CashChanger.obj
 0001:0000b9ac       DllGetClassObject          000000018000c9ac f   CashChanger.obj
 0001:0000b9c4       DllMain                    000000018000c9c4 f   CashChanger.obj
 0001:0000ba6c       DllRegisterServer          000000018000ca6c f   CashChanger.obj
 0001:0000ba80       DllUnregisterServer        000000018000ca80 f   CashChanger.obj
 0001:0000ba94       __local_stdio_printf_options 000000018000ca94 f i CashChanger.obj
 0001:0000ba9c       swprintf_s                 000000018000ca9c f i CashChanger.obj
 0001:0000baf0       ??0COPOSCashChanger@@QEAA@XZ 000000018000caf0 f   CashChangerImpl.obj
 0001:0000bbb4       ??1?$IConnectionPointImpl@VCOPOSCashChanger@@$1?IID_IPropertyNotifySink@@3U_GUID@@BVCComDynamicUnkArray@ATL@@@ATL@@QEAA@XZ 000000018000cbb4 f i CashChangerImpl.obj
 0001:0000bbb4       ??1?$IConnectionPointImpl@VCOPOSCashChanger@@$1?DIID__IOPOSCashChangerEvents@@3U_GUID@@BVCComDynamicUnkArray@ATL@@@ATL@@QEAA@XZ 000000018000cbb4 f i CashChangerImpl.obj
 0001:0000bc10       ??1CComControlBase@ATL@@UEAA@XZ 000000018000cc10 f i CashChangerImpl.obj
 0001:0000bc8c       ??1COPOSCashChanger@@UEAA@XZ 000000018000cc8c f   CashChangerImpl.obj
 0001:0000bcf0       ?AdjustCashCounts@COPOSCashChanger@@UEAAJPEA_WPEAJ@Z 000000018000ccf0 f   CashChangerImpl.obj
 0001:0000bd78       ?BeginDeposit@COPOSCashChanger@@UEAAJPEAJ@Z 000000018000cd78 f   CashChangerImpl.obj
 0001:0000bda0       ?CheckHealth@COPOSCashChanger@@UEAAJJPEAJ@Z 000000018000cda0 f   CashChangerImpl.obj
 0001:0000be1c       ?ClaimDevice@COPOSCashChanger@@UEAAJJPEAJ@Z 000000018000ce1c f   CashChangerImpl.obj
 0001:0000bebc       ?ClearInput@COPOSCashChanger@@UEAAJPEAJ@Z 000000018000cebc f   CashChangerImpl.obj
 0001:0000bee4       ?Close@COPOSCashChanger@@UEAAJPEAJ@Z 000000018000cee4 f   CashChangerImpl.obj
 0001:0000bf9c       ?CompareFirmwareVersion@COPOSCashChanger@@UEAAJPEA_WPEAJ1@Z 000000018000cf9c f   CashChangerImpl.obj
 0001:0000c078       ?DirectIO@COPOSCashChanger@@UEAAJJPEAJPEAPEA_W0@Z 000000018000d078 f   CashChangerImpl.obj
 0001:0000c174       ?DispenseCash@COPOSCashChanger@@UEAAJPEA_WPEAJ@Z 000000018000d174 f   CashChangerImpl.obj
 0001:0000c1fc       ?DispenseChange@COPOSCashChanger@@UEAAJJPEAJ@Z 000000018000d1fc f   CashChangerImpl.obj
 0001:0000c278       ?DoInvoke@COPOSCashChanger@@IEAAJJPEAVOposVariant@@IHPEAJ_N@Z 000000018000d278 f   CashChangerImpl.obj
 0001:0000c3ac       ?EndDeposit@COPOSCashChanger@@UEAAJJPEAJ@Z 000000018000d3ac f   CashChangerImpl.obj
 0001:0000c428       ?EventInit@COPOSCashChanger@@IEAAJXZ 000000018000d428 f i CashChangerImpl.obj
 0001:0000c578       ?EventUninit@COPOSCashChanger@@IEAAXXZ 000000018000d578 f i CashChangerImpl.obj
 0001:0000c5dc       ?EventWindowProc@COPOSCashChanger@@IEAA_JI_K_J@Z 000000018000d5dc f i CashChangerImpl.obj
 0001:0000c6ec       ?FinalConstruct@COPOSCashChanger@@QEAAJXZ 000000018000d6ec f   CashChangerImpl.obj
 0001:0000c728       ?FixDeposit@COPOSCashChanger@@UEAAJPEAJ@Z 000000018000d728 f   CashChangerImpl.obj
 0001:0000c750       ?FreezeEvents@COPOSCashChanger@@MEAAJH@Z 000000018000d750 f   CashChangerImpl.obj
 0001:0000c7bc       ?GetOposProp@COPOSCashChanger@@IEAAJJPEAJJ@Z 000000018000d7bc f   CashChangerImpl.obj
 0001:0000c8d8       ?GetOposProp@COPOSCashChanger@@IEAAJJPEAPEA_WJ@Z 000000018000d8d8 f   CashChangerImpl.obj
 0001:0000ca04       ?OnDraw@COPOSCashChanger@@MEAAJAEAUATL_DRAWINFO@@@Z 000000018000da04 f   CashChangerImpl.obj
 0001:0000caf0       ?Open@COPOSCashChanger@@UEAAJPEA_WPEAJ@Z 000000018000daf0 f   CashChangerImpl.obj
 0001:0000d368       ?PauseDeposit@COPOSCashChanger@@UEAAJJPEAJ@Z 000000018000e368 f   CashChangerImpl.obj
 0001:0000d3e4       ?ReadCashCounts@COPOSCashChanger@@UEAAJPEAPEA_WPEAFPEAJ@Z 000000018000e3e4 f   CashChangerImpl.obj
 0001:0000d4c0       ?ReleaseDevice@COPOSCashChanger@@UEAAJPEAJ@Z 000000018000e4c0 f   CashChangerImpl.obj
 0001:0000d52c       ?ResetStatistics@COPOSCashChanger@@UEAAJPEA_WPEAJ@Z 000000018000e52c f   CashChangerImpl.obj
 0001:0000d5b4       ?RetrieveStatistics@COPOSCashChanger@@UEAAJPEAPEA_WPEAJ@Z 000000018000e5b4 f   CashChangerImpl.obj
 0001:0000d63c       ?SOProcessID@COPOSCashChanger@@UEAAJPEAJ@Z 000000018000e63c f   CashChangerImpl.obj
 0001:0000d658       ?SetCOFreezeEvents@COPOSCashChanger@@IEAAXF@Z 000000018000e658 f   CashChangerImpl.obj
 0001:0000d73c       ?SetOposProp@COPOSCashChanger@@IEAAJJJJ@Z 000000018000e73c f   CashChangerImpl.obj
 0001:0000d89c       ?SetOposProp@COPOSCashChanger@@IEAAJJPEA_WJ@Z 000000018000e89c f   CashChangerImpl.obj
 0001:0000d9f4       ?UpdateFirmware@COPOSCashChanger@@UEAAJPEA_WPEAJ@Z 000000018000e9f4 f   CashChangerImpl.obj
 0001:0000da7c       ?UpdateStatistics@COPOSCashChanger@@UEAAJPEA_WPEAJ@Z 000000018000ea7c f   CashChangerImpl.obj
 0001:0000db04       ?get_AsyncMode@COPOSCashChanger@@UEAAJPEAF@Z 000000018000eb04 f   CashChangerImpl.obj
 0001:0000db38       ?get_AsyncResultCode@COPOSCashChanger@@UEAAJPEAJ@Z 000000018000eb38 f   CashChangerImpl.obj
 0001:0000db4c       ?get_AsyncResultCodeExtended@COPOSCashChanger@@UEAAJPEAJ@Z 000000018000eb4c f   CashChangerImpl.obj
 0001:0000db60       ?get_BinaryConversion@COPOSCashChanger@@UEAAJPEAJ@Z 000000018000eb60 f   CashChangerImpl.obj
 0001:0000db74       ?get_CapCompareFirmwareVersion@COPOSCashChanger@@UEAAJPEAF@Z 000000018000eb74 f   CashChangerImpl.obj
 0001:0000dba8       ?get_CapDeposit@COPOSCashChanger@@UEAAJPEAF@Z 000000018000eba8 f   CashChangerImpl.obj
 0001:0000dbdc       ?get_CapDepositDataEvent@COPOSCashChanger@@UEAAJPEAF@Z 000000018000ebdc f   CashChangerImpl.obj
 0001:0000dc10       ?get_CapDiscrepancy@COPOSCashChanger@@UEAAJPEAF@Z 000000018000ec10 f   CashChangerImpl.obj
 0001:0000dc44       ?get_CapEmptySensor@COPOSCashChanger@@UEAAJPEAF@Z 000000018000ec44 f   CashChangerImpl.obj
 0001:0000dc78       ?get_CapFullSensor@COPOSCashChanger@@UEAAJPEAF@Z 000000018000ec78 f   CashChangerImpl.obj
 0001:0000dcac       ?get_CapJamSensor@COPOSCashChanger@@UEAAJPEAF@Z 000000018000ecac f   CashChangerImpl.obj
 0001:0000dce0       ?get_CapNearEmptySensor@COPOSCashChanger@@UEAAJPEAF@Z 000000018000ece0 f   CashChangerImpl.obj
 0001:0000dd14       ?get_CapNearFullSensor@COPOSCashChanger@@UEAAJPEAF@Z 000000018000ed14 f   CashChangerImpl.obj
 0001:0000dd48       ?get_CapPauseDeposit@COPOSCashChanger@@UEAAJPEAF@Z 000000018000ed48 f   CashChangerImpl.obj
 0001:0000dd7c       ?get_CapPowerReporting@COPOSCashChanger@@UEAAJPEAJ@Z 000000018000ed7c f   CashChangerImpl.obj
 0001:0000dd90       ?get_CapRealTimeData@COPOSCashChanger@@UEAAJPEAF@Z 000000018000ed90 f   CashChangerImpl.obj
 0001:0000ddc4       ?get_CapRepayDeposit@COPOSCashChanger@@UEAAJPEAF@Z 000000018000edc4 f   CashChangerImpl.obj
 0001:0000ddf8       ?get_CapStatisticsReporting@COPOSCashChanger@@UEAAJPEAF@Z 000000018000edf8 f   CashChangerImpl.obj
 0001:0000de2c       ?get_CapUpdateFirmware@COPOSCashChanger@@UEAAJPEAF@Z 000000018000ee2c f   CashChangerImpl.obj
 0001:0000de60       ?get_CapUpdateStatistics@COPOSCashChanger@@UEAAJPEAF@Z 000000018000ee60 f   CashChangerImpl.obj
 0001:0000de94       ?get_CheckHealthText@COPOSCashChanger@@UEAAJPEAPEA_W@Z 000000018000ee94 f   CashChangerImpl.obj
 0001:0000dea8       ?get_Claimed@COPOSCashChanger@@UEAAJPEAF@Z 000000018000eea8 f   CashChangerImpl.obj
 0001:0000dedc       ?get_ControlObjectDescription@COPOSCashChanger@@UEAAJPEAPEA_W@Z 000000018000eedc f   CashChangerImpl.obj
 0001:0000df40       ?get_ControlObjectVersion@COPOSCashChanger@@UEAAJPEAJ@Z 000000018000ef40 f   CashChangerImpl.obj
 0001:0000df4c       ?get_CurrencyCashList@COPOSCashChanger@@UEAAJPEAPEA_W@Z 000000018000ef4c f   CashChangerImpl.obj
 0001:0000df60       ?get_CurrencyCode@COPOSCashChanger@@UEAAJPEAPEA_W@Z 000000018000ef60 f   CashChangerImpl.obj
 0001:0000df74       ?get_CurrencyCodeList@COPOSCashChanger@@UEAAJPEAPEA_W@Z 000000018000ef74 f   CashChangerImpl.obj
 0001:0000df88       ?get_CurrentExit@COPOSCashChanger@@UEAAJPEAJ@Z 000000018000ef88 f   CashChangerImpl.obj
 0001:0000df9c       ?get_CurrentService@COPOSCashChanger@@UEAAJPEAJ@Z 000000018000ef9c f   CashChangerImpl.obj
 0001:0000dfb0       ?get_DataCount@COPOSCashChanger@@UEAAJPEAJ@Z 000000018000efb0 f   CashChangerImpl.obj
 0001:0000dfc4       ?get_DataEventEnabled@COPOSCashChanger@@UEAAJPEAF@Z 000000018000efc4 f   CashChangerImpl.obj
 0001:0000dff8       ?get_DepositAmount@COPOSCashChanger@@UEAAJPEAJ@Z 000000018000eff8 f   CashChangerImpl.obj
 0001:0000e00c       ?get_DepositCashList@COPOSCashChanger@@UEAAJPEAPEA_W@Z 000000018000f00c f   CashChangerImpl.obj
 0001:0000e020       ?get_DepositCodeList@COPOSCashChanger@@UEAAJPEAPEA_W@Z 000000018000f020 f   CashChangerImpl.obj
 0001:0000e034       ?get_DepositCounts@COPOSCashChanger@@UEAAJPEAPEA_W@Z 000000018000f034 f   CashChangerImpl.obj
 0001:0000e048       ?get_DepositStatus@COPOSCashChanger@@UEAAJPEAJ@Z 000000018000f048 f   CashChangerImpl.obj
 0001:0000e05c       ?get_DeviceDescription@COPOSCashChanger@@UEAAJPEAPEA_W@Z 000000018000f05c f   CashChangerImpl.obj
 0001:0000e070       ?get_DeviceEnabled@COPOSCashChanger@@UEAAJPEAF@Z 000000018000f070 f   CashChangerImpl.obj
 0001:0000e0a4       ?get_DeviceExits@COPOSCashChanger@@UEAAJPEAJ@Z 000000018000f0a4 f   CashChangerImpl.obj
 0001:0000e0b8       ?get_DeviceName@COPOSCashChanger@@UEAAJPEAPEA_W@Z 000000018000f0b8 f   CashChangerImpl.obj
 0001:0000e0cc       ?get_DeviceStatus@COPOSCashChanger@@UEAAJPEAJ@Z 000000018000f0cc f   CashChangerImpl.obj
 0001:0000e0e0       ?get_ExitCashList@COPOSCashChanger@@UEAAJPEAPEA_W@Z 000000018000f0e0 f   CashChangerImpl.obj
 0001:0000e0f4       ?get_FreezeEvents@COPOSCashChanger@@UEAAJPEAF@Z 000000018000f0f4 f   CashChangerImpl.obj
 0001:0000e124       ?get_FullStatus@COPOSCashChanger@@UEAAJPEAJ@Z 000000018000f124 f   CashChangerImpl.obj
 0001:0000e138       ?get_OpenResult@COPOSCashChanger@@UEAAJPEAJ@Z 000000018000f138 f   CashChangerImpl.obj
 0001:0000e144       ?get_PowerNotify@COPOSCashChanger@@UEAAJPEAJ@Z 000000018000f144 f   CashChangerImpl.obj
 0001:0000e158       ?get_PowerState@COPOSCashChanger@@UEAAJPEAJ@Z 000000018000f158 f   CashChangerImpl.obj
 0001:0000e16c       ?get_RealTimeDataEnabled@COPOSCashChanger@@UEAAJPEAF@Z 000000018000f16c f   CashChangerImpl.obj
 0001:0000e1a0       ?get_ResultCode@COPOSCashChanger@@UEAAJPEAJ@Z 000000018000f1a0 f   CashChangerImpl.obj
 0001:0000e1dc       ?get_ResultCodeExtended@COPOSCashChanger@@UEAAJPEAJ@Z 000000018000f1dc f   CashChangerImpl.obj
 0001:0000e1f0       ?get_ServiceCount@COPOSCashChanger@@UEAAJPEAJ@Z 000000018000f1f0 f   CashChangerImpl.obj
 0001:0000e204       ?get_ServiceIndex@COPOSCashChanger@@UEAAJPEAJ@Z 000000018000f204 f   CashChangerImpl.obj
 0001:0000e218       ?get_ServiceObjectDescription@COPOSCashChanger@@UEAAJPEAPEA_W@Z 000000018000f218 f   CashChangerImpl.obj
 0001:0000e22c       ?get_ServiceObjectVersion@COPOSCashChanger@@UEAAJPEAJ@Z 000000018000f22c f   CashChangerImpl.obj
 0001:0000e240       ?get_State@COPOSCashChanger@@UEAAJPEAJ@Z 000000018000f240 f   CashChangerImpl.obj
 0001:0000e26c       ?put_AsyncMode@COPOSCashChanger@@UEAAJF@Z 000000018000f26c f   CashChangerImpl.obj
 0001:0000e288       ?put_BinaryConversion@COPOSCashChanger@@UEAAJJ@Z 000000018000f288 f   CashChangerImpl.obj
 0001:0000e29c       ?put_CurrencyCode@COPOSCashChanger@@UEAAJPEA_W@Z 000000018000f29c f   CashChangerImpl.obj
 0001:0000e2b0       ?put_CurrentExit@COPOSCashChanger@@UEAAJJ@Z 000000018000f2b0 f   CashChangerImpl.obj
 0001:0000e2c4       ?put_CurrentService@COPOSCashChanger@@UEAAJJ@Z 000000018000f2c4 f   CashChangerImpl.obj
 0001:0000e2d8       ?put_DataEventEnabled@COPOSCashChanger@@UEAAJF@Z 000000018000f2d8 f   CashChangerImpl.obj
 0001:0000e2f0       ?put_DeviceEnabled@COPOSCashChanger@@UEAAJF@Z 000000018000f2f0 f   CashChangerImpl.obj
 0001:0000e308       ?put_FreezeEvents@COPOSCashChanger@@UEAAJF@Z 000000018000f308 f   CashChangerImpl.obj
 0001:0000e358       ?put_PowerNotify@COPOSCashChanger@@UEAAJJ@Z 000000018000f358 f   CashChangerImpl.obj
 0001:0000e36c       ?put_RealTimeDataEnabled@COPOSCashChanger@@UEAAJF@Z 000000018000f36c f   CashChangerImpl.obj
 0001:0000e388       ?s_EventWindowProc@COPOSCashChanger@@KA_JPEAUHWND__@@I_K_J@Z 000000018000f388 f i CashChangerImpl.obj
 0001:0000e404       ??_U@YAPEAX_K@Z            000000018000f404 f   LIBCMT:new_array.obj
 0001:0000e40c       ??3@YAXPEAX_K@Z            000000018000f40c f   LIBCMT:delete_scalar_size.obj
 0001:0000e40c       ??_V@YAXPEAX@Z             000000018000f40c f   LIBCMT:delete_array.obj
 0001:0000e414       ??_V@YAXPEAX_K@Z           000000018000f414 f   LIBCMT:delete_array_size.obj
 0001:0000e41c       __scrt_acquire_startup_lock 000000018000f41c f   LIBCMT:utility.obj
 0001:0000e458       __scrt_dllmain_after_initialize_c 000000018000f458 f   LIBCMT:utility.obj
 0001:0000e48c       __scrt_dllmain_before_initialize_c 000000018000f48c f   LIBCMT:utility.obj
 0001:0000e4a4       __scrt_dllmain_crt_thread_attach 000000018000f4a4 f   LIBCMT:utility.obj
 0001:0000e4cc       __scrt_dllmain_crt_thread_detach 000000018000f4cc f   LIBCMT:utility.obj
 0001:0000e4e4       __scrt_dllmain_exception_filter 000000018000f4e4 f   LIBCMT:utility.obj
 0001:0000e544       __scrt_dllmain_uninitialize_c 000000018000f544 f   LIBCMT:utility.obj
 0001:0000e574       __scrt_dllmain_uninitialize_critical 000000018000f574 f   LIBCMT:utility.obj
 0001:0000e588       __scrt_initialize_crt      000000018000f588 f   LIBCMT:utility.obj
 0001:0000e5d4       __scrt_initialize_onexit_tables 000000018000f5d4 f   LIBCMT:utility.obj
 0001:0000e660       __scrt_is_nonwritable_in_current_image 000000018000f660 f   LIBCMT:utility.obj
 0001:0000e6f8       __scrt_release_startup_lock 000000018000f6f8 f   LIBCMT:utility.obj
 0001:0000e71c       __scrt_uninitialize_crt    000000018000f71c f   LIBCMT:utility.obj
 0001:0000e748       _onexit                    000000018000f748 f   LIBCMT:utility.obj
 0001:0000e784       atexit                     000000018000f784 f   LIBCMT:utility.obj
 0001:0000e79c       ??3@YAXPEAX@Z              000000018000f79c f   LIBCMT:delete_scalar.obj
 0001:0000e89c       _Init_thread_footer        000000018000f89c f   LIBCMT:thread_safe_statics.obj
 0001:0000e8fc       _Init_thread_header        000000018000f8fc f   LIBCMT:thread_safe_statics.obj
 0001:0000e964       _Init_thread_notify        000000018000f964 f   LIBCMT:thread_safe_statics.obj
 0001:0000e9a8       _Init_thread_wait          000000018000f9a8 f   LIBCMT:thread_safe_statics.obj
 0001:0000ea0c       __raise_securityfailure    000000018000fa0c f   LIBCMT:gs_report.obj
 0001:0000ea40       __report_gsfailure         000000018000fa40 f   LIBCMT:gs_report.obj
 0001:0000eb14       __report_rangecheckfailure 000000018000fb14 f   LIBCMT:gs_report.obj
 0001:0000eb28       __report_securityfailure   000000018000fb28 f   LIBCMT:gs_report.obj
 0001:0000eca8       ??2@YAPEAX_KAEBUnothrow_t@std@@@Z 000000018000fca8 f   LIBCMT:new_scalar_nothrow.obj
 0001:0000ecbc       ??_U@YAPEAX_KAEBUnothrow_t@std@@@Z 000000018000fcbc f   LIBCMT:new_array_nothrow.obj
 0001:0000ecc4       __GSHandlerCheck           000000018000fcc4 f   LIBCMT:gshandler.obj
 0001:0000ece4       __GSHandlerCheckCommon     000000018000fce4 f   LIBCMT:gshandler.obj
 0001:0000ed40       __GSHandlerCheck_SEH       000000018000fd40 f   LIBCMT:gshandlerseh.obj
 0001:0000ede0       _alloca_probe              000000018000fde0 f   LIBCMT:chkstk.obj
 0001:0000ede0       __chkstk                   000000018000fde0 f   LIBCMT:chkstk.obj
 0001:0000ee40       __security_check_cookie    000000018000fe40 f   LIBCMT:amdsecgs.obj
 0001:0000f180       _DllMainCRTStartup         0000000180010180 f   LIBCMT:dll_dllmain.obj
 0001:0000f1c0       ??2@YAPEAX_K@Z             00000001800101c0 f   LIBCMT:new_scalar.obj
 0001:0000f1fc       __isa_available_init       00000001800101fc f   LIBCMT:cpu_disp.obj
 0001:0000f3a0       __scrt_is_ucrt_dll_in_use  00000001800103a0 f   LIBCMT:ucrt_detection.obj
 0001:0000f3ac       __crt_debugger_hook        00000001800103ac f   LIBCMT:utility_desktop.obj
 0001:0000f3b4       __scrt_fastfail            00000001800103b4 f   LIBCMT:utility_desktop.obj
 0001:0000f500       __security_init_cookie     0000000180010500 f   LIBCMT:gs_support.obj
 0001:0000f5ac       ?__scrt_initialize_type_info@@YAXXZ 00000001800105ac f   LIBCMT:tncleanup.obj
 0001:0000f5bc       ?__scrt_uninitialize_type_info@@YAXXZ 00000001800105bc f   LIBCMT:tncleanup.obj
 0001:0000f5c8       __local_stdio_scanf_options 00000001800105c8 f i LIBCMT:default_local_stdio_options.obj
 0001:0000f5d0       __scrt_initialize_default_local_stdio_options 00000001800105d0 f   LIBCMT:default_local_stdio_options.obj
 0001:0000f5ec       __scrt_get_dyn_tls_init_callback 00000001800105ec f   LIBCMT:dyn_tls_init.obj
 0001:0000f5f4       _RTC_Initialize            00000001800105f4 f   LIBCMT:initsect.obj
 0001:0000f630       _RTC_Terminate             0000000180010630 f   LIBCMT:initsect.obj
 0001:0000f66c       ??0bad_alloc@std@@QEAA@AEBV01@@Z 000000018001066c f i LIBCMT:throw_bad_alloc.obj
 0001:0000f6a8       ??0bad_alloc@std@@QEAA@XZ  00000001800106a8 f i LIBCMT:throw_bad_alloc.obj
 0001:0000f6c8       ??0bad_array_new_length@std@@QEAA@AEBV01@@Z 00000001800106c8 f i LIBCMT:throw_bad_alloc.obj
 0001:0000f704       ??0bad_array_new_length@std@@QEAA@XZ 0000000180010704 f i LIBCMT:throw_bad_alloc.obj
 0001:0000f724       ??0exception@std@@QEAA@AEBV01@@Z 0000000180010724 f i LIBCMT:throw_bad_alloc.obj
 0001:0000f758       ??1bad_exception@std@@UEAA@XZ 0000000180010758 f i libvcruntime:frame.obj
 0001:0000f758       ??1bad_array_new_length@std@@UEAA@XZ 0000000180010758 f i LIBCMT:throw_bad_alloc.obj
 0001:0000f758       ??1bad_alloc@std@@UEAA@XZ  0000000180010758 f i LIBCMT:throw_bad_alloc.obj
 0001:0000f76c       ??_Eexception@std@@UEAAPEAXI@Z 000000018001076c f i LIBCMT:throw_bad_alloc.obj
 0001:0000f76c       ??_Gbad_exception@std@@UEAAPEAXI@Z 000000018001076c f i libvcruntime:frame.obj
 0001:0000f76c       ??_Gbad_alloc@std@@UEAAPEAXI@Z 000000018001076c f i LIBCMT:throw_bad_alloc.obj
 0001:0000f76c       ??_Ebad_alloc@std@@UEAAPEAXI@Z 000000018001076c f i LIBCMT:throw_bad_alloc.obj
 0001:0000f76c       ??_Gexception@std@@UEAAPEAXI@Z 000000018001076c f i LIBCMT:throw_bad_alloc.obj
 0001:0000f76c       ??_Ebad_array_new_length@std@@UEAAPEAXI@Z 000000018001076c f i LIBCMT:throw_bad_alloc.obj
 0001:0000f76c       ??_Gbad_array_new_length@std@@UEAAPEAXI@Z 000000018001076c f i LIBCMT:throw_bad_alloc.obj
 0001:0000f76c       ??_Ebad_exception@std@@UEAAPEAXI@Z 000000018001076c f i libvcruntime:frame.obj
 0001:0000f7b0       ?__scrt_throw_std_bad_alloc@@YAXXZ 00000001800107b0 f   LIBCMT:throw_bad_alloc.obj
 0001:0000f7d0       ?__scrt_throw_std_bad_array_new_length@@YAXXZ 00000001800107d0 f   LIBCMT:throw_bad_alloc.obj
 0001:0000f7f0       ?what@exception@std@@UEBAPEBDXZ 00000001800107f0 f i LIBCMT:throw_bad_alloc.obj
 0001:0000f810       ??_Gtype_info@@UEAAPEAXI@Z 0000000180010810 f i LIBCMT:std_type_info_static.obj
 0001:0000f810       ??_Etype_info@@UEAAPEAXI@Z 0000000180010810 f i LIBCMT:std_type_info_static.obj
 0001:0000f83c       ??0CAtlBaseModule@ATL@@QEAA@XZ 000000018001083c f   atls:atlbase.obj
 0001:0000f8e4       ??1CAtlBaseModule@ATL@@QEAA@XZ 00000001800108e4 f   atls:atlbase.obj
 0001:0000fa18       ?__AllocStdCallThunk_cmn@@YAPEAXXZ 0000000180010a18 f   atls:atlthunk.obj
 0001:0000fb70       AtlThunk_AllocateData      0000000180010b70 f   atls:atlthunk.obj
 0001:0000fbec       AtlThunk_DataToCode        0000000180010bec f   atls:atlthunk.obj
 0001:0000fc40       AtlThunk_FreeData          0000000180010c40 f   atls:atlthunk.obj
 0001:0000fca0       AtlThunk_InitData          0000000180010ca0 f   atls:atlthunk.obj
 0001:0000fd48       _get_purecall_handler      0000000180010d48 f   libvcruntime:purevirt.obj
 0001:0000fd54       _purecall                  0000000180010d54 f   libvcruntime:purevirt.obj
 0001:0000fd70       wcsstr                     0000000180010d70 f   libvcruntime:wcsstr.obj
 0001:0000ffa0       memcmp                     0000000180010fa0 f   libvcruntime:memcmp.obj
 0001:00010080       memcpy_repmovs             0000000180011080 f   libvcruntime:memcpy.obj
 0001:000100a0       memcpy                     00000001800110a0 f   libvcruntime:memcpy.obj
 0001:000100a0       memmove                    00000001800110a0 f   libvcruntime:memcpy.obj
 0001:00010730       memset_repmovs             0000000180011730 f   libvcruntime:memset.obj
 0001:00010750       memset                     0000000180011750 f   libvcruntime:memset.obj
 0001:000108e0       __vcrt_initialize          00000001800118e0 f   libvcruntime:initialization.obj
 0001:00010908       __vcrt_thread_attach       0000000180011908 f   libvcruntime:initialization.obj
 0001:0001091c       __vcrt_thread_detach       000000018001191c f   libvcruntime:initialization.obj
 0001:00010930       __vcrt_uninitialize        0000000180011930 f   libvcruntime:initialization.obj
 0001:0001094c       __vcrt_uninitialize_critical 000000018001194c f   libvcruntime:initialization.obj
 0001:0001095c       __C_specific_handler       000000018001195c f   libvcruntime:riscchandler.obj
 0001:00010b54       ??$_CallSETranslator@V__FrameHandler3@@@@YAHPEAUEHExceptionRecord@@PEA_KPEAU_CONTEXT@@PEAU_xDISPATCHER_CONTEXT@@PEBU_s_FuncInfo@@K1H@Z 0000000180011b54 f i libvcruntime:risctrnsctrl.obj
 0001:00010ba8       ??$_CallSETranslator@V__FrameHandler4@@@@YAHPEAUEHExceptionRecord@@PEA_KPEAU_CONTEXT@@PEAU_xDISPATCHER_CONTEXT@@PEAUFuncInfo4@FH4@@K1H@Z 0000000180011ba8 f i libvcruntime:risctrnsctrl.obj
 0001:00010bfc       ?CatchTryBlock@__FrameHandler3@@SAPEBU_s_TryBlockMapEntry@@PEBU_s_FuncInfo@@H@Z 0000000180011bfc f   libvcruntime:risctrnsctrl.obj
 0001:00010c60       ?DecompFuncInfo@FH4@@YA_JPEAEAEAUFuncInfo4@1@_KH_N@Z 0000000180011c60 f i libvcruntime:risctrnsctrl.obj
 0001:00010d84       ?ExecutionInCatch@__FrameHandler3@@SA_NPEAU_xDISPATCHER_CONTEXT@@PEBU_s_FuncInfo@@@Z 0000000180011d84 f   libvcruntime:risctrnsctrl.obj
 0001:00010db0       ?ExecutionInCatch@__FrameHandler4@@SA_NPEAU_xDISPATCHER_CONTEXT@@PEAUFuncInfo4@FH4@@@Z 0000000180011db0 f   libvcruntime:risctrnsctrl.obj
 0001:00010db8       ?FrameUnwindToEmptyState@__FrameHandler3@@SAXPEA_KPEAU_xDISPATCHER_CONTEXT@@PEBU_s_FuncInfo@@@Z 0000000180011db8 f   libvcruntime:risctrnsctrl.obj
 0001:00010e1c       ?FrameUnwindToEmptyState@__FrameHandler4@@SAXPEA_KPEAU_xDISPATCHER_CONTEXT@@PEAUFuncInfo4@FH4@@@Z 0000000180011e1c f   libvcruntime:risctrnsctrl.obj
 0001:00010e50       ?GetEstablisherFrame@__FrameHandler3@@SAPEA_KPEA_KPEAU_xDISPATCHER_CONTEXT@@PEBU_s_FuncInfo@@0@Z 0000000180011e50 f   libvcruntime:risctrnsctrl.obj
 0001:00010f1c       ?GetEstablisherFrame@__FrameHandler4@@SAPEA_KPEA_KPEAU_xDISPATCHER_CONTEXT@@PEAUFuncInfo4@FH4@@0@Z 0000000180011f1c f   libvcruntime:risctrnsctrl.obj
 0001:00010f40       ?GetRangeOfTrysToCheck@__FrameHandler3@@SA?AU?$pair@Viterator@TryBlockMap@__FrameHandler3@@V123@@std@@AEAVTryBlockMap@1@HPEAU_xDISPATCHER_CONTEXT@@PEBU_s_FuncInfo@@H@Z 0000000180011f40 f   libvcruntime:risctrnsctrl.obj
 0001:00011080       ?GetRangeOfTrysToCheck@__FrameHandler4@@SA?AU?$pair@Viterator@TryBlockMap4@FH4@@V123@@std@@AEAVTryBlockMap4@FH4@@HPEAU_xDISPATCHER_CONTEXT@@PEAUFuncInfo4@5@H@Z 0000000180012080 f   libvcruntime:risctrnsctrl.obj
 0001:000111ec       ?UnwindNestedFrames@__FrameHandler3@@SAXPEA_KPEAUEHExceptionRecord@@PEAU_CONTEXT@@0PEAXPEBU_s_FuncInfo@@HHPEBU_s_HandlerType@@PEAU_xDISPATCHER_CONTEXT@@E@Z 00000001800121ec f   libvcruntime:risctrnsctrl.obj
 0001:000112f0       ?UnwindNestedFrames@__FrameHandler4@@SAXPEA_KPEAUEHExceptionRecord@@PEAU_CONTEXT@@0PEAXPEAUFuncInfo4@FH4@@HHPEAUHandlerType4@5@PEAU_xDISPATCHER_CONTEXT@@E@Z 00000001800122f0 f   libvcruntime:risctrnsctrl.obj
 0001:00011410       ?setBuffer@TryBlockMap4@FH4@@QEAAXViterator@12@@Z 0000000180012410 f i libvcruntime:risctrnsctrl.obj
 0001:000115d4       _CreateFrameInfo           00000001800125d4 f   libvcruntime:risctrnsctrl.obj
 0001:00011610       _FindAndUnlinkFrame        0000000180012610 f   libvcruntime:risctrnsctrl.obj
 0001:00011664       _GetImageBase              0000000180012664 f   libvcruntime:risctrnsctrl.obj
 0001:00011678       _GetThrowImageBase         0000000180012678 f   libvcruntime:risctrnsctrl.obj
 0001:0001168c       _SetImageBase              000000018001268c f   libvcruntime:risctrnsctrl.obj
 0001:000116a4       _SetThrowImageBase         00000001800126a4 f   libvcruntime:risctrnsctrl.obj
 0001:000116bc       __CxxFrameHandler3         00000001800126bc f   libvcruntime:risctrnsctrl.obj
 0001:00011744       __CxxFrameHandler4         0000000180012744 f   libvcruntime:risctrnsctrl.obj
 0001:00011804       __DestructExceptionObject  0000000180012804 f   libvcruntime:ehhelpers.obj
 0001:00011874       ?_CallMemberFunction0@@YAXQEAX0@Z 0000000180012874 f i libvcruntime:ehhelpers.obj
 0001:00011878       _IsExceptionObjectToBeDestroyed 0000000180012878 f   libvcruntime:ehhelpers.obj
 0001:000118a8       __AdjustPointer            00000001800128a8 f   libvcruntime:ehhelpers.obj
 0001:000118cc       __FrameUnwindFilter        00000001800128cc f   libvcruntime:ehhelpers.obj
 0001:00011934       __std_terminate            0000000180012934 f   libvcruntime:ehhelpers.obj
 0001:00011940       __std_type_info_compare    0000000180012940 f   libvcruntime:std_type_info.obj
 0001:00011968       __std_type_info_destroy_list 0000000180012968 f   libvcruntime:std_type_info.obj
 0001:00011994       __std_exception_copy       0000000180012994 f   libvcruntime:std_exception.obj
 0001:00011a24       __std_exception_destroy    0000000180012a24 f   libvcruntime:std_exception.obj
 0001:00011a4c       _CxxThrowException         0000000180012a4c f   libvcruntime:throw.obj
 0001:00011aec       __vcrt_freefls             0000000180012aec f   libvcruntime:per_thread_data.obj
 0001:00011b0c       __vcrt_freeptd             0000000180012b0c f   libvcruntime:per_thread_data.obj
 0001:00011b5c       __vcrt_getptd              0000000180012b5c f   libvcruntime:per_thread_data.obj
 0001:00011b78       __vcrt_getptd_noexit       0000000180012b78 f   libvcruntime:per_thread_data.obj
 0001:00011c38       __vcrt_initialize_ptd      0000000180012c38 f   libvcruntime:per_thread_data.obj
 0001:00011c80       __vcrt_uninitialize_ptd    0000000180012c80 f   libvcruntime:per_thread_data.obj
 0001:00011ca4       __vcrt_initialize_locks    0000000180012ca4 f   libvcruntime:locks.obj
 0001:00011cec       __vcrt_uninitialize_locks  0000000180012cec f   libvcruntime:locks.obj
 0001:00011d40       _NLG_Notify                0000000180012d40 f   libvcruntime:notify.obj
 0001:00011d60       __NLG_Dispatch2            0000000180012d60 f   libvcruntime:notify.obj
 0001:00011d70       __NLG_Return2              0000000180012d70 f   libvcruntime:notify.obj
 0001:00011d74       __except_validate_context_record 0000000180012d74 f   libvcruntime:jbcxrval.obj
 0001:00011dac       ?GetCurrentState@__FrameHandler3@@SAHPEA_KPEAU_xDISPATCHER_CONTEXT@@PEBU_s_FuncInfo@@@Z 0000000180012dac f   libvcruntime:ehstate.obj
 0001:00011dd4       ?GetUnwindTryBlock@__FrameHandler3@@SAHPEA_KPEAU_xDISPATCHER_CONTEXT@@PEBU_s_FuncInfo@@@Z 0000000180012dd4 f   libvcruntime:ehstate.obj
 0001:00011e00       ?SetState@__FrameHandler3@@SAXPEA_KPEBU_s_FuncInfo@@H@Z 0000000180012e00 f   libvcruntime:ehstate.obj
 0001:00011e0c       ?SetUnwindTryBlock@__FrameHandler3@@SAXPEA_KPEAU_xDISPATCHER_CONTEXT@@PEBU_s_FuncInfo@@H@Z 0000000180012e0c f   libvcruntime:ehstate.obj
 0001:00011e48       ?StateFromControlPc@__FrameHandler3@@SAHPEBU_s_FuncInfo@@PEAU_xDISPATCHER_CONTEXT@@@Z 0000000180012e48 f   libvcruntime:ehstate.obj
 0001:00011e50       ?StateFromControlPc@__FrameHandler4@@SAHPEAUFuncInfo4@FH4@@PEAU_xDISPATCHER_CONTEXT@@@Z 0000000180012e50 f   libvcruntime:ehstate.obj
 0001:00011e58       ?StateFromIp@__FrameHandler3@@SAHPEBU_s_FuncInfo@@PEAU_xDISPATCHER_CONTEXT@@_K@Z 0000000180012e58 f   libvcruntime:ehstate.obj
 0001:00011ec0       ?StateFromIp@__FrameHandler4@@SAHPEAUFuncInfo4@FH4@@PEAU_xDISPATCHER_CONTEXT@@_K@Z 0000000180012ec0 f   libvcruntime:ehstate.obj
 0001:000135c0       ??$TypeMatchHelper@V__FrameHandler3@@@@YAHPEBU_s_HandlerType@@PEBU_s_CatchableType@@PEBU_s_ThrowInfo@@@Z 00000001800145c0 f i libvcruntime:frame.obj
 0001:00013700       ??$TypeMatchHelper@V__FrameHandler4@@@@YAHPEAUHandlerType4@FH4@@PEBU_s_CatchableType@@PEBU_s_ThrowInfo@@@Z 0000000180014700 f i libvcruntime:frame.obj
 0001:00013844       ??$__InternalCxxFrameHandler@V__FrameHandler3@@@@YA?AW4_EXCEPTION_DISPOSITION@@PEAUEHExceptionRecord@@PEA_KPEAU_CONTEXT@@PEAU_xDISPATCHER_CONTEXT@@PEBU_s_FuncInfo@@H1E@Z 0000000180014844 f i libvcruntime:frame.obj
 0001:00013a7c       ??$__InternalCxxFrameHandler@V__FrameHandler4@@@@YA?AW4_EXCEPTION_DISPOSITION@@PEAUEHExceptionRecord@@PEA_KPEAU_CONTEXT@@PEAU_xDISPATCHER_CONTEXT@@PEAUFuncInfo4@FH4@@H1E@Z 0000000180014a7c f i libvcruntime:frame.obj
 0001:00013d10       ??0HandlerMap4@FH4@@QEAA@PEBUTryBlockMapEntry4@1@_KH@Z 0000000180014d10 f i libvcruntime:frame.obj
 0001:00013d8c       ??0TryBlockMap4@FH4@@QEAA@PEBUFuncInfo4@1@_K@Z 0000000180014d8c f i libvcruntime:frame.obj
 0001:00013e64       ??0bad_exception@std@@QEAA@AEBV01@@Z 0000000180014e64 f i libvcruntime:frame.obj
 0001:00013ea0       ??0bad_exception@std@@QEAA@XZ 0000000180014ea0 f i libvcruntime:frame.obj
 0001:00013ec0       ?CxxCallCatchBlock@__FrameHandler3@@SAPEAXPEAU_EXCEPTION_RECORD@@@Z 0000000180014ec0 f   libvcruntime:frame.obj
 0001:000140ac       ?CxxCallCatchBlock@__FrameHandler4@@SAPEAXPEAU_EXCEPTION_RECORD@@@Z 00000001800150ac f   libvcruntime:frame.obj
 0001:000142fc       ?DecompHandler@HandlerMap4@FH4@@AEAAXXZ 00000001800152fc f i libvcruntime:frame.obj
 0001:00014548       ?FrameUnwindToState@__FrameHandler3@@SAXPEA_KPEAU_xDISPATCHER_CONTEXT@@PEBU_s_FuncInfo@@H@Z 0000000180015548 f   libvcruntime:frame.obj
 0001:000146d4       ?FrameUnwindToState@__FrameHandler4@@SAXPEA_KPEAU_xDISPATCHER_CONTEXT@@PEAUFuncInfo4@FH4@@H@Z 00000001800156d4 f   libvcruntime:frame.obj
 0001:000149d0       ?GetHandlerSearchState@__FrameHandler3@@SAHPEA_KPEAU_xDISPATCHER_CONTEXT@@PEBU_s_FuncInfo@@@Z 00000001800159d0 f i libvcruntime:frame.obj
 0001:00014be0       ?ReadEntry@UWMap4@FH4@@AEAAXPEAPEAE@Z 0000000180015be0 f i libvcruntime:frame.obj
 0001:00014c7c       ?_CallMemberFunction1@@YAXQEAX00@Z 0000000180015c7c f i libvcruntime:frame.obj
 0001:00014c88       ?_CallMemberFunction2@@YAXQEAX00H@Z 0000000180015c88 f i libvcruntime:frame.obj
 0001:00014c98       ?getStartStop@UWMap4@FH4@@QEAAXHHAEAViterator@12@0@Z 0000000180015c98 f i libvcruntime:frame.obj
 0001:00014d68       ?getStateFromIterators@UWMap4@FH4@@SAHAEBViterator@12@H0H0@Z 0000000180015d68 f i libvcruntime:frame.obj
 0001:00014f84       __vcrt_FlsAlloc            0000000180015f84 f   libvcruntime:winapi_downlevel.obj
 0001:00014fcc       __vcrt_FlsFree             0000000180015fcc f   libvcruntime:winapi_downlevel.obj
 0001:00015014       __vcrt_FlsGetValue         0000000180016014 f   libvcruntime:winapi_downlevel.obj
 0001:0001505c       __vcrt_FlsSetValue         000000018001605c f   libvcruntime:winapi_downlevel.obj
 0001:000150b0       __vcrt_InitializeCriticalSectionEx 00000001800160b0 f   libvcruntime:winapi_downlevel.obj
 0001:00015130       _CallSettingFrame          0000000180016130 f   libvcruntime:handlers.obj
 0001:00015180       _CallSettingFrame_LookupContinuationIndex 0000000180016180 f   libvcruntime:handlers.obj
 0001:000151b0       _CallSettingFrame_NotifyContinuationAddr 00000001800161b0 f   libvcruntime:handlers.obj
 0001:000151e0       _CallSettingFrameEncoded   00000001800161e0 f   libvcruntime:handlers.obj
 0001:00015228       free                       0000000180016228 f   libucrt:free.obj
 0001:0001523c       ?get_raw_ptd@__crt_cached_ptd_host@@QEAAPEAU__acrt_ptd@@XZ 000000018001623c f i libucrt:invalid_parameter.obj
 0001:000152a4       ?get_raw_ptd_noexit@__crt_cached_ptd_host@@QEAAPEAU__acrt_ptd@@XZ 00000001800162a4 f i libucrt:invalid_parameter.obj
 0001:00015310       ?value@?$dual_state_global@P6AXPEB_W00I_K@Z@__crt_state_management@@QEAAAEAP6AXPEB_W00I_K@ZAEAV__crt_cached_ptd_host@@@Z 0000000180016310 f i libucrt:invalid_parameter.obj
 0001:0001535c       __acrt_call_reportfault    000000018001635c f   libucrt:invalid_parameter.obj
 0001:000154b8       __acrt_initialize_invalid_parameter_handler 00000001800164b8 f   libucrt:invalid_parameter.obj
 0001:000154c0       _invalid_parameter         00000001800164c0 f   libucrt:invalid_parameter.obj
 0001:0001555c       _invalid_parameter_internal 000000018001655c f   libucrt:invalid_parameter.obj
 0001:0001562c       _invalid_parameter_noinfo  000000018001662c f   libucrt:invalid_parameter.obj
 0001:0001564c       _invoke_watson             000000018001664c f   libucrt:invalid_parameter.obj
 0001:00015694       __acrt_errno_from_os_error 0000000180016694 f   libucrt:errno.obj
 0001:000156dc       __acrt_errno_map_os_error  00000001800166dc f   libucrt:errno.obj
 0001:00015724       __acrt_errno_map_os_error_ptd 0000000180016724 f   libucrt:errno.obj
 0001:00015748       __doserrno                 0000000180016748 f   libucrt:errno.obj
 0001:00015768       _errno                     0000000180016768 f   libucrt:errno.obj
 0001:00015788       calloc                     0000000180016788 f   libucrt:calloc.obj
 0001:00015790       malloc                     0000000180016790 f   libucrt:malloc.obj
 0001:00015798       _recalloc                  0000000180016798 f   libucrt:recalloc.obj
 0001:000157a0       _recalloc_base             00000001800167a0 f   libucrt:recalloc.obj
 0001:00015838       _resetstkoflw              0000000180016838 f   libucrt:resetstk.obj
 0001:00015964       wcscat_s                   0000000180016964 f   libucrt:wcscat_s.obj
 0001:000159e8       wcscpy_s                   00000001800169e8 f   libucrt:wcscpy_s.obj
 0001:00015a50       wcsncpy_s                  0000000180016a50 f   libucrt:wcsncpy_s.obj
 0001:00015d04       ??$ensure_buffer_is_big_enough@D@formatting_buffer@__crt_stdio_output@@QEAA_N_KAEAV__crt_cached_ptd_host@@@Z 0000000180016d04 f i libucrt:output.obj
 0001:00015dac       ??$ensure_buffer_is_big_enough@_W@formatting_buffer@__crt_stdio_output@@QEAA_N_KAEAV__crt_cached_ptd_host@@@Z 0000000180016dac f i libucrt:output.obj
 0001:00015e58       ??$is_wide_character_specifier@_W@__crt_stdio_output@@YA_N_K_WW4length_modifier@0@@Z 0000000180016e58 f i libucrt:output.obj
 0001:00015e98       ??$parse_integer@KV?$c_string_character_source@_W@__crt_strtox@@$0A@@__crt_strtox@@YAKAEAV__crt_cached_ptd_host@@V?$c_string_character_source@_W@0@H_N@Z 0000000180016e98 f i libucrt:output.obj
 0001:000165f0       ??$type_case_integer@$07@?$output_processor@_WV?$string_output_adapter@_W@__crt_stdio_output@@V?$format_validation_base@_WV?$string_output_adapter@_W@__crt_stdio_output@@@2@@__crt_stdio_output@@AEAA_N_N@Z 00000001800175f0 f i libucrt:output.obj
 0001:000167dc       ??$type_case_integer@$09@?$output_processor@_WV?$string_output_adapter@_W@__crt_stdio_output@@V?$format_validation_base@_WV?$string_output_adapter@_W@__crt_stdio_output@@@2@@__crt_stdio_output@@AEAA_N_N@Z 00000001800177dc f i libucrt:output.obj
 0001:000169c8       ??$type_case_integer@$0BA@@?$output_processor@_WV?$string_output_adapter@_W@__crt_stdio_output@@V?$format_validation_base@_WV?$string_output_adapter@_W@__crt_stdio_output@@@2@@__crt_stdio_output@@AEAA_N_N@Z 00000001800179c8 f i libucrt:output.obj
 0001:00016bb4       ??$type_case_integer_parse_into_buffer@I$07@?$output_processor@_WV?$string_output_adapter@_W@__crt_stdio_output@@V?$format_validation_base@_WV?$string_output_adapter@_W@__crt_stdio_output@@@2@@__crt_stdio_output@@AEAAXI_N@Z 0000000180017bb4 f i libucrt:output.obj
 0001:00016c3c       ??$type_case_integer_parse_into_buffer@I$09@?$output_processor@_WV?$string_output_adapter@_W@__crt_stdio_output@@V?$format_validation_base@_WV?$string_output_adapter@_W@__crt_stdio_output@@@2@@__crt_stdio_output@@AEAAXI_N@Z 0000000180017c3c f i libucrt:output.obj
 0001:00016cf4       ??$type_case_integer_parse_into_buffer@I$0BA@@?$output_processor@_WV?$string_output_adapter@_W@__crt_stdio_output@@V?$format_validation_base@_WV?$string_output_adapter@_W@__crt_stdio_output@@@2@@__crt_stdio_output@@AEAAXI_N@Z 0000000180017cf4 f i libucrt:output.obj
 0001:00016d98       ??$type_case_integer_parse_into_buffer@_K$07@?$output_processor@_WV?$string_output_adapter@_W@__crt_stdio_output@@V?$format_validation_base@_WV?$string_output_adapter@_W@__crt_stdio_output@@@2@@__crt_stdio_output@@AEAAX_K_N@Z 0000000180017d98 f i libucrt:output.obj
 0001:00016e20       ??$type_case_integer_parse_into_buffer@_K$09@?$output_processor@_WV?$string_output_adapter@_W@__crt_stdio_output@@V?$format_validation_base@_WV?$string_output_adapter@_W@__crt_stdio_output@@@2@@__crt_stdio_output@@AEAAX_K_N@Z 0000000180017e20 f i libucrt:output.obj
 0001:00016ee0       ??$type_case_integer_parse_into_buffer@_K$0BA@@?$output_processor@_WV?$string_output_adapter@_W@__crt_stdio_output@@V?$format_validation_base@_WV?$string_output_adapter@_W@__crt_stdio_output@@@2@@__crt_stdio_output@@AEAAX_K_N@Z 0000000180017ee0 f i libucrt:output.obj
 0001:00016f84       ?crop_zeroes@__crt_stdio_output@@YAXPEADQEAU__crt_locale_pointers@@@Z 0000000180017f84 f i libucrt:output.obj
 0001:00016ff0       ?parse_int_from_format_string@?$output_processor@_WV?$string_output_adapter@_W@__crt_stdio_output@@V?$format_validation_base@_WV?$string_output_adapter@_W@__crt_stdio_output@@@2@@__crt_stdio_output@@AEAA_NQEAH@Z 0000000180017ff0 f i libucrt:output.obj
 0001:00017080       ?process@?$output_processor@_WV?$string_output_adapter@_W@__crt_stdio_output@@V?$format_validation_base@_WV?$string_output_adapter@_W@__crt_stdio_output@@@2@@__crt_stdio_output@@QEAAHXZ 0000000180018080 f i libucrt:output.obj
 0001:0001735c       ?state_case_size@?$output_processor@_WV?$string_output_adapter@_W@__crt_stdio_output@@V?$format_validation_base@_WV?$string_output_adapter@_W@__crt_stdio_output@@@2@@__crt_stdio_output@@AEAA_NXZ 000000018001835c f i libucrt:output.obj
 0001:00017508       ?state_case_type@?$output_processor@_WV?$string_output_adapter@_W@__crt_stdio_output@@V?$format_validation_base@_WV?$string_output_adapter@_W@__crt_stdio_output@@@2@@__crt_stdio_output@@AEAA_NXZ 0000000180018508 f i libucrt:output.obj
 0001:00017964       ?type_case_Z@?$output_processor@_WV?$string_output_adapter@_W@__crt_stdio_output@@V?$format_validation_base@_WV?$string_output_adapter@_W@__crt_stdio_output@@@2@@__crt_stdio_output@@AEAA_NXZ 0000000180018964 f i libucrt:output.obj
 0001:000179e0       ?type_case_a@?$output_processor@_WV?$string_output_adapter@_W@__crt_stdio_output@@V?$format_validation_base@_WV?$string_output_adapter@_W@__crt_stdio_output@@@2@@__crt_stdio_output@@AEAA_NXZ 00000001800189e0 f i libucrt:output.obj
 0001:00017c40       ?type_case_c_tchar@?$output_processor@_WV?$string_output_adapter@_W@__crt_stdio_output@@V?$format_validation_base@_WV?$string_output_adapter@_W@__crt_stdio_output@@@2@@__crt_stdio_output@@AEAA_N_W@Z 0000000180018c40 f i libucrt:output.obj
 0001:00017d04       ?type_case_n@?$output_processor@_WV?$string_output_adapter@_W@__crt_stdio_output@@V?$format_validation_base@_WV?$string_output_adapter@_W@__crt_stdio_output@@@2@@__crt_stdio_output@@AEAA_NXZ 0000000180018d04 f i libucrt:output.obj
 0001:00017db8       ?type_case_s@?$output_processor@_WV?$string_output_adapter@_W@__crt_stdio_output@@V?$format_validation_base@_WV?$string_output_adapter@_W@__crt_stdio_output@@@2@@__crt_stdio_output@@AEAA_NXZ 0000000180018db8 f i libucrt:output.obj
 0001:00017e50       ?type_case_s_compute_narrow_string_length@?$output_processor@_WV?$string_output_adapter@_W@__crt_stdio_output@@V?$format_validation_base@_WV?$string_output_adapter@_W@__crt_stdio_output@@@2@@__crt_stdio_output@@AEAAHH_W@Z 0000000180018e50 f i libucrt:output.obj
 0001:00017ed0       ?update_locale_slow@__crt_cached_ptd_host@@AEAAXXZ 0000000180018ed0 f i libucrt:output.obj
 0001:00017f48       ?write_string@?$string_output_adapter@_W@__crt_stdio_output@@QEBAXQEB_WHQEAHAEAV__crt_cached_ptd_host@@@Z 0000000180018f48 f i libucrt:output.obj
 0001:00017ff0       __stdio_common_vswprintf_s 0000000180018ff0 f   libucrt:output.obj
 0001:00018104       _seh_filter_dll            0000000180019104 f   libucrt:exception_filter.obj
 0001:00018118       _seh_filter_exe            0000000180019118 f   libucrt:exception_filter.obj
 0001:0001853c       __acrt_initialize_thread_local_exit_callback 000000018001953c f   libucrt:exit.obj
 0001:00018544       _cexit                     0000000180019544 f   libucrt:exit.obj
 0001:00018554       _exit                      0000000180019554 f   libucrt:exit.obj
 0001:00018560       _is_c_termination_complete 0000000180019560 f   libucrt:exit.obj
 0001:00018728       __acrt_allocate_buffer_for_argv 0000000180019728 f   libucrt:argv_parsing.obj
 0001:00018788       _configure_narrow_argv     0000000180019788 f   libucrt:argv_parsing.obj
 0001:00018b10       __dcrt_uninitialize_environments_nolock 0000000180019b10 f   libucrt:environment_initialization.obj
 0001:00018b54       _initialize_narrow_environment 0000000180019b54 f   libucrt:environment_initialization.obj
 0001:00018ea4       _crt_atexit                0000000180019ea4 f   libucrt:onexit.obj
 0001:00018eb4       _execute_onexit_table      0000000180019eb4 f   libucrt:onexit.obj
 0001:00018ef8       _initialize_onexit_table   0000000180019ef8 f   libucrt:onexit.obj
 0001:00018f20       _register_onexit_function  0000000180019f20 f   libucrt:onexit.obj
 0001:00018fa0       __acrt_uninitialize_command_line 0000000180019fa0 f   libucrt:argv_data.obj
 0001:00019098       __acrt_initialize          000000018001a098 f   libucrt:initialization.obj
 0001:000190ac       __acrt_thread_attach       000000018001a0ac f   libucrt:initialization.obj
 0001:000190c0       __acrt_thread_detach       000000018001a0c0 f   libucrt:initialization.obj
 0001:000190d0       __acrt_uninitialize        000000018001a0d0 f   libucrt:initialization.obj
 0001:00019108       __acrt_uninitialize_critical 000000018001a108 f   libucrt:initialization.obj
 0001:00019118       _initterm                  000000018001a118 f   libucrt:initterm.obj
 0001:0001915c       _initterm_e                000000018001a15c f   libucrt:initterm.obj
 0001:000191a4       __acrt_initialize_new_handler 000000018001a1a4 f   libucrt:new_handler.obj
 0001:000191ac       _callnewh                  000000018001a1ac f   libucrt:new_handler.obj
 0001:000191e8       _query_new_handler         000000018001a1e8 f   libucrt:new_handler.obj
 0001:0001921c       terminate                  000000018001a21c f   libucrt:terminate.obj
 0001:00019248       abort                      000000018001a248 f   libucrt:abort.obj
 0001:000192a0       strcpy_s                   000000018001a2a0 f   libucrt:strcpy_s.obj
 0001:00019310       strncmp                    000000018001a310 f   libucrt:strncmp.obj
 0001:00019390       wcsncmp                    000000018001a390 f   libucrt:wcsncmp.obj
 0001:000193bc       _free_base                 000000018001a3bc f   libucrt:free_base.obj
 0001:00019770       __acrt_freeptd             000000018001a770 f   libucrt:per_thread_data.obj
 0001:000197b4       __acrt_getptd              000000018001a7b4 f   libucrt:per_thread_data.obj
 0001:00019888       __acrt_getptd_head         000000018001a888 f   libucrt:per_thread_data.obj
 0001:0001992c       __acrt_getptd_noexit       000000018001a92c f   libucrt:per_thread_data.obj
 0001:000199f4       __acrt_getptd_noexit_explicit 000000018001a9f4 f   libucrt:per_thread_data.obj
 0001:00019ab4       __acrt_initialize_ptd      000000018001aab4 f   libucrt:per_thread_data.obj
 0001:00019af0       __acrt_uninitialize_ptd    000000018001aaf0 f   libucrt:per_thread_data.obj
 0001:00019b84       __acrt_set_locale_changed  000000018001ab84 f   libucrt:wsetlocale.obj
 0001:00019b90       __acrt_uninitialize_locale 000000018001ab90 f   libucrt:wsetlocale.obj
 0001:00019bc0       _calloc_base               000000018001abc0 f   libucrt:calloc_base.obj
 0001:00019c38       _malloc_base               000000018001ac38 f   libucrt:malloc_base.obj
 0001:00019c98       _msize_base                000000018001ac98 f   libucrt:msize.obj
 0001:00019cd4       _realloc_base              000000018001acd4 f   libucrt:realloc_base.obj
 0001:00019f10       __acrt_AppPolicyGetProcessTerminationMethodInternal 000000018001af10 f   libucrt:winapi_thunks.obj
 0001:00019f68       __acrt_AreFileApisANSI     000000018001af68 f   libucrt:winapi_thunks.obj
 0001:00019fac       __acrt_FlsAlloc            000000018001afac f   libucrt:winapi_thunks.obj
 0001:00019fb4       __acrt_FlsFree             000000018001afb4 f   libucrt:winapi_thunks.obj
 0001:00019fbc       __acrt_FlsGetValue         000000018001afbc f   libucrt:winapi_thunks.obj
 0001:00019fc4       __acrt_FlsSetValue         000000018001afc4 f   libucrt:winapi_thunks.obj
 0001:00019fcc       __acrt_InitializeCriticalSectionEx 000000018001afcc f   libucrt:winapi_thunks.obj
 0001:0001a03c       __acrt_LCMapStringEx       000000018001b03c f   libucrt:winapi_thunks.obj
 0001:0001a128       __acrt_LocaleNameToLCID    000000018001b128 f   libucrt:winapi_thunks.obj
 0001:0001a188       __acrt_SetThreadStackGuarantee 000000018001b188 f   libucrt:winapi_thunks.obj
 0001:0001a1d4       __acrt_initialize_winapi_thunks 000000018001b1d4 f   libucrt:winapi_thunks.obj
 0001:0001a1f8       __acrt_uninitialize_winapi_thunks 000000018001b1f8 f   libucrt:winapi_thunks.obj
 0001:0001a23c       wcsnlen                    000000018001b23c f   libucrt:strnlen.obj
 0001:0001a414       __acrt_update_locale_info  000000018001b414 f   libucrt:locale_update.obj
 0001:0001a448       __acrt_update_locale_info_explicit 000000018001b448 f   libucrt:locale_update.obj
 0001:0001a480       __acrt_update_multibyte_info 000000018001b480 f   libucrt:locale_update.obj
 0001:0001a4b4       __acrt_update_multibyte_info_explicit 000000018001b4b4 f   libucrt:locale_update.obj
 0001:0001b01c       __acrt_fp_format           000000018001c01c f   libucrt:cvt.obj
 0001:0001b304       _mbtowc_internal           000000018001c304 f   libucrt:mbtowc.obj
 0001:0001b47c       _fileno                    000000018001c47c f   libucrt:fileno.obj
 0001:0001b4a4       __acrt_initialize_stdio    000000018001c4a4 f   libucrt:_file.obj
 0001:0001b5c4       __acrt_uninitialize_stdio  000000018001c5c4 f   libucrt:_file.obj
 0001:0001b620       _lock_file                 000000018001c620 f   libucrt:_file.obj
 0001:0001b62c       _unlock_file               000000018001c62c f   libucrt:_file.obj
 0001:0001b638       _get_printf_count_output   000000018001c638 f   libucrt:printf_count_output.obj
 0001:0001b848       __acrt_initialize_lowio    000000018001c848 f   libucrt:ioinit.obj
 0001:0001b884       __acrt_uninitialize_lowio  000000018001c884 f   libucrt:ioinit.obj
 0001:0001b8c4       __acrt_initialize_locks    000000018001c8c4 f   libucrt:locks.obj
 0001:0001b90c       __acrt_lock                000000018001c90c f   libucrt:locks.obj
 0001:0001b928       __acrt_uninitialize_locks  000000018001c928 f   libucrt:locks.obj
 0001:0001b960       __acrt_unlock              000000018001c960 f   libucrt:locks.obj
 0001:0001b97c       __acrt_get_process_end_policy 000000018001c97c f   libucrt:win_policies.obj
 0001:0001b9cc       ??$__acrt_convert_wcs_mbs_cp@D_WV<lambda_7c9dea7b4ca7285d2cdb541a38da6275>@@U__crt_win32_buffer_internal_dynamic_resizing@@@@YAHQEBDAEAV?$__crt_win32_buffer@_WU__crt_win32_buffer_internal_dynamic_resizing@@@@AEBV<lambda_7c9dea7b4ca7285d2cdb541a38da6275>@@I@Z 000000018001c9cc f i libucrt:argv_wildcards.obj
 0001:0001bb48       ??$__acrt_convert_wcs_mbs_cp@_WDV<lambda_d8593a27d1aa8c02be35c86a17d324c4>@@U__crt_win32_buffer_internal_dynamic_resizing@@@@YAHQEB_WAEAV?$__crt_win32_buffer@DU__crt_win32_buffer_internal_dynamic_resizing@@@@AEBV<lambda_d8593a27d1aa8c02be35c86a17d324c4>@@I@Z 000000018001cb48 f i libucrt:argv_wildcards.obj
 0001:0001c3f0       ??0_LocaleUpdate@@QEAA@QEAU__crt_locale_pointers@@@Z 000000018001d3f0 f i libucrt:argv_wildcards.obj
 0001:0001c48c       __acrt_expand_narrow_argv_wildcards 000000018001d48c f   libucrt:argv_wildcards.obj
 0001:0001c494       ??$__acrt_convert_wcs_mbs_cp@_WDV<lambda_f788ae46380686e8b737efdd8c720d07>@@U__crt_win32_buffer_no_resizing@@@@YAHQEB_WAEAV?$__crt_win32_buffer@DU__crt_win32_buffer_no_resizing@@@@AEBV<lambda_f788ae46380686e8b737efdd8c720d07>@@I@Z 000000018001d494 f i libucrt:getmodulefilenamea.obj
 0001:0001c5b0       __acrt_GetModuleFileNameA  000000018001d5b0 f   libucrt:getmodulefilenamea.obj
 0001:0001cecc       __acrt_initialize_multibyte 000000018001decc f   libucrt:mbctype.obj
 0001:0001cf2c       __acrt_update_thread_multibyte_data 000000018001df2c f   libucrt:mbctype.obj
 0001:0001cf48       _setmbcp_nolock            000000018001df48 f   libucrt:mbctype.obj
 0001:0001d27c       _ismbblead                 000000018001e27c f   libucrt:ismbbyte.obj
 0001:0001d290       __acrt_initialize_command_line 000000018001e290 f   libucrt:argv_data.obj
 0001:0001d2b8       __acrt_MultiByteToWideChar 000000018001e2b8 f   libucrt:multibytetowidechar.obj
 0001:0001d314       __acrt_WideCharToMultiByte 000000018001e314 f   libucrt:widechartomultibyte.obj
 0001:0001d3c4       __dcrt_get_narrow_environment_from_os 000000018001e3c4 f   libucrt:get_environment_from_os.obj
 0001:0001d4d4       __acrt_initialize_heap     000000018001e4d4 f   libucrt:heap_handle.obj
 0001:0001d4f0       __acrt_uninitialize_heap   000000018001e4f0 f   libucrt:heap_handle.obj
 0001:0001d4fc       __acrt_execute_initializers 000000018001e4fc f   libucrt:shared_initialization.obj
 0001:0001d590       __acrt_execute_uninitializers 000000018001e590 f   libucrt:shared_initialization.obj
 0001:0001d620       __acrt_get_sigabrt_handler 000000018001e620 f   libucrt:signal.obj
 0001:0001d650       __acrt_initialize_signal_handlers 000000018001e650 f   libucrt:signal.obj
 0001:0001d670       raise                      000000018001e670 f   libucrt:signal.obj
 0001:0001d8f0       __acrt_has_user_matherr    000000018001e8f0 f   libucrt:matherr.obj
 0001:0001d910       __acrt_initialize_user_matherr 000000018001e910 f   libucrt:matherr.obj
 0001:0001d918       __acrt_invoke_user_matherr 000000018001e918 f   libucrt:matherr.obj
 0001:0001db2c       __acrt_stdio_flush_nolock  000000018001eb2c f   libucrt:fflush.obj
 0001:0001dbb8       _fflush_nolock             000000018001ebb8 f   libucrt:fflush.obj
 0001:0001dc8c       _flushall                  000000018001ec8c f   libucrt:fflush.obj
 0001:0001dc94       __acrt_add_locale_ref      000000018001ec94 f   libucrt:locale_refcounting.obj
 0001:0001dd20       __acrt_free_locale         000000018001ed20 f   libucrt:locale_refcounting.obj
 0001:0001de98       __acrt_locale_add_lc_time_reference 000000018001ee98 f   libucrt:locale_refcounting.obj
 0001:0001dec0       __acrt_locale_free_lc_time_if_unreferenced 000000018001eec0 f   libucrt:locale_refcounting.obj
 0001:0001def8       __acrt_locale_release_lc_time_reference 000000018001eef8 f   libucrt:locale_refcounting.obj
 0001:0001df20       __acrt_release_locale_ref  000000018001ef20 f   libucrt:locale_refcounting.obj
 0001:0001dfc8       __acrt_update_thread_locale_data 000000018001efc8 f   libucrt:locale_refcounting.obj
 0001:0001e038       _updatetlocinfoEx_nolock   000000018001f038 f   libucrt:locale_refcounting.obj
 0001:0001e0a0       __acrt_locale_free_monetary 000000018001f0a0 f   libucrt:initmon.obj
 0001:0001e1ac       __acrt_locale_free_numeric 000000018001f1ac f   libucrt:initnum.obj
 0001:0001e24c       __acrt_locale_free_time    000000018001f24c f   libucrt:inittime.obj
 0001:0001e354       __acrt_GetStringTypeA      000000018001f354 f   libucrt:getstringtypea.obj
 0001:0001e4f0       _query_new_mode            000000018001f4f0 f   libucrt:new_mode.obj
 0001:0001e4f8       __acrt_DownlevelLocaleNameToLCID 000000018001f4f8 f   libucrt:lcidtoname_downlevel.obj
 0001:0001e5a0       __acrt_fp_strflt_to_string 000000018001f5a0 f   libucrt:_fptostr.obj
 0001:0001e730       ?divide@__crt_strtox@@YA_KAEAUbig_integer@1@AEBU21@@Z 000000018001f730 f i libucrt:cfout.obj
 0001:0001ebbc       __acrt_fltout              000000018001fbbc f   libucrt:cfout.obj
 0001:0001fe84       fegetround                 0000000180020e84 f   libucrt:fegetround.obj
 0001:0001fe98       ?__mbrtowc_utf8@__crt_mbstring@@YA_KPEA_WPEBD_KPEAU_Mbstatet@@AEAV__crt_cached_ptd_host@@@Z 0000000180020e98 f   libucrt:mbrtowc.obj
 0001:0001fedc       ?__mbsrtowcs_utf8@__crt_mbstring@@YA_KPEA_WPEAPEBD_KPEAU_Mbstatet@@AEAV__crt_cached_ptd_host@@@Z 0000000180020edc f   libucrt:mbrtowc.obj
 0001:00020080       _fcloseall                 0000000180021080 f   libucrt:closeall.obj
 0001:00020134       __acrt_stdio_free_buffer_nolock 0000000180021134 f   libucrt:_freebuf.obj
 0001:00020174       _isatty                    0000000180021174 f   libucrt:isatty.obj
 0001:000201d4       __acrt_lowio_create_handle_array 00000001800211d4 f   libucrt:osfinfo.obj
 0001:0002027c       __acrt_lowio_destroy_handle_array 000000018002127c f   libucrt:osfinfo.obj
 0001:000202cc       __acrt_lowio_ensure_fh_exists 00000001800212cc f   libucrt:osfinfo.obj
 0001:00020374       __acrt_lowio_lock_fh       0000000180021374 f   libucrt:osfinfo.obj
 0001:0002039c       __acrt_lowio_unlock_fh     000000018002139c f   libucrt:osfinfo.obj
 0001:000203c4       _free_osfhnd               00000001800213c4 f   libucrt:osfinfo.obj
 0001:00020480       _get_osfhandle             0000000180021480 f   libucrt:osfinfo.obj
 0001:00020500       qsort                      0000000180021500 f   libucrt:qsort.obj
 0001:00020910       strncpy_s                  0000000180021910 f   libucrt:strncpy_s.obj
 0001:00020aa0       strpbrk                    0000000180021aa0 f   libucrt:strpbrk.obj
 0001:00020e68       _mbsdec                    0000000180021e68 f   libucrt:mbsdec.obj
 0001:00020e70       _mbsdec_l                  0000000180021e70 f   libucrt:mbsdec.obj
 0001:00021224       __acrt_LCMapStringA        0000000180022224 f   libucrt:lcmapstringa.obj
 0001:00021360       _commit                    0000000180022360 f   libucrt:commit.obj
 0001:00021c10       _write_internal            0000000180022c10 f   libucrt:write.obj
 0001:00021d38       _write_nolock              0000000180022d38 f   libucrt:write.obj
 0001:00022048       __ascii_wcsnicmp           0000000180023048 f   libucrt:wcsnicmp.obj
 0001:00022094       _controlfp_s               0000000180023094 f   libucrt:contrlfp.obj
 0001:000220f8       fegetenv                   00000001800230f8 f   libucrt:fegetenv.obj
 0001:00022118       fesetenv                   0000000180023118 f   libucrt:fesetenv.obj
 0001:00022164       feholdexcept               0000000180023164 f   libucrt:feholdexcept.obj
 0001:000221b4       ceil                       00000001800231b4 f   libucrt:ceil.obj
 0001:00022280       log10                      0000000180023280 f   libucrt:log10.obj
 0001:0002282c       __acrt_fenv_get_common_round_control 000000018002382c f   libucrt:_fenvutils.obj
 0001:00022838       __acrt_fenv_get_control    0000000180023838 f   libucrt:_fenvutils.obj
 0001:0002291c       __acrt_fenv_get_status     000000018002391c f   libucrt:_fenvutils.obj
 0001:00022974       __acrt_fenv_set_control    0000000180023974 f   libucrt:_fenvutils.obj
 0001:00022ab0       __acrt_fenv_set_status     0000000180023ab0 f   libucrt:_fenvutils.obj
 0001:00022b24       ?reset_and_return@__crt_mbstring@@YA_K_KPEAU_Mbstatet@@@Z 0000000180023b24 f   libucrt:common_utf8.obj
 0001:00022b2c       ?return_illegal_sequence@__crt_mbstring@@YA_KPEAU_Mbstatet@@AEAV__crt_cached_ptd_host@@@Z 0000000180023b2c f   libucrt:common_utf8.obj
 0001:00022b40       ?__mbrtoc32_utf8@__crt_mbstring@@YA_KPEA_UPEBD_KPEAU_Mbstatet@@AEAV__crt_cached_ptd_host@@@Z 0000000180023b40 f   libucrt:mbrtoc32.obj
 0001:00022e3c       fclose                     0000000180023e3c f   libucrt:fclose.obj
 0001:00022f80       _lseeki64_nolock_internal  0000000180023f80 f   libucrt:lseek.obj
 0001:00022f88       _query_app_type            0000000180023f88 f   libucrt:report_runtime_error.obj
 0001:00022f90       __strncnt                  0000000180023f90 f   libucrt:strncnt.obj
 0001:00022fa8       _putwch_nolock             0000000180023fa8 f   libucrt:putwch.obj
 0001:00022fe4       _clearfp                   0000000180023fe4 f   libucrt:ieee.obj
 0001:00023054       _control87                 0000000180024054 f   libucrt:ieee.obj
 0001:00023440       _handle_error              0000000180024440 f   libucrt:libm_error.obj
 0001:00023568       _handle_nan                0000000180024568 f   libucrt:libm_error.obj
 0001:00023590       __acrt_initialize_fma3     0000000180024590 f   libucrt:fma3_available.obj
 0001:00023600       _log10_special             0000000180024600 f   libucrt:log_special.obj
 0001:00023730       _close_internal            0000000180024730 f   libucrt:close.obj
 0001:000237f4       _close_nolock_internal     00000001800247f4 f   libucrt:close.obj
 0001:000238c4       ?__acrt_stdio_free_stream@@YAXV__crt_stdio_stream@@@Z 00000001800248c4 f   libucrt:stream.obj
 0001:000238e0       __dcrt_lowio_ensure_console_output_initialized 00000001800248e0 f   libucrt:initcon.obj
 0001:00023934       __dcrt_terminate_console_output 0000000180024934 f   libucrt:initcon.obj
 0001:00023950       __dcrt_write_console       0000000180024950 f   libucrt:initcon.obj
 0001:00023a20       _get_fpsr                  0000000180024a20 f   libucrt:fpsr.obj
 0001:00023a30       _set_fpsr                  0000000180024a30 f   libucrt:fpsr.obj
 0001:00023a3a       _fclrf                     0000000180024a3a f   libucrt:fpsr.obj
 0001:00023a4e       _frnd                      0000000180024a4e f   libucrt:fpsr.obj
 0001:00023a70       _raise_exc                 0000000180024a70 f   libucrt:fpexcept.obj
 0001:00023a98       _raise_exc_ex              0000000180024a98 f   libucrt:fpexcept.obj
 0001:00023da8       _set_errno_from_matherr    0000000180024da8 f   libucrt:fpexcept.obj
 0001:00023dd8       _clrfp                     0000000180024dd8 f   libucrt:fpctrl.obj
 0001:00023df8       _ctrlfp                    0000000180024df8 f   libucrt:fpctrl.obj
 0001:00023e74       _set_statfp                0000000180024e74 f   libucrt:fpctrl.obj
 0001:00023e94       _statfp                    0000000180024e94 f   libucrt:fpctrl.obj
 0001:00023eb0       _FindPESection             0000000180024eb0 f   LIBCMT:pesect.obj
 0001:00023f00       _IsNonwritableInCurrentImage 0000000180024f00 f   LIBCMT:pesect.obj
 0001:00023f50       _ValidateImageBase         0000000180024f50 f   LIBCMT:pesect.obj
 0001:00023f7c       __GSHandlerCheck_EH        0000000180024f7c f   LIBCMT:gshandlereh.obj
 0001:00023ffc       __C_specific_handler_noexcept 0000000180024ffc f   libvcruntime:chandler_noexcept.obj
 0001:00024048       strrchr                    0000000180025048 f   libvcruntime:strrchr.obj
 0001:000241a0       _guard_dispatch_icall_nop  00000001800251a0 f   LIBCMT:guard_dispatch.obj
 0001:000241c0       _guard_xfg_dispatch_icall_nop 00000001800251c0 f   LIBCMT:guard_xfg_dispatch.obj
 0002:00000000       __imp_RegQueryValueExW     0000000180026000     advapi32:ADVAPI32.dll
 0002:00000008       __imp_RegSetValueExW       0000000180026008     advapi32:ADVAPI32.dll
 0002:00000010       __imp_RegQueryInfoKeyW     0000000180026010     advapi32:ADVAPI32.dll
 0002:00000018       __imp_RegOpenKeyExW        0000000180026018     advapi32:ADVAPI32.dll
 0002:00000020       __imp_RegEnumKeyExW        0000000180026020     advapi32:ADVAPI32.dll
 0002:00000028       __imp_RegDeleteValueW      0000000180026028     advapi32:ADVAPI32.dll
 0002:00000030       __imp_RegDeleteKeyW        0000000180026030     advapi32:ADVAPI32.dll
 0002:00000038       __imp_RegCreateKeyExW      0000000180026038     advapi32:ADVAPI32.dll
 0002:00000040       __imp_RegCloseKey          0000000180026040     advapi32:ADVAPI32.dll
 0002:00000048       \177ADVAPI32_NULL_THUNK_DATA 0000000180026048     advapi32:ADVAPI32.dll
 0002:00000050       __imp_GetObjectW           0000000180026050     gdi32:GDI32.dll
 0002:00000058       __imp_SelectObject         0000000180026058     gdi32:GDI32.dll
 0002:00000060       __imp_DeleteObject         0000000180026060     gdi32:GDI32.dll
 0002:00000068       __imp_CreateCompatibleDC   0000000180026068     gdi32:GDI32.dll
 0002:00000070       __imp_BitBlt               0000000180026070     gdi32:GDI32.dll
 0002:00000078       __imp_SetWindowOrgEx       0000000180026078     gdi32:GDI32.dll
 0002:00000080       __imp_SetWindowExtEx       0000000180026080     gdi32:GDI32.dll
 0002:00000088       __imp_SetViewportOrgEx     0000000180026088     gdi32:GDI32.dll
 0002:00000090       __imp_LPtoDP               0000000180026090     gdi32:GDI32.dll
 0002:00000098       __imp_SetMapMode           0000000180026098     gdi32:GDI32.dll
 0002:000000a0       __imp_SaveDC               00000001800260a0     gdi32:GDI32.dll
 0002:000000a8       __imp_RestoreDC            00000001800260a8     gdi32:GDI32.dll
 0002:000000b0       __imp_GetDeviceCaps        00000001800260b0     gdi32:GDI32.dll
 0002:000000b8       __imp_DeleteMetaFile       00000001800260b8     gdi32:GDI32.dll
 0002:000000c0       __imp_DeleteDC             00000001800260c0     gdi32:GDI32.dll
 0002:000000c8       __imp_CreateRectRgnIndirect 00000001800260c8     gdi32:GDI32.dll
 0002:000000d0       __imp_CreateMetaFileW      00000001800260d0     gdi32:GDI32.dll
 0002:000000d8       __imp_CreateDCW            00000001800260d8     gdi32:GDI32.dll
 0002:000000e0       __imp_CloseMetaFile        00000001800260e0     gdi32:GDI32.dll
 0002:000000e8       \177GDI32_NULL_THUNK_DATA  00000001800260e8     gdi32:GDI32.dll
 0002:000000f0       __imp_CloseHandle          00000001800260f0     kernel32:KERNEL32.dll
 0002:000000f8       __imp_SetEvent             00000001800260f8     kernel32:KERNEL32.dll
 0002:00000100       __imp_CreateMutexW         0000000180026100     kernel32:KERNEL32.dll
 0002:00000108       __imp_CreateEventW         0000000180026108     kernel32:KERNEL32.dll
 0002:00000110       __imp_GetCurrentProcessId  0000000180026110     kernel32:KERNEL32.dll
 0002:00000118       __imp_WriteConsoleW        0000000180026118     kernel32:KERNEL32.dll
 0002:00000120       __imp_CreateFileW          0000000180026120     kernel32:KERNEL32.dll
 0002:00000128       __imp_GetConsoleMode       0000000180026128     kernel32:KERNEL32.dll
 0002:00000130       __imp_GetConsoleOutputCP   0000000180026130     kernel32:KERNEL32.dll
 0002:00000138       __imp_WriteFile            0000000180026138     kernel32:KERNEL32.dll
 0002:00000140       __imp_FlushFileBuffers     0000000180026140     kernel32:KERNEL32.dll
 0002:00000148       __imp_SetStdHandle         0000000180026148     kernel32:KERNEL32.dll
 0002:00000150       __imp_SetFilePointerEx     0000000180026150     kernel32:KERNEL32.dll
 0002:00000158       __imp_GetStringTypeW       0000000180026158     kernel32:KERNEL32.dll
 0002:00000160       __imp_FreeEnvironmentStringsW 0000000180026160     kernel32:KERNEL32.dll
 0002:00000168       __imp_lstrcmpiW            0000000180026168     kernel32:KERNEL32.dll
 0002:00000170       __imp_GetCommandLineW      0000000180026170     kernel32:KERNEL32.dll
 0002:00000178       __imp_GetCommandLineA      0000000180026178     kernel32:KERNEL32.dll
 0002:00000180       __imp_GetCPInfo            0000000180026180     kernel32:KERNEL32.dll
 0002:00000188       __imp_GetOEMCP             0000000180026188     kernel32:KERNEL32.dll
 0002:00000190       __imp_GetACP               0000000180026190     kernel32:KERNEL32.dll
 0002:00000198       __imp_IsValidCodePage      0000000180026198     kernel32:KERNEL32.dll
 0002:000001a0       __imp_FindNextFileW        00000001800261a0     kernel32:KERNEL32.dll
 0002:000001a8       __imp_FindFirstFileExW     00000001800261a8     kernel32:KERNEL32.dll
 0002:000001b0       __imp_FindClose            00000001800261b0     kernel32:KERNEL32.dll
 0002:000001b8       __imp_GetFileType          00000001800261b8     kernel32:KERNEL32.dll
 0002:000001c0       __imp_GetStdHandle         00000001800261c0     kernel32:KERNEL32.dll
 0002:000001c8       __imp_LCMapStringW         00000001800261c8     kernel32:KERNEL32.dll
 0002:000001d0       __imp_FlsFree              00000001800261d0     kernel32:KERNEL32.dll
 0002:000001d8       __imp_FlsSetValue          00000001800261d8     kernel32:KERNEL32.dll
 0002:000001e0       __imp_MulDiv               00000001800261e0     kernel32:KERNEL32.dll
 0002:000001e8       __imp_GlobalLock           00000001800261e8     kernel32:KERNEL32.dll
 0002:000001f0       __imp_GlobalUnlock         00000001800261f0     kernel32:KERNEL32.dll
 0002:000001f8       __imp_GlobalAlloc          00000001800261f8     kernel32:KERNEL32.dll
 0002:00000200       __imp_FindResourceW        0000000180026200     kernel32:KERNEL32.dll
 0002:00000208       __imp_SizeofResource       0000000180026208     kernel32:KERNEL32.dll
 0002:00000210       __imp_LoadResource         0000000180026210     kernel32:KERNEL32.dll
 0002:00000218       __imp_LoadLibraryExW       0000000180026218     kernel32:KERNEL32.dll
 0002:00000220       __imp_GetProcAddress       0000000180026220     kernel32:KERNEL32.dll
 0002:00000228       __imp_GetModuleHandleW     0000000180026228     kernel32:KERNEL32.dll
 0002:00000230       __imp_GetModuleFileNameW   0000000180026230     kernel32:KERNEL32.dll
 0002:00000238       __imp_FreeLibrary          0000000180026238     kernel32:KERNEL32.dll
 0002:00000240       __imp_DisableThreadLibraryCalls 0000000180026240     kernel32:KERNEL32.dll
 0002:00000248       __imp_GetCurrentThreadId   0000000180026248     kernel32:KERNEL32.dll
 0002:00000250       __imp_Sleep                0000000180026250     kernel32:KERNEL32.dll
 0002:00000258       __imp_WaitForSingleObject  0000000180026258     kernel32:KERNEL32.dll
 0002:00000260       __imp_ReleaseMutex         0000000180026260     kernel32:KERNEL32.dll
 0002:00000268       __imp_ResetEvent           0000000180026268     kernel32:KERNEL32.dll
 0002:00000270       __imp_EnterCriticalSection 0000000180026270     kernel32:KERNEL32.dll
 0002:00000278       __imp_LeaveCriticalSection 0000000180026278     kernel32:KERNEL32.dll
 0002:00000280       __imp_SetLastError         0000000180026280     kernel32:KERNEL32.dll
 0002:00000288       __imp_EncodePointer        0000000180026288     kernel32:KERNEL32.dll
 0002:00000290       __imp_DeleteCriticalSection 0000000180026290     kernel32:KERNEL32.dll
 0002:00000298       __imp_InitializeCriticalSectionEx 0000000180026298     kernel32:KERNEL32.dll
 0002:000002a0       __imp_GetLastError         00000001800262a0     kernel32:KERNEL32.dll
 0002:000002a8       __imp_RaiseException       00000001800262a8     kernel32:KERNEL32.dll
 0002:000002b0       __imp_DecodePointer        00000001800262b0     kernel32:KERNEL32.dll
 0002:000002b8       __imp_WideCharToMultiByte  00000001800262b8     kernel32:KERNEL32.dll
 0002:000002c0       __imp_GetEnvironmentStringsW 00000001800262c0     kernel32:KERNEL32.dll
 0002:000002c8       __imp_MultiByteToWideChar  00000001800262c8     kernel32:KERNEL32.dll
 0002:000002d0       __imp_FlsGetValue          00000001800262d0     kernel32:KERNEL32.dll
 0002:000002d8       __imp_FlsAlloc             00000001800262d8     kernel32:KERNEL32.dll
 0002:000002e0       __imp_HeapReAlloc          00000001800262e0     kernel32:KERNEL32.dll
 0002:000002e8       __imp_HeapSize             00000001800262e8     kernel32:KERNEL32.dll
 0002:000002f0       __imp_GetModuleHandleExW   00000001800262f0     kernel32:KERNEL32.dll
 0002:000002f8       __imp_ExitProcess          00000001800262f8     kernel32:KERNEL32.dll
 0002:00000300       __imp_VirtualQuery         0000000180026300     kernel32:KERNEL32.dll
 0002:00000308       __imp_VirtualProtect       0000000180026308     kernel32:KERNEL32.dll
 0002:00000310       __imp_GetSystemInfo        0000000180026310     kernel32:KERNEL32.dll
 0002:00000318       __imp_TlsFree              0000000180026318     kernel32:KERNEL32.dll
 0002:00000320       __imp_TlsSetValue          0000000180026320     kernel32:KERNEL32.dll
 0002:00000328       __imp_TlsGetValue          0000000180026328     kernel32:KERNEL32.dll
 0002:00000330       __imp_TlsAlloc             0000000180026330     kernel32:KERNEL32.dll
 0002:00000338       __imp_RtlPcToFileHeader    0000000180026338     kernel32:KERNEL32.dll
 0002:00000340       __imp_InterlockedFlushSList 0000000180026340     kernel32:KERNEL32.dll
 0002:00000348       __imp_RtlUnwindEx          0000000180026348     kernel32:KERNEL32.dll
 0002:00000350       __imp_LoadLibraryExA       0000000180026350     kernel32:KERNEL32.dll
 0002:00000358       __imp_VirtualFree          0000000180026358     kernel32:KERNEL32.dll
 0002:00000360       __imp_VirtualAlloc         0000000180026360     kernel32:KERNEL32.dll
 0002:00000368       __imp_FlushInstructionCache 0000000180026368     kernel32:KERNEL32.dll
 0002:00000370       __imp_InterlockedPushEntrySList 0000000180026370     kernel32:KERNEL32.dll
 0002:00000378       __imp_InterlockedPopEntrySList 0000000180026378     kernel32:KERNEL32.dll
 0002:00000380       __imp_GetProcessHeap       0000000180026380     kernel32:KERNEL32.dll
 0002:00000388       __imp_HeapFree             0000000180026388     kernel32:KERNEL32.dll
 0002:00000390       __imp_HeapAlloc            0000000180026390     kernel32:KERNEL32.dll
 0002:00000398       __imp_OutputDebugStringW   0000000180026398     kernel32:KERNEL32.dll
 0002:000003a0       __imp_InitializeSListHead  00000001800263a0     kernel32:KERNEL32.dll
 0002:000003a8       __imp_GetSystemTimeAsFileTime 00000001800263a8     kernel32:KERNEL32.dll
 0002:000003b0       __imp_QueryPerformanceCounter 00000001800263b0     kernel32:KERNEL32.dll
 0002:000003b8       __imp_GetStartupInfoW      00000001800263b8     kernel32:KERNEL32.dll
 0002:000003c0       __imp_InitializeCriticalSectionAndSpinCount 00000001800263c0     kernel32:KERNEL32.dll
 0002:000003c8       __imp_WaitForSingleObjectEx 00000001800263c8     kernel32:KERNEL32.dll
 0002:000003d0       __imp_RtlCaptureContext    00000001800263d0     kernel32:KERNEL32.dll
 0002:000003d8       __imp_RtlLookupFunctionEntry 00000001800263d8     kernel32:KERNEL32.dll
 0002:000003e0       __imp_RtlVirtualUnwind     00000001800263e0     kernel32:KERNEL32.dll
 0002:000003e8       __imp_UnhandledExceptionFilter 00000001800263e8     kernel32:KERNEL32.dll
 0002:000003f0       __imp_SetUnhandledExceptionFilter 00000001800263f0     kernel32:KERNEL32.dll
 0002:000003f8       __imp_GetCurrentProcess    00000001800263f8     kernel32:KERNEL32.dll
 0002:00000400       __imp_TerminateProcess     0000000180026400     kernel32:KERNEL32.dll
 0002:00000408       __imp_IsProcessorFeaturePresent 0000000180026408     kernel32:KERNEL32.dll
 0002:00000410       __imp_IsDebuggerPresent    0000000180026410     kernel32:KERNEL32.dll
 0002:00000418       \177KERNEL32_NULL_THUNK_DATA 0000000180026418     kernel32:KERNEL32.dll
 0002:00000420       __imp_OleCreatePropertyFrame 0000000180026420     oleaut32:OLEAUT32.dll
 0002:00000428       __imp_UnRegisterTypeLib    0000000180026428     oleaut32:OLEAUT32.dll
 0002:00000430       __imp_RegisterTypeLib      0000000180026430     oleaut32:OLEAUT32.dll
 0002:00000438       __imp_LoadRegTypeLib       0000000180026438     oleaut32:OLEAUT32.dll
 0002:00000440       __imp_LoadTypeLib          0000000180026440     oleaut32:OLEAUT32.dll
 0002:00000448       __imp_VarUI4FromStr        0000000180026448     oleaut32:OLEAUT32.dll
 0002:00000450       __imp_VariantInit          0000000180026450     oleaut32:OLEAUT32.dll
 0002:00000458       __imp_SysAllocStringByteLen 0000000180026458     oleaut32:OLEAUT32.dll
 0002:00000460       __imp_SysStringByteLen     0000000180026460     oleaut32:OLEAUT32.dll
 0002:00000468       __imp_VariantChangeType    0000000180026468     oleaut32:OLEAUT32.dll
 0002:00000470       __imp_VariantClear         0000000180026470     oleaut32:OLEAUT32.dll
 0002:00000478       __imp_SysStringLen         0000000180026478     oleaut32:OLEAUT32.dll
 0002:00000480       __imp_SysFreeString        0000000180026480     oleaut32:OLEAUT32.dll
 0002:00000488       __imp_SysAllocStringLen    0000000180026488     oleaut32:OLEAUT32.dll
 0002:00000490       __imp_SysAllocString       0000000180026490     oleaut32:OLEAUT32.dll
 0002:00000498       \177OLEAUT32_NULL_THUNK_DATA 0000000180026498     oleaut32:OLEAUT32.dll
 0002:000004a0       __imp_UnregisterClassW     00000001800264a0     user32:USER32.dll
 0002:000004a8       __imp_PostMessageW         00000001800264a8     user32:USER32.dll
 0002:000004b0       __imp_DefWindowProcW       00000001800264b0     user32:USER32.dll
 0002:000004b8       __imp_CallWindowProcW      00000001800264b8     user32:USER32.dll
 0002:000004c0       __imp_RegisterClassExW     00000001800264c0     user32:USER32.dll
 0002:000004c8       __imp_GetClassInfoExW      00000001800264c8     user32:USER32.dll
 0002:000004d0       __imp_CreateWindowExW      00000001800264d0     user32:USER32.dll
 0002:000004d8       __imp_IsWindow             00000001800264d8     user32:USER32.dll
 0002:000004e0       __imp_IsChild              00000001800264e0     user32:USER32.dll
 0002:000004e8       __imp_DestroyWindow        00000001800264e8     user32:USER32.dll
 0002:000004f0       __imp_ShowWindow           00000001800264f0     user32:USER32.dll
 0002:000004f8       __imp_SetWindowPos         00000001800264f8     user32:USER32.dll
 0002:00000500       __imp_CharNextW            0000000180026500     user32:USER32.dll
 0002:00000508       __imp_SetFocus             0000000180026508     user32:USER32.dll
 0002:00000510       __imp_LoadBitmapW          0000000180026510     user32:USER32.dll
 0002:00000518       __imp_RegisterClassW       0000000180026518     user32:USER32.dll
 0002:00000520       __imp_PeekMessageW         0000000180026520     user32:USER32.dll
 0002:00000528       __imp_LoadCursorW          0000000180026528     user32:USER32.dll
 0002:00000530       __imp_GetParent            0000000180026530     user32:USER32.dll
 0002:00000538       __imp_SetWindowLongPtrW    0000000180026538     user32:USER32.dll
 0002:00000540       __imp_GetWindowLongPtrW    0000000180026540     user32:USER32.dll
 0002:00000548       __imp_PtInRect             0000000180026548     user32:USER32.dll
 0002:00000550       __imp_EqualRect            0000000180026550     user32:USER32.dll
 0002:00000558       __imp_OffsetRect           0000000180026558     user32:USER32.dll
 0002:00000560       __imp_UnionRect            0000000180026560     user32:USER32.dll
 0002:00000568       __imp_IntersectRect        0000000180026568     user32:USER32.dll
 0002:00000570       __imp_GetClientRect        0000000180026570     user32:USER32.dll
 0002:00000578       __imp_InvalidateRect       0000000180026578     user32:USER32.dll
 0002:00000580       __imp_SetWindowRgn         0000000180026580     user32:USER32.dll
 0002:00000588       __imp_EndPaint             0000000180026588     user32:USER32.dll
 0002:00000590       __imp_BeginPaint           0000000180026590     user32:USER32.dll
 0002:00000598       __imp_ReleaseDC            0000000180026598     user32:USER32.dll
 0002:000005a0       __imp_GetDC                00000001800265a0     user32:USER32.dll
 0002:000005a8       __imp_GetKeyState          00000001800265a8     user32:USER32.dll
 0002:000005b0       __imp_GetFocus             00000001800265b0     user32:USER32.dll
 0002:000005b8       \177USER32_NULL_THUNK_DATA 00000001800265b8     user32:USER32.dll
 0002:000005c0       __imp_CoCreateInstance     00000001800265c0     ole32:ole32.dll
 0002:000005c8       __imp_StringFromGUID2      00000001800265c8     ole32:ole32.dll
 0002:000005d0       __imp_CoTaskMemAlloc       00000001800265d0     ole32:ole32.dll
 0002:000005d8       __imp_CoTaskMemRealloc     00000001800265d8     ole32:ole32.dll
 0002:000005e0       __imp_CoTaskMemFree        00000001800265e0     ole32:ole32.dll
 0002:000005e8       __imp_WriteClassStm        00000001800265e8     ole32:ole32.dll
 0002:000005f0       __imp_CreateDataAdviseHolder 00000001800265f0     ole32:ole32.dll
 0002:000005f8       __imp_OleSaveToStream      00000001800265f8     ole32:ole32.dll
 0002:00000600       __imp_CreateOleAdviseHolder 0000000180026600     ole32:ole32.dll
 0002:00000608       __imp_OleRegGetUserType    0000000180026608     ole32:ole32.dll
 0002:00000610       __imp_OleRegGetMiscStatus  0000000180026610     ole32:ole32.dll
 0002:00000618       __imp_OleRegEnumVerbs      0000000180026618     ole32:ole32.dll
 0002:00000620       __imp_CLSIDFromProgID      0000000180026620     ole32:ole32.dll
 0002:00000628       __imp_ReadClassStm         0000000180026628     ole32:ole32.dll
 0002:00000630       \177ole32_NULL_THUNK_DATA  0000000180026630     ole32:ole32.dll
 0002:00000638       __guard_check_icall_fptr   0000000180026638     LIBCMT:guard_support.obj
 0002:00000640       __guard_xfg_check_icall_fptr 0000000180026640     LIBCMT:guard_support.obj
 0002:00000648       __guard_dispatch_icall_fptr 0000000180026648     LIBCMT:guard_support.obj
 0002:00000650       __guard_xfg_dispatch_icall_fptr 0000000180026650     LIBCMT:guard_support.obj
 0002:00000658       __guard_xfg_table_dispatch_icall_fptr 0000000180026658     LIBCMT:guard_support.obj
 0002:00000660       __castguard_check_failure_os_handled_fptr 0000000180026660     LIBCMT:guard_support.obj
 0002:00000668       __xc_a                     0000000180026668     LIBCMT:initializers.obj
 0002:00000698       __xc_z                     0000000180026698     LIBCMT:initializers.obj
 0002:000006a0       __xi_a                     00000001800266a0     LIBCMT:initializers.obj
 0002:000006b0       __acrt_stdio_initializer   00000001800266b0     libucrt:stdio_initializer.obj
 0002:000006b8       __acrt_multibyte_initializer 00000001800266b8     libucrt:multibyte_initializer.obj
 0002:000006c0       __acrt_tran_fma3_initializer 00000001800266c0     libucrt:fma3_initializer.obj
 0002:000006c8       __xi_z                     00000001800266c8     LIBCMT:initializers.obj
 0002:000006d0       __xl_a                     00000001800266d0     LIBCMT:tlssup.obj
 0002:000006d8       __xl_z                     00000001800266d8     LIBCMT:tlssup.obj
 0002:000006e0       __xp_a                     00000001800266e0     LIBCMT:initializers.obj
 0002:000006e8       __acrt_locale_terminator   00000001800266e8     libucrt:locale_initializer.obj
 0002:000006f0       __dcrt_console_output_terminator 00000001800266f0     libucrt:console_output_initializer.obj
 0002:000006f8       __acrt_stdio_terminator    00000001800266f8     libucrt:stdio_initializer.obj
 0002:00000700       __xp_z                     0000000180026700     LIBCMT:initializers.obj
 0002:00000708       __xt_a                     0000000180026708     LIBCMT:initializers.obj
 0002:00000710       __xt_z                     0000000180026710     LIBCMT:initializers.obj
 0002:00000720       ??_C@_13HADIAKP@?$AAS@     0000000180026720     OposVariant.obj
 0002:00000724       ??_C@_13LHMFKAAD@?$AAM@    0000000180026724     OposVariant.obj
 0002:00000728       ??_C@_13MKMNOPIJ@?$AAD@    0000000180026728     OposVariant.obj
 0002:0000072c       ??_C@_13OPKGLAFF@?$AAB@    000000018002672c     OposVariant.obj
 0002:00000730       ??_C@_17LLMMEOJD@?$AAV?$AAa?$AAl@ 0000000180026730     OposVariant.obj
 0002:00000738       ??_C@_1BI@JFAIJMHL@?$AAF?$AAo?$AAr?$AAc?$AAe?$AAR?$AAe?$AAm?$AAo?$AAv?$AAe@ 0000000180026738     OposVariant.obj
 0002:00000750       ??_C@_1BC@GCKHIPE@?$AAN?$AAo?$AAR?$AAe?$AAm?$AAo?$AAv?$AAe@ 0000000180026750     OposVariant.obj
 0002:00000768       ??_C@_1O@JDLOHAN@?$AAD?$AAe?$AAl?$AAe?$AAt?$AAe@ 0000000180026768     OposVariant.obj
 0002:00000778       ??_C@_11LOCGONAA@@         0000000180026778     OposVariant.obj
 0002:00000780       _GUID_55980ba0_35aa_11cf_b671_00aa004cd6d8 0000000180026780     CashChanger.obj
 0002:00000790       ??_7?$CComObject@V?$CComEnum@UIEnumConnections@@$1?_GUID_b196b287_bab4_101a_b69c_00aa00341d07@@3U__s_GUID@@BUtagCONNECTDATA@@V?$_Copy@UtagCONNECTDATA@@@ATL@@VCComSingleThreadModel@6@@ATL@@@ATL@@6B@ 0000000180026790     CashChanger.obj
 0002:000007d0       _GUID_b196b28b_bab4_101a_b69c_00aa00341d07 00000001800267d0     CashChanger.obj
 0002:000007e0       ?_entries@?1??_GetEntries@?$CComEnum@UIEnumConnections@@$1?_GUID_b196b287_bab4_101a_b69c_00aa00341d07@@3U__s_GUID@@BUtagCONNECTDATA@@V?$_Copy@UtagCONNECTDATA@@@ATL@@VCComSingleThreadModel@6@@ATL@@SAPEBU_ATL_INTMAP_ENTRY@3@XZ@4QBU43@B 00000001800267e0     CashChanger.obj
 0002:00000810       ??_7CComClassFactory@ATL@@6B@ 0000000180026810     CashChanger.obj
 0002:00000840       ?_entries@?1??_GetEntries@CComClassFactory@ATL@@SAPEBU_ATL_INTMAP_ENTRY@3@XZ@4QBU43@B 0000000180026840     CashChanger.obj
 0002:00000870       _GUID_00000001_0000_0000_c000_000000000046 0000000180026870     CashChanger.obj
 0002:00000880       IID_IOPOSCashChanger_1_5   0000000180026880     CashChanger.obj
 0002:00000890       IID_IOPOSCashChanger_1_8   0000000180026890     CashChanger.obj
 0002:000008a0       IID_IOPOSCashChanger_1_9   00000001800268a0     CashChanger.obj
 0002:000008b0       IID_IOPOSCashChanger_1_11  00000001800268b0     CashChanger.obj
 0002:000008c0       ??_C@_1BK@BIGILECK@?$AAA?$AAd?$AAv?$AAa?$AAp?$AAi?$AA3?$AA2?$AA?4?$AAd?$AAl?$AAl@ 00000001800268c0     CashChanger.obj
 0002:000008e0       IID_IOPOSCashChanger       00000001800268e0     CashChanger.obj
 0002:000008f0       ??_C@_0BI@MNCFCPFK@RegCreateKeyTransactedW@ 00000001800268f0     CashChanger.obj
 0002:00000908       LIBID_OposCashChanger_CCO  0000000180026908     CashChanger.obj
 0002:00000918       DIID__IOPOSCashChangerEvents 0000000180026918     CashChanger.obj
 0002:00000928       CLSID_OPOSCashChanger      0000000180026928     CashChanger.obj
 0002:00000938       _GUID_00000114_0000_0000_c000_000000000046 0000000180026938     CashChanger.obj
 0002:00000948       _GUID_b196b287_bab4_101a_b69c_00aa00341d07 0000000180026948     CashChanger.obj
 0002:00000958       _GUID_b196b285_bab4_101a_b69c_00aa00341d07 0000000180026958     CashChanger.obj
 0002:00000968       _GUID_a6bc3ac0_dbaa_11ce_9de3_00aa004bb851 0000000180026968     CashChanger.obj
 0002:00000978       _GUID_0000010c_0000_0000_c000_000000000046 0000000180026978     CashChanger.obj
 0002:00000988       _GUID_00000146_0000_0000_c000_000000000046 0000000180026988     CashChanger.obj
 0002:000009a0       ?_entries@?1??_GetEntries@COPOSCashChanger@@SAPEBU_ATL_INTMAP_ENTRY@ATL@@XZ@4QBU34@B 00000001800269a0     CashChanger.obj
 0002:00000c28       ??_7CComModule@ATL@@6B@    0000000180026c28     CashChanger.obj
 0002:00000c78       _GUID_00000000_0000_0000_c000_000000000046 0000000180026c78     CashChanger.obj
 0002:00000c88       _GUID_cf51ed10_62fe_11cf_bf86_00a0c9034836 0000000180026c88     CashChanger.obj
 0002:00000c98       _GUID_0000010a_0000_0000_c000_000000000046 0000000180026c98     CashChanger.obj
 0002:00000ca8       _GUID_b196b283_bab4_101a_b69c_00aa00341d07 0000000180026ca8     CashChanger.obj
 0002:00000cb8       _GUID_00020400_0000_0000_c000_000000000046 0000000180026cb8     CashChanger.obj
 0002:00000cc8       _GUID_cb5bdc81_93c1_11cf_8f20_00805f2cd064 0000000180026cc8     CashChanger.obj
 0002:00000ce0       ?pPropMap@?1??GetPropertyMap@COPOSCashChanger@@SAPEBUATL_PROPMAP_ENTRY@ATL@@XZ@4QBU34@B 0000000180026ce0     CashChanger.obj
 0002:00000d88       ??_C@_17DGDADEHL@?$AA_?$AAc?$AAx@ 0000000180026d88     CashChanger.obj
 0002:00000d90       ??_C@_17IOIMFDBO@?$AA_?$AAc?$AAy@ 0000000180026d90     CashChanger.obj
 0002:00000d98       _GUID_922eada0_3424_11cf_b670_00aa004cd6d8 0000000180026d98     CashChanger.obj
 0002:00000da8       _GUID_9c2cad80_3424_11cf_b670_00aa004cd6d8 0000000180026da8     CashChanger.obj
 0002:00000db8       _GUID_00000119_0000_0000_c000_000000000046 0000000180026db8     CashChanger.obj
 0002:00000dc8       _GUID_b196b289_bab4_101a_b69c_00aa00341d07 0000000180026dc8     CashChanger.obj
 0002:00000dd8       _GUID_00000117_0000_0000_c000_000000000046 0000000180026dd8     CashChanger.obj
 0002:00000de8       ??_7?$CComObjectCached@VCComClassFactory@ATL@@@ATL@@6B@ 0000000180026de8     CashChanger.obj
 0002:00000e18       ??_C@_1CE@PGFMOFKI@?$AAS?$AAt?$AAa?$AAt?$AAu?$AAs?$AAU?$AAp?$AAd?$AAa?$AAt?$AAe?$AAE?$AAv?$AAe@ 0000000180026e18     CashChanger.obj
 0002:00000e40       ??_C@_1BM@CBGEBBBJ@?$AAD?$AAi?$AAr?$AAe?$AAc?$AAt?$AAI?$AAO?$AAE?$AAv?$AAe?$AAn?$AAt@ 0000000180026e40     CashChanger.obj
 0002:00000e60       ??_C@_1BE@IEBMACEM@?$AAD?$AAa?$AAt?$AAa?$AAE?$AAv?$AAe?$AAn?$AAt@ 0000000180026e60     CashChanger.obj
 0002:00000e78       _GUID_b196b286_bab4_101a_b69c_00aa00341d07 0000000180026e78     CashChanger.obj
 0002:00000e88       ??_C@_1BC@ENICKDH@?$AAC?$AAo?$AAn?$AAt?$AAe?$AAn?$AAt?$AAs@ 0000000180026e88     CashChanger.obj
 0002:00000ea0       ??_7?$CComObject@V?$CComEnum@UIEnumConnectionPoints@@$1?_GUID_b196b285_bab4_101a_b69c_00aa00341d07@@3U__s_GUID@@BPEAUIConnectionPoint@@V?$_CopyInterface@UIConnectionPoint@@@ATL@@VCComSingleThreadModel@6@@ATL@@@ATL@@6B@ 0000000180026ea0     CashChanger.obj
 0002:00000ee0       ??_C@_1M@KANJNLFF@?$AAC?$AAL?$AAS?$AAI?$AAD@ 0000000180026ee0     CashChanger.obj
 0002:00000ef0       ??_C@_1M@EJNEECMJ@?$AAA?$AAp?$AAp?$AAI?$AAD@ 0000000180026ef0     CashChanger.obj
 0002:00000f00       _GUID_0000010e_0000_0000_c000_000000000046 0000000180026f00     CashChanger.obj
 0002:00000f10       ?rgszNeverDelete@CRegParser@ATL@@1QBQEB_WB 0000000180026f10     CashChanger.obj
 0002:00000f70       _GUID_b196b288_bab4_101a_b69c_00aa00341d07 0000000180026f70     CashChanger.obj
 0002:00000f80       ??_7CRegObject@ATL@@6B@    0000000180026f80     CashChanger.obj
 0002:00000fb0       _GUID_00000113_0000_0000_c000_000000000046 0000000180026fb0     CashChanger.obj
 0002:00000fc0       ??_C@_1CK@OEKPKBNA@?$AAC?$AAo?$AAm?$AAp?$AAo?$AAn?$AAe?$AAn?$AAt?$AA?5?$AAC?$AAa?$AAt?$AAe?$AAg@ 0000000180026fc0     CashChanger.obj
 0002:00000ff0       ??_C@_1BC@NKMMNMGL@?$AAF?$AAi?$AAl?$AAe?$AAT?$AAy?$AAp?$AAe@ 0000000180026ff0     CashChanger.obj
 0002:00001008       ??_C@_1BE@EKPAFMCP@?$AAI?$AAn?$AAt?$AAe?$AAr?$AAf?$AAa?$AAc?$AAe@ 0000000180027008     CashChanger.obj
 0002:00001020       ??_C@_1BC@MAICEHGI@?$AAH?$AAa?$AAr?$AAd?$AAw?$AAa?$AAr?$AAe@ 0000000180027020     CashChanger.obj
 0002:00001038       ??_C@_19HLLLM@?$AAM?$AAi?$AAm?$AAe@ 0000000180027038     CashChanger.obj
 0002:00001048       ??_C@_17OMAOINJK@?$AAS?$AAA?$AAM@ 0000000180027048     CashChanger.obj
 0002:00001050       ??_C@_1BC@IBECJAAI@?$AAS?$AAE?$AAC?$AAU?$AAR?$AAI?$AAT?$AAY@ 0000000180027050     CashChanger.obj
 0002:00001068       ??_C@_1O@GBFINDKL@?$AAS?$AAY?$AAS?$AAT?$AAE?$AAM@ 0000000180027068     CashChanger.obj
 0002:00001078       ??_C@_1BC@EAHCMADO@?$AAS?$AAo?$AAf?$AAt?$AAw?$AAa?$AAr?$AAe@ 0000000180027078     CashChanger.obj
 0002:00001090       ??_C@_1BA@JIHHIEDE@?$AAT?$AAy?$AAp?$AAe?$AAL?$AAi?$AAb@ 0000000180027090     CashChanger.obj
 0002:000010a0       _GUID_1c2056cc_5ef4_101b_8bc8_00aa003e3b29 00000001800270a0     CashChanger.obj
 0002:000010b0       ?map@?1??HKeyFromString@CRegParser@ATL@@KAPEAUHKEY__@@PEA_W@Z@4QBUkeymap@?1??123@KAPEAU4@0@Z@B 00000001800270b0     CashChanger.obj
 0002:00001190       ??_C@_19NCHLBIN@?$AAH?$AAK?$AAC?$AAR@ 0000000180027190     CashChanger.obj
 0002:000011a0       ??_C@_19JAPAIJDE@?$AAH?$AAK?$AAC?$AAU@ 00000001800271a0     CashChanger.obj
 0002:000011b0       ??_C@_19PEALEEJB@?$AAH?$AAK?$AAL?$AAM@ 00000001800271b0     CashChanger.obj
 0002:000011c0       ??_C@_17PJOJPMPB@?$AAH?$AAK?$AAU@ 00000001800271c0     CashChanger.obj
 0002:000011c8       ??_C@_19PNBHMJPL@?$AAH?$AAK?$AAP?$AAD@ 00000001800271c8     CashChanger.obj
 0002:000011d8       ??_C@_19GFFAIJHG@?$AAH?$AAK?$AAD?$AAD@ 00000001800271d8     CashChanger.obj
 0002:000011e8       ??_C@_19OFICIBHH@?$AAH?$AAK?$AAC?$AAC@ 00000001800271e8     CashChanger.obj
 0002:000011f8       ??_C@_1CE@PACHPJFI@?$AAH?$AAK?$AAE?$AAY?$AA_?$AAC?$AAL?$AAA?$AAS?$AAS?$AAE?$AAS?$AA_?$AAR?$AAO@ 00000001800271f8     CashChanger.obj
 0002:00001220       ??_C@_1CE@HLHNCBPM@?$AAH?$AAK?$AAE?$AAY?$AA_?$AAC?$AAU?$AAR?$AAR?$AAE?$AAN?$AAT?$AA_?$AAU?$AAS@ 0000000180027220     CashChanger.obj
 0002:00001248       ??_C@_1CG@GFBEANJL@?$AAH?$AAK?$AAE?$AAY?$AA_?$AAL?$AAO?$AAC?$AAA?$AAL?$AA_?$AAM?$AAA?$AAC?$AAH@ 0000000180027248     CashChanger.obj
 0002:00001270       ??_C@_1BG@BGODANIO@?$AAH?$AAK?$AAE?$AAY?$AA_?$AAU?$AAS?$AAE?$AAR?$AAS@ 0000000180027270     CashChanger.obj
 0002:00001288       ??_C@_1CM@KHNNAOIC@?$AAH?$AAK?$AAE?$AAY?$AA_?$AAP?$AAE?$AAR?$AAF?$AAO?$AAR?$AAM?$AAA?$AAN?$AAC@ 0000000180027288     CashChanger.obj
 0002:000012b8       ??_C@_1BM@HAGMMHIA@?$AAH?$AAK?$AAE?$AAY?$AA_?$AAD?$AAY?$AAN?$AA_?$AAD?$AAA?$AAT?$AAA@ 00000001800272b8     CashChanger.obj
 0002:000012d8       ??_C@_1CI@BBJOACGG@?$AAH?$AAK?$AAE?$AAY?$AA_?$AAC?$AAU?$AAR?$AAR?$AAE?$AAN?$AAT?$AA_?$AAC?$AAO@ 00000001800272d8     CashChanger.obj
 0002:00001300       _GUID_00000109_0000_0000_c000_000000000046 0000000180027300     CashChanger.obj
 0002:00001310       _GUID_7fd52380_4e07_101b_ae2d_08002b2ec713 0000000180027310     CashChanger.obj
 0002:00001320       _GUID_00000112_0000_0000_c000_000000000046 0000000180027320     CashChanger.obj
 0002:00001330       ??_C@_1EA@NHKLICFA@?$AAH?$AAK?$AAC?$AAU?$AA?$AN?$AA?6?$AA?$HL?$AA?7?$AAS?$AAo?$AAf?$AAt?$AAw?$AAa?$AAr@ 0000000180027330     CashChanger.obj
 0002:00001370       ??_C@_1BE@LJOLIMEM@?$AA?$AN?$AA?6?$AA?7?$AA?$HN?$AA?$AN?$AA?6?$AA?$HN?$AA?$AN?$AA?6@ 0000000180027370     CashChanger.obj
 0002:00001388       _GUID_3af24292_0c96_11ce_a0cf_00aa00600ab8 0000000180027388     CashChanger.obj
 0002:00001398       _GUID_00000127_0000_0000_c000_000000000046 0000000180027398     CashChanger.obj
 0002:000013a8       _GUID_0000010d_0000_0000_c000_000000000046 00000001800273a8     CashChanger.obj
 0002:000013b8       ??_C@_1O@MNLDABAF@?$AAM?$AAo?$AAd?$AAu?$AAl?$AAe@ 00000001800273b8     CashChanger.obj
 0002:000013c8       ??_C@_1BG@JBACFMF@?$AAM?$AAo?$AAd?$AAu?$AAl?$AAe?$AA_?$AAR?$AAa?$AAw@ 00000001800273c8     CashChanger.obj
 0002:000013e0       ??_C@_1BC@KAILKFFG@?$AAR?$AAE?$AAG?$AAI?$AAS?$AAT?$AAR?$AAY@ 00000001800273e0     CashChanger.obj
 0002:000013f8       ??_C@_1M@PPPPCDEP@?$AAA?$AAP?$AAP?$AAI?$AAD@ 00000001800273f8     CashChanger.obj
 0002:00001408       ??_7?$CComContainedObject@VCOPOSCashChanger@@@ATL@@6B?$IDispatchImpl@UIOPOSCashChanger@@$1?IID_IOPOSCashChanger@@3U_GUID@@B$1?LIBID_OposCashChanger_CCO@@3U3@B$00$0A@VCComTypeInfoHolder@ATL@@@1@@ 0000000180027408     CashChanger.obj
 0002:00001718       ??_7?$CComContainedObject@VCOPOSCashChanger@@@ATL@@6BCComControlBase@1@@ 0000000180027718     CashChanger.obj
 0002:00001740       ??_7?$CComContainedObject@VCOPOSCashChanger@@@ATL@@6B?$CWindowImpl@VCOPOSCashChanger@@VCWindow@ATL@@V?$CWinTraits@$0FGAAAAAA@$0A@@3@@1@@ 0000000180027740     CashChanger.obj
 0002:00001760       ??_7?$CComContainedObject@VCOPOSCashChanger@@@ATL@@6B?$IPersistStreamInitImpl@VCOPOSCashChanger@@@1@@ 0000000180027760     CashChanger.obj
 0002:000017a8       ??_7?$CComContainedObject@VCOPOSCashChanger@@@ATL@@6B?$IOleControlImpl@VCOPOSCashChanger@@@1@@ 00000001800277a8     CashChanger.obj
 0002:000017e0       ??_7?$CComContainedObject@VCOPOSCashChanger@@@ATL@@6B?$IOleObjectImpl@VCOPOSCashChanger@@@1@@ 00000001800277e0     CashChanger.obj
 0002:000018a0       ??_7?$CComContainedObject@VCOPOSCashChanger@@@ATL@@6B?$IOleInPlaceActiveObjectImpl@VCOPOSCashChanger@@@1@@ 00000001800278a0     CashChanger.obj
 0002:000018f0       ??_7?$CComContainedObject@VCOPOSCashChanger@@@ATL@@6B?$IViewObjectExImpl@VCOPOSCashChanger@@@1@@ 00000001800278f0     CashChanger.obj
 0002:00001968       ??_7?$CComContainedObject@VCOPOSCashChanger@@@ATL@@6B?$IOleInPlaceObjectWindowlessImpl@VCOPOSCashChanger@@@1@@ 0000000180027968     CashChanger.obj
 0002:000019c0       ??_7?$CComContainedObject@VCOPOSCashChanger@@@ATL@@6B?$IConnectionPointContainerImpl@VCOPOSCashChanger@@@1@@ 00000001800279c0     CashChanger.obj
 0002:000019e8       ??_7?$CComContainedObject@VCOPOSCashChanger@@@ATL@@6B?$IPersistStorageImpl@VCOPOSCashChanger@@@1@@ 00000001800279e8     CashChanger.obj
 0002:00001a38       ??_7?$CComContainedObject@VCOPOSCashChanger@@@ATL@@6B?$ISpecifyPropertyPagesImpl@VCOPOSCashChanger@@@1@@ 0000000180027a38     CashChanger.obj
 0002:00001a58       ??_7?$CComContainedObject@VCOPOSCashChanger@@@ATL@@6B?$IQuickActivateImpl@VCOPOSCashChanger@@@1@@ 0000000180027a58     CashChanger.obj
 0002:00001a88       ??_7?$CComContainedObject@VCOPOSCashChanger@@@ATL@@6B?$IDataObjectImpl@VCOPOSCashChanger@@@1@@ 0000000180027a88     CashChanger.obj
 0002:00001ae8       ??_7?$CComContainedObject@VCOPOSCashChanger@@@ATL@@6B?$IProvideClassInfo2Impl@$1?CLSID_OPOSCashChanger@@3U_GUID@@B$1?DIID__IOPOSCashChangerEvents@@3U2@B$1?LIBID_OposCashChanger_CCO@@3U2@B$00$0A@VCComTypeInfoHolder@ATL@@@1@@ 0000000180027ae8     CashChanger.obj
 0002:00001b10       ??_7?$CComContainedObject@VCOPOSCashChanger@@@ATL@@6B?$IObjectSafetyImpl@VCOPOSCashChanger@@$02@1@@ 0000000180027b10     CashChanger.obj
 0002:00001b40       ??_7?$CComContainedObject@VCOPOSCashChanger@@@ATL@@6B?$IPropertyNotifySinkCP@VCOPOSCashChanger@@VCComDynamicUnkArray@ATL@@@1@@ 0000000180027b40     CashChanger.obj
 0002:00001b80       ??_7?$CComContainedObject@VCOPOSCashChanger@@@ATL@@6B?$CProxy_IOPOSEvents@VCOPOSCashChanger@@@@@ 0000000180027b80     CashChanger.obj
 0002:00001bc0       ??_7?$CComAggObject@VCOPOSCashChanger@@@ATL@@6B@ 0000000180027bc0     CashChanger.obj
 0002:00001be0       ??_7?$CComObject@VCOPOSCashChanger@@@ATL@@6B?$IDispatchImpl@UIOPOSCashChanger@@$1?IID_IOPOSCashChanger@@3U_GUID@@B$1?LIBID_OposCashChanger_CCO@@3U3@B$00$0A@VCComTypeInfoHolder@ATL@@@1@@ 0000000180027be0     CashChanger.obj
 0002:00001ef0       ??_7?$CComObject@VCOPOSCashChanger@@@ATL@@6BCComControlBase@1@@ 0000000180027ef0     CashChanger.obj
 0002:00001f18       ??_7?$CComObject@VCOPOSCashChanger@@@ATL@@6B?$CWindowImpl@VCOPOSCashChanger@@VCWindow@ATL@@V?$CWinTraits@$0FGAAAAAA@$0A@@3@@1@@ 0000000180027f18     CashChanger.obj
 0002:00001f38       ??_7?$CComObject@VCOPOSCashChanger@@@ATL@@6B?$IPersistStreamInitImpl@VCOPOSCashChanger@@@1@@ 0000000180027f38     CashChanger.obj
 0002:00001f80       ??_7?$CComObject@VCOPOSCashChanger@@@ATL@@6B?$IOleControlImpl@VCOPOSCashChanger@@@1@@ 0000000180027f80     CashChanger.obj
 0002:00001fb8       ??_7?$CComObject@VCOPOSCashChanger@@@ATL@@6B?$IOleObjectImpl@VCOPOSCashChanger@@@1@@ 0000000180027fb8     CashChanger.obj
 0002:00002078       ??_7?$CComObject@VCOPOSCashChanger@@@ATL@@6B?$IOleInPlaceActiveObjectImpl@VCOPOSCashChanger@@@1@@ 0000000180028078     CashChanger.obj
 0002:000020c8       ??_7?$CComObject@VCOPOSCashChanger@@@ATL@@6B?$IViewObjectExImpl@VCOPOSCashChanger@@@1@@ 00000001800280c8     CashChanger.obj
 0002:00002140       ??_7?$CComObject@VCOPOSCashChanger@@@ATL@@6B?$IOleInPlaceObjectWindowlessImpl@VCOPOSCashChanger@@@1@@ 0000000180028140     CashChanger.obj
 0002:00002198       ??_7?$CComObject@VCOPOSCashChanger@@@ATL@@6B?$IConnectionPointContainerImpl@VCOPOSCashChanger@@@1@@ 0000000180028198     CashChanger.obj
 0002:000021c0       ??_7?$CComObject@VCOPOSCashChanger@@@ATL@@6B?$IPersistStorageImpl@VCOPOSCashChanger@@@1@@ 00000001800281c0     CashChanger.obj
 0002:00002210       ??_7?$CComObject@VCOPOSCashChanger@@@ATL@@6B?$ISpecifyPropertyPagesImpl@VCOPOSCashChanger@@@1@@ 0000000180028210     CashChanger.obj
 0002:00002230       ??_7?$CComObject@VCOPOSCashChanger@@@ATL@@6B?$IQuickActivateImpl@VCOPOSCashChanger@@@1@@ 0000000180028230     CashChanger.obj
 0002:00002260       ??_7?$CComObject@VCOPOSCashChanger@@@ATL@@6B?$IDataObjectImpl@VCOPOSCashChanger@@@1@@ 0000000180028260     CashChanger.obj
 0002:000022c0       ??_7?$CComObject@VCOPOSCashChanger@@@ATL@@6B?$IProvideClassInfo2Impl@$1?CLSID_OPOSCashChanger@@3U_GUID@@B$1?DIID__IOPOSCashChangerEvents@@3U2@B$1?LIBID_OposCashChanger_CCO@@3U2@B$00$0A@VCComTypeInfoHolder@ATL@@@1@@ 00000001800282c0     CashChanger.obj
 0002:000022e8       ??_7?$CComObject@VCOPOSCashChanger@@@ATL@@6B?$IObjectSafetyImpl@VCOPOSCashChanger@@$02@1@@ 00000001800282e8     CashChanger.obj
 0002:00002318       ??_7?$CComObject@VCOPOSCashChanger@@@ATL@@6B?$IPropertyNotifySinkCP@VCOPOSCashChanger@@VCComDynamicUnkArray@ATL@@@1@@ 0000000180028318     CashChanger.obj
 0002:00002358       ??_7?$CComObject@VCOPOSCashChanger@@@ATL@@6B?$CProxy_IOPOSEvents@VCOPOSCashChanger@@@@@ 0000000180028358     CashChanger.obj
 0002:00002398       ??_C@_1O@GBFKGNEO@?$AAA?$AAT?$AAL?$AA?3?$AA?$CF?$AAp@ 0000000180028398     CashChanger.obj
 0002:000023a8       ??_C@_1BA@PICGEGJB@?$AAD?$AAI?$AAS?$AAP?$AAL?$AAA?$AAY@ 00000001800283a8     CashChanger.obj
 0002:000023b8       _GUID_b196b284_bab4_101a_b69c_00aa00341d07 00000001800283b8     CashChanger.obj
 0002:000023c8       _GUID_9bfbbc02_eff1_101a_84ed_00aa00341d07 00000001800283c8     CashChanger.obj
 0002:000023d8       ?_entries@?1??_GetEntries@?$CComEnum@UIEnumConnectionPoints@@$1?_GUID_b196b285_bab4_101a_b69c_00aa00341d07@@3U__s_GUID@@BPEAUIConnectionPoint@@V?$_CopyInterface@UIConnectionPoint@@@ATL@@VCComSingleThreadModel@6@@ATL@@SAPEBU_ATL_INTMAP_ENTRY@3@XZ@4QBU43@B 00000001800283d8     CashChanger.obj
 0002:00002408       _GUID_00020412_0000_0000_c000_000000000046 0000000180028408     CashChanger.obj
 0002:00002418       _GUID_00020401_0000_0000_c000_000000000046 0000000180028418     CashChanger.obj
 0002:00002428       ??_C@_0BG@EKFFMJIO@RegOpenKeyTransactedW@ 0000000180028428     CashChanger.obj
 0002:00002440       ??_C@_0BI@HAKLOOGP@RegDeleteKeyTransactedW@ 0000000180028440     CashChanger.obj
 0002:00002458       ??_C@_0BA@LILAPHGE@RegDeleteKeyExW@ 0000000180028458     CashChanger.obj
 0002:00002468       ??_C@_19ILOCMLCJ@?$AA?4?$AAt?$AAl?$AAb@ 0000000180028468     CashChanger.obj
 0002:00002478       _GUID_0002e012_0000_0000_c000_000000000046 0000000180028478     CashChanger.obj
 0002:00002488       ??_C@_1O@FHBGLCIO@?$AAC?$AAL?$AAS?$AAI?$AAD?$AA?2@ 0000000180028488     CashChanger.obj
 0002:00002498       ??_C@_1CK@IFBKBFAA@?$AA?2?$AAR?$AAe?$AAq?$AAu?$AAi?$AAr?$AAe?$AAd?$AA?5?$AAC?$AAa?$AAt?$AAe?$AAg@ 0000000180028498     CashChanger.obj
 0002:000024c8       ??_C@_1DA@BIHALFED@?$AA?2?$AAI?$AAm?$AAp?$AAl?$AAe?$AAm?$AAe?$AAn?$AAt?$AAe?$AAd?$AA?5?$AAC?$AAa@ 00000001800284c8     CashChanger.obj
 0002:000024f8       ??_C@_1BK@EDKOLFBJ@?$AAO?$AAL?$AAE?$AAA?$AAU?$AAT?$AA3?$AA2?$AA?4?$AAD?$AAL?$AAL@ 00000001800284f8     CashChanger.obj
 0002:00002518       ??_C@_0BJ@CNLFOMHB@UnRegisterTypeLibForUser@ 0000000180028518     CashChanger.obj
 0002:00002538       ??_C@_0BH@LBOMMKPJ@RegisterTypeLibForUser@ 0000000180028538     CashChanger.obj
 0002:00002550       ??_C@_0P@MMNMMLGK@COFreezeEvents@ 0000000180028550     CashChangerImpl.obj
 0002:00002560       ??_C@_0BC@OGCGGIMP@GetPropertyNumber@ 0000000180028560     CashChangerImpl.obj
 0002:00002578       ??_C@_0BC@MDCNODNB@SetPropertyNumber@ 0000000180028578     CashChangerImpl.obj
 0002:00002590       ??_C@_0BC@CFCCMIMD@GetPropertyString@ 0000000180028590     CashChangerImpl.obj
 0002:000025a8       ??_C@_0BC@CJEDNN@SetPropertyString@ 00000001800285a8     CashChangerImpl.obj
 0002:000025c0       ??_C@_0M@LNPKKKDA@OpenService@ 00000001800285c0     CashChangerImpl.obj
 0002:000025d0       ??_C@_0M@PCMCHHMH@CheckHealth@ 00000001800285d0     CashChangerImpl.obj
 0002:000025e0       ??_C@_0M@JGMIDNEK@ClaimDevice@ 00000001800285e0     CashChangerImpl.obj
 0002:000025f0       ??_C@_0N@DDFIIBMP@CloseService@ 00000001800285f0     CashChangerImpl.obj
 0002:00002600       ??_C@_08EEIHICPC@DirectIO@ 0000000180028600     CashChangerImpl.obj
 0002:00002610       ??_C@_0O@BCPMENMJ@ReleaseDevice@ 0000000180028610     CashChangerImpl.obj
 0002:00002620       ??_C@_0N@JILLACNH@DispenseCash@ 0000000180028620     CashChangerImpl.obj
 0002:00002630       ??_C@_0P@GNCBCCPO@DispenseChange@ 0000000180028630     CashChangerImpl.obj
 0002:00002640       ??_C@_0P@HELDJPLA@ReadCashCounts@ 0000000180028640     CashChangerImpl.obj
 0002:00002650       ??_C@_0L@BNEIFEJC@ClearInput@ 0000000180028650     CashChangerImpl.obj
 0002:00002660       ??_C@_0N@EMNBHBJF@BeginDeposit@ 0000000180028660     CashChangerImpl.obj
 0002:00002670       ??_C@_0L@OMAABOPC@EndDeposit@ 0000000180028670     CashChangerImpl.obj
 0002:00002680       ??_C@_0L@NNMKNCOP@FixDeposit@ 0000000180028680     CashChangerImpl.obj
 0002:00002690       ??_C@_0N@NPMPKLIN@PauseDeposit@ 0000000180028690     CashChangerImpl.obj
 0002:000026a0       ??_C@_0BA@GFABKEEE@ResetStatistics@ 00000001800286a0     CashChangerImpl.obj
 0002:000026b0       ??_C@_0BD@DPALHJGC@RetrieveStatistics@ 00000001800286b0     CashChangerImpl.obj
 0002:000026c8       ??_C@_0BB@KOHIKNFC@UpdateStatistics@ 00000001800286c8     CashChangerImpl.obj
 0002:000026e0       ??_C@_0BH@PBKBNMGB@CompareFirmwareVersion@ 00000001800286e0     CashChangerImpl.obj
 0002:000026f8       ??_C@_0P@FBPDPIPA@UpdateFirmware@ 00000001800286f8     CashChangerImpl.obj
 0002:00002708       ??_C@_0BB@OAMAKNAK@AdjustCashCounts@ 0000000180028708     CashChangerImpl.obj
 0002:00002720       ??_7?$CProxy_IOPOSEvents@VCOPOSCashChanger@@@@6B@ 0000000180028720     CashChangerImpl.obj
 0002:00002760       ??_C@_1BA@IFHENID@?$AA?$FL?$AAE?$AAr?$AAr?$AAo?$AAr?$AA?$FN@ 0000000180028760     CashChangerImpl.obj
 0002:00002770       ??_C@_0CO@MKBAPLOJ@SOFTWARE?2OLEforRetail?2ServiceOP@ 0000000180028770     CashChangerImpl.obj
 0002:000027a0       ??_C@_1M@IAIJHCCH@?$AAC?$AAl?$AAo?$AAs?$AAe@ 00000001800287a0     CashChangerImpl.obj
 0002:000027b0       ??_C@_1M@PCPKGJAH@?$AAC?$AAl?$AAa?$AAi?$AAm@ 00000001800287b0     CashChangerImpl.obj
 0002:000027c0       ??_C@_1BA@NDFKIOCP@?$AAR?$AAe?$AAl?$AAe?$AAa?$AAs?$AAe@ 00000001800287c0     CashChangerImpl.obj
 0002:000027d0       ??_C@_0M@KHENAHBF@CashChanger@ 00000001800287d0     CashChangerImpl.obj
 0002:000027e0       ??_C@_1BM@IJMNMBPK@?$AAG?$AAe?$AAt?$AAO?$AAp?$AAe?$AAn?$AAR?$AAe?$AAs?$AAu?$AAl?$AAt@ 00000001800287e0     CashChangerImpl.obj
 0002:00002800       IID_IDispatch              0000000180028800     uuid:oaidl_i.obj
 0002:00002810       IID_IPropertyNotifySink    0000000180028810     uuid:ocidl_i.obj
 0002:00002820       GUID_NULL                  0000000180028820     uuid:cguid_i.obj
 0002:00002830       CLSID_StdGlobalInterfaceTable 0000000180028830     uuid:cguid_i.obj
 0002:00002840       CLSID_StdComponentCategoriesMgr 0000000180028840     uuid:ieguids.obj
 0002:00002850       IID_IUnknown               0000000180028850     uuid:unknwn_i.obj
 0002:00002860       __xmm@ffffffffffffffffffffffffffffffff 0000000180028860     LIBCMT:utility.obj
 0002:00002870       ??_C@_1EC@JIJBPKFM@?$AAa?$AAp?$AAi?$AA?9?$AAm?$AAs?$AA?9?$AAw?$AAi?$AAn?$AA?9?$AAc?$AAo?$AAr?$AAe@ 0000000180028870     LIBCMT:thread_safe_statics.obj
 0002:000028b8       ??_C@_1BK@MGMFAEKH@?$AAk?$AAe?$AAr?$AAn?$AAe?$AAl?$AA3?$AA2?$AA?4?$AAd?$AAl?$AAl@ 00000001800288b8     LIBCMT:thread_safe_statics.obj
 0002:000028d8       ??_C@_0BJ@JEBJOJFJ@SleepConditionVariableCS@ 00000001800288d8     LIBCMT:thread_safe_statics.obj
 0002:000028f8       ??_C@_0BJ@PGPPEPCC@WakeAllConditionVariable@ 00000001800288f8     LIBCMT:thread_safe_statics.obj
 0002:00002911       ?nothrow@std@@3Unothrow_t@1@B 0000000180028911     LIBCMT:std_nothrow.obj
 0002:00002928       _pDefaultRawDllMain        0000000180028928     LIBCMT:dll_dllmain.obj
 0002:00002928       _pRawDllMain               0000000180028928     LIBCMT:dll_dllmain.obj
 0002:00002938       ??_7exception@std@@6B@     0000000180028938     LIBCMT:throw_bad_alloc.obj
 0002:00002948       ??_C@_0BC@EOODALEL@Unknown?5exception@ 0000000180028948     LIBCMT:throw_bad_alloc.obj
 0002:00002968       ??_7bad_alloc@std@@6B@     0000000180028968     LIBCMT:throw_bad_alloc.obj
 0002:00002978       ??_C@_0P@GHFPNOJB@bad?5allocation@ 0000000180028978     LIBCMT:throw_bad_alloc.obj
 0002:00002990       ??_7bad_array_new_length@std@@6B@ 0000000180028990     LIBCMT:throw_bad_alloc.obj
 0002:000029a0       ??_C@_0BF@KINCDENJ@bad?5array?5new?5length@ 00000001800289a0     LIBCMT:throw_bad_alloc.obj
 0002:000029c0       ??_7type_info@@6B@         00000001800289c0     LIBCMT:std_type_info_static.obj
 0002:000029c8       GUID_ATLVer110             00000001800289c8     atls:atlbase.obj
 0002:000029e0       ??_C@_1IC@ONKHOIDK@?$AAE?$AAR?$AAR?$AAO?$AAR?$AA?5?$AA?3?$AA?5?$AAU?$AAn?$AAa?$AAb?$AAl?$AAe?$AA?5@ 00000001800289e0     atls:atlbase.obj
 0002:00002a68       ??_C@_0N@FJEPLCIH@atlthunk?4dll@ 0000000180028a68     atls:atlthunk.obj
 0002:00002a78       ??_C@_0BG@GAKFHCBM@AtlThunk_AllocateData@ 0000000180028a78     atls:atlthunk.obj
 0002:00002a90       ??_C@_0BC@JKONFIAH@AtlThunk_InitData@ 0000000180028a90     atls:atlthunk.obj
 0002:00002aa8       ??_C@_0BE@IAOEELAK@AtlThunk_DataToCode@ 0000000180028aa8     atls:atlthunk.obj
 0002:00002ac0       ??_C@_0BC@GBGKAIPI@AtlThunk_FreeData@ 0000000180028ac0     atls:atlthunk.obj
 0002:00002ad8       ?s_negLengthTab@FH4@@3QBCB 0000000180028ad8     libvcruntime:risctrnsctrl.obj
 0002:00002ae8       ?s_shiftTab@FH4@@3QBEB     0000000180028ae8     libvcruntime:risctrnsctrl.obj
 0002:00002c38       _pDestructExceptionObject  0000000180028c38     libvcruntime:ehhelpers.obj
 0002:00002c48       ??_7bad_exception@std@@6B@ 0000000180028c48     libvcruntime:frame.obj
 0002:00002c58       ??_C@_0O@DPKOEFFH@bad?5exception@ 0000000180028c58     libvcruntime:frame.obj
 0002:00003380       ??_C@_08EHJDFFNH@__based?$CI@ 0000000180029380     libvcruntime:undname.obj
 0002:00003390       ??_C@_07KOLFKCDI@__cdecl@  0000000180029390     libvcruntime:undname.obj
 0002:00003398       ??_C@_08GHMPAG@__pascal@   0000000180029398     libvcruntime:undname.obj
 0002:000033a8       ??_C@_09IFJBGAPI@__stdcall@ 00000001800293a8     libvcruntime:undname.obj
 0002:000033b8       ??_C@_0L@NPHFGOKO@__thiscall@ 00000001800293b8     libvcruntime:undname.obj
 0002:000033c8       ??_C@_0L@JMKHOMEK@__fastcall@ 00000001800293c8     libvcruntime:undname.obj
 0002:000033d8       ??_C@_0N@BCKKPABJ@__vectorcall@ 00000001800293d8     libvcruntime:undname.obj
 0002:000033e8       ??_C@_09HIJEGCPM@__clrcall@ 00000001800293e8     libvcruntime:undname.obj
 0002:000033f4       ??_C@_06GHPCKEAG@__eabi@   00000001800293f4     libvcruntime:undname.obj
 0002:00003400       ??_C@_09IOPIDJLG@__swift_1@ 0000000180029400     libvcruntime:undname.obj
 0002:00003410       ??_C@_09KFNFGKHF@__swift_2@ 0000000180029410     libvcruntime:undname.obj
 0002:00003420       ??_C@_09LMMOFLDE@__swift_3@ 0000000180029420     libvcruntime:undname.obj
 0002:00003430       ??_C@_07JOMMBBKO@__ptr64@  0000000180029430     libvcruntime:undname.obj
 0002:00003438       ??_C@_0L@PILCLIHE@__restrict@ 0000000180029438     libvcruntime:undname.obj
 0002:00003448       ??_C@_0M@GFIIJFMG@__unaligned@ 0000000180029448     libvcruntime:undname.obj
 0002:00003458       ??_C@_09DHDLOLLB@restrict?$CI@ 0000000180029458     libvcruntime:undname.obj
 0002:00003462       ??_C@_00CNPNBAHC@@         0000000180029462     libvcruntime:undname.obj
 0002:00003464       ??_C@_04NIHEBCM@?5new@     0000000180029464     libvcruntime:undname.obj
 0002:00003470       ??_C@_07FPCDHGMM@?5delete@ 0000000180029470     libvcruntime:undname.obj
 0002:00003478       ??_C@_01NEMOKFLO@?$DN@     0000000180029478     libvcruntime:undname.obj
 0002:0000347c       ??_C@_02GPIOPFAK@?$DO?$DO@ 000000018002947c     libvcruntime:undname.obj
 0002:00003480       ??_C@_02FODMEDOG@?$DM?$DM@ 0000000180029480     libvcruntime:undname.obj
 0002:00003484       ??_C@_01DCLJPIOD@?$CB@     0000000180029484     libvcruntime:undname.obj
 0002:00003488       ??_C@_02EGOFBIJA@?$DN?$DN@ 0000000180029488     libvcruntime:undname.obj
 0002:0000348c       ??_C@_02FDNJECIE@?$CB?$DN@ 000000018002948c     libvcruntime:undname.obj
 0002:00003490       ??_C@_02GPECMEKF@?$FL?$FN@ 0000000180029490     libvcruntime:undname.obj
 0002:00003498       ??_C@_08LHJFAFGD@operator@ 0000000180029498     libvcruntime:undname.obj
 0002:000034a4       ??_C@_02HBOOOICD@?9?$DO@   00000001800294a4     libvcruntime:undname.obj
 0002:000034a8       ??_C@_01NBENCBCI@?$CK@     00000001800294a8     libvcruntime:undname.obj
 0002:000034ac       ??_C@_02ECNGHCIF@?$CL?$CL@ 00000001800294ac     libvcruntime:undname.obj
 0002:000034b0       ??_C@_02BAABKJLB@?9?9@     00000001800294b0     libvcruntime:undname.obj
 0002:000034b4       ??_C@_01JOAMLHOP@?9@       00000001800294b4     libvcruntime:undname.obj
 0002:000034b8       ??_C@_01MIFGBAGJ@?$CL@     00000001800294b8     libvcruntime:undname.obj
 0002:000034bc       ??_C@_01HNPIGOCE@?$CG@     00000001800294bc     libvcruntime:undname.obj
 0002:000034c0       ??_C@_03MNHNFDLC@?9?$DO?$CK@ 00000001800294c0     libvcruntime:undname.obj
 0002:000034c4       ??_C@_01KMDKNFGN@?1@       00000001800294c4     libvcruntime:undname.obj
 0002:000034c8       ??_C@_01FGNFDNOH@?$CF@     00000001800294c8     libvcruntime:undname.obj
 0002:000034cc       ??_C@_01MNNFJEPP@?$DM@     00000001800294cc     libvcruntime:undname.obj
 0002:000034d0       ??_C@_02EHCHHCKH@?$DM?$DN@ 00000001800294d0     libvcruntime:undname.obj
 0002:000034d4       ??_C@_01PPODPGHN@?$DO@     00000001800294d4     libvcruntime:undname.obj
 0002:000034d8       ??_C@_02EEKDKGMJ@?$DO?$DN@ 00000001800294d8     libvcruntime:undname.obj
 0002:000034dc       ??_C@_01IHBHIGKO@?0@       00000001800294dc     libvcruntime:undname.obj
 0002:000034e0       ??_C@_02HCKGKOFO@?$CI?$CJ@ 00000001800294e0     libvcruntime:undname.obj
 0002:000034e4       ??_C@_01PJKLJHI@?$HO@      00000001800294e4     libvcruntime:undname.obj
 0002:000034e8       ??_C@_01JKBOJNNK@?$FO@     00000001800294e8     libvcruntime:undname.obj
 0002:000034ec       ??_C@_01DNKMNLPK@?$HM@     00000001800294ec     libvcruntime:undname.obj
 0002:000034f0       ??_C@_02PPKAJPJL@?$CG?$CG@ 00000001800294f0     libvcruntime:undname.obj
 0002:000034f4       ??_C@_02NONPIBCD@?$HM?$HM@ 00000001800294f4     libvcruntime:undname.obj
 0002:000034f8       ??_C@_02FPIMKNGF@?$CK?$DN@ 00000001800294f8     libvcruntime:undname.obj
 0002:000034fc       ??_C@_02FOEOMHFC@?$CL?$DN@ 00000001800294fc     libvcruntime:undname.obj
 0002:00003500       ??_C@_02FKMDLLOA@?9?$DN@   0000000180029500     libvcruntime:undname.obj
 0002:00003504       ??_C@_02FJEHGPIO@?1?$DN@   0000000180029504     libvcruntime:undname.obj
 0002:00003508       ??_C@_02FENAOKFI@?$CF?$DN@ 0000000180029508     libvcruntime:undname.obj
 0002:0000350c       ??_C@_03IKFCCPFF@?$DO?$DO?$DN@ 000000018002950c     libvcruntime:undname.obj
 0002:00003510       ??_C@_03CDNPDDLA@?$DM?$DM?$DN@ 0000000180029510     libvcruntime:undname.obj
 0002:00003514       ??_C@_02FGJGFEAB@?$CG?$DN@ 0000000180029514     libvcruntime:undname.obj
 0002:00003518       ??_C@_02DHLNPPGH@?$HM?$DN@ 0000000180029518     libvcruntime:undname.obj
 0002:0000351c       ??_C@_02MHEGNOJ@?$FO?$DN@  000000018002951c     libvcruntime:undname.obj
 0002:00003520       ??_C@_09IFPLHPGF@?$GAvftable?8@ 0000000180029520     libvcruntime:undname.obj
 0002:00003530       ??_C@_09BLBHBJP@?$GAvbtable?8@ 0000000180029530     libvcruntime:undname.obj
 0002:00003540       ??_C@_07FEEIOKP@?$GAvcall?8@ 0000000180029540     libvcruntime:undname.obj
 0002:00003548       ??_C@_08LLFFHHDJ@?$GAtypeof?8@ 0000000180029548     libvcruntime:undname.obj
 0002:00003558       ??_C@_0BF@KDPPACIK@?$GAlocal?5static?5guard?8@ 0000000180029558     libvcruntime:undname.obj
 0002:00003570       ??_C@_08OBABFOLI@?$GAstring?8@ 0000000180029570     libvcruntime:undname.obj
 0002:00003580       ??_C@_0BD@JDLKDPAB@?$GAvbase?5destructor?8@ 0000000180029580     libvcruntime:undname.obj
 0002:00003598       ??_C@_0BN@DEGPLNFK@?$GAvector?5deleting?5destructor?8@ 0000000180029598     libvcruntime:undname.obj
 0002:000035b8       ??_C@_0BO@OBMKPJIG@?$GAdefault?5constructor?5closure?8@ 00000001800295b8     libvcruntime:undname.obj
 0002:000035d8       ??_C@_0BN@IMDCHIKM@?$GAscalar?5deleting?5destructor?8@ 00000001800295d8     libvcruntime:undname.obj
 0002:000035f8       ??_C@_0BO@PFGOCPJJ@?$GAvector?5constructor?5iterator?8@ 00000001800295f8     libvcruntime:undname.obj
 0002:00003618       ??_C@_0BN@LFPFMEDL@?$GAvector?5destructor?5iterator?8@ 0000000180029618     libvcruntime:undname.obj
 0002:00003638       ??_C@_0CE@IKBNEHA@?$GAvector?5vbase?5constructor?5itera@ 0000000180029638     libvcruntime:undname.obj
 0002:00003660       ??_C@_0BL@NILFHHPC@?$GAvirtual?5displacement?5map?8@ 0000000180029660     libvcruntime:undname.obj
 0002:00003680       ??_C@_0CB@JONCMFFK@?$GAeh?5vector?5constructor?5iterator@ 0000000180029680     libvcruntime:undname.obj
 0002:000036a8       ??_C@_0CA@GCEOPDGL@?$GAeh?5vector?5destructor?5iterator?8@ 00000001800296a8     libvcruntime:undname.obj
 0002:000036c8       ??_C@_0CH@OOJPLCPH@?$GAeh?5vector?5vbase?5constructor?5it@ 00000001800296c8     libvcruntime:undname.obj
 0002:000036f0       ??_C@_0BL@LLKPOHJI@?$GAcopy?5constructor?5closure?8@ 00000001800296f0     libvcruntime:undname.obj
 0002:00003710       ??_C@_0BA@KBCDOMBN@?$GAudt?5returning?8@ 0000000180029710     libvcruntime:undname.obj
 0002:00003720       ??_C@_03KLGMFNMG@?$GAEH@   0000000180029720     libvcruntime:undname.obj
 0002:00003724       ??_C@_05KHLCHHI@?$GARTTI@  0000000180029724     libvcruntime:undname.obj
 0002:00003730       ??_C@_0BA@KKLDJDLB@?$GAlocal?5vftable?8@ 0000000180029730     libvcruntime:undname.obj
 0002:00003740       ??_C@_0CE@IIHCMGGL@?$GAlocal?5vftable?5constructor?5clos@ 0000000180029740     libvcruntime:undname.obj
 0002:00003764       ??_C@_06FHBGPFGH@?5new?$FL?$FN@ 0000000180029764     libvcruntime:undname.obj
 0002:00003770       ??_C@_09LBNFPBCA@?5delete?$FL?$FN@ 0000000180029770     libvcruntime:undname.obj
 0002:00003780       ??_C@_0P@HJKNJFNN@?$GAomni?5callsig?8@ 0000000180029780     libvcruntime:undname.obj
 0002:00003790       ??_C@_0BL@CNOONJFP@?$GAplacement?5delete?5closure?8@ 0000000180029790     libvcruntime:undname.obj
 0002:000037b0       ??_C@_0BN@CKNJLHMB@?$GAplacement?5delete?$FL?$FN?5closure?8@ 00000001800297b0     libvcruntime:undname.obj
 0002:000037d0       ??_C@_0CG@CFDHKGGD@?$GAmanaged?5vector?5constructor?5ite@ 00000001800297d0     libvcruntime:undname.obj
 0002:000037f8       ??_C@_0CF@IMGKMJNO@?$GAmanaged?5vector?5destructor?5iter@ 00000001800297f8     libvcruntime:undname.obj
 0002:00003820       ??_C@_0CG@HLDDJMAG@?$GAeh?5vector?5copy?5constructor?5ite@ 0000000180029820     libvcruntime:undname.obj
 0002:00003848       ??_C@_0CM@FCBBDIGB@?$GAeh?5vector?5vbase?5copy?5construct@ 0000000180029848     libvcruntime:undname.obj
 0002:00003878       ??_C@_0BL@CLIPGLGB@?$GAdynamic?5initializer?5for?5?8@ 0000000180029878     libvcruntime:undname.obj
 0002:00003898       ??_C@_0CB@PDBIFEP@?$GAdynamic?5atexit?5destructor?5for?5@ 0000000180029898     libvcruntime:undname.obj
 0002:000038c0       ??_C@_0CD@CGAJBKEJ@?$GAvector?5copy?5constructor?5iterat@ 00000001800298c0     libvcruntime:undname.obj
 0002:000038e8       ??_C@_0CJ@GJELGAMM@?$GAvector?5vbase?5copy?5constructor?5@ 00000001800298e8     libvcruntime:undname.obj
 0002:00003918       ??_C@_0CL@FGIJHLCE@?$GAmanaged?5vector?5copy?5constructo@ 0000000180029918     libvcruntime:undname.obj
 0002:00003948       ??_C@_0BM@PMGGMLDN@?$GAlocal?5static?5thread?5guard?8@ 0000000180029948     libvcruntime:undname.obj
 0002:00003968       ??_C@_0N@BDNMDMOL@operator?5?$CC?$CC?5@ 0000000180029968     libvcruntime:undname.obj
 0002:00003978       ??_C@_0BC@GGEBGALA@operator?5co_await@ 0000000180029978     libvcruntime:undname.obj
 0002:00003990       ??_C@_0M@GAAIMMOH@operator?$DM?$DN?$DO@ 0000000180029990     libvcruntime:undname.obj
 0002:000039a0       ??_C@_0BC@DAFEJGAK@?5Type?5Descriptor?8@ 00000001800299a0     libvcruntime:undname.obj
 0002:000039b8       ??_C@_0BM@LDKODKLH@?5Base?5Class?5Descriptor?5at?5?$CI@ 00000001800299b8     libvcruntime:undname.obj
 0002:000039d8       ??_C@_0BD@LGICGFMM@?5Base?5Class?5Array?8@ 00000001800299d8     libvcruntime:undname.obj
 0002:000039f0       ??_C@_0BN@MECKDCOJ@?5Class?5Hierarchy?5Descriptor?8@ 00000001800299f0     libvcruntime:undname.obj
 0002:00003a10       ??_C@_0BK@CFCOFLF@?5Complete?5Object?5Locator?8@ 0000000180029a10     libvcruntime:undname.obj
 0002:00003a30       ??_C@_0BG@JNJLAMPM@?$GAanonymous?5namespace?8@ 0000000180029a30     libvcruntime:undname.obj
 0002:00003a60       ??_C@_1DM@KHCHBNEB@?$AAa?$AAp?$AAi?$AA?9?$AAm?$AAs?$AA?9?$AAw?$AAi?$AAn?$AA?9?$AAc?$AAo?$AAr?$AAe@ 0000000180029a60     libvcruntime:winapi_downlevel.obj
 0002:00003aa0       ??_C@_1DK@LPPGFMPP@?$AAa?$AAp?$AAi?$AA?9?$AAm?$AAs?$AA?9?$AAw?$AAi?$AAn?$AA?9?$AAc?$AAo?$AAr?$AAe@ 0000000180029aa0     libvcruntime:winapi_downlevel.obj
 0002:00003ae0       ??_C@_1BC@GDMECMAK@?$AAk?$AAe?$AAr?$AAn?$AAe?$AAl?$AA3?$AA2@ 0000000180029ae0     libvcruntime:winapi_downlevel.obj
 0002:00003af8       ??_C@_1BA@PFFKHIOG@?$AAa?$AAp?$AAi?$AA?9?$AAm?$AAs?$AA?9@ 0000000180029af8     libvcruntime:winapi_downlevel.obj
 0002:00003b10       ??_C@_08KNHFBNJ@FlsAlloc@  0000000180029b10     libvcruntime:winapi_downlevel.obj
 0002:00003b28       ??_C@_07PEJMOBNF@FlsFree@  0000000180029b28     libvcruntime:winapi_downlevel.obj
 0002:00003b38       ??_C@_0M@GDNOONDI@FlsGetValue@ 0000000180029b38     libvcruntime:winapi_downlevel.obj
 0002:00003b50       ??_C@_0M@JCPCPOEF@FlsSetValue@ 0000000180029b50     libvcruntime:winapi_downlevel.obj
 0002:00003b68       ??_C@_0BM@HCFOFFN@InitializeCriticalSectionEx@ 0000000180029b68     libvcruntime:winapi_downlevel.obj
 0002:00003d00       ?format_validation_lookup_table_spectre@__crt_stdio_output@@3V?$spectre_mitigated_lookup_table@Ustate_transition_pair@__crt_stdio_output@@$0IA@@1@B 0000000180029d00     libucrt:output.obj
 0002:00003e00       ??_C@_1O@CEDCILHN@?$AA?$CI?$AAn?$AAu?$AAl?$AAl?$AA?$CJ@ 0000000180029e00     libucrt:output.obj
 0002:00003e10       ??_C@_06OJHGLDPL@?$CInull?$CJ@ 0000000180029e10     libucrt:output.obj
 0002:00003e20       __acrt_exception_action_table 0000000180029e20     libucrt:exception_filter.obj
 0002:00003ee0       __acrt_signal_action_table_count 0000000180029ee0     libucrt:exception_filter.obj
 0002:00003ee8       __acrt_signal_action_first_fpe_index 0000000180029ee8     libucrt:exception_filter.obj
 0002:00003ef0       __acrt_signal_action_fpe_count 0000000180029ef0     libucrt:exception_filter.obj
 0002:00003f48       ??_C@_1BI@BGOHAHKC@?$AAm?$AAs?$AAc?$AAo?$AAr?$AAe?$AAe?$AA?4?$AAd?$AAl?$AAl@ 0000000180029f48     libucrt:exit.obj
 0002:00003f60       ??_C@_0P@MIGLKIOC@CorExitProcess@ 0000000180029f60     libucrt:exit.obj
 0002:000040c0       __lc_time_c                000000018002a0c0     libucrt:nlsdata.obj
 0002:00004380       ??_C@_03KOEHGMDN@Sun@      000000018002a380     libucrt:nlsdata.obj
 0002:00004384       ??_C@_03PDAGKDH@Mon@       000000018002a384     libucrt:nlsdata.obj
 0002:00004388       ??_C@_03NAGEINEP@Tue@      000000018002a388     libucrt:nlsdata.obj
 0002:0000438c       ??_C@_03MHOMLAJA@Wed@      000000018002a38c     libucrt:nlsdata.obj
 0002:00004390       ??_C@_03IOFIKPDN@Thu@      000000018002a390     libucrt:nlsdata.obj
 0002:00004394       ??_C@_03IDIOELNC@Fri@      000000018002a394     libucrt:nlsdata.obj
 0002:00004398       ??_C@_03FEFJNEK@Sat@       000000018002a398     libucrt:nlsdata.obj
 0002:0000439c       ??_C@_06OOPIFAJ@Sunday@    000000018002a39c     libucrt:nlsdata.obj
 0002:000043a4       ??_C@_06JLEDEDGH@Monday@   000000018002a3a4     libucrt:nlsdata.obj
 0002:000043b0       ??_C@_07BAAGCFCM@Tuesday@  000000018002a3b0     libucrt:nlsdata.obj
 0002:000043b8       ??_C@_09DLIGFAKA@Wednesday@ 000000018002a3b8     libucrt:nlsdata.obj
 0002:000043c8       ??_C@_08HACCIKIA@Thursday@ 000000018002a3c8     libucrt:nlsdata.obj
 0002:000043d4       ??_C@_06JECMNKMI@Friday@   000000018002a3d4     libucrt:nlsdata.obj
 0002:000043e0       ??_C@_08INBOOONO@Saturday@ 000000018002a3e0     libucrt:nlsdata.obj
 0002:000043ec       ??_C@_03JIHJHPIE@Jan@      000000018002a3ec     libucrt:nlsdata.obj
 0002:000043f0       ??_C@_03HJBDCHOM@Feb@      000000018002a3f0     libucrt:nlsdata.obj
 0002:000043f4       ??_C@_03ODNJBKGA@Mar@      000000018002a3f4     libucrt:nlsdata.obj
 0002:000043f8       ??_C@_03LEOLGMJP@Apr@      000000018002a3f8     libucrt:nlsdata.obj
 0002:000043fc       ??_C@_03CNMDKL@May@        000000018002a3fc     libucrt:nlsdata.obj
 0002:00004400       ??_C@_03IDFGHECI@Jun@      000000018002a400     libucrt:nlsdata.obj
 0002:00004404       ??_C@_03LBGABGKK@Jul@      000000018002a404     libucrt:nlsdata.obj
 0002:00004408       ??_C@_03IFJFEIGA@Aug@      000000018002a408     libucrt:nlsdata.obj
 0002:0000440c       ??_C@_03GGCAPAJC@Sep@      000000018002a40c     libucrt:nlsdata.obj
 0002:00004410       ??_C@_03BMAOKBAD@Oct@      000000018002a410     libucrt:nlsdata.obj
 0002:00004414       ??_C@_03JPJOFNIA@Nov@      000000018002a414     libucrt:nlsdata.obj
 0002:00004418       ??_C@_03MKABNOCG@Dec@      000000018002a418     libucrt:nlsdata.obj
 0002:00004420       ??_C@_07CGJPFGJA@January@  000000018002a420     libucrt:nlsdata.obj
 0002:00004428       ??_C@_08GNJGEPFN@February@ 000000018002a428     libucrt:nlsdata.obj
 0002:00004434       ??_C@_05HPCKOFNC@March@    000000018002a434     libucrt:nlsdata.obj
 0002:0000443c       ??_C@_05DMJDNLEJ@April@    000000018002a43c     libucrt:nlsdata.obj
 0002:00004444       ??_C@_04CNLMGBGM@June@     000000018002a444     libucrt:nlsdata.obj
 0002:0000444c       ??_C@_04MIEPOIFP@July@     000000018002a44c     libucrt:nlsdata.obj
 0002:00004454       ??_C@_06LBBHFDDG@August@   000000018002a454     libucrt:nlsdata.obj
 0002:00004460       ??_C@_09BHHEALKD@September@ 000000018002a460     libucrt:nlsdata.obj
 0002:00004470       ??_C@_07JJNFCEND@October@  000000018002a470     libucrt:nlsdata.obj
 0002:00004478       ??_C@_08HCHEGEOA@November@ 000000018002a478     libucrt:nlsdata.obj
 0002:00004488       ??_C@_08EDHMEBNP@December@ 000000018002a488     libucrt:nlsdata.obj
 0002:00004494       ??_C@_02DEDBPAFC@AM@       000000018002a494     libucrt:nlsdata.obj
 0002:00004498       ??_C@_02CJNFDJBF@PM@       000000018002a498     libucrt:nlsdata.obj
 0002:000044a0       ??_C@_08BPBNCDIB@MM?1dd?1yy@ 000000018002a4a0     libucrt:nlsdata.obj
 0002:000044b0       ??_C@_0BE@CKGJFCPC@dddd?0?5MMMM?5dd?0?5yyyy@ 000000018002a4b0     libucrt:nlsdata.obj
 0002:000044c8       ??_C@_08JCCMCCIL@HH?3mm?3ss@ 000000018002a4c8     libucrt:nlsdata.obj
 0002:000044d8       ??_C@_17MBGCMIPB@?$AAS?$AAu?$AAn@ 000000018002a4d8     libucrt:nlsdata.obj
 0002:000044e0       ??_C@_17KBOMKBF@?$AAM?$AAo?$AAn@ 000000018002a4e0     libucrt:nlsdata.obj
 0002:000044e8       ??_C@_17BMKGEGOJ@?$AAT?$AAu?$AAe@ 000000018002a4e8     libucrt:nlsdata.obj
 0002:000044f0       ??_C@_17CJEDCEPE@?$AAW?$AAe?$AAd@ 000000018002a4f0     libucrt:nlsdata.obj
 0002:000044f8       ??_C@_17PDPHAADD@?$AAT?$AAh?$AAu@ 000000018002a4f8     libucrt:nlsdata.obj
 0002:00004500       ??_C@_17HFOLPPLP@?$AAF?$AAr?$AAi@ 000000018002a500     libucrt:nlsdata.obj
 0002:00004508       ??_C@_17GGIBDPIH@?$AAS?$AAa?$AAt@ 000000018002a508     libucrt:nlsdata.obj
 0002:00004510       ??_C@_1O@IHNHDHPB@?$AAS?$AAu?$AAn?$AAd?$AAa?$AAy@ 000000018002a510     libucrt:nlsdata.obj
 0002:00004520       ??_C@_1O@MMNBFLIA@?$AAM?$AAo?$AAn?$AAd?$AAa?$AAy@ 000000018002a520     libucrt:nlsdata.obj
 0002:00004530       ??_C@_1BA@ENFBFFEK@?$AAT?$AAu?$AAe?$AAs?$AAd?$AAa?$AAy@ 000000018002a530     libucrt:nlsdata.obj
 0002:00004540       ??_C@_1BE@EBOGMDOH@?$AAW?$AAe?$AAd?$AAn?$AAe?$AAs?$AAd?$AAa?$AAy@ 000000018002a540     libucrt:nlsdata.obj
 0002:00004558       ??_C@_1BC@HHMNLIHE@?$AAT?$AAh?$AAu?$AAr?$AAs?$AAd?$AAa?$AAy@ 000000018002a558     libucrt:nlsdata.obj
 0002:00004570       ??_C@_1O@PDICJHAG@?$AAF?$AAr?$AAi?$AAd?$AAa?$AAy@ 000000018002a570     libucrt:nlsdata.obj
 0002:00004580       ??_C@_1BC@ENMNNPAJ@?$AAS?$AAa?$AAt?$AAu?$AAr?$AAd?$AAa?$AAy@ 000000018002a580     libucrt:nlsdata.obj
 0002:00004598       ??_C@_17DKNBKCHM@?$AAJ?$AAa?$AAn@ 000000018002a598     libucrt:nlsdata.obj
 0002:000045a0       ??_C@_17LMDJEKJN@?$AAF?$AAe?$AAb@ 000000018002a5a0     libucrt:nlsdata.obj
 0002:000045a8       ??_C@_17CKNLEDEC@?$AAM?$AAa?$AAr@ 000000018002a5a8     libucrt:nlsdata.obj
 0002:000045b0       ??_C@_17LFPOIHDD@?$AAA?$AAp?$AAr@ 000000018002a5b0     libucrt:nlsdata.obj
 0002:000045b8       ??_C@_17PNNKMEED@?$AAM?$AAa?$AAy@ 000000018002a5b8     libucrt:nlsdata.obj
 0002:000045c0       ??_C@_17KCJGOCPB@?$AAJ?$AAu?$AAn@ 000000018002a5c0     libucrt:nlsdata.obj
 0002:000045c8       ??_C@_17IJPCKHK@?$AAJ?$AAu?$AAl@ 000000018002a5c8     libucrt:nlsdata.obj
 0002:000045d0       ??_C@_17ICPELBCN@?$AAA?$AAu?$AAg@ 000000018002a5d0     libucrt:nlsdata.obj
 0002:000045d8       ??_C@_17HCHCOKMG@?$AAS?$AAe?$AAp@ 000000018002a5d8     libucrt:nlsdata.obj
 0002:000045e0       ??_C@_17FNLKOI@?$AAO?$AAc?$AAt@ 000000018002a5e0     libucrt:nlsdata.obj
 0002:000045e8       ??_C@_17BBDMLCIG@?$AAN?$AAo?$AAv@ 000000018002a5e8     libucrt:nlsdata.obj
 0002:000045f0       ??_C@_17EGKACKIF@?$AAD?$AAe?$AAc@ 000000018002a5f0     libucrt:nlsdata.obj
 0002:000045f8       ??_C@_1BA@EFMEIEBA@?$AAJ?$AAa?$AAn?$AAu?$AAa?$AAr?$AAy@ 000000018002a5f8     libucrt:nlsdata.obj
 0002:00004608       ??_C@_1BC@JGDDFFAM@?$AAF?$AAe?$AAb?$AAr?$AAu?$AAa?$AAr?$AAy@ 000000018002a608     libucrt:nlsdata.obj
 0002:00004620       ??_C@_1M@IKEENEDF@?$AAM?$AAa?$AAr?$AAc?$AAh@ 000000018002a620     libucrt:nlsdata.obj
 0002:00004630       ??_C@_1M@GJNLMHFD@?$AAA?$AAp?$AAr?$AAi?$AAl@ 000000018002a630     libucrt:nlsdata.obj
 0002:00004640       ??_C@_19EPFLPGAP@?$AAJ?$AAu?$AAn?$AAe@ 000000018002a640     libucrt:nlsdata.obj
 0002:00004650       ??_C@_19BIFMLPCD@?$AAJ?$AAu?$AAl?$AAy@ 000000018002a650     libucrt:nlsdata.obj
 0002:00004660       ??_C@_1O@PAHLKOAC@?$AAA?$AAu?$AAg?$AAu?$AAs?$AAt@ 000000018002a660     libucrt:nlsdata.obj
 0002:00004670       ??_C@_1BE@DKAAMBJL@?$AAS?$AAe?$AAp?$AAt?$AAe?$AAm?$AAb?$AAe?$AAr@ 000000018002a670     libucrt:nlsdata.obj
 0002:00004688       ??_C@_1BA@EPANDLNG@?$AAO?$AAc?$AAt?$AAo?$AAb?$AAe?$AAr@ 000000018002a688     libucrt:nlsdata.obj
 0002:00004698       ??_C@_1BC@BGLIFPF@?$AAN?$AAo?$AAv?$AAe?$AAm?$AAb?$AAe?$AAr@ 000000018002a698     libucrt:nlsdata.obj
 0002:000046b0       ??_C@_1BC@FEMKIFH@?$AAD?$AAe?$AAc?$AAe?$AAm?$AAb?$AAe?$AAr@ 000000018002a6b0     libucrt:nlsdata.obj
 0002:000046c4       ??_C@_15ODEHAHHF@?$AAA?$AAM@ 000000018002a6c4     libucrt:nlsdata.obj
 0002:000046cc       ??_C@_15CLMNNGEL@?$AAP?$AAM@ 000000018002a6cc     libucrt:nlsdata.obj
 0002:000046d8       ??_C@_1BC@IEBCMHCM@?$AAM?$AAM?$AA?1?$AAd?$AAd?$AA?1?$AAy?$AAy@ 000000018002a6d8     libucrt:nlsdata.obj
 0002:000046f0       ??_C@_1CI@KNAKOEBC@?$AAd?$AAd?$AAd?$AAd?$AA?0?$AA?5?$AAM?$AAM?$AAM?$AAM?$AA?5?$AAd?$AAd?$AA?0?$AA?5@ 000000018002a6f0     libucrt:nlsdata.obj
 0002:00004718       ??_C@_1BC@GDGBMEMK@?$AAH?$AAH?$AA?3?$AAm?$AAm?$AA?3?$AAs?$AAs@ 000000018002a718     libucrt:nlsdata.obj
 0002:00004730       ??_C@_1M@BMHNFIME@?$AAe?$AAn?$AA?9?$AAU?$AAS@ 000000018002a730     libucrt:nlsdata.obj
 0002:000047e0       ??_C@_1EA@JGEFHKEI@?$AAa?$AAp?$AAi?$AA?9?$AAm?$AAs?$AA?9?$AAw?$AAi?$AAn?$AA?9?$AAc?$AAo?$AAr?$AAe@ 000000018002a7e0     libucrt:winapi_thunks.obj
 0002:00004820       ??_C@_1DI@IJCEHOCB@?$AAa?$AAp?$AAi?$AA?9?$AAm?$AAs?$AA?9?$AAw?$AAi?$AAn?$AA?9?$AAc?$AAo?$AAr?$AAe@ 000000018002a820     libucrt:winapi_thunks.obj
 0002:00004860       ??_C@_1EI@MPIAOHOC@?$AAa?$AAp?$AAi?$AA?9?$AAm?$AAs?$AA?9?$AAw?$AAi?$AAn?$AA?9?$AAc?$AAo?$AAr?$AAe@ 000000018002a860     libucrt:winapi_thunks.obj
 0002:000048b0       ??_C@_1FK@FPHCKFIE@?$AAa?$AAp?$AAi?$AA?9?$AAm?$AAs?$AA?9?$AAw?$AAi?$AAn?$AA?9?$AAc?$AAo?$AAr?$AAe@ 000000018002a8b0     libucrt:winapi_thunks.obj
 0002:00004910       ??_C@_1EM@DILCGIIO@?$AAa?$AAp?$AAi?$AA?9?$AAm?$AAs?$AA?9?$AAw?$AAi?$AAn?$AA?9?$AAc?$AAo?$AAr?$AAe@ 000000018002a910     libucrt:winapi_thunks.obj
 0002:00004960       ??_C@_1DM@LNCGDDPN@?$AAa?$AAp?$AAi?$AA?9?$AAm?$AAs?$AA?9?$AAw?$AAi?$AAn?$AA?9?$AAc?$AAo?$AAr?$AAe@ 000000018002a960     libucrt:winapi_thunks.obj
 0002:000049a0       ??_C@_1DO@FPAPJEMD@?$AAa?$AAp?$AAi?$AA?9?$AAm?$AAs?$AA?9?$AAw?$AAi?$AAn?$AA?9?$AAc?$AAo?$AAr?$AAe@ 000000018002a9a0     libucrt:winapi_thunks.obj
 0002:000049e0       ??_C@_1DK@NDHNAHIO@?$AAa?$AAp?$AAi?$AA?9?$AAm?$AAs?$AA?9?$AAw?$AAi?$AAn?$AA?9?$AAc?$AAo?$AAr?$AAe@ 000000018002a9e0     libucrt:winapi_thunks.obj
 0002:00004a20       ??_C@_1DM@KGHDGBCM@?$AAa?$AAp?$AAi?$AA?9?$AAm?$AAs?$AA?9?$AAw?$AAi?$AAn?$AA?9?$AAc?$AAo?$AAr?$AAe@ 000000018002aa20     libucrt:winapi_thunks.obj
 0002:00004a60       ??_C@_1EO@IJIOEFOH@?$AAa?$AAp?$AAi?$AA?9?$AAm?$AAs?$AA?9?$AAw?$AAi?$AAn?$AA?9?$AAr?$AAt?$AAc?$AAo@ 000000018002aa60     libucrt:winapi_thunks.obj
 0002:00004ab0       ??_C@_1FG@HHGEKANL@?$AAa?$AAp?$AAi?$AA?9?$AAm?$AAs?$AA?9?$AAw?$AAi?$AAn?$AA?9?$AAs?$AAe?$AAc?$AAu@ 000000018002aab0     libucrt:winapi_thunks.obj
 0002:00004b10       ??_C@_1EG@DBIOJECG@?$AAe?$AAx?$AAt?$AA?9?$AAm?$AAs?$AA?9?$AAw?$AAi?$AAn?$AA?9?$AAn?$AAt?$AAu?$AAs@ 000000018002ab10     libucrt:winapi_thunks.obj
 0002:00004b60       ??_C@_1EO@FIHMJCLF@?$AAe?$AAx?$AAt?$AA?9?$AAm?$AAs?$AA?9?$AAw?$AAi?$AAn?$AA?9?$AAn?$AAt?$AAu?$AAs@ 000000018002ab60     libucrt:winapi_thunks.obj
 0002:00004bb0       ??_C@_1BC@DNHGCMLG@?$AAa?$AAd?$AAv?$AAa?$AAp?$AAi?$AA3?$AA2@ 000000018002abb0     libucrt:winapi_thunks.obj
 0002:00004bc8       ??_C@_1M@OAIMIKLP@?$AAn?$AAt?$AAd?$AAl?$AAl@ 000000018002abc8     libucrt:winapi_thunks.obj
 0002:00004be0       ??_C@_1EG@DPGNFKGC@?$AAa?$AAp?$AAi?$AA?9?$AAm?$AAs?$AA?9?$AAw?$AAi?$AAn?$AA?9?$AAa?$AAp?$AAp?$AAm@ 000000018002abe0     libucrt:winapi_thunks.obj
 0002:00004c28       ??_C@_1O@BCCLBEOE@?$AAu?$AAs?$AAe?$AAr?$AA3?$AA2@ 000000018002ac28     libucrt:winapi_thunks.obj
 0002:00004c38       ??_C@_1BA@IAIFMGEF@?$AAe?$AAx?$AAt?$AA?9?$AAm?$AAs?$AA?9@ 000000018002ac38     libucrt:winapi_thunks.obj
 0002:00004c50       ??_C@_0BA@FHFNEAED@AreFileApisANSI@ 000000018002ac50     libucrt:winapi_thunks.obj
 0002:00004c70       ??_C@_0O@KKBNKAPF@LCMapStringEx@ 000000018002ac70     libucrt:winapi_thunks.obj
 0002:00004c88       ??_C@_0BB@HBDEELFH@LocaleNameToLCID@ 000000018002ac88     libucrt:winapi_thunks.obj
 0002:00004ca0       ??_C@_0CF@OJOFEIGO@AppPolicyGetProcessTerminationM@ 000000018002aca0     libucrt:winapi_thunks.obj
 0002:00004cd0       ??_C@_0BI@BKLFFAPO@SetThreadStackGuarantee@ 000000018002acd0     libucrt:winapi_thunks.obj
 0002:00004d70       ??_C@_03OEIAHPBN@INF@      000000018002ad70     libucrt:cvt.obj
 0002:00004d74       ??_C@_03OJHLLCGB@inf@      000000018002ad74     libucrt:cvt.obj
 0002:00004d78       ??_C@_03LKNCIKJB@NAN@      000000018002ad78     libucrt:cvt.obj
 0002:00004d7c       ??_C@_03LHCJEHON@nan@      000000018002ad7c     libucrt:cvt.obj
 0002:00004d80       ??_C@_09OFJJIMPC@NAN?$CISNAN?$CJ@ 000000018002ad80     libucrt:cvt.obj
 0002:00004d90       ??_C@_09IPFBKMDL@nan?$CIsnan?$CJ@ 000000018002ad90     libucrt:cvt.obj
 0002:00004da0       ??_C@_08IKHNHAJ@NAN?$CIIND?$CJ@ 000000018002ada0     libucrt:cvt.obj
 0002:00004db0       ??_C@_08OFCDMILK@nan?$CIind?$CJ@ 000000018002adb0     libucrt:cvt.obj
 0002:00004dbc       ??_C@_05KLBDPFGC@e?$CL000@ 000000018002adbc     libucrt:cvt.obj
 0002:00004de8       ??_C@_1M@HPNHIDJI@?$AAj?$AAa?$AA?9?$AAJ?$AAP@ 000000018002ade8     libucrt:mbctype.obj
 0002:00004df8       ??_C@_1M@BIBDDEMK@?$AAz?$AAh?$AA?9?$AAC?$AAN@ 000000018002adf8     libucrt:mbctype.obj
 0002:00004e08       ??_C@_1M@JLOOOEGK@?$AAk?$AAo?$AA?9?$AAK?$AAR@ 000000018002ae08     libucrt:mbctype.obj
 0002:00004e18       ??_C@_1M@CLNBBOPM@?$AAz?$AAh?$AA?9?$AAT?$AAW@ 000000018002ae18     libucrt:mbctype.obj
 0002:00004e30       __newctype                 000000018002ae30     libucrt:ctype.obj
 0002:00005130       __newclmap                 000000018002b130     libucrt:ctype.obj
 0002:000052b0       __newcumap                 000000018002b2b0     libucrt:ctype.obj
 0002:00005430       ??_C@_15PJPFLCCM@?$AAu?$AAk@ 000000018002b430     libucrt:get_qualified_locale.obj
 0002:00006280       ??_C@_15EMKDOKLE@?$AAa?$AAr@ 000000018002c280     libucrt:lcidtoname_downlevel.obj
 0002:00006288       ??_C@_15KNPADPLH@?$AAb?$AAg@ 000000018002c288     libucrt:lcidtoname_downlevel.obj
 0002:00006290       ??_C@_15EDMHLDMO@?$AAc?$AAa@ 000000018002c290     libucrt:lcidtoname_downlevel.obj
 0002:00006298       ??_C@_1O@BPEAJADD@?$AAz?$AAh?$AA?9?$AAC?$AAH?$AAS@ 000000018002c298     libucrt:lcidtoname_downlevel.obj
 0002:000062a8       ??_C@_15LJNHCMNK@?$AAc?$AAs@ 000000018002c2a8     libucrt:lcidtoname_downlevel.obj
 0002:000062b0       ??_C@_15FOMCIDHG@?$AAd?$AAa@ 000000018002c2b0     libucrt:lcidtoname_downlevel.obj
 0002:000062b8       ??_C@_15NBKABECB@?$AAd?$AAe@ 000000018002c2b8     libucrt:lcidtoname_downlevel.obj
 0002:000062c0       ??_C@_15GHPEIIAO@?$AAe?$AAl@ 000000018002c2c0     libucrt:lcidtoname_downlevel.obj
 0002:000062c8       ??_C@_15MNPNEAIF@?$AAe?$AAn@ 000000018002c2c8     libucrt:lcidtoname_downlevel.obj
 0002:000062d0       ??_C@_15GPIOMPMH@?$AAe?$AAs@ 000000018002c2d0     libucrt:lcidtoname_downlevel.obj
 0002:000062d8       ??_C@_15NGLOAKJC@?$AAf?$AAi@ 000000018002c2d8     libucrt:lcidtoname_downlevel.obj
 0002:000062e0       ??_C@_15FBKGNKAM@?$AAf?$AAr@ 000000018002c2e0     libucrt:lcidtoname_downlevel.obj
 0002:000062e8       ??_C@_15KGGCNEFK@?$AAh?$AAe@ 000000018002c2e8     libucrt:lcidtoname_downlevel.obj
 0002:000062f0       ??_C@_15PGHLIDMF@?$AAh?$AAu@ 000000018002c2f0     libucrt:lcidtoname_downlevel.obj
 0002:000062f8       ??_C@_15BIEMAPLM@?$AAi?$AAs@ 000000018002c2f8     libucrt:lcidtoname_downlevel.obj
 0002:00006300       ??_C@_15IFJLDHAF@?$AAi?$AAt@ 000000018002c300     libucrt:lcidtoname_downlevel.obj
 0002:00006308       ??_C@_15GEMIOCAG@?$AAj?$AAa@ 000000018002c308     libucrt:lcidtoname_downlevel.obj
 0002:00006310       ??_C@_15EPELEGJA@?$AAk?$AAo@ 000000018002c310     libucrt:lcidtoname_downlevel.obj
 0002:00006318       ??_C@_15NDDHIMN@?$AAn?$AAl@ 000000018002c318     libucrt:lcidtoname_downlevel.obj
 0002:00006320       ??_C@_15BPIGNHCD@?$AAn?$AAo@ 000000018002c320     libucrt:lcidtoname_downlevel.obj
 0002:00006328       ??_C@_15DEOPBLCG@?$AAp?$AAl@ 000000018002c328     libucrt:lcidtoname_downlevel.obj
 0002:00006330       ??_C@_15KBECGEFG@?$AAp?$AAt@ 000000018002c330     libucrt:lcidtoname_downlevel.obj
 0002:00006338       ??_C@_15GLJCBFMD@?$AAr?$AAo@ 000000018002c338     libucrt:lcidtoname_downlevel.obj
 0002:00006340       ??_C@_15FEDGKCDI@?$AAr?$AAu@ 000000018002c340     libucrt:lcidtoname_downlevel.obj
 0002:00006348       ??_C@_15GLKMLLHM@?$AAh?$AAr@ 000000018002c348     libucrt:lcidtoname_downlevel.obj
 0002:00006350       ??_C@_15CPKMFBDB@?$AAs?$AAk@ 000000018002c350     libucrt:lcidtoname_downlevel.obj
 0002:00006358       ??_C@_15BAAIOGMK@?$AAs?$AAq@ 000000018002c358     libucrt:lcidtoname_downlevel.obj
 0002:00006360       ??_C@_15INNPNOHD@?$AAs?$AAv@ 000000018002c360     libucrt:lcidtoname_downlevel.obj
 0002:00006368       ??_C@_15CABMMOGH@?$AAt?$AAh@ 000000018002c368     libucrt:lcidtoname_downlevel.obj
 0002:00006370       ??_C@_15BPLIHJJM@?$AAt?$AAr@ 000000018002c370     libucrt:lcidtoname_downlevel.obj
 0002:00006378       ??_C@_15NEOEKKDJ@?$AAu?$AAr@ 000000018002c378     libucrt:lcidtoname_downlevel.obj
 0002:00006380       ??_C@_15NFICGAJK@?$AAi?$AAd@ 000000018002c380     libucrt:lcidtoname_downlevel.obj
 0002:00006388       ??_C@_15HPJPHDM@?$AAb?$AAe@ 000000018002c388     libucrt:lcidtoname_downlevel.obj
 0002:00006390       ??_C@_15LCHLGJII@?$AAs?$AAl@ 000000018002c390     libucrt:lcidtoname_downlevel.obj
 0002:00006398       ??_C@_15PCFJPHHO@?$AAe?$AAt@ 000000018002c398     libucrt:lcidtoname_downlevel.obj
 0002:000063a0       ??_C@_15HPFPGODN@?$AAl?$AAv@ 000000018002c3a0     libucrt:lcidtoname_downlevel.obj
 0002:000063a8       ??_C@_15NFFGKGLG@?$AAl?$AAt@ 000000018002c3a8     libucrt:lcidtoname_downlevel.obj
 0002:000063b0       ??_C@_15BDAKCCHN@?$AAf?$AAa@ 000000018002c3b0     libucrt:lcidtoname_downlevel.obj
 0002:000063b8       ??_C@_15NFGIAIAJ@?$AAv?$AAi@ 000000018002c3b8     libucrt:lcidtoname_downlevel.obj
 0002:000063c0       ??_C@_15LMKNDMHN@?$AAh?$AAy@ 000000018002c3c0     libucrt:lcidtoname_downlevel.obj
 0002:000063c8       ??_C@_15IJBHMCFL@?$AAa?$AAz@ 000000018002c3c8     libucrt:lcidtoname_downlevel.obj
 0002:000063d0       ??_C@_15EKOFJABL@?$AAe?$AAu@ 000000018002c3d0     libucrt:lcidtoname_downlevel.obj
 0002:000063d8       ??_C@_15BGHADCNK@?$AAm?$AAk@ 000000018002c3d8     libucrt:lcidtoname_downlevel.obj
 0002:000063e0       ??_C@_15JDNICKHM@?$AAa?$AAf@ 000000018002c3e0     libucrt:lcidtoname_downlevel.obj
 0002:000063e8       ??_C@_15KPJEDBKD@?$AAk?$AAa@ 000000018002c3e8     libucrt:lcidtoname_downlevel.obj
 0002:000063f0       ??_C@_15PDNFFFEO@?$AAf?$AAo@ 000000018002c3f0     libucrt:lcidtoname_downlevel.obj
 0002:000063f8       ??_C@_15OMLEGLOC@?$AAh?$AAi@ 000000018002c3f8     libucrt:lcidtoname_downlevel.obj
 0002:00006400       ??_C@_15IDNNENKK@?$AAm?$AAs@ 000000018002c400     libucrt:lcidtoname_downlevel.obj
 0002:00006408       ??_C@_15MACJNBMH@?$AAk?$AAk@ 000000018002c408     libucrt:lcidtoname_downlevel.obj
 0002:00006410       ??_C@_15DKDJEOND@?$AAk?$AAy@ 000000018002c410     libucrt:lcidtoname_downlevel.obj
 0002:00006418       ??_C@_15DFGDLJBG@?$AAs?$AAw@ 000000018002c418     libucrt:lcidtoname_downlevel.obj
 0002:00006420       ??_C@_15BBFAICNG@?$AAu?$AAz@ 000000018002c420     libucrt:lcidtoname_downlevel.obj
 0002:00006428       ??_C@_15DKNDCGEA@?$AAt?$AAt@ 000000018002c428     libucrt:lcidtoname_downlevel.obj
 0002:00006430       ??_C@_15MGIFMDPL@?$AAp?$AAa@ 000000018002c430     libucrt:lcidtoname_downlevel.obj
 0002:00006438       ??_C@_15HCNDBBA@?$AAg?$AAu@ 000000018002c438     libucrt:lcidtoname_downlevel.obj
 0002:00006440       ??_C@_15FNBEIBON@?$AAt?$AAa@ 000000018002c440     libucrt:lcidtoname_downlevel.obj
 0002:00006448       ??_C@_15NCHGBGLK@?$AAt?$AAe@ 000000018002c448     libucrt:lcidtoname_downlevel.obj
 0002:00006450       ??_C@_15PHPHCBPF@?$AAk?$AAn@ 000000018002c450     libucrt:lcidtoname_downlevel.obj
 0002:00006458       ??_C@_15DLGBCKMP@?$AAm?$AAr@ 000000018002c458     libucrt:lcidtoname_downlevel.obj
 0002:00006460       ??_C@_15EABBLBFF@?$AAs?$AAa@ 000000018002c460     libucrt:lcidtoname_downlevel.obj
 0002:00006468       ??_C@_15CBKOMCOI@?$AAm?$AAn@ 000000018002c468     libucrt:lcidtoname_downlevel.obj
 0002:00006470       ??_C@_15CKDMCJAF@?$AAg?$AAl@ 000000018002c470     libucrt:lcidtoname_downlevel.obj
 0002:00006478       ??_C@_17CNJFBPG@?$AAk?$AAo?$AAk@ 000000018002c478     libucrt:lcidtoname_downlevel.obj
 0002:00006480       ??_C@_17FFBJICPL@?$AAs?$AAy?$AAr@ 000000018002c480     libucrt:lcidtoname_downlevel.obj
 0002:00006488       ??_C@_17KPNDCPAF@?$AAd?$AAi?$AAv@ 000000018002c488     libucrt:lcidtoname_downlevel.obj
 0002:00006490       ??_C@_1M@OKAHONE@?$AAa?$AAr?$AA?9?$AAS?$AAA@ 000000018002c490     libucrt:lcidtoname_downlevel.obj
 0002:000064a0       ??_C@_1M@FFFIGIGK@?$AAb?$AAg?$AA?9?$AAB?$AAG@ 000000018002c4a0     libucrt:lcidtoname_downlevel.obj
 0002:000064b0       ??_C@_1M@BJNKEDC@?$AAc?$AAa?$AA?9?$AAE?$AAS@ 000000018002c4b0     libucrt:lcidtoname_downlevel.obj
 0002:000064c0       ??_C@_1M@IJJHFJHA@?$AAc?$AAs?$AA?9?$AAC?$AAZ@ 000000018002c4c0     libucrt:lcidtoname_downlevel.obj
 0002:000064d0       ??_C@_1M@CLPEOBGI@?$AAd?$AAa?$AA?9?$AAD?$AAK@ 000000018002c4d0     libucrt:lcidtoname_downlevel.obj
 0002:000064e0       ??_C@_1M@MCMADGCB@?$AAd?$AAe?$AA?9?$AAD?$AAE@ 000000018002c4e0     libucrt:lcidtoname_downlevel.obj
 0002:000064f0       ??_C@_1M@OOCKEMAM@?$AAe?$AAl?$AA?9?$AAG?$AAR@ 000000018002c4f0     libucrt:lcidtoname_downlevel.obj
 0002:00006500       ??_C@_1M@DDNJFGID@?$AAf?$AAi?$AA?9?$AAF?$AAI@ 000000018002c500     libucrt:lcidtoname_downlevel.obj
 0002:00006510       ??_C@_1M@GLIPPMAC@?$AAf?$AAr?$AA?9?$AAF?$AAR@ 000000018002c510     libucrt:lcidtoname_downlevel.obj
 0002:00006520       ??_C@_1M@GFMCHPE@?$AAh?$AAe?$AA?9?$AAI?$AAL@ 000000018002c520     libucrt:lcidtoname_downlevel.obj
 0002:00006530       ??_C@_1M@MHLPGNKM@?$AAh?$AAu?$AA?9?$AAH?$AAU@ 000000018002c530     libucrt:lcidtoname_downlevel.obj
 0002:00006540       ??_C@_1M@LPDDNNPN@?$AAi?$AAs?$AA?9?$AAI?$AAS@ 000000018002c540     libucrt:lcidtoname_downlevel.obj
 0002:00006550       ??_C@_1M@MADIPODN@?$AAi?$AAt?$AA?9?$AAI?$AAT@ 000000018002c550     libucrt:lcidtoname_downlevel.obj
 0002:00006560       ??_C@_1M@IHBJJGG@?$AAn?$AAl?$AA?9?$AAN?$AAL@ 000000018002c560     libucrt:lcidtoname_downlevel.obj
 0002:00006570       ??_C@_1M@EANAGDL@?$AAn?$AAb?$AA?9?$AAN?$AAO@ 000000018002c570     libucrt:lcidtoname_downlevel.obj
 0002:00006580       ??_C@_1M@NEIEMEGP@?$AAp?$AAl?$AA?9?$AAP?$AAL@ 000000018002c580     libucrt:lcidtoname_downlevel.obj
 0002:00006590       ??_C@_1M@BOCFIGEP@?$AAp?$AAt?$AA?9?$AAB?$AAR@ 000000018002c590     libucrt:lcidtoname_downlevel.obj
 0002:000065a0       ??_C@_1M@IMPFOPBG@?$AAr?$AAo?$AA?9?$AAR?$AAO@ 000000018002c5a0     libucrt:lcidtoname_downlevel.obj
 0002:000065b0       ??_C@_1M@IDNNEJMM@?$AAr?$AAu?$AA?9?$AAR?$AAU@ 000000018002c5b0     libucrt:lcidtoname_downlevel.obj
 0002:000065c0       ??_C@_1M@LILEEOGM@?$AAh?$AAr?$AA?9?$AAH?$AAR@ 000000018002c5c0     libucrt:lcidtoname_downlevel.obj
 0002:000065d0       ??_C@_1M@FKIFEHPB@?$AAs?$AAk?$AA?9?$AAS?$AAK@ 000000018002c5d0     libucrt:lcidtoname_downlevel.obj
 0002:000065e0       ??_C@_1M@LJMAMNPJ@?$AAs?$AAq?$AA?9?$AAA?$AAL@ 000000018002c5e0     libucrt:lcidtoname_downlevel.obj
 0002:000065f0       ??_C@_1M@GIAKDKJK@?$AAs?$AAv?$AA?9?$AAS?$AAE@ 000000018002c5f0     libucrt:lcidtoname_downlevel.obj
 0002:00006600       ??_C@_1M@MKJKIKCL@?$AAt?$AAh?$AA?9?$AAT?$AAH@ 000000018002c600     libucrt:lcidtoname_downlevel.obj
 0002:00006610       ??_C@_1M@MFLCCMPB@?$AAt?$AAr?$AA?9?$AAT?$AAR@ 000000018002c610     libucrt:lcidtoname_downlevel.obj
 0002:00006620       ??_C@_1M@OIJHDKJN@?$AAu?$AAr?$AA?9?$AAP?$AAK@ 000000018002c620     libucrt:lcidtoname_downlevel.obj
 0002:00006630       ??_C@_1M@LHIPCIEK@?$AAi?$AAd?$AA?9?$AAI?$AAD@ 000000018002c630     libucrt:lcidtoname_downlevel.obj
 0002:00006640       ??_C@_1M@MFMOBGI@?$AAu?$AAk?$AA?9?$AAU?$AAA@ 000000018002c640     libucrt:lcidtoname_downlevel.obj
 0002:00006650       ??_C@_1M@OBGLJIPL@?$AAb?$AAe?$AA?9?$AAB?$AAY@ 000000018002c650     libucrt:lcidtoname_downlevel.obj
 0002:00006660       ??_C@_1M@BCFAJEAD@?$AAs?$AAl?$AA?9?$AAS?$AAI@ 000000018002c660     libucrt:lcidtoname_downlevel.obj
 0002:00006670       ??_C@_1M@FKFFEDDN@?$AAe?$AAt?$AA?9?$AAE?$AAE@ 000000018002c670     libucrt:lcidtoname_downlevel.obj
 0002:00006680       ??_C@_1M@KGKKAACI@?$AAl?$AAv?$AA?9?$AAL?$AAV@ 000000018002c680     libucrt:lcidtoname_downlevel.obj
 0002:00006690       ??_C@_1M@IFGBIJO@?$AAl?$AAt?$AA?9?$AAL?$AAT@ 000000018002c690     libucrt:lcidtoname_downlevel.obj
 0002:000066a0       ??_C@_1M@FGEAHEDM@?$AAf?$AAa?$AA?9?$AAI?$AAR@ 000000018002c6a0     libucrt:lcidtoname_downlevel.obj
 0002:000066b0       ??_C@_1M@KBMAIBFN@?$AAv?$AAi?$AA?9?$AAV?$AAN@ 000000018002c6b0     libucrt:lcidtoname_downlevel.obj
 0002:000066c0       ??_C@_1M@GPCBKDJK@?$AAh?$AAy?$AA?9?$AAA?$AAM@ 000000018002c6c0     libucrt:lcidtoname_downlevel.obj
 0002:000066d0       ??_C@_1BG@BECMDDJB@?$AAa?$AAz?$AA?9?$AAA?$AAZ?$AA?9?$AAL?$AAa?$AAt?$AAn@ 000000018002c6d0     libucrt:lcidtoname_downlevel.obj
 0002:000066e8       ??_C@_1M@MAOFCAEA@?$AAe?$AAu?$AA?9?$AAE?$AAS@ 000000018002c6e8     libucrt:lcidtoname_downlevel.obj
 0002:000066f8       ??_C@_1M@IGHABKPI@?$AAm?$AAk?$AA?9?$AAM?$AAK@ 000000018002c6f8     libucrt:lcidtoname_downlevel.obj
 0002:00006708       ??_C@_1M@IAIGNEJG@?$AAt?$AAn?$AA?9?$AAZ?$AAA@ 000000018002c708     libucrt:lcidtoname_downlevel.obj
 0002:00006718       ??_C@_1M@IIJCOJFA@?$AAx?$AAh?$AA?9?$AAZ?$AAA@ 000000018002c718     libucrt:lcidtoname_downlevel.obj
 0002:00006728       ??_C@_1M@LGPJHNJH@?$AAz?$AAu?$AA?9?$AAZ?$AAA@ 000000018002c728     libucrt:lcidtoname_downlevel.obj
 0002:00006738       ??_C@_1M@HOKAOIO@?$AAa?$AAf?$AA?9?$AAZ?$AAA@ 000000018002c738     libucrt:lcidtoname_downlevel.obj
 0002:00006748       ??_C@_1M@DPCLHLIE@?$AAk?$AAa?$AA?9?$AAG?$AAE@ 000000018002c748     libucrt:lcidtoname_downlevel.obj
 0002:00006758       ??_C@_1M@BLKMHJBI@?$AAf?$AAo?$AA?9?$AAF?$AAO@ 000000018002c758     libucrt:lcidtoname_downlevel.obj
 0002:00006768       ??_C@_1M@LGGJAPPB@?$AAh?$AAi?$AA?9?$AAI?$AAN@ 000000018002c768     libucrt:lcidtoname_downlevel.obj
 0002:00006778       ??_C@_1M@FIKPIHFE@?$AAm?$AAt?$AA?9?$AAM?$AAT@ 000000018002c778     libucrt:lcidtoname_downlevel.obj
 0002:00006788       ??_C@_1M@HEGGPBFA@?$AAs?$AAe?$AA?9?$AAN?$AAO@ 000000018002c788     libucrt:lcidtoname_downlevel.obj
 0002:00006798       ??_C@_1M@EIBJEEPA@?$AAm?$AAs?$AA?9?$AAM?$AAY@ 000000018002c798     libucrt:lcidtoname_downlevel.obj
 0002:000067a8       ??_C@_1M@FHLBGMPP@?$AAk?$AAk?$AA?9?$AAK?$AAZ@ 000000018002c7a8     libucrt:lcidtoname_downlevel.obj
 0002:000067b8       ??_C@_1M@NGJJLCGI@?$AAk?$AAy?$AA?9?$AAK?$AAG@ 000000018002c7b8     libucrt:lcidtoname_downlevel.obj
 0002:000067c8       ??_C@_1M@GIENNBFC@?$AAs?$AAw?$AA?9?$AAK?$AAE@ 000000018002c7c8     libucrt:lcidtoname_downlevel.obj
 0002:000067d8       ??_C@_1BG@NDGMJIMJ@?$AAu?$AAz?$AA?9?$AAU?$AAZ?$AA?9?$AAL?$AAa?$AAt?$AAn@ 000000018002c7d8     libucrt:lcidtoname_downlevel.obj
 0002:000067f0       ??_C@_1M@IDCCIHBC@?$AAt?$AAt?$AA?9?$AAR?$AAU@ 000000018002c7f0     libucrt:lcidtoname_downlevel.obj
 0002:00006800       ??_C@_1M@LOICPMOJ@?$AAb?$AAn?$AA?9?$AAI?$AAN@ 000000018002c800     libucrt:lcidtoname_downlevel.obj
 0002:00006810       ??_C@_1M@KPKKNEAH@?$AAp?$AAa?$AA?9?$AAI?$AAN@ 000000018002c810     libucrt:lcidtoname_downlevel.obj
 0002:00006820       ??_C@_1M@PJGPPBOG@?$AAg?$AAu?$AA?9?$AAI?$AAN@ 000000018002c820     libucrt:lcidtoname_downlevel.obj
 0002:00006830       ??_C@_1M@KMKMOPHI@?$AAt?$AAa?$AA?9?$AAI?$AAN@ 000000018002c830     libucrt:lcidtoname_downlevel.obj
 0002:00006840       ??_C@_1M@KFEHEPAC@?$AAt?$AAe?$AA?9?$AAI?$AAN@ 000000018002c840     libucrt:lcidtoname_downlevel.obj
 0002:00006850       ??_C@_1M@CDCLMGHI@?$AAk?$AAn?$AA?9?$AAI?$AAN@ 000000018002c850     libucrt:lcidtoname_downlevel.obj
 0002:00006860       ??_C@_1M@MIODLDKF@?$AAm?$AAl?$AA?9?$AAI?$AAN@ 000000018002c860     libucrt:lcidtoname_downlevel.obj
 0002:00006870       ??_C@_1M@PBIEACPO@?$AAm?$AAr?$AA?9?$AAI?$AAN@ 000000018002c870     libucrt:lcidtoname_downlevel.obj
 0002:00006880       ??_C@_1M@NIDEAGPH@?$AAs?$AAa?$AA?9?$AAI?$AAN@ 000000018002c880     libucrt:lcidtoname_downlevel.obj
 0002:00006890       ??_C@_1M@FHIHCBIO@?$AAm?$AAn?$AA?9?$AAM?$AAN@ 000000018002c890     libucrt:lcidtoname_downlevel.obj
 0002:000068a0       ??_C@_1M@JAIJPENP@?$AAc?$AAy?$AA?9?$AAG?$AAB@ 000000018002c8a0     libucrt:lcidtoname_downlevel.obj
 0002:000068b0       ??_C@_1M@PHGFBEPN@?$AAg?$AAl?$AA?9?$AAE?$AAS@ 000000018002c8b0     libucrt:lcidtoname_downlevel.obj
 0002:000068c0       ??_C@_1O@KPIPDNCP@?$AAk?$AAo?$AAk?$AA?9?$AAI?$AAN@ 000000018002c8c0     libucrt:lcidtoname_downlevel.obj
 0002:000068d0       ??_C@_1O@KNHJLDJA@?$AAs?$AAy?$AAr?$AA?9?$AAS?$AAY@ 000000018002c8d0     libucrt:lcidtoname_downlevel.obj
 0002:000068e0       ??_C@_1O@MKEKBLAH@?$AAd?$AAi?$AAv?$AA?9?$AAM?$AAV@ 000000018002c8e0     libucrt:lcidtoname_downlevel.obj
 0002:000068f0       ??_C@_1O@OHDCKDDF@?$AAq?$AAu?$AAz?$AA?9?$AAB?$AAO@ 000000018002c8f0     libucrt:lcidtoname_downlevel.obj
 0002:00006900       ??_C@_1M@LEPJNLFD@?$AAn?$AAs?$AA?9?$AAZ?$AAA@ 000000018002c900     libucrt:lcidtoname_downlevel.obj
 0002:00006910       ??_C@_1M@OMLEIIJB@?$AAm?$AAi?$AA?9?$AAN?$AAZ@ 000000018002c910     libucrt:lcidtoname_downlevel.obj
 0002:00006920       ??_C@_1M@PMPEAILG@?$AAa?$AAr?$AA?9?$AAI?$AAQ@ 000000018002c920     libucrt:lcidtoname_downlevel.obj
 0002:00006930       ??_C@_1M@CNKPNOEE@?$AAd?$AAe?$AA?9?$AAC?$AAH@ 000000018002c930     libucrt:lcidtoname_downlevel.obj
 0002:00006940       ??_C@_1M@LKMGMLKO@?$AAe?$AAn?$AA?9?$AAG?$AAB@ 000000018002c940     libucrt:lcidtoname_downlevel.obj
 0002:00006950       ??_C@_1M@PGKJFFGL@?$AAe?$AAs?$AA?9?$AAM?$AAX@ 000000018002c950     libucrt:lcidtoname_downlevel.obj
 0002:00006960       ??_C@_1M@DNNANBDC@?$AAf?$AAr?$AA?9?$AAB?$AAE@ 000000018002c960     libucrt:lcidtoname_downlevel.obj
 0002:00006970       ??_C@_1M@HLGMDFHM@?$AAi?$AAt?$AA?9?$AAC?$AAH@ 000000018002c970     libucrt:lcidtoname_downlevel.obj
 0002:00006980       ??_C@_1M@CLLBGJH@?$AAn?$AAl?$AA?9?$AAB?$AAE@ 000000018002c980     libucrt:lcidtoname_downlevel.obj
 0002:00006990       ??_C@_1M@BODBOGLF@?$AAn?$AAn?$AA?9?$AAN?$AAO@ 000000018002c990     libucrt:lcidtoname_downlevel.obj
 0002:000069a0       ??_C@_1M@HFFAHKAD@?$AAp?$AAt?$AA?9?$AAP?$AAT@ 000000018002c9a0     libucrt:lcidtoname_downlevel.obj
 0002:000069b0       ??_C@_1BG@LNOAKHIE@?$AAs?$AAr?$AA?9?$AAS?$AAP?$AA?9?$AAL?$AAa?$AAt?$AAn@ 000000018002c9b0     libucrt:lcidtoname_downlevel.obj
 0002:000069c8       ??_C@_1M@HBMHBGAK@?$AAs?$AAv?$AA?9?$AAF?$AAI@ 000000018002c9c8     libucrt:lcidtoname_downlevel.obj
 0002:000069d8       ??_C@_1BG@DGCJGJBE@?$AAa?$AAz?$AA?9?$AAA?$AAZ?$AA?9?$AAC?$AAy?$AAr?$AAl@ 000000018002c9d8     libucrt:lcidtoname_downlevel.obj
 0002:000069f0       ??_C@_1M@KEJDAAHB@?$AAs?$AAe?$AA?9?$AAS?$AAE@ 000000018002c9f0     libucrt:lcidtoname_downlevel.obj
 0002:00006a00       ??_C@_1M@HEIBJJAD@?$AAm?$AAs?$AA?9?$AAB?$AAN@ 000000018002ca00     libucrt:lcidtoname_downlevel.obj
 0002:00006a10       ??_C@_1BG@PBGJMCEM@?$AAu?$AAz?$AA?9?$AAU?$AAZ?$AA?9?$AAC?$AAy?$AAr?$AAl@ 000000018002ca10     libucrt:lcidtoname_downlevel.obj
 0002:00006a28       ??_C@_1O@LAOBCMDF@?$AAq?$AAu?$AAz?$AA?9?$AAE?$AAC@ 000000018002ca28     libucrt:lcidtoname_downlevel.obj
 0002:00006a38       ??_C@_1M@POEEMAIO@?$AAa?$AAr?$AA?9?$AAE?$AAG@ 000000018002ca38     libucrt:lcidtoname_downlevel.obj
 0002:00006a48       ??_C@_1M@EFAKDEDL@?$AAz?$AAh?$AA?9?$AAH?$AAK@ 000000018002ca48     libucrt:lcidtoname_downlevel.obj
 0002:00006a58       ??_C@_1M@HKKIJHGI@?$AAd?$AAe?$AA?9?$AAA?$AAT@ 000000018002ca58     libucrt:lcidtoname_downlevel.obj
 0002:00006a68       ??_C@_1M@KBFBEHJF@?$AAe?$AAn?$AA?9?$AAA?$AAU@ 000000018002ca68     libucrt:lcidtoname_downlevel.obj
 0002:00006a78       ??_C@_1M@MNPLFAAH@?$AAe?$AAs?$AA?9?$AAE?$AAS@ 000000018002ca78     libucrt:lcidtoname_downlevel.obj
 0002:00006a88       ??_C@_1M@HJOOJFMA@?$AAf?$AAr?$AA?9?$AAC?$AAA@ 000000018002ca88     libucrt:lcidtoname_downlevel.obj
 0002:00006a98       ??_C@_1BG@JPOFPNAB@?$AAs?$AAr?$AA?9?$AAS?$AAP?$AA?9?$AAC?$AAy?$AAr?$AAl@ 000000018002ca98     libucrt:lcidtoname_downlevel.obj
 0002:00006ab0       ??_C@_1M@LNFOCMOB@?$AAs?$AAe?$AA?9?$AAF?$AAI@ 000000018002cab0     libucrt:lcidtoname_downlevel.obj
 0002:00006ac0       ??_C@_1O@MGJBOAMB@?$AAq?$AAu?$AAz?$AA?9?$AAP?$AAE@ 000000018002cac0     libucrt:lcidtoname_downlevel.obj
 0002:00006ad0       ??_C@_1M@GJINLBOK@?$AAa?$AAr?$AA?9?$AAL?$AAY@ 000000018002cad0     libucrt:lcidtoname_downlevel.obj
 0002:00006ae0       ??_C@_1M@GGMNHJNL@?$AAz?$AAh?$AA?9?$AAS?$AAG@ 000000018002cae0     libucrt:lcidtoname_downlevel.obj
 0002:00006af0       ??_C@_1M@HOIKODND@?$AAd?$AAe?$AA?9?$AAL?$AAU@ 000000018002caf0     libucrt:lcidtoname_downlevel.obj
 0002:00006b00       ??_C@_1M@DDOCCGFG@?$AAe?$AAn?$AA?9?$AAC?$AAA@ 000000018002cb00     libucrt:lcidtoname_downlevel.obj
 0002:00006b10       ??_C@_1M@BNOEMJLF@?$AAe?$AAs?$AA?9?$AAG?$AAT@ 000000018002cb10     libucrt:lcidtoname_downlevel.obj
 0002:00006b20       ??_C@_1M@EOGNKEK@?$AAf?$AAr?$AA?9?$AAC?$AAH@ 000000018002cb20     libucrt:lcidtoname_downlevel.obj
 0002:00006b30       ??_C@_1M@FLIDJFHL@?$AAh?$AAr?$AA?9?$AAB?$AAA@ 000000018002cb30     libucrt:lcidtoname_downlevel.obj
 0002:00006b40       ??_C@_1O@FMCELNAJ@?$AAs?$AAm?$AAj?$AA?9?$AAN?$AAO@ 000000018002cb40     libucrt:lcidtoname_downlevel.obj
 0002:00006b50       ??_C@_1M@JHGLJMGJ@?$AAa?$AAr?$AA?9?$AAD?$AAZ@ 000000018002cb50     libucrt:lcidtoname_downlevel.obj
 0002:00006b60       ??_C@_1M@JKKFDCNP@?$AAz?$AAh?$AA?9?$AAM?$AAO@ 000000018002cb60     libucrt:lcidtoname_downlevel.obj
 0002:00006b70       ??_C@_1M@GEEFALPE@?$AAd?$AAe?$AA?9?$AAL?$AAI@ 000000018002cb70     libucrt:lcidtoname_downlevel.obj
 0002:00006b80       ??_C@_1M@IGEOFBG@?$AAe?$AAn?$AA?9?$AAN?$AAZ@ 000000018002cb80     libucrt:lcidtoname_downlevel.obj
 0002:00006b90       ??_C@_1M@KDBONEHP@?$AAe?$AAs?$AA?9?$AAC?$AAR@ 000000018002cb90     libucrt:lcidtoname_downlevel.obj
 0002:00006ba0       ??_C@_1M@FHMDOHNN@?$AAf?$AAr?$AA?9?$AAL?$AAU@ 000000018002cba0     libucrt:lcidtoname_downlevel.obj
 0002:00006bb0       ??_C@_1BG@NFKKMAFG@?$AAb?$AAs?$AA?9?$AAB?$AAA?$AA?9?$AAL?$AAa?$AAt?$AAn@ 000000018002cbb0     libucrt:lcidtoname_downlevel.obj
 0002:00006bc8       ??_C@_1O@IMNBEMCI@?$AAs?$AAm?$AAj?$AA?9?$AAS?$AAE@ 000000018002cbc8     libucrt:lcidtoname_downlevel.obj
 0002:00006bd8       ??_C@_1M@DHHMBNDP@?$AAa?$AAr?$AA?9?$AAM?$AAA@ 000000018002cbd8     libucrt:lcidtoname_downlevel.obj
 0002:00006be8       ??_C@_1M@BNBLJCGH@?$AAe?$AAn?$AA?9?$AAI?$AAE@ 000000018002cbe8     libucrt:lcidtoname_downlevel.obj
 0002:00006bf8       ??_C@_1M@GEPAFMDL@?$AAe?$AAs?$AA?9?$AAP?$AAA@ 000000018002cbf8     libucrt:lcidtoname_downlevel.obj
 0002:00006c08       ??_C@_1M@OJONDMDL@?$AAf?$AAr?$AA?9?$AAM?$AAC@ 000000018002cc08     libucrt:lcidtoname_downlevel.obj
 0002:00006c18       ??_C@_1BG@OBCNFJB@?$AAs?$AAr?$AA?9?$AAB?$AAA?$AA?9?$AAL?$AAa?$AAt?$AAn@ 000000018002cc18     libucrt:lcidtoname_downlevel.obj
 0002:00006c30       ??_C@_1O@KEMEEGPO@?$AAs?$AAm?$AAa?$AA?9?$AAN?$AAO@ 000000018002cc30     libucrt:lcidtoname_downlevel.obj
 0002:00006c40       ??_C@_1M@ELMGFODK@?$AAa?$AAr?$AA?9?$AAT?$AAN@ 000000018002cc40     libucrt:lcidtoname_downlevel.obj
 0002:00006c50       ??_C@_1M@BHDLHFAF@?$AAe?$AAn?$AA?9?$AAZ?$AAA@ 000000018002cc50     libucrt:lcidtoname_downlevel.obj
 0002:00006c60       ??_C@_1M@BMGIGLIF@?$AAe?$AAs?$AA?9?$AAD?$AAO@ 000000018002cc60     libucrt:lcidtoname_downlevel.obj
 0002:00006c70       ??_C@_1BG@CMBHIPBE@?$AAs?$AAr?$AA?9?$AAB?$AAA?$AA?9?$AAC?$AAy?$AAr?$AAl@ 000000018002cc70     libucrt:lcidtoname_downlevel.obj
 0002:00006c88       ??_C@_1O@HEDBLHNP@?$AAs?$AAm?$AAa?$AA?9?$AAS?$AAE@ 000000018002cc88     libucrt:lcidtoname_downlevel.obj
 0002:00006c98       ??_C@_1M@DAGCADIM@?$AAa?$AAr?$AA?9?$AAO?$AAM@ 000000018002cc98     libucrt:lcidtoname_downlevel.obj
 0002:00006ca8       ??_C@_1M@FODLMICG@?$AAe?$AAn?$AA?9?$AAJ?$AAM@ 000000018002cca8     libucrt:lcidtoname_downlevel.obj
 0002:00006cb8       ??_C@_1M@DNMLCIHB@?$AAe?$AAs?$AA?9?$AAV?$AAE@ 000000018002ccb8     libucrt:lcidtoname_downlevel.obj
 0002:00006cc8       ??_C@_1O@EOKHMKJK@?$AAs?$AAm?$AAs?$AA?9?$AAF?$AAI@ 000000018002ccc8     libucrt:lcidtoname_downlevel.obj
 0002:00006cd8       ??_C@_1M@CAFJMKOF@?$AAa?$AAr?$AA?9?$AAY?$AAE@ 000000018002ccd8     libucrt:lcidtoname_downlevel.obj
 0002:00006ce8       ??_C@_1M@CBFHIJLI@?$AAe?$AAn?$AA?9?$AAC?$AAB@ 000000018002cce8     libucrt:lcidtoname_downlevel.obj
 0002:00006cf8       ??_C@_1M@BGNFLDN@?$AAe?$AAs?$AA?9?$AAC?$AAO@ 000000018002ccf8     libucrt:lcidtoname_downlevel.obj
 0002:00006d08       ??_C@_1O@JMPHMAMC@?$AAs?$AAm?$AAn?$AA?9?$AAF?$AAI@ 000000018002cd08     libucrt:lcidtoname_downlevel.obj
 0002:00006d18       ??_C@_1M@JLANABKE@?$AAa?$AAr?$AA?9?$AAS?$AAY@ 000000018002cd18     libucrt:lcidtoname_downlevel.obj
 0002:00006d28       ??_C@_1M@HPKGCFGN@?$AAe?$AAn?$AA?9?$AAB?$AAZ@ 000000018002cd28     libucrt:lcidtoname_downlevel.obj
 0002:00006d38       ??_C@_1M@OLJCMLGM@?$AAe?$AAs?$AA?9?$AAP?$AAE@ 000000018002cd38     libucrt:lcidtoname_downlevel.obj
 0002:00006d48       ??_C@_1M@MKKGFKLE@?$AAa?$AAr?$AA?9?$AAJ?$AAO@ 000000018002cd48     libucrt:lcidtoname_downlevel.obj
 0002:00006d58       ??_C@_1M@EKPGLDNI@?$AAe?$AAn?$AA?9?$AAT?$AAT@ 000000018002cd58     libucrt:lcidtoname_downlevel.obj
 0002:00006d68       ??_C@_1M@OONGHFHE@?$AAe?$AAs?$AA?9?$AAA?$AAR@ 000000018002cd68     libucrt:lcidtoname_downlevel.obj
 0002:00006d78       ??_C@_1M@OOJFGBHE@?$AAa?$AAr?$AA?9?$AAL?$AAB@ 000000018002cd78     libucrt:lcidtoname_downlevel.obj
 0002:00006d88       ??_C@_1M@GCEJHNEG@?$AAe?$AAn?$AA?9?$AAZ?$AAW@ 000000018002cd88     libucrt:lcidtoname_downlevel.obj
 0002:00006d98       ??_C@_1M@JNOCAHJI@?$AAe?$AAs?$AA?9?$AAE?$AAC@ 000000018002cd98     libucrt:lcidtoname_downlevel.obj
 0002:00006da8       ??_C@_1M@JEFHPGGB@?$AAa?$AAr?$AA?9?$AAK?$AAW@ 000000018002cda8     libucrt:lcidtoname_downlevel.obj
 0002:00006db8       ??_C@_1M@MLKIBJOJ@?$AAe?$AAn?$AA?9?$AAP?$AAH@ 000000018002cdb8     libucrt:lcidtoname_downlevel.obj
 0002:00006dc8       ??_C@_1M@BDNIPEND@?$AAe?$AAs?$AA?9?$AAC?$AAL@ 000000018002cdc8     libucrt:lcidtoname_downlevel.obj
 0002:00006dd8       ??_C@_1M@MPNMEKBD@?$AAa?$AAr?$AA?9?$AAA?$AAE@ 000000018002cdd8     libucrt:lcidtoname_downlevel.obj
 0002:00006de8       ??_C@_1M@KBJALCPI@?$AAe?$AAs?$AA?9?$AAU?$AAY@ 000000018002cde8     libucrt:lcidtoname_downlevel.obj
 0002:00006df8       ??_C@_1M@LLCCOAGA@?$AAa?$AAr?$AA?9?$AAB?$AAH@ 000000018002cdf8     libucrt:lcidtoname_downlevel.obj
 0002:00006e08       ??_C@_1M@PBFNCDEL@?$AAe?$AAs?$AA?9?$AAP?$AAY@ 000000018002ce08     libucrt:lcidtoname_downlevel.obj
 0002:00006e18       ??_C@_1M@EDGINPNP@?$AAa?$AAr?$AA?9?$AAQ?$AAA@ 000000018002ce18     libucrt:lcidtoname_downlevel.obj
 0002:00006e28       ??_C@_1M@MKDBIIJI@?$AAe?$AAs?$AA?9?$AAB?$AAO@ 000000018002ce28     libucrt:lcidtoname_downlevel.obj
 0002:00006e38       ??_C@_1M@CPKKEBLD@?$AAe?$AAs?$AA?9?$AAS?$AAV@ 000000018002ce38     libucrt:lcidtoname_downlevel.obj
 0002:00006e48       ??_C@_1M@NDBGMMJL@?$AAe?$AAs?$AA?9?$AAH?$AAN@ 000000018002ce48     libucrt:lcidtoname_downlevel.obj
 0002:00006e58       ??_C@_1M@JIJIBHDP@?$AAe?$AAs?$AA?9?$AAN?$AAI@ 000000018002ce58     libucrt:lcidtoname_downlevel.obj
 0002:00006e68       ??_C@_1M@CGFMKEEK@?$AAe?$AAs?$AA?9?$AAP?$AAR@ 000000018002ce68     libucrt:lcidtoname_downlevel.obj
 0002:00006e78       ??_C@_1O@ICJHKIIK@?$AAz?$AAh?$AA?9?$AAC?$AAH?$AAT@ 000000018002ce78     libucrt:lcidtoname_downlevel.obj
 0002:00006e88       ??_C@_15CLNEJCE@?$AAs?$AAr@ 000000018002ce88     libucrt:lcidtoname_downlevel.obj
 0002:00007cd0       ??_C@_1M@KAHEKEIG@?$AAa?$AAf?$AA?9?$AAz?$AAa@ 000000018002dcd0     libucrt:lcidtoname_downlevel.obj
 0002:00007ce0       ??_C@_1M@GIECOABL@?$AAa?$AAr?$AA?9?$AAa?$AAe@ 000000018002dce0     libucrt:lcidtoname_downlevel.obj
 0002:00007cf0       ??_C@_1M@BMLMEKGI@?$AAa?$AAr?$AA?9?$AAb?$AAh@ 000000018002dcf0     libucrt:lcidtoname_downlevel.obj
 0002:00007d00       ??_C@_1M@DAPFDGGB@?$AAa?$AAr?$AA?9?$AAd?$AAz@ 000000018002dd00     libucrt:lcidtoname_downlevel.obj
 0002:00007d10       ??_C@_1M@FJNKGKIG@?$AAa?$AAr?$AA?9?$AAe?$AAg@ 000000018002dd10     libucrt:lcidtoname_downlevel.obj
 0002:00007d20       ??_C@_1M@FLGKKCLO@?$AAa?$AAr?$AA?9?$AAi?$AAq@ 000000018002dd20     libucrt:lcidtoname_downlevel.obj
 0002:00007d30       ??_C@_1M@GNDIPALM@?$AAa?$AAr?$AA?9?$AAj?$AAo@ 000000018002dd30     libucrt:lcidtoname_downlevel.obj
 0002:00007d40       ??_C@_1M@DDMJFMGJ@?$AAa?$AAr?$AA?9?$AAk?$AAw@ 000000018002dd40     libucrt:lcidtoname_downlevel.obj
 0002:00007d50       ??_C@_1M@EJALMLHM@?$AAa?$AAr?$AA?9?$AAl?$AAb@ 000000018002dd50     libucrt:lcidtoname_downlevel.obj
 0002:00007d60       ??_C@_1M@MOBDBLOC@?$AAa?$AAr?$AA?9?$AAl?$AAy@ 000000018002dd60     libucrt:lcidtoname_downlevel.obj
 0002:00007d70       ??_C@_1M@JAOCLHDH@?$AAa?$AAr?$AA?9?$AAm?$AAa@ 000000018002dd70     libucrt:lcidtoname_downlevel.obj
 0002:00007d80       ??_C@_1M@JHPMKJIE@?$AAa?$AAr?$AA?9?$AAo?$AAm@ 000000018002dd80     libucrt:lcidtoname_downlevel.obj
 0002:00007d90       ??_C@_1M@OEPGHFNH@?$AAa?$AAr?$AA?9?$AAq?$AAa@ 000000018002dd90     libucrt:lcidtoname_downlevel.obj
 0002:00007da0       ??_C@_1M@KJDONENM@?$AAa?$AAr?$AA?9?$AAs?$AAa@ 000000018002dda0     libucrt:lcidtoname_downlevel.obj
 0002:00007db0       ??_C@_1M@DMJDKLKM@?$AAa?$AAr?$AA?9?$AAs?$AAy@ 000000018002ddb0     libucrt:lcidtoname_downlevel.obj
 0002:00007dc0       ??_C@_1M@OMFIPEDC@?$AAa?$AAr?$AA?9?$AAt?$AAn@ 000000018002ddc0     libucrt:lcidtoname_downlevel.obj
 0002:00007dd0       ??_C@_1M@IHMHGAON@?$AAa?$AAr?$AA?9?$AAy?$AAe@ 000000018002ddd0     libucrt:lcidtoname_downlevel.obj
 0002:00007de0       ??_C@_1BG@KDCPGJGB@?$AAa?$AAz?$AA?9?$AAa?$AAz?$AA?9?$AAc?$AAy?$AAr?$AAl@ 000000018002dde0     libucrt:lcidtoname_downlevel.obj
 0002:00007df8       ??_C@_1BG@IBCKDDOE@?$AAa?$AAz?$AA?9?$AAa?$AAz?$AA?9?$AAl?$AAa?$AAt?$AAn@ 000000018002ddf8     libucrt:lcidtoname_downlevel.obj
 0002:00007e10       ??_C@_1M@EGPFDCPD@?$AAb?$AAe?$AA?9?$AAb?$AAy@ 000000018002de10     libucrt:lcidtoname_downlevel.obj
 0002:00007e20       ??_C@_1M@PCMGMCGC@?$AAb?$AAg?$AA?9?$AAb?$AAg@ 000000018002de20     libucrt:lcidtoname_downlevel.obj
 0002:00007e30       ??_C@_1M@BJBMFGOB@?$AAb?$AAn?$AA?9?$AAi?$AAn@ 000000018002de30     libucrt:lcidtoname_downlevel.obj
 0002:00007e40       ??_C@_1BG@EAKMMACD@?$AAb?$AAs?$AA?9?$AAb?$AAa?$AA?9?$AAl?$AAa?$AAt?$AAn@ 000000018002de40     libucrt:lcidtoname_downlevel.obj
 0002:00007e58       ??_C@_1M@KGADAODK@?$AAc?$AAa?$AA?9?$AAe?$AAs@ 000000018002de58     libucrt:lcidtoname_downlevel.obj
 0002:00007e68       ??_C@_1M@COAJPDHI@?$AAc?$AAs?$AA?9?$AAc?$AAz@ 000000018002de68     libucrt:lcidtoname_downlevel.obj
 0002:00007e78       ??_C@_1M@DHBHFONH@?$AAc?$AAy?$AA?9?$AAg?$AAb@ 000000018002de78     libucrt:lcidtoname_downlevel.obj
 0002:00007e88       ??_C@_1M@IMGKELGA@?$AAd?$AAa?$AA?9?$AAd?$AAk@ 000000018002de88     libucrt:lcidtoname_downlevel.obj
 0002:00007e98       ??_C@_1M@NNDGDNGA@?$AAd?$AAe?$AA?9?$AAa?$AAt@ 000000018002de98     libucrt:lcidtoname_downlevel.obj
 0002:00007ea8       ??_C@_1M@IKDBHEEM@?$AAd?$AAe?$AA?9?$AAc?$AAh@ 000000018002dea8     libucrt:lcidtoname_downlevel.obj
 0002:00007eb8       ??_C@_1M@GFFOJMCJ@?$AAd?$AAe?$AA?9?$AAd?$AAe@ 000000018002deb8     libucrt:lcidtoname_downlevel.obj
 0002:00007ec8       ??_C@_1M@MDNLKBPM@?$AAd?$AAe?$AA?9?$AAl?$AAi@ 000000018002dec8     libucrt:lcidtoname_downlevel.obj
 0002:00007ed8       ??_C@_1M@NJBEEJNL@?$AAd?$AAe?$AA?9?$AAl?$AAu@ 000000018002ded8     libucrt:lcidtoname_downlevel.obj
 0002:00007ee8       ??_C@_1O@GNNELBAP@?$AAd?$AAi?$AAv?$AA?9?$AAm?$AAv@ 000000018002dee8     libucrt:lcidtoname_downlevel.obj
 0002:00007ef8       ??_C@_1M@EJLEOGAE@?$AAe?$AAl?$AA?9?$AAg?$AAr@ 000000018002def8     libucrt:lcidtoname_downlevel.obj
 0002:00007f08       ??_C@_1M@GMPONJN@?$AAe?$AAn?$AA?9?$AAa?$AAu@ 000000018002df08     libucrt:lcidtoname_downlevel.obj
 0002:00007f18       ??_C@_1M@NIDIIPGF@?$AAe?$AAn?$AA?9?$AAb?$AAz@ 000000018002df18     libucrt:lcidtoname_downlevel.obj
 0002:00007f28       ??_C@_1M@JEHMIMFO@?$AAe?$AAn?$AA?9?$AAc?$AAa@ 000000018002df28     libucrt:lcidtoname_downlevel.obj
 0002:00007f38       ??_C@_1M@IGMJCDLA@?$AAe?$AAn?$AA?9?$AAc?$AAb@ 000000018002df38     libucrt:lcidtoname_downlevel.obj
 0002:00007f48       ??_C@_1M@BNFIGBKG@?$AAe?$AAn?$AA?9?$AAg?$AAb@ 000000018002df48     libucrt:lcidtoname_downlevel.obj
 0002:00007f58       ??_C@_1M@LKIFDIGP@?$AAe?$AAn?$AA?9?$AAi?$AAe@ 000000018002df58     libucrt:lcidtoname_downlevel.obj
 0002:00007f68       ??_C@_1M@PJKFGCCO@?$AAe?$AAn?$AA?9?$AAj?$AAm@ 000000018002df68     libucrt:lcidtoname_downlevel.obj
 0002:00007f78       ??_C@_1M@KPPKEPBO@?$AAe?$AAn?$AA?9?$AAn?$AAz@ 000000018002df78     libucrt:lcidtoname_downlevel.obj
 0002:00007f88       ??_C@_1M@GMDGLDOB@?$AAe?$AAn?$AA?9?$AAp?$AAh@ 000000018002df88     libucrt:lcidtoname_downlevel.obj
 0002:00007f98       ??_C@_1M@ONGIBJNA@?$AAe?$AAn?$AA?9?$AAt?$AAt@ 000000018002df98     libucrt:lcidtoname_downlevel.obj
 0002:00007fa8       ??_C@_1M@LLODPCMM@?$AAe?$AAn?$AA?9?$AAu?$AAs@ 000000018002dfa8     libucrt:lcidtoname_downlevel.obj
 0002:00007fb8       ??_C@_1M@LAKFNPAN@?$AAe?$AAn?$AA?9?$AAz?$AAa@ 000000018002dfb8     libucrt:lcidtoname_downlevel.obj
 0002:00007fc8       ??_C@_1M@MFNHNHEO@?$AAe?$AAn?$AA?9?$AAz?$AAw@ 000000018002dfc8     libucrt:lcidtoname_downlevel.obj
 0002:00007fd8       ??_C@_1M@EJEINPHM@?$AAe?$AAs?$AA?9?$AAa?$AAr@ 000000018002dfd8     libucrt:lcidtoname_downlevel.obj
 0002:00007fe8       ??_C@_1M@GNKPCCJA@?$AAe?$AAs?$AA?9?$AAb?$AAo@ 000000018002dfe8     libucrt:lcidtoname_downlevel.obj
 0002:00007ff8       ??_C@_1M@LEEGFONL@?$AAe?$AAs?$AA?9?$AAc?$AAl@ 000000018002dff8     libucrt:lcidtoname_downlevel.obj
 0002:00008008       ??_C@_1M@KGPDPBDF@?$AAe?$AAs?$AA?9?$AAc?$AAo@ 000000018002e008     libucrt:lcidtoname_downlevel.obj
 0002:00008018       ??_C@_1M@EIAHOHH@?$AAe?$AAs?$AA?9?$AAc?$AAr@ 000000018002e018     libucrt:lcidtoname_downlevel.obj
 0002:00008028       ??_C@_1M@LLPGMBIN@?$AAe?$AAs?$AA?9?$AAd?$AAo@ 000000018002e028     libucrt:lcidtoname_downlevel.obj
 0002:00008038       ??_C@_1M@DKHMKNJA@?$AAe?$AAs?$AA?9?$AAe?$AAc@ 000000018002e038     libucrt:lcidtoname_downlevel.obj
 0002:00008048       ??_C@_1M@GKGFPKAP@?$AAe?$AAs?$AA?9?$AAe?$AAs@ 000000018002e048     libucrt:lcidtoname_downlevel.obj
 0002:00008058       ??_C@_1M@LKHKGDLN@?$AAe?$AAs?$AA?9?$AAg?$AAt@ 000000018002e058     libucrt:lcidtoname_downlevel.obj
 0002:00008068       ??_C@_1M@HEIIGGJD@?$AAe?$AAs?$AA?9?$AAh?$AAn@ 000000018002e068     libucrt:lcidtoname_downlevel.obj
 0002:00008078       ??_C@_1M@FBDHPPGD@?$AAe?$AAs?$AA?9?$AAm?$AAx@ 000000018002e078     libucrt:lcidtoname_downlevel.obj
 0002:00008088       ??_C@_1M@DPAGLNDH@?$AAe?$AAs?$AA?9?$AAn?$AAi@ 000000018002e088     libucrt:lcidtoname_downlevel.obj
 0002:00008098       ??_C@_1M@MDGOPGDD@?$AAe?$AAs?$AA?9?$AAp?$AAa@ 000000018002e098     libucrt:lcidtoname_downlevel.obj
 0002:000080a8       ??_C@_1M@EMAMGBGE@?$AAe?$AAs?$AA?9?$AAp?$AAe@ 000000018002e0a8     libucrt:lcidtoname_downlevel.obj
 0002:000080b8       ??_C@_1M@IBMCAOEC@?$AAe?$AAs?$AA?9?$AAp?$AAr@ 000000018002e0b8     libucrt:lcidtoname_downlevel.obj
 0002:000080c8       ??_C@_1M@FGMDIJED@?$AAe?$AAs?$AA?9?$AAp?$AAy@ 000000018002e0c8     libucrt:lcidtoname_downlevel.obj
 0002:000080d8       ??_C@_1M@IIDEOLLL@?$AAe?$AAs?$AA?9?$AAs?$AAv@ 000000018002e0d8     libucrt:lcidtoname_downlevel.obj
 0002:000080e8       ??_C@_1M@GAOBIPA@?$AAe?$AAs?$AA?9?$AAu?$AAy@ 000000018002e0e8     libucrt:lcidtoname_downlevel.obj
 0002:000080f8       ??_C@_1M@JKFFICHJ@?$AAe?$AAs?$AA?9?$AAv?$AAe@ 000000018002e0f8     libucrt:lcidtoname_downlevel.obj
 0002:00008108       ??_C@_1M@PNMLOJDF@?$AAe?$AAt?$AA?9?$AAe?$AAe@ 000000018002e108     libucrt:lcidtoname_downlevel.obj
 0002:00008118       ??_C@_1M@GHHLIKEI@?$AAe?$AAu?$AA?9?$AAe?$AAs@ 000000018002e118     libucrt:lcidtoname_downlevel.obj
 0002:00008128       ??_C@_1M@PBNONODE@?$AAf?$AAa?$AA?9?$AAi?$AAr@ 000000018002e128     libucrt:lcidtoname_downlevel.obj
 0002:00008138       ??_C@_1M@JEEHPMIL@?$AAf?$AAi?$AA?9?$AAf?$AAi@ 000000018002e138     libucrt:lcidtoname_downlevel.obj
 0002:00008148       ??_C@_1M@LMDCNDBA@?$AAf?$AAo?$AA?9?$AAf?$AAo@ 000000018002e148     libucrt:lcidtoname_downlevel.obj
 0002:00008158       ??_C@_1M@JKEOHLDK@?$AAf?$AAr?$AA?9?$AAb?$AAe@ 000000018002e158     libucrt:lcidtoname_downlevel.obj
 0002:00008168       ??_C@_1M@NOHADPMI@?$AAf?$AAr?$AA?9?$AAc?$AAa@ 000000018002e168     libucrt:lcidtoname_downlevel.obj
 0002:00008178       ??_C@_1M@KDHIHAEC@?$AAf?$AAr?$AA?9?$AAc?$AAh@ 000000018002e178     libucrt:lcidtoname_downlevel.obj
 0002:00008188       ??_C@_1M@MMBBFGAK@?$AAf?$AAr?$AA?9?$AAf?$AAr@ 000000018002e188     libucrt:lcidtoname_downlevel.obj
 0002:00008198       ??_C@_1M@PAFNENNF@?$AAf?$AAr?$AA?9?$AAl?$AAu@ 000000018002e198     libucrt:lcidtoname_downlevel.obj
 0002:000081a8       ??_C@_1M@EOHDJGDD@?$AAf?$AAr?$AA?9?$AAm?$AAc@ 000000018002e1a8     libucrt:lcidtoname_downlevel.obj
 0002:000081b8       ??_C@_1M@FAPLLOPF@?$AAg?$AAl?$AA?9?$AAe?$AAs@ 000000018002e1b8     libucrt:lcidtoname_downlevel.obj
 0002:000081c8       ??_C@_1M@FOPBFLOO@?$AAg?$AAu?$AA?9?$AAi?$AAn@ 000000018002e1c8     libucrt:lcidtoname_downlevel.obj
 0002:000081d8       ??_C@_1M@KBMCINPM@?$AAh?$AAe?$AA?9?$AAi?$AAl@ 000000018002e1d8     libucrt:lcidtoname_downlevel.obj
 0002:000081e8       ??_C@_1M@BBPHKFPJ@?$AAh?$AAi?$AA?9?$AAi?$AAn@ 000000018002e1e8     libucrt:lcidtoname_downlevel.obj
 0002:000081f8       ??_C@_1M@PMBNDPHD@?$AAh?$AAr?$AA?9?$AAb?$AAa@ 000000018002e1f8     libucrt:lcidtoname_downlevel.obj
 0002:00008208       ??_C@_1M@BPCKOEGE@?$AAh?$AAr?$AA?9?$AAh?$AAr@ 000000018002e208     libucrt:lcidtoname_downlevel.obj
 0002:00008218       ??_C@_1M@GACBMHKE@?$AAh?$AAu?$AA?9?$AAh?$AAu@ 000000018002e218     libucrt:lcidtoname_downlevel.obj
 0002:00008228       ??_C@_1M@MILPAJJC@?$AAh?$AAy?$AA?9?$AAa?$AAm@ 000000018002e228     libucrt:lcidtoname_downlevel.obj
 0002:00008238       ??_C@_1M@BABBICEC@?$AAi?$AAd?$AA?9?$AAi?$AAd@ 000000018002e238     libucrt:lcidtoname_downlevel.obj
 0002:00008248       ??_C@_1M@BIKNHHPF@?$AAi?$AAs?$AA?9?$AAi?$AAs@ 000000018002e248     libucrt:lcidtoname_downlevel.obj
 0002:00008258       ??_C@_1M@NMPCJPHE@?$AAi?$AAt?$AA?9?$AAc?$AAh@ 000000018002e258     libucrt:lcidtoname_downlevel.obj
 0002:00008268       ??_C@_1M@GHKGFEDF@?$AAi?$AAt?$AA?9?$AAi?$AAt@ 000000018002e268     libucrt:lcidtoname_downlevel.obj
 0002:00008278       ??_C@_1M@NIEJCJJA@?$AAj?$AAa?$AA?9?$AAj?$AAp@ 000000018002e278     libucrt:lcidtoname_downlevel.obj
 0002:00008288       ??_C@_1M@JILFNBIM@?$AAk?$AAa?$AA?9?$AAg?$AAe@ 000000018002e288     libucrt:lcidtoname_downlevel.obj
 0002:00008298       ??_C@_1M@PACPMGPH@?$AAk?$AAk?$AA?9?$AAk?$AAz@ 000000018002e298     libucrt:lcidtoname_downlevel.obj
 0002:000082a8       ??_C@_1M@IELFGMHA@?$AAk?$AAn?$AA?9?$AAi?$AAn@ 000000018002e2a8     libucrt:lcidtoname_downlevel.obj
 0002:000082b8       ??_C@_1O@IBBJHCH@?$AAk?$AAo?$AAk?$AA?9?$AAi?$AAn@ 000000018002e2b8     libucrt:lcidtoname_downlevel.obj
 0002:000082c8       ??_C@_1M@DMHAEOGC@?$AAk?$AAo?$AA?9?$AAk?$AAr@ 000000018002e2c8     libucrt:lcidtoname_downlevel.obj
 0002:000082d8       ??_C@_1M@HBAHBIGA@?$AAk?$AAy?$AA?9?$AAk?$AAg@ 000000018002e2d8     libucrt:lcidtoname_downlevel.obj
 0002:000082e8       ??_C@_1M@KPMILCJG@?$AAl?$AAt?$AA?9?$AAl?$AAt@ 000000018002e2e8     libucrt:lcidtoname_downlevel.obj
 0002:000082f8       ??_C@_1M@BDEKKCA@?$AAl?$AAv?$AA?9?$AAl?$AAv@ 000000018002e2f8     libucrt:lcidtoname_downlevel.obj
 0002:00008308       ??_C@_1M@ELCKCCJJ@?$AAm?$AAi?$AA?9?$AAn?$AAz@ 000000018002e308     libucrt:lcidtoname_downlevel.obj
 0002:00008318       ??_C@_1M@CBOOLAPA@?$AAm?$AAk?$AA?9?$AAm?$AAk@ 000000018002e318     libucrt:lcidtoname_downlevel.obj
 0002:00008328       ??_C@_1M@GPHNBJKN@?$AAm?$AAl?$AA?9?$AAi?$AAn@ 000000018002e328     libucrt:lcidtoname_downlevel.obj
 0002:00008338       ??_C@_1M@PABJILIG@?$AAm?$AAn?$AA?9?$AAm?$AAn@ 000000018002e338     libucrt:lcidtoname_downlevel.obj
 0002:00008348       ??_C@_1M@FGBKKIPG@?$AAm?$AAr?$AA?9?$AAi?$AAn@ 000000018002e348     libucrt:lcidtoname_downlevel.obj
 0002:00008358       ??_C@_1M@NDBPDDAL@?$AAm?$AAs?$AA?9?$AAb?$AAn@ 000000018002e358     libucrt:lcidtoname_downlevel.obj
 0002:00008368       ??_C@_1M@OPIHOOPI@?$AAm?$AAs?$AA?9?$AAm?$AAy@ 000000018002e368     libucrt:lcidtoname_downlevel.obj
 0002:00008378       ??_C@_1M@PPDBCNFM@?$AAm?$AAt?$AA?9?$AAm?$AAt@ 000000018002e378     libucrt:lcidtoname_downlevel.obj
 0002:00008388       ??_C@_1M@KDJDKMDD@?$AAn?$AAb?$AA?9?$AAn?$AAo@ 000000018002e388     libucrt:lcidtoname_downlevel.obj
 0002:00008398       ??_C@_1M@KFCFLMJP@?$AAn?$AAl?$AA?9?$AAb?$AAe@ 000000018002e398     libucrt:lcidtoname_downlevel.obj
 0002:000083a8       ??_C@_1M@KPOPDDGO@?$AAn?$AAl?$AA?9?$AAn?$AAl@ 000000018002e3a8     libucrt:lcidtoname_downlevel.obj
 0002:000083b8       ??_C@_1M@LJKPEMLN@?$AAn?$AAn?$AA?9?$AAn?$AAo@ 000000018002e3b8     libucrt:lcidtoname_downlevel.obj
 0002:000083c8       ??_C@_1M@BDGHHBFL@?$AAn?$AAs?$AA?9?$AAz?$AAa@ 000000018002e3c8     libucrt:lcidtoname_downlevel.obj
 0002:000083d8       ??_C@_1M@IDEHOAP@?$AAp?$AAa?$AA?9?$AAi?$AAn@ 000000018002e3d8     libucrt:lcidtoname_downlevel.obj
 0002:000083e8       ??_C@_1M@HDBKGOGH@?$AAp?$AAl?$AA?9?$AAp?$AAl@ 000000018002e3e8     libucrt:lcidtoname_downlevel.obj
 0002:000083f8       ??_C@_1M@LJLLCMEH@?$AAp?$AAt?$AA?9?$AAb?$AAr@ 000000018002e3f8     libucrt:lcidtoname_downlevel.obj
 0002:00008408       ??_C@_1M@NCMONAAL@?$AAp?$AAt?$AA?9?$AAp?$AAt@ 000000018002e408     libucrt:lcidtoname_downlevel.obj
 0002:00008418       ??_C@_1O@EAKMAJDN@?$AAq?$AAu?$AAz?$AA?9?$AAb?$AAo@ 000000018002e418     libucrt:lcidtoname_downlevel.obj
 0002:00008428       ??_C@_1O@BHHPIGDN@?$AAq?$AAu?$AAz?$AA?9?$AAe?$AAc@ 000000018002e428     libucrt:lcidtoname_downlevel.obj
 0002:00008438       ??_C@_1O@GBAPEKMJ@?$AAq?$AAu?$AAz?$AA?9?$AAp?$AAe@ 000000018002e438     libucrt:lcidtoname_downlevel.obj
 0002:00008448       ??_C@_1M@CLGLEFBO@?$AAr?$AAo?$AA?9?$AAr?$AAo@ 000000018002e448     libucrt:lcidtoname_downlevel.obj
 0002:00008458       ??_C@_1M@CEEDODME@?$AAr?$AAu?$AA?9?$AAr?$AAu@ 000000018002e458     libucrt:lcidtoname_downlevel.obj
 0002:00008468       ??_C@_1M@HPKKKMPP@?$AAs?$AAa?$AA?9?$AAi?$AAn@ 000000018002e468     libucrt:lcidtoname_downlevel.obj
 0002:00008478       ??_C@_1M@BKMAIGOJ@?$AAs?$AAe?$AA?9?$AAf?$AAi@ 000000018002e478     libucrt:lcidtoname_downlevel.obj
 0002:00008488       ??_C@_1M@NDPIFLFI@?$AAs?$AAe?$AA?9?$AAn?$AAo@ 000000018002e488     libucrt:lcidtoname_downlevel.obj
 0002:00008498       ??_C@_1M@DANKKHJ@?$AAs?$AAe?$AA?9?$AAs?$AAe@ 000000018002e498     libucrt:lcidtoname_downlevel.obj
 0002:000084a8       ??_C@_1M@PNBLONPJ@?$AAs?$AAk?$AA?9?$AAs?$AAk@ 000000018002e4a8     libucrt:lcidtoname_downlevel.obj
 0002:000084b8       ??_C@_1M@LFMODOAL@?$AAs?$AAl?$AA?9?$AAs?$AAi@ 000000018002e4b8     libucrt:lcidtoname_downlevel.obj
 0002:000084c8       ??_C@_1O@DFKOMPG@?$AAs?$AAm?$AAa?$AA?9?$AAn?$AAo@ 000000018002e4c8     libucrt:lcidtoname_downlevel.obj
 0002:000084d8       ??_C@_1O@NDKPBNNH@?$AAs?$AAm?$AAa?$AA?9?$AAs?$AAe@ 000000018002e4d8     libucrt:lcidtoname_downlevel.obj
 0002:000084e8       ??_C@_1O@PLLKBHAB@?$AAs?$AAm?$AAj?$AA?9?$AAn?$AAo@ 000000018002e4e8     libucrt:lcidtoname_downlevel.obj
 0002:000084f8       ??_C@_1O@CLEPOGCA@?$AAs?$AAm?$AAj?$AA?9?$AAs?$AAe@ 000000018002e4f8     libucrt:lcidtoname_downlevel.obj
 0002:00008508       ??_C@_1O@DLGJGKMK@?$AAs?$AAm?$AAn?$AA?9?$AAf?$AAi@ 000000018002e508     libucrt:lcidtoname_downlevel.obj
 0002:00008518       ??_C@_1O@OJDJGAJC@?$AAs?$AAm?$AAs?$AA?9?$AAf?$AAi@ 000000018002e518     libucrt:lcidtoname_downlevel.obj
 0002:00008528       ??_C@_1M@BOFOGHPB@?$AAs?$AAq?$AA?9?$AAa?$AAl@ 000000018002e528     libucrt:lcidtoname_downlevel.obj
 0002:00008538       ??_C@_1BG@LJBBIPGB@?$AAs?$AAr?$AA?9?$AAb?$AAa?$AA?9?$AAc?$AAy?$AAr?$AAl@ 000000018002e538     libucrt:lcidtoname_downlevel.obj
 0002:00008550       ??_C@_1BG@JLBENFOE@?$AAs?$AAr?$AA?9?$AAb?$AAa?$AA?9?$AAl?$AAa?$AAt?$AAn@ 000000018002e550     libucrt:lcidtoname_downlevel.obj
 0002:00008568       ??_C@_1BG@KODPNHE@?$AAs?$AAr?$AA?9?$AAs?$AAp?$AA?9?$AAc?$AAy?$AAr?$AAl@ 000000018002e568     libucrt:lcidtoname_downlevel.obj
 0002:00008580       ??_C@_1BG@CIOGKHPB@?$AAs?$AAr?$AA?9?$AAs?$AAp?$AA?9?$AAl?$AAa?$AAt?$AAn@ 000000018002e580     libucrt:lcidtoname_downlevel.obj
 0002:00008598       ??_C@_1M@NGFJLMAC@?$AAs?$AAv?$AA?9?$AAf?$AAi@ 000000018002e598     libucrt:lcidtoname_downlevel.obj
 0002:000085a8       ??_C@_1M@MPJEJAJC@?$AAs?$AAv?$AA?9?$AAs?$AAe@ 000000018002e5a8     libucrt:lcidtoname_downlevel.obj
 0002:000085b8       ??_C@_1M@MPNDHLFK@?$AAs?$AAw?$AA?9?$AAk?$AAe@ 000000018002e5b8     libucrt:lcidtoname_downlevel.obj
 0002:000085c8       ??_C@_1O@KOHBJJI@?$AAs?$AAy?$AAr?$AA?9?$AAs?$AAy@ 000000018002e5c8     libucrt:lcidtoname_downlevel.obj
 0002:000085d8       ??_C@_1M@LDCEFHA@?$AAt?$AAa?$AA?9?$AAi?$AAn@ 000000018002e5d8     libucrt:lcidtoname_downlevel.obj
 0002:000085e8       ??_C@_1M@CNJOFAK@?$AAt?$AAe?$AA?9?$AAi?$AAn@ 000000018002e5e8     libucrt:lcidtoname_downlevel.obj
 0002:000085f8       ??_C@_1M@GNAECACD@?$AAt?$AAh?$AA?9?$AAt?$AAh@ 000000018002e5f8     libucrt:lcidtoname_downlevel.obj
 0002:00008608       ??_C@_1M@CHBIHOJO@?$AAt?$AAn?$AA?9?$AAz?$AAa@ 000000018002e608     libucrt:lcidtoname_downlevel.obj
 0002:00008618       ??_C@_1M@GCCMIGPJ@?$AAt?$AAr?$AA?9?$AAt?$AAr@ 000000018002e618     libucrt:lcidtoname_downlevel.obj
 0002:00008628       ??_C@_1M@CELMCNBK@?$AAt?$AAt?$AA?9?$AAr?$AAu@ 000000018002e628     libucrt:lcidtoname_downlevel.obj
 0002:00008638       ??_C@_1M@KLMCELGA@?$AAu?$AAk?$AA?9?$AAu?$AAa@ 000000018002e638     libucrt:lcidtoname_downlevel.obj
 0002:00008648       ??_C@_1M@EPAJJAJF@?$AAu?$AAr?$AA?9?$AAp?$AAk@ 000000018002e648     libucrt:lcidtoname_downlevel.obj
 0002:00008658       ??_C@_1BG@GEGPMCDJ@?$AAu?$AAz?$AA?9?$AAu?$AAz?$AA?9?$AAc?$AAy?$AAr?$AAl@ 000000018002e658     libucrt:lcidtoname_downlevel.obj
 0002:00008670       ??_C@_1BG@EGGKJILM@?$AAu?$AAz?$AA?9?$AAu?$AAz?$AA?9?$AAl?$AAa?$AAt?$AAn@ 000000018002e670     libucrt:lcidtoname_downlevel.obj
 0002:00008688       ??_C@_1M@GFOCLFF@?$AAv?$AAi?$AA?9?$AAv?$AAn@ 000000018002e688     libucrt:lcidtoname_downlevel.obj
 0002:00008698       ??_C@_1M@CPAMEDFI@?$AAx?$AAh?$AA?9?$AAz?$AAa@ 000000018002e698     libucrt:lcidtoname_downlevel.obj
 0002:000086a8       ??_C@_1O@EBKIFIGN@?$AAz?$AAh?$AA?9?$AAc?$AAh?$AAs@ 000000018002e6a8     libucrt:lcidtoname_downlevel.obj
 0002:000086b8       ??_C@_1O@NMHPGANE@?$AAz?$AAh?$AA?9?$AAc?$AAh?$AAt@ 000000018002e6b8     libucrt:lcidtoname_downlevel.obj
 0002:000086c8       ??_C@_1M@LPINJOMC@?$AAz?$AAh?$AA?9?$AAc?$AAn@ 000000018002e6c8     libucrt:lcidtoname_downlevel.obj
 0002:000086d8       ??_C@_1M@OCJEJODD@?$AAz?$AAh?$AA?9?$AAh?$AAk@ 000000018002e6d8     libucrt:lcidtoname_downlevel.obj
 0002:000086e8       ??_C@_1M@DNDLJINH@?$AAz?$AAh?$AA?9?$AAm?$AAo@ 000000018002e6e8     libucrt:lcidtoname_downlevel.obj
 0002:000086f8       ??_C@_1M@MBFDNDND@?$AAz?$AAh?$AA?9?$AAs?$AAg@ 000000018002e6f8     libucrt:lcidtoname_downlevel.obj
 0002:00008708       ??_C@_1M@IMEPLEPE@?$AAz?$AAh?$AA?9?$AAt?$AAw@ 000000018002e708     libucrt:lcidtoname_downlevel.obj
 0002:00008718       ??_C@_1M@BBGHNHJP@?$AAz?$AAu?$AA?9?$AAz?$AAa@ 000000018002e718     libucrt:lcidtoname_downlevel.obj
 0002:00008730       ?large_power_data@?1??multiply_by_power_of_ten@__crt_strtox@@YA_NAEAUbig_integer@2@I@Z@4QBIB 000000018002e730     libucrt:cfout.obj
 0002:00009040       ?large_power_indices@?1??multiply_by_power_of_ten@__crt_strtox@@YA_NAEAUbig_integer@2@I@Z@4QBUunpack_index@?1??12@YA_N0I@Z@B 000000018002f040     libucrt:cfout.obj
 0002:000090d8       ?small_powers_of_ten@?1??multiply_by_power_of_ten@__crt_strtox@@YA_NAEAUbig_integer@2@I@Z@4QBIB 000000018002f0d8     libucrt:cfout.obj
 0002:000090fc       ??_C@_01GBGANLPD@0@        000000018002f0fc     libucrt:cfout.obj
 0002:00009100       ??_C@_05DNEBIAHO@1?$CDINF@ 000000018002f100     libucrt:cfout.obj
 0002:00009108       ??_C@_06IMKFLFPG@1?$CDQNAN@ 000000018002f108     libucrt:cfout.obj
 0002:00009110       ??_C@_06PGGFOGJG@1?$CDSNAN@ 000000018002f110     libucrt:cfout.obj
 0002:00009118       ??_C@_05PHHOCPM@1?$CDIND@  000000018002f118     libucrt:cfout.obj
 0002:00009148       __real@3ff0000000000000    000000018002f148     libucrt:ceil.obj
 0002:000093a0       __log10_256_lead           000000018002f3a0     libucrt:log10_256_lead_tail_table.obj
 0002:00009bb0       __log10_256_tail           000000018002fbb0     libucrt:log10_256_lead_tail_table.obj
 0002:0000a3c0       __log_F_inv_qword          00000001800303c0     libucrt:log_f_inv_qword_table.obj
 0002:0000abd0       ??_C@_05HGHHAHAP@log10@    0000000180030bd0     libucrt:log_special.obj
 0002:0000abd8       ??_C@_1BA@BALFACEM@?$AAC?$AAO?$AAN?$AAO?$AAU?$AAT?$AA$@ 0000000180030bd8     libucrt:initcon.obj
 0002:0000ac60       _load_config_used          0000000180030c60     LIBCMT:loadcfg.obj
 0002:0000ae00       _tls_used                  0000000180030e00     LIBCMT:tlssup.obj
 0002:0000ae28       ??_R4exception@std@@6B@    0000000180030e28     LIBCMT:throw_bad_alloc.obj
 0002:0000ae50       ??_R3exception@std@@8      0000000180030e50     LIBCMT:throw_bad_alloc.obj
 0002:0000ae68       ??_R2exception@std@@8      0000000180030e68     LIBCMT:throw_bad_alloc.obj
 0002:0000ae78       ??_R1A@?0A@EA@exception@std@@8 0000000180030e78     LIBCMT:throw_bad_alloc.obj
 0002:0000aea0       ??_R4bad_alloc@std@@6B@    0000000180030ea0     LIBCMT:throw_bad_alloc.obj
 0002:0000aec8       ??_R3bad_alloc@std@@8      0000000180030ec8     LIBCMT:throw_bad_alloc.obj
 0002:0000aee0       ??_R2bad_alloc@std@@8      0000000180030ee0     LIBCMT:throw_bad_alloc.obj
 0002:0000aef8       ??_R1A@?0A@EA@bad_alloc@std@@8 0000000180030ef8     LIBCMT:throw_bad_alloc.obj
 0002:0000af20       ??_R4bad_array_new_length@std@@6B@ 0000000180030f20     LIBCMT:throw_bad_alloc.obj
 0002:0000af48       ??_R3bad_array_new_length@std@@8 0000000180030f48     LIBCMT:throw_bad_alloc.obj
 0002:0000af60       ??_R2bad_array_new_length@std@@8 0000000180030f60     LIBCMT:throw_bad_alloc.obj
 0002:0000af80       ??_R1A@?0A@EA@bad_array_new_length@std@@8 0000000180030f80     LIBCMT:throw_bad_alloc.obj
 0002:0000afa8       ??_R4type_info@@6B@        0000000180030fa8     LIBCMT:std_type_info_static.obj
 0002:0000afd0       ??_R3type_info@@8          0000000180030fd0     LIBCMT:std_type_info_static.obj
 0002:0000afe8       ??_R2type_info@@8          0000000180030fe8     LIBCMT:std_type_info_static.obj
 0002:0000aff8       ??_R1A@?0A@EA@type_info@@8 0000000180030ff8     LIBCMT:std_type_info_static.obj
 0002:0000b020       ??_R4bad_exception@std@@6B@ 0000000180031020     libvcruntime:frame.obj
 0002:0000b048       ??_R3bad_exception@std@@8  0000000180031048     libvcruntime:frame.obj
 0002:0000b060       ??_R2bad_exception@std@@8  0000000180031060     libvcruntime:frame.obj
 0002:0000b078       ??_R1A@?0A@EA@bad_exception@std@@8 0000000180031078     libvcruntime:frame.obj
 0002:0000b09c       __volatile_metadata        000000018003109c     <linker-defined>
 0002:0000b518       __rtc_iaa                  0000000180031518     LIBCMT:initsect.obj
 0002:0000b520       __rtc_izz                  0000000180031520     LIBCMT:initsect.obj
 0002:0000b528       __rtc_taa                  0000000180031528     LIBCMT:initsect.obj
 0002:0000b530       __rtc_tzz                  0000000180031530     LIBCMT:initsect.obj
 0002:0000b538       _tls_start                 0000000180031538     LIBCMT:tlssup.obj
 0002:0000b53c       _Init_thread_epoch         000000018003153c     LIBCMT:thread_safe_statics.obj
 0002:0000b540       _tls_end                   0000000180031540     LIBCMT:tlssup.obj
 0002:0000ce60       _TI2?AVbad_alloc@std@@     0000000180032e60     LIBCMT:throw_bad_alloc.obj
 0002:0000ce80       _CTA2?AVbad_alloc@std@@    0000000180032e80     LIBCMT:throw_bad_alloc.obj
 0002:0000ce98       _CT??_R0?AVbad_alloc@std@@@8??0bad_alloc@std@@QEAA@AEBV01@@Z24 0000000180032e98     LIBCMT:throw_bad_alloc.obj
 0002:0000cec0       _CT??_R0?AVexception@std@@@8??0exception@std@@QEAA@AEBV01@@Z24 0000000180032ec0     LIBCMT:throw_bad_alloc.obj
 0002:0000cee8       _TI3?AVbad_array_new_length@std@@ 0000000180032ee8     LIBCMT:throw_bad_alloc.obj
 0002:0000cf08       _CTA3?AVbad_array_new_length@std@@ 0000000180032f08     LIBCMT:throw_bad_alloc.obj
 0002:0000cf28       _CT??_R0?AVbad_array_new_length@std@@@8??0bad_array_new_length@std@@QEAA@AEBV01@@Z24 0000000180032f28     LIBCMT:throw_bad_alloc.obj
 0002:0000cf50       _TI2?AVbad_exception@std@@ 0000000180032f50     libvcruntime:frame.obj
 0002:0000cf70       _CTA2?AVbad_exception@std@@ 0000000180032f70     libvcruntime:frame.obj
 0002:0000cf88       _CT??_R0?AVbad_exception@std@@@8??0bad_exception@std@@QEAA@AEBV01@@Z24 0000000180032f88     libvcruntime:frame.obj
 0002:0000cfb0       __pobjMapEntryFirst        0000000180032fb0     OposVariant.obj
 0002:0000cfb8       __pobjMapEntryLast         0000000180032fb8     OposVariant.obj
 0002:0000d06c       __IMPORT_DESCRIPTOR_KERNEL32 000000018003306c     kernel32:KERNEL32.dll
 0002:0000d080       __IMPORT_DESCRIPTOR_USER32 0000000180033080     user32:USER32.dll
 0002:0000d094       __IMPORT_DESCRIPTOR_GDI32  0000000180033094     gdi32:GDI32.dll
 0002:0000d0a8       __IMPORT_DESCRIPTOR_ADVAPI32 00000001800330a8     advapi32:ADVAPI32.dll
 0002:0000d0bc       __IMPORT_DESCRIPTOR_ole32  00000001800330bc     ole32:ole32.dll
 0002:0000d0d0       __IMPORT_DESCRIPTOR_OLEAUT32 00000001800330d0     oleaut32:OLEAUT32.dll
 0002:0000d0e4       __NULL_IMPORT_DESCRIPTOR   00000001800330e4     kernel32:KERNEL32.dll
 0003:00000000       ?rcDefault@CWindow@ATL@@2UtagRECT@@A 0000000180035000     CashChanger.obj
 0003:00000010       ?s_Claim@?7??GetIDsOfNames@CComTypeInfoHolder@ATL@@QEAAJAEBU_GUID@@PEAPEA_WIKPEAJ@Z@4PA_WA 0000000180035010     CashChanger.obj
 0003:00000028       ?s_Release@?7??GetIDsOfNames@CComTypeInfoHolder@ATL@@QEAAJAEBU_GUID@@PEAPEA_WIKPEAJ@Z@4PA_WA 0000000180035028     CashChanger.obj
 0003:00000048       ?_tih@?$IDispatchImpl@UIOPOSCashChanger@@$1?IID_IOPOSCashChanger@@3U_GUID@@B$1?LIBID_OposCashChanger_CCO@@3U3@B$00$0A@VCComTypeInfoHolder@ATL@@@ATL@@1VCComTypeInfoHolder@2@A 0000000180035048     CashChanger.obj
 0003:00000080       ?_tih@?$IProvideClassInfo2Impl@$1?CLSID_OPOSCashChanger@@3U_GUID@@B$1?DIID__IOPOSCashChangerEvents@@3U2@B$1?LIBID_OposCashChanger_CCO@@3U2@B$00$0A@VCComTypeInfoHolder@ATL@@@ATL@@1VCComTypeInfoHolder@2@A 0000000180035080     CashChanger.obj
 0003:000000b8       ?vszContents@?6??Save@?$IPersistStorageImpl@VCOPOSCashChanger@@@ATL@@UEAAJPEAUIStorage@@H@Z@4PEB_WEB 00000001800350b8     CashChanger.obj
 0003:000000c0       ?wc@?1??GetWndClassInfo@?$CWindowImpl@VCOPOSCashChanger@@VCWindow@ATL@@V?$CWinTraits@$0FGAAAAAA@$0A@@3@@ATL@@SAAEAU_ATL_WNDCLASSINFOW@3@XZ@4U43@A 00000001800350c0     CashChanger.obj
 0003:00000250       ?g_WindowName@@3PA_WA      0000000180035250     CashChangerImpl.obj
 0003:00000280       ?g_ControlDescription@@3PADA 0000000180035280     CashChangerImpl.obj
 0003:000002cc       ?g_ControlVersion@@3JA     00000001800352cc     CashChangerImpl.obj
 0003:000003c8       __scrt_native_dllmain_reason 00000001800353c8     LIBCMT:utility.obj
 0003:000003cc       _Init_global_epoch         00000001800353cc     LIBCMT:thread_safe_statics.obj
 0003:000003d0       __security_cookie          00000001800353d0     LIBCMT:gs_cookie.obj
 0003:000003d8       __security_cookie_complement 00000001800353d8     LIBCMT:gs_cookie.obj
 0003:000003e0       __isa_available            00000001800353e0     LIBCMT:cpu_disp.obj
 0003:000003e4       __isa_enabled              00000001800353e4     LIBCMT:cpu_disp.obj
 0003:000003e8       __memcpy_nt_iters          00000001800353e8     LIBCMT:cpu_disp.obj
 0003:000003f0       __memset_nt_iters          00000001800353f0     LIBCMT:cpu_disp.obj
 0003:00000418       __abort_behavior           0000000180035418     libucrt:abort.obj
 0003:00000430       __acrt_initial_locale_data 0000000180035430     libucrt:nlsdata.obj
 0003:00000588       __acrt_initial_locale_pointers 0000000180035588     libucrt:nlsdata.obj
 0003:00000598       __acrt_wide_c_locale_string 0000000180035598     libucrt:nlsdata.obj
 0003:000005a0       _iob                       00000001800355a0     libucrt:_file.obj
 0003:000006b0       __acrt_initial_multibyte_data 00000001800356b0     libucrt:mbctype.obj
 0003:00000bf0       __acrt_lconv_c             0000000180035bf0     libucrt:localeconv.obj
 0003:00000c88       __acrt_lconv_static_decimal 0000000180035c88     libucrt:localeconv.obj
 0003:00000c8c       __acrt_lconv_static_W_decimal 0000000180035c8c     libucrt:localeconv.obj
 0003:00000c90       __globallocalestatus       0000000180035c90     libucrt:glstatus.obj
 0003:00000ca0       _lookuptrailbytes          0000000180035ca0     libucrt:read.obj
 0003:00000dc4       _fltused                   0000000180035dc4     LIBCMT:fltused.obj
 0003:00000dc8       ??_R0?AVbad_alloc@std@@@8  0000000180035dc8     LIBCMT:throw_bad_alloc.obj
 0003:00000df0       ??_R0?AVexception@std@@@8  0000000180035df0     LIBCMT:throw_bad_alloc.obj
 0003:00000e18       ??_R0?AVbad_array_new_length@std@@@8 0000000180035e18     LIBCMT:throw_bad_alloc.obj
 0003:00000e48       ??_R0?AVbad_exception@std@@@8 0000000180035e48     libvcruntime:frame.obj
 0003:00000e70       ??_R0?AVtype_info@@@8      0000000180035e70     LIBCMT:std_type_info_static.obj
 0003:00000e90       ?m_bInitFailed@CAtlBaseModule@ATL@@2_NA 0000000180035e90     OposVariant.obj
 0003:00000e98       ?_pPerfRegFunc@ATL@@3P6AJPEAUHINSTANCE__@@@ZEA 0000000180035e98     OposVariant.obj
 0003:00000ea0       ?_pPerfUnRegFunc@ATL@@3P6AJXZEA 0000000180035ea0     OposVariant.obj
 0003:00000ea8       ?_AtlRegisterPerUser@ATL@@3_NA 0000000180035ea8     OposVariant.obj
 0003:00000eb0       ?_pAtlModule@ATL@@3PEAVCAtlModule@1@EA 0000000180035eb0     OposVariant.obj
 0003:00000eb8       ?_pModule@ATL@@3PEAVCComModule@1@EA 0000000180035eb8     OposVariant.obj
 0003:00000ec0       ?_AtlComModule@ATL@@3VCAtlComModule@1@A 0000000180035ec0     OposVariant.obj
 0003:00000f10       ?_AtlWinModule@ATL@@3VCAtlWinModule@1@A 0000000180035f10     OposVariant.obj
 0003:00000f58       ?m_libid@CAtlModule@ATL@@2U_GUID@@A 0000000180035f58     CashChanger.obj
 0003:00000f68       ?_entries@?1??GetConnMap@COPOSCashChanger@@SAPEBU_ATL_CONNMAP_ENTRY@ATL@@PEAH@Z@4QBU34@B 0000000180035f68     CashChanger.obj
 0003:00000f80       ?$TSS0@?1??GetConnMap@COPOSCashChanger@@SAPEBU_ATL_CONNMAP_ENTRY@ATL@@PEAH@Z@4HA 0000000180035f80     CashChanger.obj
 0003:00000f88       ?_OptionsStorage@?1??__local_stdio_printf_options@@9@4_KA 0000000180035f88     CashChanger.obj
 0003:00000f90       ?pfnRegDeleteKeyEx@?1??DeleteSubKey@CRegKey@ATL@@QEAAJPEB_W@Z@4P6AJPEAUHKEY__@@0KK@ZEA 0000000180035f90     CashChanger.obj
 0003:00000f98       ?bInitialized@?1??DeleteSubKey@CRegKey@ATL@@QEAAJPEB_W@Z@4_NA 0000000180035f98     CashChanger.obj
 0003:00000fa0       ?_Module@@3VCComModule@ATL@@A 0000000180035fa0     CashChanger.obj
 0003:00000ff0       ?pConnMap@?$IConnectionPointContainerImpl@VCOPOSCashChanger@@@ATL@@0PEBU_ATL_CONNMAP_ENTRY@2@EB 0000000180035ff0     CashChanger.obj
 0003:00000ff8       ?s_nInstances@COPOSCashChanger@@1HA 0000000180035ff8     CashChangerImpl.obj
 0003:00001000       __scrt_current_native_startup_state 0000000180036000     LIBCMT:utility.obj
 0003:00001008       __scrt_native_startup_lock 0000000180036008     LIBCMT:utility.obj
 0003:00001600       _tls_index                 0000000180036600     LIBCMT:tlssup.obj
 0003:00001608       __favor                    0000000180036608     LIBCMT:cpu_disp.obj
 0003:0000160c       __scrt_debugger_hook_flag  000000018003660c     LIBCMT:utility_desktop.obj
 0003:00001610       ?__type_info_root_node@@3U__type_info_node@@A 0000000180036610     LIBCMT:tncleanup.obj
 0003:00001620       ?_OptionsStorage@?1??__local_stdio_scanf_options@@9@4_KA 0000000180036620     LIBCMT:default_local_stdio_options.obj
 0003:00001630       ?_AtlBaseModule@ATL@@3VCAtlBaseModule@1@A 0000000180036630     atls:atlbase.obj
 0003:00001690       ?__AtlThunkPool@@3PEAT_SLIST_HEADER@@EA 0000000180036690     atls:atlthunk.obj
 0003:000016bc       __@@_PchSym_@00@UzABUPdlipUCAUhUrmgvinvwrzgvUexgllohUzgohOmzgrevkilqPBACIAJCBDBUlyqiUznwGEUhgwzucOlyq@4B2008FD98C1DD4 00000001800366bc     atls:stdafx.obj
 0003:000016c0       ?__WinRTOutOfMemoryExceptionCallback@@3P6APEAXXZEA 00000001800366c0     libvcruntime:ehhelpers.obj
 0003:000016c8       __pPurecall                00000001800366c8     libvcruntime:purevirt_data.obj
 0003:00001780       ?pArgList@UnDecorator@@0PEAVReplicator@@EA 0000000180036780     libvcruntime:undname.obj
 0003:00001788       ?pZNameList@UnDecorator@@0PEAVReplicator@@EA 0000000180036788     libvcruntime:undname.obj
 0003:00001790       ?pTemplateArgList@UnDecorator@@0PEAVReplicator@@EA 0000000180036790     libvcruntime:undname.obj
 0003:00001798       ?gName@UnDecorator@@0PEBDEB 0000000180036798     libvcruntime:undname.obj
 0003:000017a0       ?name@UnDecorator@@0PEBDEB 00000001800367a0     libvcruntime:undname.obj
 0003:000017a8       ?disableFlags@UnDecorator@@0KA 00000001800367a8     libvcruntime:undname.obj
 0003:000017ac       ?fExplicitTemplateParams@UnDecorator@@0_NA 00000001800367ac     libvcruntime:undname.obj
 0003:000017ad       ?fGetTemplateArgumentList@UnDecorator@@0_NA 00000001800367ad     libvcruntime:undname.obj
 0003:000017b0       ?m_pGetParameter@UnDecorator@@0P6APEADJ@ZEA 00000001800367b0     libvcruntime:undname.obj
 0003:000017b8       ?m_CHPENameOffset@UnDecorator@@0KA 00000001800367b8     libvcruntime:undname.obj
 0003:000017bc       ?m_recursionLevel@UnDecorator@@0KA 00000001800367bc     libvcruntime:undname.obj
 0003:00001840       ?c_exit_complete@?1???R<lambda_6e4b09c48022b2350581041d5f6b0c4c>@@QEBA@XZ@4_NA 0000000180036840     libucrt:exit.obj
 0003:00001958       _environ_table             0000000180036958     libucrt:environment_initialization.obj
 0003:00001960       _wenviron_table            0000000180036960     libucrt:environment_initialization.obj
 0003:00001968       __dcrt_initial_wide_environment 0000000180036968     libucrt:environment_initialization.obj
 0003:00001970       __dcrt_initial_narrow_environment 0000000180036970     libucrt:environment_initialization.obj
 0003:00001978       __acrt_atexit_table        0000000180036978     libucrt:onexit.obj
 0003:00001990       __acrt_at_quick_exit_table 0000000180036990     libucrt:onexit.obj
 0003:000019b0       __acrt_locale_changed_data 00000001800369b0     libucrt:wsetlocale.obj
 0003:000019b8       __acrt_current_locale_data 00000001800369b8     libucrt:nlsdata.obj
 0003:00001b58       _nstream                   0000000180036b58     libucrt:_file.obj
 0003:00001b60       __piob                     0000000180036b60     libucrt:_file.obj
 0003:00001b70       __acrt_stdout_buffer       0000000180036b70     libucrt:_sftbuf.obj
 0003:00001b78       __acrt_stderr_buffer       0000000180036b78     libucrt:_sftbuf.obj
 0003:00001b80       __pioinfo                  0000000180036b80     libucrt:ioinit.obj
 0003:00001f80       _nhandle                   0000000180036f80     libucrt:ioinit.obj
 0003:000021c8       _mbctype                   00000001800371c8     libucrt:mbctype.obj
 0003:000021d0       _mbcasemap                 00000001800371d0     libucrt:mbctype.obj
 0003:000021d8       __acrt_current_multibyte_data 00000001800371d8     libucrt:mbctype.obj
 0003:000021e8       _pgmptr                    00000001800371e8     libucrt:argv_data.obj
 0003:000021f0       __argc                     00000001800371f0     libucrt:argv_data.obj
 0003:000021f8       __argv                     00000001800371f8     libucrt:argv_data.obj
 0003:00002200       __wargv                    0000000180037200     libucrt:argv_data.obj
 0003:00002208       _acmdln                    0000000180037208     libucrt:argv_data.obj
 0003:00002210       _wcmdln                    0000000180037210     libucrt:argv_data.obj
 0003:00002218       __acrt_heap                0000000180037218     libucrt:heap_handle.obj
 0003:00002248       __acrt_lconv_static_null   0000000180037248     libucrt:localeconv.obj
 0003:0000224c       __acrt_lconv_static_W_null 000000018003724c     libucrt:localeconv.obj
 0003:00002264       __fma3_is_available        0000000180037264     libucrt:fma3_available.obj
 0003:00002268       __use_fma3_lib             0000000180037268     libucrt:fma3_available.obj
 0003:00002270       __dyn_tls_init_callback    0000000180037270     <common>
 0003:00002278       __scrt_ucrt_dll_is_in_use  0000000180037278     <common>

 entry point at        0001:0000f180

 Static symbols

 0000:fffbd000       .debug$S                   0000000180000000     OPOSCashChanger.exp
 0000:fffbd000       .debug$S                   0000000180000000     advapi32:ADVAPI32.dll
 0000:fffbd000       .debug$S                   0000000180000000     advapi32:ADVAPI32.dll
 0000:fffbd000       .debug$S                   0000000180000000     advapi32:ADVAPI32.dll
 0000:fffbd000       .debug$S                   0000000180000000     advapi32:ADVAPI32.dll
 0000:fffbd000       .debug$S                   0000000180000000     advapi32:ADVAPI32.dll
 0000:fffbd000       .debug$S                   0000000180000000     advapi32:ADVAPI32.dll
 0000:fffbd000       .debug$S                   0000000180000000     advapi32:ADVAPI32.dll
 0000:fffbd000       .debug$S                   0000000180000000     advapi32:ADVAPI32.dll
 0000:fffbd000       .debug$S                   0000000180000000     advapi32:ADVAPI32.dll
 0000:fffbd000       .debug$S                   0000000180000000     gdi32:GDI32.dll
 0000:fffbd000       .debug$S                   0000000180000000     gdi32:GDI32.dll
 0000:fffbd000       .debug$S                   0000000180000000     gdi32:GDI32.dll
 0000:fffbd000       .debug$S                   0000000180000000     gdi32:GDI32.dll
 0000:fffbd000       .debug$S                   0000000180000000     gdi32:GDI32.dll
 0000:fffbd000       .debug$S                   0000000180000000     gdi32:GDI32.dll
 0000:fffbd000       .debug$S                   0000000180000000     gdi32:GDI32.dll
 0000:fffbd000       .debug$S                   0000000180000000     gdi32:GDI32.dll
 0000:fffbd000       .debug$S                   0000000180000000     gdi32:GDI32.dll
 0000:fffbd000       .debug$S                   0000000180000000     gdi32:GDI32.dll
 0000:fffbd000       .debug$S                   0000000180000000     gdi32:GDI32.dll
 0000:fffbd000       .debug$S                   0000000180000000     gdi32:GDI32.dll
 0000:fffbd000       .debug$S                   0000000180000000     gdi32:GDI32.dll
 0000:fffbd000       .debug$S                   0000000180000000     gdi32:GDI32.dll
 0000:fffbd000       .debug$S                   0000000180000000     gdi32:GDI32.dll
 0000:fffbd000       .debug$S                   0000000180000000     gdi32:GDI32.dll
 0000:fffbd000       .debug$S                   0000000180000000     gdi32:GDI32.dll
 0000:fffbd000       .debug$S                   0000000180000000     gdi32:GDI32.dll
 0000:fffbd000       .debug$S                   0000000180000000     gdi32:GDI32.dll
 0000:fffbd000       .debug$S                   0000000180000000     kernel32:KERNEL32.dll
 0000:fffbd000       .debug$S                   0000000180000000     kernel32:KERNEL32.dll
 0000:fffbd000       .debug$S                   0000000180000000     kernel32:KERNEL32.dll
 0000:fffbd000       .debug$S                   0000000180000000     kernel32:KERNEL32.dll
 0000:fffbd000       .debug$S                   0000000180000000     kernel32:KERNEL32.dll
 0000:fffbd000       .debug$S                   0000000180000000     kernel32:KERNEL32.dll
 0000:fffbd000       .debug$S                   0000000180000000     kernel32:KERNEL32.dll
 0000:fffbd000       .debug$S                   0000000180000000     kernel32:KERNEL32.dll
 0000:fffbd000       .debug$S                   0000000180000000     kernel32:KERNEL32.dll
 0000:fffbd000       .debug$S                   0000000180000000     kernel32:KERNEL32.dll
 0000:fffbd000       .debug$S                   0000000180000000     kernel32:KERNEL32.dll
 0000:fffbd000       .debug$S                   0000000180000000     kernel32:KERNEL32.dll
 0000:fffbd000       .debug$S                   0000000180000000     kernel32:KERNEL32.dll
 0000:fffbd000       .debug$S                   0000000180000000     kernel32:KERNEL32.dll
 0000:fffbd000       .debug$S                   0000000180000000     kernel32:KERNEL32.dll
 0000:fffbd000       .debug$S                   0000000180000000     kernel32:KERNEL32.dll
 0000:fffbd000       .debug$S                   0000000180000000     kernel32:KERNEL32.dll
 0000:fffbd000       .debug$S                   0000000180000000     kernel32:KERNEL32.dll
 0000:fffbd000       .debug$S                   0000000180000000     kernel32:KERNEL32.dll
 0000:fffbd000       .debug$S                   0000000180000000     kernel32:KERNEL32.dll
 0000:fffbd000       .debug$S                   0000000180000000     kernel32:KERNEL32.dll
 0000:fffbd000       .debug$S                   0000000180000000     kernel32:KERNEL32.dll
 0000:fffbd000       .debug$S                   0000000180000000     kernel32:KERNEL32.dll
 0000:fffbd000       .debug$S                   0000000180000000     kernel32:KERNEL32.dll
 0000:fffbd000       .debug$S                   0000000180000000     kernel32:KERNEL32.dll
 0000:fffbd000       .debug$S                   0000000180000000     kernel32:KERNEL32.dll
 0000:fffbd000       .debug$S                   0000000180000000     kernel32:KERNEL32.dll
 0000:fffbd000       .debug$S                   0000000180000000     kernel32:KERNEL32.dll
 0000:fffbd000       .debug$S                   0000000180000000     kernel32:KERNEL32.dll
 0000:fffbd000       .debug$S                   0000000180000000     kernel32:KERNEL32.dll
 0000:fffbd000       .debug$S                   0000000180000000     kernel32:KERNEL32.dll
 0000:fffbd000       .debug$S                   0000000180000000     kernel32:KERNEL32.dll
 0000:fffbd000       .debug$S                   0000000180000000     kernel32:KERNEL32.dll
 0000:fffbd000       .debug$S                   0000000180000000     kernel32:KERNEL32.dll
 0000:fffbd000       .debug$S                   0000000180000000     kernel32:KERNEL32.dll
 0000:fffbd000       .debug$S                   0000000180000000     kernel32:KERNEL32.dll
 0000:fffbd000       .debug$S                   0000000180000000     kernel32:KERNEL32.dll
 0000:fffbd000       .debug$S                   0000000180000000     kernel32:KERNEL32.dll
 0000:fffbd000       .debug$S                   0000000180000000     kernel32:KERNEL32.dll
 0000:fffbd000       .debug$S                   0000000180000000     kernel32:KERNEL32.dll
 0000:fffbd000       .debug$S                   0000000180000000     kernel32:KERNEL32.dll
 0000:fffbd000       .debug$S                   0000000180000000     kernel32:KERNEL32.dll
 0000:fffbd000       .debug$S                   0000000180000000     kernel32:KERNEL32.dll
 0000:fffbd000       .debug$S                   0000000180000000     kernel32:KERNEL32.dll
 0000:fffbd000       .debug$S                   0000000180000000     kernel32:KERNEL32.dll
 0000:fffbd000       .debug$S                   0000000180000000     kernel32:KERNEL32.dll
 0000:fffbd000       .debug$S                   0000000180000000     kernel32:KERNEL32.dll
 0000:fffbd000       .debug$S                   0000000180000000     kernel32:KERNEL32.dll
 0000:fffbd000       .debug$S                   0000000180000000     kernel32:KERNEL32.dll
 0000:fffbd000       .debug$S                   0000000180000000     kernel32:KERNEL32.dll
 0000:fffbd000       .debug$S                   0000000180000000     kernel32:KERNEL32.dll
 0000:fffbd000       .debug$S                   0000000180000000     kernel32:KERNEL32.dll
 0000:fffbd000       .debug$S                   0000000180000000     kernel32:KERNEL32.dll
 0000:fffbd000       .debug$S                   0000000180000000     kernel32:KERNEL32.dll
 0000:fffbd000       .debug$S                   0000000180000000     kernel32:KERNEL32.dll
 0000:fffbd000       .debug$S                   0000000180000000     kernel32:KERNEL32.dll
 0000:fffbd000       .debug$S                   0000000180000000     kernel32:KERNEL32.dll
 0000:fffbd000       .debug$S                   0000000180000000     kernel32:KERNEL32.dll
 0000:fffbd000       .debug$S                   0000000180000000     kernel32:KERNEL32.dll
 0000:fffbd000       .debug$S                   0000000180000000     kernel32:KERNEL32.dll
 0000:fffbd000       .debug$S                   0000000180000000     kernel32:KERNEL32.dll
 0000:fffbd000       .debug$S                   0000000180000000     kernel32:KERNEL32.dll
 0000:fffbd000       .debug$S                   0000000180000000     kernel32:KERNEL32.dll
 0000:fffbd000       .debug$S                   0000000180000000     kernel32:KERNEL32.dll
 0000:fffbd000       .debug$S                   0000000180000000     kernel32:KERNEL32.dll
 0000:fffbd000       .debug$S                   0000000180000000     kernel32:KERNEL32.dll
 0000:fffbd000       .debug$S                   0000000180000000     kernel32:KERNEL32.dll
 0000:fffbd000       .debug$S                   0000000180000000     kernel32:KERNEL32.dll
 0000:fffbd000       .debug$S                   0000000180000000     kernel32:KERNEL32.dll
 0000:fffbd000       .debug$S                   0000000180000000     kernel32:KERNEL32.dll
 0000:fffbd000       .debug$S                   0000000180000000     kernel32:KERNEL32.dll
 0000:fffbd000       .debug$S                   0000000180000000     kernel32:KERNEL32.dll
 0000:fffbd000       .debug$S                   0000000180000000     kernel32:KERNEL32.dll
 0000:fffbd000       .debug$S                   0000000180000000     kernel32:KERNEL32.dll
 0000:fffbd000       .debug$S                   0000000180000000     kernel32:KERNEL32.dll
 0000:fffbd000       .debug$S                   0000000180000000     kernel32:KERNEL32.dll
 0000:fffbd000       .debug$S                   0000000180000000     kernel32:KERNEL32.dll
 0000:fffbd000       .debug$S                   0000000180000000     kernel32:KERNEL32.dll
 0000:fffbd000       .debug$S                   0000000180000000     kernel32:KERNEL32.dll
 0000:fffbd000       .debug$S                   0000000180000000     kernel32:KERNEL32.dll
 0000:fffbd000       .debug$S                   0000000180000000     kernel32:KERNEL32.dll
 0000:fffbd000       .debug$S                   0000000180000000     kernel32:KERNEL32.dll
 0000:fffbd000       .debug$S                   0000000180000000     kernel32:KERNEL32.dll
 0000:fffbd000       .debug$S                   0000000180000000     kernel32:KERNEL32.dll
 0000:fffbd000       .debug$S                   0000000180000000     kernel32:KERNEL32.dll
 0000:fffbd000       .debug$S                   0000000180000000     kernel32:KERNEL32.dll
 0000:fffbd000       .debug$S                   0000000180000000     kernel32:KERNEL32.dll
 0000:fffbd000       .debug$S                   0000000180000000     kernel32:KERNEL32.dll
 0000:fffbd000       .debug$S                   0000000180000000     kernel32:KERNEL32.dll
 0000:fffbd000       .debug$S                   0000000180000000     kernel32:KERNEL32.dll
 0000:fffbd000       .debug$S                   0000000180000000     kernel32:KERNEL32.dll
 0000:fffbd000       .debug$S                   0000000180000000     kernel32:KERNEL32.dll
 0000:fffbd000       .debug$S                   0000000180000000     kernel32:KERNEL32.dll
 0000:fffbd000       .debug$S                   0000000180000000     kernel32:KERNEL32.dll
 0000:fffbd000       .debug$S                   0000000180000000     kernel32:KERNEL32.dll
 0000:fffbd000       .debug$S                   0000000180000000     kernel32:KERNEL32.dll
 0000:fffbd000       .debug$S                   0000000180000000     kernel32:KERNEL32.dll
 0000:fffbd000       .debug$S                   0000000180000000     kernel32:KERNEL32.dll
 0000:fffbd000       .debug$S                   0000000180000000     kernel32:KERNEL32.dll
 0000:fffbd000       .debug$S                   0000000180000000     kernel32:KERNEL32.dll
 0000:fffbd000       .debug$S                   0000000180000000     kernel32:KERNEL32.dll
 0000:fffbd000       .debug$S                   0000000180000000     kernel32:KERNEL32.dll
 0000:fffbd000       .debug$S                   0000000180000000     kernel32:KERNEL32.dll
 0000:fffbd000       .debug$S                   0000000180000000     kernel32:KERNEL32.dll
 0000:fffbd000       .debug$S                   0000000180000000     kernel32:KERNEL32.dll
 0000:fffbd000       .debug$S                   0000000180000000     kernel32:KERNEL32.dll
 0000:fffbd000       .debug$S                   0000000180000000     kernel32:KERNEL32.dll
 0000:fffbd000       .debug$S                   0000000180000000     kernel32:KERNEL32.dll
 0000:fffbd000       .debug$S                   0000000180000000     kernel32:KERNEL32.dll
 0000:fffbd000       .debug$S                   0000000180000000     kernel32:KERNEL32.dll
 0000:fffbd000       .debug$S                   0000000180000000     kernel32:KERNEL32.dll
 0000:fffbd000       .debug$S                   0000000180000000     kernel32:KERNEL32.dll
 0000:fffbd000       .debug$S                   0000000180000000     kernel32:KERNEL32.dll
 0000:fffbd000       .debug$S                   0000000180000000     kernel32:KERNEL32.dll
 0000:fffbd000       .debug$S                   0000000180000000     kernel32:KERNEL32.dll
 0000:fffbd000       .debug$S                   0000000180000000     ole32:ole32.dll
 0000:fffbd000       .debug$S                   0000000180000000     ole32:ole32.dll
 0000:fffbd000       .debug$S                   0000000180000000     ole32:ole32.dll
 0000:fffbd000       .debug$S                   0000000180000000     ole32:ole32.dll
 0000:fffbd000       .debug$S                   0000000180000000     ole32:ole32.dll
 0000:fffbd000       .debug$S                   0000000180000000     ole32:ole32.dll
 0000:fffbd000       .debug$S                   0000000180000000     ole32:ole32.dll
 0000:fffbd000       .debug$S                   0000000180000000     ole32:ole32.dll
 0000:fffbd000       .debug$S                   0000000180000000     ole32:ole32.dll
 0000:fffbd000       .debug$S                   0000000180000000     ole32:ole32.dll
 0000:fffbd000       .debug$S                   0000000180000000     ole32:ole32.dll
 0000:fffbd000       .debug$S                   0000000180000000     ole32:ole32.dll
 0000:fffbd000       .debug$S                   0000000180000000     ole32:ole32.dll
 0000:fffbd000       .debug$S                   0000000180000000     ole32:ole32.dll
 0000:fffbd000       .debug$S                   0000000180000000     oleaut32:OLEAUT32.dll
 0000:fffbd000       .debug$S                   0000000180000000     oleaut32:OLEAUT32.dll
 0000:fffbd000       .debug$S                   0000000180000000     oleaut32:OLEAUT32.dll
 0000:fffbd000       .debug$S                   0000000180000000     oleaut32:OLEAUT32.dll
 0000:fffbd000       .debug$S                   0000000180000000     oleaut32:OLEAUT32.dll
 0000:fffbd000       .debug$S                   0000000180000000     oleaut32:OLEAUT32.dll
 0000:fffbd000       .debug$S                   0000000180000000     oleaut32:OLEAUT32.dll
 0000:fffbd000       .debug$S                   0000000180000000     oleaut32:OLEAUT32.dll
 0000:fffbd000       .debug$S                   0000000180000000     oleaut32:OLEAUT32.dll
 0000:fffbd000       .debug$S                   0000000180000000     oleaut32:OLEAUT32.dll
 0000:fffbd000       .debug$S                   0000000180000000     oleaut32:OLEAUT32.dll
 0000:fffbd000       .debug$S                   0000000180000000     oleaut32:OLEAUT32.dll
 0000:fffbd000       .debug$S                   0000000180000000     oleaut32:OLEAUT32.dll
 0000:fffbd000       .debug$S                   0000000180000000     oleaut32:OLEAUT32.dll
 0000:fffbd000       .debug$S                   0000000180000000     oleaut32:OLEAUT32.dll
 0000:fffbd000       .debug$S                   0000000180000000     oleaut32:OLEAUT32.dll
 0000:fffbd000       .debug$S                   0000000180000000     user32:USER32.dll
 0000:fffbd000       .debug$S                   0000000180000000     user32:USER32.dll
 0000:fffbd000       .debug$S                   0000000180000000     user32:USER32.dll
 0000:fffbd000       .debug$S                   0000000180000000     user32:USER32.dll
 0000:fffbd000       .debug$S                   0000000180000000     user32:USER32.dll
 0000:fffbd000       .debug$S                   0000000180000000     user32:USER32.dll
 0000:fffbd000       .debug$S                   0000000180000000     user32:USER32.dll
 0000:fffbd000       .debug$S                   0000000180000000     user32:USER32.dll
 0000:fffbd000       .debug$S                   0000000180000000     user32:USER32.dll
 0000:fffbd000       .debug$S                   0000000180000000     user32:USER32.dll
 0000:fffbd000       .debug$S                   0000000180000000     user32:USER32.dll
 0000:fffbd000       .debug$S                   0000000180000000     user32:USER32.dll
 0000:fffbd000       .debug$S                   0000000180000000     user32:USER32.dll
 0000:fffbd000       .debug$S                   0000000180000000     user32:USER32.dll
 0000:fffbd000       .debug$S                   0000000180000000     user32:USER32.dll
 0000:fffbd000       .debug$S                   0000000180000000     user32:USER32.dll
 0000:fffbd000       .debug$S                   0000000180000000     user32:USER32.dll
 0000:fffbd000       .debug$S                   0000000180000000     user32:USER32.dll
 0000:fffbd000       .debug$S                   0000000180000000     user32:USER32.dll
 0000:fffbd000       .debug$S                   0000000180000000     user32:USER32.dll
 0000:fffbd000       .debug$S                   0000000180000000     user32:USER32.dll
 0000:fffbd000       .debug$S                   0000000180000000     user32:USER32.dll
 0000:fffbd000       .debug$S                   0000000180000000     user32:USER32.dll
 0000:fffbd000       .debug$S                   0000000180000000     user32:USER32.dll
 0000:fffbd000       .debug$S                   0000000180000000     user32:USER32.dll
 0000:fffbd000       .debug$S                   0000000180000000     user32:USER32.dll
 0000:fffbd000       .debug$S                   0000000180000000     user32:USER32.dll
 0000:fffbd000       .debug$S                   0000000180000000     user32:USER32.dll
 0000:fffbd000       .debug$S                   0000000180000000     user32:USER32.dll
 0000:fffbd000       .debug$S                   0000000180000000     user32:USER32.dll
 0000:fffbd000       .debug$S                   0000000180000000     user32:USER32.dll
 0000:fffbd000       .debug$S                   0000000180000000     user32:USER32.dll
 0000:fffbd000       .debug$S                   0000000180000000     user32:USER32.dll
 0000:fffbd000       .debug$S                   0000000180000000     user32:USER32.dll
 0000:fffbd000       .debug$S                   0000000180000000     user32:USER32.dll
 0001:00000000       ??__E_AtlComModule@ATL@@YAXXZ 0000000180001000 f   OposVariant.obj
 0001:00000020       ??__E_AtlWinModule@ATL@@YAXXZ 0000000180001020 f   OposVariant.obj
 0001:00000040       ??__E?pConnMap@?$IConnectionPointContainerImpl@VCOPOSCashChanger@@@ATL@@0PEBU_ATL_CONNMAP_ENTRY@2@EB@@YAXXZ 0000000180001040 f   CashChanger.obj
 0001:00000058       ??__E_Module@@YAXXZ        0000000180001058 f   CashChanger.obj
 0001:00000094       ??__E_AtlBaseModule@ATL@@YAXXZ 0000000180001094 f   atls:atlbase.obj
 0001:0000e7a4       ?__scrt_initialize_thread_safe_statics@@YAHXZ 000000018000f7a4 f   LIBCMT:thread_safe_statics.obj
 0001:0000e874       ?__scrt_uninitialize_thread_safe_statics@@YAXXZ 000000018000f874 f   LIBCMT:thread_safe_statics.obj
 0001:0000ebc4       capture_current_context    000000018000fbc4 f   LIBCMT:gs_report.obj
 0001:0000ec34       capture_previous_context   000000018000fc34 f   LIBCMT:gs_report.obj
 0001:0000edd0       $$000000                   000000018000fdd0     LIBCMT:chkstk.obj
 0001:0000ee30       $$000000                   000000018000fe30     LIBCMT:amdsecgs.obj
 0001:0000ee60       ?dllmain_crt_dispatch@@YAHQEAUHINSTANCE__@@KQEAX@Z 000000018000fe60 f   LIBCMT:dll_dllmain.obj
 0001:0000eeb0       ?dllmain_crt_process_attach@@YAHQEAUHINSTANCE__@@QEAX@Z 000000018000feb0 f   LIBCMT:dll_dllmain.obj
 0001:0000efc8       ?dllmain_crt_process_detach@@YAH_N@Z 000000018000ffc8 f   LIBCMT:dll_dllmain.obj
 0001:0000f04c       ?dllmain_dispatch@@YAHQEAUHINSTANCE__@@KQEAX@Z 000000018001004c f   LIBCMT:dll_dllmain.obj
 0001:0000f918       ??$GetProcAddressAll@P6AP6A_JPEAUHWND__@@I_K_J@ZPEAUAtlThunkData_t@@@Z@@YAP6AP6A_JPEAUHWND__@@I_K_J@ZPEAUAtlThunkData_t@@@ZPEAP6AP6A_J0I12@Z3@Z@Z 0000000180010918 f   atls:atlthunk.obj
 0001:0000f918       ??$GetProcAddressAll@P6APEAUAtlThunkData_t@@XZ@@YAP6APEAUAtlThunkData_t@@XZPEAP6APEAU0@XZ@Z 0000000180010918 f   atls:atlthunk.obj
 0001:0000f918       ??$GetProcAddressAll@P6AXPEAUAtlThunkData_t@@@Z@@YAP6AXPEAUAtlThunkData_t@@@ZPEAP6AX0@Z@Z 0000000180010918 f   atls:atlthunk.obj
 0001:0000f918       ??$GetProcAddressAll@P6AXPEAUAtlThunkData_t@@PEAX_K@Z@@YAP6AXPEAUAtlThunkData_t@@PEAX_K@ZPEAP6AX012@Z@Z 0000000180010918 f   atls:atlthunk.obj
 0001:0000faf0       ?__InitializeThunkPool@@YAHXZ 0000000180010af0 f   atls:atlthunk.obj
 0001:0000ff90       $$000000                   0000000180010f90     libvcruntime:memcmp.obj
 0001:00010070       $$000000                   0000000180011070     libvcruntime:memcpy.obj
 0001:00010720       $$000000                   0000000180011720     libvcruntime:memset.obj
 0001:00011d30       $$000000                   0000000180012d30     libvcruntime:notify.obj
 0001:00011fb0       ??$BuildCatchObjectHelperInternal@V__FrameHandler3@@@@YAHPEAUEHExceptionRecord@@PEAXPEBU_s_HandlerType@@PEBU_s_CatchableType@@@Z 0000000180012fb0 f   libvcruntime:frame.obj
 0001:000121b0       ??$BuildCatchObjectHelperInternal@V__FrameHandler4@@@@YAHPEAUEHExceptionRecord@@PEAXPEAUHandlerType4@FH4@@PEBU_s_CatchableType@@@Z 00000001800131b0 f   libvcruntime:frame.obj
 0001:000123b4       ??$BuildCatchObjectInternal@V__FrameHandler3@@@@YAXPEAUEHExceptionRecord@@PEAXPEBU_s_HandlerType@@PEBU_s_CatchableType@@@Z 00000001800133b4 f   libvcruntime:frame.obj
 0001:00012474       ??$BuildCatchObjectInternal@V__FrameHandler4@@@@YAXPEAUEHExceptionRecord@@PEAXPEAUHandlerType4@FH4@@PEBU_s_CatchableType@@@Z 0000000180013474 f   libvcruntime:frame.obj
 0001:00012538       ??$CatchIt@V__FrameHandler3@@@@YAXPEAUEHExceptionRecord@@PEA_KPEAU_CONTEXT@@PEAU_xDISPATCHER_CONTEXT@@PEBU_s_FuncInfo@@PEBU_s_HandlerType@@PEBU_s_CatchableType@@PEBU_s_TryBlockMapEntry@@H1EE@Z 0000000180013538 f   libvcruntime:frame.obj
 0001:0001260c       ??$CatchIt@V__FrameHandler4@@@@YAXPEAUEHExceptionRecord@@PEA_KPEAU_CONTEXT@@PEAU_xDISPATCHER_CONTEXT@@PEAUFuncInfo4@FH4@@PEAUHandlerType4@4@PEBU_s_CatchableType@@PEAUTryBlockMapEntry4@4@H1EE@Z 000000018001360c f   libvcruntime:frame.obj
 0001:000126e0       ??$FindHandler@V__FrameHandler3@@@@YAXPEAUEHExceptionRecord@@PEA_KPEAU_CONTEXT@@PEAU_xDISPATCHER_CONTEXT@@PEBU_s_FuncInfo@@EH1@Z 00000001800136e0 f   libvcruntime:frame.obj
 0001:00012bb8       ??$FindHandler@V__FrameHandler4@@@@YAXPEAUEHExceptionRecord@@PEA_KPEAU_CONTEXT@@PEAU_xDISPATCHER_CONTEXT@@PEAUFuncInfo4@FH4@@EH1@Z 0000000180013bb8 f   libvcruntime:frame.obj
 0001:000130b4       ??$FindHandlerForForeignException@V__FrameHandler3@@@@YAXPEAUEHExceptionRecord@@PEA_KPEAU_CONTEXT@@PEAU_xDISPATCHER_CONTEXT@@PEBU_s_FuncInfo@@HH1@Z 00000001800140b4 f   libvcruntime:frame.obj
 0001:000132d0       ??$FindHandlerForForeignException@V__FrameHandler4@@@@YAXPEAUEHExceptionRecord@@PEA_KPEAU_CONTEXT@@PEAU_xDISPATCHER_CONTEXT@@PEAUFuncInfo4@FH4@@HH1@Z 00000001800142d0 f   libvcruntime:frame.obj
 0001:00014490       ?ExFilterRethrow@@YAHPEAU_EXCEPTION_POINTERS@@PEAUEHExceptionRecord@@PEAH@Z 0000000180015490 f   libvcruntime:frame.obj
 0001:00014518       ?ExFilterRethrowFH4@@YAHPEAU_EXCEPTION_POINTERS@@PEAUEHExceptionRecord@@HPEAH@Z 0000000180015518 f   libvcruntime:frame.obj
 0001:00014a68       ?IsInExceptionSpec@@YAEPEAUEHExceptionRecord@@PEBU_s_ESTypeList@@@Z 0000000180015a68 f   libvcruntime:frame.obj
 0001:00014b58       ?Is_bad_exception_allowed@@YAEPEBU_s_ESTypeList@@@Z 0000000180015b58 f   libvcruntime:frame.obj
 0001:00014e34       ?try_get_function@@YAPEAXW4function_id@?A0xbc0cc709@@QEBDQEBW4module_id@2@2@Z 0000000180015e34 f   libvcruntime:winapi_downlevel.obj
 0001:00015120       $$000000                   0000000180016120     libvcruntime:handlers.obj
 0001:00015b4c       ??$common_vsprintf@Vformat_validation_base@__crt_stdio_output@@_W@@YAH_KQEA_W0QEB_WAEAV__crt_cached_ptd_host@@QEAD@Z 0000000180016b4c f   libucrt:output.obj
 0001:0001829c       ??$?RV<lambda_d80eeec6fff315bfe5c115232f3240e3>@@AEAV<lambda_6e4b09c48022b2350581041d5f6b0c4c>@@V<lambda_2358e3775559c9db80273638284d5e45>@@@?$__crt_seh_guarded_call@X@@QEAAX$$QEAV<lambda_d80eeec6fff315bfe5c115232f3240e3>@@AEAV<lambda_6e4b09c48022b2350581041d5f6b0c4c>@@$$QEAV<lambda_2358e3775559c9db80273638284d5e45>@@@Z 000000018001929c f   libucrt:exit.obj
 0001:000182d4       ??R<lambda_6e4b09c48022b2350581041d5f6b0c4c>@@QEBA@XZ 00000001800192d4 f   libucrt:exit.obj
 0001:000183a0       ?common_exit@@YAXHW4_crt_exit_cleanup_mode@@W4_crt_exit_return_mode@@@Z 00000001800193a0 f   libucrt:exit.obj
 0001:00018468       ?exit_or_terminate_process@@YAXI@Z 0000000180019468 f   libucrt:exit.obj
 0001:0001849c       ?should_call_terminate_process@@YA_NXZ 000000018001949c f   libucrt:exit.obj
 0001:000184cc       ?try_cor_exit_process@@YAXI@Z 00000001800194cc f   libucrt:exit.obj
 0001:00018568       ??$parse_command_line@D@@YAXPEADPEAPEAD0PEA_K2@Z 0000000180019568 f   libucrt:argv_parsing.obj
 0001:00018910       ??$common_initialize_environment_nolock@D@@YAHXZ 0000000180019910 f   libucrt:environment_initialization.obj
 0001:00018984       ??$create_environment@D@@YAQEAPEADQEAD@Z 0000000180019984 f   libucrt:environment_initialization.obj
 0001:00018a94       ??$free_environment@D@@YAXQEAPEAD@Z 0000000180019a94 f   libucrt:environment_initialization.obj
 0001:00018a94       ??$free_environment@_W@@YAXQEAPEA_W@Z 0000000180019a94 f   libucrt:environment_initialization.obj
 0001:00018ad8       ??$uninitialize_environment_internal@D@@YAXAEAPEAPEAD@Z 0000000180019ad8 f   libucrt:environment_initialization.obj
 0001:00018af4       ??$uninitialize_environment_internal@_W@@YAXAEAPEAPEA_W@Z 0000000180019af4 f   libucrt:environment_initialization.obj
 0001:00018b5c       ??$?RV<lambda_638799b9deba96c50f710eeac98168cd>@@AEAV<lambda_22ebabd17bc4fa466a2aca6d8deb888d>@@V<lambda_a6f7d7db0129f75315ebf26d50c089f1>@@@?$__crt_seh_guarded_call@H@@QEAAH$$QEAV<lambda_638799b9deba96c50f710eeac98168cd>@@AEAV<lambda_22ebabd17bc4fa466a2aca6d8deb888d>@@$$QEAV<lambda_a6f7d7db0129f75315ebf26d50c089f1>@@@Z 0000000180019b5c f   libucrt:onexit.obj
 0001:00018b98       ??$?RV<lambda_7777bce6b2f8c936911f934f8298dc43>@@AEAV<lambda_f03950bc5685219e0bcd2087efbe011e>@@V<lambda_3883c3dff614d5e0c5f61bb1ac94921c>@@@?$__crt_seh_guarded_call@H@@QEAAH$$QEAV<lambda_7777bce6b2f8c936911f934f8298dc43>@@AEAV<lambda_f03950bc5685219e0bcd2087efbe011e>@@$$QEAV<lambda_3883c3dff614d5e0c5f61bb1ac94921c>@@@Z 0000000180019b98 f   libucrt:onexit.obj
 0001:00018bd4       ??R<lambda_22ebabd17bc4fa466a2aca6d8deb888d>@@QEBAHXZ 0000000180019bd4 f   libucrt:onexit.obj
 0001:00018d84       ??R<lambda_f03950bc5685219e0bcd2087efbe011e>@@QEBAHXZ 0000000180019d84 f   libucrt:onexit.obj
 0001:00018f68       initialize_global_variables 0000000180019f68 f   libucrt:initialization.obj
 0001:00018f7c       initialize_c               0000000180019f7c f   libucrt:initialization.obj
 0001:00018fa0       initialize_environment     0000000180019fa0 f   libucrt:initialization.obj
 0001:00018fa0       initialize_global_state_isolation 0000000180019fa0 f   libucrt:initialization.obj
 0001:00018fa0       report_memory_leaks        0000000180019fa0 f   libucrt:initialization.obj
 0001:00018fa0       uninitialize_c             0000000180019fa0 f   libucrt:initialization.obj
 0001:00018fa0       uninitialize_global_state_isolation 0000000180019fa0 f   libucrt:initialization.obj
 0001:00018fa4       uninitialize_environment   0000000180019fa4 f   libucrt:initialization.obj
 0001:00018fb4       initialize_pointers        0000000180019fb4 f   libucrt:initialization.obj
 0001:00018ff4       uninitialize_vcruntime     0000000180019ff4 f   libucrt:initialization.obj
 0001:00018ffc       uninitialize_allocated_memory 0000000180019ffc f   libucrt:initialization.obj
 0001:0001903c       uninitialize_allocated_io_buffers 000000018001a03c f   libucrt:initialization.obj
 0001:00019300       $$000000                   000000018001a300     libucrt:strncmp.obj
 0001:000193f8       ??$?RV<lambda_0ae27a3a962d80f24befdcbee591983d>@@AEAV<lambda_8d0ee55de4b1038c4002e0adecdf1839>@@V<lambda_dc504788e8f1664fe9b84e20bfb512f2>@@@?$__crt_seh_guarded_call@X@@QEAAX$$QEAV<lambda_0ae27a3a962d80f24befdcbee591983d>@@AEAV<lambda_8d0ee55de4b1038c4002e0adecdf1839>@@$$QEAV<lambda_dc504788e8f1664fe9b84e20bfb512f2>@@@Z 000000018001a3f8 f   libucrt:per_thread_data.obj
 0001:00019438       ??$?RV<lambda_2d41944a1d46af3157314b8a01080d33>@@AEAV<lambda_8f455de75cd7d7f24b4096f044d8b9e6>@@V<lambda_aa500f224e6afead328df44964fe2772>@@@?$__crt_seh_guarded_call@X@@QEAAX$$QEAV<lambda_2d41944a1d46af3157314b8a01080d33>@@AEAV<lambda_8f455de75cd7d7f24b4096f044d8b9e6>@@$$QEAV<lambda_aa500f224e6afead328df44964fe2772>@@@Z 000000018001a438 f   libucrt:per_thread_data.obj
 0001:00019478       ??$?RV<lambda_aa87e3671a710a21b5dc78c0bdf72e11>@@AEAV<lambda_92619d2358a28f41a33ba319515a20b9>@@V<lambda_6992ecaafeb10aed2b74cb1fae11a551>@@@?$__crt_seh_guarded_call@X@@QEAAX$$QEAV<lambda_aa87e3671a710a21b5dc78c0bdf72e11>@@AEAV<lambda_92619d2358a28f41a33ba319515a20b9>@@$$QEAV<lambda_6992ecaafeb10aed2b74cb1fae11a551>@@@Z 000000018001a478 f   libucrt:per_thread_data.obj
 0001:000194c0       ??$?RV<lambda_f2e299630e499de9f9a165e60fcd3db5>@@AEAV<lambda_2ae9d31cdba2644fcbeaf08da7c24588>@@V<lambda_40d01ff24d0e7b3814fdbdcee8eab3c7>@@@?$__crt_seh_guarded_call@X@@QEAAX$$QEAV<lambda_f2e299630e499de9f9a165e60fcd3db5>@@AEAV<lambda_2ae9d31cdba2644fcbeaf08da7c24588>@@$$QEAV<lambda_40d01ff24d0e7b3814fdbdcee8eab3c7>@@@Z 000000018001a4c0 f   libucrt:per_thread_data.obj
 0001:00019520       ?construct_ptd_array@@YAXQEAU__acrt_ptd@@@Z 000000018001a520 f   libucrt:per_thread_data.obj
 0001:000195f0       ?destroy_fls@@YAXPEAX@Z    000000018001a5f0 f   libucrt:per_thread_data.obj
 0001:00019610       ?destroy_ptd_array@@YAXQEAU__acrt_ptd@@@Z 000000018001a610 f   libucrt:per_thread_data.obj
 0001:00019708       ?replace_current_thread_locale_nolock@@YAXQEAU__acrt_ptd@@QEAU__crt_locale_data@@@Z 000000018001a708 f   libucrt:per_thread_data.obj
 0001:00019b14       ??$?RV<lambda_410d79af7f07d98d83a3f525b3859a53>@@AEAV<lambda_3e16ef9562a7dcce91392c22ab16ea36>@@V<lambda_38119f0e861e05405d8a144b9b982f0a>@@@?$__crt_seh_guarded_call@X@@QEAAX$$QEAV<lambda_410d79af7f07d98d83a3f525b3859a53>@@AEAV<lambda_3e16ef9562a7dcce91392c22ab16ea36>@@$$QEAV<lambda_38119f0e861e05405d8a144b9b982f0a>@@@Z 000000018001ab14 f   libucrt:wsetlocale.obj
 0001:00019d50       ?try_get_function@@YAPEAXW4function_id@?A0x391cf84c@@QEBDQEBW4module_id@2@2@Z 000000018001ad50 f   libucrt:winapi_thunks.obj
 0001:0001a4ec       ?fp_format_a@@YAHQEBNPEAD_KQEAD2H_NIW4__acrt_rounding_mode@@AEAV__crt_cached_ptd_host@@@Z 000000018001b4ec f   libucrt:cvt.obj
 0001:0001a8a0       ?fp_format_e@@YAHQEBNQEAD_K12H_NIW4__acrt_rounding_mode@@AEAV__crt_cached_ptd_host@@@Z 000000018001b8a0 f   libucrt:cvt.obj
 0001:0001a99c       ?fp_format_e_internal@@YAHQEAD_KH_NIQEAU_strflt@@2AEAV__crt_cached_ptd_host@@@Z 000000018001b99c f   libucrt:cvt.obj
 0001:0001ab80       ?fp_format_f@@YAHQEBNQEAD_K12HW4__acrt_rounding_mode@@AEAV__crt_cached_ptd_host@@@Z 000000018001bb80 f   libucrt:cvt.obj
 0001:0001ac58       ?fp_format_f_internal@@YAHQEAD_KHQEAU_strflt@@_NAEAV__crt_cached_ptd_host@@@Z 000000018001bc58 f   libucrt:cvt.obj
 0001:0001adb0       ?fp_format_g@@YAHQEBNQEAD_K12H_NIW4__acrt_rounding_mode@@AEAV__crt_cached_ptd_host@@@Z 000000018001bdb0 f   libucrt:cvt.obj
 0001:0001af04       ?should_round_up@@YA_NQEBN_KFW4__acrt_rounding_mode@@@Z 000000018001bf04 f   libucrt:cvt.obj
 0001:0001b650       ?initialize_inherited_file_handles_nolock@@YAXXZ 000000018001c650 f   libucrt:ioinit.obj
 0001:0001b740       ?initialize_stdio_handles_nolock@@YAXXZ 000000018001c740 f   libucrt:ioinit.obj
 0001:0001b9b8       ?<lambda_invoker_cdecl>@<lambda_a1ce4c8ae42411fd470c77163914f50e>@@CAHPEBX0@Z 000000018001c9b8 f   libucrt:argv_wildcards.obj
 0001:0001bcd4       ??$common_expand_argv_wildcards@D@@YAHQEAPEADQEAPEAPEAD@Z 000000018001ccd4 f   libucrt:argv_wildcards.obj
 0001:0001bf18       ??$copy_and_add_argument_to_buffer@D@@YAHQEBD0_KAEAV?$argument_list@D@?A0x5f5c8891@@@Z 000000018001cf18 f   libucrt:argv_wildcards.obj
 0001:0001c0a0       ??$expand_argument_wildcards@D@@YAHQEAD0AEAV?$argument_list@D@?A0x5f5c8891@@@Z 000000018001d0a0 f   libucrt:argv_wildcards.obj
 0001:0001c6d4       ??$?RV<lambda_efdfa57d1f175319df784efa44bb7b81>@@AEAV<lambda_5f0a4c1567f8adc6734073e5d1e1b35c>@@V<lambda_2e8a7d3640ea6ccb4c2413664c2db6fd>@@@?$__crt_seh_guarded_call@X@@QEAAX$$QEAV<lambda_efdfa57d1f175319df784efa44bb7b81>@@AEAV<lambda_5f0a4c1567f8adc6734073e5d1e1b35c>@@$$QEAV<lambda_2e8a7d3640ea6ccb4c2413664c2db6fd>@@@Z 000000018001d6d4 f   libucrt:mbctype.obj
 0001:0001c8a4       ?getSystemCP@@YAHH@Z       000000018001d8a4 f   libucrt:mbctype.obj
 0001:0001c924       ?setSBCS@@YAXPEAU__crt_multibyte_data@@@Z 000000018001d924 f   libucrt:mbctype.obj
 0001:0001c9bc       ?setSBUpLow@@YAXPEAU__crt_multibyte_data@@@Z 000000018001d9bc f   libucrt:mbctype.obj
 0001:0001cba4       ?setmbcp_internal@@YAHH_NQEAU__acrt_ptd@@QEAPEAU__crt_multibyte_data@@@Z 000000018001dba4 f   libucrt:mbctype.obj
 0001:0001ce14       ?update_thread_multibyte_data_internal@@YAPEAU__crt_multibyte_data@@QEAU__acrt_ptd@@QEAPEAU1@@Z 000000018001de14 f   libucrt:mbctype.obj
 0001:0001d208       ?x_ismbbtype_l@@YAHPEAU__crt_locale_pointers@@IHH@Z 000000018001e208 f   libucrt:ismbbyte.obj
 0001:0001d5d8       ??$?RV<lambda_450d765d439847d4c735a33c368b5fc0>@@AEAV<lambda_44731a7d0e6d81c3e6aa82d741081786>@@V<lambda_601a2a7da3b7a96e9554ac7215c4b07c>@@@?$__crt_seh_guarded_call@P6AXH@Z@@QEAAP6AXH@Z$$QEAV<lambda_450d765d439847d4c735a33c368b5fc0>@@AEAV<lambda_44731a7d0e6d81c3e6aa82d741081786>@@$$QEAV<lambda_601a2a7da3b7a96e9554ac7215c4b07c>@@@Z 000000018001e5d8 f   libucrt:signal.obj
 0001:0001d950       ??$?RV<lambda_842d9ff0dc9ef11c61343bbaebe7f885>@@AEAV<lambda_c5860995281e5c4ce005b3de8f5874ee>@@V<lambda_d90129c13df834fdcbf8d2b88dafcf2d>@@@?$__crt_seh_guarded_call@X@@QEAAX$$QEAV<lambda_842d9ff0dc9ef11c61343bbaebe7f885>@@AEAV<lambda_c5860995281e5c4ce005b3de8f5874ee>@@$$QEAV<lambda_d90129c13df834fdcbf8d2b88dafcf2d>@@@Z 000000018001e950 f   libucrt:fflush.obj
 0001:0001d9ec       ??$?RV<lambda_886d6c58226a84441f68b9f2b8217b83>@@AEAV<lambda_ab61a845afdef5b7c387490eaf3616ee>@@V<lambda_f7f22ab5edc0698d5f6905b0d3f44752>@@@?$__crt_seh_guarded_call@X@@QEAAX$$QEAV<lambda_886d6c58226a84441f68b9f2b8217b83>@@AEAV<lambda_ab61a845afdef5b7c387490eaf3616ee>@@$$QEAV<lambda_f7f22ab5edc0698d5f6905b0d3f44752>@@@Z 000000018001e9ec f   libucrt:fflush.obj
 0001:0001dacc       ?common_flush_all@@YAH_N@Z 000000018001eacc f   libucrt:fflush.obj
 0001:0001e218       ?free_crt_array_internal@@YAXQEAPEBX_K@Z 000000018001f218 f   libucrt:inittime.obj
 0001:0001fdfc       memcpy_s                   0000000180020dfc f   libucrt:cfout.obj
 0001:00020a00       fallbackMethod             0000000180021a00 f   libucrt:strpbrk.obj
 0001:00020dac       $LN78                      0000000180021dac     libucrt:strpbrk.obj
 0001:00020de8       $LN77                      0000000180021de8     libucrt:strpbrk.obj
 0001:00020e28       $LN76                      0000000180021e28     libucrt:strpbrk.obj
 0001:00020f04       ?__acrt_LCMapStringA_stat@@YAHPEAU__crt_locale_pointers@@PEB_WKPEBDHPEADHHH@Z 0000000180021f04 f   libucrt:lcmapstringa.obj
 0001:000212bc       ?initialize_multibyte@@YAHXZ 00000001800222bc f   libucrt:multibyte_initializer.obj
 0001:000212d4       ??$?RV<lambda_a37b2b86f63e897a80ea819b0eb08c01>@@AEAV<lambda_38ce7e780aa69e748d6df282ebc68efe>@@V<lambda_99fb1378e971ab6e7edea83e3a7a83a2>@@@?$__crt_seh_guarded_call@H@@QEAAH$$QEAV<lambda_a37b2b86f63e897a80ea819b0eb08c01>@@AEAV<lambda_38ce7e780aa69e748d6df282ebc68efe>@@$$QEAV<lambda_99fb1378e971ab6e7edea83e3a7a83a2>@@@Z 00000001800222d4 f   libucrt:commit.obj
 0001:000213f4       ?write_double_translated_ansi_nolock@@YA?AUwrite_result@?A0x17268360@@HQEBDIAEAV__crt_cached_ptd_host@@@Z 00000001800223f4 f   libucrt:write.obj
 0001:00021880       ?write_text_ansi_nolock@@YA?AUwrite_result@?A0x17268360@@HQEBDI@Z 0000000180022880 f   libucrt:write.obj
 0001:00021984       ?write_text_utf16le_nolock@@YA?AUwrite_result@?A0x17268360@@HQEBDI@Z 0000000180022984 f   libucrt:write.obj
 0001:00021aa0       ?write_text_utf8_nolock@@YA?AUwrite_result@?A0x17268360@@HQEBDI@Z 0000000180022aa0 f   libucrt:write.obj
 0001:00022280       $$000000                   0000000180023280     libucrt:log10.obj
 0001:00022d1c       ?_fclose_internal@@YAHQEAU_iobuf@@AEAV__crt_cached_ptd_host@@@Z 0000000180023d1c f   libucrt:fclose.obj
 0001:00022d98       ?_fclose_nolock_internal@@YAHQEAU_iobuf@@AEAV__crt_cached_ptd_host@@@Z 0000000180023d98 f   libucrt:fclose.obj
 0001:00022ed4       ??$common_lseek_nolock@_J@@YA_JH_JHAEAV__crt_cached_ptd_host@@@Z 0000000180023ed4 f   libucrt:lseek.obj
 0001:0002305c       common_control87           000000018002405c f   libucrt:ieee.obj
 0001:0002331c       _call_matherr              000000018002431c f   libucrt:libm_error.obj
 0001:00023384       _exception_enabled         0000000180024384 f   libucrt:libm_error.obj
 0001:00023620       _log_special_common        0000000180024620 f   libucrt:log_special.obj
 0001:000236b8       ??$?RV<lambda_ad8af0d99a0adf03d037d7dffe354bb5>@@AEAV<lambda_c9ba49e555ba839a7b07aa3fbecb7617>@@V<lambda_2f1ebd5d68526518146ae959c9e734c8>@@@?$__crt_seh_guarded_call@H@@QEAAH$$QEAV<lambda_ad8af0d99a0adf03d037d7dffe354bb5>@@AEAV<lambda_c9ba49e555ba839a7b07aa3fbecb7617>@@$$QEAV<lambda_2f1ebd5d68526518146ae959c9e734c8>@@@Z 00000001800246b8 f   libucrt:close.obj
 0001:00023a10       $$000000                   0000000180024a10     libucrt:fpsr.obj
 0001:00024190       $$000000                   0000000180025190     LIBCMT:guard_dispatch.obj
 0001:000241b0       $$000000                   00000001800251b0     LIBCMT:guard_xfg_dispatch.obj
 0001:000241d0       ?filt$0@?0??_AtlVerifyStackAvailable@_ATL_SAFE_ALLOCA_IMPL@ATL@@YA_N_K@Z@4HA 00000001800251d0 f   CashChanger.obj
 0001:000241f1       __scrt_is_nonwritable_in_current_image$filt$0 00000001800251f1 f   LIBCMT:utility.obj
 0001:00024209       ?catch$0@?0???2@YAPEAX_KAEBUnothrow_t@std@@@Z@4HA 0000000180025209 f   LIBCMT:new_scalar_nothrow.obj
 0001:00024216       __catch$??2@YAPEAX_KAEBUnothrow_t@std@@@Z$0 0000000180025216 f   LIBCMT:new_scalar_nothrow.obj
 0001:00024227       ?fin$0@?0??dllmain_crt_process_attach@@YAHQEAUHINSTANCE__@@QEAX@Z@4HA 0000000180025227 f   LIBCMT:dll_dllmain.obj
 0001:0002423e       ?fin$0@?0??dllmain_crt_process_detach@@YAH_N@Z@4HA 000000018002523e f   LIBCMT:dll_dllmain.obj
 0001:00024257       ?fin$1@?0??dllmain_crt_process_detach@@YAH_N@Z@4HA 0000000180025257 f   LIBCMT:dll_dllmain.obj
 0001:0002426b       ?filt$0@?0??dllmain_dispatch@@YAHQEAUHINSTANCE__@@KQEAX@Z@4HA 000000018002526b f   LIBCMT:dll_dllmain.obj
 0001:000242a1       ?filt$0@?0???$_CallSETranslator@V__FrameHandler3@@@@YAHPEAUEHExceptionRecord@@PEA_KPEAU_CONTEXT@@PEAU_xDISPATCHER_CONTEXT@@PEBU_s_FuncInfo@@K1H@Z@4HA 00000001800252a1 f   libvcruntime:risctrnsctrl.obj
 0001:00024332       ?filt$0@?0???$_CallSETranslator@V__FrameHandler4@@@@YAHPEAUEHExceptionRecord@@PEA_KPEAU_CONTEXT@@PEAU_xDISPATCHER_CONTEXT@@PEAUFuncInfo4@FH4@@K1H@Z@4HA 0000000180025332 f   libvcruntime:risctrnsctrl.obj
 0001:000243d1       __DestructExceptionObject$filt$0 00000001800253d1 f   libvcruntime:ehhelpers.obj
 0001:00024467       ?filt$0@?0??CxxCallCatchBlock@__FrameHandler3@@SAPEAXPEAU_EXCEPTION_RECORD@@@Z@4HA 0000000180025467 f   libvcruntime:frame.obj
 0001:0002448c       ?fin$1@?0??CxxCallCatchBlock@__FrameHandler3@@SAPEAXPEAU_EXCEPTION_RECORD@@@Z@4HA 000000018002548c f   libvcruntime:frame.obj
 0001:00024512       ?filt$0@?0??CxxCallCatchBlock@__FrameHandler4@@SAPEAXPEAU_EXCEPTION_RECORD@@@Z@4HA 0000000180025512 f   libvcruntime:frame.obj
 0001:00024541       ?fin$1@?0??CxxCallCatchBlock@__FrameHandler4@@SAPEAXPEAU_EXCEPTION_RECORD@@@Z@4HA 0000000180025541 f   libvcruntime:frame.obj
 0001:000245d2       ?filt$0@?0??FrameUnwindToState@__FrameHandler3@@SAXPEA_KPEAU_xDISPATCHER_CONTEXT@@PEBU_s_FuncInfo@@H@Z@4HA 00000001800255d2 f   libvcruntime:frame.obj
 0001:000245e8       ?fin$1@?0??FrameUnwindToState@__FrameHandler3@@SAXPEA_KPEAU_xDISPATCHER_CONTEXT@@PEBU_s_FuncInfo@@H@Z@4HA 00000001800255e8 f   libvcruntime:frame.obj
 0001:0002460b       ?filt$0@?0??FrameUnwindToState@__FrameHandler4@@SAXPEA_KPEAU_xDISPATCHER_CONTEXT@@PEAUFuncInfo4@FH4@@H@Z@4HA 000000018002560b f   libvcruntime:frame.obj
 0001:00024621       ?fin$1@?0??FrameUnwindToState@__FrameHandler4@@SAXPEA_KPEAU_xDISPATCHER_CONTEXT@@PEAUFuncInfo4@FH4@@H@Z@4HA 0000000180025621 f   libvcruntime:frame.obj
 0001:00024644       ?fin$0@?0???$?RV<lambda_0ae27a3a962d80f24befdcbee591983d>@@AEAV<lambda_8d0ee55de4b1038c4002e0adecdf1839>@@V<lambda_dc504788e8f1664fe9b84e20bfb512f2>@@@?$__crt_seh_guarded_call@X@@QEAAX$$QEAV<lambda_0ae27a3a962d80f24befdcbee591983d>@@AEAV<lambda_8d0ee55de4b1038c4002e0adecdf1839>@@$$QEAV<lambda_dc504788e8f1664fe9b84e20bfb512f2>@@@Z@4HA 0000000180025644 f   libucrt:per_thread_data.obj
 0001:00024644       ?fin$0@?0???$?RV<lambda_2d41944a1d46af3157314b8a01080d33>@@AEAV<lambda_8f455de75cd7d7f24b4096f044d8b9e6>@@V<lambda_aa500f224e6afead328df44964fe2772>@@@?$__crt_seh_guarded_call@X@@QEAAX$$QEAV<lambda_2d41944a1d46af3157314b8a01080d33>@@AEAV<lambda_8f455de75cd7d7f24b4096f044d8b9e6>@@$$QEAV<lambda_aa500f224e6afead328df44964fe2772>@@@Z@4HA 0000000180025644 f   libucrt:per_thread_data.obj
 0001:00024644       ?fin$0@?0???$?RV<lambda_aa87e3671a710a21b5dc78c0bdf72e11>@@AEAV<lambda_92619d2358a28f41a33ba319515a20b9>@@V<lambda_6992ecaafeb10aed2b74cb1fae11a551>@@@?$__crt_seh_guarded_call@X@@QEAAX$$QEAV<lambda_aa87e3671a710a21b5dc78c0bdf72e11>@@AEAV<lambda_92619d2358a28f41a33ba319515a20b9>@@$$QEAV<lambda_6992ecaafeb10aed2b74cb1fae11a551>@@@Z@4HA 0000000180025644 f   libucrt:per_thread_data.obj
 0001:00024644       ?fin$0@?0???$?RV<lambda_f2e299630e499de9f9a165e60fcd3db5>@@AEAV<lambda_2ae9d31cdba2644fcbeaf08da7c24588>@@V<lambda_40d01ff24d0e7b3814fdbdcee8eab3c7>@@@?$__crt_seh_guarded_call@X@@QEAAX$$QEAV<lambda_f2e299630e499de9f9a165e60fcd3db5>@@AEAV<lambda_2ae9d31cdba2644fcbeaf08da7c24588>@@$$QEAV<lambda_40d01ff24d0e7b3814fdbdcee8eab3c7>@@@Z@4HA 0000000180025644 f   libucrt:per_thread_data.obj
 0001:00024644       ?fin$0@?0???$?RV<lambda_450d765d439847d4c735a33c368b5fc0>@@AEAV<lambda_44731a7d0e6d81c3e6aa82d741081786>@@V<lambda_601a2a7da3b7a96e9554ac7215c4b07c>@@@?$__crt_seh_guarded_call@P6AXH@Z@@QEAAP6AXH@Z$$QEAV<lambda_450d765d439847d4c735a33c368b5fc0>@@AEAV<lambda_44731a7d0e6d81c3e6aa82d741081786>@@$$QEAV<lambda_601a2a7da3b7a96e9554ac7215c4b07c>@@@Z@4HA 0000000180025644 f   libucrt:signal.obj
 0001:00024644       ?fin$0@?0???$?RV<lambda_d80eeec6fff315bfe5c115232f3240e3>@@AEAV<lambda_6e4b09c48022b2350581041d5f6b0c4c>@@V<lambda_2358e3775559c9db80273638284d5e45>@@@?$__crt_seh_guarded_call@X@@QEAAX$$QEAV<lambda_d80eeec6fff315bfe5c115232f3240e3>@@AEAV<lambda_6e4b09c48022b2350581041d5f6b0c4c>@@$$QEAV<lambda_2358e3775559c9db80273638284d5e45>@@@Z@4HA 0000000180025644 f   libucrt:exit.obj
 0001:00024644       ?fin$0@?0???$?RV<lambda_638799b9deba96c50f710eeac98168cd>@@AEAV<lambda_22ebabd17bc4fa466a2aca6d8deb888d>@@V<lambda_a6f7d7db0129f75315ebf26d50c089f1>@@@?$__crt_seh_guarded_call@H@@QEAAH$$QEAV<lambda_638799b9deba96c50f710eeac98168cd>@@AEAV<lambda_22ebabd17bc4fa466a2aca6d8deb888d>@@$$QEAV<lambda_a6f7d7db0129f75315ebf26d50c089f1>@@@Z@4HA 0000000180025644 f   libucrt:onexit.obj
 0001:00024644       ?fin$0@?0???$?RV<lambda_7777bce6b2f8c936911f934f8298dc43>@@AEAV<lambda_f03950bc5685219e0bcd2087efbe011e>@@V<lambda_3883c3dff614d5e0c5f61bb1ac94921c>@@@?$__crt_seh_guarded_call@H@@QEAAH$$QEAV<lambda_7777bce6b2f8c936911f934f8298dc43>@@AEAV<lambda_f03950bc5685219e0bcd2087efbe011e>@@$$QEAV<lambda_3883c3dff614d5e0c5f61bb1ac94921c>@@@Z@4HA 0000000180025644 f   libucrt:onexit.obj
 0001:0002465e       ?filt$0@?0???R<lambda_6e4b09c48022b2350581041d5f6b0c4c>@@QEBA@XZ@4HA 000000018002565e f   libucrt:exit.obj
 0001:0002468b       _query_new_handler$fin$0   000000018002568b f   libucrt:new_handler.obj
 0001:000246a1       ?fin$0@?0???$?RV<lambda_410d79af7f07d98d83a3f525b3859a53>@@AEAV<lambda_3e16ef9562a7dcce91392c22ab16ea36>@@V<lambda_38119f0e861e05405d8a144b9b982f0a>@@@?$__crt_seh_guarded_call@X@@QEAAX$$QEAV<lambda_410d79af7f07d98d83a3f525b3859a53>@@AEAV<lambda_3e16ef9562a7dcce91392c22ab16ea36>@@$$QEAV<lambda_38119f0e861e05405d8a144b9b982f0a>@@@Z@4HA 00000001800256a1 f   libucrt:wsetlocale.obj
 0001:000246bb       __acrt_initialize_lowio$fin$0 00000001800256bb f   libucrt:ioinit.obj
 0001:000246bb       __acrt_lowio_ensure_fh_exists$fin$0 00000001800256bb f   libucrt:osfinfo.obj
 0001:000246d4       ?fin$0@?0???$?RV<lambda_efdfa57d1f175319df784efa44bb7b81>@@AEAV<lambda_5f0a4c1567f8adc6734073e5d1e1b35c>@@V<lambda_2e8a7d3640ea6ccb4c2413664c2db6fd>@@@?$__crt_seh_guarded_call@X@@QEAAX$$QEAV<lambda_efdfa57d1f175319df784efa44bb7b81>@@AEAV<lambda_5f0a4c1567f8adc6734073e5d1e1b35c>@@$$QEAV<lambda_2e8a7d3640ea6ccb4c2413664c2db6fd>@@@Z@4HA 00000001800256d4 f   libucrt:mbctype.obj
 0001:000246ee       ?fin$0@?0??update_thread_multibyte_data_internal@@YAPEAU__crt_multibyte_data@@QEAU__acrt_ptd@@QEAPEAU1@@Z@4HA 00000001800256ee f   libucrt:mbctype.obj
 0001:00024707       raise$fin$0                0000000180025707 f   libucrt:signal.obj
 0001:00024728       ?fin$0@?0???$?RV<lambda_842d9ff0dc9ef11c61343bbaebe7f885>@@AEAV<lambda_c5860995281e5c4ce005b3de8f5874ee>@@V<lambda_d90129c13df834fdcbf8d2b88dafcf2d>@@@?$__crt_seh_guarded_call@X@@QEAAX$$QEAV<lambda_842d9ff0dc9ef11c61343bbaebe7f885>@@AEAV<lambda_c5860995281e5c4ce005b3de8f5874ee>@@$$QEAV<lambda_d90129c13df834fdcbf8d2b88dafcf2d>@@@Z@4HA 0000000180025728 f   libucrt:fflush.obj
 0001:00024743       ?fin$0@?0???$?RV<lambda_886d6c58226a84441f68b9f2b8217b83>@@AEAV<lambda_ab61a845afdef5b7c387490eaf3616ee>@@V<lambda_f7f22ab5edc0698d5f6905b0d3f44752>@@@?$__crt_seh_guarded_call@X@@QEAAX$$QEAV<lambda_886d6c58226a84441f68b9f2b8217b83>@@AEAV<lambda_ab61a845afdef5b7c387490eaf3616ee>@@$$QEAV<lambda_f7f22ab5edc0698d5f6905b0d3f44752>@@@Z@4HA 0000000180025743 f   libucrt:fflush.obj
 0001:00024760       __acrt_update_thread_locale_data$fin$0 0000000180025760 f   libucrt:locale_refcounting.obj
 0001:00024779       _fcloseall$fin$0           0000000180025779 f   libucrt:closeall.obj
 0001:00024792       ?fin$0@?0???$?RV<lambda_ad8af0d99a0adf03d037d7dffe354bb5>@@AEAV<lambda_c9ba49e555ba839a7b07aa3fbecb7617>@@V<lambda_2f1ebd5d68526518146ae959c9e734c8>@@@?$__crt_seh_guarded_call@H@@QEAAH$$QEAV<lambda_ad8af0d99a0adf03d037d7dffe354bb5>@@AEAV<lambda_c9ba49e555ba839a7b07aa3fbecb7617>@@$$QEAV<lambda_2f1ebd5d68526518146ae959c9e734c8>@@@Z@4HA 0000000180025792 f   libucrt:close.obj
 0001:00024792       ?fin$0@?0???$?RV<lambda_a37b2b86f63e897a80ea819b0eb08c01>@@AEAV<lambda_38ce7e780aa69e748d6df282ebc68efe>@@V<lambda_99fb1378e971ab6e7edea83e3a7a83a2>@@@?$__crt_seh_guarded_call@H@@QEAAH$$QEAV<lambda_a37b2b86f63e897a80ea819b0eb08c01>@@AEAV<lambda_38ce7e780aa69e748d6df282ebc68efe>@@$$QEAV<lambda_99fb1378e971ab6e7edea83e3a7a83a2>@@@Z@4HA 0000000180025792 f   libucrt:commit.obj
 0001:000247ac       _write_internal$fin$0      00000001800257ac f   libucrt:write.obj
 0001:000247c3       ?fin$0@?0??_fclose_internal@@YAHQEAU_iobuf@@AEAV__crt_cached_ptd_host@@@Z@4HA 00000001800257c3 f   libucrt:fclose.obj
 0001:000247db       _ctrlfp$filt$0             00000001800257db f   libucrt:fpctrl.obj
 0001:000247db       common_control87$filt$0    00000001800257db f   libucrt:ieee.obj
 0001:00024810       _IsNonwritableInCurrentImage$filt$0 0000000180025810 f   LIBCMT:pesect.obj
 0001:00024830       ??__F_AtlComModule@ATL@@YAXXZ 0000000180025830 f   OposVariant.obj
 0001:0002483c       ??__F_AtlWinModule@ATL@@YAXXZ 000000018002583c f   OposVariant.obj
 0001:00024880       ??__F_Module@@YAXXZ        0000000180025880 f   CashChanger.obj
 0001:0002489c       ??__F_AtlBaseModule@ATL@@YAXXZ 000000018002589c f   atls:atlbase.obj
 0002:00000670       ?_AtlBaseModule$initializer$@ATL@@3P6AXXZEA 0000000180026670     atls:atlbase.obj
 0002:00000678       ?_AtlComModule$initializer$@ATL@@3P6AXXZEA 0000000180026678     OposVariant.obj
 0002:00000680       ?_AtlWinModule$initializer$@ATL@@3P6AXXZEA 0000000180026680     OposVariant.obj
 0002:00000688       ?_Module$initializer$@@3P6AXXZEA 0000000180026688     CashChanger.obj
 0002:00000690       ??pConnMap$initializer$@?$IConnectionPointContainerImpl@VCOPOSCashChanger@@@ATL@@0P6AXXZEA@@3P6AXXZEA 0000000180026690     CashChanger.obj
 0002:000006a8       ?__scrt_initialize_tss_var@@3P6AHXZEA 00000001800266a8     LIBCMT:thread_safe_statics.obj
 0002:00002918       GS_ExceptionPointers       0000000180028918     LIBCMT:gs_report.obj
 0002:00002b00       ?ExceptionTemplate@?1??UnwindNestedFrames@__FrameHandler4@@SAXPEA_KPEAUEHExceptionRecord@@PEAU_CONTEXT@@0PEAXPEAUFuncInfo4@FH4@@HHPEAUHandlerType4@6@PEAU_xDISPATCHER_CONTEXT@@E@Z@4U_EXCEPTION_RECORD@@B 0000000180028b00     libvcruntime:risctrnsctrl.obj
 0002:00002ba0       ?ExceptionTemplate@?1??UnwindNestedFrames@__FrameHandler3@@SAXPEA_KPEAUEHExceptionRecord@@PEAU_CONTEXT@@0PEAXPEBU_s_FuncInfo@@HHPEBU_s_HandlerType@@PEAU_xDISPATCHER_CONTEXT@@E@Z@4U_EXCEPTION_RECORD@@B 0000000180028ba0     libvcruntime:risctrnsctrl.obj
 0002:00002c70       ?tokenTable@@3QBUStringLiteral@@B 0000000180028c70     libvcruntime:undname.obj
 0002:00002d80       ?nameTable@@3QBUStringLiteral@@B 0000000180028d80     libvcruntime:undname.obj
 0002:000032b0       ?rttiTable@@3QBUStringLiteral@@B 00000001800292b0     libvcruntime:undname.obj
 0002:00003300       ?IndirectionName@@3QBUStringLiteral@@B 0000000180029300     libvcruntime:undname.obj
 0002:00003360       ?PrefixName@@3QBUStringLiteral@@B 0000000180029360     libvcruntime:undname.obj
 0002:00003a48       ?module_names@?A0xbc0cc709@@3QBQEB_WB 0000000180029a48     libvcruntime:winapi_downlevel.obj
 0002:00003b08       ?candidate_modules@?1??try_get_FlsAlloc@@YAP6AKP6AXPEAX@Z@ZXZ@4QBW4module_id@?A0xbc0cc709@@B 0000000180029b08     libvcruntime:winapi_downlevel.obj
 0002:00003b20       ?candidate_modules@?1??try_get_FlsFree@@YAP6AHK@ZXZ@4QBW4module_id@?A0xbc0cc709@@B 0000000180029b20     libvcruntime:winapi_downlevel.obj
 0002:00003b30       ?candidate_modules@?1??try_get_FlsGetValue@@YAP6APEAXK@ZXZ@4QBW4module_id@?A0xbc0cc709@@B 0000000180029b30     libvcruntime:winapi_downlevel.obj
 0002:00003b48       ?candidate_modules@?1??try_get_FlsSetValue@@YAP6AHKPEAX@ZXZ@4QBW4module_id@?A0xbc0cc709@@B 0000000180029b48     libvcruntime:winapi_downlevel.obj
 0002:00003b60       ?candidate_modules@?1??try_get_InitializeCriticalSectionEx@@YAP6AHPEAU_RTL_CRITICAL_SECTION@@KK@ZXZ@4QBW4module_id@?A0xbc0cc709@@B 0000000180029b60     libvcruntime:winapi_downlevel.obj
 0002:00003b90       ?errtable@@3QBUerrentry@?A0x31fdb9ec@@B 0000000180029b90     libucrt:errno.obj
 0002:00003ef8       $cppxdata$?try_cor_exit_process@@YAXI@Z 0000000180029ef8     libucrt:exit.obj
 0002:00003f20       $cppxdata$?common_exit@@YAXHW4_crt_exit_cleanup_mode@@W4_crt_exit_return_mode@@@Z 0000000180029f20     libucrt:exit.obj
 0002:00003f70       $cppxdata$__dcrt_uninitialize_environments_nolock 0000000180029f70     libucrt:environment_initialization.obj
 0002:00003f98       $cppxdata$_execute_onexit_table 0000000180029f98     libucrt:onexit.obj
 0002:00003fc0       __acrt_initializers        0000000180029fc0     libucrt:initialization.obj
 0002:00004740       ?module_names@?A0x391cf84c@@3QBQEB_WB 000000018002a740     libucrt:winapi_thunks.obj
 0002:00004c48       ?candidate_modules@?1??try_get_AreFileApisANSI@@YAP6AHXZXZ@4QBW4module_id@?A0x391cf84c@@B 000000018002ac48     libucrt:winapi_thunks.obj
 0002:00004c60       ?candidate_modules@?1??try_get_InitializeCriticalSectionEx@@YAP6AHPEAU_RTL_CRITICAL_SECTION@@KK@ZXZ@4QBW4module_id@?A0x391cf84c@@B 000000018002ac60     libucrt:winapi_thunks.obj
 0002:00004c68       ?candidate_modules@?1??try_get_LCMapStringEx@@YAP6AHPEB_WK0HPEA_WHPEAU_nlsversioninfo@@PEAX_J@ZXZ@4QBW4module_id@?A0x391cf84c@@B 000000018002ac68     libucrt:winapi_thunks.obj
 0002:00004c80       ?candidate_modules@?1??try_get_LocaleNameToLCID@@YAP6AKPEB_WK@ZXZ@4QBW4module_id@?A0x391cf84c@@B 000000018002ac80     libucrt:winapi_thunks.obj
 0002:00004c9c       ?candidate_modules@?1??try_get_AppPolicyGetProcessTerminationMethod@@YAP6AJPEAXPEAW4AppPolicyProcessTerminationMethod@@@ZXZ@4QBW4module_id@?A0x391cf84c@@B 000000018002ac9c     libucrt:winapi_thunks.obj
 0002:00004cc8       ?candidate_modules@?1??try_get_SetThreadStackGuarantee@@YAP6AHPEAK@ZXZ@4QBW4module_id@?A0x391cf84c@@B 000000018002acc8     libucrt:winapi_thunks.obj
 0002:00004cf0       ?strings@?1??fp_format_nan_or_infinity@@YAHW4__acrt_fp_class@@_NPEAD_K1@Z@4QAY03QEBDA 000000018002acf0     libucrt:cvt.obj
 0002:00004dc8       ?_mb_locale_names@@3QBQEB_WB 000000018002adc8     libucrt:mbctype.obj
 0002:00005440       ?LcidToLocaleNameTable@?A0x881e4c05@@3QBULcidToLocaleName@1@B 000000018002b440     libucrt:lcidtoname_downlevel.obj
 0002:00006e90       ?LocaleNameToIndexTable@?A0x881e4c05@@3QBULocaleNameIndex@1@B 000000018002ce90     libucrt:lcidtoname_downlevel.obj
 0002:00009120       $cppxdata$?write_double_translated_ansi_nolock@@YA?AUwrite_result@?A0x17268360@@HQEBDIAEAV__crt_cached_ptd_host@@@Z 000000018002f120     libucrt:write.obj
 0002:00009150       __real_ninf                000000018002f150     libucrt:log10.obj
 0002:00009160       __real_inf                 000000018002f160     libucrt:log10.obj
 0002:00009170       __real_neg_qnan            000000018002f170     libucrt:log10.obj
 0002:00009180       __real_qnanbit             000000018002f180     libucrt:log10.obj
 0002:00009190       __int_1023                 000000018002f190     libucrt:log10.obj
 0002:000091a0       __mask_001                 000000018002f1a0     libucrt:log10.obj
 0002:000091b0       __mask_mant                000000018002f1b0     libucrt:log10.obj
 0002:000091c0       __mask_mant_top8           000000018002f1c0     libucrt:log10.obj
 0002:000091d0       __mask_mant9               000000018002f1d0     libucrt:log10.obj
 0002:000091e0       __real_log10_e             000000018002f1e0     libucrt:log10.obj
 0002:000091f0       __real_log10_e_lead        000000018002f1f0     libucrt:log10.obj
 0002:00009200       __real_log10_e_tail        000000018002f200     libucrt:log10.obj
 0002:00009210       __real_log10_2_lead        000000018002f210     libucrt:log10.obj
 0002:00009220       __real_log10_2_tail        000000018002f220     libucrt:log10.obj
 0002:00009230       __real_two                 000000018002f230     libucrt:log10.obj
 0002:00009240       __real_one                 000000018002f240     libucrt:log10.obj
 0002:00009250       __real_half                000000018002f250     libucrt:log10.obj
 0002:00009260       __mask_100                 000000018002f260     libucrt:log10.obj
 0002:00009270       __real_1_over_512          000000018002f270     libucrt:log10.obj
 0002:00009280       __real_1_over_2            000000018002f280     libucrt:log10.obj
 0002:00009290       __real_1_over_3            000000018002f290     libucrt:log10.obj
 0002:000092a0       __real_1_over_4            000000018002f2a0     libucrt:log10.obj
 0002:000092b0       __real_1_over_5            000000018002f2b0     libucrt:log10.obj
 0002:000092c0       __real_1_over_6            000000018002f2c0     libucrt:log10.obj
 0002:000092d0       __real_neg_1023            000000018002f2d0     libucrt:log10.obj
 0002:000092e0       __mask_2045                000000018002f2e0     libucrt:log10.obj
 0002:000092f0       __real_threshold           000000018002f2f0     libucrt:log10.obj
 0002:00009300       __real_near_one_lt         000000018002f300     libucrt:log10.obj
 0002:00009310       __real_near_one_gt         000000018002f310     libucrt:log10.obj
 0002:00009320       __real_min_norm            000000018002f320     libucrt:log10.obj
 0002:00009330       __real_notsign             000000018002f330     libucrt:log10.obj
 0002:00009340       __real_ca1                 000000018002f340     libucrt:log10.obj
 0002:00009350       __real_ca2                 000000018002f350     libucrt:log10.obj
 0002:00009360       __real_ca3                 000000018002f360     libucrt:log10.obj
 0002:00009370       __real_ca4                 000000018002f370     libucrt:log10.obj
 0002:00009380       __mask_lower               000000018002f380     libucrt:log10.obj
 0002:00009390       __flag_x_zero              000000018002f390     libucrt:log10.obj
 0002:00009394       __flag_x_neg               000000018002f394     libucrt:log10.obj
 0002:00009398       __flag_x_nan               000000018002f398     libucrt:log10.obj
 0002:0000abf0       __real@433fffffffffffff    0000000180030bf0     libucrt:fpsr.obj
 0002:0000abf8       __real@c33fffffffffffff    0000000180030bf8     libucrt:fpsr.obj
 0002:0000b548       $unwind$?cw_memcpy@@YAHPEA_WPEBDH@Z 0000000180031548     CWString.obj
 0002:0000b548       $unwind$_invalid_parameter_noinfo 0000000180031548     libucrt:invalid_parameter.obj
 0002:0000b548       $unwind$?state_case_size@?$output_processor@_WV?$string_output_adapter@_W@__crt_stdio_output@@V?$format_validation_base@_WV?$string_output_adapter@_W@__crt_stdio_output@@@2@@__crt_stdio_output@@AEAA_NXZ 0000000180031548     libucrt:output.obj
 0002:0000b548       $unwind$_log10_special     0000000180031548     libucrt:log_special.obj
 0002:0000b550       $unwind$?cw_strcpy@@YAHPEA_WPEBD@Z 0000000180031550     CWString.obj
 0002:0000b550       $unwind$??__E?pConnMap@?$IConnectionPointContainerImpl@VCOPOSCashChanger@@@ATL@@0PEBU_ATL_CONNMAP_ENTRY@2@EB@@YAXXZ 0000000180031550     CashChanger.obj
 0002:0000b550       $unwind$?AddReplacement@CRegObject@ATL@@UEAAJPEB_W0@Z 0000000180031550     CashChanger.obj
 0002:0000b550       $unwind$?AtlHresultFromLastError@ATL@@YAJXZ 0000000180031550     CashChanger.obj
 0002:0000b550       $unwind$?AtlThrowImpl@ATL@@YAXJ@Z 0000000180031550     CashChanger.obj
 0002:0000b550       $unwind$?CreateInstance@CComClassFactory@ATL@@UEAAJPEAUIUnknown@@AEBU_GUID@@PEAPEAX@Z 0000000180031550     CashChanger.obj
 0002:0000b550       $unwind$?DefaultReflectionHandler@?$CWindowImplRoot@VCWindow@ATL@@@ATL@@SAHPEAUHWND__@@I_K_JAEA_J@Z 0000000180031550     CashChanger.obj
 0002:0000b550       $unwind$?EnumAdvise@?$IOleObjectImpl@VCOPOSCashChanger@@@ATL@@UEAAJPEAPEAUIEnumSTATDATA@@@Z 0000000180031550     CashChanger.obj
 0002:0000b550       $unwind$?FireViewChange@CComControlBase@ATL@@QEAAJXZ 0000000180031550     CashChanger.obj
 0002:0000b550       $unwind$?GetAdvise@?$IViewObjectExImpl@VCOPOSCashChanger@@@ATL@@UEAAJPEAK0PEAPEAUIAdviseSink@@@Z 0000000180031550     CashChanger.obj
 0002:0000b550       $unwind$?LockServer@CComClassFactory@ATL@@UEAAJH@Z 0000000180031550     CashChanger.obj
 0002:0000b550       $unwind$?OnDocWindowActivate@?$IOleInPlaceActiveObjectImpl@VCOPOSCashChanger@@@ATL@@UEAAJH@Z 0000000180031550     CashChanger.obj
 0002:0000b550       $unwind$?Unadvise@?$IOleObjectImpl@VCOPOSCashChanger@@@ATL@@UEAAJK@Z 0000000180031550     CashChanger.obj
 0002:0000b550       $unwind$?_LocCPQueryInterface@?$IConnectionPointImpl@VCOPOSCashChanger@@$1?DIID__IOPOSCashChangerEvents@@3U_GUID@@BVCComDynamicUnkArray@ATL@@@ATL@@UEAAJAEBU_GUID@@PEAPEAX@Z 0000000180031550     CashChanger.obj
 0002:0000b550       $unwind$?_LocCPQueryInterface@?$IConnectionPointImpl@VCOPOSCashChanger@@$1?IID_IPropertyNotifySink@@3U_GUID@@BVCComDynamicUnkArray@ATL@@@ATL@@UEAAJAEBU_GUID@@PEAPEAX@Z 0000000180031550     CashChanger.obj
 0002:0000b550       $unwind$?FinalConstruct@COPOSCashChanger@@QEAAJXZ 0000000180031550     CashChangerImpl.obj
 0002:0000b550       $unwind$?get_ResultCode@COPOSCashChanger@@UEAAJPEAJ@Z 0000000180031550     CashChangerImpl.obj
 0002:0000b550       $unwind$?get_State@COPOSCashChanger@@UEAAJPEAJ@Z 0000000180031550     CashChangerImpl.obj
 0002:0000b550       $unwind$??1OposDispParms@@QEAA@XZ 0000000180031550     OposVariant.obj
 0002:0000b550       $unwind$??__E_AtlComModule@ATL@@YAXXZ 0000000180031550     OposVariant.obj
 0002:0000b550       $unwind$??__E_AtlWinModule@ATL@@YAXXZ 0000000180031550     OposVariant.obj
 0002:0000b550       $unwind$??__F_AtlWinModule@ATL@@YAXXZ 0000000180031550     OposVariant.obj
 0002:0000b550       $unwind$?GetLONG@OposVariant@@QEAAJXZ 0000000180031550     OposVariant.obj
 0002:0000b550       $unwind$__dcrt_terminate_console_output 0000000180031550     libucrt:initcon.obj
 0002:0000b550       $unwind$??$uninitialize_environment_internal@D@@YAXAEAPEAPEAD@Z 0000000180031550     libucrt:environment_initialization.obj
 0002:0000b550       $unwind$??$uninitialize_environment_internal@_W@@YAXAEAPEAPEA_W@Z 0000000180031550     libucrt:environment_initialization.obj
 0002:0000b550       $unwind$__acrt_initialize_heap 0000000180031550     libucrt:heap_handle.obj
 0002:0000b550       $unwind$_msize_base        0000000180031550     libucrt:msize.obj
 0002:0000b550       $unwind$?initialize_multibyte@@YAHXZ 0000000180031550     libucrt:multibyte_initializer.obj
 0002:0000b550       $unwind$__acrt_thread_attach 0000000180031550     libucrt:initialization.obj
 0002:0000b550       $unwind$__acrt_thread_detach 0000000180031550     libucrt:initialization.obj
 0002:0000b550       $unwind$__acrt_uninitialize 0000000180031550     libucrt:initialization.obj
 0002:0000b550       $unwind$__acrt_uninitialize_critical 0000000180031550     libucrt:initialization.obj
 0002:0000b550       $unwind$initialize_c       0000000180031550     libucrt:initialization.obj
 0002:0000b550       $unwind$uninitialize_allocated_io_buffers 0000000180031550     libucrt:initialization.obj
 0002:0000b550       $unwind$uninitialize_environment 0000000180031550     libucrt:initialization.obj
 0002:0000b550       $unwind$__acrt_initialize_ptd 0000000180031550     libucrt:per_thread_data.obj
 0002:0000b550       $unwind$__acrt_uninitialize_ptd 0000000180031550     libucrt:per_thread_data.obj
 0002:0000b550       $unwind$__acrt_AreFileApisANSI 0000000180031550     libucrt:winapi_thunks.obj
 0002:0000b550       $unwind$__acrt_release_locale_ref 0000000180031550     libucrt:locale_refcounting.obj
 0002:0000b550       $unwind$_isatty            0000000180031550     libucrt:isatty.obj
 0002:0000b550       $unwind$_get_osfhandle     0000000180031550     libucrt:osfinfo.obj
 0002:0000b550       $unwind$__acrt_initialize_multibyte 0000000180031550     libucrt:mbctype.obj
 0002:0000b550       $unwind$__acrt_update_thread_multibyte_data 0000000180031550     libucrt:mbctype.obj
 0002:0000b550       $unwind$__doserrno         0000000180031550     libucrt:errno.obj
 0002:0000b550       $unwind$_errno             0000000180031550     libucrt:errno.obj
 0002:0000b550       $unwind$_invoke_watson     0000000180031550     libucrt:invalid_parameter.obj
 0002:0000b550       $unwind$abort              0000000180031550     libucrt:abort.obj
 0002:0000b550       $unwind$__acrt_initialize_command_line 0000000180031550     libucrt:argv_data.obj
 0002:0000b550       $unwind$?should_call_terminate_process@@YA_NXZ 0000000180031550     libucrt:exit.obj
 0002:0000b550       $unwind$_fileno            0000000180031550     libucrt:fileno.obj
 0002:0000b550       $unwind$_statfp            0000000180031550     libucrt:fpctrl.obj
 0002:0000b550       $unwind$fegetround         0000000180031550     libucrt:fegetround.obj
 0002:0000b550       $unwind$_set_errno_from_matherr 0000000180031550     libucrt:fpexcept.obj
 0002:0000b550       $unwind$??__E_AtlBaseModule@ATL@@YAXXZ 0000000180031550     atls:atlbase.obj
 0002:0000b550       $unwind$__scrt_initialize_default_local_stdio_options 0000000180031550     LIBCMT:default_local_stdio_options.obj
 0002:0000b550       $unwind$?dllmain_crt_dispatch@@YAHQEAUHINSTANCE__@@KQEAX@Z 0000000180031550     LIBCMT:dll_dllmain.obj
 0002:0000b550       $unwind$__report_rangecheckfailure 0000000180031550     LIBCMT:gs_report.obj
 0002:0000b550       $unwind$__GSHandlerCheck   0000000180031550     LIBCMT:gshandler.obj
 0002:0000b550       $unwind$?__scrt_uninitialize_thread_safe_statics@@YAXXZ 0000000180031550     LIBCMT:thread_safe_statics.obj
 0002:0000b550       $unwind$_Init_thread_notify 0000000180031550     LIBCMT:thread_safe_statics.obj
 0002:0000b550       $unwind$__scrt_acquire_startup_lock 0000000180031550     LIBCMT:utility.obj
 0002:0000b550       $unwind$__scrt_dllmain_after_initialize_c 0000000180031550     LIBCMT:utility.obj
 0002:0000b550       $unwind$__scrt_dllmain_before_initialize_c 0000000180031550     LIBCMT:utility.obj
 0002:0000b550       $unwind$__scrt_dllmain_crt_thread_attach 0000000180031550     LIBCMT:utility.obj
 0002:0000b550       $unwind$__scrt_dllmain_crt_thread_detach 0000000180031550     LIBCMT:utility.obj
 0002:0000b550       $unwind$__scrt_dllmain_uninitialize_c 0000000180031550     LIBCMT:utility.obj
 0002:0000b550       $unwind$__scrt_dllmain_uninitialize_critical 0000000180031550     LIBCMT:utility.obj
 0002:0000b550       $unwind$atexit             0000000180031550     LIBCMT:utility.obj
 0002:0000b550       $unwind$__std_terminate    0000000180031550     libvcruntime:ehhelpers.obj
 0002:0000b550       $unwind$?GetCurrentState@__FrameHandler3@@SAHPEA_KPEAU_xDISPATCHER_CONTEXT@@PEBU_s_FuncInfo@@@Z 0000000180031550     libvcruntime:ehstate.obj
 0002:0000b550       $unwind$__vcrt_initialize  0000000180031550     libvcruntime:initialization.obj
 0002:0000b550       $unwind$__vcrt_thread_attach 0000000180031550     libvcruntime:initialization.obj
 0002:0000b550       $unwind$__vcrt_thread_detach 0000000180031550     libvcruntime:initialization.obj
 0002:0000b550       $unwind$__vcrt_uninitialize 0000000180031550     libvcruntime:initialization.obj
 0002:0000b550       $unwind$__vcrt_uninitialize_critical 0000000180031550     libvcruntime:initialization.obj
 0002:0000b550       $unwind$__vcrt_freefls     0000000180031550     libvcruntime:per_thread_data.obj
 0002:0000b550       $unwind$__vcrt_getptd      0000000180031550     libvcruntime:per_thread_data.obj
 0002:0000b550       $unwind$__vcrt_initialize_ptd 0000000180031550     libvcruntime:per_thread_data.obj
 0002:0000b550       $unwind$__vcrt_uninitialize_ptd 0000000180031550     libvcruntime:per_thread_data.obj
 0002:0000b550       $unwind$_purecall          0000000180031550     libvcruntime:purevirt.obj
 0002:0000b550       $unwind$?FrameUnwindToEmptyState@__FrameHandler4@@SAXPEA_KPEAU_xDISPATCHER_CONTEXT@@PEAUFuncInfo4@FH4@@@Z 0000000180031550     libvcruntime:risctrnsctrl.obj
 0002:0000b550       $unwind$_GetImageBase      0000000180031550     libvcruntime:risctrnsctrl.obj
 0002:0000b550       $unwind$_GetThrowImageBase 0000000180031550     libvcruntime:risctrnsctrl.obj
 0002:0000b558       $unwind$?cw_dup@@YAXPEBDAEAHAEAPEA_W1@Z 0000000180031558     CWString.obj
 0002:0000b558       $unwind$?DAdvise@?$IDataObjectImpl@VCOPOSCashChanger@@@ATL@@UEAAJPEAUtagFORMATETC@@KPEAUIAdviseSink@@PEAK@Z 0000000180031558     CashChanger.obj
 0002:0000b558       $unwind$??$create_environment@D@@YAQEAPEADQEAD@Z 0000000180031558     libucrt:environment_initialization.obj
 0002:0000b558       $unwind$_mbtowc_internal   0000000180031558     libucrt:mbtowc.obj
 0002:0000b558       $unwind$??$__acrt_convert_wcs_mbs_cp@D_WV<lambda_7c9dea7b4ca7285d2cdb541a38da6275>@@U__crt_win32_buffer_internal_dynamic_resizing@@@@YAHQEBDAEAV?$__crt_win32_buffer@_WU__crt_win32_buffer_internal_dynamic_resizing@@@@AEBV<lambda_7c9dea7b4ca7285d2cdb541a38da6275>@@I@Z 0000000180031558     libucrt:argv_wildcards.obj
 0002:0000b558       $unwind$?process@?$output_processor@_WV?$string_output_adapter@_W@__crt_stdio_output@@V?$format_validation_base@_WV?$string_output_adapter@_W@__crt_stdio_output@@@2@@__crt_stdio_output@@QEAAHXZ 0000000180031558     libucrt:output.obj
 0002:0000b570       $unwind$?DupWide@_CW@@AEAAXXZ 0000000180031570     CWString.obj
 0002:0000b570       $unwind$??0?$CComObject@VCOPOSCashChanger@@@ATL@@QEAA@PEAX@Z 0000000180031570     CashChanger.obj
 0002:0000b570       $unwind$??0CAtlModule@ATL@@QEAA@XZ 0000000180031570     CashChanger.obj
 0002:0000b570       $unwind$??1?$CComObject@VCOPOSCashChanger@@@ATL@@UEAA@XZ 0000000180031570     CashChanger.obj
 0002:0000b570       $unwind$??__E_Module@@YAXXZ 0000000180031570     CashChanger.obj
 0002:0000b570       $unwind$?AddRef@?$CComObjectCached@VCComClassFactory@ATL@@@ATL@@UEAAKXZ 0000000180031570     CashChanger.obj
 0002:0000b570       $unwind$?AllocateHeap@?$CTempBuffer@E$0BAA@VCCRTAllocator@ATL@@@ATL@@AEAAX_K@Z 0000000180031570     CashChanger.obj
 0002:0000b570       $unwind$?AllocateHeap@?$CTempBuffer@_W$0BAA@VCCRTAllocator@ATL@@@ATL@@AEAAX_K@Z 0000000180031570     CashChanger.obj
 0002:0000b570       $unwind$?AllocateHeap@?$CTempBuffer@_W$0EAA@VCCRTAllocator@ATL@@@ATL@@AEAAX_K@Z 0000000180031570     CashChanger.obj
 0002:0000b570       $unwind$?GetClassInfoW@?$IProvideClassInfo2Impl@$1?CLSID_OPOSCashChanger@@3U_GUID@@B$1?DIID__IOPOSCashChangerEvents@@3U2@B$1?LIBID_OposCashChanger_CCO@@3U2@B$00$0A@VCComTypeInfoHolder@ATL@@@ATL@@UEAAJPEAPEAUITypeInfo@@@Z 0000000180031570     CashChanger.obj
 0002:0000b570       $unwind$?GetClientSite@?$IOleObjectImpl@VCOPOSCashChanger@@@ATL@@UEAAJPEAPEAUIOleClientSite@@@Z 0000000180031570     CashChanger.obj
 0002:0000b570       $unwind$?GetConnMap@COPOSCashChanger@@SAPEBU_ATL_CONNMAP_ENTRY@ATL@@PEAH@Z 0000000180031570     CashChanger.obj
 0002:0000b570       $unwind$?GetTypeInfo@?$IDispatchImpl@UIOPOSCashChanger@@$1?IID_IOPOSCashChanger@@3U_GUID@@B$1?LIBID_OposCashChanger_CCO@@3U3@B$00$0A@VCComTypeInfoHolder@ATL@@@ATL@@UEAAJIKPEAPEAUITypeInfo@@@Z 0000000180031570     CashChanger.obj
 0002:0000b570       $unwind$?IOleInPlaceObject_InPlaceDeactivate@CComControlBase@ATL@@QEAAJXZ 0000000180031570     CashChanger.obj
 0002:0000b570       $unwind$?IOleObject_SetExtent@CComControlBase@ATL@@QEAAJKPEAUtagSIZE@@@Z 0000000180031570     CashChanger.obj
 0002:0000b570       $unwind$?IsEqualObject@?$CComPtrBase@UIOleClientSite@@@ATL@@QEAA_NPEAUIUnknown@@@Z 0000000180031570     CashChanger.obj
 0002:0000b570       $unwind$?QueryHitPoint@?$IViewObjectExImpl@VCOPOSCashChanger@@@ATL@@UEAAJKPEBUtagRECT@@UtagPOINT@@JPEAK@Z 0000000180031570     CashChanger.obj
 0002:0000b570       $unwind$?QueryInterface@?$CComAggObject@VCOPOSCashChanger@@@ATL@@UEAAJAEBU_GUID@@PEAPEAX@Z 0000000180031570     CashChanger.obj
 0002:0000b570       $unwind$?Release@?$CComObjectCached@VCComClassFactory@ATL@@@ATL@@UEAAKXZ 0000000180031570     CashChanger.obj
 0002:0000b570       $unwind$?Unadvise@?$IConnectionPointImpl@VCOPOSCashChanger@@$1?DIID__IOPOSCashChangerEvents@@3U_GUID@@BVCComDynamicUnkArray@ATL@@@ATL@@UEAAJK@Z 0000000180031570     CashChanger.obj
 0002:0000b570       $unwind$?Unadvise@?$IConnectionPointImpl@VCOPOSCashChanger@@$1?IID_IPropertyNotifySink@@3U_GUID@@BVCComDynamicUnkArray@ATL@@@ATL@@UEAAJK@Z 0000000180031570     CashChanger.obj
 0002:0000b570       $unwind$??1CComControlBase@ATL@@UEAA@XZ 0000000180031570     CashChangerImpl.obj
 0002:0000b570       $unwind$??1COPOSCashChanger@@UEAA@XZ 0000000180031570     CashChangerImpl.obj
 0002:0000b570       $unwind$?EventUninit@COPOSCashChanger@@IEAAXXZ 0000000180031570     CashChangerImpl.obj
 0002:0000b570       $unwind$?FreezeEvents@COPOSCashChanger@@MEAAJH@Z 0000000180031570     CashChangerImpl.obj
 0002:0000b570       $unwind$?SOProcessID@COPOSCashChanger@@UEAAJPEAJ@Z 0000000180031570     CashChangerImpl.obj
 0002:0000b570       $unwind$?get_AsyncMode@COPOSCashChanger@@UEAAJPEAF@Z 0000000180031570     CashChangerImpl.obj
 0002:0000b570       $unwind$?get_CapCompareFirmwareVersion@COPOSCashChanger@@UEAAJPEAF@Z 0000000180031570     CashChangerImpl.obj
 0002:0000b570       $unwind$?get_CapDeposit@COPOSCashChanger@@UEAAJPEAF@Z 0000000180031570     CashChangerImpl.obj
 0002:0000b570       $unwind$?get_CapDepositDataEvent@COPOSCashChanger@@UEAAJPEAF@Z 0000000180031570     CashChangerImpl.obj
 0002:0000b570       $unwind$?get_CapDiscrepancy@COPOSCashChanger@@UEAAJPEAF@Z 0000000180031570     CashChangerImpl.obj
 0002:0000b570       $unwind$?get_CapEmptySensor@COPOSCashChanger@@UEAAJPEAF@Z 0000000180031570     CashChangerImpl.obj
 0002:0000b570       $unwind$?get_CapFullSensor@COPOSCashChanger@@UEAAJPEAF@Z 0000000180031570     CashChangerImpl.obj
 0002:0000b570       $unwind$?get_CapJamSensor@COPOSCashChanger@@UEAAJPEAF@Z 0000000180031570     CashChangerImpl.obj
 0002:0000b570       $unwind$?get_CapNearEmptySensor@COPOSCashChanger@@UEAAJPEAF@Z 0000000180031570     CashChangerImpl.obj
 0002:0000b570       $unwind$?get_CapNearFullSensor@COPOSCashChanger@@UEAAJPEAF@Z 0000000180031570     CashChangerImpl.obj
 0002:0000b570       $unwind$?get_CapPauseDeposit@COPOSCashChanger@@UEAAJPEAF@Z 0000000180031570     CashChangerImpl.obj
 0002:0000b570       $unwind$?get_CapRealTimeData@COPOSCashChanger@@UEAAJPEAF@Z 0000000180031570     CashChangerImpl.obj
 0002:0000b570       $unwind$?get_CapRepayDeposit@COPOSCashChanger@@UEAAJPEAF@Z 0000000180031570     CashChangerImpl.obj
 0002:0000b570       $unwind$?get_CapStatisticsReporting@COPOSCashChanger@@UEAAJPEAF@Z 0000000180031570     CashChangerImpl.obj
 0002:0000b570       $unwind$?get_CapUpdateFirmware@COPOSCashChanger@@UEAAJPEAF@Z 0000000180031570     CashChangerImpl.obj
 0002:0000b570       $unwind$?get_CapUpdateStatistics@COPOSCashChanger@@UEAAJPEAF@Z 0000000180031570     CashChangerImpl.obj
 0002:0000b570       $unwind$?get_Claimed@COPOSCashChanger@@UEAAJPEAF@Z 0000000180031570     CashChangerImpl.obj
 0002:0000b570       $unwind$?get_DataEventEnabled@COPOSCashChanger@@UEAAJPEAF@Z 0000000180031570     CashChangerImpl.obj
 0002:0000b570       $unwind$?get_DeviceEnabled@COPOSCashChanger@@UEAAJPEAF@Z 0000000180031570     CashChangerImpl.obj
 0002:0000b570       $unwind$?get_FreezeEvents@COPOSCashChanger@@UEAAJPEAF@Z 0000000180031570     CashChangerImpl.obj
 0002:0000b570       $unwind$?get_RealTimeDataEnabled@COPOSCashChanger@@UEAAJPEAF@Z 0000000180031570     CashChangerImpl.obj
 0002:0000b570       $unwind$?put_FreezeEvents@COPOSCashChanger@@UEAAJF@Z 0000000180031570     CashChangerImpl.obj
 0002:0000b570       $unwind$??0CAtlComModule@ATL@@QEAA@XZ 0000000180031570     OposVariant.obj
 0002:0000b570       $unwind$??0CAtlWinModule@ATL@@QEAA@XZ 0000000180031570     OposVariant.obj
 0002:0000b570       $unwind$?SetBSTR_OutPtr@OposVariant@@QEAA_NPEAPEA_WAEAJ@Z 0000000180031570     OposVariant.obj
 0002:0000b570       $unwind$_calloc_base       0000000180031570     libucrt:calloc_base.obj
 0002:0000b570       $unwind$_malloc_base       0000000180031570     libucrt:malloc_base.obj
 0002:0000b570       $unwind$_callnewh          0000000180031570     libucrt:new_handler.obj
 0002:0000b570       $unwind$initialize_pointers 0000000180031570     libucrt:initialization.obj
 0002:0000b570       $unwind$uninitialize_allocated_memory 0000000180031570     libucrt:initialization.obj
 0002:0000b570       $unwind$__acrt_initialize_locks 0000000180031570     libucrt:locks.obj
 0002:0000b570       $unwind$__acrt_uninitialize_locks 0000000180031570     libucrt:locks.obj
 0002:0000b570       $unwind$__acrt_freeptd     0000000180031570     libucrt:per_thread_data.obj
 0002:0000b570       $unwind$__acrt_getptd_head 0000000180031570     libucrt:per_thread_data.obj
 0002:0000b570       $unwind$__acrt_get_process_end_policy 0000000180031570     libucrt:win_policies.obj
 0002:0000b570       $unwind$__acrt_AppPolicyGetProcessTerminationMethodInternal 0000000180031570     libucrt:winapi_thunks.obj
 0002:0000b570       $unwind$__acrt_SetThreadStackGuarantee 0000000180031570     libucrt:winapi_thunks.obj
 0002:0000b570       $unwind$__acrt_uninitialize_winapi_thunks 0000000180031570     libucrt:winapi_thunks.obj
 0002:0000b570       $unwind$__acrt_update_locale_info 0000000180031570     libucrt:locale_update.obj
 0002:0000b570       $unwind$__acrt_update_locale_info_explicit 0000000180031570     libucrt:locale_update.obj
 0002:0000b570       $unwind$__acrt_update_multibyte_info 0000000180031570     libucrt:locale_update.obj
 0002:0000b570       $unwind$__acrt_update_multibyte_info_explicit 0000000180031570     libucrt:locale_update.obj
 0002:0000b570       $unwind$__acrt_errno_map_os_error 0000000180031570     libucrt:errno.obj
 0002:0000b570       $unwind$__acrt_errno_map_os_error_ptd 0000000180031570     libucrt:errno.obj
 0002:0000b570       $unwind$__acrt_allocate_buffer_for_argv 0000000180031570     libucrt:argv_parsing.obj
 0002:0000b570       $unwind$?exit_or_terminate_process@@YAXI@Z 0000000180031570     libucrt:exit.obj
 0002:0000b570       $unwind$__acrt_uninitialize_stdio 0000000180031570     libucrt:_file.obj
 0002:0000b570       $unwind$__acrt_stdio_free_buffer_nolock 0000000180031570     libucrt:_freebuf.obj
 0002:0000b570       $unwind$strcpy_s           0000000180031570     libucrt:strcpy_s.obj
 0002:0000b570       $unwind$wcscat_s           0000000180031570     libucrt:wcscat_s.obj
 0002:0000b570       $unwind$wcscpy_s           0000000180031570     libucrt:wcscpy_s.obj
 0002:0000b570       $unwind$_clrfp             0000000180031570     libucrt:fpctrl.obj
 0002:0000b570       $unwind$_set_statfp        0000000180031570     libucrt:fpctrl.obj
 0002:0000b570       $unwind$_clearfp           0000000180031570     libucrt:ieee.obj
 0002:0000b570       $unwind$_controlfp_s       0000000180031570     libucrt:contrlfp.obj
 0002:0000b570       $unwind$fegetenv           0000000180031570     libucrt:fegetenv.obj
 0002:0000b570       $unwind$feholdexcept       0000000180031570     libucrt:feholdexcept.obj
 0002:0000b570       $unwind$fesetenv           0000000180031570     libucrt:fesetenv.obj
 0002:0000b570       $unwind$??1CAtlBaseModule@ATL@@QEAA@XZ 0000000180031570     atls:atlbase.obj
 0002:0000b570       $unwind$AtlThunk_AllocateData 0000000180031570     atls:atlthunk.obj
 0002:0000b570       $unwind$__raise_securityfailure 0000000180031570     LIBCMT:gs_report.obj
 0002:0000b570       $unwind$??2@YAPEAX_K@Z     0000000180031570     LIBCMT:new_scalar.obj
 0002:0000b570       $unwind$??_Gtype_info@@UEAAPEAXI@Z 0000000180031570     LIBCMT:std_type_info_static.obj
 0002:0000b570       $unwind$_Init_thread_footer 0000000180031570     LIBCMT:thread_safe_statics.obj
 0002:0000b570       $unwind$_Init_thread_header 0000000180031570     LIBCMT:thread_safe_statics.obj
 0002:0000b570       $unwind$_Init_thread_wait  0000000180031570     LIBCMT:thread_safe_statics.obj
 0002:0000b570       $unwind$??0bad_alloc@std@@QEAA@AEBV01@@Z 0000000180031570     LIBCMT:throw_bad_alloc.obj
 0002:0000b570       $unwind$??0bad_array_new_length@std@@QEAA@AEBV01@@Z 0000000180031570     LIBCMT:throw_bad_alloc.obj
 0002:0000b570       $unwind$??0exception@std@@QEAA@AEBV01@@Z 0000000180031570     LIBCMT:throw_bad_alloc.obj
 0002:0000b570       $unwind$__scrt_initialize_crt 0000000180031570     LIBCMT:utility.obj
 0002:0000b570       $unwind$__scrt_initialize_onexit_tables 0000000180031570     LIBCMT:utility.obj
 0002:0000b570       $unwind$__scrt_release_startup_lock 0000000180031570     LIBCMT:utility.obj
 0002:0000b570       $unwind$__scrt_uninitialize_crt 0000000180031570     LIBCMT:utility.obj
 0002:0000b570       $unwind$_onexit            0000000180031570     LIBCMT:utility.obj
 0002:0000b570       $unwind$_IsExceptionObjectToBeDestroyed 0000000180031570     libvcruntime:ehhelpers.obj
 0002:0000b570       $unwind$?GetUnwindTryBlock@__FrameHandler3@@SAHPEA_KPEAU_xDISPATCHER_CONTEXT@@PEBU_s_FuncInfo@@@Z 0000000180031570     libvcruntime:ehstate.obj
 0002:0000b570       $unwind$?StateFromIp@__FrameHandler3@@SAHPEBU_s_FuncInfo@@PEAU_xDISPATCHER_CONTEXT@@_K@Z 0000000180031570     libvcruntime:ehstate.obj
 0002:0000b570       $unwind$??0HandlerMap4@FH4@@QEAA@PEBUTryBlockMapEntry4@1@_KH@Z 0000000180031570     libvcruntime:frame.obj
 0002:0000b570       $unwind$??0bad_exception@std@@QEAA@AEBV01@@Z 0000000180031570     libvcruntime:frame.obj
 0002:0000b570       $unwind$__vcrt_initialize_locks 0000000180031570     libvcruntime:locks.obj
 0002:0000b570       $unwind$__vcrt_uninitialize_locks 0000000180031570     libvcruntime:locks.obj
 0002:0000b570       $unwind$__vcrt_freeptd     0000000180031570     libvcruntime:per_thread_data.obj
 0002:0000b570       $unwind$?ExecutionInCatch@__FrameHandler3@@SA_NPEAU_xDISPATCHER_CONTEXT@@PEBU_s_FuncInfo@@@Z 0000000180031570     libvcruntime:risctrnsctrl.obj
 0002:0000b570       $unwind$_CreateFrameInfo   0000000180031570     libvcruntime:risctrnsctrl.obj
 0002:0000b570       $unwind$_SetImageBase      0000000180031570     libvcruntime:risctrnsctrl.obj
 0002:0000b570       $unwind$_SetThrowImageBase 0000000180031570     libvcruntime:risctrnsctrl.obj
 0002:0000b570       $unwind$__std_exception_destroy 0000000180031570     libvcruntime:std_exception.obj
 0002:0000b570       $unwind$__std_type_info_destroy_list 0000000180031570     libvcruntime:std_type_info.obj
 0002:0000b570       $unwind$__vcrt_FlsAlloc    0000000180031570     libvcruntime:winapi_downlevel.obj
 0002:0000b570       $unwind$__vcrt_FlsFree     0000000180031570     libvcruntime:winapi_downlevel.obj
 0002:0000b570       $unwind$__vcrt_FlsGetValue 0000000180031570     libvcruntime:winapi_downlevel.obj
 0002:0000b578       $unwind$?AtlWinModuleExtractCreateWndData@ATL@@YAPEAXPEAU_ATL_WIN_MODULE70@1@@Z 0000000180031578     CashChanger.obj
 0002:0000b578       $unwind$?CreateInstance@?$CComCreator@V?$CComObject@VCOPOSCashChanger@@@ATL@@@ATL@@SAJPEAXAEBU_GUID@@PEAPEAX@Z 0000000180031578     CashChanger.obj
 0002:0000b578       $unwind$?DoEvent@COPOSCashChanger@@IEAAXI_K_J@Z 0000000180031578     CashChanger.obj
 0002:0000b578       $unwind$?DoVerb@?$IOleObjectImpl@VCOPOSCashChanger@@@ATL@@UEAAJJPEAUtagMSG@@PEAUIOleClientSite@@JPEAUHWND__@@PEBUtagRECT@@@Z 0000000180031578     CashChanger.obj
 0002:0000b578       $unwind$?HKeyFromString@CRegParser@ATL@@KAPEAUHKEY__@@PEA_W@Z 0000000180031578     CashChanger.obj
 0002:0000b578       $unwind$?Next@?$CComEnumImpl@UIEnumConnectionPoints@@$1?_GUID_b196b285_bab4_101a_b69c_00aa00341d07@@3U__s_GUID@@BPEAUIConnectionPoint@@V?$_CopyInterface@UIConnectionPoint@@@ATL@@@ATL@@UEAAJKPEAPEAUIConnectionPoint@@PEAK@Z 0000000180031578     CashChanger.obj
 0002:0000b578       $unwind$?Next@?$CComEnumImpl@UIEnumConnections@@$1?_GUID_b196b287_bab4_101a_b69c_00aa00341d07@@3U__s_GUID@@BUtagCONNECTDATA@@V?$_Copy@UtagCONNECTDATA@@@ATL@@@ATL@@UEAAJKPEAUtagCONNECTDATA@@PEAK@Z 0000000180031578     CashChanger.obj
 0002:0000b578       $unwind$?SODirectIO@COPOSCashChanger@@MEAAJJPEAJPEAPEA_W@Z 0000000180031578     CashChanger.obj
 0002:0000b578       $unwind$?SetControlFocus@CComControlBase@ATL@@QEAAHH@Z 0000000180031578     CashChanger.obj
 0002:0000b578       $unwind$?ocscpy_s@@YA_NPEA_W_KPEB_W@Z 0000000180031578     CashChanger.obj
 0002:0000b578       $unwind$?s_EventWindowProc@COPOSCashChanger@@KA_JPEAUHWND__@@I_K_J@Z 0000000180031578     CashChangerImpl.obj
 0002:0000b578       $unwind$?AtlWinModuleTerm@ATL@@YAJPEAU_ATL_WIN_MODULE70@1@PEAUHINSTANCE__@@@Z 0000000180031578     OposVariant.obj
 0002:0000b578       $unwind$_recalloc_base     0000000180031578     libucrt:recalloc.obj
 0002:0000b578       $unwind$__acrt_free_locale 0000000180031578     libucrt:locale_refcounting.obj
 0002:0000b578       $unwind$__acrt_lowio_create_handle_array 0000000180031578     libucrt:osfinfo.obj
 0002:0000b578       $unwind$_seh_filter_exe    0000000180031578     libucrt:exception_filter.obj
 0002:0000b578       $unwind$__acrt_stdio_flush_nolock 0000000180031578     libucrt:fflush.obj
 0002:0000b578       $unwind$??$ensure_buffer_is_big_enough@D@formatting_buffer@__crt_stdio_output@@QEAA_N_KAEAV__crt_cached_ptd_host@@@Z 0000000180031578     libucrt:output.obj
 0002:0000b578       $unwind$??$ensure_buffer_is_big_enough@_W@formatting_buffer@__crt_stdio_output@@QEAA_N_KAEAV__crt_cached_ptd_host@@@Z 0000000180031578     libucrt:output.obj
 0002:0000b578       $unwind$__scrt_dllmain_exception_filter 0000000180031578     LIBCMT:utility.obj
 0002:0000b578       $unwind$?GetHandlerSearchState@__FrameHandler3@@SAHPEA_KPEAU_xDISPATCHER_CONTEXT@@PEBU_s_FuncInfo@@@Z 0000000180031578     libvcruntime:frame.obj
 0002:0000b578       $unwind$?Is_bad_exception_allowed@@YAEPEBU_s_ESTypeList@@@Z 0000000180031578     libvcruntime:frame.obj
 0002:0000b578       $unwind$?CatchTryBlock@__FrameHandler3@@SAPEBU_s_TryBlockMapEntry@@PEBU_s_FuncInfo@@H@Z 0000000180031578     libvcruntime:risctrnsctrl.obj
 0002:0000b58c       $unwind$??_GCRegObject@ATL@@UEAAPEAXI@Z 000000018003158c     CashChanger.obj
 0002:0000b58c       $unwind$?Add@?$CSimpleArray@GV?$CSimpleArrayEqualHelper@G@ATL@@@ATL@@QEAAHAEBG@Z 000000018003158c     CashChanger.obj
 0002:0000b58c       $unwind$?Add@?$CSimpleMap@PEA_WPEA_WVCExpansionVectorEqualHelper@ATL@@@ATL@@QEAAHAEBQEA_W0@Z 000000018003158c     CashChanger.obj
 0002:0000b58c       $unwind$?Add@CComDynamicUnkArray@ATL@@QEAAKPEAUIUnknown@@@Z 000000018003158c     CashChanger.obj
 0002:0000b58c       $unwind$?Advise@?$IOleObjectImpl@VCOPOSCashChanger@@@ATL@@UEAAJPEAUIAdviseSink@@PEAK@Z 000000018003158c     CashChanger.obj
 0002:0000b58c       $unwind$?ClearReplacements@CExpansionVector@ATL@@QEAAJXZ 000000018003158c     CashChanger.obj
 0002:0000b58c       $unwind$?CreateInstance@?$CComObject@V?$CComEnum@UIEnumConnectionPoints@@$1?_GUID_b196b285_bab4_101a_b69c_00aa00341d07@@3U__s_GUID@@BPEAUIConnectionPoint@@V?$_CopyInterface@UIConnectionPoint@@@ATL@@VCComSingleThreadModel@6@@ATL@@@ATL@@SAJPEAPEAV12@@Z 000000018003158c     CashChanger.obj
 0002:0000b58c       $unwind$?CreateInstance@?$CComObject@V?$CComEnum@UIEnumConnections@@$1?_GUID_b196b287_bab4_101a_b69c_00aa00341d07@@3U__s_GUID@@BUtagCONNECTDATA@@V?$_Copy@UtagCONNECTDATA@@@ATL@@VCComSingleThreadModel@6@@ATL@@@ATL@@SAJPEAPEAV12@@Z 000000018003158c     CashChanger.obj
 0002:0000b58c       $unwind$?RegisterServer@CComModule@ATL@@QEAAJHPEBU_GUID@@@Z 000000018003158c     CashChanger.obj
 0002:0000b58c       $unwind$?UnregisterServer@CComModule@ATL@@QEAAJHPEBU_GUID@@@Z 000000018003158c     CashChanger.obj
 0002:0000b58c       $unwind$?VTFromRegType@CRegParser@ATL@@KAHPEB_WAEAG@Z 000000018003158c     CashChanger.obj
 0002:0000b58c       $unwind$??0OposDispParms@@QEAA@PEAVOposVariant@@H@Z 000000018003158c     OposVariant.obj
 0002:0000b58c       $unwind$?SetBSTR_Copy@OposVariant@@QEAAXPEA_WAEAJ@Z 000000018003158c     OposVariant.obj
 0002:0000b58c       $unwind$?SetBSTR_InOutPtr@OposVariant@@QEAA_NPEAPEA_WAEAJ@Z 000000018003158c     OposVariant.obj
 0002:0000b58c       $unwind$?SetDispatch_Ptr@OposVariant@@QEAAXPEAUIDispatch@@AEAJ@Z 000000018003158c     OposVariant.obj
 0002:0000b58c       $unwind$?SetLONG_Ptr@OposVariant@@QEAAXPEAJAEAJ@Z 000000018003158c     OposVariant.obj
 0002:0000b58c       $unwind$?SetString@OposVariant@@QEAAXPEB_WAEAJ@Z 000000018003158c     OposVariant.obj
 0002:0000b58c       $unwind$?SetVARIANT_BOOL_Ptr@OposVariant@@QEAAXPEAFAEAJ@Z 000000018003158c     OposVariant.obj
 0002:0000b58c       $unwind$?Term@CAtlComModule@ATL@@QEAAXXZ 000000018003158c     OposVariant.obj
 0002:0000b58c       $unwind$memcpy_s           000000018003158c     libucrt:cfout.obj
 0002:0000b58c       $unwind$__acrt_getptd      000000018003158c     libucrt:per_thread_data.obj
 0002:0000b58c       $unwind$__acrt_getptd_noexit 000000018003158c     libucrt:per_thread_data.obj
 0002:0000b58c       $unwind$__acrt_getptd_noexit_explicit 000000018003158c     libucrt:per_thread_data.obj
 0002:0000b58c       $unwind$__acrt_execute_initializers 000000018003158c     libucrt:shared_initialization.obj
 0002:0000b58c       $unwind$__acrt_InitializeCriticalSectionEx 000000018003158c     libucrt:winapi_thunks.obj
 0002:0000b58c       $unwind$_close_nolock_internal 000000018003158c     libucrt:close.obj
 0002:0000b58c       $unwind$?value@?$dual_state_global@P6AXPEB_W00I_K@Z@__crt_state_management@@QEAAAEAP6AXPEB_W00I_K@ZAEAV__crt_cached_ptd_host@@@Z 000000018003158c     libucrt:invalid_parameter.obj
 0002:0000b58c       $unwind$??0_LocaleUpdate@@QEAA@QEAU__crt_locale_pointers@@@Z 000000018003158c     libucrt:argv_wildcards.obj
 0002:0000b58c       $unwind$?type_case_Z@?$output_processor@_WV?$string_output_adapter@_W@__crt_stdio_output@@V?$format_validation_base@_WV?$string_output_adapter@_W@__crt_stdio_output@@@2@@__crt_stdio_output@@AEAA_NXZ 000000018003158c     libucrt:output.obj
 0002:0000b58c       $unwind$?type_case_s@?$output_processor@_WV?$string_output_adapter@_W@__crt_stdio_output@@V?$format_validation_base@_WV?$string_output_adapter@_W@__crt_stdio_output@@@2@@__crt_stdio_output@@AEAA_NXZ 000000018003158c     libucrt:output.obj
 0002:0000b58c       $unwind$?type_case_s_compute_narrow_string_length@?$output_processor@_WV?$string_output_adapter@_W@__crt_stdio_output@@V?$format_validation_base@_WV?$string_output_adapter@_W@__crt_stdio_output@@@2@@__crt_stdio_output@@AEAAHH_W@Z 000000018003158c     libucrt:output.obj
 0002:0000b58c       $unwind$?update_locale_slow@__crt_cached_ptd_host@@AEAAXXZ 000000018003158c     libucrt:output.obj
 0002:0000b58c       $unwind$strncpy_s          000000018003158c     libucrt:strncpy_s.obj
 0002:0000b58c       $unwind$wcsncpy_s          000000018003158c     libucrt:wcsncpy_s.obj
 0002:0000b58c       $unwind$_exception_enabled 000000018003158c     libucrt:libm_error.obj
 0002:0000b58c       $unwind$_DllMainCRTStartup 000000018003158c     LIBCMT:dll_dllmain.obj
 0002:0000b58c       $unwind$__vcrt_getptd_noexit 000000018003158c     libvcruntime:per_thread_data.obj
 0002:0000b58c       $unwind$?FrameUnwindToEmptyState@__FrameHandler3@@SAXPEA_KPEAU_xDISPATCHER_CONTEXT@@PEBU_s_FuncInfo@@@Z 000000018003158c     libvcruntime:risctrnsctrl.obj
 0002:0000b58c       $unwind$__vcrt_InitializeCriticalSectionEx 000000018003158c     libvcruntime:winapi_downlevel.obj
 0002:0000b59c       $unwind$?AddTermFunc@CAtlModule@ATL@@QEAAJP6AX_K@Z0@Z 000000018003159c     CashChanger.obj
 0002:0000b59c       $unwind$?AtlComModuleRegisterServer@ATL@@YAJPEAU_ATL_COM_MODULE70@1@HPEBU_GUID@@@Z 000000018003159c     CashChanger.obj
 0002:0000b59c       $unwind$?AtlComModuleUnregisterServer@ATL@@YAJPEAU_ATL_COM_MODULE70@1@HPEBU_GUID@@@Z 000000018003159c     CashChanger.obj
 0002:0000b59c       $unwind$?CreateInstance@?$CComCreator@V?$CComAggObject@VCOPOSCashChanger@@@ATL@@@ATL@@SAJPEAXAEBU_GUID@@PEAPEAX@Z 000000018003159c     CashChanger.obj
 0002:0000b59c       $unwind$?CreateInstance@?$CComCreator@V?$CComObjectCached@VCComClassFactory@ATL@@@ATL@@@ATL@@SAJPEAXAEBU_GUID@@PEAPEAX@Z 000000018003159c     CashChanger.obj
 0002:0000b59c       $unwind$?GetPagesHelper@?$ISpecifyPropertyPagesImpl@VCOPOSCashChanger@@@ATL@@IEAAJPEAUtagCAUUID@@PEBUATL_PROPMAP_ENTRY@2@@Z 000000018003159c     CashChanger.obj
 0002:0000b59c       $unwind$?Term@CAtlModule@ATL@@QEAAXXZ 000000018003159c     CashChanger.obj
 0002:0000b59c       $unwind$??_Estringdispid@CComTypeInfoHolder@ATL@@QEAAPEAXI@Z 000000018003159c     OposVariant.obj
 0002:0000b59c       $unwind$?initialize_stdio_handles_nolock@@YAXXZ 000000018003159c     libucrt:ioinit.obj
 0002:0000b59c       $unwind$__acrt_initialize_stdio 000000018003159c     libucrt:_file.obj
 0002:0000b59c       $unwind$__GSHandlerCheck_EH 000000018003159c     LIBCMT:gshandlereh.obj
 0002:0000b59c       $unwind$__GSHandlerCheck_SEH 000000018003159c     LIBCMT:gshandlerseh.obj
 0002:0000b59c       $unwind$??$TypeMatchHelper@V__FrameHandler3@@@@YAHPEBU_s_HandlerType@@PEBU_s_CatchableType@@PEBU_s_ThrowInfo@@@Z 000000018003159c     libvcruntime:frame.obj
 0002:0000b59c       $unwind$??$TypeMatchHelper@V__FrameHandler4@@@@YAHPEAUHandlerType4@FH4@@PEBU_s_CatchableType@@PEBU_s_ThrowInfo@@@Z 000000018003159c     libvcruntime:frame.obj
 0002:0000b5b4       $unwind$??0?$CComContainedObject@VCOPOSCashChanger@@@ATL@@QEAA@PEAX@Z 00000001800315b4     CashChanger.obj
 0002:0000b5b4       $unwind$??1?$CComEnumImpl@UIEnumConnectionPoints@@$1?_GUID_b196b285_bab4_101a_b69c_00aa00341d07@@3U__s_GUID@@BPEAUIConnectionPoint@@V?$_CopyInterface@UIConnectionPoint@@@ATL@@@ATL@@UEAA@XZ 00000001800315b4     CashChanger.obj
 0002:0000b5b4       $unwind$??1?$CComEnumImpl@UIEnumConnections@@$1?_GUID_b196b287_bab4_101a_b69c_00aa00341d07@@3U__s_GUID@@BUtagCONNECTDATA@@V?$_Copy@UtagCONNECTDATA@@@ATL@@@ATL@@UEAA@XZ 00000001800315b4     CashChanger.obj
 0002:0000b5b4       $unwind$??_G?$CComAggObject@VCOPOSCashChanger@@@ATL@@UEAAPEAXI@Z 00000001800315b4     CashChanger.obj
 0002:0000b5b4       $unwind$??_G?$CComContainedObject@VCOPOSCashChanger@@@ATL@@UEAAPEAXI@Z 00000001800315b4     CashChanger.obj
 0002:0000b5b4       $unwind$??_G?$CComObject@V?$CComEnum@UIEnumConnectionPoints@@$1?_GUID_b196b285_bab4_101a_b69c_00aa00341d07@@3U__s_GUID@@BPEAUIConnectionPoint@@V?$_CopyInterface@UIConnectionPoint@@@ATL@@VCComSingleThreadModel@6@@ATL@@@ATL@@UEAAPEAXI@Z 00000001800315b4     CashChanger.obj
 0002:0000b5b4       $unwind$??_G?$CComObject@V?$CComEnum@UIEnumConnections@@$1?_GUID_b196b287_bab4_101a_b69c_00aa00341d07@@3U__s_GUID@@BUtagCONNECTDATA@@V?$_Copy@UtagCONNECTDATA@@@ATL@@VCComSingleThreadModel@6@@ATL@@@ATL@@UEAAPEAXI@Z 00000001800315b4     CashChanger.obj
 0002:0000b5b4       $unwind$??_G?$CComObject@VCOPOSCashChanger@@@ATL@@UEAAPEAXI@Z 00000001800315b4     CashChanger.obj
 0002:0000b5b4       $unwind$??_G?$CComObjectCached@VCComClassFactory@ATL@@@ATL@@UEAAPEAXI@Z 00000001800315b4     CashChanger.obj
 0002:0000b5b4       $unwind$??_GCComClassFactory@ATL@@UEAAPEAXI@Z 00000001800315b4     CashChanger.obj
 0002:0000b5b4       $unwind$??_GCComModule@ATL@@UEAAPEAXI@Z 00000001800315b4     CashChanger.obj
 0002:0000b5b4       $unwind$?DeleteSubKey@CRegKey@ATL@@QEAAJPEB_W@Z 00000001800315b4     CashChanger.obj
 0002:0000b5b4       $unwind$?IOleObject_SetClientSite@CComControlBase@ATL@@QEAAJPEAUIOleClientSite@@@Z 00000001800315b4     CashChanger.obj
 0002:0000b5b4       $unwind$?InitNew@?$IPersistStorageImpl@VCOPOSCashChanger@@@ATL@@UEAAJPEAUIStorage@@@Z 00000001800315b4     CashChanger.obj
 0002:0000b5b4       $unwind$?IsDirty@?$IPersistStorageImpl@VCOPOSCashChanger@@@ATL@@UEAAJXZ 00000001800315b4     CashChanger.obj
 0002:0000b5b4       $unwind$?Release@?$CComAggObject@VCOPOSCashChanger@@@ATL@@UEAAKXZ 00000001800315b4     CashChanger.obj
 0002:0000b5b4       $unwind$?Release@?$CComObject@V?$CComEnum@UIEnumConnectionPoints@@$1?_GUID_b196b285_bab4_101a_b69c_00aa00341d07@@3U__s_GUID@@BPEAUIConnectionPoint@@V?$_CopyInterface@UIConnectionPoint@@@ATL@@VCComSingleThreadModel@6@@ATL@@@ATL@@UEAAKXZ 00000001800315b4     CashChanger.obj
 0002:0000b5b4       $unwind$?Release@?$CComObject@V?$CComEnum@UIEnumConnections@@$1?_GUID_b196b287_bab4_101a_b69c_00aa00341d07@@3U__s_GUID@@BUtagCONNECTDATA@@V?$_Copy@UtagCONNECTDATA@@@ATL@@VCComSingleThreadModel@6@@ATL@@@ATL@@UEAAKXZ 00000001800315b4     CashChanger.obj
 0002:0000b5b4       $unwind$?Release@?$CComObject@VCOPOSCashChanger@@@ATL@@UEAAKXZ 00000001800315b4     CashChanger.obj
 0002:0000b5b4       $unwind$?SOData@COPOSCashChanger@@MEAAJJ@Z 00000001800315b4     CashChanger.obj
 0002:0000b5b4       $unwind$?SOStatusUpdate@COPOSCashChanger@@MEAAJJ@Z 00000001800315b4     CashChanger.obj
 0002:0000b5b4       $unwind$?SetAdvise@?$IViewObjectExImpl@VCOPOSCashChanger@@@ATL@@UEAAJKKPEAUIAdviseSink@@@Z 00000001800315b4     CashChanger.obj
 0002:0000b5b4       $unwind$?Term@CComModule@ATL@@QEAAXXZ 00000001800315b4     CashChanger.obj
 0002:0000b5b4       $unwind$DllMain            00000001800315b4     CashChanger.obj
 0002:0000b5b4       $unwind$??1?$IConnectionPointImpl@VCOPOSCashChanger@@$1?DIID__IOPOSCashChangerEvents@@3U_GUID@@BVCComDynamicUnkArray@ATL@@@ATL@@QEAA@XZ 00000001800315b4     CashChangerImpl.obj
 0002:0000b5b4       $unwind$??1?$IConnectionPointImpl@VCOPOSCashChanger@@$1?IID_IPropertyNotifySink@@3U_GUID@@BVCComDynamicUnkArray@ATL@@@ATL@@QEAA@XZ 00000001800315b4     CashChangerImpl.obj
 0002:0000b5b4       $unwind$?EventWindowProc@COPOSCashChanger@@IEAA_JI_K_J@Z 00000001800315b4     CashChangerImpl.obj
 0002:0000b5b4       $unwind$?SetBSTR@OposVariant@@QEAAXPEA_WAEAJ@Z 00000001800315b4     OposVariant.obj
 0002:0000b5b4       $unwind$?SetLONG@OposVariant@@QEAAXJ@Z 00000001800315b4     OposVariant.obj
 0002:0000b5b4       $unwind$?SetVARIANT_BOOL@OposVariant@@QEAAXF@Z 00000001800315b4     OposVariant.obj
 0002:0000b5b4       $unwind$??$common_initialize_environment_nolock@D@@YAHXZ 00000001800315b4     libucrt:environment_initialization.obj
 0002:0000b5b4       $unwind$_realloc_base      00000001800315b4     libucrt:realloc_base.obj
 0002:0000b5b4       $unwind$?replace_current_thread_locale_nolock@@YAXQEAU__acrt_ptd@@QEAU__crt_locale_data@@@Z 00000001800315b4     libucrt:per_thread_data.obj
 0002:0000b5b4       $unwind$__acrt_execute_uninitializers 00000001800315b4     libucrt:shared_initialization.obj
 0002:0000b5b4       $unwind$__acrt_LocaleNameToLCID 00000001800315b4     libucrt:winapi_thunks.obj
 0002:0000b5b4       $unwind$?free_crt_array_internal@@YAXQEAPEBX_K@Z 00000001800315b4     libucrt:inittime.obj
 0002:0000b5b4       $unwind$_updatetlocinfoEx_nolock 00000001800315b4     libucrt:locale_refcounting.obj
 0002:0000b5b4       $unwind$__acrt_uninitialize_lowio 00000001800315b4     libucrt:ioinit.obj
 0002:0000b5b4       $unwind$?setSBCS@@YAXPEAU__crt_multibyte_data@@@Z 00000001800315b4     libucrt:mbctype.obj
 0002:0000b5b4       $unwind$_initterm_e        00000001800315b4     libucrt:initterm.obj
 0002:0000b5b4       $unwind$??0CAtlBaseModule@ATL@@QEAA@XZ 00000001800315b4     atls:atlbase.obj
 0002:0000b5b4       $unwind$??$GetProcAddressAll@P6AP6A_JPEAUHWND__@@I_K_J@ZPEAUAtlThunkData_t@@@Z@@YAP6AP6A_JPEAUHWND__@@I_K_J@ZPEAUAtlThunkData_t@@@ZPEAP6AP6A_J0I12@Z3@Z@Z 00000001800315b4     atls:atlthunk.obj
 0002:0000b5b4       $unwind$??$GetProcAddressAll@P6APEAUAtlThunkData_t@@XZ@@YAP6APEAUAtlThunkData_t@@XZPEAP6APEAU0@XZ@Z 00000001800315b4     atls:atlthunk.obj
 0002:0000b5b4       $unwind$??$GetProcAddressAll@P6AXPEAUAtlThunkData_t@@@Z@@YAP6AXPEAUAtlThunkData_t@@@ZPEAP6AX0@Z@Z 00000001800315b4     atls:atlthunk.obj
 0002:0000b5b4       $unwind$??$GetProcAddressAll@P6AXPEAUAtlThunkData_t@@PEAX_K@Z@@YAP6AXPEAUAtlThunkData_t@@PEAX_K@ZPEAP6AX012@Z@Z 00000001800315b4     atls:atlthunk.obj
 0002:0000b5b4       $unwind$?__AllocStdCallThunk_cmn@@YAPEAXXZ 00000001800315b4     atls:atlthunk.obj
 0002:0000b5b4       $unwind$?__InitializeThunkPool@@YAHXZ 00000001800315b4     atls:atlthunk.obj
 0002:0000b5b4       $unwind$AtlThunk_DataToCode 00000001800315b4     atls:atlthunk.obj
 0002:0000b5b4       $unwind$_RTC_Initialize    00000001800315b4     LIBCMT:initsect.obj
 0002:0000b5b4       $unwind$_RTC_Terminate     00000001800315b4     LIBCMT:initsect.obj
 0002:0000b5b4       $unwind$?__scrt_initialize_thread_safe_statics@@YAHXZ 00000001800315b4     LIBCMT:thread_safe_statics.obj
 0002:0000b5b4       $unwind$??_Gbad_alloc@std@@UEAAPEAXI@Z 00000001800315b4     LIBCMT:throw_bad_alloc.obj
 0002:0000b5b4       $unwind$??_Gbad_array_new_length@std@@UEAAPEAXI@Z 00000001800315b4     LIBCMT:throw_bad_alloc.obj
 0002:0000b5b4       $unwind$??_Gexception@std@@UEAAPEAXI@Z 00000001800315b4     LIBCMT:throw_bad_alloc.obj
 0002:0000b5b4       $unwind$__C_specific_handler_noexcept 00000001800315b4     libvcruntime:chandler_noexcept.obj
 0002:0000b5b4       $unwind$__FrameUnwindFilter 00000001800315b4     libvcruntime:ehhelpers.obj
 0002:0000b5b4       $unwind$?SetUnwindTryBlock@__FrameHandler3@@SAXPEA_KPEAU_xDISPATCHER_CONTEXT@@PEBU_s_FuncInfo@@H@Z 00000001800315b4     libvcruntime:ehstate.obj
 0002:0000b5b4       $unwind$??_Gbad_exception@std@@UEAAPEAXI@Z 00000001800315b4     libvcruntime:frame.obj
 0002:0000b5b4       $unwind$?ExFilterRethrow@@YAHPEAU_EXCEPTION_POINTERS@@PEAUEHExceptionRecord@@PEAH@Z 00000001800315b4     libvcruntime:frame.obj
 0002:0000b5b4       $unwind$?ExFilterRethrowFH4@@YAHPEAU_EXCEPTION_POINTERS@@PEAUEHExceptionRecord@@HPEAH@Z 00000001800315b4     libvcruntime:frame.obj
 0002:0000b5b4       $unwind$_FindAndUnlinkFrame 00000001800315b4     libvcruntime:risctrnsctrl.obj
 0002:0000b5b4       $unwind$__vcrt_FlsSetValue 00000001800315b4     libvcruntime:winapi_downlevel.obj
 0002:0000b5c0       $unwind$?ChangeBSTR@OposVariant@@QEAAXPEAPEA_WAEAJ@Z 00000001800315c0     OposVariant.obj
 0002:0000b5c0       $unwind$?ChangeLONG@OposVariant@@QEAAXPEAJAEAJ@Z 00000001800315c0     OposVariant.obj
 0002:0000b5c0       $unwind$?x_ismbbtype_l@@YAHPEAU__crt_locale_pointers@@IHH@Z 00000001800315c0     libucrt:ismbbyte.obj
 0002:0000b5d0       $unwind$swprintf_s         00000001800315d0     CashChanger.obj
 0002:0000b5e0       $unwind$?_AtlVerifyStackAvailable@_ATL_SAFE_ALLOCA_IMPL@ATL@@YA_N_K@Z 00000001800315e0     CashChanger.obj
 0002:0000b60c       $unwind$?filt$0@?0??_AtlVerifyStackAvailable@_ATL_SAFE_ALLOCA_IMPL@ATL@@YA_N_K@Z@4HA 000000018003160c     CashChanger.obj
 0002:0000b60c       $unwind$_query_new_handler$fin$0 000000018003160c     libucrt:new_handler.obj
 0002:0000b60c       $unwind$?fin$0@?0???$?RV<lambda_0ae27a3a962d80f24befdcbee591983d>@@AEAV<lambda_8d0ee55de4b1038c4002e0adecdf1839>@@V<lambda_dc504788e8f1664fe9b84e20bfb512f2>@@@?$__crt_seh_guarded_call@X@@QEAAX$$QEAV<lambda_0ae27a3a962d80f24befdcbee591983d>@@AEAV<lambda_8d0ee55de4b1038c4002e0adecdf1839>@@$$QEAV<lambda_dc504788e8f1664fe9b84e20bfb512f2>@@@Z@4HA 000000018003160c     libucrt:per_thread_data.obj
 0002:0000b60c       $unwind$?fin$0@?0???$?RV<lambda_2d41944a1d46af3157314b8a01080d33>@@AEAV<lambda_8f455de75cd7d7f24b4096f044d8b9e6>@@V<lambda_aa500f224e6afead328df44964fe2772>@@@?$__crt_seh_guarded_call@X@@QEAAX$$QEAV<lambda_2d41944a1d46af3157314b8a01080d33>@@AEAV<lambda_8f455de75cd7d7f24b4096f044d8b9e6>@@$$QEAV<lambda_aa500f224e6afead328df44964fe2772>@@@Z@4HA 000000018003160c     libucrt:per_thread_data.obj
 0002:0000b60c       $unwind$?fin$0@?0???$?RV<lambda_aa87e3671a710a21b5dc78c0bdf72e11>@@AEAV<lambda_92619d2358a28f41a33ba319515a20b9>@@V<lambda_6992ecaafeb10aed2b74cb1fae11a551>@@@?$__crt_seh_guarded_call@X@@QEAAX$$QEAV<lambda_aa87e3671a710a21b5dc78c0bdf72e11>@@AEAV<lambda_92619d2358a28f41a33ba319515a20b9>@@$$QEAV<lambda_6992ecaafeb10aed2b74cb1fae11a551>@@@Z@4HA 000000018003160c     libucrt:per_thread_data.obj
 0002:0000b60c       $unwind$?fin$0@?0???$?RV<lambda_f2e299630e499de9f9a165e60fcd3db5>@@AEAV<lambda_2ae9d31cdba2644fcbeaf08da7c24588>@@V<lambda_40d01ff24d0e7b3814fdbdcee8eab3c7>@@@?$__crt_seh_guarded_call@X@@QEAAX$$QEAV<lambda_f2e299630e499de9f9a165e60fcd3db5>@@AEAV<lambda_2ae9d31cdba2644fcbeaf08da7c24588>@@$$QEAV<lambda_40d01ff24d0e7b3814fdbdcee8eab3c7>@@@Z@4HA 000000018003160c     libucrt:per_thread_data.obj
 0002:0000b60c       $unwind$__acrt_update_thread_locale_data$fin$0 000000018003160c     libucrt:locale_refcounting.obj
 0002:0000b60c       $unwind$?fin$0@?0???$?RV<lambda_410d79af7f07d98d83a3f525b3859a53>@@AEAV<lambda_3e16ef9562a7dcce91392c22ab16ea36>@@V<lambda_38119f0e861e05405d8a144b9b982f0a>@@@?$__crt_seh_guarded_call@X@@QEAAX$$QEAV<lambda_410d79af7f07d98d83a3f525b3859a53>@@AEAV<lambda_3e16ef9562a7dcce91392c22ab16ea36>@@$$QEAV<lambda_38119f0e861e05405d8a144b9b982f0a>@@@Z@4HA 000000018003160c     libucrt:wsetlocale.obj
 0002:0000b60c       $unwind$?fin$0@?0???$?RV<lambda_ad8af0d99a0adf03d037d7dffe354bb5>@@AEAV<lambda_c9ba49e555ba839a7b07aa3fbecb7617>@@V<lambda_2f1ebd5d68526518146ae959c9e734c8>@@@?$__crt_seh_guarded_call@H@@QEAAH$$QEAV<lambda_ad8af0d99a0adf03d037d7dffe354bb5>@@AEAV<lambda_c9ba49e555ba839a7b07aa3fbecb7617>@@$$QEAV<lambda_2f1ebd5d68526518146ae959c9e734c8>@@@Z@4HA 000000018003160c     libucrt:close.obj
 0002:0000b60c       $unwind$?fin$0@?0???$?RV<lambda_a37b2b86f63e897a80ea819b0eb08c01>@@AEAV<lambda_38ce7e780aa69e748d6df282ebc68efe>@@V<lambda_99fb1378e971ab6e7edea83e3a7a83a2>@@@?$__crt_seh_guarded_call@H@@QEAAH$$QEAV<lambda_a37b2b86f63e897a80ea819b0eb08c01>@@AEAV<lambda_38ce7e780aa69e748d6df282ebc68efe>@@$$QEAV<lambda_99fb1378e971ab6e7edea83e3a7a83a2>@@@Z@4HA 000000018003160c     libucrt:commit.obj
 0002:0000b60c       $unwind$__acrt_initialize_lowio$fin$0 000000018003160c     libucrt:ioinit.obj
 0002:0000b60c       $unwind$__acrt_lowio_ensure_fh_exists$fin$0 000000018003160c     libucrt:osfinfo.obj
 0002:0000b60c       $unwind$?fin$0@?0???$?RV<lambda_efdfa57d1f175319df784efa44bb7b81>@@AEAV<lambda_5f0a4c1567f8adc6734073e5d1e1b35c>@@V<lambda_2e8a7d3640ea6ccb4c2413664c2db6fd>@@@?$__crt_seh_guarded_call@X@@QEAAX$$QEAV<lambda_efdfa57d1f175319df784efa44bb7b81>@@AEAV<lambda_5f0a4c1567f8adc6734073e5d1e1b35c>@@$$QEAV<lambda_2e8a7d3640ea6ccb4c2413664c2db6fd>@@@Z@4HA 000000018003160c     libucrt:mbctype.obj
 0002:0000b60c       $unwind$?fin$0@?0??update_thread_multibyte_data_internal@@YAPEAU__crt_multibyte_data@@QEAU__acrt_ptd@@QEAPEAU1@@Z@4HA 000000018003160c     libucrt:mbctype.obj
 0002:0000b60c       $unwind$?fin$0@?0???$?RV<lambda_450d765d439847d4c735a33c368b5fc0>@@AEAV<lambda_44731a7d0e6d81c3e6aa82d741081786>@@V<lambda_601a2a7da3b7a96e9554ac7215c4b07c>@@@?$__crt_seh_guarded_call@P6AXH@Z@@QEAAP6AXH@Z$$QEAV<lambda_450d765d439847d4c735a33c368b5fc0>@@AEAV<lambda_44731a7d0e6d81c3e6aa82d741081786>@@$$QEAV<lambda_601a2a7da3b7a96e9554ac7215c4b07c>@@@Z@4HA 000000018003160c     libucrt:signal.obj
 0002:0000b60c       $unwind$raise$fin$0        000000018003160c     libucrt:signal.obj
 0002:0000b60c       $unwind$?filt$0@?0???R<lambda_6e4b09c48022b2350581041d5f6b0c4c>@@QEBA@XZ@4HA 000000018003160c     libucrt:exit.obj
 0002:0000b60c       $unwind$?fin$0@?0???$?RV<lambda_d80eeec6fff315bfe5c115232f3240e3>@@AEAV<lambda_6e4b09c48022b2350581041d5f6b0c4c>@@V<lambda_2358e3775559c9db80273638284d5e45>@@@?$__crt_seh_guarded_call@X@@QEAAX$$QEAV<lambda_d80eeec6fff315bfe5c115232f3240e3>@@AEAV<lambda_6e4b09c48022b2350581041d5f6b0c4c>@@$$QEAV<lambda_2358e3775559c9db80273638284d5e45>@@@Z@4HA 000000018003160c     libucrt:exit.obj
 0002:0000b60c       $unwind$?fin$0@?0???$?RV<lambda_638799b9deba96c50f710eeac98168cd>@@AEAV<lambda_22ebabd17bc4fa466a2aca6d8deb888d>@@V<lambda_a6f7d7db0129f75315ebf26d50c089f1>@@@?$__crt_seh_guarded_call@H@@QEAAH$$QEAV<lambda_638799b9deba96c50f710eeac98168cd>@@AEAV<lambda_22ebabd17bc4fa466a2aca6d8deb888d>@@$$QEAV<lambda_a6f7d7db0129f75315ebf26d50c089f1>@@@Z@4HA 000000018003160c     libucrt:onexit.obj
 0002:0000b60c       $unwind$?fin$0@?0???$?RV<lambda_7777bce6b2f8c936911f934f8298dc43>@@AEAV<lambda_f03950bc5685219e0bcd2087efbe011e>@@V<lambda_3883c3dff614d5e0c5f61bb1ac94921c>@@@?$__crt_seh_guarded_call@H@@QEAAH$$QEAV<lambda_7777bce6b2f8c936911f934f8298dc43>@@AEAV<lambda_f03950bc5685219e0bcd2087efbe011e>@@$$QEAV<lambda_3883c3dff614d5e0c5f61bb1ac94921c>@@@Z@4HA 000000018003160c     libucrt:onexit.obj
 0002:0000b60c       $unwind$_fcloseall$fin$0   000000018003160c     libucrt:closeall.obj
 0002:0000b60c       $unwind$?fin$0@?0???$?RV<lambda_842d9ff0dc9ef11c61343bbaebe7f885>@@AEAV<lambda_c5860995281e5c4ce005b3de8f5874ee>@@V<lambda_d90129c13df834fdcbf8d2b88dafcf2d>@@@?$__crt_seh_guarded_call@X@@QEAAX$$QEAV<lambda_842d9ff0dc9ef11c61343bbaebe7f885>@@AEAV<lambda_c5860995281e5c4ce005b3de8f5874ee>@@$$QEAV<lambda_d90129c13df834fdcbf8d2b88dafcf2d>@@@Z@4HA 000000018003160c     libucrt:fflush.obj
 0002:0000b60c       $unwind$?fin$0@?0???$?RV<lambda_886d6c58226a84441f68b9f2b8217b83>@@AEAV<lambda_ab61a845afdef5b7c387490eaf3616ee>@@V<lambda_f7f22ab5edc0698d5f6905b0d3f44752>@@@?$__crt_seh_guarded_call@X@@QEAAX$$QEAV<lambda_886d6c58226a84441f68b9f2b8217b83>@@AEAV<lambda_ab61a845afdef5b7c387490eaf3616ee>@@$$QEAV<lambda_f7f22ab5edc0698d5f6905b0d3f44752>@@@Z@4HA 000000018003160c     libucrt:fflush.obj
 0002:0000b60c       $unwind$_ctrlfp$filt$0     000000018003160c     libucrt:fpctrl.obj
 0002:0000b60c       $unwind$common_control87$filt$0 000000018003160c     libucrt:ieee.obj
 0002:0000b60c       $unwind$?fin$0@?0??dllmain_crt_process_attach@@YAHQEAUHINSTANCE__@@QEAX@Z@4HA 000000018003160c     LIBCMT:dll_dllmain.obj
 0002:0000b60c       $unwind$?fin$0@?0??dllmain_crt_process_detach@@YAH_N@Z@4HA 000000018003160c     LIBCMT:dll_dllmain.obj
 0002:0000b60c       $unwind$?fin$1@?0??dllmain_crt_process_detach@@YAH_N@Z@4HA 000000018003160c     LIBCMT:dll_dllmain.obj
 0002:0000b60c       $unwind$_IsNonwritableInCurrentImage$filt$0 000000018003160c     LIBCMT:pesect.obj
 0002:0000b60c       $unwind$?filt$0@?0??CxxCallCatchBlock@__FrameHandler3@@SAPEAXPEAU_EXCEPTION_RECORD@@@Z@4HA 000000018003160c     libvcruntime:frame.obj
 0002:0000b60c       $unwind$?filt$0@?0??CxxCallCatchBlock@__FrameHandler4@@SAPEAXPEAU_EXCEPTION_RECORD@@@Z@4HA 000000018003160c     libvcruntime:frame.obj
 0002:0000b60c       $unwind$?filt$0@?0??FrameUnwindToState@__FrameHandler3@@SAXPEA_KPEAU_xDISPATCHER_CONTEXT@@PEBU_s_FuncInfo@@H@Z@4HA 000000018003160c     libvcruntime:frame.obj
 0002:0000b60c       $unwind$?fin$1@?0??FrameUnwindToState@__FrameHandler3@@SAXPEA_KPEAU_xDISPATCHER_CONTEXT@@PEBU_s_FuncInfo@@H@Z@4HA 000000018003160c     libvcruntime:frame.obj
 0002:0000b614       $unwind$?AtlInternalOleLoadFromStream@ATL@@YAJPEAUIStream@@AEBU_GUID@@PEAPEAXTClassesAllowedInStream@1@K@Z 0000000180031614     CashChanger.obj
 0002:0000b630       $unwind$?ReadFromStream@CComBSTR@ATL@@QEAAJPEAUIStream@@@Z 0000000180031630     CashChanger.obj
 0002:0000b630       $unwind$_configure_narrow_argv 0000000180031630     libucrt:argv_parsing.obj
 0002:0000b644       $unwind$?WriteToStream@CComVariant@ATL@@QEAAJPEAUIStream@@@Z 0000000180031644     CashChanger.obj
 0002:0000b658       $unwind$?RegOpenKeyExW@CAtlTransactionManager@ATL@@QEAAJPEAUHKEY__@@PEB_WKKPEAPEAU3@@Z 0000000180031658     CashChanger.obj
 0002:0000b658       $unwind$?WriteToStream@CComVariant@ATL@@QEAAJPEAUIStream@@G@Z 0000000180031658     CashChanger.obj
 0002:0000b658       $unwind$__dcrt_write_console 0000000180031658     libucrt:initcon.obj
 0002:0000b658       $unwind$??$__acrt_convert_wcs_mbs_cp@_WDV<lambda_f788ae46380686e8b737efdd8c720d07>@@U__crt_win32_buffer_no_resizing@@@@YAHQEB_WAEAV?$__crt_win32_buffer@DU__crt_win32_buffer_no_resizing@@@@AEBV<lambda_f788ae46380686e8b737efdd8c720d07>@@I@Z 0000000180031658     libucrt:getmodulefilenamea.obj
 0002:0000b66c       $unwind$?ReadFromStream@CComVariant@ATL@@QEAAJPEAUIStream@@GTClassesAllowedInStream@2@K@Z 000000018003166c     CashChanger.obj
 0002:0000b684       $unwind$?GetSizeMax@CComVariant@ATL@@QEBAJPEAT_ULARGE_INTEGER@@@Z 0000000180031684     CashChanger.obj
 0002:0000b698       $unwind$?RegCreateKeyExW@CAtlTransactionManager@ATL@@QEAAJPEAUHKEY__@@PEB_WKPEA_WKKQEAU_SECURITY_ATTRIBUTES@@PEAPEAU3@PEAK@Z 0000000180031698     CashChanger.obj
 0002:0000b6ac       $unwind$?GetGITPtr@CAtlModule@ATL@@UEAAJPEAPEAUIGlobalInterfaceTable@@@Z 00000001800316ac     CashChanger.obj
 0002:0000b6ac       $unwind$?RegDeleteKeyW@CAtlTransactionManager@ATL@@QEAAJPEAUHKEY__@@PEB_W@Z 00000001800316ac     CashChanger.obj
 0002:0000b6ac       $unwind$?getStateFromIterators@UWMap4@FH4@@SAHAEBViterator@12@H0H0@Z 00000001800316ac     libvcruntime:frame.obj
 0002:0000b6bc       $unwind$?AtlHiMetricToPixel@ATL@@YAXPEBUtagSIZE@@PEAU2@@Z 00000001800316bc     CashChanger.obj
 0002:0000b6bc       $unwind$?AtlInternalQueryInterface@ATL@@YAJPEAXPEBU_ATL_INTMAP_ENTRY@1@AEBU_GUID@@PEAPEAX@Z 00000001800316bc     CashChanger.obj
 0002:0000b6d4       $unwind$?Append@CParseBuffer@CRegParser@ATL@@QEAAHPEB_WH@Z 00000001800316d4     CashChanger.obj
 0002:0000b6d4       $unwind$?AtlComModuleGetClassObject@ATL@@YAJPEAU_ATL_COM_MODULE70@1@AEBU_GUID@@1PEAPEAX@Z 00000001800316d4     CashChanger.obj
 0002:0000b6d4       $unwind$?GetClassObject@CComModule@ATL@@QEAAJAEBU_GUID@@0PEAPEAX@Z 00000001800316d4     CashChanger.obj
 0002:0000b6d4       $unwind$?NextToken@CRegParser@ATL@@IEAAJPEA_W@Z 00000001800316d4     CashChanger.obj
 0002:0000b6d4       $unwind$?StartWindowProc@?$CWindowImplBaseT@VCWindow@ATL@@V?$CWinTraits@$0FGAAAAAA@$0A@@2@@ATL@@SA_JPEAUHWND__@@I_K_J@Z 00000001800316d4     CashChanger.obj
 0002:0000b6d4       $unwind$?fp_format_f_internal@@YAHQEAD_KHQEAU_strflt@@_NAEAV__crt_cached_ptd_host@@@Z 00000001800316d4     libucrt:cvt.obj
 0002:0000b6d4       $unwind$__acrt_DownlevelLocaleNameToLCID 00000001800316d4     libucrt:lcidtoname_downlevel.obj
 0002:0000b6d4       $unwind$??R<lambda_f03950bc5685219e0bcd2087efbe011e>@@QEBAHXZ 00000001800316d4     libucrt:onexit.obj
 0002:0000b6ec       $unwind$?AtlRegisterClassCategoriesHelper@ATL@@YAJAEBU_GUID@@PEBU_ATL_CATMAP_ENTRY@1@H@Z 00000001800316ec     CashChanger.obj
 0002:0000b710       $unwind$?AtlLoadTypeLib@ATL@@YAJPEAUHINSTANCE__@@PEB_WPEAPEA_WPEAPEAUITypeLib@@@Z 0000000180031710     CashChanger.obj
 0002:0000b730       $unwind$?AtlRegisterTypeLib@ATL@@YAJPEAUHINSTANCE__@@PEB_W@Z 0000000180031730     CashChanger.obj
 0002:0000b74c       $unwind$?AtlUnRegisterTypeLib@ATL@@YAJPEAUHINSTANCE__@@PEB_W@Z 000000018003174c     CashChanger.obj
 0002:0000b754       $unwind$?GetTI@CComTypeInfoHolder@ATL@@QEAAJK@Z 0000000180031754     CashChanger.obj
 0002:0000b754       $unwind$?RecurseDeleteKey@CRegKey@ATL@@QEAAJPEB_W@Z 0000000180031754     CashChanger.obj
 0002:0000b774       $unwind$?UpdateRegistryFromResource@CAtlModule@ATL@@QEAAJIHPEAU_ATL_REGMAP_ENTRY@2@@Z 0000000180031774     CashChanger.obj
 0002:0000b774       $unwind$?UpdateRegistryFromResource@CAtlModule@ATL@@QEAAJPEB_WHPEAU_ATL_REGMAP_ENTRY@2@@Z 0000000180031774     CashChanger.obj
 0002:0000b794       $unwind$?Lookup@?$CSimpleMap@PEA_WPEA_WVCExpansionVectorEqualHelper@ATL@@@ATL@@QEBAPEA_WAEBQEA_W@Z 0000000180031794     CashChanger.obj
 0002:0000b794       $unwind$_free_osfhnd       0000000180031794     libucrt:osfinfo.obj
 0002:0000b794       $unwind$__std_exception_copy 0000000180031794     libvcruntime:std_exception.obj
 0002:0000b7a8       $unwind$?Add@CExpansionVector@ATL@@QEAAHPEB_W0@Z 00000001800317a8     CashChanger.obj
 0002:0000b7c0       $unwind$?PreProcessBuffer@CRegParser@ATL@@QEAAJPEA_WPEAPEA_W@Z 00000001800317c0     CashChanger.obj
 0002:0000b7e4       $unwind$?RegisterBuffer@CRegParser@ATL@@QEAAJPEA_WH@Z 00000001800317e4     CashChanger.obj
 0002:0000b804       $unwind$?AddValue@CRegParser@ATL@@IEAAJAEAVCRegKey@2@PEB_WPEA_W@Z 0000000180031804     CashChanger.obj
 0002:0000b824       $unwind$?RegisterSubkeys@CRegParser@ATL@@IEAAJPEA_WPEAUHKEY__@@HH@Z 0000000180031824     CashChanger.obj
 0002:0000b844       $unwind$?SkipAssignment@CRegParser@ATL@@IEAAJPEA_W@Z 0000000180031844     CashChanger.obj
 0002:0000b860       $unwind$?RegisterFromResource@CRegObject@ATL@@IEAAJPEB_W00H@Z 0000000180031860     CashChanger.obj
 0002:0000b880       $unwind$?Cleanup@CComTypeInfoHolder@ATL@@SAX_K@Z 0000000180031880     CashChanger.obj
 0002:0000b880       $unwind$_free_base         0000000180031880     libucrt:free_base.obj
 0002:0000b880       $unwind$?destroy_fls@@YAXPEAX@Z 0000000180031880     libucrt:per_thread_data.obj
 0002:0000b880       $unwind$__acrt_locale_free_numeric 0000000180031880     libucrt:initnum.obj
 0002:0000b880       $unwind$__acrt_locale_free_lc_time_if_unreferenced 0000000180031880     libucrt:locale_refcounting.obj
 0002:0000b880       $unwind$AtlThunk_FreeData  0000000180031880     atls:atlthunk.obj
 0002:0000b888       $unwind$?GetIDsOfNames@CComTypeInfoHolder@ATL@@QEAAJAEBU_GUID@@PEAPEA_WIKPEAJ@Z 0000000180031888     CashChanger.obj
 0002:0000b8a4       $unwind$?LoadNameCache@CComTypeInfoHolder@ATL@@QEAAJPEAUITypeInfo@@@Z 00000001800318a4     CashChanger.obj
 0002:0000b8bc       $unwind$?WindowProc@?$CWindowImplBaseT@VCWindow@ATL@@V?$CWinTraits@$0FGAAAAAA@$0A@@2@@ATL@@SA_JPEAUHWND__@@I_K_J@Z 00000001800318bc     CashChanger.obj
 0002:0000b8d4       $unwind$?atlCreate@?$CWindowImplBaseT@VCWindow@ATL@@V?$CWinTraits@$0FGAAAAAA@$0A@@2@@ATL@@QEAAPEAUHWND__@@PEAU3@V_U_RECT@2@PEB_WKKV_U_MENUorID@2@GPEAX@Z 00000001800318d4     CashChanger.obj
 0002:0000b8ec       $unwind$??$AtlModuleRegisterWndClassInfoT@VAtlModuleRegisterWndClassInfoParamW@ATL@@@ATL@@YAGPEAU_ATL_BASE_MODULE70@0@PEAU_ATL_WIN_MODULE70@0@PEAU_ATL_WNDCLASSINFOW@0@PEAP6A_JPEAUHWND__@@I_K_J@ZVAtlModuleRegisterWndClassInfoParamW@0@@Z 00000001800318ec     CashChanger.obj
 0002:0000b90c       $unwind$?GetZoomInfo@CComControlBase@ATL@@QEAAXAEAUATL_DRAWINFO@@@Z 000000018003190c     CashChanger.obj
 0002:0000b90c       $unwind$?OnKillFocus@CComControlBase@ATL@@QEAA_JI_K_JAEAH@Z 000000018003190c     CashChanger.obj
 0002:0000b90c       $unwind$?get_raw_ptd@__crt_cached_ptd_host@@QEAAPEAU__acrt_ptd@@XZ 000000018003190c     libucrt:invalid_parameter.obj
 0002:0000b918       $unwind$?SendOnDataChange@CComControlBase@ATL@@QEAAJK@Z 0000000180031918     CashChanger.obj
 0002:0000b928       $unwind$?OnSetFocus@CComControlBase@ATL@@QEAA_JI_K_JAEAH@Z 0000000180031928     CashChanger.obj
 0002:0000b93c       $unwind$?OnMouseActivate@CComControlBase@ATL@@QEAA_JI_K_JAEAH@Z 000000018003193c     CashChanger.obj
 0002:0000b944       $unwind$?GetAmbientLocaleID@CComControlBase@ATL@@QEAAJAEAK@Z 0000000180031944     CashChanger.obj
 0002:0000b944       $unwind$?GetAmbientUserMode@CComControlBase@ATL@@QEAAJAEAH@Z 0000000180031944     CashChanger.obj
 0002:0000b954       $unwind$?IQuickActivate_QuickActivate@CComControlBase@ATL@@QEAAJPEAUtagQACONTAINER@@PEAUtagQACONTROL@@@Z 0000000180031954     CashChanger.obj
 0002:0000b96c       $unwind$?DoVerbProperties@CComControlBase@ATL@@QEAAJPEBUtagRECT@@PEAUHWND__@@@Z 000000018003196c     CashChanger.obj
 0002:0000b984       $unwind$?InPlaceActivate@CComControlBase@ATL@@QEAAJJPEBUtagRECT@@@Z 0000000180031984     CashChanger.obj
 0002:0000b9a4       $unwind$?IOleObject_Close@CComControlBase@ATL@@QEAAJK@Z 00000001800319a4     CashChanger.obj
 0002:0000b9a4       $unwind$?get_raw_ptd_noexit@__crt_cached_ptd_host@@QEAAPEAU__acrt_ptd@@XZ 00000001800319a4     libucrt:invalid_parameter.obj
 0002:0000b9a4       $unwind$?type_case_c_tchar@?$output_processor@_WV?$string_output_adapter@_W@__crt_stdio_output@@V?$format_validation_base@_WV?$string_output_adapter@_W@__crt_stdio_output@@@2@@__crt_stdio_output@@AEAA_N_W@Z 00000001800319a4     libucrt:output.obj
 0002:0000b9b4       $unwind$?IOleInPlaceObject_UIDeactivate@CComControlBase@ATL@@QEAAJXZ 00000001800319b4     CashChanger.obj
 0002:0000b9cc       $unwind$?IOleInPlaceObject_SetObjectRects@CComControlBase@ATL@@QEAAJPEBUtagRECT@@0@Z 00000001800319cc     CashChanger.obj
 0002:0000b9e0       $unwind$?IViewObject_Draw@CComControlBase@ATL@@QEAAJKJPEAXPEAUtagDVTARGETDEVICE@@PEAUHDC__@@2PEBU_RECTL@@3@Z 00000001800319e0     CashChanger.obj
 0002:0000b9fc       $unwind$?IDataObject_GetData@CComControlBase@ATL@@QEAAJPEAUtagFORMATETC@@PEAUtagSTGMEDIUM@@@Z 00000001800319fc     CashChanger.obj
 0002:0000ba1c       $unwind$?OnPaint@CComControlBase@ATL@@QEAA_JI_K_JAEAH@Z 0000000180031a1c     CashChanger.obj
 0002:0000ba38       $unwind$?OnDrawAdvanced@CComControlBase@ATL@@UEAAJAEAUATL_DRAWINFO@@@Z 0000000180031a38     CashChanger.obj
 0002:0000ba54       $unwind$?Invoke@?$IDispatchImpl@UIOPOSCashChanger@@$1?IID_IOPOSCashChanger@@3U_GUID@@B$1?LIBID_OposCashChanger_CCO@@3U3@B$00$0A@VCComTypeInfoHolder@ATL@@@ATL@@UEAAJJAEBU_GUID@@KGPEAUtagDISPPARAMS@@PEAUtagVARIANT@@PEAUtagEXCEPINFO@@PEAI@Z 0000000180031a54     CashChanger.obj
 0002:0000ba54       $unwind$?ReleaseDevice@COPOSCashChanger@@UEAAJPEAJ@Z 0000000180031a54     CashChangerImpl.obj
 0002:0000ba54       $unwind$_mbsdec_l          0000000180031a54     libucrt:mbsdec.obj
 0002:0000ba60       $unwind$?atlCreate@?$CWindowImpl@VCOPOSCashChanger@@VCWindow@ATL@@V?$CWinTraits@$0FGAAAAAA@$0A@@3@@ATL@@QEAAPEAUHWND__@@PEAU3@V_U_RECT@2@PEB_WKKV_U_MENUorID@2@PEAX@Z 0000000180031a60     CashChanger.obj
 0002:0000ba60       $unwind$?fp_format_f@@YAHQEBNQEAD_K12HW4__acrt_rounding_mode@@AEAV__crt_cached_ptd_host@@@Z 0000000180031a60     libucrt:cvt.obj
 0002:0000ba60       $unwind$__acrt_LCMapStringEx 0000000180031a60     libucrt:winapi_thunks.obj
 0002:0000ba74       $unwind$?CreateControlWindow@?$CComControl@VCOPOSCashChanger@@V?$CWindowImpl@VCOPOSCashChanger@@VCWindow@ATL@@V?$CWinTraits@$0FGAAAAAA@$0A@@3@@ATL@@@ATL@@UEAAPEAUHWND__@@PEAU3@AEAUtagRECT@@@Z 0000000180031a74     CashChanger.obj
 0002:0000ba74       $unwind$?BeginDeposit@COPOSCashChanger@@UEAAJPEAJ@Z 0000000180031a74     CashChangerImpl.obj
 0002:0000ba74       $unwind$?ClearInput@COPOSCashChanger@@UEAAJPEAJ@Z 0000000180031a74     CashChangerImpl.obj
 0002:0000ba74       $unwind$?FixDeposit@COPOSCashChanger@@UEAAJPEAJ@Z 0000000180031a74     CashChangerImpl.obj
 0002:0000ba74       $unwind$_raise_exc         0000000180031a74     libucrt:fpexcept.obj
 0002:0000ba74       $unwind$?__scrt_throw_std_bad_alloc@@YAXXZ 0000000180031a74     LIBCMT:throw_bad_alloc.obj
 0002:0000ba74       $unwind$?__scrt_throw_std_bad_array_new_length@@YAXXZ 0000000180031a74     LIBCMT:throw_bad_alloc.obj
 0002:0000ba7c       $unwind$?ProcessWindowMessage@?$CComControl@VCOPOSCashChanger@@V?$CWindowImpl@VCOPOSCashChanger@@VCWindow@ATL@@V?$CWinTraits@$0FGAAAAAA@$0A@@3@@ATL@@@ATL@@UEAAHPEAUHWND__@@I_K_JAEA_JK@Z 0000000180031a7c     CashChanger.obj
 0002:0000ba84       $unwind$?GetSizeMax@?$IPersistStreamInitImpl@VCOPOSCashChanger@@@ATL@@UEAAJPEAT_ULARGE_INTEGER@@@Z 0000000180031a84     CashChanger.obj
 0002:0000ba9c       $unwind$?IPersistStreamInit_Load@?$IPersistStreamInitImpl@VCOPOSCashChanger@@@ATL@@QEAAJPEAUIStream@@PEBUATL_PROPMAP_ENTRY@2@@Z 0000000180031a9c     CashChanger.obj
 0002:0000bab8       $unwind$?IPersistStreamInit_Save@?$IPersistStreamInitImpl@VCOPOSCashChanger@@@ATL@@QEAAJPEAUIStream@@HPEBUATL_PROPMAP_ENTRY@2@@Z 0000000180031ab8     CashChanger.obj
 0002:0000bad4       $unwind$?DoVerbPrimary@?$IOleObjectImpl@VCOPOSCashChanger@@@ATL@@QEAAJPEBUtagRECT@@PEAUHWND__@@@Z 0000000180031ad4     CashChanger.obj
 0002:0000baec       $unwind$?TranslateAcceleratorW@?$IOleInPlaceActiveObjectImpl@VCOPOSCashChanger@@@ATL@@UEAAJPEAUtagMSG@@@Z 0000000180031aec     CashChanger.obj
 0002:0000baf8       $unwind$?Draw@?$IViewObjectExImpl@VCOPOSCashChanger@@@ATL@@UEAAJKJPEAXPEAUtagDVTARGETDEVICE@@PEAUHDC__@@2PEBU_RECTL@@3P6AH_K@Z4@Z 0000000180031af8     CashChanger.obj
 0002:0000bb00       $unwind$?QueryHitRect@?$IViewObjectExImpl@VCOPOSCashChanger@@@ATL@@UEAAJKPEBUtagRECT@@0JPEAK@Z 0000000180031b00     CashChanger.obj
 0002:0000bb10       $unwind$?OnWindowMessage@?$IOleInPlaceObjectWindowlessImpl@VCOPOSCashChanger@@@ATL@@UEAAJI_K_JPEA_J@Z 0000000180031b10     CashChanger.obj
 0002:0000bb24       $unwind$?EnumConnectionPoints@?$IConnectionPointContainerImpl@VCOPOSCashChanger@@@ATL@@UEAAJPEAPEAUIEnumConnectionPoints@@@Z 0000000180031b24     CashChanger.obj
 0002:0000bb4c       $unwind$?FindConnectionPoint@?$IConnectionPointContainerImpl@VCOPOSCashChanger@@@ATL@@UEAAJAEBU_GUID@@PEAPEAUIConnectionPoint@@@Z 0000000180031b4c     CashChanger.obj
 0002:0000bb68       $unwind$?Load@?$IPersistStorageImpl@VCOPOSCashChanger@@@ATL@@UEAAJPEAUIStorage@@@Z 0000000180031b68     CashChanger.obj
 0002:0000bb78       $unwind$?Save@?$IPersistStorageImpl@VCOPOSCashChanger@@@ATL@@UEAAJPEAUIStorage@@H@Z 0000000180031b78     CashChanger.obj
 0002:0000bb8c       $unwind$?IPSI_GetIPersistStreamInit@?$IPersistStorageImpl@VCOPOSCashChanger@@@ATL@@AEAAPEAUIPersistStreamInit@@XZ 0000000180031b8c     CashChanger.obj
 0002:0000bba0       $unwind$?GetInterfaceSafetyOptions@?$IObjectSafetyImpl@VCOPOSCashChanger@@$02@ATL@@UEAAJAEBU_GUID@@PEAK1@Z 0000000180031ba0     CashChanger.obj
 0002:0000bbb4       $unwind$?SetInterfaceSafetyOptions@?$IObjectSafetyImpl@VCOPOSCashChanger@@$02@ATL@@UEAAJAEBU_GUID@@KK@Z 0000000180031bb4     CashChanger.obj
 0002:0000bbc8       $unwind$?Advise@?$IConnectionPointImpl@VCOPOSCashChanger@@$1?DIID__IOPOSCashChangerEvents@@3U_GUID@@BVCComDynamicUnkArray@ATL@@@ATL@@UEAAJPEAUIUnknown@@PEAK@Z 0000000180031bc8     CashChanger.obj
 0002:0000bbc8       $unwind$?Advise@?$IConnectionPointImpl@VCOPOSCashChanger@@$1?IID_IPropertyNotifySink@@3U_GUID@@BVCComDynamicUnkArray@ATL@@@ATL@@UEAAJPEAUIUnknown@@PEAK@Z 0000000180031bc8     CashChanger.obj
 0002:0000bbdc       $unwind$?EnumConnections@?$IConnectionPointImpl@VCOPOSCashChanger@@$1?DIID__IOPOSCashChangerEvents@@3U_GUID@@BVCComDynamicUnkArray@ATL@@@ATL@@UEAAJPEAPEAUIEnumConnections@@@Z 0000000180031bdc     CashChanger.obj
 0002:0000bbdc       $unwind$?EnumConnections@?$IConnectionPointImpl@VCOPOSCashChanger@@$1?IID_IPropertyNotifySink@@3U_GUID@@BVCComDynamicUnkArray@ATL@@@ATL@@UEAAJPEAPEAUIEnumConnections@@@Z 0000000180031bdc     CashChanger.obj
 0002:0000bbf4       $unwind$?Fire_DataEvent@?$CProxy_IOPOSEvents@VCOPOSCashChanger@@@@QEAAXJ@Z 0000000180031bf4     CashChanger.obj
 0002:0000bbf4       $unwind$?Fire_StatusUpdateEvent@?$CProxy_IOPOSEvents@VCOPOSCashChanger@@@@QEAAXJ@Z 0000000180031bf4     CashChanger.obj
 0002:0000bbf4       $unwind$?fp_format_e@@YAHQEBNQEAD_K12H_NIW4__acrt_rounding_mode@@AEAV__crt_cached_ptd_host@@@Z 0000000180031bf4     libucrt:cvt.obj
 0002:0000bbf4       $unwind$??$__InternalCxxFrameHandler@V__FrameHandler3@@@@YA?AW4_EXCEPTION_DISPOSITION@@PEAUEHExceptionRecord@@PEA_KPEAU_CONTEXT@@PEAU_xDISPATCHER_CONTEXT@@PEBU_s_FuncInfo@@H1E@Z 0000000180031bf4     libvcruntime:frame.obj
 0002:0000bc0c       $unwind$?Fire_DirectIOEvent@?$CProxy_IOPOSEvents@VCOPOSCashChanger@@@@QEAAXJPEAJPEAPEA_W@Z 0000000180031c0c     CashChanger.obj
 0002:0000bc2c       $unwind$?FireTheEvent@?$CProxy_IOPOSEvents@VCOPOSCashChanger@@@@IEAAXPEAVOposVariant@@IAEAJPEB_WJ@Z 0000000180031c2c     CashChanger.obj
 0002:0000bc3c       $unwind$?ProcessWindowMessage@COPOSCashChanger@@UEAAHPEAUHWND__@@I_K_JAEA_JK@Z 0000000180031c3c     CashChanger.obj
 0002:0000bc54       $unwind$?Clone@?$CComEnumImpl@UIEnumConnectionPoints@@$1?_GUID_b196b285_bab4_101a_b69c_00aa00341d07@@3U__s_GUID@@BPEAUIConnectionPoint@@V?$_CopyInterface@UIConnectionPoint@@@ATL@@@ATL@@UEAAJPEAPEAUIEnumConnectionPoints@@@Z 0000000180031c54     CashChanger.obj
 0002:0000bc54       $unwind$?Clone@?$CComEnumImpl@UIEnumConnections@@$1?_GUID_b196b287_bab4_101a_b69c_00aa00341d07@@3U__s_GUID@@BUtagCONNECTDATA@@V?$_Copy@UtagCONNECTDATA@@@ATL@@@ATL@@UEAAJPEAPEAUIEnumConnections@@@Z 0000000180031c54     CashChanger.obj
 0002:0000bc6c       $unwind$?Init@?$CComEnumImpl@UIEnumConnectionPoints@@$1?_GUID_b196b285_bab4_101a_b69c_00aa00341d07@@3U__s_GUID@@BPEAUIConnectionPoint@@V?$_CopyInterface@UIConnectionPoint@@@ATL@@@ATL@@QEAAJPEAPEAUIConnectionPoint@@0PEAUIUnknown@@W4CComEnumFlags@2@@Z 0000000180031c6c     CashChanger.obj
 0002:0000bc6c       $unwind$?Init@?$CComEnumImpl@UIEnumConnections@@$1?_GUID_b196b287_bab4_101a_b69c_00aa00341d07@@3U__s_GUID@@BUtagCONNECTDATA@@V?$_Copy@UtagCONNECTDATA@@@ATL@@@ATL@@QEAAJPEAUtagCONNECTDATA@@0PEAUIUnknown@@W4CComEnumFlags@2@@Z 0000000180031c6c     CashChanger.obj
 0002:0000bc6c       $unwind$?should_round_up@@YA_NQEBN_KFW4__acrt_rounding_mode@@@Z 0000000180031c6c     libucrt:cvt.obj
 0002:0000bc6c       $unwind$??$parse_command_line@D@@YAXPEADPEAPEAD0PEA_K2@Z 0000000180031c6c     libucrt:argv_parsing.obj
 0002:0000bc88       $unwind$?GetOposProp@COPOSCashChanger@@IEAAJJPEAJJ@Z 0000000180031c88     CashChangerImpl.obj
 0002:0000bc88       $unwind$?GetOposProp@COPOSCashChanger@@IEAAJJPEAPEA_WJ@Z 0000000180031c88     CashChangerImpl.obj
 0002:0000bca0       $unwind$?SetOposProp@COPOSCashChanger@@IEAAJJJJ@Z 0000000180031ca0     CashChangerImpl.obj
 0002:0000bcc0       $unwind$?SetOposProp@COPOSCashChanger@@IEAAJJPEA_WJ@Z 0000000180031cc0     CashChangerImpl.obj
 0002:0000bcdc       $unwind$?DoInvoke@COPOSCashChanger@@IEAAJJPEAVOposVariant@@IHPEAJ_N@Z 0000000180031cdc     CashChangerImpl.obj
 0002:0000bcf4       $unwind$?SetCOFreezeEvents@COPOSCashChanger@@IEAAXF@Z 0000000180031cf4     CashChangerImpl.obj
 0002:0000bd08       $unwind$?OnDraw@COPOSCashChanger@@MEAAJAEAUATL_DRAWINFO@@@Z 0000000180031d08     CashChangerImpl.obj
 0002:0000bd20       $unwind$?EventInit@COPOSCashChanger@@IEAAJXZ 0000000180031d20     CashChangerImpl.obj
 0002:0000bd34       $unwind$?get_ControlObjectDescription@COPOSCashChanger@@UEAAJPEAPEA_W@Z 0000000180031d34     CashChangerImpl.obj
 0002:0000bd34       $unwind$__dcrt_lowio_ensure_console_output_initialized 0000000180031d34     libucrt:initcon.obj
 0002:0000bd34       $unwind$?__mbrtowc_utf8@__crt_mbstring@@YA_KPEA_WPEBD_KPEAU_Mbstatet@@AEAV__crt_cached_ptd_host@@@Z 0000000180031d34     libucrt:mbrtowc.obj
 0002:0000bd34       $unwind$?getSystemCP@@YAHH@Z 0000000180031d34     libucrt:mbctype.obj
 0002:0000bd3c       $unwind$?AdjustCashCounts@COPOSCashChanger@@UEAAJPEA_WPEAJ@Z 0000000180031d3c     CashChangerImpl.obj
 0002:0000bd3c       $unwind$?CheckHealth@COPOSCashChanger@@UEAAJJPEAJ@Z 0000000180031d3c     CashChangerImpl.obj
 0002:0000bd3c       $unwind$?DispenseCash@COPOSCashChanger@@UEAAJPEA_WPEAJ@Z 0000000180031d3c     CashChangerImpl.obj
 0002:0000bd3c       $unwind$?DispenseChange@COPOSCashChanger@@UEAAJJPEAJ@Z 0000000180031d3c     CashChangerImpl.obj
 0002:0000bd3c       $unwind$?EndDeposit@COPOSCashChanger@@UEAAJJPEAJ@Z 0000000180031d3c     CashChangerImpl.obj
 0002:0000bd3c       $unwind$?PauseDeposit@COPOSCashChanger@@UEAAJJPEAJ@Z 0000000180031d3c     CashChangerImpl.obj
 0002:0000bd3c       $unwind$?ResetStatistics@COPOSCashChanger@@UEAAJPEA_WPEAJ@Z 0000000180031d3c     CashChangerImpl.obj
 0002:0000bd3c       $unwind$?RetrieveStatistics@COPOSCashChanger@@UEAAJPEAPEA_WPEAJ@Z 0000000180031d3c     CashChangerImpl.obj
 0002:0000bd3c       $unwind$?UpdateFirmware@COPOSCashChanger@@UEAAJPEA_WPEAJ@Z 0000000180031d3c     CashChangerImpl.obj
 0002:0000bd3c       $unwind$?UpdateStatistics@COPOSCashChanger@@UEAAJPEA_WPEAJ@Z 0000000180031d3c     CashChangerImpl.obj
 0002:0000bd4c       $unwind$?ClaimDevice@COPOSCashChanger@@UEAAJJPEAJ@Z 0000000180031d4c     CashChangerImpl.obj
 0002:0000bd5c       $unwind$?Close@COPOSCashChanger@@UEAAJPEAJ@Z 0000000180031d5c     CashChangerImpl.obj
 0002:0000bd68       $unwind$?DirectIO@COPOSCashChanger@@UEAAJJPEAJPEAPEA_W0@Z 0000000180031d68     CashChangerImpl.obj
 0002:0000bd84       $unwind$?Open@COPOSCashChanger@@UEAAJPEA_WPEAJ@Z 0000000180031d84     CashChangerImpl.obj
 0002:0000bda8       $unwind$?CompareFirmwareVersion@COPOSCashChanger@@UEAAJPEA_WPEAJ1@Z 0000000180031da8     CashChangerImpl.obj
 0002:0000bda8       $unwind$?ReadCashCounts@COPOSCashChanger@@UEAAJPEAPEA_WPEAFPEAJ@Z 0000000180031da8     CashChangerImpl.obj
 0002:0000bda8       $unwind$?initialize_inherited_file_handles_nolock@@YAXXZ 0000000180031da8     libucrt:ioinit.obj
 0002:0000bdc4       $unwind$__scrt_is_nonwritable_in_current_image 0000000180031dc4     LIBCMT:utility.obj
 0002:0000bde4       $unwind$__scrt_is_nonwritable_in_current_image$filt$0 0000000180031de4     LIBCMT:utility.obj
 0002:0000bdec       $unwind$__report_securityfailure 0000000180031dec     LIBCMT:gs_report.obj
 0002:0000bdf4       $unwind$__report_gsfailure 0000000180031df4     LIBCMT:gs_report.obj
 0002:0000bdfc       $unwind$capture_current_context 0000000180031dfc     LIBCMT:gs_report.obj
 0002:0000be08       $unwind$capture_previous_context 0000000180031e08     LIBCMT:gs_report.obj
 0002:0000be14       $unwind$??2@YAPEAX_KAEBUnothrow_t@std@@@Z 0000000180031e14     LIBCMT:new_scalar_nothrow.obj
 0002:0000be24       $cppxdata$??2@YAPEAX_KAEBUnothrow_t@std@@@Z 0000000180031e24     LIBCMT:new_scalar_nothrow.obj
 0002:0000be31       $stateUnwindMap$??2@YAPEAX_KAEBUnothrow_t@std@@@Z 0000000180031e31     LIBCMT:new_scalar_nothrow.obj
 0002:0000be34       $tryMap$??2@YAPEAX_KAEBUnothrow_t@std@@@Z 0000000180031e34     LIBCMT:new_scalar_nothrow.obj
 0002:0000be3c       $handlerMap$??2@YAPEAX_KAEBUnothrow_t@std@@@Z 0000000180031e3c     LIBCMT:new_scalar_nothrow.obj
 0002:0000be44       $ip2state$??2@YAPEAX_KAEBUnothrow_t@std@@@Z 0000000180031e44     LIBCMT:new_scalar_nothrow.obj
 0002:0000be48       $unwind$?catch$0@?0???2@YAPEAX_KAEBUnothrow_t@std@@@Z@4HA 0000000180031e48     LIBCMT:new_scalar_nothrow.obj
 0002:0000be58       $cppxdata$?catch$0@?0???2@YAPEAX_KAEBUnothrow_t@std@@@Z@4HA 0000000180031e58     LIBCMT:new_scalar_nothrow.obj
 0002:0000be62       $stateUnwindMap$?catch$0@?0???2@YAPEAX_KAEBUnothrow_t@std@@@Z@4HA 0000000180031e62     LIBCMT:new_scalar_nothrow.obj
 0002:0000be64       $ip2state$?catch$0@?0???2@YAPEAX_KAEBUnothrow_t@std@@@Z@4HA 0000000180031e64     LIBCMT:new_scalar_nothrow.obj
 0002:0000be68       $unwind$__GSHandlerCheckCommon 0000000180031e68     LIBCMT:gshandler.obj
 0002:0000be70       $xdatasym                  0000000180031e70     LIBCMT:chkstk.obj
 0002:0000be78       $xdatasym                  0000000180031e78     LIBCMT:amdsecgs.obj
 0002:0000be7c       $unwind$?dllmain_crt_process_attach@@YAHQEAUHINSTANCE__@@QEAX@Z 0000000180031e7c     LIBCMT:dll_dllmain.obj
 0002:0000beb8       $unwind$?dllmain_crt_process_detach@@YAH_N@Z 0000000180031eb8     LIBCMT:dll_dllmain.obj
 0002:0000bf0c       $unwind$?dllmain_dispatch@@YAHQEAUHINSTANCE__@@KQEAX@Z 0000000180031f0c     LIBCMT:dll_dllmain.obj
 0002:0000bf34       $unwind$_write_internal$fin$0 0000000180031f34     libucrt:write.obj
 0002:0000bf34       $unwind$?fin$0@?0??_fclose_internal@@YAHQEAU_iobuf@@AEAV__crt_cached_ptd_host@@@Z@4HA 0000000180031f34     libucrt:fclose.obj
 0002:0000bf34       $unwind$?filt$0@?0??dllmain_dispatch@@YAHQEAUHINSTANCE__@@KQEAX@Z@4HA 0000000180031f34     LIBCMT:dll_dllmain.obj
 0002:0000bf34       $unwind$?filt$0@?0??FrameUnwindToState@__FrameHandler4@@SAXPEA_KPEAU_xDISPATCHER_CONTEXT@@PEAUFuncInfo4@FH4@@H@Z@4HA 0000000180031f34     libvcruntime:frame.obj
 0002:0000bf34       $unwind$?fin$1@?0??FrameUnwindToState@__FrameHandler4@@SAXPEA_KPEAU_xDISPATCHER_CONTEXT@@PEAUFuncInfo4@FH4@@H@Z@4HA 0000000180031f34     libvcruntime:frame.obj
 0002:0000bf3c       $unwind$__isa_available_init 0000000180031f3c     LIBCMT:cpu_disp.obj
 0002:0000bf4c       $unwind$__scrt_fastfail    0000000180031f4c     LIBCMT:utility_desktop.obj
 0002:0000bf5c       $unwind$__security_init_cookie 0000000180031f5c     LIBCMT:gs_support.obj
 0002:0000bf68       $xdatasym                  0000000180031f68     LIBCMT:guard_dispatch.obj
 0002:0000bf70       $xdatasym                  0000000180031f70     LIBCMT:guard_xfg_dispatch.obj
 0002:0000bf74       $unwind$AtlThunk_InitData  0000000180031f74     atls:atlthunk.obj
 0002:0000bf88       $unwind$wcsstr             0000000180031f88     libvcruntime:wcsstr.obj
 0002:0000bfa0       $xdatasym                  0000000180031fa0     libvcruntime:memcmp.obj
 0002:0000bfa8       $xdatasym                  0000000180031fa8     libvcruntime:memcpy.obj
 0002:0000bfb8       $xdatasym                  0000000180031fb8     libvcruntime:memset.obj
 0002:0000bfc8       $unwind$__C_specific_handler 0000000180031fc8     libvcruntime:riscchandler.obj
 0002:0000bfc8       $unwind$?GetRangeOfTrysToCheck@__FrameHandler3@@SA?AU?$pair@Viterator@TryBlockMap@__FrameHandler3@@V123@@std@@AEAVTryBlockMap@1@HPEAU_xDISPATCHER_CONTEXT@@PEBU_s_FuncInfo@@H@Z 0000000180031fc8     libvcruntime:risctrnsctrl.obj
 0002:0000bfe4       $unwind$?StateFromIp@__FrameHandler4@@SAHPEAUFuncInfo4@FH4@@PEAU_xDISPATCHER_CONTEXT@@_K@Z 0000000180031fe4     libvcruntime:ehstate.obj
 0002:0000bfe4       $unwind$?DecompFuncInfo@FH4@@YA_JPEAEAEAUFuncInfo4@1@_KH_N@Z 0000000180031fe4     libvcruntime:risctrnsctrl.obj
 0002:0000bffc       $unwind$?GetEstablisherFrame@__FrameHandler3@@SAPEA_KPEA_KPEAU_xDISPATCHER_CONTEXT@@PEBU_s_FuncInfo@@0@Z 0000000180031ffc     libvcruntime:risctrnsctrl.obj
 0002:0000c014       $unwind$?UnwindNestedFrames@__FrameHandler3@@SAXPEA_KPEAUEHExceptionRecord@@PEAU_CONTEXT@@0PEAXPEBU_s_FuncInfo@@HHPEBU_s_HandlerType@@PEAU_xDISPATCHER_CONTEXT@@E@Z 0000000180032014     libvcruntime:risctrnsctrl.obj
 0002:0000c014       $unwind$?UnwindNestedFrames@__FrameHandler4@@SAXPEA_KPEAUEHExceptionRecord@@PEAU_CONTEXT@@0PEAXPEAUFuncInfo4@FH4@@HHPEAUHandlerType4@5@PEAU_xDISPATCHER_CONTEXT@@E@Z 0000000180032014     libvcruntime:risctrnsctrl.obj
 0002:0000c028       $unwind$?GetRangeOfTrysToCheck@__FrameHandler4@@SA?AU?$pair@Viterator@TryBlockMap4@FH4@@V123@@std@@AEAVTryBlockMap4@FH4@@HPEAU_xDISPATCHER_CONTEXT@@PEAUFuncInfo4@5@H@Z 0000000180032028     libvcruntime:risctrnsctrl.obj
 0002:0000c044       $unwind$__CxxFrameHandler3 0000000180032044     libvcruntime:risctrnsctrl.obj
 0002:0000c058       $unwind$__CxxFrameHandler4 0000000180032058     libvcruntime:risctrnsctrl.obj
 0002:0000c06c       $unwind$??$_CallSETranslator@V__FrameHandler4@@@@YAHPEAUEHExceptionRecord@@PEA_KPEAU_CONTEXT@@PEAU_xDISPATCHER_CONTEXT@@PEAUFuncInfo4@FH4@@K1H@Z 000000018003206c     libvcruntime:risctrnsctrl.obj
 0002:0000c08c       $unwind$?filt$0@?0???$_CallSETranslator@V__FrameHandler3@@@@YAHPEAUEHExceptionRecord@@PEA_KPEAU_CONTEXT@@PEAU_xDISPATCHER_CONTEXT@@PEBU_s_FuncInfo@@K1H@Z@4HA 000000018003208c     libvcruntime:risctrnsctrl.obj
 0002:0000c08c       $unwind$?filt$0@?0???$_CallSETranslator@V__FrameHandler4@@@@YAHPEAUEHExceptionRecord@@PEA_KPEAU_CONTEXT@@PEAU_xDISPATCHER_CONTEXT@@PEAUFuncInfo4@FH4@@K1H@Z@4HA 000000018003208c     libvcruntime:risctrnsctrl.obj
 0002:0000c098       $unwind$??$_CallSETranslator@V__FrameHandler3@@@@YAHPEAUEHExceptionRecord@@PEA_KPEAU_CONTEXT@@PEAU_xDISPATCHER_CONTEXT@@PEBU_s_FuncInfo@@K1H@Z 0000000180032098     libvcruntime:risctrnsctrl.obj
 0002:0000c0b8       $unwind$__DestructExceptionObject 00000001800320b8     libvcruntime:ehhelpers.obj
 0002:0000c0d8       $unwind$__DestructExceptionObject$filt$0 00000001800320d8     libvcruntime:ehhelpers.obj
 0002:0000c0d8       $unwind$?fin$1@?0??CxxCallCatchBlock@__FrameHandler3@@SAPEAXPEAU_EXCEPTION_RECORD@@@Z@4HA 00000001800320d8     libvcruntime:frame.obj
 0002:0000c0d8       $unwind$?fin$1@?0??CxxCallCatchBlock@__FrameHandler4@@SAPEAXPEAU_EXCEPTION_RECORD@@@Z@4HA 00000001800320d8     libvcruntime:frame.obj
 0002:0000c0e4       $unwind$_CxxThrowException 00000001800320e4     libvcruntime:throw.obj
 0002:0000c0f8       $xdatasym                  00000001800320f8     libvcruntime:notify.obj
 0002:0000c104       $unwind$?getStartStop@UWMap4@FH4@@QEAAXHHAEAViterator@12@0@Z 0000000180032104     libvcruntime:frame.obj
 0002:0000c11c       $unwind$?FrameUnwindToState@__FrameHandler3@@SAXPEA_KPEAU_xDISPATCHER_CONTEXT@@PEBU_s_FuncInfo@@H@Z 000000018003211c     libvcruntime:frame.obj
 0002:0000c168       $unwind$?CxxCallCatchBlock@__FrameHandler3@@SAPEAXPEAU_EXCEPTION_RECORD@@@Z 0000000180032168     libvcruntime:frame.obj
 0002:0000c1a4       $unwind$?FrameUnwindToState@__FrameHandler4@@SAXPEA_KPEAU_xDISPATCHER_CONTEXT@@PEAUFuncInfo4@FH4@@H@Z 00000001800321a4     libvcruntime:frame.obj
 0002:0000c1ec       $unwind$?CxxCallCatchBlock@__FrameHandler4@@SAPEAXPEAU_EXCEPTION_RECORD@@@Z 00000001800321ec     libvcruntime:frame.obj
 0002:0000c248       $unwind$?IsInExceptionSpec@@YAEPEAUEHExceptionRecord@@PEBU_s_ESTypeList@@@Z 0000000180032248     libvcruntime:frame.obj
 0002:0000c264       $unwind$??$__InternalCxxFrameHandler@V__FrameHandler4@@@@YA?AW4_EXCEPTION_DISPOSITION@@PEAUEHExceptionRecord@@PEA_KPEAU_CONTEXT@@PEAU_xDISPATCHER_CONTEXT@@PEAUFuncInfo4@FH4@@H1E@Z 0000000180032264     libvcruntime:frame.obj
 0002:0000c27c       $unwind$??$BuildCatchObjectHelperInternal@V__FrameHandler3@@@@YAHPEAUEHExceptionRecord@@PEAXPEBU_s_HandlerType@@PEBU_s_CatchableType@@@Z 000000018003227c     libvcruntime:frame.obj
 0002:0000c2bc       $unwind$??$BuildCatchObjectHelperInternal@V__FrameHandler4@@@@YAHPEAUEHExceptionRecord@@PEAXPEAUHandlerType4@FH4@@PEBU_s_CatchableType@@@Z 00000001800322bc     libvcruntime:frame.obj
 0002:0000c2fc       $unwind$??$BuildCatchObjectInternal@V__FrameHandler3@@@@YAXPEAUEHExceptionRecord@@PEAXPEBU_s_HandlerType@@PEBU_s_CatchableType@@@Z 00000001800322fc     libvcruntime:frame.obj
 0002:0000c328       $unwind$??$BuildCatchObjectInternal@V__FrameHandler4@@@@YAXPEAUEHExceptionRecord@@PEAXPEAUHandlerType4@FH4@@PEBU_s_CatchableType@@@Z 0000000180032328     libvcruntime:frame.obj
 0002:0000c354       $unwind$??$FindHandler@V__FrameHandler3@@@@YAXPEAUEHExceptionRecord@@PEA_KPEAU_CONTEXT@@PEAU_xDISPATCHER_CONTEXT@@PEBU_s_FuncInfo@@EH1@Z 0000000180032354     libvcruntime:frame.obj
 0002:0000c374       $unwind$??$FindHandler@V__FrameHandler4@@@@YAXPEAUEHExceptionRecord@@PEA_KPEAU_CONTEXT@@PEAU_xDISPATCHER_CONTEXT@@PEAUFuncInfo4@FH4@@EH1@Z 0000000180032374     libvcruntime:frame.obj
 0002:0000c394       $unwind$??$CatchIt@V__FrameHandler3@@@@YAXPEAUEHExceptionRecord@@PEA_KPEAU_CONTEXT@@PEAU_xDISPATCHER_CONTEXT@@PEBU_s_FuncInfo@@PEBU_s_HandlerType@@PEBU_s_CatchableType@@PEBU_s_TryBlockMapEntry@@H1EE@Z 0000000180032394     libvcruntime:frame.obj
 0002:0000c394       $unwind$??$CatchIt@V__FrameHandler4@@@@YAXPEAUEHExceptionRecord@@PEA_KPEAU_CONTEXT@@PEAU_xDISPATCHER_CONTEXT@@PEAUFuncInfo4@FH4@@PEAUHandlerType4@4@PEBU_s_CatchableType@@PEAUTryBlockMapEntry4@4@H1EE@Z 0000000180032394     libvcruntime:frame.obj
 0002:0000c3ac       $unwind$??$FindHandlerForForeignException@V__FrameHandler3@@@@YAXPEAUEHExceptionRecord@@PEA_KPEAU_CONTEXT@@PEAU_xDISPATCHER_CONTEXT@@PEBU_s_FuncInfo@@HH1@Z 00000001800323ac     libvcruntime:frame.obj
 0002:0000c3c8       $unwind$??$FindHandlerForForeignException@V__FrameHandler4@@@@YAXPEAUEHExceptionRecord@@PEA_KPEAU_CONTEXT@@PEAU_xDISPATCHER_CONTEXT@@PEAUFuncInfo4@FH4@@HH1@Z 00000001800323c8     libvcruntime:frame.obj
 0002:0000c3e8       $unwind$?try_get_function@@YAPEAXW4function_id@?A0x391cf84c@@QEBDQEBW4module_id@2@2@Z 00000001800323e8     libucrt:winapi_thunks.obj
 0002:0000c3e8       $unwind$?try_get_function@@YAPEAXW4function_id@?A0xbc0cc709@@QEBDQEBW4module_id@2@2@Z 00000001800323e8     libvcruntime:winapi_downlevel.obj
 0002:0000c408       $xdatasym                  0000000180032408     libvcruntime:handlers.obj
 0002:0000c428       $unwind$__acrt_call_reportfault 0000000180032428     libucrt:invalid_parameter.obj
 0002:0000c448       $unwind$??$common_lseek_nolock@_J@@YA_JH_JHAEAV__crt_cached_ptd_host@@@Z 0000000180032448     libucrt:lseek.obj
 0002:0000c448       $unwind$_invalid_parameter_internal 0000000180032448     libucrt:invalid_parameter.obj
 0002:0000c448       $unwind$??$type_case_integer@$07@?$output_processor@_WV?$string_output_adapter@_W@__crt_stdio_output@@V?$format_validation_base@_WV?$string_output_adapter@_W@__crt_stdio_output@@@2@@__crt_stdio_output@@AEAA_N_N@Z 0000000180032448     libucrt:output.obj
 0002:0000c448       $unwind$??$type_case_integer@$09@?$output_processor@_WV?$string_output_adapter@_W@__crt_stdio_output@@V?$format_validation_base@_WV?$string_output_adapter@_W@__crt_stdio_output@@@2@@__crt_stdio_output@@AEAA_N_N@Z 0000000180032448     libucrt:output.obj
 0002:0000c448       $unwind$??$type_case_integer@$0BA@@?$output_processor@_WV?$string_output_adapter@_W@__crt_stdio_output@@V?$format_validation_base@_WV?$string_output_adapter@_W@__crt_stdio_output@@@2@@__crt_stdio_output@@AEAA_N_N@Z 0000000180032448     libucrt:output.obj
 0002:0000c45c       $unwind$_invalid_parameter 000000018003245c     libucrt:invalid_parameter.obj
 0002:0000c468       $unwind$_resetstkoflw      0000000180032468     libucrt:resetstk.obj
 0002:0000c48c       $unwind$__stdio_common_vswprintf_s 000000018003248c     libucrt:output.obj
 0002:0000c4a0       $unwind$?write_string@?$string_output_adapter@_W@__crt_stdio_output@@QEBAXQEB_WHQEAHAEAV__crt_cached_ptd_host@@@Z 00000001800324a0     libucrt:output.obj
 0002:0000c4b8       $unwind$??$common_vsprintf@Vformat_validation_base@__crt_stdio_output@@_W@@YAH_KQEA_W0QEB_WAEAV__crt_cached_ptd_host@@QEAD@Z 00000001800324b8     libucrt:output.obj
 0002:0000c4d8       $unwind$?parse_int_from_format_string@?$output_processor@_WV?$string_output_adapter@_W@__crt_stdio_output@@V?$format_validation_base@_WV?$string_output_adapter@_W@__crt_stdio_output@@@2@@__crt_stdio_output@@AEAA_NQEAH@Z 00000001800324d8     libucrt:output.obj
 0002:0000c4ec       $unwind$?state_case_type@?$output_processor@_WV?$string_output_adapter@_W@__crt_stdio_output@@V?$format_validation_base@_WV?$string_output_adapter@_W@__crt_stdio_output@@@2@@__crt_stdio_output@@AEAA_NXZ 00000001800324ec     libucrt:output.obj
 0002:0000c510       $unwind$?type_case_a@?$output_processor@_WV?$string_output_adapter@_W@__crt_stdio_output@@V?$format_validation_base@_WV?$string_output_adapter@_W@__crt_stdio_output@@@2@@__crt_stdio_output@@AEAA_NXZ 0000000180032510     libucrt:output.obj
 0002:0000c524       $unwind$?type_case_n@?$output_processor@_WV?$string_output_adapter@_W@__crt_stdio_output@@V?$format_validation_base@_WV?$string_output_adapter@_W@__crt_stdio_output@@@2@@__crt_stdio_output@@AEAA_NXZ 0000000180032524     libucrt:output.obj
 0002:0000c530       $unwind$??$parse_integer@KV?$c_string_character_source@_W@__crt_strtox@@$0A@@__crt_strtox@@YAKAEAV__crt_cached_ptd_host@@V?$c_string_character_source@_W@0@H_N@Z 0000000180032530     libucrt:output.obj
 0002:0000c54c       $unwind$?try_cor_exit_process@@YAXI@Z 000000018003254c     libucrt:exit.obj
 0002:0000c560       $ip2state$?try_cor_exit_process@@YAXI@Z 0000000180032560     libucrt:exit.obj
 0002:0000c568       $unwind$?common_exit@@YAXHW4_crt_exit_cleanup_mode@@W4_crt_exit_return_mode@@@Z 0000000180032568     libucrt:exit.obj
 0002:0000c57c       $stateUnwindMap$__dcrt_uninitialize_environments_nolock 000000018003257c     libucrt:environment_initialization.obj
 0002:0000c57c       $stateUnwindMap$?common_exit@@YAXHW4_crt_exit_cleanup_mode@@W4_crt_exit_return_mode@@@Z 000000018003257c     libucrt:exit.obj
 0002:0000c57c       $stateUnwindMap$_execute_onexit_table 000000018003257c     libucrt:onexit.obj
 0002:0000c588       $ip2state$?common_exit@@YAXHW4_crt_exit_cleanup_mode@@W4_crt_exit_return_mode@@@Z 0000000180032588     libucrt:exit.obj
 0002:0000c590       $unwind$??R<lambda_6e4b09c48022b2350581041d5f6b0c4c>@@QEBA@XZ 0000000180032590     libucrt:exit.obj
 0002:0000c5b0       $unwind$??$?RV<lambda_d80eeec6fff315bfe5c115232f3240e3>@@AEAV<lambda_6e4b09c48022b2350581041d5f6b0c4c>@@V<lambda_2358e3775559c9db80273638284d5e45>@@@?$__crt_seh_guarded_call@X@@QEAAX$$QEAV<lambda_d80eeec6fff315bfe5c115232f3240e3>@@AEAV<lambda_6e4b09c48022b2350581041d5f6b0c4c>@@$$QEAV<lambda_2358e3775559c9db80273638284d5e45>@@@Z 00000001800325b0     libucrt:exit.obj
 0002:0000c5d4       $unwind$__dcrt_uninitialize_environments_nolock 00000001800325d4     libucrt:environment_initialization.obj
 0002:0000c5e4       $unwind$??$free_environment@D@@YAXQEAPEAD@Z 00000001800325e4     libucrt:environment_initialization.obj
 0002:0000c5e4       $unwind$??$free_environment@_W@@YAXQEAPEA_W@Z 00000001800325e4     libucrt:environment_initialization.obj
 0002:0000c5e4       $unwind$_initterm          00000001800325e4     libucrt:initterm.obj
 0002:0000c5f0       $unwind$_register_onexit_function 00000001800325f0     libucrt:onexit.obj
 0002:0000c5f8       $unwind$_execute_onexit_table 00000001800325f8     libucrt:onexit.obj
 0002:0000c608       $ip2state$_execute_onexit_table 0000000180032608     libucrt:onexit.obj
 0002:0000c610       $unwind$??R<lambda_22ebabd17bc4fa466a2aca6d8deb888d>@@QEBAHXZ 0000000180032610     libucrt:onexit.obj
 0002:0000c628       $unwind$??$?RV<lambda_638799b9deba96c50f710eeac98168cd>@@AEAV<lambda_22ebabd17bc4fa466a2aca6d8deb888d>@@V<lambda_a6f7d7db0129f75315ebf26d50c089f1>@@@?$__crt_seh_guarded_call@H@@QEAAH$$QEAV<lambda_638799b9deba96c50f710eeac98168cd>@@AEAV<lambda_22ebabd17bc4fa466a2aca6d8deb888d>@@$$QEAV<lambda_a6f7d7db0129f75315ebf26d50c089f1>@@@Z 0000000180032628     libucrt:onexit.obj
 0002:0000c64c       $unwind$??$?RV<lambda_7777bce6b2f8c936911f934f8298dc43>@@AEAV<lambda_f03950bc5685219e0bcd2087efbe011e>@@V<lambda_3883c3dff614d5e0c5f61bb1ac94921c>@@@?$__crt_seh_guarded_call@H@@QEAAH$$QEAV<lambda_7777bce6b2f8c936911f934f8298dc43>@@AEAV<lambda_f03950bc5685219e0bcd2087efbe011e>@@$$QEAV<lambda_3883c3dff614d5e0c5f61bb1ac94921c>@@@Z 000000018003264c     libucrt:onexit.obj
 0002:0000c670       $unwind$_query_new_handler 0000000180032670     libucrt:new_handler.obj
 0002:0000c690       $unwind$terminate          0000000180032690     libucrt:terminate.obj
 0002:0000c6b0       $xdatasym                  00000001800326b0     libucrt:strncmp.obj
 0002:0000c6b4       $unwind$?construct_ptd_array@@YAXQEAU__acrt_ptd@@@Z 00000001800326b4     libucrt:per_thread_data.obj
 0002:0000c6bc       $unwind$?destroy_ptd_array@@YAXQEAU__acrt_ptd@@@Z 00000001800326bc     libucrt:per_thread_data.obj
 0002:0000c6c4       $unwind$??$?RV<lambda_0ae27a3a962d80f24befdcbee591983d>@@AEAV<lambda_8d0ee55de4b1038c4002e0adecdf1839>@@V<lambda_dc504788e8f1664fe9b84e20bfb512f2>@@@?$__crt_seh_guarded_call@X@@QEAAX$$QEAV<lambda_0ae27a3a962d80f24befdcbee591983d>@@AEAV<lambda_8d0ee55de4b1038c4002e0adecdf1839>@@$$QEAV<lambda_dc504788e8f1664fe9b84e20bfb512f2>@@@Z 00000001800326c4     libucrt:per_thread_data.obj
 0002:0000c6e8       $unwind$??$?RV<lambda_aa87e3671a710a21b5dc78c0bdf72e11>@@AEAV<lambda_92619d2358a28f41a33ba319515a20b9>@@V<lambda_6992ecaafeb10aed2b74cb1fae11a551>@@@?$__crt_seh_guarded_call@X@@QEAAX$$QEAV<lambda_aa87e3671a710a21b5dc78c0bdf72e11>@@AEAV<lambda_92619d2358a28f41a33ba319515a20b9>@@$$QEAV<lambda_6992ecaafeb10aed2b74cb1fae11a551>@@@Z 00000001800326e8     libucrt:per_thread_data.obj
 0002:0000c70c       $unwind$??$?RV<lambda_f2e299630e499de9f9a165e60fcd3db5>@@AEAV<lambda_2ae9d31cdba2644fcbeaf08da7c24588>@@V<lambda_40d01ff24d0e7b3814fdbdcee8eab3c7>@@@?$__crt_seh_guarded_call@X@@QEAAX$$QEAV<lambda_f2e299630e499de9f9a165e60fcd3db5>@@AEAV<lambda_2ae9d31cdba2644fcbeaf08da7c24588>@@$$QEAV<lambda_40d01ff24d0e7b3814fdbdcee8eab3c7>@@@Z 000000018003270c     libucrt:per_thread_data.obj
 0002:0000c730       $unwind$??$?RV<lambda_2d41944a1d46af3157314b8a01080d33>@@AEAV<lambda_8f455de75cd7d7f24b4096f044d8b9e6>@@V<lambda_aa500f224e6afead328df44964fe2772>@@@?$__crt_seh_guarded_call@X@@QEAAX$$QEAV<lambda_2d41944a1d46af3157314b8a01080d33>@@AEAV<lambda_8f455de75cd7d7f24b4096f044d8b9e6>@@$$QEAV<lambda_aa500f224e6afead328df44964fe2772>@@@Z 0000000180032730     libucrt:per_thread_data.obj
 0002:0000c754       $unwind$__acrt_uninitialize_locale 0000000180032754     libucrt:wsetlocale.obj
 0002:0000c754       $unwind$__acrt_get_sigabrt_handler 0000000180032754     libucrt:signal.obj
 0002:0000c75c       $unwind$??$?RV<lambda_410d79af7f07d98d83a3f525b3859a53>@@AEAV<lambda_3e16ef9562a7dcce91392c22ab16ea36>@@V<lambda_38119f0e861e05405d8a144b9b982f0a>@@@?$__crt_seh_guarded_call@X@@QEAAX$$QEAV<lambda_410d79af7f07d98d83a3f525b3859a53>@@AEAV<lambda_3e16ef9562a7dcce91392c22ab16ea36>@@$$QEAV<lambda_38119f0e861e05405d8a144b9b982f0a>@@@Z 000000018003275c     libucrt:wsetlocale.obj
 0002:0000c784       $unwind$__acrt_initialize_winapi_thunks 0000000180032784     libucrt:winapi_thunks.obj
 0002:0000c784       $unwind$__acrt_fenv_get_control 0000000180032784     libucrt:_fenvutils.obj
 0002:0000c78c       $unwind$__acrt_fp_format   000000018003278c     libucrt:cvt.obj
 0002:0000c79c       $unwind$?fp_format_e_internal@@YAHQEAD_KH_NIQEAU_strflt@@2AEAV__crt_cached_ptd_host@@@Z 000000018003279c     libucrt:cvt.obj
 0002:0000c7b8       $unwind$?fp_format_a@@YAHQEBNPEAD_KQEAD2H_NIW4__acrt_rounding_mode@@AEAV__crt_cached_ptd_host@@@Z 00000001800327b8     libucrt:cvt.obj
 0002:0000c7d4       $unwind$?fp_format_g@@YAHQEBNQEAD_K12H_NIW4__acrt_rounding_mode@@AEAV__crt_cached_ptd_host@@@Z 00000001800327d4     libucrt:cvt.obj
 0002:0000c7ec       $unwind$__acrt_initialize_lowio 00000001800327ec     libucrt:ioinit.obj
 0002:0000c80c       $unwind$??$common_expand_argv_wildcards@D@@YAHQEAPEADQEAPEAPEAD@Z 000000018003280c     libucrt:argv_wildcards.obj
 0002:0000c824       $unwind$__dcrt_get_narrow_environment_from_os 0000000180032824     libucrt:get_environment_from_os.obj
 0002:0000c824       $unwind$??$__acrt_convert_wcs_mbs_cp@_WDV<lambda_d8593a27d1aa8c02be35c86a17d324c4>@@U__crt_win32_buffer_internal_dynamic_resizing@@@@YAHQEB_WAEAV?$__crt_win32_buffer@DU__crt_win32_buffer_internal_dynamic_resizing@@@@AEBV<lambda_d8593a27d1aa8c02be35c86a17d324c4>@@I@Z 0000000180032824     libucrt:argv_wildcards.obj
 0002:0000c83c       $unwind$??$copy_and_add_argument_to_buffer@D@@YAHQEBD0_KAEAV?$argument_list@D@?A0x5f5c8891@@@Z 000000018003283c     libucrt:argv_wildcards.obj
 0002:0000c858       $unwind$??$expand_argument_wildcards@D@@YAHQEAD0AEAV?$argument_list@D@?A0x5f5c8891@@@Z 0000000180032858     libucrt:argv_wildcards.obj
 0002:0000c878       $unwind$__acrt_GetModuleFileNameA 0000000180032878     libucrt:getmodulefilenamea.obj
 0002:0000c894       $unwind$_setmbcp_nolock    0000000180032894     libucrt:mbctype.obj
 0002:0000c8b4       $unwind$?update_thread_multibyte_data_internal@@YAPEAU__crt_multibyte_data@@QEAU__acrt_ptd@@QEAPEAU1@@Z 00000001800328b4     libucrt:mbctype.obj
 0002:0000c8dc       $unwind$?setmbcp_internal@@YAHH_NQEAU__acrt_ptd@@QEAPEAU__crt_multibyte_data@@@Z 00000001800328dc     libucrt:mbctype.obj
 0002:0000c8f4       $unwind$?setSBUpLow@@YAXPEAU__crt_multibyte_data@@@Z 00000001800328f4     libucrt:mbctype.obj
 0002:0000c910       $unwind$??$?RV<lambda_efdfa57d1f175319df784efa44bb7b81>@@AEAV<lambda_5f0a4c1567f8adc6734073e5d1e1b35c>@@V<lambda_2e8a7d3640ea6ccb4c2413664c2db6fd>@@@?$__crt_seh_guarded_call@X@@QEAAX$$QEAV<lambda_efdfa57d1f175319df784efa44bb7b81>@@AEAV<lambda_5f0a4c1567f8adc6734073e5d1e1b35c>@@$$QEAV<lambda_2e8a7d3640ea6ccb4c2413664c2db6fd>@@@Z 0000000180032910     libucrt:mbctype.obj
 0002:0000c934       $unwind$__acrt_WideCharToMultiByte 0000000180032934     libucrt:widechartomultibyte.obj
 0002:0000c940       $unwind$raise              0000000180032940     libucrt:signal.obj
 0002:0000c97c       $unwind$??$?RV<lambda_450d765d439847d4c735a33c368b5fc0>@@AEAV<lambda_44731a7d0e6d81c3e6aa82d741081786>@@V<lambda_601a2a7da3b7a96e9554ac7215c4b07c>@@@?$__crt_seh_guarded_call@P6AXH@Z@@QEAAP6AXH@Z$$QEAV<lambda_450d765d439847d4c735a33c368b5fc0>@@AEAV<lambda_44731a7d0e6d81c3e6aa82d741081786>@@$$QEAV<lambda_601a2a7da3b7a96e9554ac7215c4b07c>@@@Z 000000018003297c     libucrt:signal.obj
 0002:0000c9a0       $unwind$fclose             00000001800329a0     libucrt:fclose.obj
 0002:0000c9a0       $unwind$_fflush_nolock     00000001800329a0     libucrt:fflush.obj
 0002:0000c9b0       $unwind$?common_flush_all@@YAH_N@Z 00000001800329b0     libucrt:fflush.obj
 0002:0000c9b8       $unwind$??$?RV<lambda_842d9ff0dc9ef11c61343bbaebe7f885>@@AEAV<lambda_c5860995281e5c4ce005b3de8f5874ee>@@V<lambda_d90129c13df834fdcbf8d2b88dafcf2d>@@@?$__crt_seh_guarded_call@X@@QEAAX$$QEAV<lambda_842d9ff0dc9ef11c61343bbaebe7f885>@@AEAV<lambda_c5860995281e5c4ce005b3de8f5874ee>@@$$QEAV<lambda_d90129c13df834fdcbf8d2b88dafcf2d>@@@Z 00000001800329b8     libucrt:fflush.obj
 0002:0000c9dc       $unwind$??$?RV<lambda_886d6c58226a84441f68b9f2b8217b83>@@AEAV<lambda_ab61a845afdef5b7c387490eaf3616ee>@@V<lambda_f7f22ab5edc0698d5f6905b0d3f44752>@@@?$__crt_seh_guarded_call@X@@QEAAX$$QEAV<lambda_886d6c58226a84441f68b9f2b8217b83>@@AEAV<lambda_ab61a845afdef5b7c387490eaf3616ee>@@$$QEAV<lambda_f7f22ab5edc0698d5f6905b0d3f44752>@@@Z 00000001800329dc     libucrt:fflush.obj
 0002:0000ca04       $unwind$__acrt_update_thread_locale_data 0000000180032a04     libucrt:locale_refcounting.obj
 0002:0000ca28       $unwind$__acrt_locale_free_monetary 0000000180032a28     libucrt:initmon.obj
 0002:0000ca30       $unwind$__acrt_locale_free_time 0000000180032a30     libucrt:inittime.obj
 0002:0000ca40       $unwind$__acrt_GetStringTypeA 0000000180032a40     libucrt:getstringtypea.obj
 0002:0000ca68       $unwind$__acrt_fp_strflt_to_string 0000000180032a68     libucrt:_fptostr.obj
 0002:0000ca84       $unwind$__acrt_fltout      0000000180032a84     libucrt:cfout.obj
 0002:0000caa4       $unwind$?divide@__crt_strtox@@YA_KAEAUbig_integer@1@AEBU21@@Z 0000000180032aa4     libucrt:cfout.obj
 0002:0000cabc       $chain$0$?divide@__crt_strtox@@YA_KAEAUbig_integer@1@AEBU21@@Z 0000000180032abc     libucrt:cfout.obj
 0002:0000cad0       $chain$1$?divide@__crt_strtox@@YA_KAEAUbig_integer@1@AEBU21@@Z 0000000180032ad0     libucrt:cfout.obj
 0002:0000cae0       $unwind$?__mbsrtowcs_utf8@__crt_mbstring@@YA_KPEA_WPEAPEBD_KPEAU_Mbstatet@@AEAV__crt_cached_ptd_host@@@Z 0000000180032ae0     libucrt:mbrtowc.obj
 0002:0000caf8       $unwind$_fcloseall         0000000180032af8     libucrt:closeall.obj
 0002:0000cb1c       $unwind$__acrt_lowio_destroy_handle_array 0000000180032b1c     libucrt:osfinfo.obj
 0002:0000cb2c       $unwind$__acrt_lowio_ensure_fh_exists 0000000180032b2c     libucrt:osfinfo.obj
 0002:0000cb58       $unwind$qsort              0000000180032b58     libucrt:qsort.obj
 0002:0000cb70       $chain$4$qsort             0000000180032b70     libucrt:qsort.obj
 0002:0000cb94       $chain$5$qsort             0000000180032b94     libucrt:qsort.obj
 0002:0000cba4       $unwind$strpbrk            0000000180032ba4     libucrt:strpbrk.obj
 0002:0000cbb4       $unwind$fallbackMethod     0000000180032bb4     libucrt:strpbrk.obj
 0002:0000cbc4       $unwind$__acrt_LCMapStringA 0000000180032bc4     libucrt:lcmapstringa.obj
 0002:0000cbd4       $unwind$?__acrt_LCMapStringA_stat@@YAHPEAU__crt_locale_pointers@@PEB_WKPEBDHPEADHHH@Z 0000000180032bd4     libucrt:lcmapstringa.obj
 0002:0000cbfc       $unwind$_commit            0000000180032bfc     libucrt:commit.obj
 0002:0000cc04       $unwind$??$?RV<lambda_a37b2b86f63e897a80ea819b0eb08c01>@@AEAV<lambda_38ce7e780aa69e748d6df282ebc68efe>@@V<lambda_99fb1378e971ab6e7edea83e3a7a83a2>@@@?$__crt_seh_guarded_call@H@@QEAAH$$QEAV<lambda_a37b2b86f63e897a80ea819b0eb08c01>@@AEAV<lambda_38ce7e780aa69e748d6df282ebc68efe>@@$$QEAV<lambda_99fb1378e971ab6e7edea83e3a7a83a2>@@@Z 0000000180032c04     libucrt:commit.obj
 0002:0000cc28       $unwind$_write_nolock      0000000180032c28     libucrt:write.obj
 0002:0000cc40       $unwind$_write_internal    0000000180032c40     libucrt:write.obj
 0002:0000cc70       $unwind$?write_double_translated_ansi_nolock@@YA?AUwrite_result@?A0x17268360@@HQEBDIAEAV__crt_cached_ptd_host@@@Z 0000000180032c70     libucrt:write.obj
 0002:0000cc98       $ip2state$?write_double_translated_ansi_nolock@@YA?AUwrite_result@?A0x17268360@@HQEBDIAEAV__crt_cached_ptd_host@@@Z 0000000180032c98     libucrt:write.obj
 0002:0000cca0       $unwind$?write_text_ansi_nolock@@YA?AUwrite_result@?A0x17268360@@HQEBDI@Z 0000000180032ca0     libucrt:write.obj
 0002:0000cca0       $unwind$?write_text_utf16le_nolock@@YA?AUwrite_result@?A0x17268360@@HQEBDI@Z 0000000180032ca0     libucrt:write.obj
 0002:0000ccc0       $unwind$?write_text_utf8_nolock@@YA?AUwrite_result@?A0x17268360@@HQEBDI@Z 0000000180032cc0     libucrt:write.obj
 0002:0000cce8       $xdatasym                  0000000180032ce8     libucrt:log10.obj
 0002:0000ccf4       $unwind$__acrt_fenv_set_control 0000000180032cf4     libucrt:_fenvutils.obj
 0002:0000cd04       $unwind$?__mbrtoc32_utf8@__crt_mbstring@@YA_KPEA_UPEBD_KPEAU_Mbstatet@@AEAV__crt_cached_ptd_host@@@Z 0000000180032d04     libucrt:mbrtoc32.obj
 0002:0000cd20       $unwind$?_fclose_nolock_internal@@YAHQEAU_iobuf@@AEAV__crt_cached_ptd_host@@@Z 0000000180032d20     libucrt:fclose.obj
 0002:0000cd30       $unwind$?_fclose_internal@@YAHQEAU_iobuf@@AEAV__crt_cached_ptd_host@@@Z 0000000180032d30     libucrt:fclose.obj
 0002:0000cd54       $unwind$_putwch_nolock     0000000180032d54     libucrt:putwch.obj
 0002:0000cd5c       $unwind$common_control87   0000000180032d5c     libucrt:ieee.obj
 0002:0000cd88       $unwind$_call_matherr      0000000180032d88     libucrt:libm_error.obj
 0002:0000cd90       $unwind$_handle_error      0000000180032d90     libucrt:libm_error.obj
 0002:0000cdb0       $unwind$__acrt_initialize_fma3 0000000180032db0     libucrt:fma3_available.obj
 0002:0000cdb8       $unwind$_log_special_common 0000000180032db8     libucrt:log_special.obj
 0002:0000cdc4       $unwind$_close_internal    0000000180032dc4     libucrt:close.obj
 0002:0000cdcc       $unwind$??$?RV<lambda_ad8af0d99a0adf03d037d7dffe354bb5>@@AEAV<lambda_c9ba49e555ba839a7b07aa3fbecb7617>@@V<lambda_2f1ebd5d68526518146ae959c9e734c8>@@@?$__crt_seh_guarded_call@H@@QEAAH$$QEAV<lambda_ad8af0d99a0adf03d037d7dffe354bb5>@@AEAV<lambda_c9ba49e555ba839a7b07aa3fbecb7617>@@$$QEAV<lambda_2f1ebd5d68526518146ae959c9e734c8>@@@Z 0000000180032dcc     libucrt:close.obj
 0002:0000cdf0       $xdatasym                  0000000180032df0     libucrt:fpsr.obj
 0002:0000cdf8       $unwind$_raise_exc_ex      0000000180032df8     libucrt:fpexcept.obj
 0002:0000ce0c       $unwind$_ctrlfp            0000000180032e0c     libucrt:fpctrl.obj
 0002:0000ce34       $unwind$_IsNonwritableInCurrentImage 0000000180032e34     LIBCMT:pesect.obj
 0002:0000ce58       $unwind$strrchr            0000000180032e58     libvcruntime:strrchr.obj
 0002:0000cfc0       .edata                     0000000180032fc0     OPOSCashChanger.exp
 0002:0000cfe8       rgpv                       0000000180032fe8     OPOSCashChanger.exp
 0002:0000cff8       rgszName                   0000000180032ff8     OPOSCashChanger.exp
 0002:0000d008       rgwOrd                     0000000180033008     OPOSCashChanger.exp
 0002:0000d010       szName                     0000000180033010     OPOSCashChanger.exp
 0002:0000d024       $N00001                    0000000180033024     OPOSCashChanger.exp
 0002:0000d034       $N00002                    0000000180033034     OPOSCashChanger.exp
 0002:0000d046       $N00003                    0000000180033046     OPOSCashChanger.exp
 0002:0000d058       $N00004                    0000000180033058     OPOSCashChanger.exp
 0002:0000d9a2       .idata$6                   00000001800339a2     kernel32:KERNEL32.dll
 0002:0000dbba       .idata$6                   0000000180033bba     user32:USER32.dll
 0002:0000dcee       .idata$6                   0000000180033cee     gdi32:GDI32.dll
 0002:0000dd94       .idata$6                   0000000180033d94     advapi32:ADVAPI32.dll
 0002:0000deb0       .idata$6                   0000000180033eb0     ole32:ole32.dll
 0002:0000deba       .idata$6                   0000000180033eba     oleaut32:OLEAUT32.dll
 0003:000001c0       ?ObjectMap@@3PAU_ATL_OBJMAP_ENTRY30@ATL@@A 00000001800351c0     CashChanger.obj
 0003:000002d0       ?s_SOMethodNames@@3PAPEADA 00000001800352d0     CashChangerImpl.obj
 0003:000003a0       ?s_RequiredMethodsPerRelease@@3PAHA 00000001800353a0     CashChangerImpl.obj
 0003:00000400       ?__vcrt_flsindex@@3KA      0000000180035400     libvcruntime:per_thread_data.obj
 0003:00000410       ?errno_no_memory@@3HA      0000000180035410     libucrt:errno.obj
 0003:00000414       ?doserrno_no_memory@@3KA   0000000180035414     libucrt:errno.obj
 0003:00000420       ?__acrt_flsindex@@3KA      0000000180035420     libucrt:per_thread_data.obj
 0003:000008e0       _mbctypes                  00000001800358e0     libucrt:mbctype.obj
 0003:000009f0       _mbcasemaps                00000001800359f0     libucrt:mbctype.obj
 0003:00000af0       ?__rgctypeflag@@3PADA      0000000180035af0     libucrt:mbctype.obj
 0003:00000b00       ?__rgcode_page_info@@3PAUcode_page_info@@A 0000000180035b00     libucrt:mbctype.obj
 0003:00000da0       ?dazSupported@?1??common_control87@@9@9 0000000180035da0     libucrt:ieee.obj
 0003:00000db0       ?__dcrt_lowio_console_output_handle@@3PEAXEA 0000000180035db0     libucrt:initcon.obj
 0003:00000dc0       ?dazSupported@?1??_ctrlfp@@9@9 0000000180035dc0     libucrt:fpctrl.obj
 0003:00001010       ?is_initialized_as_dll@@3_NA 0000000180036010     LIBCMT:utility.obj
 0003:00001011       ?module_local_atexit_table_initialized@@3_NA 0000000180036011     LIBCMT:utility.obj
 0003:00001018       ?module_local_atexit_table@@3U_onexit_table_t@@A 0000000180036018     LIBCMT:utility.obj
 0003:00001030       ?module_local_at_quick_exit_table@@3U_onexit_table_t@@A 0000000180036030     LIBCMT:utility.obj
 0003:00001048       ?g_tss_cv@@3U_RTL_CONDITION_VARIABLE@@A 0000000180036048     LIBCMT:thread_safe_statics.obj
 0003:00001050       ?g_tss_event@@3PEAXEA      0000000180036050     LIBCMT:thread_safe_statics.obj
 0003:00001058       ?g_tss_mutex@@3U_RTL_CRITICAL_SECTION@@A 0000000180036058     LIBCMT:thread_safe_statics.obj
 0003:00001080       ?g_sleep_condition_variable_cs@@3P6AHPEAU_RTL_CONDITION_VARIABLE@@PEAU_RTL_CRITICAL_SECTION@@K@ZEA 0000000180036080     LIBCMT:thread_safe_statics.obj
 0003:00001088       ?g_wake_all_condition_variable@@3P6AXPEAU_RTL_CONDITION_VARIABLE@@@ZEA 0000000180036088     LIBCMT:thread_safe_statics.obj
 0003:00001090       GS_ExceptionRecord         0000000180036090     LIBCMT:gs_report.obj
 0003:00001130       GS_ContextRecord           0000000180036130     LIBCMT:gs_report.obj
 0003:00001604       ?__proc_attached@@3HA      0000000180036604     LIBCMT:dll_dllmain.obj
 0003:00001698       ?AllocateData@@3P6APEAUAtlThunkData_t@@XZEA 0000000180036698     atls:atlthunk.obj
 0003:000016a0       ?InitData@@3P6AXPEAUAtlThunkData_t@@PEAX_K@ZEA 00000001800366a0     atls:atlthunk.obj
 0003:000016a8       ?DataToCode@@3P6AP6A_JPEAUHWND__@@I_K_J@ZPEAUAtlThunkData_t@@@ZEA 00000001800366a8     atls:atlthunk.obj
 0003:000016b0       ?FreeData@@3P6AXPEAUAtlThunkData_t@@@ZEA 00000001800366b0     atls:atlthunk.obj
 0003:000016b8       ?Initialized@@3_NA         00000001800366b8     atls:atlthunk.obj
 0003:000016d0       ?__vcrt_startup_thread_ptd@@3U__vcrt_ptd@@A 00000001800366d0     libvcruntime:per_thread_data.obj
 0003:00001750       __vcrt_lock_table          0000000180036750     libvcruntime:locks.obj
 0003:00001778       __vcrt_locks_initialized   0000000180036778     libvcruntime:locks.obj
 0003:000017c0       ?heap@@3V_HeapManager@@A   00000001800367c0     libvcruntime:undname.obj
 0003:000017e8       ?module_handles@@3PAPEAUHINSTANCE__@@A 00000001800367e8     libvcruntime:winapi_downlevel.obj
 0003:00001800       ?function_pointers@@3PAPEAXA 0000000180036800     libvcruntime:winapi_downlevel.obj
 0003:00001828       ?__acrt_invalid_parameter_handler@@3V?$dual_state_global@P6AXPEB_W00I_K@Z@__crt_state_management@@A 0000000180036828     libucrt:invalid_parameter.obj
 0003:00001830       ?c_termination_complete@@3JA 0000000180036830     libucrt:exit.obj
 0003:00001838       ?thread_local_exit_callback_func@@3P6AXPEAXK0@ZEA 0000000180036838     libucrt:exit.obj
 0003:00001850       ?program_name@?1???$common_configure_argv@D@@YAHW4_crt_argv_mode@@@Z@4PADA 0000000180036850     libucrt:argv_parsing.obj
 0003:000019a8       ?__acrt_new_handler@@3V?$dual_state_global@P6AH_K@Z@__crt_state_management@@A 00000001800369a8     libucrt:new_handler.obj
 0003:000019c0       ?module_handles@@3PAPEAUHINSTANCE__@@A 00000001800369c0     libucrt:winapi_thunks.obj
 0003:00001a60       ?encoded_function_pointers@@3PAPEAXA 0000000180036a60     libucrt:winapi_thunks.obj
 0003:00001b50       ?internal_state@?1??_mbtowc_internal@@9@4U_Mbstatet@@A 0000000180036b50     libucrt:mbtowc.obj
 0003:00001b68       ?enable_percent_n@@3_KA    0000000180036b68     libucrt:printf_count_output.obj
 0003:00001f90       ?__acrt_lock_table@@3PAU_RTL_CRITICAL_SECTION@@A 0000000180036f90     libucrt:locks.obj
 0003:000021c0       ?__acrt_locks_initialized@@3IA 00000001800371c0     libucrt:locks.obj
 0003:000021e0       ?fSystemSet@@3HA           00000001800371e0     libucrt:mbctype.obj
 0003:000021e4       ?initialized@?1??__acrt_initialize_multibyte@@9@4_NA 00000001800371e4     libucrt:mbctype.obj
 0003:00002220       ?ctrlc_action@@3V?$dual_state_global@P6AXH@Z@__crt_state_management@@A 0000000180037220     libucrt:signal.obj
 0003:00002228       ?ctrlbreak_action@@3V?$dual_state_global@P6AXH@Z@__crt_state_management@@A 0000000180037228     libucrt:signal.obj
 0003:00002230       ?abort_action@@3V?$dual_state_global@P6AXH@Z@__crt_state_management@@A 0000000180037230     libucrt:signal.obj
 0003:00002238       ?term_action@@3V?$dual_state_global@P6AXH@Z@__crt_state_management@@A 0000000180037238     libucrt:signal.obj
 0003:00002240       ?user_matherr@@3V?$dual_state_global@P6AHPEAU_exception@@@Z@__crt_state_management@@A 0000000180037240     libucrt:matherr.obj
 0003:00002250       ?__acrt_global_new_mode@@3V?$dual_state_global@J@__crt_state_management@@A 0000000180037250     libucrt:new_mode.obj
 0003:00002258       ?internal_pst@?1??__mbrtoc32_utf8@__crt_mbstring@@YA_KPEA_UPEBD_KPEAU_Mbstatet@@AEAV__crt_cached_ptd_host@@@Z@4U3@A 0000000180037258     libucrt:mbrtoc32.obj
 0003:00002260       ?__acrt_app_type@@3W4_crt_app_type@@A 0000000180037260     libucrt:report_runtime_error.obj
 0005:00000000       MoveSmall                  000000018003b000     libvcruntime:memcpy.obj
 0005:00000040       MoveSmallYmm               000000018003b040     libvcruntime:memcpy.obj
 0005:00000064       MoveSmallYmmNT             000000018003b064     libvcruntime:memcpy.obj
 0005:00000088       MoveSmallXmm               000000018003b088     libvcruntime:memcpy.obj
 0005:000000b0       MsetTab                    000000018003b0b0     libvcruntime:memset.obj
 0006:00000220       $R000000                   000000018003c220     CashChanger.res
 0006:00000bc0       $R0009A0                   000000018003cbc0     CashChanger.res
 0006:00000ca8       $R000A88                   000000018003cca8     CashChanger.res
 0006:00000f10       $R000CF0                   000000018003cf10     CashChanger.res
 0006:00001480       $R001260                   000000018003d480     CashChanger.res
 0006:00004f00       $R004CE0                   0000000180040f00     CashChanger.res
 0006:00004f38       $R004D18                   0000000180040f38     CashChanger.res
