 OPOSScanner

 Timestamp is 5d429fca (Thu Aug  1 17:16:10 2019)

 Preferred load address is 0000000180000000

 Start         Length     Name                   Class
 0001:00000000 000000c0H .text$di                CODE
 0001:000000c0 0001fd90H .text$mn                CODE
 0001:0001fe50 00000020H .text$mn$00             CODE
 0001:0001fe70 00000400H .text$x                 CODE
 0001:00020270 000000c0H .text$yd                CODE
 0002:00000000 00000618H .idata$5                DATA
 0002:00000618 00000010H .00cfg                  DATA
 0002:00000628 00000008H .CRT$XCA                DATA
 0002:00000630 00000008H .CRT$XCL                DATA
 0002:00000638 00000020H .CRT$XCU                DATA
 0002:00000658 00000008H .CRT$XCZ                DATA
 0002:00000660 00000008H .CRT$XIA                DATA
 0002:00000668 00000020H .CRT$XIC                DATA
 0002:00000688 00000008H .CRT$XIZ                DATA
 0002:00000690 00000008H .CRT$XLA                DATA
 0002:00000698 00000008H .CRT$XLZ                DATA
 0002:000006a0 00000008H .CRT$XPA                DATA
 0002:000006a8 00000010H .CRT$XPX                DATA
 0002:000006b8 00000008H .CRT$XPXA               DATA
 0002:000006c0 00000008H .CRT$XPZ                DATA
 0002:000006c8 00000008H .CRT$XTA                DATA
 0002:000006d0 00000010H .CRT$XTZ                DATA
 0002:000006d8 00000000H .gfids$y                DATA
 0002:000006e0 0000a028H .rdata                  DATA
 0002:0000a708 00000028H .rdata$T                DATA
 0002:0000a730 00000274H .rdata$r                DATA
 0002:0000a9a4 00000404H .rdata$zzzdbg           DATA
 0002:0000ada8 00000008H .rtc$IAA                DATA
 0002:0000adb0 00000008H .rtc$IZZ                DATA
 0002:0000adb8 00000008H .rtc$TAA                DATA
 0002:0000adc0 00000008H .rtc$TZZ                DATA
 0002:0000adc8 00000004H .tls                    DATA
 0002:0000adcc 00000004H .tls$                   DATA
 0002:0000add0 00000008H .tls$ZZZ                DATA
 0002:0000add8 00001618H .xdata                  DATA
 0002:0000c3f0 00000150H .xdata$x                DATA
 0002:0000c540 00000008H ATL$__a                 DATA
 0002:0000c548 00000008H ATL$__z                 DATA
 0002:0000c550 000000a8H .edata                  DATA
 0002:0000c5f8 00000078H .idata$2                DATA
 0002:0000c670 00000018H .idata$3                DATA
 0002:0000c688 00000618H .idata$4                DATA
 0002:0000cca0 00000c24H .idata$6                DATA
 0003:00000000 00000d68H .data                   DATA
 0003:00000d68 000000c8H .data$r                 DATA
 0003:00000e30 0000140cH .bss                    DATA
 0004:00000000 00001e54H .pdata                  DATA
 0005:00000000 00000094H _RDATA                  DATA
 0006:00000000 00000220H .rsrc$01                DATA
 0006:00000220 00003b90H .rsrc$02                DATA

  Address         Publics by Value              Rva+Base               Lib:Object

 0000:00000000       __guard_fids_count         0000000000000000     <absolute>
 0000:00000000       __guard_longjmp_count      0000000000000000     <absolute>
 0000:00000000       __guard_longjmp_table      0000000000000000     <absolute>
 0000:00000000       __hybrid_code_map          0000000000000000     <absolute>
 0000:00000000       __guard_iat_count          0000000000000000     <absolute>
 0000:00000000       __guard_iat_table          0000000000000000     <absolute>
 0000:00000000       __volatile_metadata        0000000000000000     <absolute>
 0000:00000000       __hybrid_code_map_count    0000000000000000     <absolute>
 0000:00000000       __enclave_config           0000000000000000     <absolute>
 0000:00000000       ___safe_se_handler_count   0000000000000000     <absolute>
 0000:00000000       __AbsoluteZero             0000000000000000     <absolute>
 0000:00000000       ___safe_se_handler_table   0000000000000000     <absolute>
 0000:00000000       __guard_fids_table         0000000000000000     <absolute>
 0000:00000000       __hybrid_auxiliary_iat     0000000000000000     <absolute>
 0000:00000000       __dynamic_value_reloc_table 0000000000000000     <absolute>
 0000:00000100       __guard_flags              0000000000000100     <absolute>
 0000:00000000       __ImageBase                0000000180000000     <linker-defined>
 0001:000000c0       ?DupWide@_CW@@AEAAXXZ      00000001800010c0 f   CWString.obj
 0001:000000e8       ?cw_dup@@YAXPEBDAEAHAEAPEA_W1@Z 00000001800010e8 f   CWString.obj
 0001:00000194       ?cw_memcpy@@YAHPEA_WPEBDH@Z 0000000180001194 f   CWString.obj
 0001:000001e0       ?cw_strcpy@@YAHPEA_WPEBD@Z 00000001800011e0 f   CWString.obj
 0001:000001f4       ??0CAtlComModule@ATL@@QEAA@XZ 00000001800011f4 f i OposVariant.obj
 0001:00000274       ??0CAtlWinModule@ATL@@QEAA@XZ 0000000180001274 f i OposVariant.obj
 0001:000002e0       ??0OposDispParms@@QEAA@PEAVOposVariant@@H@Z 00000001800012e0 f   OposVariant.obj
 0001:00000388       ??1OposDispParms@@QEAA@XZ  0000000180001388 f   OposVariant.obj
 0001:000003a0       ??_Estringdispid@CComTypeInfoHolder@ATL@@QEAAPEAXI@Z 00000001800013a0 f i OposVariant.obj
 0001:00000444       ?AtlWinModuleTerm@ATL@@YAJPEAU_ATL_WIN_MODULE70@1@PEAUHINSTANCE__@@@Z 0000000180001444 f i OposVariant.obj
 0001:000004f4       ?ChangeBSTR@OposVariant@@QEAAXPEAPEA_WAEAJ@Z 00000001800014f4 f   OposVariant.obj
 0001:00000554       ?ChangeLONG@OposVariant@@QEAAXPEAJAEAJ@Z 0000000180001554 f   OposVariant.obj
 0001:000005b0       ?GetLONG@OposVariant@@QEAAJXZ 00000001800015b0 f   OposVariant.obj
 0001:000005d4       ?SetBSTR@OposVariant@@QEAAXPEA_WAEAJ@Z 00000001800015d4 f   OposVariant.obj
 0001:00000614       ?SetBSTR_Copy@OposVariant@@QEAAXPEA_WAEAJ@Z 0000000180001614 f   OposVariant.obj
 0001:00000684       ?SetBSTR_InOutPtr@OposVariant@@QEAA_NPEAPEA_WAEAJ@Z 0000000180001684 f   OposVariant.obj
 0001:000006d4       ?SetDispatch_Ptr@OposVariant@@QEAAXPEAUIDispatch@@AEAJ@Z 00000001800016d4 f   OposVariant.obj
 0001:0000072c       ?SetLONG@OposVariant@@QEAAXJ@Z 000000018000172c f   OposVariant.obj
 0001:0000075c       ?SetLONG_Ptr@OposVariant@@QEAAXPEAJAEAJ@Z 000000018000175c f   OposVariant.obj
 0001:000007a8       ?SetString@OposVariant@@QEAAXPEB_WAEAJ@Z 00000001800017a8 f   OposVariant.obj
 0001:0000080c       ?SetVARIANT_BOOL@OposVariant@@QEAAXF@Z 000000018000180c f   OposVariant.obj
 0001:00000844       ?Term@CAtlComModule@ATL@@QEAAXXZ 0000000180001844 f i OposVariant.obj
 0001:000008b4       ?_AtlInitializeCriticalSectionEx@ATL@@YAHPEAU_RTL_CRITICAL_SECTION@@KK@Z 00000001800018b4 f i OposVariant.obj
 0001:000008bc       ?_AtlRaiseException@ATL@@YAXKK@Z 00000001800018bc f i OposVariant.obj
 0001:000008cc       ?AddRef@?$CComObjectCached@VCComClassFactory@ATL@@@ATL@@UEAAKXZ 00000001800018cc f i Scanner.obj
 0001:000008f8       ?Release@?$CComObjectCached@VCComClassFactory@ATL@@@ATL@@UEAAKXZ 00000001800018f8 f i Scanner.obj
 0001:00000938       ?QueryInterface@?$CComObjectCached@VCComClassFactory@ATL@@@ATL@@UEAAJAEBU_GUID@@PEAPEAX@Z 0000000180001938 f i Scanner.obj
 0001:0000094c       ??_E?$CComObjectCached@VCComClassFactory@ATL@@@ATL@@UEAAPEAXI@Z 000000018000194c f i Scanner.obj
 0001:0000094c       ??_G?$CComObjectCached@VCComClassFactory@ATL@@@ATL@@UEAAPEAXI@Z 000000018000194c f i Scanner.obj
 0001:000009a4       ?AddRef@?$CComAggObject@VCOPOSScanner@@@ATL@@UEAAKXZ 00000001800019a4 f i Scanner.obj
 0001:000009b0       ?Release@?$CComAggObject@VCOPOSScanner@@@ATL@@UEAAKXZ 00000001800019b0 f i Scanner.obj
 0001:00000a04       ?QueryInterface@?$CComAggObject@VCOPOSScanner@@@ATL@@UEAAJAEBU_GUID@@PEAPEAX@Z 0000000180001a04 f i Scanner.obj
 0001:00000a64       ?AddRef@?$CComContainedObject@VCOPOSScanner@@@ATL@@UEAAKXZ 0000000180001a64 f i Scanner.obj
 0001:00000a74       ?Release@?$CComContainedObject@VCOPOSScanner@@@ATL@@UEAAKXZ 0000000180001a74 f i Scanner.obj
 0001:00000a84       ?QueryInterface@?$CComContainedObject@VCOPOSScanner@@@ATL@@UEAAJAEBU_GUID@@PEAPEAX@Z 0000000180001a84 f i Scanner.obj
 0001:00000a94       ??_E?$CComAggObject@VCOPOSScanner@@@ATL@@UEAAPEAXI@Z 0000000180001a94 f i Scanner.obj
 0001:00000a94       ??_G?$CComAggObject@VCOPOSScanner@@@ATL@@UEAAPEAXI@Z 0000000180001a94 f i Scanner.obj
 0001:00000aec       ?AddRef@?$CComObject@VCOPOSScanner@@@ATL@@UEAAKXZ 0000000180001aec f i Scanner.obj
 0001:00000afc       ?Release@?$CComObject@VCOPOSScanner@@@ATL@@UEAAKXZ 0000000180001afc f i Scanner.obj
 0001:00000b54       ?QueryInterface@?$CComObject@VCOPOSScanner@@@ATL@@UEAAJAEBU_GUID@@PEAPEAX@Z 0000000180001b54 f i Scanner.obj
 0001:00000b68       ?Lock@CAtlModule@ATL@@UEAAJXZ 0000000180001b68 f i Scanner.obj
 0001:00000b78       ?Unlock@CAtlModule@ATL@@UEAAJXZ 0000000180001b78 f i Scanner.obj
 0001:00000b84       ?GetLockCount@CAtlModule@ATL@@UEAAJXZ 0000000180001b84 f i Scanner.obj
 0001:00000b88       ?GetGITPtr@CAtlModule@ATL@@UEAAJPEAPEAUIGlobalInterfaceTable@@@Z 0000000180001b88 f i Scanner.obj
 0001:00000bf8       ?AddCommonRGSReplacements@?$CAtlModuleT@VCComModule@ATL@@@ATL@@UEAAJPEAUIRegistrarBase@@@Z 0000000180001bf8 f i Scanner.obj
 0001:00000c10       ?UpdateRegistryFromResourceD@CComModule@ATL@@UEAAJPEB_WHPEAU_ATL_REGMAP_ENTRY@2@@Z 0000000180001c10 f i Scanner.obj
 0001:00000c10       ?UpdateRegistryFromResourceD@CComModule@ATL@@UEAAJIHPEAU_ATL_REGMAP_ENTRY@2@@Z 0000000180001c10 f i Scanner.obj
 0001:00000c18       ?UpdateRegistryFromResource@CComModule@ATL@@UEAAJPEB_WHPEAU_ATL_REGMAP_ENTRY@2@@Z 0000000180001c18 f i Scanner.obj
 0001:00000c20       ?OnDrawAdvanced@CComControlBase@ATL@@UEAAJAEAUATL_DRAWINFO@@@Z 0000000180001c20 f i Scanner.obj
 0001:00000d40       ?UpdateRegistryFromResource@CComModule@ATL@@UEAAJIHPEAU_ATL_REGMAP_ENTRY@2@@Z 0000000180001d40 f i Scanner.obj
 0001:00000d48       ??_ECComModule@ATL@@UEAAPEAXI@Z 0000000180001d48 f i Scanner.obj
 0001:00000d48       ??_GCComModule@ATL@@UEAAPEAXI@Z 0000000180001d48 f i Scanner.obj
 0001:00000dc8       ?Next@?$CComEnumImpl@UIEnumConnections@@$1?_GUID_b196b287_bab4_101a_b69c_00aa00341d07@@3U__s_GUID@@BUtagCONNECTDATA@@V?$_Copy@UtagCONNECTDATA@@@ATL@@@ATL@@UEAAJKPEAUtagCONNECTDATA@@PEAK@Z 0000000180001dc8 f i Scanner.obj
 0001:00000e9c       ?Skip@?$CComEnumImpl@UIEnumConnections@@$1?_GUID_b196b287_bab4_101a_b69c_00aa00341d07@@3U__s_GUID@@BUtagCONNECTDATA@@V?$_Copy@UtagCONNECTDATA@@@ATL@@@ATL@@UEAAJK@Z 0000000180001e9c f i Scanner.obj
 0001:00000ec8       ?Reset@?$CComEnumImpl@UIEnumConnectionPoints@@$1?_GUID_b196b285_bab4_101a_b69c_00aa00341d07@@3U__s_GUID@@BPEAUIConnectionPoint@@V?$_CopyInterface@UIConnectionPoint@@@ATL@@@ATL@@UEAAJXZ 0000000180001ec8 f i Scanner.obj
 0001:00000ec8       ?Reset@?$CComEnumImpl@UIEnumConnections@@$1?_GUID_b196b287_bab4_101a_b69c_00aa00341d07@@3U__s_GUID@@BUtagCONNECTDATA@@V?$_Copy@UtagCONNECTDATA@@@ATL@@@ATL@@UEAAJXZ 0000000180001ec8 f i Scanner.obj
 0001:00000ed4       ?Clone@?$CComEnumImpl@UIEnumConnections@@$1?_GUID_b196b287_bab4_101a_b69c_00aa00341d07@@3U__s_GUID@@BUtagCONNECTDATA@@V?$_Copy@UtagCONNECTDATA@@@ATL@@@ATL@@UEAAJPEAPEAUIEnumConnections@@@Z 0000000180001ed4 f i Scanner.obj
 0001:00001000       ?AddRef@?$CComObject@V?$CComEnum@UIEnumConnections@@$1?_GUID_b196b287_bab4_101a_b69c_00aa00341d07@@3U__s_GUID@@BUtagCONNECTDATA@@V?$_Copy@UtagCONNECTDATA@@@ATL@@VCComSingleThreadModel@6@@ATL@@@ATL@@UEAAKXZ 0000000180002000 f i Scanner.obj
 0001:00001000       ?AddRef@?$CComObject@V?$CComEnum@UIEnumConnectionPoints@@$1?_GUID_b196b285_bab4_101a_b69c_00aa00341d07@@3U__s_GUID@@BPEAUIConnectionPoint@@V?$_CopyInterface@UIConnectionPoint@@@ATL@@VCComSingleThreadModel@6@@ATL@@@ATL@@UEAAKXZ 0000000180002000 f i Scanner.obj
 0001:0000100c       ?Release@?$CComObject@V?$CComEnum@UIEnumConnections@@$1?_GUID_b196b287_bab4_101a_b69c_00aa00341d07@@3U__s_GUID@@BUtagCONNECTDATA@@V?$_Copy@UtagCONNECTDATA@@@ATL@@VCComSingleThreadModel@6@@ATL@@@ATL@@UEAAKXZ 000000018000200c f i Scanner.obj
 0001:0000100c       ?Release@?$CComObject@V?$CComEnum@UIEnumConnectionPoints@@$1?_GUID_b196b285_bab4_101a_b69c_00aa00341d07@@3U__s_GUID@@BPEAUIConnectionPoint@@V?$_CopyInterface@UIConnectionPoint@@@ATL@@VCComSingleThreadModel@6@@ATL@@@ATL@@UEAAKXZ 000000018000200c f i Scanner.obj
 0001:00001060       ?QueryInterface@?$CComObject@V?$CComEnum@UIEnumConnections@@$1?_GUID_b196b287_bab4_101a_b69c_00aa00341d07@@3U__s_GUID@@BUtagCONNECTDATA@@V?$_Copy@UtagCONNECTDATA@@@ATL@@VCComSingleThreadModel@6@@ATL@@@ATL@@UEAAJAEBU_GUID@@PEAPEAX@Z 0000000180002060 f i Scanner.obj
 0001:00001074       ??_E?$CComObject@V?$CComEnum@UIEnumConnections@@$1?_GUID_b196b287_bab4_101a_b69c_00aa00341d07@@3U__s_GUID@@BUtagCONNECTDATA@@V?$_Copy@UtagCONNECTDATA@@@ATL@@VCComSingleThreadModel@6@@ATL@@@ATL@@UEAAPEAXI@Z 0000000180002074 f i Scanner.obj
 0001:00001074       ??_G?$CComObject@V?$CComEnum@UIEnumConnections@@$1?_GUID_b196b287_bab4_101a_b69c_00aa00341d07@@3U__s_GUID@@BUtagCONNECTDATA@@V?$_Copy@UtagCONNECTDATA@@@ATL@@VCComSingleThreadModel@6@@ATL@@@ATL@@UEAAPEAXI@Z 0000000180002074 f i Scanner.obj
 0001:000010cc       ?GetDataHere@?$IDataObjectImpl@VCOPOSScanner@@@ATL@@UEAAJPEAUtagFORMATETC@@PEAUtagSTGMEDIUM@@@Z 00000001800020cc f i Scanner.obj
 0001:000010cc       ?ReactivateAndUndo@?$IOleInPlaceObjectWindowlessImpl@VCOPOSScanner@@@ATL@@UEAAJXZ 00000001800020cc f i Scanner.obj
 0001:000010cc       ?SetMoniker@?$IOleObjectImpl@VCOPOSScanner@@@ATL@@UEAAJKPEAUIMoniker@@@Z 00000001800020cc f i Scanner.obj
 0001:000010cc       ?InitFromData@?$IOleObjectImpl@VCOPOSScanner@@@ATL@@UEAAJPEAUIDataObject@@HK@Z 00000001800020cc f i Scanner.obj
 0001:000010cc       ?EnumFormatEtc@?$IDataObjectImpl@VCOPOSScanner@@@ATL@@UEAAJKPEAPEAUIEnumFORMATETC@@@Z 00000001800020cc f i Scanner.obj
 0001:000010cc       ?Unfreeze@?$IViewObjectExImpl@VCOPOSScanner@@@ATL@@UEAAJK@Z 00000001800020cc f i Scanner.obj
 0001:000010cc       ?SetColorScheme@?$IOleObjectImpl@VCOPOSScanner@@@ATL@@UEAAJPEAUtagLOGPALETTE@@@Z 00000001800020cc f i Scanner.obj
 0001:000010cc       ?GetControlInfo@?$IOleControlImpl@VCOPOSScanner@@@ATL@@UEAAJPEAUtagCONTROLINFO@@@Z 00000001800020cc f i Scanner.obj
 0001:000010cc       ?GetClipboardData@?$IOleObjectImpl@VCOPOSScanner@@@ATL@@UEAAJKPEAPEAUIDataObject@@@Z 00000001800020cc f i Scanner.obj
 0001:000010cc       ?GetColorSet@?$IViewObjectExImpl@VCOPOSScanner@@@ATL@@UEAAJKJPEAXPEAUtagDVTARGETDEVICE@@PEAUHDC__@@PEAPEAUtagLOGPALETTE@@@Z 00000001800020cc f i Scanner.obj
 0001:000010cc       ?SetData@?$IDataObjectImpl@VCOPOSScanner@@@ATL@@UEAAJPEAUtagFORMATETC@@PEAUtagSTGMEDIUM@@H@Z 00000001800020cc f i Scanner.obj
 0001:000010cc       ?GetCanonicalFormatEtc@?$IDataObjectImpl@VCOPOSScanner@@@ATL@@UEAAJPEAUtagFORMATETC@@0@Z 00000001800020cc f i Scanner.obj
 0001:000010cc       ?GetRect@?$IViewObjectExImpl@VCOPOSScanner@@@ATL@@UEAAJKPEAU_RECTL@@@Z 00000001800020cc f i Scanner.obj
 0001:000010cc       ?SOOutputCompleteDummy@COPOSScanner@@MEAAJJ@Z 00000001800020cc f i Scanner.obj
 0001:000010cc       ?ContextSensitiveHelp@?$IOleInPlaceObjectWindowlessImpl@VCOPOSScanner@@@ATL@@UEAAJH@Z 00000001800020cc f i Scanner.obj
 0001:000010cc       ?QueryGetData@?$IDataObjectImpl@VCOPOSScanner@@@ATL@@UEAAJPEAUtagFORMATETC@@@Z 00000001800020cc f i Scanner.obj
 0001:000010cc       ?GetMoniker@?$IOleObjectImpl@VCOPOSScanner@@@ATL@@UEAAJKKPEAPEAUIMoniker@@@Z 00000001800020cc f i Scanner.obj
 0001:000010cc       ?ContextSensitiveHelp@?$IOleInPlaceActiveObjectImpl@VCOPOSScanner@@@ATL@@UEAAJH@Z 00000001800020cc f i Scanner.obj
 0001:000010cc       ?OnMnemonic@?$IOleControlImpl@VCOPOSScanner@@@ATL@@UEAAJPEAUtagMSG@@@Z 00000001800020cc f i Scanner.obj
 0001:000010cc       ?GetDropTarget@?$IOleInPlaceObjectWindowlessImpl@VCOPOSScanner@@@ATL@@UEAAJPEAPEAUIDropTarget@@@Z 00000001800020cc f i Scanner.obj
 0001:000010cc       ?QueryInterface@CRegObject@ATL@@UEAAJAEBU_GUID@@PEAPEAX@Z 00000001800020cc f i Scanner.obj
 0001:000010cc       ?Freeze@?$IViewObjectExImpl@VCOPOSScanner@@@ATL@@UEAAJKJPEAXPEAK@Z 00000001800020cc f i Scanner.obj
 0001:000010d4       _get_startup_argv_mode     00000001800020d4 f i LIBCMT:argv_mode.obj
 0001:000010d4       ?AddRef@CRegObject@ATL@@UEAAKXZ 00000001800020d4 f i Scanner.obj
 0001:000010d4       ?FAccessAllowed@?$IObjectSafetyImpl@VCOPOSScanner@@$02@ATL@@MEAAHXZ 00000001800020d4 f i Scanner.obj
 0001:000010dc       ?GetCategoryMap@CComObjectRootBase@ATL@@SAPEBU_ATL_CATMAP_ENTRY@2@XZ 00000001800020dc f i Scanner.obj
 0001:000010dc       ?Release@CRegObject@ATL@@UEAAKXZ 00000001800020dc f i Scanner.obj
 0001:000010dc       ?IsUpToDate@?$IOleObjectImpl@VCOPOSScanner@@@ATL@@UEAAJXZ 00000001800020dc f i Scanner.obj
 0001:000010dc       ?SaveCompleted@?$IPersistStorageImpl@VCOPOSScanner@@@ATL@@UEAAJPEAUIStorage@@@Z 00000001800020dc f i Scanner.obj
 0001:000010dc       ?OnAmbientPropertyChange@?$IOleControlImpl@VCOPOSScanner@@@ATL@@UEAAJJ@Z 00000001800020dc f i Scanner.obj
 0001:000010dc       ?GetObjectDescription@?$CComCoClass@VCOPOSScanner@@$1?CLSID_OPOSScanner@@3U_GUID@@B@ATL@@SAPEB_WXZ 00000001800020dc f i Scanner.obj
 0001:000010dc       ?HandsOffStorage@?$IPersistStorageImpl@VCOPOSScanner@@@ATL@@UEAAJXZ 00000001800020dc f i Scanner.obj
 0001:000010dc       ?ResizeBorder@?$IOleInPlaceActiveObjectImpl@VCOPOSScanner@@@ATL@@UEAAJPEBUtagRECT@@PEAUIOleInPlaceUIWindow@@H@Z 00000001800020dc f i Scanner.obj
 0001:000010dc       ?Update@?$IOleObjectImpl@VCOPOSScanner@@@ATL@@UEAAJXZ 00000001800020dc f i Scanner.obj
 0001:000010dc       ?SetHostNames@?$IOleObjectImpl@VCOPOSScanner@@@ATL@@UEAAJPEB_W0@Z 00000001800020dc f i Scanner.obj
 0001:000010dc       ?OnFrameWindowActivate@?$IOleInPlaceActiveObjectImpl@VCOPOSScanner@@@ATL@@UEAAJH@Z 00000001800020dc f i Scanner.obj
 0001:000010dc       ?EnableModeless@?$IOleInPlaceActiveObjectImpl@VCOPOSScanner@@@ATL@@UEAAJH@Z 00000001800020dc f i Scanner.obj
 0001:000010e0       ?AddReplacement@CRegObject@ATL@@UEAAJPEB_W0@Z 00000001800020e0 f i Scanner.obj
 0001:00001110       ?ClearReplacements@CRegObject@ATL@@UEAAJXZ 0000000180002110 f i Scanner.obj
 0001:0000111c       ??_ECRegObject@ATL@@UEAAPEAXI@Z 000000018000211c f i Scanner.obj
 0001:0000111c       ??_GCRegObject@ATL@@UEAAPEAXI@Z 000000018000211c f i Scanner.obj
 0001:0000119c       ??_E?$CComObject@VCOPOSScanner@@@ATL@@W7EAAPEAXI@Z 000000018000219c f i Scanner.obj
 0001:000011a8       ??_E?$CComObject@VCOPOSScanner@@@ATL@@WHA@EAAPEAXI@Z 00000001800021a8 f i Scanner.obj
 0001:000011b4       ?QueryInterface@?$CComObject@VCOPOSScanner@@@ATL@@WLI@EAAJAEBU_GUID@@PEAPEAX@Z 00000001800021b4 f i Scanner.obj
 0001:000011c0       ?AddRef@?$CComObject@VCOPOSScanner@@@ATL@@WLI@EAAKXZ 00000001800021c0 f i Scanner.obj
 0001:000011cc       ?Release@?$CComObject@VCOPOSScanner@@@ATL@@WLI@EAAKXZ 00000001800021cc f i Scanner.obj
 0001:000011d8       ?QueryInterface@?$CComObject@VCOPOSScanner@@@ATL@@WMA@EAAJAEBU_GUID@@PEAPEAX@Z 00000001800021d8 f i Scanner.obj
 0001:000011e4       ?AddRef@?$CComObject@VCOPOSScanner@@@ATL@@WMA@EAAKXZ 00000001800021e4 f i Scanner.obj
 0001:000011f0       ?Release@?$CComObject@VCOPOSScanner@@@ATL@@WMA@EAAKXZ 00000001800021f0 f i Scanner.obj
 0001:000011fc       ?QueryInterface@?$CComObject@VCOPOSScanner@@@ATL@@WMI@EAAJAEBU_GUID@@PEAPEAX@Z 00000001800021fc f i Scanner.obj
 0001:00001208       ?AddRef@?$CComObject@VCOPOSScanner@@@ATL@@WMI@EAAKXZ 0000000180002208 f i Scanner.obj
 0001:00001214       ?Release@?$CComObject@VCOPOSScanner@@@ATL@@WMI@EAAKXZ 0000000180002214 f i Scanner.obj
 0001:00001220       ?QueryInterface@?$CComObject@VCOPOSScanner@@@ATL@@WNA@EAAJAEBU_GUID@@PEAPEAX@Z 0000000180002220 f i Scanner.obj
 0001:0000122c       ?AddRef@?$CComObject@VCOPOSScanner@@@ATL@@WNA@EAAKXZ 000000018000222c f i Scanner.obj
 0001:00001238       ?Release@?$CComObject@VCOPOSScanner@@@ATL@@WNA@EAAKXZ 0000000180002238 f i Scanner.obj
 0001:00001244       ?QueryInterface@?$CComObject@VCOPOSScanner@@@ATL@@WNI@EAAJAEBU_GUID@@PEAPEAX@Z 0000000180002244 f i Scanner.obj
 0001:00001250       ?AddRef@?$CComObject@VCOPOSScanner@@@ATL@@WNI@EAAKXZ 0000000180002250 f i Scanner.obj
 0001:0000125c       ?Release@?$CComObject@VCOPOSScanner@@@ATL@@WNI@EAAKXZ 000000018000225c f i Scanner.obj
 0001:00001268       ?QueryInterface@?$CComObject@VCOPOSScanner@@@ATL@@WOA@EAAJAEBU_GUID@@PEAPEAX@Z 0000000180002268 f i Scanner.obj
 0001:00001274       ?AddRef@?$CComObject@VCOPOSScanner@@@ATL@@WOA@EAAKXZ 0000000180002274 f i Scanner.obj
 0001:00001280       ?Release@?$CComObject@VCOPOSScanner@@@ATL@@WOA@EAAKXZ 0000000180002280 f i Scanner.obj
 0001:0000128c       ?QueryInterface@?$CComObject@VCOPOSScanner@@@ATL@@WOI@EAAJAEBU_GUID@@PEAPEAX@Z 000000018000228c f i Scanner.obj
 0001:00001298       ?AddRef@?$CComObject@VCOPOSScanner@@@ATL@@WOI@EAAKXZ 0000000180002298 f i Scanner.obj
 0001:000012a4       ?Release@?$CComObject@VCOPOSScanner@@@ATL@@WOI@EAAKXZ 00000001800022a4 f i Scanner.obj
 0001:000012b0       ?QueryInterface@?$CComObject@VCOPOSScanner@@@ATL@@WPA@EAAJAEBU_GUID@@PEAPEAX@Z 00000001800022b0 f i Scanner.obj
 0001:000012bc       ?AddRef@?$CComObject@VCOPOSScanner@@@ATL@@WPA@EAAKXZ 00000001800022bc f i Scanner.obj
 0001:000012c8       ?Release@?$CComObject@VCOPOSScanner@@@ATL@@WPA@EAAKXZ 00000001800022c8 f i Scanner.obj
 0001:000012d4       ?QueryInterface@?$CComObject@VCOPOSScanner@@@ATL@@WPI@EAAJAEBU_GUID@@PEAPEAX@Z 00000001800022d4 f i Scanner.obj
 0001:000012e0       ?AddRef@?$CComObject@VCOPOSScanner@@@ATL@@WPI@EAAKXZ 00000001800022e0 f i Scanner.obj
 0001:000012ec       ?Release@?$CComObject@VCOPOSScanner@@@ATL@@WPI@EAAKXZ 00000001800022ec f i Scanner.obj
 0001:000012f8       ?QueryInterface@?$CComObject@VCOPOSScanner@@@ATL@@WBAA@EAAJAEBU_GUID@@PEAPEAX@Z 00000001800022f8 f i Scanner.obj
 0001:00001304       ?AddRef@?$CComObject@VCOPOSScanner@@@ATL@@WBAA@EAAKXZ 0000000180002304 f i Scanner.obj
 0001:00001310       ?Release@?$CComObject@VCOPOSScanner@@@ATL@@WBAA@EAAKXZ 0000000180002310 f i Scanner.obj
 0001:0000131c       ?QueryInterface@?$CComObject@VCOPOSScanner@@@ATL@@WBAI@EAAJAEBU_GUID@@PEAPEAX@Z 000000018000231c f i Scanner.obj
 0001:00001328       ?AddRef@?$CComObject@VCOPOSScanner@@@ATL@@WBAI@EAAKXZ 0000000180002328 f i Scanner.obj
 0001:00001334       ?Release@?$CComObject@VCOPOSScanner@@@ATL@@WBAI@EAAKXZ 0000000180002334 f i Scanner.obj
 0001:00001340       ?QueryInterface@?$CComObject@VCOPOSScanner@@@ATL@@WBBA@EAAJAEBU_GUID@@PEAPEAX@Z 0000000180002340 f i Scanner.obj
 0001:0000134c       ?AddRef@?$CComObject@VCOPOSScanner@@@ATL@@WBBA@EAAKXZ 000000018000234c f i Scanner.obj
 0001:00001358       ?Release@?$CComObject@VCOPOSScanner@@@ATL@@WBBA@EAAKXZ 0000000180002358 f i Scanner.obj
 0001:00001364       ?QueryInterface@?$CComObject@VCOPOSScanner@@@ATL@@WBBI@EAAJAEBU_GUID@@PEAPEAX@Z 0000000180002364 f i Scanner.obj
 0001:00001370       ?AddRef@?$CComObject@VCOPOSScanner@@@ATL@@WBBI@EAAKXZ 0000000180002370 f i Scanner.obj
 0001:0000137c       ?Release@?$CComObject@VCOPOSScanner@@@ATL@@WBBI@EAAKXZ 000000018000237c f i Scanner.obj
 0001:00001388       ?AddRef@?$CComObject@VCOPOSScanner@@@ATL@@WBCI@EAAKXZ 0000000180002388 f i Scanner.obj
 0001:00001394       ?Release@?$CComObject@VCOPOSScanner@@@ATL@@WBCI@EAAKXZ 0000000180002394 f i Scanner.obj
 0001:000013a0       ?AddRef@?$CComObject@VCOPOSScanner@@@ATL@@WBEA@EAAKXZ 00000001800023a0 f i Scanner.obj
 0001:000013ac       ?Release@?$CComObject@VCOPOSScanner@@@ATL@@WBEA@EAAKXZ 00000001800023ac f i Scanner.obj
 0001:000013b8       ??_E?$CComContainedObject@VCOPOSScanner@@@ATL@@W7EAAPEAXI@Z 00000001800023b8 f i Scanner.obj
 0001:000013c4       ??_E?$CComContainedObject@VCOPOSScanner@@@ATL@@WHA@EAAPEAXI@Z 00000001800023c4 f i Scanner.obj
 0001:000013d0       ?QueryInterface@?$CComContainedObject@VCOPOSScanner@@@ATL@@WLI@EAAJAEBU_GUID@@PEAPEAX@Z 00000001800023d0 f i Scanner.obj
 0001:000013dc       ?AddRef@?$CComContainedObject@VCOPOSScanner@@@ATL@@WLI@EAAKXZ 00000001800023dc f i Scanner.obj
 0001:000013e8       ?Release@?$CComContainedObject@VCOPOSScanner@@@ATL@@WLI@EAAKXZ 00000001800023e8 f i Scanner.obj
 0001:000013f4       ?QueryInterface@?$CComContainedObject@VCOPOSScanner@@@ATL@@WMA@EAAJAEBU_GUID@@PEAPEAX@Z 00000001800023f4 f i Scanner.obj
 0001:00001400       ?AddRef@?$CComContainedObject@VCOPOSScanner@@@ATL@@WMA@EAAKXZ 0000000180002400 f i Scanner.obj
 0001:0000140c       ?Release@?$CComContainedObject@VCOPOSScanner@@@ATL@@WMA@EAAKXZ 000000018000240c f i Scanner.obj
 0001:00001418       ?QueryInterface@?$CComContainedObject@VCOPOSScanner@@@ATL@@WMI@EAAJAEBU_GUID@@PEAPEAX@Z 0000000180002418 f i Scanner.obj
 0001:00001424       ?AddRef@?$CComContainedObject@VCOPOSScanner@@@ATL@@WMI@EAAKXZ 0000000180002424 f i Scanner.obj
 0001:00001430       ?Release@?$CComContainedObject@VCOPOSScanner@@@ATL@@WMI@EAAKXZ 0000000180002430 f i Scanner.obj
 0001:0000143c       ?QueryInterface@?$CComContainedObject@VCOPOSScanner@@@ATL@@WNA@EAAJAEBU_GUID@@PEAPEAX@Z 000000018000243c f i Scanner.obj
 0001:00001448       ?AddRef@?$CComContainedObject@VCOPOSScanner@@@ATL@@WNA@EAAKXZ 0000000180002448 f i Scanner.obj
 0001:00001454       ?Release@?$CComContainedObject@VCOPOSScanner@@@ATL@@WNA@EAAKXZ 0000000180002454 f i Scanner.obj
 0001:00001460       ?QueryInterface@?$CComContainedObject@VCOPOSScanner@@@ATL@@WNI@EAAJAEBU_GUID@@PEAPEAX@Z 0000000180002460 f i Scanner.obj
 0001:0000146c       ?AddRef@?$CComContainedObject@VCOPOSScanner@@@ATL@@WNI@EAAKXZ 000000018000246c f i Scanner.obj
 0001:00001478       ?Release@?$CComContainedObject@VCOPOSScanner@@@ATL@@WNI@EAAKXZ 0000000180002478 f i Scanner.obj
 0001:00001484       ?QueryInterface@?$CComContainedObject@VCOPOSScanner@@@ATL@@WOA@EAAJAEBU_GUID@@PEAPEAX@Z 0000000180002484 f i Scanner.obj
 0001:00001490       ?AddRef@?$CComContainedObject@VCOPOSScanner@@@ATL@@WOA@EAAKXZ 0000000180002490 f i Scanner.obj
 0001:0000149c       ?Release@?$CComContainedObject@VCOPOSScanner@@@ATL@@WOA@EAAKXZ 000000018000249c f i Scanner.obj
 0001:000014a8       ?QueryInterface@?$CComContainedObject@VCOPOSScanner@@@ATL@@WOI@EAAJAEBU_GUID@@PEAPEAX@Z 00000001800024a8 f i Scanner.obj
 0001:000014b4       ?AddRef@?$CComContainedObject@VCOPOSScanner@@@ATL@@WOI@EAAKXZ 00000001800024b4 f i Scanner.obj
 0001:000014c0       ?Release@?$CComContainedObject@VCOPOSScanner@@@ATL@@WOI@EAAKXZ 00000001800024c0 f i Scanner.obj
 0001:000014cc       ?QueryInterface@?$CComContainedObject@VCOPOSScanner@@@ATL@@WPA@EAAJAEBU_GUID@@PEAPEAX@Z 00000001800024cc f i Scanner.obj
 0001:000014d8       ?AddRef@?$CComContainedObject@VCOPOSScanner@@@ATL@@WPA@EAAKXZ 00000001800024d8 f i Scanner.obj
 0001:000014e4       ?Release@?$CComContainedObject@VCOPOSScanner@@@ATL@@WPA@EAAKXZ 00000001800024e4 f i Scanner.obj
 0001:000014f0       ?QueryInterface@?$CComContainedObject@VCOPOSScanner@@@ATL@@WPI@EAAJAEBU_GUID@@PEAPEAX@Z 00000001800024f0 f i Scanner.obj
 0001:000014fc       ?AddRef@?$CComContainedObject@VCOPOSScanner@@@ATL@@WPI@EAAKXZ 00000001800024fc f i Scanner.obj
 0001:00001508       ?Release@?$CComContainedObject@VCOPOSScanner@@@ATL@@WPI@EAAKXZ 0000000180002508 f i Scanner.obj
 0001:00001514       ?QueryInterface@?$CComContainedObject@VCOPOSScanner@@@ATL@@WBAA@EAAJAEBU_GUID@@PEAPEAX@Z 0000000180002514 f i Scanner.obj
 0001:00001520       ?AddRef@?$CComContainedObject@VCOPOSScanner@@@ATL@@WBAA@EAAKXZ 0000000180002520 f i Scanner.obj
 0001:0000152c       ?Release@?$CComContainedObject@VCOPOSScanner@@@ATL@@WBAA@EAAKXZ 000000018000252c f i Scanner.obj
 0001:00001538       ?QueryInterface@?$CComContainedObject@VCOPOSScanner@@@ATL@@WBAI@EAAJAEBU_GUID@@PEAPEAX@Z 0000000180002538 f i Scanner.obj
 0001:00001544       ?AddRef@?$CComContainedObject@VCOPOSScanner@@@ATL@@WBAI@EAAKXZ 0000000180002544 f i Scanner.obj
 0001:00001550       ?Release@?$CComContainedObject@VCOPOSScanner@@@ATL@@WBAI@EAAKXZ 0000000180002550 f i Scanner.obj
 0001:0000155c       ?QueryInterface@?$CComContainedObject@VCOPOSScanner@@@ATL@@WBBA@EAAJAEBU_GUID@@PEAPEAX@Z 000000018000255c f i Scanner.obj
 0001:00001568       ?AddRef@?$CComContainedObject@VCOPOSScanner@@@ATL@@WBBA@EAAKXZ 0000000180002568 f i Scanner.obj
 0001:00001574       ?Release@?$CComContainedObject@VCOPOSScanner@@@ATL@@WBBA@EAAKXZ 0000000180002574 f i Scanner.obj
 0001:00001580       ?QueryInterface@?$CComContainedObject@VCOPOSScanner@@@ATL@@WBBI@EAAJAEBU_GUID@@PEAPEAX@Z 0000000180002580 f i Scanner.obj
 0001:0000158c       ?AddRef@?$CComContainedObject@VCOPOSScanner@@@ATL@@WBBI@EAAKXZ 000000018000258c f i Scanner.obj
 0001:00001598       ?Release@?$CComContainedObject@VCOPOSScanner@@@ATL@@WBBI@EAAKXZ 0000000180002598 f i Scanner.obj
 0001:000015a4       ?AddRef@?$CComContainedObject@VCOPOSScanner@@@ATL@@WBCI@EAAKXZ 00000001800025a4 f i Scanner.obj
 0001:000015b0       ?Release@?$CComContainedObject@VCOPOSScanner@@@ATL@@WBCI@EAAKXZ 00000001800025b0 f i Scanner.obj
 0001:000015bc       ?AddRef@?$CComContainedObject@VCOPOSScanner@@@ATL@@WBEA@EAAKXZ 00000001800025bc f i Scanner.obj
 0001:000015c8       ?Release@?$CComContainedObject@VCOPOSScanner@@@ATL@@WBEA@EAAKXZ 00000001800025c8 f i Scanner.obj
 0001:000015d4       ?GetWindowProc@?$CWindowImplBaseT@VCWindow@ATL@@V?$CWinTraits@$0FGAAAAAA@$0A@@2@@ATL@@UEAAP6A_JPEAUHWND__@@I_K_J@ZXZ 00000001800025d4 f i Scanner.obj
 0001:000015dc       ?StartWindowProc@?$CWindowImplBaseT@VCWindow@ATL@@V?$CWinTraits@$0FGAAAAAA@$0A@@2@@ATL@@SA_JPEAUHWND__@@I_K_J@Z 00000001800025dc f i Scanner.obj
 0001:000016a0       ?OnFinalMessage@?$CWindowImplBaseT@VCWindow@ATL@@V?$CWinTraits@$0FGAAAAAA@$0A@@2@@ATL@@UEAAXPEAUHWND__@@@Z 00000001800026a0 f i Scanner.obj
 0001:000016a0       ?ObjectMain@CComObjectRootBase@ATL@@SAX_N@Z 00000001800026a0 f i Scanner.obj
 0001:000016a0       _guard_check_icall_nop     00000001800026a0 f i LIBCMT:guard_support.obj
 0001:000016a4       ?GetTypeInfoCount@?$IDispatchImpl@UIOPOSScanner@@$1?IID_IOPOSScanner@@3U_GUID@@B$1?LIBID_OposScanner_CCO@@3U3@B$00$0A@VCComTypeInfoHolder@ATL@@@ATL@@UEAAJPEAI@Z 00000001800026a4 f i Scanner.obj
 0001:000016b8       ?GetTypeInfo@?$IDispatchImpl@UIOPOSScanner@@$1?IID_IOPOSScanner@@3U_GUID@@B$1?LIBID_OposScanner_CCO@@3U3@B$00$0A@VCComTypeInfoHolder@ATL@@@ATL@@UEAAJIKPEAPEAUITypeInfo@@@Z 00000001800026b8 f i Scanner.obj
 0001:0000171c       ?GetIDsOfNames@?$IDispatchImpl@UIOPOSScanner@@$1?IID_IOPOSScanner@@3U_GUID@@B$1?LIBID_OposScanner_CCO@@3U3@B$00$0A@VCComTypeInfoHolder@ATL@@@ATL@@UEAAJAEBU_GUID@@PEAPEA_WIKPEAJ@Z 000000018000271c f i Scanner.obj
 0001:00001728       ?Invoke@?$IDispatchImpl@UIOPOSScanner@@$1?IID_IOPOSScanner@@3U_GUID@@B$1?LIBID_OposScanner_CCO@@3U3@B$00$0A@VCComTypeInfoHolder@ATL@@@ATL@@UEAAJJAEBU_GUID@@KGPEAUtagDISPPARAMS@@PEAUtagVARIANT@@PEAUtagEXCEPINFO@@PEAI@Z 0000000180002728 f i Scanner.obj
 0001:000017b8       ?CreateControlWindow@?$CComControl@VCOPOSScanner@@V?$CWindowImpl@VCOPOSScanner@@VCWindow@ATL@@V?$CWinTraits@$0FGAAAAAA@$0A@@3@@ATL@@@ATL@@UEAAPEAUHWND__@@PEAU3@AEAUtagRECT@@@Z 00000001800027b8 f i Scanner.obj
 0001:000017f0       ?ControlQueryInterface@?$CComControl@VCOPOSScanner@@V?$CWindowImpl@VCOPOSScanner@@VCWindow@ATL@@V?$CWinTraits@$0FGAAAAAA@$0A@@3@@ATL@@@ATL@@UEAAJAEBU_GUID@@PEAPEAX@Z 00000001800027f0 f i Scanner.obj
 0001:00001804       ?GetClassID@?$IPersistStreamInitImpl@VCOPOSScanner@@@ATL@@UEAAJPEAU_GUID@@@Z 0000000180002804 f i Scanner.obj
 0001:00001804       ?GetClassID@?$IPersistStorageImpl@VCOPOSScanner@@@ATL@@UEAAJPEAU_GUID@@@Z 0000000180002804 f i Scanner.obj
 0001:00001804       ?GetUserClassID@?$IOleObjectImpl@VCOPOSScanner@@@ATL@@UEAAJPEAU_GUID@@@Z 0000000180002804 f i Scanner.obj
 0001:00001820       ?IsDirty@?$IPersistStreamInitImpl@VCOPOSScanner@@@ATL@@UEAAJXZ 0000000180002820 f i Scanner.obj
 0001:0000183c       ?Load@?$IPersistStreamInitImpl@VCOPOSScanner@@@ATL@@UEAAJPEAUIStream@@@Z 000000018000283c f i Scanner.obj
 0001:0000188c       ?Save@?$IPersistStreamInitImpl@VCOPOSScanner@@@ATL@@UEAAJPEAUIStream@@H@Z 000000018000288c f i Scanner.obj
 0001:000018f0       ?GetSizeMax@?$IPersistStreamInitImpl@VCOPOSScanner@@@ATL@@UEAAJPEAT_ULARGE_INTEGER@@@Z 00000001800028f0 f i Scanner.obj
 0001:00001b1c       ?InitNew@?$IPersistStreamInitImpl@VCOPOSScanner@@@ATL@@UEAAJXZ 0000000180002b1c f i Scanner.obj
 0001:00001b34       ?SetClientSite@?$IOleObjectImpl@VCOPOSScanner@@@ATL@@UEAAJPEAUIOleClientSite@@@Z 0000000180002b34 f i Scanner.obj
 0001:00001b50       ?GetClientSite@?$IOleObjectImpl@VCOPOSScanner@@@ATL@@UEAAJPEAPEAUIOleClientSite@@@Z 0000000180002b50 f i Scanner.obj
 0001:00001b98       ?Close@?$IOleObjectImpl@VCOPOSScanner@@@ATL@@UEAAJK@Z 0000000180002b98 f i Scanner.obj
 0001:00001bb4       ?DoVerb@?$IOleObjectImpl@VCOPOSScanner@@@ATL@@UEAAJJPEAUtagMSG@@PEAUIOleClientSite@@JPEAUHWND__@@PEBUtagRECT@@@Z 0000000180002bb4 f i Scanner.obj
 0001:00001d58       ?EnumVerbs@?$IOleObjectImpl@VCOPOSScanner@@@ATL@@UEAAJPEAPEAUIEnumOLEVERB@@@Z 0000000180002d58 f i Scanner.obj
 0001:00001d74       ?GetUserType@?$IOleObjectImpl@VCOPOSScanner@@@ATL@@UEAAJKPEAPEA_W@Z 0000000180002d74 f i Scanner.obj
 0001:00001d84       ?SetExtent@?$IOleObjectImpl@VCOPOSScanner@@@ATL@@UEAAJKPEAUtagSIZE@@@Z 0000000180002d84 f i Scanner.obj
 0001:00001da0       ?GetExtent@?$IOleObjectImpl@VCOPOSScanner@@@ATL@@UEAAJKPEAUtagSIZE@@@Z 0000000180002da0 f i Scanner.obj
 0001:00001dd0       ?Advise@?$IOleObjectImpl@VCOPOSScanner@@@ATL@@UEAAJPEAUIAdviseSink@@PEAK@Z 0000000180002dd0 f i Scanner.obj
 0001:00001e2c       ?Unadvise@?$IOleObjectImpl@VCOPOSScanner@@@ATL@@UEAAJK@Z 0000000180002e2c f i Scanner.obj
 0001:00001e64       ?EnumAdvise@?$IOleObjectImpl@VCOPOSScanner@@@ATL@@UEAAJPEAPEAUIEnumSTATDATA@@@Z 0000000180002e64 f i Scanner.obj
 0001:00001eac       ?GetMiscStatus@?$IOleObjectImpl@VCOPOSScanner@@@ATL@@UEAAJKPEAK@Z 0000000180002eac f i Scanner.obj
 0001:00001ebc       ?GetWindow@?$IOleInPlaceActiveObjectImpl@VCOPOSScanner@@@ATL@@UEAAJPEAPEAUHWND__@@@Z 0000000180002ebc f i Scanner.obj
 0001:00001f10       ?TranslateAcceleratorW@?$IOleInPlaceActiveObjectImpl@VCOPOSScanner@@@ATL@@UEAAJPEAUtagMSG@@@Z 0000000180002f10 f i Scanner.obj
 0001:00002004       ?OnDocWindowActivate@?$IOleInPlaceActiveObjectImpl@VCOPOSScanner@@@ATL@@UEAAJH@Z 0000000180003004 f i Scanner.obj
 0001:00002030       ?Draw@?$IViewObjectExImpl@VCOPOSScanner@@@ATL@@UEAAJKJPEAXPEAUtagDVTARGETDEVICE@@PEAUHDC__@@2PEBU_RECTL@@3P6AH_K@Z4@Z 0000000180003030 f i Scanner.obj
 0001:00002094       ?SetAdvise@?$IViewObjectExImpl@VCOPOSScanner@@@ATL@@UEAAJKKPEAUIAdviseSink@@@Z 0000000180003094 f i Scanner.obj
 0001:000020e8       ?GetAdvise@?$IViewObjectExImpl@VCOPOSScanner@@@ATL@@UEAAJPEAK0PEAPEAUIAdviseSink@@@Z 00000001800030e8 f i Scanner.obj
 0001:00002124       ?GetExtent@?$IViewObjectExImpl@VCOPOSScanner@@@ATL@@UEAAJKJPEAUtagDVTARGETDEVICE@@PEAUtagSIZE@@@Z 0000000180003124 f i Scanner.obj
 0001:00002154       ?GetViewStatus@?$IViewObjectExImpl@VCOPOSScanner@@@ATL@@UEAAJPEAK@Z 0000000180003154 f i Scanner.obj
 0001:00002168       ?QueryHitPoint@?$IViewObjectExImpl@VCOPOSScanner@@@ATL@@UEAAJKPEBUtagRECT@@UtagPOINT@@JPEAK@Z 0000000180003168 f i Scanner.obj
 0001:000021ac       ?QueryHitRect@?$IViewObjectExImpl@VCOPOSScanner@@@ATL@@UEAAJKPEBUtagRECT@@0JPEAK@Z 00000001800031ac f i Scanner.obj
 0001:00002214       ?GetNaturalExtent@?$IViewObjectExImpl@VCOPOSScanner@@@ATL@@UEAAJKJPEAUtagDVTARGETDEVICE@@PEAUHDC__@@PEAUtagExtentInfo@@PEAUtagSIZE@@@Z 0000000180003214 f i Scanner.obj
 0001:0000225c       ?GetWindow@?$IOleInPlaceObjectWindowlessImpl@VCOPOSScanner@@@ATL@@UEAAJPEAPEAUHWND__@@@Z 000000018000325c f i Scanner.obj
 0001:000022b0       ?InPlaceDeactivate@?$IOleInPlaceObjectWindowlessImpl@VCOPOSScanner@@@ATL@@UEAAJXZ 00000001800032b0 f i Scanner.obj
 0001:000022cc       ?UIDeactivate@?$IOleInPlaceObjectWindowlessImpl@VCOPOSScanner@@@ATL@@UEAAJXZ 00000001800032cc f i Scanner.obj
 0001:000022e8       ?SetObjectRects@?$IOleInPlaceObjectWindowlessImpl@VCOPOSScanner@@@ATL@@UEAAJPEBUtagRECT@@0@Z 00000001800032e8 f i Scanner.obj
 0001:00002304       ?OnWindowMessage@?$IOleInPlaceObjectWindowlessImpl@VCOPOSScanner@@@ATL@@UEAAJI_K_JPEA_J@Z 0000000180003304 f i Scanner.obj
 0001:000023cc       ?EnumConnectionPoints@?$IConnectionPointContainerImpl@VCOPOSScanner@@@ATL@@UEAAJPEAPEAUIEnumConnectionPoints@@@Z 00000001800033cc f i Scanner.obj
 0001:000025ec       ?FindConnectionPoint@?$IConnectionPointContainerImpl@VCOPOSScanner@@@ATL@@UEAAJAEBU_GUID@@PEAPEAUIConnectionPoint@@@Z 00000001800035ec f i Scanner.obj
 0001:000026bc       ?IsDirty@?$IPersistStorageImpl@VCOPOSScanner@@@ATL@@UEAAJXZ 00000001800036bc f i Scanner.obj
 0001:00002700       ?InitNew@?$IPersistStorageImpl@VCOPOSScanner@@@ATL@@UEAAJPEAUIStorage@@@Z 0000000180003700 f i Scanner.obj
 0001:00002744       ?Load@?$IPersistStorageImpl@VCOPOSScanner@@@ATL@@UEAAJPEAUIStorage@@@Z 0000000180003744 f i Scanner.obj
 0001:000027e4       ?Save@?$IPersistStorageImpl@VCOPOSScanner@@@ATL@@UEAAJPEAUIStorage@@H@Z 00000001800037e4 f i Scanner.obj
 0001:00002894       ?GetPages@?$ISpecifyPropertyPagesImpl@VCOPOSScanner@@@ATL@@UEAAJPEAUtagCAUUID@@@Z 0000000180003894 f i Scanner.obj
 0001:000028a0       ?QuickActivate@?$IQuickActivateImpl@VCOPOSScanner@@@ATL@@UEAAJPEAUtagQACONTAINER@@PEAUtagQACONTROL@@@Z 00000001800038a0 f i Scanner.obj
 0001:000028bc       ?SetContentExtent@?$IQuickActivateImpl@VCOPOSScanner@@@ATL@@UEAAJPEAUtagSIZE@@@Z 00000001800038bc f i Scanner.obj
 0001:000028f0       ?GetContentExtent@?$IQuickActivateImpl@VCOPOSScanner@@@ATL@@UEAAJPEAUtagSIZE@@@Z 00000001800038f0 f i Scanner.obj
 0001:00002928       ?GetData@?$IDataObjectImpl@VCOPOSScanner@@@ATL@@UEAAJPEAUtagFORMATETC@@PEAUtagSTGMEDIUM@@@Z 0000000180003928 f i Scanner.obj
 0001:00002944       ?DAdvise@?$IDataObjectImpl@VCOPOSScanner@@@ATL@@UEAAJPEAUtagFORMATETC@@KPEAUIAdviseSink@@PEAK@Z 0000000180003944 f i Scanner.obj
 0001:000029cc       ?DUnadvise@?$IDataObjectImpl@VCOPOSScanner@@@ATL@@UEAAJK@Z 00000001800039cc f i Scanner.obj
 0001:000029f8       ?EnumDAdvise@?$IDataObjectImpl@VCOPOSScanner@@@ATL@@UEAAJPEAPEAUIEnumSTATDATA@@@Z 00000001800039f8 f i Scanner.obj
 0001:00002a34       ?GetClassInfoW@?$IProvideClassInfo2Impl@$1?CLSID_OPOSScanner@@3U_GUID@@B$1?DIID__IOPOSScannerEvents@@3U2@B$1?LIBID_OposScanner_CCO@@3U2@B$00$0A@VCComTypeInfoHolder@ATL@@@ATL@@UEAAJPEAPEAUITypeInfo@@@Z 0000000180003a34 f i Scanner.obj
 0001:00002a8c       ?GetGUID@?$IProvideClassInfo2Impl@$1?CLSID_OPOSScanner@@3U_GUID@@B$1?DIID__IOPOSScannerEvents@@3U2@B$1?LIBID_OposScanner_CCO@@3U2@B$00$0A@VCComTypeInfoHolder@ATL@@@ATL@@UEAAJKPEAU_GUID@@@Z 0000000180003a8c f i Scanner.obj
 0001:00002ac0       ?GetInterfaceSafetyOptions@?$IObjectSafetyImpl@VCOPOSScanner@@$02@ATL@@UEAAJAEBU_GUID@@PEAK1@Z 0000000180003ac0 f i Scanner.obj
 0001:00002b54       ?SetInterfaceSafetyOptions@?$IObjectSafetyImpl@VCOPOSScanner@@$02@ATL@@UEAAJAEBU_GUID@@KK@Z 0000000180003b54 f i Scanner.obj
 0001:00002bf8       ?_LocCPQueryInterface@?$IConnectionPointImpl@VCOPOSScanner@@$1?IID_IPropertyNotifySink@@3U_GUID@@BVCComDynamicUnkArray@ATL@@@ATL@@UEAAJAEBU_GUID@@PEAPEAX@Z 0000000180003bf8 f i Scanner.obj
 0001:00002bf8       ?_LocCPQueryInterface@?$IConnectionPointImpl@VCOPOSScanner@@$1?DIID__IOPOSScannerEvents@@3U_GUID@@BVCComDynamicUnkArray@ATL@@@ATL@@UEAAJAEBU_GUID@@PEAPEAX@Z 0000000180003bf8 f i Scanner.obj
 0001:00002c6c       ?GetConnectionInterface@?$IConnectionPointImpl@VCOPOSScanner@@$1?IID_IPropertyNotifySink@@3U_GUID@@BVCComDynamicUnkArray@ATL@@@ATL@@UEAAJPEAU_GUID@@@Z 0000000180003c6c f i Scanner.obj
 0001:00002c88       ?GetConnectionPointContainer@?$IConnectionPointImpl@VCOPOSScanner@@$1?IID_IPropertyNotifySink@@3U_GUID@@BVCComDynamicUnkArray@ATL@@@ATL@@UEAAJPEAPEAUIConnectionPointContainer@@@Z 0000000180003c88 f i Scanner.obj
 0001:00002ca8       ?Advise@?$IConnectionPointImpl@VCOPOSScanner@@$1?DIID__IOPOSScannerEvents@@3U_GUID@@BVCComDynamicUnkArray@ATL@@@ATL@@UEAAJPEAUIUnknown@@PEAK@Z 0000000180003ca8 f i Scanner.obj
 0001:00002ca8       ?Advise@?$IConnectionPointImpl@VCOPOSScanner@@$1?IID_IPropertyNotifySink@@3U_GUID@@BVCComDynamicUnkArray@ATL@@@ATL@@UEAAJPEAUIUnknown@@PEAK@Z 0000000180003ca8 f i Scanner.obj
 0001:00002d68       ?Unadvise@?$IConnectionPointImpl@VCOPOSScanner@@$1?IID_IPropertyNotifySink@@3U_GUID@@BVCComDynamicUnkArray@ATL@@@ATL@@UEAAJK@Z 0000000180003d68 f i Scanner.obj
 0001:00002d68       ?Unadvise@?$IConnectionPointImpl@VCOPOSScanner@@$1?DIID__IOPOSScannerEvents@@3U_GUID@@BVCComDynamicUnkArray@ATL@@@ATL@@UEAAJK@Z 0000000180003d68 f i Scanner.obj
 0001:00002de4       ?EnumConnections@?$IConnectionPointImpl@VCOPOSScanner@@$1?IID_IPropertyNotifySink@@3U_GUID@@BVCComDynamicUnkArray@ATL@@@ATL@@UEAAJPEAPEAUIEnumConnections@@@Z 0000000180003de4 f i Scanner.obj
 0001:00002de4       ?EnumConnections@?$IConnectionPointImpl@VCOPOSScanner@@$1?DIID__IOPOSScannerEvents@@3U_GUID@@BVCComDynamicUnkArray@ATL@@@ATL@@UEAAJPEAPEAUIEnumConnections@@@Z 0000000180003de4 f i Scanner.obj
 0001:00002f8c       ?GetConnectionInterface@?$IConnectionPointImpl@VCOPOSScanner@@$1?DIID__IOPOSScannerEvents@@3U_GUID@@BVCComDynamicUnkArray@ATL@@@ATL@@UEAAJPEAU_GUID@@@Z 0000000180003f8c f i Scanner.obj
 0001:00002fa8       ?GetConnectionPointContainer@?$IConnectionPointImpl@VCOPOSScanner@@$1?DIID__IOPOSScannerEvents@@3U_GUID@@BVCComDynamicUnkArray@ATL@@@ATL@@UEAAJPEAPEAUIConnectionPointContainer@@@Z 0000000180003fa8 f i Scanner.obj
 0001:00002fc8       ?UpdateRegistry@COPOSScanner@@SAJH@Z 0000000180003fc8 f i Scanner.obj
 0001:00002fe0       ?ProcessWindowMessage@COPOSScanner@@UEAAHPEAUHWND__@@I_K_JAEA_JK@Z 0000000180003fe0 f i Scanner.obj
 0001:00003068       ?SOData@COPOSScanner@@MEAAJJ@Z 0000000180004068 f i Scanner.obj
 0001:000030b8       ?SODirectIO@COPOSScanner@@MEAAJJPEAJPEAPEA_W@Z 00000001800040b8 f i Scanner.obj
 0001:00003130       ?SOError@COPOSScanner@@MEAAJJJJPEAJ@Z 0000000180004130 f i Scanner.obj
 0001:000031b8       ?SOStatusUpdate@COPOSScanner@@MEAAJJ@Z 00000001800041b8 f i Scanner.obj
 0001:00003208       ?CreateInstance@?$CComCreator@V?$CComObjectCached@VCComClassFactory@ATL@@@ATL@@@ATL@@SAJPEAXAEBU_GUID@@PEAPEAX@Z 0000000180004208 f i Scanner.obj
 0001:00003310       ?CreateInstance@?$CComCreator2@V?$CComCreator@V?$CComObject@VCOPOSScanner@@@ATL@@@ATL@@V?$CComCreator@V?$CComAggObject@VCOPOSScanner@@@ATL@@@2@@ATL@@SAJPEAXAEBU_GUID@@PEAPEAX@Z 0000000180004310 f i Scanner.obj
 0001:00003320       ?Next@?$CComEnumImpl@UIEnumConnectionPoints@@$1?_GUID_b196b285_bab4_101a_b69c_00aa00341d07@@3U__s_GUID@@BPEAUIConnectionPoint@@V?$_CopyInterface@UIConnectionPoint@@@ATL@@@ATL@@UEAAJKPEAPEAUIConnectionPoint@@PEAK@Z 0000000180004320 f i Scanner.obj
 0001:000033ec       ?Skip@?$CComEnumImpl@UIEnumConnectionPoints@@$1?_GUID_b196b285_bab4_101a_b69c_00aa00341d07@@3U__s_GUID@@BPEAUIConnectionPoint@@V?$_CopyInterface@UIConnectionPoint@@@ATL@@@ATL@@UEAAJK@Z 00000001800043ec f i Scanner.obj
 0001:00003418       ?Clone@?$CComEnumImpl@UIEnumConnectionPoints@@$1?_GUID_b196b285_bab4_101a_b69c_00aa00341d07@@3U__s_GUID@@BPEAUIConnectionPoint@@V?$_CopyInterface@UIConnectionPoint@@@ATL@@@ATL@@UEAAJPEAPEAUIEnumConnectionPoints@@@Z 0000000180004418 f i Scanner.obj
 0001:00003544       ?QueryInterface@?$CComObject@V?$CComEnum@UIEnumConnectionPoints@@$1?_GUID_b196b285_bab4_101a_b69c_00aa00341d07@@3U__s_GUID@@BPEAUIConnectionPoint@@V?$_CopyInterface@UIConnectionPoint@@@ATL@@VCComSingleThreadModel@6@@ATL@@@ATL@@UEAAJAEBU_GUID@@PEAPEAX@Z 0000000180004544 f i Scanner.obj
 0001:00003558       ??_E?$CComObject@V?$CComEnum@UIEnumConnectionPoints@@$1?_GUID_b196b285_bab4_101a_b69c_00aa00341d07@@3U__s_GUID@@BPEAUIConnectionPoint@@V?$_CopyInterface@UIConnectionPoint@@@ATL@@VCComSingleThreadModel@6@@ATL@@@ATL@@UEAAPEAXI@Z 0000000180004558 f i Scanner.obj
 0001:00003558       ??_G?$CComObject@V?$CComEnum@UIEnumConnectionPoints@@$1?_GUID_b196b285_bab4_101a_b69c_00aa00341d07@@3U__s_GUID@@BPEAUIConnectionPoint@@V?$_CopyInterface@UIConnectionPoint@@@ATL@@VCComSingleThreadModel@6@@ATL@@@ATL@@UEAAPEAXI@Z 0000000180004558 f i Scanner.obj
 0001:000035b0       ?CreateInstance@CComClassFactory@ATL@@UEAAJPEAUIUnknown@@AEBU_GUID@@PEAPEAX@Z 00000001800045b0 f i Scanner.obj
 0001:00003610       ?LockServer@CComClassFactory@ATL@@UEAAJH@Z 0000000180004610 f i Scanner.obj
 0001:00003634       ??_GCComClassFactory@ATL@@UEAAPEAXI@Z 0000000180004634 f i Scanner.obj
 0001:00003634       ??_ECComClassFactory@ATL@@UEAAPEAXI@Z 0000000180004634 f i Scanner.obj
 0001:00003684       ??$AtlModuleRegisterWndClassInfoT@VAtlModuleRegisterWndClassInfoParamW@ATL@@@ATL@@YAGPEAU_ATL_BASE_MODULE70@0@PEAU_ATL_WIN_MODULE70@0@PEAU_ATL_WNDCLASSINFOW@0@PEAP6A_JPEAUHWND__@@I_K_J@ZVAtlModuleRegisterWndClassInfoParamW@0@@Z 0000000180004684 f i Scanner.obj
 0001:00003884       ??0?$CComContainedObject@VCOPOSScanner@@@ATL@@QEAA@PEAX@Z 0000000180004884 f i Scanner.obj
 0001:000039a0       ??0?$CComObject@VCOPOSScanner@@@ATL@@QEAA@PEAX@Z 00000001800049a0 f i Scanner.obj
 0001:00003ab8       ??0CAtlModule@ATL@@QEAA@XZ 0000000180004ab8 f i Scanner.obj
 0001:00003b2c       ??1?$CComEnumImpl@UIEnumConnectionPoints@@$1?_GUID_b196b285_bab4_101a_b69c_00aa00341d07@@3U__s_GUID@@BPEAUIConnectionPoint@@V?$_CopyInterface@UIConnectionPoint@@@ATL@@@ATL@@UEAA@XZ 0000000180004b2c f i Scanner.obj
 0001:00003b88       ??1?$CComEnumImpl@UIEnumConnections@@$1?_GUID_b196b287_bab4_101a_b69c_00aa00341d07@@3U__s_GUID@@BUtagCONNECTDATA@@V?$_Copy@UtagCONNECTDATA@@@ATL@@@ATL@@UEAA@XZ 0000000180004b88 f i Scanner.obj
 0001:00003be4       ??1?$CComObject@VCOPOSScanner@@@ATL@@UEAA@XZ 0000000180004be4 f i Scanner.obj
 0001:00003d04       ??_G?$CComContainedObject@VCOPOSScanner@@@ATL@@UEAAPEAXI@Z 0000000180004d04 f i Scanner.obj
 0001:00003d04       ??_E?$CComContainedObject@VCOPOSScanner@@@ATL@@UEAAPEAXI@Z 0000000180004d04 f i Scanner.obj
 0001:00003d38       ??_E?$CComObject@VCOPOSScanner@@@ATL@@UEAAPEAXI@Z 0000000180004d38 f i Scanner.obj
 0001:00003d38       ??_G?$CComObject@VCOPOSScanner@@@ATL@@UEAAPEAXI@Z 0000000180004d38 f i Scanner.obj
 0001:00003d6c       ?Add@?$CSimpleArray@GV?$CSimpleArrayEqualHelper@G@ATL@@@ATL@@QEAAHAEBG@Z 0000000180004d6c f i Scanner.obj
 0001:00003e20       ?Add@?$CSimpleMap@PEA_WPEA_WVCExpansionVectorEqualHelper@ATL@@@ATL@@QEAAHAEBQEA_W0@Z 0000000180004e20 f i Scanner.obj
 0001:00003ec0       ?Add@CComDynamicUnkArray@ATL@@QEAAKPEAUIUnknown@@@Z 0000000180004ec0 f i Scanner.obj
 0001:00003fa8       ?Add@CExpansionVector@ATL@@QEAAHPEB_W0@Z 0000000180004fa8 f i Scanner.obj
 0001:00004138       ?AddValue@CRegParser@ATL@@IEAAJAEAVCRegKey@2@PEB_WPEA_W@Z 0000000180005138 f i Scanner.obj
 0001:00004580       ?AllocateHeap@?$CTempBuffer@_W$0BAA@VCCRTAllocator@ATL@@@ATL@@AEAAX_K@Z 0000000180005580 f i Scanner.obj
 0001:00004580       ?AllocateHeap@?$CTempBuffer@E$0BAA@VCCRTAllocator@ATL@@@ATL@@AEAAX_K@Z 0000000180005580 f i Scanner.obj
 0001:00004580       ?AllocateHeap@?$CTempBuffer@_W$0EAA@VCCRTAllocator@ATL@@@ATL@@AEAAX_K@Z 0000000180005580 f i Scanner.obj
 0001:000045ac       ?Append@CParseBuffer@CRegParser@ATL@@QEAAHPEB_WH@Z 00000001800055ac f i Scanner.obj
 0001:000046c4       ?AtlCallTermFunc@ATL@@YAXPEAU_ATL_MODULE70@1@@Z 00000001800056c4 f i Scanner.obj
 0001:00004728       ?AtlComModuleGetClassObject@ATL@@YAJPEAU_ATL_COM_MODULE70@1@AEBU_GUID@@1PEAPEAX@Z 0000000180005728 f i Scanner.obj
 0001:00004868       ?AtlComModuleRegisterServer@ATL@@YAJPEAU_ATL_COM_MODULE70@1@HPEBU_GUID@@@Z 0000000180005868 f i Scanner.obj
 0001:00004928       ?AtlComModuleUnregisterServer@ATL@@YAJPEAU_ATL_COM_MODULE70@1@HPEBU_GUID@@@Z 0000000180005928 f i Scanner.obj
 0001:000049e4       ?AtlCreateTargetDC@ATL@@YAPEAUHDC__@@PEAU2@PEAUtagDVTARGETDEVICE@@@Z 00000001800059e4 f i Scanner.obj
 0001:00004a58       ?AtlHiMetricToPixel@ATL@@YAXPEBUtagSIZE@@PEAU2@@Z 0000000180005a58 f i Scanner.obj
 0001:00004b08       ?AtlHresultFromLastError@ATL@@YAJXZ 0000000180005b08 f i Scanner.obj
 0001:00004b28       ?AtlHresultFromWin32@ATL@@YAJK@Z 0000000180005b28 f i Scanner.obj
 0001:00004b38       ?AtlIPersistStreamInit_Load@ATL@@YAJPEAUIStream@@PEBUATL_PROPMAP_ENTRY@1@PEAXPEAUIUnknown@@@Z 0000000180005b38 f i Scanner.obj
 0001:00004d70       ?AtlIPersistStreamInit_Save@ATL@@YAJPEAUIStream@@HPEBUATL_PROPMAP_ENTRY@1@PEAXPEAUIUnknown@@@Z 0000000180005d70 f i Scanner.obj
 0001:00004fa8       ?AtlInternalOleLoadFromStream@ATL@@YAJPEAUIStream@@AEBU_GUID@@PEAPEAXTClassesAllowedInStream@1@K@Z 0000000180005fa8 f i Scanner.obj
 0001:000050ec       ?AtlInternalQueryInterface@ATL@@YAJPEAXPEBU_ATL_INTMAP_ENTRY@1@AEBU_GUID@@PEAPEAX@Z 00000001800060ec f i Scanner.obj
 0001:000051f4       ?AtlLoadTypeLib@ATL@@YAJPEAUHINSTANCE__@@PEB_WPEAPEA_WPEAPEAUITypeLib@@@Z 00000001800061f4 f i Scanner.obj
 0001:00005450       ?AtlModuleAddTermFunc@ATL@@YAJPEAU_ATL_MODULE70@1@P6AX_K@Z1@Z 0000000180006450 f i Scanner.obj
 0001:000054e4       ?AtlRegisterClassCategoriesHelper@ATL@@YAJAEBU_GUID@@PEBU_ATL_CATMAP_ENTRY@1@H@Z 00000001800064e4 f i Scanner.obj
 0001:0000594c       ?AtlRegisterTypeLib@ATL@@YAJPEAUHINSTANCE__@@PEB_W@Z 000000018000694c f i Scanner.obj
 0001:00005b48       ?AtlThrowImpl@ATL@@YAXJ@Z  0000000180006b48 f i Scanner.obj
 0001:00005b6c       ?AtlUnRegisterTypeLib@ATL@@YAJPEAUHINSTANCE__@@PEB_W@Z 0000000180006b6c f i Scanner.obj
 0001:00005c34       ?AtlWinModuleExtractCreateWndData@ATL@@YAPEAXPEAU_ATL_WIN_MODULE70@1@@Z 0000000180006c34 f i Scanner.obj
 0001:00005cc0       ?Cleanup@CComTypeInfoHolder@ATL@@SAX_K@Z 0000000180006cc0 f i Scanner.obj
 0001:00005d00       ?ClearReplacements@CExpansionVector@ATL@@QEAAJXZ 0000000180006d00 f i Scanner.obj
 0001:00005d9c       ?CreateInstance@?$CComCreator@V?$CComAggObject@VCOPOSScanner@@@ATL@@@ATL@@SAJPEAXAEBU_GUID@@PEAPEAX@Z 0000000180006d9c f i Scanner.obj
 0001:00005e74       ?CreateInstance@?$CComCreator@V?$CComObject@VCOPOSScanner@@@ATL@@@ATL@@SAJPEAXAEBU_GUID@@PEAPEAX@Z 0000000180006e74 f i Scanner.obj
 0001:00005f2c       ?CreateInstance@?$CComObject@V?$CComEnum@UIEnumConnectionPoints@@$1?_GUID_b196b285_bab4_101a_b69c_00aa00341d07@@3U__s_GUID@@BPEAUIConnectionPoint@@V?$_CopyInterface@UIConnectionPoint@@@ATL@@VCComSingleThreadModel@6@@ATL@@@ATL@@SAJPEAPEAV12@@Z 0000000180006f2c f i Scanner.obj
 0001:00005fb8       ?CreateInstance@?$CComObject@V?$CComEnum@UIEnumConnections@@$1?_GUID_b196b287_bab4_101a_b69c_00aa00341d07@@3U__s_GUID@@BUtagCONNECTDATA@@V?$_Copy@UtagCONNECTDATA@@@ATL@@VCComSingleThreadModel@6@@ATL@@@ATL@@SAJPEAPEAV12@@Z 0000000180006fb8 f i Scanner.obj
 0001:00006044       ?DefaultReflectionHandler@?$CWindowImplRoot@VCWindow@ATL@@@ATL@@SAHPEAUHWND__@@I_K_JAEA_J@Z 0000000180007044 f i Scanner.obj
 0001:000060a8       ?DeleteSubKey@CRegKey@ATL@@QEAAJPEB_W@Z 00000001800070a8 f i Scanner.obj
 0001:00006140       ?DoEvent@COPOSScanner@@IEAAXI_K_J@Z 0000000180007140 f i Scanner.obj
 0001:000061f4       ?DoVerbPrimary@?$IOleObjectImpl@VCOPOSScanner@@@ATL@@QEAAJPEBUtagRECT@@PEAUHWND__@@@Z 00000001800071f4 f i Scanner.obj
 0001:00006320       ?DoVerbProperties@CComControlBase@ATL@@QEAAJPEBUtagRECT@@PEAUHWND__@@@Z 0000000180007320 f i Scanner.obj
 0001:00006548       ?FireTheEvent@?$CProxy_IOPOSEvents@VCOPOSScanner@@@@IEAAXPEAVOposVariant@@IAEAJPEB_WJ@Z 0000000180007548 f i Scanner.obj
 0001:00006634       ?FireViewChange@CComControlBase@ATL@@QEAAJXZ 0000000180007634 f i Scanner.obj
 0001:00006698       ?Fire_DataEvent@?$CProxy_IOPOSEvents@VCOPOSScanner@@@@QEAAXJ@Z 0000000180007698 f i Scanner.obj
 0001:00006784       ?Fire_DirectIOEvent@?$CProxy_IOPOSEvents@VCOPOSScanner@@@@QEAAXJPEAJPEAPEA_W@Z 0000000180007784 f i Scanner.obj
 0001:000068dc       ?Fire_ErrorEvent@?$CProxy_IOPOSEvents@VCOPOSScanner@@@@QEAAXJJJPEAJ@Z 00000001800078dc f i Scanner.obj
 0001:00006a44       ?Fire_StatusUpdateEvent@?$CProxy_IOPOSEvents@VCOPOSScanner@@@@QEAAXJ@Z 0000000180007a44 f i Scanner.obj
 0001:00006b30       ?FreeHeap@?$CTempBuffer@_W$0BAA@VCCRTAllocator@ATL@@@ATL@@AEAAXXZ 0000000180007b30 f i Scanner.obj
 0001:00006b30       ?FreeHeap@?$CTempBuffer@_W$0EAA@VCCRTAllocator@ATL@@@ATL@@AEAAXXZ 0000000180007b30 f i Scanner.obj
 0001:00006b30       ?FreeHeap@?$CTempBuffer@E$0BAA@VCCRTAllocator@ATL@@@ATL@@AEAAXXZ 0000000180007b30 f i Scanner.obj
 0001:00006b38       ?GetAmbientLocaleID@CComControlBase@ATL@@QEAAJAEAK@Z 0000000180007b38 f i Scanner.obj
 0001:00006bf8       ?GetAmbientUserMode@CComControlBase@ATL@@QEAAJAEAH@Z 0000000180007bf8 f i Scanner.obj
 0001:00006cc8       ?GetClassObject@CComModule@ATL@@QEAAJAEBU_GUID@@0PEAPEAX@Z 0000000180007cc8 f i Scanner.obj
 0001:00006dbc       ?GetConnMap@COPOSScanner@@SAPEBU_ATL_CONNMAP_ENTRY@ATL@@PEAH@Z 0000000180007dbc f i Scanner.obj
 0001:00006e44       ?GetIDsOfNames@CComTypeInfoHolder@ATL@@QEAAJAEBU_GUID@@PEAPEA_WIKPEAJ@Z 0000000180007e44 f i Scanner.obj
 0001:00006fbc       ?GetPagesHelper@?$ISpecifyPropertyPagesImpl@VCOPOSScanner@@@ATL@@IEAAJPEAUtagCAUUID@@PEBUATL_PROPMAP_ENTRY@2@@Z 0000000180007fbc f i Scanner.obj
 0001:0000715c       ?GetSizeMax@CComVariant@ATL@@QEBAJPEAT_ULARGE_INTEGER@@@Z 000000018000815c f i Scanner.obj
 0001:00007390       ?GetTI@CComTypeInfoHolder@ATL@@QEAAJK@Z 0000000180008390 f i Scanner.obj
 0001:00007608       ?GetZoomInfo@CComControlBase@ATL@@QEAAXAEAUATL_DRAWINFO@@@Z 0000000180008608 f i Scanner.obj
 0001:000076ac       ?HKeyFromString@CRegParser@ATL@@KAPEAUHKEY__@@PEA_W@Z 00000001800086ac f i Scanner.obj
 0001:00007710       ?IDataObject_GetData@CComControlBase@ATL@@QEAAJPEAUtagFORMATETC@@PEAUtagSTGMEDIUM@@@Z 0000000180008710 f i Scanner.obj
 0001:00007904       ?IOleInPlaceObject_InPlaceDeactivate@CComControlBase@ATL@@QEAAJXZ 0000000180008904 f i Scanner.obj
 0001:000079a4       ?IOleInPlaceObject_SetObjectRects@CComControlBase@ATL@@QEAAJPEBUtagRECT@@0@Z 00000001800089a4 f i Scanner.obj
 0001:00007a94       ?IOleInPlaceObject_UIDeactivate@CComControlBase@ATL@@QEAAJXZ 0000000180008a94 f i Scanner.obj
 0001:00007ba0       ?IOleObject_Close@CComControlBase@ATL@@QEAAJK@Z 0000000180008ba0 f i Scanner.obj
 0001:00007cb8       ?IOleObject_SetClientSite@CComControlBase@ATL@@QEAAJPEAUIOleClientSite@@@Z 0000000180008cb8 f i Scanner.obj
 0001:00007d30       ?IOleObject_SetExtent@CComControlBase@ATL@@QEAAJKPEAUtagSIZE@@@Z 0000000180008d30 f i Scanner.obj
 0001:00007dc8       ?IPSI_GetIPersistStreamInit@?$IPersistStorageImpl@VCOPOSScanner@@@ATL@@AEAAPEAUIPersistStreamInit@@XZ 0000000180008dc8 f i Scanner.obj
 0001:00007e24       ?IQuickActivate_QuickActivate@CComControlBase@ATL@@QEAAJPEAUtagQACONTAINER@@PEAUtagQACONTROL@@@Z 0000000180008e24 f i Scanner.obj
 0001:000080e8       ?IViewObject_Draw@CComControlBase@ATL@@QEAAJKJPEAXPEAUtagDVTARGETDEVICE@@PEAUHDC__@@2PEBU_RECTL@@3@Z 00000001800090e8 f i Scanner.obj
 0001:000081fc       ?InPlaceActivate@CComControlBase@ATL@@QEAAJJPEBUtagRECT@@@Z 00000001800091fc f i Scanner.obj
 0001:00008534       ?Init@?$CComEnumImpl@UIEnumConnectionPoints@@$1?_GUID_b196b285_bab4_101a_b69c_00aa00341d07@@3U__s_GUID@@BPEAUIConnectionPoint@@V?$_CopyInterface@UIConnectionPoint@@@ATL@@@ATL@@QEAAJPEAPEAUIConnectionPoint@@0PEAUIUnknown@@W4CComEnumFlags@2@@Z 0000000180009534 f i Scanner.obj
 0001:00008654       ?Init@?$CComEnumImpl@UIEnumConnections@@$1?_GUID_b196b287_bab4_101a_b69c_00aa00341d07@@3U__s_GUID@@BUtagCONNECTDATA@@V?$_Copy@UtagCONNECTDATA@@@ATL@@@ATL@@QEAAJPEAUtagCONNECTDATA@@0PEAUIUnknown@@W4CComEnumFlags@2@@Z 0000000180009654 f i Scanner.obj
 0001:00008778       ?IsEqualObject@?$CComPtrBase@UITypeInfo@@@ATL@@QEAA_NPEAUIUnknown@@@Z 0000000180009778 f i Scanner.obj
 0001:00008778       ?IsEqualObject@?$CComPtrBase@UIOleClientSite@@@ATL@@QEAA_NPEAUIUnknown@@@Z 0000000180009778 f i Scanner.obj
 0001:00008804       ?LoadNameCache@CComTypeInfoHolder@ATL@@QEAAJPEAUITypeInfo@@@Z 0000000180009804 f i Scanner.obj
 0001:00008988       ?Lookup@?$CSimpleMap@PEA_WPEA_WVCExpansionVectorEqualHelper@ATL@@@ATL@@QEBAPEA_WAEBQEA_W@Z 0000000180009988 f i Scanner.obj
 0001:00008a14       ?NextToken@CRegParser@ATL@@IEAAJPEA_W@Z 0000000180009a14 f i Scanner.obj
 0001:00008bcc       ?OnKillFocus@CComControlBase@ATL@@QEAA_JI_K_JAEAH@Z 0000000180009bcc f i Scanner.obj
 0001:00008c68       ?OnMouseActivate@CComControlBase@ATL@@QEAA_JI_K_JAEAH@Z 0000000180009c68 f i Scanner.obj
 0001:00008d08       ?OnPaint@CComControlBase@ATL@@QEAA_JI_K_JAEAH@Z 0000000180009d08 f i Scanner.obj
 0001:00008df4       ?OnSetFocus@CComControlBase@ATL@@QEAA_JI_K_JAEAH@Z 0000000180009df4 f i Scanner.obj
 0001:00008ef0       ?Open@CRegKey@ATL@@QEAAJPEAUHKEY__@@PEB_WK@Z 0000000180009ef0 f i Scanner.obj
 0001:00008f7c       ?PreProcessBuffer@CRegParser@ATL@@QEAAJPEA_WPEAPEA_W@Z 0000000180009f7c f i Scanner.obj
 0001:00009300       ?ProcessWindowMessage@?$CComControl@VCOPOSScanner@@V?$CWindowImpl@VCOPOSScanner@@VCWindow@ATL@@V?$CWinTraits@$0FGAAAAAA@$0A@@3@@ATL@@@ATL@@UEAAHPEAUHWND__@@I_K_JAEA_JK@Z 000000018000a300 f i Scanner.obj
 0001:000093e4       ?PutProperty@?$CComPtr@UIDispatch@@@ATL@@SAJPEAUIDispatch@@JPEAUtagVARIANT@@@Z 000000018000a3e4 f i Scanner.obj
 0001:000094e8       ?ReadFromStream@CComBSTR@ATL@@QEAAJPEAUIStream@@@Z 000000018000a4e8 f i Scanner.obj
 0001:00009644       ?ReadFromStream@CComVariant@ATL@@QEAAJPEAUIStream@@GTClassesAllowedInStream@2@K@Z 000000018000a644 f i Scanner.obj
 0001:00009854       ?RecurseDeleteKey@CRegKey@ATL@@QEAAJPEB_W@Z 000000018000a854 f i Scanner.obj
 0001:00009960       ?RegCreateKeyExW@CAtlTransactionManager@ATL@@QEAAJPEAUHKEY__@@PEB_WKPEA_WKKQEAU_SECURITY_ATTRIBUTES@@PEAPEAU3@PEAK@Z 000000018000a960 f i Scanner.obj
 0001:00009a94       ?RegDeleteKeyW@CAtlTransactionManager@ATL@@QEAAJPEAUHKEY__@@PEB_W@Z 000000018000aa94 f i Scanner.obj
 0001:00009b20       ?RegOpenKeyExW@CAtlTransactionManager@ATL@@QEAAJPEAUHKEY__@@PEB_WKKPEAPEAU3@@Z 000000018000ab20 f i Scanner.obj
 0001:00009bd8       ?RegisterBuffer@CRegParser@ATL@@QEAAJPEA_WH@Z 000000018000abd8 f i Scanner.obj
 0001:00009d40       ?RegisterFromResource@CRegObject@ATL@@IEAAJPEB_W00H@Z 000000018000ad40 f i Scanner.obj
 0001:00009efc       ?RegisterServer@CComModule@ATL@@QEAAJHPEBU_GUID@@@Z 000000018000aefc f i Scanner.obj
 0001:00009fbc       ?RegisterSubkeys@CRegParser@ATL@@IEAAJPEA_WPEAUHKEY__@@HH@Z 000000018000afbc f i Scanner.obj
 0001:0000a6b0       ?SendOnDataChange@CComControlBase@ATL@@QEAAJK@Z 000000018000b6b0 f i Scanner.obj
 0001:0000a720       ?SetControlFocus@CComControlBase@ATL@@QEAAHH@Z 000000018000b720 f i Scanner.obj
 0001:0000a7fc       ?SkipAssignment@CRegParser@ATL@@IEAAJPEA_W@Z 000000018000b7fc f i Scanner.obj
 0001:0000a8a0       ?Term@CComModule@ATL@@QEAAXXZ 000000018000b8a0 f i Scanner.obj
 0001:0000a94c       ?UnregisterServer@CComModule@ATL@@QEAAJHPEBU_GUID@@@Z 000000018000b94c f i Scanner.obj
 0001:0000a9fc       ?UpdateRegistryFromResource@CAtlModule@ATL@@QEAAJIHPEAU_ATL_REGMAP_ENTRY@2@@Z 000000018000b9fc f i Scanner.obj
 0001:0000ad34       ?UpdateRegistryFromResource@CAtlModule@ATL@@QEAAJPEB_WHPEAU_ATL_REGMAP_ENTRY@2@@Z 000000018000bd34 f i Scanner.obj
 0001:0000b08c       ?VTFromRegType@CRegParser@ATL@@KAHPEB_WAEAG@Z 000000018000c08c f i Scanner.obj
 0001:0000b128       ?WindowProc@?$CWindowImplBaseT@VCWindow@ATL@@V?$CWinTraits@$0FGAAAAAA@$0A@@2@@ATL@@SA_JPEAUHWND__@@I_K_J@Z 000000018000c128 f i Scanner.obj
 0001:0000b294       ?WriteToStream@CComBSTR@ATL@@QEAAJPEAUIStream@@@Z 000000018000c294 f i Scanner.obj
 0001:0000b314       ?WriteToStream@CComVariant@ATL@@QEAAJPEAUIStream@@@Z 000000018000c314 f i Scanner.obj
 0001:0000b528       ?WriteToStream@CComVariant@ATL@@QEAAJPEAUIStream@@G@Z 000000018000c528 f i Scanner.obj
 0001:0000b5c0       ?_AtlVerifyStackAvailable@_ATL_SAFE_ALLOCA_IMPL@ATL@@YA_N_K@Z 000000018000c5c0 f i Scanner.obj
 0001:0000b644       ?atlCreate@?$CWindowImpl@VCOPOSScanner@@VCWindow@ATL@@V?$CWinTraits@$0FGAAAAAA@$0A@@3@@ATL@@QEAAPEAUHWND__@@PEAU3@V_U_RECT@2@PEB_WKKV_U_MENUorID@2@PEAX@Z 000000018000c644 f i Scanner.obj
 0001:0000b6f4       ?atlCreate@?$CWindowImplBaseT@VCWindow@ATL@@V?$CWinTraits@$0FGAAAAAA@$0A@@2@@ATL@@QEAAPEAUHWND__@@PEAU3@V_U_RECT@2@PEB_WKKV_U_MENUorID@2@GPEAX@Z 000000018000c6f4 f i Scanner.obj
 0001:0000b864       ?atlCreate@CRegKey@ATL@@QEAAJPEAUHKEY__@@PEB_WPEA_WKKPEAU_SECURITY_ATTRIBUTES@@PEAK@Z 000000018000c864 f i Scanner.obj
 0001:0000b950       DllCanUnloadNow            000000018000c950 f   Scanner.obj
 0001:0000b95c       DllGetClassObject          000000018000c95c f   Scanner.obj
 0001:0000b974       DllMain                    000000018000c974 f   Scanner.obj
 0001:0000ba1c       DllRegisterServer          000000018000ca1c f   Scanner.obj
 0001:0000ba30       DllUnregisterServer        000000018000ca30 f   Scanner.obj
 0001:0000ba44       __local_stdio_printf_options 000000018000ca44 f i Scanner.obj
 0001:0000bad4       swprintf_s                 000000018000cad4 f i Scanner.obj
 0001:0000bb28       ??0COPOSScanner@@QEAA@XZ   000000018000cb28 f   ScannerImpl.obj
 0001:0000bbf0       ??1?$IConnectionPointImpl@VCOPOSScanner@@$1?IID_IPropertyNotifySink@@3U_GUID@@BVCComDynamicUnkArray@ATL@@@ATL@@QEAA@XZ 000000018000cbf0 f i ScannerImpl.obj
 0001:0000bbf0       ??1?$IConnectionPointImpl@VCOPOSScanner@@$1?DIID__IOPOSScannerEvents@@3U_GUID@@BVCComDynamicUnkArray@ATL@@@ATL@@QEAA@XZ 000000018000cbf0 f i ScannerImpl.obj
 0001:0000bc4c       ??1CComControlBase@ATL@@UEAA@XZ 000000018000cc4c f i ScannerImpl.obj
 0001:0000bcc8       ??1COPOSScanner@@UEAA@XZ   000000018000ccc8 f   ScannerImpl.obj
 0001:0000bd2c       ?CheckHealth@COPOSScanner@@UEAAJJPEAJ@Z 000000018000cd2c f   ScannerImpl.obj
 0001:0000bda8       ?ClaimDevice@COPOSScanner@@UEAAJJPEAJ@Z 000000018000cda8 f   ScannerImpl.obj
 0001:0000be48       ?ClearInput@COPOSScanner@@UEAAJPEAJ@Z 000000018000ce48 f   ScannerImpl.obj
 0001:0000be70       ?ClearInputProperties@COPOSScanner@@UEAAJPEAJ@Z 000000018000ce70 f   ScannerImpl.obj
 0001:0000be98       ?Close@COPOSScanner@@UEAAJPEAJ@Z 000000018000ce98 f   ScannerImpl.obj
 0001:0000bf50       ?CompareFirmwareVersion@COPOSScanner@@UEAAJPEA_WPEAJ1@Z 000000018000cf50 f   ScannerImpl.obj
 0001:0000c02c       ?DirectIO@COPOSScanner@@UEAAJJPEAJPEAPEA_W0@Z 000000018000d02c f   ScannerImpl.obj
 0001:0000c128       ?DoInvoke@COPOSScanner@@IEAAJJPEAVOposVariant@@IHPEAJ_N@Z 000000018000d128 f   ScannerImpl.obj
 0001:0000c25c       ?EventInit@COPOSScanner@@IEAAJXZ 000000018000d25c f i ScannerImpl.obj
 0001:0000c3a4       ?EventUninit@COPOSScanner@@IEAAXXZ 000000018000d3a4 f i ScannerImpl.obj
 0001:0000c408       ?EventWindowProc@COPOSScanner@@IEAA_JI_K_J@Z 000000018000d408 f i ScannerImpl.obj
 0001:0000c594       ?FinalConstruct@COPOSScanner@@QEAAJXZ 000000018000d594 f   ScannerImpl.obj
 0001:0000c5d0       ?FreezeEvents@COPOSScanner@@MEAAJH@Z 000000018000d5d0 f   ScannerImpl.obj
 0001:0000c644       ?GetOposProp@COPOSScanner@@IEAAJJPEAJJ@Z 000000018000d644 f   ScannerImpl.obj
 0001:0000c760       ?GetOposProp@COPOSScanner@@IEAAJJPEAPEA_WJ@Z 000000018000d760 f   ScannerImpl.obj
 0001:0000c88c       ?OnDraw@COPOSScanner@@MEAAJAEAUATL_DRAWINFO@@@Z 000000018000d88c f   ScannerImpl.obj
 0001:0000c978       ?Open@COPOSScanner@@UEAAJPEA_WPEAJ@Z 000000018000d978 f   ScannerImpl.obj
 0001:0000d200       ?ReleaseDevice@COPOSScanner@@UEAAJPEAJ@Z 000000018000e200 f   ScannerImpl.obj
 0001:0000d26c       ?ResetStatistics@COPOSScanner@@UEAAJPEA_WPEAJ@Z 000000018000e26c f   ScannerImpl.obj
 0001:0000d2f4       ?RetrieveStatistics@COPOSScanner@@UEAAJPEAPEA_WPEAJ@Z 000000018000e2f4 f   ScannerImpl.obj
 0001:0000d37c       ?SOProcessID@COPOSScanner@@UEAAJPEAJ@Z 000000018000e37c f   ScannerImpl.obj
 0001:0000d398       ?SetCOFreezeEvents@COPOSScanner@@IEAAXF@Z 000000018000e398 f   ScannerImpl.obj
 0001:0000d47c       ?SetOposProp@COPOSScanner@@IEAAJJJJ@Z 000000018000e47c f   ScannerImpl.obj
 0001:0000d5dc       ?UpdateFirmware@COPOSScanner@@UEAAJPEA_WPEAJ@Z 000000018000e5dc f   ScannerImpl.obj
 0001:0000d664       ?UpdateStatistics@COPOSScanner@@UEAAJPEA_WPEAJ@Z 000000018000e664 f   ScannerImpl.obj
 0001:0000d6ec       ?get_AutoDisable@COPOSScanner@@UEAAJPEAF@Z 000000018000e6ec f   ScannerImpl.obj
 0001:0000d720       ?get_BinaryConversion@COPOSScanner@@UEAAJPEAJ@Z 000000018000e720 f   ScannerImpl.obj
 0001:0000d734       ?get_CapCompareFirmwareVersion@COPOSScanner@@UEAAJPEAF@Z 000000018000e734 f   ScannerImpl.obj
 0001:0000d768       ?get_CapPowerReporting@COPOSScanner@@UEAAJPEAJ@Z 000000018000e768 f   ScannerImpl.obj
 0001:0000d77c       ?get_CapStatisticsReporting@COPOSScanner@@UEAAJPEAF@Z 000000018000e77c f   ScannerImpl.obj
 0001:0000d7b0       ?get_CapUpdateFirmware@COPOSScanner@@UEAAJPEAF@Z 000000018000e7b0 f   ScannerImpl.obj
 0001:0000d7e4       ?get_CapUpdateStatistics@COPOSScanner@@UEAAJPEAF@Z 000000018000e7e4 f   ScannerImpl.obj
 0001:0000d818       ?get_CheckHealthText@COPOSScanner@@UEAAJPEAPEA_W@Z 000000018000e818 f   ScannerImpl.obj
 0001:0000d828       ?get_Claimed@COPOSScanner@@UEAAJPEAF@Z 000000018000e828 f   ScannerImpl.obj
 0001:0000d858       ?get_ControlObjectDescription@COPOSScanner@@UEAAJPEAPEA_W@Z 000000018000e858 f   ScannerImpl.obj
 0001:0000d8bc       ?get_ControlObjectVersion@COPOSScanner@@UEAAJPEAJ@Z 000000018000e8bc f   ScannerImpl.obj
 0001:0000d8c8       ?get_DataCount@COPOSScanner@@UEAAJPEAJ@Z 000000018000e8c8 f   ScannerImpl.obj
 0001:0000d8dc       ?get_DataEventEnabled@COPOSScanner@@UEAAJPEAF@Z 000000018000e8dc f   ScannerImpl.obj
 0001:0000d90c       ?get_DecodeData@COPOSScanner@@UEAAJPEAF@Z 000000018000e90c f   ScannerImpl.obj
 0001:0000d940       ?get_DeviceDescription@COPOSScanner@@UEAAJPEAPEA_W@Z 000000018000e940 f   ScannerImpl.obj
 0001:0000d950       ?get_DeviceEnabled@COPOSScanner@@UEAAJPEAF@Z 000000018000e950 f   ScannerImpl.obj
 0001:0000d980       ?get_DeviceName@COPOSScanner@@UEAAJPEAPEA_W@Z 000000018000e980 f   ScannerImpl.obj
 0001:0000d990       ?get_FreezeEvents@COPOSScanner@@UEAAJPEAF@Z 000000018000e990 f   ScannerImpl.obj
 0001:0000d9c0       ?get_OpenResult@COPOSScanner@@UEAAJPEAJ@Z 000000018000e9c0 f   ScannerImpl.obj
 0001:0000d9cc       ?get_PowerNotify@COPOSScanner@@UEAAJPEAJ@Z 000000018000e9cc f   ScannerImpl.obj
 0001:0000d9e0       ?get_PowerState@COPOSScanner@@UEAAJPEAJ@Z 000000018000e9e0 f   ScannerImpl.obj
 0001:0000d9f4       ?get_ResultCode@COPOSScanner@@UEAAJPEAJ@Z 000000018000e9f4 f   ScannerImpl.obj
 0001:0000da30       ?get_ResultCodeExtended@COPOSScanner@@UEAAJPEAJ@Z 000000018000ea30 f   ScannerImpl.obj
 0001:0000da40       ?get_ScanData@COPOSScanner@@UEAAJPEAPEA_W@Z 000000018000ea40 f   ScannerImpl.obj
 0001:0000da50       ?get_ScanDataLabel@COPOSScanner@@UEAAJPEAPEA_W@Z 000000018000ea50 f   ScannerImpl.obj
 0001:0000da64       ?get_ScanDataType@COPOSScanner@@UEAAJPEAJ@Z 000000018000ea64 f   ScannerImpl.obj
 0001:0000da78       ?get_ServiceObjectDescription@COPOSScanner@@UEAAJPEAPEA_W@Z 000000018000ea78 f   ScannerImpl.obj
 0001:0000da88       ?get_ServiceObjectVersion@COPOSScanner@@UEAAJPEAJ@Z 000000018000ea88 f   ScannerImpl.obj
 0001:0000da98       ?get_State@COPOSScanner@@UEAAJPEAJ@Z 000000018000ea98 f   ScannerImpl.obj
 0001:0000dac4       ?put_AutoDisable@COPOSScanner@@UEAAJF@Z 000000018000eac4 f   ScannerImpl.obj
 0001:0000dadc       ?put_BinaryConversion@COPOSScanner@@UEAAJJ@Z 000000018000eadc f   ScannerImpl.obj
 0001:0000daf0       ?put_DataEventEnabled@COPOSScanner@@UEAAJF@Z 000000018000eaf0 f   ScannerImpl.obj
 0001:0000db08       ?put_DecodeData@COPOSScanner@@UEAAJF@Z 000000018000eb08 f   ScannerImpl.obj
 0001:0000db24       ?put_DeviceEnabled@COPOSScanner@@UEAAJF@Z 000000018000eb24 f   ScannerImpl.obj
 0001:0000db3c       ?put_FreezeEvents@COPOSScanner@@UEAAJF@Z 000000018000eb3c f   ScannerImpl.obj
 0001:0000db8c       ?put_PowerNotify@COPOSScanner@@UEAAJJ@Z 000000018000eb8c f   ScannerImpl.obj
 0001:0000dba0       ?s_EventWindowProc@COPOSScanner@@KA_JPEAUHWND__@@I_K_J@Z 000000018000eba0 f i ScannerImpl.obj
 0001:0000dc1c       ??_U@YAPEAX_K@Z            000000018000ec1c f   LIBCMT:new_array.obj
 0001:0000dc24       ??3@YAXPEAX_K@Z            000000018000ec24 f   LIBCMT:delete_scalar_size.obj
 0001:0000dc24       ??_V@YAXPEAX@Z             000000018000ec24 f   LIBCMT:delete_array.obj
 0001:0000dc2c       ??_V@YAXPEAX_K@Z           000000018000ec2c f   LIBCMT:delete_array_size.obj
 0001:0000dc34       __scrt_acquire_startup_lock 000000018000ec34 f   LIBCMT:utility.obj
 0001:0000dc70       __scrt_dllmain_after_initialize_c 000000018000ec70 f   LIBCMT:utility.obj
 0001:0000dca4       __scrt_dllmain_before_initialize_c 000000018000eca4 f   LIBCMT:utility.obj
 0001:0000dcbc       __scrt_dllmain_crt_thread_attach 000000018000ecbc f   LIBCMT:utility.obj
 0001:0000dce4       __scrt_dllmain_crt_thread_detach 000000018000ece4 f   LIBCMT:utility.obj
 0001:0000dcfc       __scrt_dllmain_exception_filter 000000018000ecfc f   LIBCMT:utility.obj
 0001:0000dd5c       __scrt_dllmain_uninitialize_c 000000018000ed5c f   LIBCMT:utility.obj
 0001:0000dd8c       __scrt_dllmain_uninitialize_critical 000000018000ed8c f   LIBCMT:utility.obj
 0001:0000dda0       __scrt_initialize_crt      000000018000eda0 f   LIBCMT:utility.obj
 0001:0000ddec       __scrt_initialize_onexit_tables 000000018000edec f   LIBCMT:utility.obj
 0001:0000de78       __scrt_is_nonwritable_in_current_image 000000018000ee78 f   LIBCMT:utility.obj
 0001:0000df10       __scrt_release_startup_lock 000000018000ef10 f   LIBCMT:utility.obj
 0001:0000df34       __scrt_uninitialize_crt    000000018000ef34 f   LIBCMT:utility.obj
 0001:0000df60       _onexit                    000000018000ef60 f   LIBCMT:utility.obj
 0001:0000df9c       atexit                     000000018000ef9c f   LIBCMT:utility.obj
 0001:0000dfb4       ??3@YAXPEAX@Z              000000018000efb4 f   LIBCMT:delete_scalar.obj
 0001:0000e0b4       _Init_thread_footer        000000018000f0b4 f   LIBCMT:thread_safe_statics.obj
 0001:0000e114       _Init_thread_header        000000018000f114 f   LIBCMT:thread_safe_statics.obj
 0001:0000e17c       _Init_thread_notify        000000018000f17c f   LIBCMT:thread_safe_statics.obj
 0001:0000e1c0       _Init_thread_wait          000000018000f1c0 f   LIBCMT:thread_safe_statics.obj
 0001:0000e224       __raise_securityfailure    000000018000f224 f   LIBCMT:gs_report.obj
 0001:0000e258       __report_gsfailure         000000018000f258 f   LIBCMT:gs_report.obj
 0001:0000e32c       __report_rangecheckfailure 000000018000f32c f   LIBCMT:gs_report.obj
 0001:0000e340       __report_securityfailure   000000018000f340 f   LIBCMT:gs_report.obj
 0001:0000e4c0       ??2@YAPEAX_KAEBUnothrow_t@std@@@Z 000000018000f4c0 f   LIBCMT:new_scalar_nothrow.obj
 0001:0000e4e0       ??_U@YAPEAX_KAEBUnothrow_t@std@@@Z 000000018000f4e0 f   LIBCMT:new_array_nothrow.obj
 0001:0000e4e8       __GSHandlerCheck           000000018000f4e8 f   LIBCMT:gshandler.obj
 0001:0000e508       __GSHandlerCheckCommon     000000018000f508 f   LIBCMT:gshandler.obj
 0001:0000e564       __GSHandlerCheck_SEH       000000018000f564 f   LIBCMT:gshandlerseh.obj
 0001:0000e600       __chkstk                   000000018000f600 f   LIBCMT:chkstk.obj
 0001:0000e600       _alloca_probe              000000018000f600 f   LIBCMT:chkstk.obj
 0001:0000e670       __security_check_cookie    000000018000f670 f   LIBCMT:amdsecgs.obj
 0001:0000e9b4       _DllMainCRTStartup         000000018000f9b4 f   LIBCMT:dll_dllmain.obj
 0001:0000e9f4       ??2@YAPEAX_K@Z             000000018000f9f4 f   LIBCMT:new_scalar.obj
 0001:0000ea30       __isa_available_init       000000018000fa30 f   LIBCMT:cpu_disp.obj
 0001:0000ebac       __scrt_is_ucrt_dll_in_use  000000018000fbac f   LIBCMT:ucrt_detection.obj
 0001:0000ebb8       __crt_debugger_hook        000000018000fbb8 f   LIBCMT:utility_desktop.obj
 0001:0000ebc0       __scrt_fastfail            000000018000fbc0 f   LIBCMT:utility_desktop.obj
 0001:0000ed0c       __security_init_cookie     000000018000fd0c f   LIBCMT:gs_support.obj
 0001:0000edb8       ?__scrt_initialize_type_info@@YAXXZ 000000018000fdb8 f   LIBCMT:tncleanup.obj
 0001:0000edc8       ?__scrt_uninitialize_type_info@@YAXXZ 000000018000fdc8 f   LIBCMT:tncleanup.obj
 0001:0000edd4       __local_stdio_scanf_options 000000018000fdd4 f i LIBCMT:default_local_stdio_options.obj
 0001:0000eddc       __scrt_initialize_default_local_stdio_options 000000018000fddc f   LIBCMT:default_local_stdio_options.obj
 0001:0000edf8       __scrt_get_dyn_tls_init_callback 000000018000fdf8 f   LIBCMT:dyn_tls_init.obj
 0001:0000ee00       _RTC_Initialize            000000018000fe00 f   LIBCMT:initsect.obj
 0001:0000ee3c       _RTC_Terminate             000000018000fe3c f   LIBCMT:initsect.obj
 0001:0000ee78       ??0bad_alloc@std@@QEAA@AEBV01@@Z 000000018000fe78 f i LIBCMT:throw_bad_alloc.obj
 0001:0000eeb4       ??0bad_alloc@std@@QEAA@XZ  000000018000feb4 f i LIBCMT:throw_bad_alloc.obj
 0001:0000eed4       ??0bad_array_new_length@std@@QEAA@AEBV01@@Z 000000018000fed4 f i LIBCMT:throw_bad_alloc.obj
 0001:0000ef10       ??0bad_array_new_length@std@@QEAA@XZ 000000018000ff10 f i LIBCMT:throw_bad_alloc.obj
 0001:0000ef30       ??0exception@std@@QEAA@AEBV01@@Z 000000018000ff30 f i LIBCMT:throw_bad_alloc.obj
 0001:0000ef64       ??1bad_array_new_length@std@@UEAA@XZ 000000018000ff64 f i LIBCMT:throw_bad_alloc.obj
 0001:0000ef64       ??1bad_alloc@std@@UEAA@XZ  000000018000ff64 f i LIBCMT:throw_bad_alloc.obj
 0001:0000ef64       ??1bad_exception@std@@UEAA@XZ 000000018000ff64 f i libvcruntime:frame.obj
 0001:0000ef78       ??_Gexception@std@@UEAAPEAXI@Z 000000018000ff78 f i LIBCMT:throw_bad_alloc.obj
 0001:0000ef78       ??_Gbad_alloc@std@@UEAAPEAXI@Z 000000018000ff78 f i LIBCMT:throw_bad_alloc.obj
 0001:0000ef78       ??_Ebad_alloc@std@@UEAAPEAXI@Z 000000018000ff78 f i LIBCMT:throw_bad_alloc.obj
 0001:0000ef78       ??_Ebad_exception@std@@UEAAPEAXI@Z 000000018000ff78 f i libvcruntime:frame.obj
 0001:0000ef78       ??_Eexception@std@@UEAAPEAXI@Z 000000018000ff78 f i LIBCMT:throw_bad_alloc.obj
 0001:0000ef78       ??_Gbad_array_new_length@std@@UEAAPEAXI@Z 000000018000ff78 f i LIBCMT:throw_bad_alloc.obj
 0001:0000ef78       ??_Ebad_array_new_length@std@@UEAAPEAXI@Z 000000018000ff78 f i LIBCMT:throw_bad_alloc.obj
 0001:0000ef78       ??_Gbad_exception@std@@UEAAPEAXI@Z 000000018000ff78 f i libvcruntime:frame.obj
 0001:0000efbc       ?__scrt_throw_std_bad_alloc@@YAXXZ 000000018000ffbc f   LIBCMT:throw_bad_alloc.obj
 0001:0000efdc       ?__scrt_throw_std_bad_array_new_length@@YAXXZ 000000018000ffdc f   LIBCMT:throw_bad_alloc.obj
 0001:0000effc       ?what@exception@std@@UEBAPEBDXZ 000000018000fffc f i LIBCMT:throw_bad_alloc.obj
 0001:0000f010       ??_Gtype_info@@UEAAPEAXI@Z 0000000180010010 f i LIBCMT:std_type_info_static.obj
 0001:0000f010       ??_Etype_info@@UEAAPEAXI@Z 0000000180010010 f i LIBCMT:std_type_info_static.obj
 0001:0000f03c       ??0CAtlBaseModule@ATL@@QEAA@XZ 000000018001003c f   atls:atlbase.obj
 0001:0000f0e4       ??1CAtlBaseModule@ATL@@QEAA@XZ 00000001800100e4 f   atls:atlbase.obj
 0001:0000f218       ?__AllocStdCallThunk_cmn@@YAPEAXXZ 0000000180010218 f   atls:atlthunk.obj
 0001:0000f370       AtlThunk_AllocateData      0000000180010370 f   atls:atlthunk.obj
 0001:0000f3ec       AtlThunk_DataToCode        00000001800103ec f   atls:atlthunk.obj
 0001:0000f440       AtlThunk_FreeData          0000000180010440 f   atls:atlthunk.obj
 0001:0000f4a0       AtlThunk_InitData          00000001800104a0 f   atls:atlthunk.obj
 0001:0000f548       _purecall                  0000000180010548 f   libvcruntime:purevirt.obj
 0001:0000f564       wcsstr                     0000000180010564 f   libvcruntime:wcsstr.obj
 0001:0000f790       memcmp                     0000000180010790 f   libvcruntime:memcmp.obj
 0001:0000f870       memcpy_repmovs             0000000180010870 f   libvcruntime:memcpy.obj
 0001:0000f890       memmove                    0000000180010890 f   libvcruntime:memcpy.obj
 0001:0000f890       memcpy                     0000000180010890 f   libvcruntime:memcpy.obj
 0001:0000fc80       memset_repmovs             0000000180010c80 f   libvcruntime:memset.obj
 0001:0000fca0       memset                     0000000180010ca0 f   libvcruntime:memset.obj
 0001:0000fe30       __vcrt_initialize          0000000180010e30 f   libvcruntime:initialization.obj
 0001:0000fe58       __vcrt_thread_attach       0000000180010e58 f   libvcruntime:initialization.obj
 0001:0000fe6c       __vcrt_thread_detach       0000000180010e6c f   libvcruntime:initialization.obj
 0001:0000fe80       __vcrt_uninitialize        0000000180010e80 f   libvcruntime:initialization.obj
 0001:0000fe9c       __vcrt_uninitialize_critical 0000000180010e9c f   libvcruntime:initialization.obj
 0001:0000feac       __C_specific_handler       0000000180010eac f   libvcruntime:riscchandler.obj
 0001:000100b8       ??$_CallSETranslator@V__FrameHandler3@@@@YAHPEAUEHExceptionRecord@@PEA_KPEAU_CONTEXT@@PEAU_xDISPATCHER_CONTEXT@@PEBU_s_FuncInfo@@K1@Z 00000001800110b8 f i libvcruntime:risctrnsctrl.obj
 0001:0001010c       ?CatchTryBlock@__FrameHandler3@@SAPEBU_s_TryBlockMapEntry@@PEBU_s_FuncInfo@@H@Z 000000018001110c f   libvcruntime:risctrnsctrl.obj
 0001:00010160       ?ExecutionInCatch@__FrameHandler3@@SA_NPEAU_xDISPATCHER_CONTEXT@@PEBU_s_FuncInfo@@@Z 0000000180011160 f   libvcruntime:risctrnsctrl.obj
 0001:0001018c       ?FrameUnwindToEmptyState@__FrameHandler3@@SAXPEA_KPEAU_xDISPATCHER_CONTEXT@@PEBU_s_FuncInfo@@@Z 000000018001118c f   libvcruntime:risctrnsctrl.obj
 0001:000101f0       ?GetEstablisherFrame@__FrameHandler3@@SAPEA_KPEA_KPEAU_xDISPATCHER_CONTEXT@@PEBU_s_FuncInfo@@0@Z 00000001800111f0 f   libvcruntime:risctrnsctrl.obj
 0001:000102bc       ?GetRangeOfTrysToCheck@__FrameHandler3@@SA?AU?$pair@Viterator@TryBlockMap@__FrameHandler3@@V123@@std@@AEAVTryBlockMap@1@HPEAU_xDISPATCHER_CONTEXT@@PEBU_s_FuncInfo@@H@Z 00000001800112bc f   libvcruntime:risctrnsctrl.obj
 0001:000103fc       ?UnwindNestedFrames@__FrameHandler3@@SAXPEA_KPEAUEHExceptionRecord@@PEAU_CONTEXT@@0PEAXPEBU_s_FuncInfo@@HHPEBU_s_HandlerType@@PEAU_xDISPATCHER_CONTEXT@@E@Z 00000001800113fc f   libvcruntime:risctrnsctrl.obj
 0001:00010520       _CreateFrameInfo           0000000180011520 f   libvcruntime:risctrnsctrl.obj
 0001:0001055c       _FindAndUnlinkFrame        000000018001155c f   libvcruntime:risctrnsctrl.obj
 0001:000105b0       _GetImageBase              00000001800115b0 f   libvcruntime:risctrnsctrl.obj
 0001:000105c4       _GetThrowImageBase         00000001800115c4 f   libvcruntime:risctrnsctrl.obj
 0001:000105d8       _SetImageBase              00000001800115d8 f   libvcruntime:risctrnsctrl.obj
 0001:000105f0       _SetThrowImageBase         00000001800115f0 f   libvcruntime:risctrnsctrl.obj
 0001:00010608       __CxxFrameHandler3         0000000180011608 f   libvcruntime:risctrnsctrl.obj
 0001:00010690       __std_type_info_compare    0000000180011690 f   libvcruntime:std_type_info.obj
 0001:000106b8       __std_type_info_destroy_list 00000001800116b8 f   libvcruntime:std_type_info.obj
 0001:000106e4       __std_exception_copy       00000001800116e4 f   libvcruntime:std_exception.obj
 0001:00010774       __std_exception_destroy    0000000180011774 f   libvcruntime:std_exception.obj
 0001:0001079c       _CxxThrowException         000000018001179c f   libvcruntime:throw.obj
 0001:0001085c       __vcrt_freefls             000000018001185c f   libvcruntime:per_thread_data.obj
 0001:0001087c       __vcrt_freeptd             000000018001187c f   libvcruntime:per_thread_data.obj
 0001:000108cc       __vcrt_getptd              00000001800118cc f   libvcruntime:per_thread_data.obj
 0001:000108e8       __vcrt_getptd_noexit       00000001800118e8 f   libvcruntime:per_thread_data.obj
 0001:000109a8       __vcrt_initialize_ptd      00000001800119a8 f   libvcruntime:per_thread_data.obj
 0001:000109f0       __vcrt_uninitialize_ptd    00000001800119f0 f   libvcruntime:per_thread_data.obj
 0001:00010a14       __vcrt_initialize_locks    0000000180011a14 f   libvcruntime:locks.obj
 0001:00010a48       __vcrt_uninitialize_locks  0000000180011a48 f   libvcruntime:locks.obj
 0001:00010a90       _NLG_Notify                0000000180011a90 f   libvcruntime:notify.obj
 0001:00010ab0       __NLG_Dispatch2            0000000180011ab0 f   libvcruntime:notify.obj
 0001:00010ac0       __NLG_Return2              0000000180011ac0 f   libvcruntime:notify.obj
 0001:00010ac4       __except_validate_context_record 0000000180011ac4 f   libvcruntime:jbcxrval.obj
 0001:00010afc       __DestructExceptionObject  0000000180011afc f   libvcruntime:ehhelpers.obj
 0001:00010b70       ?_CallMemberFunction0@@YAXQEAX0@Z 0000000180011b70 f i libvcruntime:ehhelpers.obj
 0001:00010b74       _IsExceptionObjectToBeDestroyed 0000000180011b74 f   libvcruntime:ehhelpers.obj
 0001:00010ba4       __AdjustPointer            0000000180011ba4 f   libvcruntime:ehhelpers.obj
 0001:00010bc8       __FrameUnwindFilter        0000000180011bc8 f   libvcruntime:ehhelpers.obj
 0001:00010c14       ?GetCurrentState@__FrameHandler3@@SAHPEA_KPEAU_xDISPATCHER_CONTEXT@@PEBU_s_FuncInfo@@@Z 0000000180011c14 f   libvcruntime:ehstate.obj
 0001:00010c3c       ?GetUnwindTryBlock@__FrameHandler3@@SAHPEA_KPEAU_xDISPATCHER_CONTEXT@@PEBU_s_FuncInfo@@@Z 0000000180011c3c f   libvcruntime:ehstate.obj
 0001:00010c68       ?SetState@__FrameHandler3@@SAXPEA_KPEBU_s_FuncInfo@@H@Z 0000000180011c68 f   libvcruntime:ehstate.obj
 0001:00010c74       ?SetUnwindTryBlock@__FrameHandler3@@SAXPEA_KPEAU_xDISPATCHER_CONTEXT@@PEBU_s_FuncInfo@@H@Z 0000000180011c74 f   libvcruntime:ehstate.obj
 0001:00010cb0       ?StateFromControlPc@__FrameHandler3@@SAHPEBU_s_FuncInfo@@PEAU_xDISPATCHER_CONTEXT@@@Z 0000000180011cb0 f   libvcruntime:ehstate.obj
 0001:00010cb8       ?StateFromIp@__FrameHandler3@@SAHPEBU_s_FuncInfo@@PEAU_xDISPATCHER_CONTEXT@@_K@Z 0000000180011cb8 f   libvcruntime:ehstate.obj
 0001:000117a4       ??$TypeMatchHelper@V__FrameHandler3@@@@YAHPEBU_s_HandlerType@@PEBU_s_CatchableType@@PEBU_s_ThrowInfo@@@Z 00000001800127a4 f i libvcruntime:frame.obj
 0001:000118e8       ??$__InternalCxxFrameHandler@V__FrameHandler3@@@@YA?AW4_EXCEPTION_DISPOSITION@@PEAUEHExceptionRecord@@PEA_KPEAU_CONTEXT@@PEAU_xDISPATCHER_CONTEXT@@PEBU_s_FuncInfo@@H1E@Z 00000001800128e8 f i libvcruntime:frame.obj
 0001:00011b30       ??0bad_exception@std@@QEAA@AEBV01@@Z 0000000180012b30 f i libvcruntime:frame.obj
 0001:00011b6c       ??0bad_exception@std@@QEAA@XZ 0000000180012b6c f i libvcruntime:frame.obj
 0001:00011b8c       ?CxxCallCatchBlock@__FrameHandler3@@SAPEAXPEAU_EXCEPTION_RECORD@@@Z 0000000180012b8c f   libvcruntime:frame.obj
 0001:00011e00       ?FrameUnwindToState@__FrameHandler3@@SAXPEA_KPEAU_xDISPATCHER_CONTEXT@@PEBU_s_FuncInfo@@H@Z 0000000180012e00 f   libvcruntime:frame.obj
 0001:00011f8c       ?GetHandlerSearchState@__FrameHandler3@@SAHPEA_KPEAU_xDISPATCHER_CONTEXT@@PEBU_s_FuncInfo@@@Z 0000000180012f8c f i libvcruntime:frame.obj
 0001:0001219c       ?_CallMemberFunction1@@YAXQEAX00@Z 000000018001319c f i libvcruntime:frame.obj
 0001:000121a8       ?_CallMemberFunction2@@YAXQEAX00H@Z 00000001800131a8 f i libvcruntime:frame.obj
 0001:00012314       __vcrt_FlsAlloc            0000000180013314 f   libvcruntime:winapi_downlevel.obj
 0001:0001235c       __vcrt_FlsFree             000000018001335c f   libvcruntime:winapi_downlevel.obj
 0001:000123a4       __vcrt_FlsGetValue         00000001800133a4 f   libvcruntime:winapi_downlevel.obj
 0001:000123ec       __vcrt_FlsSetValue         00000001800133ec f   libvcruntime:winapi_downlevel.obj
 0001:00012440       __vcrt_InitializeCriticalSectionEx 0000000180013440 f   libvcruntime:winapi_downlevel.obj
 0001:000124c0       _CallSettingFrame          00000001800134c0 f   libvcruntime:handlers.obj
 0001:00012510       _CallSettingFrame_LookupContinuationIndex 0000000180013510 f   libvcruntime:handlers.obj
 0001:00012540       _CallSettingFrame_NotifyContinuationAddr 0000000180013540 f   libvcruntime:handlers.obj
 0001:00012570       _CallSettingFrameEncoded   0000000180013570 f   libvcruntime:handlers.obj
 0001:000125b8       free                       00000001800135b8 f   libucrt:free.obj
 0001:000125cc       __acrt_call_reportfault    00000001800135cc f   libucrt:invalid_parameter.obj
 0001:00012728       __acrt_initialize_invalid_parameter_handler 0000000180013728 f   libucrt:invalid_parameter.obj
 0001:00012730       _invalid_parameter         0000000180013730 f   libucrt:invalid_parameter.obj
 0001:000127e0       _invalid_parameter_noinfo  00000001800137e0 f   libucrt:invalid_parameter.obj
 0001:00012800       _invoke_watson             0000000180013800 f   libucrt:invalid_parameter.obj
 0001:00012848       __acrt_errno_from_os_error 0000000180013848 f   libucrt:errno.obj
 0001:00012890       __acrt_errno_map_os_error  0000000180013890 f   libucrt:errno.obj
 0001:000128e0       __doserrno                 00000001800138e0 f   libucrt:errno.obj
 0001:00012900       _errno                     0000000180013900 f   libucrt:errno.obj
 0001:00012920       calloc                     0000000180013920 f   libucrt:calloc.obj
 0001:00012928       malloc                     0000000180013928 f   libucrt:malloc.obj
 0001:00012930       _recalloc                  0000000180013930 f   libucrt:recalloc.obj
 0001:00012938       _recalloc_base             0000000180013938 f   libucrt:recalloc.obj
 0001:000129d0       _resetstkoflw              00000001800139d0 f   libucrt:resetstk.obj
 0001:00012afc       wcscat_s                   0000000180013afc f   libucrt:wcscat_s.obj
 0001:00012b7c       wcscpy_s                   0000000180013b7c f   libucrt:wcscpy_s.obj
 0001:00012be4       wcsncpy_s                  0000000180013be4 f   libucrt:wcsncpy_s.obj
 0001:00012e9c       ??$ensure_buffer_is_big_enough@D@formatting_buffer@__crt_stdio_output@@QEAA_N_K@Z 0000000180013e9c f i libucrt:output.obj
 0001:00012f44       ??$ensure_buffer_is_big_enough@_W@formatting_buffer@__crt_stdio_output@@QEAA_N_K@Z 0000000180013f44 f i libucrt:output.obj
 0001:00012ff0       ??$is_wide_character_specifier@_W@__crt_stdio_output@@YA_N_K_WW4length_modifier@0@@Z 0000000180013ff0 f i libucrt:output.obj
 0001:00013030       ??$type_case_integer_parse_into_buffer@I@?$output_processor@_WV?$string_output_adapter@_W@__crt_stdio_output@@V?$format_validation_base@_WV?$string_output_adapter@_W@__crt_stdio_output@@@2@@__crt_stdio_output@@AEAAXII_N@Z 0000000180014030 f i libucrt:output.obj
 0001:000130d4       ??$type_case_integer_parse_into_buffer@_K@?$output_processor@_WV?$string_output_adapter@_W@__crt_stdio_output@@V?$format_validation_base@_WV?$string_output_adapter@_W@__crt_stdio_output@@@2@@__crt_stdio_output@@AEAAX_KI_N@Z 00000001800140d4 f i libucrt:output.obj
 0001:00013178       ??$write_multiple_characters@V?$string_output_adapter@_W@__crt_stdio_output@@D@__crt_stdio_output@@YAXAEBV?$string_output_adapter@_W@0@DHQEAH@Z 0000000180014178 f i libucrt:output.obj
 0001:000131f4       ??0_LocaleUpdate@@QEAA@QEAU__crt_locale_pointers@@@Z 00000001800141f4 f i libucrt:output.obj
 0001:00013290       ?crop_zeroes@__crt_stdio_output@@YAXPEADQEAU__crt_locale_pointers@@@Z 0000000180014290 f i libucrt:output.obj
 0001:000132fc       ?parse_int_from_format_string@?$output_processor@_WV?$string_output_adapter@_W@__crt_stdio_output@@V?$format_validation_base@_WV?$string_output_adapter@_W@__crt_stdio_output@@@2@@__crt_stdio_output@@AEAA_NQEAH@Z 00000001800142fc f i libucrt:output.obj
 0001:000133a0       ?process@?$output_processor@_WV?$string_output_adapter@_W@__crt_stdio_output@@V?$format_validation_base@_WV?$string_output_adapter@_W@__crt_stdio_output@@@2@@__crt_stdio_output@@QEAAHXZ 00000001800143a0 f i libucrt:output.obj
 0001:00013628       ?state_case_size@?$output_processor@_WV?$string_output_adapter@_W@__crt_stdio_output@@V?$format_validation_base@_WV?$string_output_adapter@_W@__crt_stdio_output@@@2@@__crt_stdio_output@@AEAA_NXZ 0000000180014628 f i libucrt:output.obj
 0001:000137c0       ?state_case_type@?$output_processor@_WV?$string_output_adapter@_W@__crt_stdio_output@@V?$format_validation_base@_WV?$string_output_adapter@_W@__crt_stdio_output@@@2@@__crt_stdio_output@@AEAA_NXZ 00000001800147c0 f i libucrt:output.obj
 0001:00013a8c       ?type_case_Z@?$output_processor@_WV?$string_output_adapter@_W@__crt_stdio_output@@V?$format_validation_base@_WV?$string_output_adapter@_W@__crt_stdio_output@@@2@@__crt_stdio_output@@AEAA_NXZ 0000000180014a8c f i libucrt:output.obj
 0001:00013b08       ?type_case_a@?$output_processor@_WV?$string_output_adapter@_W@__crt_stdio_output@@V?$format_validation_base@_WV?$string_output_adapter@_W@__crt_stdio_output@@@2@@__crt_stdio_output@@AEAA_NXZ 0000000180014b08 f i libucrt:output.obj
 0001:00013d44       ?type_case_c_tchar@?$output_processor@_WV?$string_output_adapter@_W@__crt_stdio_output@@V?$format_validation_base@_WV?$string_output_adapter@_W@__crt_stdio_output@@@2@@__crt_stdio_output@@AEAA_N_W@Z 0000000180014d44 f i libucrt:output.obj
 0001:00013dec       ?type_case_integer@?$output_processor@_WV?$string_output_adapter@_W@__crt_stdio_output@@V?$format_validation_base@_WV?$string_output_adapter@_W@__crt_stdio_output@@@2@@__crt_stdio_output@@AEAA_NI_N@Z 0000000180014dec f i libucrt:output.obj
 0001:00013fb8       ?type_case_n@?$output_processor@_WV?$string_output_adapter@_W@__crt_stdio_output@@V?$format_validation_base@_WV?$string_output_adapter@_W@__crt_stdio_output@@@2@@__crt_stdio_output@@AEAA_NXZ 0000000180014fb8 f i libucrt:output.obj
 0001:00014094       ?type_case_s@?$output_processor@_WV?$string_output_adapter@_W@__crt_stdio_output@@V?$format_validation_base@_WV?$string_output_adapter@_W@__crt_stdio_output@@@2@@__crt_stdio_output@@AEAA_NXZ 0000000180015094 f i libucrt:output.obj
 0001:0001415c       ?write_stored_string_tchar@?$output_processor@_WV?$string_output_adapter@_W@__crt_stdio_output@@V?$format_validation_base@_WV?$string_output_adapter@_W@__crt_stdio_output@@@2@@__crt_stdio_output@@AEAA_N_W@Z 000000018001515c f i libucrt:output.obj
 0001:00014248       ?write_string@?$string_output_adapter@_W@__crt_stdio_output@@QEBAXQEB_WHQEAHAEAV__crt_deferred_errno_cache@@@Z 0000000180015248 f i libucrt:output.obj
 0001:000142f0       __stdio_common_vswprintf_s 00000001800152f0 f   libucrt:output.obj
 0001:00014360       _seh_filter_dll            0000000180015360 f   libucrt:exception_filter.obj
 0001:00014374       _seh_filter_exe            0000000180015374 f   libucrt:exception_filter.obj
 0001:00014764       __acrt_initialize_thread_local_exit_callback 0000000180015764 f   libucrt:exit.obj
 0001:0001476c       _cexit                     000000018001576c f   libucrt:exit.obj
 0001:0001477c       _exit                      000000018001577c f   libucrt:exit.obj
 0001:00014788       _is_c_termination_complete 0000000180015788 f   libucrt:exit.obj
 0001:00014954       __acrt_allocate_buffer_for_argv 0000000180015954 f   libucrt:argv_parsing.obj
 0001:000149b4       _configure_narrow_argv     00000001800159b4 f   libucrt:argv_parsing.obj
 0001:00014d2c       __dcrt_uninitialize_environments_nolock 0000000180015d2c f   libucrt:environment_initialization.obj
 0001:00014d64       _initialize_narrow_environment 0000000180015d64 f   libucrt:environment_initialization.obj
 0001:000150ac       _crt_atexit                00000001800160ac f   libucrt:onexit.obj
 0001:000150bc       _execute_onexit_table      00000001800160bc f   libucrt:onexit.obj
 0001:000150f8       _initialize_onexit_table   00000001800160f8 f   libucrt:onexit.obj
 0001:00015120       _register_onexit_function  0000000180016120 f   libucrt:onexit.obj
 0001:000151a0       __acrt_uninitialize_command_line 00000001800161a0 f   libucrt:argv_data.obj
 0001:00015298       __acrt_initialize          0000000180016298 f   libucrt:initialization.obj
 0001:000152ac       __acrt_thread_attach       00000001800162ac f   libucrt:initialization.obj
 0001:000152c0       __acrt_thread_detach       00000001800162c0 f   libucrt:initialization.obj
 0001:000152d0       __acrt_uninitialize        00000001800162d0 f   libucrt:initialization.obj
 0001:00015308       __acrt_uninitialize_critical 0000000180016308 f   libucrt:initialization.obj
 0001:00015318       _initterm                  0000000180016318 f   libucrt:initterm.obj
 0001:0001537c       _initterm_e                000000018001637c f   libucrt:initterm.obj
 0001:000153bc       __acrt_initialize_new_handler 00000001800163bc f   libucrt:new_handler.obj
 0001:000153c4       _callnewh                  00000001800163c4 f   libucrt:new_handler.obj
 0001:000153f4       _query_new_handler         00000001800163f4 f   libucrt:new_handler.obj
 0001:00015428       terminate                  0000000180016428 f   libucrt:terminate.obj
 0001:00015448       abort                      0000000180016448 f   libucrt:abort.obj
 0001:000154a0       strcpy_s                   00000001800164a0 f   libucrt:strcpy_s.obj
 0001:00015500       ??$parse_integer@KV?$c_string_character_source@_W@__crt_strtox@@@__crt_strtox@@YAKQEAU__crt_locale_pointers@@V?$c_string_character_source@_W@0@H_N@Z 0000000180016500 f i libucrt:atox.obj
 0001:00015bc0       strncmp                    0000000180016bc0 f   libucrt:strncmp.obj
 0001:00015c40       wcsncmp                    0000000180016c40 f   libucrt:wcsncmp.obj
 0001:00015c6c       _free_base                 0000000180016c6c f   libucrt:free_base.obj
 0001:00016024       __acrt_freeptd             0000000180017024 f   libucrt:per_thread_data.obj
 0001:00016068       __acrt_getptd              0000000180017068 f   libucrt:per_thread_data.obj
 0001:0001613c       __acrt_getptd_head         000000018001713c f   libucrt:per_thread_data.obj
 0001:000161e4       __acrt_getptd_noexit       00000001800171e4 f   libucrt:per_thread_data.obj
 0001:000162b0       __acrt_initialize_ptd      00000001800172b0 f   libucrt:per_thread_data.obj
 0001:000162ec       __acrt_uninitialize_ptd    00000001800172ec f   libucrt:per_thread_data.obj
 0001:00016310       _calloc_base               0000000180017310 f   libucrt:calloc_base.obj
 0001:00016388       _malloc_base               0000000180017388 f   libucrt:malloc_base.obj
 0001:000163e8       _msize_base                00000001800173e8 f   libucrt:msize.obj
 0001:00016424       _realloc_base              0000000180017424 f   libucrt:realloc_base.obj
 0001:00016678       __acrt_AppPolicyGetProcessTerminationMethodInternal 0000000180017678 f   libucrt:winapi_thunks.obj
 0001:000166c8       __acrt_AreFileApisANSI     00000001800176c8 f   libucrt:winapi_thunks.obj
 0001:00016704       __acrt_FlsAlloc            0000000180017704 f   libucrt:winapi_thunks.obj
 0001:0001674c       __acrt_FlsFree             000000018001774c f   libucrt:winapi_thunks.obj
 0001:00016794       __acrt_FlsGetValue         0000000180017794 f   libucrt:winapi_thunks.obj
 0001:000167dc       __acrt_FlsSetValue         00000001800177dc f   libucrt:winapi_thunks.obj
 0001:00016830       __acrt_InitializeCriticalSectionEx 0000000180017830 f   libucrt:winapi_thunks.obj
 0001:00016894       __acrt_LCMapStringEx       0000000180017894 f   libucrt:winapi_thunks.obj
 0001:00016970       __acrt_LocaleNameToLCID    0000000180017970 f   libucrt:winapi_thunks.obj
 0001:000169c0       __acrt_SetThreadStackGuarantee 00000001800179c0 f   libucrt:winapi_thunks.obj
 0001:00016a04       __acrt_initialize_winapi_thunks 0000000180017a04 f   libucrt:winapi_thunks.obj
 0001:00016a38       __acrt_uninitialize_winapi_thunks 0000000180017a38 f   libucrt:winapi_thunks.obj
 0001:00016a7c       wcstol                     0000000180017a7c f   libucrt:strtox.obj
 0001:00016aa8       _mbtowc_l                  0000000180017aa8 f   libucrt:mbtowc.obj
 0001:00016c28       mbtowc                     0000000180017c28 f   libucrt:mbtowc.obj
 0001:00016c30       wcsnlen                    0000000180017c30 f   libucrt:strnlen.obj
 0001:00016e08       __acrt_update_locale_info  0000000180017e08 f   libucrt:locale_update.obj
 0001:00016e3c       __acrt_update_multibyte_info 0000000180017e3c f   libucrt:locale_update.obj
 0001:00017708       __acrt_fp_format           0000000180018708 f   libucrt:cvt.obj
 0001:00017a0c       _fileno                    0000000180018a0c f   libucrt:fileno.obj
 0001:00017a34       __acrt_initialize_stdio    0000000180018a34 f   libucrt:_file.obj
 0001:00017b54       __acrt_uninitialize_stdio  0000000180018b54 f   libucrt:_file.obj
 0001:00017bb0       _lock_file                 0000000180018bb0 f   libucrt:_file.obj
 0001:00017bbc       _unlock_file               0000000180018bbc f   libucrt:_file.obj
 0001:00017bc8       _get_printf_count_output   0000000180018bc8 f   libucrt:printf_count_output.obj
 0001:00017c50       __acrt_set_locale_changed  0000000180018c50 f   libucrt:wsetlocale.obj
 0001:00017c5c       __acrt_uninitialize_locale 0000000180018c5c f   libucrt:wsetlocale.obj
 0001:00017e88       __acrt_initialize_lowio    0000000180018e88 f   libucrt:ioinit.obj
 0001:00017ec4       __acrt_uninitialize_lowio  0000000180018ec4 f   libucrt:ioinit.obj
 0001:00017f04       __acrt_initialize_locks    0000000180018f04 f   libucrt:locks.obj
 0001:00017f4c       __acrt_lock                0000000180018f4c f   libucrt:locks.obj
 0001:00017f68       __acrt_uninitialize_locks  0000000180018f68 f   libucrt:locks.obj
 0001:00017fa0       __acrt_unlock              0000000180018fa0 f   libucrt:locks.obj
 0001:00017fbc       __acrt_get_process_end_policy 0000000180018fbc f   libucrt:win_policies.obj
 0001:0001800c       ??$__acrt_mbs_to_wcs_cp@U__crt_win32_buffer_internal_dynamic_resizing@@@@YAHQEBDAEAV?$__crt_win32_buffer@_WU__crt_win32_buffer_internal_dynamic_resizing@@@@I@Z 000000018001900c f i libucrt:argv_wildcards.obj
 0001:00018184       ??$__acrt_wcs_to_mbs_cp@U__crt_win32_buffer_internal_dynamic_resizing@@@@YAHQEB_WAEAV?$__crt_win32_buffer@DU__crt_win32_buffer_internal_dynamic_resizing@@@@I@Z 0000000180019184 f i libucrt:argv_wildcards.obj
 0001:000189b4       __acrt_expand_narrow_argv_wildcards 00000001800199b4 f   libucrt:argv_wildcards.obj
 0001:000189bc       ??$__acrt_wcs_to_mbs_cp@U__crt_win32_buffer_no_resizing@@@@YAHQEB_WAEAV?$__crt_win32_buffer@DU__crt_win32_buffer_no_resizing@@@@I@Z 00000001800199bc f i libucrt:getmodulefilenamea.obj
 0001:00018ad0       __acrt_GetModuleFileNameA  0000000180019ad0 f   libucrt:getmodulefilenamea.obj
 0001:0001931c       __acrt_initialize_multibyte 000000018001a31c f   libucrt:mbctype.obj
 0001:0001937c       __acrt_update_thread_multibyte_data 000000018001a37c f   libucrt:mbctype.obj
 0001:00019398       _setmbcp_nolock            000000018001a398 f   libucrt:mbctype.obj
 0001:000196cc       _ismbblead                 000000018001a6cc f   libucrt:ismbbyte.obj
 0001:000196e0       __acrt_initialize_command_line 000000018001a6e0 f   libucrt:argv_data.obj
 0001:00019708       __acrt_MultiByteToWideChar 000000018001a708 f   libucrt:multibytetowidechar.obj
 0001:00019764       __acrt_WideCharToMultiByte 000000018001a764 f   libucrt:widechartomultibyte.obj
 0001:000197fc       __dcrt_get_narrow_environment_from_os 000000018001a7fc f   libucrt:get_environment_from_os.obj
 0001:00019900       __acrt_initialize_heap     000000018001a900 f   libucrt:heap_handle.obj
 0001:0001991c       __acrt_uninitialize_heap   000000018001a91c f   libucrt:heap_handle.obj
 0001:00019928       __acrt_execute_initializers 000000018001a928 f   libucrt:shared_initialization.obj
 0001:000199a8       __acrt_execute_uninitializers 000000018001a9a8 f   libucrt:shared_initialization.obj
 0001:00019a2c       __acrt_get_sigabrt_handler 000000018001aa2c f   libucrt:signal.obj
 0001:00019a5c       __acrt_initialize_signal_handlers 000000018001aa5c f   libucrt:signal.obj
 0001:00019a7c       raise                      000000018001aa7c f   libucrt:signal.obj
 0001:00019ce8       __acrt_has_user_matherr    000000018001ace8 f   libucrt:matherr.obj
 0001:00019d08       __acrt_initialize_user_matherr 000000018001ad08 f   libucrt:matherr.obj
 0001:00019d10       __acrt_invoke_user_matherr 000000018001ad10 f   libucrt:matherr.obj
 0001:00019f1c       __acrt_stdio_flush_nolock  000000018001af1c f   libucrt:fflush.obj
 0001:00019f98       _fflush_nolock             000000018001af98 f   libucrt:fflush.obj
 0001:00019fe4       _flushall                  000000018001afe4 f   libucrt:fflush.obj
 0001:00019fec       __pctype_func              000000018001afec f   libucrt:ctype.obj
 0001:0001a01c       iswctype                   000000018001b01c f   libucrt:iswctype.obj
 0001:0001a08c       __acrt_add_locale_ref      000000018001b08c f   libucrt:locale_refcounting.obj
 0001:0001a118       __acrt_free_locale         000000018001b118 f   libucrt:locale_refcounting.obj
 0001:0001a290       __acrt_locale_add_lc_time_reference 000000018001b290 f   libucrt:locale_refcounting.obj
 0001:0001a2b8       __acrt_locale_free_lc_time_if_unreferenced 000000018001b2b8 f   libucrt:locale_refcounting.obj
 0001:0001a2f0       __acrt_locale_release_lc_time_reference 000000018001b2f0 f   libucrt:locale_refcounting.obj
 0001:0001a318       __acrt_release_locale_ref  000000018001b318 f   libucrt:locale_refcounting.obj
 0001:0001a3c0       __acrt_update_thread_locale_data 000000018001b3c0 f   libucrt:locale_refcounting.obj
 0001:0001a42c       _updatetlocinfoEx_nolock   000000018001b42c f   libucrt:locale_refcounting.obj
 0001:0001a494       _query_new_mode            000000018001b494 f   libucrt:new_mode.obj
 0001:0001a49c       __acrt_DownlevelLocaleNameToLCID 000000018001b49c f   libucrt:lcidtoname_downlevel.obj
 0001:0001a54c       _isleadbyte_l              000000018001b54c f i libucrt:_wctype.obj
 0001:0001a598       ?__mbrtowc_utf8@__crt_mbstring@@YA_KPEA_WPEBD_KPEAU_Mbstatet@@@Z 000000018001b598 f   libucrt:mbrtowc.obj
 0001:0001a5d4       ?__mbsrtowcs_utf8@__crt_mbstring@@YA_KPEA_WPEAPEBD_KPEAU_Mbstatet@@@Z 000000018001b5d4 f   libucrt:mbrtowc.obj
 0001:0001a74c       __acrt_fp_strflt_to_string 000000018001b74c f   libucrt:_fptostr.obj
 0001:0001a830       ?divide@__crt_strtox@@YA_KAEAUbig_integer@1@AEBU21@@Z 000000018001b830 f i libucrt:cfout.obj
 0001:0001ac5c       __acrt_fltout              000000018001bc5c f   libucrt:cfout.obj
 0001:0001be90       _fcloseall                 000000018001ce90 f   libucrt:closeall.obj
 0001:0001bf44       __acrt_stdio_free_buffer_nolock 000000018001cf44 f   libucrt:_freebuf.obj
 0001:0001bf84       _isatty                    000000018001cf84 f   libucrt:isatty.obj
 0001:0001bfe4       __acrt_locale_free_monetary 000000018001cfe4 f   libucrt:initmon.obj
 0001:0001c0f0       __acrt_locale_free_numeric 000000018001d0f0 f   libucrt:initnum.obj
 0001:0001c1b4       __acrt_locale_free_time    000000018001d1b4 f   libucrt:inittime.obj
 0001:0001c2bc       __acrt_GetStringTypeA      000000018001d2bc f   libucrt:getstringtypea.obj
 0001:0001c44c       __acrt_lowio_create_handle_array 000000018001d44c f   libucrt:osfinfo.obj
 0001:0001c4f4       __acrt_lowio_destroy_handle_array 000000018001d4f4 f   libucrt:osfinfo.obj
 0001:0001c544       __acrt_lowio_ensure_fh_exists 000000018001d544 f   libucrt:osfinfo.obj
 0001:0001c5ec       __acrt_lowio_lock_fh       000000018001d5ec f   libucrt:osfinfo.obj
 0001:0001c614       __acrt_lowio_unlock_fh     000000018001d614 f   libucrt:osfinfo.obj
 0001:0001c63c       _free_osfhnd               000000018001d63c f   libucrt:osfinfo.obj
 0001:0001c6f8       _get_osfhandle             000000018001d6f8 f   libucrt:osfinfo.obj
 0001:0001c770       qsort                      000000018001d770 f   libucrt:qsort.obj
 0001:0001cb20       strncpy_s                  000000018001db20 f   libucrt:strncpy_s.obj
 0001:0001cca0       strpbrk                    000000018001dca0 f   libucrt:strpbrk.obj
 0001:0001d080       _mbsdec                    000000018001e080 f   libucrt:mbsdec.obj
 0001:0001d088       _mbsdec_l                  000000018001e088 f   libucrt:mbsdec.obj
 0001:0001d434       __acrt_LCMapStringA        000000018001e434 f   libucrt:lcmapstringa.obj
 0001:0001d570       _commit                    000000018001e570 f   libucrt:commit.obj
 0001:0001de64       _write                     000000018001ee64 f   libucrt:write.obj
 0001:0001df50       _write_nolock              000000018001ef50 f   libucrt:write.obj
 0001:0001e22c       __acrt_GetStringTypeW      000000018001f22c f   libucrt:getstringtypew.obj
 0001:0001e234       __ascii_wcsnicmp           000000018001f234 f   libucrt:wcsnicmp.obj
 0001:0001e280       ?__mbrtoc32_utf8@__crt_mbstring@@YA_KPEA_UPEBD_KPEAU_Mbstatet@@@Z 000000018001f280 f   libucrt:mbrtoc32.obj
 0001:0001e45c       fegetenv                   000000018001f45c f   libucrt:fegetenv.obj
 0001:0001e47c       fesetenv                   000000018001f47c f   libucrt:fesetenv.obj
 0001:0001e4c8       feholdexcept               000000018001f4c8 f   libucrt:feholdexcept.obj
 0001:0001e518       ceil                       000000018001f518 f   libucrt:ceil.obj
 0001:0001e5e0       log10                      000000018001f5e0 f   libucrt:log10.obj
 0001:0001ec28       _lseeki64_nolock           000000018001fc28 f   libucrt:lseek.obj
 0001:0001ec30       _fclose_nolock             000000018001fc30 f   libucrt:fclose.obj
 0001:0001ecb4       fclose                     000000018001fcb4 f   libucrt:fclose.obj
 0001:0001ed18       _query_app_type            000000018001fd18 f   libucrt:report_runtime_error.obj
 0001:0001ed20       __strncnt                  000000018001fd20 f   libucrt:strncnt.obj
 0001:0001ed38       _putwch_nolock             000000018001fd38 f   libucrt:putwch.obj
 0001:0001ed74       __acrt_fenv_get_control    000000018001fd74 f   libucrt:_fenvutils.obj
 0001:0001ee68       __acrt_fenv_get_status     000000018001fe68 f   libucrt:_fenvutils.obj
 0001:0001eebc       __acrt_fenv_set_control    000000018001febc f   libucrt:_fenvutils.obj
 0001:0001f004       __acrt_fenv_set_status     0000000180020004 f   libucrt:_fenvutils.obj
 0001:0001f088       _clearfp                   0000000180020088 f   libucrt:ieee.obj
 0001:0001f21c       _handle_error              000000018002021c f   libucrt:libm_error.obj
 0001:0001f344       _handle_nan                0000000180020344 f   libucrt:libm_error.obj
 0001:0001f360       __acrt_initialize_fma3     0000000180020360 f   libucrt:fma3_available.obj
 0001:0001f3d0       _log10_special             00000001800203d0 f   libucrt:log_special.obj
 0001:0001f4fc       _close                     00000001800204fc f   libucrt:close.obj
 0001:0001f5a0       _close_nolock              00000001800205a0 f   libucrt:close.obj
 0001:0001f660       ?__acrt_stdio_free_stream@@YAXV__crt_stdio_stream@@@Z 0000000180020660 f   libucrt:stream.obj
 0001:0001f67c       __dcrt_lowio_ensure_console_output_initialized 000000018002067c f   libucrt:initcon.obj
 0001:0001f6d0       __dcrt_terminate_console_output 00000001800206d0 f   libucrt:initcon.obj
 0001:0001f6ec       __dcrt_write_console       00000001800206ec f   libucrt:initcon.obj
 0001:0001f7c0       _get_fpsr                  00000001800207c0 f   libucrt:fpsr.obj
 0001:0001f7d0       _set_fpsr                  00000001800207d0 f   libucrt:fpsr.obj
 0001:0001f7da       _fclrf                     00000001800207da f   libucrt:fpsr.obj
 0001:0001f7ee       _frnd                      00000001800207ee f   libucrt:fpsr.obj
 0001:0001f810       _raise_exc                 0000000180020810 f   libucrt:fpexcept.obj
 0001:0001f838       _raise_exc_ex              0000000180020838 f   libucrt:fpexcept.obj
 0001:0001fb48       _set_errno_from_matherr    0000000180020b48 f   libucrt:fpexcept.obj
 0001:0001fb78       _clrfp                     0000000180020b78 f   libucrt:fpctrl.obj
 0001:0001fb98       _ctrlfp                    0000000180020b98 f   libucrt:fpctrl.obj
 0001:0001fc14       _set_statfp                0000000180020c14 f   libucrt:fpctrl.obj
 0001:0001fc34       _statfp                    0000000180020c34 f   libucrt:fpctrl.obj
 0001:0001fc45       IsProcessorFeaturePresent  0000000180020c45 f   kernel32:KERNEL32.dll
 0001:0001fc50       _FindPESection             0000000180020c50 f   LIBCMT:pesect.obj
 0001:0001fca0       _IsNonwritableInCurrentImage 0000000180020ca0 f   LIBCMT:pesect.obj
 0001:0001fcf0       _ValidateImageBase         0000000180020cf0 f   LIBCMT:pesect.obj
 0001:0001fd20       strrchr                    0000000180020d20 f   libvcruntime:strrchr.obj
 0001:0001fe60       _guard_dispatch_icall_nop  0000000180020e60 f   LIBCMT:guard_dispatch.obj
 0002:00000000       __imp_RegQueryValueExW     0000000180022000     advapi32:ADVAPI32.dll
 0002:00000008       __imp_RegSetValueExW       0000000180022008     advapi32:ADVAPI32.dll
 0002:00000010       __imp_RegQueryInfoKeyW     0000000180022010     advapi32:ADVAPI32.dll
 0002:00000018       __imp_RegOpenKeyExW        0000000180022018     advapi32:ADVAPI32.dll
 0002:00000020       __imp_RegEnumKeyExW        0000000180022020     advapi32:ADVAPI32.dll
 0002:00000028       __imp_RegDeleteValueW      0000000180022028     advapi32:ADVAPI32.dll
 0002:00000030       __imp_RegDeleteKeyW        0000000180022030     advapi32:ADVAPI32.dll
 0002:00000038       __imp_RegCreateKeyExW      0000000180022038     advapi32:ADVAPI32.dll
 0002:00000040       __imp_RegCloseKey          0000000180022040     advapi32:ADVAPI32.dll
 0002:00000048       \177ADVAPI32_NULL_THUNK_DATA 0000000180022048     advapi32:ADVAPI32.dll
 0002:00000050       __imp_GetObjectW           0000000180022050     gdi32:GDI32.dll
 0002:00000058       __imp_SelectObject         0000000180022058     gdi32:GDI32.dll
 0002:00000060       __imp_DeleteObject         0000000180022060     gdi32:GDI32.dll
 0002:00000068       __imp_CreateCompatibleDC   0000000180022068     gdi32:GDI32.dll
 0002:00000070       __imp_BitBlt               0000000180022070     gdi32:GDI32.dll
 0002:00000078       __imp_SetWindowOrgEx       0000000180022078     gdi32:GDI32.dll
 0002:00000080       __imp_SetWindowExtEx       0000000180022080     gdi32:GDI32.dll
 0002:00000088       __imp_SetViewportOrgEx     0000000180022088     gdi32:GDI32.dll
 0002:00000090       __imp_LPtoDP               0000000180022090     gdi32:GDI32.dll
 0002:00000098       __imp_SetMapMode           0000000180022098     gdi32:GDI32.dll
 0002:000000a0       __imp_SaveDC               00000001800220a0     gdi32:GDI32.dll
 0002:000000a8       __imp_RestoreDC            00000001800220a8     gdi32:GDI32.dll
 0002:000000b0       __imp_GetDeviceCaps        00000001800220b0     gdi32:GDI32.dll
 0002:000000b8       __imp_DeleteMetaFile       00000001800220b8     gdi32:GDI32.dll
 0002:000000c0       __imp_DeleteDC             00000001800220c0     gdi32:GDI32.dll
 0002:000000c8       __imp_CreateRectRgnIndirect 00000001800220c8     gdi32:GDI32.dll
 0002:000000d0       __imp_CreateMetaFileW      00000001800220d0     gdi32:GDI32.dll
 0002:000000d8       __imp_CreateDCW            00000001800220d8     gdi32:GDI32.dll
 0002:000000e0       __imp_CloseMetaFile        00000001800220e0     gdi32:GDI32.dll
 0002:000000e8       \177GDI32_NULL_THUNK_DATA  00000001800220e8     gdi32:GDI32.dll
 0002:000000f0       __imp_CloseHandle          00000001800220f0     kernel32:KERNEL32.dll
 0002:000000f8       __imp_SetEvent             00000001800220f8     kernel32:KERNEL32.dll
 0002:00000100       __imp_CreateMutexW         0000000180022100     kernel32:KERNEL32.dll
 0002:00000108       __imp_CreateEventW         0000000180022108     kernel32:KERNEL32.dll
 0002:00000110       __imp_GetCurrentProcessId  0000000180022110     kernel32:KERNEL32.dll
 0002:00000118       __imp_WriteConsoleW        0000000180022118     kernel32:KERNEL32.dll
 0002:00000120       __imp_CreateFileW          0000000180022120     kernel32:KERNEL32.dll
 0002:00000128       __imp_GetConsoleMode       0000000180022128     kernel32:KERNEL32.dll
 0002:00000130       __imp_GetConsoleCP         0000000180022130     kernel32:KERNEL32.dll
 0002:00000138       __imp_WriteFile            0000000180022138     kernel32:KERNEL32.dll
 0002:00000140       __imp_FlushFileBuffers     0000000180022140     kernel32:KERNEL32.dll
 0002:00000148       __imp_SetStdHandle         0000000180022148     kernel32:KERNEL32.dll
 0002:00000150       __imp_GetStringTypeW       0000000180022150     kernel32:KERNEL32.dll
 0002:00000158       __imp_SetFilePointerEx     0000000180022158     kernel32:KERNEL32.dll
 0002:00000160       __imp_FreeEnvironmentStringsW 0000000180022160     kernel32:KERNEL32.dll
 0002:00000168       __imp_lstrcmpiW            0000000180022168     kernel32:KERNEL32.dll
 0002:00000170       __imp_GetCommandLineW      0000000180022170     kernel32:KERNEL32.dll
 0002:00000178       __imp_GetCommandLineA      0000000180022178     kernel32:KERNEL32.dll
 0002:00000180       __imp_GetCPInfo            0000000180022180     kernel32:KERNEL32.dll
 0002:00000188       __imp_GetOEMCP             0000000180022188     kernel32:KERNEL32.dll
 0002:00000190       __imp_GetACP               0000000180022190     kernel32:KERNEL32.dll
 0002:00000198       __imp_IsValidCodePage      0000000180022198     kernel32:KERNEL32.dll
 0002:000001a0       __imp_FindNextFileW        00000001800221a0     kernel32:KERNEL32.dll
 0002:000001a8       __imp_FindFirstFileExW     00000001800221a8     kernel32:KERNEL32.dll
 0002:000001b0       __imp_FindClose            00000001800221b0     kernel32:KERNEL32.dll
 0002:000001b8       __imp_GetFileType          00000001800221b8     kernel32:KERNEL32.dll
 0002:000001c0       __imp_GetStdHandle         00000001800221c0     kernel32:KERNEL32.dll
 0002:000001c8       __imp_LCMapStringW         00000001800221c8     kernel32:KERNEL32.dll
 0002:000001d0       __imp_HeapReAlloc          00000001800221d0     kernel32:KERNEL32.dll
 0002:000001d8       __imp_HeapSize             00000001800221d8     kernel32:KERNEL32.dll
 0002:000001e0       __imp_MulDiv               00000001800221e0     kernel32:KERNEL32.dll
 0002:000001e8       __imp_GlobalLock           00000001800221e8     kernel32:KERNEL32.dll
 0002:000001f0       __imp_GlobalUnlock         00000001800221f0     kernel32:KERNEL32.dll
 0002:000001f8       __imp_GlobalAlloc          00000001800221f8     kernel32:KERNEL32.dll
 0002:00000200       __imp_FindResourceW        0000000180022200     kernel32:KERNEL32.dll
 0002:00000208       __imp_SizeofResource       0000000180022208     kernel32:KERNEL32.dll
 0002:00000210       __imp_LoadResource         0000000180022210     kernel32:KERNEL32.dll
 0002:00000218       __imp_LoadLibraryExW       0000000180022218     kernel32:KERNEL32.dll
 0002:00000220       __imp_GetProcAddress       0000000180022220     kernel32:KERNEL32.dll
 0002:00000228       __imp_GetModuleHandleW     0000000180022228     kernel32:KERNEL32.dll
 0002:00000230       __imp_GetModuleFileNameW   0000000180022230     kernel32:KERNEL32.dll
 0002:00000238       __imp_FreeLibrary          0000000180022238     kernel32:KERNEL32.dll
 0002:00000240       __imp_DisableThreadLibraryCalls 0000000180022240     kernel32:KERNEL32.dll
 0002:00000248       __imp_GetCurrentThreadId   0000000180022248     kernel32:KERNEL32.dll
 0002:00000250       __imp_Sleep                0000000180022250     kernel32:KERNEL32.dll
 0002:00000258       __imp_WaitForSingleObject  0000000180022258     kernel32:KERNEL32.dll
 0002:00000260       __imp_ReleaseMutex         0000000180022260     kernel32:KERNEL32.dll
 0002:00000268       __imp_ResetEvent           0000000180022268     kernel32:KERNEL32.dll
 0002:00000270       __imp_EnterCriticalSection 0000000180022270     kernel32:KERNEL32.dll
 0002:00000278       __imp_LeaveCriticalSection 0000000180022278     kernel32:KERNEL32.dll
 0002:00000280       __imp_SetLastError         0000000180022280     kernel32:KERNEL32.dll
 0002:00000288       __imp_EncodePointer        0000000180022288     kernel32:KERNEL32.dll
 0002:00000290       __imp_DeleteCriticalSection 0000000180022290     kernel32:KERNEL32.dll
 0002:00000298       __imp_InitializeCriticalSectionEx 0000000180022298     kernel32:KERNEL32.dll
 0002:000002a0       __imp_GetLastError         00000001800222a0     kernel32:KERNEL32.dll
 0002:000002a8       __imp_RaiseException       00000001800222a8     kernel32:KERNEL32.dll
 0002:000002b0       __imp_DecodePointer        00000001800222b0     kernel32:KERNEL32.dll
 0002:000002b8       __imp_WideCharToMultiByte  00000001800222b8     kernel32:KERNEL32.dll
 0002:000002c0       __imp_GetEnvironmentStringsW 00000001800222c0     kernel32:KERNEL32.dll
 0002:000002c8       __imp_MultiByteToWideChar  00000001800222c8     kernel32:KERNEL32.dll
 0002:000002d0       __imp_GetModuleHandleExW   00000001800222d0     kernel32:KERNEL32.dll
 0002:000002d8       __imp_ExitProcess          00000001800222d8     kernel32:KERNEL32.dll
 0002:000002e0       __imp_VirtualQuery         00000001800222e0     kernel32:KERNEL32.dll
 0002:000002e8       __imp_VirtualProtect       00000001800222e8     kernel32:KERNEL32.dll
 0002:000002f0       __imp_GetSystemInfo        00000001800222f0     kernel32:KERNEL32.dll
 0002:000002f8       __imp_TlsFree              00000001800222f8     kernel32:KERNEL32.dll
 0002:00000300       __imp_TlsSetValue          0000000180022300     kernel32:KERNEL32.dll
 0002:00000308       __imp_TlsGetValue          0000000180022308     kernel32:KERNEL32.dll
 0002:00000310       __imp_TlsAlloc             0000000180022310     kernel32:KERNEL32.dll
 0002:00000318       __imp_RtlPcToFileHeader    0000000180022318     kernel32:KERNEL32.dll
 0002:00000320       __imp_InterlockedFlushSList 0000000180022320     kernel32:KERNEL32.dll
 0002:00000328       __imp_RtlUnwindEx          0000000180022328     kernel32:KERNEL32.dll
 0002:00000330       __imp_LoadLibraryExA       0000000180022330     kernel32:KERNEL32.dll
 0002:00000338       __imp_VirtualFree          0000000180022338     kernel32:KERNEL32.dll
 0002:00000340       __imp_VirtualAlloc         0000000180022340     kernel32:KERNEL32.dll
 0002:00000348       __imp_FlushInstructionCache 0000000180022348     kernel32:KERNEL32.dll
 0002:00000350       __imp_InterlockedPushEntrySList 0000000180022350     kernel32:KERNEL32.dll
 0002:00000358       __imp_InterlockedPopEntrySList 0000000180022358     kernel32:KERNEL32.dll
 0002:00000360       __imp_GetProcessHeap       0000000180022360     kernel32:KERNEL32.dll
 0002:00000368       __imp_HeapFree             0000000180022368     kernel32:KERNEL32.dll
 0002:00000370       __imp_HeapAlloc            0000000180022370     kernel32:KERNEL32.dll
 0002:00000378       __imp_OutputDebugStringW   0000000180022378     kernel32:KERNEL32.dll
 0002:00000380       __imp_InitializeSListHead  0000000180022380     kernel32:KERNEL32.dll
 0002:00000388       __imp_GetSystemTimeAsFileTime 0000000180022388     kernel32:KERNEL32.dll
 0002:00000390       __imp_QueryPerformanceCounter 0000000180022390     kernel32:KERNEL32.dll
 0002:00000398       __imp_GetStartupInfoW      0000000180022398     kernel32:KERNEL32.dll
 0002:000003a0       __imp_IsDebuggerPresent    00000001800223a0     kernel32:KERNEL32.dll
 0002:000003a8       __imp_IsProcessorFeaturePresent 00000001800223a8     kernel32:KERNEL32.dll
 0002:000003b0       __imp_TerminateProcess     00000001800223b0     kernel32:KERNEL32.dll
 0002:000003b8       __imp_GetCurrentProcess    00000001800223b8     kernel32:KERNEL32.dll
 0002:000003c0       __imp_InitializeCriticalSectionAndSpinCount 00000001800223c0     kernel32:KERNEL32.dll
 0002:000003c8       __imp_WaitForSingleObjectEx 00000001800223c8     kernel32:KERNEL32.dll
 0002:000003d0       __imp_RtlCaptureContext    00000001800223d0     kernel32:KERNEL32.dll
 0002:000003d8       __imp_RtlLookupFunctionEntry 00000001800223d8     kernel32:KERNEL32.dll
 0002:000003e0       __imp_RtlVirtualUnwind     00000001800223e0     kernel32:KERNEL32.dll
 0002:000003e8       __imp_UnhandledExceptionFilter 00000001800223e8     kernel32:KERNEL32.dll
 0002:000003f0       __imp_SetUnhandledExceptionFilter 00000001800223f0     kernel32:KERNEL32.dll
 0002:000003f8       \177KERNEL32_NULL_THUNK_DATA 00000001800223f8     kernel32:KERNEL32.dll
 0002:00000400       __imp_OleCreatePropertyFrame 0000000180022400     oleaut32:OLEAUT32.dll
 0002:00000408       __imp_UnRegisterTypeLib    0000000180022408     oleaut32:OLEAUT32.dll
 0002:00000410       __imp_RegisterTypeLib      0000000180022410     oleaut32:OLEAUT32.dll
 0002:00000418       __imp_LoadRegTypeLib       0000000180022418     oleaut32:OLEAUT32.dll
 0002:00000420       __imp_LoadTypeLib          0000000180022420     oleaut32:OLEAUT32.dll
 0002:00000428       __imp_VarUI4FromStr        0000000180022428     oleaut32:OLEAUT32.dll
 0002:00000430       __imp_VariantInit          0000000180022430     oleaut32:OLEAUT32.dll
 0002:00000438       __imp_SysAllocStringByteLen 0000000180022438     oleaut32:OLEAUT32.dll
 0002:00000440       __imp_SysStringByteLen     0000000180022440     oleaut32:OLEAUT32.dll
 0002:00000448       __imp_VariantChangeType    0000000180022448     oleaut32:OLEAUT32.dll
 0002:00000450       __imp_VariantClear         0000000180022450     oleaut32:OLEAUT32.dll
 0002:00000458       __imp_SysStringLen         0000000180022458     oleaut32:OLEAUT32.dll
 0002:00000460       __imp_SysFreeString        0000000180022460     oleaut32:OLEAUT32.dll
 0002:00000468       __imp_SysAllocStringLen    0000000180022468     oleaut32:OLEAUT32.dll
 0002:00000470       __imp_SysAllocString       0000000180022470     oleaut32:OLEAUT32.dll
 0002:00000478       \177OLEAUT32_NULL_THUNK_DATA 0000000180022478     oleaut32:OLEAUT32.dll
 0002:00000480       __imp_UnregisterClassW     0000000180022480     user32:USER32.dll
 0002:00000488       __imp_PostMessageW         0000000180022488     user32:USER32.dll
 0002:00000490       __imp_DefWindowProcW       0000000180022490     user32:USER32.dll
 0002:00000498       __imp_CallWindowProcW      0000000180022498     user32:USER32.dll
 0002:000004a0       __imp_RegisterClassExW     00000001800224a0     user32:USER32.dll
 0002:000004a8       __imp_GetClassInfoExW      00000001800224a8     user32:USER32.dll
 0002:000004b0       __imp_CreateWindowExW      00000001800224b0     user32:USER32.dll
 0002:000004b8       __imp_IsWindow             00000001800224b8     user32:USER32.dll
 0002:000004c0       __imp_IsChild              00000001800224c0     user32:USER32.dll
 0002:000004c8       __imp_DestroyWindow        00000001800224c8     user32:USER32.dll
 0002:000004d0       __imp_ShowWindow           00000001800224d0     user32:USER32.dll
 0002:000004d8       __imp_SetWindowPos         00000001800224d8     user32:USER32.dll
 0002:000004e0       __imp_CharNextW            00000001800224e0     user32:USER32.dll
 0002:000004e8       __imp_SetFocus             00000001800224e8     user32:USER32.dll
 0002:000004f0       __imp_LoadBitmapW          00000001800224f0     user32:USER32.dll
 0002:000004f8       __imp_RegisterClassW       00000001800224f8     user32:USER32.dll
 0002:00000500       __imp_PeekMessageW         0000000180022500     user32:USER32.dll
 0002:00000508       __imp_LoadCursorW          0000000180022508     user32:USER32.dll
 0002:00000510       __imp_GetParent            0000000180022510     user32:USER32.dll
 0002:00000518       __imp_SetWindowLongPtrW    0000000180022518     user32:USER32.dll
 0002:00000520       __imp_GetWindowLongPtrW    0000000180022520     user32:USER32.dll
 0002:00000528       __imp_PtInRect             0000000180022528     user32:USER32.dll
 0002:00000530       __imp_EqualRect            0000000180022530     user32:USER32.dll
 0002:00000538       __imp_OffsetRect           0000000180022538     user32:USER32.dll
 0002:00000540       __imp_UnionRect            0000000180022540     user32:USER32.dll
 0002:00000548       __imp_IntersectRect        0000000180022548     user32:USER32.dll
 0002:00000550       __imp_GetClientRect        0000000180022550     user32:USER32.dll
 0002:00000558       __imp_InvalidateRect       0000000180022558     user32:USER32.dll
 0002:00000560       __imp_SetWindowRgn         0000000180022560     user32:USER32.dll
 0002:00000568       __imp_EndPaint             0000000180022568     user32:USER32.dll
 0002:00000570       __imp_BeginPaint           0000000180022570     user32:USER32.dll
 0002:00000578       __imp_ReleaseDC            0000000180022578     user32:USER32.dll
 0002:00000580       __imp_GetDC                0000000180022580     user32:USER32.dll
 0002:00000588       __imp_GetKeyState          0000000180022588     user32:USER32.dll
 0002:00000590       __imp_GetFocus             0000000180022590     user32:USER32.dll
 0002:00000598       \177USER32_NULL_THUNK_DATA 0000000180022598     user32:USER32.dll
 0002:000005a0       __imp_CoCreateInstance     00000001800225a0     ole32:ole32.dll
 0002:000005a8       __imp_StringFromGUID2      00000001800225a8     ole32:ole32.dll
 0002:000005b0       __imp_CoTaskMemAlloc       00000001800225b0     ole32:ole32.dll
 0002:000005b8       __imp_CoTaskMemFree        00000001800225b8     ole32:ole32.dll
 0002:000005c0       __imp_ReadClassStm         00000001800225c0     ole32:ole32.dll
 0002:000005c8       __imp_WriteClassStm        00000001800225c8     ole32:ole32.dll
 0002:000005d0       __imp_CreateDataAdviseHolder 00000001800225d0     ole32:ole32.dll
 0002:000005d8       __imp_OleSaveToStream      00000001800225d8     ole32:ole32.dll
 0002:000005e0       __imp_CreateOleAdviseHolder 00000001800225e0     ole32:ole32.dll
 0002:000005e8       __imp_OleRegGetUserType    00000001800225e8     ole32:ole32.dll
 0002:000005f0       __imp_OleRegGetMiscStatus  00000001800225f0     ole32:ole32.dll
 0002:000005f8       __imp_OleRegEnumVerbs      00000001800225f8     ole32:ole32.dll
 0002:00000600       __imp_CLSIDFromProgID      0000000180022600     ole32:ole32.dll
 0002:00000608       __imp_CoTaskMemRealloc     0000000180022608     ole32:ole32.dll
 0002:00000610       \177ole32_NULL_THUNK_DATA  0000000180022610     ole32:ole32.dll
 0002:00000618       __guard_check_icall_fptr   0000000180022618     LIBCMT:guard_support.obj
 0002:00000620       __guard_dispatch_icall_fptr 0000000180022620     LIBCMT:guard_support.obj
 0002:00000628       __xc_a                     0000000180022628     LIBCMT:initializers.obj
 0002:00000658       __xc_z                     0000000180022658     LIBCMT:initializers.obj
 0002:00000660       __xi_a                     0000000180022660     LIBCMT:initializers.obj
 0002:00000670       __acrt_stdio_initializer   0000000180022670     libucrt:stdio_initializer.obj
 0002:00000678       __acrt_multibyte_initializer 0000000180022678     libucrt:multibyte_initializer.obj
 0002:00000680       __acrt_tran_fma3_initializer 0000000180022680     libucrt:fma3_initializer.obj
 0002:00000688       __xi_z                     0000000180022688     LIBCMT:initializers.obj
 0002:00000690       __xl_a                     0000000180022690     LIBCMT:tlssup.obj
 0002:00000698       __xl_z                     0000000180022698     LIBCMT:tlssup.obj
 0002:000006a0       __xp_a                     00000001800226a0     LIBCMT:initializers.obj
 0002:000006a8       __acrt_locale_terminator   00000001800226a8     libucrt:locale_initializer.obj
 0002:000006b0       __dcrt_console_output_terminator 00000001800226b0     libucrt:console_output_initializer.obj
 0002:000006b8       __acrt_stdio_terminator    00000001800226b8     libucrt:stdio_initializer.obj
 0002:000006c0       __xp_z                     00000001800226c0     LIBCMT:initializers.obj
 0002:000006c8       __xt_a                     00000001800226c8     LIBCMT:initializers.obj
 0002:000006d0       __xt_z                     00000001800226d0     LIBCMT:initializers.obj
 0002:000006e0       ??_C@_13HADIAKP@?$AAS@     00000001800226e0     OposVariant.obj
 0002:000006e4       ??_C@_13LHMFKAAD@?$AAM@    00000001800226e4     OposVariant.obj
 0002:000006e8       ??_C@_13MKMNOPIJ@?$AAD@    00000001800226e8     OposVariant.obj
 0002:000006ec       ??_C@_13OPKGLAFF@?$AAB@    00000001800226ec     OposVariant.obj
 0002:000006f0       ??_C@_17LLMMEOJD@?$AAV?$AAa?$AAl@ 00000001800226f0     OposVariant.obj
 0002:000006f8       ??_C@_1BI@JFAIJMHL@?$AAF?$AAo?$AAr?$AAc?$AAe?$AAR?$AAe?$AAm?$AAo?$AAv?$AAe@ 00000001800226f8     OposVariant.obj
 0002:00000710       ??_C@_1BC@GCKHIPE@?$AAN?$AAo?$AAR?$AAe?$AAm?$AAo?$AAv?$AAe@ 0000000180022710     OposVariant.obj
 0002:00000728       ??_C@_1O@JDLOHAN@?$AAD?$AAe?$AAl?$AAe?$AAt?$AAe@ 0000000180022728     OposVariant.obj
 0002:00000738       ??_C@_11LOCGONAA@@         0000000180022738     OposVariant.obj
 0002:00000740       ??_7?$CComObjectCached@VCComClassFactory@ATL@@@ATL@@6B@ 0000000180022740     Scanner.obj
 0002:00000770       _GUID_00000112_0000_0000_c000_000000000046 0000000180022770     Scanner.obj
 0002:00000780       _GUID_3af24292_0c96_11ce_a0cf_00aa00600ab8 0000000180022780     Scanner.obj
 0002:00000790       _GUID_00000127_0000_0000_c000_000000000046 0000000180022790     Scanner.obj
 0002:000007a0       _GUID_0000010d_0000_0000_c000_000000000046 00000001800227a0     Scanner.obj
 0002:000007b0       ??_C@_1M@PPPPCDEP@?$AAA?$AAP?$AAP?$AAI?$AAD@ 00000001800227b0     Scanner.obj
 0002:000007c0       ??_C@_1BK@BIGILECK@?$AAA?$AAd?$AAv?$AAa?$AAp?$AAi?$AA3?$AA2?$AA?4?$AAd?$AAl?$AAl@ 00000001800227c0     Scanner.obj
 0002:000007e0       ??_C@_0BI@MNCFCPFK@RegCreateKeyTransactedW@ 00000001800227e0     Scanner.obj
 0002:000007f8       ??_7?$CComContainedObject@VCOPOSScanner@@@ATL@@6B?$IDispatchImpl@UIOPOSScanner@@$1?IID_IOPOSScanner@@3U_GUID@@B$1?LIBID_OposScanner_CCO@@3U3@B$00$0A@VCComTypeInfoHolder@ATL@@@1@@ 00000001800227f8     Scanner.obj
 0002:000009e8       ??_7?$CComContainedObject@VCOPOSScanner@@@ATL@@6BCComControlBase@1@@ 00000001800229e8     Scanner.obj
 0002:00000a10       ??_7?$CComContainedObject@VCOPOSScanner@@@ATL@@6B?$CWindowImpl@VCOPOSScanner@@VCWindow@ATL@@V?$CWinTraits@$0FGAAAAAA@$0A@@3@@1@@ 0000000180022a10     Scanner.obj
 0002:00000a30       ??_7?$CComContainedObject@VCOPOSScanner@@@ATL@@6B?$IPersistStreamInitImpl@VCOPOSScanner@@@1@@ 0000000180022a30     Scanner.obj
 0002:00000a78       ??_7?$CComContainedObject@VCOPOSScanner@@@ATL@@6B?$IOleControlImpl@VCOPOSScanner@@@1@@ 0000000180022a78     Scanner.obj
 0002:00000ab0       ??_7?$CComContainedObject@VCOPOSScanner@@@ATL@@6B?$IOleObjectImpl@VCOPOSScanner@@@1@@ 0000000180022ab0     Scanner.obj
 0002:00000b70       ??_7?$CComContainedObject@VCOPOSScanner@@@ATL@@6B?$IOleInPlaceActiveObjectImpl@VCOPOSScanner@@@1@@ 0000000180022b70     Scanner.obj
 0002:00000bc0       ??_7?$CComContainedObject@VCOPOSScanner@@@ATL@@6B?$IViewObjectExImpl@VCOPOSScanner@@@1@@ 0000000180022bc0     Scanner.obj
 0002:00000c38       ??_7?$CComContainedObject@VCOPOSScanner@@@ATL@@6B?$IOleInPlaceObjectWindowlessImpl@VCOPOSScanner@@@1@@ 0000000180022c38     Scanner.obj
 0002:00000c90       ??_7?$CComContainedObject@VCOPOSScanner@@@ATL@@6B?$IConnectionPointContainerImpl@VCOPOSScanner@@@1@@ 0000000180022c90     Scanner.obj
 0002:00000cb8       ??_7?$CComContainedObject@VCOPOSScanner@@@ATL@@6B?$IPersistStorageImpl@VCOPOSScanner@@@1@@ 0000000180022cb8     Scanner.obj
 0002:00000d08       ??_7?$CComContainedObject@VCOPOSScanner@@@ATL@@6B?$ISpecifyPropertyPagesImpl@VCOPOSScanner@@@1@@ 0000000180022d08     Scanner.obj
 0002:00000d28       ??_7?$CComContainedObject@VCOPOSScanner@@@ATL@@6B?$IQuickActivateImpl@VCOPOSScanner@@@1@@ 0000000180022d28     Scanner.obj
 0002:00000d58       ??_7?$CComContainedObject@VCOPOSScanner@@@ATL@@6B?$IDataObjectImpl@VCOPOSScanner@@@1@@ 0000000180022d58     Scanner.obj
 0002:00000db8       ??_7?$CComContainedObject@VCOPOSScanner@@@ATL@@6B?$IProvideClassInfo2Impl@$1?CLSID_OPOSScanner@@3U_GUID@@B$1?DIID__IOPOSScannerEvents@@3U2@B$1?LIBID_OposScanner_CCO@@3U2@B$00$0A@VCComTypeInfoHolder@ATL@@@1@@ 0000000180022db8     Scanner.obj
 0002:00000de0       ??_7?$CComContainedObject@VCOPOSScanner@@@ATL@@6B?$IObjectSafetyImpl@VCOPOSScanner@@$02@1@@ 0000000180022de0     Scanner.obj
 0002:00000e10       ??_7?$CComContainedObject@VCOPOSScanner@@@ATL@@6B?$IPropertyNotifySinkCP@VCOPOSScanner@@VCComDynamicUnkArray@ATL@@@1@@ 0000000180022e10     Scanner.obj
 0002:00000e50       ??_7?$CComContainedObject@VCOPOSScanner@@@ATL@@6B?$CProxy_IOPOSEvents@VCOPOSScanner@@@@@ 0000000180022e50     Scanner.obj
 0002:00000e90       _GUID_b196b287_bab4_101a_b69c_00aa00341d07 0000000180022e90     Scanner.obj
 0002:00000ea0       ??_7?$CComAggObject@VCOPOSScanner@@@ATL@@6B@ 0000000180022ea0     Scanner.obj
 0002:00000ec0       _GUID_b196b285_bab4_101a_b69c_00aa00341d07 0000000180022ec0     Scanner.obj
 0002:00000ed0       ??_7?$CComObject@VCOPOSScanner@@@ATL@@6B?$IDispatchImpl@UIOPOSScanner@@$1?IID_IOPOSScanner@@3U_GUID@@B$1?LIBID_OposScanner_CCO@@3U3@B$00$0A@VCComTypeInfoHolder@ATL@@@1@@ 0000000180022ed0     Scanner.obj
 0002:000010c0       ??_7?$CComObject@VCOPOSScanner@@@ATL@@6BCComControlBase@1@@ 00000001800230c0     Scanner.obj
 0002:000010e8       ??_7?$CComObject@VCOPOSScanner@@@ATL@@6B?$CWindowImpl@VCOPOSScanner@@VCWindow@ATL@@V?$CWinTraits@$0FGAAAAAA@$0A@@3@@1@@ 00000001800230e8     Scanner.obj
 0002:00001108       ??_7?$CComObject@VCOPOSScanner@@@ATL@@6B?$IPersistStreamInitImpl@VCOPOSScanner@@@1@@ 0000000180023108     Scanner.obj
 0002:00001150       ??_7?$CComObject@VCOPOSScanner@@@ATL@@6B?$IOleControlImpl@VCOPOSScanner@@@1@@ 0000000180023150     Scanner.obj
 0002:00001188       ??_7?$CComObject@VCOPOSScanner@@@ATL@@6B?$IOleObjectImpl@VCOPOSScanner@@@1@@ 0000000180023188     Scanner.obj
 0002:00001248       ??_7?$CComObject@VCOPOSScanner@@@ATL@@6B?$IOleInPlaceActiveObjectImpl@VCOPOSScanner@@@1@@ 0000000180023248     Scanner.obj
 0002:00001298       ??_7?$CComObject@VCOPOSScanner@@@ATL@@6B?$IViewObjectExImpl@VCOPOSScanner@@@1@@ 0000000180023298     Scanner.obj
 0002:00001310       ??_7?$CComObject@VCOPOSScanner@@@ATL@@6B?$IOleInPlaceObjectWindowlessImpl@VCOPOSScanner@@@1@@ 0000000180023310     Scanner.obj
 0002:00001368       ??_7?$CComObject@VCOPOSScanner@@@ATL@@6B?$IConnectionPointContainerImpl@VCOPOSScanner@@@1@@ 0000000180023368     Scanner.obj
 0002:00001390       ??_7?$CComObject@VCOPOSScanner@@@ATL@@6B?$IPersistStorageImpl@VCOPOSScanner@@@1@@ 0000000180023390     Scanner.obj
 0002:000013e0       ??_7?$CComObject@VCOPOSScanner@@@ATL@@6B?$ISpecifyPropertyPagesImpl@VCOPOSScanner@@@1@@ 00000001800233e0     Scanner.obj
 0002:00001400       ??_7?$CComObject@VCOPOSScanner@@@ATL@@6B?$IQuickActivateImpl@VCOPOSScanner@@@1@@ 0000000180023400     Scanner.obj
 0002:00001430       ??_7?$CComObject@VCOPOSScanner@@@ATL@@6B?$IDataObjectImpl@VCOPOSScanner@@@1@@ 0000000180023430     Scanner.obj
 0002:00001490       ??_7?$CComObject@VCOPOSScanner@@@ATL@@6B?$IProvideClassInfo2Impl@$1?CLSID_OPOSScanner@@3U_GUID@@B$1?DIID__IOPOSScannerEvents@@3U2@B$1?LIBID_OposScanner_CCO@@3U2@B$00$0A@VCComTypeInfoHolder@ATL@@@1@@ 0000000180023490     Scanner.obj
 0002:000014b8       ??_7?$CComObject@VCOPOSScanner@@@ATL@@6B?$IObjectSafetyImpl@VCOPOSScanner@@$02@1@@ 00000001800234b8     Scanner.obj
 0002:000014e8       ??_7?$CComObject@VCOPOSScanner@@@ATL@@6B?$IPropertyNotifySinkCP@VCOPOSScanner@@VCComDynamicUnkArray@ATL@@@1@@ 00000001800234e8     Scanner.obj
 0002:00001528       ??_7?$CComObject@VCOPOSScanner@@@ATL@@6B?$CProxy_IOPOSEvents@VCOPOSScanner@@@@@ 0000000180023528     Scanner.obj
 0002:00001568       ??_C@_1O@GBFKGNEO@?$AAA?$AAT?$AAL?$AA?3?$AA?$CF?$AAp@ 0000000180023568     Scanner.obj
 0002:00001578       ??_C@_1BA@PICGEGJB@?$AAD?$AAI?$AAS?$AAP?$AAL?$AAA?$AAY@ 0000000180023578     Scanner.obj
 0002:00001588       _GUID_a6bc3ac0_dbaa_11ce_9de3_00aa004bb851 0000000180023588     Scanner.obj
 0002:00001598       _GUID_0000010c_0000_0000_c000_000000000046 0000000180023598     Scanner.obj
 0002:000015a8       _GUID_9bfbbc02_eff1_101a_84ed_00aa00341d07 00000001800235a8     Scanner.obj
 0002:000015b8       _GUID_00000146_0000_0000_c000_000000000046 00000001800235b8     Scanner.obj
 0002:000015c8       ?_entries@?1??_GetEntries@?$CComEnum@UIEnumConnectionPoints@@$1?_GUID_b196b285_bab4_101a_b69c_00aa00341d07@@3U__s_GUID@@BPEAUIConnectionPoint@@V?$_CopyInterface@UIConnectionPoint@@@ATL@@VCComSingleThreadModel@6@@ATL@@SAPEBU_ATL_INTMAP_ENTRY@3@XZ@4QBU43@B 00000001800235c8     Scanner.obj
 0002:000015f8       _GUID_00020412_0000_0000_c000_000000000046 00000001800235f8     Scanner.obj
 0002:00001608       _GUID_00020401_0000_0000_c000_000000000046 0000000180023608     Scanner.obj
 0002:00001618       ??_7CComModule@ATL@@6B@    0000000180023618     Scanner.obj
 0002:00001668       _GUID_00000000_0000_0000_c000_000000000046 0000000180023668     Scanner.obj
 0002:00001678       _GUID_00020400_0000_0000_c000_000000000046 0000000180023678     Scanner.obj
 0002:00001688       ??_7?$CComObject@V?$CComEnum@UIEnumConnections@@$1?_GUID_b196b287_bab4_101a_b69c_00aa00341d07@@3U__s_GUID@@BUtagCONNECTDATA@@V?$_Copy@UtagCONNECTDATA@@@ATL@@VCComSingleThreadModel@6@@ATL@@@ATL@@6B@ 0000000180023688     Scanner.obj
 0002:000016c8       _GUID_55980ba0_35aa_11cf_b671_00aa004cd6d8 00000001800236c8     Scanner.obj
 0002:000016d8       _GUID_b196b28b_bab4_101a_b69c_00aa00341d07 00000001800236d8     Scanner.obj
 0002:000016e8       ??_C@_1M@KANJNLFF@?$AAC?$AAL?$AAS?$AAI?$AAD@ 00000001800236e8     Scanner.obj
 0002:000016f8       ??_C@_1M@EJNEECMJ@?$AAA?$AAp?$AAp?$AAI?$AAD@ 00000001800236f8     Scanner.obj
 0002:00001708       ?_entries@?1??_GetEntries@?$CComEnum@UIEnumConnections@@$1?_GUID_b196b287_bab4_101a_b69c_00aa00341d07@@3U__s_GUID@@BUtagCONNECTDATA@@V?$_Copy@UtagCONNECTDATA@@@ATL@@VCComSingleThreadModel@6@@ATL@@SAPEBU_ATL_INTMAP_ENTRY@3@XZ@4QBU43@B 0000000180023708     Scanner.obj
 0002:00001740       ?rgszNeverDelete@CRegParser@ATL@@1QBQEB_WB 0000000180023740     Scanner.obj
 0002:000017a0       ??_7CRegObject@ATL@@6B@    00000001800237a0     Scanner.obj
 0002:000017d0       ??_C@_1CK@OEKPKBNA@?$AAC?$AAo?$AAm?$AAp?$AAo?$AAn?$AAe?$AAn?$AAt?$AA?5?$AAC?$AAa?$AAt?$AAe?$AAg@ 00000001800237d0     Scanner.obj
 0002:00001800       ??_C@_1BC@NKMMNMGL@?$AAF?$AAi?$AAl?$AAe?$AAT?$AAy?$AAp?$AAe@ 0000000180023800     Scanner.obj
 0002:00001818       ??_C@_1BE@EKPAFMCP@?$AAI?$AAn?$AAt?$AAe?$AAr?$AAf?$AAa?$AAc?$AAe@ 0000000180023818     Scanner.obj
 0002:00001830       ??_C@_1BC@MAICEHGI@?$AAH?$AAa?$AAr?$AAd?$AAw?$AAa?$AAr?$AAe@ 0000000180023830     Scanner.obj
 0002:00001848       ??_C@_19HLLLM@?$AAM?$AAi?$AAm?$AAe@ 0000000180023848     Scanner.obj
 0002:00001858       ??_C@_17OMAOINJK@?$AAS?$AAA?$AAM@ 0000000180023858     Scanner.obj
 0002:00001860       ??_C@_1BC@IBECJAAI@?$AAS?$AAE?$AAC?$AAU?$AAR?$AAI?$AAT?$AAY@ 0000000180023860     Scanner.obj
 0002:00001878       ??_C@_1O@GBFINDKL@?$AAS?$AAY?$AAS?$AAT?$AAE?$AAM@ 0000000180023878     Scanner.obj
 0002:00001888       ??_C@_1BC@EAHCMADO@?$AAS?$AAo?$AAf?$AAt?$AAw?$AAa?$AAr?$AAe@ 0000000180023888     Scanner.obj
 0002:000018a0       ??_C@_1BA@JIHHIEDE@?$AAT?$AAy?$AAp?$AAe?$AAL?$AAi?$AAb@ 00000001800238a0     Scanner.obj
 0002:000018b0       ?map@?1??HKeyFromString@CRegParser@ATL@@KAPEAUHKEY__@@PEA_W@Z@4QBUkeymap@?1??123@KAPEAU4@0@Z@B 00000001800238b0     Scanner.obj
 0002:00001990       ??_C@_19NCHLBIN@?$AAH?$AAK?$AAC?$AAR@ 0000000180023990     Scanner.obj
 0002:000019a0       ??_C@_19JAPAIJDE@?$AAH?$AAK?$AAC?$AAU@ 00000001800239a0     Scanner.obj
 0002:000019b0       ??_C@_19PEALEEJB@?$AAH?$AAK?$AAL?$AAM@ 00000001800239b0     Scanner.obj
 0002:000019c0       ??_C@_17PJOJPMPB@?$AAH?$AAK?$AAU@ 00000001800239c0     Scanner.obj
 0002:000019c8       ??_C@_19PNBHMJPL@?$AAH?$AAK?$AAP?$AAD@ 00000001800239c8     Scanner.obj
 0002:000019d8       ??_C@_19GFFAIJHG@?$AAH?$AAK?$AAD?$AAD@ 00000001800239d8     Scanner.obj
 0002:000019e8       ??_C@_19OFICIBHH@?$AAH?$AAK?$AAC?$AAC@ 00000001800239e8     Scanner.obj
 0002:000019f8       ??_C@_1CE@PACHPJFI@?$AAH?$AAK?$AAE?$AAY?$AA_?$AAC?$AAL?$AAA?$AAS?$AAS?$AAE?$AAS?$AA_?$AAR?$AAO@ 00000001800239f8     Scanner.obj
 0002:00001a20       ??_C@_1CE@HLHNCBPM@?$AAH?$AAK?$AAE?$AAY?$AA_?$AAC?$AAU?$AAR?$AAR?$AAE?$AAN?$AAT?$AA_?$AAU?$AAS@ 0000000180023a20     Scanner.obj
 0002:00001a48       ??_C@_1CG@GFBEANJL@?$AAH?$AAK?$AAE?$AAY?$AA_?$AAL?$AAO?$AAC?$AAA?$AAL?$AA_?$AAM?$AAA?$AAC?$AAH@ 0000000180023a48     Scanner.obj
 0002:00001a70       ??_C@_1BG@BGODANIO@?$AAH?$AAK?$AAE?$AAY?$AA_?$AAU?$AAS?$AAE?$AAR?$AAS@ 0000000180023a70     Scanner.obj
 0002:00001a88       ??_C@_1CM@KHNNAOIC@?$AAH?$AAK?$AAE?$AAY?$AA_?$AAP?$AAE?$AAR?$AAF?$AAO?$AAR?$AAM?$AAA?$AAN?$AAC@ 0000000180023a88     Scanner.obj
 0002:00001ab8       ??_C@_1BM@HAGMMHIA@?$AAH?$AAK?$AAE?$AAY?$AA_?$AAD?$AAY?$AAN?$AA_?$AAD?$AAA?$AAT?$AAA@ 0000000180023ab8     Scanner.obj
 0002:00001ad8       ??_C@_1CI@BBJOACGG@?$AAH?$AAK?$AAE?$AAY?$AA_?$AAC?$AAU?$AAR?$AAR?$AAE?$AAN?$AAT?$AA_?$AAC?$AAO@ 0000000180023ad8     Scanner.obj
 0002:00001b00       _GUID_00000109_0000_0000_c000_000000000046 0000000180023b00     Scanner.obj
 0002:00001b10       _GUID_7fd52380_4e07_101b_ae2d_08002b2ec713 0000000180023b10     Scanner.obj
 0002:00001b20       ??_C@_1EA@NHKLICFA@?$AAH?$AAK?$AAC?$AAU?$AA?$AN?$AA?6?$AA?$HL?$AA?7?$AAS?$AAo?$AAf?$AAt?$AAw?$AAa?$AAr@ 0000000180023b20     Scanner.obj
 0002:00001b60       ??_C@_1BE@LJOLIMEM@?$AA?$AN?$AA?6?$AA?7?$AA?$HN?$AA?$AN?$AA?6?$AA?$HN?$AA?$AN?$AA?6@ 0000000180023b60     Scanner.obj
 0002:00001b78       ??_C@_1O@MNLDABAF@?$AAM?$AAo?$AAd?$AAu?$AAl?$AAe@ 0000000180023b78     Scanner.obj
 0002:00001b88       ??_C@_1BG@JBACFMF@?$AAM?$AAo?$AAd?$AAu?$AAl?$AAe?$AA_?$AAR?$AAa?$AAw@ 0000000180023b88     Scanner.obj
 0002:00001ba0       ??_C@_1BC@KAILKFFG@?$AAR?$AAE?$AAG?$AAI?$AAS?$AAT?$AAR?$AAY@ 0000000180023ba0     Scanner.obj
 0002:00001bb8       IID_IOPOSScanner_1_5       0000000180023bb8     Scanner.obj
 0002:00001bc8       IID_IOPOSScanner_1_8       0000000180023bc8     Scanner.obj
 0002:00001bd8       IID_IOPOSScanner_1_9       0000000180023bd8     Scanner.obj
 0002:00001be8       IID_IOPOSScanner_1_10      0000000180023be8     Scanner.obj
 0002:00001bf8       IID_IOPOSScanner           0000000180023bf8     Scanner.obj
 0002:00001c08       LIBID_OposScanner_CCO      0000000180023c08     Scanner.obj
 0002:00001c18       DIID__IOPOSScannerEvents   0000000180023c18     Scanner.obj
 0002:00001c28       CLSID_OPOSScanner          0000000180023c28     Scanner.obj
 0002:00001c38       _GUID_00000114_0000_0000_c000_000000000046 0000000180023c38     Scanner.obj
 0002:00001c48       _GUID_b196b284_bab4_101a_b69c_00aa00341d07 0000000180023c48     Scanner.obj
 0002:00001c60       ?_entries@?1??_GetEntries@COPOSScanner@@SAPEBU_ATL_INTMAP_ENTRY@ATL@@XZ@4QBU34@B 0000000180023c60     Scanner.obj
 0002:00001ee8       _GUID_cf51ed10_62fe_11cf_bf86_00a0c9034836 0000000180023ee8     Scanner.obj
 0002:00001ef8       _GUID_0000010a_0000_0000_c000_000000000046 0000000180023ef8     Scanner.obj
 0002:00001f08       _GUID_b196b283_bab4_101a_b69c_00aa00341d07 0000000180023f08     Scanner.obj
 0002:00001f18       _GUID_cb5bdc81_93c1_11cf_8f20_00805f2cd064 0000000180023f18     Scanner.obj
 0002:00001f30       ?pPropMap@?1??GetPropertyMap@COPOSScanner@@SAPEBUATL_PROPMAP_ENTRY@ATL@@XZ@4QBU34@B 0000000180023f30     Scanner.obj
 0002:00001fd8       ??_C@_17DGDADEHL@?$AA_?$AAc?$AAx@ 0000000180023fd8     Scanner.obj
 0002:00001fe0       ??_C@_17IOIMFDBO@?$AA_?$AAc?$AAy@ 0000000180023fe0     Scanner.obj
 0002:00001fe8       _GUID_b196b286_bab4_101a_b69c_00aa00341d07 0000000180023fe8     Scanner.obj
 0002:00001ff8       _GUID_922eada0_3424_11cf_b670_00aa004cd6d8 0000000180023ff8     Scanner.obj
 0002:00002008       _GUID_9c2cad80_3424_11cf_b670_00aa004cd6d8 0000000180024008     Scanner.obj
 0002:00002018       _GUID_00000119_0000_0000_c000_000000000046 0000000180024018     Scanner.obj
 0002:00002028       ??_C@_1CE@PGFMOFKI@?$AAS?$AAt?$AAa?$AAt?$AAu?$AAs?$AAU?$AAp?$AAd?$AAa?$AAt?$AAe?$AAE?$AAv?$AAe@ 0000000180024028     Scanner.obj
 0002:00002050       _GUID_b196b289_bab4_101a_b69c_00aa00341d07 0000000180024050     Scanner.obj
 0002:00002060       ??_C@_1BG@LODEBHDD@?$AAE?$AAr?$AAr?$AAo?$AAr?$AAE?$AAv?$AAe?$AAn?$AAt@ 0000000180024060     Scanner.obj
 0002:00002078       ??_C@_1BM@CBGEBBBJ@?$AAD?$AAi?$AAr?$AAe?$AAc?$AAt?$AAI?$AAO?$AAE?$AAv?$AAe?$AAn?$AAt@ 0000000180024078     Scanner.obj
 0002:00002098       ??_C@_1BE@IEBMACEM@?$AAD?$AAa?$AAt?$AAa?$AAE?$AAv?$AAe?$AAn?$AAt@ 0000000180024098     Scanner.obj
 0002:000020b0       _GUID_00000117_0000_0000_c000_000000000046 00000001800240b0     Scanner.obj
 0002:000020c0       ??_C@_1BC@ENICKDH@?$AAC?$AAo?$AAn?$AAt?$AAe?$AAn?$AAt?$AAs@ 00000001800240c0     Scanner.obj
 0002:000020d8       ??_7?$CComObject@V?$CComEnum@UIEnumConnectionPoints@@$1?_GUID_b196b285_bab4_101a_b69c_00aa00341d07@@3U__s_GUID@@BPEAUIConnectionPoint@@V?$_CopyInterface@UIConnectionPoint@@@ATL@@VCComSingleThreadModel@6@@ATL@@@ATL@@6B@ 00000001800240d8     Scanner.obj
 0002:00002118       ??_7CComClassFactory@ATL@@6B@ 0000000180024118     Scanner.obj
 0002:00002148       ?_entries@?1??_GetEntries@CComClassFactory@ATL@@SAPEBU_ATL_INTMAP_ENTRY@3@XZ@4QBU43@B 0000000180024148     Scanner.obj
 0002:00002178       _GUID_00000001_0000_0000_c000_000000000046 0000000180024178     Scanner.obj
 0002:00002188       _GUID_0000010e_0000_0000_c000_000000000046 0000000180024188     Scanner.obj
 0002:00002198       _GUID_b196b288_bab4_101a_b69c_00aa00341d07 0000000180024198     Scanner.obj
 0002:000021a8       _GUID_00000113_0000_0000_c000_000000000046 00000001800241a8     Scanner.obj
 0002:000021b8       _GUID_1c2056cc_5ef4_101b_8bc8_00aa003e3b29 00000001800241b8     Scanner.obj
 0002:000021c8       ??_C@_0BG@EKFFMJIO@RegOpenKeyTransactedW@ 00000001800241c8     Scanner.obj
 0002:000021e0       ??_C@_0BI@HAKLOOGP@RegDeleteKeyTransactedW@ 00000001800241e0     Scanner.obj
 0002:000021f8       ??_C@_0BA@LILAPHGE@RegDeleteKeyExW@ 00000001800241f8     Scanner.obj
 0002:00002208       ??_C@_19ILOCMLCJ@?$AA?4?$AAt?$AAl?$AAb@ 0000000180024208     Scanner.obj
 0002:00002218       _GUID_0002e012_0000_0000_c000_000000000046 0000000180024218     Scanner.obj
 0002:00002228       ??_C@_1O@FHBGLCIO@?$AAC?$AAL?$AAS?$AAI?$AAD?$AA?2@ 0000000180024228     Scanner.obj
 0002:00002238       ??_C@_1CK@IFBKBFAA@?$AA?2?$AAR?$AAe?$AAq?$AAu?$AAi?$AAr?$AAe?$AAd?$AA?5?$AAC?$AAa?$AAt?$AAe?$AAg@ 0000000180024238     Scanner.obj
 0002:00002268       ??_C@_1DA@BIHALFED@?$AA?2?$AAI?$AAm?$AAp?$AAl?$AAe?$AAm?$AAe?$AAn?$AAt?$AAe?$AAd?$AA?5?$AAC?$AAa@ 0000000180024268     Scanner.obj
 0002:00002298       ??_C@_1BK@EDKOLFBJ@?$AAO?$AAL?$AAE?$AAA?$AAU?$AAT?$AA3?$AA2?$AA?4?$AAD?$AAL?$AAL@ 0000000180024298     Scanner.obj
 0002:000022b8       ??_C@_0BJ@CNLFOMHB@UnRegisterTypeLibForUser@ 00000001800242b8     Scanner.obj
 0002:000022d8       ??_C@_0BH@LBOMMKPJ@RegisterTypeLibForUser@ 00000001800242d8     Scanner.obj
 0002:000022f0       ??_C@_0P@MMNMMLGK@COFreezeEvents@ 00000001800242f0     ScannerImpl.obj
 0002:00002300       ??_C@_0BC@OGCGGIMP@GetPropertyNumber@ 0000000180024300     ScannerImpl.obj
 0002:00002318       ??_C@_0BC@MDCNODNB@SetPropertyNumber@ 0000000180024318     ScannerImpl.obj
 0002:00002330       ??_C@_0BC@CFCCMIMD@GetPropertyString@ 0000000180024330     ScannerImpl.obj
 0002:00002348       ??_C@_0BC@CJEDNN@SetPropertyString@ 0000000180024348     ScannerImpl.obj
 0002:00002360       ??_C@_0M@LNPKKKDA@OpenService@ 0000000180024360     ScannerImpl.obj
 0002:00002370       ??_C@_0M@PCMCHHMH@CheckHealth@ 0000000180024370     ScannerImpl.obj
 0002:00002380       ??_C@_0M@JGMIDNEK@ClaimDevice@ 0000000180024380     ScannerImpl.obj
 0002:00002390       ??_C@_0L@BNEIFEJC@ClearInput@ 0000000180024390     ScannerImpl.obj
 0002:000023a0       ??_C@_0N@DDFIIBMP@CloseService@ 00000001800243a0     ScannerImpl.obj
 0002:000023b0       ??_C@_08EEIHICPC@DirectIO@ 00000001800243b0     ScannerImpl.obj
 0002:000023c0       ??_C@_0O@BCPMENMJ@ReleaseDevice@ 00000001800243c0     ScannerImpl.obj
 0002:000023d0       ??_C@_0BA@GFABKEEE@ResetStatistics@ 00000001800243d0     ScannerImpl.obj
 0002:000023e0       ??_C@_0BD@DPALHJGC@RetrieveStatistics@ 00000001800243e0     ScannerImpl.obj
 0002:000023f8       ??_C@_0BB@KOHIKNFC@UpdateStatistics@ 00000001800243f8     ScannerImpl.obj
 0002:00002410       ??_C@_0BH@PBKBNMGB@CompareFirmwareVersion@ 0000000180024410     ScannerImpl.obj
 0002:00002428       ??_C@_0P@FBPDPIPA@UpdateFirmware@ 0000000180024428     ScannerImpl.obj
 0002:00002438       ??_C@_0BF@CMAPCJGM@ClearInputProperties@ 0000000180024438     ScannerImpl.obj
 0002:00002450       ??_7?$CProxy_IOPOSEvents@VCOPOSScanner@@@@6B@ 0000000180024450     ScannerImpl.obj
 0002:00002490       ??_C@_1BA@IFHENID@?$AA?$FL?$AAE?$AAr?$AAr?$AAo?$AAr?$AA?$FN@ 0000000180024490     ScannerImpl.obj
 0002:000024a0       ??_C@_0CK@NBHIBMJG@SOFTWARE?2OLEforRetail?2ServiceOP@ 00000001800244a0     ScannerImpl.obj
 0002:000024d0       ??_C@_1M@IAIJHCCH@?$AAC?$AAl?$AAo?$AAs?$AAe@ 00000001800244d0     ScannerImpl.obj
 0002:000024e0       ??_C@_1M@PCPKGJAH@?$AAC?$AAl?$AAa?$AAi?$AAm@ 00000001800244e0     ScannerImpl.obj
 0002:000024f0       ??_C@_1BA@NDFKIOCP@?$AAR?$AAe?$AAl?$AAe?$AAa?$AAs?$AAe@ 00000001800244f0     ScannerImpl.obj
 0002:00002500       ??_C@_07JGGMAFJH@Scanner@  0000000180024500     ScannerImpl.obj
 0002:00002508       ??_C@_1BM@IJMNMBPK@?$AAG?$AAe?$AAt?$AAO?$AAp?$AAe?$AAn?$AAR?$AAe?$AAs?$AAu?$AAl?$AAt@ 0000000180024508     ScannerImpl.obj
 0002:00002528       IID_IPropertyNotifySink    0000000180024528     uuid:ocidl_i.obj
 0002:00002538       IID_IDispatch              0000000180024538     uuid:oaidl_i.obj
 0002:00002548       GUID_NULL                  0000000180024548     uuid:cguid_i.obj
 0002:00002558       CLSID_StdGlobalInterfaceTable 0000000180024558     uuid:cguid_i.obj
 0002:00002568       CLSID_StdComponentCategoriesMgr 0000000180024568     uuid:ieguids.obj
 0002:00002578       IID_IUnknown               0000000180024578     uuid:unknwn_i.obj
 0002:00002590       __xmm@ffffffffffffffffffffffffffffffff 0000000180024590     LIBCMT:utility.obj
 0002:000025a0       ??_C@_1EC@JIJBPKFM@?$AAa?$AAp?$AAi?$AA?9?$AAm?$AAs?$AA?9?$AAw?$AAi?$AAn?$AA?9?$AAc?$AAo?$AAr?$AAe@ 00000001800245a0     LIBCMT:thread_safe_statics.obj
 0002:000025e8       ??_C@_1BK@MGMFAEKH@?$AAk?$AAe?$AAr?$AAn?$AAe?$AAl?$AA3?$AA2?$AA?4?$AAd?$AAl?$AAl@ 00000001800245e8     LIBCMT:thread_safe_statics.obj
 0002:00002608       ??_C@_0BJ@JEBJOJFJ@SleepConditionVariableCS@ 0000000180024608     LIBCMT:thread_safe_statics.obj
 0002:00002628       ??_C@_0BJ@PGPPEPCC@WakeAllConditionVariable@ 0000000180024628     LIBCMT:thread_safe_statics.obj
 0002:00002641       ?nothrow@std@@3Unothrow_t@1@B 0000000180024641     LIBCMT:std_nothrow.obj
 0002:00002680       _pRawDllMain               0000000180024680     LIBCMT:dll_dllmain.obj
 0002:00002680       _pDefaultRawDllMain        0000000180024680     LIBCMT:dll_dllmain.obj
 0002:00002690       ??_7exception@std@@6B@     0000000180024690     LIBCMT:throw_bad_alloc.obj
 0002:000026a0       ??_C@_0BC@EOODALEL@Unknown?5exception@ 00000001800246a0     LIBCMT:throw_bad_alloc.obj
 0002:000026c0       ??_7bad_alloc@std@@6B@     00000001800246c0     LIBCMT:throw_bad_alloc.obj
 0002:000026d0       ??_C@_0P@GHFPNOJB@bad?5allocation@ 00000001800246d0     LIBCMT:throw_bad_alloc.obj
 0002:000026e8       ??_7bad_array_new_length@std@@6B@ 00000001800246e8     LIBCMT:throw_bad_alloc.obj
 0002:000026f8       ??_C@_0BF@KINCDENJ@bad?5array?5new?5length@ 00000001800246f8     LIBCMT:throw_bad_alloc.obj
 0002:00002718       ??_7type_info@@6B@         0000000180024718     LIBCMT:std_type_info_static.obj
 0002:00002720       GUID_ATLVer110             0000000180024720     atls:atlbase.obj
 0002:00002730       ??_C@_1IC@ONKHOIDK@?$AAE?$AAR?$AAR?$AAO?$AAR?$AA?5?$AA?3?$AA?5?$AAU?$AAn?$AAa?$AAb?$AAl?$AAe?$AA?5@ 0000000180024730     atls:atlbase.obj
 0002:000027b8       ??_C@_0N@FJEPLCIH@atlthunk?4dll@ 00000001800247b8     atls:atlthunk.obj
 0002:000027c8       ??_C@_0BG@GAKFHCBM@AtlThunk_AllocateData@ 00000001800247c8     atls:atlthunk.obj
 0002:000027e0       ??_C@_0BC@JKONFIAH@AtlThunk_InitData@ 00000001800247e0     atls:atlthunk.obj
 0002:000027f8       ??_C@_0BE@IAOEELAK@AtlThunk_DataToCode@ 00000001800247f8     atls:atlthunk.obj
 0002:00002810       ??_C@_0BC@GBGKAIPI@AtlThunk_FreeData@ 0000000180024810     atls:atlthunk.obj
 0002:00002910       _pDestructExceptionObject  0000000180024910     libvcruntime:ehhelpers.obj
 0002:00002920       ??_7bad_exception@std@@6B@ 0000000180024920     libvcruntime:frame.obj
 0002:00002930       ??_C@_0O@DPKOEFFH@bad?5exception@ 0000000180024930     libvcruntime:frame.obj
 0002:00002c80       ??_C@_08EHJDFFNH@__based?$CI@ 0000000180024c80     libvcruntime:undname.obj
 0002:00002c90       ??_C@_07KOLFKCDI@__cdecl@  0000000180024c90     libvcruntime:undname.obj
 0002:00002c98       ??_C@_08GHMPAG@__pascal@   0000000180024c98     libvcruntime:undname.obj
 0002:00002ca8       ??_C@_09IFJBGAPI@__stdcall@ 0000000180024ca8     libvcruntime:undname.obj
 0002:00002cb8       ??_C@_0L@NPHFGOKO@__thiscall@ 0000000180024cb8     libvcruntime:undname.obj
 0002:00002cc8       ??_C@_0L@JMKHOMEK@__fastcall@ 0000000180024cc8     libvcruntime:undname.obj
 0002:00002cd8       ??_C@_0N@BCKKPABJ@__vectorcall@ 0000000180024cd8     libvcruntime:undname.obj
 0002:00002ce8       ??_C@_09HIJEGCPM@__clrcall@ 0000000180024ce8     libvcruntime:undname.obj
 0002:00002cf4       ??_C@_06GHPCKEAG@__eabi@   0000000180024cf4     libvcruntime:undname.obj
 0002:00002d00       ??_C@_09IOPIDJLG@__swift_1@ 0000000180024d00     libvcruntime:undname.obj
 0002:00002d10       ??_C@_09KFNFGKHF@__swift_2@ 0000000180024d10     libvcruntime:undname.obj
 0002:00002d20       ??_C@_07JOMMBBKO@__ptr64@  0000000180024d20     libvcruntime:undname.obj
 0002:00002d28       ??_C@_0L@PILCLIHE@__restrict@ 0000000180024d28     libvcruntime:undname.obj
 0002:00002d38       ??_C@_0M@GFIIJFMG@__unaligned@ 0000000180024d38     libvcruntime:undname.obj
 0002:00002d48       ??_C@_09DHDLOLLB@restrict?$CI@ 0000000180024d48     libvcruntime:undname.obj
 0002:00002d52       ??_C@_00CNPNBAHC@@         0000000180024d52     libvcruntime:undname.obj
 0002:00002d54       ??_C@_04NIHEBCM@?5new@     0000000180024d54     libvcruntime:undname.obj
 0002:00002d60       ??_C@_07FPCDHGMM@?5delete@ 0000000180024d60     libvcruntime:undname.obj
 0002:00002d68       ??_C@_01NEMOKFLO@?$DN@     0000000180024d68     libvcruntime:undname.obj
 0002:00002d6c       ??_C@_02GPIOPFAK@?$DO?$DO@ 0000000180024d6c     libvcruntime:undname.obj
 0002:00002d70       ??_C@_02FODMEDOG@?$DM?$DM@ 0000000180024d70     libvcruntime:undname.obj
 0002:00002d74       ??_C@_01DCLJPIOD@?$CB@     0000000180024d74     libvcruntime:undname.obj
 0002:00002d78       ??_C@_02EGOFBIJA@?$DN?$DN@ 0000000180024d78     libvcruntime:undname.obj
 0002:00002d7c       ??_C@_02FDNJECIE@?$CB?$DN@ 0000000180024d7c     libvcruntime:undname.obj
 0002:00002d80       ??_C@_02GPECMEKF@?$FL?$FN@ 0000000180024d80     libvcruntime:undname.obj
 0002:00002d88       ??_C@_08LHJFAFGD@operator@ 0000000180024d88     libvcruntime:undname.obj
 0002:00002d94       ??_C@_02HBOOOICD@?9?$DO@   0000000180024d94     libvcruntime:undname.obj
 0002:00002d98       ??_C@_01NBENCBCI@?$CK@     0000000180024d98     libvcruntime:undname.obj
 0002:00002d9c       ??_C@_02ECNGHCIF@?$CL?$CL@ 0000000180024d9c     libvcruntime:undname.obj
 0002:00002da0       ??_C@_02BAABKJLB@?9?9@     0000000180024da0     libvcruntime:undname.obj
 0002:00002da4       ??_C@_01JOAMLHOP@?9@       0000000180024da4     libvcruntime:undname.obj
 0002:00002da8       ??_C@_01MIFGBAGJ@?$CL@     0000000180024da8     libvcruntime:undname.obj
 0002:00002dac       ??_C@_01HNPIGOCE@?$CG@     0000000180024dac     libvcruntime:undname.obj
 0002:00002db0       ??_C@_03MNHNFDLC@?9?$DO?$CK@ 0000000180024db0     libvcruntime:undname.obj
 0002:00002db4       ??_C@_01KMDKNFGN@?1@       0000000180024db4     libvcruntime:undname.obj
 0002:00002db8       ??_C@_01FGNFDNOH@?$CF@     0000000180024db8     libvcruntime:undname.obj
 0002:00002dbc       ??_C@_01MNNFJEPP@?$DM@     0000000180024dbc     libvcruntime:undname.obj
 0002:00002dc0       ??_C@_02EHCHHCKH@?$DM?$DN@ 0000000180024dc0     libvcruntime:undname.obj
 0002:00002dc4       ??_C@_01PPODPGHN@?$DO@     0000000180024dc4     libvcruntime:undname.obj
 0002:00002dc8       ??_C@_02EEKDKGMJ@?$DO?$DN@ 0000000180024dc8     libvcruntime:undname.obj
 0002:00002dcc       ??_C@_01IHBHIGKO@?0@       0000000180024dcc     libvcruntime:undname.obj
 0002:00002dd0       ??_C@_02HCKGKOFO@?$CI?$CJ@ 0000000180024dd0     libvcruntime:undname.obj
 0002:00002dd4       ??_C@_01PJKLJHI@?$HO@      0000000180024dd4     libvcruntime:undname.obj
 0002:00002dd8       ??_C@_01JKBOJNNK@?$FO@     0000000180024dd8     libvcruntime:undname.obj
 0002:00002ddc       ??_C@_01DNKMNLPK@?$HM@     0000000180024ddc     libvcruntime:undname.obj
 0002:00002de0       ??_C@_02PPKAJPJL@?$CG?$CG@ 0000000180024de0     libvcruntime:undname.obj
 0002:00002de4       ??_C@_02NONPIBCD@?$HM?$HM@ 0000000180024de4     libvcruntime:undname.obj
 0002:00002de8       ??_C@_02FPIMKNGF@?$CK?$DN@ 0000000180024de8     libvcruntime:undname.obj
 0002:00002dec       ??_C@_02FOEOMHFC@?$CL?$DN@ 0000000180024dec     libvcruntime:undname.obj
 0002:00002df0       ??_C@_02FKMDLLOA@?9?$DN@   0000000180024df0     libvcruntime:undname.obj
 0002:00002df4       ??_C@_02FJEHGPIO@?1?$DN@   0000000180024df4     libvcruntime:undname.obj
 0002:00002df8       ??_C@_02FENAOKFI@?$CF?$DN@ 0000000180024df8     libvcruntime:undname.obj
 0002:00002dfc       ??_C@_03IKFCCPFF@?$DO?$DO?$DN@ 0000000180024dfc     libvcruntime:undname.obj
 0002:00002e00       ??_C@_03CDNPDDLA@?$DM?$DM?$DN@ 0000000180024e00     libvcruntime:undname.obj
 0002:00002e04       ??_C@_02FGJGFEAB@?$CG?$DN@ 0000000180024e04     libvcruntime:undname.obj
 0002:00002e08       ??_C@_02DHLNPPGH@?$HM?$DN@ 0000000180024e08     libvcruntime:undname.obj
 0002:00002e0c       ??_C@_02MHEGNOJ@?$FO?$DN@  0000000180024e0c     libvcruntime:undname.obj
 0002:00002e10       ??_C@_09IFPLHPGF@?$GAvftable?8@ 0000000180024e10     libvcruntime:undname.obj
 0002:00002e20       ??_C@_09BLBHBJP@?$GAvbtable?8@ 0000000180024e20     libvcruntime:undname.obj
 0002:00002e30       ??_C@_07FEEIOKP@?$GAvcall?8@ 0000000180024e30     libvcruntime:undname.obj
 0002:00002e38       ??_C@_08LLFFHHDJ@?$GAtypeof?8@ 0000000180024e38     libvcruntime:undname.obj
 0002:00002e48       ??_C@_0BF@KDPPACIK@?$GAlocal?5static?5guard?8@ 0000000180024e48     libvcruntime:undname.obj
 0002:00002e60       ??_C@_08OBABFOLI@?$GAstring?8@ 0000000180024e60     libvcruntime:undname.obj
 0002:00002e70       ??_C@_0BD@JDLKDPAB@?$GAvbase?5destructor?8@ 0000000180024e70     libvcruntime:undname.obj
 0002:00002e88       ??_C@_0BN@DEGPLNFK@?$GAvector?5deleting?5destructor?8@ 0000000180024e88     libvcruntime:undname.obj
 0002:00002ea8       ??_C@_0BO@OBMKPJIG@?$GAdefault?5constructor?5closure?8@ 0000000180024ea8     libvcruntime:undname.obj
 0002:00002ec8       ??_C@_0BN@IMDCHIKM@?$GAscalar?5deleting?5destructor?8@ 0000000180024ec8     libvcruntime:undname.obj
 0002:00002ee8       ??_C@_0BO@PFGOCPJJ@?$GAvector?5constructor?5iterator?8@ 0000000180024ee8     libvcruntime:undname.obj
 0002:00002f08       ??_C@_0BN@LFPFMEDL@?$GAvector?5destructor?5iterator?8@ 0000000180024f08     libvcruntime:undname.obj
 0002:00002f28       ??_C@_0CE@IKBNEHA@?$GAvector?5vbase?5constructor?5itera@ 0000000180024f28     libvcruntime:undname.obj
 0002:00002f50       ??_C@_0BL@NILFHHPC@?$GAvirtual?5displacement?5map?8@ 0000000180024f50     libvcruntime:undname.obj
 0002:00002f70       ??_C@_0CB@JONCMFFK@?$GAeh?5vector?5constructor?5iterator@ 0000000180024f70     libvcruntime:undname.obj
 0002:00002f98       ??_C@_0CA@GCEOPDGL@?$GAeh?5vector?5destructor?5iterator?8@ 0000000180024f98     libvcruntime:undname.obj
 0002:00002fb8       ??_C@_0CH@OOJPLCPH@?$GAeh?5vector?5vbase?5constructor?5it@ 0000000180024fb8     libvcruntime:undname.obj
 0002:00002fe0       ??_C@_0BL@LLKPOHJI@?$GAcopy?5constructor?5closure?8@ 0000000180024fe0     libvcruntime:undname.obj
 0002:00003000       ??_C@_0BA@KBCDOMBN@?$GAudt?5returning?8@ 0000000180025000     libvcruntime:undname.obj
 0002:00003010       ??_C@_03KLGMFNMG@?$GAEH@   0000000180025010     libvcruntime:undname.obj
 0002:00003014       ??_C@_05KHLCHHI@?$GARTTI@  0000000180025014     libvcruntime:undname.obj
 0002:00003020       ??_C@_0BA@KKLDJDLB@?$GAlocal?5vftable?8@ 0000000180025020     libvcruntime:undname.obj
 0002:00003030       ??_C@_0CE@IIHCMGGL@?$GAlocal?5vftable?5constructor?5clos@ 0000000180025030     libvcruntime:undname.obj
 0002:00003054       ??_C@_06FHBGPFGH@?5new?$FL?$FN@ 0000000180025054     libvcruntime:undname.obj
 0002:00003060       ??_C@_09LBNFPBCA@?5delete?$FL?$FN@ 0000000180025060     libvcruntime:undname.obj
 0002:00003070       ??_C@_0P@HJKNJFNN@?$GAomni?5callsig?8@ 0000000180025070     libvcruntime:undname.obj
 0002:00003080       ??_C@_0BL@CNOONJFP@?$GAplacement?5delete?5closure?8@ 0000000180025080     libvcruntime:undname.obj
 0002:000030a0       ??_C@_0BN@CKNJLHMB@?$GAplacement?5delete?$FL?$FN?5closure?8@ 00000001800250a0     libvcruntime:undname.obj
 0002:000030c0       ??_C@_0CG@CFDHKGGD@?$GAmanaged?5vector?5constructor?5ite@ 00000001800250c0     libvcruntime:undname.obj
 0002:000030e8       ??_C@_0CF@IMGKMJNO@?$GAmanaged?5vector?5destructor?5iter@ 00000001800250e8     libvcruntime:undname.obj
 0002:00003110       ??_C@_0CG@HLDDJMAG@?$GAeh?5vector?5copy?5constructor?5ite@ 0000000180025110     libvcruntime:undname.obj
 0002:00003138       ??_C@_0CM@FCBBDIGB@?$GAeh?5vector?5vbase?5copy?5construct@ 0000000180025138     libvcruntime:undname.obj
 0002:00003168       ??_C@_0BL@CLIPGLGB@?$GAdynamic?5initializer?5for?5?8@ 0000000180025168     libvcruntime:undname.obj
 0002:00003188       ??_C@_0CB@PDBIFEP@?$GAdynamic?5atexit?5destructor?5for?5@ 0000000180025188     libvcruntime:undname.obj
 0002:000031b0       ??_C@_0CD@CGAJBKEJ@?$GAvector?5copy?5constructor?5iterat@ 00000001800251b0     libvcruntime:undname.obj
 0002:000031d8       ??_C@_0CJ@GJELGAMM@?$GAvector?5vbase?5copy?5constructor?5@ 00000001800251d8     libvcruntime:undname.obj
 0002:00003208       ??_C@_0CL@FGIJHLCE@?$GAmanaged?5vector?5copy?5constructo@ 0000000180025208     libvcruntime:undname.obj
 0002:00003238       ??_C@_0BM@PMGGMLDN@?$GAlocal?5static?5thread?5guard?8@ 0000000180025238     libvcruntime:undname.obj
 0002:00003258       ??_C@_0N@BDNMDMOL@operator?5?$CC?$CC?5@ 0000000180025258     libvcruntime:undname.obj
 0002:00003268       ??_C@_0BC@GGEBGALA@operator?5co_await@ 0000000180025268     libvcruntime:undname.obj
 0002:00003280       ??_C@_0M@GAAIMMOH@operator?$DM?$DN?$DO@ 0000000180025280     libvcruntime:undname.obj
 0002:00003290       ??_C@_0BC@DAFEJGAK@?5Type?5Descriptor?8@ 0000000180025290     libvcruntime:undname.obj
 0002:000032a8       ??_C@_0BM@LDKODKLH@?5Base?5Class?5Descriptor?5at?5?$CI@ 00000001800252a8     libvcruntime:undname.obj
 0002:000032c8       ??_C@_0BD@LGICGFMM@?5Base?5Class?5Array?8@ 00000001800252c8     libvcruntime:undname.obj
 0002:000032e0       ??_C@_0BN@MECKDCOJ@?5Class?5Hierarchy?5Descriptor?8@ 00000001800252e0     libvcruntime:undname.obj
 0002:00003300       ??_C@_0BK@CFCOFLF@?5Complete?5Object?5Locator?8@ 0000000180025300     libvcruntime:undname.obj
 0002:00003338       ??_C@_1DM@KHCHBNEB@?$AAa?$AAp?$AAi?$AA?9?$AAm?$AAs?$AA?9?$AAw?$AAi?$AAn?$AA?9?$AAc?$AAo?$AAr?$AAe@ 0000000180025338     libvcruntime:winapi_downlevel.obj
 0002:00003378       ??_C@_1DK@LPPGFMPP@?$AAa?$AAp?$AAi?$AA?9?$AAm?$AAs?$AA?9?$AAw?$AAi?$AAn?$AA?9?$AAc?$AAo?$AAr?$AAe@ 0000000180025378     libvcruntime:winapi_downlevel.obj
 0002:000033b8       ??_C@_1BC@GDMECMAK@?$AAk?$AAe?$AAr?$AAn?$AAe?$AAl?$AA3?$AA2@ 00000001800253b8     libvcruntime:winapi_downlevel.obj
 0002:000033d0       ??_C@_1BA@PFFKHIOG@?$AAa?$AAp?$AAi?$AA?9?$AAm?$AAs?$AA?9@ 00000001800253d0     libvcruntime:winapi_downlevel.obj
 0002:000033e8       ??_C@_08KNHFBNJ@FlsAlloc@  00000001800253e8     libvcruntime:winapi_downlevel.obj
 0002:00003400       ??_C@_07PEJMOBNF@FlsFree@  0000000180025400     libvcruntime:winapi_downlevel.obj
 0002:00003410       ??_C@_0M@GDNOONDI@FlsGetValue@ 0000000180025410     libvcruntime:winapi_downlevel.obj
 0002:00003428       ??_C@_0M@JCPCPOEF@FlsSetValue@ 0000000180025428     libvcruntime:winapi_downlevel.obj
 0002:00003440       ??_C@_0BM@HCFOFFN@InitializeCriticalSectionEx@ 0000000180025440     libvcruntime:winapi_downlevel.obj
 0002:000035d0       format_validation_lookup_table 00000001800255d0     libucrt:output.obj
 0002:00003630       ??_C@_1O@CEDCILHN@?$AA?$CI?$AAn?$AAu?$AAl?$AAl?$AA?$CJ@ 0000000180025630     libucrt:output.obj
 0002:00003640       ??_C@_06OJHGLDPL@?$CInull?$CJ@ 0000000180025640     libucrt:output.obj
 0002:00003650       __acrt_exception_action_table 0000000180025650     libucrt:exception_filter.obj
 0002:00003710       __acrt_signal_action_table_count 0000000180025710     libucrt:exception_filter.obj
 0002:00003718       __acrt_signal_action_first_fpe_index 0000000180025718     libucrt:exception_filter.obj
 0002:00003720       __acrt_signal_action_fpe_count 0000000180025720     libucrt:exception_filter.obj
 0002:00003728       ??_C@_1BI@BGOHAHKC@?$AAm?$AAs?$AAc?$AAo?$AAr?$AAe?$AAe?$AA?4?$AAd?$AAl?$AAl@ 0000000180025728     libucrt:exit.obj
 0002:00003740       ??_C@_0P@MIGLKIOC@CorExitProcess@ 0000000180025740     libucrt:exit.obj
 0002:000038f0       ??_C@_1EA@JGEFHKEI@?$AAa?$AAp?$AAi?$AA?9?$AAm?$AAs?$AA?9?$AAw?$AAi?$AAn?$AA?9?$AAc?$AAo?$AAr?$AAe@ 00000001800258f0     libucrt:winapi_thunks.obj
 0002:00003930       ??_C@_1DI@IJCEHOCB@?$AAa?$AAp?$AAi?$AA?9?$AAm?$AAs?$AA?9?$AAw?$AAi?$AAn?$AA?9?$AAc?$AAo?$AAr?$AAe@ 0000000180025930     libucrt:winapi_thunks.obj
 0002:00003970       ??_C@_1EI@MPIAOHOC@?$AAa?$AAp?$AAi?$AA?9?$AAm?$AAs?$AA?9?$AAw?$AAi?$AAn?$AA?9?$AAc?$AAo?$AAr?$AAe@ 0000000180025970     libucrt:winapi_thunks.obj
 0002:000039c0       ??_C@_1FK@FPHCKFIE@?$AAa?$AAp?$AAi?$AA?9?$AAm?$AAs?$AA?9?$AAw?$AAi?$AAn?$AA?9?$AAc?$AAo?$AAr?$AAe@ 00000001800259c0     libucrt:winapi_thunks.obj
 0002:00003a20       ??_C@_1EM@DILCGIIO@?$AAa?$AAp?$AAi?$AA?9?$AAm?$AAs?$AA?9?$AAw?$AAi?$AAn?$AA?9?$AAc?$AAo?$AAr?$AAe@ 0000000180025a20     libucrt:winapi_thunks.obj
 0002:00003a70       ??_C@_1DM@LNCGDDPN@?$AAa?$AAp?$AAi?$AA?9?$AAm?$AAs?$AA?9?$AAw?$AAi?$AAn?$AA?9?$AAc?$AAo?$AAr?$AAe@ 0000000180025a70     libucrt:winapi_thunks.obj
 0002:00003ab0       ??_C@_1DO@FPAPJEMD@?$AAa?$AAp?$AAi?$AA?9?$AAm?$AAs?$AA?9?$AAw?$AAi?$AAn?$AA?9?$AAc?$AAo?$AAr?$AAe@ 0000000180025ab0     libucrt:winapi_thunks.obj
 0002:00003af0       ??_C@_1DK@NDHNAHIO@?$AAa?$AAp?$AAi?$AA?9?$AAm?$AAs?$AA?9?$AAw?$AAi?$AAn?$AA?9?$AAc?$AAo?$AAr?$AAe@ 0000000180025af0     libucrt:winapi_thunks.obj
 0002:00003b30       ??_C@_1DM@KGHDGBCM@?$AAa?$AAp?$AAi?$AA?9?$AAm?$AAs?$AA?9?$AAw?$AAi?$AAn?$AA?9?$AAc?$AAo?$AAr?$AAe@ 0000000180025b30     libucrt:winapi_thunks.obj
 0002:00003b70       ??_C@_1EO@IJIOEFOH@?$AAa?$AAp?$AAi?$AA?9?$AAm?$AAs?$AA?9?$AAw?$AAi?$AAn?$AA?9?$AAr?$AAt?$AAc?$AAo@ 0000000180025b70     libucrt:winapi_thunks.obj
 0002:00003bc0       ??_C@_1FG@HHGEKANL@?$AAa?$AAp?$AAi?$AA?9?$AAm?$AAs?$AA?9?$AAw?$AAi?$AAn?$AA?9?$AAs?$AAe?$AAc?$AAu@ 0000000180025bc0     libucrt:winapi_thunks.obj
 0002:00003c20       ??_C@_1EG@DBIOJECG@?$AAe?$AAx?$AAt?$AA?9?$AAm?$AAs?$AA?9?$AAw?$AAi?$AAn?$AA?9?$AAn?$AAt?$AAu?$AAs@ 0000000180025c20     libucrt:winapi_thunks.obj
 0002:00003c70       ??_C@_1EO@FIHMJCLF@?$AAe?$AAx?$AAt?$AA?9?$AAm?$AAs?$AA?9?$AAw?$AAi?$AAn?$AA?9?$AAn?$AAt?$AAu?$AAs@ 0000000180025c70     libucrt:winapi_thunks.obj
 0002:00003cc0       ??_C@_1BC@DNHGCMLG@?$AAa?$AAd?$AAv?$AAa?$AAp?$AAi?$AA3?$AA2@ 0000000180025cc0     libucrt:winapi_thunks.obj
 0002:00003cd8       ??_C@_1M@OAIMIKLP@?$AAn?$AAt?$AAd?$AAl?$AAl@ 0000000180025cd8     libucrt:winapi_thunks.obj
 0002:00003cf0       ??_C@_1EG@DPGNFKGC@?$AAa?$AAp?$AAi?$AA?9?$AAm?$AAs?$AA?9?$AAw?$AAi?$AAn?$AA?9?$AAa?$AAp?$AAp?$AAm@ 0000000180025cf0     libucrt:winapi_thunks.obj
 0002:00003d38       ??_C@_1O@BCCLBEOE@?$AAu?$AAs?$AAe?$AAr?$AA3?$AA2@ 0000000180025d38     libucrt:winapi_thunks.obj
 0002:00003d48       ??_C@_1BA@IAIFMGEF@?$AAe?$AAx?$AAt?$AA?9?$AAm?$AAs?$AA?9@ 0000000180025d48     libucrt:winapi_thunks.obj
 0002:00003d60       ??_C@_0BA@FHFNEAED@AreFileApisANSI@ 0000000180025d60     libucrt:winapi_thunks.obj
 0002:00003da0       ??_C@_0O@KKBNKAPF@LCMapStringEx@ 0000000180025da0     libucrt:winapi_thunks.obj
 0002:00003db8       ??_C@_0BB@HBDEELFH@LocaleNameToLCID@ 0000000180025db8     libucrt:winapi_thunks.obj
 0002:00003dd0       ??_C@_0CF@OJOFEIGO@AppPolicyGetProcessTerminationM@ 0000000180025dd0     libucrt:winapi_thunks.obj
 0002:00003e00       ??_C@_0BI@BKLFFAPO@SetThreadStackGuarantee@ 0000000180025e00     libucrt:winapi_thunks.obj
 0002:00003ea0       ??_C@_03OEIAHPBN@INF@      0000000180025ea0     libucrt:cvt.obj
 0002:00003ea4       ??_C@_03OJHLLCGB@inf@      0000000180025ea4     libucrt:cvt.obj
 0002:00003ea8       ??_C@_03LKNCIKJB@NAN@      0000000180025ea8     libucrt:cvt.obj
 0002:00003eac       ??_C@_03LHCJEHON@nan@      0000000180025eac     libucrt:cvt.obj
 0002:00003eb0       ??_C@_09OFJJIMPC@NAN?$CISNAN?$CJ@ 0000000180025eb0     libucrt:cvt.obj
 0002:00003ec0       ??_C@_09IPFBKMDL@nan?$CIsnan?$CJ@ 0000000180025ec0     libucrt:cvt.obj
 0002:00003ed0       ??_C@_08IKHNHAJ@NAN?$CIIND?$CJ@ 0000000180025ed0     libucrt:cvt.obj
 0002:00003ee0       ??_C@_08OFCDMILK@nan?$CIind?$CJ@ 0000000180025ee0     libucrt:cvt.obj
 0002:00003eec       ??_C@_05KLBDPFGC@e?$CL000@ 0000000180025eec     libucrt:cvt.obj
 0002:00003f00       __lc_time_c                0000000180025f00     libucrt:nlsdata.obj
 0002:000041c0       ??_C@_03KOEHGMDN@Sun@      00000001800261c0     libucrt:nlsdata.obj
 0002:000041c4       ??_C@_03PDAGKDH@Mon@       00000001800261c4     libucrt:nlsdata.obj
 0002:000041c8       ??_C@_03NAGEINEP@Tue@      00000001800261c8     libucrt:nlsdata.obj
 0002:000041cc       ??_C@_03MHOMLAJA@Wed@      00000001800261cc     libucrt:nlsdata.obj
 0002:000041d0       ??_C@_03IOFIKPDN@Thu@      00000001800261d0     libucrt:nlsdata.obj
 0002:000041d4       ??_C@_03IDIOELNC@Fri@      00000001800261d4     libucrt:nlsdata.obj
 0002:000041d8       ??_C@_03FEFJNEK@Sat@       00000001800261d8     libucrt:nlsdata.obj
 0002:000041dc       ??_C@_06OOPIFAJ@Sunday@    00000001800261dc     libucrt:nlsdata.obj
 0002:000041e4       ??_C@_06JLEDEDGH@Monday@   00000001800261e4     libucrt:nlsdata.obj
 0002:000041f0       ??_C@_07BAAGCFCM@Tuesday@  00000001800261f0     libucrt:nlsdata.obj
 0002:000041f8       ??_C@_09DLIGFAKA@Wednesday@ 00000001800261f8     libucrt:nlsdata.obj
 0002:00004208       ??_C@_08HACCIKIA@Thursday@ 0000000180026208     libucrt:nlsdata.obj
 0002:00004214       ??_C@_06JECMNKMI@Friday@   0000000180026214     libucrt:nlsdata.obj
 0002:00004220       ??_C@_08INBOOONO@Saturday@ 0000000180026220     libucrt:nlsdata.obj
 0002:0000422c       ??_C@_03JIHJHPIE@Jan@      000000018002622c     libucrt:nlsdata.obj
 0002:00004230       ??_C@_03HJBDCHOM@Feb@      0000000180026230     libucrt:nlsdata.obj
 0002:00004234       ??_C@_03ODNJBKGA@Mar@      0000000180026234     libucrt:nlsdata.obj
 0002:00004238       ??_C@_03LEOLGMJP@Apr@      0000000180026238     libucrt:nlsdata.obj
 0002:0000423c       ??_C@_03CNMDKL@May@        000000018002623c     libucrt:nlsdata.obj
 0002:00004240       ??_C@_03IDFGHECI@Jun@      0000000180026240     libucrt:nlsdata.obj
 0002:00004244       ??_C@_03LBGABGKK@Jul@      0000000180026244     libucrt:nlsdata.obj
 0002:00004248       ??_C@_03IFJFEIGA@Aug@      0000000180026248     libucrt:nlsdata.obj
 0002:0000424c       ??_C@_03GGCAPAJC@Sep@      000000018002624c     libucrt:nlsdata.obj
 0002:00004250       ??_C@_03BMAOKBAD@Oct@      0000000180026250     libucrt:nlsdata.obj
 0002:00004254       ??_C@_03JPJOFNIA@Nov@      0000000180026254     libucrt:nlsdata.obj
 0002:00004258       ??_C@_03MKABNOCG@Dec@      0000000180026258     libucrt:nlsdata.obj
 0002:00004260       ??_C@_07CGJPFGJA@January@  0000000180026260     libucrt:nlsdata.obj
 0002:00004268       ??_C@_08GNJGEPFN@February@ 0000000180026268     libucrt:nlsdata.obj
 0002:00004274       ??_C@_05HPCKOFNC@March@    0000000180026274     libucrt:nlsdata.obj
 0002:0000427c       ??_C@_05DMJDNLEJ@April@    000000018002627c     libucrt:nlsdata.obj
 0002:00004284       ??_C@_04CNLMGBGM@June@     0000000180026284     libucrt:nlsdata.obj
 0002:0000428c       ??_C@_04MIEPOIFP@July@     000000018002628c     libucrt:nlsdata.obj
 0002:00004294       ??_C@_06LBBHFDDG@August@   0000000180026294     libucrt:nlsdata.obj
 0002:000042a0       ??_C@_09BHHEALKD@September@ 00000001800262a0     libucrt:nlsdata.obj
 0002:000042b0       ??_C@_07JJNFCEND@October@  00000001800262b0     libucrt:nlsdata.obj
 0002:000042b8       ??_C@_08HCHEGEOA@November@ 00000001800262b8     libucrt:nlsdata.obj
 0002:000042c8       ??_C@_08EDHMEBNP@December@ 00000001800262c8     libucrt:nlsdata.obj
 0002:000042d4       ??_C@_02DEDBPAFC@AM@       00000001800262d4     libucrt:nlsdata.obj
 0002:000042d8       ??_C@_02CJNFDJBF@PM@       00000001800262d8     libucrt:nlsdata.obj
 0002:000042e0       ??_C@_08BPBNCDIB@MM?1dd?1yy@ 00000001800262e0     libucrt:nlsdata.obj
 0002:000042f0       ??_C@_0BE@CKGJFCPC@dddd?0?5MMMM?5dd?0?5yyyy@ 00000001800262f0     libucrt:nlsdata.obj
 0002:00004308       ??_C@_08JCCMCCIL@HH?3mm?3ss@ 0000000180026308     libucrt:nlsdata.obj
 0002:00004318       ??_C@_17MBGCMIPB@?$AAS?$AAu?$AAn@ 0000000180026318     libucrt:nlsdata.obj
 0002:00004320       ??_C@_17KBOMKBF@?$AAM?$AAo?$AAn@ 0000000180026320     libucrt:nlsdata.obj
 0002:00004328       ??_C@_17BMKGEGOJ@?$AAT?$AAu?$AAe@ 0000000180026328     libucrt:nlsdata.obj
 0002:00004330       ??_C@_17CJEDCEPE@?$AAW?$AAe?$AAd@ 0000000180026330     libucrt:nlsdata.obj
 0002:00004338       ??_C@_17PDPHAADD@?$AAT?$AAh?$AAu@ 0000000180026338     libucrt:nlsdata.obj
 0002:00004340       ??_C@_17HFOLPPLP@?$AAF?$AAr?$AAi@ 0000000180026340     libucrt:nlsdata.obj
 0002:00004348       ??_C@_17GGIBDPIH@?$AAS?$AAa?$AAt@ 0000000180026348     libucrt:nlsdata.obj
 0002:00004350       ??_C@_1O@IHNHDHPB@?$AAS?$AAu?$AAn?$AAd?$AAa?$AAy@ 0000000180026350     libucrt:nlsdata.obj
 0002:00004360       ??_C@_1O@MMNBFLIA@?$AAM?$AAo?$AAn?$AAd?$AAa?$AAy@ 0000000180026360     libucrt:nlsdata.obj
 0002:00004370       ??_C@_1BA@ENFBFFEK@?$AAT?$AAu?$AAe?$AAs?$AAd?$AAa?$AAy@ 0000000180026370     libucrt:nlsdata.obj
 0002:00004380       ??_C@_1BE@EBOGMDOH@?$AAW?$AAe?$AAd?$AAn?$AAe?$AAs?$AAd?$AAa?$AAy@ 0000000180026380     libucrt:nlsdata.obj
 0002:00004398       ??_C@_1BC@HHMNLIHE@?$AAT?$AAh?$AAu?$AAr?$AAs?$AAd?$AAa?$AAy@ 0000000180026398     libucrt:nlsdata.obj
 0002:000043b0       ??_C@_1O@PDICJHAG@?$AAF?$AAr?$AAi?$AAd?$AAa?$AAy@ 00000001800263b0     libucrt:nlsdata.obj
 0002:000043c0       ??_C@_1BC@ENMNNPAJ@?$AAS?$AAa?$AAt?$AAu?$AAr?$AAd?$AAa?$AAy@ 00000001800263c0     libucrt:nlsdata.obj
 0002:000043d8       ??_C@_17DKNBKCHM@?$AAJ?$AAa?$AAn@ 00000001800263d8     libucrt:nlsdata.obj
 0002:000043e0       ??_C@_17LMDJEKJN@?$AAF?$AAe?$AAb@ 00000001800263e0     libucrt:nlsdata.obj
 0002:000043e8       ??_C@_17CKNLEDEC@?$AAM?$AAa?$AAr@ 00000001800263e8     libucrt:nlsdata.obj
 0002:000043f0       ??_C@_17LFPOIHDD@?$AAA?$AAp?$AAr@ 00000001800263f0     libucrt:nlsdata.obj
 0002:000043f8       ??_C@_17PNNKMEED@?$AAM?$AAa?$AAy@ 00000001800263f8     libucrt:nlsdata.obj
 0002:00004400       ??_C@_17KCJGOCPB@?$AAJ?$AAu?$AAn@ 0000000180026400     libucrt:nlsdata.obj
 0002:00004408       ??_C@_17IJPCKHK@?$AAJ?$AAu?$AAl@ 0000000180026408     libucrt:nlsdata.obj
 0002:00004410       ??_C@_17ICPELBCN@?$AAA?$AAu?$AAg@ 0000000180026410     libucrt:nlsdata.obj
 0002:00004418       ??_C@_17HCHCOKMG@?$AAS?$AAe?$AAp@ 0000000180026418     libucrt:nlsdata.obj
 0002:00004420       ??_C@_17FNLKOI@?$AAO?$AAc?$AAt@ 0000000180026420     libucrt:nlsdata.obj
 0002:00004428       ??_C@_17BBDMLCIG@?$AAN?$AAo?$AAv@ 0000000180026428     libucrt:nlsdata.obj
 0002:00004430       ??_C@_17EGKACKIF@?$AAD?$AAe?$AAc@ 0000000180026430     libucrt:nlsdata.obj
 0002:00004438       ??_C@_1BA@EFMEIEBA@?$AAJ?$AAa?$AAn?$AAu?$AAa?$AAr?$AAy@ 0000000180026438     libucrt:nlsdata.obj
 0002:00004448       ??_C@_1BC@JGDDFFAM@?$AAF?$AAe?$AAb?$AAr?$AAu?$AAa?$AAr?$AAy@ 0000000180026448     libucrt:nlsdata.obj
 0002:00004460       ??_C@_1M@IKEENEDF@?$AAM?$AAa?$AAr?$AAc?$AAh@ 0000000180026460     libucrt:nlsdata.obj
 0002:00004470       ??_C@_1M@GJNLMHFD@?$AAA?$AAp?$AAr?$AAi?$AAl@ 0000000180026470     libucrt:nlsdata.obj
 0002:00004480       ??_C@_19EPFLPGAP@?$AAJ?$AAu?$AAn?$AAe@ 0000000180026480     libucrt:nlsdata.obj
 0002:00004490       ??_C@_19BIFMLPCD@?$AAJ?$AAu?$AAl?$AAy@ 0000000180026490     libucrt:nlsdata.obj
 0002:000044a0       ??_C@_1O@PAHLKOAC@?$AAA?$AAu?$AAg?$AAu?$AAs?$AAt@ 00000001800264a0     libucrt:nlsdata.obj
 0002:000044b0       ??_C@_1BE@DKAAMBJL@?$AAS?$AAe?$AAp?$AAt?$AAe?$AAm?$AAb?$AAe?$AAr@ 00000001800264b0     libucrt:nlsdata.obj
 0002:000044c8       ??_C@_1BA@EPANDLNG@?$AAO?$AAc?$AAt?$AAo?$AAb?$AAe?$AAr@ 00000001800264c8     libucrt:nlsdata.obj
 0002:000044d8       ??_C@_1BC@BGLIFPF@?$AAN?$AAo?$AAv?$AAe?$AAm?$AAb?$AAe?$AAr@ 00000001800264d8     libucrt:nlsdata.obj
 0002:000044f0       ??_C@_1BC@FEMKIFH@?$AAD?$AAe?$AAc?$AAe?$AAm?$AAb?$AAe?$AAr@ 00000001800264f0     libucrt:nlsdata.obj
 0002:00004504       ??_C@_15ODEHAHHF@?$AAA?$AAM@ 0000000180026504     libucrt:nlsdata.obj
 0002:0000450c       ??_C@_15CLMNNGEL@?$AAP?$AAM@ 000000018002650c     libucrt:nlsdata.obj
 0002:00004518       ??_C@_1BC@IEBCMHCM@?$AAM?$AAM?$AA?1?$AAd?$AAd?$AA?1?$AAy?$AAy@ 0000000180026518     libucrt:nlsdata.obj
 0002:00004530       ??_C@_1CI@KNAKOEBC@?$AAd?$AAd?$AAd?$AAd?$AA?0?$AA?5?$AAM?$AAM?$AAM?$AAM?$AA?5?$AAd?$AAd?$AA?0?$AA?5@ 0000000180026530     libucrt:nlsdata.obj
 0002:00004558       ??_C@_1BC@GDGBMEMK@?$AAH?$AAH?$AA?3?$AAm?$AAm?$AA?3?$AAs?$AAs@ 0000000180026558     libucrt:nlsdata.obj
 0002:00004570       ??_C@_1M@BMHNFIME@?$AAe?$AAn?$AA?9?$AAU?$AAS@ 0000000180026570     libucrt:nlsdata.obj
 0002:000045a0       ??_C@_1M@HPNHIDJI@?$AAj?$AAa?$AA?9?$AAJ?$AAP@ 00000001800265a0     libucrt:mbctype.obj
 0002:000045b0       ??_C@_1M@BIBDDEMK@?$AAz?$AAh?$AA?9?$AAC?$AAN@ 00000001800265b0     libucrt:mbctype.obj
 0002:000045c0       ??_C@_1M@JLOOOEGK@?$AAk?$AAo?$AA?9?$AAK?$AAR@ 00000001800265c0     libucrt:mbctype.obj
 0002:000045d0       ??_C@_1M@CLNBBOPM@?$AAz?$AAh?$AA?9?$AAT?$AAW@ 00000001800265d0     libucrt:mbctype.obj
 0002:000045e0       __newctype                 00000001800265e0     libucrt:ctype.obj
 0002:000048e0       __newclmap                 00000001800268e0     libucrt:ctype.obj
 0002:00004a60       __newcumap                 0000000180026a60     libucrt:ctype.obj
 0002:00004be0       _wctype                    0000000180026be0     libucrt:ctype.obj
 0002:00005c30       ??_C@_15EMKDOKLE@?$AAa?$AAr@ 0000000180027c30     libucrt:lcidtoname_downlevel.obj
 0002:00005c38       ??_C@_15KNPADPLH@?$AAb?$AAg@ 0000000180027c38     libucrt:lcidtoname_downlevel.obj
 0002:00005c40       ??_C@_15EDMHLDMO@?$AAc?$AAa@ 0000000180027c40     libucrt:lcidtoname_downlevel.obj
 0002:00005c48       ??_C@_1O@BPEAJADD@?$AAz?$AAh?$AA?9?$AAC?$AAH?$AAS@ 0000000180027c48     libucrt:lcidtoname_downlevel.obj
 0002:00005c58       ??_C@_15LJNHCMNK@?$AAc?$AAs@ 0000000180027c58     libucrt:lcidtoname_downlevel.obj
 0002:00005c60       ??_C@_15FOMCIDHG@?$AAd?$AAa@ 0000000180027c60     libucrt:lcidtoname_downlevel.obj
 0002:00005c68       ??_C@_15NBKABECB@?$AAd?$AAe@ 0000000180027c68     libucrt:lcidtoname_downlevel.obj
 0002:00005c70       ??_C@_15GHPEIIAO@?$AAe?$AAl@ 0000000180027c70     libucrt:lcidtoname_downlevel.obj
 0002:00005c78       ??_C@_15MNPNEAIF@?$AAe?$AAn@ 0000000180027c78     libucrt:lcidtoname_downlevel.obj
 0002:00005c80       ??_C@_15GPIOMPMH@?$AAe?$AAs@ 0000000180027c80     libucrt:lcidtoname_downlevel.obj
 0002:00005c88       ??_C@_15NGLOAKJC@?$AAf?$AAi@ 0000000180027c88     libucrt:lcidtoname_downlevel.obj
 0002:00005c90       ??_C@_15FBKGNKAM@?$AAf?$AAr@ 0000000180027c90     libucrt:lcidtoname_downlevel.obj
 0002:00005c98       ??_C@_15KGGCNEFK@?$AAh?$AAe@ 0000000180027c98     libucrt:lcidtoname_downlevel.obj
 0002:00005ca0       ??_C@_15PGHLIDMF@?$AAh?$AAu@ 0000000180027ca0     libucrt:lcidtoname_downlevel.obj
 0002:00005ca8       ??_C@_15BIEMAPLM@?$AAi?$AAs@ 0000000180027ca8     libucrt:lcidtoname_downlevel.obj
 0002:00005cb0       ??_C@_15IFJLDHAF@?$AAi?$AAt@ 0000000180027cb0     libucrt:lcidtoname_downlevel.obj
 0002:00005cb8       ??_C@_15GEMIOCAG@?$AAj?$AAa@ 0000000180027cb8     libucrt:lcidtoname_downlevel.obj
 0002:00005cc0       ??_C@_15EPELEGJA@?$AAk?$AAo@ 0000000180027cc0     libucrt:lcidtoname_downlevel.obj
 0002:00005cc8       ??_C@_15NDDHIMN@?$AAn?$AAl@ 0000000180027cc8     libucrt:lcidtoname_downlevel.obj
 0002:00005cd0       ??_C@_15BPIGNHCD@?$AAn?$AAo@ 0000000180027cd0     libucrt:lcidtoname_downlevel.obj
 0002:00005cd8       ??_C@_15DEOPBLCG@?$AAp?$AAl@ 0000000180027cd8     libucrt:lcidtoname_downlevel.obj
 0002:00005ce0       ??_C@_15KBECGEFG@?$AAp?$AAt@ 0000000180027ce0     libucrt:lcidtoname_downlevel.obj
 0002:00005ce8       ??_C@_15GLJCBFMD@?$AAr?$AAo@ 0000000180027ce8     libucrt:lcidtoname_downlevel.obj
 0002:00005cf0       ??_C@_15FEDGKCDI@?$AAr?$AAu@ 0000000180027cf0     libucrt:lcidtoname_downlevel.obj
 0002:00005cf8       ??_C@_15GLKMLLHM@?$AAh?$AAr@ 0000000180027cf8     libucrt:lcidtoname_downlevel.obj
 0002:00005d00       ??_C@_15CPKMFBDB@?$AAs?$AAk@ 0000000180027d00     libucrt:lcidtoname_downlevel.obj
 0002:00005d08       ??_C@_15BAAIOGMK@?$AAs?$AAq@ 0000000180027d08     libucrt:lcidtoname_downlevel.obj
 0002:00005d10       ??_C@_15INNPNOHD@?$AAs?$AAv@ 0000000180027d10     libucrt:lcidtoname_downlevel.obj
 0002:00005d18       ??_C@_15CABMMOGH@?$AAt?$AAh@ 0000000180027d18     libucrt:lcidtoname_downlevel.obj
 0002:00005d20       ??_C@_15BPLIHJJM@?$AAt?$AAr@ 0000000180027d20     libucrt:lcidtoname_downlevel.obj
 0002:00005d28       ??_C@_15NEOEKKDJ@?$AAu?$AAr@ 0000000180027d28     libucrt:lcidtoname_downlevel.obj
 0002:00005d30       ??_C@_15NFICGAJK@?$AAi?$AAd@ 0000000180027d30     libucrt:lcidtoname_downlevel.obj
 0002:00005d38       ??_C@_15PJPFLCCM@?$AAu?$AAk@ 0000000180027d38     libucrt:lcidtoname_downlevel.obj
 0002:00005d40       ??_C@_15HPJPHDM@?$AAb?$AAe@ 0000000180027d40     libucrt:lcidtoname_downlevel.obj
 0002:00005d48       ??_C@_15LCHLGJII@?$AAs?$AAl@ 0000000180027d48     libucrt:lcidtoname_downlevel.obj
 0002:00005d50       ??_C@_15PCFJPHHO@?$AAe?$AAt@ 0000000180027d50     libucrt:lcidtoname_downlevel.obj
 0002:00005d58       ??_C@_15HPFPGODN@?$AAl?$AAv@ 0000000180027d58     libucrt:lcidtoname_downlevel.obj
 0002:00005d60       ??_C@_15NFFGKGLG@?$AAl?$AAt@ 0000000180027d60     libucrt:lcidtoname_downlevel.obj
 0002:00005d68       ??_C@_15BDAKCCHN@?$AAf?$AAa@ 0000000180027d68     libucrt:lcidtoname_downlevel.obj
 0002:00005d70       ??_C@_15NFGIAIAJ@?$AAv?$AAi@ 0000000180027d70     libucrt:lcidtoname_downlevel.obj
 0002:00005d78       ??_C@_15LMKNDMHN@?$AAh?$AAy@ 0000000180027d78     libucrt:lcidtoname_downlevel.obj
 0002:00005d80       ??_C@_15IJBHMCFL@?$AAa?$AAz@ 0000000180027d80     libucrt:lcidtoname_downlevel.obj
 0002:00005d88       ??_C@_15EKOFJABL@?$AAe?$AAu@ 0000000180027d88     libucrt:lcidtoname_downlevel.obj
 0002:00005d90       ??_C@_15BGHADCNK@?$AAm?$AAk@ 0000000180027d90     libucrt:lcidtoname_downlevel.obj
 0002:00005d98       ??_C@_15JDNICKHM@?$AAa?$AAf@ 0000000180027d98     libucrt:lcidtoname_downlevel.obj
 0002:00005da0       ??_C@_15KPJEDBKD@?$AAk?$AAa@ 0000000180027da0     libucrt:lcidtoname_downlevel.obj
 0002:00005da8       ??_C@_15PDNFFFEO@?$AAf?$AAo@ 0000000180027da8     libucrt:lcidtoname_downlevel.obj
 0002:00005db0       ??_C@_15OMLEGLOC@?$AAh?$AAi@ 0000000180027db0     libucrt:lcidtoname_downlevel.obj
 0002:00005db8       ??_C@_15IDNNENKK@?$AAm?$AAs@ 0000000180027db8     libucrt:lcidtoname_downlevel.obj
 0002:00005dc0       ??_C@_15MACJNBMH@?$AAk?$AAk@ 0000000180027dc0     libucrt:lcidtoname_downlevel.obj
 0002:00005dc8       ??_C@_15DKDJEOND@?$AAk?$AAy@ 0000000180027dc8     libucrt:lcidtoname_downlevel.obj
 0002:00005dd0       ??_C@_15DFGDLJBG@?$AAs?$AAw@ 0000000180027dd0     libucrt:lcidtoname_downlevel.obj
 0002:00005dd8       ??_C@_15BBFAICNG@?$AAu?$AAz@ 0000000180027dd8     libucrt:lcidtoname_downlevel.obj
 0002:00005de0       ??_C@_15DKNDCGEA@?$AAt?$AAt@ 0000000180027de0     libucrt:lcidtoname_downlevel.obj
 0002:00005de8       ??_C@_15MGIFMDPL@?$AAp?$AAa@ 0000000180027de8     libucrt:lcidtoname_downlevel.obj
 0002:00005df0       ??_C@_15HCNDBBA@?$AAg?$AAu@ 0000000180027df0     libucrt:lcidtoname_downlevel.obj
 0002:00005df8       ??_C@_15FNBEIBON@?$AAt?$AAa@ 0000000180027df8     libucrt:lcidtoname_downlevel.obj
 0002:00005e00       ??_C@_15NCHGBGLK@?$AAt?$AAe@ 0000000180027e00     libucrt:lcidtoname_downlevel.obj
 0002:00005e08       ??_C@_15PHPHCBPF@?$AAk?$AAn@ 0000000180027e08     libucrt:lcidtoname_downlevel.obj
 0002:00005e10       ??_C@_15DLGBCKMP@?$AAm?$AAr@ 0000000180027e10     libucrt:lcidtoname_downlevel.obj
 0002:00005e18       ??_C@_15EABBLBFF@?$AAs?$AAa@ 0000000180027e18     libucrt:lcidtoname_downlevel.obj
 0002:00005e20       ??_C@_15CBKOMCOI@?$AAm?$AAn@ 0000000180027e20     libucrt:lcidtoname_downlevel.obj
 0002:00005e28       ??_C@_15CKDMCJAF@?$AAg?$AAl@ 0000000180027e28     libucrt:lcidtoname_downlevel.obj
 0002:00005e30       ??_C@_17CNJFBPG@?$AAk?$AAo?$AAk@ 0000000180027e30     libucrt:lcidtoname_downlevel.obj
 0002:00005e38       ??_C@_17FFBJICPL@?$AAs?$AAy?$AAr@ 0000000180027e38     libucrt:lcidtoname_downlevel.obj
 0002:00005e40       ??_C@_17KPNDCPAF@?$AAd?$AAi?$AAv@ 0000000180027e40     libucrt:lcidtoname_downlevel.obj
 0002:00005e48       ??_C@_1M@OKAHONE@?$AAa?$AAr?$AA?9?$AAS?$AAA@ 0000000180027e48     libucrt:lcidtoname_downlevel.obj
 0002:00005e58       ??_C@_1M@FFFIGIGK@?$AAb?$AAg?$AA?9?$AAB?$AAG@ 0000000180027e58     libucrt:lcidtoname_downlevel.obj
 0002:00005e68       ??_C@_1M@BJNKEDC@?$AAc?$AAa?$AA?9?$AAE?$AAS@ 0000000180027e68     libucrt:lcidtoname_downlevel.obj
 0002:00005e78       ??_C@_1M@IJJHFJHA@?$AAc?$AAs?$AA?9?$AAC?$AAZ@ 0000000180027e78     libucrt:lcidtoname_downlevel.obj
 0002:00005e88       ??_C@_1M@CLPEOBGI@?$AAd?$AAa?$AA?9?$AAD?$AAK@ 0000000180027e88     libucrt:lcidtoname_downlevel.obj
 0002:00005e98       ??_C@_1M@MCMADGCB@?$AAd?$AAe?$AA?9?$AAD?$AAE@ 0000000180027e98     libucrt:lcidtoname_downlevel.obj
 0002:00005ea8       ??_C@_1M@OOCKEMAM@?$AAe?$AAl?$AA?9?$AAG?$AAR@ 0000000180027ea8     libucrt:lcidtoname_downlevel.obj
 0002:00005eb8       ??_C@_1M@DDNJFGID@?$AAf?$AAi?$AA?9?$AAF?$AAI@ 0000000180027eb8     libucrt:lcidtoname_downlevel.obj
 0002:00005ec8       ??_C@_1M@GLIPPMAC@?$AAf?$AAr?$AA?9?$AAF?$AAR@ 0000000180027ec8     libucrt:lcidtoname_downlevel.obj
 0002:00005ed8       ??_C@_1M@GFMCHPE@?$AAh?$AAe?$AA?9?$AAI?$AAL@ 0000000180027ed8     libucrt:lcidtoname_downlevel.obj
 0002:00005ee8       ??_C@_1M@MHLPGNKM@?$AAh?$AAu?$AA?9?$AAH?$AAU@ 0000000180027ee8     libucrt:lcidtoname_downlevel.obj
 0002:00005ef8       ??_C@_1M@LPDDNNPN@?$AAi?$AAs?$AA?9?$AAI?$AAS@ 0000000180027ef8     libucrt:lcidtoname_downlevel.obj
 0002:00005f08       ??_C@_1M@MADIPODN@?$AAi?$AAt?$AA?9?$AAI?$AAT@ 0000000180027f08     libucrt:lcidtoname_downlevel.obj
 0002:00005f18       ??_C@_1M@IHBJJGG@?$AAn?$AAl?$AA?9?$AAN?$AAL@ 0000000180027f18     libucrt:lcidtoname_downlevel.obj
 0002:00005f28       ??_C@_1M@EANAGDL@?$AAn?$AAb?$AA?9?$AAN?$AAO@ 0000000180027f28     libucrt:lcidtoname_downlevel.obj
 0002:00005f38       ??_C@_1M@NEIEMEGP@?$AAp?$AAl?$AA?9?$AAP?$AAL@ 0000000180027f38     libucrt:lcidtoname_downlevel.obj
 0002:00005f48       ??_C@_1M@BOCFIGEP@?$AAp?$AAt?$AA?9?$AAB?$AAR@ 0000000180027f48     libucrt:lcidtoname_downlevel.obj
 0002:00005f58       ??_C@_1M@IMPFOPBG@?$AAr?$AAo?$AA?9?$AAR?$AAO@ 0000000180027f58     libucrt:lcidtoname_downlevel.obj
 0002:00005f68       ??_C@_1M@IDNNEJMM@?$AAr?$AAu?$AA?9?$AAR?$AAU@ 0000000180027f68     libucrt:lcidtoname_downlevel.obj
 0002:00005f78       ??_C@_1M@LILEEOGM@?$AAh?$AAr?$AA?9?$AAH?$AAR@ 0000000180027f78     libucrt:lcidtoname_downlevel.obj
 0002:00005f88       ??_C@_1M@FKIFEHPB@?$AAs?$AAk?$AA?9?$AAS?$AAK@ 0000000180027f88     libucrt:lcidtoname_downlevel.obj
 0002:00005f98       ??_C@_1M@LJMAMNPJ@?$AAs?$AAq?$AA?9?$AAA?$AAL@ 0000000180027f98     libucrt:lcidtoname_downlevel.obj
 0002:00005fa8       ??_C@_1M@GIAKDKJK@?$AAs?$AAv?$AA?9?$AAS?$AAE@ 0000000180027fa8     libucrt:lcidtoname_downlevel.obj
 0002:00005fb8       ??_C@_1M@MKJKIKCL@?$AAt?$AAh?$AA?9?$AAT?$AAH@ 0000000180027fb8     libucrt:lcidtoname_downlevel.obj
 0002:00005fc8       ??_C@_1M@MFLCCMPB@?$AAt?$AAr?$AA?9?$AAT?$AAR@ 0000000180027fc8     libucrt:lcidtoname_downlevel.obj
 0002:00005fd8       ??_C@_1M@OIJHDKJN@?$AAu?$AAr?$AA?9?$AAP?$AAK@ 0000000180027fd8     libucrt:lcidtoname_downlevel.obj
 0002:00005fe8       ??_C@_1M@LHIPCIEK@?$AAi?$AAd?$AA?9?$AAI?$AAD@ 0000000180027fe8     libucrt:lcidtoname_downlevel.obj
 0002:00005ff8       ??_C@_1M@MFMOBGI@?$AAu?$AAk?$AA?9?$AAU?$AAA@ 0000000180027ff8     libucrt:lcidtoname_downlevel.obj
 0002:00006008       ??_C@_1M@OBGLJIPL@?$AAb?$AAe?$AA?9?$AAB?$AAY@ 0000000180028008     libucrt:lcidtoname_downlevel.obj
 0002:00006018       ??_C@_1M@BCFAJEAD@?$AAs?$AAl?$AA?9?$AAS?$AAI@ 0000000180028018     libucrt:lcidtoname_downlevel.obj
 0002:00006028       ??_C@_1M@FKFFEDDN@?$AAe?$AAt?$AA?9?$AAE?$AAE@ 0000000180028028     libucrt:lcidtoname_downlevel.obj
 0002:00006038       ??_C@_1M@KGKKAACI@?$AAl?$AAv?$AA?9?$AAL?$AAV@ 0000000180028038     libucrt:lcidtoname_downlevel.obj
 0002:00006048       ??_C@_1M@IFGBIJO@?$AAl?$AAt?$AA?9?$AAL?$AAT@ 0000000180028048     libucrt:lcidtoname_downlevel.obj
 0002:00006058       ??_C@_1M@FGEAHEDM@?$AAf?$AAa?$AA?9?$AAI?$AAR@ 0000000180028058     libucrt:lcidtoname_downlevel.obj
 0002:00006068       ??_C@_1M@KBMAIBFN@?$AAv?$AAi?$AA?9?$AAV?$AAN@ 0000000180028068     libucrt:lcidtoname_downlevel.obj
 0002:00006078       ??_C@_1M@GPCBKDJK@?$AAh?$AAy?$AA?9?$AAA?$AAM@ 0000000180028078     libucrt:lcidtoname_downlevel.obj
 0002:00006088       ??_C@_1BG@BECMDDJB@?$AAa?$AAz?$AA?9?$AAA?$AAZ?$AA?9?$AAL?$AAa?$AAt?$AAn@ 0000000180028088     libucrt:lcidtoname_downlevel.obj
 0002:000060a0       ??_C@_1M@MAOFCAEA@?$AAe?$AAu?$AA?9?$AAE?$AAS@ 00000001800280a0     libucrt:lcidtoname_downlevel.obj
 0002:000060b0       ??_C@_1M@IGHABKPI@?$AAm?$AAk?$AA?9?$AAM?$AAK@ 00000001800280b0     libucrt:lcidtoname_downlevel.obj
 0002:000060c0       ??_C@_1M@IAIGNEJG@?$AAt?$AAn?$AA?9?$AAZ?$AAA@ 00000001800280c0     libucrt:lcidtoname_downlevel.obj
 0002:000060d0       ??_C@_1M@IIJCOJFA@?$AAx?$AAh?$AA?9?$AAZ?$AAA@ 00000001800280d0     libucrt:lcidtoname_downlevel.obj
 0002:000060e0       ??_C@_1M@LGPJHNJH@?$AAz?$AAu?$AA?9?$AAZ?$AAA@ 00000001800280e0     libucrt:lcidtoname_downlevel.obj
 0002:000060f0       ??_C@_1M@HOKAOIO@?$AAa?$AAf?$AA?9?$AAZ?$AAA@ 00000001800280f0     libucrt:lcidtoname_downlevel.obj
 0002:00006100       ??_C@_1M@DPCLHLIE@?$AAk?$AAa?$AA?9?$AAG?$AAE@ 0000000180028100     libucrt:lcidtoname_downlevel.obj
 0002:00006110       ??_C@_1M@BLKMHJBI@?$AAf?$AAo?$AA?9?$AAF?$AAO@ 0000000180028110     libucrt:lcidtoname_downlevel.obj
 0002:00006120       ??_C@_1M@LGGJAPPB@?$AAh?$AAi?$AA?9?$AAI?$AAN@ 0000000180028120     libucrt:lcidtoname_downlevel.obj
 0002:00006130       ??_C@_1M@FIKPIHFE@?$AAm?$AAt?$AA?9?$AAM?$AAT@ 0000000180028130     libucrt:lcidtoname_downlevel.obj
 0002:00006140       ??_C@_1M@HEGGPBFA@?$AAs?$AAe?$AA?9?$AAN?$AAO@ 0000000180028140     libucrt:lcidtoname_downlevel.obj
 0002:00006150       ??_C@_1M@EIBJEEPA@?$AAm?$AAs?$AA?9?$AAM?$AAY@ 0000000180028150     libucrt:lcidtoname_downlevel.obj
 0002:00006160       ??_C@_1M@FHLBGMPP@?$AAk?$AAk?$AA?9?$AAK?$AAZ@ 0000000180028160     libucrt:lcidtoname_downlevel.obj
 0002:00006170       ??_C@_1M@NGJJLCGI@?$AAk?$AAy?$AA?9?$AAK?$AAG@ 0000000180028170     libucrt:lcidtoname_downlevel.obj
 0002:00006180       ??_C@_1M@GIENNBFC@?$AAs?$AAw?$AA?9?$AAK?$AAE@ 0000000180028180     libucrt:lcidtoname_downlevel.obj
 0002:00006190       ??_C@_1BG@NDGMJIMJ@?$AAu?$AAz?$AA?9?$AAU?$AAZ?$AA?9?$AAL?$AAa?$AAt?$AAn@ 0000000180028190     libucrt:lcidtoname_downlevel.obj
 0002:000061a8       ??_C@_1M@IDCCIHBC@?$AAt?$AAt?$AA?9?$AAR?$AAU@ 00000001800281a8     libucrt:lcidtoname_downlevel.obj
 0002:000061b8       ??_C@_1M@LOICPMOJ@?$AAb?$AAn?$AA?9?$AAI?$AAN@ 00000001800281b8     libucrt:lcidtoname_downlevel.obj
 0002:000061c8       ??_C@_1M@KPKKNEAH@?$AAp?$AAa?$AA?9?$AAI?$AAN@ 00000001800281c8     libucrt:lcidtoname_downlevel.obj
 0002:000061d8       ??_C@_1M@PJGPPBOG@?$AAg?$AAu?$AA?9?$AAI?$AAN@ 00000001800281d8     libucrt:lcidtoname_downlevel.obj
 0002:000061e8       ??_C@_1M@KMKMOPHI@?$AAt?$AAa?$AA?9?$AAI?$AAN@ 00000001800281e8     libucrt:lcidtoname_downlevel.obj
 0002:000061f8       ??_C@_1M@KFEHEPAC@?$AAt?$AAe?$AA?9?$AAI?$AAN@ 00000001800281f8     libucrt:lcidtoname_downlevel.obj
 0002:00006208       ??_C@_1M@CDCLMGHI@?$AAk?$AAn?$AA?9?$AAI?$AAN@ 0000000180028208     libucrt:lcidtoname_downlevel.obj
 0002:00006218       ??_C@_1M@MIODLDKF@?$AAm?$AAl?$AA?9?$AAI?$AAN@ 0000000180028218     libucrt:lcidtoname_downlevel.obj
 0002:00006228       ??_C@_1M@PBIEACPO@?$AAm?$AAr?$AA?9?$AAI?$AAN@ 0000000180028228     libucrt:lcidtoname_downlevel.obj
 0002:00006238       ??_C@_1M@NIDEAGPH@?$AAs?$AAa?$AA?9?$AAI?$AAN@ 0000000180028238     libucrt:lcidtoname_downlevel.obj
 0002:00006248       ??_C@_1M@FHIHCBIO@?$AAm?$AAn?$AA?9?$AAM?$AAN@ 0000000180028248     libucrt:lcidtoname_downlevel.obj
 0002:00006258       ??_C@_1M@JAIJPENP@?$AAc?$AAy?$AA?9?$AAG?$AAB@ 0000000180028258     libucrt:lcidtoname_downlevel.obj
 0002:00006268       ??_C@_1M@PHGFBEPN@?$AAg?$AAl?$AA?9?$AAE?$AAS@ 0000000180028268     libucrt:lcidtoname_downlevel.obj
 0002:00006278       ??_C@_1O@KPIPDNCP@?$AAk?$AAo?$AAk?$AA?9?$AAI?$AAN@ 0000000180028278     libucrt:lcidtoname_downlevel.obj
 0002:00006288       ??_C@_1O@KNHJLDJA@?$AAs?$AAy?$AAr?$AA?9?$AAS?$AAY@ 0000000180028288     libucrt:lcidtoname_downlevel.obj
 0002:00006298       ??_C@_1O@MKEKBLAH@?$AAd?$AAi?$AAv?$AA?9?$AAM?$AAV@ 0000000180028298     libucrt:lcidtoname_downlevel.obj
 0002:000062a8       ??_C@_1O@OHDCKDDF@?$AAq?$AAu?$AAz?$AA?9?$AAB?$AAO@ 00000001800282a8     libucrt:lcidtoname_downlevel.obj
 0002:000062b8       ??_C@_1M@LEPJNLFD@?$AAn?$AAs?$AA?9?$AAZ?$AAA@ 00000001800282b8     libucrt:lcidtoname_downlevel.obj
 0002:000062c8       ??_C@_1M@OMLEIIJB@?$AAm?$AAi?$AA?9?$AAN?$AAZ@ 00000001800282c8     libucrt:lcidtoname_downlevel.obj
 0002:000062d8       ??_C@_1M@PMPEAILG@?$AAa?$AAr?$AA?9?$AAI?$AAQ@ 00000001800282d8     libucrt:lcidtoname_downlevel.obj
 0002:000062e8       ??_C@_1M@CNKPNOEE@?$AAd?$AAe?$AA?9?$AAC?$AAH@ 00000001800282e8     libucrt:lcidtoname_downlevel.obj
 0002:000062f8       ??_C@_1M@LKMGMLKO@?$AAe?$AAn?$AA?9?$AAG?$AAB@ 00000001800282f8     libucrt:lcidtoname_downlevel.obj
 0002:00006308       ??_C@_1M@PGKJFFGL@?$AAe?$AAs?$AA?9?$AAM?$AAX@ 0000000180028308     libucrt:lcidtoname_downlevel.obj
 0002:00006318       ??_C@_1M@DNNANBDC@?$AAf?$AAr?$AA?9?$AAB?$AAE@ 0000000180028318     libucrt:lcidtoname_downlevel.obj
 0002:00006328       ??_C@_1M@HLGMDFHM@?$AAi?$AAt?$AA?9?$AAC?$AAH@ 0000000180028328     libucrt:lcidtoname_downlevel.obj
 0002:00006338       ??_C@_1M@CLLBGJH@?$AAn?$AAl?$AA?9?$AAB?$AAE@ 0000000180028338     libucrt:lcidtoname_downlevel.obj
 0002:00006348       ??_C@_1M@BODBOGLF@?$AAn?$AAn?$AA?9?$AAN?$AAO@ 0000000180028348     libucrt:lcidtoname_downlevel.obj
 0002:00006358       ??_C@_1M@HFFAHKAD@?$AAp?$AAt?$AA?9?$AAP?$AAT@ 0000000180028358     libucrt:lcidtoname_downlevel.obj
 0002:00006368       ??_C@_1BG@LNOAKHIE@?$AAs?$AAr?$AA?9?$AAS?$AAP?$AA?9?$AAL?$AAa?$AAt?$AAn@ 0000000180028368     libucrt:lcidtoname_downlevel.obj
 0002:00006380       ??_C@_1M@HBMHBGAK@?$AAs?$AAv?$AA?9?$AAF?$AAI@ 0000000180028380     libucrt:lcidtoname_downlevel.obj
 0002:00006390       ??_C@_1BG@DGCJGJBE@?$AAa?$AAz?$AA?9?$AAA?$AAZ?$AA?9?$AAC?$AAy?$AAr?$AAl@ 0000000180028390     libucrt:lcidtoname_downlevel.obj
 0002:000063a8       ??_C@_1M@KEJDAAHB@?$AAs?$AAe?$AA?9?$AAS?$AAE@ 00000001800283a8     libucrt:lcidtoname_downlevel.obj
 0002:000063b8       ??_C@_1M@HEIBJJAD@?$AAm?$AAs?$AA?9?$AAB?$AAN@ 00000001800283b8     libucrt:lcidtoname_downlevel.obj
 0002:000063c8       ??_C@_1BG@PBGJMCEM@?$AAu?$AAz?$AA?9?$AAU?$AAZ?$AA?9?$AAC?$AAy?$AAr?$AAl@ 00000001800283c8     libucrt:lcidtoname_downlevel.obj
 0002:000063e0       ??_C@_1O@LAOBCMDF@?$AAq?$AAu?$AAz?$AA?9?$AAE?$AAC@ 00000001800283e0     libucrt:lcidtoname_downlevel.obj
 0002:000063f0       ??_C@_1M@POEEMAIO@?$AAa?$AAr?$AA?9?$AAE?$AAG@ 00000001800283f0     libucrt:lcidtoname_downlevel.obj
 0002:00006400       ??_C@_1M@EFAKDEDL@?$AAz?$AAh?$AA?9?$AAH?$AAK@ 0000000180028400     libucrt:lcidtoname_downlevel.obj
 0002:00006410       ??_C@_1M@HKKIJHGI@?$AAd?$AAe?$AA?9?$AAA?$AAT@ 0000000180028410     libucrt:lcidtoname_downlevel.obj
 0002:00006420       ??_C@_1M@KBFBEHJF@?$AAe?$AAn?$AA?9?$AAA?$AAU@ 0000000180028420     libucrt:lcidtoname_downlevel.obj
 0002:00006430       ??_C@_1M@MNPLFAAH@?$AAe?$AAs?$AA?9?$AAE?$AAS@ 0000000180028430     libucrt:lcidtoname_downlevel.obj
 0002:00006440       ??_C@_1M@HJOOJFMA@?$AAf?$AAr?$AA?9?$AAC?$AAA@ 0000000180028440     libucrt:lcidtoname_downlevel.obj
 0002:00006450       ??_C@_1BG@JPOFPNAB@?$AAs?$AAr?$AA?9?$AAS?$AAP?$AA?9?$AAC?$AAy?$AAr?$AAl@ 0000000180028450     libucrt:lcidtoname_downlevel.obj
 0002:00006468       ??_C@_1M@LNFOCMOB@?$AAs?$AAe?$AA?9?$AAF?$AAI@ 0000000180028468     libucrt:lcidtoname_downlevel.obj
 0002:00006478       ??_C@_1O@MGJBOAMB@?$AAq?$AAu?$AAz?$AA?9?$AAP?$AAE@ 0000000180028478     libucrt:lcidtoname_downlevel.obj
 0002:00006488       ??_C@_1M@GJINLBOK@?$AAa?$AAr?$AA?9?$AAL?$AAY@ 0000000180028488     libucrt:lcidtoname_downlevel.obj
 0002:00006498       ??_C@_1M@GGMNHJNL@?$AAz?$AAh?$AA?9?$AAS?$AAG@ 0000000180028498     libucrt:lcidtoname_downlevel.obj
 0002:000064a8       ??_C@_1M@HOIKODND@?$AAd?$AAe?$AA?9?$AAL?$AAU@ 00000001800284a8     libucrt:lcidtoname_downlevel.obj
 0002:000064b8       ??_C@_1M@DDOCCGFG@?$AAe?$AAn?$AA?9?$AAC?$AAA@ 00000001800284b8     libucrt:lcidtoname_downlevel.obj
 0002:000064c8       ??_C@_1M@BNOEMJLF@?$AAe?$AAs?$AA?9?$AAG?$AAT@ 00000001800284c8     libucrt:lcidtoname_downlevel.obj
 0002:000064d8       ??_C@_1M@EOGNKEK@?$AAf?$AAr?$AA?9?$AAC?$AAH@ 00000001800284d8     libucrt:lcidtoname_downlevel.obj
 0002:000064e8       ??_C@_1M@FLIDJFHL@?$AAh?$AAr?$AA?9?$AAB?$AAA@ 00000001800284e8     libucrt:lcidtoname_downlevel.obj
 0002:000064f8       ??_C@_1O@FMCELNAJ@?$AAs?$AAm?$AAj?$AA?9?$AAN?$AAO@ 00000001800284f8     libucrt:lcidtoname_downlevel.obj
 0002:00006508       ??_C@_1M@JHGLJMGJ@?$AAa?$AAr?$AA?9?$AAD?$AAZ@ 0000000180028508     libucrt:lcidtoname_downlevel.obj
 0002:00006518       ??_C@_1M@JKKFDCNP@?$AAz?$AAh?$AA?9?$AAM?$AAO@ 0000000180028518     libucrt:lcidtoname_downlevel.obj
 0002:00006528       ??_C@_1M@GEEFALPE@?$AAd?$AAe?$AA?9?$AAL?$AAI@ 0000000180028528     libucrt:lcidtoname_downlevel.obj
 0002:00006538       ??_C@_1M@IGEOFBG@?$AAe?$AAn?$AA?9?$AAN?$AAZ@ 0000000180028538     libucrt:lcidtoname_downlevel.obj
 0002:00006548       ??_C@_1M@KDBONEHP@?$AAe?$AAs?$AA?9?$AAC?$AAR@ 0000000180028548     libucrt:lcidtoname_downlevel.obj
 0002:00006558       ??_C@_1M@FHMDOHNN@?$AAf?$AAr?$AA?9?$AAL?$AAU@ 0000000180028558     libucrt:lcidtoname_downlevel.obj
 0002:00006568       ??_C@_1BG@NFKKMAFG@?$AAb?$AAs?$AA?9?$AAB?$AAA?$AA?9?$AAL?$AAa?$AAt?$AAn@ 0000000180028568     libucrt:lcidtoname_downlevel.obj
 0002:00006580       ??_C@_1O@IMNBEMCI@?$AAs?$AAm?$AAj?$AA?9?$AAS?$AAE@ 0000000180028580     libucrt:lcidtoname_downlevel.obj
 0002:00006590       ??_C@_1M@DHHMBNDP@?$AAa?$AAr?$AA?9?$AAM?$AAA@ 0000000180028590     libucrt:lcidtoname_downlevel.obj
 0002:000065a0       ??_C@_1M@BNBLJCGH@?$AAe?$AAn?$AA?9?$AAI?$AAE@ 00000001800285a0     libucrt:lcidtoname_downlevel.obj
 0002:000065b0       ??_C@_1M@GEPAFMDL@?$AAe?$AAs?$AA?9?$AAP?$AAA@ 00000001800285b0     libucrt:lcidtoname_downlevel.obj
 0002:000065c0       ??_C@_1M@OJONDMDL@?$AAf?$AAr?$AA?9?$AAM?$AAC@ 00000001800285c0     libucrt:lcidtoname_downlevel.obj
 0002:000065d0       ??_C@_1BG@OBCNFJB@?$AAs?$AAr?$AA?9?$AAB?$AAA?$AA?9?$AAL?$AAa?$AAt?$AAn@ 00000001800285d0     libucrt:lcidtoname_downlevel.obj
 0002:000065e8       ??_C@_1O@KEMEEGPO@?$AAs?$AAm?$AAa?$AA?9?$AAN?$AAO@ 00000001800285e8     libucrt:lcidtoname_downlevel.obj
 0002:000065f8       ??_C@_1M@ELMGFODK@?$AAa?$AAr?$AA?9?$AAT?$AAN@ 00000001800285f8     libucrt:lcidtoname_downlevel.obj
 0002:00006608       ??_C@_1M@BHDLHFAF@?$AAe?$AAn?$AA?9?$AAZ?$AAA@ 0000000180028608     libucrt:lcidtoname_downlevel.obj
 0002:00006618       ??_C@_1M@BMGIGLIF@?$AAe?$AAs?$AA?9?$AAD?$AAO@ 0000000180028618     libucrt:lcidtoname_downlevel.obj
 0002:00006628       ??_C@_1BG@CMBHIPBE@?$AAs?$AAr?$AA?9?$AAB?$AAA?$AA?9?$AAC?$AAy?$AAr?$AAl@ 0000000180028628     libucrt:lcidtoname_downlevel.obj
 0002:00006640       ??_C@_1O@HEDBLHNP@?$AAs?$AAm?$AAa?$AA?9?$AAS?$AAE@ 0000000180028640     libucrt:lcidtoname_downlevel.obj
 0002:00006650       ??_C@_1M@DAGCADIM@?$AAa?$AAr?$AA?9?$AAO?$AAM@ 0000000180028650     libucrt:lcidtoname_downlevel.obj
 0002:00006660       ??_C@_1M@FODLMICG@?$AAe?$AAn?$AA?9?$AAJ?$AAM@ 0000000180028660     libucrt:lcidtoname_downlevel.obj
 0002:00006670       ??_C@_1M@DNMLCIHB@?$AAe?$AAs?$AA?9?$AAV?$AAE@ 0000000180028670     libucrt:lcidtoname_downlevel.obj
 0002:00006680       ??_C@_1O@EOKHMKJK@?$AAs?$AAm?$AAs?$AA?9?$AAF?$AAI@ 0000000180028680     libucrt:lcidtoname_downlevel.obj
 0002:00006690       ??_C@_1M@CAFJMKOF@?$AAa?$AAr?$AA?9?$AAY?$AAE@ 0000000180028690     libucrt:lcidtoname_downlevel.obj
 0002:000066a0       ??_C@_1M@CBFHIJLI@?$AAe?$AAn?$AA?9?$AAC?$AAB@ 00000001800286a0     libucrt:lcidtoname_downlevel.obj
 0002:000066b0       ??_C@_1M@BGNFLDN@?$AAe?$AAs?$AA?9?$AAC?$AAO@ 00000001800286b0     libucrt:lcidtoname_downlevel.obj
 0002:000066c0       ??_C@_1O@JMPHMAMC@?$AAs?$AAm?$AAn?$AA?9?$AAF?$AAI@ 00000001800286c0     libucrt:lcidtoname_downlevel.obj
 0002:000066d0       ??_C@_1M@JLANABKE@?$AAa?$AAr?$AA?9?$AAS?$AAY@ 00000001800286d0     libucrt:lcidtoname_downlevel.obj
 0002:000066e0       ??_C@_1M@HPKGCFGN@?$AAe?$AAn?$AA?9?$AAB?$AAZ@ 00000001800286e0     libucrt:lcidtoname_downlevel.obj
 0002:000066f0       ??_C@_1M@OLJCMLGM@?$AAe?$AAs?$AA?9?$AAP?$AAE@ 00000001800286f0     libucrt:lcidtoname_downlevel.obj
 0002:00006700       ??_C@_1M@MKKGFKLE@?$AAa?$AAr?$AA?9?$AAJ?$AAO@ 0000000180028700     libucrt:lcidtoname_downlevel.obj
 0002:00006710       ??_C@_1M@EKPGLDNI@?$AAe?$AAn?$AA?9?$AAT?$AAT@ 0000000180028710     libucrt:lcidtoname_downlevel.obj
 0002:00006720       ??_C@_1M@OONGHFHE@?$AAe?$AAs?$AA?9?$AAA?$AAR@ 0000000180028720     libucrt:lcidtoname_downlevel.obj
 0002:00006730       ??_C@_1M@OOJFGBHE@?$AAa?$AAr?$AA?9?$AAL?$AAB@ 0000000180028730     libucrt:lcidtoname_downlevel.obj
 0002:00006740       ??_C@_1M@GCEJHNEG@?$AAe?$AAn?$AA?9?$AAZ?$AAW@ 0000000180028740     libucrt:lcidtoname_downlevel.obj
 0002:00006750       ??_C@_1M@JNOCAHJI@?$AAe?$AAs?$AA?9?$AAE?$AAC@ 0000000180028750     libucrt:lcidtoname_downlevel.obj
 0002:00006760       ??_C@_1M@JEFHPGGB@?$AAa?$AAr?$AA?9?$AAK?$AAW@ 0000000180028760     libucrt:lcidtoname_downlevel.obj
 0002:00006770       ??_C@_1M@MLKIBJOJ@?$AAe?$AAn?$AA?9?$AAP?$AAH@ 0000000180028770     libucrt:lcidtoname_downlevel.obj
 0002:00006780       ??_C@_1M@BDNIPEND@?$AAe?$AAs?$AA?9?$AAC?$AAL@ 0000000180028780     libucrt:lcidtoname_downlevel.obj
 0002:00006790       ??_C@_1M@MPNMEKBD@?$AAa?$AAr?$AA?9?$AAA?$AAE@ 0000000180028790     libucrt:lcidtoname_downlevel.obj
 0002:000067a0       ??_C@_1M@KBJALCPI@?$AAe?$AAs?$AA?9?$AAU?$AAY@ 00000001800287a0     libucrt:lcidtoname_downlevel.obj
 0002:000067b0       ??_C@_1M@LLCCOAGA@?$AAa?$AAr?$AA?9?$AAB?$AAH@ 00000001800287b0     libucrt:lcidtoname_downlevel.obj
 0002:000067c0       ??_C@_1M@PBFNCDEL@?$AAe?$AAs?$AA?9?$AAP?$AAY@ 00000001800287c0     libucrt:lcidtoname_downlevel.obj
 0002:000067d0       ??_C@_1M@EDGINPNP@?$AAa?$AAr?$AA?9?$AAQ?$AAA@ 00000001800287d0     libucrt:lcidtoname_downlevel.obj
 0002:000067e0       ??_C@_1M@MKDBIIJI@?$AAe?$AAs?$AA?9?$AAB?$AAO@ 00000001800287e0     libucrt:lcidtoname_downlevel.obj
 0002:000067f0       ??_C@_1M@CPKKEBLD@?$AAe?$AAs?$AA?9?$AAS?$AAV@ 00000001800287f0     libucrt:lcidtoname_downlevel.obj
 0002:00006800       ??_C@_1M@NDBGMMJL@?$AAe?$AAs?$AA?9?$AAH?$AAN@ 0000000180028800     libucrt:lcidtoname_downlevel.obj
 0002:00006810       ??_C@_1M@JIJIBHDP@?$AAe?$AAs?$AA?9?$AAN?$AAI@ 0000000180028810     libucrt:lcidtoname_downlevel.obj
 0002:00006820       ??_C@_1M@CGFMKEEK@?$AAe?$AAs?$AA?9?$AAP?$AAR@ 0000000180028820     libucrt:lcidtoname_downlevel.obj
 0002:00006830       ??_C@_1O@ICJHKIIK@?$AAz?$AAh?$AA?9?$AAC?$AAH?$AAT@ 0000000180028830     libucrt:lcidtoname_downlevel.obj
 0002:00006840       ??_C@_15CLNEJCE@?$AAs?$AAr@ 0000000180028840     libucrt:lcidtoname_downlevel.obj
 0002:00007690       ??_C@_1M@KAHEKEIG@?$AAa?$AAf?$AA?9?$AAz?$AAa@ 0000000180029690     libucrt:lcidtoname_downlevel.obj
 0002:000076a0       ??_C@_1M@GIECOABL@?$AAa?$AAr?$AA?9?$AAa?$AAe@ 00000001800296a0     libucrt:lcidtoname_downlevel.obj
 0002:000076b0       ??_C@_1M@BMLMEKGI@?$AAa?$AAr?$AA?9?$AAb?$AAh@ 00000001800296b0     libucrt:lcidtoname_downlevel.obj
 0002:000076c0       ??_C@_1M@DAPFDGGB@?$AAa?$AAr?$AA?9?$AAd?$AAz@ 00000001800296c0     libucrt:lcidtoname_downlevel.obj
 0002:000076d0       ??_C@_1M@FJNKGKIG@?$AAa?$AAr?$AA?9?$AAe?$AAg@ 00000001800296d0     libucrt:lcidtoname_downlevel.obj
 0002:000076e0       ??_C@_1M@FLGKKCLO@?$AAa?$AAr?$AA?9?$AAi?$AAq@ 00000001800296e0     libucrt:lcidtoname_downlevel.obj
 0002:000076f0       ??_C@_1M@GNDIPALM@?$AAa?$AAr?$AA?9?$AAj?$AAo@ 00000001800296f0     libucrt:lcidtoname_downlevel.obj
 0002:00007700       ??_C@_1M@DDMJFMGJ@?$AAa?$AAr?$AA?9?$AAk?$AAw@ 0000000180029700     libucrt:lcidtoname_downlevel.obj
 0002:00007710       ??_C@_1M@EJALMLHM@?$AAa?$AAr?$AA?9?$AAl?$AAb@ 0000000180029710     libucrt:lcidtoname_downlevel.obj
 0002:00007720       ??_C@_1M@MOBDBLOC@?$AAa?$AAr?$AA?9?$AAl?$AAy@ 0000000180029720     libucrt:lcidtoname_downlevel.obj
 0002:00007730       ??_C@_1M@JAOCLHDH@?$AAa?$AAr?$AA?9?$AAm?$AAa@ 0000000180029730     libucrt:lcidtoname_downlevel.obj
 0002:00007740       ??_C@_1M@JHPMKJIE@?$AAa?$AAr?$AA?9?$AAo?$AAm@ 0000000180029740     libucrt:lcidtoname_downlevel.obj
 0002:00007750       ??_C@_1M@OEPGHFNH@?$AAa?$AAr?$AA?9?$AAq?$AAa@ 0000000180029750     libucrt:lcidtoname_downlevel.obj
 0002:00007760       ??_C@_1M@KJDONENM@?$AAa?$AAr?$AA?9?$AAs?$AAa@ 0000000180029760     libucrt:lcidtoname_downlevel.obj
 0002:00007770       ??_C@_1M@DMJDKLKM@?$AAa?$AAr?$AA?9?$AAs?$AAy@ 0000000180029770     libucrt:lcidtoname_downlevel.obj
 0002:00007780       ??_C@_1M@OMFIPEDC@?$AAa?$AAr?$AA?9?$AAt?$AAn@ 0000000180029780     libucrt:lcidtoname_downlevel.obj
 0002:00007790       ??_C@_1M@IHMHGAON@?$AAa?$AAr?$AA?9?$AAy?$AAe@ 0000000180029790     libucrt:lcidtoname_downlevel.obj
 0002:000077a0       ??_C@_1BG@KDCPGJGB@?$AAa?$AAz?$AA?9?$AAa?$AAz?$AA?9?$AAc?$AAy?$AAr?$AAl@ 00000001800297a0     libucrt:lcidtoname_downlevel.obj
 0002:000077b8       ??_C@_1BG@IBCKDDOE@?$AAa?$AAz?$AA?9?$AAa?$AAz?$AA?9?$AAl?$AAa?$AAt?$AAn@ 00000001800297b8     libucrt:lcidtoname_downlevel.obj
 0002:000077d0       ??_C@_1M@EGPFDCPD@?$AAb?$AAe?$AA?9?$AAb?$AAy@ 00000001800297d0     libucrt:lcidtoname_downlevel.obj
 0002:000077e0       ??_C@_1M@PCMGMCGC@?$AAb?$AAg?$AA?9?$AAb?$AAg@ 00000001800297e0     libucrt:lcidtoname_downlevel.obj
 0002:000077f0       ??_C@_1M@BJBMFGOB@?$AAb?$AAn?$AA?9?$AAi?$AAn@ 00000001800297f0     libucrt:lcidtoname_downlevel.obj
 0002:00007800       ??_C@_1BG@EAKMMACD@?$AAb?$AAs?$AA?9?$AAb?$AAa?$AA?9?$AAl?$AAa?$AAt?$AAn@ 0000000180029800     libucrt:lcidtoname_downlevel.obj
 0002:00007818       ??_C@_1M@KGADAODK@?$AAc?$AAa?$AA?9?$AAe?$AAs@ 0000000180029818     libucrt:lcidtoname_downlevel.obj
 0002:00007828       ??_C@_1M@COAJPDHI@?$AAc?$AAs?$AA?9?$AAc?$AAz@ 0000000180029828     libucrt:lcidtoname_downlevel.obj
 0002:00007838       ??_C@_1M@DHBHFONH@?$AAc?$AAy?$AA?9?$AAg?$AAb@ 0000000180029838     libucrt:lcidtoname_downlevel.obj
 0002:00007848       ??_C@_1M@IMGKELGA@?$AAd?$AAa?$AA?9?$AAd?$AAk@ 0000000180029848     libucrt:lcidtoname_downlevel.obj
 0002:00007858       ??_C@_1M@NNDGDNGA@?$AAd?$AAe?$AA?9?$AAa?$AAt@ 0000000180029858     libucrt:lcidtoname_downlevel.obj
 0002:00007868       ??_C@_1M@IKDBHEEM@?$AAd?$AAe?$AA?9?$AAc?$AAh@ 0000000180029868     libucrt:lcidtoname_downlevel.obj
 0002:00007878       ??_C@_1M@GFFOJMCJ@?$AAd?$AAe?$AA?9?$AAd?$AAe@ 0000000180029878     libucrt:lcidtoname_downlevel.obj
 0002:00007888       ??_C@_1M@MDNLKBPM@?$AAd?$AAe?$AA?9?$AAl?$AAi@ 0000000180029888     libucrt:lcidtoname_downlevel.obj
 0002:00007898       ??_C@_1M@NJBEEJNL@?$AAd?$AAe?$AA?9?$AAl?$AAu@ 0000000180029898     libucrt:lcidtoname_downlevel.obj
 0002:000078a8       ??_C@_1O@GNNELBAP@?$AAd?$AAi?$AAv?$AA?9?$AAm?$AAv@ 00000001800298a8     libucrt:lcidtoname_downlevel.obj
 0002:000078b8       ??_C@_1M@EJLEOGAE@?$AAe?$AAl?$AA?9?$AAg?$AAr@ 00000001800298b8     libucrt:lcidtoname_downlevel.obj
 0002:000078c8       ??_C@_1M@GMPONJN@?$AAe?$AAn?$AA?9?$AAa?$AAu@ 00000001800298c8     libucrt:lcidtoname_downlevel.obj
 0002:000078d8       ??_C@_1M@NIDIIPGF@?$AAe?$AAn?$AA?9?$AAb?$AAz@ 00000001800298d8     libucrt:lcidtoname_downlevel.obj
 0002:000078e8       ??_C@_1M@JEHMIMFO@?$AAe?$AAn?$AA?9?$AAc?$AAa@ 00000001800298e8     libucrt:lcidtoname_downlevel.obj
 0002:000078f8       ??_C@_1M@IGMJCDLA@?$AAe?$AAn?$AA?9?$AAc?$AAb@ 00000001800298f8     libucrt:lcidtoname_downlevel.obj
 0002:00007908       ??_C@_1M@BNFIGBKG@?$AAe?$AAn?$AA?9?$AAg?$AAb@ 0000000180029908     libucrt:lcidtoname_downlevel.obj
 0002:00007918       ??_C@_1M@LKIFDIGP@?$AAe?$AAn?$AA?9?$AAi?$AAe@ 0000000180029918     libucrt:lcidtoname_downlevel.obj
 0002:00007928       ??_C@_1M@PJKFGCCO@?$AAe?$AAn?$AA?9?$AAj?$AAm@ 0000000180029928     libucrt:lcidtoname_downlevel.obj
 0002:00007938       ??_C@_1M@KPPKEPBO@?$AAe?$AAn?$AA?9?$AAn?$AAz@ 0000000180029938     libucrt:lcidtoname_downlevel.obj
 0002:00007948       ??_C@_1M@GMDGLDOB@?$AAe?$AAn?$AA?9?$AAp?$AAh@ 0000000180029948     libucrt:lcidtoname_downlevel.obj
 0002:00007958       ??_C@_1M@ONGIBJNA@?$AAe?$AAn?$AA?9?$AAt?$AAt@ 0000000180029958     libucrt:lcidtoname_downlevel.obj
 0002:00007968       ??_C@_1M@LLODPCMM@?$AAe?$AAn?$AA?9?$AAu?$AAs@ 0000000180029968     libucrt:lcidtoname_downlevel.obj
 0002:00007978       ??_C@_1M@LAKFNPAN@?$AAe?$AAn?$AA?9?$AAz?$AAa@ 0000000180029978     libucrt:lcidtoname_downlevel.obj
 0002:00007988       ??_C@_1M@MFNHNHEO@?$AAe?$AAn?$AA?9?$AAz?$AAw@ 0000000180029988     libucrt:lcidtoname_downlevel.obj
 0002:00007998       ??_C@_1M@EJEINPHM@?$AAe?$AAs?$AA?9?$AAa?$AAr@ 0000000180029998     libucrt:lcidtoname_downlevel.obj
 0002:000079a8       ??_C@_1M@GNKPCCJA@?$AAe?$AAs?$AA?9?$AAb?$AAo@ 00000001800299a8     libucrt:lcidtoname_downlevel.obj
 0002:000079b8       ??_C@_1M@LEEGFONL@?$AAe?$AAs?$AA?9?$AAc?$AAl@ 00000001800299b8     libucrt:lcidtoname_downlevel.obj
 0002:000079c8       ??_C@_1M@KGPDPBDF@?$AAe?$AAs?$AA?9?$AAc?$AAo@ 00000001800299c8     libucrt:lcidtoname_downlevel.obj
 0002:000079d8       ??_C@_1M@EIAHOHH@?$AAe?$AAs?$AA?9?$AAc?$AAr@ 00000001800299d8     libucrt:lcidtoname_downlevel.obj
 0002:000079e8       ??_C@_1M@LLPGMBIN@?$AAe?$AAs?$AA?9?$AAd?$AAo@ 00000001800299e8     libucrt:lcidtoname_downlevel.obj
 0002:000079f8       ??_C@_1M@DKHMKNJA@?$AAe?$AAs?$AA?9?$AAe?$AAc@ 00000001800299f8     libucrt:lcidtoname_downlevel.obj
 0002:00007a08       ??_C@_1M@GKGFPKAP@?$AAe?$AAs?$AA?9?$AAe?$AAs@ 0000000180029a08     libucrt:lcidtoname_downlevel.obj
 0002:00007a18       ??_C@_1M@LKHKGDLN@?$AAe?$AAs?$AA?9?$AAg?$AAt@ 0000000180029a18     libucrt:lcidtoname_downlevel.obj
 0002:00007a28       ??_C@_1M@HEIIGGJD@?$AAe?$AAs?$AA?9?$AAh?$AAn@ 0000000180029a28     libucrt:lcidtoname_downlevel.obj
 0002:00007a38       ??_C@_1M@FBDHPPGD@?$AAe?$AAs?$AA?9?$AAm?$AAx@ 0000000180029a38     libucrt:lcidtoname_downlevel.obj
 0002:00007a48       ??_C@_1M@DPAGLNDH@?$AAe?$AAs?$AA?9?$AAn?$AAi@ 0000000180029a48     libucrt:lcidtoname_downlevel.obj
 0002:00007a58       ??_C@_1M@MDGOPGDD@?$AAe?$AAs?$AA?9?$AAp?$AAa@ 0000000180029a58     libucrt:lcidtoname_downlevel.obj
 0002:00007a68       ??_C@_1M@EMAMGBGE@?$AAe?$AAs?$AA?9?$AAp?$AAe@ 0000000180029a68     libucrt:lcidtoname_downlevel.obj
 0002:00007a78       ??_C@_1M@IBMCAOEC@?$AAe?$AAs?$AA?9?$AAp?$AAr@ 0000000180029a78     libucrt:lcidtoname_downlevel.obj
 0002:00007a88       ??_C@_1M@FGMDIJED@?$AAe?$AAs?$AA?9?$AAp?$AAy@ 0000000180029a88     libucrt:lcidtoname_downlevel.obj
 0002:00007a98       ??_C@_1M@IIDEOLLL@?$AAe?$AAs?$AA?9?$AAs?$AAv@ 0000000180029a98     libucrt:lcidtoname_downlevel.obj
 0002:00007aa8       ??_C@_1M@GAOBIPA@?$AAe?$AAs?$AA?9?$AAu?$AAy@ 0000000180029aa8     libucrt:lcidtoname_downlevel.obj
 0002:00007ab8       ??_C@_1M@JKFFICHJ@?$AAe?$AAs?$AA?9?$AAv?$AAe@ 0000000180029ab8     libucrt:lcidtoname_downlevel.obj
 0002:00007ac8       ??_C@_1M@PNMLOJDF@?$AAe?$AAt?$AA?9?$AAe?$AAe@ 0000000180029ac8     libucrt:lcidtoname_downlevel.obj
 0002:00007ad8       ??_C@_1M@GHHLIKEI@?$AAe?$AAu?$AA?9?$AAe?$AAs@ 0000000180029ad8     libucrt:lcidtoname_downlevel.obj
 0002:00007ae8       ??_C@_1M@PBNONODE@?$AAf?$AAa?$AA?9?$AAi?$AAr@ 0000000180029ae8     libucrt:lcidtoname_downlevel.obj
 0002:00007af8       ??_C@_1M@JEEHPMIL@?$AAf?$AAi?$AA?9?$AAf?$AAi@ 0000000180029af8     libucrt:lcidtoname_downlevel.obj
 0002:00007b08       ??_C@_1M@LMDCNDBA@?$AAf?$AAo?$AA?9?$AAf?$AAo@ 0000000180029b08     libucrt:lcidtoname_downlevel.obj
 0002:00007b18       ??_C@_1M@JKEOHLDK@?$AAf?$AAr?$AA?9?$AAb?$AAe@ 0000000180029b18     libucrt:lcidtoname_downlevel.obj
 0002:00007b28       ??_C@_1M@NOHADPMI@?$AAf?$AAr?$AA?9?$AAc?$AAa@ 0000000180029b28     libucrt:lcidtoname_downlevel.obj
 0002:00007b38       ??_C@_1M@KDHIHAEC@?$AAf?$AAr?$AA?9?$AAc?$AAh@ 0000000180029b38     libucrt:lcidtoname_downlevel.obj
 0002:00007b48       ??_C@_1M@MMBBFGAK@?$AAf?$AAr?$AA?9?$AAf?$AAr@ 0000000180029b48     libucrt:lcidtoname_downlevel.obj
 0002:00007b58       ??_C@_1M@PAFNENNF@?$AAf?$AAr?$AA?9?$AAl?$AAu@ 0000000180029b58     libucrt:lcidtoname_downlevel.obj
 0002:00007b68       ??_C@_1M@EOHDJGDD@?$AAf?$AAr?$AA?9?$AAm?$AAc@ 0000000180029b68     libucrt:lcidtoname_downlevel.obj
 0002:00007b78       ??_C@_1M@FAPLLOPF@?$AAg?$AAl?$AA?9?$AAe?$AAs@ 0000000180029b78     libucrt:lcidtoname_downlevel.obj
 0002:00007b88       ??_C@_1M@FOPBFLOO@?$AAg?$AAu?$AA?9?$AAi?$AAn@ 0000000180029b88     libucrt:lcidtoname_downlevel.obj
 0002:00007b98       ??_C@_1M@KBMCINPM@?$AAh?$AAe?$AA?9?$AAi?$AAl@ 0000000180029b98     libucrt:lcidtoname_downlevel.obj
 0002:00007ba8       ??_C@_1M@BBPHKFPJ@?$AAh?$AAi?$AA?9?$AAi?$AAn@ 0000000180029ba8     libucrt:lcidtoname_downlevel.obj
 0002:00007bb8       ??_C@_1M@PMBNDPHD@?$AAh?$AAr?$AA?9?$AAb?$AAa@ 0000000180029bb8     libucrt:lcidtoname_downlevel.obj
 0002:00007bc8       ??_C@_1M@BPCKOEGE@?$AAh?$AAr?$AA?9?$AAh?$AAr@ 0000000180029bc8     libucrt:lcidtoname_downlevel.obj
 0002:00007bd8       ??_C@_1M@GACBMHKE@?$AAh?$AAu?$AA?9?$AAh?$AAu@ 0000000180029bd8     libucrt:lcidtoname_downlevel.obj
 0002:00007be8       ??_C@_1M@MILPAJJC@?$AAh?$AAy?$AA?9?$AAa?$AAm@ 0000000180029be8     libucrt:lcidtoname_downlevel.obj
 0002:00007bf8       ??_C@_1M@BABBICEC@?$AAi?$AAd?$AA?9?$AAi?$AAd@ 0000000180029bf8     libucrt:lcidtoname_downlevel.obj
 0002:00007c08       ??_C@_1M@BIKNHHPF@?$AAi?$AAs?$AA?9?$AAi?$AAs@ 0000000180029c08     libucrt:lcidtoname_downlevel.obj
 0002:00007c18       ??_C@_1M@NMPCJPHE@?$AAi?$AAt?$AA?9?$AAc?$AAh@ 0000000180029c18     libucrt:lcidtoname_downlevel.obj
 0002:00007c28       ??_C@_1M@GHKGFEDF@?$AAi?$AAt?$AA?9?$AAi?$AAt@ 0000000180029c28     libucrt:lcidtoname_downlevel.obj
 0002:00007c38       ??_C@_1M@NIEJCJJA@?$AAj?$AAa?$AA?9?$AAj?$AAp@ 0000000180029c38     libucrt:lcidtoname_downlevel.obj
 0002:00007c48       ??_C@_1M@JILFNBIM@?$AAk?$AAa?$AA?9?$AAg?$AAe@ 0000000180029c48     libucrt:lcidtoname_downlevel.obj
 0002:00007c58       ??_C@_1M@PACPMGPH@?$AAk?$AAk?$AA?9?$AAk?$AAz@ 0000000180029c58     libucrt:lcidtoname_downlevel.obj
 0002:00007c68       ??_C@_1M@IELFGMHA@?$AAk?$AAn?$AA?9?$AAi?$AAn@ 0000000180029c68     libucrt:lcidtoname_downlevel.obj
 0002:00007c78       ??_C@_1O@IBBJHCH@?$AAk?$AAo?$AAk?$AA?9?$AAi?$AAn@ 0000000180029c78     libucrt:lcidtoname_downlevel.obj
 0002:00007c88       ??_C@_1M@DMHAEOGC@?$AAk?$AAo?$AA?9?$AAk?$AAr@ 0000000180029c88     libucrt:lcidtoname_downlevel.obj
 0002:00007c98       ??_C@_1M@HBAHBIGA@?$AAk?$AAy?$AA?9?$AAk?$AAg@ 0000000180029c98     libucrt:lcidtoname_downlevel.obj
 0002:00007ca8       ??_C@_1M@KPMILCJG@?$AAl?$AAt?$AA?9?$AAl?$AAt@ 0000000180029ca8     libucrt:lcidtoname_downlevel.obj
 0002:00007cb8       ??_C@_1M@BDEKKCA@?$AAl?$AAv?$AA?9?$AAl?$AAv@ 0000000180029cb8     libucrt:lcidtoname_downlevel.obj
 0002:00007cc8       ??_C@_1M@ELCKCCJJ@?$AAm?$AAi?$AA?9?$AAn?$AAz@ 0000000180029cc8     libucrt:lcidtoname_downlevel.obj
 0002:00007cd8       ??_C@_1M@CBOOLAPA@?$AAm?$AAk?$AA?9?$AAm?$AAk@ 0000000180029cd8     libucrt:lcidtoname_downlevel.obj
 0002:00007ce8       ??_C@_1M@GPHNBJKN@?$AAm?$AAl?$AA?9?$AAi?$AAn@ 0000000180029ce8     libucrt:lcidtoname_downlevel.obj
 0002:00007cf8       ??_C@_1M@PABJILIG@?$AAm?$AAn?$AA?9?$AAm?$AAn@ 0000000180029cf8     libucrt:lcidtoname_downlevel.obj
 0002:00007d08       ??_C@_1M@FGBKKIPG@?$AAm?$AAr?$AA?9?$AAi?$AAn@ 0000000180029d08     libucrt:lcidtoname_downlevel.obj
 0002:00007d18       ??_C@_1M@NDBPDDAL@?$AAm?$AAs?$AA?9?$AAb?$AAn@ 0000000180029d18     libucrt:lcidtoname_downlevel.obj
 0002:00007d28       ??_C@_1M@OPIHOOPI@?$AAm?$AAs?$AA?9?$AAm?$AAy@ 0000000180029d28     libucrt:lcidtoname_downlevel.obj
 0002:00007d38       ??_C@_1M@PPDBCNFM@?$AAm?$AAt?$AA?9?$AAm?$AAt@ 0000000180029d38     libucrt:lcidtoname_downlevel.obj
 0002:00007d48       ??_C@_1M@KDJDKMDD@?$AAn?$AAb?$AA?9?$AAn?$AAo@ 0000000180029d48     libucrt:lcidtoname_downlevel.obj
 0002:00007d58       ??_C@_1M@KFCFLMJP@?$AAn?$AAl?$AA?9?$AAb?$AAe@ 0000000180029d58     libucrt:lcidtoname_downlevel.obj
 0002:00007d68       ??_C@_1M@KPOPDDGO@?$AAn?$AAl?$AA?9?$AAn?$AAl@ 0000000180029d68     libucrt:lcidtoname_downlevel.obj
 0002:00007d78       ??_C@_1M@LJKPEMLN@?$AAn?$AAn?$AA?9?$AAn?$AAo@ 0000000180029d78     libucrt:lcidtoname_downlevel.obj
 0002:00007d88       ??_C@_1M@BDGHHBFL@?$AAn?$AAs?$AA?9?$AAz?$AAa@ 0000000180029d88     libucrt:lcidtoname_downlevel.obj
 0002:00007d98       ??_C@_1M@IDEHOAP@?$AAp?$AAa?$AA?9?$AAi?$AAn@ 0000000180029d98     libucrt:lcidtoname_downlevel.obj
 0002:00007da8       ??_C@_1M@HDBKGOGH@?$AAp?$AAl?$AA?9?$AAp?$AAl@ 0000000180029da8     libucrt:lcidtoname_downlevel.obj
 0002:00007db8       ??_C@_1M@LJLLCMEH@?$AAp?$AAt?$AA?9?$AAb?$AAr@ 0000000180029db8     libucrt:lcidtoname_downlevel.obj
 0002:00007dc8       ??_C@_1M@NCMONAAL@?$AAp?$AAt?$AA?9?$AAp?$AAt@ 0000000180029dc8     libucrt:lcidtoname_downlevel.obj
 0002:00007dd8       ??_C@_1O@EAKMAJDN@?$AAq?$AAu?$AAz?$AA?9?$AAb?$AAo@ 0000000180029dd8     libucrt:lcidtoname_downlevel.obj
 0002:00007de8       ??_C@_1O@BHHPIGDN@?$AAq?$AAu?$AAz?$AA?9?$AAe?$AAc@ 0000000180029de8     libucrt:lcidtoname_downlevel.obj
 0002:00007df8       ??_C@_1O@GBAPEKMJ@?$AAq?$AAu?$AAz?$AA?9?$AAp?$AAe@ 0000000180029df8     libucrt:lcidtoname_downlevel.obj
 0002:00007e08       ??_C@_1M@CLGLEFBO@?$AAr?$AAo?$AA?9?$AAr?$AAo@ 0000000180029e08     libucrt:lcidtoname_downlevel.obj
 0002:00007e18       ??_C@_1M@CEEDODME@?$AAr?$AAu?$AA?9?$AAr?$AAu@ 0000000180029e18     libucrt:lcidtoname_downlevel.obj
 0002:00007e28       ??_C@_1M@HPKKKMPP@?$AAs?$AAa?$AA?9?$AAi?$AAn@ 0000000180029e28     libucrt:lcidtoname_downlevel.obj
 0002:00007e38       ??_C@_1M@BKMAIGOJ@?$AAs?$AAe?$AA?9?$AAf?$AAi@ 0000000180029e38     libucrt:lcidtoname_downlevel.obj
 0002:00007e48       ??_C@_1M@NDPIFLFI@?$AAs?$AAe?$AA?9?$AAn?$AAo@ 0000000180029e48     libucrt:lcidtoname_downlevel.obj
 0002:00007e58       ??_C@_1M@DANKKHJ@?$AAs?$AAe?$AA?9?$AAs?$AAe@ 0000000180029e58     libucrt:lcidtoname_downlevel.obj
 0002:00007e68       ??_C@_1M@PNBLONPJ@?$AAs?$AAk?$AA?9?$AAs?$AAk@ 0000000180029e68     libucrt:lcidtoname_downlevel.obj
 0002:00007e78       ??_C@_1M@LFMODOAL@?$AAs?$AAl?$AA?9?$AAs?$AAi@ 0000000180029e78     libucrt:lcidtoname_downlevel.obj
 0002:00007e88       ??_C@_1O@DFKOMPG@?$AAs?$AAm?$AAa?$AA?9?$AAn?$AAo@ 0000000180029e88     libucrt:lcidtoname_downlevel.obj
 0002:00007e98       ??_C@_1O@NDKPBNNH@?$AAs?$AAm?$AAa?$AA?9?$AAs?$AAe@ 0000000180029e98     libucrt:lcidtoname_downlevel.obj
 0002:00007ea8       ??_C@_1O@PLLKBHAB@?$AAs?$AAm?$AAj?$AA?9?$AAn?$AAo@ 0000000180029ea8     libucrt:lcidtoname_downlevel.obj
 0002:00007eb8       ??_C@_1O@CLEPOGCA@?$AAs?$AAm?$AAj?$AA?9?$AAs?$AAe@ 0000000180029eb8     libucrt:lcidtoname_downlevel.obj
 0002:00007ec8       ??_C@_1O@DLGJGKMK@?$AAs?$AAm?$AAn?$AA?9?$AAf?$AAi@ 0000000180029ec8     libucrt:lcidtoname_downlevel.obj
 0002:00007ed8       ??_C@_1O@OJDJGAJC@?$AAs?$AAm?$AAs?$AA?9?$AAf?$AAi@ 0000000180029ed8     libucrt:lcidtoname_downlevel.obj
 0002:00007ee8       ??_C@_1M@BOFOGHPB@?$AAs?$AAq?$AA?9?$AAa?$AAl@ 0000000180029ee8     libucrt:lcidtoname_downlevel.obj
 0002:00007ef8       ??_C@_1BG@LJBBIPGB@?$AAs?$AAr?$AA?9?$AAb?$AAa?$AA?9?$AAc?$AAy?$AAr?$AAl@ 0000000180029ef8     libucrt:lcidtoname_downlevel.obj
 0002:00007f10       ??_C@_1BG@JLBENFOE@?$AAs?$AAr?$AA?9?$AAb?$AAa?$AA?9?$AAl?$AAa?$AAt?$AAn@ 0000000180029f10     libucrt:lcidtoname_downlevel.obj
 0002:00007f28       ??_C@_1BG@KODPNHE@?$AAs?$AAr?$AA?9?$AAs?$AAp?$AA?9?$AAc?$AAy?$AAr?$AAl@ 0000000180029f28     libucrt:lcidtoname_downlevel.obj
 0002:00007f40       ??_C@_1BG@CIOGKHPB@?$AAs?$AAr?$AA?9?$AAs?$AAp?$AA?9?$AAl?$AAa?$AAt?$AAn@ 0000000180029f40     libucrt:lcidtoname_downlevel.obj
 0002:00007f58       ??_C@_1M@NGFJLMAC@?$AAs?$AAv?$AA?9?$AAf?$AAi@ 0000000180029f58     libucrt:lcidtoname_downlevel.obj
 0002:00007f68       ??_C@_1M@MPJEJAJC@?$AAs?$AAv?$AA?9?$AAs?$AAe@ 0000000180029f68     libucrt:lcidtoname_downlevel.obj
 0002:00007f78       ??_C@_1M@MPNDHLFK@?$AAs?$AAw?$AA?9?$AAk?$AAe@ 0000000180029f78     libucrt:lcidtoname_downlevel.obj
 0002:00007f88       ??_C@_1O@KOHBJJI@?$AAs?$AAy?$AAr?$AA?9?$AAs?$AAy@ 0000000180029f88     libucrt:lcidtoname_downlevel.obj
 0002:00007f98       ??_C@_1M@LDCEFHA@?$AAt?$AAa?$AA?9?$AAi?$AAn@ 0000000180029f98     libucrt:lcidtoname_downlevel.obj
 0002:00007fa8       ??_C@_1M@CNJOFAK@?$AAt?$AAe?$AA?9?$AAi?$AAn@ 0000000180029fa8     libucrt:lcidtoname_downlevel.obj
 0002:00007fb8       ??_C@_1M@GNAECACD@?$AAt?$AAh?$AA?9?$AAt?$AAh@ 0000000180029fb8     libucrt:lcidtoname_downlevel.obj
 0002:00007fc8       ??_C@_1M@CHBIHOJO@?$AAt?$AAn?$AA?9?$AAz?$AAa@ 0000000180029fc8     libucrt:lcidtoname_downlevel.obj
 0002:00007fd8       ??_C@_1M@GCCMIGPJ@?$AAt?$AAr?$AA?9?$AAt?$AAr@ 0000000180029fd8     libucrt:lcidtoname_downlevel.obj
 0002:00007fe8       ??_C@_1M@CELMCNBK@?$AAt?$AAt?$AA?9?$AAr?$AAu@ 0000000180029fe8     libucrt:lcidtoname_downlevel.obj
 0002:00007ff8       ??_C@_1M@KLMCELGA@?$AAu?$AAk?$AA?9?$AAu?$AAa@ 0000000180029ff8     libucrt:lcidtoname_downlevel.obj
 0002:00008008       ??_C@_1M@EPAJJAJF@?$AAu?$AAr?$AA?9?$AAp?$AAk@ 000000018002a008     libucrt:lcidtoname_downlevel.obj
 0002:00008018       ??_C@_1BG@GEGPMCDJ@?$AAu?$AAz?$AA?9?$AAu?$AAz?$AA?9?$AAc?$AAy?$AAr?$AAl@ 000000018002a018     libucrt:lcidtoname_downlevel.obj
 0002:00008030       ??_C@_1BG@EGGKJILM@?$AAu?$AAz?$AA?9?$AAu?$AAz?$AA?9?$AAl?$AAa?$AAt?$AAn@ 000000018002a030     libucrt:lcidtoname_downlevel.obj
 0002:00008048       ??_C@_1M@GFOCLFF@?$AAv?$AAi?$AA?9?$AAv?$AAn@ 000000018002a048     libucrt:lcidtoname_downlevel.obj
 0002:00008058       ??_C@_1M@CPAMEDFI@?$AAx?$AAh?$AA?9?$AAz?$AAa@ 000000018002a058     libucrt:lcidtoname_downlevel.obj
 0002:00008068       ??_C@_1O@EBKIFIGN@?$AAz?$AAh?$AA?9?$AAc?$AAh?$AAs@ 000000018002a068     libucrt:lcidtoname_downlevel.obj
 0002:00008078       ??_C@_1O@NMHPGANE@?$AAz?$AAh?$AA?9?$AAc?$AAh?$AAt@ 000000018002a078     libucrt:lcidtoname_downlevel.obj
 0002:00008088       ??_C@_1M@LPINJOMC@?$AAz?$AAh?$AA?9?$AAc?$AAn@ 000000018002a088     libucrt:lcidtoname_downlevel.obj
 0002:00008098       ??_C@_1M@OCJEJODD@?$AAz?$AAh?$AA?9?$AAh?$AAk@ 000000018002a098     libucrt:lcidtoname_downlevel.obj
 0002:000080a8       ??_C@_1M@DNDLJINH@?$AAz?$AAh?$AA?9?$AAm?$AAo@ 000000018002a0a8     libucrt:lcidtoname_downlevel.obj
 0002:000080b8       ??_C@_1M@MBFDNDND@?$AAz?$AAh?$AA?9?$AAs?$AAg@ 000000018002a0b8     libucrt:lcidtoname_downlevel.obj
 0002:000080c8       ??_C@_1M@IMEPLEPE@?$AAz?$AAh?$AA?9?$AAt?$AAw@ 000000018002a0c8     libucrt:lcidtoname_downlevel.obj
 0002:000080d8       ??_C@_1M@BBGHNHJP@?$AAz?$AAu?$AA?9?$AAz?$AAa@ 000000018002a0d8     libucrt:lcidtoname_downlevel.obj
 0002:000080f0       ?large_power_data@?1??multiply_by_power_of_ten@__crt_strtox@@YA_NAEAUbig_integer@2@I@Z@4QBIB 000000018002a0f0     libucrt:cfout.obj
 0002:00008a98       ?small_powers_of_ten@?1??multiply_by_power_of_ten@__crt_strtox@@YA_NAEAUbig_integer@2@I@Z@4QBIB 000000018002aa98     libucrt:cfout.obj
 0002:00008abc       ??_C@_01GBGANLPD@0@        000000018002aabc     libucrt:cfout.obj
 0002:00008ac0       ??_C@_05DNEBIAHO@1?$CDINF@ 000000018002aac0     libucrt:cfout.obj
 0002:00008ac8       ??_C@_06IMKFLFPG@1?$CDQNAN@ 000000018002aac8     libucrt:cfout.obj
 0002:00008ad0       ??_C@_06PGGFOGJG@1?$CDSNAN@ 000000018002aad0     libucrt:cfout.obj
 0002:00008ad8       ??_C@_05PHHOCPM@1?$CDIND@  000000018002aad8     libucrt:cfout.obj
 0002:00008ae0       __real@3ff0000000000000    000000018002aae0     libucrt:ceil.obj
 0002:00008d40       __log10_256_lead           000000018002ad40     libucrt:log10_256_lead_tail_table.obj
 0002:00009550       __log10_256_tail           000000018002b550     libucrt:log10_256_lead_tail_table.obj
 0002:00009d60       __log_F_inv_qword          000000018002bd60     libucrt:log_f_inv_qword_table.obj
 0002:0000a570       ??_C@_05HGHHAHAP@log10@    000000018002c570     libucrt:log_special.obj
 0002:0000a578       ??_C@_1BA@BALFACEM@?$AAC?$AAO?$AAN?$AAO?$AAU?$AAT?$AA$@ 000000018002c578     libucrt:initcon.obj
 0002:0000a600       _load_config_used          000000018002c600     LIBCMT:loadcfg.obj
 0002:0000a708       _tls_used                  000000018002c708     LIBCMT:tlssup.obj
 0002:0000a730       ??_R4exception@std@@6B@    000000018002c730     LIBCMT:throw_bad_alloc.obj
 0002:0000a758       ??_R3exception@std@@8      000000018002c758     LIBCMT:throw_bad_alloc.obj
 0002:0000a770       ??_R2exception@std@@8      000000018002c770     LIBCMT:throw_bad_alloc.obj
 0002:0000a780       ??_R1A@?0A@EA@exception@std@@8 000000018002c780     LIBCMT:throw_bad_alloc.obj
 0002:0000a7a8       ??_R4bad_alloc@std@@6B@    000000018002c7a8     LIBCMT:throw_bad_alloc.obj
 0002:0000a7d0       ??_R3bad_alloc@std@@8      000000018002c7d0     LIBCMT:throw_bad_alloc.obj
 0002:0000a7e8       ??_R2bad_alloc@std@@8      000000018002c7e8     LIBCMT:throw_bad_alloc.obj
 0002:0000a800       ??_R1A@?0A@EA@bad_alloc@std@@8 000000018002c800     LIBCMT:throw_bad_alloc.obj
 0002:0000a828       ??_R4bad_array_new_length@std@@6B@ 000000018002c828     LIBCMT:throw_bad_alloc.obj
 0002:0000a850       ??_R3bad_array_new_length@std@@8 000000018002c850     LIBCMT:throw_bad_alloc.obj
 0002:0000a868       ??_R2bad_array_new_length@std@@8 000000018002c868     LIBCMT:throw_bad_alloc.obj
 0002:0000a888       ??_R1A@?0A@EA@bad_array_new_length@std@@8 000000018002c888     LIBCMT:throw_bad_alloc.obj
 0002:0000a8b0       ??_R4type_info@@6B@        000000018002c8b0     LIBCMT:std_type_info_static.obj
 0002:0000a8d8       ??_R3type_info@@8          000000018002c8d8     LIBCMT:std_type_info_static.obj
 0002:0000a8f0       ??_R2type_info@@8          000000018002c8f0     LIBCMT:std_type_info_static.obj
 0002:0000a900       ??_R1A@?0A@EA@type_info@@8 000000018002c900     LIBCMT:std_type_info_static.obj
 0002:0000a928       ??_R4bad_exception@std@@6B@ 000000018002c928     libvcruntime:frame.obj
 0002:0000a950       ??_R3bad_exception@std@@8  000000018002c950     libvcruntime:frame.obj
 0002:0000a968       ??_R2bad_exception@std@@8  000000018002c968     libvcruntime:frame.obj
 0002:0000a980       ??_R1A@?0A@EA@bad_exception@std@@8 000000018002c980     libvcruntime:frame.obj
 0002:0000ada8       __rtc_iaa                  000000018002cda8     LIBCMT:initsect.obj
 0002:0000adb0       __rtc_izz                  000000018002cdb0     LIBCMT:initsect.obj
 0002:0000adb8       __rtc_taa                  000000018002cdb8     LIBCMT:initsect.obj
 0002:0000adc0       __rtc_tzz                  000000018002cdc0     LIBCMT:initsect.obj
 0002:0000adc8       _tls_start                 000000018002cdc8     LIBCMT:tlssup.obj
 0002:0000adcc       _Init_thread_epoch         000000018002cdcc     LIBCMT:thread_safe_statics.obj
 0002:0000add0       _tls_end                   000000018002cdd0     LIBCMT:tlssup.obj
 0002:0000c3f0       _TI2?AVbad_alloc@std@@     000000018002e3f0     LIBCMT:throw_bad_alloc.obj
 0002:0000c410       _CTA2?AVbad_alloc@std@@    000000018002e410     LIBCMT:throw_bad_alloc.obj
 0002:0000c428       _CT??_R0?AVbad_alloc@std@@@8??0bad_alloc@std@@QEAA@AEBV01@@Z24 000000018002e428     LIBCMT:throw_bad_alloc.obj
 0002:0000c450       _CT??_R0?AVexception@std@@@8??0exception@std@@QEAA@AEBV01@@Z24 000000018002e450     LIBCMT:throw_bad_alloc.obj
 0002:0000c478       _TI3?AVbad_array_new_length@std@@ 000000018002e478     LIBCMT:throw_bad_alloc.obj
 0002:0000c498       _CTA3?AVbad_array_new_length@std@@ 000000018002e498     LIBCMT:throw_bad_alloc.obj
 0002:0000c4b8       _CT??_R0?AVbad_array_new_length@std@@@8??0bad_array_new_length@std@@QEAA@AEBV01@@Z24 000000018002e4b8     LIBCMT:throw_bad_alloc.obj
 0002:0000c4e0       _TI2?AVbad_exception@std@@ 000000018002e4e0     libvcruntime:frame.obj
 0002:0000c500       _CTA2?AVbad_exception@std@@ 000000018002e500     libvcruntime:frame.obj
 0002:0000c518       _CT??_R0?AVbad_exception@std@@@8??0bad_exception@std@@QEAA@AEBV01@@Z24 000000018002e518     libvcruntime:frame.obj
 0002:0000c540       __pobjMapEntryFirst        000000018002e540     OposVariant.obj
 0002:0000c548       __pobjMapEntryLast         000000018002e548     OposVariant.obj
 0002:0000c5f8       __IMPORT_DESCRIPTOR_KERNEL32 000000018002e5f8     kernel32:KERNEL32.dll
 0002:0000c60c       __IMPORT_DESCRIPTOR_USER32 000000018002e60c     user32:USER32.dll
 0002:0000c620       __IMPORT_DESCRIPTOR_GDI32  000000018002e620     gdi32:GDI32.dll
 0002:0000c634       __IMPORT_DESCRIPTOR_ADVAPI32 000000018002e634     advapi32:ADVAPI32.dll
 0002:0000c648       __IMPORT_DESCRIPTOR_ole32  000000018002e648     ole32:ole32.dll
 0002:0000c65c       __IMPORT_DESCRIPTOR_OLEAUT32 000000018002e65c     oleaut32:OLEAUT32.dll
 0002:0000c670       __NULL_IMPORT_DESCRIPTOR   000000018002e670     kernel32:KERNEL32.dll
 0003:00000000       ?wc@?1??GetWndClassInfo@?$CWindowImpl@VCOPOSScanner@@VCWindow@ATL@@V?$CWinTraits@$0FGAAAAAA@$0A@@3@@ATL@@SAAEAU_ATL_WNDCLASSINFOW@3@XZ@4U43@A 0000000180030000     Scanner.obj
 0003:000000f8       ?rcDefault@CWindow@ATL@@2UtagRECT@@A 00000001800300f8     Scanner.obj
 0003:00000108       ?_tih@?$IDispatchImpl@UIOPOSScanner@@$1?IID_IOPOSScanner@@3U_GUID@@B$1?LIBID_OposScanner_CCO@@3U3@B$00$0A@VCComTypeInfoHolder@ATL@@@ATL@@1VCComTypeInfoHolder@2@A 0000000180030108     Scanner.obj
 0003:00000140       ?_tih@?$IProvideClassInfo2Impl@$1?CLSID_OPOSScanner@@3U_GUID@@B$1?DIID__IOPOSScannerEvents@@3U2@B$1?LIBID_OposScanner_CCO@@3U2@B$00$0A@VCComTypeInfoHolder@ATL@@@ATL@@1VCComTypeInfoHolder@2@A 0000000180030140     Scanner.obj
 0003:00000178       ?vszContents@?6??Save@?$IPersistStorageImpl@VCOPOSScanner@@@ATL@@UEAAJPEAUIStorage@@H@Z@4PEB_WEB 0000000180030178     Scanner.obj
 0003:00000180       ?s_Claim@?7??GetIDsOfNames@CComTypeInfoHolder@ATL@@QEAAJAEBU_GUID@@PEAPEA_WIKPEAJ@Z@4PA_WA 0000000180030180     Scanner.obj
 0003:00000198       ?s_Release@?7??GetIDsOfNames@CComTypeInfoHolder@ATL@@QEAAJAEBU_GUID@@PEAPEA_WIKPEAJ@Z@4PA_WA 0000000180030198     Scanner.obj
 0003:00000250       ?g_WindowName@@3PA_WA      0000000180030250     ScannerImpl.obj
 0003:00000270       ?g_ControlDescription@@3PADA 0000000180030270     ScannerImpl.obj
 0003:000002a4       ?g_ControlVersion@@3JA     00000001800302a4     ScannerImpl.obj
 0003:00000374       __scrt_native_dllmain_reason 0000000180030374     LIBCMT:utility.obj
 0003:00000378       _Init_global_epoch         0000000180030378     LIBCMT:thread_safe_statics.obj
 0003:00000380       __security_cookie_complement 0000000180030380     LIBCMT:gs_cookie.obj
 0003:00000388       __security_cookie          0000000180030388     LIBCMT:gs_cookie.obj
 0003:00000390       __isa_available            0000000180030390     LIBCMT:cpu_disp.obj
 0003:00000394       __isa_enabled              0000000180030394     LIBCMT:cpu_disp.obj
 0003:00000398       __memcpy_nt_iters          0000000180030398     LIBCMT:cpu_disp.obj
 0003:000003a0       __memset_nt_iters          00000001800303a0     LIBCMT:cpu_disp.obj
 0003:000003c8       __abort_behavior           00000001800303c8     libucrt:abort.obj
 0003:000003e0       _iob                       00000001800303e0     libucrt:_file.obj
 0003:000004f0       __acrt_initial_locale_data 00000001800304f0     libucrt:nlsdata.obj
 0003:00000648       __acrt_initial_locale_pointers 0000000180030648     libucrt:nlsdata.obj
 0003:00000658       __acrt_wide_c_locale_string 0000000180030658     libucrt:nlsdata.obj
 0003:00000660       __acrt_initial_multibyte_data 0000000180030660     libucrt:mbctype.obj
 0003:00000ba0       _pwctype                   0000000180030ba0     libucrt:ctype.obj
 0003:00000ba8       __globallocalestatus       0000000180030ba8     libucrt:glstatus.obj
 0003:00000bb0       __acrt_lconv_c             0000000180030bb0     libucrt:localeconv.obj
 0003:00000c48       __acrt_lconv_static_decimal 0000000180030c48     libucrt:localeconv.obj
 0003:00000c4c       __acrt_lconv_static_W_decimal 0000000180030c4c     libucrt:localeconv.obj
 0003:00000c50       _lookuptrailbytes          0000000180030c50     libucrt:read.obj
 0003:00000d64       _fltused                   0000000180030d64     LIBCMT:fltused.obj
 0003:00000d68       ??_R0?AVbad_alloc@std@@@8  0000000180030d68     LIBCMT:throw_bad_alloc.obj
 0003:00000d90       ??_R0?AVexception@std@@@8  0000000180030d90     LIBCMT:throw_bad_alloc.obj
 0003:00000db8       ??_R0?AVbad_array_new_length@std@@@8 0000000180030db8     LIBCMT:throw_bad_alloc.obj
 0003:00000de8       ??_R0?AVtype_info@@@8      0000000180030de8     LIBCMT:std_type_info_static.obj
 0003:00000e08       ??_R0?AVbad_exception@std@@@8 0000000180030e08     libvcruntime:frame.obj
 0003:00000e30       ?_pPerfRegFunc@ATL@@3P6AJPEAUHINSTANCE__@@@ZEA 0000000180030e30     OposVariant.obj
 0003:00000e38       ?_pPerfUnRegFunc@ATL@@3P6AJXZEA 0000000180030e38     OposVariant.obj
 0003:00000e40       ?_AtlRegisterPerUser@ATL@@3_NA 0000000180030e40     OposVariant.obj
 0003:00000e48       ?_pAtlModule@ATL@@3PEAVCAtlModule@1@EA 0000000180030e48     OposVariant.obj
 0003:00000e50       ?_pModule@ATL@@3PEAVCComModule@1@EA 0000000180030e50     OposVariant.obj
 0003:00000e58       ?m_bInitFailed@CAtlBaseModule@ATL@@2_NA 0000000180030e58     OposVariant.obj
 0003:00000e60       ?_AtlComModule@ATL@@3VCAtlComModule@1@A 0000000180030e60     OposVariant.obj
 0003:00000eb0       ?_AtlWinModule@ATL@@3VCAtlWinModule@1@A 0000000180030eb0     OposVariant.obj
 0003:00000ef8       ?m_libid@CAtlModule@ATL@@2U_GUID@@A 0000000180030ef8     Scanner.obj
 0003:00000f08       ?_OptionsStorage@?1??__local_stdio_printf_options@@9@4_KA 0000000180030f08     Scanner.obj
 0003:00000f10       ?_entries@?1??GetConnMap@COPOSScanner@@SAPEBU_ATL_CONNMAP_ENTRY@ATL@@PEAH@Z@4QBU34@B 0000000180030f10     Scanner.obj
 0003:00000f28       ?$TSS0@?1??GetConnMap@COPOSScanner@@SAPEBU_ATL_CONNMAP_ENTRY@ATL@@PEAH@Z@4HA 0000000180030f28     Scanner.obj
 0003:00000f30       ?pfnRegDeleteKeyEx@?1??DeleteSubKey@CRegKey@ATL@@QEAAJPEB_W@Z@4P6AJPEAUHKEY__@@0KK@ZEA 0000000180030f30     Scanner.obj
 0003:00000f38       ?bInitialized@?1??DeleteSubKey@CRegKey@ATL@@QEAAJPEB_W@Z@4_NA 0000000180030f38     Scanner.obj
 0003:00000f40       ?_Module@@3VCComModule@ATL@@A 0000000180030f40     Scanner.obj
 0003:00000f90       ?pConnMap@?$IConnectionPointContainerImpl@VCOPOSScanner@@@ATL@@0PEBU_ATL_CONNMAP_ENTRY@2@EB 0000000180030f90     Scanner.obj
 0003:00000f98       ?s_nInstances@COPOSScanner@@1HA 0000000180030f98     ScannerImpl.obj
 0003:00000fa0       __scrt_current_native_startup_state 0000000180030fa0     LIBCMT:utility.obj
 0003:00000fa8       __scrt_native_startup_lock 0000000180030fa8     LIBCMT:utility.obj
 0003:000015a0       _tls_index                 00000001800315a0     LIBCMT:tlssup.obj
 0003:000015a8       __favor                    00000001800315a8     LIBCMT:cpu_disp.obj
 0003:000015ac       __scrt_debugger_hook_flag  00000001800315ac     LIBCMT:utility_desktop.obj
 0003:000015b0       ?__type_info_root_node@@3U__type_info_node@@A 00000001800315b0     LIBCMT:tncleanup.obj
 0003:000015c0       ?_OptionsStorage@?1??__local_stdio_scanf_options@@9@4_KA 00000001800315c0     LIBCMT:default_local_stdio_options.obj
 0003:000015d0       ?_AtlBaseModule@ATL@@3VCAtlBaseModule@1@A 00000001800315d0     atls:atlbase.obj
 0003:00001630       ?__AtlThunkPool@@3PEAT_SLIST_HEADER@@EA 0000000180031630     atls:atlthunk.obj
 0003:0000165c       __@@_PchSym_@00@UztvmgUPdlipUDUhUrmgvinvwrzgvUexgllohUzgohOmzgrevkilqPBACIAJCBDBUlyqiUznwGEUhgwzucOlyq@4B2008FD98C1DD4 000000018003165c     atls:stdafx.obj
 0003:00001660       __pPurecall                0000000180031660     libvcruntime:purevirt_data.obj
 0003:00001720       ?__WinRTOutOfMemoryExceptionCallback@@3P6APEAXXZEA 0000000180031720     libvcruntime:ehhelpers.obj
 0003:00001728       ?pArgList@UnDecorator@@0PEAVReplicator@@EA 0000000180031728     libvcruntime:undname.obj
 0003:00001730       ?pZNameList@UnDecorator@@0PEAVReplicator@@EA 0000000180031730     libvcruntime:undname.obj
 0003:00001738       ?pTemplateArgList@UnDecorator@@0PEAVReplicator@@EA 0000000180031738     libvcruntime:undname.obj
 0003:00001740       ?gName@UnDecorator@@0PEBDEB 0000000180031740     libvcruntime:undname.obj
 0003:00001748       ?name@UnDecorator@@0PEBDEB 0000000180031748     libvcruntime:undname.obj
 0003:00001750       ?disableFlags@UnDecorator@@0KA 0000000180031750     libvcruntime:undname.obj
 0003:00001754       ?fExplicitTemplateParams@UnDecorator@@0_NA 0000000180031754     libvcruntime:undname.obj
 0003:00001755       ?fGetTemplateArgumentList@UnDecorator@@0_NA 0000000180031755     libvcruntime:undname.obj
 0003:00001758       ?m_pGetParameter@UnDecorator@@0P6APEADJ@ZEA 0000000180031758     libvcruntime:undname.obj
 0003:00001760       ?m_CHPENameOffset@UnDecorator@@0KA 0000000180031760     libvcruntime:undname.obj
 0003:00001764       ?m_recursionLevel@UnDecorator@@0KA 0000000180031764     libvcruntime:undname.obj
 0003:000017e8       ?c_exit_complete@?1???R<lambda_6e4b09c48022b2350581041d5f6b0c4c>@@QEBA@XZ@4_NA 00000001800317e8     libucrt:exit.obj
 0003:000018f8       _environ_table             00000001800318f8     libucrt:environment_initialization.obj
 0003:00001900       _wenviron_table            0000000180031900     libucrt:environment_initialization.obj
 0003:00001908       __dcrt_initial_wide_environment 0000000180031908     libucrt:environment_initialization.obj
 0003:00001910       __dcrt_initial_narrow_environment 0000000180031910     libucrt:environment_initialization.obj
 0003:00001918       __acrt_atexit_table        0000000180031918     libucrt:onexit.obj
 0003:00001930       __acrt_at_quick_exit_table 0000000180031930     libucrt:onexit.obj
 0003:00001b08       _nstream                   0000000180031b08     libucrt:_file.obj
 0003:00001b10       __piob                     0000000180031b10     libucrt:_file.obj
 0003:00001b20       __acrt_stdout_buffer       0000000180031b20     libucrt:_sftbuf.obj
 0003:00001b28       __acrt_stderr_buffer       0000000180031b28     libucrt:_sftbuf.obj
 0003:00001b30       __acrt_locale_changed_data 0000000180031b30     libucrt:wsetlocale.obj
 0003:00001b38       __acrt_current_locale_data 0000000180031b38     libucrt:nlsdata.obj
 0003:00001b40       __pioinfo                  0000000180031b40     libucrt:ioinit.obj
 0003:00001f40       _nhandle                   0000000180031f40     libucrt:ioinit.obj
 0003:00002188       _mbctype                   0000000180032188     libucrt:mbctype.obj
 0003:00002190       _mbcasemap                 0000000180032190     libucrt:mbctype.obj
 0003:00002198       __acrt_current_multibyte_data 0000000180032198     libucrt:mbctype.obj
 0003:000021a8       _pgmptr                    00000001800321a8     libucrt:argv_data.obj
 0003:000021b0       __argc                     00000001800321b0     libucrt:argv_data.obj
 0003:000021b8       __argv                     00000001800321b8     libucrt:argv_data.obj
 0003:000021c0       __wargv                    00000001800321c0     libucrt:argv_data.obj
 0003:000021c8       _acmdln                    00000001800321c8     libucrt:argv_data.obj
 0003:000021d0       _wcmdln                    00000001800321d0     libucrt:argv_data.obj
 0003:000021d8       __acrt_heap                00000001800321d8     libucrt:heap_handle.obj
 0003:0000220c       __acrt_lconv_static_null   000000018003220c     libucrt:localeconv.obj
 0003:00002210       __acrt_lconv_static_W_null 0000000180032210     libucrt:localeconv.obj
 0003:00002224       __fma3_is_available        0000000180032224     libucrt:fma3_available.obj
 0003:00002228       __use_fma3_lib             0000000180032228     libucrt:fma3_available.obj
 0003:00002230       __dyn_tls_init_callback    0000000180032230     <common>
 0003:00002238       __scrt_ucrt_dll_is_in_use  0000000180032238     <common>

 entry point at        0001:0000e9b4

 Static symbols

 0000:fffc5000       .debug$S                   0000000180000000     gdi32:GDI32.dll
 0000:fffc5000       .debug$S                   0000000180000000     gdi32:GDI32.dll
 0000:fffc5000       .debug$S                   0000000180000000     user32:USER32.dll
 0000:fffc5000       .debug$S                   0000000180000000     advapi32:ADVAPI32.dll
 0000:fffc5000       .debug$S                   0000000180000000     advapi32:ADVAPI32.dll
 0000:fffc5000       .debug$S                   0000000180000000     advapi32:ADVAPI32.dll
 0000:fffc5000       .debug$S                   0000000180000000     advapi32:ADVAPI32.dll
 0000:fffc5000       .debug$S                   0000000180000000     user32:USER32.dll
 0000:fffc5000       .debug$S                   0000000180000000     user32:USER32.dll
 0000:fffc5000       .debug$S                   0000000180000000     user32:USER32.dll
 0000:fffc5000       .debug$S                   0000000180000000     user32:USER32.dll
 0000:fffc5000       .debug$S                   0000000180000000     user32:USER32.dll
 0000:fffc5000       .debug$S                   0000000180000000     user32:USER32.dll
 0000:fffc5000       .debug$S                   0000000180000000     user32:USER32.dll
 0000:fffc5000       .debug$S                   0000000180000000     user32:USER32.dll
 0000:fffc5000       .debug$S                   0000000180000000     OPOSScanner.exp
 0000:fffc5000       .debug$S                   0000000180000000     user32:USER32.dll
 0000:fffc5000       .debug$S                   0000000180000000     kernel32:KERNEL32.dll
 0000:fffc5000       .debug$S                   0000000180000000     advapi32:ADVAPI32.dll
 0000:fffc5000       .debug$S                   0000000180000000     oleaut32:OLEAUT32.dll
 0000:fffc5000       .debug$S                   0000000180000000     advapi32:ADVAPI32.dll
 0000:fffc5000       .debug$S                   0000000180000000     user32:USER32.dll
 0000:fffc5000       .debug$S                   0000000180000000     oleaut32:OLEAUT32.dll
 0000:fffc5000       .debug$S                   0000000180000000     kernel32:KERNEL32.dll
 0000:fffc5000       .debug$S                   0000000180000000     kernel32:KERNEL32.dll
 0000:fffc5000       .debug$S                   0000000180000000     kernel32:KERNEL32.dll
 0000:fffc5000       .debug$S                   0000000180000000     kernel32:KERNEL32.dll
 0000:fffc5000       .debug$S                   0000000180000000     kernel32:KERNEL32.dll
 0000:fffc5000       .debug$S                   0000000180000000     kernel32:KERNEL32.dll
 0000:fffc5000       .debug$S                   0000000180000000     kernel32:KERNEL32.dll
 0000:fffc5000       .debug$S                   0000000180000000     kernel32:KERNEL32.dll
 0000:fffc5000       .debug$S                   0000000180000000     kernel32:KERNEL32.dll
 0000:fffc5000       .debug$S                   0000000180000000     kernel32:KERNEL32.dll
 0000:fffc5000       .debug$S                   0000000180000000     kernel32:KERNEL32.dll
 0000:fffc5000       .debug$S                   0000000180000000     kernel32:KERNEL32.dll
 0000:fffc5000       .debug$S                   0000000180000000     kernel32:KERNEL32.dll
 0000:fffc5000       .debug$S                   0000000180000000     kernel32:KERNEL32.dll
 0000:fffc5000       .debug$S                   0000000180000000     kernel32:KERNEL32.dll
 0000:fffc5000       .debug$S                   0000000180000000     kernel32:KERNEL32.dll
 0000:fffc5000       .debug$S                   0000000180000000     kernel32:KERNEL32.dll
 0000:fffc5000       .debug$S                   0000000180000000     kernel32:KERNEL32.dll
 0000:fffc5000       .debug$S                   0000000180000000     kernel32:KERNEL32.dll
 0000:fffc5000       .debug$S                   0000000180000000     kernel32:KERNEL32.dll
 0000:fffc5000       .debug$S                   0000000180000000     kernel32:KERNEL32.dll
 0000:fffc5000       .debug$S                   0000000180000000     kernel32:KERNEL32.dll
 0000:fffc5000       .debug$S                   0000000180000000     kernel32:KERNEL32.dll
 0000:fffc5000       .debug$S                   0000000180000000     kernel32:KERNEL32.dll
 0000:fffc5000       .debug$S                   0000000180000000     kernel32:KERNEL32.dll
 0000:fffc5000       .debug$S                   0000000180000000     kernel32:KERNEL32.dll
 0000:fffc5000       .debug$S                   0000000180000000     kernel32:KERNEL32.dll
 0000:fffc5000       .debug$S                   0000000180000000     kernel32:KERNEL32.dll
 0000:fffc5000       .debug$S                   0000000180000000     kernel32:KERNEL32.dll
 0000:fffc5000       .debug$S                   0000000180000000     kernel32:KERNEL32.dll
 0000:fffc5000       .debug$S                   0000000180000000     kernel32:KERNEL32.dll
 0000:fffc5000       .debug$S                   0000000180000000     kernel32:KERNEL32.dll
 0000:fffc5000       .debug$S                   0000000180000000     kernel32:KERNEL32.dll
 0000:fffc5000       .debug$S                   0000000180000000     kernel32:KERNEL32.dll
 0000:fffc5000       .debug$S                   0000000180000000     kernel32:KERNEL32.dll
 0000:fffc5000       .debug$S                   0000000180000000     kernel32:KERNEL32.dll
 0000:fffc5000       .debug$S                   0000000180000000     kernel32:KERNEL32.dll
 0000:fffc5000       .debug$S                   0000000180000000     kernel32:KERNEL32.dll
 0000:fffc5000       .debug$S                   0000000180000000     kernel32:KERNEL32.dll
 0000:fffc5000       .debug$S                   0000000180000000     kernel32:KERNEL32.dll
 0000:fffc5000       .debug$S                   0000000180000000     kernel32:KERNEL32.dll
 0000:fffc5000       .debug$S                   0000000180000000     kernel32:KERNEL32.dll
 0000:fffc5000       .debug$S                   0000000180000000     kernel32:KERNEL32.dll
 0000:fffc5000       .debug$S                   0000000180000000     kernel32:KERNEL32.dll
 0000:fffc5000       .debug$S                   0000000180000000     kernel32:KERNEL32.dll
 0000:fffc5000       .debug$S                   0000000180000000     kernel32:KERNEL32.dll
 0000:fffc5000       .debug$S                   0000000180000000     kernel32:KERNEL32.dll
 0000:fffc5000       .debug$S                   0000000180000000     kernel32:KERNEL32.dll
 0000:fffc5000       .debug$S                   0000000180000000     kernel32:KERNEL32.dll
 0000:fffc5000       .debug$S                   0000000180000000     kernel32:KERNEL32.dll
 0000:fffc5000       .debug$S                   0000000180000000     kernel32:KERNEL32.dll
 0000:fffc5000       .debug$S                   0000000180000000     kernel32:KERNEL32.dll
 0000:fffc5000       .debug$S                   0000000180000000     kernel32:KERNEL32.dll
 0000:fffc5000       .debug$S                   0000000180000000     kernel32:KERNEL32.dll
 0000:fffc5000       .debug$S                   0000000180000000     kernel32:KERNEL32.dll
 0000:fffc5000       .debug$S                   0000000180000000     kernel32:KERNEL32.dll
 0000:fffc5000       .debug$S                   0000000180000000     kernel32:KERNEL32.dll
 0000:fffc5000       .debug$S                   0000000180000000     kernel32:KERNEL32.dll
 0000:fffc5000       .debug$S                   0000000180000000     kernel32:KERNEL32.dll
 0000:fffc5000       .debug$S                   0000000180000000     kernel32:KERNEL32.dll
 0000:fffc5000       .debug$S                   0000000180000000     kernel32:KERNEL32.dll
 0000:fffc5000       .debug$S                   0000000180000000     kernel32:KERNEL32.dll
 0000:fffc5000       .debug$S                   0000000180000000     kernel32:KERNEL32.dll
 0000:fffc5000       .debug$S                   0000000180000000     kernel32:KERNEL32.dll
 0000:fffc5000       .debug$S                   0000000180000000     kernel32:KERNEL32.dll
 0000:fffc5000       .debug$S                   0000000180000000     kernel32:KERNEL32.dll
 0000:fffc5000       .debug$S                   0000000180000000     kernel32:KERNEL32.dll
 0000:fffc5000       .debug$S                   0000000180000000     kernel32:KERNEL32.dll
 0000:fffc5000       .debug$S                   0000000180000000     kernel32:KERNEL32.dll
 0000:fffc5000       .debug$S                   0000000180000000     kernel32:KERNEL32.dll
 0000:fffc5000       .debug$S                   0000000180000000     kernel32:KERNEL32.dll
 0000:fffc5000       .debug$S                   0000000180000000     kernel32:KERNEL32.dll
 0000:fffc5000       .debug$S                   0000000180000000     kernel32:KERNEL32.dll
 0000:fffc5000       .debug$S                   0000000180000000     kernel32:KERNEL32.dll
 0000:fffc5000       .debug$S                   0000000180000000     kernel32:KERNEL32.dll
 0000:fffc5000       .debug$S                   0000000180000000     advapi32:ADVAPI32.dll
 0000:fffc5000       .debug$S                   0000000180000000     user32:USER32.dll
 0000:fffc5000       .debug$S                   0000000180000000     advapi32:ADVAPI32.dll
 0000:fffc5000       .debug$S                   0000000180000000     oleaut32:OLEAUT32.dll
 0000:fffc5000       .debug$S                   0000000180000000     advapi32:ADVAPI32.dll
 0000:fffc5000       .debug$S                   0000000180000000     user32:USER32.dll
 0000:fffc5000       .debug$S                   0000000180000000     user32:USER32.dll
 0000:fffc5000       .debug$S                   0000000180000000     user32:USER32.dll
 0000:fffc5000       .debug$S                   0000000180000000     ole32:ole32.dll
 0000:fffc5000       .debug$S                   0000000180000000     user32:USER32.dll
 0000:fffc5000       .debug$S                   0000000180000000     user32:USER32.dll
 0000:fffc5000       .debug$S                   0000000180000000     user32:USER32.dll
 0000:fffc5000       .debug$S                   0000000180000000     ole32:ole32.dll
 0000:fffc5000       .debug$S                   0000000180000000     oleaut32:OLEAUT32.dll
 0000:fffc5000       .debug$S                   0000000180000000     ole32:ole32.dll
 0000:fffc5000       .debug$S                   0000000180000000     gdi32:GDI32.dll
 0000:fffc5000       .debug$S                   0000000180000000     ole32:ole32.dll
 0000:fffc5000       .debug$S                   0000000180000000     user32:USER32.dll
 0000:fffc5000       .debug$S                   0000000180000000     oleaut32:OLEAUT32.dll
 0000:fffc5000       .debug$S                   0000000180000000     gdi32:GDI32.dll
 0000:fffc5000       .debug$S                   0000000180000000     oleaut32:OLEAUT32.dll
 0000:fffc5000       .debug$S                   0000000180000000     gdi32:GDI32.dll
 0000:fffc5000       .debug$S                   0000000180000000     ole32:ole32.dll
 0000:fffc5000       .debug$S                   0000000180000000     oleaut32:OLEAUT32.dll
 0000:fffc5000       .debug$S                   0000000180000000     ole32:ole32.dll
 0000:fffc5000       .debug$S                   0000000180000000     user32:USER32.dll
 0000:fffc5000       .debug$S                   0000000180000000     ole32:ole32.dll
 0000:fffc5000       .debug$S                   0000000180000000     user32:USER32.dll
 0000:fffc5000       .debug$S                   0000000180000000     user32:USER32.dll
 0000:fffc5000       .debug$S                   0000000180000000     ole32:ole32.dll
 0000:fffc5000       .debug$S                   0000000180000000     gdi32:GDI32.dll
 0000:fffc5000       .debug$S                   0000000180000000     ole32:ole32.dll
 0000:fffc5000       .debug$S                   0000000180000000     user32:USER32.dll
 0000:fffc5000       .debug$S                   0000000180000000     ole32:ole32.dll
 0000:fffc5000       .debug$S                   0000000180000000     gdi32:GDI32.dll
 0000:fffc5000       .debug$S                   0000000180000000     ole32:ole32.dll
 0000:fffc5000       .debug$S                   0000000180000000     gdi32:GDI32.dll
 0000:fffc5000       .debug$S                   0000000180000000     gdi32:GDI32.dll
 0000:fffc5000       .debug$S                   0000000180000000     gdi32:GDI32.dll
 0000:fffc5000       .debug$S                   0000000180000000     ole32:ole32.dll
 0000:fffc5000       .debug$S                   0000000180000000     gdi32:GDI32.dll
 0000:fffc5000       .debug$S                   0000000180000000     ole32:ole32.dll
 0000:fffc5000       .debug$S                   0000000180000000     gdi32:GDI32.dll
 0000:fffc5000       .debug$S                   0000000180000000     gdi32:GDI32.dll
 0000:fffc5000       .debug$S                   0000000180000000     ole32:ole32.dll
 0000:fffc5000       .debug$S                   0000000180000000     gdi32:GDI32.dll
 0000:fffc5000       .debug$S                   0000000180000000     user32:USER32.dll
 0000:fffc5000       .debug$S                   0000000180000000     gdi32:GDI32.dll
 0000:fffc5000       .debug$S                   0000000180000000     oleaut32:OLEAUT32.dll
 0000:fffc5000       .debug$S                   0000000180000000     user32:USER32.dll
 0000:fffc5000       .debug$S                   0000000180000000     oleaut32:OLEAUT32.dll
 0000:fffc5000       .debug$S                   0000000180000000     gdi32:GDI32.dll
 0000:fffc5000       .debug$S                   0000000180000000     gdi32:GDI32.dll
 0000:fffc5000       .debug$S                   0000000180000000     gdi32:GDI32.dll
 0000:fffc5000       .debug$S                   0000000180000000     oleaut32:OLEAUT32.dll
 0000:fffc5000       .debug$S                   0000000180000000     user32:USER32.dll
 0000:fffc5000       .debug$S                   0000000180000000     oleaut32:OLEAUT32.dll
 0000:fffc5000       .debug$S                   0000000180000000     gdi32:GDI32.dll
 0000:fffc5000       .debug$S                   0000000180000000     oleaut32:OLEAUT32.dll
 0000:fffc5000       .debug$S                   0000000180000000     kernel32:KERNEL32.dll
 0000:fffc5000       .debug$S                   0000000180000000     kernel32:KERNEL32.dll
 0000:fffc5000       .debug$S                   0000000180000000     oleaut32:OLEAUT32.dll
 0000:fffc5000       .debug$S                   0000000180000000     user32:USER32.dll
 0000:fffc5000       .debug$S                   0000000180000000     oleaut32:OLEAUT32.dll
 0000:fffc5000       .debug$S                   0000000180000000     kernel32:KERNEL32.dll
 0000:fffc5000       .debug$S                   0000000180000000     oleaut32:OLEAUT32.dll
 0000:fffc5000       .debug$S                   0000000180000000     kernel32:KERNEL32.dll
 0000:fffc5000       .debug$S                   0000000180000000     kernel32:KERNEL32.dll
 0000:fffc5000       .debug$S                   0000000180000000     oleaut32:OLEAUT32.dll
 0000:fffc5000       .debug$S                   0000000180000000     kernel32:KERNEL32.dll
 0000:fffc5000       .debug$S                   0000000180000000     kernel32:KERNEL32.dll
 0000:fffc5000       .debug$S                   0000000180000000     kernel32:KERNEL32.dll
 0000:fffc5000       .debug$S                   0000000180000000     kernel32:KERNEL32.dll
 0000:fffc5000       .debug$S                   0000000180000000     kernel32:KERNEL32.dll
 0000:fffc5000       .debug$S                   0000000180000000     kernel32:KERNEL32.dll
 0000:fffc5000       .debug$S                   0000000180000000     kernel32:KERNEL32.dll
 0000:fffc5000       .debug$S                   0000000180000000     kernel32:KERNEL32.dll
 0000:fffc5000       .debug$S                   0000000180000000     kernel32:KERNEL32.dll
 0000:fffc5000       .debug$S                   0000000180000000     kernel32:KERNEL32.dll
 0000:fffc5000       .debug$S                   0000000180000000     kernel32:KERNEL32.dll
 0000:fffc5000       .debug$S                   0000000180000000     kernel32:KERNEL32.dll
 0000:fffc5000       .debug$S                   0000000180000000     kernel32:KERNEL32.dll
 0000:fffc5000       .debug$S                   0000000180000000     kernel32:KERNEL32.dll
 0000:fffc5000       .debug$S                   0000000180000000     kernel32:KERNEL32.dll
 0000:fffc5000       .debug$S                   0000000180000000     kernel32:KERNEL32.dll
 0000:fffc5000       .debug$S                   0000000180000000     kernel32:KERNEL32.dll
 0000:fffc5000       .debug$S                   0000000180000000     kernel32:KERNEL32.dll
 0000:fffc5000       .debug$S                   0000000180000000     kernel32:KERNEL32.dll
 0000:fffc5000       .debug$S                   0000000180000000     kernel32:KERNEL32.dll
 0000:fffc5000       .debug$S                   0000000180000000     kernel32:KERNEL32.dll
 0000:fffc5000       .debug$S                   0000000180000000     kernel32:KERNEL32.dll
 0000:fffc5000       .debug$S                   0000000180000000     kernel32:KERNEL32.dll
 0000:fffc5000       .debug$S                   0000000180000000     kernel32:KERNEL32.dll
 0000:fffc5000       .debug$S                   0000000180000000     kernel32:KERNEL32.dll
 0000:fffc5000       .debug$S                   0000000180000000     kernel32:KERNEL32.dll
 0000:fffc5000       .debug$S                   0000000180000000     kernel32:KERNEL32.dll
 0000:fffc5000       .debug$S                   0000000180000000     kernel32:KERNEL32.dll
 0000:fffc5000       .debug$S                   0000000180000000     kernel32:KERNEL32.dll
 0000:fffc5000       .debug$S                   0000000180000000     kernel32:KERNEL32.dll
 0000:fffc5000       .debug$S                   0000000180000000     user32:USER32.dll
 0000:fffc5000       .debug$S                   0000000180000000     user32:USER32.dll
 0000:fffc5000       .debug$S                   0000000180000000     user32:USER32.dll
 0000:fffc5000       .debug$S                   0000000180000000     user32:USER32.dll
 0000:fffc5000       .debug$S                   0000000180000000     user32:USER32.dll
 0000:fffc5000       .debug$S                   0000000180000000     user32:USER32.dll
 0000:fffc5000       .debug$S                   0000000180000000     user32:USER32.dll
 0000:fffc5000       .debug$S                   0000000180000000     user32:USER32.dll
 0001:00000000       ??__E_AtlComModule@ATL@@YAXXZ 0000000180001000 f   OposVariant.obj
 0001:00000020       ??__E_AtlWinModule@ATL@@YAXXZ 0000000180001020 f   OposVariant.obj
 0001:00000040       ??__E?pConnMap@?$IConnectionPointContainerImpl@VCOPOSScanner@@@ATL@@0PEBU_ATL_CONNMAP_ENTRY@2@EB@@YAXXZ 0000000180001040 f   Scanner.obj
 0001:00000058       ??__E_Module@@YAXXZ        0000000180001058 f   Scanner.obj
 0001:00000094       ??__E_AtlBaseModule@ATL@@YAXXZ 0000000180001094 f   atls:atlbase.obj
 0001:0000ba4c       memcpy_s                   000000018000ca4c f   Scanner.obj
 0001:0000ba4c       memcpy_s                   000000018000ca4c f   libucrt:cfout.obj
 0001:0000dfbc       ?__scrt_initialize_thread_safe_statics@@YAHXZ 000000018000efbc f   LIBCMT:thread_safe_statics.obj
 0001:0000e08c       ?__scrt_uninitialize_thread_safe_statics@@YAXXZ 000000018000f08c f   LIBCMT:thread_safe_statics.obj
 0001:0000e3dc       capture_current_context    000000018000f3dc f   LIBCMT:gs_report.obj
 0001:0000e44c       capture_previous_context   000000018000f44c f   LIBCMT:gs_report.obj
 0001:0000e5f0       $$000000                   000000018000f5f0     LIBCMT:chkstk.obj
 0001:0000e660       $$000000                   000000018000f660     LIBCMT:amdsecgs.obj
 0001:0000e694       ?dllmain_crt_dispatch@@YAHQEAUHINSTANCE__@@KQEAX@Z 000000018000f694 f   LIBCMT:dll_dllmain.obj
 0001:0000e6e4       ?dllmain_crt_process_attach@@YAHQEAUHINSTANCE__@@QEAX@Z 000000018000f6e4 f   LIBCMT:dll_dllmain.obj
 0001:0000e7fc       ?dllmain_crt_process_detach@@YAH_N@Z 000000018000f7fc f   LIBCMT:dll_dllmain.obj
 0001:0000e880       ?dllmain_dispatch@@YAHQEAUHINSTANCE__@@KQEAX@Z 000000018000f880 f   LIBCMT:dll_dllmain.obj
 0001:0000f118       ??$GetProcAddressAll@P6AXPEAUAtlThunkData_t@@@Z@@YAP6AXPEAUAtlThunkData_t@@@ZPEAP6AX0@Z@Z 0000000180010118 f   atls:atlthunk.obj
 0001:0000f118       ??$GetProcAddressAll@P6AXPEAUAtlThunkData_t@@PEAX_K@Z@@YAP6AXPEAUAtlThunkData_t@@PEAX_K@ZPEAP6AX012@Z@Z 0000000180010118 f   atls:atlthunk.obj
 0001:0000f118       ??$GetProcAddressAll@P6APEAUAtlThunkData_t@@XZ@@YAP6APEAUAtlThunkData_t@@XZPEAP6APEAU0@XZ@Z 0000000180010118 f   atls:atlthunk.obj
 0001:0000f118       ??$GetProcAddressAll@P6AP6A_JPEAUHWND__@@I_K_J@ZPEAUAtlThunkData_t@@@Z@@YAP6AP6A_JPEAUHWND__@@I_K_J@ZPEAUAtlThunkData_t@@@ZPEAP6AP6A_J0I12@Z3@Z@Z 0000000180010118 f   atls:atlthunk.obj
 0001:0000f2f0       ?__InitializeThunkPool@@YAHXZ 00000001800102f0 f   atls:atlthunk.obj
 0001:0000f780       $$000000                   0000000180010780     libvcruntime:memcmp.obj
 0001:0000f860       $$000000                   0000000180010860     libvcruntime:memcpy.obj
 0001:0000fc70       $$000000                   0000000180010c70     libvcruntime:memset.obj
 0001:00010a80       $$000000                   0000000180011a80     libvcruntime:notify.obj
 0001:00010d20       ??$BuildCatchObjectHelperInternal@V__FrameHandler3@@@@YAHPEAUEHExceptionRecord@@PEAXPEBU_s_HandlerType@@PEBU_s_CatchableType@@@Z 0000000180011d20 f   libvcruntime:frame.obj
 0001:00010f20       ??$BuildCatchObjectInternal@V__FrameHandler3@@@@YAXPEAUEHExceptionRecord@@PEAXPEBU_s_HandlerType@@PEBU_s_CatchableType@@@Z 0000000180011f20 f   libvcruntime:frame.obj
 0001:00010fe0       ??$CatchIt@V__FrameHandler3@@@@YAXPEAUEHExceptionRecord@@PEA_KPEAU_CONTEXT@@PEAU_xDISPATCHER_CONTEXT@@PEBU_s_FuncInfo@@PEBU_s_HandlerType@@PEBU_s_CatchableType@@PEBU_s_TryBlockMapEntry@@H1EE@Z 0000000180011fe0 f   libvcruntime:frame.obj
 0001:000110b4       ??$FindHandler@V__FrameHandler3@@@@YAXPEAUEHExceptionRecord@@PEA_KPEAU_CONTEXT@@PEAU_xDISPATCHER_CONTEXT@@PEBU_s_FuncInfo@@EH1@Z 00000001800120b4 f   libvcruntime:frame.obj
 0001:00011590       ??$FindHandlerForForeignException@V__FrameHandler3@@@@YAXPEAUEHExceptionRecord@@PEA_KPEAU_CONTEXT@@PEAU_xDISPATCHER_CONTEXT@@PEBU_s_FuncInfo@@HH1@Z 0000000180012590 f   libvcruntime:frame.obj
 0001:00011d78       ?ExFilterRethrow@@YAHPEAU_EXCEPTION_POINTERS@@PEAUEHExceptionRecord@@PEAH@Z 0000000180012d78 f   libvcruntime:frame.obj
 0001:00012024       ?IsInExceptionSpec@@YAEPEAUEHExceptionRecord@@PEBU_s_ESTypeList@@@Z 0000000180013024 f   libvcruntime:frame.obj
 0001:00012114       ?Is_bad_exception_allowed@@YAEPEBU_s_ESTypeList@@@Z 0000000180013114 f   libvcruntime:frame.obj
 0001:000121b8       ?try_get_function@@YAPEAXW4function_id@?A0x656504f9@@QEBDQEBW4module_id@2@2@Z 00000001800131b8 f   libvcruntime:winapi_downlevel.obj
 0001:000124b0       $$000000                   00000001800134b0     libvcruntime:handlers.obj
 0001:00012cc8       ??$common_vsprintf@Vformat_validation_base@__crt_stdio_output@@_W@@YAH_KQEA_W0QEB_WQEAU__crt_locale_pointers@@QEAD@Z 0000000180013cc8 f   libucrt:output.obj
 0001:000144f8       ??$?RV<lambda_d80eeec6fff315bfe5c115232f3240e3>@@AEAV<lambda_6e4b09c48022b2350581041d5f6b0c4c>@@V<lambda_2358e3775559c9db80273638284d5e45>@@@?$__crt_seh_guarded_call@X@@QEAAX$$QEAV<lambda_d80eeec6fff315bfe5c115232f3240e3>@@AEAV<lambda_6e4b09c48022b2350581041d5f6b0c4c>@@$$QEAV<lambda_2358e3775559c9db80273638284d5e45>@@@Z 00000001800154f8 f   libucrt:exit.obj
 0001:00014530       ??R<lambda_6e4b09c48022b2350581041d5f6b0c4c>@@QEBA@XZ 0000000180015530 f   libucrt:exit.obj
 0001:000145f4       ?atexit_exception_filter@@YAHK@Z 00000001800155f4 f   libucrt:exit.obj
 0001:00014600       ?common_exit@@YAXHW4_crt_exit_cleanup_mode@@W4_crt_exit_return_mode@@@Z 0000000180015600 f   libucrt:exit.obj
 0001:000146bc       ?exit_or_terminate_process@@YAXI@Z 00000001800156bc f   libucrt:exit.obj
 0001:00014708       ?try_cor_exit_process@@YAXI@Z 0000000180015708 f   libucrt:exit.obj
 0001:00014790       ??$parse_command_line@D@@YAXPEADPEAPEAD0PEA_K2@Z 0000000180015790 f   libucrt:argv_parsing.obj
 0001:00014b3c       ??$common_initialize_environment_nolock@D@@YAHXZ 0000000180015b3c f   libucrt:environment_initialization.obj
 0001:00014ba8       ??$create_environment@D@@YAQEAPEADQEAD@Z 0000000180015ba8 f   libucrt:environment_initialization.obj
 0001:00014cb0       ??$free_environment@_W@@YAXQEAPEA_W@Z 0000000180015cb0 f   libucrt:environment_initialization.obj
 0001:00014cb0       ??$free_environment@D@@YAXQEAPEAD@Z 0000000180015cb0 f   libucrt:environment_initialization.obj
 0001:00014cf4       ??$uninitialize_environment_internal@D@@YAXAEAPEAPEAD@Z 0000000180015cf4 f   libucrt:environment_initialization.obj
 0001:00014d10       ??$uninitialize_environment_internal@_W@@YAXAEAPEAPEA_W@Z 0000000180015d10 f   libucrt:environment_initialization.obj
 0001:00014d6c       ??$?RV<lambda_638799b9deba96c50f710eeac98168cd>@@AEAV<lambda_22ebabd17bc4fa466a2aca6d8deb888d>@@V<lambda_a6f7d7db0129f75315ebf26d50c089f1>@@@?$__crt_seh_guarded_call@H@@QEAAH$$QEAV<lambda_638799b9deba96c50f710eeac98168cd>@@AEAV<lambda_22ebabd17bc4fa466a2aca6d8deb888d>@@$$QEAV<lambda_a6f7d7db0129f75315ebf26d50c089f1>@@@Z 0000000180015d6c f   libucrt:onexit.obj
 0001:00014da8       ??$?RV<lambda_7777bce6b2f8c936911f934f8298dc43>@@AEAV<lambda_f03950bc5685219e0bcd2087efbe011e>@@V<lambda_3883c3dff614d5e0c5f61bb1ac94921c>@@@?$__crt_seh_guarded_call@H@@QEAAH$$QEAV<lambda_7777bce6b2f8c936911f934f8298dc43>@@AEAV<lambda_f03950bc5685219e0bcd2087efbe011e>@@$$QEAV<lambda_3883c3dff614d5e0c5f61bb1ac94921c>@@@Z 0000000180015da8 f   libucrt:onexit.obj
 0001:00014de4       ??R<lambda_22ebabd17bc4fa466a2aca6d8deb888d>@@QEBAHXZ 0000000180015de4 f   libucrt:onexit.obj
 0001:00014f94       ??R<lambda_f03950bc5685219e0bcd2087efbe011e>@@QEBAHXZ 0000000180015f94 f   libucrt:onexit.obj
 0001:00015168       initialize_global_variables 0000000180016168 f   libucrt:initialization.obj
 0001:0001517c       initialize_c               000000018001617c f   libucrt:initialization.obj
 0001:000151a0       report_memory_leaks        00000001800161a0 f   libucrt:initialization.obj
 0001:000151a0       uninitialize_c             00000001800161a0 f   libucrt:initialization.obj
 0001:000151a0       uninitialize_global_state_isolation 00000001800161a0 f   libucrt:initialization.obj
 0001:000151a0       initialize_global_state_isolation 00000001800161a0 f   libucrt:initialization.obj
 0001:000151a0       initialize_environment     00000001800161a0 f   libucrt:initialization.obj
 0001:000151a4       uninitialize_environment   00000001800161a4 f   libucrt:initialization.obj
 0001:000151b4       initialize_pointers        00000001800161b4 f   libucrt:initialization.obj
 0001:000151f4       uninitialize_vcruntime     00000001800161f4 f   libucrt:initialization.obj
 0001:000151fc       uninitialize_allocated_memory 00000001800161fc f   libucrt:initialization.obj
 0001:0001523c       uninitialize_allocated_io_buffers 000000018001623c f   libucrt:initialization.obj
 0001:00015bb0       $$000000                   0000000180016bb0     libucrt:strncmp.obj
 0001:00015cac       ??$?RV<lambda_0ae27a3a962d80f24befdcbee591983d>@@AEAV<lambda_8d0ee55de4b1038c4002e0adecdf1839>@@V<lambda_dc504788e8f1664fe9b84e20bfb512f2>@@@?$__crt_seh_guarded_call@X@@QEAAX$$QEAV<lambda_0ae27a3a962d80f24befdcbee591983d>@@AEAV<lambda_8d0ee55de4b1038c4002e0adecdf1839>@@$$QEAV<lambda_dc504788e8f1664fe9b84e20bfb512f2>@@@Z 0000000180016cac f   libucrt:per_thread_data.obj
 0001:00015cec       ??$?RV<lambda_2d41944a1d46af3157314b8a01080d33>@@AEAV<lambda_8f455de75cd7d7f24b4096f044d8b9e6>@@V<lambda_aa500f224e6afead328df44964fe2772>@@@?$__crt_seh_guarded_call@X@@QEAAX$$QEAV<lambda_2d41944a1d46af3157314b8a01080d33>@@AEAV<lambda_8f455de75cd7d7f24b4096f044d8b9e6>@@$$QEAV<lambda_aa500f224e6afead328df44964fe2772>@@@Z 0000000180016cec f   libucrt:per_thread_data.obj
 0001:00015d2c       ??$?RV<lambda_aa87e3671a710a21b5dc78c0bdf72e11>@@AEAV<lambda_92619d2358a28f41a33ba319515a20b9>@@V<lambda_6992ecaafeb10aed2b74cb1fae11a551>@@@?$__crt_seh_guarded_call@X@@QEAAX$$QEAV<lambda_aa87e3671a710a21b5dc78c0bdf72e11>@@AEAV<lambda_92619d2358a28f41a33ba319515a20b9>@@$$QEAV<lambda_6992ecaafeb10aed2b74cb1fae11a551>@@@Z 0000000180016d2c f   libucrt:per_thread_data.obj
 0001:00015d74       ??$?RV<lambda_f2e299630e499de9f9a165e60fcd3db5>@@AEAV<lambda_2ae9d31cdba2644fcbeaf08da7c24588>@@V<lambda_40d01ff24d0e7b3814fdbdcee8eab3c7>@@@?$__crt_seh_guarded_call@X@@QEAAX$$QEAV<lambda_f2e299630e499de9f9a165e60fcd3db5>@@AEAV<lambda_2ae9d31cdba2644fcbeaf08da7c24588>@@$$QEAV<lambda_40d01ff24d0e7b3814fdbdcee8eab3c7>@@@Z 0000000180016d74 f   libucrt:per_thread_data.obj
 0001:00015dd4       ?construct_ptd_array@@YAXQEAU__acrt_ptd@@@Z 0000000180016dd4 f   libucrt:per_thread_data.obj
 0001:00015ea4       ?destroy_fls@@YAXPEAX@Z    0000000180016ea4 f   libucrt:per_thread_data.obj
 0001:00015ec4       ?destroy_ptd_array@@YAXQEAU__acrt_ptd@@@Z 0000000180016ec4 f   libucrt:per_thread_data.obj
 0001:00015fbc       ?replace_current_thread_locale_nolock@@YAXQEAU__acrt_ptd@@QEAU__crt_locale_data@@@Z 0000000180016fbc f   libucrt:per_thread_data.obj
 0001:000164a0       ?try_get_function@@YAPEAXW4function_id@?A0x391cf84c@@QEBDQEBW4module_id@2@2@Z 00000001800174a0 f   libucrt:winapi_thunks.obj
 0001:00016e70       ?fp_format_a@@YAHQEBNPEAD_KQEAD2H_NIQEAU__crt_locale_pointers@@@Z 0000000180017e70 f   libucrt:cvt.obj
 0001:000171e0       ?fp_format_e@@YAHQEBNQEAD_K12H_NIQEAU__crt_locale_pointers@@@Z 00000001800181e0 f   libucrt:cvt.obj
 0001:000172bc       ?fp_format_e_internal@@YAHQEAD_KH_NIQEAU_strflt@@2QEAU__crt_locale_pointers@@@Z 00000001800182bc f   libucrt:cvt.obj
 0001:00017490       ?fp_format_f_internal@@YAHQEAD_KHQEAU_strflt@@_NQEAU__crt_locale_pointers@@@Z 0000000180018490 f   libucrt:cvt.obj
 0001:000175d4       ?fp_format_g@@YAHQEBNQEAD_K12H_NIQEAU__crt_locale_pointers@@@Z 00000001800185d4 f   libucrt:cvt.obj
 0001:00017be0       ??$?RV<lambda_410d79af7f07d98d83a3f525b3859a53>@@AEAV<lambda_3e16ef9562a7dcce91392c22ab16ea36>@@V<lambda_38119f0e861e05405d8a144b9b982f0a>@@@?$__crt_seh_guarded_call@X@@QEAAX$$QEAV<lambda_410d79af7f07d98d83a3f525b3859a53>@@AEAV<lambda_3e16ef9562a7dcce91392c22ab16ea36>@@$$QEAV<lambda_38119f0e861e05405d8a144b9b982f0a>@@@Z 0000000180018be0 f   libucrt:wsetlocale.obj
 0001:00017c8c       ?initialize_inherited_file_handles_nolock@@YAXXZ 0000000180018c8c f   libucrt:ioinit.obj
 0001:00017d7c       ?initialize_stdio_handles_nolock@@YAXXZ 0000000180018d7c f   libucrt:ioinit.obj
 0001:00017ff8       ?<lambda_invoker_cdecl>@<lambda_a1ce4c8ae42411fd470c77163914f50e>@@CAHPEBX0@Z 0000000180018ff8 f   libucrt:argv_wildcards.obj
 0001:00018310       ??$common_expand_argv_wildcards@D@@YAHQEAPEADQEAPEAPEAD@Z 0000000180019310 f   libucrt:argv_wildcards.obj
 0001:0001851c       ??$copy_and_add_argument_to_buffer@D@@YAHQEBD0_KAEAV?$argument_list@D@?A0x5f5c8891@@@Z 000000018001951c f   libucrt:argv_wildcards.obj
 0001:000186a4       ??$expand_argument_wildcards@D@@YAHQEAD0AEAV?$argument_list@D@?A0x5f5c8891@@@Z 00000001800196a4 f   libucrt:argv_wildcards.obj
 0001:00018bf0       ??$?RV<lambda_efdfa57d1f175319df784efa44bb7b81>@@AEAV<lambda_5f0a4c1567f8adc6734073e5d1e1b35c>@@V<lambda_2e8a7d3640ea6ccb4c2413664c2db6fd>@@@?$__crt_seh_guarded_call@X@@QEAAX$$QEAV<lambda_efdfa57d1f175319df784efa44bb7b81>@@AEAV<lambda_5f0a4c1567f8adc6734073e5d1e1b35c>@@$$QEAV<lambda_2e8a7d3640ea6ccb4c2413664c2db6fd>@@@Z 0000000180019bf0 f   libucrt:mbctype.obj
 0001:00018dac       ?getSystemCP@@YAHH@Z       0000000180019dac f   libucrt:mbctype.obj
 0001:00018e2c       ?setSBCS@@YAXPEAU__crt_multibyte_data@@@Z 0000000180019e2c f   libucrt:mbctype.obj
 0001:00018ebc       ?setSBUpLow@@YAXPEAU__crt_multibyte_data@@@Z 0000000180019ebc f   libucrt:mbctype.obj
 0001:000190a0       ?setmbcp_internal@@YAHH_NQEAU__acrt_ptd@@QEAPEAU__crt_multibyte_data@@@Z 000000018001a0a0 f   libucrt:mbctype.obj
 0001:00019264       ?update_thread_multibyte_data_internal@@YAPEAU__crt_multibyte_data@@QEAU__acrt_ptd@@QEAPEAU1@@Z 000000018001a264 f   libucrt:mbctype.obj
 0001:00019654       ?x_ismbbtype_l@@YAHPEAU__crt_locale_pointers@@IHH@Z 000000018001a654 f   libucrt:ismbbyte.obj
 0001:000199e4       ??$?RV<lambda_450d765d439847d4c735a33c368b5fc0>@@AEAV<lambda_44731a7d0e6d81c3e6aa82d741081786>@@V<lambda_601a2a7da3b7a96e9554ac7215c4b07c>@@@?$__crt_seh_guarded_call@P6AXH@Z@@QEAAP6AXH@Z$$QEAV<lambda_450d765d439847d4c735a33c368b5fc0>@@AEAV<lambda_44731a7d0e6d81c3e6aa82d741081786>@@$$QEAV<lambda_601a2a7da3b7a96e9554ac7215c4b07c>@@@Z 000000018001a9e4 f   libucrt:signal.obj
 0001:00019d40       ??$?RV<lambda_842d9ff0dc9ef11c61343bbaebe7f885>@@AEAV<lambda_c5860995281e5c4ce005b3de8f5874ee>@@V<lambda_d90129c13df834fdcbf8d2b88dafcf2d>@@@?$__crt_seh_guarded_call@X@@QEAAX$$QEAV<lambda_842d9ff0dc9ef11c61343bbaebe7f885>@@AEAV<lambda_c5860995281e5c4ce005b3de8f5874ee>@@$$QEAV<lambda_d90129c13df834fdcbf8d2b88dafcf2d>@@@Z 000000018001ad40 f   libucrt:fflush.obj
 0001:00019ddc       ??$?RV<lambda_886d6c58226a84441f68b9f2b8217b83>@@AEAV<lambda_ab61a845afdef5b7c387490eaf3616ee>@@V<lambda_f7f22ab5edc0698d5f6905b0d3f44752>@@@?$__crt_seh_guarded_call@X@@QEAAX$$QEAV<lambda_886d6c58226a84441f68b9f2b8217b83>@@AEAV<lambda_ab61a845afdef5b7c387490eaf3616ee>@@$$QEAV<lambda_f7f22ab5edc0698d5f6905b0d3f44752>@@@Z 000000018001addc f   libucrt:fflush.obj
 0001:00019ebc       ?common_flush_all@@YAH_N@Z 000000018001aebc f   libucrt:fflush.obj
 0001:0001c15c       ?free_crt_array_internal@@YAXQEAPEBX_K@Z 000000018001d15c f   libucrt:inittime.obj
 0001:0001cbf4       fallbackMethod             000000018001dbf4 f   libucrt:strpbrk.obj
 0001:0001cfc4       $LN78                      000000018001dfc4     libucrt:strpbrk.obj
 0001:0001d000       $LN77                      000000018001e000     libucrt:strpbrk.obj
 0001:0001d040       $LN76                      000000018001e040     libucrt:strpbrk.obj
 0001:0001d11c       ?__acrt_LCMapStringA_stat@@YAHPEAU__crt_locale_pointers@@PEB_WKPEBDHPEADHHH@Z 000000018001e11c f   libucrt:lcmapstringa.obj
 0001:0001d4cc       ?initialize_multibyte@@YAHXZ 000000018001e4cc f   libucrt:multibyte_initializer.obj
 0001:0001d4e4       ??$?RV<lambda_a37b2b86f63e897a80ea819b0eb08c01>@@AEAV<lambda_38ce7e780aa69e748d6df282ebc68efe>@@V<lambda_99fb1378e971ab6e7edea83e3a7a83a2>@@@?$__crt_seh_guarded_call@H@@QEAAH$$QEAV<lambda_a37b2b86f63e897a80ea819b0eb08c01>@@AEAV<lambda_38ce7e780aa69e748d6df282ebc68efe>@@$$QEAV<lambda_99fb1378e971ab6e7edea83e3a7a83a2>@@@Z 000000018001e4e4 f   libucrt:commit.obj
 0001:0001d604       ?write_double_translated_ansi_nolock@@YA?AUwrite_result@?A0x17268360@@HQEBDI@Z 000000018001e604 f   libucrt:write.obj
 0001:0001dad4       ?write_text_ansi_nolock@@YA?AUwrite_result@?A0x17268360@@HQEBDI@Z 000000018001ead4 f   libucrt:write.obj
 0001:0001dbd8       ?write_text_utf16le_nolock@@YA?AUwrite_result@?A0x17268360@@HQEBDI@Z 000000018001ebd8 f   libucrt:write.obj
 0001:0001dcf4       ?write_text_utf8_nolock@@YA?AUwrite_result@?A0x17268360@@HQEBDI@Z 000000018001ecf4 f   libucrt:write.obj
 0001:0001e5e0       $$000000                   000000018001f5e0     libucrt:log10.obj
 0001:0001eb8c       ??$common_lseek_nolock@_J@@YA_JH_JH@Z 000000018001fb8c f   libucrt:lseek.obj
 0001:0001f0f8       _call_matherr              00000001800200f8 f   libucrt:libm_error.obj
 0001:0001f160       _exception_enabled         0000000180020160 f   libucrt:libm_error.obj
 0001:0001f3f0       _log_special_common        00000001800203f0 f   libucrt:log_special.obj
 0001:0001f488       ??$?RV<lambda_751a882b2c74d4b022dec766aa51a29a>@@AEAV<lambda_628dfdc04ba53c8bfc02c9951375f3f5>@@V<lambda_f6c7be5f7998530c34de24c7437d6b54>@@@?$__crt_seh_guarded_call@H@@QEAAH$$QEAV<lambda_751a882b2c74d4b022dec766aa51a29a>@@AEAV<lambda_628dfdc04ba53c8bfc02c9951375f3f5>@@$$QEAV<lambda_f6c7be5f7998530c34de24c7437d6b54>@@@Z 0000000180020488 f   libucrt:close.obj
 0001:0001f7b0       $$000000                   00000001800207b0     libucrt:fpsr.obj
 0001:0001fe50       $$000000                   0000000180020e50     LIBCMT:guard_dispatch.obj
 0001:0001fe70       ?filt$0@?0??_AtlVerifyStackAvailable@_ATL_SAFE_ALLOCA_IMPL@ATL@@YA_N_K@Z@4HA 0000000180020e70 f   Scanner.obj
 0001:0001fe91       __scrt_is_nonwritable_in_current_image$filt$0 0000000180020e91 f   LIBCMT:utility.obj
 0001:0001fea9       ?catch$0@?0???2@YAPEAX_KAEBUnothrow_t@std@@@Z@4HA 0000000180020ea9 f   LIBCMT:new_scalar_nothrow.obj
 0001:0001feb6       __catch$??2@YAPEAX_KAEBUnothrow_t@std@@@Z$0 0000000180020eb6 f   LIBCMT:new_scalar_nothrow.obj
 0001:0001fec4       ?fin$0@?0??dllmain_crt_process_attach@@YAHQEAUHINSTANCE__@@QEAX@Z@4HA 0000000180020ec4 f   LIBCMT:dll_dllmain.obj
 0001:0001fedb       ?fin$0@?0??dllmain_crt_process_detach@@YAH_N@Z@4HA 0000000180020edb f   LIBCMT:dll_dllmain.obj
 0001:0001fef7       ?filt$0@?0??dllmain_dispatch@@YAHQEAUHINSTANCE__@@KQEAX@Z@4HA 0000000180020ef7 f   LIBCMT:dll_dllmain.obj
 0001:0001ff2d       ?filt$0@?0???$_CallSETranslator@V__FrameHandler3@@@@YAHPEAUEHExceptionRecord@@PEA_KPEAU_CONTEXT@@PEAU_xDISPATCHER_CONTEXT@@PEBU_s_FuncInfo@@K1@Z@4HA 0000000180020f2d f   libvcruntime:risctrnsctrl.obj
 0001:0001ffbe       __DestructExceptionObject$filt$0 0000000180020fbe f   libvcruntime:ehhelpers.obj
 0001:0001ffd6       ?filt$0@?0??CxxCallCatchBlock@__FrameHandler3@@SAPEAXPEAU_EXCEPTION_RECORD@@@Z@4HA 0000000180020fd6 f   libvcruntime:frame.obj
 0001:0001fffb       ?fin$1@?0??CxxCallCatchBlock@__FrameHandler3@@SAPEAXPEAU_EXCEPTION_RECORD@@@Z@4HA 0000000180020ffb f   libvcruntime:frame.obj
 0001:00020073       ?filt$0@?0??FrameUnwindToState@__FrameHandler3@@SAXPEA_KPEAU_xDISPATCHER_CONTEXT@@PEBU_s_FuncInfo@@H@Z@4HA 0000000180021073 f   libvcruntime:frame.obj
 0001:00020089       ?fin$1@?0??FrameUnwindToState@__FrameHandler3@@SAXPEA_KPEAU_xDISPATCHER_CONTEXT@@PEBU_s_FuncInfo@@H@Z@4HA 0000000180021089 f   libvcruntime:frame.obj
 0001:000200ac       ?fin$0@?0???$?RV<lambda_7777bce6b2f8c936911f934f8298dc43>@@AEAV<lambda_f03950bc5685219e0bcd2087efbe011e>@@V<lambda_3883c3dff614d5e0c5f61bb1ac94921c>@@@?$__crt_seh_guarded_call@H@@QEAAH$$QEAV<lambda_7777bce6b2f8c936911f934f8298dc43>@@AEAV<lambda_f03950bc5685219e0bcd2087efbe011e>@@$$QEAV<lambda_3883c3dff614d5e0c5f61bb1ac94921c>@@@Z@4HA 00000001800210ac f   libucrt:onexit.obj
 0001:000200ac       ?fin$0@?0???$?RV<lambda_638799b9deba96c50f710eeac98168cd>@@AEAV<lambda_22ebabd17bc4fa466a2aca6d8deb888d>@@V<lambda_a6f7d7db0129f75315ebf26d50c089f1>@@@?$__crt_seh_guarded_call@H@@QEAAH$$QEAV<lambda_638799b9deba96c50f710eeac98168cd>@@AEAV<lambda_22ebabd17bc4fa466a2aca6d8deb888d>@@$$QEAV<lambda_a6f7d7db0129f75315ebf26d50c089f1>@@@Z@4HA 00000001800210ac f   libucrt:onexit.obj
 0001:000200ac       ?fin$0@?0???$?RV<lambda_2d41944a1d46af3157314b8a01080d33>@@AEAV<lambda_8f455de75cd7d7f24b4096f044d8b9e6>@@V<lambda_aa500f224e6afead328df44964fe2772>@@@?$__crt_seh_guarded_call@X@@QEAAX$$QEAV<lambda_2d41944a1d46af3157314b8a01080d33>@@AEAV<lambda_8f455de75cd7d7f24b4096f044d8b9e6>@@$$QEAV<lambda_aa500f224e6afead328df44964fe2772>@@@Z@4HA 00000001800210ac f   libucrt:per_thread_data.obj
 0001:000200ac       ?fin$0@?0???$?RV<lambda_450d765d439847d4c735a33c368b5fc0>@@AEAV<lambda_44731a7d0e6d81c3e6aa82d741081786>@@V<lambda_601a2a7da3b7a96e9554ac7215c4b07c>@@@?$__crt_seh_guarded_call@P6AXH@Z@@QEAAP6AXH@Z$$QEAV<lambda_450d765d439847d4c735a33c368b5fc0>@@AEAV<lambda_44731a7d0e6d81c3e6aa82d741081786>@@$$QEAV<lambda_601a2a7da3b7a96e9554ac7215c4b07c>@@@Z@4HA 00000001800210ac f   libucrt:signal.obj
 0001:000200ac       ?fin$0@?0???$?RV<lambda_d80eeec6fff315bfe5c115232f3240e3>@@AEAV<lambda_6e4b09c48022b2350581041d5f6b0c4c>@@V<lambda_2358e3775559c9db80273638284d5e45>@@@?$__crt_seh_guarded_call@X@@QEAAX$$QEAV<lambda_d80eeec6fff315bfe5c115232f3240e3>@@AEAV<lambda_6e4b09c48022b2350581041d5f6b0c4c>@@$$QEAV<lambda_2358e3775559c9db80273638284d5e45>@@@Z@4HA 00000001800210ac f   libucrt:exit.obj
 0001:000200ac       ?fin$0@?0???$?RV<lambda_efdfa57d1f175319df784efa44bb7b81>@@AEAV<lambda_5f0a4c1567f8adc6734073e5d1e1b35c>@@V<lambda_2e8a7d3640ea6ccb4c2413664c2db6fd>@@@?$__crt_seh_guarded_call@X@@QEAAX$$QEAV<lambda_efdfa57d1f175319df784efa44bb7b81>@@AEAV<lambda_5f0a4c1567f8adc6734073e5d1e1b35c>@@$$QEAV<lambda_2e8a7d3640ea6ccb4c2413664c2db6fd>@@@Z@4HA 00000001800210ac f   libucrt:mbctype.obj
 0001:000200ac       ?fin$0@?0???$?RV<lambda_f2e299630e499de9f9a165e60fcd3db5>@@AEAV<lambda_2ae9d31cdba2644fcbeaf08da7c24588>@@V<lambda_40d01ff24d0e7b3814fdbdcee8eab3c7>@@@?$__crt_seh_guarded_call@X@@QEAAX$$QEAV<lambda_f2e299630e499de9f9a165e60fcd3db5>@@AEAV<lambda_2ae9d31cdba2644fcbeaf08da7c24588>@@$$QEAV<lambda_40d01ff24d0e7b3814fdbdcee8eab3c7>@@@Z@4HA 00000001800210ac f   libucrt:per_thread_data.obj
 0001:000200ac       ?fin$0@?0???$?RV<lambda_aa87e3671a710a21b5dc78c0bdf72e11>@@AEAV<lambda_92619d2358a28f41a33ba319515a20b9>@@V<lambda_6992ecaafeb10aed2b74cb1fae11a551>@@@?$__crt_seh_guarded_call@X@@QEAAX$$QEAV<lambda_aa87e3671a710a21b5dc78c0bdf72e11>@@AEAV<lambda_92619d2358a28f41a33ba319515a20b9>@@$$QEAV<lambda_6992ecaafeb10aed2b74cb1fae11a551>@@@Z@4HA 00000001800210ac f   libucrt:per_thread_data.obj
 0001:000200ac       ?fin$0@?0???$?RV<lambda_0ae27a3a962d80f24befdcbee591983d>@@AEAV<lambda_8d0ee55de4b1038c4002e0adecdf1839>@@V<lambda_dc504788e8f1664fe9b84e20bfb512f2>@@@?$__crt_seh_guarded_call@X@@QEAAX$$QEAV<lambda_0ae27a3a962d80f24befdcbee591983d>@@AEAV<lambda_8d0ee55de4b1038c4002e0adecdf1839>@@$$QEAV<lambda_dc504788e8f1664fe9b84e20bfb512f2>@@@Z@4HA 00000001800210ac f   libucrt:per_thread_data.obj
 0001:000200c6       ?filt$0@?0???R<lambda_6e4b09c48022b2350581041d5f6b0c4c>@@QEBA@XZ@4HA 00000001800210c6 f   libucrt:exit.obj
 0001:000200e1       _query_new_handler$fin$0   00000001800210e1 f   libucrt:new_handler.obj
 0001:000200f7       ?fin$0@?0???$?RV<lambda_410d79af7f07d98d83a3f525b3859a53>@@AEAV<lambda_3e16ef9562a7dcce91392c22ab16ea36>@@V<lambda_38119f0e861e05405d8a144b9b982f0a>@@@?$__crt_seh_guarded_call@X@@QEAAX$$QEAV<lambda_410d79af7f07d98d83a3f525b3859a53>@@AEAV<lambda_3e16ef9562a7dcce91392c22ab16ea36>@@$$QEAV<lambda_38119f0e861e05405d8a144b9b982f0a>@@@Z@4HA 00000001800210f7 f   libucrt:wsetlocale.obj
 0001:00020111       __acrt_initialize_lowio$fin$0 0000000180021111 f   libucrt:ioinit.obj
 0001:00020111       __acrt_lowio_ensure_fh_exists$fin$0 0000000180021111 f   libucrt:osfinfo.obj
 0001:0002012a       ?fin$0@?0??update_thread_multibyte_data_internal@@YAPEAU__crt_multibyte_data@@QEAU__acrt_ptd@@QEAPEAU1@@Z@4HA 000000018002112a f   libucrt:mbctype.obj
 0001:00020143       raise$fin$0                0000000180021143 f   libucrt:signal.obj
 0001:00020164       ?fin$0@?0???$?RV<lambda_842d9ff0dc9ef11c61343bbaebe7f885>@@AEAV<lambda_c5860995281e5c4ce005b3de8f5874ee>@@V<lambda_d90129c13df834fdcbf8d2b88dafcf2d>@@@?$__crt_seh_guarded_call@X@@QEAAX$$QEAV<lambda_842d9ff0dc9ef11c61343bbaebe7f885>@@AEAV<lambda_c5860995281e5c4ce005b3de8f5874ee>@@$$QEAV<lambda_d90129c13df834fdcbf8d2b88dafcf2d>@@@Z@4HA 0000000180021164 f   libucrt:fflush.obj
 0001:0002017f       ?fin$0@?0???$?RV<lambda_886d6c58226a84441f68b9f2b8217b83>@@AEAV<lambda_ab61a845afdef5b7c387490eaf3616ee>@@V<lambda_f7f22ab5edc0698d5f6905b0d3f44752>@@@?$__crt_seh_guarded_call@X@@QEAAX$$QEAV<lambda_886d6c58226a84441f68b9f2b8217b83>@@AEAV<lambda_ab61a845afdef5b7c387490eaf3616ee>@@$$QEAV<lambda_f7f22ab5edc0698d5f6905b0d3f44752>@@@Z@4HA 000000018002117f f   libucrt:fflush.obj
 0001:0002019c       __acrt_update_thread_locale_data$fin$0 000000018002119c f   libucrt:locale_refcounting.obj
 0001:000201b5       _fcloseall$fin$0           00000001800211b5 f   libucrt:closeall.obj
 0001:000201ce       ?fin$0@?0???$?RV<lambda_751a882b2c74d4b022dec766aa51a29a>@@AEAV<lambda_628dfdc04ba53c8bfc02c9951375f3f5>@@V<lambda_f6c7be5f7998530c34de24c7437d6b54>@@@?$__crt_seh_guarded_call@H@@QEAAH$$QEAV<lambda_751a882b2c74d4b022dec766aa51a29a>@@AEAV<lambda_628dfdc04ba53c8bfc02c9951375f3f5>@@$$QEAV<lambda_f6c7be5f7998530c34de24c7437d6b54>@@@Z@4HA 00000001800211ce f   libucrt:close.obj
 0001:000201ce       ?fin$0@?0???$?RV<lambda_a37b2b86f63e897a80ea819b0eb08c01>@@AEAV<lambda_38ce7e780aa69e748d6df282ebc68efe>@@V<lambda_99fb1378e971ab6e7edea83e3a7a83a2>@@@?$__crt_seh_guarded_call@H@@QEAAH$$QEAV<lambda_a37b2b86f63e897a80ea819b0eb08c01>@@AEAV<lambda_38ce7e780aa69e748d6df282ebc68efe>@@$$QEAV<lambda_99fb1378e971ab6e7edea83e3a7a83a2>@@@Z@4HA 00000001800211ce f   libucrt:commit.obj
 0001:000201e8       _write$fin$0               00000001800211e8 f   libucrt:write.obj
 0001:000201ff       fclose$fin$0               00000001800211ff f   libucrt:fclose.obj
 0001:00020217       _ctrlfp$filt$0             0000000180021217 f   libucrt:fpctrl.obj
 0001:00020250       _IsNonwritableInCurrentImage$filt$0 0000000180021250 f   LIBCMT:pesect.obj
 0001:00020270       ??__F_AtlComModule@ATL@@YAXXZ 0000000180021270 f   OposVariant.obj
 0001:0002027c       ??__F_AtlWinModule@ATL@@YAXXZ 000000018002127c f   OposVariant.obj
 0001:000202c0       ??__F_Module@@YAXXZ        00000001800212c0 f   Scanner.obj
 0001:00020324       ??__F_AtlBaseModule@ATL@@YAXXZ 0000000180021324 f   atls:atlbase.obj
 0002:00000630       ?_AtlBaseModule$initializer$@ATL@@3P6AXXZEA 0000000180022630     atls:atlbase.obj
 0002:00000638       ?_AtlComModule$initializer$@ATL@@3P6AXXZEA 0000000180022638     OposVariant.obj
 0002:00000640       ?_AtlWinModule$initializer$@ATL@@3P6AXXZEA 0000000180022640     OposVariant.obj
 0002:00000648       ?_Module$initializer$@@3P6AXXZEA 0000000180022648     Scanner.obj
 0002:00000650       ??pConnMap$initializer$@?$IConnectionPointContainerImpl@VCOPOSScanner@@@ATL@@0P6AXXZEA@@3P6AXXZEA 0000000180022650     Scanner.obj
 0002:00000668       ?__scrt_initialize_tss_var@@3P6AHXZEA 0000000180022668     LIBCMT:thread_safe_statics.obj
 0002:00002648       GS_ExceptionPointers       0000000180024648     LIBCMT:gs_report.obj
 0002:00002658       $cppxdata$??2@YAPEAX_KAEBUnothrow_t@std@@@Z 0000000180024658     LIBCMT:new_scalar_nothrow.obj
 0002:00002830       ?ExceptionTemplate@?1??UnwindNestedFrames@__FrameHandler3@@SAXPEA_KPEAUEHExceptionRecord@@PEAU_CONTEXT@@0PEAXPEBU_s_FuncInfo@@HHPEBU_s_HandlerType@@PEAU_xDISPATCHER_CONTEXT@@E@Z@4U_EXCEPTION_RECORD@@B 0000000180024830     libvcruntime:risctrnsctrl.obj
 0002:000028d0       ?ExceptionTemplate@?1??_CxxThrowException@@9@4UEHExceptionRecord@@B 00000001800248d0     libvcruntime:throw.obj
 0002:00002940       ?tokenTable@@3QBQEBDB      0000000180024940     libvcruntime:undname.obj
 0002:000029c0       ?nameTable@@3QBQEBDB       00000001800249c0     libvcruntime:undname.obj
 0002:00002c58       ?rttiTable@@3QBQEBDB       0000000180024c58     libvcruntime:undname.obj
 0002:00003320       ?module_names@?A0x656504f9@@3QBQEB_WB 0000000180025320     libvcruntime:winapi_downlevel.obj
 0002:000033e0       ?candidate_modules@?1??try_get_FlsAlloc@@YAP6AKP6AXPEAX@Z@ZXZ@4QBW4module_id@?A0x656504f9@@B 00000001800253e0     libvcruntime:winapi_downlevel.obj
 0002:000033f8       ?candidate_modules@?1??try_get_FlsFree@@YAP6AHK@ZXZ@4QBW4module_id@?A0x656504f9@@B 00000001800253f8     libvcruntime:winapi_downlevel.obj
 0002:00003408       ?candidate_modules@?1??try_get_FlsGetValue@@YAP6APEAXK@ZXZ@4QBW4module_id@?A0x656504f9@@B 0000000180025408     libvcruntime:winapi_downlevel.obj
 0002:00003420       ?candidate_modules@?1??try_get_FlsSetValue@@YAP6AHKPEAX@ZXZ@4QBW4module_id@?A0x656504f9@@B 0000000180025420     libvcruntime:winapi_downlevel.obj
 0002:00003438       ?candidate_modules@?1??try_get_InitializeCriticalSectionEx@@YAP6AHPEAU_RTL_CRITICAL_SECTION@@KK@ZXZ@4QBW4module_id@?A0x656504f9@@B 0000000180025438     libvcruntime:winapi_downlevel.obj
 0002:00003460       ?errtable@@3QBUerrentry@?A0x31fdb9ec@@B 0000000180025460     libucrt:errno.obj
 0002:00003750       __acrt_initializers        0000000180025750     libucrt:initialization.obj
 0002:00003850       ?module_names@?A0x391cf84c@@3QBQEB_WB 0000000180025850     libucrt:winapi_thunks.obj
 0002:00003d58       ?candidate_modules@?1??try_get_AreFileApisANSI@@YAP6AHXZXZ@4QBW4module_id@?A0x391cf84c@@B 0000000180025d58     libucrt:winapi_thunks.obj
 0002:00003d70       ?candidate_modules@?1??try_get_FlsAlloc@@YAP6AKP6AXPEAX@Z@ZXZ@4QBW4module_id@?A0x391cf84c@@B 0000000180025d70     libucrt:winapi_thunks.obj
 0002:00003d78       ?candidate_modules@?1??try_get_FlsFree@@YAP6AHK@ZXZ@4QBW4module_id@?A0x391cf84c@@B 0000000180025d78     libucrt:winapi_thunks.obj
 0002:00003d80       ?candidate_modules@?1??try_get_FlsGetValue@@YAP6APEAXK@ZXZ@4QBW4module_id@?A0x391cf84c@@B 0000000180025d80     libucrt:winapi_thunks.obj
 0002:00003d88       ?candidate_modules@?1??try_get_FlsSetValue@@YAP6AHKPEAX@ZXZ@4QBW4module_id@?A0x391cf84c@@B 0000000180025d88     libucrt:winapi_thunks.obj
 0002:00003d90       ?candidate_modules@?1??try_get_InitializeCriticalSectionEx@@YAP6AHPEAU_RTL_CRITICAL_SECTION@@KK@ZXZ@4QBW4module_id@?A0x391cf84c@@B 0000000180025d90     libucrt:winapi_thunks.obj
 0002:00003d98       ?candidate_modules@?1??try_get_LCMapStringEx@@YAP6AHPEB_WK0HPEA_WHPEAU_nlsversioninfo@@PEAX_J@ZXZ@4QBW4module_id@?A0x391cf84c@@B 0000000180025d98     libucrt:winapi_thunks.obj
 0002:00003db0       ?candidate_modules@?1??try_get_LocaleNameToLCID@@YAP6AKPEB_WK@ZXZ@4QBW4module_id@?A0x391cf84c@@B 0000000180025db0     libucrt:winapi_thunks.obj
 0002:00003dcc       ?candidate_modules@?1??try_get_AppPolicyGetProcessTerminationMethod@@YAP6AJPEAXPEAW4AppPolicyProcessTerminationMethod@@@ZXZ@4QBW4module_id@?A0x391cf84c@@B 0000000180025dcc     libucrt:winapi_thunks.obj
 0002:00003df8       ?candidate_modules@?1??try_get_SetThreadStackGuarantee@@YAP6AHPEAK@ZXZ@4QBW4module_id@?A0x391cf84c@@B 0000000180025df8     libucrt:winapi_thunks.obj
 0002:00003e20       ?strings@?1??fp_format_nan_or_infinity@@YAHW4__acrt_fp_class@@_NPEAD_K1@Z@4QAY03QEBDA 0000000180025e20     libucrt:cvt.obj
 0002:00004580       ?_mb_locale_names@@3QBQEB_WB 0000000180026580     libucrt:mbctype.obj
 0002:00004df0       ?LcidToLocaleNameTable@?A0x881e4c05@@3QBULcidToLocaleName@1@B 0000000180026df0     libucrt:lcidtoname_downlevel.obj
 0002:00006850       ?LocaleNameToIndexTable@?A0x881e4c05@@3QBULocaleNameIndex@1@B 0000000180028850     libucrt:lcidtoname_downlevel.obj
 0002:00008a00       ?large_power_indices@?1??multiply_by_power_of_ten@__crt_strtox@@YA_NAEAUbig_integer@2@I@Z@4QBUunpack_index@?1??12@YA_N0I@Z@B 000000018002aa00     libucrt:cfout.obj
 0002:00008af0       __real_ninf                000000018002aaf0     libucrt:log10.obj
 0002:00008b00       __real_inf                 000000018002ab00     libucrt:log10.obj
 0002:00008b10       __real_neg_qnan            000000018002ab10     libucrt:log10.obj
 0002:00008b20       __real_qnanbit             000000018002ab20     libucrt:log10.obj
 0002:00008b30       __int_1023                 000000018002ab30     libucrt:log10.obj
 0002:00008b40       __mask_001                 000000018002ab40     libucrt:log10.obj
 0002:00008b50       __mask_mant                000000018002ab50     libucrt:log10.obj
 0002:00008b60       __mask_mant_top8           000000018002ab60     libucrt:log10.obj
 0002:00008b70       __mask_mant9               000000018002ab70     libucrt:log10.obj
 0002:00008b80       __real_log10_e             000000018002ab80     libucrt:log10.obj
 0002:00008b90       __real_log10_e_lead        000000018002ab90     libucrt:log10.obj
 0002:00008ba0       __real_log10_e_tail        000000018002aba0     libucrt:log10.obj
 0002:00008bb0       __real_log10_2_lead        000000018002abb0     libucrt:log10.obj
 0002:00008bc0       __real_log10_2_tail        000000018002abc0     libucrt:log10.obj
 0002:00008bd0       __real_two                 000000018002abd0     libucrt:log10.obj
 0002:00008be0       __real_one                 000000018002abe0     libucrt:log10.obj
 0002:00008bf0       __real_half                000000018002abf0     libucrt:log10.obj
 0002:00008c00       __mask_100                 000000018002ac00     libucrt:log10.obj
 0002:00008c10       __real_1_over_512          000000018002ac10     libucrt:log10.obj
 0002:00008c20       __real_1_over_2            000000018002ac20     libucrt:log10.obj
 0002:00008c30       __real_1_over_3            000000018002ac30     libucrt:log10.obj
 0002:00008c40       __real_1_over_4            000000018002ac40     libucrt:log10.obj
 0002:00008c50       __real_1_over_5            000000018002ac50     libucrt:log10.obj
 0002:00008c60       __real_1_over_6            000000018002ac60     libucrt:log10.obj
 0002:00008c70       __real_neg_1023            000000018002ac70     libucrt:log10.obj
 0002:00008c80       __mask_2045                000000018002ac80     libucrt:log10.obj
 0002:00008c90       __real_threshold           000000018002ac90     libucrt:log10.obj
 0002:00008ca0       __real_near_one_lt         000000018002aca0     libucrt:log10.obj
 0002:00008cb0       __real_near_one_gt         000000018002acb0     libucrt:log10.obj
 0002:00008cc0       __real_min_norm            000000018002acc0     libucrt:log10.obj
 0002:00008cd0       __real_notsign             000000018002acd0     libucrt:log10.obj
 0002:00008ce0       __real_ca1                 000000018002ace0     libucrt:log10.obj
 0002:00008cf0       __real_ca2                 000000018002acf0     libucrt:log10.obj
 0002:00008d00       __real_ca3                 000000018002ad00     libucrt:log10.obj
 0002:00008d10       __real_ca4                 000000018002ad10     libucrt:log10.obj
 0002:00008d20       __mask_lower               000000018002ad20     libucrt:log10.obj
 0002:00008d30       __flag_x_zero              000000018002ad30     libucrt:log10.obj
 0002:00008d34       __flag_x_neg               000000018002ad34     libucrt:log10.obj
 0002:00008d38       __flag_x_nan               000000018002ad38     libucrt:log10.obj
 0002:0000a590       __real@433fffffffffffff    000000018002c590     libucrt:fpsr.obj
 0002:0000a598       __real@c33fffffffffffff    000000018002c598     libucrt:fpsr.obj
 0002:0000add8       $unwind$_invalid_parameter_noinfo 000000018002cdd8     libucrt:invalid_parameter.obj
 0002:0000add8       $unwind$_log10_special     000000018002cdd8     libucrt:log_special.obj
 0002:0000add8       $unwind$?cw_memcpy@@YAHPEA_WPEBDH@Z 000000018002cdd8     CWString.obj
 0002:0000add8       $unwind$wcstol             000000018002cdd8     libucrt:strtox.obj
 0002:0000add8       $unwind$?ProcessWindowMessage@?$CComControl@VCOPOSScanner@@V?$CWindowImpl@VCOPOSScanner@@VCWindow@ATL@@V?$CWinTraits@$0FGAAAAAA@$0A@@3@@ATL@@@ATL@@UEAAHPEAUHWND__@@I_K_JAEA_JK@Z 000000018002cdd8     Scanner.obj
 0002:0000ade0       $unwind$?GetLONG@OposVariant@@QEAAJXZ 000000018002cde0     OposVariant.obj
 0002:0000ade0       $unwind$__GSHandlerCheck   000000018002cde0     LIBCMT:gshandler.obj
 0002:0000ade0       $unwind$??__F_AtlWinModule@ATL@@YAXXZ 000000018002cde0     OposVariant.obj
 0002:0000ade0       $unwind$??__E_AtlWinModule@ATL@@YAXXZ 000000018002cde0     OposVariant.obj
 0002:0000ade0       $unwind$??__E_AtlComModule@ATL@@YAXXZ 000000018002cde0     OposVariant.obj
 0002:0000ade0       $unwind$_msize_base        000000018002cde0     libucrt:msize.obj
 0002:0000ade0       $unwind$?cw_strcpy@@YAHPEA_WPEBD@Z 000000018002cde0     CWString.obj
 0002:0000ade0       $unwind$__scrt_initialize_default_local_stdio_options 000000018002cde0     LIBCMT:default_local_stdio_options.obj
 0002:0000ade0       $unwind$__acrt_uninitialize_ptd 000000018002cde0     libucrt:per_thread_data.obj
 0002:0000ade0       $unwind$__acrt_initialize_ptd 000000018002cde0     libucrt:per_thread_data.obj
 0002:0000ade0       $unwind$abort              000000018002cde0     libucrt:abort.obj
 0002:0000ade0       $unwind$uninitialize_allocated_io_buffers 000000018002cde0     libucrt:initialization.obj
 0002:0000ade0       $unwind$_get_osfhandle     000000018002cde0     libucrt:osfinfo.obj
 0002:0000ade0       $unwind$_statfp            000000018002cde0     libucrt:fpctrl.obj
 0002:0000ade0       $unwind$__scrt_dllmain_before_initialize_c 000000018002cde0     LIBCMT:utility.obj
 0002:0000ade0       $unwind$uninitialize_environment 000000018002cde0     libucrt:initialization.obj
 0002:0000ade0       $unwind$initialize_c       000000018002cde0     libucrt:initialization.obj
 0002:0000ade0       $unwind$??__E_AtlBaseModule@ATL@@YAXXZ 000000018002cde0     atls:atlbase.obj
 0002:0000ade0       $unwind$__scrt_dllmain_after_initialize_c 000000018002cde0     LIBCMT:utility.obj
 0002:0000ade0       $unwind$__acrt_thread_detach 000000018002cde0     libucrt:initialization.obj
 0002:0000ade0       $unwind$__acrt_initialize_heap 000000018002cde0     libucrt:heap_handle.obj
 0002:0000ade0       $unwind$_set_errno_from_matherr 000000018002cde0     libucrt:fpexcept.obj
 0002:0000ade0       $unwind$__acrt_thread_attach 000000018002cde0     libucrt:initialization.obj
 0002:0000ade0       $unwind$__dcrt_terminate_console_output 000000018002cde0     libucrt:initcon.obj
 0002:0000ade0       $unwind$__scrt_dllmain_uninitialize_c 000000018002cde0     LIBCMT:utility.obj
 0002:0000ade0       $unwind$__acrt_uninitialize_critical 000000018002cde0     libucrt:initialization.obj
 0002:0000ade0       $unwind$__report_rangecheckfailure 000000018002cde0     LIBCMT:gs_report.obj
 0002:0000ade0       $unwind$_isatty            000000018002cde0     libucrt:isatty.obj
 0002:0000ade0       $unwind$__scrt_dllmain_uninitialize_critical 000000018002cde0     LIBCMT:utility.obj
 0002:0000ade0       $unwind$__acrt_uninitialize 000000018002cde0     libucrt:initialization.obj
 0002:0000ade0       $unwind$_fileno            000000018002cde0     libucrt:fileno.obj
 0002:0000ade0       $unwind$__acrt_initialize_command_line 000000018002cde0     libucrt:argv_data.obj
 0002:0000ade0       $unwind$__scrt_dllmain_crt_thread_attach 000000018002cde0     LIBCMT:utility.obj
 0002:0000ade0       $unwind$??$uninitialize_environment_internal@_W@@YAXAEAPEAPEA_W@Z 000000018002cde0     libucrt:environment_initialization.obj
 0002:0000ade0       $unwind$__scrt_dllmain_crt_thread_detach 000000018002cde0     LIBCMT:utility.obj
 0002:0000ade0       $unwind$??$uninitialize_environment_internal@D@@YAXAEAPEAPEAD@Z 000000018002cde0     libucrt:environment_initialization.obj
 0002:0000ade0       $unwind$__dcrt_uninitialize_environments_nolock 000000018002cde0     libucrt:environment_initialization.obj
 0002:0000ade0       $unwind$_purecall          000000018002cde0     libvcruntime:purevirt.obj
 0002:0000ade0       $unwind$?state_case_size@?$output_processor@_WV?$string_output_adapter@_W@__crt_stdio_output@@V?$format_validation_base@_WV?$string_output_adapter@_W@__crt_stdio_output@@@2@@__crt_stdio_output@@AEAA_NXZ 000000018002cde0     libucrt:output.obj
 0002:0000ade0       $unwind$__vcrt_initialize  000000018002cde0     libvcruntime:initialization.obj
 0002:0000ade0       $unwind$__vcrt_uninitialize 000000018002cde0     libvcruntime:initialization.obj
 0002:0000ade0       $unwind$__vcrt_uninitialize_critical 000000018002cde0     libvcruntime:initialization.obj
 0002:0000ade0       $unwind$__vcrt_thread_attach 000000018002cde0     libvcruntime:initialization.obj
 0002:0000ade0       $unwind$__vcrt_thread_detach 000000018002cde0     libvcruntime:initialization.obj
 0002:0000ade0       $unwind$__doserrno         000000018002cde0     libucrt:errno.obj
 0002:0000ade0       $unwind$_errno             000000018002cde0     libucrt:errno.obj
 0002:0000ade0       $unwind$_invoke_watson     000000018002cde0     libucrt:invalid_parameter.obj
 0002:0000ade0       $unwind$_GetImageBase      000000018002cde0     libvcruntime:risctrnsctrl.obj
 0002:0000ade0       $unwind$_GetThrowImageBase 000000018002cde0     libvcruntime:risctrnsctrl.obj
 0002:0000ade0       $unwind$?GetCurrentState@__FrameHandler3@@SAHPEA_KPEAU_xDISPATCHER_CONTEXT@@PEBU_s_FuncInfo@@@Z 000000018002cde0     libvcruntime:ehstate.obj
 0002:0000ade0       $unwind$__FrameUnwindFilter 000000018002cde0     libvcruntime:ehhelpers.obj
 0002:0000ade0       $unwind$__vcrt_initialize_locks 000000018002cde0     libvcruntime:locks.obj
 0002:0000ade0       $unwind$__vcrt_freefls     000000018002cde0     libvcruntime:per_thread_data.obj
 0002:0000ade0       $unwind$__vcrt_initialize_ptd 000000018002cde0     libvcruntime:per_thread_data.obj
 0002:0000ade0       $unwind$__acrt_initialize_multibyte 000000018002cde0     libucrt:mbctype.obj
 0002:0000ade0       $unwind$?dllmain_crt_dispatch@@YAHQEAUHINSTANCE__@@KQEAX@Z 000000018002cde0     LIBCMT:dll_dllmain.obj
 0002:0000ade0       $unwind$__acrt_update_thread_multibyte_data 000000018002cde0     libucrt:mbctype.obj
 0002:0000ade0       $unwind$atexit             000000018002cde0     LIBCMT:utility.obj
 0002:0000ade0       $unwind$__vcrt_uninitialize_ptd 000000018002cde0     libvcruntime:per_thread_data.obj
 0002:0000ade0       $unwind$__vcrt_getptd      000000018002cde0     libvcruntime:per_thread_data.obj
 0002:0000ade0       $unwind$?get_State@COPOSScanner@@UEAAJPEAJ@Z 000000018002cde0     ScannerImpl.obj
 0002:0000ade0       $unwind$?get_ResultCode@COPOSScanner@@UEAAJPEAJ@Z 000000018002cde0     ScannerImpl.obj
 0002:0000ade0       $unwind$?FinalConstruct@COPOSScanner@@QEAAJXZ 000000018002cde0     ScannerImpl.obj
 0002:0000ade0       $unwind$??__E?pConnMap@?$IConnectionPointContainerImpl@VCOPOSScanner@@@ATL@@0PEBU_ATL_CONNMAP_ENTRY@2@EB@@YAXXZ 000000018002cde0     Scanner.obj
 0002:0000ade0       $unwind$__acrt_release_locale_ref 000000018002cde0     libucrt:locale_refcounting.obj
 0002:0000ade0       $unwind$_Init_thread_notify 000000018002cde0     LIBCMT:thread_safe_statics.obj
 0002:0000ade0       $unwind$??__F_Module@@YAXXZ 000000018002cde0     Scanner.obj
 0002:0000ade0       $unwind$?_LocCPQueryInterface@?$IConnectionPointImpl@VCOPOSScanner@@$1?DIID__IOPOSScannerEvents@@3U_GUID@@BVCComDynamicUnkArray@ATL@@@ATL@@UEAAJAEBU_GUID@@PEAPEAX@Z 000000018002cde0     Scanner.obj
 0002:0000ade0       $unwind$?initialize_multibyte@@YAHXZ 000000018002cde0     libucrt:multibyte_initializer.obj
 0002:0000ade0       $unwind$__pctype_func      000000018002cde0     libucrt:ctype.obj
 0002:0000ade0       $unwind$?__scrt_uninitialize_thread_safe_statics@@YAXXZ 000000018002cde0     LIBCMT:thread_safe_statics.obj
 0002:0000ade0       $unwind$?_LocCPQueryInterface@?$IConnectionPointImpl@VCOPOSScanner@@$1?IID_IPropertyNotifySink@@3U_GUID@@BVCComDynamicUnkArray@ATL@@@ATL@@UEAAJAEBU_GUID@@PEAPEAX@Z 000000018002cde0     Scanner.obj
 0002:0000ade0       $unwind$?GetAdvise@?$IViewObjectExImpl@VCOPOSScanner@@@ATL@@UEAAJPEAK0PEAPEAUIAdviseSink@@@Z 000000018002cde0     Scanner.obj
 0002:0000ade0       $unwind$?OnDocWindowActivate@?$IOleInPlaceActiveObjectImpl@VCOPOSScanner@@@ATL@@UEAAJH@Z 000000018002cde0     Scanner.obj
 0002:0000ade0       $unwind$?EnumAdvise@?$IOleObjectImpl@VCOPOSScanner@@@ATL@@UEAAJPEAPEAUIEnumSTATDATA@@@Z 000000018002cde0     Scanner.obj
 0002:0000ade0       $unwind$__scrt_acquire_startup_lock 000000018002cde0     LIBCMT:utility.obj
 0002:0000ade0       $unwind$?Unadvise@?$IOleObjectImpl@VCOPOSScanner@@@ATL@@UEAAJK@Z 000000018002cde0     Scanner.obj
 0002:0000ade0       $unwind$?FireViewChange@CComControlBase@ATL@@QEAAJXZ 000000018002cde0     Scanner.obj
 0002:0000ade0       $unwind$?DefaultReflectionHandler@?$CWindowImplRoot@VCWindow@ATL@@@ATL@@SAHPEAUHWND__@@I_K_JAEA_J@Z 000000018002cde0     Scanner.obj
 0002:0000ade0       $unwind$?LockServer@CComClassFactory@ATL@@UEAAJH@Z 000000018002cde0     Scanner.obj
 0002:0000ade0       $unwind$?CreateInstance@CComClassFactory@ATL@@UEAAJPEAUIUnknown@@AEBU_GUID@@PEAPEAX@Z 000000018002cde0     Scanner.obj
 0002:0000ade0       $unwind$?AddReplacement@CRegObject@ATL@@UEAAJPEB_W0@Z 000000018002cde0     Scanner.obj
 0002:0000ade0       $unwind$__acrt_AreFileApisANSI 000000018002cde0     libucrt:winapi_thunks.obj
 0002:0000ade0       $unwind$?AtlHresultFromLastError@ATL@@YAJXZ 000000018002cde0     Scanner.obj
 0002:0000ade0       $unwind$?AtlThrowImpl@ATL@@YAXJ@Z 000000018002cde0     Scanner.obj
 0002:0000ade0       $unwind$??1OposDispParms@@QEAA@XZ 000000018002cde0     OposVariant.obj
 0002:0000ade8       $unwind$?cw_dup@@YAXPEBDAEAHAEAPEA_W1@Z 000000018002cde8     CWString.obj
 0002:0000ade8       $unwind$__GSHandlerCheck_SEH 000000018002cde8     LIBCMT:gshandlerseh.obj
 0002:0000ade8       $unwind$?CreateInstance@?$CComCreator@V?$CComObjectCached@VCComClassFactory@ATL@@@ATL@@@ATL@@SAJPEAXAEBU_GUID@@PEAPEAX@Z 000000018002cde8     Scanner.obj
 0002:0000ade8       $unwind$??$TypeMatchHelper@V__FrameHandler3@@@@YAHPEBU_s_HandlerType@@PEBU_s_CatchableType@@PEBU_s_ThrowInfo@@@Z 000000018002cde8     libvcruntime:frame.obj
 0002:0000ade8       $unwind$?CreateInstance@?$CComCreator@V?$CComAggObject@VCOPOSScanner@@@ATL@@@ATL@@SAJPEAXAEBU_GUID@@PEAPEAX@Z 000000018002cde8     Scanner.obj
 0002:0000ade8       $unwind$?AtlModuleAddTermFunc@ATL@@YAJPEAU_ATL_MODULE70@1@P6AX_K@Z1@Z 000000018002cde8     Scanner.obj
 0002:0000ade8       $unwind$?GetPagesHelper@?$ISpecifyPropertyPagesImpl@VCOPOSScanner@@@ATL@@IEAAJPEAUtagCAUUID@@PEBUATL_PROPMAP_ENTRY@2@@Z 000000018002cde8     Scanner.obj
 0002:0000ade8       $unwind$?AtlComModuleRegisterServer@ATL@@YAJPEAU_ATL_COM_MODULE70@1@HPEBU_GUID@@@Z 000000018002cde8     Scanner.obj
 0002:0000ade8       $unwind$?AtlComModuleUnregisterServer@ATL@@YAJPEAU_ATL_COM_MODULE70@1@HPEBU_GUID@@@Z 000000018002cde8     Scanner.obj
 0002:0000ade8       $unwind$?initialize_stdio_handles_nolock@@YAXXZ 000000018002cde8     libucrt:ioinit.obj
 0002:0000ade8       $unwind$??_Estringdispid@CComTypeInfoHolder@ATL@@QEAAPEAXI@Z 000000018002cde8     OposVariant.obj
 0002:0000ade8       $unwind$__acrt_initialize_stdio 000000018002cde8     libucrt:_file.obj
 0002:0000ae00       $unwind$_Init_thread_footer 000000018002ce00     LIBCMT:thread_safe_statics.obj
 0002:0000ae00       $unwind$__scrt_uninitialize_crt 000000018002ce00     LIBCMT:utility.obj
 0002:0000ae00       $unwind$?QueryHitPoint@?$IViewObjectExImpl@VCOPOSScanner@@@ATL@@UEAAJKPEBUtagRECT@@UtagPOINT@@JPEAK@Z 000000018002ce00     Scanner.obj
 0002:0000ae00       $unwind$?IPSI_GetIPersistStreamInit@?$IPersistStorageImpl@VCOPOSScanner@@@ATL@@AEAAPEAUIPersistStreamInit@@XZ 000000018002ce00     Scanner.obj
 0002:0000ae00       $unwind$__raise_securityfailure 000000018002ce00     LIBCMT:gs_report.obj
 0002:0000ae00       $unwind$?IOleObject_SetExtent@CComControlBase@ATL@@QEAAJKPEAUtagSIZE@@@Z 000000018002ce00     Scanner.obj
 0002:0000ae00       $unwind$_CreateFrameInfo   000000018002ce00     libvcruntime:risctrnsctrl.obj
 0002:0000ae00       $unwind$?GetClassInfoW@?$IProvideClassInfo2Impl@$1?CLSID_OPOSScanner@@3U_GUID@@B$1?DIID__IOPOSScannerEvents@@3U2@B$1?LIBID_OposScanner_CCO@@3U2@B$00$0A@VCComTypeInfoHolder@ATL@@@ATL@@UEAAJPEAPEAUITypeInfo@@@Z 000000018002ce00     Scanner.obj
 0002:0000ae00       $unwind$wcscat_s           000000018002ce00     libucrt:wcscat_s.obj
 0002:0000ae00       $unwind$?Unadvise@?$IConnectionPointImpl@VCOPOSScanner@@$1?IID_IPropertyNotifySink@@3U_GUID@@BVCComDynamicUnkArray@ATL@@@ATL@@UEAAJK@Z 000000018002ce00     Scanner.obj
 0002:0000ae00       $unwind$_calloc_base       000000018002ce00     libucrt:calloc_base.obj
 0002:0000ae00       $unwind$_set_statfp        000000018002ce00     libucrt:fpctrl.obj
 0002:0000ae00       $unwind$??0bad_array_new_length@std@@QEAA@AEBV01@@Z 000000018002ce00     LIBCMT:throw_bad_alloc.obj
 0002:0000ae00       $unwind$?ExFilterRethrow@@YAHPEAU_EXCEPTION_POINTERS@@PEAUEHExceptionRecord@@PEAH@Z 000000018002ce00     libvcruntime:frame.obj
 0002:0000ae00       $unwind$__acrt_getptd_head 000000018002ce00     libucrt:per_thread_data.obj
 0002:0000ae00       $unwind$_clrfp             000000018002ce00     libucrt:fpctrl.obj
 0002:0000ae00       $unwind$_clearfp           000000018002ce00     libucrt:ieee.obj
 0002:0000ae00       $unwind$?IOleInPlaceObject_InPlaceDeactivate@CComControlBase@ATL@@QEAAJXZ 000000018002ce00     Scanner.obj
 0002:0000ae00       $unwind$?get_DecodeData@COPOSScanner@@UEAAJPEAF@Z 000000018002ce00     ScannerImpl.obj
 0002:0000ae00       $unwind$__acrt_freeptd     000000018002ce00     libucrt:per_thread_data.obj
 0002:0000ae00       $unwind$?Unadvise@?$IConnectionPointImpl@VCOPOSScanner@@$1?DIID__IOPOSScannerEvents@@3U_GUID@@BVCComDynamicUnkArray@ATL@@@ATL@@UEAAJK@Z 000000018002ce00     Scanner.obj
 0002:0000ae00       $unwind$?GetConnMap@COPOSScanner@@SAPEBU_ATL_CONNMAP_ENTRY@ATL@@PEAH@Z 000000018002ce00     Scanner.obj
 0002:0000ae00       $unwind$?GetTypeInfo@?$IDispatchImpl@UIOPOSScanner@@$1?IID_IOPOSScanner@@3U_GUID@@B$1?LIBID_OposScanner_CCO@@3U3@B$00$0A@VCComTypeInfoHolder@ATL@@@ATL@@UEAAJIKPEAPEAUITypeInfo@@@Z 000000018002ce00     Scanner.obj
 0002:0000ae00       $unwind$??0bad_alloc@std@@QEAA@AEBV01@@Z 000000018002ce00     LIBCMT:throw_bad_alloc.obj
 0002:0000ae00       $unwind$?Load@?$IPersistStreamInitImpl@VCOPOSScanner@@@ATL@@UEAAJPEAUIStream@@@Z 000000018002ce00     Scanner.obj
 0002:0000ae00       $unwind$?try_cor_exit_process@@YAXI@Z 000000018002ce00     libucrt:exit.obj
 0002:0000ae00       $unwind$??0bad_exception@std@@QEAA@AEBV01@@Z 000000018002ce00     libvcruntime:frame.obj
 0002:0000ae00       $unwind$?GetUnwindTryBlock@__FrameHandler3@@SAHPEA_KPEAU_xDISPATCHER_CONTEXT@@PEBU_s_FuncInfo@@@Z 000000018002ce00     libvcruntime:ehstate.obj
 0002:0000ae00       $unwind$?GetClientSite@?$IOleObjectImpl@VCOPOSScanner@@@ATL@@UEAAJPEAPEAUIOleClientSite@@@Z 000000018002ce00     Scanner.obj
 0002:0000ae00       $unwind$?get_AutoDisable@COPOSScanner@@UEAAJPEAF@Z 000000018002ce00     ScannerImpl.obj
 0002:0000ae00       $unwind$__std_type_info_destroy_list 000000018002ce00     libvcruntime:std_type_info.obj
 0002:0000ae00       $unwind$__scrt_initialize_onexit_tables 000000018002ce00     LIBCMT:utility.obj
 0002:0000ae00       $unwind$__acrt_get_process_end_policy 000000018002ce00     libucrt:win_policies.obj
 0002:0000ae00       $unwind$strcpy_s           000000018002ce00     libucrt:strcpy_s.obj
 0002:0000ae00       $unwind$??__E_Module@@YAXXZ 000000018002ce00     Scanner.obj
 0002:0000ae00       $unwind$?StateFromIp@__FrameHandler3@@SAHPEBU_s_FuncInfo@@PEAU_xDISPATCHER_CONTEXT@@_K@Z 000000018002ce00     libvcruntime:ehstate.obj
 0002:0000ae00       $unwind$__acrt_uninitialize_locks 000000018002ce00     libucrt:locks.obj
 0002:0000ae00       $unwind$__acrt_initialize_locks 000000018002ce00     libucrt:locks.obj
 0002:0000ae00       $unwind$??0exception@std@@QEAA@AEBV01@@Z 000000018002ce00     LIBCMT:throw_bad_alloc.obj
 0002:0000ae00       $unwind$??0CAtlComModule@ATL@@QEAA@XZ 000000018002ce00     OposVariant.obj
 0002:0000ae00       $unwind$feholdexcept       000000018002ce00     libucrt:feholdexcept.obj
 0002:0000ae00       $unwind$fesetenv           000000018002ce00     libucrt:fesetenv.obj
 0002:0000ae00       $unwind$fegetenv           000000018002ce00     libucrt:fegetenv.obj
 0002:0000ae00       $unwind$__std_exception_destroy 000000018002ce00     libvcruntime:std_exception.obj
 0002:0000ae00       $unwind$?AddRef@?$CComObjectCached@VCComClassFactory@ATL@@@ATL@@UEAAKXZ 000000018002ce00     Scanner.obj
 0002:0000ae00       $unwind$_IsExceptionObjectToBeDestroyed 000000018002ce00     libvcruntime:ehhelpers.obj
 0002:0000ae00       $unwind$?exit_or_terminate_process@@YAXI@Z 000000018002ce00     libucrt:exit.obj
 0002:0000ae00       $unwind$?FreezeEvents@COPOSScanner@@MEAAJH@Z 000000018002ce00     ScannerImpl.obj
 0002:0000ae00       $unwind$?Release@?$CComObjectCached@VCComClassFactory@ATL@@@ATL@@UEAAKXZ 000000018002ce00     Scanner.obj
 0002:0000ae00       $unwind$?QueryInterface@?$CComAggObject@VCOPOSScanner@@@ATL@@UEAAJAEBU_GUID@@PEAPEAX@Z 000000018002ce00     Scanner.obj
 0002:0000ae00       $unwind$??0?$CComObject@VCOPOSScanner@@@ATL@@QEAA@PEAX@Z 000000018002ce00     Scanner.obj
 0002:0000ae00       $unwind$_onexit            000000018002ce00     LIBCMT:utility.obj
 0002:0000ae00       $unwind$__acrt_uninitialize_stdio 000000018002ce00     libucrt:_file.obj
 0002:0000ae00       $unwind$??1?$CComObject@VCOPOSScanner@@@ATL@@UEAA@XZ 000000018002ce00     Scanner.obj
 0002:0000ae00       $unwind$__vcrt_uninitialize_locks 000000018002ce00     libvcruntime:locks.obj
 0002:0000ae00       $unwind$??1CComControlBase@ATL@@UEAA@XZ 000000018002ce00     ScannerImpl.obj
 0002:0000ae00       $unwind$?get_CapUpdateFirmware@COPOSScanner@@UEAAJPEAF@Z 000000018002ce00     ScannerImpl.obj
 0002:0000ae00       $unwind$??1COPOSScanner@@UEAA@XZ 000000018002ce00     ScannerImpl.obj
 0002:0000ae00       $unwind$?get_CapCompareFirmwareVersion@COPOSScanner@@UEAAJPEAF@Z 000000018002ce00     ScannerImpl.obj
 0002:0000ae00       $unwind$?EventUninit@COPOSScanner@@IEAAXXZ 000000018002ce00     ScannerImpl.obj
 0002:0000ae00       $unwind$__acrt_update_multibyte_info 000000018002ce00     libucrt:locale_update.obj
 0002:0000ae00       $unwind$__scrt_release_startup_lock 000000018002ce00     LIBCMT:utility.obj
 0002:0000ae00       $unwind$__vcrt_freeptd     000000018002ce00     libvcruntime:per_thread_data.obj
 0002:0000ae00       $unwind$__acrt_update_locale_info 000000018002ce00     libucrt:locale_update.obj
 0002:0000ae00       $unwind$?DupWide@_CW@@AEAAXXZ 000000018002ce00     CWString.obj
 0002:0000ae00       $unwind$__scrt_initialize_crt 000000018002ce00     LIBCMT:utility.obj
 0002:0000ae00       $unwind$_malloc_base       000000018002ce00     libucrt:malloc_base.obj
 0002:0000ae00       $unwind$wcscpy_s           000000018002ce00     libucrt:wcscpy_s.obj
 0002:0000ae00       $unwind$__acrt_AppPolicyGetProcessTerminationMethodInternal 000000018002ce00     libucrt:winapi_thunks.obj
 0002:0000ae00       $unwind$?SOProcessID@COPOSScanner@@UEAAJPEAJ@Z 000000018002ce00     ScannerImpl.obj
 0002:0000ae00       $unwind$??0CAtlWinModule@ATL@@QEAA@XZ 000000018002ce00     OposVariant.obj
 0002:0000ae00       $unwind$?get_Claimed@COPOSScanner@@UEAAJPEAF@Z 000000018002ce00     ScannerImpl.obj
 0002:0000ae00       $unwind$__acrt_stdio_free_buffer_nolock 000000018002ce00     libucrt:_freebuf.obj
 0002:0000ae00       $unwind$__acrt_allocate_buffer_for_argv 000000018002ce00     libucrt:argv_parsing.obj
 0002:0000ae00       $unwind$__acrt_FlsGetValue 000000018002ce00     libucrt:winapi_thunks.obj
 0002:0000ae00       $unwind$__acrt_FlsFree     000000018002ce00     libucrt:winapi_thunks.obj
 0002:0000ae00       $unwind$__acrt_FlsAlloc    000000018002ce00     libucrt:winapi_thunks.obj
 0002:0000ae00       $unwind$??2@YAPEAX_K@Z     000000018002ce00     LIBCMT:new_scalar.obj
 0002:0000ae00       $unwind$?get_DataEventEnabled@COPOSScanner@@UEAAJPEAF@Z 000000018002ce00     ScannerImpl.obj
 0002:0000ae00       $unwind$__acrt_uninitialize_winapi_thunks 000000018002ce00     libucrt:winapi_thunks.obj
 0002:0000ae00       $unwind$?ExecutionInCatch@__FrameHandler3@@SA_NPEAU_xDISPATCHER_CONTEXT@@PEBU_s_FuncInfo@@@Z 000000018002ce00     libvcruntime:risctrnsctrl.obj
 0002:0000ae00       $unwind$?get_DeviceEnabled@COPOSScanner@@UEAAJPEAF@Z 000000018002ce00     ScannerImpl.obj
 0002:0000ae00       $unwind$?get_FreezeEvents@COPOSScanner@@UEAAJPEAF@Z 000000018002ce00     ScannerImpl.obj
 0002:0000ae00       $unwind$_Init_thread_header 000000018002ce00     LIBCMT:thread_safe_statics.obj
 0002:0000ae00       $unwind$?get_CapUpdateStatistics@COPOSScanner@@UEAAJPEAF@Z 000000018002ce00     ScannerImpl.obj
 0002:0000ae00       $unwind$__acrt_SetThreadStackGuarantee 000000018002ce00     libucrt:winapi_thunks.obj
 0002:0000ae00       $unwind$??0CAtlModule@ATL@@QEAA@XZ 000000018002ce00     Scanner.obj
 0002:0000ae00       $unwind$_Init_thread_wait  000000018002ce00     LIBCMT:thread_safe_statics.obj
 0002:0000ae00       $unwind$_SetImageBase      000000018002ce00     libvcruntime:risctrnsctrl.obj
 0002:0000ae00       $unwind$AtlThunk_AllocateData 000000018002ce00     atls:atlthunk.obj
 0002:0000ae00       $unwind$__vcrt_FlsGetValue 000000018002ce00     libvcruntime:winapi_downlevel.obj
 0002:0000ae00       $unwind$__vcrt_FlsFree     000000018002ce00     libvcruntime:winapi_downlevel.obj
 0002:0000ae00       $unwind$__vcrt_FlsAlloc    000000018002ce00     libvcruntime:winapi_downlevel.obj
 0002:0000ae00       $unwind$_fflush_nolock     000000018002ce00     libucrt:fflush.obj
 0002:0000ae00       $unwind$?AllocateHeap@?$CTempBuffer@_W$0EAA@VCCRTAllocator@ATL@@@ATL@@AEAAX_K@Z 000000018002ce00     Scanner.obj
 0002:0000ae00       $unwind$?AllocateHeap@?$CTempBuffer@_W$0BAA@VCCRTAllocator@ATL@@@ATL@@AEAAX_K@Z 000000018002ce00     Scanner.obj
 0002:0000ae00       $unwind$?AllocateHeap@?$CTempBuffer@E$0BAA@VCCRTAllocator@ATL@@@ATL@@AEAAX_K@Z 000000018002ce00     Scanner.obj
 0002:0000ae00       $unwind$??1CAtlBaseModule@ATL@@QEAA@XZ 000000018002ce00     atls:atlbase.obj
 0002:0000ae00       $unwind$initialize_pointers 000000018002ce00     libucrt:initialization.obj
 0002:0000ae00       $unwind$?IsEqualObject@?$CComPtrBase@UITypeInfo@@@ATL@@QEAA_NPEAUIUnknown@@@Z 000000018002ce00     Scanner.obj
 0002:0000ae00       $unwind$uninitialize_allocated_memory 000000018002ce00     libucrt:initialization.obj
 0002:0000ae00       $unwind$?put_FreezeEvents@COPOSScanner@@UEAAJF@Z 000000018002ce00     ScannerImpl.obj
 0002:0000ae00       $unwind$?get_CapStatisticsReporting@COPOSScanner@@UEAAJPEAF@Z 000000018002ce00     ScannerImpl.obj
 0002:0000ae00       $unwind$_callnewh          000000018002ce00     libucrt:new_handler.obj
 0002:0000ae00       $unwind$??_Gtype_info@@UEAAPEAXI@Z 000000018002ce00     LIBCMT:std_type_info_static.obj
 0002:0000ae00       $unwind$?AtlCreateTargetDC@ATL@@YAPEAUHDC__@@PEAU2@PEAUtagDVTARGETDEVICE@@@Z 000000018002ce00     Scanner.obj
 0002:0000ae00       $unwind$?IsEqualObject@?$CComPtrBase@UIOleClientSite@@@ATL@@QEAA_NPEAUIUnknown@@@Z 000000018002ce00     Scanner.obj
 0002:0000ae00       $unwind$_SetThrowImageBase 000000018002ce00     libvcruntime:risctrnsctrl.obj
 0002:0000ae08       $unwind$?GetHandlerSearchState@__FrameHandler3@@SAHPEA_KPEAU_xDISPATCHER_CONTEXT@@PEBU_s_FuncInfo@@@Z 000000018002ce08     libvcruntime:frame.obj
 0002:0000ae08       $unwind$?setSBCS@@YAXPEAU__crt_multibyte_data@@@Z 000000018002ce08     libucrt:mbctype.obj
 0002:0000ae08       $unwind$?AtlWinModuleTerm@ATL@@YAJPEAU_ATL_WIN_MODULE70@1@PEAUHINSTANCE__@@@Z 000000018002ce08     OposVariant.obj
 0002:0000ae08       $unwind$?s_EventWindowProc@COPOSScanner@@KA_JPEAUHWND__@@I_K_J@Z 000000018002ce08     ScannerImpl.obj
 0002:0000ae08       $unwind$_seh_filter_exe    000000018002ce08     libucrt:exception_filter.obj
 0002:0000ae08       $unwind$??$ensure_buffer_is_big_enough@D@formatting_buffer@__crt_stdio_output@@QEAA_N_K@Z 000000018002ce08     libucrt:output.obj
 0002:0000ae08       $unwind$?SODirectIO@COPOSScanner@@MEAAJJPEAJPEAPEA_W@Z 000000018002ce08     Scanner.obj
 0002:0000ae08       $unwind$?DoEvent@COPOSScanner@@IEAAXI_K_J@Z 000000018002ce08     Scanner.obj
 0002:0000ae08       $unwind$_recalloc_base     000000018002ce08     libucrt:recalloc.obj
 0002:0000ae08       $unwind$?Next@?$CComEnumImpl@UIEnumConnections@@$1?_GUID_b196b287_bab4_101a_b69c_00aa00341d07@@3U__s_GUID@@BUtagCONNECTDATA@@V?$_Copy@UtagCONNECTDATA@@@ATL@@@ATL@@UEAAJKPEAUtagCONNECTDATA@@PEAK@Z 000000018002ce08     Scanner.obj
 0002:0000ae08       $unwind$?HKeyFromString@CRegParser@ATL@@KAPEAUHKEY__@@PEA_W@Z 000000018002ce08     Scanner.obj
 0002:0000ae08       $unwind$?Is_bad_exception_allowed@@YAEPEBU_s_ESTypeList@@@Z 000000018002ce08     libvcruntime:frame.obj
 0002:0000ae08       $unwind$?SetControlFocus@CComControlBase@ATL@@QEAAHH@Z 000000018002ce08     Scanner.obj
 0002:0000ae08       $unwind$?AtlWinModuleExtractCreateWndData@ATL@@YAPEAXPEAU_ATL_WIN_MODULE70@1@@Z 000000018002ce08     Scanner.obj
 0002:0000ae08       $unwind$__scrt_dllmain_exception_filter 000000018002ce08     LIBCMT:utility.obj
 0002:0000ae08       $unwind$?Append@CParseBuffer@CRegParser@ATL@@QEAAHPEB_WH@Z 000000018002ce08     Scanner.obj
 0002:0000ae08       $unwind$_initterm          000000018002ce08     libucrt:initterm.obj
 0002:0000ae08       $unwind$?Next@?$CComEnumImpl@UIEnumConnectionPoints@@$1?_GUID_b196b285_bab4_101a_b69c_00aa00341d07@@3U__s_GUID@@BPEAUIConnectionPoint@@V?$_CopyInterface@UIConnectionPoint@@@ATL@@@ATL@@UEAAJKPEAPEAUIConnectionPoint@@PEAK@Z 000000018002ce08     Scanner.obj
 0002:0000ae08       $unwind$__acrt_free_locale 000000018002ce08     libucrt:locale_refcounting.obj
 0002:0000ae08       $unwind$__acrt_lowio_create_handle_array 000000018002ce08     libucrt:osfinfo.obj
 0002:0000ae08       $unwind$?CreateInstance@?$CComCreator@V?$CComObject@VCOPOSScanner@@@ATL@@@ATL@@SAJPEAXAEBU_GUID@@PEAPEAX@Z 000000018002ce08     Scanner.obj
 0002:0000ae08       $unwind$??$ensure_buffer_is_big_enough@_W@formatting_buffer@__crt_stdio_output@@QEAA_N_K@Z 000000018002ce08     libucrt:output.obj
 0002:0000ae08       $unwind$?DoVerb@?$IOleObjectImpl@VCOPOSScanner@@@ATL@@UEAAJJPEAUtagMSG@@PEAUIOleClientSite@@JPEAUHWND__@@PEBUtagRECT@@@Z 000000018002ce08     Scanner.obj
 0002:0000ae1c       $unwind$?type_case_s@?$output_processor@_WV?$string_output_adapter@_W@__crt_stdio_output@@V?$format_validation_base@_WV?$string_output_adapter@_W@__crt_stdio_output@@@2@@__crt_stdio_output@@AEAA_NXZ 000000018002ce1c     libucrt:output.obj
 0002:0000ae1c       $unwind$memcpy_s           000000018002ce1c     libucrt:cfout.obj
 0002:0000ae1c       $unwind$__acrt_stdio_flush_nolock 000000018002ce1c     libucrt:fflush.obj
 0002:0000ae1c       $unwind$??_GCRegObject@ATL@@UEAAPEAXI@Z 000000018002ce1c     Scanner.obj
 0002:0000ae1c       $unwind$?free_crt_array_internal@@YAXQEAPEBX_K@Z 000000018002ce1c     libucrt:inittime.obj
 0002:0000ae1c       $unwind$__acrt_getptd_noexit 000000018002ce1c     libucrt:per_thread_data.obj
 0002:0000ae1c       $unwind$?SetLONG_Ptr@OposVariant@@QEAAXPEAJAEAJ@Z 000000018002ce1c     OposVariant.obj
 0002:0000ae1c       $unwind$memcpy_s           000000018002ce1c     Scanner.obj
 0002:0000ae1c       $unwind$?Add@?$CSimpleArray@GV?$CSimpleArrayEqualHelper@G@ATL@@@ATL@@QEAAHAEBG@Z 000000018002ce1c     Scanner.obj
 0002:0000ae1c       $unwind$?SetBSTR_Copy@OposVariant@@QEAAXPEA_WAEAJ@Z 000000018002ce1c     OposVariant.obj
 0002:0000ae1c       $unwind$__acrt_InitializeCriticalSectionEx 000000018002ce1c     libucrt:winapi_thunks.obj
 0002:0000ae1c       $unwind$_exception_enabled 000000018002ce1c     libucrt:libm_error.obj
 0002:0000ae1c       $unwind$??$common_lseek_nolock@_J@@YA_JH_JH@Z 000000018002ce1c     libucrt:lseek.obj
 0002:0000ae1c       $unwind$?AtlCallTermFunc@ATL@@YAXPEAU_ATL_MODULE70@1@@Z 000000018002ce1c     Scanner.obj
 0002:0000ae1c       $unwind$?Add@?$CSimpleMap@PEA_WPEA_WVCExpansionVectorEqualHelper@ATL@@@ATL@@QEAAHAEBQEA_W0@Z 000000018002ce1c     Scanner.obj
 0002:0000ae1c       $unwind$?type_case_Z@?$output_processor@_WV?$string_output_adapter@_W@__crt_stdio_output@@V?$format_validation_base@_WV?$string_output_adapter@_W@__crt_stdio_output@@@2@@__crt_stdio_output@@AEAA_NXZ 000000018002ce1c     libucrt:output.obj
 0002:0000ae1c       $unwind$?Add@CComDynamicUnkArray@ATL@@QEAAKPEAUIUnknown@@@Z 000000018002ce1c     Scanner.obj
 0002:0000ae1c       $unwind$??0_LocaleUpdate@@QEAA@QEAU__crt_locale_pointers@@@Z 000000018002ce1c     libucrt:output.obj
 0002:0000ae1c       $unwind$_DllMainCRTStartup 000000018002ce1c     LIBCMT:dll_dllmain.obj
 0002:0000ae1c       $unwind$__vcrt_getptd_noexit 000000018002ce1c     libvcruntime:per_thread_data.obj
 0002:0000ae1c       $unwind$__acrt_execute_initializers 000000018002ce1c     libucrt:shared_initialization.obj
 0002:0000ae1c       $unwind$?SetBSTR_InOutPtr@OposVariant@@QEAA_NPEAPEA_WAEAJ@Z 000000018002ce1c     OposVariant.obj
 0002:0000ae1c       $unwind$?RegisterServer@CComModule@ATL@@QEAAJHPEBU_GUID@@@Z 000000018002ce1c     Scanner.obj
 0002:0000ae1c       $unwind$?Term@CAtlComModule@ATL@@QEAAXXZ 000000018002ce1c     OposVariant.obj
 0002:0000ae1c       $unwind$?SetString@OposVariant@@QEAAXPEB_WAEAJ@Z 000000018002ce1c     OposVariant.obj
 0002:0000ae1c       $unwind$?UnregisterServer@CComModule@ATL@@QEAAJHPEBU_GUID@@@Z 000000018002ce1c     Scanner.obj
 0002:0000ae1c       $unwind$??_GCComModule@ATL@@UEAAPEAXI@Z 000000018002ce1c     Scanner.obj
 0002:0000ae1c       $unwind$__vcrt_InitializeCriticalSectionEx 000000018002ce1c     libvcruntime:winapi_downlevel.obj
 0002:0000ae1c       $unwind$?FrameUnwindToEmptyState@__FrameHandler3@@SAXPEA_KPEAU_xDISPATCHER_CONTEXT@@PEBU_s_FuncInfo@@@Z 000000018002ce1c     libvcruntime:risctrnsctrl.obj
 0002:0000ae1c       $unwind$?ClearReplacements@CExpansionVector@ATL@@QEAAJXZ 000000018002ce1c     Scanner.obj
 0002:0000ae1c       $unwind$?CatchTryBlock@__FrameHandler3@@SAPEBU_s_TryBlockMapEntry@@PEBU_s_FuncInfo@@H@Z 000000018002ce1c     libvcruntime:risctrnsctrl.obj
 0002:0000ae1c       $unwind$__acrt_getptd      000000018002ce1c     libucrt:per_thread_data.obj
 0002:0000ae1c       $unwind$?type_case_n@?$output_processor@_WV?$string_output_adapter@_W@__crt_stdio_output@@V?$format_validation_base@_WV?$string_output_adapter@_W@__crt_stdio_output@@@2@@__crt_stdio_output@@AEAA_NXZ 000000018002ce1c     libucrt:output.obj
 0002:0000ae1c       $unwind$?SetDispatch_Ptr@OposVariant@@QEAAXPEAUIDispatch@@AEAJ@Z 000000018002ce1c     OposVariant.obj
 0002:0000ae1c       $unwind$?VTFromRegType@CRegParser@ATL@@KAHPEB_WAEAG@Z 000000018002ce1c     Scanner.obj
 0002:0000ae1c       $unwind$??0OposDispParms@@QEAA@PEAVOposVariant@@H@Z 000000018002ce1c     OposVariant.obj
 0002:0000ae1c       $unwind$?Advise@?$IOleObjectImpl@VCOPOSScanner@@@ATL@@UEAAJPEAUIAdviseSink@@PEAK@Z 000000018002ce1c     Scanner.obj
 0002:0000ae2c       $unwind$??1?$CComEnumImpl@UIEnumConnectionPoints@@$1?_GUID_b196b285_bab4_101a_b69c_00aa00341d07@@3U__s_GUID@@BPEAUIConnectionPoint@@V?$_CopyInterface@UIConnectionPoint@@@ATL@@@ATL@@UEAA@XZ 000000018002ce2c     Scanner.obj
 0002:0000ae2c       $unwind$?SetUnwindTryBlock@__FrameHandler3@@SAXPEA_KPEAU_xDISPATCHER_CONTEXT@@PEBU_s_FuncInfo@@H@Z 000000018002ce2c     libvcruntime:ehstate.obj
 0002:0000ae2c       $unwind$?SOStatusUpdate@COPOSScanner@@MEAAJJ@Z 000000018002ce2c     Scanner.obj
 0002:0000ae2c       $unwind$__acrt_uninitialize_lowio 000000018002ce2c     libucrt:ioinit.obj
 0002:0000ae2c       $unwind$?SOData@COPOSScanner@@MEAAJJ@Z 000000018002ce2c     Scanner.obj
 0002:0000ae2c       $unwind$__vcrt_FlsSetValue 000000018002ce2c     libvcruntime:winapi_downlevel.obj
 0002:0000ae2c       $unwind$?InitNew@?$IPersistStorageImpl@VCOPOSScanner@@@ATL@@UEAAJPEAUIStorage@@@Z 000000018002ce2c     Scanner.obj
 0002:0000ae2c       $unwind$?IsDirty@?$IPersistStorageImpl@VCOPOSScanner@@@ATL@@UEAAJXZ 000000018002ce2c     Scanner.obj
 0002:0000ae2c       $unwind$__acrt_errno_map_os_error 000000018002ce2c     libucrt:errno.obj
 0002:0000ae2c       $unwind$?SetAdvise@?$IViewObjectExImpl@VCOPOSScanner@@@ATL@@UEAAJKKPEAUIAdviseSink@@@Z 000000018002ce2c     Scanner.obj
 0002:0000ae2c       $unwind$?IOleObject_SetClientSite@CComControlBase@ATL@@QEAAJPEAUIOleClientSite@@@Z 000000018002ce2c     Scanner.obj
 0002:0000ae2c       $unwind$__acrt_execute_uninitializers 000000018002ce2c     libucrt:shared_initialization.obj
 0002:0000ae2c       $unwind$??$GetProcAddressAll@P6AXPEAUAtlThunkData_t@@@Z@@YAP6AXPEAUAtlThunkData_t@@@ZPEAP6AX0@Z@Z 000000018002ce2c     atls:atlthunk.obj
 0002:0000ae2c       $unwind$??_GCComClassFactory@ATL@@UEAAPEAXI@Z 000000018002ce2c     Scanner.obj
 0002:0000ae2c       $unwind$?Term@CComModule@ATL@@QEAAXXZ 000000018002ce2c     Scanner.obj
 0002:0000ae2c       $unwind$?DeleteSubKey@CRegKey@ATL@@QEAAJPEB_W@Z 000000018002ce2c     Scanner.obj
 0002:0000ae2c       $unwind$?WriteToStream@CComBSTR@ATL@@QEAAJPEAUIStream@@@Z 000000018002ce2c     Scanner.obj
 0002:0000ae2c       $unwind$_RTC_Initialize    000000018002ce2c     LIBCMT:initsect.obj
 0002:0000ae2c       $unwind$?SetBSTR@OposVariant@@QEAAXPEA_WAEAJ@Z 000000018002ce2c     OposVariant.obj
 0002:0000ae2c       $unwind$?SetLONG@OposVariant@@QEAAXJ@Z 000000018002ce2c     OposVariant.obj
 0002:0000ae2c       $unwind$?SetVARIANT_BOOL@OposVariant@@QEAAXF@Z 000000018002ce2c     OposVariant.obj
 0002:0000ae2c       $unwind$wcsncpy_s          000000018002ce2c     libucrt:wcsncpy_s.obj
 0002:0000ae2c       $unwind$??$GetProcAddressAll@P6AXPEAUAtlThunkData_t@@PEAX_K@Z@@YAP6AXPEAUAtlThunkData_t@@PEAX_K@ZPEAP6AX012@Z@Z 000000018002ce2c     atls:atlthunk.obj
 0002:0000ae2c       $unwind$_close_nolock      000000018002ce2c     libucrt:close.obj
 0002:0000ae2c       $unwind$??$GetProcAddressAll@P6APEAUAtlThunkData_t@@XZ@@YAP6APEAUAtlThunkData_t@@XZPEAP6APEAU0@XZ@Z 000000018002ce2c     atls:atlthunk.obj
 0002:0000ae2c       $unwind$??$GetProcAddressAll@P6AP6A_JPEAUHWND__@@I_K_J@ZPEAUAtlThunkData_t@@@Z@@YAP6AP6A_JPEAUHWND__@@I_K_J@ZPEAUAtlThunkData_t@@@ZPEAP6AP6A_J0I12@Z3@Z@Z 000000018002ce2c     atls:atlthunk.obj
 0002:0000ae2c       $unwind$?__AllocStdCallThunk_cmn@@YAPEAXXZ 000000018002ce2c     atls:atlthunk.obj
 0002:0000ae2c       $unwind$??$common_initialize_environment_nolock@D@@YAHXZ 000000018002ce2c     libucrt:environment_initialization.obj
 0002:0000ae2c       $unwind$?__InitializeThunkPool@@YAHXZ 000000018002ce2c     atls:atlthunk.obj
 0002:0000ae2c       $unwind$AtlThunk_DataToCode 000000018002ce2c     atls:atlthunk.obj
 0002:0000ae2c       $unwind$??0CAtlBaseModule@ATL@@QEAA@XZ 000000018002ce2c     atls:atlbase.obj
 0002:0000ae2c       $unwind$??_Gbad_exception@std@@UEAAPEAXI@Z 000000018002ce2c     libvcruntime:frame.obj
 0002:0000ae2c       $unwind$__acrt_fp_strflt_to_string 000000018002ce2c     libucrt:_fptostr.obj
 0002:0000ae2c       $unwind$_fclose_nolock     000000018002ce2c     libucrt:fclose.obj
 0002:0000ae2c       $unwind$_initterm_e        000000018002ce2c     libucrt:initterm.obj
 0002:0000ae2c       $unwind$_FindAndUnlinkFrame 000000018002ce2c     libvcruntime:risctrnsctrl.obj
 0002:0000ae2c       $unwind$??_Gbad_array_new_length@std@@UEAAPEAXI@Z 000000018002ce2c     LIBCMT:throw_bad_alloc.obj
 0002:0000ae2c       $unwind$??_Gbad_alloc@std@@UEAAPEAXI@Z 000000018002ce2c     LIBCMT:throw_bad_alloc.obj
 0002:0000ae2c       $unwind$__acrt_LocaleNameToLCID 000000018002ce2c     libucrt:winapi_thunks.obj
 0002:0000ae2c       $unwind$?replace_current_thread_locale_nolock@@YAXQEAU__acrt_ptd@@QEAU__crt_locale_data@@@Z 000000018002ce2c     libucrt:per_thread_data.obj
 0002:0000ae2c       $unwind$_updatetlocinfoEx_nolock 000000018002ce2c     libucrt:locale_refcounting.obj
 0002:0000ae2c       $unwind$??_Gexception@std@@UEAAPEAXI@Z 000000018002ce2c     LIBCMT:throw_bad_alloc.obj
 0002:0000ae2c       $unwind$DllMain            000000018002ce2c     Scanner.obj
 0002:0000ae2c       $unwind$??1?$IConnectionPointImpl@VCOPOSScanner@@$1?DIID__IOPOSScannerEvents@@3U_GUID@@BVCComDynamicUnkArray@ATL@@@ATL@@QEAA@XZ 000000018002ce2c     ScannerImpl.obj
 0002:0000ae2c       $unwind$__acrt_FlsSetValue 000000018002ce2c     libucrt:winapi_thunks.obj
 0002:0000ae2c       $unwind$??1?$IConnectionPointImpl@VCOPOSScanner@@$1?IID_IPropertyNotifySink@@3U_GUID@@BVCComDynamicUnkArray@ATL@@@ATL@@QEAA@XZ 000000018002ce2c     ScannerImpl.obj
 0002:0000ae2c       $unwind$_RTC_Terminate     000000018002ce2c     LIBCMT:initsect.obj
 0002:0000ae2c       $unwind$??_G?$CComObject@V?$CComEnum@UIEnumConnections@@$1?_GUID_b196b287_bab4_101a_b69c_00aa00341d07@@3U__s_GUID@@BUtagCONNECTDATA@@V?$_Copy@UtagCONNECTDATA@@@ATL@@VCComSingleThreadModel@6@@ATL@@@ATL@@UEAAPEAXI@Z 000000018002ce2c     Scanner.obj
 0002:0000ae2c       $unwind$?CreateInstance@?$CComObject@V?$CComEnum@UIEnumConnections@@$1?_GUID_b196b287_bab4_101a_b69c_00aa00341d07@@3U__s_GUID@@BUtagCONNECTDATA@@V?$_Copy@UtagCONNECTDATA@@@ATL@@VCComSingleThreadModel@6@@ATL@@@ATL@@SAJPEAPEAV12@@Z 000000018002ce2c     Scanner.obj
 0002:0000ae2c       $unwind$?Release@?$CComObject@V?$CComEnum@UIEnumConnections@@$1?_GUID_b196b287_bab4_101a_b69c_00aa00341d07@@3U__s_GUID@@BUtagCONNECTDATA@@V?$_Copy@UtagCONNECTDATA@@@ATL@@VCComSingleThreadModel@6@@ATL@@@ATL@@UEAAKXZ 000000018002ce2c     Scanner.obj
 0002:0000ae2c       $unwind$??1?$CComEnumImpl@UIEnumConnections@@$1?_GUID_b196b287_bab4_101a_b69c_00aa00341d07@@3U__s_GUID@@BUtagCONNECTDATA@@V?$_Copy@UtagCONNECTDATA@@@ATL@@@ATL@@UEAA@XZ 000000018002ce2c     Scanner.obj
 0002:0000ae2c       $unwind$_realloc_base      000000018002ce2c     libucrt:realloc_base.obj
 0002:0000ae2c       $unwind$?__scrt_initialize_thread_safe_statics@@YAHXZ 000000018002ce2c     LIBCMT:thread_safe_statics.obj
 0002:0000ae2c       $unwind$??_G?$CComObject@VCOPOSScanner@@@ATL@@UEAAPEAXI@Z 000000018002ce2c     Scanner.obj
 0002:0000ae2c       $unwind$?Release@?$CComObject@VCOPOSScanner@@@ATL@@UEAAKXZ 000000018002ce2c     Scanner.obj
 0002:0000ae2c       $unwind$??_G?$CComAggObject@VCOPOSScanner@@@ATL@@UEAAPEAXI@Z 000000018002ce2c     Scanner.obj
 0002:0000ae2c       $unwind$??_G?$CComContainedObject@VCOPOSScanner@@@ATL@@UEAAPEAXI@Z 000000018002ce2c     Scanner.obj
 0002:0000ae2c       $unwind$??0?$CComContainedObject@VCOPOSScanner@@@ATL@@QEAA@PEAX@Z 000000018002ce2c     Scanner.obj
 0002:0000ae2c       $unwind$?Release@?$CComAggObject@VCOPOSScanner@@@ATL@@UEAAKXZ 000000018002ce2c     Scanner.obj
 0002:0000ae2c       $unwind$??_G?$CComObjectCached@VCComClassFactory@ATL@@@ATL@@UEAAPEAXI@Z 000000018002ce2c     Scanner.obj
 0002:0000ae2c       $unwind$??_G?$CComObject@V?$CComEnum@UIEnumConnectionPoints@@$1?_GUID_b196b285_bab4_101a_b69c_00aa00341d07@@3U__s_GUID@@BPEAUIConnectionPoint@@V?$_CopyInterface@UIConnectionPoint@@@ATL@@VCComSingleThreadModel@6@@ATL@@@ATL@@UEAAPEAXI@Z 000000018002ce2c     Scanner.obj
 0002:0000ae2c       $unwind$?CreateInstance@?$CComObject@V?$CComEnum@UIEnumConnectionPoints@@$1?_GUID_b196b285_bab4_101a_b69c_00aa00341d07@@3U__s_GUID@@BPEAUIConnectionPoint@@V?$_CopyInterface@UIConnectionPoint@@@ATL@@VCComSingleThreadModel@6@@ATL@@@ATL@@SAJPEAPEAV12@@Z 000000018002ce2c     Scanner.obj
 0002:0000ae2c       $unwind$strncpy_s          000000018002ce2c     libucrt:strncpy_s.obj
 0002:0000ae2c       $unwind$?Release@?$CComObject@V?$CComEnum@UIEnumConnectionPoints@@$1?_GUID_b196b285_bab4_101a_b69c_00aa00341d07@@3U__s_GUID@@BPEAUIConnectionPoint@@V?$_CopyInterface@UIConnectionPoint@@@ATL@@VCComSingleThreadModel@6@@ATL@@@ATL@@UEAAKXZ 000000018002ce2c     Scanner.obj
 0002:0000ae38       $unwind$?ChangeLONG@OposVariant@@QEAAXPEAJAEAJ@Z 000000018002ce38     OposVariant.obj
 0002:0000ae38       $unwind$?x_ismbbtype_l@@YAHPEAU__crt_locale_pointers@@IHH@Z 000000018002ce38     libucrt:ismbbyte.obj
 0002:0000ae38       $unwind$?ChangeBSTR@OposVariant@@QEAAXPEAPEA_WAEAJ@Z 000000018002ce38     OposVariant.obj
 0002:0000ae48       $unwind$swprintf_s         000000018002ce48     Scanner.obj
 0002:0000ae58       $unwind$?_AtlVerifyStackAvailable@_ATL_SAFE_ALLOCA_IMPL@ATL@@YA_N_K@Z 000000018002ce58     Scanner.obj
 0002:0000ae84       $unwind$?fin$0@?0??dllmain_crt_process_detach@@YAH_N@Z@4HA 000000018002ce84     LIBCMT:dll_dllmain.obj
 0002:0000ae84       $unwind$?fin$0@?0???$?RV<lambda_f2e299630e499de9f9a165e60fcd3db5>@@AEAV<lambda_2ae9d31cdba2644fcbeaf08da7c24588>@@V<lambda_40d01ff24d0e7b3814fdbdcee8eab3c7>@@@?$__crt_seh_guarded_call@X@@QEAAX$$QEAV<lambda_f2e299630e499de9f9a165e60fcd3db5>@@AEAV<lambda_2ae9d31cdba2644fcbeaf08da7c24588>@@$$QEAV<lambda_40d01ff24d0e7b3814fdbdcee8eab3c7>@@@Z@4HA 000000018002ce84     libucrt:per_thread_data.obj
 0002:0000ae84       $unwind$?fin$0@?0??dllmain_crt_process_attach@@YAHQEAUHINSTANCE__@@QEAX@Z@4HA 000000018002ce84     LIBCMT:dll_dllmain.obj
 0002:0000ae84       $unwind$__DestructExceptionObject$filt$0 000000018002ce84     libvcruntime:ehhelpers.obj
 0002:0000ae84       $unwind$?fin$0@?0???$?RV<lambda_886d6c58226a84441f68b9f2b8217b83>@@AEAV<lambda_ab61a845afdef5b7c387490eaf3616ee>@@V<lambda_f7f22ab5edc0698d5f6905b0d3f44752>@@@?$__crt_seh_guarded_call@X@@QEAAX$$QEAV<lambda_886d6c58226a84441f68b9f2b8217b83>@@AEAV<lambda_ab61a845afdef5b7c387490eaf3616ee>@@$$QEAV<lambda_f7f22ab5edc0698d5f6905b0d3f44752>@@@Z@4HA 000000018002ce84     libucrt:fflush.obj
 0002:0000ae84       $unwind$__acrt_initialize_lowio$fin$0 000000018002ce84     libucrt:ioinit.obj
 0002:0000ae84       $unwind$?fin$0@?0???$?RV<lambda_efdfa57d1f175319df784efa44bb7b81>@@AEAV<lambda_5f0a4c1567f8adc6734073e5d1e1b35c>@@V<lambda_2e8a7d3640ea6ccb4c2413664c2db6fd>@@@?$__crt_seh_guarded_call@X@@QEAAX$$QEAV<lambda_efdfa57d1f175319df784efa44bb7b81>@@AEAV<lambda_5f0a4c1567f8adc6734073e5d1e1b35c>@@$$QEAV<lambda_2e8a7d3640ea6ccb4c2413664c2db6fd>@@@Z@4HA 000000018002ce84     libucrt:mbctype.obj
 0002:0000ae84       $unwind$?fin$0@?0???$?RV<lambda_410d79af7f07d98d83a3f525b3859a53>@@AEAV<lambda_3e16ef9562a7dcce91392c22ab16ea36>@@V<lambda_38119f0e861e05405d8a144b9b982f0a>@@@?$__crt_seh_guarded_call@X@@QEAAX$$QEAV<lambda_410d79af7f07d98d83a3f525b3859a53>@@AEAV<lambda_3e16ef9562a7dcce91392c22ab16ea36>@@$$QEAV<lambda_38119f0e861e05405d8a144b9b982f0a>@@@Z@4HA 000000018002ce84     libucrt:wsetlocale.obj
 0002:0000ae84       $unwind$?fin$0@?0???$?RV<lambda_450d765d439847d4c735a33c368b5fc0>@@AEAV<lambda_44731a7d0e6d81c3e6aa82d741081786>@@V<lambda_601a2a7da3b7a96e9554ac7215c4b07c>@@@?$__crt_seh_guarded_call@P6AXH@Z@@QEAAP6AXH@Z$$QEAV<lambda_450d765d439847d4c735a33c368b5fc0>@@AEAV<lambda_44731a7d0e6d81c3e6aa82d741081786>@@$$QEAV<lambda_601a2a7da3b7a96e9554ac7215c4b07c>@@@Z@4HA 000000018002ce84     libucrt:signal.obj
 0002:0000ae84       $unwind$_IsNonwritableInCurrentImage$filt$0 000000018002ce84     LIBCMT:pesect.obj
 0002:0000ae84       $unwind$raise$fin$0        000000018002ce84     libucrt:signal.obj
 0002:0000ae84       $unwind$_ctrlfp$filt$0     000000018002ce84     libucrt:fpctrl.obj
 0002:0000ae84       $unwind$?fin$0@?0???$?RV<lambda_aa87e3671a710a21b5dc78c0bdf72e11>@@AEAV<lambda_92619d2358a28f41a33ba319515a20b9>@@V<lambda_6992ecaafeb10aed2b74cb1fae11a551>@@@?$__crt_seh_guarded_call@X@@QEAAX$$QEAV<lambda_aa87e3671a710a21b5dc78c0bdf72e11>@@AEAV<lambda_92619d2358a28f41a33ba319515a20b9>@@$$QEAV<lambda_6992ecaafeb10aed2b74cb1fae11a551>@@@Z@4HA 000000018002ce84     libucrt:per_thread_data.obj
 0002:0000ae84       $unwind$_query_new_handler$fin$0 000000018002ce84     libucrt:new_handler.obj
 0002:0000ae84       $unwind$?filt$0@?0??_AtlVerifyStackAvailable@_ATL_SAFE_ALLOCA_IMPL@ATL@@YA_N_K@Z@4HA 000000018002ce84     Scanner.obj
 0002:0000ae84       $unwind$_write$fin$0       000000018002ce84     libucrt:write.obj
 0002:0000ae84       $unwind$__acrt_update_thread_locale_data$fin$0 000000018002ce84     libucrt:locale_refcounting.obj
 0002:0000ae84       $unwind$?fin$0@?0???$?RV<lambda_a37b2b86f63e897a80ea819b0eb08c01>@@AEAV<lambda_38ce7e780aa69e748d6df282ebc68efe>@@V<lambda_99fb1378e971ab6e7edea83e3a7a83a2>@@@?$__crt_seh_guarded_call@H@@QEAAH$$QEAV<lambda_a37b2b86f63e897a80ea819b0eb08c01>@@AEAV<lambda_38ce7e780aa69e748d6df282ebc68efe>@@$$QEAV<lambda_99fb1378e971ab6e7edea83e3a7a83a2>@@@Z@4HA 000000018002ce84     libucrt:commit.obj
 0002:0000ae84       $unwind$?filt$0@?0??FrameUnwindToState@__FrameHandler3@@SAXPEA_KPEAU_xDISPATCHER_CONTEXT@@PEBU_s_FuncInfo@@H@Z@4HA 000000018002ce84     libvcruntime:frame.obj
 0002:0000ae84       $unwind$?fin$1@?0??FrameUnwindToState@__FrameHandler3@@SAXPEA_KPEAU_xDISPATCHER_CONTEXT@@PEBU_s_FuncInfo@@H@Z@4HA 000000018002ce84     libvcruntime:frame.obj
 0002:0000ae84       $unwind$?filt$0@?0???R<lambda_6e4b09c48022b2350581041d5f6b0c4c>@@QEBA@XZ@4HA 000000018002ce84     libucrt:exit.obj
 0002:0000ae84       $unwind$?fin$0@?0???$?RV<lambda_751a882b2c74d4b022dec766aa51a29a>@@AEAV<lambda_628dfdc04ba53c8bfc02c9951375f3f5>@@V<lambda_f6c7be5f7998530c34de24c7437d6b54>@@@?$__crt_seh_guarded_call@H@@QEAAH$$QEAV<lambda_751a882b2c74d4b022dec766aa51a29a>@@AEAV<lambda_628dfdc04ba53c8bfc02c9951375f3f5>@@$$QEAV<lambda_f6c7be5f7998530c34de24c7437d6b54>@@@Z@4HA 000000018002ce84     libucrt:close.obj
 0002:0000ae84       $unwind$?fin$0@?0???$?RV<lambda_d80eeec6fff315bfe5c115232f3240e3>@@AEAV<lambda_6e4b09c48022b2350581041d5f6b0c4c>@@V<lambda_2358e3775559c9db80273638284d5e45>@@@?$__crt_seh_guarded_call@X@@QEAAX$$QEAV<lambda_d80eeec6fff315bfe5c115232f3240e3>@@AEAV<lambda_6e4b09c48022b2350581041d5f6b0c4c>@@$$QEAV<lambda_2358e3775559c9db80273638284d5e45>@@@Z@4HA 000000018002ce84     libucrt:exit.obj
 0002:0000ae84       $unwind$?filt$0@?0??CxxCallCatchBlock@__FrameHandler3@@SAPEAXPEAU_EXCEPTION_RECORD@@@Z@4HA 000000018002ce84     libvcruntime:frame.obj
 0002:0000ae84       $unwind$__acrt_lowio_ensure_fh_exists$fin$0 000000018002ce84     libucrt:osfinfo.obj
 0002:0000ae84       $unwind$?fin$0@?0??update_thread_multibyte_data_internal@@YAPEAU__crt_multibyte_data@@QEAU__acrt_ptd@@QEAPEAU1@@Z@4HA 000000018002ce84     libucrt:mbctype.obj
 0002:0000ae84       $unwind$?fin$0@?0???$?RV<lambda_7777bce6b2f8c936911f934f8298dc43>@@AEAV<lambda_f03950bc5685219e0bcd2087efbe011e>@@V<lambda_3883c3dff614d5e0c5f61bb1ac94921c>@@@?$__crt_seh_guarded_call@H@@QEAAH$$QEAV<lambda_7777bce6b2f8c936911f934f8298dc43>@@AEAV<lambda_f03950bc5685219e0bcd2087efbe011e>@@$$QEAV<lambda_3883c3dff614d5e0c5f61bb1ac94921c>@@@Z@4HA 000000018002ce84     libucrt:onexit.obj
 0002:0000ae84       $unwind$?fin$0@?0???$?RV<lambda_2d41944a1d46af3157314b8a01080d33>@@AEAV<lambda_8f455de75cd7d7f24b4096f044d8b9e6>@@V<lambda_aa500f224e6afead328df44964fe2772>@@@?$__crt_seh_guarded_call@X@@QEAAX$$QEAV<lambda_2d41944a1d46af3157314b8a01080d33>@@AEAV<lambda_8f455de75cd7d7f24b4096f044d8b9e6>@@$$QEAV<lambda_aa500f224e6afead328df44964fe2772>@@@Z@4HA 000000018002ce84     libucrt:per_thread_data.obj
 0002:0000ae84       $unwind$?fin$0@?0???$?RV<lambda_0ae27a3a962d80f24befdcbee591983d>@@AEAV<lambda_8d0ee55de4b1038c4002e0adecdf1839>@@V<lambda_dc504788e8f1664fe9b84e20bfb512f2>@@@?$__crt_seh_guarded_call@X@@QEAAX$$QEAV<lambda_0ae27a3a962d80f24befdcbee591983d>@@AEAV<lambda_8d0ee55de4b1038c4002e0adecdf1839>@@$$QEAV<lambda_dc504788e8f1664fe9b84e20bfb512f2>@@@Z@4HA 000000018002ce84     libucrt:per_thread_data.obj
 0002:0000ae84       $unwind$_fcloseall$fin$0   000000018002ce84     libucrt:closeall.obj
 0002:0000ae84       $unwind$?fin$0@?0???$?RV<lambda_842d9ff0dc9ef11c61343bbaebe7f885>@@AEAV<lambda_c5860995281e5c4ce005b3de8f5874ee>@@V<lambda_d90129c13df834fdcbf8d2b88dafcf2d>@@@?$__crt_seh_guarded_call@X@@QEAAX$$QEAV<lambda_842d9ff0dc9ef11c61343bbaebe7f885>@@AEAV<lambda_c5860995281e5c4ce005b3de8f5874ee>@@$$QEAV<lambda_d90129c13df834fdcbf8d2b88dafcf2d>@@@Z@4HA 000000018002ce84     libucrt:fflush.obj
 0002:0000ae84       $unwind$?fin$0@?0???$?RV<lambda_638799b9deba96c50f710eeac98168cd>@@AEAV<lambda_22ebabd17bc4fa466a2aca6d8deb888d>@@V<lambda_a6f7d7db0129f75315ebf26d50c089f1>@@@?$__crt_seh_guarded_call@H@@QEAAH$$QEAV<lambda_638799b9deba96c50f710eeac98168cd>@@AEAV<lambda_22ebabd17bc4fa466a2aca6d8deb888d>@@$$QEAV<lambda_a6f7d7db0129f75315ebf26d50c089f1>@@@Z@4HA 000000018002ce84     libucrt:onexit.obj
 0002:0000ae84       $unwind$fclose$fin$0       000000018002ce84     libucrt:fclose.obj
 0002:0000ae8c       $unwind$?AtlInternalOleLoadFromStream@ATL@@YAJPEAUIStream@@AEBU_GUID@@PEAPEAXTClassesAllowedInStream@1@K@Z 000000018002ce8c     Scanner.obj
 0002:0000aea8       $unwind$?Close@COPOSScanner@@UEAAJPEAJ@Z 000000018002cea8     ScannerImpl.obj
 0002:0000aea8       $unwind$?PutProperty@?$CComPtr@UIDispatch@@@ATL@@SAJPEAUIDispatch@@JPEAUtagVARIANT@@@Z 000000018002cea8     Scanner.obj
 0002:0000aeb4       $unwind$?ReadFromStream@CComBSTR@ATL@@QEAAJPEAUIStream@@@Z 000000018002ceb4     Scanner.obj
 0002:0000aeb4       $unwind$_configure_narrow_argv 000000018002ceb4     libucrt:argv_parsing.obj
 0002:0000aec8       $unwind$?WriteToStream@CComVariant@ATL@@QEAAJPEAUIStream@@@Z 000000018002cec8     Scanner.obj
 0002:0000aedc       $unwind$?RegOpenKeyExW@CAtlTransactionManager@ATL@@QEAAJPEAUHKEY__@@PEB_WKKPEAPEAU3@@Z 000000018002cedc     Scanner.obj
 0002:0000aedc       $unwind$?WriteToStream@CComVariant@ATL@@QEAAJPEAUIStream@@G@Z 000000018002cedc     Scanner.obj
 0002:0000aedc       $unwind$__dcrt_write_console 000000018002cedc     libucrt:initcon.obj
 0002:0000aedc       $unwind$??$__acrt_wcs_to_mbs_cp@U__crt_win32_buffer_no_resizing@@@@YAHQEB_WAEAV?$__crt_win32_buffer@DU__crt_win32_buffer_no_resizing@@@@I@Z 000000018002cedc     libucrt:getmodulefilenamea.obj
 0002:0000aef0       $unwind$?ReadFromStream@CComVariant@ATL@@QEAAJPEAUIStream@@GTClassesAllowedInStream@2@K@Z 000000018002cef0     Scanner.obj
 0002:0000af08       $unwind$?GetSizeMax@CComVariant@ATL@@QEBAJPEAT_ULARGE_INTEGER@@@Z 000000018002cf08     Scanner.obj
 0002:0000af20       $unwind$__acrt_fp_format   000000018002cf20     libucrt:cvt.obj
 0002:0000af20       $unwind$?RegCreateKeyExW@CAtlTransactionManager@ATL@@QEAAJPEAUHKEY__@@PEB_WKPEA_WKKQEAU_SECURITY_ATTRIBUTES@@PEAPEAU3@PEAK@Z 000000018002cf20     Scanner.obj
 0002:0000af34       $unwind$?GetGITPtr@CAtlModule@ATL@@UEAAJPEAPEAUIGlobalInterfaceTable@@@Z 000000018002cf34     Scanner.obj
 0002:0000af34       $unwind$?RegDeleteKeyW@CAtlTransactionManager@ATL@@QEAAJPEAUHKEY__@@PEB_W@Z 000000018002cf34     Scanner.obj
 0002:0000af34       $unwind$strpbrk            000000018002cf34     libucrt:strpbrk.obj
 0002:0000af44       $unwind$?AtlInternalQueryInterface@ATL@@YAJPEAXPEBU_ATL_INTMAP_ENTRY@1@AEBU_GUID@@PEAPEAX@Z 000000018002cf44     Scanner.obj
 0002:0000af44       $unwind$?AtlHiMetricToPixel@ATL@@YAXPEBUtagSIZE@@PEAU2@@Z 000000018002cf44     Scanner.obj
 0002:0000af5c       $unwind$?type_case_integer@?$output_processor@_WV?$string_output_adapter@_W@__crt_stdio_output@@V?$format_validation_base@_WV?$string_output_adapter@_W@__crt_stdio_output@@@2@@__crt_stdio_output@@AEAA_NI_N@Z 000000018002cf5c     libucrt:output.obj
 0002:0000af5c       $unwind$__acrt_DownlevelLocaleNameToLCID 000000018002cf5c     libucrt:lcidtoname_downlevel.obj
 0002:0000af5c       $unwind$?NextToken@CRegParser@ATL@@IEAAJPEA_W@Z 000000018002cf5c     Scanner.obj
 0002:0000af5c       $unwind$??R<lambda_f03950bc5685219e0bcd2087efbe011e>@@QEBAHXZ 000000018002cf5c     libucrt:onexit.obj
 0002:0000af5c       $unwind$?Init@?$CComEnumImpl@UIEnumConnections@@$1?_GUID_b196b287_bab4_101a_b69c_00aa00341d07@@3U__s_GUID@@BUtagCONNECTDATA@@V?$_Copy@UtagCONNECTDATA@@@ATL@@@ATL@@QEAAJPEAUtagCONNECTDATA@@0PEAUIUnknown@@W4CComEnumFlags@2@@Z 000000018002cf5c     Scanner.obj
 0002:0000af5c       $unwind$?Init@?$CComEnumImpl@UIEnumConnectionPoints@@$1?_GUID_b196b285_bab4_101a_b69c_00aa00341d07@@3U__s_GUID@@BPEAUIConnectionPoint@@V?$_CopyInterface@UIConnectionPoint@@@ATL@@@ATL@@QEAAJPEAPEAUIConnectionPoint@@0PEAUIUnknown@@W4CComEnumFlags@2@@Z 000000018002cf5c     Scanner.obj
 0002:0000af5c       $unwind$?GetClassObject@CComModule@ATL@@QEAAJAEBU_GUID@@0PEAPEAX@Z 000000018002cf5c     Scanner.obj
 0002:0000af5c       $unwind$?AtlComModuleGetClassObject@ATL@@YAJPEAU_ATL_COM_MODULE70@1@AEBU_GUID@@1PEAPEAX@Z 000000018002cf5c     Scanner.obj
 0002:0000af74       $unwind$?AtlRegisterClassCategoriesHelper@ATL@@YAJAEBU_GUID@@PEBU_ATL_CATMAP_ENTRY@1@H@Z 000000018002cf74     Scanner.obj
 0002:0000af98       $unwind$?AtlLoadTypeLib@ATL@@YAJPEAUHINSTANCE__@@PEB_WPEAPEA_WPEAPEAUITypeLib@@@Z 000000018002cf98     Scanner.obj
 0002:0000afb8       $unwind$?AtlRegisterTypeLib@ATL@@YAJPEAUHINSTANCE__@@PEB_W@Z 000000018002cfb8     Scanner.obj
 0002:0000afd4       $unwind$?AtlUnRegisterTypeLib@ATL@@YAJPEAUHINSTANCE__@@PEB_W@Z 000000018002cfd4     Scanner.obj
 0002:0000afdc       $unwind$?atlCreate@CRegKey@ATL@@QEAAJPEAUHKEY__@@PEB_WPEA_WKKPEAU_SECURITY_ATTRIBUTES@@PEAK@Z 000000018002cfdc     Scanner.obj
 0002:0000afe8       $unwind$?Open@CRegKey@ATL@@QEAAJPEAUHKEY__@@PEB_WK@Z 000000018002cfe8     Scanner.obj
 0002:0000aff4       $unwind$?RecurseDeleteKey@CRegKey@ATL@@QEAAJPEB_W@Z 000000018002cff4     Scanner.obj
 0002:0000b010       $unwind$?UpdateRegistryFromResource@CAtlModule@ATL@@QEAAJPEB_WHPEAU_ATL_REGMAP_ENTRY@2@@Z 000000018002d010     Scanner.obj
 0002:0000b010       $unwind$?UpdateRegistryFromResource@CAtlModule@ATL@@QEAAJIHPEAU_ATL_REGMAP_ENTRY@2@@Z 000000018002d010     Scanner.obj
 0002:0000b030       $unwind$__std_exception_copy 000000018002d030     libvcruntime:std_exception.obj
 0002:0000b030       $unwind$?Lookup@?$CSimpleMap@PEA_WPEA_WVCExpansionVectorEqualHelper@ATL@@@ATL@@QEBAPEA_WAEBQEA_W@Z 000000018002d030     Scanner.obj
 0002:0000b030       $unwind$_free_osfhnd       000000018002d030     libucrt:osfinfo.obj
 0002:0000b044       $unwind$?Add@CExpansionVector@ATL@@QEAAHPEB_W0@Z 000000018002d044     Scanner.obj
 0002:0000b05c       $unwind$?PreProcessBuffer@CRegParser@ATL@@QEAAJPEA_WPEAPEA_W@Z 000000018002d05c     Scanner.obj
 0002:0000b080       $unwind$?RegisterBuffer@CRegParser@ATL@@QEAAJPEA_WH@Z 000000018002d080     Scanner.obj
 0002:0000b0a0       $unwind$?AddValue@CRegParser@ATL@@IEAAJAEAVCRegKey@2@PEB_WPEA_W@Z 000000018002d0a0     Scanner.obj
 0002:0000b0c0       $unwind$?RegisterSubkeys@CRegParser@ATL@@IEAAJPEA_WPEAUHKEY__@@HH@Z 000000018002d0c0     Scanner.obj
 0002:0000b0e0       $unwind$?SkipAssignment@CRegParser@ATL@@IEAAJPEA_W@Z 000000018002d0e0     Scanner.obj
 0002:0000b0f8       $unwind$?RegisterFromResource@CRegObject@ATL@@IEAAJPEB_W00H@Z 000000018002d0f8     Scanner.obj
 0002:0000b118       $unwind$?AtlIPersistStreamInit_Load@ATL@@YAJPEAUIStream@@PEBUATL_PROPMAP_ENTRY@1@PEAXPEAUIUnknown@@@Z 000000018002d118     Scanner.obj
 0002:0000b130       $unwind$?AtlIPersistStreamInit_Save@ATL@@YAJPEAUIStream@@HPEBUATL_PROPMAP_ENTRY@1@PEAXPEAUIUnknown@@@Z 000000018002d130     Scanner.obj
 0002:0000b14c       $unwind$?GetTI@CComTypeInfoHolder@ATL@@QEAAJK@Z 000000018002d14c     Scanner.obj
 0002:0000b16c       $unwind$AtlThunk_FreeData  000000018002d16c     atls:atlthunk.obj
 0002:0000b16c       $unwind$?Cleanup@CComTypeInfoHolder@ATL@@SAX_K@Z 000000018002d16c     Scanner.obj
 0002:0000b16c       $unwind$__acrt_locale_free_lc_time_if_unreferenced 000000018002d16c     libucrt:locale_refcounting.obj
 0002:0000b16c       $unwind$__acrt_locale_free_numeric 000000018002d16c     libucrt:initnum.obj
 0002:0000b16c       $unwind$_free_base         000000018002d16c     libucrt:free_base.obj
 0002:0000b16c       $unwind$?destroy_fls@@YAXPEAX@Z 000000018002d16c     libucrt:per_thread_data.obj
 0002:0000b174       $unwind$?GetIDsOfNames@CComTypeInfoHolder@ATL@@QEAAJAEBU_GUID@@PEAPEA_WIKPEAJ@Z 000000018002d174     Scanner.obj
 0002:0000b190       $unwind$?LoadNameCache@CComTypeInfoHolder@ATL@@QEAAJPEAUITypeInfo@@@Z 000000018002d190     Scanner.obj
 0002:0000b1a4       $unwind$??$parse_command_line@D@@YAXPEADPEAPEAD0PEA_K2@Z 000000018002d1a4     libucrt:argv_parsing.obj
 0002:0000b1a4       $unwind$?StartWindowProc@?$CWindowImplBaseT@VCWindow@ATL@@V?$CWinTraits@$0FGAAAAAA@$0A@@2@@ATL@@SA_JPEAUHWND__@@I_K_J@Z 000000018002d1a4     Scanner.obj
 0002:0000b1c0       $unwind$?WindowProc@?$CWindowImplBaseT@VCWindow@ATL@@V?$CWinTraits@$0FGAAAAAA@$0A@@2@@ATL@@SA_JPEAUHWND__@@I_K_J@Z 000000018002d1c0     Scanner.obj
 0002:0000b1d8       $unwind$?atlCreate@?$CWindowImplBaseT@VCWindow@ATL@@V?$CWinTraits@$0FGAAAAAA@$0A@@2@@ATL@@QEAAPEAUHWND__@@PEAU3@V_U_RECT@2@PEB_WKKV_U_MENUorID@2@GPEAX@Z 000000018002d1d8     Scanner.obj
 0002:0000b1f0       $unwind$??$AtlModuleRegisterWndClassInfoT@VAtlModuleRegisterWndClassInfoParamW@ATL@@@ATL@@YAGPEAU_ATL_BASE_MODULE70@0@PEAU_ATL_WIN_MODULE70@0@PEAU_ATL_WNDCLASSINFOW@0@PEAP6A_JPEAUHWND__@@I_K_J@ZVAtlModuleRegisterWndClassInfoParamW@0@@Z 000000018002d1f0     Scanner.obj
 0002:0000b210       $unwind$iswctype           000000018002d210     libucrt:iswctype.obj
 0002:0000b210       $unwind$?OnKillFocus@CComControlBase@ATL@@QEAA_JI_K_JAEAH@Z 000000018002d210     Scanner.obj
 0002:0000b210       $unwind$?GetZoomInfo@CComControlBase@ATL@@QEAAXAEAUATL_DRAWINFO@@@Z 000000018002d210     Scanner.obj
 0002:0000b21c       $unwind$?SendOnDataChange@CComControlBase@ATL@@QEAAJK@Z 000000018002d21c     Scanner.obj
 0002:0000b22c       $unwind$?OnSetFocus@CComControlBase@ATL@@QEAA_JI_K_JAEAH@Z 000000018002d22c     Scanner.obj
 0002:0000b23c       $unwind$?OnMouseActivate@CComControlBase@ATL@@QEAA_JI_K_JAEAH@Z 000000018002d23c     Scanner.obj
 0002:0000b244       $unwind$?GetAmbientUserMode@CComControlBase@ATL@@QEAAJAEAH@Z 000000018002d244     Scanner.obj
 0002:0000b244       $unwind$?GetAmbientLocaleID@CComControlBase@ATL@@QEAAJAEAK@Z 000000018002d244     Scanner.obj
 0002:0000b254       $unwind$?IQuickActivate_QuickActivate@CComControlBase@ATL@@QEAAJPEAUtagQACONTAINER@@PEAUtagQACONTROL@@@Z 000000018002d254     Scanner.obj
 0002:0000b26c       $unwind$?DoVerbProperties@CComControlBase@ATL@@QEAAJPEBUtagRECT@@PEAUHWND__@@@Z 000000018002d26c     Scanner.obj
 0002:0000b284       $unwind$?InPlaceActivate@CComControlBase@ATL@@QEAAJJPEBUtagRECT@@@Z 000000018002d284     Scanner.obj
 0002:0000b2a4       $unwind$?IOleObject_Close@CComControlBase@ATL@@QEAAJK@Z 000000018002d2a4     Scanner.obj
 0002:0000b2a4       $unwind$?type_case_c_tchar@?$output_processor@_WV?$string_output_adapter@_W@__crt_stdio_output@@V?$format_validation_base@_WV?$string_output_adapter@_W@__crt_stdio_output@@@2@@__crt_stdio_output@@AEAA_N_W@Z 000000018002d2a4     libucrt:output.obj
 0002:0000b2b4       $unwind$?IOleInPlaceObject_UIDeactivate@CComControlBase@ATL@@QEAAJXZ 000000018002d2b4     Scanner.obj
 0002:0000b2cc       $unwind$?IOleInPlaceObject_SetObjectRects@CComControlBase@ATL@@QEAAJPEBUtagRECT@@0@Z 000000018002d2cc     Scanner.obj
 0002:0000b2e0       $unwind$?IViewObject_Draw@CComControlBase@ATL@@QEAAJKJPEAXPEAUtagDVTARGETDEVICE@@PEAUHDC__@@2PEBU_RECTL@@3@Z 000000018002d2e0     Scanner.obj
 0002:0000b2fc       $unwind$?IDataObject_GetData@CComControlBase@ATL@@QEAAJPEAUtagFORMATETC@@PEAUtagSTGMEDIUM@@@Z 000000018002d2fc     Scanner.obj
 0002:0000b31c       $unwind$?OnPaint@CComControlBase@ATL@@QEAA_JI_K_JAEAH@Z 000000018002d31c     Scanner.obj
 0002:0000b338       $unwind$?OnDrawAdvanced@CComControlBase@ATL@@UEAAJAEAUATL_DRAWINFO@@@Z 000000018002d338     Scanner.obj
 0002:0000b350       $unwind$?Invoke@?$IDispatchImpl@UIOPOSScanner@@$1?IID_IOPOSScanner@@3U_GUID@@B$1?LIBID_OposScanner_CCO@@3U3@B$00$0A@VCComTypeInfoHolder@ATL@@@ATL@@UEAAJJAEBU_GUID@@KGPEAUtagDISPPARAMS@@PEAUtagVARIANT@@PEAUtagEXCEPINFO@@PEAI@Z 000000018002d350     Scanner.obj
 0002:0000b350       $unwind$?ReleaseDevice@COPOSScanner@@UEAAJPEAJ@Z 000000018002d350     ScannerImpl.obj
 0002:0000b350       $unwind$_mbsdec_l          000000018002d350     libucrt:mbsdec.obj
 0002:0000b35c       $unwind$?fp_format_e@@YAHQEBNQEAD_K12H_NIQEAU__crt_locale_pointers@@@Z 000000018002d35c     libucrt:cvt.obj
 0002:0000b35c       $unwind$_mbtowc_l          000000018002d35c     libucrt:mbtowc.obj
 0002:0000b35c       $unwind$?atlCreate@?$CWindowImpl@VCOPOSScanner@@VCWindow@ATL@@V?$CWinTraits@$0FGAAAAAA@$0A@@3@@ATL@@QEAAPEAUHWND__@@PEAU3@V_U_RECT@2@PEB_WKKV_U_MENUorID@2@PEAX@Z 000000018002d35c     Scanner.obj
 0002:0000b35c       $unwind$__acrt_LCMapStringEx 000000018002d35c     libucrt:winapi_thunks.obj
 0002:0000b370       $unwind$_raise_exc         000000018002d370     libucrt:fpexcept.obj
 0002:0000b370       $unwind$?__scrt_throw_std_bad_array_new_length@@YAXXZ 000000018002d370     LIBCMT:throw_bad_alloc.obj
 0002:0000b370       $unwind$?__scrt_throw_std_bad_alloc@@YAXXZ 000000018002d370     LIBCMT:throw_bad_alloc.obj
 0002:0000b370       $unwind$?CreateControlWindow@?$CComControl@VCOPOSScanner@@V?$CWindowImpl@VCOPOSScanner@@VCWindow@ATL@@V?$CWinTraits@$0FGAAAAAA@$0A@@3@@ATL@@@ATL@@UEAAPEAUHWND__@@PEAU3@AEAUtagRECT@@@Z 000000018002d370     Scanner.obj
 0002:0000b370       $unwind$?ClearInput@COPOSScanner@@UEAAJPEAJ@Z 000000018002d370     ScannerImpl.obj
 0002:0000b370       $unwind$?ClearInputProperties@COPOSScanner@@UEAAJPEAJ@Z 000000018002d370     ScannerImpl.obj
 0002:0000b378       $unwind$__stdio_common_vswprintf_s 000000018002d378     libucrt:output.obj
 0002:0000b378       $unwind$?Save@?$IPersistStreamInitImpl@VCOPOSScanner@@@ATL@@UEAAJPEAUIStream@@H@Z 000000018002d378     Scanner.obj
 0002:0000b384       $unwind$?GetSizeMax@?$IPersistStreamInitImpl@VCOPOSScanner@@@ATL@@UEAAJPEAT_ULARGE_INTEGER@@@Z 000000018002d384     Scanner.obj
 0002:0000b39c       $unwind$?DoVerbPrimary@?$IOleObjectImpl@VCOPOSScanner@@@ATL@@QEAAJPEBUtagRECT@@PEAUHWND__@@@Z 000000018002d39c     Scanner.obj
 0002:0000b3b4       $unwind$?TranslateAcceleratorW@?$IOleInPlaceActiveObjectImpl@VCOPOSScanner@@@ATL@@UEAAJPEAUtagMSG@@@Z 000000018002d3b4     Scanner.obj
 0002:0000b3c0       $unwind$?Draw@?$IViewObjectExImpl@VCOPOSScanner@@@ATL@@UEAAJKJPEAXPEAUtagDVTARGETDEVICE@@PEAUHDC__@@2PEBU_RECTL@@3P6AH_K@Z4@Z 000000018002d3c0     Scanner.obj
 0002:0000b3c8       $unwind$?QueryHitRect@?$IViewObjectExImpl@VCOPOSScanner@@@ATL@@UEAAJKPEBUtagRECT@@0JPEAK@Z 000000018002d3c8     Scanner.obj
 0002:0000b3d8       $unwind$?OnWindowMessage@?$IOleInPlaceObjectWindowlessImpl@VCOPOSScanner@@@ATL@@UEAAJI_K_JPEA_J@Z 000000018002d3d8     Scanner.obj
 0002:0000b3ec       $unwind$?EnumConnectionPoints@?$IConnectionPointContainerImpl@VCOPOSScanner@@@ATL@@UEAAJPEAPEAUIEnumConnectionPoints@@@Z 000000018002d3ec     Scanner.obj
 0002:0000b414       $unwind$?__mbrtoc32_utf8@__crt_mbstring@@YA_KPEA_UPEBD_KPEAU_Mbstatet@@@Z 000000018002d414     libucrt:mbrtoc32.obj
 0002:0000b414       $unwind$?FindConnectionPoint@?$IConnectionPointContainerImpl@VCOPOSScanner@@@ATL@@UEAAJAEBU_GUID@@PEAPEAUIConnectionPoint@@@Z 000000018002d414     Scanner.obj
 0002:0000b430       $unwind$?Load@?$IPersistStorageImpl@VCOPOSScanner@@@ATL@@UEAAJPEAUIStorage@@@Z 000000018002d430     Scanner.obj
 0002:0000b440       $unwind$?Save@?$IPersistStorageImpl@VCOPOSScanner@@@ATL@@UEAAJPEAUIStorage@@H@Z 000000018002d440     Scanner.obj
 0002:0000b454       $unwind$?DAdvise@?$IDataObjectImpl@VCOPOSScanner@@@ATL@@UEAAJPEAUtagFORMATETC@@KPEAUIAdviseSink@@PEAK@Z 000000018002d454     Scanner.obj
 0002:0000b454       $unwind$??$__acrt_mbs_to_wcs_cp@U__crt_win32_buffer_internal_dynamic_resizing@@@@YAHQEBDAEAV?$__crt_win32_buffer@_WU__crt_win32_buffer_internal_dynamic_resizing@@@@I@Z 000000018002d454     libucrt:argv_wildcards.obj
 0002:0000b46c       $unwind$?GetInterfaceSafetyOptions@?$IObjectSafetyImpl@VCOPOSScanner@@$02@ATL@@UEAAJAEBU_GUID@@PEAK1@Z 000000018002d46c     Scanner.obj
 0002:0000b480       $unwind$?SetInterfaceSafetyOptions@?$IObjectSafetyImpl@VCOPOSScanner@@$02@ATL@@UEAAJAEBU_GUID@@KK@Z 000000018002d480     Scanner.obj
 0002:0000b494       $unwind$?Advise@?$IConnectionPointImpl@VCOPOSScanner@@$1?IID_IPropertyNotifySink@@3U_GUID@@BVCComDynamicUnkArray@ATL@@@ATL@@UEAAJPEAUIUnknown@@PEAK@Z 000000018002d494     Scanner.obj
 0002:0000b494       $unwind$?Advise@?$IConnectionPointImpl@VCOPOSScanner@@$1?DIID__IOPOSScannerEvents@@3U_GUID@@BVCComDynamicUnkArray@ATL@@@ATL@@UEAAJPEAUIUnknown@@PEAK@Z 000000018002d494     Scanner.obj
 0002:0000b4a8       $unwind$?EnumConnections@?$IConnectionPointImpl@VCOPOSScanner@@$1?IID_IPropertyNotifySink@@3U_GUID@@BVCComDynamicUnkArray@ATL@@@ATL@@UEAAJPEAPEAUIEnumConnections@@@Z 000000018002d4a8     Scanner.obj
 0002:0000b4a8       $unwind$??$create_environment@D@@YAQEAPEADQEAD@Z 000000018002d4a8     libucrt:environment_initialization.obj
 0002:0000b4a8       $unwind$?EnumConnections@?$IConnectionPointImpl@VCOPOSScanner@@$1?DIID__IOPOSScannerEvents@@3U_GUID@@BVCComDynamicUnkArray@ATL@@@ATL@@UEAAJPEAPEAUIEnumConnections@@@Z 000000018002d4a8     Scanner.obj
 0002:0000b4c0       $unwind$?Fire_DataEvent@?$CProxy_IOPOSEvents@VCOPOSScanner@@@@QEAAXJ@Z 000000018002d4c0     Scanner.obj
 0002:0000b4c0       $unwind$?Fire_StatusUpdateEvent@?$CProxy_IOPOSEvents@VCOPOSScanner@@@@QEAAXJ@Z 000000018002d4c0     Scanner.obj
 0002:0000b4c0       $unwind$??$__InternalCxxFrameHandler@V__FrameHandler3@@@@YA?AW4_EXCEPTION_DISPOSITION@@PEAUEHExceptionRecord@@PEA_KPEAU_CONTEXT@@PEAU_xDISPATCHER_CONTEXT@@PEBU_s_FuncInfo@@H1E@Z 000000018002d4c0     libvcruntime:frame.obj
 0002:0000b4d8       $unwind$?Fire_DirectIOEvent@?$CProxy_IOPOSEvents@VCOPOSScanner@@@@QEAAXJPEAJPEAPEA_W@Z 000000018002d4d8     Scanner.obj
 0002:0000b4f8       $unwind$?Fire_ErrorEvent@?$CProxy_IOPOSEvents@VCOPOSScanner@@@@QEAAXJJJPEAJ@Z 000000018002d4f8     Scanner.obj
 0002:0000b518       $unwind$?FireTheEvent@?$CProxy_IOPOSEvents@VCOPOSScanner@@@@IEAAXPEAVOposVariant@@IAEAJPEB_WJ@Z 000000018002d518     Scanner.obj
 0002:0000b528       $unwind$?fp_format_f_internal@@YAHQEAD_KHQEAU_strflt@@_NQEAU__crt_locale_pointers@@@Z 000000018002d528     libucrt:cvt.obj
 0002:0000b528       $unwind$__dcrt_get_narrow_environment_from_os 000000018002d528     libucrt:get_environment_from_os.obj
 0002:0000b528       $unwind$??$__acrt_wcs_to_mbs_cp@U__crt_win32_buffer_internal_dynamic_resizing@@@@YAHQEB_WAEAV?$__crt_win32_buffer@DU__crt_win32_buffer_internal_dynamic_resizing@@@@I@Z 000000018002d528     libucrt:argv_wildcards.obj
 0002:0000b528       $unwind$?ProcessWindowMessage@COPOSScanner@@UEAAHPEAUHWND__@@I_K_JAEA_JK@Z 000000018002d528     Scanner.obj
 0002:0000b540       $unwind$_invalid_parameter 000000018002d540     libucrt:invalid_parameter.obj
 0002:0000b540       $unwind$?SOError@COPOSScanner@@MEAAJJJJPEAJ@Z 000000018002d540     Scanner.obj
 0002:0000b554       $unwind$?Clone@?$CComEnumImpl@UIEnumConnectionPoints@@$1?_GUID_b196b285_bab4_101a_b69c_00aa00341d07@@3U__s_GUID@@BPEAUIConnectionPoint@@V?$_CopyInterface@UIConnectionPoint@@@ATL@@@ATL@@UEAAJPEAPEAUIEnumConnectionPoints@@@Z 000000018002d554     Scanner.obj
 0002:0000b554       $unwind$?Clone@?$CComEnumImpl@UIEnumConnections@@$1?_GUID_b196b287_bab4_101a_b69c_00aa00341d07@@3U__s_GUID@@BUtagCONNECTDATA@@V?$_Copy@UtagCONNECTDATA@@@ATL@@@ATL@@UEAAJPEAPEAUIEnumConnections@@@Z 000000018002d554     Scanner.obj
 0002:0000b56c       $unwind$?GetOposProp@COPOSScanner@@IEAAJJPEAPEA_WJ@Z 000000018002d56c     ScannerImpl.obj
 0002:0000b56c       $unwind$?GetOposProp@COPOSScanner@@IEAAJJPEAJJ@Z 000000018002d56c     ScannerImpl.obj
 0002:0000b584       $unwind$?SetOposProp@COPOSScanner@@IEAAJJJJ@Z 000000018002d584     ScannerImpl.obj
 0002:0000b5a4       $unwind$?DoInvoke@COPOSScanner@@IEAAJJPEAVOposVariant@@IHPEAJ_N@Z 000000018002d5a4     ScannerImpl.obj
 0002:0000b5bc       $unwind$?SetCOFreezeEvents@COPOSScanner@@IEAAXF@Z 000000018002d5bc     ScannerImpl.obj
 0002:0000b5d0       $unwind$?OnDraw@COPOSScanner@@MEAAJAEAUATL_DRAWINFO@@@Z 000000018002d5d0     ScannerImpl.obj
 0002:0000b5e8       $unwind$?EventInit@COPOSScanner@@IEAAJXZ 000000018002d5e8     ScannerImpl.obj
 0002:0000b5fc       $unwind$?EventWindowProc@COPOSScanner@@IEAA_JI_K_J@Z 000000018002d5fc     ScannerImpl.obj
 0002:0000b60c       $unwind$__dcrt_lowio_ensure_console_output_initialized 000000018002d60c     libucrt:initcon.obj
 0002:0000b60c       $unwind$_isleadbyte_l      000000018002d60c     libucrt:_wctype.obj
 0002:0000b60c       $unwind$?getSystemCP@@YAHH@Z 000000018002d60c     libucrt:mbctype.obj
 0002:0000b60c       $unwind$?get_ControlObjectDescription@COPOSScanner@@UEAAJPEAPEA_W@Z 000000018002d60c     ScannerImpl.obj
 0002:0000b614       $unwind$?ResetStatistics@COPOSScanner@@UEAAJPEA_WPEAJ@Z 000000018002d614     ScannerImpl.obj
 0002:0000b614       $unwind$?UpdateFirmware@COPOSScanner@@UEAAJPEA_WPEAJ@Z 000000018002d614     ScannerImpl.obj
 0002:0000b614       $unwind$?CheckHealth@COPOSScanner@@UEAAJJPEAJ@Z 000000018002d614     ScannerImpl.obj
 0002:0000b614       $unwind$?RetrieveStatistics@COPOSScanner@@UEAAJPEAPEA_WPEAJ@Z 000000018002d614     ScannerImpl.obj
 0002:0000b614       $unwind$?UpdateStatistics@COPOSScanner@@UEAAJPEA_WPEAJ@Z 000000018002d614     ScannerImpl.obj
 0002:0000b624       $unwind$?ClaimDevice@COPOSScanner@@UEAAJJPEAJ@Z 000000018002d624     ScannerImpl.obj
 0002:0000b634       $unwind$?DirectIO@COPOSScanner@@UEAAJJPEAJPEAPEA_W0@Z 000000018002d634     ScannerImpl.obj
 0002:0000b650       $unwind$?Open@COPOSScanner@@UEAAJPEA_WPEAJ@Z 000000018002d650     ScannerImpl.obj
 0002:0000b674       $unwind$?CompareFirmwareVersion@COPOSScanner@@UEAAJPEA_WPEAJ1@Z 000000018002d674     ScannerImpl.obj
 0002:0000b674       $unwind$?initialize_inherited_file_handles_nolock@@YAXXZ 000000018002d674     libucrt:ioinit.obj
 0002:0000b690       $unwind$__scrt_is_nonwritable_in_current_image 000000018002d690     LIBCMT:utility.obj
 0002:0000b6b0       $unwind$__scrt_is_nonwritable_in_current_image$filt$0 000000018002d6b0     LIBCMT:utility.obj
 0002:0000b6b8       $unwind$__report_securityfailure 000000018002d6b8     LIBCMT:gs_report.obj
 0002:0000b6c0       $unwind$__report_gsfailure 000000018002d6c0     LIBCMT:gs_report.obj
 0002:0000b6c8       $unwind$capture_current_context 000000018002d6c8     LIBCMT:gs_report.obj
 0002:0000b6d4       $unwind$capture_previous_context 000000018002d6d4     LIBCMT:gs_report.obj
 0002:0000b6e0       $unwind$??2@YAPEAX_KAEBUnothrow_t@std@@@Z 000000018002d6e0     LIBCMT:new_scalar_nothrow.obj
 0002:0000b6f0       $stateUnwindMap$??2@YAPEAX_KAEBUnothrow_t@std@@@Z 000000018002d6f0     LIBCMT:new_scalar_nothrow.obj
 0002:0000b700       $tryMap$??2@YAPEAX_KAEBUnothrow_t@std@@@Z 000000018002d700     LIBCMT:new_scalar_nothrow.obj
 0002:0000b714       $handlerMap$0$??2@YAPEAX_KAEBUnothrow_t@std@@@Z 000000018002d714     LIBCMT:new_scalar_nothrow.obj
 0002:0000b728       $ip2state$??2@YAPEAX_KAEBUnothrow_t@std@@@Z 000000018002d728     LIBCMT:new_scalar_nothrow.obj
 0002:0000b730       $unwind$?catch$0@?0???2@YAPEAX_KAEBUnothrow_t@std@@@Z@4HA 000000018002d730     LIBCMT:new_scalar_nothrow.obj
 0002:0000b740       $unwind$__acrt_WideCharToMultiByte 000000018002d740     libucrt:widechartomultibyte.obj
 0002:0000b740       $unwind$__GSHandlerCheckCommon 000000018002d740     LIBCMT:gshandler.obj
 0002:0000b748       $xdatasym                  000000018002d748     LIBCMT:chkstk.obj
 0002:0000b750       $xdatasym                  000000018002d750     LIBCMT:amdsecgs.obj
 0002:0000b754       $unwind$?dllmain_crt_process_attach@@YAHQEAUHINSTANCE__@@QEAX@Z 000000018002d754     LIBCMT:dll_dllmain.obj
 0002:0000b790       $unwind$?dllmain_crt_process_detach@@YAH_N@Z 000000018002d790     LIBCMT:dll_dllmain.obj
 0002:0000b7c4       $unwind$?dllmain_dispatch@@YAHQEAUHINSTANCE__@@KQEAX@Z 000000018002d7c4     LIBCMT:dll_dllmain.obj
 0002:0000b7ec       $unwind$?filt$0@?0??dllmain_dispatch@@YAHQEAUHINSTANCE__@@KQEAX@Z@4HA 000000018002d7ec     LIBCMT:dll_dllmain.obj
 0002:0000b7f4       $unwind$__isa_available_init 000000018002d7f4     LIBCMT:cpu_disp.obj
 0002:0000b804       $unwind$__scrt_fastfail    000000018002d804     LIBCMT:utility_desktop.obj
 0002:0000b814       $unwind$__security_init_cookie 000000018002d814     LIBCMT:gs_support.obj
 0002:0000b820       $xdatasym                  000000018002d820     LIBCMT:guard_dispatch.obj
 0002:0000b824       $unwind$AtlThunk_InitData  000000018002d824     atls:atlthunk.obj
 0002:0000b838       $unwind$wcsstr             000000018002d838     libvcruntime:wcsstr.obj
 0002:0000b850       $xdatasym                  000000018002d850     libvcruntime:memcmp.obj
 0002:0000b858       $xdatasym                  000000018002d858     libvcruntime:memcpy.obj
 0002:0000b868       $xdatasym                  000000018002d868     libvcruntime:memset.obj
 0002:0000b878       $unwind$__C_specific_handler 000000018002d878     libvcruntime:riscchandler.obj
 0002:0000b894       $unwind$?GetEstablisherFrame@__FrameHandler3@@SAPEA_KPEA_KPEAU_xDISPATCHER_CONTEXT@@PEBU_s_FuncInfo@@0@Z 000000018002d894     libvcruntime:risctrnsctrl.obj
 0002:0000b8ac       $unwind$?UnwindNestedFrames@__FrameHandler3@@SAXPEA_KPEAUEHExceptionRecord@@PEAU_CONTEXT@@0PEAXPEBU_s_FuncInfo@@HHPEBU_s_HandlerType@@PEAU_xDISPATCHER_CONTEXT@@E@Z 000000018002d8ac     libvcruntime:risctrnsctrl.obj
 0002:0000b8c0       $unwind$?GetRangeOfTrysToCheck@__FrameHandler3@@SA?AU?$pair@Viterator@TryBlockMap@__FrameHandler3@@V123@@std@@AEAVTryBlockMap@1@HPEAU_xDISPATCHER_CONTEXT@@PEBU_s_FuncInfo@@H@Z 000000018002d8c0     libvcruntime:risctrnsctrl.obj
 0002:0000b8d8       $unwind$__CxxFrameHandler3 000000018002d8d8     libvcruntime:risctrnsctrl.obj
 0002:0000b8ec       $unwind$??$_CallSETranslator@V__FrameHandler3@@@@YAHPEAUEHExceptionRecord@@PEA_KPEAU_CONTEXT@@PEAU_xDISPATCHER_CONTEXT@@PEBU_s_FuncInfo@@K1@Z 000000018002d8ec     libvcruntime:risctrnsctrl.obj
 0002:0000b90c       $unwind$?filt$0@?0???$_CallSETranslator@V__FrameHandler3@@@@YAHPEAUEHExceptionRecord@@PEA_KPEAU_CONTEXT@@PEAU_xDISPATCHER_CONTEXT@@PEBU_s_FuncInfo@@K1@Z@4HA 000000018002d90c     libvcruntime:risctrnsctrl.obj
 0002:0000b918       $unwind$_CxxThrowException 000000018002d918     libvcruntime:throw.obj
 0002:0000b928       $xdatasym                  000000018002d928     libvcruntime:notify.obj
 0002:0000b934       $unwind$__DestructExceptionObject 000000018002d934     libvcruntime:ehhelpers.obj
 0002:0000b954       $unwind$?FrameUnwindToState@__FrameHandler3@@SAXPEA_KPEAU_xDISPATCHER_CONTEXT@@PEBU_s_FuncInfo@@H@Z 000000018002d954     libvcruntime:frame.obj
 0002:0000b9a0       $unwind$?CxxCallCatchBlock@__FrameHandler3@@SAPEAXPEAU_EXCEPTION_RECORD@@@Z 000000018002d9a0     libvcruntime:frame.obj
 0002:0000b9dc       $unwind$?fin$1@?0??CxxCallCatchBlock@__FrameHandler3@@SAPEAXPEAU_EXCEPTION_RECORD@@@Z@4HA 000000018002d9dc     libvcruntime:frame.obj
 0002:0000b9e8       $unwind$?IsInExceptionSpec@@YAEPEAUEHExceptionRecord@@PEBU_s_ESTypeList@@@Z 000000018002d9e8     libvcruntime:frame.obj
 0002:0000ba04       $unwind$??$BuildCatchObjectHelperInternal@V__FrameHandler3@@@@YAHPEAUEHExceptionRecord@@PEAXPEBU_s_HandlerType@@PEBU_s_CatchableType@@@Z 000000018002da04     libvcruntime:frame.obj
 0002:0000ba44       $unwind$??$BuildCatchObjectInternal@V__FrameHandler3@@@@YAXPEAUEHExceptionRecord@@PEAXPEBU_s_HandlerType@@PEBU_s_CatchableType@@@Z 000000018002da44     libvcruntime:frame.obj
 0002:0000ba70       $unwind$??$FindHandler@V__FrameHandler3@@@@YAXPEAUEHExceptionRecord@@PEA_KPEAU_CONTEXT@@PEAU_xDISPATCHER_CONTEXT@@PEBU_s_FuncInfo@@EH1@Z 000000018002da70     libvcruntime:frame.obj
 0002:0000ba90       $unwind$??$CatchIt@V__FrameHandler3@@@@YAXPEAUEHExceptionRecord@@PEA_KPEAU_CONTEXT@@PEAU_xDISPATCHER_CONTEXT@@PEBU_s_FuncInfo@@PEBU_s_HandlerType@@PEBU_s_CatchableType@@PEBU_s_TryBlockMapEntry@@H1EE@Z 000000018002da90     libvcruntime:frame.obj
 0002:0000baa8       $unwind$??$FindHandlerForForeignException@V__FrameHandler3@@@@YAXPEAUEHExceptionRecord@@PEA_KPEAU_CONTEXT@@PEAU_xDISPATCHER_CONTEXT@@PEBU_s_FuncInfo@@HH1@Z 000000018002daa8     libvcruntime:frame.obj
 0002:0000bac4       $unwind$?try_get_function@@YAPEAXW4function_id@?A0x656504f9@@QEBDQEBW4module_id@2@2@Z 000000018002dac4     libvcruntime:winapi_downlevel.obj
 0002:0000bac4       $unwind$?try_get_function@@YAPEAXW4function_id@?A0x391cf84c@@QEBDQEBW4module_id@2@2@Z 000000018002dac4     libucrt:winapi_thunks.obj
 0002:0000bae0       $xdatasym                  000000018002dae0     libvcruntime:handlers.obj
 0002:0000bb00       $unwind$__acrt_call_reportfault 000000018002db00     libucrt:invalid_parameter.obj
 0002:0000bb20       $unwind$_resetstkoflw      000000018002db20     libucrt:resetstk.obj
 0002:0000bb44       $unwind$?write_string@?$string_output_adapter@_W@__crt_stdio_output@@QEBAXQEB_WHQEAHAEAV__crt_deferred_errno_cache@@@Z 000000018002db44     libucrt:output.obj
 0002:0000bb5c       $unwind$??$common_vsprintf@Vformat_validation_base@__crt_stdio_output@@_W@@YAH_KQEA_W0QEB_WQEAU__crt_locale_pointers@@QEAD@Z 000000018002db5c     libucrt:output.obj
 0002:0000bb7c       $unwind$??$write_multiple_characters@V?$string_output_adapter@_W@__crt_stdio_output@@D@__crt_stdio_output@@YAXAEBV?$string_output_adapter@_W@0@DHQEAH@Z 000000018002db7c     libucrt:output.obj
 0002:0000bb88       $unwind$?process@?$output_processor@_WV?$string_output_adapter@_W@__crt_stdio_output@@V?$format_validation_base@_WV?$string_output_adapter@_W@__crt_stdio_output@@@2@@__crt_stdio_output@@QEAAHXZ 000000018002db88     libucrt:output.obj
 0002:0000bb9c       $unwind$?parse_int_from_format_string@?$output_processor@_WV?$string_output_adapter@_W@__crt_stdio_output@@V?$format_validation_base@_WV?$string_output_adapter@_W@__crt_stdio_output@@@2@@__crt_stdio_output@@AEAA_NQEAH@Z 000000018002db9c     libucrt:output.obj
 0002:0000bbb0       $unwind$?state_case_type@?$output_processor@_WV?$string_output_adapter@_W@__crt_stdio_output@@V?$format_validation_base@_WV?$string_output_adapter@_W@__crt_stdio_output@@@2@@__crt_stdio_output@@AEAA_NXZ 000000018002dbb0     libucrt:output.obj
 0002:0000bbd4       $unwind$?type_case_a@?$output_processor@_WV?$string_output_adapter@_W@__crt_stdio_output@@V?$format_validation_base@_WV?$string_output_adapter@_W@__crt_stdio_output@@@2@@__crt_stdio_output@@AEAA_NXZ 000000018002dbd4     libucrt:output.obj
 0002:0000bbe4       $unwind$?write_stored_string_tchar@?$output_processor@_WV?$string_output_adapter@_W@__crt_stdio_output@@V?$format_validation_base@_WV?$string_output_adapter@_W@__crt_stdio_output@@@2@@__crt_stdio_output@@AEAA_N_W@Z 000000018002dbe4     libucrt:output.obj
 0002:0000bbf8       $unwind$??$type_case_integer_parse_into_buffer@I@?$output_processor@_WV?$string_output_adapter@_W@__crt_stdio_output@@V?$format_validation_base@_WV?$string_output_adapter@_W@__crt_stdio_output@@@2@@__crt_stdio_output@@AEAAXII_N@Z 000000018002dbf8     libucrt:output.obj
 0002:0000bbf8       $unwind$??$type_case_integer_parse_into_buffer@_K@?$output_processor@_WV?$string_output_adapter@_W@__crt_stdio_output@@V?$format_validation_base@_WV?$string_output_adapter@_W@__crt_stdio_output@@@2@@__crt_stdio_output@@AEAAX_KI_N@Z 000000018002dbf8     libucrt:output.obj
 0002:0000bc00       $unwind$?common_exit@@YAXHW4_crt_exit_cleanup_mode@@W4_crt_exit_return_mode@@@Z 000000018002dc00     libucrt:exit.obj
 0002:0000bc0c       $unwind$??R<lambda_6e4b09c48022b2350581041d5f6b0c4c>@@QEBA@XZ 000000018002dc0c     libucrt:exit.obj
 0002:0000bc2c       $unwind$??$?RV<lambda_d80eeec6fff315bfe5c115232f3240e3>@@AEAV<lambda_6e4b09c48022b2350581041d5f6b0c4c>@@V<lambda_2358e3775559c9db80273638284d5e45>@@@?$__crt_seh_guarded_call@X@@QEAAX$$QEAV<lambda_d80eeec6fff315bfe5c115232f3240e3>@@AEAV<lambda_6e4b09c48022b2350581041d5f6b0c4c>@@$$QEAV<lambda_2358e3775559c9db80273638284d5e45>@@@Z 000000018002dc2c     libucrt:exit.obj
 0002:0000bc50       $unwind$??$free_environment@_W@@YAXQEAPEA_W@Z 000000018002dc50     libucrt:environment_initialization.obj
 0002:0000bc50       $unwind$??$free_environment@D@@YAXQEAPEAD@Z 000000018002dc50     libucrt:environment_initialization.obj
 0002:0000bc5c       $unwind$_register_onexit_function 000000018002dc5c     libucrt:onexit.obj
 0002:0000bc64       $unwind$_execute_onexit_table 000000018002dc64     libucrt:onexit.obj
 0002:0000bc6c       $unwind$??R<lambda_22ebabd17bc4fa466a2aca6d8deb888d>@@QEBAHXZ 000000018002dc6c     libucrt:onexit.obj
 0002:0000bc84       $unwind$??$?RV<lambda_638799b9deba96c50f710eeac98168cd>@@AEAV<lambda_22ebabd17bc4fa466a2aca6d8deb888d>@@V<lambda_a6f7d7db0129f75315ebf26d50c089f1>@@@?$__crt_seh_guarded_call@H@@QEAAH$$QEAV<lambda_638799b9deba96c50f710eeac98168cd>@@AEAV<lambda_22ebabd17bc4fa466a2aca6d8deb888d>@@$$QEAV<lambda_a6f7d7db0129f75315ebf26d50c089f1>@@@Z 000000018002dc84     libucrt:onexit.obj
 0002:0000bca8       $unwind$??$?RV<lambda_7777bce6b2f8c936911f934f8298dc43>@@AEAV<lambda_f03950bc5685219e0bcd2087efbe011e>@@V<lambda_3883c3dff614d5e0c5f61bb1ac94921c>@@@?$__crt_seh_guarded_call@H@@QEAAH$$QEAV<lambda_7777bce6b2f8c936911f934f8298dc43>@@AEAV<lambda_f03950bc5685219e0bcd2087efbe011e>@@$$QEAV<lambda_3883c3dff614d5e0c5f61bb1ac94921c>@@@Z 000000018002dca8     libucrt:onexit.obj
 0002:0000bccc       $unwind$_query_new_handler 000000018002dccc     libucrt:new_handler.obj
 0002:0000bcec       $unwind$terminate          000000018002dcec     libucrt:terminate.obj
 0002:0000bd0c       $unwind$??$parse_integer@KV?$c_string_character_source@_W@__crt_strtox@@@__crt_strtox@@YAKQEAU__crt_locale_pointers@@V?$c_string_character_source@_W@0@H_N@Z 000000018002dd0c     libucrt:atox.obj
 0002:0000bd28       $xdatasym                  000000018002dd28     libucrt:strncmp.obj
 0002:0000bd2c       $unwind$?construct_ptd_array@@YAXQEAU__acrt_ptd@@@Z 000000018002dd2c     libucrt:per_thread_data.obj
 0002:0000bd34       $unwind$?destroy_ptd_array@@YAXQEAU__acrt_ptd@@@Z 000000018002dd34     libucrt:per_thread_data.obj
 0002:0000bd3c       $unwind$??$?RV<lambda_0ae27a3a962d80f24befdcbee591983d>@@AEAV<lambda_8d0ee55de4b1038c4002e0adecdf1839>@@V<lambda_dc504788e8f1664fe9b84e20bfb512f2>@@@?$__crt_seh_guarded_call@X@@QEAAX$$QEAV<lambda_0ae27a3a962d80f24befdcbee591983d>@@AEAV<lambda_8d0ee55de4b1038c4002e0adecdf1839>@@$$QEAV<lambda_dc504788e8f1664fe9b84e20bfb512f2>@@@Z 000000018002dd3c     libucrt:per_thread_data.obj
 0002:0000bd60       $unwind$??$?RV<lambda_aa87e3671a710a21b5dc78c0bdf72e11>@@AEAV<lambda_92619d2358a28f41a33ba319515a20b9>@@V<lambda_6992ecaafeb10aed2b74cb1fae11a551>@@@?$__crt_seh_guarded_call@X@@QEAAX$$QEAV<lambda_aa87e3671a710a21b5dc78c0bdf72e11>@@AEAV<lambda_92619d2358a28f41a33ba319515a20b9>@@$$QEAV<lambda_6992ecaafeb10aed2b74cb1fae11a551>@@@Z 000000018002dd60     libucrt:per_thread_data.obj
 0002:0000bd84       $unwind$??$?RV<lambda_f2e299630e499de9f9a165e60fcd3db5>@@AEAV<lambda_2ae9d31cdba2644fcbeaf08da7c24588>@@V<lambda_40d01ff24d0e7b3814fdbdcee8eab3c7>@@@?$__crt_seh_guarded_call@X@@QEAAX$$QEAV<lambda_f2e299630e499de9f9a165e60fcd3db5>@@AEAV<lambda_2ae9d31cdba2644fcbeaf08da7c24588>@@$$QEAV<lambda_40d01ff24d0e7b3814fdbdcee8eab3c7>@@@Z 000000018002dd84     libucrt:per_thread_data.obj
 0002:0000bda8       $unwind$??$?RV<lambda_2d41944a1d46af3157314b8a01080d33>@@AEAV<lambda_8f455de75cd7d7f24b4096f044d8b9e6>@@V<lambda_aa500f224e6afead328df44964fe2772>@@@?$__crt_seh_guarded_call@X@@QEAAX$$QEAV<lambda_2d41944a1d46af3157314b8a01080d33>@@AEAV<lambda_8f455de75cd7d7f24b4096f044d8b9e6>@@$$QEAV<lambda_aa500f224e6afead328df44964fe2772>@@@Z 000000018002dda8     libucrt:per_thread_data.obj
 0002:0000bdcc       $unwind$__acrt_initialize_winapi_thunks 000000018002ddcc     libucrt:winapi_thunks.obj
 0002:0000bdd4       $unwind$?fp_format_e_internal@@YAHQEAD_KH_NIQEAU_strflt@@2QEAU__crt_locale_pointers@@@Z 000000018002ddd4     libucrt:cvt.obj
 0002:0000bdec       $unwind$?fp_format_a@@YAHQEBNPEAD_KQEAD2H_NIQEAU__crt_locale_pointers@@@Z 000000018002ddec     libucrt:cvt.obj
 0002:0000be08       $unwind$?fp_format_g@@YAHQEBNQEAD_K12H_NIQEAU__crt_locale_pointers@@@Z 000000018002de08     libucrt:cvt.obj
 0002:0000be1c       $unwind$__acrt_get_sigabrt_handler 000000018002de1c     libucrt:signal.obj
 0002:0000be1c       $unwind$__acrt_uninitialize_locale 000000018002de1c     libucrt:wsetlocale.obj
 0002:0000be24       $unwind$??$?RV<lambda_410d79af7f07d98d83a3f525b3859a53>@@AEAV<lambda_3e16ef9562a7dcce91392c22ab16ea36>@@V<lambda_38119f0e861e05405d8a144b9b982f0a>@@@?$__crt_seh_guarded_call@X@@QEAAX$$QEAV<lambda_410d79af7f07d98d83a3f525b3859a53>@@AEAV<lambda_3e16ef9562a7dcce91392c22ab16ea36>@@$$QEAV<lambda_38119f0e861e05405d8a144b9b982f0a>@@@Z 000000018002de24     libucrt:wsetlocale.obj
 0002:0000be4c       $unwind$__acrt_initialize_lowio 000000018002de4c     libucrt:ioinit.obj
 0002:0000be6c       $unwind$??$common_expand_argv_wildcards@D@@YAHQEAPEADQEAPEAPEAD@Z 000000018002de6c     libucrt:argv_wildcards.obj
 0002:0000be84       $unwind$??$copy_and_add_argument_to_buffer@D@@YAHQEBD0_KAEAV?$argument_list@D@?A0x5f5c8891@@@Z 000000018002de84     libucrt:argv_wildcards.obj
 0002:0000bea0       $unwind$??$expand_argument_wildcards@D@@YAHQEAD0AEAV?$argument_list@D@?A0x5f5c8891@@@Z 000000018002dea0     libucrt:argv_wildcards.obj
 0002:0000bec4       $unwind$__acrt_GetModuleFileNameA 000000018002dec4     libucrt:getmodulefilenamea.obj
 0002:0000bee0       $unwind$_setmbcp_nolock    000000018002dee0     libucrt:mbctype.obj
 0002:0000bf00       $unwind$?update_thread_multibyte_data_internal@@YAPEAU__crt_multibyte_data@@QEAU__acrt_ptd@@QEAPEAU1@@Z 000000018002df00     libucrt:mbctype.obj
 0002:0000bf28       $unwind$?setmbcp_internal@@YAHH_NQEAU__acrt_ptd@@QEAPEAU__crt_multibyte_data@@@Z 000000018002df28     libucrt:mbctype.obj
 0002:0000bf38       $unwind$?setSBUpLow@@YAXPEAU__crt_multibyte_data@@@Z 000000018002df38     libucrt:mbctype.obj
 0002:0000bf54       $unwind$??$?RV<lambda_efdfa57d1f175319df784efa44bb7b81>@@AEAV<lambda_5f0a4c1567f8adc6734073e5d1e1b35c>@@V<lambda_2e8a7d3640ea6ccb4c2413664c2db6fd>@@@?$__crt_seh_guarded_call@X@@QEAAX$$QEAV<lambda_efdfa57d1f175319df784efa44bb7b81>@@AEAV<lambda_5f0a4c1567f8adc6734073e5d1e1b35c>@@$$QEAV<lambda_2e8a7d3640ea6ccb4c2413664c2db6fd>@@@Z 000000018002df54     libucrt:mbctype.obj
 0002:0000bf78       $unwind$raise              000000018002df78     libucrt:signal.obj
 0002:0000bfb4       $unwind$??$?RV<lambda_450d765d439847d4c735a33c368b5fc0>@@AEAV<lambda_44731a7d0e6d81c3e6aa82d741081786>@@V<lambda_601a2a7da3b7a96e9554ac7215c4b07c>@@@?$__crt_seh_guarded_call@P6AXH@Z@@QEAAP6AXH@Z$$QEAV<lambda_450d765d439847d4c735a33c368b5fc0>@@AEAV<lambda_44731a7d0e6d81c3e6aa82d741081786>@@$$QEAV<lambda_601a2a7da3b7a96e9554ac7215c4b07c>@@@Z 000000018002dfb4     libucrt:signal.obj
 0002:0000bfd8       $unwind$?common_flush_all@@YAH_N@Z 000000018002dfd8     libucrt:fflush.obj
 0002:0000bfe0       $unwind$??$?RV<lambda_842d9ff0dc9ef11c61343bbaebe7f885>@@AEAV<lambda_c5860995281e5c4ce005b3de8f5874ee>@@V<lambda_d90129c13df834fdcbf8d2b88dafcf2d>@@@?$__crt_seh_guarded_call@X@@QEAAX$$QEAV<lambda_842d9ff0dc9ef11c61343bbaebe7f885>@@AEAV<lambda_c5860995281e5c4ce005b3de8f5874ee>@@$$QEAV<lambda_d90129c13df834fdcbf8d2b88dafcf2d>@@@Z 000000018002dfe0     libucrt:fflush.obj
 0002:0000c004       $unwind$??$?RV<lambda_886d6c58226a84441f68b9f2b8217b83>@@AEAV<lambda_ab61a845afdef5b7c387490eaf3616ee>@@V<lambda_f7f22ab5edc0698d5f6905b0d3f44752>@@@?$__crt_seh_guarded_call@X@@QEAAX$$QEAV<lambda_886d6c58226a84441f68b9f2b8217b83>@@AEAV<lambda_ab61a845afdef5b7c387490eaf3616ee>@@$$QEAV<lambda_f7f22ab5edc0698d5f6905b0d3f44752>@@@Z 000000018002e004     libucrt:fflush.obj
 0002:0000c02c       $unwind$__acrt_update_thread_locale_data 000000018002e02c     libucrt:locale_refcounting.obj
 0002:0000c050       $unwind$?__mbrtowc_utf8@__crt_mbstring@@YA_KPEA_WPEBD_KPEAU_Mbstatet@@@Z 000000018002e050     libucrt:mbrtowc.obj
 0002:0000c058       $unwind$?__mbsrtowcs_utf8@__crt_mbstring@@YA_KPEA_WPEAPEBD_KPEAU_Mbstatet@@@Z 000000018002e058     libucrt:mbrtowc.obj
 0002:0000c070       $unwind$__acrt_fltout      000000018002e070     libucrt:cfout.obj
 0002:0000c090       $unwind$?divide@__crt_strtox@@YA_KAEAUbig_integer@1@AEBU21@@Z 000000018002e090     libucrt:cfout.obj
 0002:0000c0a8       $chain$0$?divide@__crt_strtox@@YA_KAEAUbig_integer@1@AEBU21@@Z 000000018002e0a8     libucrt:cfout.obj
 0002:0000c0bc       $chain$1$?divide@__crt_strtox@@YA_KAEAUbig_integer@1@AEBU21@@Z 000000018002e0bc     libucrt:cfout.obj
 0002:0000c0cc       $unwind$_fcloseall         000000018002e0cc     libucrt:closeall.obj
 0002:0000c0f0       $unwind$__acrt_locale_free_monetary 000000018002e0f0     libucrt:initmon.obj
 0002:0000c0f8       $unwind$__acrt_locale_free_time 000000018002e0f8     libucrt:inittime.obj
 0002:0000c108       $unwind$__acrt_GetStringTypeA 000000018002e108     libucrt:getstringtypea.obj
 0002:0000c130       $unwind$__acrt_lowio_destroy_handle_array 000000018002e130     libucrt:osfinfo.obj
 0002:0000c140       $unwind$__acrt_lowio_ensure_fh_exists 000000018002e140     libucrt:osfinfo.obj
 0002:0000c16c       $unwind$qsort              000000018002e16c     libucrt:qsort.obj
 0002:0000c184       $chain$4$qsort             000000018002e184     libucrt:qsort.obj
 0002:0000c1a8       $chain$5$qsort             000000018002e1a8     libucrt:qsort.obj
 0002:0000c1b8       $unwind$fallbackMethod     000000018002e1b8     libucrt:strpbrk.obj
 0002:0000c1c8       $unwind$__acrt_LCMapStringA 000000018002e1c8     libucrt:lcmapstringa.obj
 0002:0000c1d8       $unwind$?__acrt_LCMapStringA_stat@@YAHPEAU__crt_locale_pointers@@PEB_WKPEBDHPEADHHH@Z 000000018002e1d8     libucrt:lcmapstringa.obj
 0002:0000c200       $unwind$_close             000000018002e200     libucrt:close.obj
 0002:0000c200       $unwind$_commit            000000018002e200     libucrt:commit.obj
 0002:0000c208       $unwind$??$?RV<lambda_a37b2b86f63e897a80ea819b0eb08c01>@@AEAV<lambda_38ce7e780aa69e748d6df282ebc68efe>@@V<lambda_99fb1378e971ab6e7edea83e3a7a83a2>@@@?$__crt_seh_guarded_call@H@@QEAAH$$QEAV<lambda_a37b2b86f63e897a80ea819b0eb08c01>@@AEAV<lambda_38ce7e780aa69e748d6df282ebc68efe>@@$$QEAV<lambda_99fb1378e971ab6e7edea83e3a7a83a2>@@@Z 000000018002e208     libucrt:commit.obj
 0002:0000c22c       $unwind$_write             000000018002e22c     libucrt:write.obj
 0002:0000c25c       $unwind$_write_nolock      000000018002e25c     libucrt:write.obj
 0002:0000c274       $unwind$?write_double_translated_ansi_nolock@@YA?AUwrite_result@?A0x17268360@@HQEBDI@Z 000000018002e274     libucrt:write.obj
 0002:0000c298       $unwind$?write_text_utf16le_nolock@@YA?AUwrite_result@?A0x17268360@@HQEBDI@Z 000000018002e298     libucrt:write.obj
 0002:0000c298       $unwind$?write_text_ansi_nolock@@YA?AUwrite_result@?A0x17268360@@HQEBDI@Z 000000018002e298     libucrt:write.obj
 0002:0000c2b8       $unwind$?write_text_utf8_nolock@@YA?AUwrite_result@?A0x17268360@@HQEBDI@Z 000000018002e2b8     libucrt:write.obj
 0002:0000c2e0       $xdatasym                  000000018002e2e0     libucrt:log10.obj
 0002:0000c2ec       $unwind$fclose             000000018002e2ec     libucrt:fclose.obj
 0002:0000c310       $unwind$_putwch_nolock     000000018002e310     libucrt:putwch.obj
 0002:0000c318       $unwind$__acrt_fenv_set_control 000000018002e318     libucrt:_fenvutils.obj
 0002:0000c328       $unwind$_call_matherr      000000018002e328     libucrt:libm_error.obj
 0002:0000c330       $unwind$_handle_error      000000018002e330     libucrt:libm_error.obj
 0002:0000c350       $unwind$__acrt_initialize_fma3 000000018002e350     libucrt:fma3_available.obj
 0002:0000c358       $unwind$_log_special_common 000000018002e358     libucrt:log_special.obj
 0002:0000c364       $unwind$??$?RV<lambda_751a882b2c74d4b022dec766aa51a29a>@@AEAV<lambda_628dfdc04ba53c8bfc02c9951375f3f5>@@V<lambda_f6c7be5f7998530c34de24c7437d6b54>@@@?$__crt_seh_guarded_call@H@@QEAAH$$QEAV<lambda_751a882b2c74d4b022dec766aa51a29a>@@AEAV<lambda_628dfdc04ba53c8bfc02c9951375f3f5>@@$$QEAV<lambda_f6c7be5f7998530c34de24c7437d6b54>@@@Z 000000018002e364     libucrt:close.obj
 0002:0000c388       $xdatasym                  000000018002e388     libucrt:fpsr.obj
 0002:0000c390       $unwind$_raise_exc_ex      000000018002e390     libucrt:fpexcept.obj
 0002:0000c3a4       $unwind$_ctrlfp            000000018002e3a4     libucrt:fpctrl.obj
 0002:0000c3cc       $unwind$_IsNonwritableInCurrentImage 000000018002e3cc     LIBCMT:pesect.obj
 0002:0000c550       .edata                     000000018002e550     OPOSScanner.exp
 0002:0000c578       rgpv                       000000018002e578     OPOSScanner.exp
 0002:0000c588       rgszName                   000000018002e588     OPOSScanner.exp
 0002:0000c598       rgwOrd                     000000018002e598     OPOSScanner.exp
 0002:0000c5a0       szName                     000000018002e5a0     OPOSScanner.exp
 0002:0000c5b0       $N00001                    000000018002e5b0     OPOSScanner.exp
 0002:0000c5c0       $N00002                    000000018002e5c0     OPOSScanner.exp
 0002:0000c5d2       $N00003                    000000018002e5d2     OPOSScanner.exp
 0002:0000c5e4       $N00004                    000000018002e5e4     OPOSScanner.exp
 0002:0000cf12       .idata$6                   000000018002ef12     kernel32:KERNEL32.dll
 0002:0000d12a       .idata$6                   000000018002f12a     user32:USER32.dll
 0002:0000d25e       .idata$6                   000000018002f25e     gdi32:GDI32.dll
 0002:0000d304       .idata$6                   000000018002f304     advapi32:ADVAPI32.dll
 0002:0000d420       .idata$6                   000000018002f420     ole32:ole32.dll
 0002:0000d42a       .idata$6                   000000018002f42a     oleaut32:OLEAUT32.dll
 0003:000001c0       ?ObjectMap@@3PAU_ATL_OBJMAP_ENTRY30@ATL@@A 00000001800301c0     Scanner.obj
 0003:000002b0       ?s_SOMethodNames@@3PAPEADA 00000001800302b0     ScannerImpl.obj
 0003:00000348       ?s_RequiredMethodsPerRelease@@3PAHA 0000000180030348     ScannerImpl.obj
 0003:000003b0       ?__vcrt_flsindex@@3KA      00000001800303b0     libvcruntime:per_thread_data.obj
 0003:000003c0       ?errno_no_memory@@3HA      00000001800303c0     libucrt:errno.obj
 0003:000003c4       ?doserrno_no_memory@@3KA   00000001800303c4     libucrt:errno.obj
 0003:000003d0       ?__acrt_flsindex@@3KA      00000001800303d0     libucrt:per_thread_data.obj
 0003:00000890       _mbctypes                  0000000180030890     libucrt:mbctype.obj
 0003:000009a0       _mbcasemaps                00000001800309a0     libucrt:mbctype.obj
 0003:00000aa0       ?__rgctypeflag@@3PADA      0000000180030aa0     libucrt:mbctype.obj
 0003:00000ab0       ?__rgcode_page_info@@3PAUcode_page_info@@A 0000000180030ab0     libucrt:mbctype.obj
 0003:00000d50       ?__dcrt_lowio_console_output_handle@@3PEAXEA 0000000180030d50     libucrt:initcon.obj
 0003:00000d60       ?dazSupported@?1??_ctrlfp@@9@9 0000000180030d60     libucrt:fpctrl.obj
 0003:00000fb0       ?is_initialized_as_dll@@3_NA 0000000180030fb0     LIBCMT:utility.obj
 0003:00000fb1       ?module_local_atexit_table_initialized@@3_NA 0000000180030fb1     LIBCMT:utility.obj
 0003:00000fb8       ?module_local_atexit_table@@3U_onexit_table_t@@A 0000000180030fb8     LIBCMT:utility.obj
 0003:00000fd0       ?module_local_at_quick_exit_table@@3U_onexit_table_t@@A 0000000180030fd0     LIBCMT:utility.obj
 0003:00000fe8       ?g_tss_cv@@3U_RTL_CONDITION_VARIABLE@@A 0000000180030fe8     LIBCMT:thread_safe_statics.obj
 0003:00000ff0       ?g_tss_event@@3PEAXEA      0000000180030ff0     LIBCMT:thread_safe_statics.obj
 0003:00000ff8       ?g_tss_mutex@@3U_RTL_CRITICAL_SECTION@@A 0000000180030ff8     LIBCMT:thread_safe_statics.obj
 0003:00001020       ?g_sleep_condition_variable_cs@@3P6AHPEAU_RTL_CONDITION_VARIABLE@@PEAU_RTL_CRITICAL_SECTION@@K@ZEA 0000000180031020     LIBCMT:thread_safe_statics.obj
 0003:00001028       ?g_wake_all_condition_variable@@3P6AXPEAU_RTL_CONDITION_VARIABLE@@@ZEA 0000000180031028     LIBCMT:thread_safe_statics.obj
 0003:00001030       GS_ExceptionRecord         0000000180031030     LIBCMT:gs_report.obj
 0003:000010d0       GS_ContextRecord           00000001800310d0     LIBCMT:gs_report.obj
 0003:000015a4       ?__proc_attached@@3HA      00000001800315a4     LIBCMT:dll_dllmain.obj
 0003:00001638       ?AllocateData@@3P6APEAUAtlThunkData_t@@XZEA 0000000180031638     atls:atlthunk.obj
 0003:00001640       ?InitData@@3P6AXPEAUAtlThunkData_t@@PEAX_K@ZEA 0000000180031640     atls:atlthunk.obj
 0003:00001648       ?DataToCode@@3P6AP6A_JPEAUHWND__@@I_K_J@ZPEAUAtlThunkData_t@@@ZEA 0000000180031648     atls:atlthunk.obj
 0003:00001650       ?FreeData@@3P6AXPEAUAtlThunkData_t@@@ZEA 0000000180031650     atls:atlthunk.obj
 0003:00001658       ?Initialized@@3_NA         0000000180031658     atls:atlthunk.obj
 0003:00001670       ?__vcrt_startup_thread_ptd@@3U__vcrt_ptd@@A 0000000180031670     libvcruntime:per_thread_data.obj
 0003:000016f0       __vcrt_lock_table          00000001800316f0     libvcruntime:locks.obj
 0003:00001718       __vcrt_locks_initialized   0000000180031718     libvcruntime:locks.obj
 0003:00001768       ?heap@@3V_HeapManager@@A   0000000180031768     libvcruntime:undname.obj
 0003:00001790       ?module_handles@@3PAPEAUHINSTANCE__@@A 0000000180031790     libvcruntime:winapi_downlevel.obj
 0003:000017a8       ?function_pointers@@3PAPEAXA 00000001800317a8     libvcruntime:winapi_downlevel.obj
 0003:000017d0       ?__acrt_invalid_parameter_handler@@3V?$dual_state_global@P6AXPEB_W00I_K@Z@__crt_state_management@@A 00000001800317d0     libucrt:invalid_parameter.obj
 0003:000017d8       ?c_termination_complete@@3JA 00000001800317d8     libucrt:exit.obj
 0003:000017e0       ?thread_local_exit_callback_func@@3P6AXPEAXK0@ZEA 00000001800317e0     libucrt:exit.obj
 0003:000017f0       ?program_name@?1???$common_configure_argv@D@@YAHW4_crt_argv_mode@@@Z@4PADA 00000001800317f0     libucrt:argv_parsing.obj
 0003:00001948       ?__acrt_new_handler@@3V?$dual_state_global@P6AH_K@Z@__crt_state_management@@A 0000000180031948     libucrt:new_handler.obj
 0003:00001950       ?module_handles@@3PAPEAUHINSTANCE__@@A 0000000180031950     libucrt:winapi_thunks.obj
 0003:000019f0       ?encoded_function_pointers@@3PAPEAXA 00000001800319f0     libucrt:winapi_thunks.obj
 0003:00001b00       ?internal_state@?1??_mbtowc_l@@9@4U_Mbstatet@@A 0000000180031b00     libucrt:mbtowc.obj
 0003:00001b18       ?enable_percent_n@@3_KA    0000000180031b18     libucrt:printf_count_output.obj
 0003:00001f50       ?__acrt_lock_table@@3PAU_RTL_CRITICAL_SECTION@@A 0000000180031f50     libucrt:locks.obj
 0003:00002180       ?__acrt_locks_initialized@@3IA 0000000180032180     libucrt:locks.obj
 0003:000021a0       ?fSystemSet@@3HA           00000001800321a0     libucrt:mbctype.obj
 0003:000021a4       ?initialized@?1??__acrt_initialize_multibyte@@9@4_NA 00000001800321a4     libucrt:mbctype.obj
 0003:000021e0       ?ctrlc_action@@3V?$dual_state_global@P6AXH@Z@__crt_state_management@@A 00000001800321e0     libucrt:signal.obj
 0003:000021e8       ?ctrlbreak_action@@3V?$dual_state_global@P6AXH@Z@__crt_state_management@@A 00000001800321e8     libucrt:signal.obj
 0003:000021f0       ?abort_action@@3V?$dual_state_global@P6AXH@Z@__crt_state_management@@A 00000001800321f0     libucrt:signal.obj
 0003:000021f8       ?term_action@@3V?$dual_state_global@P6AXH@Z@__crt_state_management@@A 00000001800321f8     libucrt:signal.obj
 0003:00002200       ?user_matherr@@3V?$dual_state_global@P6AHPEAU_exception@@@Z@__crt_state_management@@A 0000000180032200     libucrt:matherr.obj
 0003:00002208       ?__acrt_global_new_mode@@3V?$dual_state_global@J@__crt_state_management@@A 0000000180032208     libucrt:new_mode.obj
 0003:00002218       ?internal_pst@?1??__mbrtoc32_utf8@__crt_mbstring@@YA_KPEA_UPEBD_KPEAU_Mbstatet@@@Z@4U3@A 0000000180032218     libucrt:mbrtoc32.obj
 0003:00002220       ?__acrt_app_type@@3W4_crt_app_type@@A 0000000180032220     libucrt:report_runtime_error.obj
 0004:00000000       $pdata$?cw_memcpy@@YAHPEA_WPEBDH@Z 0000000180033000     CWString.obj
 0004:0000000c       $pdata$?cw_strcpy@@YAHPEA_WPEBD@Z 000000018003300c     CWString.obj
 0004:00000018       $pdata$?cw_dup@@YAXPEBDAEAHAEAPEA_W1@Z 0000000180033018     CWString.obj
 0004:00000024       $pdata$?DupWide@_CW@@AEAAXXZ 0000000180033024     CWString.obj
 0004:00000030       $pdata$?AtlWinModuleTerm@ATL@@YAJPEAU_ATL_WIN_MODULE70@1@PEAUHINSTANCE__@@@Z 0000000180033030     OposVariant.obj
 0004:0000003c       $pdata$??0CAtlComModule@ATL@@QEAA@XZ 000000018003303c     OposVariant.obj
 0004:00000048       $pdata$?Term@CAtlComModule@ATL@@QEAAXXZ 0000000180033048     OposVariant.obj
 0004:00000054       $pdata$??__E_AtlComModule@ATL@@YAXXZ 0000000180033054     OposVariant.obj
 0004:00000060       $pdata$??0CAtlWinModule@ATL@@QEAA@XZ 0000000180033060     OposVariant.obj
 0004:0000006c       $pdata$??__E_AtlWinModule@ATL@@YAXXZ 000000018003306c     OposVariant.obj
 0004:00000078       $pdata$??__F_AtlWinModule@ATL@@YAXXZ 0000000180033078     OposVariant.obj
 0004:00000084       $pdata$??_Estringdispid@CComTypeInfoHolder@ATL@@QEAAPEAXI@Z 0000000180033084     OposVariant.obj
 0004:00000090       $pdata$?SetVARIANT_BOOL@OposVariant@@QEAAXF@Z 0000000180033090     OposVariant.obj
 0004:0000009c       $pdata$?GetLONG@OposVariant@@QEAAJXZ 000000018003309c     OposVariant.obj
 0004:000000a8       $pdata$?ChangeLONG@OposVariant@@QEAAXPEAJAEAJ@Z 00000001800330a8     OposVariant.obj
 0004:000000b4       $pdata$?SetLONG@OposVariant@@QEAAXJ@Z 00000001800330b4     OposVariant.obj
 0004:000000c0       $pdata$?SetLONG_Ptr@OposVariant@@QEAAXPEAJAEAJ@Z 00000001800330c0     OposVariant.obj
 0004:000000cc       $pdata$?ChangeBSTR@OposVariant@@QEAAXPEAPEA_WAEAJ@Z 00000001800330cc     OposVariant.obj
 0004:000000d8       $pdata$?SetBSTR@OposVariant@@QEAAXPEA_WAEAJ@Z 00000001800330d8     OposVariant.obj
 0004:000000e4       $pdata$?SetBSTR_Copy@OposVariant@@QEAAXPEA_WAEAJ@Z 00000001800330e4     OposVariant.obj
 0004:000000f0       $pdata$?SetBSTR_InOutPtr@OposVariant@@QEAA_NPEAPEA_WAEAJ@Z 00000001800330f0     OposVariant.obj
 0004:000000fc       $pdata$?SetString@OposVariant@@QEAAXPEB_WAEAJ@Z 00000001800330fc     OposVariant.obj
 0004:00000108       $pdata$?SetDispatch_Ptr@OposVariant@@QEAAXPEAUIDispatch@@AEAJ@Z 0000000180033108     OposVariant.obj
 0004:00000114       $pdata$??0OposDispParms@@QEAA@PEAVOposVariant@@H@Z 0000000180033114     OposVariant.obj
 0004:00000120       $pdata$??1OposDispParms@@QEAA@XZ 0000000180033120     OposVariant.obj
 0004:0000012c       $pdata$memcpy_s            000000018003312c     libucrt:cfout.obj
 0004:0000012c       $pdata$memcpy_s            000000018003312c     Scanner.obj
 0004:00000138       $pdata$?AtlThrowImpl@ATL@@YAXJ@Z 0000000180033138     Scanner.obj
 0004:00000144       $pdata$swprintf_s          0000000180033144     Scanner.obj
 0004:00000150       $pdata$?_AtlVerifyStackAvailable@_ATL_SAFE_ALLOCA_IMPL@ATL@@YA_N_K@Z 0000000180033150     Scanner.obj
 0004:0000015c       $pdata$?filt$0@?0??_AtlVerifyStackAvailable@_ATL_SAFE_ALLOCA_IMPL@ATL@@YA_N_K@Z@4HA 000000018003315c     Scanner.obj
 0004:00000168       $pdata$?AtlHresultFromLastError@ATL@@YAJXZ 0000000180033168     Scanner.obj
 0004:00000174       $pdata$?AtlInternalOleLoadFromStream@ATL@@YAJPEAUIStream@@AEBU_GUID@@PEAPEAXTClassesAllowedInStream@1@K@Z 0000000180033174     Scanner.obj
 0004:00000180       $pdata$?PutProperty@?$CComPtr@UIDispatch@@@ATL@@SAJPEAUIDispatch@@JPEAUtagVARIANT@@@Z 0000000180033180     Scanner.obj
 0004:0000018c       $pdata$?WriteToStream@CComBSTR@ATL@@QEAAJPEAUIStream@@@Z 000000018003318c     Scanner.obj
 0004:00000198       $pdata$?ReadFromStream@CComBSTR@ATL@@QEAAJPEAUIStream@@@Z 0000000180033198     Scanner.obj
 0004:000001a4       $pdata$?WriteToStream@CComVariant@ATL@@QEAAJPEAUIStream@@@Z 00000001800331a4     Scanner.obj
 0004:000001b0       $pdata$?WriteToStream@CComVariant@ATL@@QEAAJPEAUIStream@@G@Z 00000001800331b0     Scanner.obj
 0004:000001bc       $pdata$?ReadFromStream@CComVariant@ATL@@QEAAJPEAUIStream@@GTClassesAllowedInStream@2@K@Z 00000001800331bc     Scanner.obj
 0004:000001c8       $pdata$?GetSizeMax@CComVariant@ATL@@QEBAJPEAT_ULARGE_INTEGER@@@Z 00000001800331c8     Scanner.obj
 0004:000001d4       $pdata$?RegCreateKeyExW@CAtlTransactionManager@ATL@@QEAAJPEAUHKEY__@@PEB_WKPEA_WKKQEAU_SECURITY_ATTRIBUTES@@PEAPEAU3@PEAK@Z 00000001800331d4     Scanner.obj
 0004:000001e0       $pdata$?RegOpenKeyExW@CAtlTransactionManager@ATL@@QEAAJPEAUHKEY__@@PEB_WKKPEAPEAU3@@Z 00000001800331e0     Scanner.obj
 0004:000001ec       $pdata$?RegDeleteKeyW@CAtlTransactionManager@ATL@@QEAAJPEAUHKEY__@@PEB_W@Z 00000001800331ec     Scanner.obj
 0004:000001f8       $pdata$?Add@?$CSimpleArray@GV?$CSimpleArrayEqualHelper@G@ATL@@@ATL@@QEAAHAEBG@Z 00000001800331f8     Scanner.obj
 0004:00000204       $pdata$?AtlInternalQueryInterface@ATL@@YAJPEAXPEBU_ATL_INTMAP_ENTRY@1@AEBU_GUID@@PEAPEAX@Z 0000000180033204     Scanner.obj
 0004:00000210       $pdata$?AtlComModuleGetClassObject@ATL@@YAJPEAU_ATL_COM_MODULE70@1@AEBU_GUID@@1PEAPEAX@Z 0000000180033210     Scanner.obj
 0004:0000021c       $pdata$?AtlRegisterClassCategoriesHelper@ATL@@YAJAEBU_GUID@@PEBU_ATL_CATMAP_ENTRY@1@H@Z 000000018003321c     Scanner.obj
 0004:00000228       $pdata$?AtlLoadTypeLib@ATL@@YAJPEAUHINSTANCE__@@PEB_WPEAPEA_WPEAPEAUITypeLib@@@Z 0000000180033228     Scanner.obj
 0004:00000234       $pdata$?AtlRegisterTypeLib@ATL@@YAJPEAUHINSTANCE__@@PEB_W@Z 0000000180033234     Scanner.obj
 0004:00000240       $pdata$?AtlUnRegisterTypeLib@ATL@@YAJPEAUHINSTANCE__@@PEB_W@Z 0000000180033240     Scanner.obj
 0004:0000024c       $pdata$?AtlComModuleRegisterServer@ATL@@YAJPEAU_ATL_COM_MODULE70@1@HPEBU_GUID@@@Z 000000018003324c     Scanner.obj
 0004:00000258       $pdata$?AtlComModuleUnregisterServer@ATL@@YAJPEAU_ATL_COM_MODULE70@1@HPEBU_GUID@@@Z 0000000180033258     Scanner.obj
 0004:00000264       $pdata$?AtlModuleAddTermFunc@ATL@@YAJPEAU_ATL_MODULE70@1@P6AX_K@Z1@Z 0000000180033264     Scanner.obj
 0004:00000270       $pdata$?AtlCallTermFunc@ATL@@YAXPEAU_ATL_MODULE70@1@@Z 0000000180033270     Scanner.obj
 0004:0000027c       $pdata$?AtlWinModuleExtractCreateWndData@ATL@@YAPEAXPEAU_ATL_WIN_MODULE70@1@@Z 000000018003327c     Scanner.obj
 0004:00000288       $pdata$?atlCreate@CRegKey@ATL@@QEAAJPEAUHKEY__@@PEB_WPEA_WKKPEAU_SECURITY_ATTRIBUTES@@PEAK@Z 0000000180033288     Scanner.obj
 0004:00000294       $pdata$?Open@CRegKey@ATL@@QEAAJPEAUHKEY__@@PEB_WK@Z 0000000180033294     Scanner.obj
 0004:000002a0       $pdata$?DeleteSubKey@CRegKey@ATL@@QEAAJPEB_W@Z 00000001800332a0     Scanner.obj
 0004:000002ac       $pdata$?RecurseDeleteKey@CRegKey@ATL@@QEAAJPEB_W@Z 00000001800332ac     Scanner.obj
 0004:000002b8       $pdata$??0CAtlModule@ATL@@QEAA@XZ 00000001800332b8     Scanner.obj
 0004:000002c4       $pdata$?GetGITPtr@CAtlModule@ATL@@UEAAJPEAPEAUIGlobalInterfaceTable@@@Z 00000001800332c4     Scanner.obj
 0004:000002d0       $pdata$?UpdateRegistryFromResource@CAtlModule@ATL@@QEAAJPEB_WHPEAU_ATL_REGMAP_ENTRY@2@@Z 00000001800332d0     Scanner.obj
 0004:000002dc       $pdata$?UpdateRegistryFromResource@CAtlModule@ATL@@QEAAJIHPEAU_ATL_REGMAP_ENTRY@2@@Z 00000001800332dc     Scanner.obj
 0004:000002e8       $pdata$?Term@CComModule@ATL@@QEAAXXZ 00000001800332e8     Scanner.obj
 0004:000002f4       $pdata$?GetClassObject@CComModule@ATL@@QEAAJAEBU_GUID@@0PEAPEAX@Z 00000001800332f4     Scanner.obj
 0004:00000300       $pdata$?RegisterServer@CComModule@ATL@@QEAAJHPEBU_GUID@@@Z 0000000180033300     Scanner.obj
 0004:0000030c       $pdata$?UnregisterServer@CComModule@ATL@@QEAAJHPEBU_GUID@@@Z 000000018003330c     Scanner.obj
 0004:00000318       $pdata$??_GCComModule@ATL@@UEAAPEAXI@Z 0000000180033318     Scanner.obj
 0004:00000324       $pdata$?Add@?$CSimpleMap@PEA_WPEA_WVCExpansionVectorEqualHelper@ATL@@@ATL@@QEAAHAEBQEA_W0@Z 0000000180033324     Scanner.obj
 0004:00000330       $pdata$?Lookup@?$CSimpleMap@PEA_WPEA_WVCExpansionVectorEqualHelper@ATL@@@ATL@@QEBAPEA_WAEBQEA_W@Z 0000000180033330     Scanner.obj
 0004:0000033c       $pdata$?Add@CExpansionVector@ATL@@QEAAHPEB_W0@Z 000000018003333c     Scanner.obj
 0004:00000348       $pdata$?ClearReplacements@CExpansionVector@ATL@@QEAAJXZ 0000000180033348     Scanner.obj
 0004:00000354       $pdata$?PreProcessBuffer@CRegParser@ATL@@QEAAJPEA_WPEAPEA_W@Z 0000000180033354     Scanner.obj
 0004:00000360       $pdata$?RegisterBuffer@CRegParser@ATL@@QEAAJPEA_WH@Z 0000000180033360     Scanner.obj
 0004:0000036c       $pdata$?NextToken@CRegParser@ATL@@IEAAJPEA_W@Z 000000018003336c     Scanner.obj
 0004:00000378       $pdata$?AddValue@CRegParser@ATL@@IEAAJAEAVCRegKey@2@PEB_WPEA_W@Z 0000000180033378     Scanner.obj
 0004:00000384       $pdata$?RegisterSubkeys@CRegParser@ATL@@IEAAJPEA_WPEAUHKEY__@@HH@Z 0000000180033384     Scanner.obj
 0004:00000390       $pdata$?SkipAssignment@CRegParser@ATL@@IEAAJPEA_W@Z 0000000180033390     Scanner.obj
 0004:0000039c       $pdata$?HKeyFromString@CRegParser@ATL@@KAPEAUHKEY__@@PEA_W@Z 000000018003339c     Scanner.obj
 0004:000003a8       $pdata$?VTFromRegType@CRegParser@ATL@@KAHPEB_WAEAG@Z 00000001800333a8     Scanner.obj
 0004:000003b4       $pdata$?Append@CParseBuffer@CRegParser@ATL@@QEAAHPEB_WH@Z 00000001800333b4     Scanner.obj
 0004:000003c0       $pdata$?AddReplacement@CRegObject@ATL@@UEAAJPEB_W0@Z 00000001800333c0     Scanner.obj
 0004:000003cc       $pdata$?RegisterFromResource@CRegObject@ATL@@IEAAJPEB_W00H@Z 00000001800333cc     Scanner.obj
 0004:000003d8       $pdata$??_GCRegObject@ATL@@UEAAPEAXI@Z 00000001800333d8     Scanner.obj
 0004:000003e4       $pdata$?AllocateHeap@?$CTempBuffer@_W$0BAA@VCCRTAllocator@ATL@@@ATL@@AEAAX_K@Z 00000001800333e4     Scanner.obj
 0004:000003e4       $pdata$?AllocateHeap@?$CTempBuffer@E$0BAA@VCCRTAllocator@ATL@@@ATL@@AEAAX_K@Z 00000001800333e4     Scanner.obj
 0004:000003e4       $pdata$?AllocateHeap@?$CTempBuffer@_W$0EAA@VCCRTAllocator@ATL@@@ATL@@AEAAX_K@Z 00000001800333e4     Scanner.obj
 0004:000003f0       $pdata$?IsEqualObject@?$CComPtrBase@UITypeInfo@@@ATL@@QEAA_NPEAUIUnknown@@@Z 00000001800333f0     Scanner.obj
 0004:000003f0       $pdata$?IsEqualObject@?$CComPtrBase@UIOleClientSite@@@ATL@@QEAA_NPEAUIUnknown@@@Z 00000001800333f0     Scanner.obj
 0004:000003fc       $pdata$?AtlIPersistStreamInit_Load@ATL@@YAJPEAUIStream@@PEBUATL_PROPMAP_ENTRY@1@PEAXPEAUIUnknown@@@Z 00000001800333fc     Scanner.obj
 0004:00000408       $pdata$?AtlIPersistStreamInit_Save@ATL@@YAJPEAUIStream@@HPEBUATL_PROPMAP_ENTRY@1@PEAXPEAUIUnknown@@@Z 0000000180033408     Scanner.obj
 0004:00000414       $pdata$?CreateInstance@CComClassFactory@ATL@@UEAAJPEAUIUnknown@@AEBU_GUID@@PEAPEAX@Z 0000000180033414     Scanner.obj
 0004:00000420       $pdata$?LockServer@CComClassFactory@ATL@@UEAAJH@Z 0000000180033420     Scanner.obj
 0004:0000042c       $pdata$??_GCComClassFactory@ATL@@UEAAPEAXI@Z 000000018003342c     Scanner.obj
 0004:00000438       $pdata$?GetTI@CComTypeInfoHolder@ATL@@QEAAJK@Z 0000000180033438     Scanner.obj
 0004:00000444       $pdata$?Cleanup@CComTypeInfoHolder@ATL@@SAX_K@Z 0000000180033444     Scanner.obj
 0004:00000450       $pdata$?GetIDsOfNames@CComTypeInfoHolder@ATL@@QEAAJAEBU_GUID@@PEAPEA_WIKPEAJ@Z 0000000180033450     Scanner.obj
 0004:0000045c       $pdata$?LoadNameCache@CComTypeInfoHolder@ATL@@QEAAJPEAUITypeInfo@@@Z 000000018003345c     Scanner.obj
 0004:00000468       $pdata$?Add@CComDynamicUnkArray@ATL@@QEAAKPEAUIUnknown@@@Z 0000000180033468     Scanner.obj
 0004:00000474       $pdata$?AtlCreateTargetDC@ATL@@YAPEAUHDC__@@PEAU2@PEAUtagDVTARGETDEVICE@@@Z 0000000180033474     Scanner.obj
 0004:00000480       $pdata$?AtlHiMetricToPixel@ATL@@YAXPEBUtagSIZE@@PEAU2@@Z 0000000180033480     Scanner.obj
 0004:0000048c       $pdata$?DefaultReflectionHandler@?$CWindowImplRoot@VCWindow@ATL@@@ATL@@SAHPEAUHWND__@@I_K_JAEA_J@Z 000000018003348c     Scanner.obj
 0004:00000498       $pdata$?StartWindowProc@?$CWindowImplBaseT@VCWindow@ATL@@V?$CWinTraits@$0FGAAAAAA@$0A@@2@@ATL@@SA_JPEAUHWND__@@I_K_J@Z 0000000180033498     Scanner.obj
 0004:000004a4       $pdata$?WindowProc@?$CWindowImplBaseT@VCWindow@ATL@@V?$CWinTraits@$0FGAAAAAA@$0A@@2@@ATL@@SA_JPEAUHWND__@@I_K_J@Z 00000001800334a4     Scanner.obj
 0004:000004b0       $pdata$?atlCreate@?$CWindowImplBaseT@VCWindow@ATL@@V?$CWinTraits@$0FGAAAAAA@$0A@@2@@ATL@@QEAAPEAUHWND__@@PEAU3@V_U_RECT@2@PEB_WKKV_U_MENUorID@2@GPEAX@Z 00000001800334b0     Scanner.obj
 0004:000004bc       $pdata$??$AtlModuleRegisterWndClassInfoT@VAtlModuleRegisterWndClassInfoParamW@ATL@@@ATL@@YAGPEAU_ATL_BASE_MODULE70@0@PEAU_ATL_WIN_MODULE70@0@PEAU_ATL_WNDCLASSINFOW@0@PEAP6A_JPEAUHWND__@@I_K_J@ZVAtlModuleRegisterWndClassInfoParamW@0@@Z 00000001800334bc     Scanner.obj
 0004:000004c8       $pdata$?GetZoomInfo@CComControlBase@ATL@@QEAAXAEAUATL_DRAWINFO@@@Z 00000001800334c8     Scanner.obj
 0004:000004d4       $pdata$?SendOnDataChange@CComControlBase@ATL@@QEAAJK@Z 00000001800334d4     Scanner.obj
 0004:000004e0       $pdata$?OnSetFocus@CComControlBase@ATL@@QEAA_JI_K_JAEAH@Z 00000001800334e0     Scanner.obj
 0004:000004ec       $pdata$?OnKillFocus@CComControlBase@ATL@@QEAA_JI_K_JAEAH@Z 00000001800334ec     Scanner.obj
 0004:000004f8       $pdata$?OnMouseActivate@CComControlBase@ATL@@QEAA_JI_K_JAEAH@Z 00000001800334f8     Scanner.obj
 0004:00000504       $pdata$?GetAmbientLocaleID@CComControlBase@ATL@@QEAAJAEAK@Z 0000000180033504     Scanner.obj
 0004:00000510       $pdata$?GetAmbientUserMode@CComControlBase@ATL@@QEAAJAEAH@Z 0000000180033510     Scanner.obj
 0004:0000051c       $pdata$?SetControlFocus@CComControlBase@ATL@@QEAAHH@Z 000000018003351c     Scanner.obj
 0004:00000528       $pdata$?IQuickActivate_QuickActivate@CComControlBase@ATL@@QEAAJPEAUtagQACONTAINER@@PEAUtagQACONTROL@@@Z 0000000180033528     Scanner.obj
 0004:00000534       $pdata$?DoVerbProperties@CComControlBase@ATL@@QEAAJPEBUtagRECT@@PEAUHWND__@@@Z 0000000180033534     Scanner.obj
 0004:00000540       $pdata$?InPlaceActivate@CComControlBase@ATL@@QEAAJJPEBUtagRECT@@@Z 0000000180033540     Scanner.obj
 0004:0000054c       $pdata$?IOleObject_SetClientSite@CComControlBase@ATL@@QEAAJPEAUIOleClientSite@@@Z 000000018003354c     Scanner.obj
 0004:00000558       $pdata$?IOleObject_Close@CComControlBase@ATL@@QEAAJK@Z 0000000180033558     Scanner.obj
 0004:00000564       $pdata$?IOleObject_SetExtent@CComControlBase@ATL@@QEAAJKPEAUtagSIZE@@@Z 0000000180033564     Scanner.obj
 0004:00000570       $pdata$?IOleInPlaceObject_InPlaceDeactivate@CComControlBase@ATL@@QEAAJXZ 0000000180033570     Scanner.obj
 0004:0000057c       $pdata$?IOleInPlaceObject_UIDeactivate@CComControlBase@ATL@@QEAAJXZ 000000018003357c     Scanner.obj
 0004:00000588       $pdata$?IOleInPlaceObject_SetObjectRects@CComControlBase@ATL@@QEAAJPEBUtagRECT@@0@Z 0000000180033588     Scanner.obj
 0004:00000594       $pdata$?IViewObject_Draw@CComControlBase@ATL@@QEAAJKJPEAXPEAUtagDVTARGETDEVICE@@PEAUHDC__@@2PEBU_RECTL@@3@Z 0000000180033594     Scanner.obj
 0004:000005a0       $pdata$?IDataObject_GetData@CComControlBase@ATL@@QEAAJPEAUtagFORMATETC@@PEAUtagSTGMEDIUM@@@Z 00000001800335a0     Scanner.obj
 0004:000005ac       $pdata$?FireViewChange@CComControlBase@ATL@@QEAAJXZ 00000001800335ac     Scanner.obj
 0004:000005b8       $pdata$?OnPaint@CComControlBase@ATL@@QEAA_JI_K_JAEAH@Z 00000001800335b8     Scanner.obj
 0004:000005c4       $pdata$?OnDrawAdvanced@CComControlBase@ATL@@UEAAJAEAUATL_DRAWINFO@@@Z 00000001800335c4     Scanner.obj
 0004:000005d0       $pdata$?GetTypeInfo@?$IDispatchImpl@UIOPOSScanner@@$1?IID_IOPOSScanner@@3U_GUID@@B$1?LIBID_OposScanner_CCO@@3U3@B$00$0A@VCComTypeInfoHolder@ATL@@@ATL@@UEAAJIKPEAPEAUITypeInfo@@@Z 00000001800335d0     Scanner.obj
 0004:000005dc       $pdata$?Invoke@?$IDispatchImpl@UIOPOSScanner@@$1?IID_IOPOSScanner@@3U_GUID@@B$1?LIBID_OposScanner_CCO@@3U3@B$00$0A@VCComTypeInfoHolder@ATL@@@ATL@@UEAAJJAEBU_GUID@@KGPEAUtagDISPPARAMS@@PEAUtagVARIANT@@PEAUtagEXCEPINFO@@PEAI@Z 00000001800335dc     Scanner.obj
 0004:000005e8       $pdata$?atlCreate@?$CWindowImpl@VCOPOSScanner@@VCWindow@ATL@@V?$CWinTraits@$0FGAAAAAA@$0A@@3@@ATL@@QEAAPEAUHWND__@@PEAU3@V_U_RECT@2@PEB_WKKV_U_MENUorID@2@PEAX@Z 00000001800335e8     Scanner.obj
 0004:000005f4       $pdata$?CreateControlWindow@?$CComControl@VCOPOSScanner@@V?$CWindowImpl@VCOPOSScanner@@VCWindow@ATL@@V?$CWinTraits@$0FGAAAAAA@$0A@@3@@ATL@@@ATL@@UEAAPEAUHWND__@@PEAU3@AEAUtagRECT@@@Z 00000001800335f4     Scanner.obj
 0004:00000600       $pdata$?ProcessWindowMessage@?$CComControl@VCOPOSScanner@@V?$CWindowImpl@VCOPOSScanner@@VCWindow@ATL@@V?$CWinTraits@$0FGAAAAAA@$0A@@3@@ATL@@@ATL@@UEAAHPEAUHWND__@@I_K_JAEA_JK@Z 0000000180033600     Scanner.obj
 0004:0000060c       $pdata$?Load@?$IPersistStreamInitImpl@VCOPOSScanner@@@ATL@@UEAAJPEAUIStream@@@Z 000000018003360c     Scanner.obj
 0004:00000618       $pdata$?Save@?$IPersistStreamInitImpl@VCOPOSScanner@@@ATL@@UEAAJPEAUIStream@@H@Z 0000000180033618     Scanner.obj
 0004:00000624       $pdata$?GetSizeMax@?$IPersistStreamInitImpl@VCOPOSScanner@@@ATL@@UEAAJPEAT_ULARGE_INTEGER@@@Z 0000000180033624     Scanner.obj
 0004:00000630       $pdata$?GetClientSite@?$IOleObjectImpl@VCOPOSScanner@@@ATL@@UEAAJPEAPEAUIOleClientSite@@@Z 0000000180033630     Scanner.obj
 0004:0000063c       $pdata$?DoVerbPrimary@?$IOleObjectImpl@VCOPOSScanner@@@ATL@@QEAAJPEBUtagRECT@@PEAUHWND__@@@Z 000000018003363c     Scanner.obj
 0004:00000648       $pdata$?DoVerb@?$IOleObjectImpl@VCOPOSScanner@@@ATL@@UEAAJJPEAUtagMSG@@PEAUIOleClientSite@@JPEAUHWND__@@PEBUtagRECT@@@Z 0000000180033648     Scanner.obj
 0004:00000654       $pdata$?Advise@?$IOleObjectImpl@VCOPOSScanner@@@ATL@@UEAAJPEAUIAdviseSink@@PEAK@Z 0000000180033654     Scanner.obj
 0004:00000660       $pdata$?Unadvise@?$IOleObjectImpl@VCOPOSScanner@@@ATL@@UEAAJK@Z 0000000180033660     Scanner.obj
 0004:0000066c       $pdata$?EnumAdvise@?$IOleObjectImpl@VCOPOSScanner@@@ATL@@UEAAJPEAPEAUIEnumSTATDATA@@@Z 000000018003366c     Scanner.obj
 0004:00000678       $pdata$?TranslateAcceleratorW@?$IOleInPlaceActiveObjectImpl@VCOPOSScanner@@@ATL@@UEAAJPEAUtagMSG@@@Z 0000000180033678     Scanner.obj
 0004:00000684       $pdata$?OnDocWindowActivate@?$IOleInPlaceActiveObjectImpl@VCOPOSScanner@@@ATL@@UEAAJH@Z 0000000180033684     Scanner.obj
 0004:00000690       $pdata$?Draw@?$IViewObjectExImpl@VCOPOSScanner@@@ATL@@UEAAJKJPEAXPEAUtagDVTARGETDEVICE@@PEAUHDC__@@2PEBU_RECTL@@3P6AH_K@Z4@Z 0000000180033690     Scanner.obj
 0004:0000069c       $pdata$?SetAdvise@?$IViewObjectExImpl@VCOPOSScanner@@@ATL@@UEAAJKKPEAUIAdviseSink@@@Z 000000018003369c     Scanner.obj
 0004:000006a8       $pdata$?GetAdvise@?$IViewObjectExImpl@VCOPOSScanner@@@ATL@@UEAAJPEAK0PEAPEAUIAdviseSink@@@Z 00000001800336a8     Scanner.obj
 0004:000006b4       $pdata$?QueryHitPoint@?$IViewObjectExImpl@VCOPOSScanner@@@ATL@@UEAAJKPEBUtagRECT@@UtagPOINT@@JPEAK@Z 00000001800336b4     Scanner.obj
 0004:000006c0       $pdata$?QueryHitRect@?$IViewObjectExImpl@VCOPOSScanner@@@ATL@@UEAAJKPEBUtagRECT@@0JPEAK@Z 00000001800336c0     Scanner.obj
 0004:000006cc       $pdata$?OnWindowMessage@?$IOleInPlaceObjectWindowlessImpl@VCOPOSScanner@@@ATL@@UEAAJI_K_JPEA_J@Z 00000001800336cc     Scanner.obj
 0004:000006d8       $pdata$?EnumConnectionPoints@?$IConnectionPointContainerImpl@VCOPOSScanner@@@ATL@@UEAAJPEAPEAUIEnumConnectionPoints@@@Z 00000001800336d8     Scanner.obj
 0004:000006e4       $pdata$?FindConnectionPoint@?$IConnectionPointContainerImpl@VCOPOSScanner@@@ATL@@UEAAJAEBU_GUID@@PEAPEAUIConnectionPoint@@@Z 00000001800336e4     Scanner.obj
 0004:000006f0       $pdata$?IsDirty@?$IPersistStorageImpl@VCOPOSScanner@@@ATL@@UEAAJXZ 00000001800336f0     Scanner.obj
 0004:000006fc       $pdata$?InitNew@?$IPersistStorageImpl@VCOPOSScanner@@@ATL@@UEAAJPEAUIStorage@@@Z 00000001800336fc     Scanner.obj
 0004:00000708       $pdata$?Load@?$IPersistStorageImpl@VCOPOSScanner@@@ATL@@UEAAJPEAUIStorage@@@Z 0000000180033708     Scanner.obj
 0004:00000714       $pdata$?Save@?$IPersistStorageImpl@VCOPOSScanner@@@ATL@@UEAAJPEAUIStorage@@H@Z 0000000180033714     Scanner.obj
 0004:00000720       $pdata$?IPSI_GetIPersistStreamInit@?$IPersistStorageImpl@VCOPOSScanner@@@ATL@@AEAAPEAUIPersistStreamInit@@XZ 0000000180033720     Scanner.obj
 0004:0000072c       $pdata$?GetPagesHelper@?$ISpecifyPropertyPagesImpl@VCOPOSScanner@@@ATL@@IEAAJPEAUtagCAUUID@@PEBUATL_PROPMAP_ENTRY@2@@Z 000000018003372c     Scanner.obj
 0004:00000738       $pdata$?DAdvise@?$IDataObjectImpl@VCOPOSScanner@@@ATL@@UEAAJPEAUtagFORMATETC@@KPEAUIAdviseSink@@PEAK@Z 0000000180033738     Scanner.obj
 0004:00000744       $pdata$?GetClassInfoW@?$IProvideClassInfo2Impl@$1?CLSID_OPOSScanner@@3U_GUID@@B$1?DIID__IOPOSScannerEvents@@3U2@B$1?LIBID_OposScanner_CCO@@3U2@B$00$0A@VCComTypeInfoHolder@ATL@@@ATL@@UEAAJPEAPEAUITypeInfo@@@Z 0000000180033744     Scanner.obj
 0004:00000750       $pdata$?GetInterfaceSafetyOptions@?$IObjectSafetyImpl@VCOPOSScanner@@$02@ATL@@UEAAJAEBU_GUID@@PEAK1@Z 0000000180033750     Scanner.obj
 0004:0000075c       $pdata$?SetInterfaceSafetyOptions@?$IObjectSafetyImpl@VCOPOSScanner@@$02@ATL@@UEAAJAEBU_GUID@@KK@Z 000000018003375c     Scanner.obj
 0004:00000768       $pdata$?_LocCPQueryInterface@?$IConnectionPointImpl@VCOPOSScanner@@$1?IID_IPropertyNotifySink@@3U_GUID@@BVCComDynamicUnkArray@ATL@@@ATL@@UEAAJAEBU_GUID@@PEAPEAX@Z 0000000180033768     Scanner.obj
 0004:00000768       $pdata$?_LocCPQueryInterface@?$IConnectionPointImpl@VCOPOSScanner@@$1?DIID__IOPOSScannerEvents@@3U_GUID@@BVCComDynamicUnkArray@ATL@@@ATL@@UEAAJAEBU_GUID@@PEAPEAX@Z 0000000180033768     Scanner.obj
 0004:00000774       $pdata$?Advise@?$IConnectionPointImpl@VCOPOSScanner@@$1?IID_IPropertyNotifySink@@3U_GUID@@BVCComDynamicUnkArray@ATL@@@ATL@@UEAAJPEAUIUnknown@@PEAK@Z 0000000180033774     Scanner.obj
 0004:00000774       $pdata$?Advise@?$IConnectionPointImpl@VCOPOSScanner@@$1?DIID__IOPOSScannerEvents@@3U_GUID@@BVCComDynamicUnkArray@ATL@@@ATL@@UEAAJPEAUIUnknown@@PEAK@Z 0000000180033774     Scanner.obj
 0004:00000780       $pdata$?Unadvise@?$IConnectionPointImpl@VCOPOSScanner@@$1?DIID__IOPOSScannerEvents@@3U_GUID@@BVCComDynamicUnkArray@ATL@@@ATL@@UEAAJK@Z 0000000180033780     Scanner.obj
 0004:00000780       $pdata$?Unadvise@?$IConnectionPointImpl@VCOPOSScanner@@$1?IID_IPropertyNotifySink@@3U_GUID@@BVCComDynamicUnkArray@ATL@@@ATL@@UEAAJK@Z 0000000180033780     Scanner.obj
 0004:0000078c       $pdata$?EnumConnections@?$IConnectionPointImpl@VCOPOSScanner@@$1?DIID__IOPOSScannerEvents@@3U_GUID@@BVCComDynamicUnkArray@ATL@@@ATL@@UEAAJPEAPEAUIEnumConnections@@@Z 000000018003378c     Scanner.obj
 0004:0000078c       $pdata$?EnumConnections@?$IConnectionPointImpl@VCOPOSScanner@@$1?IID_IPropertyNotifySink@@3U_GUID@@BVCComDynamicUnkArray@ATL@@@ATL@@UEAAJPEAPEAUIEnumConnections@@@Z 000000018003378c     Scanner.obj
 0004:00000798       $pdata$?Fire_DataEvent@?$CProxy_IOPOSEvents@VCOPOSScanner@@@@QEAAXJ@Z 0000000180033798     Scanner.obj
 0004:000007a4       $pdata$?Fire_DirectIOEvent@?$CProxy_IOPOSEvents@VCOPOSScanner@@@@QEAAXJPEAJPEAPEA_W@Z 00000001800337a4     Scanner.obj
 0004:000007b0       $pdata$?Fire_ErrorEvent@?$CProxy_IOPOSEvents@VCOPOSScanner@@@@QEAAXJJJPEAJ@Z 00000001800337b0     Scanner.obj
 0004:000007bc       $pdata$?Fire_StatusUpdateEvent@?$CProxy_IOPOSEvents@VCOPOSScanner@@@@QEAAXJ@Z 00000001800337bc     Scanner.obj
 0004:000007c8       $pdata$?FireTheEvent@?$CProxy_IOPOSEvents@VCOPOSScanner@@@@IEAAXPEAVOposVariant@@IAEAJPEB_WJ@Z 00000001800337c8     Scanner.obj
 0004:000007d4       $pdata$?GetConnMap@COPOSScanner@@SAPEBU_ATL_CONNMAP_ENTRY@ATL@@PEAH@Z 00000001800337d4     Scanner.obj
 0004:000007e0       $pdata$?ProcessWindowMessage@COPOSScanner@@UEAAHPEAUHWND__@@I_K_JAEA_JK@Z 00000001800337e0     Scanner.obj
 0004:000007ec       $pdata$?SOData@COPOSScanner@@MEAAJJ@Z 00000001800337ec     Scanner.obj
 0004:000007f8       $pdata$?SODirectIO@COPOSScanner@@MEAAJJPEAJPEAPEA_W@Z 00000001800337f8     Scanner.obj
 0004:00000804       $pdata$?SOError@COPOSScanner@@MEAAJJJJPEAJ@Z 0000000180033804     Scanner.obj
 0004:00000810       $pdata$?SOStatusUpdate@COPOSScanner@@MEAAJJ@Z 0000000180033810     Scanner.obj
 0004:0000081c       $pdata$?DoEvent@COPOSScanner@@IEAAXI_K_J@Z 000000018003381c     Scanner.obj
 0004:00000828       $pdata$??__E_Module@@YAXXZ 0000000180033828     Scanner.obj
 0004:00000834       $pdata$??__F_Module@@YAXXZ 0000000180033834     Scanner.obj
 0004:00000840       $pdata$?CreateInstance@?$CComCreator@V?$CComObjectCached@VCComClassFactory@ATL@@@ATL@@@ATL@@SAJPEAXAEBU_GUID@@PEAPEAX@Z 0000000180033840     Scanner.obj
 0004:0000084c       $pdata$DllMain             000000018003384c     Scanner.obj
 0004:00000858       $pdata$?CreateInstance@?$CComCreator@V?$CComObject@VCOPOSScanner@@@ATL@@@ATL@@SAJPEAXAEBU_GUID@@PEAPEAX@Z 0000000180033858     Scanner.obj
 0004:00000864       $pdata$?CreateInstance@?$CComCreator@V?$CComAggObject@VCOPOSScanner@@@ATL@@@ATL@@SAJPEAXAEBU_GUID@@PEAPEAX@Z 0000000180033864     Scanner.obj
 0004:00000870       $pdata$??1?$CComEnumImpl@UIEnumConnectionPoints@@$1?_GUID_b196b285_bab4_101a_b69c_00aa00341d07@@3U__s_GUID@@BPEAUIConnectionPoint@@V?$_CopyInterface@UIConnectionPoint@@@ATL@@@ATL@@UEAA@XZ 0000000180033870     Scanner.obj
 0004:0000087c       $pdata$?Next@?$CComEnumImpl@UIEnumConnectionPoints@@$1?_GUID_b196b285_bab4_101a_b69c_00aa00341d07@@3U__s_GUID@@BPEAUIConnectionPoint@@V?$_CopyInterface@UIConnectionPoint@@@ATL@@@ATL@@UEAAJKPEAPEAUIConnectionPoint@@PEAK@Z 000000018003387c     Scanner.obj
 0004:00000888       $pdata$?Clone@?$CComEnumImpl@UIEnumConnectionPoints@@$1?_GUID_b196b285_bab4_101a_b69c_00aa00341d07@@3U__s_GUID@@BPEAUIConnectionPoint@@V?$_CopyInterface@UIConnectionPoint@@@ATL@@@ATL@@UEAAJPEAPEAUIEnumConnectionPoints@@@Z 0000000180033888     Scanner.obj
 0004:00000894       $pdata$?Init@?$CComEnumImpl@UIEnumConnectionPoints@@$1?_GUID_b196b285_bab4_101a_b69c_00aa00341d07@@3U__s_GUID@@BPEAUIConnectionPoint@@V?$_CopyInterface@UIConnectionPoint@@@ATL@@@ATL@@QEAAJPEAPEAUIConnectionPoint@@0PEAUIUnknown@@W4CComEnumFlags@2@@Z 0000000180033894     Scanner.obj
 0004:000008a0       $pdata$?Release@?$CComObject@V?$CComEnum@UIEnumConnections@@$1?_GUID_b196b287_bab4_101a_b69c_00aa00341d07@@3U__s_GUID@@BUtagCONNECTDATA@@V?$_Copy@UtagCONNECTDATA@@@ATL@@VCComSingleThreadModel@6@@ATL@@@ATL@@UEAAKXZ 00000001800338a0     Scanner.obj
 0004:000008a0       $pdata$?Release@?$CComObject@V?$CComEnum@UIEnumConnectionPoints@@$1?_GUID_b196b285_bab4_101a_b69c_00aa00341d07@@3U__s_GUID@@BPEAUIConnectionPoint@@V?$_CopyInterface@UIConnectionPoint@@@ATL@@VCComSingleThreadModel@6@@ATL@@@ATL@@UEAAKXZ 00000001800338a0     Scanner.obj
 0004:000008ac       $pdata$?CreateInstance@?$CComObject@V?$CComEnum@UIEnumConnectionPoints@@$1?_GUID_b196b285_bab4_101a_b69c_00aa00341d07@@3U__s_GUID@@BPEAUIConnectionPoint@@V?$_CopyInterface@UIConnectionPoint@@@ATL@@VCComSingleThreadModel@6@@ATL@@@ATL@@SAJPEAPEAV12@@Z 00000001800338ac     Scanner.obj
 0004:000008b8       $pdata$??_G?$CComObject@V?$CComEnum@UIEnumConnectionPoints@@$1?_GUID_b196b285_bab4_101a_b69c_00aa00341d07@@3U__s_GUID@@BPEAUIConnectionPoint@@V?$_CopyInterface@UIConnectionPoint@@@ATL@@VCComSingleThreadModel@6@@ATL@@@ATL@@UEAAPEAXI@Z 00000001800338b8     Scanner.obj
 0004:000008c4       $pdata$?AddRef@?$CComObjectCached@VCComClassFactory@ATL@@@ATL@@UEAAKXZ 00000001800338c4     Scanner.obj
 0004:000008d0       $pdata$?Release@?$CComObjectCached@VCComClassFactory@ATL@@@ATL@@UEAAKXZ 00000001800338d0     Scanner.obj
 0004:000008dc       $pdata$??_G?$CComObjectCached@VCComClassFactory@ATL@@@ATL@@UEAAPEAXI@Z 00000001800338dc     Scanner.obj
 0004:000008e8       $pdata$?Release@?$CComAggObject@VCOPOSScanner@@@ATL@@UEAAKXZ 00000001800338e8     Scanner.obj
 0004:000008f4       $pdata$?QueryInterface@?$CComAggObject@VCOPOSScanner@@@ATL@@UEAAJAEBU_GUID@@PEAPEAX@Z 00000001800338f4     Scanner.obj
 0004:00000900       $pdata$??0?$CComContainedObject@VCOPOSScanner@@@ATL@@QEAA@PEAX@Z 0000000180033900     Scanner.obj
 0004:0000090c       $pdata$??_G?$CComContainedObject@VCOPOSScanner@@@ATL@@UEAAPEAXI@Z 000000018003390c     Scanner.obj
 0004:00000918       $pdata$??_G?$CComAggObject@VCOPOSScanner@@@ATL@@UEAAPEAXI@Z 0000000180033918     Scanner.obj
 0004:00000924       $pdata$??0?$CComObject@VCOPOSScanner@@@ATL@@QEAA@PEAX@Z 0000000180033924     Scanner.obj
 0004:00000930       $pdata$??1?$CComObject@VCOPOSScanner@@@ATL@@UEAA@XZ 0000000180033930     Scanner.obj
 0004:0000093c       $pdata$?Release@?$CComObject@VCOPOSScanner@@@ATL@@UEAAKXZ 000000018003393c     Scanner.obj
 0004:00000948       $pdata$??_G?$CComObject@VCOPOSScanner@@@ATL@@UEAAPEAXI@Z 0000000180033948     Scanner.obj
 0004:00000954       $pdata$??__E?pConnMap@?$IConnectionPointContainerImpl@VCOPOSScanner@@@ATL@@0PEBU_ATL_CONNMAP_ENTRY@2@EB@@YAXXZ 0000000180033954     Scanner.obj
 0004:00000960       $pdata$??1?$CComEnumImpl@UIEnumConnections@@$1?_GUID_b196b287_bab4_101a_b69c_00aa00341d07@@3U__s_GUID@@BUtagCONNECTDATA@@V?$_Copy@UtagCONNECTDATA@@@ATL@@@ATL@@UEAA@XZ 0000000180033960     Scanner.obj
 0004:0000096c       $pdata$?Next@?$CComEnumImpl@UIEnumConnections@@$1?_GUID_b196b287_bab4_101a_b69c_00aa00341d07@@3U__s_GUID@@BUtagCONNECTDATA@@V?$_Copy@UtagCONNECTDATA@@@ATL@@@ATL@@UEAAJKPEAUtagCONNECTDATA@@PEAK@Z 000000018003396c     Scanner.obj
 0004:00000978       $pdata$?Clone@?$CComEnumImpl@UIEnumConnections@@$1?_GUID_b196b287_bab4_101a_b69c_00aa00341d07@@3U__s_GUID@@BUtagCONNECTDATA@@V?$_Copy@UtagCONNECTDATA@@@ATL@@@ATL@@UEAAJPEAPEAUIEnumConnections@@@Z 0000000180033978     Scanner.obj
 0004:00000984       $pdata$?Init@?$CComEnumImpl@UIEnumConnections@@$1?_GUID_b196b287_bab4_101a_b69c_00aa00341d07@@3U__s_GUID@@BUtagCONNECTDATA@@V?$_Copy@UtagCONNECTDATA@@@ATL@@@ATL@@QEAAJPEAUtagCONNECTDATA@@0PEAUIUnknown@@W4CComEnumFlags@2@@Z 0000000180033984     Scanner.obj
 0004:00000990       $pdata$?CreateInstance@?$CComObject@V?$CComEnum@UIEnumConnections@@$1?_GUID_b196b287_bab4_101a_b69c_00aa00341d07@@3U__s_GUID@@BUtagCONNECTDATA@@V?$_Copy@UtagCONNECTDATA@@@ATL@@VCComSingleThreadModel@6@@ATL@@@ATL@@SAJPEAPEAV12@@Z 0000000180033990     Scanner.obj
 0004:0000099c       $pdata$??_G?$CComObject@V?$CComEnum@UIEnumConnections@@$1?_GUID_b196b287_bab4_101a_b69c_00aa00341d07@@3U__s_GUID@@BUtagCONNECTDATA@@V?$_Copy@UtagCONNECTDATA@@@ATL@@VCComSingleThreadModel@6@@ATL@@@ATL@@UEAAPEAXI@Z 000000018003399c     Scanner.obj
 0004:000009a8       $pdata$??1CComControlBase@ATL@@UEAA@XZ 00000001800339a8     ScannerImpl.obj
 0004:000009b4       $pdata$??1?$IConnectionPointImpl@VCOPOSScanner@@$1?IID_IPropertyNotifySink@@3U_GUID@@BVCComDynamicUnkArray@ATL@@@ATL@@QEAA@XZ 00000001800339b4     ScannerImpl.obj
 0004:000009b4       $pdata$??1?$IConnectionPointImpl@VCOPOSScanner@@$1?DIID__IOPOSScannerEvents@@3U_GUID@@BVCComDynamicUnkArray@ATL@@@ATL@@QEAA@XZ 00000001800339b4     ScannerImpl.obj
 0004:000009c0       $pdata$?FinalConstruct@COPOSScanner@@QEAAJXZ 00000001800339c0     ScannerImpl.obj
 0004:000009cc       $pdata$??1COPOSScanner@@UEAA@XZ 00000001800339cc     ScannerImpl.obj
 0004:000009d8       $pdata$?GetOposProp@COPOSScanner@@IEAAJJPEAJJ@Z 00000001800339d8     ScannerImpl.obj
 0004:000009e4       $pdata$?SetOposProp@COPOSScanner@@IEAAJJJJ@Z 00000001800339e4     ScannerImpl.obj
 0004:000009f0       $pdata$?GetOposProp@COPOSScanner@@IEAAJJPEAPEA_WJ@Z 00000001800339f0     ScannerImpl.obj
 0004:000009fc       $pdata$?DoInvoke@COPOSScanner@@IEAAJJPEAVOposVariant@@IHPEAJ_N@Z 00000001800339fc     ScannerImpl.obj
 0004:00000a08       $pdata$?SetCOFreezeEvents@COPOSScanner@@IEAAXF@Z 0000000180033a08     ScannerImpl.obj
 0004:00000a14       $pdata$?FreezeEvents@COPOSScanner@@MEAAJH@Z 0000000180033a14     ScannerImpl.obj
 0004:00000a20       $pdata$?OnDraw@COPOSScanner@@MEAAJAEAUATL_DRAWINFO@@@Z 0000000180033a20     ScannerImpl.obj
 0004:00000a2c       $pdata$?EventInit@COPOSScanner@@IEAAJXZ 0000000180033a2c     ScannerImpl.obj
 0004:00000a38       $pdata$?EventUninit@COPOSScanner@@IEAAXXZ 0000000180033a38     ScannerImpl.obj
 0004:00000a44       $pdata$?s_EventWindowProc@COPOSScanner@@KA_JPEAUHWND__@@I_K_J@Z 0000000180033a44     ScannerImpl.obj
 0004:00000a50       $pdata$?EventWindowProc@COPOSScanner@@IEAA_JI_K_J@Z 0000000180033a50     ScannerImpl.obj
 0004:00000a5c       $pdata$?SOProcessID@COPOSScanner@@UEAAJPEAJ@Z 0000000180033a5c     ScannerImpl.obj
 0004:00000a68       $pdata$?get_Claimed@COPOSScanner@@UEAAJPEAF@Z 0000000180033a68     ScannerImpl.obj
 0004:00000a74       $pdata$?get_DataEventEnabled@COPOSScanner@@UEAAJPEAF@Z 0000000180033a74     ScannerImpl.obj
 0004:00000a80       $pdata$?get_DeviceEnabled@COPOSScanner@@UEAAJPEAF@Z 0000000180033a80     ScannerImpl.obj
 0004:00000a8c       $pdata$?get_FreezeEvents@COPOSScanner@@UEAAJPEAF@Z 0000000180033a8c     ScannerImpl.obj
 0004:00000a98       $pdata$?put_FreezeEvents@COPOSScanner@@UEAAJF@Z 0000000180033a98     ScannerImpl.obj
 0004:00000aa4       $pdata$?get_ResultCode@COPOSScanner@@UEAAJPEAJ@Z 0000000180033aa4     ScannerImpl.obj
 0004:00000ab0       $pdata$?get_State@COPOSScanner@@UEAAJPEAJ@Z 0000000180033ab0     ScannerImpl.obj
 0004:00000abc       $pdata$?get_ControlObjectDescription@COPOSScanner@@UEAAJPEAPEA_W@Z 0000000180033abc     ScannerImpl.obj
 0004:00000ac8       $pdata$?CheckHealth@COPOSScanner@@UEAAJJPEAJ@Z 0000000180033ac8     ScannerImpl.obj
 0004:00000ad4       $pdata$?ClaimDevice@COPOSScanner@@UEAAJJPEAJ@Z 0000000180033ad4     ScannerImpl.obj
 0004:00000ae0       $pdata$?ClearInput@COPOSScanner@@UEAAJPEAJ@Z 0000000180033ae0     ScannerImpl.obj
 0004:00000aec       $pdata$?Close@COPOSScanner@@UEAAJPEAJ@Z 0000000180033aec     ScannerImpl.obj
 0004:00000af8       $pdata$?DirectIO@COPOSScanner@@UEAAJJPEAJPEAPEA_W0@Z 0000000180033af8     ScannerImpl.obj
 0004:00000b04       $pdata$?Open@COPOSScanner@@UEAAJPEA_WPEAJ@Z 0000000180033b04     ScannerImpl.obj
 0004:00000b10       $pdata$?ReleaseDevice@COPOSScanner@@UEAAJPEAJ@Z 0000000180033b10     ScannerImpl.obj
 0004:00000b1c       $pdata$?get_AutoDisable@COPOSScanner@@UEAAJPEAF@Z 0000000180033b1c     ScannerImpl.obj
 0004:00000b28       $pdata$?get_DecodeData@COPOSScanner@@UEAAJPEAF@Z 0000000180033b28     ScannerImpl.obj
 0004:00000b34       $pdata$?get_CapStatisticsReporting@COPOSScanner@@UEAAJPEAF@Z 0000000180033b34     ScannerImpl.obj
 0004:00000b40       $pdata$?get_CapUpdateStatistics@COPOSScanner@@UEAAJPEAF@Z 0000000180033b40     ScannerImpl.obj
 0004:00000b4c       $pdata$?ResetStatistics@COPOSScanner@@UEAAJPEA_WPEAJ@Z 0000000180033b4c     ScannerImpl.obj
 0004:00000b58       $pdata$?RetrieveStatistics@COPOSScanner@@UEAAJPEAPEA_WPEAJ@Z 0000000180033b58     ScannerImpl.obj
 0004:00000b64       $pdata$?UpdateStatistics@COPOSScanner@@UEAAJPEA_WPEAJ@Z 0000000180033b64     ScannerImpl.obj
 0004:00000b70       $pdata$?get_CapCompareFirmwareVersion@COPOSScanner@@UEAAJPEAF@Z 0000000180033b70     ScannerImpl.obj
 0004:00000b7c       $pdata$?get_CapUpdateFirmware@COPOSScanner@@UEAAJPEAF@Z 0000000180033b7c     ScannerImpl.obj
 0004:00000b88       $pdata$?CompareFirmwareVersion@COPOSScanner@@UEAAJPEA_WPEAJ1@Z 0000000180033b88     ScannerImpl.obj
 0004:00000b94       $pdata$?UpdateFirmware@COPOSScanner@@UEAAJPEA_WPEAJ@Z 0000000180033b94     ScannerImpl.obj
 0004:00000ba0       $pdata$?ClearInputProperties@COPOSScanner@@UEAAJPEAJ@Z 0000000180033ba0     ScannerImpl.obj
 0004:00000bac       $pdata$atexit              0000000180033bac     LIBCMT:utility.obj
 0004:00000bb8       $pdata$_onexit             0000000180033bb8     LIBCMT:utility.obj
 0004:00000bc4       $pdata$__scrt_is_nonwritable_in_current_image 0000000180033bc4     LIBCMT:utility.obj
 0004:00000bd0       $pdata$__scrt_is_nonwritable_in_current_image$filt$0 0000000180033bd0     LIBCMT:utility.obj
 0004:00000bdc       $pdata$__scrt_acquire_startup_lock 0000000180033bdc     LIBCMT:utility.obj
 0004:00000be8       $pdata$__scrt_release_startup_lock 0000000180033be8     LIBCMT:utility.obj
 0004:00000bf4       $pdata$__scrt_initialize_crt 0000000180033bf4     LIBCMT:utility.obj
 0004:00000c00       $pdata$__scrt_uninitialize_crt 0000000180033c00     LIBCMT:utility.obj
 0004:00000c0c       $pdata$__scrt_initialize_onexit_tables 0000000180033c0c     LIBCMT:utility.obj
 0004:00000c18       $pdata$__scrt_dllmain_exception_filter 0000000180033c18     LIBCMT:utility.obj
 0004:00000c24       $pdata$__scrt_dllmain_before_initialize_c 0000000180033c24     LIBCMT:utility.obj
 0004:00000c30       $pdata$__scrt_dllmain_after_initialize_c 0000000180033c30     LIBCMT:utility.obj
 0004:00000c3c       $pdata$__scrt_dllmain_uninitialize_c 0000000180033c3c     LIBCMT:utility.obj
 0004:00000c48       $pdata$__scrt_dllmain_uninitialize_critical 0000000180033c48     LIBCMT:utility.obj
 0004:00000c54       $pdata$__scrt_dllmain_crt_thread_attach 0000000180033c54     LIBCMT:utility.obj
 0004:00000c60       $pdata$__scrt_dllmain_crt_thread_detach 0000000180033c60     LIBCMT:utility.obj
 0004:00000c6c       $pdata$_Init_thread_header 0000000180033c6c     LIBCMT:thread_safe_statics.obj
 0004:00000c78       $pdata$_Init_thread_footer 0000000180033c78     LIBCMT:thread_safe_statics.obj
 0004:00000c84       $pdata$_Init_thread_wait   0000000180033c84     LIBCMT:thread_safe_statics.obj
 0004:00000c90       $pdata$_Init_thread_notify 0000000180033c90     LIBCMT:thread_safe_statics.obj
 0004:00000c9c       $pdata$?__scrt_uninitialize_thread_safe_statics@@YAXXZ 0000000180033c9c     LIBCMT:thread_safe_statics.obj
 0004:00000ca8       $pdata$?__scrt_initialize_thread_safe_statics@@YAHXZ 0000000180033ca8     LIBCMT:thread_safe_statics.obj
 0004:00000cb4       $pdata$__report_securityfailure 0000000180033cb4     LIBCMT:gs_report.obj
 0004:00000cc0       $pdata$__report_rangecheckfailure 0000000180033cc0     LIBCMT:gs_report.obj
 0004:00000ccc       $pdata$__report_gsfailure  0000000180033ccc     LIBCMT:gs_report.obj
 0004:00000cd8       $pdata$capture_current_context 0000000180033cd8     LIBCMT:gs_report.obj
 0004:00000ce4       $pdata$capture_previous_context 0000000180033ce4     LIBCMT:gs_report.obj
 0004:00000cf0       $pdata$__raise_securityfailure 0000000180033cf0     LIBCMT:gs_report.obj
 0004:00000cfc       $pdata$??2@YAPEAX_KAEBUnothrow_t@std@@@Z 0000000180033cfc     LIBCMT:new_scalar_nothrow.obj
 0004:00000d08       $pdata$?catch$0@?0???2@YAPEAX_KAEBUnothrow_t@std@@@Z@4HA 0000000180033d08     LIBCMT:new_scalar_nothrow.obj
 0004:00000d14       $pdata$__GSHandlerCheckCommon 0000000180033d14     LIBCMT:gshandler.obj
 0004:00000d20       $pdata$__GSHandlerCheck    0000000180033d20     LIBCMT:gshandler.obj
 0004:00000d2c       $pdata$__GSHandlerCheck_SEH 0000000180033d2c     LIBCMT:gshandlerseh.obj
 0004:00000d50       $pdata$?dllmain_crt_process_attach@@YAHQEAUHINSTANCE__@@QEAX@Z 0000000180033d50     LIBCMT:dll_dllmain.obj
 0004:00000d5c       $pdata$?fin$0@?0??dllmain_crt_process_attach@@YAHQEAUHINSTANCE__@@QEAX@Z@4HA 0000000180033d5c     LIBCMT:dll_dllmain.obj
 0004:00000d68       $pdata$?dllmain_crt_process_detach@@YAH_N@Z 0000000180033d68     LIBCMT:dll_dllmain.obj
 0004:00000d74       $pdata$?fin$0@?0??dllmain_crt_process_detach@@YAH_N@Z@4HA 0000000180033d74     LIBCMT:dll_dllmain.obj
 0004:00000d80       $pdata$?dllmain_crt_dispatch@@YAHQEAUHINSTANCE__@@KQEAX@Z 0000000180033d80     LIBCMT:dll_dllmain.obj
 0004:00000d8c       $pdata$?dllmain_dispatch@@YAHQEAUHINSTANCE__@@KQEAX@Z 0000000180033d8c     LIBCMT:dll_dllmain.obj
 0004:00000d98       $pdata$?filt$0@?0??dllmain_dispatch@@YAHQEAUHINSTANCE__@@KQEAX@Z@4HA 0000000180033d98     LIBCMT:dll_dllmain.obj
 0004:00000da4       $pdata$_DllMainCRTStartup  0000000180033da4     LIBCMT:dll_dllmain.obj
 0004:00000db0       $pdata$??2@YAPEAX_K@Z      0000000180033db0     LIBCMT:new_scalar.obj
 0004:00000dbc       $pdata$__isa_available_init 0000000180033dbc     LIBCMT:cpu_disp.obj
 0004:00000dc8       $pdata$__scrt_fastfail     0000000180033dc8     LIBCMT:utility_desktop.obj
 0004:00000dd4       $pdata$__security_init_cookie 0000000180033dd4     LIBCMT:gs_support.obj
 0004:00000de0       $pdata$__scrt_initialize_default_local_stdio_options 0000000180033de0     LIBCMT:default_local_stdio_options.obj
 0004:00000dec       $pdata$_RTC_Initialize     0000000180033dec     LIBCMT:initsect.obj
 0004:00000df8       $pdata$_RTC_Terminate      0000000180033df8     LIBCMT:initsect.obj
 0004:00000e04       $pdata$??0exception@std@@QEAA@AEBV01@@Z 0000000180033e04     LIBCMT:throw_bad_alloc.obj
 0004:00000e10       $pdata$??_Gexception@std@@UEAAPEAXI@Z 0000000180033e10     LIBCMT:throw_bad_alloc.obj
 0004:00000e10       $pdata$??_Gbad_array_new_length@std@@UEAAPEAXI@Z 0000000180033e10     LIBCMT:throw_bad_alloc.obj
 0004:00000e10       $pdata$??_Gbad_alloc@std@@UEAAPEAXI@Z 0000000180033e10     LIBCMT:throw_bad_alloc.obj
 0004:00000e10       $pdata$??_Gbad_exception@std@@UEAAPEAXI@Z 0000000180033e10     libvcruntime:frame.obj
 0004:00000e1c       $pdata$??0bad_alloc@std@@QEAA@AEBV01@@Z 0000000180033e1c     LIBCMT:throw_bad_alloc.obj
 0004:00000e28       $pdata$??0bad_array_new_length@std@@QEAA@AEBV01@@Z 0000000180033e28     LIBCMT:throw_bad_alloc.obj
 0004:00000e34       $pdata$?__scrt_throw_std_bad_alloc@@YAXXZ 0000000180033e34     LIBCMT:throw_bad_alloc.obj
 0004:00000e40       $pdata$?__scrt_throw_std_bad_array_new_length@@YAXXZ 0000000180033e40     LIBCMT:throw_bad_alloc.obj
 0004:00000e58       $pdata$??_Gtype_info@@UEAAPEAXI@Z 0000000180033e58     LIBCMT:std_type_info_static.obj
 0004:00000e64       $pdata$??0CAtlBaseModule@ATL@@QEAA@XZ 0000000180033e64     atls:atlbase.obj
 0004:00000e70       $pdata$??1CAtlBaseModule@ATL@@QEAA@XZ 0000000180033e70     atls:atlbase.obj
 0004:00000e7c       $pdata$??__E_AtlBaseModule@ATL@@YAXXZ 0000000180033e7c     atls:atlbase.obj
 0004:00000e88       $pdata$AtlThunk_AllocateData 0000000180033e88     atls:atlthunk.obj
 0004:00000e94       $pdata$AtlThunk_InitData   0000000180033e94     atls:atlthunk.obj
 0004:00000ea0       $pdata$AtlThunk_DataToCode 0000000180033ea0     atls:atlthunk.obj
 0004:00000eac       $pdata$AtlThunk_FreeData   0000000180033eac     atls:atlthunk.obj
 0004:00000eb8       $pdata$?__InitializeThunkPool@@YAHXZ 0000000180033eb8     atls:atlthunk.obj
 0004:00000ec4       $pdata$?__AllocStdCallThunk_cmn@@YAPEAXXZ 0000000180033ec4     atls:atlthunk.obj
 0004:00000ed0       $pdata$??$GetProcAddressAll@P6AP6A_JPEAUHWND__@@I_K_J@ZPEAUAtlThunkData_t@@@Z@@YAP6AP6A_JPEAUHWND__@@I_K_J@ZPEAUAtlThunkData_t@@@ZPEAP6AP6A_J0I12@Z3@Z@Z 0000000180033ed0     atls:atlthunk.obj
 0004:00000ed0       $pdata$??$GetProcAddressAll@P6APEAUAtlThunkData_t@@XZ@@YAP6APEAUAtlThunkData_t@@XZPEAP6APEAU0@XZ@Z 0000000180033ed0     atls:atlthunk.obj
 0004:00000ed0       $pdata$??$GetProcAddressAll@P6AXPEAUAtlThunkData_t@@PEAX_K@Z@@YAP6AXPEAUAtlThunkData_t@@PEAX_K@ZPEAP6AX012@Z@Z 0000000180033ed0     atls:atlthunk.obj
 0004:00000ed0       $pdata$??$GetProcAddressAll@P6AXPEAUAtlThunkData_t@@@Z@@YAP6AXPEAUAtlThunkData_t@@@ZPEAP6AX0@Z@Z 0000000180033ed0     atls:atlthunk.obj
 0004:00000edc       $pdata$_purecall           0000000180033edc     libvcruntime:purevirt.obj
 0004:00000ee8       $pdata$wcsstr              0000000180033ee8     libvcruntime:wcsstr.obj
 0004:00000f30       $pdata$__vcrt_initialize   0000000180033f30     libvcruntime:initialization.obj
 0004:00000f3c       $pdata$__vcrt_uninitialize 0000000180033f3c     libvcruntime:initialization.obj
 0004:00000f48       $pdata$__vcrt_uninitialize_critical 0000000180033f48     libvcruntime:initialization.obj
 0004:00000f54       $pdata$__vcrt_thread_attach 0000000180033f54     libvcruntime:initialization.obj
 0004:00000f60       $pdata$__vcrt_thread_detach 0000000180033f60     libvcruntime:initialization.obj
 0004:00000f6c       $pdata$__C_specific_handler 0000000180033f6c     libvcruntime:riscchandler.obj
 0004:00000f78       $pdata$?CatchTryBlock@__FrameHandler3@@SAPEBU_s_TryBlockMapEntry@@PEBU_s_FuncInfo@@H@Z 0000000180033f78     libvcruntime:risctrnsctrl.obj
 0004:00000f84       $pdata$?ExecutionInCatch@__FrameHandler3@@SA_NPEAU_xDISPATCHER_CONTEXT@@PEBU_s_FuncInfo@@@Z 0000000180033f84     libvcruntime:risctrnsctrl.obj
 0004:00000f90       $pdata$?FrameUnwindToEmptyState@__FrameHandler3@@SAXPEA_KPEAU_xDISPATCHER_CONTEXT@@PEBU_s_FuncInfo@@@Z 0000000180033f90     libvcruntime:risctrnsctrl.obj
 0004:00000f9c       $pdata$?GetEstablisherFrame@__FrameHandler3@@SAPEA_KPEA_KPEAU_xDISPATCHER_CONTEXT@@PEBU_s_FuncInfo@@0@Z 0000000180033f9c     libvcruntime:risctrnsctrl.obj
 0004:00000fa8       $pdata$?UnwindNestedFrames@__FrameHandler3@@SAXPEA_KPEAUEHExceptionRecord@@PEAU_CONTEXT@@0PEAXPEBU_s_FuncInfo@@HHPEBU_s_HandlerType@@PEAU_xDISPATCHER_CONTEXT@@E@Z 0000000180033fa8     libvcruntime:risctrnsctrl.obj
 0004:00000fb4       $pdata$?GetRangeOfTrysToCheck@__FrameHandler3@@SA?AU?$pair@Viterator@TryBlockMap@__FrameHandler3@@V123@@std@@AEAVTryBlockMap@1@HPEAU_xDISPATCHER_CONTEXT@@PEBU_s_FuncInfo@@H@Z 0000000180033fb4     libvcruntime:risctrnsctrl.obj
 0004:00000fc0       $pdata$_GetImageBase       0000000180033fc0     libvcruntime:risctrnsctrl.obj
 0004:00000fcc       $pdata$_SetImageBase       0000000180033fcc     libvcruntime:risctrnsctrl.obj
 0004:00000fd8       $pdata$_GetThrowImageBase  0000000180033fd8     libvcruntime:risctrnsctrl.obj
 0004:00000fe4       $pdata$_SetThrowImageBase  0000000180033fe4     libvcruntime:risctrnsctrl.obj
 0004:00000ff0       $pdata$_CreateFrameInfo    0000000180033ff0     libvcruntime:risctrnsctrl.obj
 0004:00000ffc       $pdata$_FindAndUnlinkFrame 0000000180033ffc     libvcruntime:risctrnsctrl.obj
 0004:00001008       $pdata$__CxxFrameHandler3  0000000180034008     libvcruntime:risctrnsctrl.obj
 0004:00001014       $pdata$??$_CallSETranslator@V__FrameHandler3@@@@YAHPEAUEHExceptionRecord@@PEA_KPEAU_CONTEXT@@PEAU_xDISPATCHER_CONTEXT@@PEBU_s_FuncInfo@@K1@Z 0000000180034014     libvcruntime:risctrnsctrl.obj
 0004:00001020       $pdata$?filt$0@?0???$_CallSETranslator@V__FrameHandler3@@@@YAHPEAUEHExceptionRecord@@PEA_KPEAU_CONTEXT@@PEAU_xDISPATCHER_CONTEXT@@PEBU_s_FuncInfo@@K1@Z@4HA 0000000180034020     libvcruntime:risctrnsctrl.obj
 0004:0000102c       $pdata$__std_type_info_destroy_list 000000018003402c     libvcruntime:std_type_info.obj
 0004:00001038       $pdata$__std_exception_copy 0000000180034038     libvcruntime:std_exception.obj
 0004:00001044       $pdata$__std_exception_destroy 0000000180034044     libvcruntime:std_exception.obj
 0004:00001050       $pdata$_CxxThrowException  0000000180034050     libvcruntime:throw.obj
 0004:0000105c       $pdata$__vcrt_initialize_ptd 000000018003405c     libvcruntime:per_thread_data.obj
 0004:00001068       $pdata$__vcrt_uninitialize_ptd 0000000180034068     libvcruntime:per_thread_data.obj
 0004:00001074       $pdata$__vcrt_getptd       0000000180034074     libvcruntime:per_thread_data.obj
 0004:00001080       $pdata$__vcrt_getptd_noexit 0000000180034080     libvcruntime:per_thread_data.obj
 0004:0000108c       $pdata$__vcrt_freeptd      000000018003408c     libvcruntime:per_thread_data.obj
 0004:00001098       $pdata$__vcrt_freefls      0000000180034098     libvcruntime:per_thread_data.obj
 0004:000010a4       $pdata$__vcrt_initialize_locks 00000001800340a4     libvcruntime:locks.obj
 0004:000010b0       $pdata$__vcrt_uninitialize_locks 00000001800340b0     libvcruntime:locks.obj
 0004:000010e0       $pdata$_IsExceptionObjectToBeDestroyed 00000001800340e0     libvcruntime:ehhelpers.obj
 0004:000010ec       $pdata$__FrameUnwindFilter 00000001800340ec     libvcruntime:ehhelpers.obj
 0004:000010f8       $pdata$__DestructExceptionObject 00000001800340f8     libvcruntime:ehhelpers.obj
 0004:00001104       $pdata$__DestructExceptionObject$filt$0 0000000180034104     libvcruntime:ehhelpers.obj
 0004:00001110       $pdata$?StateFromIp@__FrameHandler3@@SAHPEBU_s_FuncInfo@@PEAU_xDISPATCHER_CONTEXT@@_K@Z 0000000180034110     libvcruntime:ehstate.obj
 0004:0000111c       $pdata$?GetCurrentState@__FrameHandler3@@SAHPEA_KPEAU_xDISPATCHER_CONTEXT@@PEBU_s_FuncInfo@@@Z 000000018003411c     libvcruntime:ehstate.obj
 0004:00001128       $pdata$?SetUnwindTryBlock@__FrameHandler3@@SAXPEA_KPEAU_xDISPATCHER_CONTEXT@@PEBU_s_FuncInfo@@H@Z 0000000180034128     libvcruntime:ehstate.obj
 0004:00001134       $pdata$?GetUnwindTryBlock@__FrameHandler3@@SAHPEA_KPEAU_xDISPATCHER_CONTEXT@@PEBU_s_FuncInfo@@@Z 0000000180034134     libvcruntime:ehstate.obj
 0004:00001140       $pdata$?FrameUnwindToState@__FrameHandler3@@SAXPEA_KPEAU_xDISPATCHER_CONTEXT@@PEBU_s_FuncInfo@@H@Z 0000000180034140     libvcruntime:frame.obj
 0004:0000114c       $pdata$?filt$0@?0??FrameUnwindToState@__FrameHandler3@@SAXPEA_KPEAU_xDISPATCHER_CONTEXT@@PEBU_s_FuncInfo@@H@Z@4HA 000000018003414c     libvcruntime:frame.obj
 0004:00001158       $pdata$?fin$1@?0??FrameUnwindToState@__FrameHandler3@@SAXPEA_KPEAU_xDISPATCHER_CONTEXT@@PEBU_s_FuncInfo@@H@Z@4HA 0000000180034158     libvcruntime:frame.obj
 0004:00001164       $pdata$?GetHandlerSearchState@__FrameHandler3@@SAHPEA_KPEAU_xDISPATCHER_CONTEXT@@PEBU_s_FuncInfo@@@Z 0000000180034164     libvcruntime:frame.obj
 0004:00001170       $pdata$?CxxCallCatchBlock@__FrameHandler3@@SAPEAXPEAU_EXCEPTION_RECORD@@@Z 0000000180034170     libvcruntime:frame.obj
 0004:0000117c       $pdata$?filt$0@?0??CxxCallCatchBlock@__FrameHandler3@@SAPEAXPEAU_EXCEPTION_RECORD@@@Z@4HA 000000018003417c     libvcruntime:frame.obj
 0004:00001188       $pdata$?fin$1@?0??CxxCallCatchBlock@__FrameHandler3@@SAPEAXPEAU_EXCEPTION_RECORD@@@Z@4HA 0000000180034188     libvcruntime:frame.obj
 0004:00001194       $pdata$??0bad_exception@std@@QEAA@AEBV01@@Z 0000000180034194     libvcruntime:frame.obj
 0004:000011a0       $pdata$?ExFilterRethrow@@YAHPEAU_EXCEPTION_POINTERS@@PEAUEHExceptionRecord@@PEAH@Z 00000001800341a0     libvcruntime:frame.obj
 0004:000011ac       $pdata$?IsInExceptionSpec@@YAEPEAUEHExceptionRecord@@PEBU_s_ESTypeList@@@Z 00000001800341ac     libvcruntime:frame.obj
 0004:000011b8       $pdata$?Is_bad_exception_allowed@@YAEPEBU_s_ESTypeList@@@Z 00000001800341b8     libvcruntime:frame.obj
 0004:000011c4       $pdata$??$__InternalCxxFrameHandler@V__FrameHandler3@@@@YA?AW4_EXCEPTION_DISPOSITION@@PEAUEHExceptionRecord@@PEA_KPEAU_CONTEXT@@PEAU_xDISPATCHER_CONTEXT@@PEBU_s_FuncInfo@@H1E@Z 00000001800341c4     libvcruntime:frame.obj
 0004:000011d0       $pdata$??$TypeMatchHelper@V__FrameHandler3@@@@YAHPEBU_s_HandlerType@@PEBU_s_CatchableType@@PEBU_s_ThrowInfo@@@Z 00000001800341d0     libvcruntime:frame.obj
 0004:000011dc       $pdata$??$BuildCatchObjectHelperInternal@V__FrameHandler3@@@@YAHPEAUEHExceptionRecord@@PEAXPEBU_s_HandlerType@@PEBU_s_CatchableType@@@Z 00000001800341dc     libvcruntime:frame.obj
 0004:000011e8       $pdata$??$BuildCatchObjectInternal@V__FrameHandler3@@@@YAXPEAUEHExceptionRecord@@PEAXPEBU_s_HandlerType@@PEBU_s_CatchableType@@@Z 00000001800341e8     libvcruntime:frame.obj
 0004:000011f4       $pdata$??$FindHandler@V__FrameHandler3@@@@YAXPEAUEHExceptionRecord@@PEA_KPEAU_CONTEXT@@PEAU_xDISPATCHER_CONTEXT@@PEBU_s_FuncInfo@@EH1@Z 00000001800341f4     libvcruntime:frame.obj
 0004:00001200       $pdata$??$CatchIt@V__FrameHandler3@@@@YAXPEAUEHExceptionRecord@@PEA_KPEAU_CONTEXT@@PEAU_xDISPATCHER_CONTEXT@@PEBU_s_FuncInfo@@PEBU_s_HandlerType@@PEBU_s_CatchableType@@PEBU_s_TryBlockMapEntry@@H1EE@Z 0000000180034200     libvcruntime:frame.obj
 0004:0000120c       $pdata$??$FindHandlerForForeignException@V__FrameHandler3@@@@YAXPEAUEHExceptionRecord@@PEA_KPEAU_CONTEXT@@PEAU_xDISPATCHER_CONTEXT@@PEBU_s_FuncInfo@@HH1@Z 000000018003420c     libvcruntime:frame.obj
 0004:00001218       $pdata$__vcrt_FlsAlloc     0000000180034218     libvcruntime:winapi_downlevel.obj
 0004:00001224       $pdata$__vcrt_FlsFree      0000000180034224     libvcruntime:winapi_downlevel.obj
 0004:00001230       $pdata$__vcrt_FlsGetValue  0000000180034230     libvcruntime:winapi_downlevel.obj
 0004:0000123c       $pdata$__vcrt_FlsSetValue  000000018003423c     libvcruntime:winapi_downlevel.obj
 0004:00001248       $pdata$__vcrt_InitializeCriticalSectionEx 0000000180034248     libvcruntime:winapi_downlevel.obj
 0004:00001254       $pdata$?try_get_function@@YAPEAXW4function_id@?A0x656504f9@@QEBDQEBW4module_id@2@2@Z 0000000180034254     libvcruntime:winapi_downlevel.obj
 0004:00001290       $pdata$_invalid_parameter_noinfo 0000000180034290     libucrt:invalid_parameter.obj
 0004:0000129c       $pdata$_invoke_watson      000000018003429c     libucrt:invalid_parameter.obj
 0004:000012a8       $pdata$__acrt_call_reportfault 00000001800342a8     libucrt:invalid_parameter.obj
 0004:000012b4       $pdata$_invalid_parameter  00000001800342b4     libucrt:invalid_parameter.obj
 0004:000012c0       $pdata$_errno              00000001800342c0     libucrt:errno.obj
 0004:000012cc       $pdata$__doserrno          00000001800342cc     libucrt:errno.obj
 0004:000012d8       $pdata$__acrt_errno_map_os_error 00000001800342d8     libucrt:errno.obj
 0004:000012e4       $pdata$_recalloc_base      00000001800342e4     libucrt:recalloc.obj
 0004:000012f0       $pdata$_resetstkoflw       00000001800342f0     libucrt:resetstk.obj
 0004:000012fc       $pdata$wcscat_s            00000001800342fc     libucrt:wcscat_s.obj
 0004:00001308       $pdata$wcscpy_s            0000000180034308     libucrt:wcscpy_s.obj
 0004:00001314       $pdata$wcsncpy_s           0000000180034314     libucrt:wcsncpy_s.obj
 0004:00001320       $pdata$??0_LocaleUpdate@@QEAA@QEAU__crt_locale_pointers@@@Z 0000000180034320     libucrt:output.obj
 0004:0000132c       $pdata$__stdio_common_vswprintf_s 000000018003432c     libucrt:output.obj
 0004:00001338       $pdata$?write_string@?$string_output_adapter@_W@__crt_stdio_output@@QEBAXQEB_WHQEAHAEAV__crt_deferred_errno_cache@@@Z 0000000180034338     libucrt:output.obj
 0004:00001344       $pdata$??$common_vsprintf@Vformat_validation_base@__crt_stdio_output@@_W@@YAH_KQEA_W0QEB_WQEAU__crt_locale_pointers@@QEAD@Z 0000000180034344     libucrt:output.obj
 0004:00001350       $pdata$??$write_multiple_characters@V?$string_output_adapter@_W@__crt_stdio_output@@D@__crt_stdio_output@@YAXAEBV?$string_output_adapter@_W@0@DHQEAH@Z 0000000180034350     libucrt:output.obj
 0004:0000135c       $pdata$??$ensure_buffer_is_big_enough@D@formatting_buffer@__crt_stdio_output@@QEAA_N_K@Z 000000018003435c     libucrt:output.obj
 0004:00001368       $pdata$??$ensure_buffer_is_big_enough@_W@formatting_buffer@__crt_stdio_output@@QEAA_N_K@Z 0000000180034368     libucrt:output.obj
 0004:00001374       $pdata$?process@?$output_processor@_WV?$string_output_adapter@_W@__crt_stdio_output@@V?$format_validation_base@_WV?$string_output_adapter@_W@__crt_stdio_output@@@2@@__crt_stdio_output@@QEAAHXZ 0000000180034374     libucrt:output.obj
 0004:00001380       $pdata$?parse_int_from_format_string@?$output_processor@_WV?$string_output_adapter@_W@__crt_stdio_output@@V?$format_validation_base@_WV?$string_output_adapter@_W@__crt_stdio_output@@@2@@__crt_stdio_output@@AEAA_NQEAH@Z 0000000180034380     libucrt:output.obj
 0004:0000138c       $pdata$?state_case_size@?$output_processor@_WV?$string_output_adapter@_W@__crt_stdio_output@@V?$format_validation_base@_WV?$string_output_adapter@_W@__crt_stdio_output@@@2@@__crt_stdio_output@@AEAA_NXZ 000000018003438c     libucrt:output.obj
 0004:00001398       $pdata$?state_case_type@?$output_processor@_WV?$string_output_adapter@_W@__crt_stdio_output@@V?$format_validation_base@_WV?$string_output_adapter@_W@__crt_stdio_output@@@2@@__crt_stdio_output@@AEAA_NXZ 0000000180034398     libucrt:output.obj
 0004:000013a4       $pdata$?type_case_c_tchar@?$output_processor@_WV?$string_output_adapter@_W@__crt_stdio_output@@V?$format_validation_base@_WV?$string_output_adapter@_W@__crt_stdio_output@@@2@@__crt_stdio_output@@AEAA_N_W@Z 00000001800343a4     libucrt:output.obj
 0004:000013b0       $pdata$?type_case_Z@?$output_processor@_WV?$string_output_adapter@_W@__crt_stdio_output@@V?$format_validation_base@_WV?$string_output_adapter@_W@__crt_stdio_output@@@2@@__crt_stdio_output@@AEAA_NXZ 00000001800343b0     libucrt:output.obj
 0004:000013bc       $pdata$?type_case_s@?$output_processor@_WV?$string_output_adapter@_W@__crt_stdio_output@@V?$format_validation_base@_WV?$string_output_adapter@_W@__crt_stdio_output@@@2@@__crt_stdio_output@@AEAA_NXZ 00000001800343bc     libucrt:output.obj
 0004:000013c8       $pdata$?type_case_a@?$output_processor@_WV?$string_output_adapter@_W@__crt_stdio_output@@V?$format_validation_base@_WV?$string_output_adapter@_W@__crt_stdio_output@@@2@@__crt_stdio_output@@AEAA_NXZ 00000001800343c8     libucrt:output.obj
 0004:000013d4       $pdata$?type_case_integer@?$output_processor@_WV?$string_output_adapter@_W@__crt_stdio_output@@V?$format_validation_base@_WV?$string_output_adapter@_W@__crt_stdio_output@@@2@@__crt_stdio_output@@AEAA_NI_N@Z 00000001800343d4     libucrt:output.obj
 0004:000013e0       $pdata$?type_case_n@?$output_processor@_WV?$string_output_adapter@_W@__crt_stdio_output@@V?$format_validation_base@_WV?$string_output_adapter@_W@__crt_stdio_output@@@2@@__crt_stdio_output@@AEAA_NXZ 00000001800343e0     libucrt:output.obj
 0004:000013ec       $pdata$?write_stored_string_tchar@?$output_processor@_WV?$string_output_adapter@_W@__crt_stdio_output@@V?$format_validation_base@_WV?$string_output_adapter@_W@__crt_stdio_output@@@2@@__crt_stdio_output@@AEAA_N_W@Z 00000001800343ec     libucrt:output.obj
 0004:000013f8       $pdata$??$type_case_integer_parse_into_buffer@_K@?$output_processor@_WV?$string_output_adapter@_W@__crt_stdio_output@@V?$format_validation_base@_WV?$string_output_adapter@_W@__crt_stdio_output@@@2@@__crt_stdio_output@@AEAAX_KI_N@Z 00000001800343f8     libucrt:output.obj
 0004:00001404       $pdata$??$type_case_integer_parse_into_buffer@I@?$output_processor@_WV?$string_output_adapter@_W@__crt_stdio_output@@V?$format_validation_base@_WV?$string_output_adapter@_W@__crt_stdio_output@@@2@@__crt_stdio_output@@AEAAXII_N@Z 0000000180034404     libucrt:output.obj
 0004:00001410       $pdata$_seh_filter_exe     0000000180034410     libucrt:exception_filter.obj
 0004:0000141c       $pdata$?try_cor_exit_process@@YAXI@Z 000000018003441c     libucrt:exit.obj
 0004:00001428       $pdata$?exit_or_terminate_process@@YAXI@Z 0000000180034428     libucrt:exit.obj
 0004:00001434       $pdata$?common_exit@@YAXHW4_crt_exit_cleanup_mode@@W4_crt_exit_return_mode@@@Z 0000000180034434     libucrt:exit.obj
 0004:00001440       $pdata$??R<lambda_6e4b09c48022b2350581041d5f6b0c4c>@@QEBA@XZ 0000000180034440     libucrt:exit.obj
 0004:0000144c       $pdata$?filt$0@?0???R<lambda_6e4b09c48022b2350581041d5f6b0c4c>@@QEBA@XZ@4HA 000000018003444c     libucrt:exit.obj
 0004:00001458       $pdata$??$?RV<lambda_d80eeec6fff315bfe5c115232f3240e3>@@AEAV<lambda_6e4b09c48022b2350581041d5f6b0c4c>@@V<lambda_2358e3775559c9db80273638284d5e45>@@@?$__crt_seh_guarded_call@X@@QEAAX$$QEAV<lambda_d80eeec6fff315bfe5c115232f3240e3>@@AEAV<lambda_6e4b09c48022b2350581041d5f6b0c4c>@@$$QEAV<lambda_2358e3775559c9db80273638284d5e45>@@@Z 0000000180034458     libucrt:exit.obj
 0004:00001464       $pdata$?fin$0@?0???$?RV<lambda_2d41944a1d46af3157314b8a01080d33>@@AEAV<lambda_8f455de75cd7d7f24b4096f044d8b9e6>@@V<lambda_aa500f224e6afead328df44964fe2772>@@@?$__crt_seh_guarded_call@X@@QEAAX$$QEAV<lambda_2d41944a1d46af3157314b8a01080d33>@@AEAV<lambda_8f455de75cd7d7f24b4096f044d8b9e6>@@$$QEAV<lambda_aa500f224e6afead328df44964fe2772>@@@Z@4HA 0000000180034464     libucrt:per_thread_data.obj
 0004:00001464       $pdata$?fin$0@?0???$?RV<lambda_450d765d439847d4c735a33c368b5fc0>@@AEAV<lambda_44731a7d0e6d81c3e6aa82d741081786>@@V<lambda_601a2a7da3b7a96e9554ac7215c4b07c>@@@?$__crt_seh_guarded_call@P6AXH@Z@@QEAAP6AXH@Z$$QEAV<lambda_450d765d439847d4c735a33c368b5fc0>@@AEAV<lambda_44731a7d0e6d81c3e6aa82d741081786>@@$$QEAV<lambda_601a2a7da3b7a96e9554ac7215c4b07c>@@@Z@4HA 0000000180034464     libucrt:signal.obj
 0004:00001464       $pdata$?fin$0@?0???$?RV<lambda_d80eeec6fff315bfe5c115232f3240e3>@@AEAV<lambda_6e4b09c48022b2350581041d5f6b0c4c>@@V<lambda_2358e3775559c9db80273638284d5e45>@@@?$__crt_seh_guarded_call@X@@QEAAX$$QEAV<lambda_d80eeec6fff315bfe5c115232f3240e3>@@AEAV<lambda_6e4b09c48022b2350581041d5f6b0c4c>@@$$QEAV<lambda_2358e3775559c9db80273638284d5e45>@@@Z@4HA 0000000180034464     libucrt:exit.obj
 0004:00001464       $pdata$?fin$0@?0???$?RV<lambda_efdfa57d1f175319df784efa44bb7b81>@@AEAV<lambda_5f0a4c1567f8adc6734073e5d1e1b35c>@@V<lambda_2e8a7d3640ea6ccb4c2413664c2db6fd>@@@?$__crt_seh_guarded_call@X@@QEAAX$$QEAV<lambda_efdfa57d1f175319df784efa44bb7b81>@@AEAV<lambda_5f0a4c1567f8adc6734073e5d1e1b35c>@@$$QEAV<lambda_2e8a7d3640ea6ccb4c2413664c2db6fd>@@@Z@4HA 0000000180034464     libucrt:mbctype.obj
 0004:00001464       $pdata$?fin$0@?0???$?RV<lambda_f2e299630e499de9f9a165e60fcd3db5>@@AEAV<lambda_2ae9d31cdba2644fcbeaf08da7c24588>@@V<lambda_40d01ff24d0e7b3814fdbdcee8eab3c7>@@@?$__crt_seh_guarded_call@X@@QEAAX$$QEAV<lambda_f2e299630e499de9f9a165e60fcd3db5>@@AEAV<lambda_2ae9d31cdba2644fcbeaf08da7c24588>@@$$QEAV<lambda_40d01ff24d0e7b3814fdbdcee8eab3c7>@@@Z@4HA 0000000180034464     libucrt:per_thread_data.obj
 0004:00001464       $pdata$?fin$0@?0???$?RV<lambda_638799b9deba96c50f710eeac98168cd>@@AEAV<lambda_22ebabd17bc4fa466a2aca6d8deb888d>@@V<lambda_a6f7d7db0129f75315ebf26d50c089f1>@@@?$__crt_seh_guarded_call@H@@QEAAH$$QEAV<lambda_638799b9deba96c50f710eeac98168cd>@@AEAV<lambda_22ebabd17bc4fa466a2aca6d8deb888d>@@$$QEAV<lambda_a6f7d7db0129f75315ebf26d50c089f1>@@@Z@4HA 0000000180034464     libucrt:onexit.obj
 0004:00001464       $pdata$?fin$0@?0???$?RV<lambda_7777bce6b2f8c936911f934f8298dc43>@@AEAV<lambda_f03950bc5685219e0bcd2087efbe011e>@@V<lambda_3883c3dff614d5e0c5f61bb1ac94921c>@@@?$__crt_seh_guarded_call@H@@QEAAH$$QEAV<lambda_7777bce6b2f8c936911f934f8298dc43>@@AEAV<lambda_f03950bc5685219e0bcd2087efbe011e>@@$$QEAV<lambda_3883c3dff614d5e0c5f61bb1ac94921c>@@@Z@4HA 0000000180034464     libucrt:onexit.obj
 0004:00001464       $pdata$?fin$0@?0???$?RV<lambda_0ae27a3a962d80f24befdcbee591983d>@@AEAV<lambda_8d0ee55de4b1038c4002e0adecdf1839>@@V<lambda_dc504788e8f1664fe9b84e20bfb512f2>@@@?$__crt_seh_guarded_call@X@@QEAAX$$QEAV<lambda_0ae27a3a962d80f24befdcbee591983d>@@AEAV<lambda_8d0ee55de4b1038c4002e0adecdf1839>@@$$QEAV<lambda_dc504788e8f1664fe9b84e20bfb512f2>@@@Z@4HA 0000000180034464     libucrt:per_thread_data.obj
 0004:00001464       $pdata$?fin$0@?0???$?RV<lambda_aa87e3671a710a21b5dc78c0bdf72e11>@@AEAV<lambda_92619d2358a28f41a33ba319515a20b9>@@V<lambda_6992ecaafeb10aed2b74cb1fae11a551>@@@?$__crt_seh_guarded_call@X@@QEAAX$$QEAV<lambda_aa87e3671a710a21b5dc78c0bdf72e11>@@AEAV<lambda_92619d2358a28f41a33ba319515a20b9>@@$$QEAV<lambda_6992ecaafeb10aed2b74cb1fae11a551>@@@Z@4HA 0000000180034464     libucrt:per_thread_data.obj
 0004:00001470       $pdata$_configure_narrow_argv 0000000180034470     libucrt:argv_parsing.obj
 0004:0000147c       $pdata$__acrt_allocate_buffer_for_argv 000000018003447c     libucrt:argv_parsing.obj
 0004:00001488       $pdata$??$parse_command_line@D@@YAXPEADPEAPEAD0PEA_K2@Z 0000000180034488     libucrt:argv_parsing.obj
 0004:00001494       $pdata$__dcrt_uninitialize_environments_nolock 0000000180034494     libucrt:environment_initialization.obj
 0004:000014a0       $pdata$??$common_initialize_environment_nolock@D@@YAHXZ 00000001800344a0     libucrt:environment_initialization.obj
 0004:000014ac       $pdata$??$uninitialize_environment_internal@D@@YAXAEAPEAPEAD@Z 00000001800344ac     libucrt:environment_initialization.obj
 0004:000014b8       $pdata$??$uninitialize_environment_internal@_W@@YAXAEAPEAPEA_W@Z 00000001800344b8     libucrt:environment_initialization.obj
 0004:000014c4       $pdata$??$free_environment@D@@YAXQEAPEAD@Z 00000001800344c4     libucrt:environment_initialization.obj
 0004:000014c4       $pdata$??$free_environment@_W@@YAXQEAPEA_W@Z 00000001800344c4     libucrt:environment_initialization.obj
 0004:000014d0       $pdata$??$create_environment@D@@YAQEAPEADQEAD@Z 00000001800344d0     libucrt:environment_initialization.obj
 0004:000014dc       $pdata$_register_onexit_function 00000001800344dc     libucrt:onexit.obj
 0004:000014e8       $pdata$_execute_onexit_table 00000001800344e8     libucrt:onexit.obj
 0004:000014f4       $pdata$??R<lambda_22ebabd17bc4fa466a2aca6d8deb888d>@@QEBAHXZ 00000001800344f4     libucrt:onexit.obj
 0004:00001500       $pdata$??R<lambda_f03950bc5685219e0bcd2087efbe011e>@@QEBAHXZ 0000000180034500     libucrt:onexit.obj
 0004:0000150c       $pdata$??$?RV<lambda_638799b9deba96c50f710eeac98168cd>@@AEAV<lambda_22ebabd17bc4fa466a2aca6d8deb888d>@@V<lambda_a6f7d7db0129f75315ebf26d50c089f1>@@@?$__crt_seh_guarded_call@H@@QEAAH$$QEAV<lambda_638799b9deba96c50f710eeac98168cd>@@AEAV<lambda_22ebabd17bc4fa466a2aca6d8deb888d>@@$$QEAV<lambda_a6f7d7db0129f75315ebf26d50c089f1>@@@Z 000000018003450c     libucrt:onexit.obj
 0004:00001518       $pdata$??$?RV<lambda_7777bce6b2f8c936911f934f8298dc43>@@AEAV<lambda_f03950bc5685219e0bcd2087efbe011e>@@V<lambda_3883c3dff614d5e0c5f61bb1ac94921c>@@@?$__crt_seh_guarded_call@H@@QEAAH$$QEAV<lambda_7777bce6b2f8c936911f934f8298dc43>@@AEAV<lambda_f03950bc5685219e0bcd2087efbe011e>@@$$QEAV<lambda_3883c3dff614d5e0c5f61bb1ac94921c>@@@Z 0000000180034518     libucrt:onexit.obj
 0004:00001524       $pdata$__acrt_uninitialize 0000000180034524     libucrt:initialization.obj
 0004:00001530       $pdata$__acrt_uninitialize_critical 0000000180034530     libucrt:initialization.obj
 0004:0000153c       $pdata$__acrt_thread_attach 000000018003453c     libucrt:initialization.obj
 0004:00001548       $pdata$__acrt_thread_detach 0000000180034548     libucrt:initialization.obj
 0004:00001554       $pdata$initialize_c        0000000180034554     libucrt:initialization.obj
 0004:00001560       $pdata$uninitialize_environment 0000000180034560     libucrt:initialization.obj
 0004:0000156c       $pdata$initialize_pointers 000000018003456c     libucrt:initialization.obj
 0004:00001578       $pdata$uninitialize_allocated_memory 0000000180034578     libucrt:initialization.obj
 0004:00001584       $pdata$uninitialize_allocated_io_buffers 0000000180034584     libucrt:initialization.obj
 0004:00001590       $pdata$_initterm           0000000180034590     libucrt:initterm.obj
 0004:0000159c       $pdata$_initterm_e         000000018003459c     libucrt:initterm.obj
 0004:000015a8       $pdata$_callnewh           00000001800345a8     libucrt:new_handler.obj
 0004:000015b4       $pdata$_query_new_handler  00000001800345b4     libucrt:new_handler.obj
 0004:000015c0       $pdata$_query_new_handler$fin$0 00000001800345c0     libucrt:new_handler.obj
 0004:000015cc       $pdata$terminate           00000001800345cc     libucrt:terminate.obj
 0004:000015d8       $pdata$abort               00000001800345d8     libucrt:abort.obj
 0004:000015e4       $pdata$strcpy_s            00000001800345e4     libucrt:strcpy_s.obj
 0004:000015f0       $pdata$??$parse_integer@KV?$c_string_character_source@_W@__crt_strtox@@@__crt_strtox@@YAKQEAU__crt_locale_pointers@@V?$c_string_character_source@_W@0@H_N@Z 00000001800345f0     libucrt:atox.obj
 0004:00001608       $pdata$_free_base          0000000180034608     libucrt:free_base.obj
 0004:00001614       $pdata$__acrt_initialize_ptd 0000000180034614     libucrt:per_thread_data.obj
 0004:00001620       $pdata$__acrt_uninitialize_ptd 0000000180034620     libucrt:per_thread_data.obj
 0004:0000162c       $pdata$__acrt_getptd       000000018003462c     libucrt:per_thread_data.obj
 0004:00001638       $pdata$__acrt_getptd_head  0000000180034638     libucrt:per_thread_data.obj
 0004:00001644       $pdata$__acrt_getptd_noexit 0000000180034644     libucrt:per_thread_data.obj
 0004:00001650       $pdata$__acrt_freeptd      0000000180034650     libucrt:per_thread_data.obj
 0004:0000165c       $pdata$?destroy_fls@@YAXPEAX@Z 000000018003465c     libucrt:per_thread_data.obj
 0004:00001668       $pdata$?replace_current_thread_locale_nolock@@YAXQEAU__acrt_ptd@@QEAU__crt_locale_data@@@Z 0000000180034668     libucrt:per_thread_data.obj
 0004:00001674       $pdata$?construct_ptd_array@@YAXQEAU__acrt_ptd@@@Z 0000000180034674     libucrt:per_thread_data.obj
 0004:00001680       $pdata$?destroy_ptd_array@@YAXQEAU__acrt_ptd@@@Z 0000000180034680     libucrt:per_thread_data.obj
 0004:0000168c       $pdata$??$?RV<lambda_0ae27a3a962d80f24befdcbee591983d>@@AEAV<lambda_8d0ee55de4b1038c4002e0adecdf1839>@@V<lambda_dc504788e8f1664fe9b84e20bfb512f2>@@@?$__crt_seh_guarded_call@X@@QEAAX$$QEAV<lambda_0ae27a3a962d80f24befdcbee591983d>@@AEAV<lambda_8d0ee55de4b1038c4002e0adecdf1839>@@$$QEAV<lambda_dc504788e8f1664fe9b84e20bfb512f2>@@@Z 000000018003468c     libucrt:per_thread_data.obj
 0004:00001698       $pdata$??$?RV<lambda_aa87e3671a710a21b5dc78c0bdf72e11>@@AEAV<lambda_92619d2358a28f41a33ba319515a20b9>@@V<lambda_6992ecaafeb10aed2b74cb1fae11a551>@@@?$__crt_seh_guarded_call@X@@QEAAX$$QEAV<lambda_aa87e3671a710a21b5dc78c0bdf72e11>@@AEAV<lambda_92619d2358a28f41a33ba319515a20b9>@@$$QEAV<lambda_6992ecaafeb10aed2b74cb1fae11a551>@@@Z 0000000180034698     libucrt:per_thread_data.obj
 0004:000016a4       $pdata$??$?RV<lambda_f2e299630e499de9f9a165e60fcd3db5>@@AEAV<lambda_2ae9d31cdba2644fcbeaf08da7c24588>@@V<lambda_40d01ff24d0e7b3814fdbdcee8eab3c7>@@@?$__crt_seh_guarded_call@X@@QEAAX$$QEAV<lambda_f2e299630e499de9f9a165e60fcd3db5>@@AEAV<lambda_2ae9d31cdba2644fcbeaf08da7c24588>@@$$QEAV<lambda_40d01ff24d0e7b3814fdbdcee8eab3c7>@@@Z 00000001800346a4     libucrt:per_thread_data.obj
 0004:000016b0       $pdata$??$?RV<lambda_2d41944a1d46af3157314b8a01080d33>@@AEAV<lambda_8f455de75cd7d7f24b4096f044d8b9e6>@@V<lambda_aa500f224e6afead328df44964fe2772>@@@?$__crt_seh_guarded_call@X@@QEAAX$$QEAV<lambda_2d41944a1d46af3157314b8a01080d33>@@AEAV<lambda_8f455de75cd7d7f24b4096f044d8b9e6>@@$$QEAV<lambda_aa500f224e6afead328df44964fe2772>@@@Z 00000001800346b0     libucrt:per_thread_data.obj
 0004:000016bc       $pdata$_calloc_base        00000001800346bc     libucrt:calloc_base.obj
 0004:000016c8       $pdata$_malloc_base        00000001800346c8     libucrt:malloc_base.obj
 0004:000016d4       $pdata$_msize_base         00000001800346d4     libucrt:msize.obj
 0004:000016e0       $pdata$_realloc_base       00000001800346e0     libucrt:realloc_base.obj
 0004:000016ec       $pdata$__acrt_initialize_winapi_thunks 00000001800346ec     libucrt:winapi_thunks.obj
 0004:000016f8       $pdata$__acrt_uninitialize_winapi_thunks 00000001800346f8     libucrt:winapi_thunks.obj
 0004:00001704       $pdata$__acrt_AreFileApisANSI 0000000180034704     libucrt:winapi_thunks.obj
 0004:00001710       $pdata$__acrt_FlsAlloc     0000000180034710     libucrt:winapi_thunks.obj
 0004:0000171c       $pdata$__acrt_FlsFree      000000018003471c     libucrt:winapi_thunks.obj
 0004:00001728       $pdata$__acrt_FlsGetValue  0000000180034728     libucrt:winapi_thunks.obj
 0004:00001734       $pdata$__acrt_FlsSetValue  0000000180034734     libucrt:winapi_thunks.obj
 0004:00001740       $pdata$__acrt_InitializeCriticalSectionEx 0000000180034740     libucrt:winapi_thunks.obj
 0004:0000174c       $pdata$__acrt_LCMapStringEx 000000018003474c     libucrt:winapi_thunks.obj
 0004:00001758       $pdata$__acrt_LocaleNameToLCID 0000000180034758     libucrt:winapi_thunks.obj
 0004:00001764       $pdata$__acrt_AppPolicyGetProcessTerminationMethodInternal 0000000180034764     libucrt:winapi_thunks.obj
 0004:00001770       $pdata$__acrt_SetThreadStackGuarantee 0000000180034770     libucrt:winapi_thunks.obj
 0004:0000177c       $pdata$?try_get_function@@YAPEAXW4function_id@?A0x391cf84c@@QEBDQEBW4module_id@2@2@Z 000000018003477c     libucrt:winapi_thunks.obj
 0004:00001788       $pdata$wcstol              0000000180034788     libucrt:strtox.obj
 0004:00001794       $pdata$_mbtowc_l           0000000180034794     libucrt:mbtowc.obj
 0004:000017a0       $pdata$__acrt_update_locale_info 00000001800347a0     libucrt:locale_update.obj
 0004:000017ac       $pdata$__acrt_update_multibyte_info 00000001800347ac     libucrt:locale_update.obj
 0004:000017b8       $pdata$__acrt_fp_format    00000001800347b8     libucrt:cvt.obj
 0004:000017c4       $pdata$?fp_format_e_internal@@YAHQEAD_KH_NIQEAU_strflt@@2QEAU__crt_locale_pointers@@@Z 00000001800347c4     libucrt:cvt.obj
 0004:000017d0       $pdata$?fp_format_e@@YAHQEBNQEAD_K12H_NIQEAU__crt_locale_pointers@@@Z 00000001800347d0     libucrt:cvt.obj
 0004:000017dc       $pdata$?fp_format_a@@YAHQEBNPEAD_KQEAD2H_NIQEAU__crt_locale_pointers@@@Z 00000001800347dc     libucrt:cvt.obj
 0004:000017e8       $pdata$?fp_format_f_internal@@YAHQEAD_KHQEAU_strflt@@_NQEAU__crt_locale_pointers@@@Z 00000001800347e8     libucrt:cvt.obj
 0004:000017f4       $pdata$?fp_format_g@@YAHQEBNQEAD_K12H_NIQEAU__crt_locale_pointers@@@Z 00000001800347f4     libucrt:cvt.obj
 0004:00001800       $pdata$_fileno             0000000180034800     libucrt:fileno.obj
 0004:0000180c       $pdata$__acrt_initialize_stdio 000000018003480c     libucrt:_file.obj
 0004:00001818       $pdata$__acrt_uninitialize_stdio 0000000180034818     libucrt:_file.obj
 0004:00001824       $pdata$__acrt_uninitialize_locale 0000000180034824     libucrt:wsetlocale.obj
 0004:00001830       $pdata$??$?RV<lambda_410d79af7f07d98d83a3f525b3859a53>@@AEAV<lambda_3e16ef9562a7dcce91392c22ab16ea36>@@V<lambda_38119f0e861e05405d8a144b9b982f0a>@@@?$__crt_seh_guarded_call@X@@QEAAX$$QEAV<lambda_410d79af7f07d98d83a3f525b3859a53>@@AEAV<lambda_3e16ef9562a7dcce91392c22ab16ea36>@@$$QEAV<lambda_38119f0e861e05405d8a144b9b982f0a>@@@Z 0000000180034830     libucrt:wsetlocale.obj
 0004:0000183c       $pdata$?fin$0@?0???$?RV<lambda_410d79af7f07d98d83a3f525b3859a53>@@AEAV<lambda_3e16ef9562a7dcce91392c22ab16ea36>@@V<lambda_38119f0e861e05405d8a144b9b982f0a>@@@?$__crt_seh_guarded_call@X@@QEAAX$$QEAV<lambda_410d79af7f07d98d83a3f525b3859a53>@@AEAV<lambda_3e16ef9562a7dcce91392c22ab16ea36>@@$$QEAV<lambda_38119f0e861e05405d8a144b9b982f0a>@@@Z@4HA 000000018003483c     libucrt:wsetlocale.obj
 0004:00001848       $pdata$__acrt_initialize_lowio 0000000180034848     libucrt:ioinit.obj
 0004:00001854       $pdata$__acrt_lowio_ensure_fh_exists$fin$0 0000000180034854     libucrt:osfinfo.obj
 0004:00001854       $pdata$__acrt_initialize_lowio$fin$0 0000000180034854     libucrt:ioinit.obj
 0004:00001860       $pdata$__acrt_uninitialize_lowio 0000000180034860     libucrt:ioinit.obj
 0004:0000186c       $pdata$?initialize_inherited_file_handles_nolock@@YAXXZ 000000018003486c     libucrt:ioinit.obj
 0004:00001878       $pdata$?initialize_stdio_handles_nolock@@YAXXZ 0000000180034878     libucrt:ioinit.obj
 0004:00001884       $pdata$__acrt_initialize_locks 0000000180034884     libucrt:locks.obj
 0004:00001890       $pdata$__acrt_uninitialize_locks 0000000180034890     libucrt:locks.obj
 0004:0000189c       $pdata$__acrt_get_process_end_policy 000000018003489c     libucrt:win_policies.obj
 0004:000018a8       $pdata$??$__acrt_mbs_to_wcs_cp@U__crt_win32_buffer_internal_dynamic_resizing@@@@YAHQEBDAEAV?$__crt_win32_buffer@_WU__crt_win32_buffer_internal_dynamic_resizing@@@@I@Z 00000001800348a8     libucrt:argv_wildcards.obj
 0004:000018b4       $pdata$??$__acrt_wcs_to_mbs_cp@U__crt_win32_buffer_internal_dynamic_resizing@@@@YAHQEB_WAEAV?$__crt_win32_buffer@DU__crt_win32_buffer_internal_dynamic_resizing@@@@I@Z 00000001800348b4     libucrt:argv_wildcards.obj
 0004:000018c0       $pdata$??$common_expand_argv_wildcards@D@@YAHQEAPEADQEAPEAPEAD@Z 00000001800348c0     libucrt:argv_wildcards.obj
 0004:000018cc       $pdata$??$copy_and_add_argument_to_buffer@D@@YAHQEBD0_KAEAV?$argument_list@D@?A0x5f5c8891@@@Z 00000001800348cc     libucrt:argv_wildcards.obj
 0004:000018d8       $pdata$??$expand_argument_wildcards@D@@YAHQEAD0AEAV?$argument_list@D@?A0x5f5c8891@@@Z 00000001800348d8     libucrt:argv_wildcards.obj
 0004:000018e4       $pdata$__acrt_GetModuleFileNameA 00000001800348e4     libucrt:getmodulefilenamea.obj
 0004:000018f0       $pdata$??$__acrt_wcs_to_mbs_cp@U__crt_win32_buffer_no_resizing@@@@YAHQEB_WAEAV?$__crt_win32_buffer@DU__crt_win32_buffer_no_resizing@@@@I@Z 00000001800348f0     libucrt:getmodulefilenamea.obj
 0004:000018fc       $pdata$__acrt_update_thread_multibyte_data 00000001800348fc     libucrt:mbctype.obj
 0004:00001908       $pdata$__acrt_initialize_multibyte 0000000180034908     libucrt:mbctype.obj
 0004:00001914       $pdata$_setmbcp_nolock     0000000180034914     libucrt:mbctype.obj
 0004:00001920       $pdata$?getSystemCP@@YAHH@Z 0000000180034920     libucrt:mbctype.obj
 0004:0000192c       $pdata$?setSBCS@@YAXPEAU__crt_multibyte_data@@@Z 000000018003492c     libucrt:mbctype.obj
 0004:00001938       $pdata$?update_thread_multibyte_data_internal@@YAPEAU__crt_multibyte_data@@QEAU__acrt_ptd@@QEAPEAU1@@Z 0000000180034938     libucrt:mbctype.obj
 0004:00001944       $pdata$?fin$0@?0??update_thread_multibyte_data_internal@@YAPEAU__crt_multibyte_data@@QEAU__acrt_ptd@@QEAPEAU1@@Z@4HA 0000000180034944     libucrt:mbctype.obj
 0004:00001950       $pdata$?setmbcp_internal@@YAHH_NQEAU__acrt_ptd@@QEAPEAU__crt_multibyte_data@@@Z 0000000180034950     libucrt:mbctype.obj
 0004:0000195c       $pdata$?setSBUpLow@@YAXPEAU__crt_multibyte_data@@@Z 000000018003495c     libucrt:mbctype.obj
 0004:00001968       $pdata$??$?RV<lambda_efdfa57d1f175319df784efa44bb7b81>@@AEAV<lambda_5f0a4c1567f8adc6734073e5d1e1b35c>@@V<lambda_2e8a7d3640ea6ccb4c2413664c2db6fd>@@@?$__crt_seh_guarded_call@X@@QEAAX$$QEAV<lambda_efdfa57d1f175319df784efa44bb7b81>@@AEAV<lambda_5f0a4c1567f8adc6734073e5d1e1b35c>@@$$QEAV<lambda_2e8a7d3640ea6ccb4c2413664c2db6fd>@@@Z 0000000180034968     libucrt:mbctype.obj
 0004:00001974       $pdata$?x_ismbbtype_l@@YAHPEAU__crt_locale_pointers@@IHH@Z 0000000180034974     libucrt:ismbbyte.obj
 0004:00001980       $pdata$__acrt_initialize_command_line 0000000180034980     libucrt:argv_data.obj
 0004:0000198c       $pdata$__acrt_WideCharToMultiByte 000000018003498c     libucrt:widechartomultibyte.obj
 0004:00001998       $pdata$__dcrt_get_narrow_environment_from_os 0000000180034998     libucrt:get_environment_from_os.obj
 0004:000019a4       $pdata$__acrt_initialize_heap 00000001800349a4     libucrt:heap_handle.obj
 0004:000019b0       $pdata$__acrt_execute_initializers 00000001800349b0     libucrt:shared_initialization.obj
 0004:000019bc       $pdata$__acrt_execute_uninitializers 00000001800349bc     libucrt:shared_initialization.obj
 0004:000019c8       $pdata$__acrt_get_sigabrt_handler 00000001800349c8     libucrt:signal.obj
 0004:000019d4       $pdata$raise               00000001800349d4     libucrt:signal.obj
 0004:000019e0       $pdata$raise$fin$0         00000001800349e0     libucrt:signal.obj
 0004:000019ec       $pdata$??$?RV<lambda_450d765d439847d4c735a33c368b5fc0>@@AEAV<lambda_44731a7d0e6d81c3e6aa82d741081786>@@V<lambda_601a2a7da3b7a96e9554ac7215c4b07c>@@@?$__crt_seh_guarded_call@P6AXH@Z@@QEAAP6AXH@Z$$QEAV<lambda_450d765d439847d4c735a33c368b5fc0>@@AEAV<lambda_44731a7d0e6d81c3e6aa82d741081786>@@$$QEAV<lambda_601a2a7da3b7a96e9554ac7215c4b07c>@@@Z 00000001800349ec     libucrt:signal.obj
 0004:000019f8       $pdata$_fflush_nolock      00000001800349f8     libucrt:fflush.obj
 0004:00001a04       $pdata$__acrt_stdio_flush_nolock 0000000180034a04     libucrt:fflush.obj
 0004:00001a10       $pdata$?common_flush_all@@YAH_N@Z 0000000180034a10     libucrt:fflush.obj
 0004:00001a1c       $pdata$??$?RV<lambda_842d9ff0dc9ef11c61343bbaebe7f885>@@AEAV<lambda_c5860995281e5c4ce005b3de8f5874ee>@@V<lambda_d90129c13df834fdcbf8d2b88dafcf2d>@@@?$__crt_seh_guarded_call@X@@QEAAX$$QEAV<lambda_842d9ff0dc9ef11c61343bbaebe7f885>@@AEAV<lambda_c5860995281e5c4ce005b3de8f5874ee>@@$$QEAV<lambda_d90129c13df834fdcbf8d2b88dafcf2d>@@@Z 0000000180034a1c     libucrt:fflush.obj
 0004:00001a28       $pdata$?fin$0@?0???$?RV<lambda_842d9ff0dc9ef11c61343bbaebe7f885>@@AEAV<lambda_c5860995281e5c4ce005b3de8f5874ee>@@V<lambda_d90129c13df834fdcbf8d2b88dafcf2d>@@@?$__crt_seh_guarded_call@X@@QEAAX$$QEAV<lambda_842d9ff0dc9ef11c61343bbaebe7f885>@@AEAV<lambda_c5860995281e5c4ce005b3de8f5874ee>@@$$QEAV<lambda_d90129c13df834fdcbf8d2b88dafcf2d>@@@Z@4HA 0000000180034a28     libucrt:fflush.obj
 0004:00001a34       $pdata$??$?RV<lambda_886d6c58226a84441f68b9f2b8217b83>@@AEAV<lambda_ab61a845afdef5b7c387490eaf3616ee>@@V<lambda_f7f22ab5edc0698d5f6905b0d3f44752>@@@?$__crt_seh_guarded_call@X@@QEAAX$$QEAV<lambda_886d6c58226a84441f68b9f2b8217b83>@@AEAV<lambda_ab61a845afdef5b7c387490eaf3616ee>@@$$QEAV<lambda_f7f22ab5edc0698d5f6905b0d3f44752>@@@Z 0000000180034a34     libucrt:fflush.obj
 0004:00001a40       $pdata$?fin$0@?0???$?RV<lambda_886d6c58226a84441f68b9f2b8217b83>@@AEAV<lambda_ab61a845afdef5b7c387490eaf3616ee>@@V<lambda_f7f22ab5edc0698d5f6905b0d3f44752>@@@?$__crt_seh_guarded_call@X@@QEAAX$$QEAV<lambda_886d6c58226a84441f68b9f2b8217b83>@@AEAV<lambda_ab61a845afdef5b7c387490eaf3616ee>@@$$QEAV<lambda_f7f22ab5edc0698d5f6905b0d3f44752>@@@Z@4HA 0000000180034a40     libucrt:fflush.obj
 0004:00001a4c       $pdata$__pctype_func       0000000180034a4c     libucrt:ctype.obj
 0004:00001a58       $pdata$iswctype            0000000180034a58     libucrt:iswctype.obj
 0004:00001a64       $pdata$__acrt_release_locale_ref 0000000180034a64     libucrt:locale_refcounting.obj
 0004:00001a70       $pdata$__acrt_free_locale  0000000180034a70     libucrt:locale_refcounting.obj
 0004:00001a7c       $pdata$__acrt_locale_free_lc_time_if_unreferenced 0000000180034a7c     libucrt:locale_refcounting.obj
 0004:00001a88       $pdata$__acrt_update_thread_locale_data 0000000180034a88     libucrt:locale_refcounting.obj
 0004:00001a94       $pdata$__acrt_update_thread_locale_data$fin$0 0000000180034a94     libucrt:locale_refcounting.obj
 0004:00001aa0       $pdata$_updatetlocinfoEx_nolock 0000000180034aa0     libucrt:locale_refcounting.obj
 0004:00001aac       $pdata$__acrt_DownlevelLocaleNameToLCID 0000000180034aac     libucrt:lcidtoname_downlevel.obj
 0004:00001ab8       $pdata$_isleadbyte_l       0000000180034ab8     libucrt:_wctype.obj
 0004:00001ac4       $pdata$?__mbrtowc_utf8@__crt_mbstring@@YA_KPEA_WPEBD_KPEAU_Mbstatet@@@Z 0000000180034ac4     libucrt:mbrtowc.obj
 0004:00001ad0       $pdata$?__mbsrtowcs_utf8@__crt_mbstring@@YA_KPEA_WPEAPEBD_KPEAU_Mbstatet@@@Z 0000000180034ad0     libucrt:mbrtowc.obj
 0004:00001adc       $pdata$__acrt_fp_strflt_to_string 0000000180034adc     libucrt:_fptostr.obj
 0004:00001ae8       $pdata$__acrt_fltout       0000000180034ae8     libucrt:cfout.obj
 0004:00001af4       $pdata$?divide@__crt_strtox@@YA_KAEAUbig_integer@1@AEBU21@@Z 0000000180034af4     libucrt:cfout.obj
 0004:00001b00       $pdata$0$?divide@__crt_strtox@@YA_KAEAUbig_integer@1@AEBU21@@Z 0000000180034b00     libucrt:cfout.obj
 0004:00001b0c       $pdata$1$?divide@__crt_strtox@@YA_KAEAUbig_integer@1@AEBU21@@Z 0000000180034b0c     libucrt:cfout.obj
 0004:00001b18       $pdata$_fcloseall          0000000180034b18     libucrt:closeall.obj
 0004:00001b24       $pdata$_fcloseall$fin$0    0000000180034b24     libucrt:closeall.obj
 0004:00001b30       $pdata$__acrt_stdio_free_buffer_nolock 0000000180034b30     libucrt:_freebuf.obj
 0004:00001b3c       $pdata$_isatty             0000000180034b3c     libucrt:isatty.obj
 0004:00001b48       $pdata$__acrt_locale_free_monetary 0000000180034b48     libucrt:initmon.obj
 0004:00001b54       $pdata$__acrt_locale_free_numeric 0000000180034b54     libucrt:initnum.obj
 0004:00001b60       $pdata$__acrt_locale_free_time 0000000180034b60     libucrt:inittime.obj
 0004:00001b6c       $pdata$?free_crt_array_internal@@YAXQEAPEBX_K@Z 0000000180034b6c     libucrt:inittime.obj
 0004:00001b78       $pdata$__acrt_GetStringTypeA 0000000180034b78     libucrt:getstringtypea.obj
 0004:00001b84       $pdata$_get_osfhandle      0000000180034b84     libucrt:osfinfo.obj
 0004:00001b90       $pdata$_free_osfhnd        0000000180034b90     libucrt:osfinfo.obj
 0004:00001b9c       $pdata$__acrt_lowio_create_handle_array 0000000180034b9c     libucrt:osfinfo.obj
 0004:00001ba8       $pdata$__acrt_lowio_destroy_handle_array 0000000180034ba8     libucrt:osfinfo.obj
 0004:00001bb4       $pdata$__acrt_lowio_ensure_fh_exists 0000000180034bb4     libucrt:osfinfo.obj
 0004:00001bc0       $pdata$qsort               0000000180034bc0     libucrt:qsort.obj
 0004:00001bcc       $pdata$4$qsort             0000000180034bcc     libucrt:qsort.obj
 0004:00001bd8       $pdata$5$qsort             0000000180034bd8     libucrt:qsort.obj
 0004:00001be4       $pdata$strncpy_s           0000000180034be4     libucrt:strncpy_s.obj
 0004:00001bf0       $pdata$strpbrk             0000000180034bf0     libucrt:strpbrk.obj
 0004:00001bfc       $pdata$fallbackMethod      0000000180034bfc     libucrt:strpbrk.obj
 0004:00001c08       $pdata$_mbsdec_l           0000000180034c08     libucrt:mbsdec.obj
 0004:00001c14       $pdata$__acrt_LCMapStringA 0000000180034c14     libucrt:lcmapstringa.obj
 0004:00001c20       $pdata$?__acrt_LCMapStringA_stat@@YAHPEAU__crt_locale_pointers@@PEB_WKPEBDHPEADHHH@Z 0000000180034c20     libucrt:lcmapstringa.obj
 0004:00001c2c       $pdata$?initialize_multibyte@@YAHXZ 0000000180034c2c     libucrt:multibyte_initializer.obj
 0004:00001c38       $pdata$_commit             0000000180034c38     libucrt:commit.obj
 0004:00001c44       $pdata$??$?RV<lambda_a37b2b86f63e897a80ea819b0eb08c01>@@AEAV<lambda_38ce7e780aa69e748d6df282ebc68efe>@@V<lambda_99fb1378e971ab6e7edea83e3a7a83a2>@@@?$__crt_seh_guarded_call@H@@QEAAH$$QEAV<lambda_a37b2b86f63e897a80ea819b0eb08c01>@@AEAV<lambda_38ce7e780aa69e748d6df282ebc68efe>@@$$QEAV<lambda_99fb1378e971ab6e7edea83e3a7a83a2>@@@Z 0000000180034c44     libucrt:commit.obj
 0004:00001c50       $pdata$?fin$0@?0???$?RV<lambda_a37b2b86f63e897a80ea819b0eb08c01>@@AEAV<lambda_38ce7e780aa69e748d6df282ebc68efe>@@V<lambda_99fb1378e971ab6e7edea83e3a7a83a2>@@@?$__crt_seh_guarded_call@H@@QEAAH$$QEAV<lambda_a37b2b86f63e897a80ea819b0eb08c01>@@AEAV<lambda_38ce7e780aa69e748d6df282ebc68efe>@@$$QEAV<lambda_99fb1378e971ab6e7edea83e3a7a83a2>@@@Z@4HA 0000000180034c50     libucrt:commit.obj
 0004:00001c50       $pdata$?fin$0@?0???$?RV<lambda_751a882b2c74d4b022dec766aa51a29a>@@AEAV<lambda_628dfdc04ba53c8bfc02c9951375f3f5>@@V<lambda_f6c7be5f7998530c34de24c7437d6b54>@@@?$__crt_seh_guarded_call@H@@QEAAH$$QEAV<lambda_751a882b2c74d4b022dec766aa51a29a>@@AEAV<lambda_628dfdc04ba53c8bfc02c9951375f3f5>@@$$QEAV<lambda_f6c7be5f7998530c34de24c7437d6b54>@@@Z@4HA 0000000180034c50     libucrt:close.obj
 0004:00001c5c       $pdata$_write              0000000180034c5c     libucrt:write.obj
 0004:00001c68       $pdata$_write$fin$0        0000000180034c68     libucrt:write.obj
 0004:00001c74       $pdata$_write_nolock       0000000180034c74     libucrt:write.obj
 0004:00001c80       $pdata$?write_double_translated_ansi_nolock@@YA?AUwrite_result@?A0x17268360@@HQEBDI@Z 0000000180034c80     libucrt:write.obj
 0004:00001c8c       $pdata$?write_text_ansi_nolock@@YA?AUwrite_result@?A0x17268360@@HQEBDI@Z 0000000180034c8c     libucrt:write.obj
 0004:00001c98       $pdata$?write_text_utf16le_nolock@@YA?AUwrite_result@?A0x17268360@@HQEBDI@Z 0000000180034c98     libucrt:write.obj
 0004:00001ca4       $pdata$?write_text_utf8_nolock@@YA?AUwrite_result@?A0x17268360@@HQEBDI@Z 0000000180034ca4     libucrt:write.obj
 0004:00001cb0       $pdata$?__mbrtoc32_utf8@__crt_mbstring@@YA_KPEA_UPEBD_KPEAU_Mbstatet@@@Z 0000000180034cb0     libucrt:mbrtoc32.obj
 0004:00001cbc       $pdata$fegetenv            0000000180034cbc     libucrt:fegetenv.obj
 0004:00001cc8       $pdata$fesetenv            0000000180034cc8     libucrt:fesetenv.obj
 0004:00001cd4       $pdata$feholdexcept        0000000180034cd4     libucrt:feholdexcept.obj
 0004:00001cec       $pdata$??$common_lseek_nolock@_J@@YA_JH_JH@Z 0000000180034cec     libucrt:lseek.obj
 0004:00001cf8       $pdata$fclose              0000000180034cf8     libucrt:fclose.obj
 0004:00001d04       $pdata$fclose$fin$0        0000000180034d04     libucrt:fclose.obj
 0004:00001d10       $pdata$_fclose_nolock      0000000180034d10     libucrt:fclose.obj
 0004:00001d1c       $pdata$_putwch_nolock      0000000180034d1c     libucrt:putwch.obj
 0004:00001d28       $pdata$__acrt_fenv_set_control 0000000180034d28     libucrt:_fenvutils.obj
 0004:00001d34       $pdata$_clearfp            0000000180034d34     libucrt:ieee.obj
 0004:00001d40       $pdata$_call_matherr       0000000180034d40     libucrt:libm_error.obj
 0004:00001d4c       $pdata$_exception_enabled  0000000180034d4c     libucrt:libm_error.obj
 0004:00001d58       $pdata$_handle_error       0000000180034d58     libucrt:libm_error.obj
 0004:00001d64       $pdata$__acrt_initialize_fma3 0000000180034d64     libucrt:fma3_available.obj
 0004:00001d70       $pdata$_log_special_common 0000000180034d70     libucrt:log_special.obj
 0004:00001d7c       $pdata$_log10_special      0000000180034d7c     libucrt:log_special.obj
 0004:00001d88       $pdata$_close              0000000180034d88     libucrt:close.obj
 0004:00001d94       $pdata$_close_nolock       0000000180034d94     libucrt:close.obj
 0004:00001da0       $pdata$??$?RV<lambda_751a882b2c74d4b022dec766aa51a29a>@@AEAV<lambda_628dfdc04ba53c8bfc02c9951375f3f5>@@V<lambda_f6c7be5f7998530c34de24c7437d6b54>@@@?$__crt_seh_guarded_call@H@@QEAAH$$QEAV<lambda_751a882b2c74d4b022dec766aa51a29a>@@AEAV<lambda_628dfdc04ba53c8bfc02c9951375f3f5>@@$$QEAV<lambda_f6c7be5f7998530c34de24c7437d6b54>@@@Z 0000000180034da0     libucrt:close.obj
 0004:00001dac       $pdata$__dcrt_lowio_ensure_console_output_initialized 0000000180034dac     libucrt:initcon.obj
 0004:00001db8       $pdata$__dcrt_write_console 0000000180034db8     libucrt:initcon.obj
 0004:00001dc4       $pdata$__dcrt_terminate_console_output 0000000180034dc4     libucrt:initcon.obj
 0004:00001ddc       $pdata$_set_errno_from_matherr 0000000180034ddc     libucrt:fpexcept.obj
 0004:00001de8       $pdata$_raise_exc          0000000180034de8     libucrt:fpexcept.obj
 0004:00001df4       $pdata$_raise_exc_ex       0000000180034df4     libucrt:fpexcept.obj
 0004:00001e00       $pdata$_clrfp              0000000180034e00     libucrt:fpctrl.obj
 0004:00001e0c       $pdata$_ctrlfp             0000000180034e0c     libucrt:fpctrl.obj
 0004:00001e18       $pdata$_ctrlfp$filt$0      0000000180034e18     libucrt:fpctrl.obj
 0004:00001e24       $pdata$_statfp             0000000180034e24     libucrt:fpctrl.obj
 0004:00001e30       $pdata$_set_statfp         0000000180034e30     libucrt:fpctrl.obj
 0004:00001e3c       $pdata$_IsNonwritableInCurrentImage 0000000180034e3c     LIBCMT:pesect.obj
 0004:00001e48       $pdata$_IsNonwritableInCurrentImage$filt$0 0000000180034e48     LIBCMT:pesect.obj
 0005:00000000       MoveSmall                  0000000180035000     libvcruntime:memcpy.obj
 0005:00000050       MsetTab                    0000000180035050     libvcruntime:memset.obj
 0006:00000220       $R000000                   0000000180036220     Scanner.res
 0006:00000b80       $R000960                   0000000180036b80     Scanner.res
 0006:00000c68       $R000A48                   0000000180036c68     Scanner.res
 0006:00000ed0       $R000CB0                   0000000180036ed0     Scanner.res
 0006:000013e0       $R0011C0                   00000001800373e0     Scanner.res
 0006:00003c00       $R0039E0                   0000000180039c00     Scanner.res
 0006:00003c30       $R003A10                   0000000180039c30     Scanner.res
