 OPOSPOSKeyboard

 Timestamp is 61a7583d (Wed Dec  1 20:10:53 2021)

 Preferred load address is 0000000180000000

 Start         Length     Name                   Class
 0001:00000000 000000c0H .text$di                CODE
 0001:000000c0 00023a00H .text$mn                CODE
 0001:00023ac0 00000040H .text$mn$00             CODE
 0001:00023b00 00000660H .text$x                 CODE
 0001:00024160 00000078H .text$yd                CODE
 0002:00000000 00000638H .idata$5                DATA
 0002:00000638 00000030H .00cfg                  DATA
 0002:00000668 00000008H .CRT$XCA                DATA
 0002:00000670 00000008H .CRT$XCL                DATA
 0002:00000678 00000020H .CRT$XCU                DATA
 0002:00000698 00000008H .CRT$XCZ                DATA
 0002:000006a0 00000008H .CRT$XIA                DATA
 0002:000006a8 00000020H .CRT$XIC                DATA
 0002:000006c8 00000008H .CRT$XIZ                DATA
 0002:000006d0 00000008H .CRT$XLA                DATA
 0002:000006d8 00000008H .CRT$XLZ                DATA
 0002:000006e0 00000008H .CRT$XPA                DATA
 0002:000006e8 00000010H .CRT$XPX                DATA
 0002:000006f8 00000008H .CRT$XPXA               DATA
 0002:00000700 00000008H .CRT$XPZ                DATA
 0002:00000708 00000008H .CRT$XTA                DATA
 0002:00000710 00000010H .CRT$XTZ                DATA
 0002:00000718 00000000H .gehcont$y              DATA
 0002:00000718 00000000H .gfids$y                DATA
 0002:00000720 0000a3e0H .rdata                  DATA
 0002:0000ab00 00000000H .rdata$CastGuardVftablesA DATA
 0002:0000ab00 00000000H .rdata$CastGuardVftablesC DATA
 0002:0000ab00 00000028H .rdata$T                DATA
 0002:0000ab28 00000274H .rdata$r                DATA
 0002:0000ad9c 00000048H .rdata$voltmd           DATA
 0002:0000ade4 00000434H .rdata$zzzdbg           DATA
 0002:0000b218 00000008H .rtc$IAA                DATA
 0002:0000b220 00000008H .rtc$IZZ                DATA
 0002:0000b228 00000008H .rtc$TAA                DATA
 0002:0000b230 00000008H .rtc$TZZ                DATA
 0002:0000b238 00000004H .tls                    DATA
 0002:0000b23c 00000004H .tls$                   DATA
 0002:0000b240 00000008H .tls$ZZZ                DATA
 0002:0000b248 00001920H .xdata                  DATA
 0002:0000cb68 00000150H .xdata$x                DATA
 0002:0000ccb8 00000008H ATL$__a                 DATA
 0002:0000ccc0 00000010H ATL$__z                 DATA
 0002:0000ccd0 000000acH .edata                  DATA
 0002:0000cd7c 00000078H .idata$2                DATA
 0002:0000cdf4 00000014H .idata$3                DATA
 0002:0000ce08 00000638H .idata$4                DATA
 0002:0000d440 00000c5cH .idata$6                DATA
 0003:00000000 00000d88H .data                   DATA
 0003:00000d88 000000a8H .data$r                 DATA
 0003:00000e30 00000020H .data$rs                DATA
 0003:00000e50 000013ecH .bss                    DATA
 0004:00000000 00001fd4H .pdata                  DATA
 0005:00000000 000000f4H _RDATA                  DATA
 0006:00000000 00000220H .rsrc$01                DATA
 0006:00000220 00003b38H .rsrc$02                DATA

  Address         Publics by Value              Rva+Base               Lib:Object

 0000:00000000       __x64_code_ranges_to_entry_points 0000000000000000     <absolute>
 0000:00000000       __x64_code_ranges_to_entry_points_count 0000000000000000     <absolute>
 0000:00000000       __guard_longjmp_table      0000000000000000     <absolute>
 0000:00000000       __guard_fids_count         0000000000000000     <absolute>
 0000:00000000       __arm64x_extra_rfe_table   0000000000000000     <absolute>
 0000:00000000       __arm64x_redirection_metadata 0000000000000000     <absolute>
 0000:00000000       __guard_iat_table          0000000000000000     <absolute>
 0000:00000000       __hybrid_code_map          0000000000000000     <absolute>
 0000:00000000       __arm64x_extra_rfe_table_size 0000000000000000     <absolute>
 0000:00000000       ___safe_se_handler_count   0000000000000000     <absolute>
 0000:00000000       __guard_iat_count          0000000000000000     <absolute>
 0000:00000000       __guard_longjmp_count      0000000000000000     <absolute>
 0000:00000000       ___safe_se_handler_table   0000000000000000     <absolute>
 0000:00000000       __dynamic_value_reloc_table 0000000000000000     <absolute>
 0000:00000000       __hybrid_auxiliary_iat     0000000000000000     <absolute>
 0000:00000000       __hybrid_auxiliary_iat_copy 0000000000000000     <absolute>
 0000:00000000       __AbsoluteZero             0000000000000000     <absolute>
 0000:00000000       __guard_eh_cont_count      0000000000000000     <absolute>
 0000:00000000       __guard_check_icall_a64n_fptr 0000000000000000     <absolute>
 0000:00000000       __guard_fids_table         0000000000000000     <absolute>
 0000:00000000       __arm64x_redirection_metadata_count 0000000000000000     <absolute>
 0000:00000000       __enclave_config           0000000000000000     <absolute>
 0000:00000000       __guard_eh_cont_table      0000000000000000     <absolute>
 0000:00000000       __arm64x_native_entrypoint 0000000000000000     <absolute>
 0000:00000000       __hybrid_code_map_count    0000000000000000     <absolute>
 0000:00000100       __guard_flags              0000000000000100     <absolute>
 0000:00000000       __ImageBase                0000000180000000     <linker-defined>
 0001:000000c0       ?DupWide@_CW@@AEAAXXZ      00000001800010c0 f   CWString.obj
 0001:000000e8       ?cw_dup@@YAXPEBDAEAHAEAPEA_W1@Z 00000001800010e8 f   CWString.obj
 0001:000001c8       ?cw_memcpy@@YAHPEA_WPEBDH@Z 00000001800011c8 f   CWString.obj
 0001:00000214       ?cw_strcpy@@YAHPEA_WPEBD@Z 0000000180001214 f   CWString.obj
 0001:00000228       ??0CAtlComModule@ATL@@QEAA@XZ 0000000180001228 f i OposVariant.obj
 0001:000002a8       ??0CAtlWinModule@ATL@@QEAA@XZ 00000001800012a8 f i OposVariant.obj
 0001:00000314       ??0OposDispParms@@QEAA@PEAVOposVariant@@H@Z 0000000180001314 f   OposVariant.obj
 0001:000003bc       ??1OposDispParms@@QEAA@XZ  00000001800013bc f   OposVariant.obj
 0001:000003d4       ??_Estringdispid@CComTypeInfoHolder@ATL@@QEAAPEAXI@Z 00000001800013d4 f i OposVariant.obj
 0001:00000478       ?AtlWinModuleTerm@ATL@@YAJPEAU_ATL_WIN_MODULE70@1@PEAUHINSTANCE__@@@Z 0000000180001478 f i OposVariant.obj
 0001:00000528       ?ChangeBSTR@OposVariant@@QEAAXPEAPEA_WAEAJ@Z 0000000180001528 f   OposVariant.obj
 0001:00000588       ?ChangeLONG@OposVariant@@QEAAXPEAJAEAJ@Z 0000000180001588 f   OposVariant.obj
 0001:000005e4       ?GetLONG@OposVariant@@QEAAJXZ 00000001800015e4 f   OposVariant.obj
 0001:00000608       ?SetBSTR@OposVariant@@QEAAXPEA_WAEAJ@Z 0000000180001608 f   OposVariant.obj
 0001:00000648       ?SetBSTR_Copy@OposVariant@@QEAAXPEA_WAEAJ@Z 0000000180001648 f   OposVariant.obj
 0001:000006b8       ?SetBSTR_InOutPtr@OposVariant@@QEAA_NPEAPEA_WAEAJ@Z 00000001800016b8 f   OposVariant.obj
 0001:00000708       ?SetDispatch_Ptr@OposVariant@@QEAAXPEAUIDispatch@@AEAJ@Z 0000000180001708 f   OposVariant.obj
 0001:00000760       ?SetLONG@OposVariant@@QEAAXJ@Z 0000000180001760 f   OposVariant.obj
 0001:00000790       ?SetLONG_Ptr@OposVariant@@QEAAXPEAJAEAJ@Z 0000000180001790 f   OposVariant.obj
 0001:000007dc       ?SetString@OposVariant@@QEAAXPEB_WAEAJ@Z 00000001800017dc f   OposVariant.obj
 0001:00000840       ?SetVARIANT_BOOL@OposVariant@@QEAAXF@Z 0000000180001840 f   OposVariant.obj
 0001:00000878       ?Term@CAtlComModule@ATL@@QEAAXXZ 0000000180001878 f i OposVariant.obj
 0001:000008e8       ?_AtlInitializeCriticalSectionEx@ATL@@YAHPEAU_RTL_CRITICAL_SECTION@@KK@Z 00000001800018e8 f i OposVariant.obj
 0001:000008f0       ?_AtlRaiseException@ATL@@YAXKK@Z 00000001800018f0 f i OposVariant.obj
 0001:00000900       ?Next@?$CComEnumImpl@UIEnumConnections@@$1?_GUID_b196b287_bab4_101a_b69c_00aa00341d07@@3U__s_GUID@@BUtagCONNECTDATA@@V?$_Copy@UtagCONNECTDATA@@@ATL@@@ATL@@UEAAJKPEAUtagCONNECTDATA@@PEAK@Z 0000000180001900 f i POSKeyboard.obj
 0001:000009c8       ?Skip@?$CComEnumImpl@UIEnumConnections@@$1?_GUID_b196b287_bab4_101a_b69c_00aa00341d07@@3U__s_GUID@@BUtagCONNECTDATA@@V?$_Copy@UtagCONNECTDATA@@@ATL@@@ATL@@UEAAJK@Z 00000001800019c8 f i POSKeyboard.obj
 0001:000009f4       ?Reset@?$CComEnumImpl@UIEnumConnectionPoints@@$1?_GUID_b196b285_bab4_101a_b69c_00aa00341d07@@3U__s_GUID@@BPEAUIConnectionPoint@@V?$_CopyInterface@UIConnectionPoint@@@ATL@@@ATL@@UEAAJXZ 00000001800019f4 f i POSKeyboard.obj
 0001:000009f4       ?Reset@?$CComEnumImpl@UIEnumConnections@@$1?_GUID_b196b287_bab4_101a_b69c_00aa00341d07@@3U__s_GUID@@BUtagCONNECTDATA@@V?$_Copy@UtagCONNECTDATA@@@ATL@@@ATL@@UEAAJXZ 00000001800019f4 f i POSKeyboard.obj
 0001:00000a00       ?Clone@?$CComEnumImpl@UIEnumConnections@@$1?_GUID_b196b287_bab4_101a_b69c_00aa00341d07@@3U__s_GUID@@BUtagCONNECTDATA@@V?$_Copy@UtagCONNECTDATA@@@ATL@@@ATL@@UEAAJPEAPEAUIEnumConnections@@@Z 0000000180001a00 f i POSKeyboard.obj
 0001:00000b2c       ?AddRef@?$CComObject@V?$CComEnum@UIEnumConnections@@$1?_GUID_b196b287_bab4_101a_b69c_00aa00341d07@@3U__s_GUID@@BUtagCONNECTDATA@@V?$_Copy@UtagCONNECTDATA@@@ATL@@VCComSingleThreadModel@6@@ATL@@@ATL@@UEAAKXZ 0000000180001b2c f i POSKeyboard.obj
 0001:00000b2c       ?AddRef@?$CComObject@V?$CComEnum@UIEnumConnectionPoints@@$1?_GUID_b196b285_bab4_101a_b69c_00aa00341d07@@3U__s_GUID@@BPEAUIConnectionPoint@@V?$_CopyInterface@UIConnectionPoint@@@ATL@@VCComSingleThreadModel@6@@ATL@@@ATL@@UEAAKXZ 0000000180001b2c f i POSKeyboard.obj
 0001:00000b38       ?Release@?$CComObject@V?$CComEnum@UIEnumConnectionPoints@@$1?_GUID_b196b285_bab4_101a_b69c_00aa00341d07@@3U__s_GUID@@BPEAUIConnectionPoint@@V?$_CopyInterface@UIConnectionPoint@@@ATL@@VCComSingleThreadModel@6@@ATL@@@ATL@@UEAAKXZ 0000000180001b38 f i POSKeyboard.obj
 0001:00000b38       ?Release@?$CComObject@V?$CComEnum@UIEnumConnections@@$1?_GUID_b196b287_bab4_101a_b69c_00aa00341d07@@3U__s_GUID@@BUtagCONNECTDATA@@V?$_Copy@UtagCONNECTDATA@@@ATL@@VCComSingleThreadModel@6@@ATL@@@ATL@@UEAAKXZ 0000000180001b38 f i POSKeyboard.obj
 0001:00000b8c       ?QueryInterface@?$CComObject@V?$CComEnum@UIEnumConnections@@$1?_GUID_b196b287_bab4_101a_b69c_00aa00341d07@@3U__s_GUID@@BUtagCONNECTDATA@@V?$_Copy@UtagCONNECTDATA@@@ATL@@VCComSingleThreadModel@6@@ATL@@@ATL@@UEAAJAEBU_GUID@@PEAPEAX@Z 0000000180001b8c f i POSKeyboard.obj
 0001:00000ba0       ??_G?$CComObject@V?$CComEnum@UIEnumConnections@@$1?_GUID_b196b287_bab4_101a_b69c_00aa00341d07@@3U__s_GUID@@BUtagCONNECTDATA@@V?$_Copy@UtagCONNECTDATA@@@ATL@@VCComSingleThreadModel@6@@ATL@@@ATL@@UEAAPEAXI@Z 0000000180001ba0 f i POSKeyboard.obj
 0001:00000ba0       ??_E?$CComObject@V?$CComEnum@UIEnumConnections@@$1?_GUID_b196b287_bab4_101a_b69c_00aa00341d07@@3U__s_GUID@@BUtagCONNECTDATA@@V?$_Copy@UtagCONNECTDATA@@@ATL@@VCComSingleThreadModel@6@@ATL@@@ATL@@UEAAPEAXI@Z 0000000180001ba0 f i POSKeyboard.obj
 0001:00000bf8       _guard_check_icall_nop     0000000180001bf8 f i LIBCMT:guard_support.obj
 0001:00000bf8       ?ObjectMain@CComObjectRootBase@ATL@@SAX_N@Z 0000000180001bf8 f i POSKeyboard.obj
 0001:00000bf8       ?OnFinalMessage@?$CWindowImplBaseT@VCWindow@ATL@@V?$CWinTraits@$0FGAAAAAA@$0A@@2@@ATL@@UEAAXPEAUHWND__@@@Z 0000000180001bf8 f i POSKeyboard.obj
 0001:00000bfc       ?SetHostNames@?$IOleObjectImpl@VCOPOSPOSKeyboard@@@ATL@@UEAAJPEB_W0@Z 0000000180001bfc f i POSKeyboard.obj
 0001:00000bfc       ?HandsOffStorage@?$IPersistStorageImpl@VCOPOSPOSKeyboard@@@ATL@@UEAAJXZ 0000000180001bfc f i POSKeyboard.obj
 0001:00000bfc       ?Update@?$IOleObjectImpl@VCOPOSPOSKeyboard@@@ATL@@UEAAJXZ 0000000180001bfc f i POSKeyboard.obj
 0001:00000bfc       ?ResizeBorder@?$IOleInPlaceActiveObjectImpl@VCOPOSPOSKeyboard@@@ATL@@UEAAJPEBUtagRECT@@PEAUIOleInPlaceUIWindow@@H@Z 0000000180001bfc f i POSKeyboard.obj
 0001:00000bfc       ?Release@CRegObject@ATL@@UEAAKXZ 0000000180001bfc f i POSKeyboard.obj
 0001:00000bfc       ?EnableModeless@?$IOleInPlaceActiveObjectImpl@VCOPOSPOSKeyboard@@@ATL@@UEAAJH@Z 0000000180001bfc f i POSKeyboard.obj
 0001:00000bfc       ?GetObjectDescription@?$CComCoClass@VCOPOSPOSKeyboard@@$1?CLSID_OPOSPOSKeyboard@@3U_GUID@@B@ATL@@SAPEB_WXZ 0000000180001bfc f i POSKeyboard.obj
 0001:00000bfc       ?SaveCompleted@?$IPersistStorageImpl@VCOPOSPOSKeyboard@@@ATL@@UEAAJPEAUIStorage@@@Z 0000000180001bfc f i POSKeyboard.obj
 0001:00000bfc       ?IsUpToDate@?$IOleObjectImpl@VCOPOSPOSKeyboard@@@ATL@@UEAAJXZ 0000000180001bfc f i POSKeyboard.obj
 0001:00000bfc       ?OnAmbientPropertyChange@?$IOleControlImpl@VCOPOSPOSKeyboard@@@ATL@@UEAAJJ@Z 0000000180001bfc f i POSKeyboard.obj
 0001:00000bfc       ?GetCategoryMap@CComObjectRootBase@ATL@@SAPEBU_ATL_CATMAP_ENTRY@2@XZ 0000000180001bfc f i POSKeyboard.obj
 0001:00000bfc       ?OnFrameWindowActivate@?$IOleInPlaceActiveObjectImpl@VCOPOSPOSKeyboard@@@ATL@@UEAAJH@Z 0000000180001bfc f i POSKeyboard.obj
 0001:00000c00       ??_E?$CComObject@VCOPOSPOSKeyboard@@@ATL@@W7EAAPEAXI@Z 0000000180001c00 f i POSKeyboard.obj
 0001:00000c0c       ??_E?$CComObject@VCOPOSPOSKeyboard@@@ATL@@WHA@EAAPEAXI@Z 0000000180001c0c f i POSKeyboard.obj
 0001:00000c18       ?QueryInterface@?$CComObject@VCOPOSPOSKeyboard@@@ATL@@WLI@EAAJAEBU_GUID@@PEAPEAX@Z 0000000180001c18 f i POSKeyboard.obj
 0001:00000c24       ?AddRef@?$CComObject@VCOPOSPOSKeyboard@@@ATL@@WLI@EAAKXZ 0000000180001c24 f i POSKeyboard.obj
 0001:00000c30       ?Release@?$CComObject@VCOPOSPOSKeyboard@@@ATL@@WLI@EAAKXZ 0000000180001c30 f i POSKeyboard.obj
 0001:00000c3c       ?QueryInterface@?$CComObject@VCOPOSPOSKeyboard@@@ATL@@WMA@EAAJAEBU_GUID@@PEAPEAX@Z 0000000180001c3c f i POSKeyboard.obj
 0001:00000c48       ?AddRef@?$CComObject@VCOPOSPOSKeyboard@@@ATL@@WMA@EAAKXZ 0000000180001c48 f i POSKeyboard.obj
 0001:00000c54       ?Release@?$CComObject@VCOPOSPOSKeyboard@@@ATL@@WMA@EAAKXZ 0000000180001c54 f i POSKeyboard.obj
 0001:00000c60       ?QueryInterface@?$CComObject@VCOPOSPOSKeyboard@@@ATL@@WMI@EAAJAEBU_GUID@@PEAPEAX@Z 0000000180001c60 f i POSKeyboard.obj
 0001:00000c6c       ?AddRef@?$CComObject@VCOPOSPOSKeyboard@@@ATL@@WMI@EAAKXZ 0000000180001c6c f i POSKeyboard.obj
 0001:00000c78       ?Release@?$CComObject@VCOPOSPOSKeyboard@@@ATL@@WMI@EAAKXZ 0000000180001c78 f i POSKeyboard.obj
 0001:00000c84       ?QueryInterface@?$CComObject@VCOPOSPOSKeyboard@@@ATL@@WNA@EAAJAEBU_GUID@@PEAPEAX@Z 0000000180001c84 f i POSKeyboard.obj
 0001:00000c90       ?AddRef@?$CComObject@VCOPOSPOSKeyboard@@@ATL@@WNA@EAAKXZ 0000000180001c90 f i POSKeyboard.obj
 0001:00000c9c       ?Release@?$CComObject@VCOPOSPOSKeyboard@@@ATL@@WNA@EAAKXZ 0000000180001c9c f i POSKeyboard.obj
 0001:00000ca8       ?QueryInterface@?$CComObject@VCOPOSPOSKeyboard@@@ATL@@WNI@EAAJAEBU_GUID@@PEAPEAX@Z 0000000180001ca8 f i POSKeyboard.obj
 0001:00000cb4       ?AddRef@?$CComObject@VCOPOSPOSKeyboard@@@ATL@@WNI@EAAKXZ 0000000180001cb4 f i POSKeyboard.obj
 0001:00000cc0       ?Release@?$CComObject@VCOPOSPOSKeyboard@@@ATL@@WNI@EAAKXZ 0000000180001cc0 f i POSKeyboard.obj
 0001:00000ccc       ?QueryInterface@?$CComObject@VCOPOSPOSKeyboard@@@ATL@@WOA@EAAJAEBU_GUID@@PEAPEAX@Z 0000000180001ccc f i POSKeyboard.obj
 0001:00000cd8       ?AddRef@?$CComObject@VCOPOSPOSKeyboard@@@ATL@@WOA@EAAKXZ 0000000180001cd8 f i POSKeyboard.obj
 0001:00000ce4       ?Release@?$CComObject@VCOPOSPOSKeyboard@@@ATL@@WOA@EAAKXZ 0000000180001ce4 f i POSKeyboard.obj
 0001:00000cf0       ?QueryInterface@?$CComObject@VCOPOSPOSKeyboard@@@ATL@@WOI@EAAJAEBU_GUID@@PEAPEAX@Z 0000000180001cf0 f i POSKeyboard.obj
 0001:00000cfc       ?AddRef@?$CComObject@VCOPOSPOSKeyboard@@@ATL@@WOI@EAAKXZ 0000000180001cfc f i POSKeyboard.obj
 0001:00000d08       ?Release@?$CComObject@VCOPOSPOSKeyboard@@@ATL@@WOI@EAAKXZ 0000000180001d08 f i POSKeyboard.obj
 0001:00000d14       ?QueryInterface@?$CComObject@VCOPOSPOSKeyboard@@@ATL@@WPA@EAAJAEBU_GUID@@PEAPEAX@Z 0000000180001d14 f i POSKeyboard.obj
 0001:00000d20       ?AddRef@?$CComObject@VCOPOSPOSKeyboard@@@ATL@@WPA@EAAKXZ 0000000180001d20 f i POSKeyboard.obj
 0001:00000d2c       ?Release@?$CComObject@VCOPOSPOSKeyboard@@@ATL@@WPA@EAAKXZ 0000000180001d2c f i POSKeyboard.obj
 0001:00000d38       ?QueryInterface@?$CComObject@VCOPOSPOSKeyboard@@@ATL@@WPI@EAAJAEBU_GUID@@PEAPEAX@Z 0000000180001d38 f i POSKeyboard.obj
 0001:00000d44       ?AddRef@?$CComObject@VCOPOSPOSKeyboard@@@ATL@@WPI@EAAKXZ 0000000180001d44 f i POSKeyboard.obj
 0001:00000d50       ?Release@?$CComObject@VCOPOSPOSKeyboard@@@ATL@@WPI@EAAKXZ 0000000180001d50 f i POSKeyboard.obj
 0001:00000d5c       ?QueryInterface@?$CComObject@VCOPOSPOSKeyboard@@@ATL@@WBAA@EAAJAEBU_GUID@@PEAPEAX@Z 0000000180001d5c f i POSKeyboard.obj
 0001:00000d68       ?AddRef@?$CComObject@VCOPOSPOSKeyboard@@@ATL@@WBAA@EAAKXZ 0000000180001d68 f i POSKeyboard.obj
 0001:00000d74       ?Release@?$CComObject@VCOPOSPOSKeyboard@@@ATL@@WBAA@EAAKXZ 0000000180001d74 f i POSKeyboard.obj
 0001:00000d80       ?QueryInterface@?$CComObject@VCOPOSPOSKeyboard@@@ATL@@WBAI@EAAJAEBU_GUID@@PEAPEAX@Z 0000000180001d80 f i POSKeyboard.obj
 0001:00000d8c       ?AddRef@?$CComObject@VCOPOSPOSKeyboard@@@ATL@@WBAI@EAAKXZ 0000000180001d8c f i POSKeyboard.obj
 0001:00000d98       ?Release@?$CComObject@VCOPOSPOSKeyboard@@@ATL@@WBAI@EAAKXZ 0000000180001d98 f i POSKeyboard.obj
 0001:00000da4       ?QueryInterface@?$CComObject@VCOPOSPOSKeyboard@@@ATL@@WBBA@EAAJAEBU_GUID@@PEAPEAX@Z 0000000180001da4 f i POSKeyboard.obj
 0001:00000db0       ?AddRef@?$CComObject@VCOPOSPOSKeyboard@@@ATL@@WBBA@EAAKXZ 0000000180001db0 f i POSKeyboard.obj
 0001:00000dbc       ?Release@?$CComObject@VCOPOSPOSKeyboard@@@ATL@@WBBA@EAAKXZ 0000000180001dbc f i POSKeyboard.obj
 0001:00000dc8       ?QueryInterface@?$CComObject@VCOPOSPOSKeyboard@@@ATL@@WBBI@EAAJAEBU_GUID@@PEAPEAX@Z 0000000180001dc8 f i POSKeyboard.obj
 0001:00000dd4       ?AddRef@?$CComObject@VCOPOSPOSKeyboard@@@ATL@@WBBI@EAAKXZ 0000000180001dd4 f i POSKeyboard.obj
 0001:00000de0       ?Release@?$CComObject@VCOPOSPOSKeyboard@@@ATL@@WBBI@EAAKXZ 0000000180001de0 f i POSKeyboard.obj
 0001:00000dec       ?AddRef@?$CComObject@VCOPOSPOSKeyboard@@@ATL@@WBCI@EAAKXZ 0000000180001dec f i POSKeyboard.obj
 0001:00000df8       ?Release@?$CComObject@VCOPOSPOSKeyboard@@@ATL@@WBCI@EAAKXZ 0000000180001df8 f i POSKeyboard.obj
 0001:00000e04       ?AddRef@?$CComObject@VCOPOSPOSKeyboard@@@ATL@@WBEA@EAAKXZ 0000000180001e04 f i POSKeyboard.obj
 0001:00000e10       ?Release@?$CComObject@VCOPOSPOSKeyboard@@@ATL@@WBEA@EAAKXZ 0000000180001e10 f i POSKeyboard.obj
 0001:00000e1c       ??_E?$CComContainedObject@VCOPOSPOSKeyboard@@@ATL@@W7EAAPEAXI@Z 0000000180001e1c f i POSKeyboard.obj
 0001:00000e28       ??_E?$CComContainedObject@VCOPOSPOSKeyboard@@@ATL@@WHA@EAAPEAXI@Z 0000000180001e28 f i POSKeyboard.obj
 0001:00000e34       ?QueryInterface@?$CComContainedObject@VCOPOSPOSKeyboard@@@ATL@@WLI@EAAJAEBU_GUID@@PEAPEAX@Z 0000000180001e34 f i POSKeyboard.obj
 0001:00000e40       ?AddRef@?$CComContainedObject@VCOPOSPOSKeyboard@@@ATL@@WLI@EAAKXZ 0000000180001e40 f i POSKeyboard.obj
 0001:00000e4c       ?Release@?$CComContainedObject@VCOPOSPOSKeyboard@@@ATL@@WLI@EAAKXZ 0000000180001e4c f i POSKeyboard.obj
 0001:00000e58       ?QueryInterface@?$CComContainedObject@VCOPOSPOSKeyboard@@@ATL@@WMA@EAAJAEBU_GUID@@PEAPEAX@Z 0000000180001e58 f i POSKeyboard.obj
 0001:00000e64       ?AddRef@?$CComContainedObject@VCOPOSPOSKeyboard@@@ATL@@WMA@EAAKXZ 0000000180001e64 f i POSKeyboard.obj
 0001:00000e70       ?Release@?$CComContainedObject@VCOPOSPOSKeyboard@@@ATL@@WMA@EAAKXZ 0000000180001e70 f i POSKeyboard.obj
 0001:00000e7c       ?QueryInterface@?$CComContainedObject@VCOPOSPOSKeyboard@@@ATL@@WMI@EAAJAEBU_GUID@@PEAPEAX@Z 0000000180001e7c f i POSKeyboard.obj
 0001:00000e88       ?AddRef@?$CComContainedObject@VCOPOSPOSKeyboard@@@ATL@@WMI@EAAKXZ 0000000180001e88 f i POSKeyboard.obj
 0001:00000e94       ?Release@?$CComContainedObject@VCOPOSPOSKeyboard@@@ATL@@WMI@EAAKXZ 0000000180001e94 f i POSKeyboard.obj
 0001:00000ea0       ?QueryInterface@?$CComContainedObject@VCOPOSPOSKeyboard@@@ATL@@WNA@EAAJAEBU_GUID@@PEAPEAX@Z 0000000180001ea0 f i POSKeyboard.obj
 0001:00000eac       ?AddRef@?$CComContainedObject@VCOPOSPOSKeyboard@@@ATL@@WNA@EAAKXZ 0000000180001eac f i POSKeyboard.obj
 0001:00000eb8       ?Release@?$CComContainedObject@VCOPOSPOSKeyboard@@@ATL@@WNA@EAAKXZ 0000000180001eb8 f i POSKeyboard.obj
 0001:00000ec4       ?QueryInterface@?$CComContainedObject@VCOPOSPOSKeyboard@@@ATL@@WNI@EAAJAEBU_GUID@@PEAPEAX@Z 0000000180001ec4 f i POSKeyboard.obj
 0001:00000ed0       ?AddRef@?$CComContainedObject@VCOPOSPOSKeyboard@@@ATL@@WNI@EAAKXZ 0000000180001ed0 f i POSKeyboard.obj
 0001:00000edc       ?Release@?$CComContainedObject@VCOPOSPOSKeyboard@@@ATL@@WNI@EAAKXZ 0000000180001edc f i POSKeyboard.obj
 0001:00000ee8       ?QueryInterface@?$CComContainedObject@VCOPOSPOSKeyboard@@@ATL@@WOA@EAAJAEBU_GUID@@PEAPEAX@Z 0000000180001ee8 f i POSKeyboard.obj
 0001:00000ef4       ?AddRef@?$CComContainedObject@VCOPOSPOSKeyboard@@@ATL@@WOA@EAAKXZ 0000000180001ef4 f i POSKeyboard.obj
 0001:00000f00       ?Release@?$CComContainedObject@VCOPOSPOSKeyboard@@@ATL@@WOA@EAAKXZ 0000000180001f00 f i POSKeyboard.obj
 0001:00000f0c       ?QueryInterface@?$CComContainedObject@VCOPOSPOSKeyboard@@@ATL@@WOI@EAAJAEBU_GUID@@PEAPEAX@Z 0000000180001f0c f i POSKeyboard.obj
 0001:00000f18       ?AddRef@?$CComContainedObject@VCOPOSPOSKeyboard@@@ATL@@WOI@EAAKXZ 0000000180001f18 f i POSKeyboard.obj
 0001:00000f24       ?Release@?$CComContainedObject@VCOPOSPOSKeyboard@@@ATL@@WOI@EAAKXZ 0000000180001f24 f i POSKeyboard.obj
 0001:00000f30       ?QueryInterface@?$CComContainedObject@VCOPOSPOSKeyboard@@@ATL@@WPA@EAAJAEBU_GUID@@PEAPEAX@Z 0000000180001f30 f i POSKeyboard.obj
 0001:00000f3c       ?AddRef@?$CComContainedObject@VCOPOSPOSKeyboard@@@ATL@@WPA@EAAKXZ 0000000180001f3c f i POSKeyboard.obj
 0001:00000f48       ?Release@?$CComContainedObject@VCOPOSPOSKeyboard@@@ATL@@WPA@EAAKXZ 0000000180001f48 f i POSKeyboard.obj
 0001:00000f54       ?QueryInterface@?$CComContainedObject@VCOPOSPOSKeyboard@@@ATL@@WPI@EAAJAEBU_GUID@@PEAPEAX@Z 0000000180001f54 f i POSKeyboard.obj
 0001:00000f60       ?AddRef@?$CComContainedObject@VCOPOSPOSKeyboard@@@ATL@@WPI@EAAKXZ 0000000180001f60 f i POSKeyboard.obj
 0001:00000f6c       ?Release@?$CComContainedObject@VCOPOSPOSKeyboard@@@ATL@@WPI@EAAKXZ 0000000180001f6c f i POSKeyboard.obj
 0001:00000f78       ?QueryInterface@?$CComContainedObject@VCOPOSPOSKeyboard@@@ATL@@WBAA@EAAJAEBU_GUID@@PEAPEAX@Z 0000000180001f78 f i POSKeyboard.obj
 0001:00000f84       ?AddRef@?$CComContainedObject@VCOPOSPOSKeyboard@@@ATL@@WBAA@EAAKXZ 0000000180001f84 f i POSKeyboard.obj
 0001:00000f90       ?Release@?$CComContainedObject@VCOPOSPOSKeyboard@@@ATL@@WBAA@EAAKXZ 0000000180001f90 f i POSKeyboard.obj
 0001:00000f9c       ?QueryInterface@?$CComContainedObject@VCOPOSPOSKeyboard@@@ATL@@WBAI@EAAJAEBU_GUID@@PEAPEAX@Z 0000000180001f9c f i POSKeyboard.obj
 0001:00000fa8       ?AddRef@?$CComContainedObject@VCOPOSPOSKeyboard@@@ATL@@WBAI@EAAKXZ 0000000180001fa8 f i POSKeyboard.obj
 0001:00000fb4       ?Release@?$CComContainedObject@VCOPOSPOSKeyboard@@@ATL@@WBAI@EAAKXZ 0000000180001fb4 f i POSKeyboard.obj
 0001:00000fc0       ?QueryInterface@?$CComContainedObject@VCOPOSPOSKeyboard@@@ATL@@WBBA@EAAJAEBU_GUID@@PEAPEAX@Z 0000000180001fc0 f i POSKeyboard.obj
 0001:00000fcc       ?AddRef@?$CComContainedObject@VCOPOSPOSKeyboard@@@ATL@@WBBA@EAAKXZ 0000000180001fcc f i POSKeyboard.obj
 0001:00000fd8       ?Release@?$CComContainedObject@VCOPOSPOSKeyboard@@@ATL@@WBBA@EAAKXZ 0000000180001fd8 f i POSKeyboard.obj
 0001:00000fe4       ?QueryInterface@?$CComContainedObject@VCOPOSPOSKeyboard@@@ATL@@WBBI@EAAJAEBU_GUID@@PEAPEAX@Z 0000000180001fe4 f i POSKeyboard.obj
 0001:00000ff0       ?AddRef@?$CComContainedObject@VCOPOSPOSKeyboard@@@ATL@@WBBI@EAAKXZ 0000000180001ff0 f i POSKeyboard.obj
 0001:00000ffc       ?Release@?$CComContainedObject@VCOPOSPOSKeyboard@@@ATL@@WBBI@EAAKXZ 0000000180001ffc f i POSKeyboard.obj
 0001:00001008       ?AddRef@?$CComContainedObject@VCOPOSPOSKeyboard@@@ATL@@WBCI@EAAKXZ 0000000180002008 f i POSKeyboard.obj
 0001:00001014       ?Release@?$CComContainedObject@VCOPOSPOSKeyboard@@@ATL@@WBCI@EAAKXZ 0000000180002014 f i POSKeyboard.obj
 0001:00001020       ?AddRef@?$CComContainedObject@VCOPOSPOSKeyboard@@@ATL@@WBEA@EAAKXZ 0000000180002020 f i POSKeyboard.obj
 0001:0000102c       ?Release@?$CComContainedObject@VCOPOSPOSKeyboard@@@ATL@@WBEA@EAAKXZ 000000018000202c f i POSKeyboard.obj
 0001:00001038       ?CreateInstance@CComClassFactory@ATL@@UEAAJPEAUIUnknown@@AEBU_GUID@@PEAPEAX@Z 0000000180002038 f i POSKeyboard.obj
 0001:00001098       ?LockServer@CComClassFactory@ATL@@UEAAJH@Z 0000000180002098 f i POSKeyboard.obj
 0001:000010bc       ??_ECComClassFactory@ATL@@UEAAPEAXI@Z 00000001800020bc f i POSKeyboard.obj
 0001:000010bc       ??_GCComClassFactory@ATL@@UEAAPEAXI@Z 00000001800020bc f i POSKeyboard.obj
 0001:0000110c       ?GetWindowProc@?$CWindowImplBaseT@VCWindow@ATL@@V?$CWinTraits@$0FGAAAAAA@$0A@@2@@ATL@@UEAAP6A_JPEAUHWND__@@I_K_J@ZXZ 000000018000210c f i POSKeyboard.obj
 0001:00001114       ?StartWindowProc@?$CWindowImplBaseT@VCWindow@ATL@@V?$CWinTraits@$0FGAAAAAA@$0A@@2@@ATL@@SA_JPEAUHWND__@@I_K_J@Z 0000000180002114 f i POSKeyboard.obj
 0001:000011c8       ?GetTypeInfoCount@?$IDispatchImpl@UIOPOSPOSKeyboard@@$1?IID_IOPOSPOSKeyboard@@3U_GUID@@B$1?LIBID_OposPOSKeyboard_CCO@@3U3@B$00$0A@VCComTypeInfoHolder@ATL@@@ATL@@UEAAJPEAI@Z 00000001800021c8 f i POSKeyboard.obj
 0001:000011dc       ?GetTypeInfo@?$IDispatchImpl@UIOPOSPOSKeyboard@@$1?IID_IOPOSPOSKeyboard@@3U_GUID@@B$1?LIBID_OposPOSKeyboard_CCO@@3U3@B$00$0A@VCComTypeInfoHolder@ATL@@@ATL@@UEAAJIKPEAPEAUITypeInfo@@@Z 00000001800021dc f i POSKeyboard.obj
 0001:00001240       ?GetIDsOfNames@?$IDispatchImpl@UIOPOSPOSKeyboard@@$1?IID_IOPOSPOSKeyboard@@3U_GUID@@B$1?LIBID_OposPOSKeyboard_CCO@@3U3@B$00$0A@VCComTypeInfoHolder@ATL@@@ATL@@UEAAJAEBU_GUID@@PEAPEA_WIKPEAJ@Z 0000000180002240 f i POSKeyboard.obj
 0001:0000124c       ?Invoke@?$IDispatchImpl@UIOPOSPOSKeyboard@@$1?IID_IOPOSPOSKeyboard@@3U_GUID@@B$1?LIBID_OposPOSKeyboard_CCO@@3U3@B$00$0A@VCComTypeInfoHolder@ATL@@@ATL@@UEAAJJAEBU_GUID@@KGPEAUtagDISPPARAMS@@PEAUtagVARIANT@@PEAUtagEXCEPINFO@@PEAI@Z 000000018000224c f i POSKeyboard.obj
 0001:000012dc       ?CreateControlWindow@?$CComControl@VCOPOSPOSKeyboard@@V?$CWindowImpl@VCOPOSPOSKeyboard@@VCWindow@ATL@@V?$CWinTraits@$0FGAAAAAA@$0A@@3@@ATL@@@ATL@@UEAAPEAUHWND__@@PEAU3@AEAUtagRECT@@@Z 00000001800022dc f i POSKeyboard.obj
 0001:00001314       ?ControlQueryInterface@?$CComControl@VCOPOSPOSKeyboard@@V?$CWindowImpl@VCOPOSPOSKeyboard@@VCWindow@ATL@@V?$CWinTraits@$0FGAAAAAA@$0A@@3@@ATL@@@ATL@@UEAAJAEBU_GUID@@PEAPEAX@Z 0000000180002314 f i POSKeyboard.obj
 0001:00001328       ?GetClassID@?$IPersistStreamInitImpl@VCOPOSPOSKeyboard@@@ATL@@UEAAJPEAU_GUID@@@Z 0000000180002328 f i POSKeyboard.obj
 0001:00001328       ?GetClassID@?$IPersistStorageImpl@VCOPOSPOSKeyboard@@@ATL@@UEAAJPEAU_GUID@@@Z 0000000180002328 f i POSKeyboard.obj
 0001:00001328       ?GetUserClassID@?$IOleObjectImpl@VCOPOSPOSKeyboard@@@ATL@@UEAAJPEAU_GUID@@@Z 0000000180002328 f i POSKeyboard.obj
 0001:00001344       ?IsDirty@?$IPersistStreamInitImpl@VCOPOSPOSKeyboard@@@ATL@@UEAAJXZ 0000000180002344 f i POSKeyboard.obj
 0001:00001360       ?Load@?$IPersistStreamInitImpl@VCOPOSPOSKeyboard@@@ATL@@UEAAJPEAUIStream@@@Z 0000000180002360 f i POSKeyboard.obj
 0001:00001378       ?Save@?$IPersistStreamInitImpl@VCOPOSPOSKeyboard@@@ATL@@UEAAJPEAUIStream@@H@Z 0000000180002378 f i POSKeyboard.obj
 0001:00001390       ?GetSizeMax@?$IPersistStreamInitImpl@VCOPOSPOSKeyboard@@@ATL@@UEAAJPEAT_ULARGE_INTEGER@@@Z 0000000180002390 f i POSKeyboard.obj
 0001:000015b4       ?InitNew@?$IPersistStreamInitImpl@VCOPOSPOSKeyboard@@@ATL@@UEAAJXZ 00000001800025b4 f i POSKeyboard.obj
 0001:000015cc       ?GetColorSet@?$IViewObjectExImpl@VCOPOSPOSKeyboard@@@ATL@@UEAAJKJPEAXPEAUtagDVTARGETDEVICE@@PEAUHDC__@@PEAPEAUtagLOGPALETTE@@@Z 00000001800025cc f i POSKeyboard.obj
 0001:000015cc       ?GetClipboardData@?$IOleObjectImpl@VCOPOSPOSKeyboard@@@ATL@@UEAAJKPEAPEAUIDataObject@@@Z 00000001800025cc f i POSKeyboard.obj
 0001:000015cc       ?GetRect@?$IViewObjectExImpl@VCOPOSPOSKeyboard@@@ATL@@UEAAJKPEAU_RECTL@@@Z 00000001800025cc f i POSKeyboard.obj
 0001:000015cc       ?GetControlInfo@?$IOleControlImpl@VCOPOSPOSKeyboard@@@ATL@@UEAAJPEAUtagCONTROLINFO@@@Z 00000001800025cc f i POSKeyboard.obj
 0001:000015cc       ?GetMoniker@?$IOleObjectImpl@VCOPOSPOSKeyboard@@@ATL@@UEAAJKKPEAPEAUIMoniker@@@Z 00000001800025cc f i POSKeyboard.obj
 0001:000015cc       ?SOOutputCompleteDummy@COPOSPOSKeyboard@@MEAAJJ@Z 00000001800025cc f i POSKeyboard.obj
 0001:000015cc       ?ReactivateAndUndo@?$IOleInPlaceObjectWindowlessImpl@VCOPOSPOSKeyboard@@@ATL@@UEAAJXZ 00000001800025cc f i POSKeyboard.obj
 0001:000015cc       ?InitFromData@?$IOleObjectImpl@VCOPOSPOSKeyboard@@@ATL@@UEAAJPEAUIDataObject@@HK@Z 00000001800025cc f i POSKeyboard.obj
 0001:000015cc       ?Freeze@?$IViewObjectExImpl@VCOPOSPOSKeyboard@@@ATL@@UEAAJKJPEAXPEAK@Z 00000001800025cc f i POSKeyboard.obj
 0001:000015cc       ?ContextSensitiveHelp@?$IOleInPlaceActiveObjectImpl@VCOPOSPOSKeyboard@@@ATL@@UEAAJH@Z 00000001800025cc f i POSKeyboard.obj
 0001:000015cc       ?SetMoniker@?$IOleObjectImpl@VCOPOSPOSKeyboard@@@ATL@@UEAAJKPEAUIMoniker@@@Z 00000001800025cc f i POSKeyboard.obj
 0001:000015cc       ?GetCanonicalFormatEtc@?$IDataObjectImpl@VCOPOSPOSKeyboard@@@ATL@@UEAAJPEAUtagFORMATETC@@0@Z 00000001800025cc f i POSKeyboard.obj
 0001:000015cc       ?ContextSensitiveHelp@?$IOleInPlaceObjectWindowlessImpl@VCOPOSPOSKeyboard@@@ATL@@UEAAJH@Z 00000001800025cc f i POSKeyboard.obj
 0001:000015cc       ?Unfreeze@?$IViewObjectExImpl@VCOPOSPOSKeyboard@@@ATL@@UEAAJK@Z 00000001800025cc f i POSKeyboard.obj
 0001:000015cc       ?QueryInterface@CRegObject@ATL@@UEAAJAEBU_GUID@@PEAPEAX@Z 00000001800025cc f i POSKeyboard.obj
 0001:000015cc       ?SetColorScheme@?$IOleObjectImpl@VCOPOSPOSKeyboard@@@ATL@@UEAAJPEAUtagLOGPALETTE@@@Z 00000001800025cc f i POSKeyboard.obj
 0001:000015cc       ?GetDataHere@?$IDataObjectImpl@VCOPOSPOSKeyboard@@@ATL@@UEAAJPEAUtagFORMATETC@@PEAUtagSTGMEDIUM@@@Z 00000001800025cc f i POSKeyboard.obj
 0001:000015cc       ?SetData@?$IDataObjectImpl@VCOPOSPOSKeyboard@@@ATL@@UEAAJPEAUtagFORMATETC@@PEAUtagSTGMEDIUM@@H@Z 00000001800025cc f i POSKeyboard.obj
 0001:000015cc       ?OnMnemonic@?$IOleControlImpl@VCOPOSPOSKeyboard@@@ATL@@UEAAJPEAUtagMSG@@@Z 00000001800025cc f i POSKeyboard.obj
 0001:000015cc       ?GetDropTarget@?$IOleInPlaceObjectWindowlessImpl@VCOPOSPOSKeyboard@@@ATL@@UEAAJPEAPEAUIDropTarget@@@Z 00000001800025cc f i POSKeyboard.obj
 0001:000015cc       ?QueryGetData@?$IDataObjectImpl@VCOPOSPOSKeyboard@@@ATL@@UEAAJPEAUtagFORMATETC@@@Z 00000001800025cc f i POSKeyboard.obj
 0001:000015cc       ?EnumFormatEtc@?$IDataObjectImpl@VCOPOSPOSKeyboard@@@ATL@@UEAAJKPEAPEAUIEnumFORMATETC@@@Z 00000001800025cc f i POSKeyboard.obj
 0001:000015d4       ?SetClientSite@?$IOleObjectImpl@VCOPOSPOSKeyboard@@@ATL@@UEAAJPEAUIOleClientSite@@@Z 00000001800025d4 f i POSKeyboard.obj
 0001:000015f0       ?GetClientSite@?$IOleObjectImpl@VCOPOSPOSKeyboard@@@ATL@@UEAAJPEAPEAUIOleClientSite@@@Z 00000001800025f0 f i POSKeyboard.obj
 0001:00001638       ?Close@?$IOleObjectImpl@VCOPOSPOSKeyboard@@@ATL@@UEAAJK@Z 0000000180002638 f i POSKeyboard.obj
 0001:00001654       ?DoVerb@?$IOleObjectImpl@VCOPOSPOSKeyboard@@@ATL@@UEAAJJPEAUtagMSG@@PEAUIOleClientSite@@JPEAUHWND__@@PEBUtagRECT@@@Z 0000000180002654 f i POSKeyboard.obj
 0001:000017f8       ?EnumVerbs@?$IOleObjectImpl@VCOPOSPOSKeyboard@@@ATL@@UEAAJPEAPEAUIEnumOLEVERB@@@Z 00000001800027f8 f i POSKeyboard.obj
 0001:00001814       ?GetUserType@?$IOleObjectImpl@VCOPOSPOSKeyboard@@@ATL@@UEAAJKPEAPEA_W@Z 0000000180002814 f i POSKeyboard.obj
 0001:00001824       ?SetExtent@?$IOleObjectImpl@VCOPOSPOSKeyboard@@@ATL@@UEAAJKPEAUtagSIZE@@@Z 0000000180002824 f i POSKeyboard.obj
 0001:00001840       ?GetExtent@?$IOleObjectImpl@VCOPOSPOSKeyboard@@@ATL@@UEAAJKPEAUtagSIZE@@@Z 0000000180002840 f i POSKeyboard.obj
 0001:00001870       ?Advise@?$IOleObjectImpl@VCOPOSPOSKeyboard@@@ATL@@UEAAJPEAUIAdviseSink@@PEAK@Z 0000000180002870 f i POSKeyboard.obj
 0001:000018cc       ?Unadvise@?$IOleObjectImpl@VCOPOSPOSKeyboard@@@ATL@@UEAAJK@Z 00000001800028cc f i POSKeyboard.obj
 0001:00001904       ?EnumAdvise@?$IOleObjectImpl@VCOPOSPOSKeyboard@@@ATL@@UEAAJPEAPEAUIEnumSTATDATA@@@Z 0000000180002904 f i POSKeyboard.obj
 0001:0000194c       ?GetMiscStatus@?$IOleObjectImpl@VCOPOSPOSKeyboard@@@ATL@@UEAAJKPEAK@Z 000000018000294c f i POSKeyboard.obj
 0001:0000195c       ?GetWindow@?$IOleInPlaceActiveObjectImpl@VCOPOSPOSKeyboard@@@ATL@@UEAAJPEAPEAUHWND__@@@Z 000000018000295c f i POSKeyboard.obj
 0001:000019b0       ?TranslateAcceleratorW@?$IOleInPlaceActiveObjectImpl@VCOPOSPOSKeyboard@@@ATL@@UEAAJPEAUtagMSG@@@Z 00000001800029b0 f i POSKeyboard.obj
 0001:00001aa4       ?OnDocWindowActivate@?$IOleInPlaceActiveObjectImpl@VCOPOSPOSKeyboard@@@ATL@@UEAAJH@Z 0000000180002aa4 f i POSKeyboard.obj
 0001:00001ad0       ?Draw@?$IViewObjectExImpl@VCOPOSPOSKeyboard@@@ATL@@UEAAJKJPEAXPEAUtagDVTARGETDEVICE@@PEAUHDC__@@2PEBU_RECTL@@3P6AH_K@Z4@Z 0000000180002ad0 f i POSKeyboard.obj
 0001:00001b34       ?SetAdvise@?$IViewObjectExImpl@VCOPOSPOSKeyboard@@@ATL@@UEAAJKKPEAUIAdviseSink@@@Z 0000000180002b34 f i POSKeyboard.obj
 0001:00001b88       ?GetAdvise@?$IViewObjectExImpl@VCOPOSPOSKeyboard@@@ATL@@UEAAJPEAK0PEAPEAUIAdviseSink@@@Z 0000000180002b88 f i POSKeyboard.obj
 0001:00001bc4       ?GetExtent@?$IViewObjectExImpl@VCOPOSPOSKeyboard@@@ATL@@UEAAJKJPEAUtagDVTARGETDEVICE@@PEAUtagSIZE@@@Z 0000000180002bc4 f i POSKeyboard.obj
 0001:00001bf4       ?GetViewStatus@?$IViewObjectExImpl@VCOPOSPOSKeyboard@@@ATL@@UEAAJPEAK@Z 0000000180002bf4 f i POSKeyboard.obj
 0001:00001c08       ?QueryHitPoint@?$IViewObjectExImpl@VCOPOSPOSKeyboard@@@ATL@@UEAAJKPEBUtagRECT@@UtagPOINT@@JPEAK@Z 0000000180002c08 f i POSKeyboard.obj
 0001:00001c4c       ?QueryHitRect@?$IViewObjectExImpl@VCOPOSPOSKeyboard@@@ATL@@UEAAJKPEBUtagRECT@@0JPEAK@Z 0000000180002c4c f i POSKeyboard.obj
 0001:00001cb4       ?GetNaturalExtent@?$IViewObjectExImpl@VCOPOSPOSKeyboard@@@ATL@@UEAAJKJPEAUtagDVTARGETDEVICE@@PEAUHDC__@@PEAUtagExtentInfo@@PEAUtagSIZE@@@Z 0000000180002cb4 f i POSKeyboard.obj
 0001:00001cfc       ?GetWindow@?$IOleInPlaceObjectWindowlessImpl@VCOPOSPOSKeyboard@@@ATL@@UEAAJPEAPEAUHWND__@@@Z 0000000180002cfc f i POSKeyboard.obj
 0001:00001d50       ?InPlaceDeactivate@?$IOleInPlaceObjectWindowlessImpl@VCOPOSPOSKeyboard@@@ATL@@UEAAJXZ 0000000180002d50 f i POSKeyboard.obj
 0001:00001d6c       ?UIDeactivate@?$IOleInPlaceObjectWindowlessImpl@VCOPOSPOSKeyboard@@@ATL@@UEAAJXZ 0000000180002d6c f i POSKeyboard.obj
 0001:00001d88       ?SetObjectRects@?$IOleInPlaceObjectWindowlessImpl@VCOPOSPOSKeyboard@@@ATL@@UEAAJPEBUtagRECT@@0@Z 0000000180002d88 f i POSKeyboard.obj
 0001:00001da4       ?OnWindowMessage@?$IOleInPlaceObjectWindowlessImpl@VCOPOSPOSKeyboard@@@ATL@@UEAAJI_K_JPEA_J@Z 0000000180002da4 f i POSKeyboard.obj
 0001:00001e6c       ?EnumConnectionPoints@?$IConnectionPointContainerImpl@VCOPOSPOSKeyboard@@@ATL@@UEAAJPEAPEAUIEnumConnectionPoints@@@Z 0000000180002e6c f i POSKeyboard.obj
 0001:000020b4       ?FindConnectionPoint@?$IConnectionPointContainerImpl@VCOPOSPOSKeyboard@@@ATL@@UEAAJAEBU_GUID@@PEAPEAUIConnectionPoint@@@Z 00000001800030b4 f i POSKeyboard.obj
 0001:00002184       ?IsDirty@?$IPersistStorageImpl@VCOPOSPOSKeyboard@@@ATL@@UEAAJXZ 0000000180003184 f i POSKeyboard.obj
 0001:000021c4       ?InitNew@?$IPersistStorageImpl@VCOPOSPOSKeyboard@@@ATL@@UEAAJPEAUIStorage@@@Z 00000001800031c4 f i POSKeyboard.obj
 0001:00002204       ?Load@?$IPersistStorageImpl@VCOPOSPOSKeyboard@@@ATL@@UEAAJPEAUIStorage@@@Z 0000000180003204 f i POSKeyboard.obj
 0001:000022a4       ?Save@?$IPersistStorageImpl@VCOPOSPOSKeyboard@@@ATL@@UEAAJPEAUIStorage@@H@Z 00000001800032a4 f i POSKeyboard.obj
 0001:00002354       ?GetPages@?$ISpecifyPropertyPagesImpl@VCOPOSPOSKeyboard@@@ATL@@UEAAJPEAUtagCAUUID@@@Z 0000000180003354 f i POSKeyboard.obj
 0001:00002360       ?QuickActivate@?$IQuickActivateImpl@VCOPOSPOSKeyboard@@@ATL@@UEAAJPEAUtagQACONTAINER@@PEAUtagQACONTROL@@@Z 0000000180003360 f i POSKeyboard.obj
 0001:0000237c       ?SetContentExtent@?$IQuickActivateImpl@VCOPOSPOSKeyboard@@@ATL@@UEAAJPEAUtagSIZE@@@Z 000000018000337c f i POSKeyboard.obj
 0001:000023b0       ?GetContentExtent@?$IQuickActivateImpl@VCOPOSPOSKeyboard@@@ATL@@UEAAJPEAUtagSIZE@@@Z 00000001800033b0 f i POSKeyboard.obj
 0001:000023e8       ?GetData@?$IDataObjectImpl@VCOPOSPOSKeyboard@@@ATL@@UEAAJPEAUtagFORMATETC@@PEAUtagSTGMEDIUM@@@Z 00000001800033e8 f i POSKeyboard.obj
 0001:00002404       ?DAdvise@?$IDataObjectImpl@VCOPOSPOSKeyboard@@@ATL@@UEAAJPEAUtagFORMATETC@@KPEAUIAdviseSink@@PEAK@Z 0000000180003404 f i POSKeyboard.obj
 0001:0000248c       ?DUnadvise@?$IDataObjectImpl@VCOPOSPOSKeyboard@@@ATL@@UEAAJK@Z 000000018000348c f i POSKeyboard.obj
 0001:000024b8       ?EnumDAdvise@?$IDataObjectImpl@VCOPOSPOSKeyboard@@@ATL@@UEAAJPEAPEAUIEnumSTATDATA@@@Z 00000001800034b8 f i POSKeyboard.obj
 0001:000024f4       ?GetClassInfoW@?$IProvideClassInfo2Impl@$1?CLSID_OPOSPOSKeyboard@@3U_GUID@@B$1?DIID__IOPOSPOSKeyboardEvents@@3U2@B$1?LIBID_OposPOSKeyboard_CCO@@3U2@B$00$0A@VCComTypeInfoHolder@ATL@@@ATL@@UEAAJPEAPEAUITypeInfo@@@Z 00000001800034f4 f i POSKeyboard.obj
 0001:0000254c       ?GetGUID@?$IProvideClassInfo2Impl@$1?CLSID_OPOSPOSKeyboard@@3U_GUID@@B$1?DIID__IOPOSPOSKeyboardEvents@@3U2@B$1?LIBID_OposPOSKeyboard_CCO@@3U2@B$00$0A@VCComTypeInfoHolder@ATL@@@ATL@@UEAAJKPEAU_GUID@@@Z 000000018000354c f i POSKeyboard.obj
 0001:00002580       _get_startup_argv_mode     0000000180003580 f i LIBCMT:argv_mode.obj
 0001:00002580       ?FAccessAllowed@?$IObjectSafetyImpl@VCOPOSPOSKeyboard@@$02@ATL@@MEAAHXZ 0000000180003580 f i POSKeyboard.obj
 0001:00002580       ?AddRef@CRegObject@ATL@@UEAAKXZ 0000000180003580 f i POSKeyboard.obj
 0001:00002588       ?GetInterfaceSafetyOptions@?$IObjectSafetyImpl@VCOPOSPOSKeyboard@@$02@ATL@@UEAAJAEBU_GUID@@PEAK1@Z 0000000180003588 f i POSKeyboard.obj
 0001:0000261c       ?SetInterfaceSafetyOptions@?$IObjectSafetyImpl@VCOPOSPOSKeyboard@@$02@ATL@@UEAAJAEBU_GUID@@KK@Z 000000018000361c f i POSKeyboard.obj
 0001:000026c0       ?_LocCPQueryInterface@?$IConnectionPointImpl@VCOPOSPOSKeyboard@@$1?IID_IPropertyNotifySink@@3U_GUID@@BVCComDynamicUnkArray@ATL@@@ATL@@UEAAJAEBU_GUID@@PEAPEAX@Z 00000001800036c0 f i POSKeyboard.obj
 0001:000026c0       ?_LocCPQueryInterface@?$IConnectionPointImpl@VCOPOSPOSKeyboard@@$1?DIID__IOPOSPOSKeyboardEvents@@3U_GUID@@BVCComDynamicUnkArray@ATL@@@ATL@@UEAAJAEBU_GUID@@PEAPEAX@Z 00000001800036c0 f i POSKeyboard.obj
 0001:00002734       ?GetConnectionInterface@?$IConnectionPointImpl@VCOPOSPOSKeyboard@@$1?IID_IPropertyNotifySink@@3U_GUID@@BVCComDynamicUnkArray@ATL@@@ATL@@UEAAJPEAU_GUID@@@Z 0000000180003734 f i POSKeyboard.obj
 0001:00002750       ?GetConnectionPointContainer@?$IConnectionPointImpl@VCOPOSPOSKeyboard@@$1?IID_IPropertyNotifySink@@3U_GUID@@BVCComDynamicUnkArray@ATL@@@ATL@@UEAAJPEAPEAUIConnectionPointContainer@@@Z 0000000180003750 f i POSKeyboard.obj
 0001:00002770       ?Advise@?$IConnectionPointImpl@VCOPOSPOSKeyboard@@$1?IID_IPropertyNotifySink@@3U_GUID@@BVCComDynamicUnkArray@ATL@@@ATL@@UEAAJPEAUIUnknown@@PEAK@Z 0000000180003770 f i POSKeyboard.obj
 0001:00002770       ?Advise@?$IConnectionPointImpl@VCOPOSPOSKeyboard@@$1?DIID__IOPOSPOSKeyboardEvents@@3U_GUID@@BVCComDynamicUnkArray@ATL@@@ATL@@UEAAJPEAUIUnknown@@PEAK@Z 0000000180003770 f i POSKeyboard.obj
 0001:0000282c       ?Unadvise@?$IConnectionPointImpl@VCOPOSPOSKeyboard@@$1?IID_IPropertyNotifySink@@3U_GUID@@BVCComDynamicUnkArray@ATL@@@ATL@@UEAAJK@Z 000000018000382c f i POSKeyboard.obj
 0001:0000282c       ?Unadvise@?$IConnectionPointImpl@VCOPOSPOSKeyboard@@$1?DIID__IOPOSPOSKeyboardEvents@@3U_GUID@@BVCComDynamicUnkArray@ATL@@@ATL@@UEAAJK@Z 000000018000382c f i POSKeyboard.obj
 0001:00002894       ?EnumConnections@?$IConnectionPointImpl@VCOPOSPOSKeyboard@@$1?DIID__IOPOSPOSKeyboardEvents@@3U_GUID@@BVCComDynamicUnkArray@ATL@@@ATL@@UEAAJPEAPEAUIEnumConnections@@@Z 0000000180003894 f i POSKeyboard.obj
 0001:00002894       ?EnumConnections@?$IConnectionPointImpl@VCOPOSPOSKeyboard@@$1?IID_IPropertyNotifySink@@3U_GUID@@BVCComDynamicUnkArray@ATL@@@ATL@@UEAAJPEAPEAUIEnumConnections@@@Z 0000000180003894 f i POSKeyboard.obj
 0001:00002a28       ?GetConnectionInterface@?$IConnectionPointImpl@VCOPOSPOSKeyboard@@$1?DIID__IOPOSPOSKeyboardEvents@@3U_GUID@@BVCComDynamicUnkArray@ATL@@@ATL@@UEAAJPEAU_GUID@@@Z 0000000180003a28 f i POSKeyboard.obj
 0001:00002a44       ?GetConnectionPointContainer@?$IConnectionPointImpl@VCOPOSPOSKeyboard@@$1?DIID__IOPOSPOSKeyboardEvents@@3U_GUID@@BVCComDynamicUnkArray@ATL@@@ATL@@UEAAJPEAPEAUIConnectionPointContainer@@@Z 0000000180003a44 f i POSKeyboard.obj
 0001:00002a64       ?Lock@CAtlModule@ATL@@UEAAJXZ 0000000180003a64 f i POSKeyboard.obj
 0001:00002a74       ?Unlock@CAtlModule@ATL@@UEAAJXZ 0000000180003a74 f i POSKeyboard.obj
 0001:00002a80       ?GetLockCount@CAtlModule@ATL@@UEAAJXZ 0000000180003a80 f i POSKeyboard.obj
 0001:00002a84       ?GetGITPtr@CAtlModule@ATL@@UEAAJPEAPEAUIGlobalInterfaceTable@@@Z 0000000180003a84 f i POSKeyboard.obj
 0001:00002af4       ?UpdateRegistry@COPOSPOSKeyboard@@SAJH@Z 0000000180003af4 f i POSKeyboard.obj
 0001:00002b0c       ?ProcessWindowMessage@COPOSPOSKeyboard@@UEAAHPEAUHWND__@@I_K_JAEA_JK@Z 0000000180003b0c f i POSKeyboard.obj
 0001:00002b9c       ?SOData@COPOSPOSKeyboard@@MEAAJJ@Z 0000000180003b9c f i POSKeyboard.obj
 0001:00002bec       ?SODirectIO@COPOSPOSKeyboard@@MEAAJJPEAJPEAPEA_W@Z 0000000180003bec f i POSKeyboard.obj
 0001:00002c64       ?SOError@COPOSPOSKeyboard@@MEAAJJJJPEAJ@Z 0000000180003c64 f i POSKeyboard.obj
 0001:00002cec       ?SOStatusUpdate@COPOSPOSKeyboard@@MEAAJJ@Z 0000000180003cec f i POSKeyboard.obj
 0001:00002d3c       ?AddCommonRGSReplacements@?$CAtlModuleT@VCComModule@ATL@@@ATL@@UEAAJPEAUIRegistrarBase@@@Z 0000000180003d3c f i POSKeyboard.obj
 0001:00002d54       ?UpdateRegistryFromResourceD@CComModule@ATL@@UEAAJPEB_WHPEAU_ATL_REGMAP_ENTRY@2@@Z 0000000180003d54 f i POSKeyboard.obj
 0001:00002d54       ?UpdateRegistryFromResourceD@CComModule@ATL@@UEAAJIHPEAU_ATL_REGMAP_ENTRY@2@@Z 0000000180003d54 f i POSKeyboard.obj
 0001:00002d5c       ?UpdateRegistryFromResource@CComModule@ATL@@UEAAJPEB_WHPEAU_ATL_REGMAP_ENTRY@2@@Z 0000000180003d5c f i POSKeyboard.obj
 0001:00002d64       ?UpdateRegistryFromResource@CComModule@ATL@@UEAAJIHPEAU_ATL_REGMAP_ENTRY@2@@Z 0000000180003d64 f i POSKeyboard.obj
 0001:00002d6c       ??_ECComModule@ATL@@UEAAPEAXI@Z 0000000180003d6c f i POSKeyboard.obj
 0001:00002d6c       ??_GCComModule@ATL@@UEAAPEAXI@Z 0000000180003d6c f i POSKeyboard.obj
 0001:00002dac       ?CreateInstance@?$CComCreator@V?$CComObjectCached@VCComClassFactory@ATL@@@ATL@@@ATL@@SAJPEAXAEBU_GUID@@PEAPEAX@Z 0000000180003dac f i POSKeyboard.obj
 0001:00002ed0       ?CreateInstance@?$CComCreator2@V?$CComCreator@V?$CComObject@VCOPOSPOSKeyboard@@@ATL@@@ATL@@V?$CComCreator@V?$CComAggObject@VCOPOSPOSKeyboard@@@ATL@@@2@@ATL@@SAJPEAXAEBU_GUID@@PEAPEAX@Z 0000000180003ed0 f i POSKeyboard.obj
 0001:00002ee0       ?AddRef@?$CComObjectCached@VCComClassFactory@ATL@@@ATL@@UEAAKXZ 0000000180003ee0 f i POSKeyboard.obj
 0001:00002f0c       ?Release@?$CComObjectCached@VCComClassFactory@ATL@@@ATL@@UEAAKXZ 0000000180003f0c f i POSKeyboard.obj
 0001:00002f4c       ?QueryInterface@?$CComObjectCached@VCComClassFactory@ATL@@@ATL@@UEAAJAEBU_GUID@@PEAPEAX@Z 0000000180003f4c f i POSKeyboard.obj
 0001:00002f60       ??_G?$CComObjectCached@VCComClassFactory@ATL@@@ATL@@UEAAPEAXI@Z 0000000180003f60 f i POSKeyboard.obj
 0001:00002f60       ??_E?$CComObjectCached@VCComClassFactory@ATL@@@ATL@@UEAAPEAXI@Z 0000000180003f60 f i POSKeyboard.obj
 0001:00002fb8       ?Next@?$CComEnumImpl@UIEnumConnectionPoints@@$1?_GUID_b196b285_bab4_101a_b69c_00aa00341d07@@3U__s_GUID@@BPEAUIConnectionPoint@@V?$_CopyInterface@UIConnectionPoint@@@ATL@@@ATL@@UEAAJKPEAPEAUIConnectionPoint@@PEAK@Z 0000000180003fb8 f i POSKeyboard.obj
 0001:0000307c       ?Skip@?$CComEnumImpl@UIEnumConnectionPoints@@$1?_GUID_b196b285_bab4_101a_b69c_00aa00341d07@@3U__s_GUID@@BPEAUIConnectionPoint@@V?$_CopyInterface@UIConnectionPoint@@@ATL@@@ATL@@UEAAJK@Z 000000018000407c f i POSKeyboard.obj
 0001:000030a8       ?Clone@?$CComEnumImpl@UIEnumConnectionPoints@@$1?_GUID_b196b285_bab4_101a_b69c_00aa00341d07@@3U__s_GUID@@BPEAUIConnectionPoint@@V?$_CopyInterface@UIConnectionPoint@@@ATL@@@ATL@@UEAAJPEAPEAUIEnumConnectionPoints@@@Z 00000001800040a8 f i POSKeyboard.obj
 0001:000031d4       ?QueryInterface@?$CComObject@V?$CComEnum@UIEnumConnectionPoints@@$1?_GUID_b196b285_bab4_101a_b69c_00aa00341d07@@3U__s_GUID@@BPEAUIConnectionPoint@@V?$_CopyInterface@UIConnectionPoint@@@ATL@@VCComSingleThreadModel@6@@ATL@@@ATL@@UEAAJAEBU_GUID@@PEAPEAX@Z 00000001800041d4 f i POSKeyboard.obj
 0001:000031e8       ??_G?$CComObject@V?$CComEnum@UIEnumConnectionPoints@@$1?_GUID_b196b285_bab4_101a_b69c_00aa00341d07@@3U__s_GUID@@BPEAUIConnectionPoint@@V?$_CopyInterface@UIConnectionPoint@@@ATL@@VCComSingleThreadModel@6@@ATL@@@ATL@@UEAAPEAXI@Z 00000001800041e8 f i POSKeyboard.obj
 0001:000031e8       ??_E?$CComObject@V?$CComEnum@UIEnumConnectionPoints@@$1?_GUID_b196b285_bab4_101a_b69c_00aa00341d07@@3U__s_GUID@@BPEAUIConnectionPoint@@V?$_CopyInterface@UIConnectionPoint@@@ATL@@VCComSingleThreadModel@6@@ATL@@@ATL@@UEAAPEAXI@Z 00000001800041e8 f i POSKeyboard.obj
 0001:00003240       ?AddReplacement@CRegObject@ATL@@UEAAJPEB_W0@Z 0000000180004240 f i POSKeyboard.obj
 0001:00003270       ?ClearReplacements@CRegObject@ATL@@UEAAJXZ 0000000180004270 f i POSKeyboard.obj
 0001:0000327c       ??_GCRegObject@ATL@@UEAAPEAXI@Z 000000018000427c f i POSKeyboard.obj
 0001:0000327c       ??_ECRegObject@ATL@@UEAAPEAXI@Z 000000018000427c f i POSKeyboard.obj
 0001:000032fc       ?AddRef@?$CComAggObject@VCOPOSPOSKeyboard@@@ATL@@UEAAKXZ 00000001800042fc f i POSKeyboard.obj
 0001:00003308       ?Release@?$CComAggObject@VCOPOSPOSKeyboard@@@ATL@@UEAAKXZ 0000000180004308 f i POSKeyboard.obj
 0001:0000335c       ?QueryInterface@?$CComAggObject@VCOPOSPOSKeyboard@@@ATL@@UEAAJAEBU_GUID@@PEAPEAX@Z 000000018000435c f i POSKeyboard.obj
 0001:000033bc       ?AddRef@?$CComContainedObject@VCOPOSPOSKeyboard@@@ATL@@UEAAKXZ 00000001800043bc f i POSKeyboard.obj
 0001:000033cc       ?Release@?$CComContainedObject@VCOPOSPOSKeyboard@@@ATL@@UEAAKXZ 00000001800043cc f i POSKeyboard.obj
 0001:000033dc       ?QueryInterface@?$CComContainedObject@VCOPOSPOSKeyboard@@@ATL@@UEAAJAEBU_GUID@@PEAPEAX@Z 00000001800043dc f i POSKeyboard.obj
 0001:000033ec       ??_E?$CComAggObject@VCOPOSPOSKeyboard@@@ATL@@UEAAPEAXI@Z 00000001800043ec f i POSKeyboard.obj
 0001:000033ec       ??_G?$CComAggObject@VCOPOSPOSKeyboard@@@ATL@@UEAAPEAXI@Z 00000001800043ec f i POSKeyboard.obj
 0001:00003444       ?AddRef@?$CComObject@VCOPOSPOSKeyboard@@@ATL@@UEAAKXZ 0000000180004444 f i POSKeyboard.obj
 0001:00003454       ?Release@?$CComObject@VCOPOSPOSKeyboard@@@ATL@@UEAAKXZ 0000000180004454 f i POSKeyboard.obj
 0001:000034ac       ?QueryInterface@?$CComObject@VCOPOSPOSKeyboard@@@ATL@@UEAAJAEBU_GUID@@PEAPEAX@Z 00000001800044ac f i POSKeyboard.obj
 0001:000034c0       ?OnDrawAdvanced@CComControlBase@ATL@@UEAAJAEAUATL_DRAWINFO@@@Z 00000001800044c0 f i POSKeyboard.obj
 0001:0000364c       ??$AtlModuleRegisterWndClassInfoT@VAtlModuleRegisterWndClassInfoParamW@ATL@@@ATL@@YAGPEAU_ATL_BASE_MODULE70@0@PEAU_ATL_WIN_MODULE70@0@PEAU_ATL_WNDCLASSINFOW@0@PEAP6A_JPEAUHWND__@@I_K_J@ZVAtlModuleRegisterWndClassInfoParamW@0@@Z 000000018000464c f i POSKeyboard.obj
 0001:0000384c       ??0?$CComContainedObject@VCOPOSPOSKeyboard@@@ATL@@QEAA@PEAX@Z 000000018000484c f i POSKeyboard.obj
 0001:00003968       ??0?$CComObject@VCOPOSPOSKeyboard@@@ATL@@QEAA@PEAX@Z 0000000180004968 f i POSKeyboard.obj
 0001:00003a80       ??0CAtlModule@ATL@@QEAA@XZ 0000000180004a80 f i POSKeyboard.obj
 0001:00003af4       ??1?$CComEnumImpl@UIEnumConnectionPoints@@$1?_GUID_b196b285_bab4_101a_b69c_00aa00341d07@@3U__s_GUID@@BPEAUIConnectionPoint@@V?$_CopyInterface@UIConnectionPoint@@@ATL@@@ATL@@UEAA@XZ 0000000180004af4 f i POSKeyboard.obj
 0001:00003b4c       ??1?$CComEnumImpl@UIEnumConnections@@$1?_GUID_b196b287_bab4_101a_b69c_00aa00341d07@@3U__s_GUID@@BUtagCONNECTDATA@@V?$_Copy@UtagCONNECTDATA@@@ATL@@@ATL@@UEAA@XZ 0000000180004b4c f i POSKeyboard.obj
 0001:00003ba4       ??1?$CComObject@VCOPOSPOSKeyboard@@@ATL@@UEAA@XZ 0000000180004ba4 f i POSKeyboard.obj
 0001:00003cc4       ??_G?$CComContainedObject@VCOPOSPOSKeyboard@@@ATL@@UEAAPEAXI@Z 0000000180004cc4 f i POSKeyboard.obj
 0001:00003cc4       ??_E?$CComContainedObject@VCOPOSPOSKeyboard@@@ATL@@UEAAPEAXI@Z 0000000180004cc4 f i POSKeyboard.obj
 0001:00003cf8       ??_E?$CComObject@VCOPOSPOSKeyboard@@@ATL@@UEAAPEAXI@Z 0000000180004cf8 f i POSKeyboard.obj
 0001:00003cf8       ??_G?$CComObject@VCOPOSPOSKeyboard@@@ATL@@UEAAPEAXI@Z 0000000180004cf8 f i POSKeyboard.obj
 0001:00003d2c       ?Add@?$CSimpleArray@GV?$CSimpleArrayEqualHelper@G@ATL@@@ATL@@QEAAHAEBG@Z 0000000180004d2c f i POSKeyboard.obj
 0001:00003dcc       ?Add@?$CSimpleMap@PEA_WPEA_WVCExpansionVectorEqualHelper@ATL@@@ATL@@QEAAHAEBQEA_W0@Z 0000000180004dcc f i POSKeyboard.obj
 0001:00003e68       ?Add@CComDynamicUnkArray@ATL@@QEAAKPEAUIUnknown@@@Z 0000000180004e68 f i POSKeyboard.obj
 0001:00003f4c       ?Add@CExpansionVector@ATL@@QEAAHPEB_W0@Z 0000000180004f4c f i POSKeyboard.obj
 0001:00004080       ?AddTermFunc@CAtlModule@ATL@@QEAAJP6AX_K@Z0@Z 0000000180005080 f i POSKeyboard.obj
 0001:0000411c       ?AddValue@CRegParser@ATL@@IEAAJAEAVCRegKey@2@PEB_WPEA_W@Z 000000018000511c f i POSKeyboard.obj
 0001:0000452c       ?AllocateHeap@?$CTempBuffer@E$0BAA@VCCRTAllocator@ATL@@@ATL@@AEAAX_K@Z 000000018000552c f i POSKeyboard.obj
 0001:0000452c       ?AllocateHeap@?$CTempBuffer@_W$0BAA@VCCRTAllocator@ATL@@@ATL@@AEAAX_K@Z 000000018000552c f i POSKeyboard.obj
 0001:0000452c       ?AllocateHeap@?$CTempBuffer@_W$0EAA@VCCRTAllocator@ATL@@@ATL@@AEAAX_K@Z 000000018000552c f i POSKeyboard.obj
 0001:00004558       ?Append@CParseBuffer@CRegParser@ATL@@QEAAHPEB_WH@Z 0000000180005558 f i POSKeyboard.obj
 0001:0000468c       ?AtlComModuleGetClassObject@ATL@@YAJPEAU_ATL_COM_MODULE70@1@AEBU_GUID@@1PEAPEAX@Z 000000018000568c f i POSKeyboard.obj
 0001:000047c8       ?AtlComModuleRegisterServer@ATL@@YAJPEAU_ATL_COM_MODULE70@1@HPEBU_GUID@@@Z 00000001800057c8 f i POSKeyboard.obj
 0001:00004888       ?AtlComModuleUnregisterServer@ATL@@YAJPEAU_ATL_COM_MODULE70@1@HPEBU_GUID@@@Z 0000000180005888 f i POSKeyboard.obj
 0001:00004944       ?AtlHiMetricToPixel@ATL@@YAXPEBUtagSIZE@@PEAU2@@Z 0000000180005944 f i POSKeyboard.obj
 0001:000049f4       ?AtlHresultFromLastError@ATL@@YAJXZ 00000001800059f4 f i POSKeyboard.obj
 0001:00004a14       ?AtlHresultFromWin32@ATL@@YAJK@Z 0000000180005a14 f i POSKeyboard.obj
 0001:00004a24       ?AtlInternalOleLoadFromStream@ATL@@YAJPEAUIStream@@AEBU_GUID@@PEAPEAXTClassesAllowedInStream@1@K@Z 0000000180005a24 f i POSKeyboard.obj
 0001:00004b74       ?AtlInternalQueryInterface@ATL@@YAJPEAXPEBU_ATL_INTMAP_ENTRY@1@AEBU_GUID@@PEAPEAX@Z 0000000180005b74 f i POSKeyboard.obj
 0001:00004c7c       ?AtlLoadTypeLib@ATL@@YAJPEAUHINSTANCE__@@PEB_WPEAPEA_WPEAPEAUITypeLib@@@Z 0000000180005c7c f i POSKeyboard.obj
 0001:00004ed8       ?AtlRegisterClassCategoriesHelper@ATL@@YAJAEBU_GUID@@PEBU_ATL_CATMAP_ENTRY@1@H@Z 0000000180005ed8 f i POSKeyboard.obj
 0001:0000535c       ?AtlRegisterTypeLib@ATL@@YAJPEAUHINSTANCE__@@PEB_W@Z 000000018000635c f i POSKeyboard.obj
 0001:00005558       ?AtlThrowImpl@ATL@@YAXJ@Z  0000000180006558 f i POSKeyboard.obj
 0001:0000557c       ?AtlUnRegisterTypeLib@ATL@@YAJPEAUHINSTANCE__@@PEB_W@Z 000000018000657c f i POSKeyboard.obj
 0001:00005644       ?AtlWinModuleExtractCreateWndData@ATL@@YAPEAXPEAU_ATL_WIN_MODULE70@1@@Z 0000000180006644 f i POSKeyboard.obj
 0001:000056d0       ?ChToByte@CRegParser@ATL@@KAE_W@Z 00000001800066d0 f i POSKeyboard.obj
 0001:0000575c       ?Cleanup@CComTypeInfoHolder@ATL@@SAX_K@Z 000000018000675c f i POSKeyboard.obj
 0001:0000579c       ?ClearReplacements@CExpansionVector@ATL@@QEAAJXZ 000000018000679c f i POSKeyboard.obj
 0001:00005838       ?CreateInstance@?$CComCreator@V?$CComAggObject@VCOPOSPOSKeyboard@@@ATL@@@ATL@@SAJPEAXAEBU_GUID@@PEAPEAX@Z 0000000180006838 f i POSKeyboard.obj
 0001:0000591c       ?CreateInstance@?$CComCreator@V?$CComObject@VCOPOSPOSKeyboard@@@ATL@@@ATL@@SAJPEAXAEBU_GUID@@PEAPEAX@Z 000000018000691c f i POSKeyboard.obj
 0001:000059dc       ?CreateInstance@?$CComObject@V?$CComEnum@UIEnumConnectionPoints@@$1?_GUID_b196b285_bab4_101a_b69c_00aa00341d07@@3U__s_GUID@@BPEAUIConnectionPoint@@V?$_CopyInterface@UIConnectionPoint@@@ATL@@VCComSingleThreadModel@6@@ATL@@@ATL@@SAJPEAPEAV12@@Z 00000001800069dc f i POSKeyboard.obj
 0001:00005a6c       ?CreateInstance@?$CComObject@V?$CComEnum@UIEnumConnections@@$1?_GUID_b196b287_bab4_101a_b69c_00aa00341d07@@3U__s_GUID@@BUtagCONNECTDATA@@V?$_Copy@UtagCONNECTDATA@@@ATL@@VCComSingleThreadModel@6@@ATL@@@ATL@@SAJPEAPEAV12@@Z 0000000180006a6c f i POSKeyboard.obj
 0001:00005afc       ?DefaultReflectionHandler@?$CWindowImplRoot@VCWindow@ATL@@@ATL@@SAHPEAUHWND__@@I_K_JAEA_J@Z 0000000180006afc f i POSKeyboard.obj
 0001:00005b90       ?DeleteSubKey@CRegKey@ATL@@QEAAJPEB_W@Z 0000000180006b90 f i POSKeyboard.obj
 0001:00005c28       ?DoEvent@COPOSPOSKeyboard@@IEAAXI_K_J@Z 0000000180006c28 f i POSKeyboard.obj
 0001:00005cdc       ?DoVerbPrimary@?$IOleObjectImpl@VCOPOSPOSKeyboard@@@ATL@@QEAAJPEBUtagRECT@@PEAUHWND__@@@Z 0000000180006cdc f i POSKeyboard.obj
 0001:00005e08       ?DoVerbProperties@CComControlBase@ATL@@QEAAJPEBUtagRECT@@PEAUHWND__@@@Z 0000000180006e08 f i POSKeyboard.obj
 0001:00006030       ?FireTheEvent@?$CProxy_IOPOSEvents@VCOPOSPOSKeyboard@@@@IEAAXPEAVOposVariant@@IAEAJPEB_WJ@Z 0000000180007030 f i POSKeyboard.obj
 0001:0000611c       ?FireViewChange@CComControlBase@ATL@@QEAAJXZ 000000018000711c f i POSKeyboard.obj
 0001:00006180       ?Fire_DataEvent@?$CProxy_IOPOSEvents@VCOPOSPOSKeyboard@@@@QEAAXJ@Z 0000000180007180 f i POSKeyboard.obj
 0001:0000626c       ?Fire_DirectIOEvent@?$CProxy_IOPOSEvents@VCOPOSPOSKeyboard@@@@QEAAXJPEAJPEAPEA_W@Z 000000018000726c f i POSKeyboard.obj
 0001:000063cc       ?Fire_ErrorEvent@?$CProxy_IOPOSEvents@VCOPOSPOSKeyboard@@@@QEAAXJJJPEAJ@Z 00000001800073cc f i POSKeyboard.obj
 0001:00006540       ?Fire_StatusUpdateEvent@?$CProxy_IOPOSEvents@VCOPOSPOSKeyboard@@@@QEAAXJ@Z 0000000180007540 f i POSKeyboard.obj
 0001:0000662c       ?FreeHeap@?$CTempBuffer@_W$0BAA@VCCRTAllocator@ATL@@@ATL@@AEAAXXZ 000000018000762c f i POSKeyboard.obj
 0001:0000662c       ?FreeHeap@?$CTempBuffer@_W$0EAA@VCCRTAllocator@ATL@@@ATL@@AEAAXXZ 000000018000762c f i POSKeyboard.obj
 0001:0000662c       ?FreeHeap@?$CTempBuffer@E$0BAA@VCCRTAllocator@ATL@@@ATL@@AEAAXXZ 000000018000762c f i POSKeyboard.obj
 0001:00006634       ?GetAmbientLocaleID@CComControlBase@ATL@@QEAAJAEAK@Z 0000000180007634 f i POSKeyboard.obj
 0001:000066f4       ?GetAmbientUserMode@CComControlBase@ATL@@QEAAJAEAH@Z 00000001800076f4 f i POSKeyboard.obj
 0001:000067c4       ?GetClassObject@CComModule@ATL@@QEAAJAEBU_GUID@@0PEAPEAX@Z 00000001800077c4 f i POSKeyboard.obj
 0001:000068b8       ?GetConnMap@COPOSPOSKeyboard@@SAPEBU_ATL_CONNMAP_ENTRY@ATL@@PEAH@Z 00000001800078b8 f i POSKeyboard.obj
 0001:00006940       ?GetIDsOfNames@CComTypeInfoHolder@ATL@@QEAAJAEBU_GUID@@PEAPEA_WIKPEAJ@Z 0000000180007940 f i POSKeyboard.obj
 0001:00006ab0       ?GetPagesHelper@?$ISpecifyPropertyPagesImpl@VCOPOSPOSKeyboard@@@ATL@@IEAAJPEAUtagCAUUID@@PEBUATL_PROPMAP_ENTRY@2@@Z 0000000180007ab0 f i POSKeyboard.obj
 0001:00006c50       ?GetSizeMax@CComVariant@ATL@@QEBAJPEAT_ULARGE_INTEGER@@@Z 0000000180007c50 f i POSKeyboard.obj
 0001:00006e80       ?GetTI@CComTypeInfoHolder@ATL@@QEAAJK@Z 0000000180007e80 f i POSKeyboard.obj
 0001:00007164       ?GetZoomInfo@CComControlBase@ATL@@QEAAXAEAUATL_DRAWINFO@@@Z 0000000180008164 f i POSKeyboard.obj
 0001:00007208       ?HKeyFromString@CRegParser@ATL@@KAPEAUHKEY__@@PEA_W@Z 0000000180008208 f i POSKeyboard.obj
 0001:0000726c       ?IDataObject_GetData@CComControlBase@ATL@@QEAAJPEAUtagFORMATETC@@PEAUtagSTGMEDIUM@@@Z 000000018000826c f i POSKeyboard.obj
 0001:00007460       ?IOleInPlaceObject_InPlaceDeactivate@CComControlBase@ATL@@QEAAJXZ 0000000180008460 f i POSKeyboard.obj
 0001:00007500       ?IOleInPlaceObject_SetObjectRects@CComControlBase@ATL@@QEAAJPEBUtagRECT@@0@Z 0000000180008500 f i POSKeyboard.obj
 0001:000075f0       ?IOleInPlaceObject_UIDeactivate@CComControlBase@ATL@@QEAAJXZ 00000001800085f0 f i POSKeyboard.obj
 0001:000076fc       ?IOleObject_Close@CComControlBase@ATL@@QEAAJK@Z 00000001800086fc f i POSKeyboard.obj
 0001:00007814       ?IOleObject_SetClientSite@CComControlBase@ATL@@QEAAJPEAUIOleClientSite@@@Z 0000000180008814 f i POSKeyboard.obj
 0001:00007888       ?IOleObject_SetExtent@CComControlBase@ATL@@QEAAJKPEAUtagSIZE@@@Z 0000000180008888 f i POSKeyboard.obj
 0001:00007920       ?IPSI_GetIPersistStreamInit@?$IPersistStorageImpl@VCOPOSPOSKeyboard@@@ATL@@AEAAPEAUIPersistStreamInit@@XZ 0000000180008920 f i POSKeyboard.obj
 0001:00007a08       ?IPersistStreamInit_Load@?$IPersistStreamInitImpl@VCOPOSPOSKeyboard@@@ATL@@QEAAJPEAUIStream@@PEBUATL_PROPMAP_ENTRY@2@@Z 0000000180008a08 f i POSKeyboard.obj
 0001:00007d30       ?IPersistStreamInit_Save@?$IPersistStreamInitImpl@VCOPOSPOSKeyboard@@@ATL@@QEAAJPEAUIStream@@HPEBUATL_PROPMAP_ENTRY@2@@Z 0000000180008d30 f i POSKeyboard.obj
 0001:00007fcc       ?IQuickActivate_QuickActivate@CComControlBase@ATL@@QEAAJPEAUtagQACONTAINER@@PEAUtagQACONTROL@@@Z 0000000180008fcc f i POSKeyboard.obj
 0001:00008290       ?IViewObject_Draw@CComControlBase@ATL@@QEAAJKJPEAXPEAUtagDVTARGETDEVICE@@PEAUHDC__@@2PEBU_RECTL@@3@Z 0000000180009290 f i POSKeyboard.obj
 0001:000083a4       ?InPlaceActivate@CComControlBase@ATL@@QEAAJJPEBUtagRECT@@@Z 00000001800093a4 f i POSKeyboard.obj
 0001:000086d4       ?Init@?$CComEnumImpl@UIEnumConnectionPoints@@$1?_GUID_b196b285_bab4_101a_b69c_00aa00341d07@@3U__s_GUID@@BPEAUIConnectionPoint@@V?$_CopyInterface@UIConnectionPoint@@@ATL@@@ATL@@QEAAJPEAPEAUIConnectionPoint@@0PEAUIUnknown@@W4CComEnumFlags@2@@Z 00000001800096d4 f i POSKeyboard.obj
 0001:000087f0       ?Init@?$CComEnumImpl@UIEnumConnections@@$1?_GUID_b196b287_bab4_101a_b69c_00aa00341d07@@3U__s_GUID@@BUtagCONNECTDATA@@V?$_Copy@UtagCONNECTDATA@@@ATL@@@ATL@@QEAAJPEAUtagCONNECTDATA@@0PEAUIUnknown@@W4CComEnumFlags@2@@Z 00000001800097f0 f i POSKeyboard.obj
 0001:00008910       ?IsEqualObject@?$CComPtrBase@UIOleClientSite@@@ATL@@QEAA_NPEAUIUnknown@@@Z 0000000180009910 f i POSKeyboard.obj
 0001:0000899c       ?LoadNameCache@CComTypeInfoHolder@ATL@@QEAAJPEAUITypeInfo@@@Z 000000018000999c f i POSKeyboard.obj
 0001:00008b2c       ?Lookup@?$CSimpleMap@PEA_WPEA_WVCExpansionVectorEqualHelper@ATL@@@ATL@@QEBAPEA_WAEBQEA_W@Z 0000000180009b2c f i POSKeyboard.obj
 0001:00008bb4       ?NextToken@CRegParser@ATL@@IEAAJPEA_W@Z 0000000180009bb4 f i POSKeyboard.obj
 0001:00008d50       ?OnKillFocus@CComControlBase@ATL@@QEAA_JI_K_JAEAH@Z 0000000180009d50 f i POSKeyboard.obj
 0001:00008dec       ?OnMouseActivate@CComControlBase@ATL@@QEAA_JI_K_JAEAH@Z 0000000180009dec f i POSKeyboard.obj
 0001:00008e8c       ?OnPaint@CComControlBase@ATL@@QEAA_JI_K_JAEAH@Z 0000000180009e8c f i POSKeyboard.obj
 0001:00008f78       ?OnSetFocus@CComControlBase@ATL@@QEAA_JI_K_JAEAH@Z 0000000180009f78 f i POSKeyboard.obj
 0001:00009080       ?PreProcessBuffer@CRegParser@ATL@@QEAAJPEA_WPEAPEA_W@Z 000000018000a080 f i POSKeyboard.obj
 0001:00009408       ?ProcessWindowMessage@?$CComControl@VCOPOSPOSKeyboard@@V?$CWindowImpl@VCOPOSPOSKeyboard@@VCWindow@ATL@@V?$CWinTraits@$0FGAAAAAA@$0A@@3@@ATL@@@ATL@@UEAAHPEAUHWND__@@I_K_JAEA_JK@Z 000000018000a408 f i POSKeyboard.obj
 0001:000094f4       ?ReadFromStream@CComBSTR@ATL@@QEAAJPEAUIStream@@@Z 000000018000a4f4 f i POSKeyboard.obj
 0001:00009644       ?ReadFromStream@CComVariant@ATL@@QEAAJPEAUIStream@@GTClassesAllowedInStream@2@K@Z 000000018000a644 f i POSKeyboard.obj
 0001:00009888       ?RecurseDeleteKey@CRegKey@ATL@@QEAAJPEB_W@Z 000000018000a888 f i POSKeyboard.obj
 0001:000099e0       ?RegCreateKeyExW@CAtlTransactionManager@ATL@@QEAAJPEAUHKEY__@@PEB_WKPEA_WKKQEAU_SECURITY_ATTRIBUTES@@PEAPEAU3@PEAK@Z 000000018000a9e0 f i POSKeyboard.obj
 0001:00009b14       ?RegDeleteKeyW@CAtlTransactionManager@ATL@@QEAAJPEAUHKEY__@@PEB_W@Z 000000018000ab14 f i POSKeyboard.obj
 0001:00009ba0       ?RegOpenKeyExW@CAtlTransactionManager@ATL@@QEAAJPEAUHKEY__@@PEB_WKKPEAPEAU3@@Z 000000018000aba0 f i POSKeyboard.obj
 0001:00009c58       ?RegisterBuffer@CRegParser@ATL@@QEAAJPEA_WH@Z 000000018000ac58 f i POSKeyboard.obj
 0001:00009dc4       ?RegisterFromResource@CRegObject@ATL@@IEAAJPEB_W00H@Z 000000018000adc4 f i POSKeyboard.obj
 0001:00009f80       ?RegisterServer@CComModule@ATL@@QEAAJHPEBU_GUID@@@Z 000000018000af80 f i POSKeyboard.obj
 0001:0000a03c       ?RegisterSubkeys@CRegParser@ATL@@IEAAJPEA_WPEAUHKEY__@@HH@Z 000000018000b03c f i POSKeyboard.obj
 0001:0000a8bc       ?SendOnDataChange@CComControlBase@ATL@@QEAAJK@Z 000000018000b8bc f i POSKeyboard.obj
 0001:0000a92c       ?SetControlFocus@CComControlBase@ATL@@QEAAHH@Z 000000018000b92c f i POSKeyboard.obj
 0001:0000a9fc       ?SkipAssignment@CRegParser@ATL@@IEAAJPEA_W@Z 000000018000b9fc f i POSKeyboard.obj
 0001:0000aab4       ?Term@CAtlModule@ATL@@QEAAXXZ 000000018000bab4 f i POSKeyboard.obj
 0001:0000ab6c       ?Term@CComModule@ATL@@QEAAXXZ 000000018000bb6c f i POSKeyboard.obj
 0001:0000abe8       ?UnregisterServer@CComModule@ATL@@QEAAJHPEBU_GUID@@@Z 000000018000bbe8 f i POSKeyboard.obj
 0001:0000ac98       ?UpdateRegistryFromResource@CAtlModule@ATL@@QEAAJIHPEAU_ATL_REGMAP_ENTRY@2@@Z 000000018000bc98 f i POSKeyboard.obj
 0001:0000afa4       ?UpdateRegistryFromResource@CAtlModule@ATL@@QEAAJPEB_WHPEAU_ATL_REGMAP_ENTRY@2@@Z 000000018000bfa4 f i POSKeyboard.obj
 0001:0000b2c8       ?VTFromRegType@CRegParser@ATL@@KAHPEB_WAEAG@Z 000000018000c2c8 f i POSKeyboard.obj
 0001:0000b364       ?WindowProc@?$CWindowImplBaseT@VCWindow@ATL@@V?$CWinTraits@$0FGAAAAAA@$0A@@2@@ATL@@SA_JPEAUHWND__@@I_K_J@Z 000000018000c364 f i POSKeyboard.obj
 0001:0000b4d0       ?WriteToStream@CComVariant@ATL@@QEAAJPEAUIStream@@@Z 000000018000c4d0 f i POSKeyboard.obj
 0001:0000b73c       ?WriteToStream@CComVariant@ATL@@QEAAJPEAUIStream@@G@Z 000000018000c73c f i POSKeyboard.obj
 0001:0000b7d4       ?_AtlVerifyStackAvailable@_ATL_SAFE_ALLOCA_IMPL@ATL@@YA_N_K@Z 000000018000c7d4 f i POSKeyboard.obj
 0001:0000b858       ?atlCreate@?$CWindowImpl@VCOPOSPOSKeyboard@@VCWindow@ATL@@V?$CWinTraits@$0FGAAAAAA@$0A@@3@@ATL@@QEAAPEAUHWND__@@PEAU3@V_U_RECT@2@PEB_WKKV_U_MENUorID@2@PEAX@Z 000000018000c858 f i POSKeyboard.obj
 0001:0000b914       ?atlCreate@?$CWindowImplBaseT@VCWindow@ATL@@V?$CWinTraits@$0FGAAAAAA@$0A@@2@@ATL@@QEAAPEAUHWND__@@PEAU3@V_U_RECT@2@PEB_WKKV_U_MENUorID@2@GPEAX@Z 000000018000c914 f i POSKeyboard.obj
 0001:0000ba84       ?ocscpy_s@@YA_NPEA_W_KPEB_W@Z 000000018000ca84 f i POSKeyboard.obj
 0001:0000bb34       DllCanUnloadNow            000000018000cb34 f   POSKeyboard.obj
 0001:0000bb40       DllGetClassObject          000000018000cb40 f   POSKeyboard.obj
 0001:0000bb58       DllMain                    000000018000cb58 f   POSKeyboard.obj
 0001:0000bc00       DllRegisterServer          000000018000cc00 f   POSKeyboard.obj
 0001:0000bc14       DllUnregisterServer        000000018000cc14 f   POSKeyboard.obj
 0001:0000bc28       __local_stdio_printf_options 000000018000cc28 f i POSKeyboard.obj
 0001:0000bc30       swprintf_s                 000000018000cc30 f i POSKeyboard.obj
 0001:0000bc84       ??0COPOSPOSKeyboard@@QEAA@XZ 000000018000cc84 f   POSKeyboardImpl.obj
 0001:0000bd4c       ??1?$IConnectionPointImpl@VCOPOSPOSKeyboard@@$1?IID_IPropertyNotifySink@@3U_GUID@@BVCComDynamicUnkArray@ATL@@@ATL@@QEAA@XZ 000000018000cd4c f i POSKeyboardImpl.obj
 0001:0000bd4c       ??1?$IConnectionPointImpl@VCOPOSPOSKeyboard@@$1?DIID__IOPOSPOSKeyboardEvents@@3U_GUID@@BVCComDynamicUnkArray@ATL@@@ATL@@QEAA@XZ 000000018000cd4c f i POSKeyboardImpl.obj
 0001:0000bda8       ??1CComControlBase@ATL@@UEAA@XZ 000000018000cda8 f i POSKeyboardImpl.obj
 0001:0000be24       ??1COPOSPOSKeyboard@@UEAA@XZ 000000018000ce24 f   POSKeyboardImpl.obj
 0001:0000be88       ?CheckHealth@COPOSPOSKeyboard@@UEAAJJPEAJ@Z 000000018000ce88 f   POSKeyboardImpl.obj
 0001:0000bf04       ?ClaimDevice@COPOSPOSKeyboard@@UEAAJJPEAJ@Z 000000018000cf04 f   POSKeyboardImpl.obj
 0001:0000bfa4       ?ClearInput@COPOSPOSKeyboard@@UEAAJPEAJ@Z 000000018000cfa4 f   POSKeyboardImpl.obj
 0001:0000bfcc       ?Close@COPOSPOSKeyboard@@UEAAJPEAJ@Z 000000018000cfcc f   POSKeyboardImpl.obj
 0001:0000c084       ?CompareFirmwareVersion@COPOSPOSKeyboard@@UEAAJPEA_WPEAJ1@Z 000000018000d084 f   POSKeyboardImpl.obj
 0001:0000c160       ?DirectIO@COPOSPOSKeyboard@@UEAAJJPEAJPEAPEA_W0@Z 000000018000d160 f   POSKeyboardImpl.obj
 0001:0000c25c       ?DoInvoke@COPOSPOSKeyboard@@IEAAJJPEAVOposVariant@@IHPEAJ_N@Z 000000018000d25c f   POSKeyboardImpl.obj
 0001:0000c390       ?EventInit@COPOSPOSKeyboard@@IEAAJXZ 000000018000d390 f i POSKeyboardImpl.obj
 0001:0000c4e0       ?EventUninit@COPOSPOSKeyboard@@IEAAXXZ 000000018000d4e0 f i POSKeyboardImpl.obj
 0001:0000c544       ?EventWindowProc@COPOSPOSKeyboard@@IEAA_JI_K_J@Z 000000018000d544 f i POSKeyboardImpl.obj
 0001:0000c6bc       ?FinalConstruct@COPOSPOSKeyboard@@QEAAJXZ 000000018000d6bc f   POSKeyboardImpl.obj
 0001:0000c6f8       ?FreezeEvents@COPOSPOSKeyboard@@MEAAJH@Z 000000018000d6f8 f   POSKeyboardImpl.obj
 0001:0000c764       ?GetOposProp@COPOSPOSKeyboard@@IEAAJJPEAJJ@Z 000000018000d764 f   POSKeyboardImpl.obj
 0001:0000c880       ?GetOposProp@COPOSPOSKeyboard@@IEAAJJPEAPEA_WJ@Z 000000018000d880 f   POSKeyboardImpl.obj
 0001:0000c9ac       ?OnDraw@COPOSPOSKeyboard@@MEAAJAEAUATL_DRAWINFO@@@Z 000000018000d9ac f   POSKeyboardImpl.obj
 0001:0000ca98       ?Open@COPOSPOSKeyboard@@UEAAJPEA_WPEAJ@Z 000000018000da98 f   POSKeyboardImpl.obj
 0001:0000d300       ?ReleaseDevice@COPOSPOSKeyboard@@UEAAJPEAJ@Z 000000018000e300 f   POSKeyboardImpl.obj
 0001:0000d36c       ?ResetStatistics@COPOSPOSKeyboard@@UEAAJPEA_WPEAJ@Z 000000018000e36c f   POSKeyboardImpl.obj
 0001:0000d3f4       ?RetrieveStatistics@COPOSPOSKeyboard@@UEAAJPEAPEA_WPEAJ@Z 000000018000e3f4 f   POSKeyboardImpl.obj
 0001:0000d47c       ?SOProcessID@COPOSPOSKeyboard@@UEAAJPEAJ@Z 000000018000e47c f   POSKeyboardImpl.obj
 0001:0000d498       ?SetCOFreezeEvents@COPOSPOSKeyboard@@IEAAXF@Z 000000018000e498 f   POSKeyboardImpl.obj
 0001:0000d57c       ?SetOposProp@COPOSPOSKeyboard@@IEAAJJJJ@Z 000000018000e57c f   POSKeyboardImpl.obj
 0001:0000d6dc       ?UpdateFirmware@COPOSPOSKeyboard@@UEAAJPEA_WPEAJ@Z 000000018000e6dc f   POSKeyboardImpl.obj
 0001:0000d764       ?UpdateStatistics@COPOSPOSKeyboard@@UEAAJPEA_WPEAJ@Z 000000018000e764 f   POSKeyboardImpl.obj
 0001:0000d7ec       ?get_AutoDisable@COPOSPOSKeyboard@@UEAAJPEAF@Z 000000018000e7ec f   POSKeyboardImpl.obj
 0001:0000d820       ?get_BinaryConversion@COPOSPOSKeyboard@@UEAAJPEAJ@Z 000000018000e820 f   POSKeyboardImpl.obj
 0001:0000d834       ?get_CapCompareFirmwareVersion@COPOSPOSKeyboard@@UEAAJPEAF@Z 000000018000e834 f   POSKeyboardImpl.obj
 0001:0000d868       ?get_CapKeyUp@COPOSPOSKeyboard@@UEAAJPEAF@Z 000000018000e868 f   POSKeyboardImpl.obj
 0001:0000d89c       ?get_CapPowerReporting@COPOSPOSKeyboard@@UEAAJPEAJ@Z 000000018000e89c f   POSKeyboardImpl.obj
 0001:0000d8b0       ?get_CapStatisticsReporting@COPOSPOSKeyboard@@UEAAJPEAF@Z 000000018000e8b0 f   POSKeyboardImpl.obj
 0001:0000d8e4       ?get_CapUpdateFirmware@COPOSPOSKeyboard@@UEAAJPEAF@Z 000000018000e8e4 f   POSKeyboardImpl.obj
 0001:0000d918       ?get_CapUpdateStatistics@COPOSPOSKeyboard@@UEAAJPEAF@Z 000000018000e918 f   POSKeyboardImpl.obj
 0001:0000d94c       ?get_CheckHealthText@COPOSPOSKeyboard@@UEAAJPEAPEA_W@Z 000000018000e94c f   POSKeyboardImpl.obj
 0001:0000d960       ?get_Claimed@COPOSPOSKeyboard@@UEAAJPEAF@Z 000000018000e960 f   POSKeyboardImpl.obj
 0001:0000d990       ?get_ControlObjectDescription@COPOSPOSKeyboard@@UEAAJPEAPEA_W@Z 000000018000e990 f   POSKeyboardImpl.obj
 0001:0000d9f4       ?get_ControlObjectVersion@COPOSPOSKeyboard@@UEAAJPEAJ@Z 000000018000e9f4 f   POSKeyboardImpl.obj
 0001:0000da00       ?get_DataCount@COPOSPOSKeyboard@@UEAAJPEAJ@Z 000000018000ea00 f   POSKeyboardImpl.obj
 0001:0000da14       ?get_DataEventEnabled@COPOSPOSKeyboard@@UEAAJPEAF@Z 000000018000ea14 f   POSKeyboardImpl.obj
 0001:0000da48       ?get_DeviceDescription@COPOSPOSKeyboard@@UEAAJPEAPEA_W@Z 000000018000ea48 f   POSKeyboardImpl.obj
 0001:0000da5c       ?get_DeviceEnabled@COPOSPOSKeyboard@@UEAAJPEAF@Z 000000018000ea5c f   POSKeyboardImpl.obj
 0001:0000da90       ?get_DeviceName@COPOSPOSKeyboard@@UEAAJPEAPEA_W@Z 000000018000ea90 f   POSKeyboardImpl.obj
 0001:0000daa4       ?get_EventTypes@COPOSPOSKeyboard@@UEAAJPEAJ@Z 000000018000eaa4 f   POSKeyboardImpl.obj
 0001:0000dab8       ?get_FreezeEvents@COPOSPOSKeyboard@@UEAAJPEAF@Z 000000018000eab8 f   POSKeyboardImpl.obj
 0001:0000dae8       ?get_OpenResult@COPOSPOSKeyboard@@UEAAJPEAJ@Z 000000018000eae8 f   POSKeyboardImpl.obj
 0001:0000daf4       ?get_POSKeyData@COPOSPOSKeyboard@@UEAAJPEAJ@Z 000000018000eaf4 f   POSKeyboardImpl.obj
 0001:0000db08       ?get_POSKeyEventType@COPOSPOSKeyboard@@UEAAJPEAJ@Z 000000018000eb08 f   POSKeyboardImpl.obj
 0001:0000db1c       ?get_PowerNotify@COPOSPOSKeyboard@@UEAAJPEAJ@Z 000000018000eb1c f   POSKeyboardImpl.obj
 0001:0000db30       ?get_PowerState@COPOSPOSKeyboard@@UEAAJPEAJ@Z 000000018000eb30 f   POSKeyboardImpl.obj
 0001:0000db44       ?get_ResultCode@COPOSPOSKeyboard@@UEAAJPEAJ@Z 000000018000eb44 f   POSKeyboardImpl.obj
 0001:0000db80       ?get_ResultCodeExtended@COPOSPOSKeyboard@@UEAAJPEAJ@Z 000000018000eb80 f   POSKeyboardImpl.obj
 0001:0000db94       ?get_ServiceObjectDescription@COPOSPOSKeyboard@@UEAAJPEAPEA_W@Z 000000018000eb94 f   POSKeyboardImpl.obj
 0001:0000dba8       ?get_ServiceObjectVersion@COPOSPOSKeyboard@@UEAAJPEAJ@Z 000000018000eba8 f   POSKeyboardImpl.obj
 0001:0000dbbc       ?get_State@COPOSPOSKeyboard@@UEAAJPEAJ@Z 000000018000ebbc f   POSKeyboardImpl.obj
 0001:0000dbe8       ?put_AutoDisable@COPOSPOSKeyboard@@UEAAJF@Z 000000018000ebe8 f   POSKeyboardImpl.obj
 0001:0000dc00       ?put_BinaryConversion@COPOSPOSKeyboard@@UEAAJJ@Z 000000018000ec00 f   POSKeyboardImpl.obj
 0001:0000dc14       ?put_DataEventEnabled@COPOSPOSKeyboard@@UEAAJF@Z 000000018000ec14 f   POSKeyboardImpl.obj
 0001:0000dc2c       ?put_DeviceEnabled@COPOSPOSKeyboard@@UEAAJF@Z 000000018000ec2c f   POSKeyboardImpl.obj
 0001:0000dc44       ?put_EventTypes@COPOSPOSKeyboard@@UEAAJJ@Z 000000018000ec44 f   POSKeyboardImpl.obj
 0001:0000dc58       ?put_FreezeEvents@COPOSPOSKeyboard@@UEAAJF@Z 000000018000ec58 f   POSKeyboardImpl.obj
 0001:0000dca8       ?put_PowerNotify@COPOSPOSKeyboard@@UEAAJJ@Z 000000018000eca8 f   POSKeyboardImpl.obj
 0001:0000dcbc       ?s_EventWindowProc@COPOSPOSKeyboard@@KA_JPEAUHWND__@@I_K_J@Z 000000018000ecbc f i POSKeyboardImpl.obj
 0001:0000dd38       ??_U@YAPEAX_K@Z            000000018000ed38 f   LIBCMT:new_array.obj
 0001:0000dd40       ??3@YAXPEAX_K@Z            000000018000ed40 f   LIBCMT:delete_scalar_size.obj
 0001:0000dd40       ??_V@YAXPEAX@Z             000000018000ed40 f   LIBCMT:delete_array.obj
 0001:0000dd48       ??_V@YAXPEAX_K@Z           000000018000ed48 f   LIBCMT:delete_array_size.obj
 0001:0000dd50       __scrt_acquire_startup_lock 000000018000ed50 f   LIBCMT:utility.obj
 0001:0000dd8c       __scrt_dllmain_after_initialize_c 000000018000ed8c f   LIBCMT:utility.obj
 0001:0000ddc0       __scrt_dllmain_before_initialize_c 000000018000edc0 f   LIBCMT:utility.obj
 0001:0000ddd8       __scrt_dllmain_crt_thread_attach 000000018000edd8 f   LIBCMT:utility.obj
 0001:0000de00       __scrt_dllmain_crt_thread_detach 000000018000ee00 f   LIBCMT:utility.obj
 0001:0000de18       __scrt_dllmain_exception_filter 000000018000ee18 f   LIBCMT:utility.obj
 0001:0000de78       __scrt_dllmain_uninitialize_c 000000018000ee78 f   LIBCMT:utility.obj
 0001:0000dea8       __scrt_dllmain_uninitialize_critical 000000018000eea8 f   LIBCMT:utility.obj
 0001:0000debc       __scrt_initialize_crt      000000018000eebc f   LIBCMT:utility.obj
 0001:0000df08       __scrt_initialize_onexit_tables 000000018000ef08 f   LIBCMT:utility.obj
 0001:0000df94       __scrt_is_nonwritable_in_current_image 000000018000ef94 f   LIBCMT:utility.obj
 0001:0000e02c       __scrt_release_startup_lock 000000018000f02c f   LIBCMT:utility.obj
 0001:0000e050       __scrt_uninitialize_crt    000000018000f050 f   LIBCMT:utility.obj
 0001:0000e07c       _onexit                    000000018000f07c f   LIBCMT:utility.obj
 0001:0000e0b8       atexit                     000000018000f0b8 f   LIBCMT:utility.obj
 0001:0000e0d0       ??3@YAXPEAX@Z              000000018000f0d0 f   LIBCMT:delete_scalar.obj
 0001:0000e1d0       _Init_thread_footer        000000018000f1d0 f   LIBCMT:thread_safe_statics.obj
 0001:0000e230       _Init_thread_header        000000018000f230 f   LIBCMT:thread_safe_statics.obj
 0001:0000e298       _Init_thread_notify        000000018000f298 f   LIBCMT:thread_safe_statics.obj
 0001:0000e2dc       _Init_thread_wait          000000018000f2dc f   LIBCMT:thread_safe_statics.obj
 0001:0000e340       __raise_securityfailure    000000018000f340 f   LIBCMT:gs_report.obj
 0001:0000e374       __report_gsfailure         000000018000f374 f   LIBCMT:gs_report.obj
 0001:0000e448       __report_rangecheckfailure 000000018000f448 f   LIBCMT:gs_report.obj
 0001:0000e45c       __report_securityfailure   000000018000f45c f   LIBCMT:gs_report.obj
 0001:0000e5dc       ??2@YAPEAX_KAEBUnothrow_t@std@@@Z 000000018000f5dc f   LIBCMT:new_scalar_nothrow.obj
 0001:0000e5f0       ??_U@YAPEAX_KAEBUnothrow_t@std@@@Z 000000018000f5f0 f   LIBCMT:new_array_nothrow.obj
 0001:0000e5f8       __GSHandlerCheck           000000018000f5f8 f   LIBCMT:gshandler.obj
 0001:0000e618       __GSHandlerCheckCommon     000000018000f618 f   LIBCMT:gshandler.obj
 0001:0000e674       __GSHandlerCheck_SEH       000000018000f674 f   LIBCMT:gshandlerseh.obj
 0001:0000e710       _alloca_probe              000000018000f710 f   LIBCMT:chkstk.obj
 0001:0000e710       __chkstk                   000000018000f710 f   LIBCMT:chkstk.obj
 0001:0000e770       __security_check_cookie    000000018000f770 f   LIBCMT:amdsecgs.obj
 0001:0000eab0       _DllMainCRTStartup         000000018000fab0 f   LIBCMT:dll_dllmain.obj
 0001:0000eaf0       ??2@YAPEAX_K@Z             000000018000faf0 f   LIBCMT:new_scalar.obj
 0001:0000eb2c       __isa_available_init       000000018000fb2c f   LIBCMT:cpu_disp.obj
 0001:0000ecd0       __scrt_is_ucrt_dll_in_use  000000018000fcd0 f   LIBCMT:ucrt_detection.obj
 0001:0000ecdc       __crt_debugger_hook        000000018000fcdc f   LIBCMT:utility_desktop.obj
 0001:0000ece4       __scrt_fastfail            000000018000fce4 f   LIBCMT:utility_desktop.obj
 0001:0000ee30       __security_init_cookie     000000018000fe30 f   LIBCMT:gs_support.obj
 0001:0000eedc       ?__scrt_initialize_type_info@@YAXXZ 000000018000fedc f   LIBCMT:tncleanup.obj
 0001:0000eeec       ?__scrt_uninitialize_type_info@@YAXXZ 000000018000feec f   LIBCMT:tncleanup.obj
 0001:0000eef8       __local_stdio_scanf_options 000000018000fef8 f i LIBCMT:default_local_stdio_options.obj
 0001:0000ef00       __scrt_initialize_default_local_stdio_options 000000018000ff00 f   LIBCMT:default_local_stdio_options.obj
 0001:0000ef1c       __scrt_get_dyn_tls_init_callback 000000018000ff1c f   LIBCMT:dyn_tls_init.obj
 0001:0000ef24       _RTC_Initialize            000000018000ff24 f   LIBCMT:initsect.obj
 0001:0000ef60       _RTC_Terminate             000000018000ff60 f   LIBCMT:initsect.obj
 0001:0000ef9c       ??0bad_alloc@std@@QEAA@AEBV01@@Z 000000018000ff9c f i LIBCMT:throw_bad_alloc.obj
 0001:0000efd8       ??0bad_alloc@std@@QEAA@XZ  000000018000ffd8 f i LIBCMT:throw_bad_alloc.obj
 0001:0000eff8       ??0bad_array_new_length@std@@QEAA@AEBV01@@Z 000000018000fff8 f i LIBCMT:throw_bad_alloc.obj
 0001:0000f034       ??0bad_array_new_length@std@@QEAA@XZ 0000000180010034 f i LIBCMT:throw_bad_alloc.obj
 0001:0000f054       ??0exception@std@@QEAA@AEBV01@@Z 0000000180010054 f i LIBCMT:throw_bad_alloc.obj
 0001:0000f088       ??1bad_array_new_length@std@@UEAA@XZ 0000000180010088 f i LIBCMT:throw_bad_alloc.obj
 0001:0000f088       ??1bad_exception@std@@UEAA@XZ 0000000180010088 f i libvcruntime:frame.obj
 0001:0000f088       ??1bad_alloc@std@@UEAA@XZ  0000000180010088 f i LIBCMT:throw_bad_alloc.obj
 0001:0000f09c       ??_Ebad_exception@std@@UEAAPEAXI@Z 000000018001009c f i libvcruntime:frame.obj
 0001:0000f09c       ??_Gbad_exception@std@@UEAAPEAXI@Z 000000018001009c f i libvcruntime:frame.obj
 0001:0000f09c       ??_Eexception@std@@UEAAPEAXI@Z 000000018001009c f i LIBCMT:throw_bad_alloc.obj
 0001:0000f09c       ??_Ebad_alloc@std@@UEAAPEAXI@Z 000000018001009c f i LIBCMT:throw_bad_alloc.obj
 0001:0000f09c       ??_Ebad_array_new_length@std@@UEAAPEAXI@Z 000000018001009c f i LIBCMT:throw_bad_alloc.obj
 0001:0000f09c       ??_Gbad_array_new_length@std@@UEAAPEAXI@Z 000000018001009c f i LIBCMT:throw_bad_alloc.obj
 0001:0000f09c       ??_Gbad_alloc@std@@UEAAPEAXI@Z 000000018001009c f i LIBCMT:throw_bad_alloc.obj
 0001:0000f09c       ??_Gexception@std@@UEAAPEAXI@Z 000000018001009c f i LIBCMT:throw_bad_alloc.obj
 0001:0000f0e0       ?__scrt_throw_std_bad_alloc@@YAXXZ 00000001800100e0 f   LIBCMT:throw_bad_alloc.obj
 0001:0000f100       ?__scrt_throw_std_bad_array_new_length@@YAXXZ 0000000180010100 f   LIBCMT:throw_bad_alloc.obj
 0001:0000f120       ?what@exception@std@@UEBAPEBDXZ 0000000180010120 f i LIBCMT:throw_bad_alloc.obj
 0001:0000f140       ??_Gtype_info@@UEAAPEAXI@Z 0000000180010140 f i LIBCMT:std_type_info_static.obj
 0001:0000f140       ??_Etype_info@@UEAAPEAXI@Z 0000000180010140 f i LIBCMT:std_type_info_static.obj
 0001:0000f16c       ??0CAtlBaseModule@ATL@@QEAA@XZ 000000018001016c f   atls:atlbase.obj
 0001:0000f214       ??1CAtlBaseModule@ATL@@QEAA@XZ 0000000180010214 f   atls:atlbase.obj
 0001:0000f348       ?__AllocStdCallThunk_cmn@@YAPEAXXZ 0000000180010348 f   atls:atlthunk.obj
 0001:0000f4a0       AtlThunk_AllocateData      00000001800104a0 f   atls:atlthunk.obj
 0001:0000f51c       AtlThunk_DataToCode        000000018001051c f   atls:atlthunk.obj
 0001:0000f570       AtlThunk_FreeData          0000000180010570 f   atls:atlthunk.obj
 0001:0000f5d0       AtlThunk_InitData          00000001800105d0 f   atls:atlthunk.obj
 0001:0000f678       _get_purecall_handler      0000000180010678 f   libvcruntime:purevirt.obj
 0001:0000f684       _purecall                  0000000180010684 f   libvcruntime:purevirt.obj
 0001:0000f6a0       wcsstr                     00000001800106a0 f   libvcruntime:wcsstr.obj
 0001:0000f8d0       memcmp                     00000001800108d0 f   libvcruntime:memcmp.obj
 0001:0000f9b0       memcpy_repmovs             00000001800109b0 f   libvcruntime:memcpy.obj
 0001:0000f9d0       memcpy                     00000001800109d0 f   libvcruntime:memcpy.obj
 0001:0000f9d0       memmove                    00000001800109d0 f   libvcruntime:memcpy.obj
 0001:00010060       memset_repmovs             0000000180011060 f   libvcruntime:memset.obj
 0001:00010080       memset                     0000000180011080 f   libvcruntime:memset.obj
 0001:00010210       __vcrt_initialize          0000000180011210 f   libvcruntime:initialization.obj
 0001:00010238       __vcrt_thread_attach       0000000180011238 f   libvcruntime:initialization.obj
 0001:0001024c       __vcrt_thread_detach       000000018001124c f   libvcruntime:initialization.obj
 0001:00010260       __vcrt_uninitialize        0000000180011260 f   libvcruntime:initialization.obj
 0001:0001027c       __vcrt_uninitialize_critical 000000018001127c f   libvcruntime:initialization.obj
 0001:0001028c       __C_specific_handler       000000018001128c f   libvcruntime:riscchandler.obj
 0001:00010484       ??$_CallSETranslator@V__FrameHandler3@@@@YAHPEAUEHExceptionRecord@@PEA_KPEAU_CONTEXT@@PEAU_xDISPATCHER_CONTEXT@@PEBU_s_FuncInfo@@K1H@Z 0000000180011484 f i libvcruntime:risctrnsctrl.obj
 0001:000104d8       ??$_CallSETranslator@V__FrameHandler4@@@@YAHPEAUEHExceptionRecord@@PEA_KPEAU_CONTEXT@@PEAU_xDISPATCHER_CONTEXT@@PEAUFuncInfo4@FH4@@K1H@Z 00000001800114d8 f i libvcruntime:risctrnsctrl.obj
 0001:0001052c       ?CatchTryBlock@__FrameHandler3@@SAPEBU_s_TryBlockMapEntry@@PEBU_s_FuncInfo@@H@Z 000000018001152c f   libvcruntime:risctrnsctrl.obj
 0001:00010590       ?DecompFuncInfo@FH4@@YA_JPEAEAEAUFuncInfo4@1@_KH_N@Z 0000000180011590 f i libvcruntime:risctrnsctrl.obj
 0001:000106b4       ?ExecutionInCatch@__FrameHandler3@@SA_NPEAU_xDISPATCHER_CONTEXT@@PEBU_s_FuncInfo@@@Z 00000001800116b4 f   libvcruntime:risctrnsctrl.obj
 0001:000106e0       ?ExecutionInCatch@__FrameHandler4@@SA_NPEAU_xDISPATCHER_CONTEXT@@PEAUFuncInfo4@FH4@@@Z 00000001800116e0 f   libvcruntime:risctrnsctrl.obj
 0001:000106e8       ?FrameUnwindToEmptyState@__FrameHandler3@@SAXPEA_KPEAU_xDISPATCHER_CONTEXT@@PEBU_s_FuncInfo@@@Z 00000001800116e8 f   libvcruntime:risctrnsctrl.obj
 0001:0001074c       ?FrameUnwindToEmptyState@__FrameHandler4@@SAXPEA_KPEAU_xDISPATCHER_CONTEXT@@PEAUFuncInfo4@FH4@@@Z 000000018001174c f   libvcruntime:risctrnsctrl.obj
 0001:00010780       ?GetEstablisherFrame@__FrameHandler3@@SAPEA_KPEA_KPEAU_xDISPATCHER_CONTEXT@@PEBU_s_FuncInfo@@0@Z 0000000180011780 f   libvcruntime:risctrnsctrl.obj
 0001:0001084c       ?GetEstablisherFrame@__FrameHandler4@@SAPEA_KPEA_KPEAU_xDISPATCHER_CONTEXT@@PEAUFuncInfo4@FH4@@0@Z 000000018001184c f   libvcruntime:risctrnsctrl.obj
 0001:00010870       ?GetRangeOfTrysToCheck@__FrameHandler3@@SA?AU?$pair@Viterator@TryBlockMap@__FrameHandler3@@V123@@std@@AEAVTryBlockMap@1@HPEAU_xDISPATCHER_CONTEXT@@PEBU_s_FuncInfo@@H@Z 0000000180011870 f   libvcruntime:risctrnsctrl.obj
 0001:000109b0       ?GetRangeOfTrysToCheck@__FrameHandler4@@SA?AU?$pair@Viterator@TryBlockMap4@FH4@@V123@@std@@AEAVTryBlockMap4@FH4@@HPEAU_xDISPATCHER_CONTEXT@@PEAUFuncInfo4@5@H@Z 00000001800119b0 f   libvcruntime:risctrnsctrl.obj
 0001:00010b1c       ?UnwindNestedFrames@__FrameHandler3@@SAXPEA_KPEAUEHExceptionRecord@@PEAU_CONTEXT@@0PEAXPEBU_s_FuncInfo@@HHPEBU_s_HandlerType@@PEAU_xDISPATCHER_CONTEXT@@E@Z 0000000180011b1c f   libvcruntime:risctrnsctrl.obj
 0001:00010c20       ?UnwindNestedFrames@__FrameHandler4@@SAXPEA_KPEAUEHExceptionRecord@@PEAU_CONTEXT@@0PEAXPEAUFuncInfo4@FH4@@HHPEAUHandlerType4@5@PEAU_xDISPATCHER_CONTEXT@@E@Z 0000000180011c20 f   libvcruntime:risctrnsctrl.obj
 0001:00010d40       ?setBuffer@TryBlockMap4@FH4@@QEAAXViterator@12@@Z 0000000180011d40 f i libvcruntime:risctrnsctrl.obj
 0001:00010f04       _CreateFrameInfo           0000000180011f04 f   libvcruntime:risctrnsctrl.obj
 0001:00010f40       _FindAndUnlinkFrame        0000000180011f40 f   libvcruntime:risctrnsctrl.obj
 0001:00010f94       _GetImageBase              0000000180011f94 f   libvcruntime:risctrnsctrl.obj
 0001:00010fa8       _GetThrowImageBase         0000000180011fa8 f   libvcruntime:risctrnsctrl.obj
 0001:00010fbc       _SetImageBase              0000000180011fbc f   libvcruntime:risctrnsctrl.obj
 0001:00010fd4       _SetThrowImageBase         0000000180011fd4 f   libvcruntime:risctrnsctrl.obj
 0001:00010fec       __CxxFrameHandler3         0000000180011fec f   libvcruntime:risctrnsctrl.obj
 0001:00011074       __CxxFrameHandler4         0000000180012074 f   libvcruntime:risctrnsctrl.obj
 0001:00011134       __DestructExceptionObject  0000000180012134 f   libvcruntime:ehhelpers.obj
 0001:000111a4       ?_CallMemberFunction0@@YAXQEAX0@Z 00000001800121a4 f i libvcruntime:ehhelpers.obj
 0001:000111a8       _IsExceptionObjectToBeDestroyed 00000001800121a8 f   libvcruntime:ehhelpers.obj
 0001:000111d8       __AdjustPointer            00000001800121d8 f   libvcruntime:ehhelpers.obj
 0001:000111fc       __FrameUnwindFilter        00000001800121fc f   libvcruntime:ehhelpers.obj
 0001:00011264       __std_terminate            0000000180012264 f   libvcruntime:ehhelpers.obj
 0001:00011270       __std_type_info_compare    0000000180012270 f   libvcruntime:std_type_info.obj
 0001:00011298       __std_type_info_destroy_list 0000000180012298 f   libvcruntime:std_type_info.obj
 0001:000112c4       __std_exception_copy       00000001800122c4 f   libvcruntime:std_exception.obj
 0001:00011354       __std_exception_destroy    0000000180012354 f   libvcruntime:std_exception.obj
 0001:0001137c       _CxxThrowException         000000018001237c f   libvcruntime:throw.obj
 0001:0001141c       __vcrt_freefls             000000018001241c f   libvcruntime:per_thread_data.obj
 0001:0001143c       __vcrt_freeptd             000000018001243c f   libvcruntime:per_thread_data.obj
 0001:0001148c       __vcrt_getptd              000000018001248c f   libvcruntime:per_thread_data.obj
 0001:000114a8       __vcrt_getptd_noexit       00000001800124a8 f   libvcruntime:per_thread_data.obj
 0001:00011568       __vcrt_initialize_ptd      0000000180012568 f   libvcruntime:per_thread_data.obj
 0001:000115b0       __vcrt_uninitialize_ptd    00000001800125b0 f   libvcruntime:per_thread_data.obj
 0001:000115d4       __vcrt_initialize_locks    00000001800125d4 f   libvcruntime:locks.obj
 0001:0001161c       __vcrt_uninitialize_locks  000000018001261c f   libvcruntime:locks.obj
 0001:00011670       _NLG_Notify                0000000180012670 f   libvcruntime:notify.obj
 0001:00011690       __NLG_Dispatch2            0000000180012690 f   libvcruntime:notify.obj
 0001:000116a0       __NLG_Return2              00000001800126a0 f   libvcruntime:notify.obj
 0001:000116a4       __except_validate_context_record 00000001800126a4 f   libvcruntime:jbcxrval.obj
 0001:000116dc       ?GetCurrentState@__FrameHandler3@@SAHPEA_KPEAU_xDISPATCHER_CONTEXT@@PEBU_s_FuncInfo@@@Z 00000001800126dc f   libvcruntime:ehstate.obj
 0001:00011704       ?GetUnwindTryBlock@__FrameHandler3@@SAHPEA_KPEAU_xDISPATCHER_CONTEXT@@PEBU_s_FuncInfo@@@Z 0000000180012704 f   libvcruntime:ehstate.obj
 0001:00011730       ?SetState@__FrameHandler3@@SAXPEA_KPEBU_s_FuncInfo@@H@Z 0000000180012730 f   libvcruntime:ehstate.obj
 0001:0001173c       ?SetUnwindTryBlock@__FrameHandler3@@SAXPEA_KPEAU_xDISPATCHER_CONTEXT@@PEBU_s_FuncInfo@@H@Z 000000018001273c f   libvcruntime:ehstate.obj
 0001:00011778       ?StateFromControlPc@__FrameHandler3@@SAHPEBU_s_FuncInfo@@PEAU_xDISPATCHER_CONTEXT@@@Z 0000000180012778 f   libvcruntime:ehstate.obj
 0001:00011780       ?StateFromControlPc@__FrameHandler4@@SAHPEAUFuncInfo4@FH4@@PEAU_xDISPATCHER_CONTEXT@@@Z 0000000180012780 f   libvcruntime:ehstate.obj
 0001:00011788       ?StateFromIp@__FrameHandler3@@SAHPEBU_s_FuncInfo@@PEAU_xDISPATCHER_CONTEXT@@_K@Z 0000000180012788 f   libvcruntime:ehstate.obj
 0001:000117f0       ?StateFromIp@__FrameHandler4@@SAHPEAUFuncInfo4@FH4@@PEAU_xDISPATCHER_CONTEXT@@_K@Z 00000001800127f0 f   libvcruntime:ehstate.obj
 0001:00012ef0       ??$TypeMatchHelper@V__FrameHandler3@@@@YAHPEBU_s_HandlerType@@PEBU_s_CatchableType@@PEBU_s_ThrowInfo@@@Z 0000000180013ef0 f i libvcruntime:frame.obj
 0001:00013030       ??$TypeMatchHelper@V__FrameHandler4@@@@YAHPEAUHandlerType4@FH4@@PEBU_s_CatchableType@@PEBU_s_ThrowInfo@@@Z 0000000180014030 f i libvcruntime:frame.obj
 0001:00013174       ??$__InternalCxxFrameHandler@V__FrameHandler3@@@@YA?AW4_EXCEPTION_DISPOSITION@@PEAUEHExceptionRecord@@PEA_KPEAU_CONTEXT@@PEAU_xDISPATCHER_CONTEXT@@PEBU_s_FuncInfo@@H1E@Z 0000000180014174 f i libvcruntime:frame.obj
 0001:000133ac       ??$__InternalCxxFrameHandler@V__FrameHandler4@@@@YA?AW4_EXCEPTION_DISPOSITION@@PEAUEHExceptionRecord@@PEA_KPEAU_CONTEXT@@PEAU_xDISPATCHER_CONTEXT@@PEAUFuncInfo4@FH4@@H1E@Z 00000001800143ac f i libvcruntime:frame.obj
 0001:00013640       ??0HandlerMap4@FH4@@QEAA@PEBUTryBlockMapEntry4@1@_KH@Z 0000000180014640 f i libvcruntime:frame.obj
 0001:000136bc       ??0TryBlockMap4@FH4@@QEAA@PEBUFuncInfo4@1@_K@Z 00000001800146bc f i libvcruntime:frame.obj
 0001:00013794       ??0bad_exception@std@@QEAA@AEBV01@@Z 0000000180014794 f i libvcruntime:frame.obj
 0001:000137d0       ??0bad_exception@std@@QEAA@XZ 00000001800147d0 f i libvcruntime:frame.obj
 0001:000137f0       ?CxxCallCatchBlock@__FrameHandler3@@SAPEAXPEAU_EXCEPTION_RECORD@@@Z 00000001800147f0 f   libvcruntime:frame.obj
 0001:000139dc       ?CxxCallCatchBlock@__FrameHandler4@@SAPEAXPEAU_EXCEPTION_RECORD@@@Z 00000001800149dc f   libvcruntime:frame.obj
 0001:00013c2c       ?DecompHandler@HandlerMap4@FH4@@AEAAXXZ 0000000180014c2c f i libvcruntime:frame.obj
 0001:00013e78       ?FrameUnwindToState@__FrameHandler3@@SAXPEA_KPEAU_xDISPATCHER_CONTEXT@@PEBU_s_FuncInfo@@H@Z 0000000180014e78 f   libvcruntime:frame.obj
 0001:00014004       ?FrameUnwindToState@__FrameHandler4@@SAXPEA_KPEAU_xDISPATCHER_CONTEXT@@PEAUFuncInfo4@FH4@@H@Z 0000000180015004 f   libvcruntime:frame.obj
 0001:00014300       ?GetHandlerSearchState@__FrameHandler3@@SAHPEA_KPEAU_xDISPATCHER_CONTEXT@@PEBU_s_FuncInfo@@@Z 0000000180015300 f i libvcruntime:frame.obj
 0001:00014510       ?ReadEntry@UWMap4@FH4@@AEAAXPEAPEAE@Z 0000000180015510 f i libvcruntime:frame.obj
 0001:000145ac       ?_CallMemberFunction1@@YAXQEAX00@Z 00000001800155ac f i libvcruntime:frame.obj
 0001:000145b8       ?_CallMemberFunction2@@YAXQEAX00H@Z 00000001800155b8 f i libvcruntime:frame.obj
 0001:000145c8       ?getStartStop@UWMap4@FH4@@QEAAXHHAEAViterator@12@0@Z 00000001800155c8 f i libvcruntime:frame.obj
 0001:00014698       ?getStateFromIterators@UWMap4@FH4@@SAHAEBViterator@12@H0H0@Z 0000000180015698 f i libvcruntime:frame.obj
 0001:000148b4       __vcrt_FlsAlloc            00000001800158b4 f   libvcruntime:winapi_downlevel.obj
 0001:000148fc       __vcrt_FlsFree             00000001800158fc f   libvcruntime:winapi_downlevel.obj
 0001:00014944       __vcrt_FlsGetValue         0000000180015944 f   libvcruntime:winapi_downlevel.obj
 0001:0001498c       __vcrt_FlsSetValue         000000018001598c f   libvcruntime:winapi_downlevel.obj
 0001:000149e0       __vcrt_InitializeCriticalSectionEx 00000001800159e0 f   libvcruntime:winapi_downlevel.obj
 0001:00014a60       _CallSettingFrame          0000000180015a60 f   libvcruntime:handlers.obj
 0001:00014ab0       _CallSettingFrame_LookupContinuationIndex 0000000180015ab0 f   libvcruntime:handlers.obj
 0001:00014ae0       _CallSettingFrame_NotifyContinuationAddr 0000000180015ae0 f   libvcruntime:handlers.obj
 0001:00014b10       _CallSettingFrameEncoded   0000000180015b10 f   libvcruntime:handlers.obj
 0001:00014b58       free                       0000000180015b58 f   libucrt:free.obj
 0001:00014b6c       ?get_raw_ptd@__crt_cached_ptd_host@@QEAAPEAU__acrt_ptd@@XZ 0000000180015b6c f i libucrt:invalid_parameter.obj
 0001:00014bd4       ?get_raw_ptd_noexit@__crt_cached_ptd_host@@QEAAPEAU__acrt_ptd@@XZ 0000000180015bd4 f i libucrt:invalid_parameter.obj
 0001:00014c40       ?value@?$dual_state_global@P6AXPEB_W00I_K@Z@__crt_state_management@@QEAAAEAP6AXPEB_W00I_K@ZAEAV__crt_cached_ptd_host@@@Z 0000000180015c40 f i libucrt:invalid_parameter.obj
 0001:00014c8c       __acrt_call_reportfault    0000000180015c8c f   libucrt:invalid_parameter.obj
 0001:00014de8       __acrt_initialize_invalid_parameter_handler 0000000180015de8 f   libucrt:invalid_parameter.obj
 0001:00014df0       _invalid_parameter         0000000180015df0 f   libucrt:invalid_parameter.obj
 0001:00014e8c       _invalid_parameter_internal 0000000180015e8c f   libucrt:invalid_parameter.obj
 0001:00014f5c       _invalid_parameter_noinfo  0000000180015f5c f   libucrt:invalid_parameter.obj
 0001:00014f7c       _invoke_watson             0000000180015f7c f   libucrt:invalid_parameter.obj
 0001:00014fc4       __acrt_errno_from_os_error 0000000180015fc4 f   libucrt:errno.obj
 0001:0001500c       __acrt_errno_map_os_error  000000018001600c f   libucrt:errno.obj
 0001:00015054       __acrt_errno_map_os_error_ptd 0000000180016054 f   libucrt:errno.obj
 0001:00015078       __doserrno                 0000000180016078 f   libucrt:errno.obj
 0001:00015098       _errno                     0000000180016098 f   libucrt:errno.obj
 0001:000150b8       calloc                     00000001800160b8 f   libucrt:calloc.obj
 0001:000150c0       malloc                     00000001800160c0 f   libucrt:malloc.obj
 0001:000150c8       _recalloc                  00000001800160c8 f   libucrt:recalloc.obj
 0001:000150d0       _recalloc_base             00000001800160d0 f   libucrt:recalloc.obj
 0001:00015168       _resetstkoflw              0000000180016168 f   libucrt:resetstk.obj
 0001:00015294       wcscat_s                   0000000180016294 f   libucrt:wcscat_s.obj
 0001:00015318       wcscpy_s                   0000000180016318 f   libucrt:wcscpy_s.obj
 0001:00015380       wcsncpy_s                  0000000180016380 f   libucrt:wcsncpy_s.obj
 0001:00015634       ??$ensure_buffer_is_big_enough@D@formatting_buffer@__crt_stdio_output@@QEAA_N_KAEAV__crt_cached_ptd_host@@@Z 0000000180016634 f i libucrt:output.obj
 0001:000156dc       ??$ensure_buffer_is_big_enough@_W@formatting_buffer@__crt_stdio_output@@QEAA_N_KAEAV__crt_cached_ptd_host@@@Z 00000001800166dc f i libucrt:output.obj
 0001:00015788       ??$is_wide_character_specifier@_W@__crt_stdio_output@@YA_N_K_WW4length_modifier@0@@Z 0000000180016788 f i libucrt:output.obj
 0001:000157c8       ??$parse_integer@KV?$c_string_character_source@_W@__crt_strtox@@$0A@@__crt_strtox@@YAKAEAV__crt_cached_ptd_host@@V?$c_string_character_source@_W@0@H_N@Z 00000001800167c8 f i libucrt:output.obj
 0001:00015f20       ??$type_case_integer@$07@?$output_processor@_WV?$string_output_adapter@_W@__crt_stdio_output@@V?$format_validation_base@_WV?$string_output_adapter@_W@__crt_stdio_output@@@2@@__crt_stdio_output@@AEAA_N_N@Z 0000000180016f20 f i libucrt:output.obj
 0001:0001610c       ??$type_case_integer@$09@?$output_processor@_WV?$string_output_adapter@_W@__crt_stdio_output@@V?$format_validation_base@_WV?$string_output_adapter@_W@__crt_stdio_output@@@2@@__crt_stdio_output@@AEAA_N_N@Z 000000018001710c f i libucrt:output.obj
 0001:000162f8       ??$type_case_integer@$0BA@@?$output_processor@_WV?$string_output_adapter@_W@__crt_stdio_output@@V?$format_validation_base@_WV?$string_output_adapter@_W@__crt_stdio_output@@@2@@__crt_stdio_output@@AEAA_N_N@Z 00000001800172f8 f i libucrt:output.obj
 0001:000164e4       ??$type_case_integer_parse_into_buffer@I$07@?$output_processor@_WV?$string_output_adapter@_W@__crt_stdio_output@@V?$format_validation_base@_WV?$string_output_adapter@_W@__crt_stdio_output@@@2@@__crt_stdio_output@@AEAAXI_N@Z 00000001800174e4 f i libucrt:output.obj
 0001:0001656c       ??$type_case_integer_parse_into_buffer@I$09@?$output_processor@_WV?$string_output_adapter@_W@__crt_stdio_output@@V?$format_validation_base@_WV?$string_output_adapter@_W@__crt_stdio_output@@@2@@__crt_stdio_output@@AEAAXI_N@Z 000000018001756c f i libucrt:output.obj
 0001:00016624       ??$type_case_integer_parse_into_buffer@I$0BA@@?$output_processor@_WV?$string_output_adapter@_W@__crt_stdio_output@@V?$format_validation_base@_WV?$string_output_adapter@_W@__crt_stdio_output@@@2@@__crt_stdio_output@@AEAAXI_N@Z 0000000180017624 f i libucrt:output.obj
 0001:000166c8       ??$type_case_integer_parse_into_buffer@_K$07@?$output_processor@_WV?$string_output_adapter@_W@__crt_stdio_output@@V?$format_validation_base@_WV?$string_output_adapter@_W@__crt_stdio_output@@@2@@__crt_stdio_output@@AEAAX_K_N@Z 00000001800176c8 f i libucrt:output.obj
 0001:00016750       ??$type_case_integer_parse_into_buffer@_K$09@?$output_processor@_WV?$string_output_adapter@_W@__crt_stdio_output@@V?$format_validation_base@_WV?$string_output_adapter@_W@__crt_stdio_output@@@2@@__crt_stdio_output@@AEAAX_K_N@Z 0000000180017750 f i libucrt:output.obj
 0001:00016810       ??$type_case_integer_parse_into_buffer@_K$0BA@@?$output_processor@_WV?$string_output_adapter@_W@__crt_stdio_output@@V?$format_validation_base@_WV?$string_output_adapter@_W@__crt_stdio_output@@@2@@__crt_stdio_output@@AEAAX_K_N@Z 0000000180017810 f i libucrt:output.obj
 0001:000168b4       ?crop_zeroes@__crt_stdio_output@@YAXPEADQEAU__crt_locale_pointers@@@Z 00000001800178b4 f i libucrt:output.obj
 0001:00016920       ?parse_int_from_format_string@?$output_processor@_WV?$string_output_adapter@_W@__crt_stdio_output@@V?$format_validation_base@_WV?$string_output_adapter@_W@__crt_stdio_output@@@2@@__crt_stdio_output@@AEAA_NQEAH@Z 0000000180017920 f i libucrt:output.obj
 0001:000169b0       ?process@?$output_processor@_WV?$string_output_adapter@_W@__crt_stdio_output@@V?$format_validation_base@_WV?$string_output_adapter@_W@__crt_stdio_output@@@2@@__crt_stdio_output@@QEAAHXZ 00000001800179b0 f i libucrt:output.obj
 0001:00016c8c       ?state_case_size@?$output_processor@_WV?$string_output_adapter@_W@__crt_stdio_output@@V?$format_validation_base@_WV?$string_output_adapter@_W@__crt_stdio_output@@@2@@__crt_stdio_output@@AEAA_NXZ 0000000180017c8c f i libucrt:output.obj
 0001:00016e38       ?state_case_type@?$output_processor@_WV?$string_output_adapter@_W@__crt_stdio_output@@V?$format_validation_base@_WV?$string_output_adapter@_W@__crt_stdio_output@@@2@@__crt_stdio_output@@AEAA_NXZ 0000000180017e38 f i libucrt:output.obj
 0001:00017294       ?type_case_Z@?$output_processor@_WV?$string_output_adapter@_W@__crt_stdio_output@@V?$format_validation_base@_WV?$string_output_adapter@_W@__crt_stdio_output@@@2@@__crt_stdio_output@@AEAA_NXZ 0000000180018294 f i libucrt:output.obj
 0001:00017310       ?type_case_a@?$output_processor@_WV?$string_output_adapter@_W@__crt_stdio_output@@V?$format_validation_base@_WV?$string_output_adapter@_W@__crt_stdio_output@@@2@@__crt_stdio_output@@AEAA_NXZ 0000000180018310 f i libucrt:output.obj
 0001:00017570       ?type_case_c_tchar@?$output_processor@_WV?$string_output_adapter@_W@__crt_stdio_output@@V?$format_validation_base@_WV?$string_output_adapter@_W@__crt_stdio_output@@@2@@__crt_stdio_output@@AEAA_N_W@Z 0000000180018570 f i libucrt:output.obj
 0001:00017634       ?type_case_n@?$output_processor@_WV?$string_output_adapter@_W@__crt_stdio_output@@V?$format_validation_base@_WV?$string_output_adapter@_W@__crt_stdio_output@@@2@@__crt_stdio_output@@AEAA_NXZ 0000000180018634 f i libucrt:output.obj
 0001:000176e8       ?type_case_s@?$output_processor@_WV?$string_output_adapter@_W@__crt_stdio_output@@V?$format_validation_base@_WV?$string_output_adapter@_W@__crt_stdio_output@@@2@@__crt_stdio_output@@AEAA_NXZ 00000001800186e8 f i libucrt:output.obj
 0001:00017780       ?type_case_s_compute_narrow_string_length@?$output_processor@_WV?$string_output_adapter@_W@__crt_stdio_output@@V?$format_validation_base@_WV?$string_output_adapter@_W@__crt_stdio_output@@@2@@__crt_stdio_output@@AEAAHH_W@Z 0000000180018780 f i libucrt:output.obj
 0001:00017800       ?update_locale_slow@__crt_cached_ptd_host@@AEAAXXZ 0000000180018800 f i libucrt:output.obj
 0001:00017878       ?write_string@?$string_output_adapter@_W@__crt_stdio_output@@QEBAXQEB_WHQEAHAEAV__crt_cached_ptd_host@@@Z 0000000180018878 f i libucrt:output.obj
 0001:00017920       __stdio_common_vswprintf_s 0000000180018920 f   libucrt:output.obj
 0001:00017a34       _seh_filter_dll            0000000180018a34 f   libucrt:exception_filter.obj
 0001:00017a48       _seh_filter_exe            0000000180018a48 f   libucrt:exception_filter.obj
 0001:00017e6c       __acrt_initialize_thread_local_exit_callback 0000000180018e6c f   libucrt:exit.obj
 0001:00017e74       _cexit                     0000000180018e74 f   libucrt:exit.obj
 0001:00017e84       _exit                      0000000180018e84 f   libucrt:exit.obj
 0001:00017e90       _is_c_termination_complete 0000000180018e90 f   libucrt:exit.obj
 0001:00018058       __acrt_allocate_buffer_for_argv 0000000180019058 f   libucrt:argv_parsing.obj
 0001:000180b8       _configure_narrow_argv     00000001800190b8 f   libucrt:argv_parsing.obj
 0001:00018440       __dcrt_uninitialize_environments_nolock 0000000180019440 f   libucrt:environment_initialization.obj
 0001:00018484       _initialize_narrow_environment 0000000180019484 f   libucrt:environment_initialization.obj
 0001:000187d4       _crt_atexit                00000001800197d4 f   libucrt:onexit.obj
 0001:000187e4       _execute_onexit_table      00000001800197e4 f   libucrt:onexit.obj
 0001:00018828       _initialize_onexit_table   0000000180019828 f   libucrt:onexit.obj
 0001:00018850       _register_onexit_function  0000000180019850 f   libucrt:onexit.obj
 0001:000188d0       __acrt_uninitialize_command_line 00000001800198d0 f   libucrt:argv_data.obj
 0001:000189c8       __acrt_initialize          00000001800199c8 f   libucrt:initialization.obj
 0001:000189dc       __acrt_thread_attach       00000001800199dc f   libucrt:initialization.obj
 0001:000189f0       __acrt_thread_detach       00000001800199f0 f   libucrt:initialization.obj
 0001:00018a00       __acrt_uninitialize        0000000180019a00 f   libucrt:initialization.obj
 0001:00018a38       __acrt_uninitialize_critical 0000000180019a38 f   libucrt:initialization.obj
 0001:00018a48       _initterm                  0000000180019a48 f   libucrt:initterm.obj
 0001:00018a8c       _initterm_e                0000000180019a8c f   libucrt:initterm.obj
 0001:00018ad4       __acrt_initialize_new_handler 0000000180019ad4 f   libucrt:new_handler.obj
 0001:00018adc       _callnewh                  0000000180019adc f   libucrt:new_handler.obj
 0001:00018b18       _query_new_handler         0000000180019b18 f   libucrt:new_handler.obj
 0001:00018b4c       terminate                  0000000180019b4c f   libucrt:terminate.obj
 0001:00018b78       abort                      0000000180019b78 f   libucrt:abort.obj
 0001:00018bd0       strcpy_s                   0000000180019bd0 f   libucrt:strcpy_s.obj
 0001:00018c40       strncmp                    0000000180019c40 f   libucrt:strncmp.obj
 0001:00018cc0       wcsncmp                    0000000180019cc0 f   libucrt:wcsncmp.obj
 0001:00018cec       _free_base                 0000000180019cec f   libucrt:free_base.obj
 0001:000190a0       __acrt_freeptd             000000018001a0a0 f   libucrt:per_thread_data.obj
 0001:000190e4       __acrt_getptd              000000018001a0e4 f   libucrt:per_thread_data.obj
 0001:000191b8       __acrt_getptd_head         000000018001a1b8 f   libucrt:per_thread_data.obj
 0001:0001925c       __acrt_getptd_noexit       000000018001a25c f   libucrt:per_thread_data.obj
 0001:00019324       __acrt_getptd_noexit_explicit 000000018001a324 f   libucrt:per_thread_data.obj
 0001:000193e4       __acrt_initialize_ptd      000000018001a3e4 f   libucrt:per_thread_data.obj
 0001:00019420       __acrt_uninitialize_ptd    000000018001a420 f   libucrt:per_thread_data.obj
 0001:000194b4       __acrt_set_locale_changed  000000018001a4b4 f   libucrt:wsetlocale.obj
 0001:000194c0       __acrt_uninitialize_locale 000000018001a4c0 f   libucrt:wsetlocale.obj
 0001:000194f0       _calloc_base               000000018001a4f0 f   libucrt:calloc_base.obj
 0001:00019568       _malloc_base               000000018001a568 f   libucrt:malloc_base.obj
 0001:000195c8       _msize_base                000000018001a5c8 f   libucrt:msize.obj
 0001:00019604       _realloc_base              000000018001a604 f   libucrt:realloc_base.obj
 0001:00019840       __acrt_AppPolicyGetProcessTerminationMethodInternal 000000018001a840 f   libucrt:winapi_thunks.obj
 0001:00019898       __acrt_AreFileApisANSI     000000018001a898 f   libucrt:winapi_thunks.obj
 0001:000198dc       __acrt_FlsAlloc            000000018001a8dc f   libucrt:winapi_thunks.obj
 0001:000198e4       __acrt_FlsFree             000000018001a8e4 f   libucrt:winapi_thunks.obj
 0001:000198ec       __acrt_FlsGetValue         000000018001a8ec f   libucrt:winapi_thunks.obj
 0001:000198f4       __acrt_FlsSetValue         000000018001a8f4 f   libucrt:winapi_thunks.obj
 0001:000198fc       __acrt_InitializeCriticalSectionEx 000000018001a8fc f   libucrt:winapi_thunks.obj
 0001:0001996c       __acrt_LCMapStringEx       000000018001a96c f   libucrt:winapi_thunks.obj
 0001:00019a58       __acrt_LocaleNameToLCID    000000018001aa58 f   libucrt:winapi_thunks.obj
 0001:00019ab8       __acrt_SetThreadStackGuarantee 000000018001aab8 f   libucrt:winapi_thunks.obj
 0001:00019b04       __acrt_initialize_winapi_thunks 000000018001ab04 f   libucrt:winapi_thunks.obj
 0001:00019b28       __acrt_uninitialize_winapi_thunks 000000018001ab28 f   libucrt:winapi_thunks.obj
 0001:00019b6c       wcsnlen                    000000018001ab6c f   libucrt:strnlen.obj
 0001:00019d44       __acrt_update_locale_info  000000018001ad44 f   libucrt:locale_update.obj
 0001:00019d78       __acrt_update_locale_info_explicit 000000018001ad78 f   libucrt:locale_update.obj
 0001:00019db0       __acrt_update_multibyte_info 000000018001adb0 f   libucrt:locale_update.obj
 0001:00019de4       __acrt_update_multibyte_info_explicit 000000018001ade4 f   libucrt:locale_update.obj
 0001:0001a94c       __acrt_fp_format           000000018001b94c f   libucrt:cvt.obj
 0001:0001ac34       _mbtowc_internal           000000018001bc34 f   libucrt:mbtowc.obj
 0001:0001adac       _fileno                    000000018001bdac f   libucrt:fileno.obj
 0001:0001add4       __acrt_initialize_stdio    000000018001bdd4 f   libucrt:_file.obj
 0001:0001aef4       __acrt_uninitialize_stdio  000000018001bef4 f   libucrt:_file.obj
 0001:0001af50       _lock_file                 000000018001bf50 f   libucrt:_file.obj
 0001:0001af5c       _unlock_file               000000018001bf5c f   libucrt:_file.obj
 0001:0001af68       _get_printf_count_output   000000018001bf68 f   libucrt:printf_count_output.obj
 0001:0001b178       __acrt_initialize_lowio    000000018001c178 f   libucrt:ioinit.obj
 0001:0001b1b4       __acrt_uninitialize_lowio  000000018001c1b4 f   libucrt:ioinit.obj
 0001:0001b1f4       __acrt_initialize_locks    000000018001c1f4 f   libucrt:locks.obj
 0001:0001b23c       __acrt_lock                000000018001c23c f   libucrt:locks.obj
 0001:0001b258       __acrt_uninitialize_locks  000000018001c258 f   libucrt:locks.obj
 0001:0001b290       __acrt_unlock              000000018001c290 f   libucrt:locks.obj
 0001:0001b2ac       __acrt_get_process_end_policy 000000018001c2ac f   libucrt:win_policies.obj
 0001:0001b2fc       ??$__acrt_convert_wcs_mbs_cp@D_WV<lambda_7c9dea7b4ca7285d2cdb541a38da6275>@@U__crt_win32_buffer_internal_dynamic_resizing@@@@YAHQEBDAEAV?$__crt_win32_buffer@_WU__crt_win32_buffer_internal_dynamic_resizing@@@@AEBV<lambda_7c9dea7b4ca7285d2cdb541a38da6275>@@I@Z 000000018001c2fc f i libucrt:argv_wildcards.obj
 0001:0001b478       ??$__acrt_convert_wcs_mbs_cp@_WDV<lambda_d8593a27d1aa8c02be35c86a17d324c4>@@U__crt_win32_buffer_internal_dynamic_resizing@@@@YAHQEB_WAEAV?$__crt_win32_buffer@DU__crt_win32_buffer_internal_dynamic_resizing@@@@AEBV<lambda_d8593a27d1aa8c02be35c86a17d324c4>@@I@Z 000000018001c478 f i libucrt:argv_wildcards.obj
 0001:0001bd20       ??0_LocaleUpdate@@QEAA@QEAU__crt_locale_pointers@@@Z 000000018001cd20 f i libucrt:argv_wildcards.obj
 0001:0001bdbc       __acrt_expand_narrow_argv_wildcards 000000018001cdbc f   libucrt:argv_wildcards.obj
 0001:0001bdc4       ??$__acrt_convert_wcs_mbs_cp@_WDV<lambda_f788ae46380686e8b737efdd8c720d07>@@U__crt_win32_buffer_no_resizing@@@@YAHQEB_WAEAV?$__crt_win32_buffer@DU__crt_win32_buffer_no_resizing@@@@AEBV<lambda_f788ae46380686e8b737efdd8c720d07>@@I@Z 000000018001cdc4 f i libucrt:getmodulefilenamea.obj
 0001:0001bee0       __acrt_GetModuleFileNameA  000000018001cee0 f   libucrt:getmodulefilenamea.obj
 0001:0001c7fc       __acrt_initialize_multibyte 000000018001d7fc f   libucrt:mbctype.obj
 0001:0001c85c       __acrt_update_thread_multibyte_data 000000018001d85c f   libucrt:mbctype.obj
 0001:0001c878       _setmbcp_nolock            000000018001d878 f   libucrt:mbctype.obj
 0001:0001cbac       _ismbblead                 000000018001dbac f   libucrt:ismbbyte.obj
 0001:0001cbc0       __acrt_initialize_command_line 000000018001dbc0 f   libucrt:argv_data.obj
 0001:0001cbe8       __acrt_MultiByteToWideChar 000000018001dbe8 f   libucrt:multibytetowidechar.obj
 0001:0001cc44       __acrt_WideCharToMultiByte 000000018001dc44 f   libucrt:widechartomultibyte.obj
 0001:0001ccf4       __dcrt_get_narrow_environment_from_os 000000018001dcf4 f   libucrt:get_environment_from_os.obj
 0001:0001ce04       __acrt_initialize_heap     000000018001de04 f   libucrt:heap_handle.obj
 0001:0001ce20       __acrt_uninitialize_heap   000000018001de20 f   libucrt:heap_handle.obj
 0001:0001ce2c       __acrt_execute_initializers 000000018001de2c f   libucrt:shared_initialization.obj
 0001:0001cec0       __acrt_execute_uninitializers 000000018001dec0 f   libucrt:shared_initialization.obj
 0001:0001cf50       __acrt_get_sigabrt_handler 000000018001df50 f   libucrt:signal.obj
 0001:0001cf80       __acrt_initialize_signal_handlers 000000018001df80 f   libucrt:signal.obj
 0001:0001cfa0       raise                      000000018001dfa0 f   libucrt:signal.obj
 0001:0001d220       __acrt_has_user_matherr    000000018001e220 f   libucrt:matherr.obj
 0001:0001d240       __acrt_initialize_user_matherr 000000018001e240 f   libucrt:matherr.obj
 0001:0001d248       __acrt_invoke_user_matherr 000000018001e248 f   libucrt:matherr.obj
 0001:0001d45c       __acrt_stdio_flush_nolock  000000018001e45c f   libucrt:fflush.obj
 0001:0001d4e8       _fflush_nolock             000000018001e4e8 f   libucrt:fflush.obj
 0001:0001d5bc       _flushall                  000000018001e5bc f   libucrt:fflush.obj
 0001:0001d5c4       __acrt_add_locale_ref      000000018001e5c4 f   libucrt:locale_refcounting.obj
 0001:0001d650       __acrt_free_locale         000000018001e650 f   libucrt:locale_refcounting.obj
 0001:0001d7c8       __acrt_locale_add_lc_time_reference 000000018001e7c8 f   libucrt:locale_refcounting.obj
 0001:0001d7f0       __acrt_locale_free_lc_time_if_unreferenced 000000018001e7f0 f   libucrt:locale_refcounting.obj
 0001:0001d828       __acrt_locale_release_lc_time_reference 000000018001e828 f   libucrt:locale_refcounting.obj
 0001:0001d850       __acrt_release_locale_ref  000000018001e850 f   libucrt:locale_refcounting.obj
 0001:0001d8f8       __acrt_update_thread_locale_data 000000018001e8f8 f   libucrt:locale_refcounting.obj
 0001:0001d968       _updatetlocinfoEx_nolock   000000018001e968 f   libucrt:locale_refcounting.obj
 0001:0001d9d0       __acrt_locale_free_monetary 000000018001e9d0 f   libucrt:initmon.obj
 0001:0001dadc       __acrt_locale_free_numeric 000000018001eadc f   libucrt:initnum.obj
 0001:0001db7c       __acrt_locale_free_time    000000018001eb7c f   libucrt:inittime.obj
 0001:0001dc84       __acrt_GetStringTypeA      000000018001ec84 f   libucrt:getstringtypea.obj
 0001:0001de20       _query_new_mode            000000018001ee20 f   libucrt:new_mode.obj
 0001:0001de28       __acrt_DownlevelLocaleNameToLCID 000000018001ee28 f   libucrt:lcidtoname_downlevel.obj
 0001:0001ded0       __acrt_fp_strflt_to_string 000000018001eed0 f   libucrt:_fptostr.obj
 0001:0001e060       ?divide@__crt_strtox@@YA_KAEAUbig_integer@1@AEBU21@@Z 000000018001f060 f i libucrt:cfout.obj
 0001:0001e4ec       __acrt_fltout              000000018001f4ec f   libucrt:cfout.obj
 0001:0001f7b4       fegetround                 00000001800207b4 f   libucrt:fegetround.obj
 0001:0001f7c8       ?__mbrtowc_utf8@__crt_mbstring@@YA_KPEA_WPEBD_KPEAU_Mbstatet@@AEAV__crt_cached_ptd_host@@@Z 00000001800207c8 f   libucrt:mbrtowc.obj
 0001:0001f80c       ?__mbsrtowcs_utf8@__crt_mbstring@@YA_KPEA_WPEAPEBD_KPEAU_Mbstatet@@AEAV__crt_cached_ptd_host@@@Z 000000018002080c f   libucrt:mbrtowc.obj
 0001:0001f9b0       _fcloseall                 00000001800209b0 f   libucrt:closeall.obj
 0001:0001fa64       __acrt_stdio_free_buffer_nolock 0000000180020a64 f   libucrt:_freebuf.obj
 0001:0001faa4       _isatty                    0000000180020aa4 f   libucrt:isatty.obj
 0001:0001fb04       __acrt_lowio_create_handle_array 0000000180020b04 f   libucrt:osfinfo.obj
 0001:0001fbac       __acrt_lowio_destroy_handle_array 0000000180020bac f   libucrt:osfinfo.obj
 0001:0001fbfc       __acrt_lowio_ensure_fh_exists 0000000180020bfc f   libucrt:osfinfo.obj
 0001:0001fca4       __acrt_lowio_lock_fh       0000000180020ca4 f   libucrt:osfinfo.obj
 0001:0001fccc       __acrt_lowio_unlock_fh     0000000180020ccc f   libucrt:osfinfo.obj
 0001:0001fcf4       _free_osfhnd               0000000180020cf4 f   libucrt:osfinfo.obj
 0001:0001fdb0       _get_osfhandle             0000000180020db0 f   libucrt:osfinfo.obj
 0001:0001fe30       qsort                      0000000180020e30 f   libucrt:qsort.obj
 0001:00020240       strncpy_s                  0000000180021240 f   libucrt:strncpy_s.obj
 0001:000203d0       strpbrk                    00000001800213d0 f   libucrt:strpbrk.obj
 0001:00020798       _mbsdec                    0000000180021798 f   libucrt:mbsdec.obj
 0001:000207a0       _mbsdec_l                  00000001800217a0 f   libucrt:mbsdec.obj
 0001:00020b54       __acrt_LCMapStringA        0000000180021b54 f   libucrt:lcmapstringa.obj
 0001:00020c90       _commit                    0000000180021c90 f   libucrt:commit.obj
 0001:00021540       _write_internal            0000000180022540 f   libucrt:write.obj
 0001:00021668       _write_nolock              0000000180022668 f   libucrt:write.obj
 0001:00021978       __ascii_wcsnicmp           0000000180022978 f   libucrt:wcsnicmp.obj
 0001:000219c4       _controlfp_s               00000001800229c4 f   libucrt:contrlfp.obj
 0001:00021a28       fegetenv                   0000000180022a28 f   libucrt:fegetenv.obj
 0001:00021a48       fesetenv                   0000000180022a48 f   libucrt:fesetenv.obj
 0001:00021a94       feholdexcept               0000000180022a94 f   libucrt:feholdexcept.obj
 0001:00021ae4       ceil                       0000000180022ae4 f   libucrt:ceil.obj
 0001:00021bb0       log10                      0000000180022bb0 f   libucrt:log10.obj
 0001:0002215c       __acrt_fenv_get_common_round_control 000000018002315c f   libucrt:_fenvutils.obj
 0001:00022168       __acrt_fenv_get_control    0000000180023168 f   libucrt:_fenvutils.obj
 0001:0002224c       __acrt_fenv_get_status     000000018002324c f   libucrt:_fenvutils.obj
 0001:000222a4       __acrt_fenv_set_control    00000001800232a4 f   libucrt:_fenvutils.obj
 0001:000223e0       __acrt_fenv_set_status     00000001800233e0 f   libucrt:_fenvutils.obj
 0001:00022454       ?reset_and_return@__crt_mbstring@@YA_K_KPEAU_Mbstatet@@@Z 0000000180023454 f   libucrt:common_utf8.obj
 0001:0002245c       ?return_illegal_sequence@__crt_mbstring@@YA_KPEAU_Mbstatet@@AEAV__crt_cached_ptd_host@@@Z 000000018002345c f   libucrt:common_utf8.obj
 0001:00022470       ?__mbrtoc32_utf8@__crt_mbstring@@YA_KPEA_UPEBD_KPEAU_Mbstatet@@AEAV__crt_cached_ptd_host@@@Z 0000000180023470 f   libucrt:mbrtoc32.obj
 0001:0002276c       fclose                     000000018002376c f   libucrt:fclose.obj
 0001:000228b0       _lseeki64_nolock_internal  00000001800238b0 f   libucrt:lseek.obj
 0001:000228b8       _query_app_type            00000001800238b8 f   libucrt:report_runtime_error.obj
 0001:000228c0       __strncnt                  00000001800238c0 f   libucrt:strncnt.obj
 0001:000228d8       _putwch_nolock             00000001800238d8 f   libucrt:putwch.obj
 0001:00022914       _clearfp                   0000000180023914 f   libucrt:ieee.obj
 0001:00022984       _control87                 0000000180023984 f   libucrt:ieee.obj
 0001:00022d70       _handle_error              0000000180023d70 f   libucrt:libm_error.obj
 0001:00022e98       _handle_nan                0000000180023e98 f   libucrt:libm_error.obj
 0001:00022ec0       __acrt_initialize_fma3     0000000180023ec0 f   libucrt:fma3_available.obj
 0001:00022f30       _log10_special             0000000180023f30 f   libucrt:log_special.obj
 0001:00023060       _close_internal            0000000180024060 f   libucrt:close.obj
 0001:00023124       _close_nolock_internal     0000000180024124 f   libucrt:close.obj
 0001:000231f4       ?__acrt_stdio_free_stream@@YAXV__crt_stdio_stream@@@Z 00000001800241f4 f   libucrt:stream.obj
 0001:00023210       __dcrt_lowio_ensure_console_output_initialized 0000000180024210 f   libucrt:initcon.obj
 0001:00023264       __dcrt_terminate_console_output 0000000180024264 f   libucrt:initcon.obj
 0001:00023280       __dcrt_write_console       0000000180024280 f   libucrt:initcon.obj
 0001:00023350       _get_fpsr                  0000000180024350 f   libucrt:fpsr.obj
 0001:00023360       _set_fpsr                  0000000180024360 f   libucrt:fpsr.obj
 0001:0002336a       _fclrf                     000000018002436a f   libucrt:fpsr.obj
 0001:0002337e       _frnd                      000000018002437e f   libucrt:fpsr.obj
 0001:000233a0       _raise_exc                 00000001800243a0 f   libucrt:fpexcept.obj
 0001:000233c8       _raise_exc_ex              00000001800243c8 f   libucrt:fpexcept.obj
 0001:000236d8       _set_errno_from_matherr    00000001800246d8 f   libucrt:fpexcept.obj
 0001:00023708       _clrfp                     0000000180024708 f   libucrt:fpctrl.obj
 0001:00023728       _ctrlfp                    0000000180024728 f   libucrt:fpctrl.obj
 0001:000237a4       _set_statfp                00000001800247a4 f   libucrt:fpctrl.obj
 0001:000237c4       _statfp                    00000001800247c4 f   libucrt:fpctrl.obj
 0001:000237e0       _FindPESection             00000001800247e0 f   LIBCMT:pesect.obj
 0001:00023830       _IsNonwritableInCurrentImage 0000000180024830 f   LIBCMT:pesect.obj
 0001:00023880       _ValidateImageBase         0000000180024880 f   LIBCMT:pesect.obj
 0001:000238ac       __GSHandlerCheck_EH        00000001800248ac f   LIBCMT:gshandlereh.obj
 0001:0002392c       __C_specific_handler_noexcept 000000018002492c f   libvcruntime:chandler_noexcept.obj
 0001:00023978       strrchr                    0000000180024978 f   libvcruntime:strrchr.obj
 0001:00023ad0       _guard_dispatch_icall_nop  0000000180024ad0 f   LIBCMT:guard_dispatch.obj
 0001:00023af0       _guard_xfg_dispatch_icall_nop 0000000180024af0 f   LIBCMT:guard_xfg_dispatch.obj
 0002:00000000       __imp_RegQueryValueExW     0000000180026000     advapi32:ADVAPI32.dll
 0002:00000008       __imp_RegSetValueExW       0000000180026008     advapi32:ADVAPI32.dll
 0002:00000010       __imp_RegQueryInfoKeyW     0000000180026010     advapi32:ADVAPI32.dll
 0002:00000018       __imp_RegOpenKeyExW        0000000180026018     advapi32:ADVAPI32.dll
 0002:00000020       __imp_RegEnumKeyExW        0000000180026020     advapi32:ADVAPI32.dll
 0002:00000028       __imp_RegDeleteValueW      0000000180026028     advapi32:ADVAPI32.dll
 0002:00000030       __imp_RegDeleteKeyW        0000000180026030     advapi32:ADVAPI32.dll
 0002:00000038       __imp_RegCreateKeyExW      0000000180026038     advapi32:ADVAPI32.dll
 0002:00000040       __imp_RegCloseKey          0000000180026040     advapi32:ADVAPI32.dll
 0002:00000048       \177ADVAPI32_NULL_THUNK_DATA 0000000180026048     advapi32:ADVAPI32.dll
 0002:00000050       __imp_GetObjectW           0000000180026050     gdi32:GDI32.dll
 0002:00000058       __imp_SelectObject         0000000180026058     gdi32:GDI32.dll
 0002:00000060       __imp_DeleteObject         0000000180026060     gdi32:GDI32.dll
 0002:00000068       __imp_CreateCompatibleDC   0000000180026068     gdi32:GDI32.dll
 0002:00000070       __imp_BitBlt               0000000180026070     gdi32:GDI32.dll
 0002:00000078       __imp_SetWindowOrgEx       0000000180026078     gdi32:GDI32.dll
 0002:00000080       __imp_SetWindowExtEx       0000000180026080     gdi32:GDI32.dll
 0002:00000088       __imp_SetViewportOrgEx     0000000180026088     gdi32:GDI32.dll
 0002:00000090       __imp_LPtoDP               0000000180026090     gdi32:GDI32.dll
 0002:00000098       __imp_SetMapMode           0000000180026098     gdi32:GDI32.dll
 0002:000000a0       __imp_SaveDC               00000001800260a0     gdi32:GDI32.dll
 0002:000000a8       __imp_RestoreDC            00000001800260a8     gdi32:GDI32.dll
 0002:000000b0       __imp_GetDeviceCaps        00000001800260b0     gdi32:GDI32.dll
 0002:000000b8       __imp_DeleteMetaFile       00000001800260b8     gdi32:GDI32.dll
 0002:000000c0       __imp_DeleteDC             00000001800260c0     gdi32:GDI32.dll
 0002:000000c8       __imp_CreateRectRgnIndirect 00000001800260c8     gdi32:GDI32.dll
 0002:000000d0       __imp_CreateMetaFileW      00000001800260d0     gdi32:GDI32.dll
 0002:000000d8       __imp_CreateDCW            00000001800260d8     gdi32:GDI32.dll
 0002:000000e0       __imp_CloseMetaFile        00000001800260e0     gdi32:GDI32.dll
 0002:000000e8       \177GDI32_NULL_THUNK_DATA  00000001800260e8     gdi32:GDI32.dll
 0002:000000f0       __imp_CloseHandle          00000001800260f0     kernel32:KERNEL32.dll
 0002:000000f8       __imp_SetEvent             00000001800260f8     kernel32:KERNEL32.dll
 0002:00000100       __imp_CreateMutexW         0000000180026100     kernel32:KERNEL32.dll
 0002:00000108       __imp_CreateEventW         0000000180026108     kernel32:KERNEL32.dll
 0002:00000110       __imp_GetCurrentProcessId  0000000180026110     kernel32:KERNEL32.dll
 0002:00000118       __imp_WriteConsoleW        0000000180026118     kernel32:KERNEL32.dll
 0002:00000120       __imp_CreateFileW          0000000180026120     kernel32:KERNEL32.dll
 0002:00000128       __imp_GetConsoleMode       0000000180026128     kernel32:KERNEL32.dll
 0002:00000130       __imp_GetConsoleOutputCP   0000000180026130     kernel32:KERNEL32.dll
 0002:00000138       __imp_WriteFile            0000000180026138     kernel32:KERNEL32.dll
 0002:00000140       __imp_FlushFileBuffers     0000000180026140     kernel32:KERNEL32.dll
 0002:00000148       __imp_SetStdHandle         0000000180026148     kernel32:KERNEL32.dll
 0002:00000150       __imp_SetFilePointerEx     0000000180026150     kernel32:KERNEL32.dll
 0002:00000158       __imp_GetStringTypeW       0000000180026158     kernel32:KERNEL32.dll
 0002:00000160       __imp_FreeEnvironmentStringsW 0000000180026160     kernel32:KERNEL32.dll
 0002:00000168       __imp_lstrcmpiW            0000000180026168     kernel32:KERNEL32.dll
 0002:00000170       __imp_GetCommandLineW      0000000180026170     kernel32:KERNEL32.dll
 0002:00000178       __imp_GetCommandLineA      0000000180026178     kernel32:KERNEL32.dll
 0002:00000180       __imp_GetCPInfo            0000000180026180     kernel32:KERNEL32.dll
 0002:00000188       __imp_GetOEMCP             0000000180026188     kernel32:KERNEL32.dll
 0002:00000190       __imp_GetACP               0000000180026190     kernel32:KERNEL32.dll
 0002:00000198       __imp_IsValidCodePage      0000000180026198     kernel32:KERNEL32.dll
 0002:000001a0       __imp_FindNextFileW        00000001800261a0     kernel32:KERNEL32.dll
 0002:000001a8       __imp_FindFirstFileExW     00000001800261a8     kernel32:KERNEL32.dll
 0002:000001b0       __imp_FindClose            00000001800261b0     kernel32:KERNEL32.dll
 0002:000001b8       __imp_GetFileType          00000001800261b8     kernel32:KERNEL32.dll
 0002:000001c0       __imp_GetStdHandle         00000001800261c0     kernel32:KERNEL32.dll
 0002:000001c8       __imp_LCMapStringW         00000001800261c8     kernel32:KERNEL32.dll
 0002:000001d0       __imp_FlsFree              00000001800261d0     kernel32:KERNEL32.dll
 0002:000001d8       __imp_FlsSetValue          00000001800261d8     kernel32:KERNEL32.dll
 0002:000001e0       __imp_MulDiv               00000001800261e0     kernel32:KERNEL32.dll
 0002:000001e8       __imp_GlobalLock           00000001800261e8     kernel32:KERNEL32.dll
 0002:000001f0       __imp_GlobalUnlock         00000001800261f0     kernel32:KERNEL32.dll
 0002:000001f8       __imp_GlobalAlloc          00000001800261f8     kernel32:KERNEL32.dll
 0002:00000200       __imp_FindResourceW        0000000180026200     kernel32:KERNEL32.dll
 0002:00000208       __imp_SizeofResource       0000000180026208     kernel32:KERNEL32.dll
 0002:00000210       __imp_LoadResource         0000000180026210     kernel32:KERNEL32.dll
 0002:00000218       __imp_LoadLibraryExW       0000000180026218     kernel32:KERNEL32.dll
 0002:00000220       __imp_GetProcAddress       0000000180026220     kernel32:KERNEL32.dll
 0002:00000228       __imp_GetModuleHandleW     0000000180026228     kernel32:KERNEL32.dll
 0002:00000230       __imp_GetModuleFileNameW   0000000180026230     kernel32:KERNEL32.dll
 0002:00000238       __imp_FreeLibrary          0000000180026238     kernel32:KERNEL32.dll
 0002:00000240       __imp_DisableThreadLibraryCalls 0000000180026240     kernel32:KERNEL32.dll
 0002:00000248       __imp_GetCurrentThreadId   0000000180026248     kernel32:KERNEL32.dll
 0002:00000250       __imp_Sleep                0000000180026250     kernel32:KERNEL32.dll
 0002:00000258       __imp_WaitForSingleObject  0000000180026258     kernel32:KERNEL32.dll
 0002:00000260       __imp_ReleaseMutex         0000000180026260     kernel32:KERNEL32.dll
 0002:00000268       __imp_ResetEvent           0000000180026268     kernel32:KERNEL32.dll
 0002:00000270       __imp_EnterCriticalSection 0000000180026270     kernel32:KERNEL32.dll
 0002:00000278       __imp_LeaveCriticalSection 0000000180026278     kernel32:KERNEL32.dll
 0002:00000280       __imp_SetLastError         0000000180026280     kernel32:KERNEL32.dll
 0002:00000288       __imp_EncodePointer        0000000180026288     kernel32:KERNEL32.dll
 0002:00000290       __imp_DeleteCriticalSection 0000000180026290     kernel32:KERNEL32.dll
 0002:00000298       __imp_InitializeCriticalSectionEx 0000000180026298     kernel32:KERNEL32.dll
 0002:000002a0       __imp_GetLastError         00000001800262a0     kernel32:KERNEL32.dll
 0002:000002a8       __imp_RaiseException       00000001800262a8     kernel32:KERNEL32.dll
 0002:000002b0       __imp_DecodePointer        00000001800262b0     kernel32:KERNEL32.dll
 0002:000002b8       __imp_WideCharToMultiByte  00000001800262b8     kernel32:KERNEL32.dll
 0002:000002c0       __imp_GetEnvironmentStringsW 00000001800262c0     kernel32:KERNEL32.dll
 0002:000002c8       __imp_MultiByteToWideChar  00000001800262c8     kernel32:KERNEL32.dll
 0002:000002d0       __imp_FlsGetValue          00000001800262d0     kernel32:KERNEL32.dll
 0002:000002d8       __imp_FlsAlloc             00000001800262d8     kernel32:KERNEL32.dll
 0002:000002e0       __imp_HeapReAlloc          00000001800262e0     kernel32:KERNEL32.dll
 0002:000002e8       __imp_HeapSize             00000001800262e8     kernel32:KERNEL32.dll
 0002:000002f0       __imp_GetModuleHandleExW   00000001800262f0     kernel32:KERNEL32.dll
 0002:000002f8       __imp_ExitProcess          00000001800262f8     kernel32:KERNEL32.dll
 0002:00000300       __imp_VirtualQuery         0000000180026300     kernel32:KERNEL32.dll
 0002:00000308       __imp_VirtualProtect       0000000180026308     kernel32:KERNEL32.dll
 0002:00000310       __imp_GetSystemInfo        0000000180026310     kernel32:KERNEL32.dll
 0002:00000318       __imp_TlsFree              0000000180026318     kernel32:KERNEL32.dll
 0002:00000320       __imp_TlsSetValue          0000000180026320     kernel32:KERNEL32.dll
 0002:00000328       __imp_TlsGetValue          0000000180026328     kernel32:KERNEL32.dll
 0002:00000330       __imp_TlsAlloc             0000000180026330     kernel32:KERNEL32.dll
 0002:00000338       __imp_RtlPcToFileHeader    0000000180026338     kernel32:KERNEL32.dll
 0002:00000340       __imp_InterlockedFlushSList 0000000180026340     kernel32:KERNEL32.dll
 0002:00000348       __imp_RtlUnwindEx          0000000180026348     kernel32:KERNEL32.dll
 0002:00000350       __imp_LoadLibraryExA       0000000180026350     kernel32:KERNEL32.dll
 0002:00000358       __imp_VirtualFree          0000000180026358     kernel32:KERNEL32.dll
 0002:00000360       __imp_VirtualAlloc         0000000180026360     kernel32:KERNEL32.dll
 0002:00000368       __imp_FlushInstructionCache 0000000180026368     kernel32:KERNEL32.dll
 0002:00000370       __imp_InterlockedPushEntrySList 0000000180026370     kernel32:KERNEL32.dll
 0002:00000378       __imp_InterlockedPopEntrySList 0000000180026378     kernel32:KERNEL32.dll
 0002:00000380       __imp_GetProcessHeap       0000000180026380     kernel32:KERNEL32.dll
 0002:00000388       __imp_HeapFree             0000000180026388     kernel32:KERNEL32.dll
 0002:00000390       __imp_HeapAlloc            0000000180026390     kernel32:KERNEL32.dll
 0002:00000398       __imp_OutputDebugStringW   0000000180026398     kernel32:KERNEL32.dll
 0002:000003a0       __imp_InitializeSListHead  00000001800263a0     kernel32:KERNEL32.dll
 0002:000003a8       __imp_GetSystemTimeAsFileTime 00000001800263a8     kernel32:KERNEL32.dll
 0002:000003b0       __imp_QueryPerformanceCounter 00000001800263b0     kernel32:KERNEL32.dll
 0002:000003b8       __imp_GetStartupInfoW      00000001800263b8     kernel32:KERNEL32.dll
 0002:000003c0       __imp_InitializeCriticalSectionAndSpinCount 00000001800263c0     kernel32:KERNEL32.dll
 0002:000003c8       __imp_WaitForSingleObjectEx 00000001800263c8     kernel32:KERNEL32.dll
 0002:000003d0       __imp_RtlCaptureContext    00000001800263d0     kernel32:KERNEL32.dll
 0002:000003d8       __imp_RtlLookupFunctionEntry 00000001800263d8     kernel32:KERNEL32.dll
 0002:000003e0       __imp_RtlVirtualUnwind     00000001800263e0     kernel32:KERNEL32.dll
 0002:000003e8       __imp_UnhandledExceptionFilter 00000001800263e8     kernel32:KERNEL32.dll
 0002:000003f0       __imp_SetUnhandledExceptionFilter 00000001800263f0     kernel32:KERNEL32.dll
 0002:000003f8       __imp_GetCurrentProcess    00000001800263f8     kernel32:KERNEL32.dll
 0002:00000400       __imp_TerminateProcess     0000000180026400     kernel32:KERNEL32.dll
 0002:00000408       __imp_IsProcessorFeaturePresent 0000000180026408     kernel32:KERNEL32.dll
 0002:00000410       __imp_IsDebuggerPresent    0000000180026410     kernel32:KERNEL32.dll
 0002:00000418       \177KERNEL32_NULL_THUNK_DATA 0000000180026418     kernel32:KERNEL32.dll
 0002:00000420       __imp_OleCreatePropertyFrame 0000000180026420     oleaut32:OLEAUT32.dll
 0002:00000428       __imp_UnRegisterTypeLib    0000000180026428     oleaut32:OLEAUT32.dll
 0002:00000430       __imp_RegisterTypeLib      0000000180026430     oleaut32:OLEAUT32.dll
 0002:00000438       __imp_LoadRegTypeLib       0000000180026438     oleaut32:OLEAUT32.dll
 0002:00000440       __imp_LoadTypeLib          0000000180026440     oleaut32:OLEAUT32.dll
 0002:00000448       __imp_VarUI4FromStr        0000000180026448     oleaut32:OLEAUT32.dll
 0002:00000450       __imp_VariantInit          0000000180026450     oleaut32:OLEAUT32.dll
 0002:00000458       __imp_SysAllocStringByteLen 0000000180026458     oleaut32:OLEAUT32.dll
 0002:00000460       __imp_SysStringByteLen     0000000180026460     oleaut32:OLEAUT32.dll
 0002:00000468       __imp_VariantChangeType    0000000180026468     oleaut32:OLEAUT32.dll
 0002:00000470       __imp_VariantClear         0000000180026470     oleaut32:OLEAUT32.dll
 0002:00000478       __imp_SysStringLen         0000000180026478     oleaut32:OLEAUT32.dll
 0002:00000480       __imp_SysFreeString        0000000180026480     oleaut32:OLEAUT32.dll
 0002:00000488       __imp_SysAllocStringLen    0000000180026488     oleaut32:OLEAUT32.dll
 0002:00000490       __imp_SysAllocString       0000000180026490     oleaut32:OLEAUT32.dll
 0002:00000498       \177OLEAUT32_NULL_THUNK_DATA 0000000180026498     oleaut32:OLEAUT32.dll
 0002:000004a0       __imp_UnregisterClassW     00000001800264a0     user32:USER32.dll
 0002:000004a8       __imp_PostMessageW         00000001800264a8     user32:USER32.dll
 0002:000004b0       __imp_DefWindowProcW       00000001800264b0     user32:USER32.dll
 0002:000004b8       __imp_CallWindowProcW      00000001800264b8     user32:USER32.dll
 0002:000004c0       __imp_RegisterClassExW     00000001800264c0     user32:USER32.dll
 0002:000004c8       __imp_GetClassInfoExW      00000001800264c8     user32:USER32.dll
 0002:000004d0       __imp_CreateWindowExW      00000001800264d0     user32:USER32.dll
 0002:000004d8       __imp_IsWindow             00000001800264d8     user32:USER32.dll
 0002:000004e0       __imp_IsChild              00000001800264e0     user32:USER32.dll
 0002:000004e8       __imp_DestroyWindow        00000001800264e8     user32:USER32.dll
 0002:000004f0       __imp_ShowWindow           00000001800264f0     user32:USER32.dll
 0002:000004f8       __imp_SetWindowPos         00000001800264f8     user32:USER32.dll
 0002:00000500       __imp_CharNextW            0000000180026500     user32:USER32.dll
 0002:00000508       __imp_SetFocus             0000000180026508     user32:USER32.dll
 0002:00000510       __imp_LoadBitmapW          0000000180026510     user32:USER32.dll
 0002:00000518       __imp_RegisterClassW       0000000180026518     user32:USER32.dll
 0002:00000520       __imp_PeekMessageW         0000000180026520     user32:USER32.dll
 0002:00000528       __imp_LoadCursorW          0000000180026528     user32:USER32.dll
 0002:00000530       __imp_GetParent            0000000180026530     user32:USER32.dll
 0002:00000538       __imp_SetWindowLongPtrW    0000000180026538     user32:USER32.dll
 0002:00000540       __imp_GetWindowLongPtrW    0000000180026540     user32:USER32.dll
 0002:00000548       __imp_PtInRect             0000000180026548     user32:USER32.dll
 0002:00000550       __imp_EqualRect            0000000180026550     user32:USER32.dll
 0002:00000558       __imp_OffsetRect           0000000180026558     user32:USER32.dll
 0002:00000560       __imp_UnionRect            0000000180026560     user32:USER32.dll
 0002:00000568       __imp_IntersectRect        0000000180026568     user32:USER32.dll
 0002:00000570       __imp_GetClientRect        0000000180026570     user32:USER32.dll
 0002:00000578       __imp_InvalidateRect       0000000180026578     user32:USER32.dll
 0002:00000580       __imp_SetWindowRgn         0000000180026580     user32:USER32.dll
 0002:00000588       __imp_EndPaint             0000000180026588     user32:USER32.dll
 0002:00000590       __imp_BeginPaint           0000000180026590     user32:USER32.dll
 0002:00000598       __imp_ReleaseDC            0000000180026598     user32:USER32.dll
 0002:000005a0       __imp_GetDC                00000001800265a0     user32:USER32.dll
 0002:000005a8       __imp_GetKeyState          00000001800265a8     user32:USER32.dll
 0002:000005b0       __imp_GetFocus             00000001800265b0     user32:USER32.dll
 0002:000005b8       \177USER32_NULL_THUNK_DATA 00000001800265b8     user32:USER32.dll
 0002:000005c0       __imp_CoCreateInstance     00000001800265c0     ole32:ole32.dll
 0002:000005c8       __imp_StringFromGUID2      00000001800265c8     ole32:ole32.dll
 0002:000005d0       __imp_CoTaskMemAlloc       00000001800265d0     ole32:ole32.dll
 0002:000005d8       __imp_CoTaskMemRealloc     00000001800265d8     ole32:ole32.dll
 0002:000005e0       __imp_CoTaskMemFree        00000001800265e0     ole32:ole32.dll
 0002:000005e8       __imp_WriteClassStm        00000001800265e8     ole32:ole32.dll
 0002:000005f0       __imp_CreateDataAdviseHolder 00000001800265f0     ole32:ole32.dll
 0002:000005f8       __imp_OleSaveToStream      00000001800265f8     ole32:ole32.dll
 0002:00000600       __imp_CreateOleAdviseHolder 0000000180026600     ole32:ole32.dll
 0002:00000608       __imp_OleRegGetUserType    0000000180026608     ole32:ole32.dll
 0002:00000610       __imp_OleRegGetMiscStatus  0000000180026610     ole32:ole32.dll
 0002:00000618       __imp_OleRegEnumVerbs      0000000180026618     ole32:ole32.dll
 0002:00000620       __imp_CLSIDFromProgID      0000000180026620     ole32:ole32.dll
 0002:00000628       __imp_ReadClassStm         0000000180026628     ole32:ole32.dll
 0002:00000630       \177ole32_NULL_THUNK_DATA  0000000180026630     ole32:ole32.dll
 0002:00000638       __guard_check_icall_fptr   0000000180026638     LIBCMT:guard_support.obj
 0002:00000640       __guard_xfg_check_icall_fptr 0000000180026640     LIBCMT:guard_support.obj
 0002:00000648       __guard_dispatch_icall_fptr 0000000180026648     LIBCMT:guard_support.obj
 0002:00000650       __guard_xfg_dispatch_icall_fptr 0000000180026650     LIBCMT:guard_support.obj
 0002:00000658       __guard_xfg_table_dispatch_icall_fptr 0000000180026658     LIBCMT:guard_support.obj
 0002:00000660       __castguard_check_failure_os_handled_fptr 0000000180026660     LIBCMT:guard_support.obj
 0002:00000668       __xc_a                     0000000180026668     LIBCMT:initializers.obj
 0002:00000698       __xc_z                     0000000180026698     LIBCMT:initializers.obj
 0002:000006a0       __xi_a                     00000001800266a0     LIBCMT:initializers.obj
 0002:000006b0       __acrt_stdio_initializer   00000001800266b0     libucrt:stdio_initializer.obj
 0002:000006b8       __acrt_multibyte_initializer 00000001800266b8     libucrt:multibyte_initializer.obj
 0002:000006c0       __acrt_tran_fma3_initializer 00000001800266c0     libucrt:fma3_initializer.obj
 0002:000006c8       __xi_z                     00000001800266c8     LIBCMT:initializers.obj
 0002:000006d0       __xl_a                     00000001800266d0     LIBCMT:tlssup.obj
 0002:000006d8       __xl_z                     00000001800266d8     LIBCMT:tlssup.obj
 0002:000006e0       __xp_a                     00000001800266e0     LIBCMT:initializers.obj
 0002:000006e8       __acrt_locale_terminator   00000001800266e8     libucrt:locale_initializer.obj
 0002:000006f0       __dcrt_console_output_terminator 00000001800266f0     libucrt:console_output_initializer.obj
 0002:000006f8       __acrt_stdio_terminator    00000001800266f8     libucrt:stdio_initializer.obj
 0002:00000700       __xp_z                     0000000180026700     LIBCMT:initializers.obj
 0002:00000708       __xt_a                     0000000180026708     LIBCMT:initializers.obj
 0002:00000710       __xt_z                     0000000180026710     LIBCMT:initializers.obj
 0002:00000720       ??_C@_13HADIAKP@?$AAS@     0000000180026720     OposVariant.obj
 0002:00000724       ??_C@_13LHMFKAAD@?$AAM@    0000000180026724     OposVariant.obj
 0002:00000728       ??_C@_13MKMNOPIJ@?$AAD@    0000000180026728     OposVariant.obj
 0002:0000072c       ??_C@_13OPKGLAFF@?$AAB@    000000018002672c     OposVariant.obj
 0002:00000730       ??_C@_17LLMMEOJD@?$AAV?$AAa?$AAl@ 0000000180026730     OposVariant.obj
 0002:00000738       ??_C@_1BI@JFAIJMHL@?$AAF?$AAo?$AAr?$AAc?$AAe?$AAR?$AAe?$AAm?$AAo?$AAv?$AAe@ 0000000180026738     OposVariant.obj
 0002:00000750       ??_C@_1BC@GCKHIPE@?$AAN?$AAo?$AAR?$AAe?$AAm?$AAo?$AAv?$AAe@ 0000000180026750     OposVariant.obj
 0002:00000768       ??_C@_1O@JDLOHAN@?$AAD?$AAe?$AAl?$AAe?$AAt?$AAe@ 0000000180026768     OposVariant.obj
 0002:00000778       ??_C@_11LOCGONAA@@         0000000180026778     OposVariant.obj
 0002:00000780       ??_7?$CComObject@V?$CComEnum@UIEnumConnections@@$1?_GUID_b196b287_bab4_101a_b69c_00aa00341d07@@3U__s_GUID@@BUtagCONNECTDATA@@V?$_Copy@UtagCONNECTDATA@@@ATL@@VCComSingleThreadModel@6@@ATL@@@ATL@@6B@ 0000000180026780     POSKeyboard.obj
 0002:000007c0       _GUID_55980ba0_35aa_11cf_b671_00aa004cd6d8 00000001800267c0     POSKeyboard.obj
 0002:000007d0       _GUID_b196b28b_bab4_101a_b69c_00aa00341d07 00000001800267d0     POSKeyboard.obj
 0002:000007e0       ?_entries@?1??_GetEntries@?$CComEnum@UIEnumConnections@@$1?_GUID_b196b287_bab4_101a_b69c_00aa00341d07@@3U__s_GUID@@BUtagCONNECTDATA@@V?$_Copy@UtagCONNECTDATA@@@ATL@@VCComSingleThreadModel@6@@ATL@@SAPEBU_ATL_INTMAP_ENTRY@3@XZ@4QBU43@B 00000001800267e0     POSKeyboard.obj
 0002:00000810       ??_7CComClassFactory@ATL@@6B@ 0000000180026810     POSKeyboard.obj
 0002:00000840       ?_entries@?1??_GetEntries@CComClassFactory@ATL@@SAPEBU_ATL_INTMAP_ENTRY@3@XZ@4QBU43@B 0000000180026840     POSKeyboard.obj
 0002:00000870       _GUID_00000001_0000_0000_c000_000000000046 0000000180026870     POSKeyboard.obj
 0002:00000880       IID_IOPOSPOSKeyboard_1_5   0000000180026880     POSKeyboard.obj
 0002:00000890       IID_IOPOSPOSKeyboard_1_8   0000000180026890     POSKeyboard.obj
 0002:000008a0       IID_IOPOSPOSKeyboard_1_9   00000001800268a0     POSKeyboard.obj
 0002:000008b0       IID_IOPOSPOSKeyboard       00000001800268b0     POSKeyboard.obj
 0002:000008c0       LIBID_OposPOSKeyboard_CCO  00000001800268c0     POSKeyboard.obj
 0002:000008d0       DIID__IOPOSPOSKeyboardEvents 00000001800268d0     POSKeyboard.obj
 0002:000008e0       CLSID_OPOSPOSKeyboard      00000001800268e0     POSKeyboard.obj
 0002:000008f0       ??_C@_1BK@BIGILECK@?$AAA?$AAd?$AAv?$AAa?$AAp?$AAi?$AA3?$AA2?$AA?4?$AAd?$AAl?$AAl@ 00000001800268f0     POSKeyboard.obj
 0002:00000910       ??_C@_0BI@MNCFCPFK@RegCreateKeyTransactedW@ 0000000180026910     POSKeyboard.obj
 0002:00000928       _GUID_00000114_0000_0000_c000_000000000046 0000000180026928     POSKeyboard.obj
 0002:00000938       _GUID_b196b287_bab4_101a_b69c_00aa00341d07 0000000180026938     POSKeyboard.obj
 0002:00000948       _GUID_b196b285_bab4_101a_b69c_00aa00341d07 0000000180026948     POSKeyboard.obj
 0002:00000958       _GUID_a6bc3ac0_dbaa_11ce_9de3_00aa004bb851 0000000180026958     POSKeyboard.obj
 0002:00000968       _GUID_0000010c_0000_0000_c000_000000000046 0000000180026968     POSKeyboard.obj
 0002:00000978       _GUID_00000146_0000_0000_c000_000000000046 0000000180026978     POSKeyboard.obj
 0002:00000990       ?_entries@?1??_GetEntries@COPOSPOSKeyboard@@SAPEBU_ATL_INTMAP_ENTRY@ATL@@XZ@4QBU34@B 0000000180026990     POSKeyboard.obj
 0002:00000c00       _GUID_cf51ed10_62fe_11cf_bf86_00a0c9034836 0000000180026c00     POSKeyboard.obj
 0002:00000c10       _GUID_0000010a_0000_0000_c000_000000000046 0000000180026c10     POSKeyboard.obj
 0002:00000c20       _GUID_b196b283_bab4_101a_b69c_00aa00341d07 0000000180026c20     POSKeyboard.obj
 0002:00000c30       _GUID_cb5bdc81_93c1_11cf_8f20_00805f2cd064 0000000180026c30     POSKeyboard.obj
 0002:00000c40       ?pPropMap@?1??GetPropertyMap@COPOSPOSKeyboard@@SAPEBUATL_PROPMAP_ENTRY@ATL@@XZ@4QBU34@B 0000000180026c40     POSKeyboard.obj
 0002:00000ce8       ??_C@_17DGDADEHL@?$AA_?$AAc?$AAx@ 0000000180026ce8     POSKeyboard.obj
 0002:00000cf0       ??_C@_17IOIMFDBO@?$AA_?$AAc?$AAy@ 0000000180026cf0     POSKeyboard.obj
 0002:00000cf8       ??_7CComModule@ATL@@6B@    0000000180026cf8     POSKeyboard.obj
 0002:00000d48       _GUID_00000000_0000_0000_c000_000000000046 0000000180026d48     POSKeyboard.obj
 0002:00000d58       _GUID_00020400_0000_0000_c000_000000000046 0000000180026d58     POSKeyboard.obj
 0002:00000d68       _GUID_922eada0_3424_11cf_b670_00aa004cd6d8 0000000180026d68     POSKeyboard.obj
 0002:00000d78       _GUID_9c2cad80_3424_11cf_b670_00aa004cd6d8 0000000180026d78     POSKeyboard.obj
 0002:00000d88       _GUID_00000119_0000_0000_c000_000000000046 0000000180026d88     POSKeyboard.obj
 0002:00000d98       _GUID_b196b289_bab4_101a_b69c_00aa00341d07 0000000180026d98     POSKeyboard.obj
 0002:00000da8       ??_7?$CComObjectCached@VCComClassFactory@ATL@@@ATL@@6B@ 0000000180026da8     POSKeyboard.obj
 0002:00000dd8       ??_C@_1CE@PGFMOFKI@?$AAS?$AAt?$AAa?$AAt?$AAu?$AAs?$AAU?$AAp?$AAd?$AAa?$AAt?$AAe?$AAE?$AAv?$AAe@ 0000000180026dd8     POSKeyboard.obj
 0002:00000e00       ??_C@_1BG@LODEBHDD@?$AAE?$AAr?$AAr?$AAo?$AAr?$AAE?$AAv?$AAe?$AAn?$AAt@ 0000000180026e00     POSKeyboard.obj
 0002:00000e18       ??_C@_1BM@CBGEBBBJ@?$AAD?$AAi?$AAr?$AAe?$AAc?$AAt?$AAI?$AAO?$AAE?$AAv?$AAe?$AAn?$AAt@ 0000000180026e18     POSKeyboard.obj
 0002:00000e38       ??_C@_1BE@IEBMACEM@?$AAD?$AAa?$AAt?$AAa?$AAE?$AAv?$AAe?$AAn?$AAt@ 0000000180026e38     POSKeyboard.obj
 0002:00000e50       _GUID_b196b286_bab4_101a_b69c_00aa00341d07 0000000180026e50     POSKeyboard.obj
 0002:00000e60       _GUID_00000117_0000_0000_c000_000000000046 0000000180026e60     POSKeyboard.obj
 0002:00000e70       ??_C@_1BC@ENICKDH@?$AAC?$AAo?$AAn?$AAt?$AAe?$AAn?$AAt?$AAs@ 0000000180026e70     POSKeyboard.obj
 0002:00000e88       ??_7?$CComObject@V?$CComEnum@UIEnumConnectionPoints@@$1?_GUID_b196b285_bab4_101a_b69c_00aa00341d07@@3U__s_GUID@@BPEAUIConnectionPoint@@V?$_CopyInterface@UIConnectionPoint@@@ATL@@VCComSingleThreadModel@6@@ATL@@@ATL@@6B@ 0000000180026e88     POSKeyboard.obj
 0002:00000ec8       ??_C@_1M@KANJNLFF@?$AAC?$AAL?$AAS?$AAI?$AAD@ 0000000180026ec8     POSKeyboard.obj
 0002:00000ed8       ??_C@_1M@EJNEECMJ@?$AAA?$AAp?$AAp?$AAI?$AAD@ 0000000180026ed8     POSKeyboard.obj
 0002:00000ee8       _GUID_0000010e_0000_0000_c000_000000000046 0000000180026ee8     POSKeyboard.obj
 0002:00000f00       ?rgszNeverDelete@CRegParser@ATL@@1QBQEB_WB 0000000180026f00     POSKeyboard.obj
 0002:00000f60       _GUID_b196b288_bab4_101a_b69c_00aa00341d07 0000000180026f60     POSKeyboard.obj
 0002:00000f70       ??_7CRegObject@ATL@@6B@    0000000180026f70     POSKeyboard.obj
 0002:00000fa0       _GUID_00000113_0000_0000_c000_000000000046 0000000180026fa0     POSKeyboard.obj
 0002:00000fb0       ??_C@_1CK@OEKPKBNA@?$AAC?$AAo?$AAm?$AAp?$AAo?$AAn?$AAe?$AAn?$AAt?$AA?5?$AAC?$AAa?$AAt?$AAe?$AAg@ 0000000180026fb0     POSKeyboard.obj
 0002:00000fe0       ??_C@_1BC@NKMMNMGL@?$AAF?$AAi?$AAl?$AAe?$AAT?$AAy?$AAp?$AAe@ 0000000180026fe0     POSKeyboard.obj
 0002:00000ff8       ??_C@_1BE@EKPAFMCP@?$AAI?$AAn?$AAt?$AAe?$AAr?$AAf?$AAa?$AAc?$AAe@ 0000000180026ff8     POSKeyboard.obj
 0002:00001010       ??_C@_1BC@MAICEHGI@?$AAH?$AAa?$AAr?$AAd?$AAw?$AAa?$AAr?$AAe@ 0000000180027010     POSKeyboard.obj
 0002:00001028       ??_C@_19HLLLM@?$AAM?$AAi?$AAm?$AAe@ 0000000180027028     POSKeyboard.obj
 0002:00001038       ??_C@_17OMAOINJK@?$AAS?$AAA?$AAM@ 0000000180027038     POSKeyboard.obj
 0002:00001040       ??_C@_1BC@IBECJAAI@?$AAS?$AAE?$AAC?$AAU?$AAR?$AAI?$AAT?$AAY@ 0000000180027040     POSKeyboard.obj
 0002:00001058       ??_C@_1O@GBFINDKL@?$AAS?$AAY?$AAS?$AAT?$AAE?$AAM@ 0000000180027058     POSKeyboard.obj
 0002:00001068       ??_C@_1BC@EAHCMADO@?$AAS?$AAo?$AAf?$AAt?$AAw?$AAa?$AAr?$AAe@ 0000000180027068     POSKeyboard.obj
 0002:00001080       ??_C@_1BA@JIHHIEDE@?$AAT?$AAy?$AAp?$AAe?$AAL?$AAi?$AAb@ 0000000180027080     POSKeyboard.obj
 0002:00001090       _GUID_1c2056cc_5ef4_101b_8bc8_00aa003e3b29 0000000180027090     POSKeyboard.obj
 0002:000010a0       ?map@?1??HKeyFromString@CRegParser@ATL@@KAPEAUHKEY__@@PEA_W@Z@4QBUkeymap@?1??123@KAPEAU4@0@Z@B 00000001800270a0     POSKeyboard.obj
 0002:00001180       ??_C@_19NCHLBIN@?$AAH?$AAK?$AAC?$AAR@ 0000000180027180     POSKeyboard.obj
 0002:00001190       ??_C@_19JAPAIJDE@?$AAH?$AAK?$AAC?$AAU@ 0000000180027190     POSKeyboard.obj
 0002:000011a0       ??_C@_19PEALEEJB@?$AAH?$AAK?$AAL?$AAM@ 00000001800271a0     POSKeyboard.obj
 0002:000011b0       ??_C@_17PJOJPMPB@?$AAH?$AAK?$AAU@ 00000001800271b0     POSKeyboard.obj
 0002:000011b8       ??_C@_19PNBHMJPL@?$AAH?$AAK?$AAP?$AAD@ 00000001800271b8     POSKeyboard.obj
 0002:000011c8       ??_C@_19GFFAIJHG@?$AAH?$AAK?$AAD?$AAD@ 00000001800271c8     POSKeyboard.obj
 0002:000011d8       ??_C@_19OFICIBHH@?$AAH?$AAK?$AAC?$AAC@ 00000001800271d8     POSKeyboard.obj
 0002:000011e8       ??_C@_1CE@PACHPJFI@?$AAH?$AAK?$AAE?$AAY?$AA_?$AAC?$AAL?$AAA?$AAS?$AAS?$AAE?$AAS?$AA_?$AAR?$AAO@ 00000001800271e8     POSKeyboard.obj
 0002:00001210       ??_C@_1CE@HLHNCBPM@?$AAH?$AAK?$AAE?$AAY?$AA_?$AAC?$AAU?$AAR?$AAR?$AAE?$AAN?$AAT?$AA_?$AAU?$AAS@ 0000000180027210     POSKeyboard.obj
 0002:00001238       ??_C@_1CG@GFBEANJL@?$AAH?$AAK?$AAE?$AAY?$AA_?$AAL?$AAO?$AAC?$AAA?$AAL?$AA_?$AAM?$AAA?$AAC?$AAH@ 0000000180027238     POSKeyboard.obj
 0002:00001260       ??_C@_1BG@BGODANIO@?$AAH?$AAK?$AAE?$AAY?$AA_?$AAU?$AAS?$AAE?$AAR?$AAS@ 0000000180027260     POSKeyboard.obj
 0002:00001278       ??_C@_1CM@KHNNAOIC@?$AAH?$AAK?$AAE?$AAY?$AA_?$AAP?$AAE?$AAR?$AAF?$AAO?$AAR?$AAM?$AAA?$AAN?$AAC@ 0000000180027278     POSKeyboard.obj
 0002:000012a8       ??_C@_1BM@HAGMMHIA@?$AAH?$AAK?$AAE?$AAY?$AA_?$AAD?$AAY?$AAN?$AA_?$AAD?$AAA?$AAT?$AAA@ 00000001800272a8     POSKeyboard.obj
 0002:000012c8       ??_C@_1CI@BBJOACGG@?$AAH?$AAK?$AAE?$AAY?$AA_?$AAC?$AAU?$AAR?$AAR?$AAE?$AAN?$AAT?$AA_?$AAC?$AAO@ 00000001800272c8     POSKeyboard.obj
 0002:000012f0       _GUID_00000109_0000_0000_c000_000000000046 00000001800272f0     POSKeyboard.obj
 0002:00001300       _GUID_7fd52380_4e07_101b_ae2d_08002b2ec713 0000000180027300     POSKeyboard.obj
 0002:00001310       _GUID_00000112_0000_0000_c000_000000000046 0000000180027310     POSKeyboard.obj
 0002:00001320       ??_C@_1EA@NHKLICFA@?$AAH?$AAK?$AAC?$AAU?$AA?$AN?$AA?6?$AA?$HL?$AA?7?$AAS?$AAo?$AAf?$AAt?$AAw?$AAa?$AAr@ 0000000180027320     POSKeyboard.obj
 0002:00001360       ??_C@_1BE@LJOLIMEM@?$AA?$AN?$AA?6?$AA?7?$AA?$HN?$AA?$AN?$AA?6?$AA?$HN?$AA?$AN?$AA?6@ 0000000180027360     POSKeyboard.obj
 0002:00001378       _GUID_3af24292_0c96_11ce_a0cf_00aa00600ab8 0000000180027378     POSKeyboard.obj
 0002:00001388       _GUID_00000127_0000_0000_c000_000000000046 0000000180027388     POSKeyboard.obj
 0002:00001398       _GUID_0000010d_0000_0000_c000_000000000046 0000000180027398     POSKeyboard.obj
 0002:000013a8       ??_C@_1M@PPPPCDEP@?$AAA?$AAP?$AAP?$AAI?$AAD@ 00000001800273a8     POSKeyboard.obj
 0002:000013b8       ??_C@_1O@MNLDABAF@?$AAM?$AAo?$AAd?$AAu?$AAl?$AAe@ 00000001800273b8     POSKeyboard.obj
 0002:000013c8       ??_C@_1BG@JBACFMF@?$AAM?$AAo?$AAd?$AAu?$AAl?$AAe?$AA_?$AAR?$AAa?$AAw@ 00000001800273c8     POSKeyboard.obj
 0002:000013e0       ??_C@_1BC@KAILKFFG@?$AAR?$AAE?$AAG?$AAI?$AAS?$AAT?$AAR?$AAY@ 00000001800273e0     POSKeyboard.obj
 0002:000013f8       ??_7?$CComContainedObject@VCOPOSPOSKeyboard@@@ATL@@6B?$IDispatchImpl@UIOPOSPOSKeyboard@@$1?IID_IOPOSPOSKeyboard@@3U_GUID@@B$1?LIBID_OposPOSKeyboard_CCO@@3U3@B$00$0A@VCComTypeInfoHolder@ATL@@@1@@ 00000001800273f8     POSKeyboard.obj
 0002:000015e0       ??_7?$CComContainedObject@VCOPOSPOSKeyboard@@@ATL@@6BCComControlBase@1@@ 00000001800275e0     POSKeyboard.obj
 0002:00001608       ??_7?$CComContainedObject@VCOPOSPOSKeyboard@@@ATL@@6B?$CWindowImpl@VCOPOSPOSKeyboard@@VCWindow@ATL@@V?$CWinTraits@$0FGAAAAAA@$0A@@3@@1@@ 0000000180027608     POSKeyboard.obj
 0002:00001628       ??_7?$CComContainedObject@VCOPOSPOSKeyboard@@@ATL@@6B?$IPersistStreamInitImpl@VCOPOSPOSKeyboard@@@1@@ 0000000180027628     POSKeyboard.obj
 0002:00001670       ??_7?$CComContainedObject@VCOPOSPOSKeyboard@@@ATL@@6B?$IOleControlImpl@VCOPOSPOSKeyboard@@@1@@ 0000000180027670     POSKeyboard.obj
 0002:000016a8       ??_7?$CComContainedObject@VCOPOSPOSKeyboard@@@ATL@@6B?$IOleObjectImpl@VCOPOSPOSKeyboard@@@1@@ 00000001800276a8     POSKeyboard.obj
 0002:00001768       ??_7?$CComContainedObject@VCOPOSPOSKeyboard@@@ATL@@6B?$IOleInPlaceActiveObjectImpl@VCOPOSPOSKeyboard@@@1@@ 0000000180027768     POSKeyboard.obj
 0002:000017b8       ??_7?$CComContainedObject@VCOPOSPOSKeyboard@@@ATL@@6B?$IViewObjectExImpl@VCOPOSPOSKeyboard@@@1@@ 00000001800277b8     POSKeyboard.obj
 0002:00001830       ??_7?$CComContainedObject@VCOPOSPOSKeyboard@@@ATL@@6B?$IOleInPlaceObjectWindowlessImpl@VCOPOSPOSKeyboard@@@1@@ 0000000180027830     POSKeyboard.obj
 0002:00001888       ??_7?$CComContainedObject@VCOPOSPOSKeyboard@@@ATL@@6B?$IConnectionPointContainerImpl@VCOPOSPOSKeyboard@@@1@@ 0000000180027888     POSKeyboard.obj
 0002:000018b0       ??_7?$CComContainedObject@VCOPOSPOSKeyboard@@@ATL@@6B?$IPersistStorageImpl@VCOPOSPOSKeyboard@@@1@@ 00000001800278b0     POSKeyboard.obj
 0002:00001900       ??_7?$CComContainedObject@VCOPOSPOSKeyboard@@@ATL@@6B?$ISpecifyPropertyPagesImpl@VCOPOSPOSKeyboard@@@1@@ 0000000180027900     POSKeyboard.obj
 0002:00001920       ??_7?$CComContainedObject@VCOPOSPOSKeyboard@@@ATL@@6B?$IQuickActivateImpl@VCOPOSPOSKeyboard@@@1@@ 0000000180027920     POSKeyboard.obj
 0002:00001950       ??_7?$CComContainedObject@VCOPOSPOSKeyboard@@@ATL@@6B?$IDataObjectImpl@VCOPOSPOSKeyboard@@@1@@ 0000000180027950     POSKeyboard.obj
 0002:000019b0       ??_7?$CComContainedObject@VCOPOSPOSKeyboard@@@ATL@@6B?$IProvideClassInfo2Impl@$1?CLSID_OPOSPOSKeyboard@@3U_GUID@@B$1?DIID__IOPOSPOSKeyboardEvents@@3U2@B$1?LIBID_OposPOSKeyboard_CCO@@3U2@B$00$0A@VCComTypeInfoHolder@ATL@@@1@@ 00000001800279b0     POSKeyboard.obj
 0002:000019d8       ??_7?$CComContainedObject@VCOPOSPOSKeyboard@@@ATL@@6B?$IObjectSafetyImpl@VCOPOSPOSKeyboard@@$02@1@@ 00000001800279d8     POSKeyboard.obj
 0002:00001a08       ??_7?$CComContainedObject@VCOPOSPOSKeyboard@@@ATL@@6B?$IPropertyNotifySinkCP@VCOPOSPOSKeyboard@@VCComDynamicUnkArray@ATL@@@1@@ 0000000180027a08     POSKeyboard.obj
 0002:00001a48       ??_7?$CComContainedObject@VCOPOSPOSKeyboard@@@ATL@@6B?$CProxy_IOPOSEvents@VCOPOSPOSKeyboard@@@@@ 0000000180027a48     POSKeyboard.obj
 0002:00001a88       ??_7?$CComAggObject@VCOPOSPOSKeyboard@@@ATL@@6B@ 0000000180027a88     POSKeyboard.obj
 0002:00001aa8       ??_7?$CComObject@VCOPOSPOSKeyboard@@@ATL@@6B?$IDispatchImpl@UIOPOSPOSKeyboard@@$1?IID_IOPOSPOSKeyboard@@3U_GUID@@B$1?LIBID_OposPOSKeyboard_CCO@@3U3@B$00$0A@VCComTypeInfoHolder@ATL@@@1@@ 0000000180027aa8     POSKeyboard.obj
 0002:00001c90       ??_7?$CComObject@VCOPOSPOSKeyboard@@@ATL@@6BCComControlBase@1@@ 0000000180027c90     POSKeyboard.obj
 0002:00001cb8       ??_7?$CComObject@VCOPOSPOSKeyboard@@@ATL@@6B?$CWindowImpl@VCOPOSPOSKeyboard@@VCWindow@ATL@@V?$CWinTraits@$0FGAAAAAA@$0A@@3@@1@@ 0000000180027cb8     POSKeyboard.obj
 0002:00001cd8       ??_7?$CComObject@VCOPOSPOSKeyboard@@@ATL@@6B?$IPersistStreamInitImpl@VCOPOSPOSKeyboard@@@1@@ 0000000180027cd8     POSKeyboard.obj
 0002:00001d20       ??_7?$CComObject@VCOPOSPOSKeyboard@@@ATL@@6B?$IOleControlImpl@VCOPOSPOSKeyboard@@@1@@ 0000000180027d20     POSKeyboard.obj
 0002:00001d58       ??_7?$CComObject@VCOPOSPOSKeyboard@@@ATL@@6B?$IOleObjectImpl@VCOPOSPOSKeyboard@@@1@@ 0000000180027d58     POSKeyboard.obj
 0002:00001e18       ??_7?$CComObject@VCOPOSPOSKeyboard@@@ATL@@6B?$IOleInPlaceActiveObjectImpl@VCOPOSPOSKeyboard@@@1@@ 0000000180027e18     POSKeyboard.obj
 0002:00001e68       ??_7?$CComObject@VCOPOSPOSKeyboard@@@ATL@@6B?$IViewObjectExImpl@VCOPOSPOSKeyboard@@@1@@ 0000000180027e68     POSKeyboard.obj
 0002:00001ee0       ??_7?$CComObject@VCOPOSPOSKeyboard@@@ATL@@6B?$IOleInPlaceObjectWindowlessImpl@VCOPOSPOSKeyboard@@@1@@ 0000000180027ee0     POSKeyboard.obj
 0002:00001f38       ??_7?$CComObject@VCOPOSPOSKeyboard@@@ATL@@6B?$IConnectionPointContainerImpl@VCOPOSPOSKeyboard@@@1@@ 0000000180027f38     POSKeyboard.obj
 0002:00001f60       ??_7?$CComObject@VCOPOSPOSKeyboard@@@ATL@@6B?$IPersistStorageImpl@VCOPOSPOSKeyboard@@@1@@ 0000000180027f60     POSKeyboard.obj
 0002:00001fb0       ??_7?$CComObject@VCOPOSPOSKeyboard@@@ATL@@6B?$ISpecifyPropertyPagesImpl@VCOPOSPOSKeyboard@@@1@@ 0000000180027fb0     POSKeyboard.obj
 0002:00001fd0       ??_7?$CComObject@VCOPOSPOSKeyboard@@@ATL@@6B?$IQuickActivateImpl@VCOPOSPOSKeyboard@@@1@@ 0000000180027fd0     POSKeyboard.obj
 0002:00002000       ??_7?$CComObject@VCOPOSPOSKeyboard@@@ATL@@6B?$IDataObjectImpl@VCOPOSPOSKeyboard@@@1@@ 0000000180028000     POSKeyboard.obj
 0002:00002060       ??_7?$CComObject@VCOPOSPOSKeyboard@@@ATL@@6B?$IProvideClassInfo2Impl@$1?CLSID_OPOSPOSKeyboard@@3U_GUID@@B$1?DIID__IOPOSPOSKeyboardEvents@@3U2@B$1?LIBID_OposPOSKeyboard_CCO@@3U2@B$00$0A@VCComTypeInfoHolder@ATL@@@1@@ 0000000180028060     POSKeyboard.obj
 0002:00002088       ??_7?$CComObject@VCOPOSPOSKeyboard@@@ATL@@6B?$IObjectSafetyImpl@VCOPOSPOSKeyboard@@$02@1@@ 0000000180028088     POSKeyboard.obj
 0002:000020b8       ??_7?$CComObject@VCOPOSPOSKeyboard@@@ATL@@6B?$IPropertyNotifySinkCP@VCOPOSPOSKeyboard@@VCComDynamicUnkArray@ATL@@@1@@ 00000001800280b8     POSKeyboard.obj
 0002:000020f8       ??_7?$CComObject@VCOPOSPOSKeyboard@@@ATL@@6B?$CProxy_IOPOSEvents@VCOPOSPOSKeyboard@@@@@ 00000001800280f8     POSKeyboard.obj
 0002:00002138       ??_C@_1O@GBFKGNEO@?$AAA?$AAT?$AAL?$AA?3?$AA?$CF?$AAp@ 0000000180028138     POSKeyboard.obj
 0002:00002148       ??_C@_1BA@PICGEGJB@?$AAD?$AAI?$AAS?$AAP?$AAL?$AAA?$AAY@ 0000000180028148     POSKeyboard.obj
 0002:00002158       _GUID_b196b284_bab4_101a_b69c_00aa00341d07 0000000180028158     POSKeyboard.obj
 0002:00002168       _GUID_9bfbbc02_eff1_101a_84ed_00aa00341d07 0000000180028168     POSKeyboard.obj
 0002:00002178       ?_entries@?1??_GetEntries@?$CComEnum@UIEnumConnectionPoints@@$1?_GUID_b196b285_bab4_101a_b69c_00aa00341d07@@3U__s_GUID@@BPEAUIConnectionPoint@@V?$_CopyInterface@UIConnectionPoint@@@ATL@@VCComSingleThreadModel@6@@ATL@@SAPEBU_ATL_INTMAP_ENTRY@3@XZ@4QBU43@B 0000000180028178     POSKeyboard.obj
 0002:000021a8       _GUID_00020412_0000_0000_c000_000000000046 00000001800281a8     POSKeyboard.obj
 0002:000021b8       _GUID_00020401_0000_0000_c000_000000000046 00000001800281b8     POSKeyboard.obj
 0002:000021c8       ??_C@_0BG@EKFFMJIO@RegOpenKeyTransactedW@ 00000001800281c8     POSKeyboard.obj
 0002:000021e0       ??_C@_0BI@HAKLOOGP@RegDeleteKeyTransactedW@ 00000001800281e0     POSKeyboard.obj
 0002:000021f8       ??_C@_0BA@LILAPHGE@RegDeleteKeyExW@ 00000001800281f8     POSKeyboard.obj
 0002:00002208       ??_C@_19ILOCMLCJ@?$AA?4?$AAt?$AAl?$AAb@ 0000000180028208     POSKeyboard.obj
 0002:00002218       _GUID_0002e012_0000_0000_c000_000000000046 0000000180028218     POSKeyboard.obj
 0002:00002228       ??_C@_1O@FHBGLCIO@?$AAC?$AAL?$AAS?$AAI?$AAD?$AA?2@ 0000000180028228     POSKeyboard.obj
 0002:00002238       ??_C@_1CK@IFBKBFAA@?$AA?2?$AAR?$AAe?$AAq?$AAu?$AAi?$AAr?$AAe?$AAd?$AA?5?$AAC?$AAa?$AAt?$AAe?$AAg@ 0000000180028238     POSKeyboard.obj
 0002:00002268       ??_C@_1DA@BIHALFED@?$AA?2?$AAI?$AAm?$AAp?$AAl?$AAe?$AAm?$AAe?$AAn?$AAt?$AAe?$AAd?$AA?5?$AAC?$AAa@ 0000000180028268     POSKeyboard.obj
 0002:00002298       ??_C@_1BK@EDKOLFBJ@?$AAO?$AAL?$AAE?$AAA?$AAU?$AAT?$AA3?$AA2?$AA?4?$AAD?$AAL?$AAL@ 0000000180028298     POSKeyboard.obj
 0002:000022b8       ??_C@_0BJ@CNLFOMHB@UnRegisterTypeLibForUser@ 00000001800282b8     POSKeyboard.obj
 0002:000022d8       ??_C@_0BH@LBOMMKPJ@RegisterTypeLibForUser@ 00000001800282d8     POSKeyboard.obj
 0002:000022f0       ??_C@_0P@MMNMMLGK@COFreezeEvents@ 00000001800282f0     POSKeyboardImpl.obj
 0002:00002300       ??_C@_0BC@OGCGGIMP@GetPropertyNumber@ 0000000180028300     POSKeyboardImpl.obj
 0002:00002318       ??_C@_0BC@MDCNODNB@SetPropertyNumber@ 0000000180028318     POSKeyboardImpl.obj
 0002:00002330       ??_C@_0BC@CFCCMIMD@GetPropertyString@ 0000000180028330     POSKeyboardImpl.obj
 0002:00002348       ??_C@_0BC@CJEDNN@SetPropertyString@ 0000000180028348     POSKeyboardImpl.obj
 0002:00002360       ??_C@_0M@LNPKKKDA@OpenService@ 0000000180028360     POSKeyboardImpl.obj
 0002:00002370       ??_C@_0M@PCMCHHMH@CheckHealth@ 0000000180028370     POSKeyboardImpl.obj
 0002:00002380       ??_C@_0M@JGMIDNEK@ClaimDevice@ 0000000180028380     POSKeyboardImpl.obj
 0002:00002390       ??_C@_0L@BNEIFEJC@ClearInput@ 0000000180028390     POSKeyboardImpl.obj
 0002:000023a0       ??_C@_0N@DDFIIBMP@CloseService@ 00000001800283a0     POSKeyboardImpl.obj
 0002:000023b0       ??_C@_08EEIHICPC@DirectIO@ 00000001800283b0     POSKeyboardImpl.obj
 0002:000023c0       ??_C@_0O@BCPMENMJ@ReleaseDevice@ 00000001800283c0     POSKeyboardImpl.obj
 0002:000023d0       ??_C@_0BA@GFABKEEE@ResetStatistics@ 00000001800283d0     POSKeyboardImpl.obj
 0002:000023e0       ??_C@_0BD@DPALHJGC@RetrieveStatistics@ 00000001800283e0     POSKeyboardImpl.obj
 0002:000023f8       ??_C@_0BB@KOHIKNFC@UpdateStatistics@ 00000001800283f8     POSKeyboardImpl.obj
 0002:00002410       ??_C@_0BH@PBKBNMGB@CompareFirmwareVersion@ 0000000180028410     POSKeyboardImpl.obj
 0002:00002428       ??_C@_0P@FBPDPIPA@UpdateFirmware@ 0000000180028428     POSKeyboardImpl.obj
 0002:00002438       ??_7?$CProxy_IOPOSEvents@VCOPOSPOSKeyboard@@@@6B@ 0000000180028438     POSKeyboardImpl.obj
 0002:00002478       ??_C@_1BA@IFHENID@?$AA?$FL?$AAE?$AAr?$AAr?$AAo?$AAr?$AA?$FN@ 0000000180028478     POSKeyboardImpl.obj
 0002:00002488       ??_C@_0CO@PEIDCFMJ@SOFTWARE?2OLEforRetail?2ServiceOP@ 0000000180028488     POSKeyboardImpl.obj
 0002:000024b8       ??_C@_1M@IAIJHCCH@?$AAC?$AAl?$AAo?$AAs?$AAe@ 00000001800284b8     POSKeyboardImpl.obj
 0002:000024c8       ??_C@_1M@PCPKGJAH@?$AAC?$AAl?$AAa?$AAi?$AAm@ 00000001800284c8     POSKeyboardImpl.obj
 0002:000024d8       ??_C@_1BA@NDFKIOCP@?$AAR?$AAe?$AAl?$AAe?$AAa?$AAs?$AAe@ 00000001800284d8     POSKeyboardImpl.obj
 0002:000024e8       ??_C@_0M@JJNONJDF@POSKeyboard@ 00000001800284e8     POSKeyboardImpl.obj
 0002:000024f8       ??_C@_1BM@IJMNMBPK@?$AAG?$AAe?$AAt?$AAO?$AAp?$AAe?$AAn?$AAR?$AAe?$AAs?$AAu?$AAl?$AAt@ 00000001800284f8     POSKeyboardImpl.obj
 0002:00002518       IID_IDispatch              0000000180028518     uuid:oaidl_i.obj
 0002:00002528       IID_IPropertyNotifySink    0000000180028528     uuid:ocidl_i.obj
 0002:00002538       GUID_NULL                  0000000180028538     uuid:cguid_i.obj
 0002:00002548       CLSID_StdGlobalInterfaceTable 0000000180028548     uuid:cguid_i.obj
 0002:00002558       CLSID_StdComponentCategoriesMgr 0000000180028558     uuid:ieguids.obj
 0002:00002568       IID_IUnknown               0000000180028568     uuid:unknwn_i.obj
 0002:00002580       __xmm@ffffffffffffffffffffffffffffffff 0000000180028580     LIBCMT:utility.obj
 0002:00002590       ??_C@_1EC@JIJBPKFM@?$AAa?$AAp?$AAi?$AA?9?$AAm?$AAs?$AA?9?$AAw?$AAi?$AAn?$AA?9?$AAc?$AAo?$AAr?$AAe@ 0000000180028590     LIBCMT:thread_safe_statics.obj
 0002:000025d8       ??_C@_1BK@MGMFAEKH@?$AAk?$AAe?$AAr?$AAn?$AAe?$AAl?$AA3?$AA2?$AA?4?$AAd?$AAl?$AAl@ 00000001800285d8     LIBCMT:thread_safe_statics.obj
 0002:000025f8       ??_C@_0BJ@JEBJOJFJ@SleepConditionVariableCS@ 00000001800285f8     LIBCMT:thread_safe_statics.obj
 0002:00002618       ??_C@_0BJ@PGPPEPCC@WakeAllConditionVariable@ 0000000180028618     LIBCMT:thread_safe_statics.obj
 0002:00002631       ?nothrow@std@@3Unothrow_t@1@B 0000000180028631     LIBCMT:std_nothrow.obj
 0002:00002648       _pDefaultRawDllMain        0000000180028648     LIBCMT:dll_dllmain.obj
 0002:00002648       _pRawDllMain               0000000180028648     LIBCMT:dll_dllmain.obj
 0002:00002658       ??_7exception@std@@6B@     0000000180028658     LIBCMT:throw_bad_alloc.obj
 0002:00002668       ??_C@_0BC@EOODALEL@Unknown?5exception@ 0000000180028668     LIBCMT:throw_bad_alloc.obj
 0002:00002688       ??_7bad_alloc@std@@6B@     0000000180028688     LIBCMT:throw_bad_alloc.obj
 0002:00002698       ??_C@_0P@GHFPNOJB@bad?5allocation@ 0000000180028698     LIBCMT:throw_bad_alloc.obj
 0002:000026b0       ??_7bad_array_new_length@std@@6B@ 00000001800286b0     LIBCMT:throw_bad_alloc.obj
 0002:000026c0       ??_C@_0BF@KINCDENJ@bad?5array?5new?5length@ 00000001800286c0     LIBCMT:throw_bad_alloc.obj
 0002:000026e0       ??_7type_info@@6B@         00000001800286e0     LIBCMT:std_type_info_static.obj
 0002:000026e8       GUID_ATLVer110             00000001800286e8     atls:atlbase.obj
 0002:00002700       ??_C@_1IC@ONKHOIDK@?$AAE?$AAR?$AAR?$AAO?$AAR?$AA?5?$AA?3?$AA?5?$AAU?$AAn?$AAa?$AAb?$AAl?$AAe?$AA?5@ 0000000180028700     atls:atlbase.obj
 0002:00002788       ??_C@_0N@FJEPLCIH@atlthunk?4dll@ 0000000180028788     atls:atlthunk.obj
 0002:00002798       ??_C@_0BG@GAKFHCBM@AtlThunk_AllocateData@ 0000000180028798     atls:atlthunk.obj
 0002:000027b0       ??_C@_0BC@JKONFIAH@AtlThunk_InitData@ 00000001800287b0     atls:atlthunk.obj
 0002:000027c8       ??_C@_0BE@IAOEELAK@AtlThunk_DataToCode@ 00000001800287c8     atls:atlthunk.obj
 0002:000027e0       ??_C@_0BC@GBGKAIPI@AtlThunk_FreeData@ 00000001800287e0     atls:atlthunk.obj
 0002:000027f8       ?s_negLengthTab@FH4@@3QBCB 00000001800287f8     libvcruntime:risctrnsctrl.obj
 0002:00002808       ?s_shiftTab@FH4@@3QBEB     0000000180028808     libvcruntime:risctrnsctrl.obj
 0002:00002958       _pDestructExceptionObject  0000000180028958     libvcruntime:ehhelpers.obj
 0002:00002968       ??_7bad_exception@std@@6B@ 0000000180028968     libvcruntime:frame.obj
 0002:00002978       ??_C@_0O@DPKOEFFH@bad?5exception@ 0000000180028978     libvcruntime:frame.obj
 0002:000030a0       ??_C@_08EHJDFFNH@__based?$CI@ 00000001800290a0     libvcruntime:undname.obj
 0002:000030b0       ??_C@_07KOLFKCDI@__cdecl@  00000001800290b0     libvcruntime:undname.obj
 0002:000030b8       ??_C@_08GHMPAG@__pascal@   00000001800290b8     libvcruntime:undname.obj
 0002:000030c8       ??_C@_09IFJBGAPI@__stdcall@ 00000001800290c8     libvcruntime:undname.obj
 0002:000030d8       ??_C@_0L@NPHFGOKO@__thiscall@ 00000001800290d8     libvcruntime:undname.obj
 0002:000030e8       ??_C@_0L@JMKHOMEK@__fastcall@ 00000001800290e8     libvcruntime:undname.obj
 0002:000030f8       ??_C@_0N@BCKKPABJ@__vectorcall@ 00000001800290f8     libvcruntime:undname.obj
 0002:00003108       ??_C@_09HIJEGCPM@__clrcall@ 0000000180029108     libvcruntime:undname.obj
 0002:00003114       ??_C@_06GHPCKEAG@__eabi@   0000000180029114     libvcruntime:undname.obj
 0002:00003120       ??_C@_09IOPIDJLG@__swift_1@ 0000000180029120     libvcruntime:undname.obj
 0002:00003130       ??_C@_09KFNFGKHF@__swift_2@ 0000000180029130     libvcruntime:undname.obj
 0002:00003140       ??_C@_09LMMOFLDE@__swift_3@ 0000000180029140     libvcruntime:undname.obj
 0002:00003150       ??_C@_07JOMMBBKO@__ptr64@  0000000180029150     libvcruntime:undname.obj
 0002:00003158       ??_C@_0L@PILCLIHE@__restrict@ 0000000180029158     libvcruntime:undname.obj
 0002:00003168       ??_C@_0M@GFIIJFMG@__unaligned@ 0000000180029168     libvcruntime:undname.obj
 0002:00003178       ??_C@_09DHDLOLLB@restrict?$CI@ 0000000180029178     libvcruntime:undname.obj
 0002:00003182       ??_C@_00CNPNBAHC@@         0000000180029182     libvcruntime:undname.obj
 0002:00003184       ??_C@_04NIHEBCM@?5new@     0000000180029184     libvcruntime:undname.obj
 0002:00003190       ??_C@_07FPCDHGMM@?5delete@ 0000000180029190     libvcruntime:undname.obj
 0002:00003198       ??_C@_01NEMOKFLO@?$DN@     0000000180029198     libvcruntime:undname.obj
 0002:0000319c       ??_C@_02GPIOPFAK@?$DO?$DO@ 000000018002919c     libvcruntime:undname.obj
 0002:000031a0       ??_C@_02FODMEDOG@?$DM?$DM@ 00000001800291a0     libvcruntime:undname.obj
 0002:000031a4       ??_C@_01DCLJPIOD@?$CB@     00000001800291a4     libvcruntime:undname.obj
 0002:000031a8       ??_C@_02EGOFBIJA@?$DN?$DN@ 00000001800291a8     libvcruntime:undname.obj
 0002:000031ac       ??_C@_02FDNJECIE@?$CB?$DN@ 00000001800291ac     libvcruntime:undname.obj
 0002:000031b0       ??_C@_02GPECMEKF@?$FL?$FN@ 00000001800291b0     libvcruntime:undname.obj
 0002:000031b8       ??_C@_08LHJFAFGD@operator@ 00000001800291b8     libvcruntime:undname.obj
 0002:000031c4       ??_C@_02HBOOOICD@?9?$DO@   00000001800291c4     libvcruntime:undname.obj
 0002:000031c8       ??_C@_01NBENCBCI@?$CK@     00000001800291c8     libvcruntime:undname.obj
 0002:000031cc       ??_C@_02ECNGHCIF@?$CL?$CL@ 00000001800291cc     libvcruntime:undname.obj
 0002:000031d0       ??_C@_02BAABKJLB@?9?9@     00000001800291d0     libvcruntime:undname.obj
 0002:000031d4       ??_C@_01JOAMLHOP@?9@       00000001800291d4     libvcruntime:undname.obj
 0002:000031d8       ??_C@_01MIFGBAGJ@?$CL@     00000001800291d8     libvcruntime:undname.obj
 0002:000031dc       ??_C@_01HNPIGOCE@?$CG@     00000001800291dc     libvcruntime:undname.obj
 0002:000031e0       ??_C@_03MNHNFDLC@?9?$DO?$CK@ 00000001800291e0     libvcruntime:undname.obj
 0002:000031e4       ??_C@_01KMDKNFGN@?1@       00000001800291e4     libvcruntime:undname.obj
 0002:000031e8       ??_C@_01FGNFDNOH@?$CF@     00000001800291e8     libvcruntime:undname.obj
 0002:000031ec       ??_C@_01MNNFJEPP@?$DM@     00000001800291ec     libvcruntime:undname.obj
 0002:000031f0       ??_C@_02EHCHHCKH@?$DM?$DN@ 00000001800291f0     libvcruntime:undname.obj
 0002:000031f4       ??_C@_01PPODPGHN@?$DO@     00000001800291f4     libvcruntime:undname.obj
 0002:000031f8       ??_C@_02EEKDKGMJ@?$DO?$DN@ 00000001800291f8     libvcruntime:undname.obj
 0002:000031fc       ??_C@_01IHBHIGKO@?0@       00000001800291fc     libvcruntime:undname.obj
 0002:00003200       ??_C@_02HCKGKOFO@?$CI?$CJ@ 0000000180029200     libvcruntime:undname.obj
 0002:00003204       ??_C@_01PJKLJHI@?$HO@      0000000180029204     libvcruntime:undname.obj
 0002:00003208       ??_C@_01JKBOJNNK@?$FO@     0000000180029208     libvcruntime:undname.obj
 0002:0000320c       ??_C@_01DNKMNLPK@?$HM@     000000018002920c     libvcruntime:undname.obj
 0002:00003210       ??_C@_02PPKAJPJL@?$CG?$CG@ 0000000180029210     libvcruntime:undname.obj
 0002:00003214       ??_C@_02NONPIBCD@?$HM?$HM@ 0000000180029214     libvcruntime:undname.obj
 0002:00003218       ??_C@_02FPIMKNGF@?$CK?$DN@ 0000000180029218     libvcruntime:undname.obj
 0002:0000321c       ??_C@_02FOEOMHFC@?$CL?$DN@ 000000018002921c     libvcruntime:undname.obj
 0002:00003220       ??_C@_02FKMDLLOA@?9?$DN@   0000000180029220     libvcruntime:undname.obj
 0002:00003224       ??_C@_02FJEHGPIO@?1?$DN@   0000000180029224     libvcruntime:undname.obj
 0002:00003228       ??_C@_02FENAOKFI@?$CF?$DN@ 0000000180029228     libvcruntime:undname.obj
 0002:0000322c       ??_C@_03IKFCCPFF@?$DO?$DO?$DN@ 000000018002922c     libvcruntime:undname.obj
 0002:00003230       ??_C@_03CDNPDDLA@?$DM?$DM?$DN@ 0000000180029230     libvcruntime:undname.obj
 0002:00003234       ??_C@_02FGJGFEAB@?$CG?$DN@ 0000000180029234     libvcruntime:undname.obj
 0002:00003238       ??_C@_02DHLNPPGH@?$HM?$DN@ 0000000180029238     libvcruntime:undname.obj
 0002:0000323c       ??_C@_02MHEGNOJ@?$FO?$DN@  000000018002923c     libvcruntime:undname.obj
 0002:00003240       ??_C@_09IFPLHPGF@?$GAvftable?8@ 0000000180029240     libvcruntime:undname.obj
 0002:00003250       ??_C@_09BLBHBJP@?$GAvbtable?8@ 0000000180029250     libvcruntime:undname.obj
 0002:00003260       ??_C@_07FEEIOKP@?$GAvcall?8@ 0000000180029260     libvcruntime:undname.obj
 0002:00003268       ??_C@_08LLFFHHDJ@?$GAtypeof?8@ 0000000180029268     libvcruntime:undname.obj
 0002:00003278       ??_C@_0BF@KDPPACIK@?$GAlocal?5static?5guard?8@ 0000000180029278     libvcruntime:undname.obj
 0002:00003290       ??_C@_08OBABFOLI@?$GAstring?8@ 0000000180029290     libvcruntime:undname.obj
 0002:000032a0       ??_C@_0BD@JDLKDPAB@?$GAvbase?5destructor?8@ 00000001800292a0     libvcruntime:undname.obj
 0002:000032b8       ??_C@_0BN@DEGPLNFK@?$GAvector?5deleting?5destructor?8@ 00000001800292b8     libvcruntime:undname.obj
 0002:000032d8       ??_C@_0BO@OBMKPJIG@?$GAdefault?5constructor?5closure?8@ 00000001800292d8     libvcruntime:undname.obj
 0002:000032f8       ??_C@_0BN@IMDCHIKM@?$GAscalar?5deleting?5destructor?8@ 00000001800292f8     libvcruntime:undname.obj
 0002:00003318       ??_C@_0BO@PFGOCPJJ@?$GAvector?5constructor?5iterator?8@ 0000000180029318     libvcruntime:undname.obj
 0002:00003338       ??_C@_0BN@LFPFMEDL@?$GAvector?5destructor?5iterator?8@ 0000000180029338     libvcruntime:undname.obj
 0002:00003358       ??_C@_0CE@IKBNEHA@?$GAvector?5vbase?5constructor?5itera@ 0000000180029358     libvcruntime:undname.obj
 0002:00003380       ??_C@_0BL@NILFHHPC@?$GAvirtual?5displacement?5map?8@ 0000000180029380     libvcruntime:undname.obj
 0002:000033a0       ??_C@_0CB@JONCMFFK@?$GAeh?5vector?5constructor?5iterator@ 00000001800293a0     libvcruntime:undname.obj
 0002:000033c8       ??_C@_0CA@GCEOPDGL@?$GAeh?5vector?5destructor?5iterator?8@ 00000001800293c8     libvcruntime:undname.obj
 0002:000033e8       ??_C@_0CH@OOJPLCPH@?$GAeh?5vector?5vbase?5constructor?5it@ 00000001800293e8     libvcruntime:undname.obj
 0002:00003410       ??_C@_0BL@LLKPOHJI@?$GAcopy?5constructor?5closure?8@ 0000000180029410     libvcruntime:undname.obj
 0002:00003430       ??_C@_0BA@KBCDOMBN@?$GAudt?5returning?8@ 0000000180029430     libvcruntime:undname.obj
 0002:00003440       ??_C@_03KLGMFNMG@?$GAEH@   0000000180029440     libvcruntime:undname.obj
 0002:00003444       ??_C@_05KHLCHHI@?$GARTTI@  0000000180029444     libvcruntime:undname.obj
 0002:00003450       ??_C@_0BA@KKLDJDLB@?$GAlocal?5vftable?8@ 0000000180029450     libvcruntime:undname.obj
 0002:00003460       ??_C@_0CE@IIHCMGGL@?$GAlocal?5vftable?5constructor?5clos@ 0000000180029460     libvcruntime:undname.obj
 0002:00003484       ??_C@_06FHBGPFGH@?5new?$FL?$FN@ 0000000180029484     libvcruntime:undname.obj
 0002:00003490       ??_C@_09LBNFPBCA@?5delete?$FL?$FN@ 0000000180029490     libvcruntime:undname.obj
 0002:000034a0       ??_C@_0P@HJKNJFNN@?$GAomni?5callsig?8@ 00000001800294a0     libvcruntime:undname.obj
 0002:000034b0       ??_C@_0BL@CNOONJFP@?$GAplacement?5delete?5closure?8@ 00000001800294b0     libvcruntime:undname.obj
 0002:000034d0       ??_C@_0BN@CKNJLHMB@?$GAplacement?5delete?$FL?$FN?5closure?8@ 00000001800294d0     libvcruntime:undname.obj
 0002:000034f0       ??_C@_0CG@CFDHKGGD@?$GAmanaged?5vector?5constructor?5ite@ 00000001800294f0     libvcruntime:undname.obj
 0002:00003518       ??_C@_0CF@IMGKMJNO@?$GAmanaged?5vector?5destructor?5iter@ 0000000180029518     libvcruntime:undname.obj
 0002:00003540       ??_C@_0CG@HLDDJMAG@?$GAeh?5vector?5copy?5constructor?5ite@ 0000000180029540     libvcruntime:undname.obj
 0002:00003568       ??_C@_0CM@FCBBDIGB@?$GAeh?5vector?5vbase?5copy?5construct@ 0000000180029568     libvcruntime:undname.obj
 0002:00003598       ??_C@_0BL@CLIPGLGB@?$GAdynamic?5initializer?5for?5?8@ 0000000180029598     libvcruntime:undname.obj
 0002:000035b8       ??_C@_0CB@PDBIFEP@?$GAdynamic?5atexit?5destructor?5for?5@ 00000001800295b8     libvcruntime:undname.obj
 0002:000035e0       ??_C@_0CD@CGAJBKEJ@?$GAvector?5copy?5constructor?5iterat@ 00000001800295e0     libvcruntime:undname.obj
 0002:00003608       ??_C@_0CJ@GJELGAMM@?$GAvector?5vbase?5copy?5constructor?5@ 0000000180029608     libvcruntime:undname.obj
 0002:00003638       ??_C@_0CL@FGIJHLCE@?$GAmanaged?5vector?5copy?5constructo@ 0000000180029638     libvcruntime:undname.obj
 0002:00003668       ??_C@_0BM@PMGGMLDN@?$GAlocal?5static?5thread?5guard?8@ 0000000180029668     libvcruntime:undname.obj
 0002:00003688       ??_C@_0N@BDNMDMOL@operator?5?$CC?$CC?5@ 0000000180029688     libvcruntime:undname.obj
 0002:00003698       ??_C@_0BC@GGEBGALA@operator?5co_await@ 0000000180029698     libvcruntime:undname.obj
 0002:000036b0       ??_C@_0M@GAAIMMOH@operator?$DM?$DN?$DO@ 00000001800296b0     libvcruntime:undname.obj
 0002:000036c0       ??_C@_0BC@DAFEJGAK@?5Type?5Descriptor?8@ 00000001800296c0     libvcruntime:undname.obj
 0002:000036d8       ??_C@_0BM@LDKODKLH@?5Base?5Class?5Descriptor?5at?5?$CI@ 00000001800296d8     libvcruntime:undname.obj
 0002:000036f8       ??_C@_0BD@LGICGFMM@?5Base?5Class?5Array?8@ 00000001800296f8     libvcruntime:undname.obj
 0002:00003710       ??_C@_0BN@MECKDCOJ@?5Class?5Hierarchy?5Descriptor?8@ 0000000180029710     libvcruntime:undname.obj
 0002:00003730       ??_C@_0BK@CFCOFLF@?5Complete?5Object?5Locator?8@ 0000000180029730     libvcruntime:undname.obj
 0002:00003750       ??_C@_0BG@JNJLAMPM@?$GAanonymous?5namespace?8@ 0000000180029750     libvcruntime:undname.obj
 0002:00003780       ??_C@_1DM@KHCHBNEB@?$AAa?$AAp?$AAi?$AA?9?$AAm?$AAs?$AA?9?$AAw?$AAi?$AAn?$AA?9?$AAc?$AAo?$AAr?$AAe@ 0000000180029780     libvcruntime:winapi_downlevel.obj
 0002:000037c0       ??_C@_1DK@LPPGFMPP@?$AAa?$AAp?$AAi?$AA?9?$AAm?$AAs?$AA?9?$AAw?$AAi?$AAn?$AA?9?$AAc?$AAo?$AAr?$AAe@ 00000001800297c0     libvcruntime:winapi_downlevel.obj
 0002:00003800       ??_C@_1BC@GDMECMAK@?$AAk?$AAe?$AAr?$AAn?$AAe?$AAl?$AA3?$AA2@ 0000000180029800     libvcruntime:winapi_downlevel.obj
 0002:00003818       ??_C@_1BA@PFFKHIOG@?$AAa?$AAp?$AAi?$AA?9?$AAm?$AAs?$AA?9@ 0000000180029818     libvcruntime:winapi_downlevel.obj
 0002:00003830       ??_C@_08KNHFBNJ@FlsAlloc@  0000000180029830     libvcruntime:winapi_downlevel.obj
 0002:00003848       ??_C@_07PEJMOBNF@FlsFree@  0000000180029848     libvcruntime:winapi_downlevel.obj
 0002:00003858       ??_C@_0M@GDNOONDI@FlsGetValue@ 0000000180029858     libvcruntime:winapi_downlevel.obj
 0002:00003870       ??_C@_0M@JCPCPOEF@FlsSetValue@ 0000000180029870     libvcruntime:winapi_downlevel.obj
 0002:00003888       ??_C@_0BM@HCFOFFN@InitializeCriticalSectionEx@ 0000000180029888     libvcruntime:winapi_downlevel.obj
 0002:00003a20       ?format_validation_lookup_table_spectre@__crt_stdio_output@@3V?$spectre_mitigated_lookup_table@Ustate_transition_pair@__crt_stdio_output@@$0IA@@1@B 0000000180029a20     libucrt:output.obj
 0002:00003b20       ??_C@_1O@CEDCILHN@?$AA?$CI?$AAn?$AAu?$AAl?$AAl?$AA?$CJ@ 0000000180029b20     libucrt:output.obj
 0002:00003b30       ??_C@_06OJHGLDPL@?$CInull?$CJ@ 0000000180029b30     libucrt:output.obj
 0002:00003b40       __acrt_exception_action_table 0000000180029b40     libucrt:exception_filter.obj
 0002:00003c00       __acrt_signal_action_table_count 0000000180029c00     libucrt:exception_filter.obj
 0002:00003c08       __acrt_signal_action_first_fpe_index 0000000180029c08     libucrt:exception_filter.obj
 0002:00003c10       __acrt_signal_action_fpe_count 0000000180029c10     libucrt:exception_filter.obj
 0002:00003c68       ??_C@_1BI@BGOHAHKC@?$AAm?$AAs?$AAc?$AAo?$AAr?$AAe?$AAe?$AA?4?$AAd?$AAl?$AAl@ 0000000180029c68     libucrt:exit.obj
 0002:00003c80       ??_C@_0P@MIGLKIOC@CorExitProcess@ 0000000180029c80     libucrt:exit.obj
 0002:00003de0       __lc_time_c                0000000180029de0     libucrt:nlsdata.obj
 0002:000040a0       ??_C@_03KOEHGMDN@Sun@      000000018002a0a0     libucrt:nlsdata.obj
 0002:000040a4       ??_C@_03PDAGKDH@Mon@       000000018002a0a4     libucrt:nlsdata.obj
 0002:000040a8       ??_C@_03NAGEINEP@Tue@      000000018002a0a8     libucrt:nlsdata.obj
 0002:000040ac       ??_C@_03MHOMLAJA@Wed@      000000018002a0ac     libucrt:nlsdata.obj
 0002:000040b0       ??_C@_03IOFIKPDN@Thu@      000000018002a0b0     libucrt:nlsdata.obj
 0002:000040b4       ??_C@_03IDIOELNC@Fri@      000000018002a0b4     libucrt:nlsdata.obj
 0002:000040b8       ??_C@_03FEFJNEK@Sat@       000000018002a0b8     libucrt:nlsdata.obj
 0002:000040bc       ??_C@_06OOPIFAJ@Sunday@    000000018002a0bc     libucrt:nlsdata.obj
 0002:000040c4       ??_C@_06JLEDEDGH@Monday@   000000018002a0c4     libucrt:nlsdata.obj
 0002:000040d0       ??_C@_07BAAGCFCM@Tuesday@  000000018002a0d0     libucrt:nlsdata.obj
 0002:000040d8       ??_C@_09DLIGFAKA@Wednesday@ 000000018002a0d8     libucrt:nlsdata.obj
 0002:000040e8       ??_C@_08HACCIKIA@Thursday@ 000000018002a0e8     libucrt:nlsdata.obj
 0002:000040f4       ??_C@_06JECMNKMI@Friday@   000000018002a0f4     libucrt:nlsdata.obj
 0002:00004100       ??_C@_08INBOOONO@Saturday@ 000000018002a100     libucrt:nlsdata.obj
 0002:0000410c       ??_C@_03JIHJHPIE@Jan@      000000018002a10c     libucrt:nlsdata.obj
 0002:00004110       ??_C@_03HJBDCHOM@Feb@      000000018002a110     libucrt:nlsdata.obj
 0002:00004114       ??_C@_03ODNJBKGA@Mar@      000000018002a114     libucrt:nlsdata.obj
 0002:00004118       ??_C@_03LEOLGMJP@Apr@      000000018002a118     libucrt:nlsdata.obj
 0002:0000411c       ??_C@_03CNMDKL@May@        000000018002a11c     libucrt:nlsdata.obj
 0002:00004120       ??_C@_03IDFGHECI@Jun@      000000018002a120     libucrt:nlsdata.obj
 0002:00004124       ??_C@_03LBGABGKK@Jul@      000000018002a124     libucrt:nlsdata.obj
 0002:00004128       ??_C@_03IFJFEIGA@Aug@      000000018002a128     libucrt:nlsdata.obj
 0002:0000412c       ??_C@_03GGCAPAJC@Sep@      000000018002a12c     libucrt:nlsdata.obj
 0002:00004130       ??_C@_03BMAOKBAD@Oct@      000000018002a130     libucrt:nlsdata.obj
 0002:00004134       ??_C@_03JPJOFNIA@Nov@      000000018002a134     libucrt:nlsdata.obj
 0002:00004138       ??_C@_03MKABNOCG@Dec@      000000018002a138     libucrt:nlsdata.obj
 0002:00004140       ??_C@_07CGJPFGJA@January@  000000018002a140     libucrt:nlsdata.obj
 0002:00004148       ??_C@_08GNJGEPFN@February@ 000000018002a148     libucrt:nlsdata.obj
 0002:00004154       ??_C@_05HPCKOFNC@March@    000000018002a154     libucrt:nlsdata.obj
 0002:0000415c       ??_C@_05DMJDNLEJ@April@    000000018002a15c     libucrt:nlsdata.obj
 0002:00004164       ??_C@_04CNLMGBGM@June@     000000018002a164     libucrt:nlsdata.obj
 0002:0000416c       ??_C@_04MIEPOIFP@July@     000000018002a16c     libucrt:nlsdata.obj
 0002:00004174       ??_C@_06LBBHFDDG@August@   000000018002a174     libucrt:nlsdata.obj
 0002:00004180       ??_C@_09BHHEALKD@September@ 000000018002a180     libucrt:nlsdata.obj
 0002:00004190       ??_C@_07JJNFCEND@October@  000000018002a190     libucrt:nlsdata.obj
 0002:00004198       ??_C@_08HCHEGEOA@November@ 000000018002a198     libucrt:nlsdata.obj
 0002:000041a8       ??_C@_08EDHMEBNP@December@ 000000018002a1a8     libucrt:nlsdata.obj
 0002:000041b4       ??_C@_02DEDBPAFC@AM@       000000018002a1b4     libucrt:nlsdata.obj
 0002:000041b8       ??_C@_02CJNFDJBF@PM@       000000018002a1b8     libucrt:nlsdata.obj
 0002:000041c0       ??_C@_08BPBNCDIB@MM?1dd?1yy@ 000000018002a1c0     libucrt:nlsdata.obj
 0002:000041d0       ??_C@_0BE@CKGJFCPC@dddd?0?5MMMM?5dd?0?5yyyy@ 000000018002a1d0     libucrt:nlsdata.obj
 0002:000041e8       ??_C@_08JCCMCCIL@HH?3mm?3ss@ 000000018002a1e8     libucrt:nlsdata.obj
 0002:000041f8       ??_C@_17MBGCMIPB@?$AAS?$AAu?$AAn@ 000000018002a1f8     libucrt:nlsdata.obj
 0002:00004200       ??_C@_17KBOMKBF@?$AAM?$AAo?$AAn@ 000000018002a200     libucrt:nlsdata.obj
 0002:00004208       ??_C@_17BMKGEGOJ@?$AAT?$AAu?$AAe@ 000000018002a208     libucrt:nlsdata.obj
 0002:00004210       ??_C@_17CJEDCEPE@?$AAW?$AAe?$AAd@ 000000018002a210     libucrt:nlsdata.obj
 0002:00004218       ??_C@_17PDPHAADD@?$AAT?$AAh?$AAu@ 000000018002a218     libucrt:nlsdata.obj
 0002:00004220       ??_C@_17HFOLPPLP@?$AAF?$AAr?$AAi@ 000000018002a220     libucrt:nlsdata.obj
 0002:00004228       ??_C@_17GGIBDPIH@?$AAS?$AAa?$AAt@ 000000018002a228     libucrt:nlsdata.obj
 0002:00004230       ??_C@_1O@IHNHDHPB@?$AAS?$AAu?$AAn?$AAd?$AAa?$AAy@ 000000018002a230     libucrt:nlsdata.obj
 0002:00004240       ??_C@_1O@MMNBFLIA@?$AAM?$AAo?$AAn?$AAd?$AAa?$AAy@ 000000018002a240     libucrt:nlsdata.obj
 0002:00004250       ??_C@_1BA@ENFBFFEK@?$AAT?$AAu?$AAe?$AAs?$AAd?$AAa?$AAy@ 000000018002a250     libucrt:nlsdata.obj
 0002:00004260       ??_C@_1BE@EBOGMDOH@?$AAW?$AAe?$AAd?$AAn?$AAe?$AAs?$AAd?$AAa?$AAy@ 000000018002a260     libucrt:nlsdata.obj
 0002:00004278       ??_C@_1BC@HHMNLIHE@?$AAT?$AAh?$AAu?$AAr?$AAs?$AAd?$AAa?$AAy@ 000000018002a278     libucrt:nlsdata.obj
 0002:00004290       ??_C@_1O@PDICJHAG@?$AAF?$AAr?$AAi?$AAd?$AAa?$AAy@ 000000018002a290     libucrt:nlsdata.obj
 0002:000042a0       ??_C@_1BC@ENMNNPAJ@?$AAS?$AAa?$AAt?$AAu?$AAr?$AAd?$AAa?$AAy@ 000000018002a2a0     libucrt:nlsdata.obj
 0002:000042b8       ??_C@_17DKNBKCHM@?$AAJ?$AAa?$AAn@ 000000018002a2b8     libucrt:nlsdata.obj
 0002:000042c0       ??_C@_17LMDJEKJN@?$AAF?$AAe?$AAb@ 000000018002a2c0     libucrt:nlsdata.obj
 0002:000042c8       ??_C@_17CKNLEDEC@?$AAM?$AAa?$AAr@ 000000018002a2c8     libucrt:nlsdata.obj
 0002:000042d0       ??_C@_17LFPOIHDD@?$AAA?$AAp?$AAr@ 000000018002a2d0     libucrt:nlsdata.obj
 0002:000042d8       ??_C@_17PNNKMEED@?$AAM?$AAa?$AAy@ 000000018002a2d8     libucrt:nlsdata.obj
 0002:000042e0       ??_C@_17KCJGOCPB@?$AAJ?$AAu?$AAn@ 000000018002a2e0     libucrt:nlsdata.obj
 0002:000042e8       ??_C@_17IJPCKHK@?$AAJ?$AAu?$AAl@ 000000018002a2e8     libucrt:nlsdata.obj
 0002:000042f0       ??_C@_17ICPELBCN@?$AAA?$AAu?$AAg@ 000000018002a2f0     libucrt:nlsdata.obj
 0002:000042f8       ??_C@_17HCHCOKMG@?$AAS?$AAe?$AAp@ 000000018002a2f8     libucrt:nlsdata.obj
 0002:00004300       ??_C@_17FNLKOI@?$AAO?$AAc?$AAt@ 000000018002a300     libucrt:nlsdata.obj
 0002:00004308       ??_C@_17BBDMLCIG@?$AAN?$AAo?$AAv@ 000000018002a308     libucrt:nlsdata.obj
 0002:00004310       ??_C@_17EGKACKIF@?$AAD?$AAe?$AAc@ 000000018002a310     libucrt:nlsdata.obj
 0002:00004318       ??_C@_1BA@EFMEIEBA@?$AAJ?$AAa?$AAn?$AAu?$AAa?$AAr?$AAy@ 000000018002a318     libucrt:nlsdata.obj
 0002:00004328       ??_C@_1BC@JGDDFFAM@?$AAF?$AAe?$AAb?$AAr?$AAu?$AAa?$AAr?$AAy@ 000000018002a328     libucrt:nlsdata.obj
 0002:00004340       ??_C@_1M@IKEENEDF@?$AAM?$AAa?$AAr?$AAc?$AAh@ 000000018002a340     libucrt:nlsdata.obj
 0002:00004350       ??_C@_1M@GJNLMHFD@?$AAA?$AAp?$AAr?$AAi?$AAl@ 000000018002a350     libucrt:nlsdata.obj
 0002:00004360       ??_C@_19EPFLPGAP@?$AAJ?$AAu?$AAn?$AAe@ 000000018002a360     libucrt:nlsdata.obj
 0002:00004370       ??_C@_19BIFMLPCD@?$AAJ?$AAu?$AAl?$AAy@ 000000018002a370     libucrt:nlsdata.obj
 0002:00004380       ??_C@_1O@PAHLKOAC@?$AAA?$AAu?$AAg?$AAu?$AAs?$AAt@ 000000018002a380     libucrt:nlsdata.obj
 0002:00004390       ??_C@_1BE@DKAAMBJL@?$AAS?$AAe?$AAp?$AAt?$AAe?$AAm?$AAb?$AAe?$AAr@ 000000018002a390     libucrt:nlsdata.obj
 0002:000043a8       ??_C@_1BA@EPANDLNG@?$AAO?$AAc?$AAt?$AAo?$AAb?$AAe?$AAr@ 000000018002a3a8     libucrt:nlsdata.obj
 0002:000043b8       ??_C@_1BC@BGLIFPF@?$AAN?$AAo?$AAv?$AAe?$AAm?$AAb?$AAe?$AAr@ 000000018002a3b8     libucrt:nlsdata.obj
 0002:000043d0       ??_C@_1BC@FEMKIFH@?$AAD?$AAe?$AAc?$AAe?$AAm?$AAb?$AAe?$AAr@ 000000018002a3d0     libucrt:nlsdata.obj
 0002:000043e4       ??_C@_15ODEHAHHF@?$AAA?$AAM@ 000000018002a3e4     libucrt:nlsdata.obj
 0002:000043ec       ??_C@_15CLMNNGEL@?$AAP?$AAM@ 000000018002a3ec     libucrt:nlsdata.obj
 0002:000043f8       ??_C@_1BC@IEBCMHCM@?$AAM?$AAM?$AA?1?$AAd?$AAd?$AA?1?$AAy?$AAy@ 000000018002a3f8     libucrt:nlsdata.obj
 0002:00004410       ??_C@_1CI@KNAKOEBC@?$AAd?$AAd?$AAd?$AAd?$AA?0?$AA?5?$AAM?$AAM?$AAM?$AAM?$AA?5?$AAd?$AAd?$AA?0?$AA?5@ 000000018002a410     libucrt:nlsdata.obj
 0002:00004438       ??_C@_1BC@GDGBMEMK@?$AAH?$AAH?$AA?3?$AAm?$AAm?$AA?3?$AAs?$AAs@ 000000018002a438     libucrt:nlsdata.obj
 0002:00004450       ??_C@_1M@BMHNFIME@?$AAe?$AAn?$AA?9?$AAU?$AAS@ 000000018002a450     libucrt:nlsdata.obj
 0002:00004500       ??_C@_1EA@JGEFHKEI@?$AAa?$AAp?$AAi?$AA?9?$AAm?$AAs?$AA?9?$AAw?$AAi?$AAn?$AA?9?$AAc?$AAo?$AAr?$AAe@ 000000018002a500     libucrt:winapi_thunks.obj
 0002:00004540       ??_C@_1DI@IJCEHOCB@?$AAa?$AAp?$AAi?$AA?9?$AAm?$AAs?$AA?9?$AAw?$AAi?$AAn?$AA?9?$AAc?$AAo?$AAr?$AAe@ 000000018002a540     libucrt:winapi_thunks.obj
 0002:00004580       ??_C@_1EI@MPIAOHOC@?$AAa?$AAp?$AAi?$AA?9?$AAm?$AAs?$AA?9?$AAw?$AAi?$AAn?$AA?9?$AAc?$AAo?$AAr?$AAe@ 000000018002a580     libucrt:winapi_thunks.obj
 0002:000045d0       ??_C@_1FK@FPHCKFIE@?$AAa?$AAp?$AAi?$AA?9?$AAm?$AAs?$AA?9?$AAw?$AAi?$AAn?$AA?9?$AAc?$AAo?$AAr?$AAe@ 000000018002a5d0     libucrt:winapi_thunks.obj
 0002:00004630       ??_C@_1EM@DILCGIIO@?$AAa?$AAp?$AAi?$AA?9?$AAm?$AAs?$AA?9?$AAw?$AAi?$AAn?$AA?9?$AAc?$AAo?$AAr?$AAe@ 000000018002a630     libucrt:winapi_thunks.obj
 0002:00004680       ??_C@_1DM@LNCGDDPN@?$AAa?$AAp?$AAi?$AA?9?$AAm?$AAs?$AA?9?$AAw?$AAi?$AAn?$AA?9?$AAc?$AAo?$AAr?$AAe@ 000000018002a680     libucrt:winapi_thunks.obj
 0002:000046c0       ??_C@_1DO@FPAPJEMD@?$AAa?$AAp?$AAi?$AA?9?$AAm?$AAs?$AA?9?$AAw?$AAi?$AAn?$AA?9?$AAc?$AAo?$AAr?$AAe@ 000000018002a6c0     libucrt:winapi_thunks.obj
 0002:00004700       ??_C@_1DK@NDHNAHIO@?$AAa?$AAp?$AAi?$AA?9?$AAm?$AAs?$AA?9?$AAw?$AAi?$AAn?$AA?9?$AAc?$AAo?$AAr?$AAe@ 000000018002a700     libucrt:winapi_thunks.obj
 0002:00004740       ??_C@_1DM@KGHDGBCM@?$AAa?$AAp?$AAi?$AA?9?$AAm?$AAs?$AA?9?$AAw?$AAi?$AAn?$AA?9?$AAc?$AAo?$AAr?$AAe@ 000000018002a740     libucrt:winapi_thunks.obj
 0002:00004780       ??_C@_1EO@IJIOEFOH@?$AAa?$AAp?$AAi?$AA?9?$AAm?$AAs?$AA?9?$AAw?$AAi?$AAn?$AA?9?$AAr?$AAt?$AAc?$AAo@ 000000018002a780     libucrt:winapi_thunks.obj
 0002:000047d0       ??_C@_1FG@HHGEKANL@?$AAa?$AAp?$AAi?$AA?9?$AAm?$AAs?$AA?9?$AAw?$AAi?$AAn?$AA?9?$AAs?$AAe?$AAc?$AAu@ 000000018002a7d0     libucrt:winapi_thunks.obj
 0002:00004830       ??_C@_1EG@DBIOJECG@?$AAe?$AAx?$AAt?$AA?9?$AAm?$AAs?$AA?9?$AAw?$AAi?$AAn?$AA?9?$AAn?$AAt?$AAu?$AAs@ 000000018002a830     libucrt:winapi_thunks.obj
 0002:00004880       ??_C@_1EO@FIHMJCLF@?$AAe?$AAx?$AAt?$AA?9?$AAm?$AAs?$AA?9?$AAw?$AAi?$AAn?$AA?9?$AAn?$AAt?$AAu?$AAs@ 000000018002a880     libucrt:winapi_thunks.obj
 0002:000048d0       ??_C@_1BC@DNHGCMLG@?$AAa?$AAd?$AAv?$AAa?$AAp?$AAi?$AA3?$AA2@ 000000018002a8d0     libucrt:winapi_thunks.obj
 0002:000048e8       ??_C@_1M@OAIMIKLP@?$AAn?$AAt?$AAd?$AAl?$AAl@ 000000018002a8e8     libucrt:winapi_thunks.obj
 0002:00004900       ??_C@_1EG@DPGNFKGC@?$AAa?$AAp?$AAi?$AA?9?$AAm?$AAs?$AA?9?$AAw?$AAi?$AAn?$AA?9?$AAa?$AAp?$AAp?$AAm@ 000000018002a900     libucrt:winapi_thunks.obj
 0002:00004948       ??_C@_1O@BCCLBEOE@?$AAu?$AAs?$AAe?$AAr?$AA3?$AA2@ 000000018002a948     libucrt:winapi_thunks.obj
 0002:00004958       ??_C@_1BA@IAIFMGEF@?$AAe?$AAx?$AAt?$AA?9?$AAm?$AAs?$AA?9@ 000000018002a958     libucrt:winapi_thunks.obj
 0002:00004970       ??_C@_0BA@FHFNEAED@AreFileApisANSI@ 000000018002a970     libucrt:winapi_thunks.obj
 0002:00004990       ??_C@_0O@KKBNKAPF@LCMapStringEx@ 000000018002a990     libucrt:winapi_thunks.obj
 0002:000049a8       ??_C@_0BB@HBDEELFH@LocaleNameToLCID@ 000000018002a9a8     libucrt:winapi_thunks.obj
 0002:000049c0       ??_C@_0CF@OJOFEIGO@AppPolicyGetProcessTerminationM@ 000000018002a9c0     libucrt:winapi_thunks.obj
 0002:000049f0       ??_C@_0BI@BKLFFAPO@SetThreadStackGuarantee@ 000000018002a9f0     libucrt:winapi_thunks.obj
 0002:00004a90       ??_C@_03OEIAHPBN@INF@      000000018002aa90     libucrt:cvt.obj
 0002:00004a94       ??_C@_03OJHLLCGB@inf@      000000018002aa94     libucrt:cvt.obj
 0002:00004a98       ??_C@_03LKNCIKJB@NAN@      000000018002aa98     libucrt:cvt.obj
 0002:00004a9c       ??_C@_03LHCJEHON@nan@      000000018002aa9c     libucrt:cvt.obj
 0002:00004aa0       ??_C@_09OFJJIMPC@NAN?$CISNAN?$CJ@ 000000018002aaa0     libucrt:cvt.obj
 0002:00004ab0       ??_C@_09IPFBKMDL@nan?$CIsnan?$CJ@ 000000018002aab0     libucrt:cvt.obj
 0002:00004ac0       ??_C@_08IKHNHAJ@NAN?$CIIND?$CJ@ 000000018002aac0     libucrt:cvt.obj
 0002:00004ad0       ??_C@_08OFCDMILK@nan?$CIind?$CJ@ 000000018002aad0     libucrt:cvt.obj
 0002:00004adc       ??_C@_05KLBDPFGC@e?$CL000@ 000000018002aadc     libucrt:cvt.obj
 0002:00004b08       ??_C@_1M@HPNHIDJI@?$AAj?$AAa?$AA?9?$AAJ?$AAP@ 000000018002ab08     libucrt:mbctype.obj
 0002:00004b18       ??_C@_1M@BIBDDEMK@?$AAz?$AAh?$AA?9?$AAC?$AAN@ 000000018002ab18     libucrt:mbctype.obj
 0002:00004b28       ??_C@_1M@JLOOOEGK@?$AAk?$AAo?$AA?9?$AAK?$AAR@ 000000018002ab28     libucrt:mbctype.obj
 0002:00004b38       ??_C@_1M@CLNBBOPM@?$AAz?$AAh?$AA?9?$AAT?$AAW@ 000000018002ab38     libucrt:mbctype.obj
 0002:00004b50       __newctype                 000000018002ab50     libucrt:ctype.obj
 0002:00004e50       __newclmap                 000000018002ae50     libucrt:ctype.obj
 0002:00004fd0       __newcumap                 000000018002afd0     libucrt:ctype.obj
 0002:00005150       ??_C@_15PJPFLCCM@?$AAu?$AAk@ 000000018002b150     libucrt:get_qualified_locale.obj
 0002:00005fa0       ??_C@_15EMKDOKLE@?$AAa?$AAr@ 000000018002bfa0     libucrt:lcidtoname_downlevel.obj
 0002:00005fa8       ??_C@_15KNPADPLH@?$AAb?$AAg@ 000000018002bfa8     libucrt:lcidtoname_downlevel.obj
 0002:00005fb0       ??_C@_15EDMHLDMO@?$AAc?$AAa@ 000000018002bfb0     libucrt:lcidtoname_downlevel.obj
 0002:00005fb8       ??_C@_1O@BPEAJADD@?$AAz?$AAh?$AA?9?$AAC?$AAH?$AAS@ 000000018002bfb8     libucrt:lcidtoname_downlevel.obj
 0002:00005fc8       ??_C@_15LJNHCMNK@?$AAc?$AAs@ 000000018002bfc8     libucrt:lcidtoname_downlevel.obj
 0002:00005fd0       ??_C@_15FOMCIDHG@?$AAd?$AAa@ 000000018002bfd0     libucrt:lcidtoname_downlevel.obj
 0002:00005fd8       ??_C@_15NBKABECB@?$AAd?$AAe@ 000000018002bfd8     libucrt:lcidtoname_downlevel.obj
 0002:00005fe0       ??_C@_15GHPEIIAO@?$AAe?$AAl@ 000000018002bfe0     libucrt:lcidtoname_downlevel.obj
 0002:00005fe8       ??_C@_15MNPNEAIF@?$AAe?$AAn@ 000000018002bfe8     libucrt:lcidtoname_downlevel.obj
 0002:00005ff0       ??_C@_15GPIOMPMH@?$AAe?$AAs@ 000000018002bff0     libucrt:lcidtoname_downlevel.obj
 0002:00005ff8       ??_C@_15NGLOAKJC@?$AAf?$AAi@ 000000018002bff8     libucrt:lcidtoname_downlevel.obj
 0002:00006000       ??_C@_15FBKGNKAM@?$AAf?$AAr@ 000000018002c000     libucrt:lcidtoname_downlevel.obj
 0002:00006008       ??_C@_15KGGCNEFK@?$AAh?$AAe@ 000000018002c008     libucrt:lcidtoname_downlevel.obj
 0002:00006010       ??_C@_15PGHLIDMF@?$AAh?$AAu@ 000000018002c010     libucrt:lcidtoname_downlevel.obj
 0002:00006018       ??_C@_15BIEMAPLM@?$AAi?$AAs@ 000000018002c018     libucrt:lcidtoname_downlevel.obj
 0002:00006020       ??_C@_15IFJLDHAF@?$AAi?$AAt@ 000000018002c020     libucrt:lcidtoname_downlevel.obj
 0002:00006028       ??_C@_15GEMIOCAG@?$AAj?$AAa@ 000000018002c028     libucrt:lcidtoname_downlevel.obj
 0002:00006030       ??_C@_15EPELEGJA@?$AAk?$AAo@ 000000018002c030     libucrt:lcidtoname_downlevel.obj
 0002:00006038       ??_C@_15NDDHIMN@?$AAn?$AAl@ 000000018002c038     libucrt:lcidtoname_downlevel.obj
 0002:00006040       ??_C@_15BPIGNHCD@?$AAn?$AAo@ 000000018002c040     libucrt:lcidtoname_downlevel.obj
 0002:00006048       ??_C@_15DEOPBLCG@?$AAp?$AAl@ 000000018002c048     libucrt:lcidtoname_downlevel.obj
 0002:00006050       ??_C@_15KBECGEFG@?$AAp?$AAt@ 000000018002c050     libucrt:lcidtoname_downlevel.obj
 0002:00006058       ??_C@_15GLJCBFMD@?$AAr?$AAo@ 000000018002c058     libucrt:lcidtoname_downlevel.obj
 0002:00006060       ??_C@_15FEDGKCDI@?$AAr?$AAu@ 000000018002c060     libucrt:lcidtoname_downlevel.obj
 0002:00006068       ??_C@_15GLKMLLHM@?$AAh?$AAr@ 000000018002c068     libucrt:lcidtoname_downlevel.obj
 0002:00006070       ??_C@_15CPKMFBDB@?$AAs?$AAk@ 000000018002c070     libucrt:lcidtoname_downlevel.obj
 0002:00006078       ??_C@_15BAAIOGMK@?$AAs?$AAq@ 000000018002c078     libucrt:lcidtoname_downlevel.obj
 0002:00006080       ??_C@_15INNPNOHD@?$AAs?$AAv@ 000000018002c080     libucrt:lcidtoname_downlevel.obj
 0002:00006088       ??_C@_15CABMMOGH@?$AAt?$AAh@ 000000018002c088     libucrt:lcidtoname_downlevel.obj
 0002:00006090       ??_C@_15BPLIHJJM@?$AAt?$AAr@ 000000018002c090     libucrt:lcidtoname_downlevel.obj
 0002:00006098       ??_C@_15NEOEKKDJ@?$AAu?$AAr@ 000000018002c098     libucrt:lcidtoname_downlevel.obj
 0002:000060a0       ??_C@_15NFICGAJK@?$AAi?$AAd@ 000000018002c0a0     libucrt:lcidtoname_downlevel.obj
 0002:000060a8       ??_C@_15HPJPHDM@?$AAb?$AAe@ 000000018002c0a8     libucrt:lcidtoname_downlevel.obj
 0002:000060b0       ??_C@_15LCHLGJII@?$AAs?$AAl@ 000000018002c0b0     libucrt:lcidtoname_downlevel.obj
 0002:000060b8       ??_C@_15PCFJPHHO@?$AAe?$AAt@ 000000018002c0b8     libucrt:lcidtoname_downlevel.obj
 0002:000060c0       ??_C@_15HPFPGODN@?$AAl?$AAv@ 000000018002c0c0     libucrt:lcidtoname_downlevel.obj
 0002:000060c8       ??_C@_15NFFGKGLG@?$AAl?$AAt@ 000000018002c0c8     libucrt:lcidtoname_downlevel.obj
 0002:000060d0       ??_C@_15BDAKCCHN@?$AAf?$AAa@ 000000018002c0d0     libucrt:lcidtoname_downlevel.obj
 0002:000060d8       ??_C@_15NFGIAIAJ@?$AAv?$AAi@ 000000018002c0d8     libucrt:lcidtoname_downlevel.obj
 0002:000060e0       ??_C@_15LMKNDMHN@?$AAh?$AAy@ 000000018002c0e0     libucrt:lcidtoname_downlevel.obj
 0002:000060e8       ??_C@_15IJBHMCFL@?$AAa?$AAz@ 000000018002c0e8     libucrt:lcidtoname_downlevel.obj
 0002:000060f0       ??_C@_15EKOFJABL@?$AAe?$AAu@ 000000018002c0f0     libucrt:lcidtoname_downlevel.obj
 0002:000060f8       ??_C@_15BGHADCNK@?$AAm?$AAk@ 000000018002c0f8     libucrt:lcidtoname_downlevel.obj
 0002:00006100       ??_C@_15JDNICKHM@?$AAa?$AAf@ 000000018002c100     libucrt:lcidtoname_downlevel.obj
 0002:00006108       ??_C@_15KPJEDBKD@?$AAk?$AAa@ 000000018002c108     libucrt:lcidtoname_downlevel.obj
 0002:00006110       ??_C@_15PDNFFFEO@?$AAf?$AAo@ 000000018002c110     libucrt:lcidtoname_downlevel.obj
 0002:00006118       ??_C@_15OMLEGLOC@?$AAh?$AAi@ 000000018002c118     libucrt:lcidtoname_downlevel.obj
 0002:00006120       ??_C@_15IDNNENKK@?$AAm?$AAs@ 000000018002c120     libucrt:lcidtoname_downlevel.obj
 0002:00006128       ??_C@_15MACJNBMH@?$AAk?$AAk@ 000000018002c128     libucrt:lcidtoname_downlevel.obj
 0002:00006130       ??_C@_15DKDJEOND@?$AAk?$AAy@ 000000018002c130     libucrt:lcidtoname_downlevel.obj
 0002:00006138       ??_C@_15DFGDLJBG@?$AAs?$AAw@ 000000018002c138     libucrt:lcidtoname_downlevel.obj
 0002:00006140       ??_C@_15BBFAICNG@?$AAu?$AAz@ 000000018002c140     libucrt:lcidtoname_downlevel.obj
 0002:00006148       ??_C@_15DKNDCGEA@?$AAt?$AAt@ 000000018002c148     libucrt:lcidtoname_downlevel.obj
 0002:00006150       ??_C@_15MGIFMDPL@?$AAp?$AAa@ 000000018002c150     libucrt:lcidtoname_downlevel.obj
 0002:00006158       ??_C@_15HCNDBBA@?$AAg?$AAu@ 000000018002c158     libucrt:lcidtoname_downlevel.obj
 0002:00006160       ??_C@_15FNBEIBON@?$AAt?$AAa@ 000000018002c160     libucrt:lcidtoname_downlevel.obj
 0002:00006168       ??_C@_15NCHGBGLK@?$AAt?$AAe@ 000000018002c168     libucrt:lcidtoname_downlevel.obj
 0002:00006170       ??_C@_15PHPHCBPF@?$AAk?$AAn@ 000000018002c170     libucrt:lcidtoname_downlevel.obj
 0002:00006178       ??_C@_15DLGBCKMP@?$AAm?$AAr@ 000000018002c178     libucrt:lcidtoname_downlevel.obj
 0002:00006180       ??_C@_15EABBLBFF@?$AAs?$AAa@ 000000018002c180     libucrt:lcidtoname_downlevel.obj
 0002:00006188       ??_C@_15CBKOMCOI@?$AAm?$AAn@ 000000018002c188     libucrt:lcidtoname_downlevel.obj
 0002:00006190       ??_C@_15CKDMCJAF@?$AAg?$AAl@ 000000018002c190     libucrt:lcidtoname_downlevel.obj
 0002:00006198       ??_C@_17CNJFBPG@?$AAk?$AAo?$AAk@ 000000018002c198     libucrt:lcidtoname_downlevel.obj
 0002:000061a0       ??_C@_17FFBJICPL@?$AAs?$AAy?$AAr@ 000000018002c1a0     libucrt:lcidtoname_downlevel.obj
 0002:000061a8       ??_C@_17KPNDCPAF@?$AAd?$AAi?$AAv@ 000000018002c1a8     libucrt:lcidtoname_downlevel.obj
 0002:000061b0       ??_C@_1M@OKAHONE@?$AAa?$AAr?$AA?9?$AAS?$AAA@ 000000018002c1b0     libucrt:lcidtoname_downlevel.obj
 0002:000061c0       ??_C@_1M@FFFIGIGK@?$AAb?$AAg?$AA?9?$AAB?$AAG@ 000000018002c1c0     libucrt:lcidtoname_downlevel.obj
 0002:000061d0       ??_C@_1M@BJNKEDC@?$AAc?$AAa?$AA?9?$AAE?$AAS@ 000000018002c1d0     libucrt:lcidtoname_downlevel.obj
 0002:000061e0       ??_C@_1M@IJJHFJHA@?$AAc?$AAs?$AA?9?$AAC?$AAZ@ 000000018002c1e0     libucrt:lcidtoname_downlevel.obj
 0002:000061f0       ??_C@_1M@CLPEOBGI@?$AAd?$AAa?$AA?9?$AAD?$AAK@ 000000018002c1f0     libucrt:lcidtoname_downlevel.obj
 0002:00006200       ??_C@_1M@MCMADGCB@?$AAd?$AAe?$AA?9?$AAD?$AAE@ 000000018002c200     libucrt:lcidtoname_downlevel.obj
 0002:00006210       ??_C@_1M@OOCKEMAM@?$AAe?$AAl?$AA?9?$AAG?$AAR@ 000000018002c210     libucrt:lcidtoname_downlevel.obj
 0002:00006220       ??_C@_1M@DDNJFGID@?$AAf?$AAi?$AA?9?$AAF?$AAI@ 000000018002c220     libucrt:lcidtoname_downlevel.obj
 0002:00006230       ??_C@_1M@GLIPPMAC@?$AAf?$AAr?$AA?9?$AAF?$AAR@ 000000018002c230     libucrt:lcidtoname_downlevel.obj
 0002:00006240       ??_C@_1M@GFMCHPE@?$AAh?$AAe?$AA?9?$AAI?$AAL@ 000000018002c240     libucrt:lcidtoname_downlevel.obj
 0002:00006250       ??_C@_1M@MHLPGNKM@?$AAh?$AAu?$AA?9?$AAH?$AAU@ 000000018002c250     libucrt:lcidtoname_downlevel.obj
 0002:00006260       ??_C@_1M@LPDDNNPN@?$AAi?$AAs?$AA?9?$AAI?$AAS@ 000000018002c260     libucrt:lcidtoname_downlevel.obj
 0002:00006270       ??_C@_1M@MADIPODN@?$AAi?$AAt?$AA?9?$AAI?$AAT@ 000000018002c270     libucrt:lcidtoname_downlevel.obj
 0002:00006280       ??_C@_1M@IHBJJGG@?$AAn?$AAl?$AA?9?$AAN?$AAL@ 000000018002c280     libucrt:lcidtoname_downlevel.obj
 0002:00006290       ??_C@_1M@EANAGDL@?$AAn?$AAb?$AA?9?$AAN?$AAO@ 000000018002c290     libucrt:lcidtoname_downlevel.obj
 0002:000062a0       ??_C@_1M@NEIEMEGP@?$AAp?$AAl?$AA?9?$AAP?$AAL@ 000000018002c2a0     libucrt:lcidtoname_downlevel.obj
 0002:000062b0       ??_C@_1M@BOCFIGEP@?$AAp?$AAt?$AA?9?$AAB?$AAR@ 000000018002c2b0     libucrt:lcidtoname_downlevel.obj
 0002:000062c0       ??_C@_1M@IMPFOPBG@?$AAr?$AAo?$AA?9?$AAR?$AAO@ 000000018002c2c0     libucrt:lcidtoname_downlevel.obj
 0002:000062d0       ??_C@_1M@IDNNEJMM@?$AAr?$AAu?$AA?9?$AAR?$AAU@ 000000018002c2d0     libucrt:lcidtoname_downlevel.obj
 0002:000062e0       ??_C@_1M@LILEEOGM@?$AAh?$AAr?$AA?9?$AAH?$AAR@ 000000018002c2e0     libucrt:lcidtoname_downlevel.obj
 0002:000062f0       ??_C@_1M@FKIFEHPB@?$AAs?$AAk?$AA?9?$AAS?$AAK@ 000000018002c2f0     libucrt:lcidtoname_downlevel.obj
 0002:00006300       ??_C@_1M@LJMAMNPJ@?$AAs?$AAq?$AA?9?$AAA?$AAL@ 000000018002c300     libucrt:lcidtoname_downlevel.obj
 0002:00006310       ??_C@_1M@GIAKDKJK@?$AAs?$AAv?$AA?9?$AAS?$AAE@ 000000018002c310     libucrt:lcidtoname_downlevel.obj
 0002:00006320       ??_C@_1M@MKJKIKCL@?$AAt?$AAh?$AA?9?$AAT?$AAH@ 000000018002c320     libucrt:lcidtoname_downlevel.obj
 0002:00006330       ??_C@_1M@MFLCCMPB@?$AAt?$AAr?$AA?9?$AAT?$AAR@ 000000018002c330     libucrt:lcidtoname_downlevel.obj
 0002:00006340       ??_C@_1M@OIJHDKJN@?$AAu?$AAr?$AA?9?$AAP?$AAK@ 000000018002c340     libucrt:lcidtoname_downlevel.obj
 0002:00006350       ??_C@_1M@LHIPCIEK@?$AAi?$AAd?$AA?9?$AAI?$AAD@ 000000018002c350     libucrt:lcidtoname_downlevel.obj
 0002:00006360       ??_C@_1M@MFMOBGI@?$AAu?$AAk?$AA?9?$AAU?$AAA@ 000000018002c360     libucrt:lcidtoname_downlevel.obj
 0002:00006370       ??_C@_1M@OBGLJIPL@?$AAb?$AAe?$AA?9?$AAB?$AAY@ 000000018002c370     libucrt:lcidtoname_downlevel.obj
 0002:00006380       ??_C@_1M@BCFAJEAD@?$AAs?$AAl?$AA?9?$AAS?$AAI@ 000000018002c380     libucrt:lcidtoname_downlevel.obj
 0002:00006390       ??_C@_1M@FKFFEDDN@?$AAe?$AAt?$AA?9?$AAE?$AAE@ 000000018002c390     libucrt:lcidtoname_downlevel.obj
 0002:000063a0       ??_C@_1M@KGKKAACI@?$AAl?$AAv?$AA?9?$AAL?$AAV@ 000000018002c3a0     libucrt:lcidtoname_downlevel.obj
 0002:000063b0       ??_C@_1M@IFGBIJO@?$AAl?$AAt?$AA?9?$AAL?$AAT@ 000000018002c3b0     libucrt:lcidtoname_downlevel.obj
 0002:000063c0       ??_C@_1M@FGEAHEDM@?$AAf?$AAa?$AA?9?$AAI?$AAR@ 000000018002c3c0     libucrt:lcidtoname_downlevel.obj
 0002:000063d0       ??_C@_1M@KBMAIBFN@?$AAv?$AAi?$AA?9?$AAV?$AAN@ 000000018002c3d0     libucrt:lcidtoname_downlevel.obj
 0002:000063e0       ??_C@_1M@GPCBKDJK@?$AAh?$AAy?$AA?9?$AAA?$AAM@ 000000018002c3e0     libucrt:lcidtoname_downlevel.obj
 0002:000063f0       ??_C@_1BG@BECMDDJB@?$AAa?$AAz?$AA?9?$AAA?$AAZ?$AA?9?$AAL?$AAa?$AAt?$AAn@ 000000018002c3f0     libucrt:lcidtoname_downlevel.obj
 0002:00006408       ??_C@_1M@MAOFCAEA@?$AAe?$AAu?$AA?9?$AAE?$AAS@ 000000018002c408     libucrt:lcidtoname_downlevel.obj
 0002:00006418       ??_C@_1M@IGHABKPI@?$AAm?$AAk?$AA?9?$AAM?$AAK@ 000000018002c418     libucrt:lcidtoname_downlevel.obj
 0002:00006428       ??_C@_1M@IAIGNEJG@?$AAt?$AAn?$AA?9?$AAZ?$AAA@ 000000018002c428     libucrt:lcidtoname_downlevel.obj
 0002:00006438       ??_C@_1M@IIJCOJFA@?$AAx?$AAh?$AA?9?$AAZ?$AAA@ 000000018002c438     libucrt:lcidtoname_downlevel.obj
 0002:00006448       ??_C@_1M@LGPJHNJH@?$AAz?$AAu?$AA?9?$AAZ?$AAA@ 000000018002c448     libucrt:lcidtoname_downlevel.obj
 0002:00006458       ??_C@_1M@HOKAOIO@?$AAa?$AAf?$AA?9?$AAZ?$AAA@ 000000018002c458     libucrt:lcidtoname_downlevel.obj
 0002:00006468       ??_C@_1M@DPCLHLIE@?$AAk?$AAa?$AA?9?$AAG?$AAE@ 000000018002c468     libucrt:lcidtoname_downlevel.obj
 0002:00006478       ??_C@_1M@BLKMHJBI@?$AAf?$AAo?$AA?9?$AAF?$AAO@ 000000018002c478     libucrt:lcidtoname_downlevel.obj
 0002:00006488       ??_C@_1M@LGGJAPPB@?$AAh?$AAi?$AA?9?$AAI?$AAN@ 000000018002c488     libucrt:lcidtoname_downlevel.obj
 0002:00006498       ??_C@_1M@FIKPIHFE@?$AAm?$AAt?$AA?9?$AAM?$AAT@ 000000018002c498     libucrt:lcidtoname_downlevel.obj
 0002:000064a8       ??_C@_1M@HEGGPBFA@?$AAs?$AAe?$AA?9?$AAN?$AAO@ 000000018002c4a8     libucrt:lcidtoname_downlevel.obj
 0002:000064b8       ??_C@_1M@EIBJEEPA@?$AAm?$AAs?$AA?9?$AAM?$AAY@ 000000018002c4b8     libucrt:lcidtoname_downlevel.obj
 0002:000064c8       ??_C@_1M@FHLBGMPP@?$AAk?$AAk?$AA?9?$AAK?$AAZ@ 000000018002c4c8     libucrt:lcidtoname_downlevel.obj
 0002:000064d8       ??_C@_1M@NGJJLCGI@?$AAk?$AAy?$AA?9?$AAK?$AAG@ 000000018002c4d8     libucrt:lcidtoname_downlevel.obj
 0002:000064e8       ??_C@_1M@GIENNBFC@?$AAs?$AAw?$AA?9?$AAK?$AAE@ 000000018002c4e8     libucrt:lcidtoname_downlevel.obj
 0002:000064f8       ??_C@_1BG@NDGMJIMJ@?$AAu?$AAz?$AA?9?$AAU?$AAZ?$AA?9?$AAL?$AAa?$AAt?$AAn@ 000000018002c4f8     libucrt:lcidtoname_downlevel.obj
 0002:00006510       ??_C@_1M@IDCCIHBC@?$AAt?$AAt?$AA?9?$AAR?$AAU@ 000000018002c510     libucrt:lcidtoname_downlevel.obj
 0002:00006520       ??_C@_1M@LOICPMOJ@?$AAb?$AAn?$AA?9?$AAI?$AAN@ 000000018002c520     libucrt:lcidtoname_downlevel.obj
 0002:00006530       ??_C@_1M@KPKKNEAH@?$AAp?$AAa?$AA?9?$AAI?$AAN@ 000000018002c530     libucrt:lcidtoname_downlevel.obj
 0002:00006540       ??_C@_1M@PJGPPBOG@?$AAg?$AAu?$AA?9?$AAI?$AAN@ 000000018002c540     libucrt:lcidtoname_downlevel.obj
 0002:00006550       ??_C@_1M@KMKMOPHI@?$AAt?$AAa?$AA?9?$AAI?$AAN@ 000000018002c550     libucrt:lcidtoname_downlevel.obj
 0002:00006560       ??_C@_1M@KFEHEPAC@?$AAt?$AAe?$AA?9?$AAI?$AAN@ 000000018002c560     libucrt:lcidtoname_downlevel.obj
 0002:00006570       ??_C@_1M@CDCLMGHI@?$AAk?$AAn?$AA?9?$AAI?$AAN@ 000000018002c570     libucrt:lcidtoname_downlevel.obj
 0002:00006580       ??_C@_1M@MIODLDKF@?$AAm?$AAl?$AA?9?$AAI?$AAN@ 000000018002c580     libucrt:lcidtoname_downlevel.obj
 0002:00006590       ??_C@_1M@PBIEACPO@?$AAm?$AAr?$AA?9?$AAI?$AAN@ 000000018002c590     libucrt:lcidtoname_downlevel.obj
 0002:000065a0       ??_C@_1M@NIDEAGPH@?$AAs?$AAa?$AA?9?$AAI?$AAN@ 000000018002c5a0     libucrt:lcidtoname_downlevel.obj
 0002:000065b0       ??_C@_1M@FHIHCBIO@?$AAm?$AAn?$AA?9?$AAM?$AAN@ 000000018002c5b0     libucrt:lcidtoname_downlevel.obj
 0002:000065c0       ??_C@_1M@JAIJPENP@?$AAc?$AAy?$AA?9?$AAG?$AAB@ 000000018002c5c0     libucrt:lcidtoname_downlevel.obj
 0002:000065d0       ??_C@_1M@PHGFBEPN@?$AAg?$AAl?$AA?9?$AAE?$AAS@ 000000018002c5d0     libucrt:lcidtoname_downlevel.obj
 0002:000065e0       ??_C@_1O@KPIPDNCP@?$AAk?$AAo?$AAk?$AA?9?$AAI?$AAN@ 000000018002c5e0     libucrt:lcidtoname_downlevel.obj
 0002:000065f0       ??_C@_1O@KNHJLDJA@?$AAs?$AAy?$AAr?$AA?9?$AAS?$AAY@ 000000018002c5f0     libucrt:lcidtoname_downlevel.obj
 0002:00006600       ??_C@_1O@MKEKBLAH@?$AAd?$AAi?$AAv?$AA?9?$AAM?$AAV@ 000000018002c600     libucrt:lcidtoname_downlevel.obj
 0002:00006610       ??_C@_1O@OHDCKDDF@?$AAq?$AAu?$AAz?$AA?9?$AAB?$AAO@ 000000018002c610     libucrt:lcidtoname_downlevel.obj
 0002:00006620       ??_C@_1M@LEPJNLFD@?$AAn?$AAs?$AA?9?$AAZ?$AAA@ 000000018002c620     libucrt:lcidtoname_downlevel.obj
 0002:00006630       ??_C@_1M@OMLEIIJB@?$AAm?$AAi?$AA?9?$AAN?$AAZ@ 000000018002c630     libucrt:lcidtoname_downlevel.obj
 0002:00006640       ??_C@_1M@PMPEAILG@?$AAa?$AAr?$AA?9?$AAI?$AAQ@ 000000018002c640     libucrt:lcidtoname_downlevel.obj
 0002:00006650       ??_C@_1M@CNKPNOEE@?$AAd?$AAe?$AA?9?$AAC?$AAH@ 000000018002c650     libucrt:lcidtoname_downlevel.obj
 0002:00006660       ??_C@_1M@LKMGMLKO@?$AAe?$AAn?$AA?9?$AAG?$AAB@ 000000018002c660     libucrt:lcidtoname_downlevel.obj
 0002:00006670       ??_C@_1M@PGKJFFGL@?$AAe?$AAs?$AA?9?$AAM?$AAX@ 000000018002c670     libucrt:lcidtoname_downlevel.obj
 0002:00006680       ??_C@_1M@DNNANBDC@?$AAf?$AAr?$AA?9?$AAB?$AAE@ 000000018002c680     libucrt:lcidtoname_downlevel.obj
 0002:00006690       ??_C@_1M@HLGMDFHM@?$AAi?$AAt?$AA?9?$AAC?$AAH@ 000000018002c690     libucrt:lcidtoname_downlevel.obj
 0002:000066a0       ??_C@_1M@CLLBGJH@?$AAn?$AAl?$AA?9?$AAB?$AAE@ 000000018002c6a0     libucrt:lcidtoname_downlevel.obj
 0002:000066b0       ??_C@_1M@BODBOGLF@?$AAn?$AAn?$AA?9?$AAN?$AAO@ 000000018002c6b0     libucrt:lcidtoname_downlevel.obj
 0002:000066c0       ??_C@_1M@HFFAHKAD@?$AAp?$AAt?$AA?9?$AAP?$AAT@ 000000018002c6c0     libucrt:lcidtoname_downlevel.obj
 0002:000066d0       ??_C@_1BG@LNOAKHIE@?$AAs?$AAr?$AA?9?$AAS?$AAP?$AA?9?$AAL?$AAa?$AAt?$AAn@ 000000018002c6d0     libucrt:lcidtoname_downlevel.obj
 0002:000066e8       ??_C@_1M@HBMHBGAK@?$AAs?$AAv?$AA?9?$AAF?$AAI@ 000000018002c6e8     libucrt:lcidtoname_downlevel.obj
 0002:000066f8       ??_C@_1BG@DGCJGJBE@?$AAa?$AAz?$AA?9?$AAA?$AAZ?$AA?9?$AAC?$AAy?$AAr?$AAl@ 000000018002c6f8     libucrt:lcidtoname_downlevel.obj
 0002:00006710       ??_C@_1M@KEJDAAHB@?$AAs?$AAe?$AA?9?$AAS?$AAE@ 000000018002c710     libucrt:lcidtoname_downlevel.obj
 0002:00006720       ??_C@_1M@HEIBJJAD@?$AAm?$AAs?$AA?9?$AAB?$AAN@ 000000018002c720     libucrt:lcidtoname_downlevel.obj
 0002:00006730       ??_C@_1BG@PBGJMCEM@?$AAu?$AAz?$AA?9?$AAU?$AAZ?$AA?9?$AAC?$AAy?$AAr?$AAl@ 000000018002c730     libucrt:lcidtoname_downlevel.obj
 0002:00006748       ??_C@_1O@LAOBCMDF@?$AAq?$AAu?$AAz?$AA?9?$AAE?$AAC@ 000000018002c748     libucrt:lcidtoname_downlevel.obj
 0002:00006758       ??_C@_1M@POEEMAIO@?$AAa?$AAr?$AA?9?$AAE?$AAG@ 000000018002c758     libucrt:lcidtoname_downlevel.obj
 0002:00006768       ??_C@_1M@EFAKDEDL@?$AAz?$AAh?$AA?9?$AAH?$AAK@ 000000018002c768     libucrt:lcidtoname_downlevel.obj
 0002:00006778       ??_C@_1M@HKKIJHGI@?$AAd?$AAe?$AA?9?$AAA?$AAT@ 000000018002c778     libucrt:lcidtoname_downlevel.obj
 0002:00006788       ??_C@_1M@KBFBEHJF@?$AAe?$AAn?$AA?9?$AAA?$AAU@ 000000018002c788     libucrt:lcidtoname_downlevel.obj
 0002:00006798       ??_C@_1M@MNPLFAAH@?$AAe?$AAs?$AA?9?$AAE?$AAS@ 000000018002c798     libucrt:lcidtoname_downlevel.obj
 0002:000067a8       ??_C@_1M@HJOOJFMA@?$AAf?$AAr?$AA?9?$AAC?$AAA@ 000000018002c7a8     libucrt:lcidtoname_downlevel.obj
 0002:000067b8       ??_C@_1BG@JPOFPNAB@?$AAs?$AAr?$AA?9?$AAS?$AAP?$AA?9?$AAC?$AAy?$AAr?$AAl@ 000000018002c7b8     libucrt:lcidtoname_downlevel.obj
 0002:000067d0       ??_C@_1M@LNFOCMOB@?$AAs?$AAe?$AA?9?$AAF?$AAI@ 000000018002c7d0     libucrt:lcidtoname_downlevel.obj
 0002:000067e0       ??_C@_1O@MGJBOAMB@?$AAq?$AAu?$AAz?$AA?9?$AAP?$AAE@ 000000018002c7e0     libucrt:lcidtoname_downlevel.obj
 0002:000067f0       ??_C@_1M@GJINLBOK@?$AAa?$AAr?$AA?9?$AAL?$AAY@ 000000018002c7f0     libucrt:lcidtoname_downlevel.obj
 0002:00006800       ??_C@_1M@GGMNHJNL@?$AAz?$AAh?$AA?9?$AAS?$AAG@ 000000018002c800     libucrt:lcidtoname_downlevel.obj
 0002:00006810       ??_C@_1M@HOIKODND@?$AAd?$AAe?$AA?9?$AAL?$AAU@ 000000018002c810     libucrt:lcidtoname_downlevel.obj
 0002:00006820       ??_C@_1M@DDOCCGFG@?$AAe?$AAn?$AA?9?$AAC?$AAA@ 000000018002c820     libucrt:lcidtoname_downlevel.obj
 0002:00006830       ??_C@_1M@BNOEMJLF@?$AAe?$AAs?$AA?9?$AAG?$AAT@ 000000018002c830     libucrt:lcidtoname_downlevel.obj
 0002:00006840       ??_C@_1M@EOGNKEK@?$AAf?$AAr?$AA?9?$AAC?$AAH@ 000000018002c840     libucrt:lcidtoname_downlevel.obj
 0002:00006850       ??_C@_1M@FLIDJFHL@?$AAh?$AAr?$AA?9?$AAB?$AAA@ 000000018002c850     libucrt:lcidtoname_downlevel.obj
 0002:00006860       ??_C@_1O@FMCELNAJ@?$AAs?$AAm?$AAj?$AA?9?$AAN?$AAO@ 000000018002c860     libucrt:lcidtoname_downlevel.obj
 0002:00006870       ??_C@_1M@JHGLJMGJ@?$AAa?$AAr?$AA?9?$AAD?$AAZ@ 000000018002c870     libucrt:lcidtoname_downlevel.obj
 0002:00006880       ??_C@_1M@JKKFDCNP@?$AAz?$AAh?$AA?9?$AAM?$AAO@ 000000018002c880     libucrt:lcidtoname_downlevel.obj
 0002:00006890       ??_C@_1M@GEEFALPE@?$AAd?$AAe?$AA?9?$AAL?$AAI@ 000000018002c890     libucrt:lcidtoname_downlevel.obj
 0002:000068a0       ??_C@_1M@IGEOFBG@?$AAe?$AAn?$AA?9?$AAN?$AAZ@ 000000018002c8a0     libucrt:lcidtoname_downlevel.obj
 0002:000068b0       ??_C@_1M@KDBONEHP@?$AAe?$AAs?$AA?9?$AAC?$AAR@ 000000018002c8b0     libucrt:lcidtoname_downlevel.obj
 0002:000068c0       ??_C@_1M@FHMDOHNN@?$AAf?$AAr?$AA?9?$AAL?$AAU@ 000000018002c8c0     libucrt:lcidtoname_downlevel.obj
 0002:000068d0       ??_C@_1BG@NFKKMAFG@?$AAb?$AAs?$AA?9?$AAB?$AAA?$AA?9?$AAL?$AAa?$AAt?$AAn@ 000000018002c8d0     libucrt:lcidtoname_downlevel.obj
 0002:000068e8       ??_C@_1O@IMNBEMCI@?$AAs?$AAm?$AAj?$AA?9?$AAS?$AAE@ 000000018002c8e8     libucrt:lcidtoname_downlevel.obj
 0002:000068f8       ??_C@_1M@DHHMBNDP@?$AAa?$AAr?$AA?9?$AAM?$AAA@ 000000018002c8f8     libucrt:lcidtoname_downlevel.obj
 0002:00006908       ??_C@_1M@BNBLJCGH@?$AAe?$AAn?$AA?9?$AAI?$AAE@ 000000018002c908     libucrt:lcidtoname_downlevel.obj
 0002:00006918       ??_C@_1M@GEPAFMDL@?$AAe?$AAs?$AA?9?$AAP?$AAA@ 000000018002c918     libucrt:lcidtoname_downlevel.obj
 0002:00006928       ??_C@_1M@OJONDMDL@?$AAf?$AAr?$AA?9?$AAM?$AAC@ 000000018002c928     libucrt:lcidtoname_downlevel.obj
 0002:00006938       ??_C@_1BG@OBCNFJB@?$AAs?$AAr?$AA?9?$AAB?$AAA?$AA?9?$AAL?$AAa?$AAt?$AAn@ 000000018002c938     libucrt:lcidtoname_downlevel.obj
 0002:00006950       ??_C@_1O@KEMEEGPO@?$AAs?$AAm?$AAa?$AA?9?$AAN?$AAO@ 000000018002c950     libucrt:lcidtoname_downlevel.obj
 0002:00006960       ??_C@_1M@ELMGFODK@?$AAa?$AAr?$AA?9?$AAT?$AAN@ 000000018002c960     libucrt:lcidtoname_downlevel.obj
 0002:00006970       ??_C@_1M@BHDLHFAF@?$AAe?$AAn?$AA?9?$AAZ?$AAA@ 000000018002c970     libucrt:lcidtoname_downlevel.obj
 0002:00006980       ??_C@_1M@BMGIGLIF@?$AAe?$AAs?$AA?9?$AAD?$AAO@ 000000018002c980     libucrt:lcidtoname_downlevel.obj
 0002:00006990       ??_C@_1BG@CMBHIPBE@?$AAs?$AAr?$AA?9?$AAB?$AAA?$AA?9?$AAC?$AAy?$AAr?$AAl@ 000000018002c990     libucrt:lcidtoname_downlevel.obj
 0002:000069a8       ??_C@_1O@HEDBLHNP@?$AAs?$AAm?$AAa?$AA?9?$AAS?$AAE@ 000000018002c9a8     libucrt:lcidtoname_downlevel.obj
 0002:000069b8       ??_C@_1M@DAGCADIM@?$AAa?$AAr?$AA?9?$AAO?$AAM@ 000000018002c9b8     libucrt:lcidtoname_downlevel.obj
 0002:000069c8       ??_C@_1M@FODLMICG@?$AAe?$AAn?$AA?9?$AAJ?$AAM@ 000000018002c9c8     libucrt:lcidtoname_downlevel.obj
 0002:000069d8       ??_C@_1M@DNMLCIHB@?$AAe?$AAs?$AA?9?$AAV?$AAE@ 000000018002c9d8     libucrt:lcidtoname_downlevel.obj
 0002:000069e8       ??_C@_1O@EOKHMKJK@?$AAs?$AAm?$AAs?$AA?9?$AAF?$AAI@ 000000018002c9e8     libucrt:lcidtoname_downlevel.obj
 0002:000069f8       ??_C@_1M@CAFJMKOF@?$AAa?$AAr?$AA?9?$AAY?$AAE@ 000000018002c9f8     libucrt:lcidtoname_downlevel.obj
 0002:00006a08       ??_C@_1M@CBFHIJLI@?$AAe?$AAn?$AA?9?$AAC?$AAB@ 000000018002ca08     libucrt:lcidtoname_downlevel.obj
 0002:00006a18       ??_C@_1M@BGNFLDN@?$AAe?$AAs?$AA?9?$AAC?$AAO@ 000000018002ca18     libucrt:lcidtoname_downlevel.obj
 0002:00006a28       ??_C@_1O@JMPHMAMC@?$AAs?$AAm?$AAn?$AA?9?$AAF?$AAI@ 000000018002ca28     libucrt:lcidtoname_downlevel.obj
 0002:00006a38       ??_C@_1M@JLANABKE@?$AAa?$AAr?$AA?9?$AAS?$AAY@ 000000018002ca38     libucrt:lcidtoname_downlevel.obj
 0002:00006a48       ??_C@_1M@HPKGCFGN@?$AAe?$AAn?$AA?9?$AAB?$AAZ@ 000000018002ca48     libucrt:lcidtoname_downlevel.obj
 0002:00006a58       ??_C@_1M@OLJCMLGM@?$AAe?$AAs?$AA?9?$AAP?$AAE@ 000000018002ca58     libucrt:lcidtoname_downlevel.obj
 0002:00006a68       ??_C@_1M@MKKGFKLE@?$AAa?$AAr?$AA?9?$AAJ?$AAO@ 000000018002ca68     libucrt:lcidtoname_downlevel.obj
 0002:00006a78       ??_C@_1M@EKPGLDNI@?$AAe?$AAn?$AA?9?$AAT?$AAT@ 000000018002ca78     libucrt:lcidtoname_downlevel.obj
 0002:00006a88       ??_C@_1M@OONGHFHE@?$AAe?$AAs?$AA?9?$AAA?$AAR@ 000000018002ca88     libucrt:lcidtoname_downlevel.obj
 0002:00006a98       ??_C@_1M@OOJFGBHE@?$AAa?$AAr?$AA?9?$AAL?$AAB@ 000000018002ca98     libucrt:lcidtoname_downlevel.obj
 0002:00006aa8       ??_C@_1M@GCEJHNEG@?$AAe?$AAn?$AA?9?$AAZ?$AAW@ 000000018002caa8     libucrt:lcidtoname_downlevel.obj
 0002:00006ab8       ??_C@_1M@JNOCAHJI@?$AAe?$AAs?$AA?9?$AAE?$AAC@ 000000018002cab8     libucrt:lcidtoname_downlevel.obj
 0002:00006ac8       ??_C@_1M@JEFHPGGB@?$AAa?$AAr?$AA?9?$AAK?$AAW@ 000000018002cac8     libucrt:lcidtoname_downlevel.obj
 0002:00006ad8       ??_C@_1M@MLKIBJOJ@?$AAe?$AAn?$AA?9?$AAP?$AAH@ 000000018002cad8     libucrt:lcidtoname_downlevel.obj
 0002:00006ae8       ??_C@_1M@BDNIPEND@?$AAe?$AAs?$AA?9?$AAC?$AAL@ 000000018002cae8     libucrt:lcidtoname_downlevel.obj
 0002:00006af8       ??_C@_1M@MPNMEKBD@?$AAa?$AAr?$AA?9?$AAA?$AAE@ 000000018002caf8     libucrt:lcidtoname_downlevel.obj
 0002:00006b08       ??_C@_1M@KBJALCPI@?$AAe?$AAs?$AA?9?$AAU?$AAY@ 000000018002cb08     libucrt:lcidtoname_downlevel.obj
 0002:00006b18       ??_C@_1M@LLCCOAGA@?$AAa?$AAr?$AA?9?$AAB?$AAH@ 000000018002cb18     libucrt:lcidtoname_downlevel.obj
 0002:00006b28       ??_C@_1M@PBFNCDEL@?$AAe?$AAs?$AA?9?$AAP?$AAY@ 000000018002cb28     libucrt:lcidtoname_downlevel.obj
 0002:00006b38       ??_C@_1M@EDGINPNP@?$AAa?$AAr?$AA?9?$AAQ?$AAA@ 000000018002cb38     libucrt:lcidtoname_downlevel.obj
 0002:00006b48       ??_C@_1M@MKDBIIJI@?$AAe?$AAs?$AA?9?$AAB?$AAO@ 000000018002cb48     libucrt:lcidtoname_downlevel.obj
 0002:00006b58       ??_C@_1M@CPKKEBLD@?$AAe?$AAs?$AA?9?$AAS?$AAV@ 000000018002cb58     libucrt:lcidtoname_downlevel.obj
 0002:00006b68       ??_C@_1M@NDBGMMJL@?$AAe?$AAs?$AA?9?$AAH?$AAN@ 000000018002cb68     libucrt:lcidtoname_downlevel.obj
 0002:00006b78       ??_C@_1M@JIJIBHDP@?$AAe?$AAs?$AA?9?$AAN?$AAI@ 000000018002cb78     libucrt:lcidtoname_downlevel.obj
 0002:00006b88       ??_C@_1M@CGFMKEEK@?$AAe?$AAs?$AA?9?$AAP?$AAR@ 000000018002cb88     libucrt:lcidtoname_downlevel.obj
 0002:00006b98       ??_C@_1O@ICJHKIIK@?$AAz?$AAh?$AA?9?$AAC?$AAH?$AAT@ 000000018002cb98     libucrt:lcidtoname_downlevel.obj
 0002:00006ba8       ??_C@_15CLNEJCE@?$AAs?$AAr@ 000000018002cba8     libucrt:lcidtoname_downlevel.obj
 0002:000079f0       ??_C@_1M@KAHEKEIG@?$AAa?$AAf?$AA?9?$AAz?$AAa@ 000000018002d9f0     libucrt:lcidtoname_downlevel.obj
 0002:00007a00       ??_C@_1M@GIECOABL@?$AAa?$AAr?$AA?9?$AAa?$AAe@ 000000018002da00     libucrt:lcidtoname_downlevel.obj
 0002:00007a10       ??_C@_1M@BMLMEKGI@?$AAa?$AAr?$AA?9?$AAb?$AAh@ 000000018002da10     libucrt:lcidtoname_downlevel.obj
 0002:00007a20       ??_C@_1M@DAPFDGGB@?$AAa?$AAr?$AA?9?$AAd?$AAz@ 000000018002da20     libucrt:lcidtoname_downlevel.obj
 0002:00007a30       ??_C@_1M@FJNKGKIG@?$AAa?$AAr?$AA?9?$AAe?$AAg@ 000000018002da30     libucrt:lcidtoname_downlevel.obj
 0002:00007a40       ??_C@_1M@FLGKKCLO@?$AAa?$AAr?$AA?9?$AAi?$AAq@ 000000018002da40     libucrt:lcidtoname_downlevel.obj
 0002:00007a50       ??_C@_1M@GNDIPALM@?$AAa?$AAr?$AA?9?$AAj?$AAo@ 000000018002da50     libucrt:lcidtoname_downlevel.obj
 0002:00007a60       ??_C@_1M@DDMJFMGJ@?$AAa?$AAr?$AA?9?$AAk?$AAw@ 000000018002da60     libucrt:lcidtoname_downlevel.obj
 0002:00007a70       ??_C@_1M@EJALMLHM@?$AAa?$AAr?$AA?9?$AAl?$AAb@ 000000018002da70     libucrt:lcidtoname_downlevel.obj
 0002:00007a80       ??_C@_1M@MOBDBLOC@?$AAa?$AAr?$AA?9?$AAl?$AAy@ 000000018002da80     libucrt:lcidtoname_downlevel.obj
 0002:00007a90       ??_C@_1M@JAOCLHDH@?$AAa?$AAr?$AA?9?$AAm?$AAa@ 000000018002da90     libucrt:lcidtoname_downlevel.obj
 0002:00007aa0       ??_C@_1M@JHPMKJIE@?$AAa?$AAr?$AA?9?$AAo?$AAm@ 000000018002daa0     libucrt:lcidtoname_downlevel.obj
 0002:00007ab0       ??_C@_1M@OEPGHFNH@?$AAa?$AAr?$AA?9?$AAq?$AAa@ 000000018002dab0     libucrt:lcidtoname_downlevel.obj
 0002:00007ac0       ??_C@_1M@KJDONENM@?$AAa?$AAr?$AA?9?$AAs?$AAa@ 000000018002dac0     libucrt:lcidtoname_downlevel.obj
 0002:00007ad0       ??_C@_1M@DMJDKLKM@?$AAa?$AAr?$AA?9?$AAs?$AAy@ 000000018002dad0     libucrt:lcidtoname_downlevel.obj
 0002:00007ae0       ??_C@_1M@OMFIPEDC@?$AAa?$AAr?$AA?9?$AAt?$AAn@ 000000018002dae0     libucrt:lcidtoname_downlevel.obj
 0002:00007af0       ??_C@_1M@IHMHGAON@?$AAa?$AAr?$AA?9?$AAy?$AAe@ 000000018002daf0     libucrt:lcidtoname_downlevel.obj
 0002:00007b00       ??_C@_1BG@KDCPGJGB@?$AAa?$AAz?$AA?9?$AAa?$AAz?$AA?9?$AAc?$AAy?$AAr?$AAl@ 000000018002db00     libucrt:lcidtoname_downlevel.obj
 0002:00007b18       ??_C@_1BG@IBCKDDOE@?$AAa?$AAz?$AA?9?$AAa?$AAz?$AA?9?$AAl?$AAa?$AAt?$AAn@ 000000018002db18     libucrt:lcidtoname_downlevel.obj
 0002:00007b30       ??_C@_1M@EGPFDCPD@?$AAb?$AAe?$AA?9?$AAb?$AAy@ 000000018002db30     libucrt:lcidtoname_downlevel.obj
 0002:00007b40       ??_C@_1M@PCMGMCGC@?$AAb?$AAg?$AA?9?$AAb?$AAg@ 000000018002db40     libucrt:lcidtoname_downlevel.obj
 0002:00007b50       ??_C@_1M@BJBMFGOB@?$AAb?$AAn?$AA?9?$AAi?$AAn@ 000000018002db50     libucrt:lcidtoname_downlevel.obj
 0002:00007b60       ??_C@_1BG@EAKMMACD@?$AAb?$AAs?$AA?9?$AAb?$AAa?$AA?9?$AAl?$AAa?$AAt?$AAn@ 000000018002db60     libucrt:lcidtoname_downlevel.obj
 0002:00007b78       ??_C@_1M@KGADAODK@?$AAc?$AAa?$AA?9?$AAe?$AAs@ 000000018002db78     libucrt:lcidtoname_downlevel.obj
 0002:00007b88       ??_C@_1M@COAJPDHI@?$AAc?$AAs?$AA?9?$AAc?$AAz@ 000000018002db88     libucrt:lcidtoname_downlevel.obj
 0002:00007b98       ??_C@_1M@DHBHFONH@?$AAc?$AAy?$AA?9?$AAg?$AAb@ 000000018002db98     libucrt:lcidtoname_downlevel.obj
 0002:00007ba8       ??_C@_1M@IMGKELGA@?$AAd?$AAa?$AA?9?$AAd?$AAk@ 000000018002dba8     libucrt:lcidtoname_downlevel.obj
 0002:00007bb8       ??_C@_1M@NNDGDNGA@?$AAd?$AAe?$AA?9?$AAa?$AAt@ 000000018002dbb8     libucrt:lcidtoname_downlevel.obj
 0002:00007bc8       ??_C@_1M@IKDBHEEM@?$AAd?$AAe?$AA?9?$AAc?$AAh@ 000000018002dbc8     libucrt:lcidtoname_downlevel.obj
 0002:00007bd8       ??_C@_1M@GFFOJMCJ@?$AAd?$AAe?$AA?9?$AAd?$AAe@ 000000018002dbd8     libucrt:lcidtoname_downlevel.obj
 0002:00007be8       ??_C@_1M@MDNLKBPM@?$AAd?$AAe?$AA?9?$AAl?$AAi@ 000000018002dbe8     libucrt:lcidtoname_downlevel.obj
 0002:00007bf8       ??_C@_1M@NJBEEJNL@?$AAd?$AAe?$AA?9?$AAl?$AAu@ 000000018002dbf8     libucrt:lcidtoname_downlevel.obj
 0002:00007c08       ??_C@_1O@GNNELBAP@?$AAd?$AAi?$AAv?$AA?9?$AAm?$AAv@ 000000018002dc08     libucrt:lcidtoname_downlevel.obj
 0002:00007c18       ??_C@_1M@EJLEOGAE@?$AAe?$AAl?$AA?9?$AAg?$AAr@ 000000018002dc18     libucrt:lcidtoname_downlevel.obj
 0002:00007c28       ??_C@_1M@GMPONJN@?$AAe?$AAn?$AA?9?$AAa?$AAu@ 000000018002dc28     libucrt:lcidtoname_downlevel.obj
 0002:00007c38       ??_C@_1M@NIDIIPGF@?$AAe?$AAn?$AA?9?$AAb?$AAz@ 000000018002dc38     libucrt:lcidtoname_downlevel.obj
 0002:00007c48       ??_C@_1M@JEHMIMFO@?$AAe?$AAn?$AA?9?$AAc?$AAa@ 000000018002dc48     libucrt:lcidtoname_downlevel.obj
 0002:00007c58       ??_C@_1M@IGMJCDLA@?$AAe?$AAn?$AA?9?$AAc?$AAb@ 000000018002dc58     libucrt:lcidtoname_downlevel.obj
 0002:00007c68       ??_C@_1M@BNFIGBKG@?$AAe?$AAn?$AA?9?$AAg?$AAb@ 000000018002dc68     libucrt:lcidtoname_downlevel.obj
 0002:00007c78       ??_C@_1M@LKIFDIGP@?$AAe?$AAn?$AA?9?$AAi?$AAe@ 000000018002dc78     libucrt:lcidtoname_downlevel.obj
 0002:00007c88       ??_C@_1M@PJKFGCCO@?$AAe?$AAn?$AA?9?$AAj?$AAm@ 000000018002dc88     libucrt:lcidtoname_downlevel.obj
 0002:00007c98       ??_C@_1M@KPPKEPBO@?$AAe?$AAn?$AA?9?$AAn?$AAz@ 000000018002dc98     libucrt:lcidtoname_downlevel.obj
 0002:00007ca8       ??_C@_1M@GMDGLDOB@?$AAe?$AAn?$AA?9?$AAp?$AAh@ 000000018002dca8     libucrt:lcidtoname_downlevel.obj
 0002:00007cb8       ??_C@_1M@ONGIBJNA@?$AAe?$AAn?$AA?9?$AAt?$AAt@ 000000018002dcb8     libucrt:lcidtoname_downlevel.obj
 0002:00007cc8       ??_C@_1M@LLODPCMM@?$AAe?$AAn?$AA?9?$AAu?$AAs@ 000000018002dcc8     libucrt:lcidtoname_downlevel.obj
 0002:00007cd8       ??_C@_1M@LAKFNPAN@?$AAe?$AAn?$AA?9?$AAz?$AAa@ 000000018002dcd8     libucrt:lcidtoname_downlevel.obj
 0002:00007ce8       ??_C@_1M@MFNHNHEO@?$AAe?$AAn?$AA?9?$AAz?$AAw@ 000000018002dce8     libucrt:lcidtoname_downlevel.obj
 0002:00007cf8       ??_C@_1M@EJEINPHM@?$AAe?$AAs?$AA?9?$AAa?$AAr@ 000000018002dcf8     libucrt:lcidtoname_downlevel.obj
 0002:00007d08       ??_C@_1M@GNKPCCJA@?$AAe?$AAs?$AA?9?$AAb?$AAo@ 000000018002dd08     libucrt:lcidtoname_downlevel.obj
 0002:00007d18       ??_C@_1M@LEEGFONL@?$AAe?$AAs?$AA?9?$AAc?$AAl@ 000000018002dd18     libucrt:lcidtoname_downlevel.obj
 0002:00007d28       ??_C@_1M@KGPDPBDF@?$AAe?$AAs?$AA?9?$AAc?$AAo@ 000000018002dd28     libucrt:lcidtoname_downlevel.obj
 0002:00007d38       ??_C@_1M@EIAHOHH@?$AAe?$AAs?$AA?9?$AAc?$AAr@ 000000018002dd38     libucrt:lcidtoname_downlevel.obj
 0002:00007d48       ??_C@_1M@LLPGMBIN@?$AAe?$AAs?$AA?9?$AAd?$AAo@ 000000018002dd48     libucrt:lcidtoname_downlevel.obj
 0002:00007d58       ??_C@_1M@DKHMKNJA@?$AAe?$AAs?$AA?9?$AAe?$AAc@ 000000018002dd58     libucrt:lcidtoname_downlevel.obj
 0002:00007d68       ??_C@_1M@GKGFPKAP@?$AAe?$AAs?$AA?9?$AAe?$AAs@ 000000018002dd68     libucrt:lcidtoname_downlevel.obj
 0002:00007d78       ??_C@_1M@LKHKGDLN@?$AAe?$AAs?$AA?9?$AAg?$AAt@ 000000018002dd78     libucrt:lcidtoname_downlevel.obj
 0002:00007d88       ??_C@_1M@HEIIGGJD@?$AAe?$AAs?$AA?9?$AAh?$AAn@ 000000018002dd88     libucrt:lcidtoname_downlevel.obj
 0002:00007d98       ??_C@_1M@FBDHPPGD@?$AAe?$AAs?$AA?9?$AAm?$AAx@ 000000018002dd98     libucrt:lcidtoname_downlevel.obj
 0002:00007da8       ??_C@_1M@DPAGLNDH@?$AAe?$AAs?$AA?9?$AAn?$AAi@ 000000018002dda8     libucrt:lcidtoname_downlevel.obj
 0002:00007db8       ??_C@_1M@MDGOPGDD@?$AAe?$AAs?$AA?9?$AAp?$AAa@ 000000018002ddb8     libucrt:lcidtoname_downlevel.obj
 0002:00007dc8       ??_C@_1M@EMAMGBGE@?$AAe?$AAs?$AA?9?$AAp?$AAe@ 000000018002ddc8     libucrt:lcidtoname_downlevel.obj
 0002:00007dd8       ??_C@_1M@IBMCAOEC@?$AAe?$AAs?$AA?9?$AAp?$AAr@ 000000018002ddd8     libucrt:lcidtoname_downlevel.obj
 0002:00007de8       ??_C@_1M@FGMDIJED@?$AAe?$AAs?$AA?9?$AAp?$AAy@ 000000018002dde8     libucrt:lcidtoname_downlevel.obj
 0002:00007df8       ??_C@_1M@IIDEOLLL@?$AAe?$AAs?$AA?9?$AAs?$AAv@ 000000018002ddf8     libucrt:lcidtoname_downlevel.obj
 0002:00007e08       ??_C@_1M@GAOBIPA@?$AAe?$AAs?$AA?9?$AAu?$AAy@ 000000018002de08     libucrt:lcidtoname_downlevel.obj
 0002:00007e18       ??_C@_1M@JKFFICHJ@?$AAe?$AAs?$AA?9?$AAv?$AAe@ 000000018002de18     libucrt:lcidtoname_downlevel.obj
 0002:00007e28       ??_C@_1M@PNMLOJDF@?$AAe?$AAt?$AA?9?$AAe?$AAe@ 000000018002de28     libucrt:lcidtoname_downlevel.obj
 0002:00007e38       ??_C@_1M@GHHLIKEI@?$AAe?$AAu?$AA?9?$AAe?$AAs@ 000000018002de38     libucrt:lcidtoname_downlevel.obj
 0002:00007e48       ??_C@_1M@PBNONODE@?$AAf?$AAa?$AA?9?$AAi?$AAr@ 000000018002de48     libucrt:lcidtoname_downlevel.obj
 0002:00007e58       ??_C@_1M@JEEHPMIL@?$AAf?$AAi?$AA?9?$AAf?$AAi@ 000000018002de58     libucrt:lcidtoname_downlevel.obj
 0002:00007e68       ??_C@_1M@LMDCNDBA@?$AAf?$AAo?$AA?9?$AAf?$AAo@ 000000018002de68     libucrt:lcidtoname_downlevel.obj
 0002:00007e78       ??_C@_1M@JKEOHLDK@?$AAf?$AAr?$AA?9?$AAb?$AAe@ 000000018002de78     libucrt:lcidtoname_downlevel.obj
 0002:00007e88       ??_C@_1M@NOHADPMI@?$AAf?$AAr?$AA?9?$AAc?$AAa@ 000000018002de88     libucrt:lcidtoname_downlevel.obj
 0002:00007e98       ??_C@_1M@KDHIHAEC@?$AAf?$AAr?$AA?9?$AAc?$AAh@ 000000018002de98     libucrt:lcidtoname_downlevel.obj
 0002:00007ea8       ??_C@_1M@MMBBFGAK@?$AAf?$AAr?$AA?9?$AAf?$AAr@ 000000018002dea8     libucrt:lcidtoname_downlevel.obj
 0002:00007eb8       ??_C@_1M@PAFNENNF@?$AAf?$AAr?$AA?9?$AAl?$AAu@ 000000018002deb8     libucrt:lcidtoname_downlevel.obj
 0002:00007ec8       ??_C@_1M@EOHDJGDD@?$AAf?$AAr?$AA?9?$AAm?$AAc@ 000000018002dec8     libucrt:lcidtoname_downlevel.obj
 0002:00007ed8       ??_C@_1M@FAPLLOPF@?$AAg?$AAl?$AA?9?$AAe?$AAs@ 000000018002ded8     libucrt:lcidtoname_downlevel.obj
 0002:00007ee8       ??_C@_1M@FOPBFLOO@?$AAg?$AAu?$AA?9?$AAi?$AAn@ 000000018002dee8     libucrt:lcidtoname_downlevel.obj
 0002:00007ef8       ??_C@_1M@KBMCINPM@?$AAh?$AAe?$AA?9?$AAi?$AAl@ 000000018002def8     libucrt:lcidtoname_downlevel.obj
 0002:00007f08       ??_C@_1M@BBPHKFPJ@?$AAh?$AAi?$AA?9?$AAi?$AAn@ 000000018002df08     libucrt:lcidtoname_downlevel.obj
 0002:00007f18       ??_C@_1M@PMBNDPHD@?$AAh?$AAr?$AA?9?$AAb?$AAa@ 000000018002df18     libucrt:lcidtoname_downlevel.obj
 0002:00007f28       ??_C@_1M@BPCKOEGE@?$AAh?$AAr?$AA?9?$AAh?$AAr@ 000000018002df28     libucrt:lcidtoname_downlevel.obj
 0002:00007f38       ??_C@_1M@GACBMHKE@?$AAh?$AAu?$AA?9?$AAh?$AAu@ 000000018002df38     libucrt:lcidtoname_downlevel.obj
 0002:00007f48       ??_C@_1M@MILPAJJC@?$AAh?$AAy?$AA?9?$AAa?$AAm@ 000000018002df48     libucrt:lcidtoname_downlevel.obj
 0002:00007f58       ??_C@_1M@BABBICEC@?$AAi?$AAd?$AA?9?$AAi?$AAd@ 000000018002df58     libucrt:lcidtoname_downlevel.obj
 0002:00007f68       ??_C@_1M@BIKNHHPF@?$AAi?$AAs?$AA?9?$AAi?$AAs@ 000000018002df68     libucrt:lcidtoname_downlevel.obj
 0002:00007f78       ??_C@_1M@NMPCJPHE@?$AAi?$AAt?$AA?9?$AAc?$AAh@ 000000018002df78     libucrt:lcidtoname_downlevel.obj
 0002:00007f88       ??_C@_1M@GHKGFEDF@?$AAi?$AAt?$AA?9?$AAi?$AAt@ 000000018002df88     libucrt:lcidtoname_downlevel.obj
 0002:00007f98       ??_C@_1M@NIEJCJJA@?$AAj?$AAa?$AA?9?$AAj?$AAp@ 000000018002df98     libucrt:lcidtoname_downlevel.obj
 0002:00007fa8       ??_C@_1M@JILFNBIM@?$AAk?$AAa?$AA?9?$AAg?$AAe@ 000000018002dfa8     libucrt:lcidtoname_downlevel.obj
 0002:00007fb8       ??_C@_1M@PACPMGPH@?$AAk?$AAk?$AA?9?$AAk?$AAz@ 000000018002dfb8     libucrt:lcidtoname_downlevel.obj
 0002:00007fc8       ??_C@_1M@IELFGMHA@?$AAk?$AAn?$AA?9?$AAi?$AAn@ 000000018002dfc8     libucrt:lcidtoname_downlevel.obj
 0002:00007fd8       ??_C@_1O@IBBJHCH@?$AAk?$AAo?$AAk?$AA?9?$AAi?$AAn@ 000000018002dfd8     libucrt:lcidtoname_downlevel.obj
 0002:00007fe8       ??_C@_1M@DMHAEOGC@?$AAk?$AAo?$AA?9?$AAk?$AAr@ 000000018002dfe8     libucrt:lcidtoname_downlevel.obj
 0002:00007ff8       ??_C@_1M@HBAHBIGA@?$AAk?$AAy?$AA?9?$AAk?$AAg@ 000000018002dff8     libucrt:lcidtoname_downlevel.obj
 0002:00008008       ??_C@_1M@KPMILCJG@?$AAl?$AAt?$AA?9?$AAl?$AAt@ 000000018002e008     libucrt:lcidtoname_downlevel.obj
 0002:00008018       ??_C@_1M@BDEKKCA@?$AAl?$AAv?$AA?9?$AAl?$AAv@ 000000018002e018     libucrt:lcidtoname_downlevel.obj
 0002:00008028       ??_C@_1M@ELCKCCJJ@?$AAm?$AAi?$AA?9?$AAn?$AAz@ 000000018002e028     libucrt:lcidtoname_downlevel.obj
 0002:00008038       ??_C@_1M@CBOOLAPA@?$AAm?$AAk?$AA?9?$AAm?$AAk@ 000000018002e038     libucrt:lcidtoname_downlevel.obj
 0002:00008048       ??_C@_1M@GPHNBJKN@?$AAm?$AAl?$AA?9?$AAi?$AAn@ 000000018002e048     libucrt:lcidtoname_downlevel.obj
 0002:00008058       ??_C@_1M@PABJILIG@?$AAm?$AAn?$AA?9?$AAm?$AAn@ 000000018002e058     libucrt:lcidtoname_downlevel.obj
 0002:00008068       ??_C@_1M@FGBKKIPG@?$AAm?$AAr?$AA?9?$AAi?$AAn@ 000000018002e068     libucrt:lcidtoname_downlevel.obj
 0002:00008078       ??_C@_1M@NDBPDDAL@?$AAm?$AAs?$AA?9?$AAb?$AAn@ 000000018002e078     libucrt:lcidtoname_downlevel.obj
 0002:00008088       ??_C@_1M@OPIHOOPI@?$AAm?$AAs?$AA?9?$AAm?$AAy@ 000000018002e088     libucrt:lcidtoname_downlevel.obj
 0002:00008098       ??_C@_1M@PPDBCNFM@?$AAm?$AAt?$AA?9?$AAm?$AAt@ 000000018002e098     libucrt:lcidtoname_downlevel.obj
 0002:000080a8       ??_C@_1M@KDJDKMDD@?$AAn?$AAb?$AA?9?$AAn?$AAo@ 000000018002e0a8     libucrt:lcidtoname_downlevel.obj
 0002:000080b8       ??_C@_1M@KFCFLMJP@?$AAn?$AAl?$AA?9?$AAb?$AAe@ 000000018002e0b8     libucrt:lcidtoname_downlevel.obj
 0002:000080c8       ??_C@_1M@KPOPDDGO@?$AAn?$AAl?$AA?9?$AAn?$AAl@ 000000018002e0c8     libucrt:lcidtoname_downlevel.obj
 0002:000080d8       ??_C@_1M@LJKPEMLN@?$AAn?$AAn?$AA?9?$AAn?$AAo@ 000000018002e0d8     libucrt:lcidtoname_downlevel.obj
 0002:000080e8       ??_C@_1M@BDGHHBFL@?$AAn?$AAs?$AA?9?$AAz?$AAa@ 000000018002e0e8     libucrt:lcidtoname_downlevel.obj
 0002:000080f8       ??_C@_1M@IDEHOAP@?$AAp?$AAa?$AA?9?$AAi?$AAn@ 000000018002e0f8     libucrt:lcidtoname_downlevel.obj
 0002:00008108       ??_C@_1M@HDBKGOGH@?$AAp?$AAl?$AA?9?$AAp?$AAl@ 000000018002e108     libucrt:lcidtoname_downlevel.obj
 0002:00008118       ??_C@_1M@LJLLCMEH@?$AAp?$AAt?$AA?9?$AAb?$AAr@ 000000018002e118     libucrt:lcidtoname_downlevel.obj
 0002:00008128       ??_C@_1M@NCMONAAL@?$AAp?$AAt?$AA?9?$AAp?$AAt@ 000000018002e128     libucrt:lcidtoname_downlevel.obj
 0002:00008138       ??_C@_1O@EAKMAJDN@?$AAq?$AAu?$AAz?$AA?9?$AAb?$AAo@ 000000018002e138     libucrt:lcidtoname_downlevel.obj
 0002:00008148       ??_C@_1O@BHHPIGDN@?$AAq?$AAu?$AAz?$AA?9?$AAe?$AAc@ 000000018002e148     libucrt:lcidtoname_downlevel.obj
 0002:00008158       ??_C@_1O@GBAPEKMJ@?$AAq?$AAu?$AAz?$AA?9?$AAp?$AAe@ 000000018002e158     libucrt:lcidtoname_downlevel.obj
 0002:00008168       ??_C@_1M@CLGLEFBO@?$AAr?$AAo?$AA?9?$AAr?$AAo@ 000000018002e168     libucrt:lcidtoname_downlevel.obj
 0002:00008178       ??_C@_1M@CEEDODME@?$AAr?$AAu?$AA?9?$AAr?$AAu@ 000000018002e178     libucrt:lcidtoname_downlevel.obj
 0002:00008188       ??_C@_1M@HPKKKMPP@?$AAs?$AAa?$AA?9?$AAi?$AAn@ 000000018002e188     libucrt:lcidtoname_downlevel.obj
 0002:00008198       ??_C@_1M@BKMAIGOJ@?$AAs?$AAe?$AA?9?$AAf?$AAi@ 000000018002e198     libucrt:lcidtoname_downlevel.obj
 0002:000081a8       ??_C@_1M@NDPIFLFI@?$AAs?$AAe?$AA?9?$AAn?$AAo@ 000000018002e1a8     libucrt:lcidtoname_downlevel.obj
 0002:000081b8       ??_C@_1M@DANKKHJ@?$AAs?$AAe?$AA?9?$AAs?$AAe@ 000000018002e1b8     libucrt:lcidtoname_downlevel.obj
 0002:000081c8       ??_C@_1M@PNBLONPJ@?$AAs?$AAk?$AA?9?$AAs?$AAk@ 000000018002e1c8     libucrt:lcidtoname_downlevel.obj
 0002:000081d8       ??_C@_1M@LFMODOAL@?$AAs?$AAl?$AA?9?$AAs?$AAi@ 000000018002e1d8     libucrt:lcidtoname_downlevel.obj
 0002:000081e8       ??_C@_1O@DFKOMPG@?$AAs?$AAm?$AAa?$AA?9?$AAn?$AAo@ 000000018002e1e8     libucrt:lcidtoname_downlevel.obj
 0002:000081f8       ??_C@_1O@NDKPBNNH@?$AAs?$AAm?$AAa?$AA?9?$AAs?$AAe@ 000000018002e1f8     libucrt:lcidtoname_downlevel.obj
 0002:00008208       ??_C@_1O@PLLKBHAB@?$AAs?$AAm?$AAj?$AA?9?$AAn?$AAo@ 000000018002e208     libucrt:lcidtoname_downlevel.obj
 0002:00008218       ??_C@_1O@CLEPOGCA@?$AAs?$AAm?$AAj?$AA?9?$AAs?$AAe@ 000000018002e218     libucrt:lcidtoname_downlevel.obj
 0002:00008228       ??_C@_1O@DLGJGKMK@?$AAs?$AAm?$AAn?$AA?9?$AAf?$AAi@ 000000018002e228     libucrt:lcidtoname_downlevel.obj
 0002:00008238       ??_C@_1O@OJDJGAJC@?$AAs?$AAm?$AAs?$AA?9?$AAf?$AAi@ 000000018002e238     libucrt:lcidtoname_downlevel.obj
 0002:00008248       ??_C@_1M@BOFOGHPB@?$AAs?$AAq?$AA?9?$AAa?$AAl@ 000000018002e248     libucrt:lcidtoname_downlevel.obj
 0002:00008258       ??_C@_1BG@LJBBIPGB@?$AAs?$AAr?$AA?9?$AAb?$AAa?$AA?9?$AAc?$AAy?$AAr?$AAl@ 000000018002e258     libucrt:lcidtoname_downlevel.obj
 0002:00008270       ??_C@_1BG@JLBENFOE@?$AAs?$AAr?$AA?9?$AAb?$AAa?$AA?9?$AAl?$AAa?$AAt?$AAn@ 000000018002e270     libucrt:lcidtoname_downlevel.obj
 0002:00008288       ??_C@_1BG@KODPNHE@?$AAs?$AAr?$AA?9?$AAs?$AAp?$AA?9?$AAc?$AAy?$AAr?$AAl@ 000000018002e288     libucrt:lcidtoname_downlevel.obj
 0002:000082a0       ??_C@_1BG@CIOGKHPB@?$AAs?$AAr?$AA?9?$AAs?$AAp?$AA?9?$AAl?$AAa?$AAt?$AAn@ 000000018002e2a0     libucrt:lcidtoname_downlevel.obj
 0002:000082b8       ??_C@_1M@NGFJLMAC@?$AAs?$AAv?$AA?9?$AAf?$AAi@ 000000018002e2b8     libucrt:lcidtoname_downlevel.obj
 0002:000082c8       ??_C@_1M@MPJEJAJC@?$AAs?$AAv?$AA?9?$AAs?$AAe@ 000000018002e2c8     libucrt:lcidtoname_downlevel.obj
 0002:000082d8       ??_C@_1M@MPNDHLFK@?$AAs?$AAw?$AA?9?$AAk?$AAe@ 000000018002e2d8     libucrt:lcidtoname_downlevel.obj
 0002:000082e8       ??_C@_1O@KOHBJJI@?$AAs?$AAy?$AAr?$AA?9?$AAs?$AAy@ 000000018002e2e8     libucrt:lcidtoname_downlevel.obj
 0002:000082f8       ??_C@_1M@LDCEFHA@?$AAt?$AAa?$AA?9?$AAi?$AAn@ 000000018002e2f8     libucrt:lcidtoname_downlevel.obj
 0002:00008308       ??_C@_1M@CNJOFAK@?$AAt?$AAe?$AA?9?$AAi?$AAn@ 000000018002e308     libucrt:lcidtoname_downlevel.obj
 0002:00008318       ??_C@_1M@GNAECACD@?$AAt?$AAh?$AA?9?$AAt?$AAh@ 000000018002e318     libucrt:lcidtoname_downlevel.obj
 0002:00008328       ??_C@_1M@CHBIHOJO@?$AAt?$AAn?$AA?9?$AAz?$AAa@ 000000018002e328     libucrt:lcidtoname_downlevel.obj
 0002:00008338       ??_C@_1M@GCCMIGPJ@?$AAt?$AAr?$AA?9?$AAt?$AAr@ 000000018002e338     libucrt:lcidtoname_downlevel.obj
 0002:00008348       ??_C@_1M@CELMCNBK@?$AAt?$AAt?$AA?9?$AAr?$AAu@ 000000018002e348     libucrt:lcidtoname_downlevel.obj
 0002:00008358       ??_C@_1M@KLMCELGA@?$AAu?$AAk?$AA?9?$AAu?$AAa@ 000000018002e358     libucrt:lcidtoname_downlevel.obj
 0002:00008368       ??_C@_1M@EPAJJAJF@?$AAu?$AAr?$AA?9?$AAp?$AAk@ 000000018002e368     libucrt:lcidtoname_downlevel.obj
 0002:00008378       ??_C@_1BG@GEGPMCDJ@?$AAu?$AAz?$AA?9?$AAu?$AAz?$AA?9?$AAc?$AAy?$AAr?$AAl@ 000000018002e378     libucrt:lcidtoname_downlevel.obj
 0002:00008390       ??_C@_1BG@EGGKJILM@?$AAu?$AAz?$AA?9?$AAu?$AAz?$AA?9?$AAl?$AAa?$AAt?$AAn@ 000000018002e390     libucrt:lcidtoname_downlevel.obj
 0002:000083a8       ??_C@_1M@GFOCLFF@?$AAv?$AAi?$AA?9?$AAv?$AAn@ 000000018002e3a8     libucrt:lcidtoname_downlevel.obj
 0002:000083b8       ??_C@_1M@CPAMEDFI@?$AAx?$AAh?$AA?9?$AAz?$AAa@ 000000018002e3b8     libucrt:lcidtoname_downlevel.obj
 0002:000083c8       ??_C@_1O@EBKIFIGN@?$AAz?$AAh?$AA?9?$AAc?$AAh?$AAs@ 000000018002e3c8     libucrt:lcidtoname_downlevel.obj
 0002:000083d8       ??_C@_1O@NMHPGANE@?$AAz?$AAh?$AA?9?$AAc?$AAh?$AAt@ 000000018002e3d8     libucrt:lcidtoname_downlevel.obj
 0002:000083e8       ??_C@_1M@LPINJOMC@?$AAz?$AAh?$AA?9?$AAc?$AAn@ 000000018002e3e8     libucrt:lcidtoname_downlevel.obj
 0002:000083f8       ??_C@_1M@OCJEJODD@?$AAz?$AAh?$AA?9?$AAh?$AAk@ 000000018002e3f8     libucrt:lcidtoname_downlevel.obj
 0002:00008408       ??_C@_1M@DNDLJINH@?$AAz?$AAh?$AA?9?$AAm?$AAo@ 000000018002e408     libucrt:lcidtoname_downlevel.obj
 0002:00008418       ??_C@_1M@MBFDNDND@?$AAz?$AAh?$AA?9?$AAs?$AAg@ 000000018002e418     libucrt:lcidtoname_downlevel.obj
 0002:00008428       ??_C@_1M@IMEPLEPE@?$AAz?$AAh?$AA?9?$AAt?$AAw@ 000000018002e428     libucrt:lcidtoname_downlevel.obj
 0002:00008438       ??_C@_1M@BBGHNHJP@?$AAz?$AAu?$AA?9?$AAz?$AAa@ 000000018002e438     libucrt:lcidtoname_downlevel.obj
 0002:00008450       ?large_power_data@?1??multiply_by_power_of_ten@__crt_strtox@@YA_NAEAUbig_integer@2@I@Z@4QBIB 000000018002e450     libucrt:cfout.obj
 0002:00008d60       ?large_power_indices@?1??multiply_by_power_of_ten@__crt_strtox@@YA_NAEAUbig_integer@2@I@Z@4QBUunpack_index@?1??12@YA_N0I@Z@B 000000018002ed60     libucrt:cfout.obj
 0002:00008df8       ?small_powers_of_ten@?1??multiply_by_power_of_ten@__crt_strtox@@YA_NAEAUbig_integer@2@I@Z@4QBIB 000000018002edf8     libucrt:cfout.obj
 0002:00008e1c       ??_C@_01GBGANLPD@0@        000000018002ee1c     libucrt:cfout.obj
 0002:00008e20       ??_C@_05DNEBIAHO@1?$CDINF@ 000000018002ee20     libucrt:cfout.obj
 0002:00008e28       ??_C@_06IMKFLFPG@1?$CDQNAN@ 000000018002ee28     libucrt:cfout.obj
 0002:00008e30       ??_C@_06PGGFOGJG@1?$CDSNAN@ 000000018002ee30     libucrt:cfout.obj
 0002:00008e38       ??_C@_05PHHOCPM@1?$CDIND@  000000018002ee38     libucrt:cfout.obj
 0002:00008e68       __real@3ff0000000000000    000000018002ee68     libucrt:ceil.obj
 0002:000090c0       __log10_256_lead           000000018002f0c0     libucrt:log10_256_lead_tail_table.obj
 0002:000098d0       __log10_256_tail           000000018002f8d0     libucrt:log10_256_lead_tail_table.obj
 0002:0000a0e0       __log_F_inv_qword          00000001800300e0     libucrt:log_f_inv_qword_table.obj
 0002:0000a8f0       ??_C@_05HGHHAHAP@log10@    00000001800308f0     libucrt:log_special.obj
 0002:0000a8f8       ??_C@_1BA@BALFACEM@?$AAC?$AAO?$AAN?$AAO?$AAU?$AAT?$AA$@ 00000001800308f8     libucrt:initcon.obj
 0002:0000a980       _load_config_used          0000000180030980     LIBCMT:loadcfg.obj
 0002:0000ab00       _tls_used                  0000000180030b00     LIBCMT:tlssup.obj
 0002:0000ab28       ??_R4exception@std@@6B@    0000000180030b28     LIBCMT:throw_bad_alloc.obj
 0002:0000ab50       ??_R3exception@std@@8      0000000180030b50     LIBCMT:throw_bad_alloc.obj
 0002:0000ab68       ??_R2exception@std@@8      0000000180030b68     LIBCMT:throw_bad_alloc.obj
 0002:0000ab78       ??_R1A@?0A@EA@exception@std@@8 0000000180030b78     LIBCMT:throw_bad_alloc.obj
 0002:0000aba0       ??_R4bad_alloc@std@@6B@    0000000180030ba0     LIBCMT:throw_bad_alloc.obj
 0002:0000abc8       ??_R3bad_alloc@std@@8      0000000180030bc8     LIBCMT:throw_bad_alloc.obj
 0002:0000abe0       ??_R2bad_alloc@std@@8      0000000180030be0     LIBCMT:throw_bad_alloc.obj
 0002:0000abf8       ??_R1A@?0A@EA@bad_alloc@std@@8 0000000180030bf8     LIBCMT:throw_bad_alloc.obj
 0002:0000ac20       ??_R4bad_array_new_length@std@@6B@ 0000000180030c20     LIBCMT:throw_bad_alloc.obj
 0002:0000ac48       ??_R3bad_array_new_length@std@@8 0000000180030c48     LIBCMT:throw_bad_alloc.obj
 0002:0000ac60       ??_R2bad_array_new_length@std@@8 0000000180030c60     LIBCMT:throw_bad_alloc.obj
 0002:0000ac80       ??_R1A@?0A@EA@bad_array_new_length@std@@8 0000000180030c80     LIBCMT:throw_bad_alloc.obj
 0002:0000aca8       ??_R4type_info@@6B@        0000000180030ca8     LIBCMT:std_type_info_static.obj
 0002:0000acd0       ??_R3type_info@@8          0000000180030cd0     LIBCMT:std_type_info_static.obj
 0002:0000ace8       ??_R2type_info@@8          0000000180030ce8     LIBCMT:std_type_info_static.obj
 0002:0000acf8       ??_R1A@?0A@EA@type_info@@8 0000000180030cf8     LIBCMT:std_type_info_static.obj
 0002:0000ad20       ??_R4bad_exception@std@@6B@ 0000000180030d20     libvcruntime:frame.obj
 0002:0000ad48       ??_R3bad_exception@std@@8  0000000180030d48     libvcruntime:frame.obj
 0002:0000ad60       ??_R2bad_exception@std@@8  0000000180030d60     libvcruntime:frame.obj
 0002:0000ad78       ??_R1A@?0A@EA@bad_exception@std@@8 0000000180030d78     libvcruntime:frame.obj
 0002:0000ad9c       __volatile_metadata        0000000180030d9c     <linker-defined>
 0002:0000b218       __rtc_iaa                  0000000180031218     LIBCMT:initsect.obj
 0002:0000b220       __rtc_izz                  0000000180031220     LIBCMT:initsect.obj
 0002:0000b228       __rtc_taa                  0000000180031228     LIBCMT:initsect.obj
 0002:0000b230       __rtc_tzz                  0000000180031230     LIBCMT:initsect.obj
 0002:0000b238       _tls_start                 0000000180031238     LIBCMT:tlssup.obj
 0002:0000b23c       _Init_thread_epoch         000000018003123c     LIBCMT:thread_safe_statics.obj
 0002:0000b240       _tls_end                   0000000180031240     LIBCMT:tlssup.obj
 0002:0000cb68       _TI2?AVbad_alloc@std@@     0000000180032b68     LIBCMT:throw_bad_alloc.obj
 0002:0000cb88       _CTA2?AVbad_alloc@std@@    0000000180032b88     LIBCMT:throw_bad_alloc.obj
 0002:0000cba0       _CT??_R0?AVbad_alloc@std@@@8??0bad_alloc@std@@QEAA@AEBV01@@Z24 0000000180032ba0     LIBCMT:throw_bad_alloc.obj
 0002:0000cbc8       _CT??_R0?AVexception@std@@@8??0exception@std@@QEAA@AEBV01@@Z24 0000000180032bc8     LIBCMT:throw_bad_alloc.obj
 0002:0000cbf0       _TI3?AVbad_array_new_length@std@@ 0000000180032bf0     LIBCMT:throw_bad_alloc.obj
 0002:0000cc10       _CTA3?AVbad_array_new_length@std@@ 0000000180032c10     LIBCMT:throw_bad_alloc.obj
 0002:0000cc30       _CT??_R0?AVbad_array_new_length@std@@@8??0bad_array_new_length@std@@QEAA@AEBV01@@Z24 0000000180032c30     LIBCMT:throw_bad_alloc.obj
 0002:0000cc58       _TI2?AVbad_exception@std@@ 0000000180032c58     libvcruntime:frame.obj
 0002:0000cc78       _CTA2?AVbad_exception@std@@ 0000000180032c78     libvcruntime:frame.obj
 0002:0000cc90       _CT??_R0?AVbad_exception@std@@@8??0bad_exception@std@@QEAA@AEBV01@@Z24 0000000180032c90     libvcruntime:frame.obj
 0002:0000ccb8       __pobjMapEntryFirst        0000000180032cb8     OposVariant.obj
 0002:0000ccc0       __pobjMapEntryLast         0000000180032cc0     OposVariant.obj
 0002:0000cd7c       __IMPORT_DESCRIPTOR_KERNEL32 0000000180032d7c     kernel32:KERNEL32.dll
 0002:0000cd90       __IMPORT_DESCRIPTOR_USER32 0000000180032d90     user32:USER32.dll
 0002:0000cda4       __IMPORT_DESCRIPTOR_GDI32  0000000180032da4     gdi32:GDI32.dll
 0002:0000cdb8       __IMPORT_DESCRIPTOR_ADVAPI32 0000000180032db8     advapi32:ADVAPI32.dll
 0002:0000cdcc       __IMPORT_DESCRIPTOR_ole32  0000000180032dcc     ole32:ole32.dll
 0002:0000cde0       __IMPORT_DESCRIPTOR_OLEAUT32 0000000180032de0     oleaut32:OLEAUT32.dll
 0002:0000cdf4       __NULL_IMPORT_DESCRIPTOR   0000000180032df4     kernel32:KERNEL32.dll
 0003:00000000       ?rcDefault@CWindow@ATL@@2UtagRECT@@A 0000000180035000     POSKeyboard.obj
 0003:00000010       ?s_Claim@?7??GetIDsOfNames@CComTypeInfoHolder@ATL@@QEAAJAEBU_GUID@@PEAPEA_WIKPEAJ@Z@4PA_WA 0000000180035010     POSKeyboard.obj
 0003:00000028       ?s_Release@?7??GetIDsOfNames@CComTypeInfoHolder@ATL@@QEAAJAEBU_GUID@@PEAPEA_WIKPEAJ@Z@4PA_WA 0000000180035028     POSKeyboard.obj
 0003:00000048       ?_tih@?$IDispatchImpl@UIOPOSPOSKeyboard@@$1?IID_IOPOSPOSKeyboard@@3U_GUID@@B$1?LIBID_OposPOSKeyboard_CCO@@3U3@B$00$0A@VCComTypeInfoHolder@ATL@@@ATL@@1VCComTypeInfoHolder@2@A 0000000180035048     POSKeyboard.obj
 0003:00000080       ?_tih@?$IProvideClassInfo2Impl@$1?CLSID_OPOSPOSKeyboard@@3U_GUID@@B$1?DIID__IOPOSPOSKeyboardEvents@@3U2@B$1?LIBID_OposPOSKeyboard_CCO@@3U2@B$00$0A@VCComTypeInfoHolder@ATL@@@ATL@@1VCComTypeInfoHolder@2@A 0000000180035080     POSKeyboard.obj
 0003:000000b8       ?vszContents@?6??Save@?$IPersistStorageImpl@VCOPOSPOSKeyboard@@@ATL@@UEAAJPEAUIStorage@@H@Z@4PEB_WEB 00000001800350b8     POSKeyboard.obj
 0003:000000c0       ?wc@?1??GetWndClassInfo@?$CWindowImpl@VCOPOSPOSKeyboard@@VCWindow@ATL@@V?$CWinTraits@$0FGAAAAAA@$0A@@3@@ATL@@SAAEAU_ATL_WNDCLASSINFOW@3@XZ@4U43@A 00000001800350c0     POSKeyboard.obj
 0003:00000250       ?g_WindowName@@3PA_WA      0000000180035250     POSKeyboardImpl.obj
 0003:00000280       ?g_ControlDescription@@3PADA 0000000180035280     POSKeyboardImpl.obj
 0003:000002cc       ?g_ControlVersion@@3JA     00000001800352cc     POSKeyboardImpl.obj
 0003:00000384       __scrt_native_dllmain_reason 0000000180035384     LIBCMT:utility.obj
 0003:00000388       _Init_global_epoch         0000000180035388     LIBCMT:thread_safe_statics.obj
 0003:00000390       __security_cookie          0000000180035390     LIBCMT:gs_cookie.obj
 0003:00000398       __security_cookie_complement 0000000180035398     LIBCMT:gs_cookie.obj
 0003:000003a0       __isa_available            00000001800353a0     LIBCMT:cpu_disp.obj
 0003:000003a4       __isa_enabled              00000001800353a4     LIBCMT:cpu_disp.obj
 0003:000003a8       __memcpy_nt_iters          00000001800353a8     LIBCMT:cpu_disp.obj
 0003:000003b0       __memset_nt_iters          00000001800353b0     LIBCMT:cpu_disp.obj
 0003:000003d8       __abort_behavior           00000001800353d8     libucrt:abort.obj
 0003:000003f0       __acrt_initial_locale_data 00000001800353f0     libucrt:nlsdata.obj
 0003:00000548       __acrt_initial_locale_pointers 0000000180035548     libucrt:nlsdata.obj
 0003:00000558       __acrt_wide_c_locale_string 0000000180035558     libucrt:nlsdata.obj
 0003:00000560       _iob                       0000000180035560     libucrt:_file.obj
 0003:00000670       __acrt_initial_multibyte_data 0000000180035670     libucrt:mbctype.obj
 0003:00000bb0       __acrt_lconv_c             0000000180035bb0     libucrt:localeconv.obj
 0003:00000c48       __acrt_lconv_static_decimal 0000000180035c48     libucrt:localeconv.obj
 0003:00000c4c       __acrt_lconv_static_W_decimal 0000000180035c4c     libucrt:localeconv.obj
 0003:00000c50       __globallocalestatus       0000000180035c50     libucrt:glstatus.obj
 0003:00000c60       _lookuptrailbytes          0000000180035c60     libucrt:read.obj
 0003:00000d84       _fltused                   0000000180035d84     LIBCMT:fltused.obj
 0003:00000d88       ??_R0?AVbad_alloc@std@@@8  0000000180035d88     LIBCMT:throw_bad_alloc.obj
 0003:00000db0       ??_R0?AVexception@std@@@8  0000000180035db0     LIBCMT:throw_bad_alloc.obj
 0003:00000dd8       ??_R0?AVbad_array_new_length@std@@@8 0000000180035dd8     LIBCMT:throw_bad_alloc.obj
 0003:00000e08       ??_R0?AVbad_exception@std@@@8 0000000180035e08     libvcruntime:frame.obj
 0003:00000e30       ??_R0?AVtype_info@@@8      0000000180035e30     LIBCMT:std_type_info_static.obj
 0003:00000e50       ?m_bInitFailed@CAtlBaseModule@ATL@@2_NA 0000000180035e50     OposVariant.obj
 0003:00000e58       ?_pPerfRegFunc@ATL@@3P6AJPEAUHINSTANCE__@@@ZEA 0000000180035e58     OposVariant.obj
 0003:00000e60       ?_pPerfUnRegFunc@ATL@@3P6AJXZEA 0000000180035e60     OposVariant.obj
 0003:00000e68       ?_AtlRegisterPerUser@ATL@@3_NA 0000000180035e68     OposVariant.obj
 0003:00000e70       ?_pAtlModule@ATL@@3PEAVCAtlModule@1@EA 0000000180035e70     OposVariant.obj
 0003:00000e78       ?_pModule@ATL@@3PEAVCComModule@1@EA 0000000180035e78     OposVariant.obj
 0003:00000e80       ?_AtlComModule@ATL@@3VCAtlComModule@1@A 0000000180035e80     OposVariant.obj
 0003:00000ed0       ?_AtlWinModule@ATL@@3VCAtlWinModule@1@A 0000000180035ed0     OposVariant.obj
 0003:00000f18       ?m_libid@CAtlModule@ATL@@2U_GUID@@A 0000000180035f18     POSKeyboard.obj
 0003:00000f28       ?_entries@?1??GetConnMap@COPOSPOSKeyboard@@SAPEBU_ATL_CONNMAP_ENTRY@ATL@@PEAH@Z@4QBU34@B 0000000180035f28     POSKeyboard.obj
 0003:00000f40       ?$TSS0@?1??GetConnMap@COPOSPOSKeyboard@@SAPEBU_ATL_CONNMAP_ENTRY@ATL@@PEAH@Z@4HA 0000000180035f40     POSKeyboard.obj
 0003:00000f48       ?_OptionsStorage@?1??__local_stdio_printf_options@@9@4_KA 0000000180035f48     POSKeyboard.obj
 0003:00000f50       ?pfnRegDeleteKeyEx@?1??DeleteSubKey@CRegKey@ATL@@QEAAJPEB_W@Z@4P6AJPEAUHKEY__@@0KK@ZEA 0000000180035f50     POSKeyboard.obj
 0003:00000f58       ?bInitialized@?1??DeleteSubKey@CRegKey@ATL@@QEAAJPEB_W@Z@4_NA 0000000180035f58     POSKeyboard.obj
 0003:00000f60       ?_Module@@3VCComModule@ATL@@A 0000000180035f60     POSKeyboard.obj
 0003:00000fb0       ?pConnMap@?$IConnectionPointContainerImpl@VCOPOSPOSKeyboard@@@ATL@@0PEBU_ATL_CONNMAP_ENTRY@2@EB 0000000180035fb0     POSKeyboard.obj
 0003:00000fb8       ?s_nInstances@COPOSPOSKeyboard@@1HA 0000000180035fb8     POSKeyboardImpl.obj
 0003:00000fc0       __scrt_current_native_startup_state 0000000180035fc0     LIBCMT:utility.obj
 0003:00000fc8       __scrt_native_startup_lock 0000000180035fc8     LIBCMT:utility.obj
 0003:000015c0       _tls_index                 00000001800365c0     LIBCMT:tlssup.obj
 0003:000015c8       __favor                    00000001800365c8     LIBCMT:cpu_disp.obj
 0003:000015cc       __scrt_debugger_hook_flag  00000001800365cc     LIBCMT:utility_desktop.obj
 0003:000015d0       ?__type_info_root_node@@3U__type_info_node@@A 00000001800365d0     LIBCMT:tncleanup.obj
 0003:000015e0       ?_OptionsStorage@?1??__local_stdio_scanf_options@@9@4_KA 00000001800365e0     LIBCMT:default_local_stdio_options.obj
 0003:000015f0       ?_AtlBaseModule@ATL@@3VCAtlBaseModule@1@A 00000001800365f0     atls:atlbase.obj
 0003:00001650       ?__AtlThunkPool@@3PEAT_SLIST_HEADER@@EA 0000000180036650     atls:atlthunk.obj
 0003:0000167c       __@@_PchSym_@00@UzABUPdlipUCAUhUrmgvinvwrzgvUexgllohUzgohOmzgrevkilqPBACIAJCBDBUlyqiUznwGEUhgwzucOlyq@4B2008FD98C1DD4 000000018003667c     atls:stdafx.obj
 0003:00001680       ?__WinRTOutOfMemoryExceptionCallback@@3P6APEAXXZEA 0000000180036680     libvcruntime:ehhelpers.obj
 0003:00001688       __pPurecall                0000000180036688     libvcruntime:purevirt_data.obj
 0003:00001740       ?pArgList@UnDecorator@@0PEAVReplicator@@EA 0000000180036740     libvcruntime:undname.obj
 0003:00001748       ?pZNameList@UnDecorator@@0PEAVReplicator@@EA 0000000180036748     libvcruntime:undname.obj
 0003:00001750       ?pTemplateArgList@UnDecorator@@0PEAVReplicator@@EA 0000000180036750     libvcruntime:undname.obj
 0003:00001758       ?gName@UnDecorator@@0PEBDEB 0000000180036758     libvcruntime:undname.obj
 0003:00001760       ?name@UnDecorator@@0PEBDEB 0000000180036760     libvcruntime:undname.obj
 0003:00001768       ?disableFlags@UnDecorator@@0KA 0000000180036768     libvcruntime:undname.obj
 0003:0000176c       ?fExplicitTemplateParams@UnDecorator@@0_NA 000000018003676c     libvcruntime:undname.obj
 0003:0000176d       ?fGetTemplateArgumentList@UnDecorator@@0_NA 000000018003676d     libvcruntime:undname.obj
 0003:00001770       ?m_pGetParameter@UnDecorator@@0P6APEADJ@ZEA 0000000180036770     libvcruntime:undname.obj
 0003:00001778       ?m_CHPENameOffset@UnDecorator@@0KA 0000000180036778     libvcruntime:undname.obj
 0003:0000177c       ?m_recursionLevel@UnDecorator@@0KA 000000018003677c     libvcruntime:undname.obj
 0003:00001800       ?c_exit_complete@?1???R<lambda_6e4b09c48022b2350581041d5f6b0c4c>@@QEBA@XZ@4_NA 0000000180036800     libucrt:exit.obj
 0003:00001918       _environ_table             0000000180036918     libucrt:environment_initialization.obj
 0003:00001920       _wenviron_table            0000000180036920     libucrt:environment_initialization.obj
 0003:00001928       __dcrt_initial_wide_environment 0000000180036928     libucrt:environment_initialization.obj
 0003:00001930       __dcrt_initial_narrow_environment 0000000180036930     libucrt:environment_initialization.obj
 0003:00001938       __acrt_atexit_table        0000000180036938     libucrt:onexit.obj
 0003:00001950       __acrt_at_quick_exit_table 0000000180036950     libucrt:onexit.obj
 0003:00001970       __acrt_locale_changed_data 0000000180036970     libucrt:wsetlocale.obj
 0003:00001978       __acrt_current_locale_data 0000000180036978     libucrt:nlsdata.obj
 0003:00001b18       _nstream                   0000000180036b18     libucrt:_file.obj
 0003:00001b20       __piob                     0000000180036b20     libucrt:_file.obj
 0003:00001b30       __acrt_stdout_buffer       0000000180036b30     libucrt:_sftbuf.obj
 0003:00001b38       __acrt_stderr_buffer       0000000180036b38     libucrt:_sftbuf.obj
 0003:00001b40       __pioinfo                  0000000180036b40     libucrt:ioinit.obj
 0003:00001f40       _nhandle                   0000000180036f40     libucrt:ioinit.obj
 0003:00002188       _mbctype                   0000000180037188     libucrt:mbctype.obj
 0003:00002190       _mbcasemap                 0000000180037190     libucrt:mbctype.obj
 0003:00002198       __acrt_current_multibyte_data 0000000180037198     libucrt:mbctype.obj
 0003:000021a8       _pgmptr                    00000001800371a8     libucrt:argv_data.obj
 0003:000021b0       __argc                     00000001800371b0     libucrt:argv_data.obj
 0003:000021b8       __argv                     00000001800371b8     libucrt:argv_data.obj
 0003:000021c0       __wargv                    00000001800371c0     libucrt:argv_data.obj
 0003:000021c8       _acmdln                    00000001800371c8     libucrt:argv_data.obj
 0003:000021d0       _wcmdln                    00000001800371d0     libucrt:argv_data.obj
 0003:000021d8       __acrt_heap                00000001800371d8     libucrt:heap_handle.obj
 0003:00002208       __acrt_lconv_static_null   0000000180037208     libucrt:localeconv.obj
 0003:0000220c       __acrt_lconv_static_W_null 000000018003720c     libucrt:localeconv.obj
 0003:00002224       __fma3_is_available        0000000180037224     libucrt:fma3_available.obj
 0003:00002228       __use_fma3_lib             0000000180037228     libucrt:fma3_available.obj
 0003:00002230       __dyn_tls_init_callback    0000000180037230     <common>
 0003:00002238       __scrt_ucrt_dll_is_in_use  0000000180037238     <common>

 entry point at        0001:0000eab0

 Static symbols

 0000:fffc0000       .debug$S                   0000000180000000     OPOSPOSKeyboard.exp
 0000:fffc0000       .debug$S                   0000000180000000     advapi32:ADVAPI32.dll
 0000:fffc0000       .debug$S                   0000000180000000     advapi32:ADVAPI32.dll
 0000:fffc0000       .debug$S                   0000000180000000     advapi32:ADVAPI32.dll
 0000:fffc0000       .debug$S                   0000000180000000     advapi32:ADVAPI32.dll
 0000:fffc0000       .debug$S                   0000000180000000     advapi32:ADVAPI32.dll
 0000:fffc0000       .debug$S                   0000000180000000     advapi32:ADVAPI32.dll
 0000:fffc0000       .debug$S                   0000000180000000     advapi32:ADVAPI32.dll
 0000:fffc0000       .debug$S                   0000000180000000     advapi32:ADVAPI32.dll
 0000:fffc0000       .debug$S                   0000000180000000     advapi32:ADVAPI32.dll
 0000:fffc0000       .debug$S                   0000000180000000     gdi32:GDI32.dll
 0000:fffc0000       .debug$S                   0000000180000000     gdi32:GDI32.dll
 0000:fffc0000       .debug$S                   0000000180000000     gdi32:GDI32.dll
 0000:fffc0000       .debug$S                   0000000180000000     gdi32:GDI32.dll
 0000:fffc0000       .debug$S                   0000000180000000     gdi32:GDI32.dll
 0000:fffc0000       .debug$S                   0000000180000000     gdi32:GDI32.dll
 0000:fffc0000       .debug$S                   0000000180000000     gdi32:GDI32.dll
 0000:fffc0000       .debug$S                   0000000180000000     gdi32:GDI32.dll
 0000:fffc0000       .debug$S                   0000000180000000     gdi32:GDI32.dll
 0000:fffc0000       .debug$S                   0000000180000000     gdi32:GDI32.dll
 0000:fffc0000       .debug$S                   0000000180000000     gdi32:GDI32.dll
 0000:fffc0000       .debug$S                   0000000180000000     gdi32:GDI32.dll
 0000:fffc0000       .debug$S                   0000000180000000     gdi32:GDI32.dll
 0000:fffc0000       .debug$S                   0000000180000000     gdi32:GDI32.dll
 0000:fffc0000       .debug$S                   0000000180000000     gdi32:GDI32.dll
 0000:fffc0000       .debug$S                   0000000180000000     gdi32:GDI32.dll
 0000:fffc0000       .debug$S                   0000000180000000     gdi32:GDI32.dll
 0000:fffc0000       .debug$S                   0000000180000000     gdi32:GDI32.dll
 0000:fffc0000       .debug$S                   0000000180000000     gdi32:GDI32.dll
 0000:fffc0000       .debug$S                   0000000180000000     kernel32:KERNEL32.dll
 0000:fffc0000       .debug$S                   0000000180000000     kernel32:KERNEL32.dll
 0000:fffc0000       .debug$S                   0000000180000000     kernel32:KERNEL32.dll
 0000:fffc0000       .debug$S                   0000000180000000     kernel32:KERNEL32.dll
 0000:fffc0000       .debug$S                   0000000180000000     kernel32:KERNEL32.dll
 0000:fffc0000       .debug$S                   0000000180000000     kernel32:KERNEL32.dll
 0000:fffc0000       .debug$S                   0000000180000000     kernel32:KERNEL32.dll
 0000:fffc0000       .debug$S                   0000000180000000     kernel32:KERNEL32.dll
 0000:fffc0000       .debug$S                   0000000180000000     kernel32:KERNEL32.dll
 0000:fffc0000       .debug$S                   0000000180000000     kernel32:KERNEL32.dll
 0000:fffc0000       .debug$S                   0000000180000000     kernel32:KERNEL32.dll
 0000:fffc0000       .debug$S                   0000000180000000     kernel32:KERNEL32.dll
 0000:fffc0000       .debug$S                   0000000180000000     kernel32:KERNEL32.dll
 0000:fffc0000       .debug$S                   0000000180000000     kernel32:KERNEL32.dll
 0000:fffc0000       .debug$S                   0000000180000000     kernel32:KERNEL32.dll
 0000:fffc0000       .debug$S                   0000000180000000     kernel32:KERNEL32.dll
 0000:fffc0000       .debug$S                   0000000180000000     kernel32:KERNEL32.dll
 0000:fffc0000       .debug$S                   0000000180000000     kernel32:KERNEL32.dll
 0000:fffc0000       .debug$S                   0000000180000000     kernel32:KERNEL32.dll
 0000:fffc0000       .debug$S                   0000000180000000     kernel32:KERNEL32.dll
 0000:fffc0000       .debug$S                   0000000180000000     kernel32:KERNEL32.dll
 0000:fffc0000       .debug$S                   0000000180000000     kernel32:KERNEL32.dll
 0000:fffc0000       .debug$S                   0000000180000000     kernel32:KERNEL32.dll
 0000:fffc0000       .debug$S                   0000000180000000     kernel32:KERNEL32.dll
 0000:fffc0000       .debug$S                   0000000180000000     kernel32:KERNEL32.dll
 0000:fffc0000       .debug$S                   0000000180000000     kernel32:KERNEL32.dll
 0000:fffc0000       .debug$S                   0000000180000000     kernel32:KERNEL32.dll
 0000:fffc0000       .debug$S                   0000000180000000     kernel32:KERNEL32.dll
 0000:fffc0000       .debug$S                   0000000180000000     kernel32:KERNEL32.dll
 0000:fffc0000       .debug$S                   0000000180000000     kernel32:KERNEL32.dll
 0000:fffc0000       .debug$S                   0000000180000000     kernel32:KERNEL32.dll
 0000:fffc0000       .debug$S                   0000000180000000     kernel32:KERNEL32.dll
 0000:fffc0000       .debug$S                   0000000180000000     kernel32:KERNEL32.dll
 0000:fffc0000       .debug$S                   0000000180000000     kernel32:KERNEL32.dll
 0000:fffc0000       .debug$S                   0000000180000000     kernel32:KERNEL32.dll
 0000:fffc0000       .debug$S                   0000000180000000     kernel32:KERNEL32.dll
 0000:fffc0000       .debug$S                   0000000180000000     kernel32:KERNEL32.dll
 0000:fffc0000       .debug$S                   0000000180000000     kernel32:KERNEL32.dll
 0000:fffc0000       .debug$S                   0000000180000000     kernel32:KERNEL32.dll
 0000:fffc0000       .debug$S                   0000000180000000     kernel32:KERNEL32.dll
 0000:fffc0000       .debug$S                   0000000180000000     kernel32:KERNEL32.dll
 0000:fffc0000       .debug$S                   0000000180000000     kernel32:KERNEL32.dll
 0000:fffc0000       .debug$S                   0000000180000000     kernel32:KERNEL32.dll
 0000:fffc0000       .debug$S                   0000000180000000     kernel32:KERNEL32.dll
 0000:fffc0000       .debug$S                   0000000180000000     kernel32:KERNEL32.dll
 0000:fffc0000       .debug$S                   0000000180000000     kernel32:KERNEL32.dll
 0000:fffc0000       .debug$S                   0000000180000000     kernel32:KERNEL32.dll
 0000:fffc0000       .debug$S                   0000000180000000     kernel32:KERNEL32.dll
 0000:fffc0000       .debug$S                   0000000180000000     kernel32:KERNEL32.dll
 0000:fffc0000       .debug$S                   0000000180000000     kernel32:KERNEL32.dll
 0000:fffc0000       .debug$S                   0000000180000000     kernel32:KERNEL32.dll
 0000:fffc0000       .debug$S                   0000000180000000     kernel32:KERNEL32.dll
 0000:fffc0000       .debug$S                   0000000180000000     kernel32:KERNEL32.dll
 0000:fffc0000       .debug$S                   0000000180000000     kernel32:KERNEL32.dll
 0000:fffc0000       .debug$S                   0000000180000000     kernel32:KERNEL32.dll
 0000:fffc0000       .debug$S                   0000000180000000     kernel32:KERNEL32.dll
 0000:fffc0000       .debug$S                   0000000180000000     kernel32:KERNEL32.dll
 0000:fffc0000       .debug$S                   0000000180000000     kernel32:KERNEL32.dll
 0000:fffc0000       .debug$S                   0000000180000000     kernel32:KERNEL32.dll
 0000:fffc0000       .debug$S                   0000000180000000     kernel32:KERNEL32.dll
 0000:fffc0000       .debug$S                   0000000180000000     kernel32:KERNEL32.dll
 0000:fffc0000       .debug$S                   0000000180000000     kernel32:KERNEL32.dll
 0000:fffc0000       .debug$S                   0000000180000000     kernel32:KERNEL32.dll
 0000:fffc0000       .debug$S                   0000000180000000     kernel32:KERNEL32.dll
 0000:fffc0000       .debug$S                   0000000180000000     kernel32:KERNEL32.dll
 0000:fffc0000       .debug$S                   0000000180000000     kernel32:KERNEL32.dll
 0000:fffc0000       .debug$S                   0000000180000000     kernel32:KERNEL32.dll
 0000:fffc0000       .debug$S                   0000000180000000     kernel32:KERNEL32.dll
 0000:fffc0000       .debug$S                   0000000180000000     kernel32:KERNEL32.dll
 0000:fffc0000       .debug$S                   0000000180000000     kernel32:KERNEL32.dll
 0000:fffc0000       .debug$S                   0000000180000000     kernel32:KERNEL32.dll
 0000:fffc0000       .debug$S                   0000000180000000     kernel32:KERNEL32.dll
 0000:fffc0000       .debug$S                   0000000180000000     kernel32:KERNEL32.dll
 0000:fffc0000       .debug$S                   0000000180000000     kernel32:KERNEL32.dll
 0000:fffc0000       .debug$S                   0000000180000000     kernel32:KERNEL32.dll
 0000:fffc0000       .debug$S                   0000000180000000     kernel32:KERNEL32.dll
 0000:fffc0000       .debug$S                   0000000180000000     kernel32:KERNEL32.dll
 0000:fffc0000       .debug$S                   0000000180000000     kernel32:KERNEL32.dll
 0000:fffc0000       .debug$S                   0000000180000000     kernel32:KERNEL32.dll
 0000:fffc0000       .debug$S                   0000000180000000     kernel32:KERNEL32.dll
 0000:fffc0000       .debug$S                   0000000180000000     kernel32:KERNEL32.dll
 0000:fffc0000       .debug$S                   0000000180000000     kernel32:KERNEL32.dll
 0000:fffc0000       .debug$S                   0000000180000000     kernel32:KERNEL32.dll
 0000:fffc0000       .debug$S                   0000000180000000     kernel32:KERNEL32.dll
 0000:fffc0000       .debug$S                   0000000180000000     kernel32:KERNEL32.dll
 0000:fffc0000       .debug$S                   0000000180000000     kernel32:KERNEL32.dll
 0000:fffc0000       .debug$S                   0000000180000000     kernel32:KERNEL32.dll
 0000:fffc0000       .debug$S                   0000000180000000     kernel32:KERNEL32.dll
 0000:fffc0000       .debug$S                   0000000180000000     kernel32:KERNEL32.dll
 0000:fffc0000       .debug$S                   0000000180000000     kernel32:KERNEL32.dll
 0000:fffc0000       .debug$S                   0000000180000000     kernel32:KERNEL32.dll
 0000:fffc0000       .debug$S                   0000000180000000     kernel32:KERNEL32.dll
 0000:fffc0000       .debug$S                   0000000180000000     kernel32:KERNEL32.dll
 0000:fffc0000       .debug$S                   0000000180000000     kernel32:KERNEL32.dll
 0000:fffc0000       .debug$S                   0000000180000000     kernel32:KERNEL32.dll
 0000:fffc0000       .debug$S                   0000000180000000     kernel32:KERNEL32.dll
 0000:fffc0000       .debug$S                   0000000180000000     kernel32:KERNEL32.dll
 0000:fffc0000       .debug$S                   0000000180000000     kernel32:KERNEL32.dll
 0000:fffc0000       .debug$S                   0000000180000000     kernel32:KERNEL32.dll
 0000:fffc0000       .debug$S                   0000000180000000     kernel32:KERNEL32.dll
 0000:fffc0000       .debug$S                   0000000180000000     kernel32:KERNEL32.dll
 0000:fffc0000       .debug$S                   0000000180000000     kernel32:KERNEL32.dll
 0000:fffc0000       .debug$S                   0000000180000000     kernel32:KERNEL32.dll
 0000:fffc0000       .debug$S                   0000000180000000     kernel32:KERNEL32.dll
 0000:fffc0000       .debug$S                   0000000180000000     kernel32:KERNEL32.dll
 0000:fffc0000       .debug$S                   0000000180000000     kernel32:KERNEL32.dll
 0000:fffc0000       .debug$S                   0000000180000000     kernel32:KERNEL32.dll
 0000:fffc0000       .debug$S                   0000000180000000     kernel32:KERNEL32.dll
 0000:fffc0000       .debug$S                   0000000180000000     kernel32:KERNEL32.dll
 0000:fffc0000       .debug$S                   0000000180000000     kernel32:KERNEL32.dll
 0000:fffc0000       .debug$S                   0000000180000000     kernel32:KERNEL32.dll
 0000:fffc0000       .debug$S                   0000000180000000     kernel32:KERNEL32.dll
 0000:fffc0000       .debug$S                   0000000180000000     kernel32:KERNEL32.dll
 0000:fffc0000       .debug$S                   0000000180000000     kernel32:KERNEL32.dll
 0000:fffc0000       .debug$S                   0000000180000000     kernel32:KERNEL32.dll
 0000:fffc0000       .debug$S                   0000000180000000     ole32:ole32.dll
 0000:fffc0000       .debug$S                   0000000180000000     ole32:ole32.dll
 0000:fffc0000       .debug$S                   0000000180000000     ole32:ole32.dll
 0000:fffc0000       .debug$S                   0000000180000000     ole32:ole32.dll
 0000:fffc0000       .debug$S                   0000000180000000     ole32:ole32.dll
 0000:fffc0000       .debug$S                   0000000180000000     ole32:ole32.dll
 0000:fffc0000       .debug$S                   0000000180000000     ole32:ole32.dll
 0000:fffc0000       .debug$S                   0000000180000000     ole32:ole32.dll
 0000:fffc0000       .debug$S                   0000000180000000     ole32:ole32.dll
 0000:fffc0000       .debug$S                   0000000180000000     ole32:ole32.dll
 0000:fffc0000       .debug$S                   0000000180000000     ole32:ole32.dll
 0000:fffc0000       .debug$S                   0000000180000000     ole32:ole32.dll
 0000:fffc0000       .debug$S                   0000000180000000     ole32:ole32.dll
 0000:fffc0000       .debug$S                   0000000180000000     ole32:ole32.dll
 0000:fffc0000       .debug$S                   0000000180000000     oleaut32:OLEAUT32.dll
 0000:fffc0000       .debug$S                   0000000180000000     oleaut32:OLEAUT32.dll
 0000:fffc0000       .debug$S                   0000000180000000     oleaut32:OLEAUT32.dll
 0000:fffc0000       .debug$S                   0000000180000000     oleaut32:OLEAUT32.dll
 0000:fffc0000       .debug$S                   0000000180000000     oleaut32:OLEAUT32.dll
 0000:fffc0000       .debug$S                   0000000180000000     oleaut32:OLEAUT32.dll
 0000:fffc0000       .debug$S                   0000000180000000     oleaut32:OLEAUT32.dll
 0000:fffc0000       .debug$S                   0000000180000000     oleaut32:OLEAUT32.dll
 0000:fffc0000       .debug$S                   0000000180000000     oleaut32:OLEAUT32.dll
 0000:fffc0000       .debug$S                   0000000180000000     oleaut32:OLEAUT32.dll
 0000:fffc0000       .debug$S                   0000000180000000     oleaut32:OLEAUT32.dll
 0000:fffc0000       .debug$S                   0000000180000000     oleaut32:OLEAUT32.dll
 0000:fffc0000       .debug$S                   0000000180000000     oleaut32:OLEAUT32.dll
 0000:fffc0000       .debug$S                   0000000180000000     oleaut32:OLEAUT32.dll
 0000:fffc0000       .debug$S                   0000000180000000     oleaut32:OLEAUT32.dll
 0000:fffc0000       .debug$S                   0000000180000000     oleaut32:OLEAUT32.dll
 0000:fffc0000       .debug$S                   0000000180000000     user32:USER32.dll
 0000:fffc0000       .debug$S                   0000000180000000     user32:USER32.dll
 0000:fffc0000       .debug$S                   0000000180000000     user32:USER32.dll
 0000:fffc0000       .debug$S                   0000000180000000     user32:USER32.dll
 0000:fffc0000       .debug$S                   0000000180000000     user32:USER32.dll
 0000:fffc0000       .debug$S                   0000000180000000     user32:USER32.dll
 0000:fffc0000       .debug$S                   0000000180000000     user32:USER32.dll
 0000:fffc0000       .debug$S                   0000000180000000     user32:USER32.dll
 0000:fffc0000       .debug$S                   0000000180000000     user32:USER32.dll
 0000:fffc0000       .debug$S                   0000000180000000     user32:USER32.dll
 0000:fffc0000       .debug$S                   0000000180000000     user32:USER32.dll
 0000:fffc0000       .debug$S                   0000000180000000     user32:USER32.dll
 0000:fffc0000       .debug$S                   0000000180000000     user32:USER32.dll
 0000:fffc0000       .debug$S                   0000000180000000     user32:USER32.dll
 0000:fffc0000       .debug$S                   0000000180000000     user32:USER32.dll
 0000:fffc0000       .debug$S                   0000000180000000     user32:USER32.dll
 0000:fffc0000       .debug$S                   0000000180000000     user32:USER32.dll
 0000:fffc0000       .debug$S                   0000000180000000     user32:USER32.dll
 0000:fffc0000       .debug$S                   0000000180000000     user32:USER32.dll
 0000:fffc0000       .debug$S                   0000000180000000     user32:USER32.dll
 0000:fffc0000       .debug$S                   0000000180000000     user32:USER32.dll
 0000:fffc0000       .debug$S                   0000000180000000     user32:USER32.dll
 0000:fffc0000       .debug$S                   0000000180000000     user32:USER32.dll
 0000:fffc0000       .debug$S                   0000000180000000     user32:USER32.dll
 0000:fffc0000       .debug$S                   0000000180000000     user32:USER32.dll
 0000:fffc0000       .debug$S                   0000000180000000     user32:USER32.dll
 0000:fffc0000       .debug$S                   0000000180000000     user32:USER32.dll
 0000:fffc0000       .debug$S                   0000000180000000     user32:USER32.dll
 0000:fffc0000       .debug$S                   0000000180000000     user32:USER32.dll
 0000:fffc0000       .debug$S                   0000000180000000     user32:USER32.dll
 0000:fffc0000       .debug$S                   0000000180000000     user32:USER32.dll
 0000:fffc0000       .debug$S                   0000000180000000     user32:USER32.dll
 0000:fffc0000       .debug$S                   0000000180000000     user32:USER32.dll
 0000:fffc0000       .debug$S                   0000000180000000     user32:USER32.dll
 0000:fffc0000       .debug$S                   0000000180000000     user32:USER32.dll
 0001:00000000       ??__E_AtlComModule@ATL@@YAXXZ 0000000180001000 f   OposVariant.obj
 0001:00000020       ??__E_AtlWinModule@ATL@@YAXXZ 0000000180001020 f   OposVariant.obj
 0001:00000040       ??__E?pConnMap@?$IConnectionPointContainerImpl@VCOPOSPOSKeyboard@@@ATL@@0PEBU_ATL_CONNMAP_ENTRY@2@EB@@YAXXZ 0000000180001040 f   POSKeyboard.obj
 0001:00000058       ??__E_Module@@YAXXZ        0000000180001058 f   POSKeyboard.obj
 0001:00000094       ??__E_AtlBaseModule@ATL@@YAXXZ 0000000180001094 f   atls:atlbase.obj
 0001:0000e0d8       ?__scrt_initialize_thread_safe_statics@@YAHXZ 000000018000f0d8 f   LIBCMT:thread_safe_statics.obj
 0001:0000e1a8       ?__scrt_uninitialize_thread_safe_statics@@YAXXZ 000000018000f1a8 f   LIBCMT:thread_safe_statics.obj
 0001:0000e4f8       capture_current_context    000000018000f4f8 f   LIBCMT:gs_report.obj
 0001:0000e568       capture_previous_context   000000018000f568 f   LIBCMT:gs_report.obj
 0001:0000e700       $$000000                   000000018000f700     LIBCMT:chkstk.obj
 0001:0000e760       $$000000                   000000018000f760     LIBCMT:amdsecgs.obj
 0001:0000e790       ?dllmain_crt_dispatch@@YAHQEAUHINSTANCE__@@KQEAX@Z 000000018000f790 f   LIBCMT:dll_dllmain.obj
 0001:0000e7e0       ?dllmain_crt_process_attach@@YAHQEAUHINSTANCE__@@QEAX@Z 000000018000f7e0 f   LIBCMT:dll_dllmain.obj
 0001:0000e8f8       ?dllmain_crt_process_detach@@YAH_N@Z 000000018000f8f8 f   LIBCMT:dll_dllmain.obj
 0001:0000e97c       ?dllmain_dispatch@@YAHQEAUHINSTANCE__@@KQEAX@Z 000000018000f97c f   LIBCMT:dll_dllmain.obj
 0001:0000f248       ??$GetProcAddressAll@P6AP6A_JPEAUHWND__@@I_K_J@ZPEAUAtlThunkData_t@@@Z@@YAP6AP6A_JPEAUHWND__@@I_K_J@ZPEAUAtlThunkData_t@@@ZPEAP6AP6A_J0I12@Z3@Z@Z 0000000180010248 f   atls:atlthunk.obj
 0001:0000f248       ??$GetProcAddressAll@P6APEAUAtlThunkData_t@@XZ@@YAP6APEAUAtlThunkData_t@@XZPEAP6APEAU0@XZ@Z 0000000180010248 f   atls:atlthunk.obj
 0001:0000f248       ??$GetProcAddressAll@P6AXPEAUAtlThunkData_t@@@Z@@YAP6AXPEAUAtlThunkData_t@@@ZPEAP6AX0@Z@Z 0000000180010248 f   atls:atlthunk.obj
 0001:0000f248       ??$GetProcAddressAll@P6AXPEAUAtlThunkData_t@@PEAX_K@Z@@YAP6AXPEAUAtlThunkData_t@@PEAX_K@ZPEAP6AX012@Z@Z 0000000180010248 f   atls:atlthunk.obj
 0001:0000f420       ?__InitializeThunkPool@@YAHXZ 0000000180010420 f   atls:atlthunk.obj
 0001:0000f8c0       $$000000                   00000001800108c0     libvcruntime:memcmp.obj
 0001:0000f9a0       $$000000                   00000001800109a0     libvcruntime:memcpy.obj
 0001:00010050       $$000000                   0000000180011050     libvcruntime:memset.obj
 0001:00011660       $$000000                   0000000180012660     libvcruntime:notify.obj
 0001:000118e0       ??$BuildCatchObjectHelperInternal@V__FrameHandler3@@@@YAHPEAUEHExceptionRecord@@PEAXPEBU_s_HandlerType@@PEBU_s_CatchableType@@@Z 00000001800128e0 f   libvcruntime:frame.obj
 0001:00011ae0       ??$BuildCatchObjectHelperInternal@V__FrameHandler4@@@@YAHPEAUEHExceptionRecord@@PEAXPEAUHandlerType4@FH4@@PEBU_s_CatchableType@@@Z 0000000180012ae0 f   libvcruntime:frame.obj
 0001:00011ce4       ??$BuildCatchObjectInternal@V__FrameHandler3@@@@YAXPEAUEHExceptionRecord@@PEAXPEBU_s_HandlerType@@PEBU_s_CatchableType@@@Z 0000000180012ce4 f   libvcruntime:frame.obj
 0001:00011da4       ??$BuildCatchObjectInternal@V__FrameHandler4@@@@YAXPEAUEHExceptionRecord@@PEAXPEAUHandlerType4@FH4@@PEBU_s_CatchableType@@@Z 0000000180012da4 f   libvcruntime:frame.obj
 0001:00011e68       ??$CatchIt@V__FrameHandler3@@@@YAXPEAUEHExceptionRecord@@PEA_KPEAU_CONTEXT@@PEAU_xDISPATCHER_CONTEXT@@PEBU_s_FuncInfo@@PEBU_s_HandlerType@@PEBU_s_CatchableType@@PEBU_s_TryBlockMapEntry@@H1EE@Z 0000000180012e68 f   libvcruntime:frame.obj
 0001:00011f3c       ??$CatchIt@V__FrameHandler4@@@@YAXPEAUEHExceptionRecord@@PEA_KPEAU_CONTEXT@@PEAU_xDISPATCHER_CONTEXT@@PEAUFuncInfo4@FH4@@PEAUHandlerType4@4@PEBU_s_CatchableType@@PEAUTryBlockMapEntry4@4@H1EE@Z 0000000180012f3c f   libvcruntime:frame.obj
 0001:00012010       ??$FindHandler@V__FrameHandler3@@@@YAXPEAUEHExceptionRecord@@PEA_KPEAU_CONTEXT@@PEAU_xDISPATCHER_CONTEXT@@PEBU_s_FuncInfo@@EH1@Z 0000000180013010 f   libvcruntime:frame.obj
 0001:000124e8       ??$FindHandler@V__FrameHandler4@@@@YAXPEAUEHExceptionRecord@@PEA_KPEAU_CONTEXT@@PEAU_xDISPATCHER_CONTEXT@@PEAUFuncInfo4@FH4@@EH1@Z 00000001800134e8 f   libvcruntime:frame.obj
 0001:000129e4       ??$FindHandlerForForeignException@V__FrameHandler3@@@@YAXPEAUEHExceptionRecord@@PEA_KPEAU_CONTEXT@@PEAU_xDISPATCHER_CONTEXT@@PEBU_s_FuncInfo@@HH1@Z 00000001800139e4 f   libvcruntime:frame.obj
 0001:00012c00       ??$FindHandlerForForeignException@V__FrameHandler4@@@@YAXPEAUEHExceptionRecord@@PEA_KPEAU_CONTEXT@@PEAU_xDISPATCHER_CONTEXT@@PEAUFuncInfo4@FH4@@HH1@Z 0000000180013c00 f   libvcruntime:frame.obj
 0001:00013dc0       ?ExFilterRethrow@@YAHPEAU_EXCEPTION_POINTERS@@PEAUEHExceptionRecord@@PEAH@Z 0000000180014dc0 f   libvcruntime:frame.obj
 0001:00013e48       ?ExFilterRethrowFH4@@YAHPEAU_EXCEPTION_POINTERS@@PEAUEHExceptionRecord@@HPEAH@Z 0000000180014e48 f   libvcruntime:frame.obj
 0001:00014398       ?IsInExceptionSpec@@YAEPEAUEHExceptionRecord@@PEBU_s_ESTypeList@@@Z 0000000180015398 f   libvcruntime:frame.obj
 0001:00014488       ?Is_bad_exception_allowed@@YAEPEBU_s_ESTypeList@@@Z 0000000180015488 f   libvcruntime:frame.obj
 0001:00014764       ?try_get_function@@YAPEAXW4function_id@?A0xbc0cc709@@QEBDQEBW4module_id@2@2@Z 0000000180015764 f   libvcruntime:winapi_downlevel.obj
 0001:00014a50       $$000000                   0000000180015a50     libvcruntime:handlers.obj
 0001:0001547c       ??$common_vsprintf@Vformat_validation_base@__crt_stdio_output@@_W@@YAH_KQEA_W0QEB_WAEAV__crt_cached_ptd_host@@QEAD@Z 000000018001647c f   libucrt:output.obj
 0001:00017bcc       ??$?RV<lambda_d80eeec6fff315bfe5c115232f3240e3>@@AEAV<lambda_6e4b09c48022b2350581041d5f6b0c4c>@@V<lambda_2358e3775559c9db80273638284d5e45>@@@?$__crt_seh_guarded_call@X@@QEAAX$$QEAV<lambda_d80eeec6fff315bfe5c115232f3240e3>@@AEAV<lambda_6e4b09c48022b2350581041d5f6b0c4c>@@$$QEAV<lambda_2358e3775559c9db80273638284d5e45>@@@Z 0000000180018bcc f   libucrt:exit.obj
 0001:00017c04       ??R<lambda_6e4b09c48022b2350581041d5f6b0c4c>@@QEBA@XZ 0000000180018c04 f   libucrt:exit.obj
 0001:00017cd0       ?common_exit@@YAXHW4_crt_exit_cleanup_mode@@W4_crt_exit_return_mode@@@Z 0000000180018cd0 f   libucrt:exit.obj
 0001:00017d98       ?exit_or_terminate_process@@YAXI@Z 0000000180018d98 f   libucrt:exit.obj
 0001:00017dcc       ?should_call_terminate_process@@YA_NXZ 0000000180018dcc f   libucrt:exit.obj
 0001:00017dfc       ?try_cor_exit_process@@YAXI@Z 0000000180018dfc f   libucrt:exit.obj
 0001:00017e98       ??$parse_command_line@D@@YAXPEADPEAPEAD0PEA_K2@Z 0000000180018e98 f   libucrt:argv_parsing.obj
 0001:00018240       ??$common_initialize_environment_nolock@D@@YAHXZ 0000000180019240 f   libucrt:environment_initialization.obj
 0001:000182b4       ??$create_environment@D@@YAQEAPEADQEAD@Z 00000001800192b4 f   libucrt:environment_initialization.obj
 0001:000183c4       ??$free_environment@D@@YAXQEAPEAD@Z 00000001800193c4 f   libucrt:environment_initialization.obj
 0001:000183c4       ??$free_environment@_W@@YAXQEAPEA_W@Z 00000001800193c4 f   libucrt:environment_initialization.obj
 0001:00018408       ??$uninitialize_environment_internal@D@@YAXAEAPEAPEAD@Z 0000000180019408 f   libucrt:environment_initialization.obj
 0001:00018424       ??$uninitialize_environment_internal@_W@@YAXAEAPEAPEA_W@Z 0000000180019424 f   libucrt:environment_initialization.obj
 0001:0001848c       ??$?RV<lambda_638799b9deba96c50f710eeac98168cd>@@AEAV<lambda_22ebabd17bc4fa466a2aca6d8deb888d>@@V<lambda_a6f7d7db0129f75315ebf26d50c089f1>@@@?$__crt_seh_guarded_call@H@@QEAAH$$QEAV<lambda_638799b9deba96c50f710eeac98168cd>@@AEAV<lambda_22ebabd17bc4fa466a2aca6d8deb888d>@@$$QEAV<lambda_a6f7d7db0129f75315ebf26d50c089f1>@@@Z 000000018001948c f   libucrt:onexit.obj
 0001:000184c8       ??$?RV<lambda_7777bce6b2f8c936911f934f8298dc43>@@AEAV<lambda_f03950bc5685219e0bcd2087efbe011e>@@V<lambda_3883c3dff614d5e0c5f61bb1ac94921c>@@@?$__crt_seh_guarded_call@H@@QEAAH$$QEAV<lambda_7777bce6b2f8c936911f934f8298dc43>@@AEAV<lambda_f03950bc5685219e0bcd2087efbe011e>@@$$QEAV<lambda_3883c3dff614d5e0c5f61bb1ac94921c>@@@Z 00000001800194c8 f   libucrt:onexit.obj
 0001:00018504       ??R<lambda_22ebabd17bc4fa466a2aca6d8deb888d>@@QEBAHXZ 0000000180019504 f   libucrt:onexit.obj
 0001:000186b4       ??R<lambda_f03950bc5685219e0bcd2087efbe011e>@@QEBAHXZ 00000001800196b4 f   libucrt:onexit.obj
 0001:00018898       initialize_global_variables 0000000180019898 f   libucrt:initialization.obj
 0001:000188ac       initialize_c               00000001800198ac f   libucrt:initialization.obj
 0001:000188d0       initialize_environment     00000001800198d0 f   libucrt:initialization.obj
 0001:000188d0       initialize_global_state_isolation 00000001800198d0 f   libucrt:initialization.obj
 0001:000188d0       report_memory_leaks        00000001800198d0 f   libucrt:initialization.obj
 0001:000188d0       uninitialize_c             00000001800198d0 f   libucrt:initialization.obj
 0001:000188d0       uninitialize_global_state_isolation 00000001800198d0 f   libucrt:initialization.obj
 0001:000188d4       uninitialize_environment   00000001800198d4 f   libucrt:initialization.obj
 0001:000188e4       initialize_pointers        00000001800198e4 f   libucrt:initialization.obj
 0001:00018924       uninitialize_vcruntime     0000000180019924 f   libucrt:initialization.obj
 0001:0001892c       uninitialize_allocated_memory 000000018001992c f   libucrt:initialization.obj
 0001:0001896c       uninitialize_allocated_io_buffers 000000018001996c f   libucrt:initialization.obj
 0001:00018c30       $$000000                   0000000180019c30     libucrt:strncmp.obj
 0001:00018d28       ??$?RV<lambda_0ae27a3a962d80f24befdcbee591983d>@@AEAV<lambda_8d0ee55de4b1038c4002e0adecdf1839>@@V<lambda_dc504788e8f1664fe9b84e20bfb512f2>@@@?$__crt_seh_guarded_call@X@@QEAAX$$QEAV<lambda_0ae27a3a962d80f24befdcbee591983d>@@AEAV<lambda_8d0ee55de4b1038c4002e0adecdf1839>@@$$QEAV<lambda_dc504788e8f1664fe9b84e20bfb512f2>@@@Z 0000000180019d28 f   libucrt:per_thread_data.obj
 0001:00018d68       ??$?RV<lambda_2d41944a1d46af3157314b8a01080d33>@@AEAV<lambda_8f455de75cd7d7f24b4096f044d8b9e6>@@V<lambda_aa500f224e6afead328df44964fe2772>@@@?$__crt_seh_guarded_call@X@@QEAAX$$QEAV<lambda_2d41944a1d46af3157314b8a01080d33>@@AEAV<lambda_8f455de75cd7d7f24b4096f044d8b9e6>@@$$QEAV<lambda_aa500f224e6afead328df44964fe2772>@@@Z 0000000180019d68 f   libucrt:per_thread_data.obj
 0001:00018da8       ??$?RV<lambda_aa87e3671a710a21b5dc78c0bdf72e11>@@AEAV<lambda_92619d2358a28f41a33ba319515a20b9>@@V<lambda_6992ecaafeb10aed2b74cb1fae11a551>@@@?$__crt_seh_guarded_call@X@@QEAAX$$QEAV<lambda_aa87e3671a710a21b5dc78c0bdf72e11>@@AEAV<lambda_92619d2358a28f41a33ba319515a20b9>@@$$QEAV<lambda_6992ecaafeb10aed2b74cb1fae11a551>@@@Z 0000000180019da8 f   libucrt:per_thread_data.obj
 0001:00018df0       ??$?RV<lambda_f2e299630e499de9f9a165e60fcd3db5>@@AEAV<lambda_2ae9d31cdba2644fcbeaf08da7c24588>@@V<lambda_40d01ff24d0e7b3814fdbdcee8eab3c7>@@@?$__crt_seh_guarded_call@X@@QEAAX$$QEAV<lambda_f2e299630e499de9f9a165e60fcd3db5>@@AEAV<lambda_2ae9d31cdba2644fcbeaf08da7c24588>@@$$QEAV<lambda_40d01ff24d0e7b3814fdbdcee8eab3c7>@@@Z 0000000180019df0 f   libucrt:per_thread_data.obj
 0001:00018e50       ?construct_ptd_array@@YAXQEAU__acrt_ptd@@@Z 0000000180019e50 f   libucrt:per_thread_data.obj
 0001:00018f20       ?destroy_fls@@YAXPEAX@Z    0000000180019f20 f   libucrt:per_thread_data.obj
 0001:00018f40       ?destroy_ptd_array@@YAXQEAU__acrt_ptd@@@Z 0000000180019f40 f   libucrt:per_thread_data.obj
 0001:00019038       ?replace_current_thread_locale_nolock@@YAXQEAU__acrt_ptd@@QEAU__crt_locale_data@@@Z 000000018001a038 f   libucrt:per_thread_data.obj
 0001:00019444       ??$?RV<lambda_410d79af7f07d98d83a3f525b3859a53>@@AEAV<lambda_3e16ef9562a7dcce91392c22ab16ea36>@@V<lambda_38119f0e861e05405d8a144b9b982f0a>@@@?$__crt_seh_guarded_call@X@@QEAAX$$QEAV<lambda_410d79af7f07d98d83a3f525b3859a53>@@AEAV<lambda_3e16ef9562a7dcce91392c22ab16ea36>@@$$QEAV<lambda_38119f0e861e05405d8a144b9b982f0a>@@@Z 000000018001a444 f   libucrt:wsetlocale.obj
 0001:00019680       ?try_get_function@@YAPEAXW4function_id@?A0x391cf84c@@QEBDQEBW4module_id@2@2@Z 000000018001a680 f   libucrt:winapi_thunks.obj
 0001:00019e1c       ?fp_format_a@@YAHQEBNPEAD_KQEAD2H_NIW4__acrt_rounding_mode@@AEAV__crt_cached_ptd_host@@@Z 000000018001ae1c f   libucrt:cvt.obj
 0001:0001a1d0       ?fp_format_e@@YAHQEBNQEAD_K12H_NIW4__acrt_rounding_mode@@AEAV__crt_cached_ptd_host@@@Z 000000018001b1d0 f   libucrt:cvt.obj
 0001:0001a2cc       ?fp_format_e_internal@@YAHQEAD_KH_NIQEAU_strflt@@2AEAV__crt_cached_ptd_host@@@Z 000000018001b2cc f   libucrt:cvt.obj
 0001:0001a4b0       ?fp_format_f@@YAHQEBNQEAD_K12HW4__acrt_rounding_mode@@AEAV__crt_cached_ptd_host@@@Z 000000018001b4b0 f   libucrt:cvt.obj
 0001:0001a588       ?fp_format_f_internal@@YAHQEAD_KHQEAU_strflt@@_NAEAV__crt_cached_ptd_host@@@Z 000000018001b588 f   libucrt:cvt.obj
 0001:0001a6e0       ?fp_format_g@@YAHQEBNQEAD_K12H_NIW4__acrt_rounding_mode@@AEAV__crt_cached_ptd_host@@@Z 000000018001b6e0 f   libucrt:cvt.obj
 0001:0001a834       ?should_round_up@@YA_NQEBN_KFW4__acrt_rounding_mode@@@Z 000000018001b834 f   libucrt:cvt.obj
 0001:0001af80       ?initialize_inherited_file_handles_nolock@@YAXXZ 000000018001bf80 f   libucrt:ioinit.obj
 0001:0001b070       ?initialize_stdio_handles_nolock@@YAXXZ 000000018001c070 f   libucrt:ioinit.obj
 0001:0001b2e8       ?<lambda_invoker_cdecl>@<lambda_a1ce4c8ae42411fd470c77163914f50e>@@CAHPEBX0@Z 000000018001c2e8 f   libucrt:argv_wildcards.obj
 0001:0001b604       ??$common_expand_argv_wildcards@D@@YAHQEAPEADQEAPEAPEAD@Z 000000018001c604 f   libucrt:argv_wildcards.obj
 0001:0001b848       ??$copy_and_add_argument_to_buffer@D@@YAHQEBD0_KAEAV?$argument_list@D@?A0x5f5c8891@@@Z 000000018001c848 f   libucrt:argv_wildcards.obj
 0001:0001b9d0       ??$expand_argument_wildcards@D@@YAHQEAD0AEAV?$argument_list@D@?A0x5f5c8891@@@Z 000000018001c9d0 f   libucrt:argv_wildcards.obj
 0001:0001c004       ??$?RV<lambda_efdfa57d1f175319df784efa44bb7b81>@@AEAV<lambda_5f0a4c1567f8adc6734073e5d1e1b35c>@@V<lambda_2e8a7d3640ea6ccb4c2413664c2db6fd>@@@?$__crt_seh_guarded_call@X@@QEAAX$$QEAV<lambda_efdfa57d1f175319df784efa44bb7b81>@@AEAV<lambda_5f0a4c1567f8adc6734073e5d1e1b35c>@@$$QEAV<lambda_2e8a7d3640ea6ccb4c2413664c2db6fd>@@@Z 000000018001d004 f   libucrt:mbctype.obj
 0001:0001c1d4       ?getSystemCP@@YAHH@Z       000000018001d1d4 f   libucrt:mbctype.obj
 0001:0001c254       ?setSBCS@@YAXPEAU__crt_multibyte_data@@@Z 000000018001d254 f   libucrt:mbctype.obj
 0001:0001c2ec       ?setSBUpLow@@YAXPEAU__crt_multibyte_data@@@Z 000000018001d2ec f   libucrt:mbctype.obj
 0001:0001c4d4       ?setmbcp_internal@@YAHH_NQEAU__acrt_ptd@@QEAPEAU__crt_multibyte_data@@@Z 000000018001d4d4 f   libucrt:mbctype.obj
 0001:0001c744       ?update_thread_multibyte_data_internal@@YAPEAU__crt_multibyte_data@@QEAU__acrt_ptd@@QEAPEAU1@@Z 000000018001d744 f   libucrt:mbctype.obj
 0001:0001cb38       ?x_ismbbtype_l@@YAHPEAU__crt_locale_pointers@@IHH@Z 000000018001db38 f   libucrt:ismbbyte.obj
 0001:0001cf08       ??$?RV<lambda_450d765d439847d4c735a33c368b5fc0>@@AEAV<lambda_44731a7d0e6d81c3e6aa82d741081786>@@V<lambda_601a2a7da3b7a96e9554ac7215c4b07c>@@@?$__crt_seh_guarded_call@P6AXH@Z@@QEAAP6AXH@Z$$QEAV<lambda_450d765d439847d4c735a33c368b5fc0>@@AEAV<lambda_44731a7d0e6d81c3e6aa82d741081786>@@$$QEAV<lambda_601a2a7da3b7a96e9554ac7215c4b07c>@@@Z 000000018001df08 f   libucrt:signal.obj
 0001:0001d280       ??$?RV<lambda_842d9ff0dc9ef11c61343bbaebe7f885>@@AEAV<lambda_c5860995281e5c4ce005b3de8f5874ee>@@V<lambda_d90129c13df834fdcbf8d2b88dafcf2d>@@@?$__crt_seh_guarded_call@X@@QEAAX$$QEAV<lambda_842d9ff0dc9ef11c61343bbaebe7f885>@@AEAV<lambda_c5860995281e5c4ce005b3de8f5874ee>@@$$QEAV<lambda_d90129c13df834fdcbf8d2b88dafcf2d>@@@Z 000000018001e280 f   libucrt:fflush.obj
 0001:0001d31c       ??$?RV<lambda_886d6c58226a84441f68b9f2b8217b83>@@AEAV<lambda_ab61a845afdef5b7c387490eaf3616ee>@@V<lambda_f7f22ab5edc0698d5f6905b0d3f44752>@@@?$__crt_seh_guarded_call@X@@QEAAX$$QEAV<lambda_886d6c58226a84441f68b9f2b8217b83>@@AEAV<lambda_ab61a845afdef5b7c387490eaf3616ee>@@$$QEAV<lambda_f7f22ab5edc0698d5f6905b0d3f44752>@@@Z 000000018001e31c f   libucrt:fflush.obj
 0001:0001d3fc       ?common_flush_all@@YAH_N@Z 000000018001e3fc f   libucrt:fflush.obj
 0001:0001db48       ?free_crt_array_internal@@YAXQEAPEBX_K@Z 000000018001eb48 f   libucrt:inittime.obj
 0001:0001f72c       memcpy_s                   000000018002072c f   libucrt:cfout.obj
 0001:00020330       fallbackMethod             0000000180021330 f   libucrt:strpbrk.obj
 0001:000206dc       $LN78                      00000001800216dc     libucrt:strpbrk.obj
 0001:00020718       $LN77                      0000000180021718     libucrt:strpbrk.obj
 0001:00020758       $LN76                      0000000180021758     libucrt:strpbrk.obj
 0001:00020834       ?__acrt_LCMapStringA_stat@@YAHPEAU__crt_locale_pointers@@PEB_WKPEBDHPEADHHH@Z 0000000180021834 f   libucrt:lcmapstringa.obj
 0001:00020bec       ?initialize_multibyte@@YAHXZ 0000000180021bec f   libucrt:multibyte_initializer.obj
 0001:00020c04       ??$?RV<lambda_a37b2b86f63e897a80ea819b0eb08c01>@@AEAV<lambda_38ce7e780aa69e748d6df282ebc68efe>@@V<lambda_99fb1378e971ab6e7edea83e3a7a83a2>@@@?$__crt_seh_guarded_call@H@@QEAAH$$QEAV<lambda_a37b2b86f63e897a80ea819b0eb08c01>@@AEAV<lambda_38ce7e780aa69e748d6df282ebc68efe>@@$$QEAV<lambda_99fb1378e971ab6e7edea83e3a7a83a2>@@@Z 0000000180021c04 f   libucrt:commit.obj
 0001:00020d24       ?write_double_translated_ansi_nolock@@YA?AUwrite_result@?A0x17268360@@HQEBDIAEAV__crt_cached_ptd_host@@@Z 0000000180021d24 f   libucrt:write.obj
 0001:000211b0       ?write_text_ansi_nolock@@YA?AUwrite_result@?A0x17268360@@HQEBDI@Z 00000001800221b0 f   libucrt:write.obj
 0001:000212b4       ?write_text_utf16le_nolock@@YA?AUwrite_result@?A0x17268360@@HQEBDI@Z 00000001800222b4 f   libucrt:write.obj
 0001:000213d0       ?write_text_utf8_nolock@@YA?AUwrite_result@?A0x17268360@@HQEBDI@Z 00000001800223d0 f   libucrt:write.obj
 0001:00021bb0       $$000000                   0000000180022bb0     libucrt:log10.obj
 0001:0002264c       ?_fclose_internal@@YAHQEAU_iobuf@@AEAV__crt_cached_ptd_host@@@Z 000000018002364c f   libucrt:fclose.obj
 0001:000226c8       ?_fclose_nolock_internal@@YAHQEAU_iobuf@@AEAV__crt_cached_ptd_host@@@Z 00000001800236c8 f   libucrt:fclose.obj
 0001:00022804       ??$common_lseek_nolock@_J@@YA_JH_JHAEAV__crt_cached_ptd_host@@@Z 0000000180023804 f   libucrt:lseek.obj
 0001:0002298c       common_control87           000000018002398c f   libucrt:ieee.obj
 0001:00022c4c       _call_matherr              0000000180023c4c f   libucrt:libm_error.obj
 0001:00022cb4       _exception_enabled         0000000180023cb4 f   libucrt:libm_error.obj
 0001:00022f50       _log_special_common        0000000180023f50 f   libucrt:log_special.obj
 0001:00022fe8       ??$?RV<lambda_ad8af0d99a0adf03d037d7dffe354bb5>@@AEAV<lambda_c9ba49e555ba839a7b07aa3fbecb7617>@@V<lambda_2f1ebd5d68526518146ae959c9e734c8>@@@?$__crt_seh_guarded_call@H@@QEAAH$$QEAV<lambda_ad8af0d99a0adf03d037d7dffe354bb5>@@AEAV<lambda_c9ba49e555ba839a7b07aa3fbecb7617>@@$$QEAV<lambda_2f1ebd5d68526518146ae959c9e734c8>@@@Z 0000000180023fe8 f   libucrt:close.obj
 0001:00023340       $$000000                   0000000180024340     libucrt:fpsr.obj
 0001:00023ac0       $$000000                   0000000180024ac0     LIBCMT:guard_dispatch.obj
 0001:00023ae0       $$000000                   0000000180024ae0     LIBCMT:guard_xfg_dispatch.obj
 0001:00023b00       ?filt$0@?0??_AtlVerifyStackAvailable@_ATL_SAFE_ALLOCA_IMPL@ATL@@YA_N_K@Z@4HA 0000000180024b00 f   POSKeyboard.obj
 0001:00023b21       __scrt_is_nonwritable_in_current_image$filt$0 0000000180024b21 f   LIBCMT:utility.obj
 0001:00023b39       ?catch$0@?0???2@YAPEAX_KAEBUnothrow_t@std@@@Z@4HA 0000000180024b39 f   LIBCMT:new_scalar_nothrow.obj
 0001:00023b46       __catch$??2@YAPEAX_KAEBUnothrow_t@std@@@Z$0 0000000180024b46 f   LIBCMT:new_scalar_nothrow.obj
 0001:00023b57       ?fin$0@?0??dllmain_crt_process_attach@@YAHQEAUHINSTANCE__@@QEAX@Z@4HA 0000000180024b57 f   LIBCMT:dll_dllmain.obj
 0001:00023b6e       ?fin$0@?0??dllmain_crt_process_detach@@YAH_N@Z@4HA 0000000180024b6e f   LIBCMT:dll_dllmain.obj
 0001:00023b87       ?fin$1@?0??dllmain_crt_process_detach@@YAH_N@Z@4HA 0000000180024b87 f   LIBCMT:dll_dllmain.obj
 0001:00023b9b       ?filt$0@?0??dllmain_dispatch@@YAHQEAUHINSTANCE__@@KQEAX@Z@4HA 0000000180024b9b f   LIBCMT:dll_dllmain.obj
 0001:00023bd1       ?filt$0@?0???$_CallSETranslator@V__FrameHandler3@@@@YAHPEAUEHExceptionRecord@@PEA_KPEAU_CONTEXT@@PEAU_xDISPATCHER_CONTEXT@@PEBU_s_FuncInfo@@K1H@Z@4HA 0000000180024bd1 f   libvcruntime:risctrnsctrl.obj
 0001:00023c62       ?filt$0@?0???$_CallSETranslator@V__FrameHandler4@@@@YAHPEAUEHExceptionRecord@@PEA_KPEAU_CONTEXT@@PEAU_xDISPATCHER_CONTEXT@@PEAUFuncInfo4@FH4@@K1H@Z@4HA 0000000180024c62 f   libvcruntime:risctrnsctrl.obj
 0001:00023d01       __DestructExceptionObject$filt$0 0000000180024d01 f   libvcruntime:ehhelpers.obj
 0001:00023d97       ?filt$0@?0??CxxCallCatchBlock@__FrameHandler3@@SAPEAXPEAU_EXCEPTION_RECORD@@@Z@4HA 0000000180024d97 f   libvcruntime:frame.obj
 0001:00023dbc       ?fin$1@?0??CxxCallCatchBlock@__FrameHandler3@@SAPEAXPEAU_EXCEPTION_RECORD@@@Z@4HA 0000000180024dbc f   libvcruntime:frame.obj
 0001:00023e42       ?filt$0@?0??CxxCallCatchBlock@__FrameHandler4@@SAPEAXPEAU_EXCEPTION_RECORD@@@Z@4HA 0000000180024e42 f   libvcruntime:frame.obj
 0001:00023e71       ?fin$1@?0??CxxCallCatchBlock@__FrameHandler4@@SAPEAXPEAU_EXCEPTION_RECORD@@@Z@4HA 0000000180024e71 f   libvcruntime:frame.obj
 0001:00023f02       ?filt$0@?0??FrameUnwindToState@__FrameHandler3@@SAXPEA_KPEAU_xDISPATCHER_CONTEXT@@PEBU_s_FuncInfo@@H@Z@4HA 0000000180024f02 f   libvcruntime:frame.obj
 0001:00023f18       ?fin$1@?0??FrameUnwindToState@__FrameHandler3@@SAXPEA_KPEAU_xDISPATCHER_CONTEXT@@PEBU_s_FuncInfo@@H@Z@4HA 0000000180024f18 f   libvcruntime:frame.obj
 0001:00023f3b       ?filt$0@?0??FrameUnwindToState@__FrameHandler4@@SAXPEA_KPEAU_xDISPATCHER_CONTEXT@@PEAUFuncInfo4@FH4@@H@Z@4HA 0000000180024f3b f   libvcruntime:frame.obj
 0001:00023f51       ?fin$1@?0??FrameUnwindToState@__FrameHandler4@@SAXPEA_KPEAU_xDISPATCHER_CONTEXT@@PEAUFuncInfo4@FH4@@H@Z@4HA 0000000180024f51 f   libvcruntime:frame.obj
 0001:00023f74       ?fin$0@?0???$?RV<lambda_0ae27a3a962d80f24befdcbee591983d>@@AEAV<lambda_8d0ee55de4b1038c4002e0adecdf1839>@@V<lambda_dc504788e8f1664fe9b84e20bfb512f2>@@@?$__crt_seh_guarded_call@X@@QEAAX$$QEAV<lambda_0ae27a3a962d80f24befdcbee591983d>@@AEAV<lambda_8d0ee55de4b1038c4002e0adecdf1839>@@$$QEAV<lambda_dc504788e8f1664fe9b84e20bfb512f2>@@@Z@4HA 0000000180024f74 f   libucrt:per_thread_data.obj
 0001:00023f74       ?fin$0@?0???$?RV<lambda_2d41944a1d46af3157314b8a01080d33>@@AEAV<lambda_8f455de75cd7d7f24b4096f044d8b9e6>@@V<lambda_aa500f224e6afead328df44964fe2772>@@@?$__crt_seh_guarded_call@X@@QEAAX$$QEAV<lambda_2d41944a1d46af3157314b8a01080d33>@@AEAV<lambda_8f455de75cd7d7f24b4096f044d8b9e6>@@$$QEAV<lambda_aa500f224e6afead328df44964fe2772>@@@Z@4HA 0000000180024f74 f   libucrt:per_thread_data.obj
 0001:00023f74       ?fin$0@?0???$?RV<lambda_aa87e3671a710a21b5dc78c0bdf72e11>@@AEAV<lambda_92619d2358a28f41a33ba319515a20b9>@@V<lambda_6992ecaafeb10aed2b74cb1fae11a551>@@@?$__crt_seh_guarded_call@X@@QEAAX$$QEAV<lambda_aa87e3671a710a21b5dc78c0bdf72e11>@@AEAV<lambda_92619d2358a28f41a33ba319515a20b9>@@$$QEAV<lambda_6992ecaafeb10aed2b74cb1fae11a551>@@@Z@4HA 0000000180024f74 f   libucrt:per_thread_data.obj
 0001:00023f74       ?fin$0@?0???$?RV<lambda_f2e299630e499de9f9a165e60fcd3db5>@@AEAV<lambda_2ae9d31cdba2644fcbeaf08da7c24588>@@V<lambda_40d01ff24d0e7b3814fdbdcee8eab3c7>@@@?$__crt_seh_guarded_call@X@@QEAAX$$QEAV<lambda_f2e299630e499de9f9a165e60fcd3db5>@@AEAV<lambda_2ae9d31cdba2644fcbeaf08da7c24588>@@$$QEAV<lambda_40d01ff24d0e7b3814fdbdcee8eab3c7>@@@Z@4HA 0000000180024f74 f   libucrt:per_thread_data.obj
 0001:00023f74       ?fin$0@?0???$?RV<lambda_450d765d439847d4c735a33c368b5fc0>@@AEAV<lambda_44731a7d0e6d81c3e6aa82d741081786>@@V<lambda_601a2a7da3b7a96e9554ac7215c4b07c>@@@?$__crt_seh_guarded_call@P6AXH@Z@@QEAAP6AXH@Z$$QEAV<lambda_450d765d439847d4c735a33c368b5fc0>@@AEAV<lambda_44731a7d0e6d81c3e6aa82d741081786>@@$$QEAV<lambda_601a2a7da3b7a96e9554ac7215c4b07c>@@@Z@4HA 0000000180024f74 f   libucrt:signal.obj
 0001:00023f74       ?fin$0@?0???$?RV<lambda_d80eeec6fff315bfe5c115232f3240e3>@@AEAV<lambda_6e4b09c48022b2350581041d5f6b0c4c>@@V<lambda_2358e3775559c9db80273638284d5e45>@@@?$__crt_seh_guarded_call@X@@QEAAX$$QEAV<lambda_d80eeec6fff315bfe5c115232f3240e3>@@AEAV<lambda_6e4b09c48022b2350581041d5f6b0c4c>@@$$QEAV<lambda_2358e3775559c9db80273638284d5e45>@@@Z@4HA 0000000180024f74 f   libucrt:exit.obj
 0001:00023f74       ?fin$0@?0???$?RV<lambda_638799b9deba96c50f710eeac98168cd>@@AEAV<lambda_22ebabd17bc4fa466a2aca6d8deb888d>@@V<lambda_a6f7d7db0129f75315ebf26d50c089f1>@@@?$__crt_seh_guarded_call@H@@QEAAH$$QEAV<lambda_638799b9deba96c50f710eeac98168cd>@@AEAV<lambda_22ebabd17bc4fa466a2aca6d8deb888d>@@$$QEAV<lambda_a6f7d7db0129f75315ebf26d50c089f1>@@@Z@4HA 0000000180024f74 f   libucrt:onexit.obj
 0001:00023f74       ?fin$0@?0???$?RV<lambda_7777bce6b2f8c936911f934f8298dc43>@@AEAV<lambda_f03950bc5685219e0bcd2087efbe011e>@@V<lambda_3883c3dff614d5e0c5f61bb1ac94921c>@@@?$__crt_seh_guarded_call@H@@QEAAH$$QEAV<lambda_7777bce6b2f8c936911f934f8298dc43>@@AEAV<lambda_f03950bc5685219e0bcd2087efbe011e>@@$$QEAV<lambda_3883c3dff614d5e0c5f61bb1ac94921c>@@@Z@4HA 0000000180024f74 f   libucrt:onexit.obj
 0001:00023f8e       ?filt$0@?0???R<lambda_6e4b09c48022b2350581041d5f6b0c4c>@@QEBA@XZ@4HA 0000000180024f8e f   libucrt:exit.obj
 0001:00023fbb       _query_new_handler$fin$0   0000000180024fbb f   libucrt:new_handler.obj
 0001:00023fd1       ?fin$0@?0???$?RV<lambda_410d79af7f07d98d83a3f525b3859a53>@@AEAV<lambda_3e16ef9562a7dcce91392c22ab16ea36>@@V<lambda_38119f0e861e05405d8a144b9b982f0a>@@@?$__crt_seh_guarded_call@X@@QEAAX$$QEAV<lambda_410d79af7f07d98d83a3f525b3859a53>@@AEAV<lambda_3e16ef9562a7dcce91392c22ab16ea36>@@$$QEAV<lambda_38119f0e861e05405d8a144b9b982f0a>@@@Z@4HA 0000000180024fd1 f   libucrt:wsetlocale.obj
 0001:00023feb       __acrt_initialize_lowio$fin$0 0000000180024feb f   libucrt:ioinit.obj
 0001:00023feb       __acrt_lowio_ensure_fh_exists$fin$0 0000000180024feb f   libucrt:osfinfo.obj
 0001:00024004       ?fin$0@?0???$?RV<lambda_efdfa57d1f175319df784efa44bb7b81>@@AEAV<lambda_5f0a4c1567f8adc6734073e5d1e1b35c>@@V<lambda_2e8a7d3640ea6ccb4c2413664c2db6fd>@@@?$__crt_seh_guarded_call@X@@QEAAX$$QEAV<lambda_efdfa57d1f175319df784efa44bb7b81>@@AEAV<lambda_5f0a4c1567f8adc6734073e5d1e1b35c>@@$$QEAV<lambda_2e8a7d3640ea6ccb4c2413664c2db6fd>@@@Z@4HA 0000000180025004 f   libucrt:mbctype.obj
 0001:0002401e       ?fin$0@?0??update_thread_multibyte_data_internal@@YAPEAU__crt_multibyte_data@@QEAU__acrt_ptd@@QEAPEAU1@@Z@4HA 000000018002501e f   libucrt:mbctype.obj
 0001:00024037       raise$fin$0                0000000180025037 f   libucrt:signal.obj
 0001:00024058       ?fin$0@?0???$?RV<lambda_842d9ff0dc9ef11c61343bbaebe7f885>@@AEAV<lambda_c5860995281e5c4ce005b3de8f5874ee>@@V<lambda_d90129c13df834fdcbf8d2b88dafcf2d>@@@?$__crt_seh_guarded_call@X@@QEAAX$$QEAV<lambda_842d9ff0dc9ef11c61343bbaebe7f885>@@AEAV<lambda_c5860995281e5c4ce005b3de8f5874ee>@@$$QEAV<lambda_d90129c13df834fdcbf8d2b88dafcf2d>@@@Z@4HA 0000000180025058 f   libucrt:fflush.obj
 0001:00024073       ?fin$0@?0???$?RV<lambda_886d6c58226a84441f68b9f2b8217b83>@@AEAV<lambda_ab61a845afdef5b7c387490eaf3616ee>@@V<lambda_f7f22ab5edc0698d5f6905b0d3f44752>@@@?$__crt_seh_guarded_call@X@@QEAAX$$QEAV<lambda_886d6c58226a84441f68b9f2b8217b83>@@AEAV<lambda_ab61a845afdef5b7c387490eaf3616ee>@@$$QEAV<lambda_f7f22ab5edc0698d5f6905b0d3f44752>@@@Z@4HA 0000000180025073 f   libucrt:fflush.obj
 0001:00024090       __acrt_update_thread_locale_data$fin$0 0000000180025090 f   libucrt:locale_refcounting.obj
 0001:000240a9       _fcloseall$fin$0           00000001800250a9 f   libucrt:closeall.obj
 0001:000240c2       ?fin$0@?0???$?RV<lambda_ad8af0d99a0adf03d037d7dffe354bb5>@@AEAV<lambda_c9ba49e555ba839a7b07aa3fbecb7617>@@V<lambda_2f1ebd5d68526518146ae959c9e734c8>@@@?$__crt_seh_guarded_call@H@@QEAAH$$QEAV<lambda_ad8af0d99a0adf03d037d7dffe354bb5>@@AEAV<lambda_c9ba49e555ba839a7b07aa3fbecb7617>@@$$QEAV<lambda_2f1ebd5d68526518146ae959c9e734c8>@@@Z@4HA 00000001800250c2 f   libucrt:close.obj
 0001:000240c2       ?fin$0@?0???$?RV<lambda_a37b2b86f63e897a80ea819b0eb08c01>@@AEAV<lambda_38ce7e780aa69e748d6df282ebc68efe>@@V<lambda_99fb1378e971ab6e7edea83e3a7a83a2>@@@?$__crt_seh_guarded_call@H@@QEAAH$$QEAV<lambda_a37b2b86f63e897a80ea819b0eb08c01>@@AEAV<lambda_38ce7e780aa69e748d6df282ebc68efe>@@$$QEAV<lambda_99fb1378e971ab6e7edea83e3a7a83a2>@@@Z@4HA 00000001800250c2 f   libucrt:commit.obj
 0001:000240dc       _write_internal$fin$0      00000001800250dc f   libucrt:write.obj
 0001:000240f3       ?fin$0@?0??_fclose_internal@@YAHQEAU_iobuf@@AEAV__crt_cached_ptd_host@@@Z@4HA 00000001800250f3 f   libucrt:fclose.obj
 0001:0002410b       _ctrlfp$filt$0             000000018002510b f   libucrt:fpctrl.obj
 0001:0002410b       common_control87$filt$0    000000018002510b f   libucrt:ieee.obj
 0001:00024140       _IsNonwritableInCurrentImage$filt$0 0000000180025140 f   LIBCMT:pesect.obj
 0001:00024160       ??__F_AtlComModule@ATL@@YAXXZ 0000000180025160 f   OposVariant.obj
 0001:0002416c       ??__F_AtlWinModule@ATL@@YAXXZ 000000018002516c f   OposVariant.obj
 0001:000241b0       ??__F_Module@@YAXXZ        00000001800251b0 f   POSKeyboard.obj
 0001:000241cc       ??__F_AtlBaseModule@ATL@@YAXXZ 00000001800251cc f   atls:atlbase.obj
 0002:00000670       ?_AtlBaseModule$initializer$@ATL@@3P6AXXZEA 0000000180026670     atls:atlbase.obj
 0002:00000678       ?_AtlComModule$initializer$@ATL@@3P6AXXZEA 0000000180026678     OposVariant.obj
 0002:00000680       ?_AtlWinModule$initializer$@ATL@@3P6AXXZEA 0000000180026680     OposVariant.obj
 0002:00000688       ?_Module$initializer$@@3P6AXXZEA 0000000180026688     POSKeyboard.obj
 0002:00000690       ??pConnMap$initializer$@?$IConnectionPointContainerImpl@VCOPOSPOSKeyboard@@@ATL@@0P6AXXZEA@@3P6AXXZEA 0000000180026690     POSKeyboard.obj
 0002:000006a8       ?__scrt_initialize_tss_var@@3P6AHXZEA 00000001800266a8     LIBCMT:thread_safe_statics.obj
 0002:00002638       GS_ExceptionPointers       0000000180028638     LIBCMT:gs_report.obj
 0002:00002820       ?ExceptionTemplate@?1??UnwindNestedFrames@__FrameHandler4@@SAXPEA_KPEAUEHExceptionRecord@@PEAU_CONTEXT@@0PEAXPEAUFuncInfo4@FH4@@HHPEAUHandlerType4@6@PEAU_xDISPATCHER_CONTEXT@@E@Z@4U_EXCEPTION_RECORD@@B 0000000180028820     libvcruntime:risctrnsctrl.obj
 0002:000028c0       ?ExceptionTemplate@?1??UnwindNestedFrames@__FrameHandler3@@SAXPEA_KPEAUEHExceptionRecord@@PEAU_CONTEXT@@0PEAXPEBU_s_FuncInfo@@HHPEBU_s_HandlerType@@PEAU_xDISPATCHER_CONTEXT@@E@Z@4U_EXCEPTION_RECORD@@B 00000001800288c0     libvcruntime:risctrnsctrl.obj
 0002:00002990       ?tokenTable@@3QBUStringLiteral@@B 0000000180028990     libvcruntime:undname.obj
 0002:00002aa0       ?nameTable@@3QBUStringLiteral@@B 0000000180028aa0     libvcruntime:undname.obj
 0002:00002fd0       ?rttiTable@@3QBUStringLiteral@@B 0000000180028fd0     libvcruntime:undname.obj
 0002:00003020       ?IndirectionName@@3QBUStringLiteral@@B 0000000180029020     libvcruntime:undname.obj
 0002:00003080       ?PrefixName@@3QBUStringLiteral@@B 0000000180029080     libvcruntime:undname.obj
 0002:00003768       ?module_names@?A0xbc0cc709@@3QBQEB_WB 0000000180029768     libvcruntime:winapi_downlevel.obj
 0002:00003828       ?candidate_modules@?1??try_get_FlsAlloc@@YAP6AKP6AXPEAX@Z@ZXZ@4QBW4module_id@?A0xbc0cc709@@B 0000000180029828     libvcruntime:winapi_downlevel.obj
 0002:00003840       ?candidate_modules@?1??try_get_FlsFree@@YAP6AHK@ZXZ@4QBW4module_id@?A0xbc0cc709@@B 0000000180029840     libvcruntime:winapi_downlevel.obj
 0002:00003850       ?candidate_modules@?1??try_get_FlsGetValue@@YAP6APEAXK@ZXZ@4QBW4module_id@?A0xbc0cc709@@B 0000000180029850     libvcruntime:winapi_downlevel.obj
 0002:00003868       ?candidate_modules@?1??try_get_FlsSetValue@@YAP6AHKPEAX@ZXZ@4QBW4module_id@?A0xbc0cc709@@B 0000000180029868     libvcruntime:winapi_downlevel.obj
 0002:00003880       ?candidate_modules@?1??try_get_InitializeCriticalSectionEx@@YAP6AHPEAU_RTL_CRITICAL_SECTION@@KK@ZXZ@4QBW4module_id@?A0xbc0cc709@@B 0000000180029880     libvcruntime:winapi_downlevel.obj
 0002:000038b0       ?errtable@@3QBUerrentry@?A0x31fdb9ec@@B 00000001800298b0     libucrt:errno.obj
 0002:00003c18       $cppxdata$?try_cor_exit_process@@YAXI@Z 0000000180029c18     libucrt:exit.obj
 0002:00003c40       $cppxdata$?common_exit@@YAXHW4_crt_exit_cleanup_mode@@W4_crt_exit_return_mode@@@Z 0000000180029c40     libucrt:exit.obj
 0002:00003c90       $cppxdata$__dcrt_uninitialize_environments_nolock 0000000180029c90     libucrt:environment_initialization.obj
 0002:00003cb8       $cppxdata$_execute_onexit_table 0000000180029cb8     libucrt:onexit.obj
 0002:00003ce0       __acrt_initializers        0000000180029ce0     libucrt:initialization.obj
 0002:00004460       ?module_names@?A0x391cf84c@@3QBQEB_WB 000000018002a460     libucrt:winapi_thunks.obj
 0002:00004968       ?candidate_modules@?1??try_get_AreFileApisANSI@@YAP6AHXZXZ@4QBW4module_id@?A0x391cf84c@@B 000000018002a968     libucrt:winapi_thunks.obj
 0002:00004980       ?candidate_modules@?1??try_get_InitializeCriticalSectionEx@@YAP6AHPEAU_RTL_CRITICAL_SECTION@@KK@ZXZ@4QBW4module_id@?A0x391cf84c@@B 000000018002a980     libucrt:winapi_thunks.obj
 0002:00004988       ?candidate_modules@?1??try_get_LCMapStringEx@@YAP6AHPEB_WK0HPEA_WHPEAU_nlsversioninfo@@PEAX_J@ZXZ@4QBW4module_id@?A0x391cf84c@@B 000000018002a988     libucrt:winapi_thunks.obj
 0002:000049a0       ?candidate_modules@?1??try_get_LocaleNameToLCID@@YAP6AKPEB_WK@ZXZ@4QBW4module_id@?A0x391cf84c@@B 000000018002a9a0     libucrt:winapi_thunks.obj
 0002:000049bc       ?candidate_modules@?1??try_get_AppPolicyGetProcessTerminationMethod@@YAP6AJPEAXPEAW4AppPolicyProcessTerminationMethod@@@ZXZ@4QBW4module_id@?A0x391cf84c@@B 000000018002a9bc     libucrt:winapi_thunks.obj
 0002:000049e8       ?candidate_modules@?1??try_get_SetThreadStackGuarantee@@YAP6AHPEAK@ZXZ@4QBW4module_id@?A0x391cf84c@@B 000000018002a9e8     libucrt:winapi_thunks.obj
 0002:00004a10       ?strings@?1??fp_format_nan_or_infinity@@YAHW4__acrt_fp_class@@_NPEAD_K1@Z@4QAY03QEBDA 000000018002aa10     libucrt:cvt.obj
 0002:00004ae8       ?_mb_locale_names@@3QBQEB_WB 000000018002aae8     libucrt:mbctype.obj
 0002:00005160       ?LcidToLocaleNameTable@?A0x881e4c05@@3QBULcidToLocaleName@1@B 000000018002b160     libucrt:lcidtoname_downlevel.obj
 0002:00006bb0       ?LocaleNameToIndexTable@?A0x881e4c05@@3QBULocaleNameIndex@1@B 000000018002cbb0     libucrt:lcidtoname_downlevel.obj
 0002:00008e40       $cppxdata$?write_double_translated_ansi_nolock@@YA?AUwrite_result@?A0x17268360@@HQEBDIAEAV__crt_cached_ptd_host@@@Z 000000018002ee40     libucrt:write.obj
 0002:00008e70       __real_ninf                000000018002ee70     libucrt:log10.obj
 0002:00008e80       __real_inf                 000000018002ee80     libucrt:log10.obj
 0002:00008e90       __real_neg_qnan            000000018002ee90     libucrt:log10.obj
 0002:00008ea0       __real_qnanbit             000000018002eea0     libucrt:log10.obj
 0002:00008eb0       __int_1023                 000000018002eeb0     libucrt:log10.obj
 0002:00008ec0       __mask_001                 000000018002eec0     libucrt:log10.obj
 0002:00008ed0       __mask_mant                000000018002eed0     libucrt:log10.obj
 0002:00008ee0       __mask_mant_top8           000000018002eee0     libucrt:log10.obj
 0002:00008ef0       __mask_mant9               000000018002eef0     libucrt:log10.obj
 0002:00008f00       __real_log10_e             000000018002ef00     libucrt:log10.obj
 0002:00008f10       __real_log10_e_lead        000000018002ef10     libucrt:log10.obj
 0002:00008f20       __real_log10_e_tail        000000018002ef20     libucrt:log10.obj
 0002:00008f30       __real_log10_2_lead        000000018002ef30     libucrt:log10.obj
 0002:00008f40       __real_log10_2_tail        000000018002ef40     libucrt:log10.obj
 0002:00008f50       __real_two                 000000018002ef50     libucrt:log10.obj
 0002:00008f60       __real_one                 000000018002ef60     libucrt:log10.obj
 0002:00008f70       __real_half                000000018002ef70     libucrt:log10.obj
 0002:00008f80       __mask_100                 000000018002ef80     libucrt:log10.obj
 0002:00008f90       __real_1_over_512          000000018002ef90     libucrt:log10.obj
 0002:00008fa0       __real_1_over_2            000000018002efa0     libucrt:log10.obj
 0002:00008fb0       __real_1_over_3            000000018002efb0     libucrt:log10.obj
 0002:00008fc0       __real_1_over_4            000000018002efc0     libucrt:log10.obj
 0002:00008fd0       __real_1_over_5            000000018002efd0     libucrt:log10.obj
 0002:00008fe0       __real_1_over_6            000000018002efe0     libucrt:log10.obj
 0002:00008ff0       __real_neg_1023            000000018002eff0     libucrt:log10.obj
 0002:00009000       __mask_2045                000000018002f000     libucrt:log10.obj
 0002:00009010       __real_threshold           000000018002f010     libucrt:log10.obj
 0002:00009020       __real_near_one_lt         000000018002f020     libucrt:log10.obj
 0002:00009030       __real_near_one_gt         000000018002f030     libucrt:log10.obj
 0002:00009040       __real_min_norm            000000018002f040     libucrt:log10.obj
 0002:00009050       __real_notsign             000000018002f050     libucrt:log10.obj
 0002:00009060       __real_ca1                 000000018002f060     libucrt:log10.obj
 0002:00009070       __real_ca2                 000000018002f070     libucrt:log10.obj
 0002:00009080       __real_ca3                 000000018002f080     libucrt:log10.obj
 0002:00009090       __real_ca4                 000000018002f090     libucrt:log10.obj
 0002:000090a0       __mask_lower               000000018002f0a0     libucrt:log10.obj
 0002:000090b0       __flag_x_zero              000000018002f0b0     libucrt:log10.obj
 0002:000090b4       __flag_x_neg               000000018002f0b4     libucrt:log10.obj
 0002:000090b8       __flag_x_nan               000000018002f0b8     libucrt:log10.obj
 0002:0000a910       __real@433fffffffffffff    0000000180030910     libucrt:fpsr.obj
 0002:0000a918       __real@c33fffffffffffff    0000000180030918     libucrt:fpsr.obj
 0002:0000b248       $unwind$?cw_memcpy@@YAHPEA_WPEBDH@Z 0000000180031248     CWString.obj
 0002:0000b248       $unwind$_invalid_parameter_noinfo 0000000180031248     libucrt:invalid_parameter.obj
 0002:0000b248       $unwind$?state_case_size@?$output_processor@_WV?$string_output_adapter@_W@__crt_stdio_output@@V?$format_validation_base@_WV?$string_output_adapter@_W@__crt_stdio_output@@@2@@__crt_stdio_output@@AEAA_NXZ 0000000180031248     libucrt:output.obj
 0002:0000b248       $unwind$_log10_special     0000000180031248     libucrt:log_special.obj
 0002:0000b250       $unwind$?cw_strcpy@@YAHPEA_WPEBD@Z 0000000180031250     CWString.obj
 0002:0000b250       $unwind$??1OposDispParms@@QEAA@XZ 0000000180031250     OposVariant.obj
 0002:0000b250       $unwind$??__E_AtlComModule@ATL@@YAXXZ 0000000180031250     OposVariant.obj
 0002:0000b250       $unwind$??__E_AtlWinModule@ATL@@YAXXZ 0000000180031250     OposVariant.obj
 0002:0000b250       $unwind$??__F_AtlWinModule@ATL@@YAXXZ 0000000180031250     OposVariant.obj
 0002:0000b250       $unwind$?GetLONG@OposVariant@@QEAAJXZ 0000000180031250     OposVariant.obj
 0002:0000b250       $unwind$??__E?pConnMap@?$IConnectionPointContainerImpl@VCOPOSPOSKeyboard@@@ATL@@0PEBU_ATL_CONNMAP_ENTRY@2@EB@@YAXXZ 0000000180031250     POSKeyboard.obj
 0002:0000b250       $unwind$?AddReplacement@CRegObject@ATL@@UEAAJPEB_W0@Z 0000000180031250     POSKeyboard.obj
 0002:0000b250       $unwind$?AtlHresultFromLastError@ATL@@YAJXZ 0000000180031250     POSKeyboard.obj
 0002:0000b250       $unwind$?AtlThrowImpl@ATL@@YAXJ@Z 0000000180031250     POSKeyboard.obj
 0002:0000b250       $unwind$?CreateInstance@CComClassFactory@ATL@@UEAAJPEAUIUnknown@@AEBU_GUID@@PEAPEAX@Z 0000000180031250     POSKeyboard.obj
 0002:0000b250       $unwind$?DefaultReflectionHandler@?$CWindowImplRoot@VCWindow@ATL@@@ATL@@SAHPEAUHWND__@@I_K_JAEA_J@Z 0000000180031250     POSKeyboard.obj
 0002:0000b250       $unwind$?EnumAdvise@?$IOleObjectImpl@VCOPOSPOSKeyboard@@@ATL@@UEAAJPEAPEAUIEnumSTATDATA@@@Z 0000000180031250     POSKeyboard.obj
 0002:0000b250       $unwind$?FireViewChange@CComControlBase@ATL@@QEAAJXZ 0000000180031250     POSKeyboard.obj
 0002:0000b250       $unwind$?GetAdvise@?$IViewObjectExImpl@VCOPOSPOSKeyboard@@@ATL@@UEAAJPEAK0PEAPEAUIAdviseSink@@@Z 0000000180031250     POSKeyboard.obj
 0002:0000b250       $unwind$?LockServer@CComClassFactory@ATL@@UEAAJH@Z 0000000180031250     POSKeyboard.obj
 0002:0000b250       $unwind$?OnDocWindowActivate@?$IOleInPlaceActiveObjectImpl@VCOPOSPOSKeyboard@@@ATL@@UEAAJH@Z 0000000180031250     POSKeyboard.obj
 0002:0000b250       $unwind$?Unadvise@?$IOleObjectImpl@VCOPOSPOSKeyboard@@@ATL@@UEAAJK@Z 0000000180031250     POSKeyboard.obj
 0002:0000b250       $unwind$?_LocCPQueryInterface@?$IConnectionPointImpl@VCOPOSPOSKeyboard@@$1?DIID__IOPOSPOSKeyboardEvents@@3U_GUID@@BVCComDynamicUnkArray@ATL@@@ATL@@UEAAJAEBU_GUID@@PEAPEAX@Z 0000000180031250     POSKeyboard.obj
 0002:0000b250       $unwind$?_LocCPQueryInterface@?$IConnectionPointImpl@VCOPOSPOSKeyboard@@$1?IID_IPropertyNotifySink@@3U_GUID@@BVCComDynamicUnkArray@ATL@@@ATL@@UEAAJAEBU_GUID@@PEAPEAX@Z 0000000180031250     POSKeyboard.obj
 0002:0000b250       $unwind$?FinalConstruct@COPOSPOSKeyboard@@QEAAJXZ 0000000180031250     POSKeyboardImpl.obj
 0002:0000b250       $unwind$?get_ResultCode@COPOSPOSKeyboard@@UEAAJPEAJ@Z 0000000180031250     POSKeyboardImpl.obj
 0002:0000b250       $unwind$?get_State@COPOSPOSKeyboard@@UEAAJPEAJ@Z 0000000180031250     POSKeyboardImpl.obj
 0002:0000b250       $unwind$__dcrt_terminate_console_output 0000000180031250     libucrt:initcon.obj
 0002:0000b250       $unwind$??$uninitialize_environment_internal@D@@YAXAEAPEAPEAD@Z 0000000180031250     libucrt:environment_initialization.obj
 0002:0000b250       $unwind$??$uninitialize_environment_internal@_W@@YAXAEAPEAPEA_W@Z 0000000180031250     libucrt:environment_initialization.obj
 0002:0000b250       $unwind$__acrt_initialize_heap 0000000180031250     libucrt:heap_handle.obj
 0002:0000b250       $unwind$_msize_base        0000000180031250     libucrt:msize.obj
 0002:0000b250       $unwind$?initialize_multibyte@@YAHXZ 0000000180031250     libucrt:multibyte_initializer.obj
 0002:0000b250       $unwind$__acrt_thread_attach 0000000180031250     libucrt:initialization.obj
 0002:0000b250       $unwind$__acrt_thread_detach 0000000180031250     libucrt:initialization.obj
 0002:0000b250       $unwind$__acrt_uninitialize 0000000180031250     libucrt:initialization.obj
 0002:0000b250       $unwind$__acrt_uninitialize_critical 0000000180031250     libucrt:initialization.obj
 0002:0000b250       $unwind$initialize_c       0000000180031250     libucrt:initialization.obj
 0002:0000b250       $unwind$uninitialize_allocated_io_buffers 0000000180031250     libucrt:initialization.obj
 0002:0000b250       $unwind$uninitialize_environment 0000000180031250     libucrt:initialization.obj
 0002:0000b250       $unwind$__acrt_initialize_ptd 0000000180031250     libucrt:per_thread_data.obj
 0002:0000b250       $unwind$__acrt_uninitialize_ptd 0000000180031250     libucrt:per_thread_data.obj
 0002:0000b250       $unwind$__acrt_AreFileApisANSI 0000000180031250     libucrt:winapi_thunks.obj
 0002:0000b250       $unwind$__acrt_release_locale_ref 0000000180031250     libucrt:locale_refcounting.obj
 0002:0000b250       $unwind$_isatty            0000000180031250     libucrt:isatty.obj
 0002:0000b250       $unwind$_get_osfhandle     0000000180031250     libucrt:osfinfo.obj
 0002:0000b250       $unwind$__acrt_initialize_multibyte 0000000180031250     libucrt:mbctype.obj
 0002:0000b250       $unwind$__acrt_update_thread_multibyte_data 0000000180031250     libucrt:mbctype.obj
 0002:0000b250       $unwind$__doserrno         0000000180031250     libucrt:errno.obj
 0002:0000b250       $unwind$_errno             0000000180031250     libucrt:errno.obj
 0002:0000b250       $unwind$_invoke_watson     0000000180031250     libucrt:invalid_parameter.obj
 0002:0000b250       $unwind$abort              0000000180031250     libucrt:abort.obj
 0002:0000b250       $unwind$__acrt_initialize_command_line 0000000180031250     libucrt:argv_data.obj
 0002:0000b250       $unwind$?should_call_terminate_process@@YA_NXZ 0000000180031250     libucrt:exit.obj
 0002:0000b250       $unwind$_fileno            0000000180031250     libucrt:fileno.obj
 0002:0000b250       $unwind$_statfp            0000000180031250     libucrt:fpctrl.obj
 0002:0000b250       $unwind$fegetround         0000000180031250     libucrt:fegetround.obj
 0002:0000b250       $unwind$_set_errno_from_matherr 0000000180031250     libucrt:fpexcept.obj
 0002:0000b250       $unwind$??__E_AtlBaseModule@ATL@@YAXXZ 0000000180031250     atls:atlbase.obj
 0002:0000b250       $unwind$__scrt_initialize_default_local_stdio_options 0000000180031250     LIBCMT:default_local_stdio_options.obj
 0002:0000b250       $unwind$?dllmain_crt_dispatch@@YAHQEAUHINSTANCE__@@KQEAX@Z 0000000180031250     LIBCMT:dll_dllmain.obj
 0002:0000b250       $unwind$__report_rangecheckfailure 0000000180031250     LIBCMT:gs_report.obj
 0002:0000b250       $unwind$__GSHandlerCheck   0000000180031250     LIBCMT:gshandler.obj
 0002:0000b250       $unwind$?__scrt_uninitialize_thread_safe_statics@@YAXXZ 0000000180031250     LIBCMT:thread_safe_statics.obj
 0002:0000b250       $unwind$_Init_thread_notify 0000000180031250     LIBCMT:thread_safe_statics.obj
 0002:0000b250       $unwind$__scrt_acquire_startup_lock 0000000180031250     LIBCMT:utility.obj
 0002:0000b250       $unwind$__scrt_dllmain_after_initialize_c 0000000180031250     LIBCMT:utility.obj
 0002:0000b250       $unwind$__scrt_dllmain_before_initialize_c 0000000180031250     LIBCMT:utility.obj
 0002:0000b250       $unwind$__scrt_dllmain_crt_thread_attach 0000000180031250     LIBCMT:utility.obj
 0002:0000b250       $unwind$__scrt_dllmain_crt_thread_detach 0000000180031250     LIBCMT:utility.obj
 0002:0000b250       $unwind$__scrt_dllmain_uninitialize_c 0000000180031250     LIBCMT:utility.obj
 0002:0000b250       $unwind$__scrt_dllmain_uninitialize_critical 0000000180031250     LIBCMT:utility.obj
 0002:0000b250       $unwind$atexit             0000000180031250     LIBCMT:utility.obj
 0002:0000b250       $unwind$__std_terminate    0000000180031250     libvcruntime:ehhelpers.obj
 0002:0000b250       $unwind$?GetCurrentState@__FrameHandler3@@SAHPEA_KPEAU_xDISPATCHER_CONTEXT@@PEBU_s_FuncInfo@@@Z 0000000180031250     libvcruntime:ehstate.obj
 0002:0000b250       $unwind$__vcrt_initialize  0000000180031250     libvcruntime:initialization.obj
 0002:0000b250       $unwind$__vcrt_thread_attach 0000000180031250     libvcruntime:initialization.obj
 0002:0000b250       $unwind$__vcrt_thread_detach 0000000180031250     libvcruntime:initialization.obj
 0002:0000b250       $unwind$__vcrt_uninitialize 0000000180031250     libvcruntime:initialization.obj
 0002:0000b250       $unwind$__vcrt_uninitialize_critical 0000000180031250     libvcruntime:initialization.obj
 0002:0000b250       $unwind$__vcrt_freefls     0000000180031250     libvcruntime:per_thread_data.obj
 0002:0000b250       $unwind$__vcrt_getptd      0000000180031250     libvcruntime:per_thread_data.obj
 0002:0000b250       $unwind$__vcrt_initialize_ptd 0000000180031250     libvcruntime:per_thread_data.obj
 0002:0000b250       $unwind$__vcrt_uninitialize_ptd 0000000180031250     libvcruntime:per_thread_data.obj
 0002:0000b250       $unwind$_purecall          0000000180031250     libvcruntime:purevirt.obj
 0002:0000b250       $unwind$?FrameUnwindToEmptyState@__FrameHandler4@@SAXPEA_KPEAU_xDISPATCHER_CONTEXT@@PEAUFuncInfo4@FH4@@@Z 0000000180031250     libvcruntime:risctrnsctrl.obj
 0002:0000b250       $unwind$_GetImageBase      0000000180031250     libvcruntime:risctrnsctrl.obj
 0002:0000b250       $unwind$_GetThrowImageBase 0000000180031250     libvcruntime:risctrnsctrl.obj
 0002:0000b258       $unwind$?cw_dup@@YAXPEBDAEAHAEAPEA_W1@Z 0000000180031258     CWString.obj
 0002:0000b258       $unwind$?DAdvise@?$IDataObjectImpl@VCOPOSPOSKeyboard@@@ATL@@UEAAJPEAUtagFORMATETC@@KPEAUIAdviseSink@@PEAK@Z 0000000180031258     POSKeyboard.obj
 0002:0000b258       $unwind$??$create_environment@D@@YAQEAPEADQEAD@Z 0000000180031258     libucrt:environment_initialization.obj
 0002:0000b258       $unwind$_mbtowc_internal   0000000180031258     libucrt:mbtowc.obj
 0002:0000b258       $unwind$??$__acrt_convert_wcs_mbs_cp@D_WV<lambda_7c9dea7b4ca7285d2cdb541a38da6275>@@U__crt_win32_buffer_internal_dynamic_resizing@@@@YAHQEBDAEAV?$__crt_win32_buffer@_WU__crt_win32_buffer_internal_dynamic_resizing@@@@AEBV<lambda_7c9dea7b4ca7285d2cdb541a38da6275>@@I@Z 0000000180031258     libucrt:argv_wildcards.obj
 0002:0000b258       $unwind$?process@?$output_processor@_WV?$string_output_adapter@_W@__crt_stdio_output@@V?$format_validation_base@_WV?$string_output_adapter@_W@__crt_stdio_output@@@2@@__crt_stdio_output@@QEAAHXZ 0000000180031258     libucrt:output.obj
 0002:0000b270       $unwind$?DupWide@_CW@@AEAAXXZ 0000000180031270     CWString.obj
 0002:0000b270       $unwind$??0CAtlComModule@ATL@@QEAA@XZ 0000000180031270     OposVariant.obj
 0002:0000b270       $unwind$??0CAtlWinModule@ATL@@QEAA@XZ 0000000180031270     OposVariant.obj
 0002:0000b270       $unwind$??0?$CComObject@VCOPOSPOSKeyboard@@@ATL@@QEAA@PEAX@Z 0000000180031270     POSKeyboard.obj
 0002:0000b270       $unwind$??0CAtlModule@ATL@@QEAA@XZ 0000000180031270     POSKeyboard.obj
 0002:0000b270       $unwind$??1?$CComObject@VCOPOSPOSKeyboard@@@ATL@@UEAA@XZ 0000000180031270     POSKeyboard.obj
 0002:0000b270       $unwind$??__E_Module@@YAXXZ 0000000180031270     POSKeyboard.obj
 0002:0000b270       $unwind$?AddRef@?$CComObjectCached@VCComClassFactory@ATL@@@ATL@@UEAAKXZ 0000000180031270     POSKeyboard.obj
 0002:0000b270       $unwind$?AllocateHeap@?$CTempBuffer@E$0BAA@VCCRTAllocator@ATL@@@ATL@@AEAAX_K@Z 0000000180031270     POSKeyboard.obj
 0002:0000b270       $unwind$?AllocateHeap@?$CTempBuffer@_W$0BAA@VCCRTAllocator@ATL@@@ATL@@AEAAX_K@Z 0000000180031270     POSKeyboard.obj
 0002:0000b270       $unwind$?AllocateHeap@?$CTempBuffer@_W$0EAA@VCCRTAllocator@ATL@@@ATL@@AEAAX_K@Z 0000000180031270     POSKeyboard.obj
 0002:0000b270       $unwind$?GetClassInfoW@?$IProvideClassInfo2Impl@$1?CLSID_OPOSPOSKeyboard@@3U_GUID@@B$1?DIID__IOPOSPOSKeyboardEvents@@3U2@B$1?LIBID_OposPOSKeyboard_CCO@@3U2@B$00$0A@VCComTypeInfoHolder@ATL@@@ATL@@UEAAJPEAPEAUITypeInfo@@@Z 0000000180031270     POSKeyboard.obj
 0002:0000b270       $unwind$?GetClientSite@?$IOleObjectImpl@VCOPOSPOSKeyboard@@@ATL@@UEAAJPEAPEAUIOleClientSite@@@Z 0000000180031270     POSKeyboard.obj
 0002:0000b270       $unwind$?GetConnMap@COPOSPOSKeyboard@@SAPEBU_ATL_CONNMAP_ENTRY@ATL@@PEAH@Z 0000000180031270     POSKeyboard.obj
 0002:0000b270       $unwind$?GetTypeInfo@?$IDispatchImpl@UIOPOSPOSKeyboard@@$1?IID_IOPOSPOSKeyboard@@3U_GUID@@B$1?LIBID_OposPOSKeyboard_CCO@@3U3@B$00$0A@VCComTypeInfoHolder@ATL@@@ATL@@UEAAJIKPEAPEAUITypeInfo@@@Z 0000000180031270     POSKeyboard.obj
 0002:0000b270       $unwind$?IOleInPlaceObject_InPlaceDeactivate@CComControlBase@ATL@@QEAAJXZ 0000000180031270     POSKeyboard.obj
 0002:0000b270       $unwind$?IOleObject_SetExtent@CComControlBase@ATL@@QEAAJKPEAUtagSIZE@@@Z 0000000180031270     POSKeyboard.obj
 0002:0000b270       $unwind$?IsEqualObject@?$CComPtrBase@UIOleClientSite@@@ATL@@QEAA_NPEAUIUnknown@@@Z 0000000180031270     POSKeyboard.obj
 0002:0000b270       $unwind$?QueryHitPoint@?$IViewObjectExImpl@VCOPOSPOSKeyboard@@@ATL@@UEAAJKPEBUtagRECT@@UtagPOINT@@JPEAK@Z 0000000180031270     POSKeyboard.obj
 0002:0000b270       $unwind$?QueryInterface@?$CComAggObject@VCOPOSPOSKeyboard@@@ATL@@UEAAJAEBU_GUID@@PEAPEAX@Z 0000000180031270     POSKeyboard.obj
 0002:0000b270       $unwind$?Release@?$CComObjectCached@VCComClassFactory@ATL@@@ATL@@UEAAKXZ 0000000180031270     POSKeyboard.obj
 0002:0000b270       $unwind$?Unadvise@?$IConnectionPointImpl@VCOPOSPOSKeyboard@@$1?DIID__IOPOSPOSKeyboardEvents@@3U_GUID@@BVCComDynamicUnkArray@ATL@@@ATL@@UEAAJK@Z 0000000180031270     POSKeyboard.obj
 0002:0000b270       $unwind$?Unadvise@?$IConnectionPointImpl@VCOPOSPOSKeyboard@@$1?IID_IPropertyNotifySink@@3U_GUID@@BVCComDynamicUnkArray@ATL@@@ATL@@UEAAJK@Z 0000000180031270     POSKeyboard.obj
 0002:0000b270       $unwind$??1CComControlBase@ATL@@UEAA@XZ 0000000180031270     POSKeyboardImpl.obj
 0002:0000b270       $unwind$??1COPOSPOSKeyboard@@UEAA@XZ 0000000180031270     POSKeyboardImpl.obj
 0002:0000b270       $unwind$?EventUninit@COPOSPOSKeyboard@@IEAAXXZ 0000000180031270     POSKeyboardImpl.obj
 0002:0000b270       $unwind$?FreezeEvents@COPOSPOSKeyboard@@MEAAJH@Z 0000000180031270     POSKeyboardImpl.obj
 0002:0000b270       $unwind$?SOProcessID@COPOSPOSKeyboard@@UEAAJPEAJ@Z 0000000180031270     POSKeyboardImpl.obj
 0002:0000b270       $unwind$?get_AutoDisable@COPOSPOSKeyboard@@UEAAJPEAF@Z 0000000180031270     POSKeyboardImpl.obj
 0002:0000b270       $unwind$?get_CapCompareFirmwareVersion@COPOSPOSKeyboard@@UEAAJPEAF@Z 0000000180031270     POSKeyboardImpl.obj
 0002:0000b270       $unwind$?get_CapKeyUp@COPOSPOSKeyboard@@UEAAJPEAF@Z 0000000180031270     POSKeyboardImpl.obj
 0002:0000b270       $unwind$?get_CapStatisticsReporting@COPOSPOSKeyboard@@UEAAJPEAF@Z 0000000180031270     POSKeyboardImpl.obj
 0002:0000b270       $unwind$?get_CapUpdateFirmware@COPOSPOSKeyboard@@UEAAJPEAF@Z 0000000180031270     POSKeyboardImpl.obj
 0002:0000b270       $unwind$?get_CapUpdateStatistics@COPOSPOSKeyboard@@UEAAJPEAF@Z 0000000180031270     POSKeyboardImpl.obj
 0002:0000b270       $unwind$?get_Claimed@COPOSPOSKeyboard@@UEAAJPEAF@Z 0000000180031270     POSKeyboardImpl.obj
 0002:0000b270       $unwind$?get_DataEventEnabled@COPOSPOSKeyboard@@UEAAJPEAF@Z 0000000180031270     POSKeyboardImpl.obj
 0002:0000b270       $unwind$?get_DeviceEnabled@COPOSPOSKeyboard@@UEAAJPEAF@Z 0000000180031270     POSKeyboardImpl.obj
 0002:0000b270       $unwind$?get_FreezeEvents@COPOSPOSKeyboard@@UEAAJPEAF@Z 0000000180031270     POSKeyboardImpl.obj
 0002:0000b270       $unwind$?put_FreezeEvents@COPOSPOSKeyboard@@UEAAJF@Z 0000000180031270     POSKeyboardImpl.obj
 0002:0000b270       $unwind$_calloc_base       0000000180031270     libucrt:calloc_base.obj
 0002:0000b270       $unwind$_malloc_base       0000000180031270     libucrt:malloc_base.obj
 0002:0000b270       $unwind$_callnewh          0000000180031270     libucrt:new_handler.obj
 0002:0000b270       $unwind$initialize_pointers 0000000180031270     libucrt:initialization.obj
 0002:0000b270       $unwind$uninitialize_allocated_memory 0000000180031270     libucrt:initialization.obj
 0002:0000b270       $unwind$__acrt_initialize_locks 0000000180031270     libucrt:locks.obj
 0002:0000b270       $unwind$__acrt_uninitialize_locks 0000000180031270     libucrt:locks.obj
 0002:0000b270       $unwind$__acrt_freeptd     0000000180031270     libucrt:per_thread_data.obj
 0002:0000b270       $unwind$__acrt_getptd_head 0000000180031270     libucrt:per_thread_data.obj
 0002:0000b270       $unwind$__acrt_get_process_end_policy 0000000180031270     libucrt:win_policies.obj
 0002:0000b270       $unwind$__acrt_AppPolicyGetProcessTerminationMethodInternal 0000000180031270     libucrt:winapi_thunks.obj
 0002:0000b270       $unwind$__acrt_SetThreadStackGuarantee 0000000180031270     libucrt:winapi_thunks.obj
 0002:0000b270       $unwind$__acrt_uninitialize_winapi_thunks 0000000180031270     libucrt:winapi_thunks.obj
 0002:0000b270       $unwind$__acrt_update_locale_info 0000000180031270     libucrt:locale_update.obj
 0002:0000b270       $unwind$__acrt_update_locale_info_explicit 0000000180031270     libucrt:locale_update.obj
 0002:0000b270       $unwind$__acrt_update_multibyte_info 0000000180031270     libucrt:locale_update.obj
 0002:0000b270       $unwind$__acrt_update_multibyte_info_explicit 0000000180031270     libucrt:locale_update.obj
 0002:0000b270       $unwind$__acrt_errno_map_os_error 0000000180031270     libucrt:errno.obj
 0002:0000b270       $unwind$__acrt_errno_map_os_error_ptd 0000000180031270     libucrt:errno.obj
 0002:0000b270       $unwind$__acrt_allocate_buffer_for_argv 0000000180031270     libucrt:argv_parsing.obj
 0002:0000b270       $unwind$?exit_or_terminate_process@@YAXI@Z 0000000180031270     libucrt:exit.obj
 0002:0000b270       $unwind$__acrt_uninitialize_stdio 0000000180031270     libucrt:_file.obj
 0002:0000b270       $unwind$__acrt_stdio_free_buffer_nolock 0000000180031270     libucrt:_freebuf.obj
 0002:0000b270       $unwind$strcpy_s           0000000180031270     libucrt:strcpy_s.obj
 0002:0000b270       $unwind$wcscat_s           0000000180031270     libucrt:wcscat_s.obj
 0002:0000b270       $unwind$wcscpy_s           0000000180031270     libucrt:wcscpy_s.obj
 0002:0000b270       $unwind$_clrfp             0000000180031270     libucrt:fpctrl.obj
 0002:0000b270       $unwind$_set_statfp        0000000180031270     libucrt:fpctrl.obj
 0002:0000b270       $unwind$_clearfp           0000000180031270     libucrt:ieee.obj
 0002:0000b270       $unwind$_controlfp_s       0000000180031270     libucrt:contrlfp.obj
 0002:0000b270       $unwind$fegetenv           0000000180031270     libucrt:fegetenv.obj
 0002:0000b270       $unwind$feholdexcept       0000000180031270     libucrt:feholdexcept.obj
 0002:0000b270       $unwind$fesetenv           0000000180031270     libucrt:fesetenv.obj
 0002:0000b270       $unwind$??1CAtlBaseModule@ATL@@QEAA@XZ 0000000180031270     atls:atlbase.obj
 0002:0000b270       $unwind$AtlThunk_AllocateData 0000000180031270     atls:atlthunk.obj
 0002:0000b270       $unwind$__raise_securityfailure 0000000180031270     LIBCMT:gs_report.obj
 0002:0000b270       $unwind$??2@YAPEAX_K@Z     0000000180031270     LIBCMT:new_scalar.obj
 0002:0000b270       $unwind$??_Gtype_info@@UEAAPEAXI@Z 0000000180031270     LIBCMT:std_type_info_static.obj
 0002:0000b270       $unwind$_Init_thread_footer 0000000180031270     LIBCMT:thread_safe_statics.obj
 0002:0000b270       $unwind$_Init_thread_header 0000000180031270     LIBCMT:thread_safe_statics.obj
 0002:0000b270       $unwind$_Init_thread_wait  0000000180031270     LIBCMT:thread_safe_statics.obj
 0002:0000b270       $unwind$??0bad_alloc@std@@QEAA@AEBV01@@Z 0000000180031270     LIBCMT:throw_bad_alloc.obj
 0002:0000b270       $unwind$??0bad_array_new_length@std@@QEAA@AEBV01@@Z 0000000180031270     LIBCMT:throw_bad_alloc.obj
 0002:0000b270       $unwind$??0exception@std@@QEAA@AEBV01@@Z 0000000180031270     LIBCMT:throw_bad_alloc.obj
 0002:0000b270       $unwind$__scrt_initialize_crt 0000000180031270     LIBCMT:utility.obj
 0002:0000b270       $unwind$__scrt_initialize_onexit_tables 0000000180031270     LIBCMT:utility.obj
 0002:0000b270       $unwind$__scrt_release_startup_lock 0000000180031270     LIBCMT:utility.obj
 0002:0000b270       $unwind$__scrt_uninitialize_crt 0000000180031270     LIBCMT:utility.obj
 0002:0000b270       $unwind$_onexit            0000000180031270     LIBCMT:utility.obj
 0002:0000b270       $unwind$_IsExceptionObjectToBeDestroyed 0000000180031270     libvcruntime:ehhelpers.obj
 0002:0000b270       $unwind$?GetUnwindTryBlock@__FrameHandler3@@SAHPEA_KPEAU_xDISPATCHER_CONTEXT@@PEBU_s_FuncInfo@@@Z 0000000180031270     libvcruntime:ehstate.obj
 0002:0000b270       $unwind$?StateFromIp@__FrameHandler3@@SAHPEBU_s_FuncInfo@@PEAU_xDISPATCHER_CONTEXT@@_K@Z 0000000180031270     libvcruntime:ehstate.obj
 0002:0000b270       $unwind$??0HandlerMap4@FH4@@QEAA@PEBUTryBlockMapEntry4@1@_KH@Z 0000000180031270     libvcruntime:frame.obj
 0002:0000b270       $unwind$??0bad_exception@std@@QEAA@AEBV01@@Z 0000000180031270     libvcruntime:frame.obj
 0002:0000b270       $unwind$__vcrt_initialize_locks 0000000180031270     libvcruntime:locks.obj
 0002:0000b270       $unwind$__vcrt_uninitialize_locks 0000000180031270     libvcruntime:locks.obj
 0002:0000b270       $unwind$__vcrt_freeptd     0000000180031270     libvcruntime:per_thread_data.obj
 0002:0000b270       $unwind$?ExecutionInCatch@__FrameHandler3@@SA_NPEAU_xDISPATCHER_CONTEXT@@PEBU_s_FuncInfo@@@Z 0000000180031270     libvcruntime:risctrnsctrl.obj
 0002:0000b270       $unwind$_CreateFrameInfo   0000000180031270     libvcruntime:risctrnsctrl.obj
 0002:0000b270       $unwind$_SetImageBase      0000000180031270     libvcruntime:risctrnsctrl.obj
 0002:0000b270       $unwind$_SetThrowImageBase 0000000180031270     libvcruntime:risctrnsctrl.obj
 0002:0000b270       $unwind$__std_exception_destroy 0000000180031270     libvcruntime:std_exception.obj
 0002:0000b270       $unwind$__std_type_info_destroy_list 0000000180031270     libvcruntime:std_type_info.obj
 0002:0000b270       $unwind$__vcrt_FlsAlloc    0000000180031270     libvcruntime:winapi_downlevel.obj
 0002:0000b270       $unwind$__vcrt_FlsFree     0000000180031270     libvcruntime:winapi_downlevel.obj
 0002:0000b270       $unwind$__vcrt_FlsGetValue 0000000180031270     libvcruntime:winapi_downlevel.obj
 0002:0000b278       $unwind$?AtlWinModuleTerm@ATL@@YAJPEAU_ATL_WIN_MODULE70@1@PEAUHINSTANCE__@@@Z 0000000180031278     OposVariant.obj
 0002:0000b278       $unwind$?AtlWinModuleExtractCreateWndData@ATL@@YAPEAXPEAU_ATL_WIN_MODULE70@1@@Z 0000000180031278     POSKeyboard.obj
 0002:0000b278       $unwind$?CreateInstance@?$CComCreator@V?$CComObject@VCOPOSPOSKeyboard@@@ATL@@@ATL@@SAJPEAXAEBU_GUID@@PEAPEAX@Z 0000000180031278     POSKeyboard.obj
 0002:0000b278       $unwind$?DoEvent@COPOSPOSKeyboard@@IEAAXI_K_J@Z 0000000180031278     POSKeyboard.obj
 0002:0000b278       $unwind$?DoVerb@?$IOleObjectImpl@VCOPOSPOSKeyboard@@@ATL@@UEAAJJPEAUtagMSG@@PEAUIOleClientSite@@JPEAUHWND__@@PEBUtagRECT@@@Z 0000000180031278     POSKeyboard.obj
 0002:0000b278       $unwind$?HKeyFromString@CRegParser@ATL@@KAPEAUHKEY__@@PEA_W@Z 0000000180031278     POSKeyboard.obj
 0002:0000b278       $unwind$?Next@?$CComEnumImpl@UIEnumConnectionPoints@@$1?_GUID_b196b285_bab4_101a_b69c_00aa00341d07@@3U__s_GUID@@BPEAUIConnectionPoint@@V?$_CopyInterface@UIConnectionPoint@@@ATL@@@ATL@@UEAAJKPEAPEAUIConnectionPoint@@PEAK@Z 0000000180031278     POSKeyboard.obj
 0002:0000b278       $unwind$?Next@?$CComEnumImpl@UIEnumConnections@@$1?_GUID_b196b287_bab4_101a_b69c_00aa00341d07@@3U__s_GUID@@BUtagCONNECTDATA@@V?$_Copy@UtagCONNECTDATA@@@ATL@@@ATL@@UEAAJKPEAUtagCONNECTDATA@@PEAK@Z 0000000180031278     POSKeyboard.obj
 0002:0000b278       $unwind$?SODirectIO@COPOSPOSKeyboard@@MEAAJJPEAJPEAPEA_W@Z 0000000180031278     POSKeyboard.obj
 0002:0000b278       $unwind$?SetControlFocus@CComControlBase@ATL@@QEAAHH@Z 0000000180031278     POSKeyboard.obj
 0002:0000b278       $unwind$?ocscpy_s@@YA_NPEA_W_KPEB_W@Z 0000000180031278     POSKeyboard.obj
 0002:0000b278       $unwind$?s_EventWindowProc@COPOSPOSKeyboard@@KA_JPEAUHWND__@@I_K_J@Z 0000000180031278     POSKeyboardImpl.obj
 0002:0000b278       $unwind$_recalloc_base     0000000180031278     libucrt:recalloc.obj
 0002:0000b278       $unwind$__acrt_free_locale 0000000180031278     libucrt:locale_refcounting.obj
 0002:0000b278       $unwind$__acrt_lowio_create_handle_array 0000000180031278     libucrt:osfinfo.obj
 0002:0000b278       $unwind$_seh_filter_exe    0000000180031278     libucrt:exception_filter.obj
 0002:0000b278       $unwind$__acrt_stdio_flush_nolock 0000000180031278     libucrt:fflush.obj
 0002:0000b278       $unwind$??$ensure_buffer_is_big_enough@D@formatting_buffer@__crt_stdio_output@@QEAA_N_KAEAV__crt_cached_ptd_host@@@Z 0000000180031278     libucrt:output.obj
 0002:0000b278       $unwind$??$ensure_buffer_is_big_enough@_W@formatting_buffer@__crt_stdio_output@@QEAA_N_KAEAV__crt_cached_ptd_host@@@Z 0000000180031278     libucrt:output.obj
 0002:0000b278       $unwind$__scrt_dllmain_exception_filter 0000000180031278     LIBCMT:utility.obj
 0002:0000b278       $unwind$?GetHandlerSearchState@__FrameHandler3@@SAHPEA_KPEAU_xDISPATCHER_CONTEXT@@PEBU_s_FuncInfo@@@Z 0000000180031278     libvcruntime:frame.obj
 0002:0000b278       $unwind$?Is_bad_exception_allowed@@YAEPEBU_s_ESTypeList@@@Z 0000000180031278     libvcruntime:frame.obj
 0002:0000b278       $unwind$?CatchTryBlock@__FrameHandler3@@SAPEBU_s_TryBlockMapEntry@@PEBU_s_FuncInfo@@H@Z 0000000180031278     libvcruntime:risctrnsctrl.obj
 0002:0000b28c       $unwind$??0OposDispParms@@QEAA@PEAVOposVariant@@H@Z 000000018003128c     OposVariant.obj
 0002:0000b28c       $unwind$?SetBSTR_Copy@OposVariant@@QEAAXPEA_WAEAJ@Z 000000018003128c     OposVariant.obj
 0002:0000b28c       $unwind$?SetBSTR_InOutPtr@OposVariant@@QEAA_NPEAPEA_WAEAJ@Z 000000018003128c     OposVariant.obj
 0002:0000b28c       $unwind$?SetDispatch_Ptr@OposVariant@@QEAAXPEAUIDispatch@@AEAJ@Z 000000018003128c     OposVariant.obj
 0002:0000b28c       $unwind$?SetLONG_Ptr@OposVariant@@QEAAXPEAJAEAJ@Z 000000018003128c     OposVariant.obj
 0002:0000b28c       $unwind$?SetString@OposVariant@@QEAAXPEB_WAEAJ@Z 000000018003128c     OposVariant.obj
 0002:0000b28c       $unwind$?Term@CAtlComModule@ATL@@QEAAXXZ 000000018003128c     OposVariant.obj
 0002:0000b28c       $unwind$??_GCRegObject@ATL@@UEAAPEAXI@Z 000000018003128c     POSKeyboard.obj
 0002:0000b28c       $unwind$?Add@?$CSimpleArray@GV?$CSimpleArrayEqualHelper@G@ATL@@@ATL@@QEAAHAEBG@Z 000000018003128c     POSKeyboard.obj
 0002:0000b28c       $unwind$?Add@?$CSimpleMap@PEA_WPEA_WVCExpansionVectorEqualHelper@ATL@@@ATL@@QEAAHAEBQEA_W0@Z 000000018003128c     POSKeyboard.obj
 0002:0000b28c       $unwind$?Add@CComDynamicUnkArray@ATL@@QEAAKPEAUIUnknown@@@Z 000000018003128c     POSKeyboard.obj
 0002:0000b28c       $unwind$?Advise@?$IOleObjectImpl@VCOPOSPOSKeyboard@@@ATL@@UEAAJPEAUIAdviseSink@@PEAK@Z 000000018003128c     POSKeyboard.obj
 0002:0000b28c       $unwind$?ClearReplacements@CExpansionVector@ATL@@QEAAJXZ 000000018003128c     POSKeyboard.obj
 0002:0000b28c       $unwind$?CreateInstance@?$CComObject@V?$CComEnum@UIEnumConnectionPoints@@$1?_GUID_b196b285_bab4_101a_b69c_00aa00341d07@@3U__s_GUID@@BPEAUIConnectionPoint@@V?$_CopyInterface@UIConnectionPoint@@@ATL@@VCComSingleThreadModel@6@@ATL@@@ATL@@SAJPEAPEAV12@@Z 000000018003128c     POSKeyboard.obj
 0002:0000b28c       $unwind$?CreateInstance@?$CComObject@V?$CComEnum@UIEnumConnections@@$1?_GUID_b196b287_bab4_101a_b69c_00aa00341d07@@3U__s_GUID@@BUtagCONNECTDATA@@V?$_Copy@UtagCONNECTDATA@@@ATL@@VCComSingleThreadModel@6@@ATL@@@ATL@@SAJPEAPEAV12@@Z 000000018003128c     POSKeyboard.obj
 0002:0000b28c       $unwind$?RegisterServer@CComModule@ATL@@QEAAJHPEBU_GUID@@@Z 000000018003128c     POSKeyboard.obj
 0002:0000b28c       $unwind$?UnregisterServer@CComModule@ATL@@QEAAJHPEBU_GUID@@@Z 000000018003128c     POSKeyboard.obj
 0002:0000b28c       $unwind$?VTFromRegType@CRegParser@ATL@@KAHPEB_WAEAG@Z 000000018003128c     POSKeyboard.obj
 0002:0000b28c       $unwind$memcpy_s           000000018003128c     libucrt:cfout.obj
 0002:0000b28c       $unwind$__acrt_getptd      000000018003128c     libucrt:per_thread_data.obj
 0002:0000b28c       $unwind$__acrt_getptd_noexit 000000018003128c     libucrt:per_thread_data.obj
 0002:0000b28c       $unwind$__acrt_getptd_noexit_explicit 000000018003128c     libucrt:per_thread_data.obj
 0002:0000b28c       $unwind$__acrt_execute_initializers 000000018003128c     libucrt:shared_initialization.obj
 0002:0000b28c       $unwind$__acrt_InitializeCriticalSectionEx 000000018003128c     libucrt:winapi_thunks.obj
 0002:0000b28c       $unwind$_close_nolock_internal 000000018003128c     libucrt:close.obj
 0002:0000b28c       $unwind$?value@?$dual_state_global@P6AXPEB_W00I_K@Z@__crt_state_management@@QEAAAEAP6AXPEB_W00I_K@ZAEAV__crt_cached_ptd_host@@@Z 000000018003128c     libucrt:invalid_parameter.obj
 0002:0000b28c       $unwind$??0_LocaleUpdate@@QEAA@QEAU__crt_locale_pointers@@@Z 000000018003128c     libucrt:argv_wildcards.obj
 0002:0000b28c       $unwind$?type_case_Z@?$output_processor@_WV?$string_output_adapter@_W@__crt_stdio_output@@V?$format_validation_base@_WV?$string_output_adapter@_W@__crt_stdio_output@@@2@@__crt_stdio_output@@AEAA_NXZ 000000018003128c     libucrt:output.obj
 0002:0000b28c       $unwind$?type_case_s@?$output_processor@_WV?$string_output_adapter@_W@__crt_stdio_output@@V?$format_validation_base@_WV?$string_output_adapter@_W@__crt_stdio_output@@@2@@__crt_stdio_output@@AEAA_NXZ 000000018003128c     libucrt:output.obj
 0002:0000b28c       $unwind$?type_case_s_compute_narrow_string_length@?$output_processor@_WV?$string_output_adapter@_W@__crt_stdio_output@@V?$format_validation_base@_WV?$string_output_adapter@_W@__crt_stdio_output@@@2@@__crt_stdio_output@@AEAAHH_W@Z 000000018003128c     libucrt:output.obj
 0002:0000b28c       $unwind$?update_locale_slow@__crt_cached_ptd_host@@AEAAXXZ 000000018003128c     libucrt:output.obj
 0002:0000b28c       $unwind$strncpy_s          000000018003128c     libucrt:strncpy_s.obj
 0002:0000b28c       $unwind$wcsncpy_s          000000018003128c     libucrt:wcsncpy_s.obj
 0002:0000b28c       $unwind$_exception_enabled 000000018003128c     libucrt:libm_error.obj
 0002:0000b28c       $unwind$_DllMainCRTStartup 000000018003128c     LIBCMT:dll_dllmain.obj
 0002:0000b28c       $unwind$__vcrt_getptd_noexit 000000018003128c     libvcruntime:per_thread_data.obj
 0002:0000b28c       $unwind$?FrameUnwindToEmptyState@__FrameHandler3@@SAXPEA_KPEAU_xDISPATCHER_CONTEXT@@PEBU_s_FuncInfo@@@Z 000000018003128c     libvcruntime:risctrnsctrl.obj
 0002:0000b28c       $unwind$__vcrt_InitializeCriticalSectionEx 000000018003128c     libvcruntime:winapi_downlevel.obj
 0002:0000b29c       $unwind$??_Estringdispid@CComTypeInfoHolder@ATL@@QEAAPEAXI@Z 000000018003129c     OposVariant.obj
 0002:0000b29c       $unwind$?AddTermFunc@CAtlModule@ATL@@QEAAJP6AX_K@Z0@Z 000000018003129c     POSKeyboard.obj
 0002:0000b29c       $unwind$?AtlComModuleRegisterServer@ATL@@YAJPEAU_ATL_COM_MODULE70@1@HPEBU_GUID@@@Z 000000018003129c     POSKeyboard.obj
 0002:0000b29c       $unwind$?AtlComModuleUnregisterServer@ATL@@YAJPEAU_ATL_COM_MODULE70@1@HPEBU_GUID@@@Z 000000018003129c     POSKeyboard.obj
 0002:0000b29c       $unwind$?CreateInstance@?$CComCreator@V?$CComAggObject@VCOPOSPOSKeyboard@@@ATL@@@ATL@@SAJPEAXAEBU_GUID@@PEAPEAX@Z 000000018003129c     POSKeyboard.obj
 0002:0000b29c       $unwind$?CreateInstance@?$CComCreator@V?$CComObjectCached@VCComClassFactory@ATL@@@ATL@@@ATL@@SAJPEAXAEBU_GUID@@PEAPEAX@Z 000000018003129c     POSKeyboard.obj
 0002:0000b29c       $unwind$?GetPagesHelper@?$ISpecifyPropertyPagesImpl@VCOPOSPOSKeyboard@@@ATL@@IEAAJPEAUtagCAUUID@@PEBUATL_PROPMAP_ENTRY@2@@Z 000000018003129c     POSKeyboard.obj
 0002:0000b29c       $unwind$?Term@CAtlModule@ATL@@QEAAXXZ 000000018003129c     POSKeyboard.obj
 0002:0000b29c       $unwind$?initialize_stdio_handles_nolock@@YAXXZ 000000018003129c     libucrt:ioinit.obj
 0002:0000b29c       $unwind$__acrt_initialize_stdio 000000018003129c     libucrt:_file.obj
 0002:0000b29c       $unwind$__GSHandlerCheck_EH 000000018003129c     LIBCMT:gshandlereh.obj
 0002:0000b29c       $unwind$__GSHandlerCheck_SEH 000000018003129c     LIBCMT:gshandlerseh.obj
 0002:0000b29c       $unwind$??$TypeMatchHelper@V__FrameHandler3@@@@YAHPEBU_s_HandlerType@@PEBU_s_CatchableType@@PEBU_s_ThrowInfo@@@Z 000000018003129c     libvcruntime:frame.obj
 0002:0000b29c       $unwind$??$TypeMatchHelper@V__FrameHandler4@@@@YAHPEAUHandlerType4@FH4@@PEBU_s_CatchableType@@PEBU_s_ThrowInfo@@@Z 000000018003129c     libvcruntime:frame.obj
 0002:0000b2b4       $unwind$?SetBSTR@OposVariant@@QEAAXPEA_WAEAJ@Z 00000001800312b4     OposVariant.obj
 0002:0000b2b4       $unwind$?SetLONG@OposVariant@@QEAAXJ@Z 00000001800312b4     OposVariant.obj
 0002:0000b2b4       $unwind$?SetVARIANT_BOOL@OposVariant@@QEAAXF@Z 00000001800312b4     OposVariant.obj
 0002:0000b2b4       $unwind$??0?$CComContainedObject@VCOPOSPOSKeyboard@@@ATL@@QEAA@PEAX@Z 00000001800312b4     POSKeyboard.obj
 0002:0000b2b4       $unwind$??1?$CComEnumImpl@UIEnumConnectionPoints@@$1?_GUID_b196b285_bab4_101a_b69c_00aa00341d07@@3U__s_GUID@@BPEAUIConnectionPoint@@V?$_CopyInterface@UIConnectionPoint@@@ATL@@@ATL@@UEAA@XZ 00000001800312b4     POSKeyboard.obj
 0002:0000b2b4       $unwind$??1?$CComEnumImpl@UIEnumConnections@@$1?_GUID_b196b287_bab4_101a_b69c_00aa00341d07@@3U__s_GUID@@BUtagCONNECTDATA@@V?$_Copy@UtagCONNECTDATA@@@ATL@@@ATL@@UEAA@XZ 00000001800312b4     POSKeyboard.obj
 0002:0000b2b4       $unwind$??_G?$CComAggObject@VCOPOSPOSKeyboard@@@ATL@@UEAAPEAXI@Z 00000001800312b4     POSKeyboard.obj
 0002:0000b2b4       $unwind$??_G?$CComContainedObject@VCOPOSPOSKeyboard@@@ATL@@UEAAPEAXI@Z 00000001800312b4     POSKeyboard.obj
 0002:0000b2b4       $unwind$??_G?$CComObject@V?$CComEnum@UIEnumConnectionPoints@@$1?_GUID_b196b285_bab4_101a_b69c_00aa00341d07@@3U__s_GUID@@BPEAUIConnectionPoint@@V?$_CopyInterface@UIConnectionPoint@@@ATL@@VCComSingleThreadModel@6@@ATL@@@ATL@@UEAAPEAXI@Z 00000001800312b4     POSKeyboard.obj
 0002:0000b2b4       $unwind$??_G?$CComObject@V?$CComEnum@UIEnumConnections@@$1?_GUID_b196b287_bab4_101a_b69c_00aa00341d07@@3U__s_GUID@@BUtagCONNECTDATA@@V?$_Copy@UtagCONNECTDATA@@@ATL@@VCComSingleThreadModel@6@@ATL@@@ATL@@UEAAPEAXI@Z 00000001800312b4     POSKeyboard.obj
 0002:0000b2b4       $unwind$??_G?$CComObject@VCOPOSPOSKeyboard@@@ATL@@UEAAPEAXI@Z 00000001800312b4     POSKeyboard.obj
 0002:0000b2b4       $unwind$??_G?$CComObjectCached@VCComClassFactory@ATL@@@ATL@@UEAAPEAXI@Z 00000001800312b4     POSKeyboard.obj
 0002:0000b2b4       $unwind$??_GCComClassFactory@ATL@@UEAAPEAXI@Z 00000001800312b4     POSKeyboard.obj
 0002:0000b2b4       $unwind$??_GCComModule@ATL@@UEAAPEAXI@Z 00000001800312b4     POSKeyboard.obj
 0002:0000b2b4       $unwind$?DeleteSubKey@CRegKey@ATL@@QEAAJPEB_W@Z 00000001800312b4     POSKeyboard.obj
 0002:0000b2b4       $unwind$?IOleObject_SetClientSite@CComControlBase@ATL@@QEAAJPEAUIOleClientSite@@@Z 00000001800312b4     POSKeyboard.obj
 0002:0000b2b4       $unwind$?InitNew@?$IPersistStorageImpl@VCOPOSPOSKeyboard@@@ATL@@UEAAJPEAUIStorage@@@Z 00000001800312b4     POSKeyboard.obj
 0002:0000b2b4       $unwind$?IsDirty@?$IPersistStorageImpl@VCOPOSPOSKeyboard@@@ATL@@UEAAJXZ 00000001800312b4     POSKeyboard.obj
 0002:0000b2b4       $unwind$?Release@?$CComAggObject@VCOPOSPOSKeyboard@@@ATL@@UEAAKXZ 00000001800312b4     POSKeyboard.obj
 0002:0000b2b4       $unwind$?Release@?$CComObject@V?$CComEnum@UIEnumConnectionPoints@@$1?_GUID_b196b285_bab4_101a_b69c_00aa00341d07@@3U__s_GUID@@BPEAUIConnectionPoint@@V?$_CopyInterface@UIConnectionPoint@@@ATL@@VCComSingleThreadModel@6@@ATL@@@ATL@@UEAAKXZ 00000001800312b4     POSKeyboard.obj
 0002:0000b2b4       $unwind$?Release@?$CComObject@V?$CComEnum@UIEnumConnections@@$1?_GUID_b196b287_bab4_101a_b69c_00aa00341d07@@3U__s_GUID@@BUtagCONNECTDATA@@V?$_Copy@UtagCONNECTDATA@@@ATL@@VCComSingleThreadModel@6@@ATL@@@ATL@@UEAAKXZ 00000001800312b4     POSKeyboard.obj
 0002:0000b2b4       $unwind$?Release@?$CComObject@VCOPOSPOSKeyboard@@@ATL@@UEAAKXZ 00000001800312b4     POSKeyboard.obj
 0002:0000b2b4       $unwind$?SOData@COPOSPOSKeyboard@@MEAAJJ@Z 00000001800312b4     POSKeyboard.obj
 0002:0000b2b4       $unwind$?SOStatusUpdate@COPOSPOSKeyboard@@MEAAJJ@Z 00000001800312b4     POSKeyboard.obj
 0002:0000b2b4       $unwind$?SetAdvise@?$IViewObjectExImpl@VCOPOSPOSKeyboard@@@ATL@@UEAAJKKPEAUIAdviseSink@@@Z 00000001800312b4     POSKeyboard.obj
 0002:0000b2b4       $unwind$?Term@CComModule@ATL@@QEAAXXZ 00000001800312b4     POSKeyboard.obj
 0002:0000b2b4       $unwind$DllMain            00000001800312b4     POSKeyboard.obj
 0002:0000b2b4       $unwind$??1?$IConnectionPointImpl@VCOPOSPOSKeyboard@@$1?DIID__IOPOSPOSKeyboardEvents@@3U_GUID@@BVCComDynamicUnkArray@ATL@@@ATL@@QEAA@XZ 00000001800312b4     POSKeyboardImpl.obj
 0002:0000b2b4       $unwind$??1?$IConnectionPointImpl@VCOPOSPOSKeyboard@@$1?IID_IPropertyNotifySink@@3U_GUID@@BVCComDynamicUnkArray@ATL@@@ATL@@QEAA@XZ 00000001800312b4     POSKeyboardImpl.obj
 0002:0000b2b4       $unwind$??$common_initialize_environment_nolock@D@@YAHXZ 00000001800312b4     libucrt:environment_initialization.obj
 0002:0000b2b4       $unwind$_realloc_base      00000001800312b4     libucrt:realloc_base.obj
 0002:0000b2b4       $unwind$?replace_current_thread_locale_nolock@@YAXQEAU__acrt_ptd@@QEAU__crt_locale_data@@@Z 00000001800312b4     libucrt:per_thread_data.obj
 0002:0000b2b4       $unwind$__acrt_execute_uninitializers 00000001800312b4     libucrt:shared_initialization.obj
 0002:0000b2b4       $unwind$__acrt_LocaleNameToLCID 00000001800312b4     libucrt:winapi_thunks.obj
 0002:0000b2b4       $unwind$?free_crt_array_internal@@YAXQEAPEBX_K@Z 00000001800312b4     libucrt:inittime.obj
 0002:0000b2b4       $unwind$_updatetlocinfoEx_nolock 00000001800312b4     libucrt:locale_refcounting.obj
 0002:0000b2b4       $unwind$__acrt_uninitialize_lowio 00000001800312b4     libucrt:ioinit.obj
 0002:0000b2b4       $unwind$?setSBCS@@YAXPEAU__crt_multibyte_data@@@Z 00000001800312b4     libucrt:mbctype.obj
 0002:0000b2b4       $unwind$_initterm_e        00000001800312b4     libucrt:initterm.obj
 0002:0000b2b4       $unwind$??0CAtlBaseModule@ATL@@QEAA@XZ 00000001800312b4     atls:atlbase.obj
 0002:0000b2b4       $unwind$??$GetProcAddressAll@P6AP6A_JPEAUHWND__@@I_K_J@ZPEAUAtlThunkData_t@@@Z@@YAP6AP6A_JPEAUHWND__@@I_K_J@ZPEAUAtlThunkData_t@@@ZPEAP6AP6A_J0I12@Z3@Z@Z 00000001800312b4     atls:atlthunk.obj
 0002:0000b2b4       $unwind$??$GetProcAddressAll@P6APEAUAtlThunkData_t@@XZ@@YAP6APEAUAtlThunkData_t@@XZPEAP6APEAU0@XZ@Z 00000001800312b4     atls:atlthunk.obj
 0002:0000b2b4       $unwind$??$GetProcAddressAll@P6AXPEAUAtlThunkData_t@@@Z@@YAP6AXPEAUAtlThunkData_t@@@ZPEAP6AX0@Z@Z 00000001800312b4     atls:atlthunk.obj
 0002:0000b2b4       $unwind$??$GetProcAddressAll@P6AXPEAUAtlThunkData_t@@PEAX_K@Z@@YAP6AXPEAUAtlThunkData_t@@PEAX_K@ZPEAP6AX012@Z@Z 00000001800312b4     atls:atlthunk.obj
 0002:0000b2b4       $unwind$?__AllocStdCallThunk_cmn@@YAPEAXXZ 00000001800312b4     atls:atlthunk.obj
 0002:0000b2b4       $unwind$?__InitializeThunkPool@@YAHXZ 00000001800312b4     atls:atlthunk.obj
 0002:0000b2b4       $unwind$AtlThunk_DataToCode 00000001800312b4     atls:atlthunk.obj
 0002:0000b2b4       $unwind$_RTC_Initialize    00000001800312b4     LIBCMT:initsect.obj
 0002:0000b2b4       $unwind$_RTC_Terminate     00000001800312b4     LIBCMT:initsect.obj
 0002:0000b2b4       $unwind$?__scrt_initialize_thread_safe_statics@@YAHXZ 00000001800312b4     LIBCMT:thread_safe_statics.obj
 0002:0000b2b4       $unwind$??_Gbad_alloc@std@@UEAAPEAXI@Z 00000001800312b4     LIBCMT:throw_bad_alloc.obj
 0002:0000b2b4       $unwind$??_Gbad_array_new_length@std@@UEAAPEAXI@Z 00000001800312b4     LIBCMT:throw_bad_alloc.obj
 0002:0000b2b4       $unwind$??_Gexception@std@@UEAAPEAXI@Z 00000001800312b4     LIBCMT:throw_bad_alloc.obj
 0002:0000b2b4       $unwind$__C_specific_handler_noexcept 00000001800312b4     libvcruntime:chandler_noexcept.obj
 0002:0000b2b4       $unwind$__FrameUnwindFilter 00000001800312b4     libvcruntime:ehhelpers.obj
 0002:0000b2b4       $unwind$?SetUnwindTryBlock@__FrameHandler3@@SAXPEA_KPEAU_xDISPATCHER_CONTEXT@@PEBU_s_FuncInfo@@H@Z 00000001800312b4     libvcruntime:ehstate.obj
 0002:0000b2b4       $unwind$??_Gbad_exception@std@@UEAAPEAXI@Z 00000001800312b4     libvcruntime:frame.obj
 0002:0000b2b4       $unwind$?ExFilterRethrow@@YAHPEAU_EXCEPTION_POINTERS@@PEAUEHExceptionRecord@@PEAH@Z 00000001800312b4     libvcruntime:frame.obj
 0002:0000b2b4       $unwind$?ExFilterRethrowFH4@@YAHPEAU_EXCEPTION_POINTERS@@PEAUEHExceptionRecord@@HPEAH@Z 00000001800312b4     libvcruntime:frame.obj
 0002:0000b2b4       $unwind$_FindAndUnlinkFrame 00000001800312b4     libvcruntime:risctrnsctrl.obj
 0002:0000b2b4       $unwind$__vcrt_FlsSetValue 00000001800312b4     libvcruntime:winapi_downlevel.obj
 0002:0000b2c0       $unwind$?ChangeBSTR@OposVariant@@QEAAXPEAPEA_WAEAJ@Z 00000001800312c0     OposVariant.obj
 0002:0000b2c0       $unwind$?ChangeLONG@OposVariant@@QEAAXPEAJAEAJ@Z 00000001800312c0     OposVariant.obj
 0002:0000b2c0       $unwind$?x_ismbbtype_l@@YAHPEAU__crt_locale_pointers@@IHH@Z 00000001800312c0     libucrt:ismbbyte.obj
 0002:0000b2d0       $unwind$swprintf_s         00000001800312d0     POSKeyboard.obj
 0002:0000b2e0       $unwind$?_AtlVerifyStackAvailable@_ATL_SAFE_ALLOCA_IMPL@ATL@@YA_N_K@Z 00000001800312e0     POSKeyboard.obj
 0002:0000b30c       $unwind$?filt$0@?0??_AtlVerifyStackAvailable@_ATL_SAFE_ALLOCA_IMPL@ATL@@YA_N_K@Z@4HA 000000018003130c     POSKeyboard.obj
 0002:0000b30c       $unwind$_query_new_handler$fin$0 000000018003130c     libucrt:new_handler.obj
 0002:0000b30c       $unwind$?fin$0@?0???$?RV<lambda_0ae27a3a962d80f24befdcbee591983d>@@AEAV<lambda_8d0ee55de4b1038c4002e0adecdf1839>@@V<lambda_dc504788e8f1664fe9b84e20bfb512f2>@@@?$__crt_seh_guarded_call@X@@QEAAX$$QEAV<lambda_0ae27a3a962d80f24befdcbee591983d>@@AEAV<lambda_8d0ee55de4b1038c4002e0adecdf1839>@@$$QEAV<lambda_dc504788e8f1664fe9b84e20bfb512f2>@@@Z@4HA 000000018003130c     libucrt:per_thread_data.obj
 0002:0000b30c       $unwind$?fin$0@?0???$?RV<lambda_2d41944a1d46af3157314b8a01080d33>@@AEAV<lambda_8f455de75cd7d7f24b4096f044d8b9e6>@@V<lambda_aa500f224e6afead328df44964fe2772>@@@?$__crt_seh_guarded_call@X@@QEAAX$$QEAV<lambda_2d41944a1d46af3157314b8a01080d33>@@AEAV<lambda_8f455de75cd7d7f24b4096f044d8b9e6>@@$$QEAV<lambda_aa500f224e6afead328df44964fe2772>@@@Z@4HA 000000018003130c     libucrt:per_thread_data.obj
 0002:0000b30c       $unwind$?fin$0@?0???$?RV<lambda_aa87e3671a710a21b5dc78c0bdf72e11>@@AEAV<lambda_92619d2358a28f41a33ba319515a20b9>@@V<lambda_6992ecaafeb10aed2b74cb1fae11a551>@@@?$__crt_seh_guarded_call@X@@QEAAX$$QEAV<lambda_aa87e3671a710a21b5dc78c0bdf72e11>@@AEAV<lambda_92619d2358a28f41a33ba319515a20b9>@@$$QEAV<lambda_6992ecaafeb10aed2b74cb1fae11a551>@@@Z@4HA 000000018003130c     libucrt:per_thread_data.obj
 0002:0000b30c       $unwind$?fin$0@?0???$?RV<lambda_f2e299630e499de9f9a165e60fcd3db5>@@AEAV<lambda_2ae9d31cdba2644fcbeaf08da7c24588>@@V<lambda_40d01ff24d0e7b3814fdbdcee8eab3c7>@@@?$__crt_seh_guarded_call@X@@QEAAX$$QEAV<lambda_f2e299630e499de9f9a165e60fcd3db5>@@AEAV<lambda_2ae9d31cdba2644fcbeaf08da7c24588>@@$$QEAV<lambda_40d01ff24d0e7b3814fdbdcee8eab3c7>@@@Z@4HA 000000018003130c     libucrt:per_thread_data.obj
 0002:0000b30c       $unwind$__acrt_update_thread_locale_data$fin$0 000000018003130c     libucrt:locale_refcounting.obj
 0002:0000b30c       $unwind$?fin$0@?0???$?RV<lambda_410d79af7f07d98d83a3f525b3859a53>@@AEAV<lambda_3e16ef9562a7dcce91392c22ab16ea36>@@V<lambda_38119f0e861e05405d8a144b9b982f0a>@@@?$__crt_seh_guarded_call@X@@QEAAX$$QEAV<lambda_410d79af7f07d98d83a3f525b3859a53>@@AEAV<lambda_3e16ef9562a7dcce91392c22ab16ea36>@@$$QEAV<lambda_38119f0e861e05405d8a144b9b982f0a>@@@Z@4HA 000000018003130c     libucrt:wsetlocale.obj
 0002:0000b30c       $unwind$?fin$0@?0???$?RV<lambda_ad8af0d99a0adf03d037d7dffe354bb5>@@AEAV<lambda_c9ba49e555ba839a7b07aa3fbecb7617>@@V<lambda_2f1ebd5d68526518146ae959c9e734c8>@@@?$__crt_seh_guarded_call@H@@QEAAH$$QEAV<lambda_ad8af0d99a0adf03d037d7dffe354bb5>@@AEAV<lambda_c9ba49e555ba839a7b07aa3fbecb7617>@@$$QEAV<lambda_2f1ebd5d68526518146ae959c9e734c8>@@@Z@4HA 000000018003130c     libucrt:close.obj
 0002:0000b30c       $unwind$?fin$0@?0???$?RV<lambda_a37b2b86f63e897a80ea819b0eb08c01>@@AEAV<lambda_38ce7e780aa69e748d6df282ebc68efe>@@V<lambda_99fb1378e971ab6e7edea83e3a7a83a2>@@@?$__crt_seh_guarded_call@H@@QEAAH$$QEAV<lambda_a37b2b86f63e897a80ea819b0eb08c01>@@AEAV<lambda_38ce7e780aa69e748d6df282ebc68efe>@@$$QEAV<lambda_99fb1378e971ab6e7edea83e3a7a83a2>@@@Z@4HA 000000018003130c     libucrt:commit.obj
 0002:0000b30c       $unwind$__acrt_initialize_lowio$fin$0 000000018003130c     libucrt:ioinit.obj
 0002:0000b30c       $unwind$__acrt_lowio_ensure_fh_exists$fin$0 000000018003130c     libucrt:osfinfo.obj
 0002:0000b30c       $unwind$?fin$0@?0???$?RV<lambda_efdfa57d1f175319df784efa44bb7b81>@@AEAV<lambda_5f0a4c1567f8adc6734073e5d1e1b35c>@@V<lambda_2e8a7d3640ea6ccb4c2413664c2db6fd>@@@?$__crt_seh_guarded_call@X@@QEAAX$$QEAV<lambda_efdfa57d1f175319df784efa44bb7b81>@@AEAV<lambda_5f0a4c1567f8adc6734073e5d1e1b35c>@@$$QEAV<lambda_2e8a7d3640ea6ccb4c2413664c2db6fd>@@@Z@4HA 000000018003130c     libucrt:mbctype.obj
 0002:0000b30c       $unwind$?fin$0@?0??update_thread_multibyte_data_internal@@YAPEAU__crt_multibyte_data@@QEAU__acrt_ptd@@QEAPEAU1@@Z@4HA 000000018003130c     libucrt:mbctype.obj
 0002:0000b30c       $unwind$?fin$0@?0???$?RV<lambda_450d765d439847d4c735a33c368b5fc0>@@AEAV<lambda_44731a7d0e6d81c3e6aa82d741081786>@@V<lambda_601a2a7da3b7a96e9554ac7215c4b07c>@@@?$__crt_seh_guarded_call@P6AXH@Z@@QEAAP6AXH@Z$$QEAV<lambda_450d765d439847d4c735a33c368b5fc0>@@AEAV<lambda_44731a7d0e6d81c3e6aa82d741081786>@@$$QEAV<lambda_601a2a7da3b7a96e9554ac7215c4b07c>@@@Z@4HA 000000018003130c     libucrt:signal.obj
 0002:0000b30c       $unwind$raise$fin$0        000000018003130c     libucrt:signal.obj
 0002:0000b30c       $unwind$?filt$0@?0???R<lambda_6e4b09c48022b2350581041d5f6b0c4c>@@QEBA@XZ@4HA 000000018003130c     libucrt:exit.obj
 0002:0000b30c       $unwind$?fin$0@?0???$?RV<lambda_d80eeec6fff315bfe5c115232f3240e3>@@AEAV<lambda_6e4b09c48022b2350581041d5f6b0c4c>@@V<lambda_2358e3775559c9db80273638284d5e45>@@@?$__crt_seh_guarded_call@X@@QEAAX$$QEAV<lambda_d80eeec6fff315bfe5c115232f3240e3>@@AEAV<lambda_6e4b09c48022b2350581041d5f6b0c4c>@@$$QEAV<lambda_2358e3775559c9db80273638284d5e45>@@@Z@4HA 000000018003130c     libucrt:exit.obj
 0002:0000b30c       $unwind$?fin$0@?0???$?RV<lambda_638799b9deba96c50f710eeac98168cd>@@AEAV<lambda_22ebabd17bc4fa466a2aca6d8deb888d>@@V<lambda_a6f7d7db0129f75315ebf26d50c089f1>@@@?$__crt_seh_guarded_call@H@@QEAAH$$QEAV<lambda_638799b9deba96c50f710eeac98168cd>@@AEAV<lambda_22ebabd17bc4fa466a2aca6d8deb888d>@@$$QEAV<lambda_a6f7d7db0129f75315ebf26d50c089f1>@@@Z@4HA 000000018003130c     libucrt:onexit.obj
 0002:0000b30c       $unwind$?fin$0@?0???$?RV<lambda_7777bce6b2f8c936911f934f8298dc43>@@AEAV<lambda_f03950bc5685219e0bcd2087efbe011e>@@V<lambda_3883c3dff614d5e0c5f61bb1ac94921c>@@@?$__crt_seh_guarded_call@H@@QEAAH$$QEAV<lambda_7777bce6b2f8c936911f934f8298dc43>@@AEAV<lambda_f03950bc5685219e0bcd2087efbe011e>@@$$QEAV<lambda_3883c3dff614d5e0c5f61bb1ac94921c>@@@Z@4HA 000000018003130c     libucrt:onexit.obj
 0002:0000b30c       $unwind$_fcloseall$fin$0   000000018003130c     libucrt:closeall.obj
 0002:0000b30c       $unwind$?fin$0@?0???$?RV<lambda_842d9ff0dc9ef11c61343bbaebe7f885>@@AEAV<lambda_c5860995281e5c4ce005b3de8f5874ee>@@V<lambda_d90129c13df834fdcbf8d2b88dafcf2d>@@@?$__crt_seh_guarded_call@X@@QEAAX$$QEAV<lambda_842d9ff0dc9ef11c61343bbaebe7f885>@@AEAV<lambda_c5860995281e5c4ce005b3de8f5874ee>@@$$QEAV<lambda_d90129c13df834fdcbf8d2b88dafcf2d>@@@Z@4HA 000000018003130c     libucrt:fflush.obj
 0002:0000b30c       $unwind$?fin$0@?0???$?RV<lambda_886d6c58226a84441f68b9f2b8217b83>@@AEAV<lambda_ab61a845afdef5b7c387490eaf3616ee>@@V<lambda_f7f22ab5edc0698d5f6905b0d3f44752>@@@?$__crt_seh_guarded_call@X@@QEAAX$$QEAV<lambda_886d6c58226a84441f68b9f2b8217b83>@@AEAV<lambda_ab61a845afdef5b7c387490eaf3616ee>@@$$QEAV<lambda_f7f22ab5edc0698d5f6905b0d3f44752>@@@Z@4HA 000000018003130c     libucrt:fflush.obj
 0002:0000b30c       $unwind$_ctrlfp$filt$0     000000018003130c     libucrt:fpctrl.obj
 0002:0000b30c       $unwind$common_control87$filt$0 000000018003130c     libucrt:ieee.obj
 0002:0000b30c       $unwind$?fin$0@?0??dllmain_crt_process_attach@@YAHQEAUHINSTANCE__@@QEAX@Z@4HA 000000018003130c     LIBCMT:dll_dllmain.obj
 0002:0000b30c       $unwind$?fin$0@?0??dllmain_crt_process_detach@@YAH_N@Z@4HA 000000018003130c     LIBCMT:dll_dllmain.obj
 0002:0000b30c       $unwind$?fin$1@?0??dllmain_crt_process_detach@@YAH_N@Z@4HA 000000018003130c     LIBCMT:dll_dllmain.obj
 0002:0000b30c       $unwind$_IsNonwritableInCurrentImage$filt$0 000000018003130c     LIBCMT:pesect.obj
 0002:0000b30c       $unwind$?filt$0@?0??CxxCallCatchBlock@__FrameHandler3@@SAPEAXPEAU_EXCEPTION_RECORD@@@Z@4HA 000000018003130c     libvcruntime:frame.obj
 0002:0000b30c       $unwind$?filt$0@?0??CxxCallCatchBlock@__FrameHandler4@@SAPEAXPEAU_EXCEPTION_RECORD@@@Z@4HA 000000018003130c     libvcruntime:frame.obj
 0002:0000b30c       $unwind$?filt$0@?0??FrameUnwindToState@__FrameHandler3@@SAXPEA_KPEAU_xDISPATCHER_CONTEXT@@PEBU_s_FuncInfo@@H@Z@4HA 000000018003130c     libvcruntime:frame.obj
 0002:0000b30c       $unwind$?fin$1@?0??FrameUnwindToState@__FrameHandler3@@SAXPEA_KPEAU_xDISPATCHER_CONTEXT@@PEBU_s_FuncInfo@@H@Z@4HA 000000018003130c     libvcruntime:frame.obj
 0002:0000b314       $unwind$?AtlInternalOleLoadFromStream@ATL@@YAJPEAUIStream@@AEBU_GUID@@PEAPEAXTClassesAllowedInStream@1@K@Z 0000000180031314     POSKeyboard.obj
 0002:0000b330       $unwind$?ReadFromStream@CComBSTR@ATL@@QEAAJPEAUIStream@@@Z 0000000180031330     POSKeyboard.obj
 0002:0000b330       $unwind$_configure_narrow_argv 0000000180031330     libucrt:argv_parsing.obj
 0002:0000b344       $unwind$?WriteToStream@CComVariant@ATL@@QEAAJPEAUIStream@@@Z 0000000180031344     POSKeyboard.obj
 0002:0000b358       $unwind$?RegOpenKeyExW@CAtlTransactionManager@ATL@@QEAAJPEAUHKEY__@@PEB_WKKPEAPEAU3@@Z 0000000180031358     POSKeyboard.obj
 0002:0000b358       $unwind$?WriteToStream@CComVariant@ATL@@QEAAJPEAUIStream@@G@Z 0000000180031358     POSKeyboard.obj
 0002:0000b358       $unwind$__dcrt_write_console 0000000180031358     libucrt:initcon.obj
 0002:0000b358       $unwind$??$__acrt_convert_wcs_mbs_cp@_WDV<lambda_f788ae46380686e8b737efdd8c720d07>@@U__crt_win32_buffer_no_resizing@@@@YAHQEB_WAEAV?$__crt_win32_buffer@DU__crt_win32_buffer_no_resizing@@@@AEBV<lambda_f788ae46380686e8b737efdd8c720d07>@@I@Z 0000000180031358     libucrt:getmodulefilenamea.obj
 0002:0000b36c       $unwind$?ReadFromStream@CComVariant@ATL@@QEAAJPEAUIStream@@GTClassesAllowedInStream@2@K@Z 000000018003136c     POSKeyboard.obj
 0002:0000b384       $unwind$?GetSizeMax@CComVariant@ATL@@QEBAJPEAT_ULARGE_INTEGER@@@Z 0000000180031384     POSKeyboard.obj
 0002:0000b398       $unwind$?RegCreateKeyExW@CAtlTransactionManager@ATL@@QEAAJPEAUHKEY__@@PEB_WKPEA_WKKQEAU_SECURITY_ATTRIBUTES@@PEAPEAU3@PEAK@Z 0000000180031398     POSKeyboard.obj
 0002:0000b3ac       $unwind$?GetGITPtr@CAtlModule@ATL@@UEAAJPEAPEAUIGlobalInterfaceTable@@@Z 00000001800313ac     POSKeyboard.obj
 0002:0000b3ac       $unwind$?RegDeleteKeyW@CAtlTransactionManager@ATL@@QEAAJPEAUHKEY__@@PEB_W@Z 00000001800313ac     POSKeyboard.obj
 0002:0000b3ac       $unwind$?getStateFromIterators@UWMap4@FH4@@SAHAEBViterator@12@H0H0@Z 00000001800313ac     libvcruntime:frame.obj
 0002:0000b3bc       $unwind$?AtlHiMetricToPixel@ATL@@YAXPEBUtagSIZE@@PEAU2@@Z 00000001800313bc     POSKeyboard.obj
 0002:0000b3bc       $unwind$?AtlInternalQueryInterface@ATL@@YAJPEAXPEBU_ATL_INTMAP_ENTRY@1@AEBU_GUID@@PEAPEAX@Z 00000001800313bc     POSKeyboard.obj
 0002:0000b3d4       $unwind$?Append@CParseBuffer@CRegParser@ATL@@QEAAHPEB_WH@Z 00000001800313d4     POSKeyboard.obj
 0002:0000b3d4       $unwind$?AtlComModuleGetClassObject@ATL@@YAJPEAU_ATL_COM_MODULE70@1@AEBU_GUID@@1PEAPEAX@Z 00000001800313d4     POSKeyboard.obj
 0002:0000b3d4       $unwind$?GetClassObject@CComModule@ATL@@QEAAJAEBU_GUID@@0PEAPEAX@Z 00000001800313d4     POSKeyboard.obj
 0002:0000b3d4       $unwind$?NextToken@CRegParser@ATL@@IEAAJPEA_W@Z 00000001800313d4     POSKeyboard.obj
 0002:0000b3d4       $unwind$?StartWindowProc@?$CWindowImplBaseT@VCWindow@ATL@@V?$CWinTraits@$0FGAAAAAA@$0A@@2@@ATL@@SA_JPEAUHWND__@@I_K_J@Z 00000001800313d4     POSKeyboard.obj
 0002:0000b3d4       $unwind$?fp_format_f_internal@@YAHQEAD_KHQEAU_strflt@@_NAEAV__crt_cached_ptd_host@@@Z 00000001800313d4     libucrt:cvt.obj
 0002:0000b3d4       $unwind$__acrt_DownlevelLocaleNameToLCID 00000001800313d4     libucrt:lcidtoname_downlevel.obj
 0002:0000b3d4       $unwind$??R<lambda_f03950bc5685219e0bcd2087efbe011e>@@QEBAHXZ 00000001800313d4     libucrt:onexit.obj
 0002:0000b3ec       $unwind$?AtlRegisterClassCategoriesHelper@ATL@@YAJAEBU_GUID@@PEBU_ATL_CATMAP_ENTRY@1@H@Z 00000001800313ec     POSKeyboard.obj
 0002:0000b410       $unwind$?AtlLoadTypeLib@ATL@@YAJPEAUHINSTANCE__@@PEB_WPEAPEA_WPEAPEAUITypeLib@@@Z 0000000180031410     POSKeyboard.obj
 0002:0000b430       $unwind$?AtlRegisterTypeLib@ATL@@YAJPEAUHINSTANCE__@@PEB_W@Z 0000000180031430     POSKeyboard.obj
 0002:0000b44c       $unwind$?AtlUnRegisterTypeLib@ATL@@YAJPEAUHINSTANCE__@@PEB_W@Z 000000018003144c     POSKeyboard.obj
 0002:0000b454       $unwind$?GetTI@CComTypeInfoHolder@ATL@@QEAAJK@Z 0000000180031454     POSKeyboard.obj
 0002:0000b454       $unwind$?RecurseDeleteKey@CRegKey@ATL@@QEAAJPEB_W@Z 0000000180031454     POSKeyboard.obj
 0002:0000b474       $unwind$?UpdateRegistryFromResource@CAtlModule@ATL@@QEAAJIHPEAU_ATL_REGMAP_ENTRY@2@@Z 0000000180031474     POSKeyboard.obj
 0002:0000b474       $unwind$?UpdateRegistryFromResource@CAtlModule@ATL@@QEAAJPEB_WHPEAU_ATL_REGMAP_ENTRY@2@@Z 0000000180031474     POSKeyboard.obj
 0002:0000b494       $unwind$?Lookup@?$CSimpleMap@PEA_WPEA_WVCExpansionVectorEqualHelper@ATL@@@ATL@@QEBAPEA_WAEBQEA_W@Z 0000000180031494     POSKeyboard.obj
 0002:0000b494       $unwind$_free_osfhnd       0000000180031494     libucrt:osfinfo.obj
 0002:0000b494       $unwind$__std_exception_copy 0000000180031494     libvcruntime:std_exception.obj
 0002:0000b4a8       $unwind$?Add@CExpansionVector@ATL@@QEAAHPEB_W0@Z 00000001800314a8     POSKeyboard.obj
 0002:0000b4c0       $unwind$?PreProcessBuffer@CRegParser@ATL@@QEAAJPEA_WPEAPEA_W@Z 00000001800314c0     POSKeyboard.obj
 0002:0000b4e4       $unwind$?RegisterBuffer@CRegParser@ATL@@QEAAJPEA_WH@Z 00000001800314e4     POSKeyboard.obj
 0002:0000b504       $unwind$?AddValue@CRegParser@ATL@@IEAAJAEAVCRegKey@2@PEB_WPEA_W@Z 0000000180031504     POSKeyboard.obj
 0002:0000b524       $unwind$?RegisterSubkeys@CRegParser@ATL@@IEAAJPEA_WPEAUHKEY__@@HH@Z 0000000180031524     POSKeyboard.obj
 0002:0000b544       $unwind$?SkipAssignment@CRegParser@ATL@@IEAAJPEA_W@Z 0000000180031544     POSKeyboard.obj
 0002:0000b560       $unwind$?RegisterFromResource@CRegObject@ATL@@IEAAJPEB_W00H@Z 0000000180031560     POSKeyboard.obj
 0002:0000b580       $unwind$?Cleanup@CComTypeInfoHolder@ATL@@SAX_K@Z 0000000180031580     POSKeyboard.obj
 0002:0000b580       $unwind$_free_base         0000000180031580     libucrt:free_base.obj
 0002:0000b580       $unwind$?destroy_fls@@YAXPEAX@Z 0000000180031580     libucrt:per_thread_data.obj
 0002:0000b580       $unwind$__acrt_locale_free_numeric 0000000180031580     libucrt:initnum.obj
 0002:0000b580       $unwind$__acrt_locale_free_lc_time_if_unreferenced 0000000180031580     libucrt:locale_refcounting.obj
 0002:0000b580       $unwind$AtlThunk_FreeData  0000000180031580     atls:atlthunk.obj
 0002:0000b588       $unwind$?GetIDsOfNames@CComTypeInfoHolder@ATL@@QEAAJAEBU_GUID@@PEAPEA_WIKPEAJ@Z 0000000180031588     POSKeyboard.obj
 0002:0000b5a4       $unwind$?LoadNameCache@CComTypeInfoHolder@ATL@@QEAAJPEAUITypeInfo@@@Z 00000001800315a4     POSKeyboard.obj
 0002:0000b5bc       $unwind$?WindowProc@?$CWindowImplBaseT@VCWindow@ATL@@V?$CWinTraits@$0FGAAAAAA@$0A@@2@@ATL@@SA_JPEAUHWND__@@I_K_J@Z 00000001800315bc     POSKeyboard.obj
 0002:0000b5d4       $unwind$?atlCreate@?$CWindowImplBaseT@VCWindow@ATL@@V?$CWinTraits@$0FGAAAAAA@$0A@@2@@ATL@@QEAAPEAUHWND__@@PEAU3@V_U_RECT@2@PEB_WKKV_U_MENUorID@2@GPEAX@Z 00000001800315d4     POSKeyboard.obj
 0002:0000b5ec       $unwind$??$AtlModuleRegisterWndClassInfoT@VAtlModuleRegisterWndClassInfoParamW@ATL@@@ATL@@YAGPEAU_ATL_BASE_MODULE70@0@PEAU_ATL_WIN_MODULE70@0@PEAU_ATL_WNDCLASSINFOW@0@PEAP6A_JPEAUHWND__@@I_K_J@ZVAtlModuleRegisterWndClassInfoParamW@0@@Z 00000001800315ec     POSKeyboard.obj
 0002:0000b60c       $unwind$?GetZoomInfo@CComControlBase@ATL@@QEAAXAEAUATL_DRAWINFO@@@Z 000000018003160c     POSKeyboard.obj
 0002:0000b60c       $unwind$?OnKillFocus@CComControlBase@ATL@@QEAA_JI_K_JAEAH@Z 000000018003160c     POSKeyboard.obj
 0002:0000b60c       $unwind$?get_raw_ptd@__crt_cached_ptd_host@@QEAAPEAU__acrt_ptd@@XZ 000000018003160c     libucrt:invalid_parameter.obj
 0002:0000b618       $unwind$?SendOnDataChange@CComControlBase@ATL@@QEAAJK@Z 0000000180031618     POSKeyboard.obj
 0002:0000b628       $unwind$?OnSetFocus@CComControlBase@ATL@@QEAA_JI_K_JAEAH@Z 0000000180031628     POSKeyboard.obj
 0002:0000b63c       $unwind$?OnMouseActivate@CComControlBase@ATL@@QEAA_JI_K_JAEAH@Z 000000018003163c     POSKeyboard.obj
 0002:0000b644       $unwind$?GetAmbientLocaleID@CComControlBase@ATL@@QEAAJAEAK@Z 0000000180031644     POSKeyboard.obj
 0002:0000b644       $unwind$?GetAmbientUserMode@CComControlBase@ATL@@QEAAJAEAH@Z 0000000180031644     POSKeyboard.obj
 0002:0000b654       $unwind$?IQuickActivate_QuickActivate@CComControlBase@ATL@@QEAAJPEAUtagQACONTAINER@@PEAUtagQACONTROL@@@Z 0000000180031654     POSKeyboard.obj
 0002:0000b66c       $unwind$?DoVerbProperties@CComControlBase@ATL@@QEAAJPEBUtagRECT@@PEAUHWND__@@@Z 000000018003166c     POSKeyboard.obj
 0002:0000b684       $unwind$?InPlaceActivate@CComControlBase@ATL@@QEAAJJPEBUtagRECT@@@Z 0000000180031684     POSKeyboard.obj
 0002:0000b6a4       $unwind$?IOleObject_Close@CComControlBase@ATL@@QEAAJK@Z 00000001800316a4     POSKeyboard.obj
 0002:0000b6a4       $unwind$?get_raw_ptd_noexit@__crt_cached_ptd_host@@QEAAPEAU__acrt_ptd@@XZ 00000001800316a4     libucrt:invalid_parameter.obj
 0002:0000b6a4       $unwind$?type_case_c_tchar@?$output_processor@_WV?$string_output_adapter@_W@__crt_stdio_output@@V?$format_validation_base@_WV?$string_output_adapter@_W@__crt_stdio_output@@@2@@__crt_stdio_output@@AEAA_N_W@Z 00000001800316a4     libucrt:output.obj
 0002:0000b6b4       $unwind$?IOleInPlaceObject_UIDeactivate@CComControlBase@ATL@@QEAAJXZ 00000001800316b4     POSKeyboard.obj
 0002:0000b6cc       $unwind$?IOleInPlaceObject_SetObjectRects@CComControlBase@ATL@@QEAAJPEBUtagRECT@@0@Z 00000001800316cc     POSKeyboard.obj
 0002:0000b6e0       $unwind$?IViewObject_Draw@CComControlBase@ATL@@QEAAJKJPEAXPEAUtagDVTARGETDEVICE@@PEAUHDC__@@2PEBU_RECTL@@3@Z 00000001800316e0     POSKeyboard.obj
 0002:0000b6fc       $unwind$?IDataObject_GetData@CComControlBase@ATL@@QEAAJPEAUtagFORMATETC@@PEAUtagSTGMEDIUM@@@Z 00000001800316fc     POSKeyboard.obj
 0002:0000b71c       $unwind$?OnPaint@CComControlBase@ATL@@QEAA_JI_K_JAEAH@Z 000000018003171c     POSKeyboard.obj
 0002:0000b738       $unwind$?OnDrawAdvanced@CComControlBase@ATL@@UEAAJAEAUATL_DRAWINFO@@@Z 0000000180031738     POSKeyboard.obj
 0002:0000b754       $unwind$?Invoke@?$IDispatchImpl@UIOPOSPOSKeyboard@@$1?IID_IOPOSPOSKeyboard@@3U_GUID@@B$1?LIBID_OposPOSKeyboard_CCO@@3U3@B$00$0A@VCComTypeInfoHolder@ATL@@@ATL@@UEAAJJAEBU_GUID@@KGPEAUtagDISPPARAMS@@PEAUtagVARIANT@@PEAUtagEXCEPINFO@@PEAI@Z 0000000180031754     POSKeyboard.obj
 0002:0000b754       $unwind$?ReleaseDevice@COPOSPOSKeyboard@@UEAAJPEAJ@Z 0000000180031754     POSKeyboardImpl.obj
 0002:0000b754       $unwind$_mbsdec_l          0000000180031754     libucrt:mbsdec.obj
 0002:0000b760       $unwind$?atlCreate@?$CWindowImpl@VCOPOSPOSKeyboard@@VCWindow@ATL@@V?$CWinTraits@$0FGAAAAAA@$0A@@3@@ATL@@QEAAPEAUHWND__@@PEAU3@V_U_RECT@2@PEB_WKKV_U_MENUorID@2@PEAX@Z 0000000180031760     POSKeyboard.obj
 0002:0000b760       $unwind$?fp_format_f@@YAHQEBNQEAD_K12HW4__acrt_rounding_mode@@AEAV__crt_cached_ptd_host@@@Z 0000000180031760     libucrt:cvt.obj
 0002:0000b760       $unwind$__acrt_LCMapStringEx 0000000180031760     libucrt:winapi_thunks.obj
 0002:0000b774       $unwind$?CreateControlWindow@?$CComControl@VCOPOSPOSKeyboard@@V?$CWindowImpl@VCOPOSPOSKeyboard@@VCWindow@ATL@@V?$CWinTraits@$0FGAAAAAA@$0A@@3@@ATL@@@ATL@@UEAAPEAUHWND__@@PEAU3@AEAUtagRECT@@@Z 0000000180031774     POSKeyboard.obj
 0002:0000b774       $unwind$?ClearInput@COPOSPOSKeyboard@@UEAAJPEAJ@Z 0000000180031774     POSKeyboardImpl.obj
 0002:0000b774       $unwind$_raise_exc         0000000180031774     libucrt:fpexcept.obj
 0002:0000b774       $unwind$?__scrt_throw_std_bad_alloc@@YAXXZ 0000000180031774     LIBCMT:throw_bad_alloc.obj
 0002:0000b774       $unwind$?__scrt_throw_std_bad_array_new_length@@YAXXZ 0000000180031774     LIBCMT:throw_bad_alloc.obj
 0002:0000b77c       $unwind$?ProcessWindowMessage@?$CComControl@VCOPOSPOSKeyboard@@V?$CWindowImpl@VCOPOSPOSKeyboard@@VCWindow@ATL@@V?$CWinTraits@$0FGAAAAAA@$0A@@3@@ATL@@@ATL@@UEAAHPEAUHWND__@@I_K_JAEA_JK@Z 000000018003177c     POSKeyboard.obj
 0002:0000b784       $unwind$?GetSizeMax@?$IPersistStreamInitImpl@VCOPOSPOSKeyboard@@@ATL@@UEAAJPEAT_ULARGE_INTEGER@@@Z 0000000180031784     POSKeyboard.obj
 0002:0000b79c       $unwind$?IPersistStreamInit_Load@?$IPersistStreamInitImpl@VCOPOSPOSKeyboard@@@ATL@@QEAAJPEAUIStream@@PEBUATL_PROPMAP_ENTRY@2@@Z 000000018003179c     POSKeyboard.obj
 0002:0000b7b8       $unwind$?IPersistStreamInit_Save@?$IPersistStreamInitImpl@VCOPOSPOSKeyboard@@@ATL@@QEAAJPEAUIStream@@HPEBUATL_PROPMAP_ENTRY@2@@Z 00000001800317b8     POSKeyboard.obj
 0002:0000b7d4       $unwind$?DoVerbPrimary@?$IOleObjectImpl@VCOPOSPOSKeyboard@@@ATL@@QEAAJPEBUtagRECT@@PEAUHWND__@@@Z 00000001800317d4     POSKeyboard.obj
 0002:0000b7ec       $unwind$?TranslateAcceleratorW@?$IOleInPlaceActiveObjectImpl@VCOPOSPOSKeyboard@@@ATL@@UEAAJPEAUtagMSG@@@Z 00000001800317ec     POSKeyboard.obj
 0002:0000b7f8       $unwind$?Draw@?$IViewObjectExImpl@VCOPOSPOSKeyboard@@@ATL@@UEAAJKJPEAXPEAUtagDVTARGETDEVICE@@PEAUHDC__@@2PEBU_RECTL@@3P6AH_K@Z4@Z 00000001800317f8     POSKeyboard.obj
 0002:0000b800       $unwind$?QueryHitRect@?$IViewObjectExImpl@VCOPOSPOSKeyboard@@@ATL@@UEAAJKPEBUtagRECT@@0JPEAK@Z 0000000180031800     POSKeyboard.obj
 0002:0000b810       $unwind$?OnWindowMessage@?$IOleInPlaceObjectWindowlessImpl@VCOPOSPOSKeyboard@@@ATL@@UEAAJI_K_JPEA_J@Z 0000000180031810     POSKeyboard.obj
 0002:0000b824       $unwind$?EnumConnectionPoints@?$IConnectionPointContainerImpl@VCOPOSPOSKeyboard@@@ATL@@UEAAJPEAPEAUIEnumConnectionPoints@@@Z 0000000180031824     POSKeyboard.obj
 0002:0000b84c       $unwind$?FindConnectionPoint@?$IConnectionPointContainerImpl@VCOPOSPOSKeyboard@@@ATL@@UEAAJAEBU_GUID@@PEAPEAUIConnectionPoint@@@Z 000000018003184c     POSKeyboard.obj
 0002:0000b868       $unwind$?Load@?$IPersistStorageImpl@VCOPOSPOSKeyboard@@@ATL@@UEAAJPEAUIStorage@@@Z 0000000180031868     POSKeyboard.obj
 0002:0000b878       $unwind$?Save@?$IPersistStorageImpl@VCOPOSPOSKeyboard@@@ATL@@UEAAJPEAUIStorage@@H@Z 0000000180031878     POSKeyboard.obj
 0002:0000b88c       $unwind$?IPSI_GetIPersistStreamInit@?$IPersistStorageImpl@VCOPOSPOSKeyboard@@@ATL@@AEAAPEAUIPersistStreamInit@@XZ 000000018003188c     POSKeyboard.obj
 0002:0000b8a0       $unwind$?GetInterfaceSafetyOptions@?$IObjectSafetyImpl@VCOPOSPOSKeyboard@@$02@ATL@@UEAAJAEBU_GUID@@PEAK1@Z 00000001800318a0     POSKeyboard.obj
 0002:0000b8b4       $unwind$?SetInterfaceSafetyOptions@?$IObjectSafetyImpl@VCOPOSPOSKeyboard@@$02@ATL@@UEAAJAEBU_GUID@@KK@Z 00000001800318b4     POSKeyboard.obj
 0002:0000b8c8       $unwind$?Advise@?$IConnectionPointImpl@VCOPOSPOSKeyboard@@$1?DIID__IOPOSPOSKeyboardEvents@@3U_GUID@@BVCComDynamicUnkArray@ATL@@@ATL@@UEAAJPEAUIUnknown@@PEAK@Z 00000001800318c8     POSKeyboard.obj
 0002:0000b8c8       $unwind$?Advise@?$IConnectionPointImpl@VCOPOSPOSKeyboard@@$1?IID_IPropertyNotifySink@@3U_GUID@@BVCComDynamicUnkArray@ATL@@@ATL@@UEAAJPEAUIUnknown@@PEAK@Z 00000001800318c8     POSKeyboard.obj
 0002:0000b8dc       $unwind$?EnumConnections@?$IConnectionPointImpl@VCOPOSPOSKeyboard@@$1?DIID__IOPOSPOSKeyboardEvents@@3U_GUID@@BVCComDynamicUnkArray@ATL@@@ATL@@UEAAJPEAPEAUIEnumConnections@@@Z 00000001800318dc     POSKeyboard.obj
 0002:0000b8dc       $unwind$?EnumConnections@?$IConnectionPointImpl@VCOPOSPOSKeyboard@@$1?IID_IPropertyNotifySink@@3U_GUID@@BVCComDynamicUnkArray@ATL@@@ATL@@UEAAJPEAPEAUIEnumConnections@@@Z 00000001800318dc     POSKeyboard.obj
 0002:0000b8f4       $unwind$?Fire_DataEvent@?$CProxy_IOPOSEvents@VCOPOSPOSKeyboard@@@@QEAAXJ@Z 00000001800318f4     POSKeyboard.obj
 0002:0000b8f4       $unwind$?Fire_StatusUpdateEvent@?$CProxy_IOPOSEvents@VCOPOSPOSKeyboard@@@@QEAAXJ@Z 00000001800318f4     POSKeyboard.obj
 0002:0000b8f4       $unwind$?fp_format_e@@YAHQEBNQEAD_K12H_NIW4__acrt_rounding_mode@@AEAV__crt_cached_ptd_host@@@Z 00000001800318f4     libucrt:cvt.obj
 0002:0000b8f4       $unwind$??$__InternalCxxFrameHandler@V__FrameHandler3@@@@YA?AW4_EXCEPTION_DISPOSITION@@PEAUEHExceptionRecord@@PEA_KPEAU_CONTEXT@@PEAU_xDISPATCHER_CONTEXT@@PEBU_s_FuncInfo@@H1E@Z 00000001800318f4     libvcruntime:frame.obj
 0002:0000b90c       $unwind$?Fire_DirectIOEvent@?$CProxy_IOPOSEvents@VCOPOSPOSKeyboard@@@@QEAAXJPEAJPEAPEA_W@Z 000000018003190c     POSKeyboard.obj
 0002:0000b92c       $unwind$?Fire_ErrorEvent@?$CProxy_IOPOSEvents@VCOPOSPOSKeyboard@@@@QEAAXJJJPEAJ@Z 000000018003192c     POSKeyboard.obj
 0002:0000b94c       $unwind$?FireTheEvent@?$CProxy_IOPOSEvents@VCOPOSPOSKeyboard@@@@IEAAXPEAVOposVariant@@IAEAJPEB_WJ@Z 000000018003194c     POSKeyboard.obj
 0002:0000b95c       $unwind$?ProcessWindowMessage@COPOSPOSKeyboard@@UEAAHPEAUHWND__@@I_K_JAEA_JK@Z 000000018003195c     POSKeyboard.obj
 0002:0000b974       $unwind$?SOError@COPOSPOSKeyboard@@MEAAJJJJPEAJ@Z 0000000180031974     POSKeyboard.obj
 0002:0000b974       $unwind$??$common_lseek_nolock@_J@@YA_JH_JHAEAV__crt_cached_ptd_host@@@Z 0000000180031974     libucrt:lseek.obj
 0002:0000b974       $unwind$_invalid_parameter_internal 0000000180031974     libucrt:invalid_parameter.obj
 0002:0000b974       $unwind$??$type_case_integer@$07@?$output_processor@_WV?$string_output_adapter@_W@__crt_stdio_output@@V?$format_validation_base@_WV?$string_output_adapter@_W@__crt_stdio_output@@@2@@__crt_stdio_output@@AEAA_N_N@Z 0000000180031974     libucrt:output.obj
 0002:0000b974       $unwind$??$type_case_integer@$09@?$output_processor@_WV?$string_output_adapter@_W@__crt_stdio_output@@V?$format_validation_base@_WV?$string_output_adapter@_W@__crt_stdio_output@@@2@@__crt_stdio_output@@AEAA_N_N@Z 0000000180031974     libucrt:output.obj
 0002:0000b974       $unwind$??$type_case_integer@$0BA@@?$output_processor@_WV?$string_output_adapter@_W@__crt_stdio_output@@V?$format_validation_base@_WV?$string_output_adapter@_W@__crt_stdio_output@@@2@@__crt_stdio_output@@AEAA_N_N@Z 0000000180031974     libucrt:output.obj
 0002:0000b988       $unwind$?Clone@?$CComEnumImpl@UIEnumConnectionPoints@@$1?_GUID_b196b285_bab4_101a_b69c_00aa00341d07@@3U__s_GUID@@BPEAUIConnectionPoint@@V?$_CopyInterface@UIConnectionPoint@@@ATL@@@ATL@@UEAAJPEAPEAUIEnumConnectionPoints@@@Z 0000000180031988     POSKeyboard.obj
 0002:0000b988       $unwind$?Clone@?$CComEnumImpl@UIEnumConnections@@$1?_GUID_b196b287_bab4_101a_b69c_00aa00341d07@@3U__s_GUID@@BUtagCONNECTDATA@@V?$_Copy@UtagCONNECTDATA@@@ATL@@@ATL@@UEAAJPEAPEAUIEnumConnections@@@Z 0000000180031988     POSKeyboard.obj
 0002:0000b9a0       $unwind$?Init@?$CComEnumImpl@UIEnumConnectionPoints@@$1?_GUID_b196b285_bab4_101a_b69c_00aa00341d07@@3U__s_GUID@@BPEAUIConnectionPoint@@V?$_CopyInterface@UIConnectionPoint@@@ATL@@@ATL@@QEAAJPEAPEAUIConnectionPoint@@0PEAUIUnknown@@W4CComEnumFlags@2@@Z 00000001800319a0     POSKeyboard.obj
 0002:0000b9a0       $unwind$?Init@?$CComEnumImpl@UIEnumConnections@@$1?_GUID_b196b287_bab4_101a_b69c_00aa00341d07@@3U__s_GUID@@BUtagCONNECTDATA@@V?$_Copy@UtagCONNECTDATA@@@ATL@@@ATL@@QEAAJPEAUtagCONNECTDATA@@0PEAUIUnknown@@W4CComEnumFlags@2@@Z 00000001800319a0     POSKeyboard.obj
 0002:0000b9a0       $unwind$?should_round_up@@YA_NQEBN_KFW4__acrt_rounding_mode@@@Z 00000001800319a0     libucrt:cvt.obj
 0002:0000b9a0       $unwind$??$parse_command_line@D@@YAXPEADPEAPEAD0PEA_K2@Z 00000001800319a0     libucrt:argv_parsing.obj
 0002:0000b9bc       $unwind$?GetOposProp@COPOSPOSKeyboard@@IEAAJJPEAJJ@Z 00000001800319bc     POSKeyboardImpl.obj
 0002:0000b9bc       $unwind$?GetOposProp@COPOSPOSKeyboard@@IEAAJJPEAPEA_WJ@Z 00000001800319bc     POSKeyboardImpl.obj
 0002:0000b9d4       $unwind$?SetOposProp@COPOSPOSKeyboard@@IEAAJJJJ@Z 00000001800319d4     POSKeyboardImpl.obj
 0002:0000b9f4       $unwind$?DoInvoke@COPOSPOSKeyboard@@IEAAJJPEAVOposVariant@@IHPEAJ_N@Z 00000001800319f4     POSKeyboardImpl.obj
 0002:0000ba0c       $unwind$?SetCOFreezeEvents@COPOSPOSKeyboard@@IEAAXF@Z 0000000180031a0c     POSKeyboardImpl.obj
 0002:0000ba20       $unwind$?OnDraw@COPOSPOSKeyboard@@MEAAJAEAUATL_DRAWINFO@@@Z 0000000180031a20     POSKeyboardImpl.obj
 0002:0000ba38       $unwind$?EventInit@COPOSPOSKeyboard@@IEAAJXZ 0000000180031a38     POSKeyboardImpl.obj
 0002:0000ba4c       $unwind$?EventWindowProc@COPOSPOSKeyboard@@IEAA_JI_K_J@Z 0000000180031a4c     POSKeyboardImpl.obj
 0002:0000ba4c       $unwind$?type_case_n@?$output_processor@_WV?$string_output_adapter@_W@__crt_stdio_output@@V?$format_validation_base@_WV?$string_output_adapter@_W@__crt_stdio_output@@@2@@__crt_stdio_output@@AEAA_NXZ 0000000180031a4c     libucrt:output.obj
 0002:0000ba58       $unwind$?get_ControlObjectDescription@COPOSPOSKeyboard@@UEAAJPEAPEA_W@Z 0000000180031a58     POSKeyboardImpl.obj
 0002:0000ba58       $unwind$__dcrt_lowio_ensure_console_output_initialized 0000000180031a58     libucrt:initcon.obj
 0002:0000ba58       $unwind$?__mbrtowc_utf8@__crt_mbstring@@YA_KPEA_WPEBD_KPEAU_Mbstatet@@AEAV__crt_cached_ptd_host@@@Z 0000000180031a58     libucrt:mbrtowc.obj
 0002:0000ba58       $unwind$?getSystemCP@@YAHH@Z 0000000180031a58     libucrt:mbctype.obj
 0002:0000ba60       $unwind$?CheckHealth@COPOSPOSKeyboard@@UEAAJJPEAJ@Z 0000000180031a60     POSKeyboardImpl.obj
 0002:0000ba60       $unwind$?ResetStatistics@COPOSPOSKeyboard@@UEAAJPEA_WPEAJ@Z 0000000180031a60     POSKeyboardImpl.obj
 0002:0000ba60       $unwind$?RetrieveStatistics@COPOSPOSKeyboard@@UEAAJPEAPEA_WPEAJ@Z 0000000180031a60     POSKeyboardImpl.obj
 0002:0000ba60       $unwind$?UpdateFirmware@COPOSPOSKeyboard@@UEAAJPEA_WPEAJ@Z 0000000180031a60     POSKeyboardImpl.obj
 0002:0000ba60       $unwind$?UpdateStatistics@COPOSPOSKeyboard@@UEAAJPEA_WPEAJ@Z 0000000180031a60     POSKeyboardImpl.obj
 0002:0000ba70       $unwind$?ClaimDevice@COPOSPOSKeyboard@@UEAAJJPEAJ@Z 0000000180031a70     POSKeyboardImpl.obj
 0002:0000ba80       $unwind$?Close@COPOSPOSKeyboard@@UEAAJPEAJ@Z 0000000180031a80     POSKeyboardImpl.obj
 0002:0000ba8c       $unwind$?DirectIO@COPOSPOSKeyboard@@UEAAJJPEAJPEAPEA_W0@Z 0000000180031a8c     POSKeyboardImpl.obj
 0002:0000baa8       $unwind$?Open@COPOSPOSKeyboard@@UEAAJPEA_WPEAJ@Z 0000000180031aa8     POSKeyboardImpl.obj
 0002:0000bacc       $unwind$?CompareFirmwareVersion@COPOSPOSKeyboard@@UEAAJPEA_WPEAJ1@Z 0000000180031acc     POSKeyboardImpl.obj
 0002:0000bacc       $unwind$?initialize_inherited_file_handles_nolock@@YAXXZ 0000000180031acc     libucrt:ioinit.obj
 0002:0000bae8       $unwind$__scrt_is_nonwritable_in_current_image 0000000180031ae8     LIBCMT:utility.obj
 0002:0000bb08       $unwind$__scrt_is_nonwritable_in_current_image$filt$0 0000000180031b08     LIBCMT:utility.obj
 0002:0000bb10       $unwind$__report_securityfailure 0000000180031b10     LIBCMT:gs_report.obj
 0002:0000bb18       $unwind$__report_gsfailure 0000000180031b18     LIBCMT:gs_report.obj
 0002:0000bb20       $unwind$capture_current_context 0000000180031b20     LIBCMT:gs_report.obj
 0002:0000bb2c       $unwind$capture_previous_context 0000000180031b2c     LIBCMT:gs_report.obj
 0002:0000bb38       $unwind$??2@YAPEAX_KAEBUnothrow_t@std@@@Z 0000000180031b38     LIBCMT:new_scalar_nothrow.obj
 0002:0000bb48       $cppxdata$??2@YAPEAX_KAEBUnothrow_t@std@@@Z 0000000180031b48     LIBCMT:new_scalar_nothrow.obj
 0002:0000bb55       $stateUnwindMap$??2@YAPEAX_KAEBUnothrow_t@std@@@Z 0000000180031b55     LIBCMT:new_scalar_nothrow.obj
 0002:0000bb58       $tryMap$??2@YAPEAX_KAEBUnothrow_t@std@@@Z 0000000180031b58     LIBCMT:new_scalar_nothrow.obj
 0002:0000bb60       $handlerMap$??2@YAPEAX_KAEBUnothrow_t@std@@@Z 0000000180031b60     LIBCMT:new_scalar_nothrow.obj
 0002:0000bb68       $ip2state$??2@YAPEAX_KAEBUnothrow_t@std@@@Z 0000000180031b68     LIBCMT:new_scalar_nothrow.obj
 0002:0000bb6c       $unwind$?catch$0@?0???2@YAPEAX_KAEBUnothrow_t@std@@@Z@4HA 0000000180031b6c     LIBCMT:new_scalar_nothrow.obj
 0002:0000bb7c       $cppxdata$?catch$0@?0???2@YAPEAX_KAEBUnothrow_t@std@@@Z@4HA 0000000180031b7c     LIBCMT:new_scalar_nothrow.obj
 0002:0000bb86       $stateUnwindMap$?catch$0@?0???2@YAPEAX_KAEBUnothrow_t@std@@@Z@4HA 0000000180031b86     LIBCMT:new_scalar_nothrow.obj
 0002:0000bb88       $ip2state$?catch$0@?0???2@YAPEAX_KAEBUnothrow_t@std@@@Z@4HA 0000000180031b88     LIBCMT:new_scalar_nothrow.obj
 0002:0000bb8c       $unwind$__GSHandlerCheckCommon 0000000180031b8c     LIBCMT:gshandler.obj
 0002:0000bb98       $xdatasym                  0000000180031b98     LIBCMT:chkstk.obj
 0002:0000bba0       $xdatasym                  0000000180031ba0     LIBCMT:amdsecgs.obj
 0002:0000bba4       $unwind$?dllmain_crt_process_attach@@YAHQEAUHINSTANCE__@@QEAX@Z 0000000180031ba4     LIBCMT:dll_dllmain.obj
 0002:0000bbe0       $unwind$?dllmain_crt_process_detach@@YAH_N@Z 0000000180031be0     LIBCMT:dll_dllmain.obj
 0002:0000bc34       $unwind$?dllmain_dispatch@@YAHQEAUHINSTANCE__@@KQEAX@Z 0000000180031c34     LIBCMT:dll_dllmain.obj
 0002:0000bc5c       $unwind$_write_internal$fin$0 0000000180031c5c     libucrt:write.obj
 0002:0000bc5c       $unwind$?fin$0@?0??_fclose_internal@@YAHQEAU_iobuf@@AEAV__crt_cached_ptd_host@@@Z@4HA 0000000180031c5c     libucrt:fclose.obj
 0002:0000bc5c       $unwind$?filt$0@?0??dllmain_dispatch@@YAHQEAUHINSTANCE__@@KQEAX@Z@4HA 0000000180031c5c     LIBCMT:dll_dllmain.obj
 0002:0000bc5c       $unwind$?filt$0@?0??FrameUnwindToState@__FrameHandler4@@SAXPEA_KPEAU_xDISPATCHER_CONTEXT@@PEAUFuncInfo4@FH4@@H@Z@4HA 0000000180031c5c     libvcruntime:frame.obj
 0002:0000bc5c       $unwind$?fin$1@?0??FrameUnwindToState@__FrameHandler4@@SAXPEA_KPEAU_xDISPATCHER_CONTEXT@@PEAUFuncInfo4@FH4@@H@Z@4HA 0000000180031c5c     libvcruntime:frame.obj
 0002:0000bc64       $unwind$__isa_available_init 0000000180031c64     LIBCMT:cpu_disp.obj
 0002:0000bc74       $unwind$__scrt_fastfail    0000000180031c74     LIBCMT:utility_desktop.obj
 0002:0000bc84       $unwind$__security_init_cookie 0000000180031c84     LIBCMT:gs_support.obj
 0002:0000bc90       $xdatasym                  0000000180031c90     LIBCMT:guard_dispatch.obj
 0002:0000bc98       $xdatasym                  0000000180031c98     LIBCMT:guard_xfg_dispatch.obj
 0002:0000bc9c       $unwind$AtlThunk_InitData  0000000180031c9c     atls:atlthunk.obj
 0002:0000bcb0       $unwind$wcsstr             0000000180031cb0     libvcruntime:wcsstr.obj
 0002:0000bcc8       $xdatasym                  0000000180031cc8     libvcruntime:memcmp.obj
 0002:0000bcd0       $xdatasym                  0000000180031cd0     libvcruntime:memcpy.obj
 0002:0000bce0       $xdatasym                  0000000180031ce0     libvcruntime:memset.obj
 0002:0000bcf0       $unwind$__C_specific_handler 0000000180031cf0     libvcruntime:riscchandler.obj
 0002:0000bcf0       $unwind$?GetRangeOfTrysToCheck@__FrameHandler3@@SA?AU?$pair@Viterator@TryBlockMap@__FrameHandler3@@V123@@std@@AEAVTryBlockMap@1@HPEAU_xDISPATCHER_CONTEXT@@PEBU_s_FuncInfo@@H@Z 0000000180031cf0     libvcruntime:risctrnsctrl.obj
 0002:0000bd0c       $unwind$?StateFromIp@__FrameHandler4@@SAHPEAUFuncInfo4@FH4@@PEAU_xDISPATCHER_CONTEXT@@_K@Z 0000000180031d0c     libvcruntime:ehstate.obj
 0002:0000bd0c       $unwind$?DecompFuncInfo@FH4@@YA_JPEAEAEAUFuncInfo4@1@_KH_N@Z 0000000180031d0c     libvcruntime:risctrnsctrl.obj
 0002:0000bd24       $unwind$?GetEstablisherFrame@__FrameHandler3@@SAPEA_KPEA_KPEAU_xDISPATCHER_CONTEXT@@PEBU_s_FuncInfo@@0@Z 0000000180031d24     libvcruntime:risctrnsctrl.obj
 0002:0000bd3c       $unwind$?UnwindNestedFrames@__FrameHandler3@@SAXPEA_KPEAUEHExceptionRecord@@PEAU_CONTEXT@@0PEAXPEBU_s_FuncInfo@@HHPEBU_s_HandlerType@@PEAU_xDISPATCHER_CONTEXT@@E@Z 0000000180031d3c     libvcruntime:risctrnsctrl.obj
 0002:0000bd3c       $unwind$?UnwindNestedFrames@__FrameHandler4@@SAXPEA_KPEAUEHExceptionRecord@@PEAU_CONTEXT@@0PEAXPEAUFuncInfo4@FH4@@HHPEAUHandlerType4@5@PEAU_xDISPATCHER_CONTEXT@@E@Z 0000000180031d3c     libvcruntime:risctrnsctrl.obj
 0002:0000bd50       $unwind$?GetRangeOfTrysToCheck@__FrameHandler4@@SA?AU?$pair@Viterator@TryBlockMap4@FH4@@V123@@std@@AEAVTryBlockMap4@FH4@@HPEAU_xDISPATCHER_CONTEXT@@PEAUFuncInfo4@5@H@Z 0000000180031d50     libvcruntime:risctrnsctrl.obj
 0002:0000bd6c       $unwind$__CxxFrameHandler3 0000000180031d6c     libvcruntime:risctrnsctrl.obj
 0002:0000bd80       $unwind$__CxxFrameHandler4 0000000180031d80     libvcruntime:risctrnsctrl.obj
 0002:0000bd94       $unwind$??$_CallSETranslator@V__FrameHandler4@@@@YAHPEAUEHExceptionRecord@@PEA_KPEAU_CONTEXT@@PEAU_xDISPATCHER_CONTEXT@@PEAUFuncInfo4@FH4@@K1H@Z 0000000180031d94     libvcruntime:risctrnsctrl.obj
 0002:0000bdb4       $unwind$?filt$0@?0???$_CallSETranslator@V__FrameHandler3@@@@YAHPEAUEHExceptionRecord@@PEA_KPEAU_CONTEXT@@PEAU_xDISPATCHER_CONTEXT@@PEBU_s_FuncInfo@@K1H@Z@4HA 0000000180031db4     libvcruntime:risctrnsctrl.obj
 0002:0000bdb4       $unwind$?filt$0@?0???$_CallSETranslator@V__FrameHandler4@@@@YAHPEAUEHExceptionRecord@@PEA_KPEAU_CONTEXT@@PEAU_xDISPATCHER_CONTEXT@@PEAUFuncInfo4@FH4@@K1H@Z@4HA 0000000180031db4     libvcruntime:risctrnsctrl.obj
 0002:0000bdc0       $unwind$??$_CallSETranslator@V__FrameHandler3@@@@YAHPEAUEHExceptionRecord@@PEA_KPEAU_CONTEXT@@PEAU_xDISPATCHER_CONTEXT@@PEBU_s_FuncInfo@@K1H@Z 0000000180031dc0     libvcruntime:risctrnsctrl.obj
 0002:0000bde0       $unwind$__DestructExceptionObject 0000000180031de0     libvcruntime:ehhelpers.obj
 0002:0000be00       $unwind$__DestructExceptionObject$filt$0 0000000180031e00     libvcruntime:ehhelpers.obj
 0002:0000be00       $unwind$?fin$1@?0??CxxCallCatchBlock@__FrameHandler3@@SAPEAXPEAU_EXCEPTION_RECORD@@@Z@4HA 0000000180031e00     libvcruntime:frame.obj
 0002:0000be00       $unwind$?fin$1@?0??CxxCallCatchBlock@__FrameHandler4@@SAPEAXPEAU_EXCEPTION_RECORD@@@Z@4HA 0000000180031e00     libvcruntime:frame.obj
 0002:0000be0c       $unwind$_CxxThrowException 0000000180031e0c     libvcruntime:throw.obj
 0002:0000be20       $xdatasym                  0000000180031e20     libvcruntime:notify.obj
 0002:0000be2c       $unwind$?getStartStop@UWMap4@FH4@@QEAAXHHAEAViterator@12@0@Z 0000000180031e2c     libvcruntime:frame.obj
 0002:0000be44       $unwind$?FrameUnwindToState@__FrameHandler3@@SAXPEA_KPEAU_xDISPATCHER_CONTEXT@@PEBU_s_FuncInfo@@H@Z 0000000180031e44     libvcruntime:frame.obj
 0002:0000be90       $unwind$?CxxCallCatchBlock@__FrameHandler3@@SAPEAXPEAU_EXCEPTION_RECORD@@@Z 0000000180031e90     libvcruntime:frame.obj
 0002:0000becc       $unwind$?FrameUnwindToState@__FrameHandler4@@SAXPEA_KPEAU_xDISPATCHER_CONTEXT@@PEAUFuncInfo4@FH4@@H@Z 0000000180031ecc     libvcruntime:frame.obj
 0002:0000bf14       $unwind$?CxxCallCatchBlock@__FrameHandler4@@SAPEAXPEAU_EXCEPTION_RECORD@@@Z 0000000180031f14     libvcruntime:frame.obj
 0002:0000bf70       $unwind$?IsInExceptionSpec@@YAEPEAUEHExceptionRecord@@PEBU_s_ESTypeList@@@Z 0000000180031f70     libvcruntime:frame.obj
 0002:0000bf8c       $unwind$??$__InternalCxxFrameHandler@V__FrameHandler4@@@@YA?AW4_EXCEPTION_DISPOSITION@@PEAUEHExceptionRecord@@PEA_KPEAU_CONTEXT@@PEAU_xDISPATCHER_CONTEXT@@PEAUFuncInfo4@FH4@@H1E@Z 0000000180031f8c     libvcruntime:frame.obj
 0002:0000bfa4       $unwind$??$BuildCatchObjectHelperInternal@V__FrameHandler3@@@@YAHPEAUEHExceptionRecord@@PEAXPEBU_s_HandlerType@@PEBU_s_CatchableType@@@Z 0000000180031fa4     libvcruntime:frame.obj
 0002:0000bfe4       $unwind$??$BuildCatchObjectHelperInternal@V__FrameHandler4@@@@YAHPEAUEHExceptionRecord@@PEAXPEAUHandlerType4@FH4@@PEBU_s_CatchableType@@@Z 0000000180031fe4     libvcruntime:frame.obj
 0002:0000c024       $unwind$??$BuildCatchObjectInternal@V__FrameHandler3@@@@YAXPEAUEHExceptionRecord@@PEAXPEBU_s_HandlerType@@PEBU_s_CatchableType@@@Z 0000000180032024     libvcruntime:frame.obj
 0002:0000c050       $unwind$??$BuildCatchObjectInternal@V__FrameHandler4@@@@YAXPEAUEHExceptionRecord@@PEAXPEAUHandlerType4@FH4@@PEBU_s_CatchableType@@@Z 0000000180032050     libvcruntime:frame.obj
 0002:0000c07c       $unwind$??$FindHandler@V__FrameHandler3@@@@YAXPEAUEHExceptionRecord@@PEA_KPEAU_CONTEXT@@PEAU_xDISPATCHER_CONTEXT@@PEBU_s_FuncInfo@@EH1@Z 000000018003207c     libvcruntime:frame.obj
 0002:0000c09c       $unwind$??$FindHandler@V__FrameHandler4@@@@YAXPEAUEHExceptionRecord@@PEA_KPEAU_CONTEXT@@PEAU_xDISPATCHER_CONTEXT@@PEAUFuncInfo4@FH4@@EH1@Z 000000018003209c     libvcruntime:frame.obj
 0002:0000c0bc       $unwind$??$CatchIt@V__FrameHandler3@@@@YAXPEAUEHExceptionRecord@@PEA_KPEAU_CONTEXT@@PEAU_xDISPATCHER_CONTEXT@@PEBU_s_FuncInfo@@PEBU_s_HandlerType@@PEBU_s_CatchableType@@PEBU_s_TryBlockMapEntry@@H1EE@Z 00000001800320bc     libvcruntime:frame.obj
 0002:0000c0bc       $unwind$??$CatchIt@V__FrameHandler4@@@@YAXPEAUEHExceptionRecord@@PEA_KPEAU_CONTEXT@@PEAU_xDISPATCHER_CONTEXT@@PEAUFuncInfo4@FH4@@PEAUHandlerType4@4@PEBU_s_CatchableType@@PEAUTryBlockMapEntry4@4@H1EE@Z 00000001800320bc     libvcruntime:frame.obj
 0002:0000c0d4       $unwind$??$FindHandlerForForeignException@V__FrameHandler3@@@@YAXPEAUEHExceptionRecord@@PEA_KPEAU_CONTEXT@@PEAU_xDISPATCHER_CONTEXT@@PEBU_s_FuncInfo@@HH1@Z 00000001800320d4     libvcruntime:frame.obj
 0002:0000c0f0       $unwind$??$FindHandlerForForeignException@V__FrameHandler4@@@@YAXPEAUEHExceptionRecord@@PEA_KPEAU_CONTEXT@@PEAU_xDISPATCHER_CONTEXT@@PEAUFuncInfo4@FH4@@HH1@Z 00000001800320f0     libvcruntime:frame.obj
 0002:0000c110       $unwind$?try_get_function@@YAPEAXW4function_id@?A0x391cf84c@@QEBDQEBW4module_id@2@2@Z 0000000180032110     libucrt:winapi_thunks.obj
 0002:0000c110       $unwind$?try_get_function@@YAPEAXW4function_id@?A0xbc0cc709@@QEBDQEBW4module_id@2@2@Z 0000000180032110     libvcruntime:winapi_downlevel.obj
 0002:0000c130       $xdatasym                  0000000180032130     libvcruntime:handlers.obj
 0002:0000c150       $unwind$__acrt_call_reportfault 0000000180032150     libucrt:invalid_parameter.obj
 0002:0000c170       $unwind$_invalid_parameter 0000000180032170     libucrt:invalid_parameter.obj
 0002:0000c17c       $unwind$_resetstkoflw      000000018003217c     libucrt:resetstk.obj
 0002:0000c1a0       $unwind$__stdio_common_vswprintf_s 00000001800321a0     libucrt:output.obj
 0002:0000c1b4       $unwind$?write_string@?$string_output_adapter@_W@__crt_stdio_output@@QEBAXQEB_WHQEAHAEAV__crt_cached_ptd_host@@@Z 00000001800321b4     libucrt:output.obj
 0002:0000c1cc       $unwind$??$common_vsprintf@Vformat_validation_base@__crt_stdio_output@@_W@@YAH_KQEA_W0QEB_WAEAV__crt_cached_ptd_host@@QEAD@Z 00000001800321cc     libucrt:output.obj
 0002:0000c1ec       $unwind$?parse_int_from_format_string@?$output_processor@_WV?$string_output_adapter@_W@__crt_stdio_output@@V?$format_validation_base@_WV?$string_output_adapter@_W@__crt_stdio_output@@@2@@__crt_stdio_output@@AEAA_NQEAH@Z 00000001800321ec     libucrt:output.obj
 0002:0000c200       $unwind$?state_case_type@?$output_processor@_WV?$string_output_adapter@_W@__crt_stdio_output@@V?$format_validation_base@_WV?$string_output_adapter@_W@__crt_stdio_output@@@2@@__crt_stdio_output@@AEAA_NXZ 0000000180032200     libucrt:output.obj
 0002:0000c224       $unwind$?type_case_a@?$output_processor@_WV?$string_output_adapter@_W@__crt_stdio_output@@V?$format_validation_base@_WV?$string_output_adapter@_W@__crt_stdio_output@@@2@@__crt_stdio_output@@AEAA_NXZ 0000000180032224     libucrt:output.obj
 0002:0000c238       $unwind$??$parse_integer@KV?$c_string_character_source@_W@__crt_strtox@@$0A@@__crt_strtox@@YAKAEAV__crt_cached_ptd_host@@V?$c_string_character_source@_W@0@H_N@Z 0000000180032238     libucrt:output.obj
 0002:0000c254       $unwind$?try_cor_exit_process@@YAXI@Z 0000000180032254     libucrt:exit.obj
 0002:0000c268       $ip2state$?try_cor_exit_process@@YAXI@Z 0000000180032268     libucrt:exit.obj
 0002:0000c270       $unwind$?common_exit@@YAXHW4_crt_exit_cleanup_mode@@W4_crt_exit_return_mode@@@Z 0000000180032270     libucrt:exit.obj
 0002:0000c284       $stateUnwindMap$__dcrt_uninitialize_environments_nolock 0000000180032284     libucrt:environment_initialization.obj
 0002:0000c284       $stateUnwindMap$?common_exit@@YAXHW4_crt_exit_cleanup_mode@@W4_crt_exit_return_mode@@@Z 0000000180032284     libucrt:exit.obj
 0002:0000c284       $stateUnwindMap$_execute_onexit_table 0000000180032284     libucrt:onexit.obj
 0002:0000c290       $ip2state$?common_exit@@YAXHW4_crt_exit_cleanup_mode@@W4_crt_exit_return_mode@@@Z 0000000180032290     libucrt:exit.obj
 0002:0000c298       $unwind$??R<lambda_6e4b09c48022b2350581041d5f6b0c4c>@@QEBA@XZ 0000000180032298     libucrt:exit.obj
 0002:0000c2b8       $unwind$??$?RV<lambda_d80eeec6fff315bfe5c115232f3240e3>@@AEAV<lambda_6e4b09c48022b2350581041d5f6b0c4c>@@V<lambda_2358e3775559c9db80273638284d5e45>@@@?$__crt_seh_guarded_call@X@@QEAAX$$QEAV<lambda_d80eeec6fff315bfe5c115232f3240e3>@@AEAV<lambda_6e4b09c48022b2350581041d5f6b0c4c>@@$$QEAV<lambda_2358e3775559c9db80273638284d5e45>@@@Z 00000001800322b8     libucrt:exit.obj
 0002:0000c2dc       $unwind$__dcrt_uninitialize_environments_nolock 00000001800322dc     libucrt:environment_initialization.obj
 0002:0000c2ec       $unwind$??$free_environment@D@@YAXQEAPEAD@Z 00000001800322ec     libucrt:environment_initialization.obj
 0002:0000c2ec       $unwind$??$free_environment@_W@@YAXQEAPEA_W@Z 00000001800322ec     libucrt:environment_initialization.obj
 0002:0000c2ec       $unwind$_initterm          00000001800322ec     libucrt:initterm.obj
 0002:0000c2f8       $unwind$_register_onexit_function 00000001800322f8     libucrt:onexit.obj
 0002:0000c300       $unwind$_execute_onexit_table 0000000180032300     libucrt:onexit.obj
 0002:0000c310       $ip2state$_execute_onexit_table 0000000180032310     libucrt:onexit.obj
 0002:0000c318       $unwind$??R<lambda_22ebabd17bc4fa466a2aca6d8deb888d>@@QEBAHXZ 0000000180032318     libucrt:onexit.obj
 0002:0000c330       $unwind$??$?RV<lambda_638799b9deba96c50f710eeac98168cd>@@AEAV<lambda_22ebabd17bc4fa466a2aca6d8deb888d>@@V<lambda_a6f7d7db0129f75315ebf26d50c089f1>@@@?$__crt_seh_guarded_call@H@@QEAAH$$QEAV<lambda_638799b9deba96c50f710eeac98168cd>@@AEAV<lambda_22ebabd17bc4fa466a2aca6d8deb888d>@@$$QEAV<lambda_a6f7d7db0129f75315ebf26d50c089f1>@@@Z 0000000180032330     libucrt:onexit.obj
 0002:0000c354       $unwind$??$?RV<lambda_7777bce6b2f8c936911f934f8298dc43>@@AEAV<lambda_f03950bc5685219e0bcd2087efbe011e>@@V<lambda_3883c3dff614d5e0c5f61bb1ac94921c>@@@?$__crt_seh_guarded_call@H@@QEAAH$$QEAV<lambda_7777bce6b2f8c936911f934f8298dc43>@@AEAV<lambda_f03950bc5685219e0bcd2087efbe011e>@@$$QEAV<lambda_3883c3dff614d5e0c5f61bb1ac94921c>@@@Z 0000000180032354     libucrt:onexit.obj
 0002:0000c378       $unwind$_query_new_handler 0000000180032378     libucrt:new_handler.obj
 0002:0000c398       $unwind$terminate          0000000180032398     libucrt:terminate.obj
 0002:0000c3b8       $xdatasym                  00000001800323b8     libucrt:strncmp.obj
 0002:0000c3bc       $unwind$?construct_ptd_array@@YAXQEAU__acrt_ptd@@@Z 00000001800323bc     libucrt:per_thread_data.obj
 0002:0000c3c4       $unwind$?destroy_ptd_array@@YAXQEAU__acrt_ptd@@@Z 00000001800323c4     libucrt:per_thread_data.obj
 0002:0000c3cc       $unwind$??$?RV<lambda_0ae27a3a962d80f24befdcbee591983d>@@AEAV<lambda_8d0ee55de4b1038c4002e0adecdf1839>@@V<lambda_dc504788e8f1664fe9b84e20bfb512f2>@@@?$__crt_seh_guarded_call@X@@QEAAX$$QEAV<lambda_0ae27a3a962d80f24befdcbee591983d>@@AEAV<lambda_8d0ee55de4b1038c4002e0adecdf1839>@@$$QEAV<lambda_dc504788e8f1664fe9b84e20bfb512f2>@@@Z 00000001800323cc     libucrt:per_thread_data.obj
 0002:0000c3f0       $unwind$??$?RV<lambda_aa87e3671a710a21b5dc78c0bdf72e11>@@AEAV<lambda_92619d2358a28f41a33ba319515a20b9>@@V<lambda_6992ecaafeb10aed2b74cb1fae11a551>@@@?$__crt_seh_guarded_call@X@@QEAAX$$QEAV<lambda_aa87e3671a710a21b5dc78c0bdf72e11>@@AEAV<lambda_92619d2358a28f41a33ba319515a20b9>@@$$QEAV<lambda_6992ecaafeb10aed2b74cb1fae11a551>@@@Z 00000001800323f0     libucrt:per_thread_data.obj
 0002:0000c414       $unwind$??$?RV<lambda_f2e299630e499de9f9a165e60fcd3db5>@@AEAV<lambda_2ae9d31cdba2644fcbeaf08da7c24588>@@V<lambda_40d01ff24d0e7b3814fdbdcee8eab3c7>@@@?$__crt_seh_guarded_call@X@@QEAAX$$QEAV<lambda_f2e299630e499de9f9a165e60fcd3db5>@@AEAV<lambda_2ae9d31cdba2644fcbeaf08da7c24588>@@$$QEAV<lambda_40d01ff24d0e7b3814fdbdcee8eab3c7>@@@Z 0000000180032414     libucrt:per_thread_data.obj
 0002:0000c438       $unwind$??$?RV<lambda_2d41944a1d46af3157314b8a01080d33>@@AEAV<lambda_8f455de75cd7d7f24b4096f044d8b9e6>@@V<lambda_aa500f224e6afead328df44964fe2772>@@@?$__crt_seh_guarded_call@X@@QEAAX$$QEAV<lambda_2d41944a1d46af3157314b8a01080d33>@@AEAV<lambda_8f455de75cd7d7f24b4096f044d8b9e6>@@$$QEAV<lambda_aa500f224e6afead328df44964fe2772>@@@Z 0000000180032438     libucrt:per_thread_data.obj
 0002:0000c45c       $unwind$__acrt_uninitialize_locale 000000018003245c     libucrt:wsetlocale.obj
 0002:0000c45c       $unwind$__acrt_get_sigabrt_handler 000000018003245c     libucrt:signal.obj
 0002:0000c464       $unwind$??$?RV<lambda_410d79af7f07d98d83a3f525b3859a53>@@AEAV<lambda_3e16ef9562a7dcce91392c22ab16ea36>@@V<lambda_38119f0e861e05405d8a144b9b982f0a>@@@?$__crt_seh_guarded_call@X@@QEAAX$$QEAV<lambda_410d79af7f07d98d83a3f525b3859a53>@@AEAV<lambda_3e16ef9562a7dcce91392c22ab16ea36>@@$$QEAV<lambda_38119f0e861e05405d8a144b9b982f0a>@@@Z 0000000180032464     libucrt:wsetlocale.obj
 0002:0000c48c       $unwind$__acrt_initialize_winapi_thunks 000000018003248c     libucrt:winapi_thunks.obj
 0002:0000c48c       $unwind$__acrt_fenv_get_control 000000018003248c     libucrt:_fenvutils.obj
 0002:0000c494       $unwind$__acrt_fp_format   0000000180032494     libucrt:cvt.obj
 0002:0000c4a4       $unwind$?fp_format_e_internal@@YAHQEAD_KH_NIQEAU_strflt@@2AEAV__crt_cached_ptd_host@@@Z 00000001800324a4     libucrt:cvt.obj
 0002:0000c4c0       $unwind$?fp_format_a@@YAHQEBNPEAD_KQEAD2H_NIW4__acrt_rounding_mode@@AEAV__crt_cached_ptd_host@@@Z 00000001800324c0     libucrt:cvt.obj
 0002:0000c4dc       $unwind$?fp_format_g@@YAHQEBNQEAD_K12H_NIW4__acrt_rounding_mode@@AEAV__crt_cached_ptd_host@@@Z 00000001800324dc     libucrt:cvt.obj
 0002:0000c4f4       $unwind$__acrt_initialize_lowio 00000001800324f4     libucrt:ioinit.obj
 0002:0000c514       $unwind$??$common_expand_argv_wildcards@D@@YAHQEAPEADQEAPEAPEAD@Z 0000000180032514     libucrt:argv_wildcards.obj
 0002:0000c52c       $unwind$__dcrt_get_narrow_environment_from_os 000000018003252c     libucrt:get_environment_from_os.obj
 0002:0000c52c       $unwind$??$__acrt_convert_wcs_mbs_cp@_WDV<lambda_d8593a27d1aa8c02be35c86a17d324c4>@@U__crt_win32_buffer_internal_dynamic_resizing@@@@YAHQEB_WAEAV?$__crt_win32_buffer@DU__crt_win32_buffer_internal_dynamic_resizing@@@@AEBV<lambda_d8593a27d1aa8c02be35c86a17d324c4>@@I@Z 000000018003252c     libucrt:argv_wildcards.obj
 0002:0000c544       $unwind$??$copy_and_add_argument_to_buffer@D@@YAHQEBD0_KAEAV?$argument_list@D@?A0x5f5c8891@@@Z 0000000180032544     libucrt:argv_wildcards.obj
 0002:0000c560       $unwind$??$expand_argument_wildcards@D@@YAHQEAD0AEAV?$argument_list@D@?A0x5f5c8891@@@Z 0000000180032560     libucrt:argv_wildcards.obj
 0002:0000c580       $unwind$__acrt_GetModuleFileNameA 0000000180032580     libucrt:getmodulefilenamea.obj
 0002:0000c59c       $unwind$_setmbcp_nolock    000000018003259c     libucrt:mbctype.obj
 0002:0000c5bc       $unwind$?update_thread_multibyte_data_internal@@YAPEAU__crt_multibyte_data@@QEAU__acrt_ptd@@QEAPEAU1@@Z 00000001800325bc     libucrt:mbctype.obj
 0002:0000c5e4       $unwind$?setmbcp_internal@@YAHH_NQEAU__acrt_ptd@@QEAPEAU__crt_multibyte_data@@@Z 00000001800325e4     libucrt:mbctype.obj
 0002:0000c5fc       $unwind$?setSBUpLow@@YAXPEAU__crt_multibyte_data@@@Z 00000001800325fc     libucrt:mbctype.obj
 0002:0000c618       $unwind$??$?RV<lambda_efdfa57d1f175319df784efa44bb7b81>@@AEAV<lambda_5f0a4c1567f8adc6734073e5d1e1b35c>@@V<lambda_2e8a7d3640ea6ccb4c2413664c2db6fd>@@@?$__crt_seh_guarded_call@X@@QEAAX$$QEAV<lambda_efdfa57d1f175319df784efa44bb7b81>@@AEAV<lambda_5f0a4c1567f8adc6734073e5d1e1b35c>@@$$QEAV<lambda_2e8a7d3640ea6ccb4c2413664c2db6fd>@@@Z 0000000180032618     libucrt:mbctype.obj
 0002:0000c63c       $unwind$__acrt_WideCharToMultiByte 000000018003263c     libucrt:widechartomultibyte.obj
 0002:0000c648       $unwind$raise              0000000180032648     libucrt:signal.obj
 0002:0000c684       $unwind$??$?RV<lambda_450d765d439847d4c735a33c368b5fc0>@@AEAV<lambda_44731a7d0e6d81c3e6aa82d741081786>@@V<lambda_601a2a7da3b7a96e9554ac7215c4b07c>@@@?$__crt_seh_guarded_call@P6AXH@Z@@QEAAP6AXH@Z$$QEAV<lambda_450d765d439847d4c735a33c368b5fc0>@@AEAV<lambda_44731a7d0e6d81c3e6aa82d741081786>@@$$QEAV<lambda_601a2a7da3b7a96e9554ac7215c4b07c>@@@Z 0000000180032684     libucrt:signal.obj
 0002:0000c6a8       $unwind$fclose             00000001800326a8     libucrt:fclose.obj
 0002:0000c6a8       $unwind$_fflush_nolock     00000001800326a8     libucrt:fflush.obj
 0002:0000c6b8       $unwind$?common_flush_all@@YAH_N@Z 00000001800326b8     libucrt:fflush.obj
 0002:0000c6c0       $unwind$??$?RV<lambda_842d9ff0dc9ef11c61343bbaebe7f885>@@AEAV<lambda_c5860995281e5c4ce005b3de8f5874ee>@@V<lambda_d90129c13df834fdcbf8d2b88dafcf2d>@@@?$__crt_seh_guarded_call@X@@QEAAX$$QEAV<lambda_842d9ff0dc9ef11c61343bbaebe7f885>@@AEAV<lambda_c5860995281e5c4ce005b3de8f5874ee>@@$$QEAV<lambda_d90129c13df834fdcbf8d2b88dafcf2d>@@@Z 00000001800326c0     libucrt:fflush.obj
 0002:0000c6e4       $unwind$??$?RV<lambda_886d6c58226a84441f68b9f2b8217b83>@@AEAV<lambda_ab61a845afdef5b7c387490eaf3616ee>@@V<lambda_f7f22ab5edc0698d5f6905b0d3f44752>@@@?$__crt_seh_guarded_call@X@@QEAAX$$QEAV<lambda_886d6c58226a84441f68b9f2b8217b83>@@AEAV<lambda_ab61a845afdef5b7c387490eaf3616ee>@@$$QEAV<lambda_f7f22ab5edc0698d5f6905b0d3f44752>@@@Z 00000001800326e4     libucrt:fflush.obj
 0002:0000c70c       $unwind$__acrt_update_thread_locale_data 000000018003270c     libucrt:locale_refcounting.obj
 0002:0000c730       $unwind$__acrt_locale_free_monetary 0000000180032730     libucrt:initmon.obj
 0002:0000c738       $unwind$__acrt_locale_free_time 0000000180032738     libucrt:inittime.obj
 0002:0000c748       $unwind$__acrt_GetStringTypeA 0000000180032748     libucrt:getstringtypea.obj
 0002:0000c770       $unwind$__acrt_fp_strflt_to_string 0000000180032770     libucrt:_fptostr.obj
 0002:0000c78c       $unwind$__acrt_fltout      000000018003278c     libucrt:cfout.obj
 0002:0000c7ac       $unwind$?divide@__crt_strtox@@YA_KAEAUbig_integer@1@AEBU21@@Z 00000001800327ac     libucrt:cfout.obj
 0002:0000c7c4       $chain$0$?divide@__crt_strtox@@YA_KAEAUbig_integer@1@AEBU21@@Z 00000001800327c4     libucrt:cfout.obj
 0002:0000c7d8       $chain$1$?divide@__crt_strtox@@YA_KAEAUbig_integer@1@AEBU21@@Z 00000001800327d8     libucrt:cfout.obj
 0002:0000c7e8       $unwind$?__mbsrtowcs_utf8@__crt_mbstring@@YA_KPEA_WPEAPEBD_KPEAU_Mbstatet@@AEAV__crt_cached_ptd_host@@@Z 00000001800327e8     libucrt:mbrtowc.obj
 0002:0000c800       $unwind$_fcloseall         0000000180032800     libucrt:closeall.obj
 0002:0000c824       $unwind$__acrt_lowio_destroy_handle_array 0000000180032824     libucrt:osfinfo.obj
 0002:0000c834       $unwind$__acrt_lowio_ensure_fh_exists 0000000180032834     libucrt:osfinfo.obj
 0002:0000c860       $unwind$qsort              0000000180032860     libucrt:qsort.obj
 0002:0000c878       $chain$4$qsort             0000000180032878     libucrt:qsort.obj
 0002:0000c89c       $chain$5$qsort             000000018003289c     libucrt:qsort.obj
 0002:0000c8ac       $unwind$strpbrk            00000001800328ac     libucrt:strpbrk.obj
 0002:0000c8bc       $unwind$fallbackMethod     00000001800328bc     libucrt:strpbrk.obj
 0002:0000c8cc       $unwind$__acrt_LCMapStringA 00000001800328cc     libucrt:lcmapstringa.obj
 0002:0000c8dc       $unwind$?__acrt_LCMapStringA_stat@@YAHPEAU__crt_locale_pointers@@PEB_WKPEBDHPEADHHH@Z 00000001800328dc     libucrt:lcmapstringa.obj
 0002:0000c904       $unwind$_commit            0000000180032904     libucrt:commit.obj
 0002:0000c90c       $unwind$??$?RV<lambda_a37b2b86f63e897a80ea819b0eb08c01>@@AEAV<lambda_38ce7e780aa69e748d6df282ebc68efe>@@V<lambda_99fb1378e971ab6e7edea83e3a7a83a2>@@@?$__crt_seh_guarded_call@H@@QEAAH$$QEAV<lambda_a37b2b86f63e897a80ea819b0eb08c01>@@AEAV<lambda_38ce7e780aa69e748d6df282ebc68efe>@@$$QEAV<lambda_99fb1378e971ab6e7edea83e3a7a83a2>@@@Z 000000018003290c     libucrt:commit.obj
 0002:0000c930       $unwind$_write_nolock      0000000180032930     libucrt:write.obj
 0002:0000c948       $unwind$_write_internal    0000000180032948     libucrt:write.obj
 0002:0000c978       $unwind$?write_double_translated_ansi_nolock@@YA?AUwrite_result@?A0x17268360@@HQEBDIAEAV__crt_cached_ptd_host@@@Z 0000000180032978     libucrt:write.obj
 0002:0000c9a0       $ip2state$?write_double_translated_ansi_nolock@@YA?AUwrite_result@?A0x17268360@@HQEBDIAEAV__crt_cached_ptd_host@@@Z 00000001800329a0     libucrt:write.obj
 0002:0000c9a8       $unwind$?write_text_ansi_nolock@@YA?AUwrite_result@?A0x17268360@@HQEBDI@Z 00000001800329a8     libucrt:write.obj
 0002:0000c9a8       $unwind$?write_text_utf16le_nolock@@YA?AUwrite_result@?A0x17268360@@HQEBDI@Z 00000001800329a8     libucrt:write.obj
 0002:0000c9c8       $unwind$?write_text_utf8_nolock@@YA?AUwrite_result@?A0x17268360@@HQEBDI@Z 00000001800329c8     libucrt:write.obj
 0002:0000c9f0       $xdatasym                  00000001800329f0     libucrt:log10.obj
 0002:0000c9fc       $unwind$__acrt_fenv_set_control 00000001800329fc     libucrt:_fenvutils.obj
 0002:0000ca0c       $unwind$?__mbrtoc32_utf8@__crt_mbstring@@YA_KPEA_UPEBD_KPEAU_Mbstatet@@AEAV__crt_cached_ptd_host@@@Z 0000000180032a0c     libucrt:mbrtoc32.obj
 0002:0000ca28       $unwind$?_fclose_nolock_internal@@YAHQEAU_iobuf@@AEAV__crt_cached_ptd_host@@@Z 0000000180032a28     libucrt:fclose.obj
 0002:0000ca38       $unwind$?_fclose_internal@@YAHQEAU_iobuf@@AEAV__crt_cached_ptd_host@@@Z 0000000180032a38     libucrt:fclose.obj
 0002:0000ca5c       $unwind$_putwch_nolock     0000000180032a5c     libucrt:putwch.obj
 0002:0000ca64       $unwind$common_control87   0000000180032a64     libucrt:ieee.obj
 0002:0000ca90       $unwind$_call_matherr      0000000180032a90     libucrt:libm_error.obj
 0002:0000ca98       $unwind$_handle_error      0000000180032a98     libucrt:libm_error.obj
 0002:0000cab8       $unwind$__acrt_initialize_fma3 0000000180032ab8     libucrt:fma3_available.obj
 0002:0000cac0       $unwind$_log_special_common 0000000180032ac0     libucrt:log_special.obj
 0002:0000cacc       $unwind$_close_internal    0000000180032acc     libucrt:close.obj
 0002:0000cad4       $unwind$??$?RV<lambda_ad8af0d99a0adf03d037d7dffe354bb5>@@AEAV<lambda_c9ba49e555ba839a7b07aa3fbecb7617>@@V<lambda_2f1ebd5d68526518146ae959c9e734c8>@@@?$__crt_seh_guarded_call@H@@QEAAH$$QEAV<lambda_ad8af0d99a0adf03d037d7dffe354bb5>@@AEAV<lambda_c9ba49e555ba839a7b07aa3fbecb7617>@@$$QEAV<lambda_2f1ebd5d68526518146ae959c9e734c8>@@@Z 0000000180032ad4     libucrt:close.obj
 0002:0000caf8       $xdatasym                  0000000180032af8     libucrt:fpsr.obj
 0002:0000cb00       $unwind$_raise_exc_ex      0000000180032b00     libucrt:fpexcept.obj
 0002:0000cb14       $unwind$_ctrlfp            0000000180032b14     libucrt:fpctrl.obj
 0002:0000cb3c       $unwind$_IsNonwritableInCurrentImage 0000000180032b3c     LIBCMT:pesect.obj
 0002:0000cb60       $unwind$strrchr            0000000180032b60     libvcruntime:strrchr.obj
 0002:0000ccd0       .edata                     0000000180032cd0     OPOSPOSKeyboard.exp
 0002:0000ccf8       rgpv                       0000000180032cf8     OPOSPOSKeyboard.exp
 0002:0000cd08       rgszName                   0000000180032d08     OPOSPOSKeyboard.exp
 0002:0000cd18       rgwOrd                     0000000180032d18     OPOSPOSKeyboard.exp
 0002:0000cd20       szName                     0000000180032d20     OPOSPOSKeyboard.exp
 0002:0000cd34       $N00001                    0000000180032d34     OPOSPOSKeyboard.exp
 0002:0000cd44       $N00002                    0000000180032d44     OPOSPOSKeyboard.exp
 0002:0000cd56       $N00003                    0000000180032d56     OPOSPOSKeyboard.exp
 0002:0000cd68       $N00004                    0000000180032d68     OPOSPOSKeyboard.exp
 0002:0000d6b2       .idata$6                   00000001800336b2     kernel32:KERNEL32.dll
 0002:0000d8ca       .idata$6                   00000001800338ca     user32:USER32.dll
 0002:0000d9fe       .idata$6                   00000001800339fe     gdi32:GDI32.dll
 0002:0000daa4       .idata$6                   0000000180033aa4     advapi32:ADVAPI32.dll
 0002:0000dbc0       .idata$6                   0000000180033bc0     ole32:ole32.dll
 0002:0000dbca       .idata$6                   0000000180033bca     oleaut32:OLEAUT32.dll
 0003:000001c0       ?ObjectMap@@3PAU_ATL_OBJMAP_ENTRY30@ATL@@A 00000001800351c0     POSKeyboard.obj
 0003:000002d0       ?s_SOMethodNames@@3PAPEADA 00000001800352d0     POSKeyboardImpl.obj
 0003:00000360       ?s_RequiredMethodsPerRelease@@3PAHA 0000000180035360     POSKeyboardImpl.obj
 0003:000003c0       ?__vcrt_flsindex@@3KA      00000001800353c0     libvcruntime:per_thread_data.obj
 0003:000003d0       ?errno_no_memory@@3HA      00000001800353d0     libucrt:errno.obj
 0003:000003d4       ?doserrno_no_memory@@3KA   00000001800353d4     libucrt:errno.obj
 0003:000003e0       ?__acrt_flsindex@@3KA      00000001800353e0     libucrt:per_thread_data.obj
 0003:000008a0       _mbctypes                  00000001800358a0     libucrt:mbctype.obj
 0003:000009b0       _mbcasemaps                00000001800359b0     libucrt:mbctype.obj
 0003:00000ab0       ?__rgctypeflag@@3PADA      0000000180035ab0     libucrt:mbctype.obj
 0003:00000ac0       ?__rgcode_page_info@@3PAUcode_page_info@@A 0000000180035ac0     libucrt:mbctype.obj
 0003:00000d60       ?dazSupported@?1??common_control87@@9@9 0000000180035d60     libucrt:ieee.obj
 0003:00000d70       ?__dcrt_lowio_console_output_handle@@3PEAXEA 0000000180035d70     libucrt:initcon.obj
 0003:00000d80       ?dazSupported@?1??_ctrlfp@@9@9 0000000180035d80     libucrt:fpctrl.obj
 0003:00000fd0       ?is_initialized_as_dll@@3_NA 0000000180035fd0     LIBCMT:utility.obj
 0003:00000fd1       ?module_local_atexit_table_initialized@@3_NA 0000000180035fd1     LIBCMT:utility.obj
 0003:00000fd8       ?module_local_atexit_table@@3U_onexit_table_t@@A 0000000180035fd8     LIBCMT:utility.obj
 0003:00000ff0       ?module_local_at_quick_exit_table@@3U_onexit_table_t@@A 0000000180035ff0     LIBCMT:utility.obj
 0003:00001008       ?g_tss_cv@@3U_RTL_CONDITION_VARIABLE@@A 0000000180036008     LIBCMT:thread_safe_statics.obj
 0003:00001010       ?g_tss_event@@3PEAXEA      0000000180036010     LIBCMT:thread_safe_statics.obj
 0003:00001018       ?g_tss_mutex@@3U_RTL_CRITICAL_SECTION@@A 0000000180036018     LIBCMT:thread_safe_statics.obj
 0003:00001040       ?g_sleep_condition_variable_cs@@3P6AHPEAU_RTL_CONDITION_VARIABLE@@PEAU_RTL_CRITICAL_SECTION@@K@ZEA 0000000180036040     LIBCMT:thread_safe_statics.obj
 0003:00001048       ?g_wake_all_condition_variable@@3P6AXPEAU_RTL_CONDITION_VARIABLE@@@ZEA 0000000180036048     LIBCMT:thread_safe_statics.obj
 0003:00001050       GS_ExceptionRecord         0000000180036050     LIBCMT:gs_report.obj
 0003:000010f0       GS_ContextRecord           00000001800360f0     LIBCMT:gs_report.obj
 0003:000015c4       ?__proc_attached@@3HA      00000001800365c4     LIBCMT:dll_dllmain.obj
 0003:00001658       ?AllocateData@@3P6APEAUAtlThunkData_t@@XZEA 0000000180036658     atls:atlthunk.obj
 0003:00001660       ?InitData@@3P6AXPEAUAtlThunkData_t@@PEAX_K@ZEA 0000000180036660     atls:atlthunk.obj
 0003:00001668       ?DataToCode@@3P6AP6A_JPEAUHWND__@@I_K_J@ZPEAUAtlThunkData_t@@@ZEA 0000000180036668     atls:atlthunk.obj
 0003:00001670       ?FreeData@@3P6AXPEAUAtlThunkData_t@@@ZEA 0000000180036670     atls:atlthunk.obj
 0003:00001678       ?Initialized@@3_NA         0000000180036678     atls:atlthunk.obj
 0003:00001690       ?__vcrt_startup_thread_ptd@@3U__vcrt_ptd@@A 0000000180036690     libvcruntime:per_thread_data.obj
 0003:00001710       __vcrt_lock_table          0000000180036710     libvcruntime:locks.obj
 0003:00001738       __vcrt_locks_initialized   0000000180036738     libvcruntime:locks.obj
 0003:00001780       ?heap@@3V_HeapManager@@A   0000000180036780     libvcruntime:undname.obj
 0003:000017a8       ?module_handles@@3PAPEAUHINSTANCE__@@A 00000001800367a8     libvcruntime:winapi_downlevel.obj
 0003:000017c0       ?function_pointers@@3PAPEAXA 00000001800367c0     libvcruntime:winapi_downlevel.obj
 0003:000017e8       ?__acrt_invalid_parameter_handler@@3V?$dual_state_global@P6AXPEB_W00I_K@Z@__crt_state_management@@A 00000001800367e8     libucrt:invalid_parameter.obj
 0003:000017f0       ?c_termination_complete@@3JA 00000001800367f0     libucrt:exit.obj
 0003:000017f8       ?thread_local_exit_callback_func@@3P6AXPEAXK0@ZEA 00000001800367f8     libucrt:exit.obj
 0003:00001810       ?program_name@?1???$common_configure_argv@D@@YAHW4_crt_argv_mode@@@Z@4PADA 0000000180036810     libucrt:argv_parsing.obj
 0003:00001968       ?__acrt_new_handler@@3V?$dual_state_global@P6AH_K@Z@__crt_state_management@@A 0000000180036968     libucrt:new_handler.obj
 0003:00001980       ?module_handles@@3PAPEAUHINSTANCE__@@A 0000000180036980     libucrt:winapi_thunks.obj
 0003:00001a20       ?encoded_function_pointers@@3PAPEAXA 0000000180036a20     libucrt:winapi_thunks.obj
 0003:00001b10       ?internal_state@?1??_mbtowc_internal@@9@4U_Mbstatet@@A 0000000180036b10     libucrt:mbtowc.obj
 0003:00001b28       ?enable_percent_n@@3_KA    0000000180036b28     libucrt:printf_count_output.obj
 0003:00001f50       ?__acrt_lock_table@@3PAU_RTL_CRITICAL_SECTION@@A 0000000180036f50     libucrt:locks.obj
 0003:00002180       ?__acrt_locks_initialized@@3IA 0000000180037180     libucrt:locks.obj
 0003:000021a0       ?fSystemSet@@3HA           00000001800371a0     libucrt:mbctype.obj
 0003:000021a4       ?initialized@?1??__acrt_initialize_multibyte@@9@4_NA 00000001800371a4     libucrt:mbctype.obj
 0003:000021e0       ?ctrlc_action@@3V?$dual_state_global@P6AXH@Z@__crt_state_management@@A 00000001800371e0     libucrt:signal.obj
 0003:000021e8       ?ctrlbreak_action@@3V?$dual_state_global@P6AXH@Z@__crt_state_management@@A 00000001800371e8     libucrt:signal.obj
 0003:000021f0       ?abort_action@@3V?$dual_state_global@P6AXH@Z@__crt_state_management@@A 00000001800371f0     libucrt:signal.obj
 0003:000021f8       ?term_action@@3V?$dual_state_global@P6AXH@Z@__crt_state_management@@A 00000001800371f8     libucrt:signal.obj
 0003:00002200       ?user_matherr@@3V?$dual_state_global@P6AHPEAU_exception@@@Z@__crt_state_management@@A 0000000180037200     libucrt:matherr.obj
 0003:00002210       ?__acrt_global_new_mode@@3V?$dual_state_global@J@__crt_state_management@@A 0000000180037210     libucrt:new_mode.obj
 0003:00002218       ?internal_pst@?1??__mbrtoc32_utf8@__crt_mbstring@@YA_KPEA_UPEBD_KPEAU_Mbstatet@@AEAV__crt_cached_ptd_host@@@Z@4U3@A 0000000180037218     libucrt:mbrtoc32.obj
 0003:00002220       ?__acrt_app_type@@3W4_crt_app_type@@A 0000000180037220     libucrt:report_runtime_error.obj
 0005:00000000       MoveSmall                  000000018003a000     libvcruntime:memcpy.obj
 0005:00000040       MoveSmallYmm               000000018003a040     libvcruntime:memcpy.obj
 0005:00000064       MoveSmallYmmNT             000000018003a064     libvcruntime:memcpy.obj
 0005:00000088       MoveSmallXmm               000000018003a088     libvcruntime:memcpy.obj
 0005:000000b0       MsetTab                    000000018003a0b0     libvcruntime:memset.obj
 0006:00000220       $R000000                   000000018003b220     POSKeyboard.res
 0006:00000bc0       $R0009A0                   000000018003bbc0     POSKeyboard.res
 0006:00000ca8       $R000A88                   000000018003bca8     POSKeyboard.res
 0006:00000f10       $R000CF0                   000000018003bf10     POSKeyboard.res
 0006:00001480       $R001260                   000000018003c480     POSKeyboard.res
 0006:00003ba0       $R003980                   000000018003eba0     POSKeyboard.res
 0006:00003bd8       $R0039B8                   000000018003ebd8     POSKeyboard.res
