 OPOSItemDispenser

 Timestamp is 5defa976 (Tue Dec 10 23:19:34 2019)

 Preferred load address is 0000000180000000

 Start         Length     Name                   Class
 0001:00000000 000000c0H .text$di                CODE
 0001:000000c0 0001fd90H .text$mn                CODE
 0001:0001fe50 00000020H .text$mn$00             CODE
 0001:0001fe70 00000490H .text$x                 CODE
 0001:00020300 00000078H .text$yd                CODE
 0002:00000000 00000618H .idata$5                DATA
 0002:00000618 00000010H .00cfg                  DATA
 0002:00000628 00000008H .CRT$XCA                DATA
 0002:00000630 00000008H .CRT$XCL                DATA
 0002:00000638 00000020H .CRT$XCU                DATA
 0002:00000658 00000008H .CRT$XCZ                DATA
 0002:00000660 00000008H .CRT$XIA                DATA
 0002:00000668 00000020H .CRT$XIC                DATA
 0002:00000688 00000008H .CRT$XIZ                DATA
 0002:00000690 00000008H .CRT$XLA                DATA
 0002:00000698 00000008H .CRT$XLZ                DATA
 0002:000006a0 00000008H .CRT$XPA                DATA
 0002:000006a8 00000010H .CRT$XPX                DATA
 0002:000006b8 00000008H .CRT$XPXA               DATA
 0002:000006c0 00000008H .CRT$XPZ                DATA
 0002:000006c8 00000008H .CRT$XTA                DATA
 0002:000006d0 00000010H .CRT$XTZ                DATA
 0002:000006d8 00000000H .gfids$y                DATA
 0002:000006e0 0000a2f8H .rdata                  DATA
 0002:0000a9d8 00000028H .rdata$T                DATA
 0002:0000aa00 00000274H .rdata$r                DATA
 0002:0000ac74 0000040cH .rdata$zzzdbg           DATA
 0002:0000b080 00000008H .rtc$IAA                DATA
 0002:0000b088 00000008H .rtc$IZZ                DATA
 0002:0000b090 00000008H .rtc$TAA                DATA
 0002:0000b098 00000008H .rtc$TZZ                DATA
 0002:0000b0a0 00000004H .tls                    DATA
 0002:0000b0a4 00000004H .tls$                   DATA
 0002:0000b0a8 00000008H .tls$ZZZ                DATA
 0002:0000b0b0 000015f8H .xdata                  DATA
 0002:0000c6a8 00000150H .xdata$x                DATA
 0002:0000c7f8 00000008H ATL$__a                 DATA
 0002:0000c800 00000010H ATL$__z                 DATA
 0002:0000c810 000000b0H .edata                  DATA
 0002:0000c8c0 00000078H .idata$2                DATA
 0002:0000c938 00000018H .idata$3                DATA
 0002:0000c950 00000618H .idata$4                DATA
 0002:0000cf68 00000c24H .idata$6                DATA
 0003:00000000 00000d78H .data                   DATA
 0003:00000d78 000000c8H .data$r                 DATA
 0003:00000e40 0000140cH .bss                    DATA
 0004:00000000 00001df4H .pdata                  DATA
 0005:00000000 00000094H _RDATA                  DATA
 0006:00000000 00000220H .rsrc$01                DATA
 0006:00000220 00003930H .rsrc$02                DATA

  Address         Publics by Value              Rva+Base               Lib:Object

 0000:00000000       __guard_fids_count         0000000000000000     <absolute>
 0000:00000000       __guard_longjmp_count      0000000000000000     <absolute>
 0000:00000000       __hybrid_code_map          0000000000000000     <absolute>
 0000:00000000       __guard_longjmp_table      0000000000000000     <absolute>
 0000:00000000       __guard_iat_count          0000000000000000     <absolute>
 0000:00000000       __volatile_metadata        0000000000000000     <absolute>
 0000:00000000       __guard_iat_table          0000000000000000     <absolute>
 0000:00000000       __hybrid_code_map_count    0000000000000000     <absolute>
 0000:00000000       __enclave_config           0000000000000000     <absolute>
 0000:00000000       ___safe_se_handler_count   0000000000000000     <absolute>
 0000:00000000       __AbsoluteZero             0000000000000000     <absolute>
 0000:00000000       ___safe_se_handler_table   0000000000000000     <absolute>
 0000:00000000       __guard_fids_table         0000000000000000     <absolute>
 0000:00000000       __hybrid_auxiliary_iat     0000000000000000     <absolute>
 0000:00000000       __dynamic_value_reloc_table 0000000000000000     <absolute>
 0000:00000100       __guard_flags              0000000000000100     <absolute>
 0000:00000000       __ImageBase                0000000180000000     <linker-defined>
 0001:000000c0       ?DupWide@_CW@@AEAAXXZ      00000001800010c0 f   CWString.obj
 0001:000000e8       ?cw_dup@@YAXPEBDAEAHAEAPEA_W1@Z 00000001800010e8 f   CWString.obj
 0001:000001c8       ?cw_memcpy@@YAHPEA_WPEBDH@Z 00000001800011c8 f   CWString.obj
 0001:00000214       ?cw_strcpy@@YAHPEA_WPEBD@Z 0000000180001214 f   CWString.obj
 0001:00000228       ??0CAtlComModule@ATL@@QEAA@XZ 0000000180001228 f i OposVariant.obj
 0001:000002a8       ??0CAtlWinModule@ATL@@QEAA@XZ 00000001800012a8 f i OposVariant.obj
 0001:00000314       ??0OposDispParms@@QEAA@PEAVOposVariant@@H@Z 0000000180001314 f   OposVariant.obj
 0001:000003bc       ??1OposDispParms@@QEAA@XZ  00000001800013bc f   OposVariant.obj
 0001:000003d4       ??_Estringdispid@CComTypeInfoHolder@ATL@@QEAAPEAXI@Z 00000001800013d4 f i OposVariant.obj
 0001:00000478       ?AtlWinModuleTerm@ATL@@YAJPEAU_ATL_WIN_MODULE70@1@PEAUHINSTANCE__@@@Z 0000000180001478 f i OposVariant.obj
 0001:00000528       ?ChangeBSTR@OposVariant@@QEAAXPEAPEA_WAEAJ@Z 0000000180001528 f   OposVariant.obj
 0001:00000588       ?ChangeLONG@OposVariant@@QEAAXPEAJAEAJ@Z 0000000180001588 f   OposVariant.obj
 0001:000005e4       ?GetLONG@OposVariant@@QEAAJXZ 00000001800015e4 f   OposVariant.obj
 0001:00000608       ?SetBSTR@OposVariant@@QEAAXPEA_WAEAJ@Z 0000000180001608 f   OposVariant.obj
 0001:00000648       ?SetBSTR_Copy@OposVariant@@QEAAXPEA_WAEAJ@Z 0000000180001648 f   OposVariant.obj
 0001:000006b8       ?SetBSTR_InOutPtr@OposVariant@@QEAA_NPEAPEA_WAEAJ@Z 00000001800016b8 f   OposVariant.obj
 0001:00000708       ?SetDispatch_Ptr@OposVariant@@QEAAXPEAUIDispatch@@AEAJ@Z 0000000180001708 f   OposVariant.obj
 0001:00000760       ?SetLONG@OposVariant@@QEAAXJ@Z 0000000180001760 f   OposVariant.obj
 0001:00000790       ?SetLONG_Ptr@OposVariant@@QEAAXPEAJAEAJ@Z 0000000180001790 f   OposVariant.obj
 0001:000007dc       ?SetString@OposVariant@@QEAAXPEB_WAEAJ@Z 00000001800017dc f   OposVariant.obj
 0001:00000840       ?SetVARIANT_BOOL@OposVariant@@QEAAXF@Z 0000000180001840 f   OposVariant.obj
 0001:00000878       ?Term@CAtlComModule@ATL@@QEAAXXZ 0000000180001878 f i OposVariant.obj
 0001:000008e8       ?_AtlInitializeCriticalSectionEx@ATL@@YAHPEAU_RTL_CRITICAL_SECTION@@KK@Z 00000001800018e8 f i OposVariant.obj
 0001:000008f0       ?_AtlRaiseException@ATL@@YAXKK@Z 00000001800018f0 f i OposVariant.obj
 0001:00000900       ?GetWindowProc@?$CWindowImplBaseT@VCWindow@ATL@@V?$CWinTraits@$0FGAAAAAA@$0A@@2@@ATL@@UEAAP6A_JPEAUHWND__@@I_K_J@ZXZ 0000000180001900 f i ItemDispenser.obj
 0001:00000908       ?StartWindowProc@?$CWindowImplBaseT@VCWindow@ATL@@V?$CWinTraits@$0FGAAAAAA@$0A@@2@@ATL@@SA_JPEAUHWND__@@I_K_J@Z 0000000180001908 f i ItemDispenser.obj
 0001:000009cc       ?ObjectMain@CComObjectRootBase@ATL@@SAX_N@Z 00000001800019cc f i ItemDispenser.obj
 0001:000009cc       ?OnFinalMessage@?$CWindowImplBaseT@VCWindow@ATL@@V?$CWinTraits@$0FGAAAAAA@$0A@@2@@ATL@@UEAAXPEAUHWND__@@@Z 00000001800019cc f i ItemDispenser.obj
 0001:000009cc       _guard_check_icall_nop     00000001800019cc f i LIBCMT:guard_support.obj
 0001:000009d0       ?GetTypeInfoCount@?$IDispatchImpl@UIOPOSItemDispenser@@$1?IID_IOPOSItemDispenser@@3U_GUID@@B$1?LIBID_OposItemDispenser_CCO@@3U3@B$00$0A@VCComTypeInfoHolder@ATL@@@ATL@@UEAAJPEAI@Z 00000001800019d0 f i ItemDispenser.obj
 0001:000009e4       ?GetTypeInfo@?$IDispatchImpl@UIOPOSItemDispenser@@$1?IID_IOPOSItemDispenser@@3U_GUID@@B$1?LIBID_OposItemDispenser_CCO@@3U3@B$00$0A@VCComTypeInfoHolder@ATL@@@ATL@@UEAAJIKPEAPEAUITypeInfo@@@Z 00000001800019e4 f i ItemDispenser.obj
 0001:00000a48       ?GetIDsOfNames@?$IDispatchImpl@UIOPOSItemDispenser@@$1?IID_IOPOSItemDispenser@@3U_GUID@@B$1?LIBID_OposItemDispenser_CCO@@3U3@B$00$0A@VCComTypeInfoHolder@ATL@@@ATL@@UEAAJAEBU_GUID@@PEAPEA_WIKPEAJ@Z 0000000180001a48 f i ItemDispenser.obj
 0001:00000a54       ?Invoke@?$IDispatchImpl@UIOPOSItemDispenser@@$1?IID_IOPOSItemDispenser@@3U_GUID@@B$1?LIBID_OposItemDispenser_CCO@@3U3@B$00$0A@VCComTypeInfoHolder@ATL@@@ATL@@UEAAJJAEBU_GUID@@KGPEAUtagDISPPARAMS@@PEAUtagVARIANT@@PEAUtagEXCEPINFO@@PEAI@Z 0000000180001a54 f i ItemDispenser.obj
 0001:00000ae4       ?CreateControlWindow@?$CComControl@VCOPOSItemDispenser@@V?$CWindowImpl@VCOPOSItemDispenser@@VCWindow@ATL@@V?$CWinTraits@$0FGAAAAAA@$0A@@3@@ATL@@@ATL@@UEAAPEAUHWND__@@PEAU3@AEAUtagRECT@@@Z 0000000180001ae4 f i ItemDispenser.obj
 0001:00000b1c       ?ControlQueryInterface@?$CComControl@VCOPOSItemDispenser@@V?$CWindowImpl@VCOPOSItemDispenser@@VCWindow@ATL@@V?$CWinTraits@$0FGAAAAAA@$0A@@3@@ATL@@@ATL@@UEAAJAEBU_GUID@@PEAPEAX@Z 0000000180001b1c f i ItemDispenser.obj
 0001:00000b30       ?GetClassID@?$IPersistStreamInitImpl@VCOPOSItemDispenser@@@ATL@@UEAAJPEAU_GUID@@@Z 0000000180001b30 f i ItemDispenser.obj
 0001:00000b30       ?GetUserClassID@?$IOleObjectImpl@VCOPOSItemDispenser@@@ATL@@UEAAJPEAU_GUID@@@Z 0000000180001b30 f i ItemDispenser.obj
 0001:00000b30       ?GetClassID@?$IPersistStorageImpl@VCOPOSItemDispenser@@@ATL@@UEAAJPEAU_GUID@@@Z 0000000180001b30 f i ItemDispenser.obj
 0001:00000b4c       ?IsDirty@?$IPersistStreamInitImpl@VCOPOSItemDispenser@@@ATL@@UEAAJXZ 0000000180001b4c f i ItemDispenser.obj
 0001:00000b68       ?Load@?$IPersistStreamInitImpl@VCOPOSItemDispenser@@@ATL@@UEAAJPEAUIStream@@@Z 0000000180001b68 f i ItemDispenser.obj
 0001:00000b80       ?Save@?$IPersistStreamInitImpl@VCOPOSItemDispenser@@@ATL@@UEAAJPEAUIStream@@H@Z 0000000180001b80 f i ItemDispenser.obj
 0001:00000b98       ?GetSizeMax@?$IPersistStreamInitImpl@VCOPOSItemDispenser@@@ATL@@UEAAJPEAT_ULARGE_INTEGER@@@Z 0000000180001b98 f i ItemDispenser.obj
 0001:00000dc4       ?InitNew@?$IPersistStreamInitImpl@VCOPOSItemDispenser@@@ATL@@UEAAJXZ 0000000180001dc4 f i ItemDispenser.obj
 0001:00000ddc       ?GetControlInfo@?$IOleControlImpl@VCOPOSItemDispenser@@@ATL@@UEAAJPEAUtagCONTROLINFO@@@Z 0000000180001ddc f i ItemDispenser.obj
 0001:00000ddc       ?SOErrorDummy@COPOSItemDispenser@@MEAAJJJJPEAJ@Z 0000000180001ddc f i ItemDispenser.obj
 0001:00000ddc       ?Unfreeze@?$IViewObjectExImpl@VCOPOSItemDispenser@@@ATL@@UEAAJK@Z 0000000180001ddc f i ItemDispenser.obj
 0001:00000ddc       ?GetClipboardData@?$IOleObjectImpl@VCOPOSItemDispenser@@@ATL@@UEAAJKPEAPEAUIDataObject@@@Z 0000000180001ddc f i ItemDispenser.obj
 0001:00000ddc       ?ContextSensitiveHelp@?$IOleInPlaceObjectWindowlessImpl@VCOPOSItemDispenser@@@ATL@@UEAAJH@Z 0000000180001ddc f i ItemDispenser.obj
 0001:00000ddc       ?GetRect@?$IViewObjectExImpl@VCOPOSItemDispenser@@@ATL@@UEAAJKPEAU_RECTL@@@Z 0000000180001ddc f i ItemDispenser.obj
 0001:00000ddc       ?GetMoniker@?$IOleObjectImpl@VCOPOSItemDispenser@@@ATL@@UEAAJKKPEAPEAUIMoniker@@@Z 0000000180001ddc f i ItemDispenser.obj
 0001:00000ddc       ?Freeze@?$IViewObjectExImpl@VCOPOSItemDispenser@@@ATL@@UEAAJKJPEAXPEAK@Z 0000000180001ddc f i ItemDispenser.obj
 0001:00000ddc       ?GetDataHere@?$IDataObjectImpl@VCOPOSItemDispenser@@@ATL@@UEAAJPEAUtagFORMATETC@@PEAUtagSTGMEDIUM@@@Z 0000000180001ddc f i ItemDispenser.obj
 0001:00000ddc       ?SetColorScheme@?$IOleObjectImpl@VCOPOSItemDispenser@@@ATL@@UEAAJPEAUtagLOGPALETTE@@@Z 0000000180001ddc f i ItemDispenser.obj
 0001:00000ddc       ?EnumFormatEtc@?$IDataObjectImpl@VCOPOSItemDispenser@@@ATL@@UEAAJKPEAPEAUIEnumFORMATETC@@@Z 0000000180001ddc f i ItemDispenser.obj
 0001:00000ddc       ?SODataDummy@COPOSItemDispenser@@MEAAJJ@Z 0000000180001ddc f i ItemDispenser.obj
 0001:00000ddc       ?ReactivateAndUndo@?$IOleInPlaceObjectWindowlessImpl@VCOPOSItemDispenser@@@ATL@@UEAAJXZ 0000000180001ddc f i ItemDispenser.obj
 0001:00000ddc       ?OnMnemonic@?$IOleControlImpl@VCOPOSItemDispenser@@@ATL@@UEAAJPEAUtagMSG@@@Z 0000000180001ddc f i ItemDispenser.obj
 0001:00000ddc       ?QueryInterface@CRegObject@ATL@@UEAAJAEBU_GUID@@PEAPEAX@Z 0000000180001ddc f i ItemDispenser.obj
 0001:00000ddc       ?QueryGetData@?$IDataObjectImpl@VCOPOSItemDispenser@@@ATL@@UEAAJPEAUtagFORMATETC@@@Z 0000000180001ddc f i ItemDispenser.obj
 0001:00000ddc       ?SOOutputCompleteDummy@COPOSItemDispenser@@MEAAJJ@Z 0000000180001ddc f i ItemDispenser.obj
 0001:00000ddc       ?ContextSensitiveHelp@?$IOleInPlaceActiveObjectImpl@VCOPOSItemDispenser@@@ATL@@UEAAJH@Z 0000000180001ddc f i ItemDispenser.obj
 0001:00000ddc       ?GetColorSet@?$IViewObjectExImpl@VCOPOSItemDispenser@@@ATL@@UEAAJKJPEAXPEAUtagDVTARGETDEVICE@@PEAUHDC__@@PEAPEAUtagLOGPALETTE@@@Z 0000000180001ddc f i ItemDispenser.obj
 0001:00000ddc       ?GetDropTarget@?$IOleInPlaceObjectWindowlessImpl@VCOPOSItemDispenser@@@ATL@@UEAAJPEAPEAUIDropTarget@@@Z 0000000180001ddc f i ItemDispenser.obj
 0001:00000ddc       ?SetData@?$IDataObjectImpl@VCOPOSItemDispenser@@@ATL@@UEAAJPEAUtagFORMATETC@@PEAUtagSTGMEDIUM@@H@Z 0000000180001ddc f i ItemDispenser.obj
 0001:00000ddc       ?InitFromData@?$IOleObjectImpl@VCOPOSItemDispenser@@@ATL@@UEAAJPEAUIDataObject@@HK@Z 0000000180001ddc f i ItemDispenser.obj
 0001:00000ddc       ?GetCanonicalFormatEtc@?$IDataObjectImpl@VCOPOSItemDispenser@@@ATL@@UEAAJPEAUtagFORMATETC@@0@Z 0000000180001ddc f i ItemDispenser.obj
 0001:00000ddc       ?SetMoniker@?$IOleObjectImpl@VCOPOSItemDispenser@@@ATL@@UEAAJKPEAUIMoniker@@@Z 0000000180001ddc f i ItemDispenser.obj
 0001:00000de4       ?SetHostNames@?$IOleObjectImpl@VCOPOSItemDispenser@@@ATL@@UEAAJPEB_W0@Z 0000000180001de4 f i ItemDispenser.obj
 0001:00000de4       ?Release@CRegObject@ATL@@UEAAKXZ 0000000180001de4 f i ItemDispenser.obj
 0001:00000de4       ?OnFrameWindowActivate@?$IOleInPlaceActiveObjectImpl@VCOPOSItemDispenser@@@ATL@@UEAAJH@Z 0000000180001de4 f i ItemDispenser.obj
 0001:00000de4       ?HandsOffStorage@?$IPersistStorageImpl@VCOPOSItemDispenser@@@ATL@@UEAAJXZ 0000000180001de4 f i ItemDispenser.obj
 0001:00000de4       ?SaveCompleted@?$IPersistStorageImpl@VCOPOSItemDispenser@@@ATL@@UEAAJPEAUIStorage@@@Z 0000000180001de4 f i ItemDispenser.obj
 0001:00000de4       ?OnAmbientPropertyChange@?$IOleControlImpl@VCOPOSItemDispenser@@@ATL@@UEAAJJ@Z 0000000180001de4 f i ItemDispenser.obj
 0001:00000de4       ?IsUpToDate@?$IOleObjectImpl@VCOPOSItemDispenser@@@ATL@@UEAAJXZ 0000000180001de4 f i ItemDispenser.obj
 0001:00000de4       ?ResizeBorder@?$IOleInPlaceActiveObjectImpl@VCOPOSItemDispenser@@@ATL@@UEAAJPEBUtagRECT@@PEAUIOleInPlaceUIWindow@@H@Z 0000000180001de4 f i ItemDispenser.obj
 0001:00000de4       ?GetObjectDescription@?$CComCoClass@VCOPOSItemDispenser@@$1?CLSID_OPOSItemDispenser@@3U_GUID@@B@ATL@@SAPEB_WXZ 0000000180001de4 f i ItemDispenser.obj
 0001:00000de4       ?EnableModeless@?$IOleInPlaceActiveObjectImpl@VCOPOSItemDispenser@@@ATL@@UEAAJH@Z 0000000180001de4 f i ItemDispenser.obj
 0001:00000de4       ?Update@?$IOleObjectImpl@VCOPOSItemDispenser@@@ATL@@UEAAJXZ 0000000180001de4 f i ItemDispenser.obj
 0001:00000de4       ?GetCategoryMap@CComObjectRootBase@ATL@@SAPEBU_ATL_CATMAP_ENTRY@2@XZ 0000000180001de4 f i ItemDispenser.obj
 0001:00000de8       ?SetClientSite@?$IOleObjectImpl@VCOPOSItemDispenser@@@ATL@@UEAAJPEAUIOleClientSite@@@Z 0000000180001de8 f i ItemDispenser.obj
 0001:00000e04       ?GetClientSite@?$IOleObjectImpl@VCOPOSItemDispenser@@@ATL@@UEAAJPEAPEAUIOleClientSite@@@Z 0000000180001e04 f i ItemDispenser.obj
 0001:00000e4c       ?Close@?$IOleObjectImpl@VCOPOSItemDispenser@@@ATL@@UEAAJK@Z 0000000180001e4c f i ItemDispenser.obj
 0001:00000e68       ?DoVerb@?$IOleObjectImpl@VCOPOSItemDispenser@@@ATL@@UEAAJJPEAUtagMSG@@PEAUIOleClientSite@@JPEAUHWND__@@PEBUtagRECT@@@Z 0000000180001e68 f i ItemDispenser.obj
 0001:0000100c       ?EnumVerbs@?$IOleObjectImpl@VCOPOSItemDispenser@@@ATL@@UEAAJPEAPEAUIEnumOLEVERB@@@Z 000000018000200c f i ItemDispenser.obj
 0001:00001028       ?GetUserType@?$IOleObjectImpl@VCOPOSItemDispenser@@@ATL@@UEAAJKPEAPEA_W@Z 0000000180002028 f i ItemDispenser.obj
 0001:00001038       ?SetExtent@?$IOleObjectImpl@VCOPOSItemDispenser@@@ATL@@UEAAJKPEAUtagSIZE@@@Z 0000000180002038 f i ItemDispenser.obj
 0001:00001054       ?GetExtent@?$IOleObjectImpl@VCOPOSItemDispenser@@@ATL@@UEAAJKPEAUtagSIZE@@@Z 0000000180002054 f i ItemDispenser.obj
 0001:00001084       ?Advise@?$IOleObjectImpl@VCOPOSItemDispenser@@@ATL@@UEAAJPEAUIAdviseSink@@PEAK@Z 0000000180002084 f i ItemDispenser.obj
 0001:000010e0       ?Unadvise@?$IOleObjectImpl@VCOPOSItemDispenser@@@ATL@@UEAAJK@Z 00000001800020e0 f i ItemDispenser.obj
 0001:00001118       ?EnumAdvise@?$IOleObjectImpl@VCOPOSItemDispenser@@@ATL@@UEAAJPEAPEAUIEnumSTATDATA@@@Z 0000000180002118 f i ItemDispenser.obj
 0001:00001160       ?GetMiscStatus@?$IOleObjectImpl@VCOPOSItemDispenser@@@ATL@@UEAAJKPEAK@Z 0000000180002160 f i ItemDispenser.obj
 0001:00001170       ?GetWindow@?$IOleInPlaceActiveObjectImpl@VCOPOSItemDispenser@@@ATL@@UEAAJPEAPEAUHWND__@@@Z 0000000180002170 f i ItemDispenser.obj
 0001:000011c4       ?TranslateAcceleratorW@?$IOleInPlaceActiveObjectImpl@VCOPOSItemDispenser@@@ATL@@UEAAJPEAUtagMSG@@@Z 00000001800021c4 f i ItemDispenser.obj
 0001:000012b8       ?OnDocWindowActivate@?$IOleInPlaceActiveObjectImpl@VCOPOSItemDispenser@@@ATL@@UEAAJH@Z 00000001800022b8 f i ItemDispenser.obj
 0001:000012e4       ?Draw@?$IViewObjectExImpl@VCOPOSItemDispenser@@@ATL@@UEAAJKJPEAXPEAUtagDVTARGETDEVICE@@PEAUHDC__@@2PEBU_RECTL@@3P6AH_K@Z4@Z 00000001800022e4 f i ItemDispenser.obj
 0001:00001348       ?SetAdvise@?$IViewObjectExImpl@VCOPOSItemDispenser@@@ATL@@UEAAJKKPEAUIAdviseSink@@@Z 0000000180002348 f i ItemDispenser.obj
 0001:0000139c       ?GetAdvise@?$IViewObjectExImpl@VCOPOSItemDispenser@@@ATL@@UEAAJPEAK0PEAPEAUIAdviseSink@@@Z 000000018000239c f i ItemDispenser.obj
 0001:000013d8       ?GetExtent@?$IViewObjectExImpl@VCOPOSItemDispenser@@@ATL@@UEAAJKJPEAUtagDVTARGETDEVICE@@PEAUtagSIZE@@@Z 00000001800023d8 f i ItemDispenser.obj
 0001:00001408       ?GetViewStatus@?$IViewObjectExImpl@VCOPOSItemDispenser@@@ATL@@UEAAJPEAK@Z 0000000180002408 f i ItemDispenser.obj
 0001:0000141c       ?QueryHitPoint@?$IViewObjectExImpl@VCOPOSItemDispenser@@@ATL@@UEAAJKPEBUtagRECT@@UtagPOINT@@JPEAK@Z 000000018000241c f i ItemDispenser.obj
 0001:00001460       ?QueryHitRect@?$IViewObjectExImpl@VCOPOSItemDispenser@@@ATL@@UEAAJKPEBUtagRECT@@0JPEAK@Z 0000000180002460 f i ItemDispenser.obj
 0001:000014c8       ?GetNaturalExtent@?$IViewObjectExImpl@VCOPOSItemDispenser@@@ATL@@UEAAJKJPEAUtagDVTARGETDEVICE@@PEAUHDC__@@PEAUtagExtentInfo@@PEAUtagSIZE@@@Z 00000001800024c8 f i ItemDispenser.obj
 0001:00001510       ?GetWindow@?$IOleInPlaceObjectWindowlessImpl@VCOPOSItemDispenser@@@ATL@@UEAAJPEAPEAUHWND__@@@Z 0000000180002510 f i ItemDispenser.obj
 0001:00001564       ?InPlaceDeactivate@?$IOleInPlaceObjectWindowlessImpl@VCOPOSItemDispenser@@@ATL@@UEAAJXZ 0000000180002564 f i ItemDispenser.obj
 0001:00001580       ?UIDeactivate@?$IOleInPlaceObjectWindowlessImpl@VCOPOSItemDispenser@@@ATL@@UEAAJXZ 0000000180002580 f i ItemDispenser.obj
 0001:0000159c       ?SetObjectRects@?$IOleInPlaceObjectWindowlessImpl@VCOPOSItemDispenser@@@ATL@@UEAAJPEBUtagRECT@@0@Z 000000018000259c f i ItemDispenser.obj
 0001:000015b8       ?OnWindowMessage@?$IOleInPlaceObjectWindowlessImpl@VCOPOSItemDispenser@@@ATL@@UEAAJI_K_JPEA_J@Z 00000001800025b8 f i ItemDispenser.obj
 0001:00001680       ?EnumConnectionPoints@?$IConnectionPointContainerImpl@VCOPOSItemDispenser@@@ATL@@UEAAJPEAPEAUIEnumConnectionPoints@@@Z 0000000180002680 f i ItemDispenser.obj
 0001:000018c4       ?FindConnectionPoint@?$IConnectionPointContainerImpl@VCOPOSItemDispenser@@@ATL@@UEAAJAEBU_GUID@@PEAPEAUIConnectionPoint@@@Z 00000001800028c4 f i ItemDispenser.obj
 0001:00001994       ?IsDirty@?$IPersistStorageImpl@VCOPOSItemDispenser@@@ATL@@UEAAJXZ 0000000180002994 f i ItemDispenser.obj
 0001:000019d8       ?InitNew@?$IPersistStorageImpl@VCOPOSItemDispenser@@@ATL@@UEAAJPEAUIStorage@@@Z 00000001800029d8 f i ItemDispenser.obj
 0001:00001a1c       ?Load@?$IPersistStorageImpl@VCOPOSItemDispenser@@@ATL@@UEAAJPEAUIStorage@@@Z 0000000180002a1c f i ItemDispenser.obj
 0001:00001abc       ?Save@?$IPersistStorageImpl@VCOPOSItemDispenser@@@ATL@@UEAAJPEAUIStorage@@H@Z 0000000180002abc f i ItemDispenser.obj
 0001:00001b6c       ?GetPages@?$ISpecifyPropertyPagesImpl@VCOPOSItemDispenser@@@ATL@@UEAAJPEAUtagCAUUID@@@Z 0000000180002b6c f i ItemDispenser.obj
 0001:00001b78       ?QuickActivate@?$IQuickActivateImpl@VCOPOSItemDispenser@@@ATL@@UEAAJPEAUtagQACONTAINER@@PEAUtagQACONTROL@@@Z 0000000180002b78 f i ItemDispenser.obj
 0001:00001b94       ?SetContentExtent@?$IQuickActivateImpl@VCOPOSItemDispenser@@@ATL@@UEAAJPEAUtagSIZE@@@Z 0000000180002b94 f i ItemDispenser.obj
 0001:00001bc8       ?GetContentExtent@?$IQuickActivateImpl@VCOPOSItemDispenser@@@ATL@@UEAAJPEAUtagSIZE@@@Z 0000000180002bc8 f i ItemDispenser.obj
 0001:00001c00       ?GetData@?$IDataObjectImpl@VCOPOSItemDispenser@@@ATL@@UEAAJPEAUtagFORMATETC@@PEAUtagSTGMEDIUM@@@Z 0000000180002c00 f i ItemDispenser.obj
 0001:00001c1c       ?DAdvise@?$IDataObjectImpl@VCOPOSItemDispenser@@@ATL@@UEAAJPEAUtagFORMATETC@@KPEAUIAdviseSink@@PEAK@Z 0000000180002c1c f i ItemDispenser.obj
 0001:00001ca4       ?DUnadvise@?$IDataObjectImpl@VCOPOSItemDispenser@@@ATL@@UEAAJK@Z 0000000180002ca4 f i ItemDispenser.obj
 0001:00001cd0       ?EnumDAdvise@?$IDataObjectImpl@VCOPOSItemDispenser@@@ATL@@UEAAJPEAPEAUIEnumSTATDATA@@@Z 0000000180002cd0 f i ItemDispenser.obj
 0001:00001d0c       ?GetClassInfoW@?$IProvideClassInfo2Impl@$1?CLSID_OPOSItemDispenser@@3U_GUID@@B$1?DIID__IOPOSItemDispenserEvents@@3U2@B$1?LIBID_OposItemDispenser_CCO@@3U2@B$00$0A@VCComTypeInfoHolder@ATL@@@ATL@@UEAAJPEAPEAUITypeInfo@@@Z 0000000180002d0c f i ItemDispenser.obj
 0001:00001d64       ?GetGUID@?$IProvideClassInfo2Impl@$1?CLSID_OPOSItemDispenser@@3U_GUID@@B$1?DIID__IOPOSItemDispenserEvents@@3U2@B$1?LIBID_OposItemDispenser_CCO@@3U2@B$00$0A@VCComTypeInfoHolder@ATL@@@ATL@@UEAAJKPEAU_GUID@@@Z 0000000180002d64 f i ItemDispenser.obj
 0001:00001d98       ?AddRef@CRegObject@ATL@@UEAAKXZ 0000000180002d98 f i ItemDispenser.obj
 0001:00001d98       _get_startup_argv_mode     0000000180002d98 f i LIBCMT:argv_mode.obj
 0001:00001d98       ?FAccessAllowed@?$IObjectSafetyImpl@VCOPOSItemDispenser@@$02@ATL@@MEAAHXZ 0000000180002d98 f i ItemDispenser.obj
 0001:00001da0       ?GetInterfaceSafetyOptions@?$IObjectSafetyImpl@VCOPOSItemDispenser@@$02@ATL@@UEAAJAEBU_GUID@@PEAK1@Z 0000000180002da0 f i ItemDispenser.obj
 0001:00001e34       ?SetInterfaceSafetyOptions@?$IObjectSafetyImpl@VCOPOSItemDispenser@@$02@ATL@@UEAAJAEBU_GUID@@KK@Z 0000000180002e34 f i ItemDispenser.obj
 0001:00001ed8       ?_LocCPQueryInterface@?$IConnectionPointImpl@VCOPOSItemDispenser@@$1?IID_IPropertyNotifySink@@3U_GUID@@BVCComDynamicUnkArray@ATL@@@ATL@@UEAAJAEBU_GUID@@PEAPEAX@Z 0000000180002ed8 f i ItemDispenser.obj
 0001:00001ed8       ?_LocCPQueryInterface@?$IConnectionPointImpl@VCOPOSItemDispenser@@$1?DIID__IOPOSItemDispenserEvents@@3U_GUID@@BVCComDynamicUnkArray@ATL@@@ATL@@UEAAJAEBU_GUID@@PEAPEAX@Z 0000000180002ed8 f i ItemDispenser.obj
 0001:00001f4c       ?GetConnectionInterface@?$IConnectionPointImpl@VCOPOSItemDispenser@@$1?IID_IPropertyNotifySink@@3U_GUID@@BVCComDynamicUnkArray@ATL@@@ATL@@UEAAJPEAU_GUID@@@Z 0000000180002f4c f i ItemDispenser.obj
 0001:00001f68       ?GetConnectionPointContainer@?$IConnectionPointImpl@VCOPOSItemDispenser@@$1?IID_IPropertyNotifySink@@3U_GUID@@BVCComDynamicUnkArray@ATL@@@ATL@@UEAAJPEAPEAUIConnectionPointContainer@@@Z 0000000180002f68 f i ItemDispenser.obj
 0001:00001f88       ?Advise@?$IConnectionPointImpl@VCOPOSItemDispenser@@$1?DIID__IOPOSItemDispenserEvents@@3U_GUID@@BVCComDynamicUnkArray@ATL@@@ATL@@UEAAJPEAUIUnknown@@PEAK@Z 0000000180002f88 f i ItemDispenser.obj
 0001:00001f88       ?Advise@?$IConnectionPointImpl@VCOPOSItemDispenser@@$1?IID_IPropertyNotifySink@@3U_GUID@@BVCComDynamicUnkArray@ATL@@@ATL@@UEAAJPEAUIUnknown@@PEAK@Z 0000000180002f88 f i ItemDispenser.obj
 0001:00002048       ?Unadvise@?$IConnectionPointImpl@VCOPOSItemDispenser@@$1?DIID__IOPOSItemDispenserEvents@@3U_GUID@@BVCComDynamicUnkArray@ATL@@@ATL@@UEAAJK@Z 0000000180003048 f i ItemDispenser.obj
 0001:00002048       ?Unadvise@?$IConnectionPointImpl@VCOPOSItemDispenser@@$1?IID_IPropertyNotifySink@@3U_GUID@@BVCComDynamicUnkArray@ATL@@@ATL@@UEAAJK@Z 0000000180003048 f i ItemDispenser.obj
 0001:000020c4       ?EnumConnections@?$IConnectionPointImpl@VCOPOSItemDispenser@@$1?DIID__IOPOSItemDispenserEvents@@3U_GUID@@BVCComDynamicUnkArray@ATL@@@ATL@@UEAAJPEAPEAUIEnumConnections@@@Z 00000001800030c4 f i ItemDispenser.obj
 0001:000020c4       ?EnumConnections@?$IConnectionPointImpl@VCOPOSItemDispenser@@$1?IID_IPropertyNotifySink@@3U_GUID@@BVCComDynamicUnkArray@ATL@@@ATL@@UEAAJPEAPEAUIEnumConnections@@@Z 00000001800030c4 f i ItemDispenser.obj
 0001:0000227c       ?GetConnectionInterface@?$IConnectionPointImpl@VCOPOSItemDispenser@@$1?DIID__IOPOSItemDispenserEvents@@3U_GUID@@BVCComDynamicUnkArray@ATL@@@ATL@@UEAAJPEAU_GUID@@@Z 000000018000327c f i ItemDispenser.obj
 0001:00002298       ?GetConnectionPointContainer@?$IConnectionPointImpl@VCOPOSItemDispenser@@$1?DIID__IOPOSItemDispenserEvents@@3U_GUID@@BVCComDynamicUnkArray@ATL@@@ATL@@UEAAJPEAPEAUIConnectionPointContainer@@@Z 0000000180003298 f i ItemDispenser.obj
 0001:000022b8       ?UpdateRegistry@COPOSItemDispenser@@SAJH@Z 00000001800032b8 f i ItemDispenser.obj
 0001:000022d0       ?ProcessWindowMessage@COPOSItemDispenser@@UEAAHPEAUHWND__@@I_K_JAEA_JK@Z 00000001800032d0 f i ItemDispenser.obj
 0001:00002358       ?SODirectIO@COPOSItemDispenser@@MEAAJJPEAJPEAPEA_W@Z 0000000180003358 f i ItemDispenser.obj
 0001:000023d0       ?SOStatusUpdate@COPOSItemDispenser@@MEAAJJ@Z 00000001800033d0 f i ItemDispenser.obj
 0001:00002420       ?Lock@CAtlModule@ATL@@UEAAJXZ 0000000180003420 f i ItemDispenser.obj
 0001:00002430       ?Unlock@CAtlModule@ATL@@UEAAJXZ 0000000180003430 f i ItemDispenser.obj
 0001:0000243c       ?GetLockCount@CAtlModule@ATL@@UEAAJXZ 000000018000343c f i ItemDispenser.obj
 0001:00002440       ?CreateInstance@?$CComCreator@V?$CComObjectCached@VCComClassFactory@ATL@@@ATL@@@ATL@@SAJPEAXAEBU_GUID@@PEAPEAX@Z 0000000180003440 f i ItemDispenser.obj
 0001:0000256c       ?GetGITPtr@CAtlModule@ATL@@UEAAJPEAPEAUIGlobalInterfaceTable@@@Z 000000018000356c f i ItemDispenser.obj
 0001:000025dc       ?CreateInstance@?$CComCreator2@V?$CComCreator@V?$CComObject@VCOPOSItemDispenser@@@ATL@@@ATL@@V?$CComCreator@V?$CComAggObject@VCOPOSItemDispenser@@@ATL@@@2@@ATL@@SAJPEAXAEBU_GUID@@PEAPEAX@Z 00000001800035dc f i ItemDispenser.obj
 0001:000025ec       ?AddRef@?$CComObjectCached@VCComClassFactory@ATL@@@ATL@@UEAAKXZ 00000001800035ec f i ItemDispenser.obj
 0001:00002618       ?Release@?$CComObjectCached@VCComClassFactory@ATL@@@ATL@@UEAAKXZ 0000000180003618 f i ItemDispenser.obj
 0001:00002658       ?QueryInterface@?$CComObjectCached@VCComClassFactory@ATL@@@ATL@@UEAAJAEBU_GUID@@PEAPEAX@Z 0000000180003658 f i ItemDispenser.obj
 0001:0000266c       ??_G?$CComObjectCached@VCComClassFactory@ATL@@@ATL@@UEAAPEAXI@Z 000000018000366c f i ItemDispenser.obj
 0001:0000266c       ??_E?$CComObjectCached@VCComClassFactory@ATL@@@ATL@@UEAAPEAXI@Z 000000018000366c f i ItemDispenser.obj
 0001:000026c4       ?AddCommonRGSReplacements@?$CAtlModuleT@VCComModule@ATL@@@ATL@@UEAAJPEAUIRegistrarBase@@@Z 00000001800036c4 f i ItemDispenser.obj
 0001:000026dc       ?UpdateRegistryFromResourceD@CComModule@ATL@@UEAAJIHPEAU_ATL_REGMAP_ENTRY@2@@Z 00000001800036dc f i ItemDispenser.obj
 0001:000026dc       ?UpdateRegistryFromResourceD@CComModule@ATL@@UEAAJPEB_WHPEAU_ATL_REGMAP_ENTRY@2@@Z 00000001800036dc f i ItemDispenser.obj
 0001:000026e4       ?UpdateRegistryFromResource@CComModule@ATL@@UEAAJPEB_WHPEAU_ATL_REGMAP_ENTRY@2@@Z 00000001800036e4 f i ItemDispenser.obj
 0001:000026ec       ?UpdateRegistryFromResource@CComModule@ATL@@UEAAJIHPEAU_ATL_REGMAP_ENTRY@2@@Z 00000001800036ec f i ItemDispenser.obj
 0001:000026f4       ?Next@?$CComEnumImpl@UIEnumConnectionPoints@@$1?_GUID_b196b285_bab4_101a_b69c_00aa00341d07@@3U__s_GUID@@BPEAUIConnectionPoint@@V?$_CopyInterface@UIConnectionPoint@@@ATL@@@ATL@@UEAAJKPEAPEAUIConnectionPoint@@PEAK@Z 00000001800036f4 f i ItemDispenser.obj
 0001:000027c0       ?Skip@?$CComEnumImpl@UIEnumConnectionPoints@@$1?_GUID_b196b285_bab4_101a_b69c_00aa00341d07@@3U__s_GUID@@BPEAUIConnectionPoint@@V?$_CopyInterface@UIConnectionPoint@@@ATL@@@ATL@@UEAAJK@Z 00000001800037c0 f i ItemDispenser.obj
 0001:000027ec       ?Reset@?$CComEnumImpl@UIEnumConnections@@$1?_GUID_b196b287_bab4_101a_b69c_00aa00341d07@@3U__s_GUID@@BUtagCONNECTDATA@@V?$_Copy@UtagCONNECTDATA@@@ATL@@@ATL@@UEAAJXZ 00000001800037ec f i ItemDispenser.obj
 0001:000027ec       ?Reset@?$CComEnumImpl@UIEnumConnectionPoints@@$1?_GUID_b196b285_bab4_101a_b69c_00aa00341d07@@3U__s_GUID@@BPEAUIConnectionPoint@@V?$_CopyInterface@UIConnectionPoint@@@ATL@@@ATL@@UEAAJXZ 00000001800037ec f i ItemDispenser.obj
 0001:000027f8       ?Clone@?$CComEnumImpl@UIEnumConnectionPoints@@$1?_GUID_b196b285_bab4_101a_b69c_00aa00341d07@@3U__s_GUID@@BPEAUIConnectionPoint@@V?$_CopyInterface@UIConnectionPoint@@@ATL@@@ATL@@UEAAJPEAPEAUIEnumConnectionPoints@@@Z 00000001800037f8 f i ItemDispenser.obj
 0001:00002924       ??_GCComModule@ATL@@UEAAPEAXI@Z 0000000180003924 f i ItemDispenser.obj
 0001:00002924       ??_ECComModule@ATL@@UEAAPEAXI@Z 0000000180003924 f i ItemDispenser.obj
 0001:00002964       ?AddRef@?$CComObject@V?$CComEnum@UIEnumConnectionPoints@@$1?_GUID_b196b285_bab4_101a_b69c_00aa00341d07@@3U__s_GUID@@BPEAUIConnectionPoint@@V?$_CopyInterface@UIConnectionPoint@@@ATL@@VCComSingleThreadModel@6@@ATL@@@ATL@@UEAAKXZ 0000000180003964 f i ItemDispenser.obj
 0001:00002964       ?AddRef@?$CComObject@V?$CComEnum@UIEnumConnections@@$1?_GUID_b196b287_bab4_101a_b69c_00aa00341d07@@3U__s_GUID@@BUtagCONNECTDATA@@V?$_Copy@UtagCONNECTDATA@@@ATL@@VCComSingleThreadModel@6@@ATL@@@ATL@@UEAAKXZ 0000000180003964 f i ItemDispenser.obj
 0001:00002970       ?Release@?$CComObject@V?$CComEnum@UIEnumConnections@@$1?_GUID_b196b287_bab4_101a_b69c_00aa00341d07@@3U__s_GUID@@BUtagCONNECTDATA@@V?$_Copy@UtagCONNECTDATA@@@ATL@@VCComSingleThreadModel@6@@ATL@@@ATL@@UEAAKXZ 0000000180003970 f i ItemDispenser.obj
 0001:00002970       ?Release@?$CComObject@V?$CComEnum@UIEnumConnectionPoints@@$1?_GUID_b196b285_bab4_101a_b69c_00aa00341d07@@3U__s_GUID@@BPEAUIConnectionPoint@@V?$_CopyInterface@UIConnectionPoint@@@ATL@@VCComSingleThreadModel@6@@ATL@@@ATL@@UEAAKXZ 0000000180003970 f i ItemDispenser.obj
 0001:000029c4       ?QueryInterface@?$CComObject@V?$CComEnum@UIEnumConnectionPoints@@$1?_GUID_b196b285_bab4_101a_b69c_00aa00341d07@@3U__s_GUID@@BPEAUIConnectionPoint@@V?$_CopyInterface@UIConnectionPoint@@@ATL@@VCComSingleThreadModel@6@@ATL@@@ATL@@UEAAJAEBU_GUID@@PEAPEAX@Z 00000001800039c4 f i ItemDispenser.obj
 0001:000029d8       ??_G?$CComObject@V?$CComEnum@UIEnumConnectionPoints@@$1?_GUID_b196b285_bab4_101a_b69c_00aa00341d07@@3U__s_GUID@@BPEAUIConnectionPoint@@V?$_CopyInterface@UIConnectionPoint@@@ATL@@VCComSingleThreadModel@6@@ATL@@@ATL@@UEAAPEAXI@Z 00000001800039d8 f i ItemDispenser.obj
 0001:000029d8       ??_E?$CComObject@V?$CComEnum@UIEnumConnectionPoints@@$1?_GUID_b196b285_bab4_101a_b69c_00aa00341d07@@3U__s_GUID@@BPEAUIConnectionPoint@@V?$_CopyInterface@UIConnectionPoint@@@ATL@@VCComSingleThreadModel@6@@ATL@@@ATL@@UEAAPEAXI@Z 00000001800039d8 f i ItemDispenser.obj
 0001:00002a30       ?AddReplacement@CRegObject@ATL@@UEAAJPEB_W0@Z 0000000180003a30 f i ItemDispenser.obj
 0001:00002a60       ?ClearReplacements@CRegObject@ATL@@UEAAJXZ 0000000180003a60 f i ItemDispenser.obj
 0001:00002a6c       ??_GCRegObject@ATL@@UEAAPEAXI@Z 0000000180003a6c f i ItemDispenser.obj
 0001:00002a6c       ??_ECRegObject@ATL@@UEAAPEAXI@Z 0000000180003a6c f i ItemDispenser.obj
 0001:00002aec       ?AddRef@?$CComAggObject@VCOPOSItemDispenser@@@ATL@@UEAAKXZ 0000000180003aec f i ItemDispenser.obj
 0001:00002af8       ?Release@?$CComAggObject@VCOPOSItemDispenser@@@ATL@@UEAAKXZ 0000000180003af8 f i ItemDispenser.obj
 0001:00002b4c       ?QueryInterface@?$CComAggObject@VCOPOSItemDispenser@@@ATL@@UEAAJAEBU_GUID@@PEAPEAX@Z 0000000180003b4c f i ItemDispenser.obj
 0001:00002bac       ?AddRef@?$CComContainedObject@VCOPOSItemDispenser@@@ATL@@UEAAKXZ 0000000180003bac f i ItemDispenser.obj
 0001:00002bbc       ?Release@?$CComContainedObject@VCOPOSItemDispenser@@@ATL@@UEAAKXZ 0000000180003bbc f i ItemDispenser.obj
 0001:00002bcc       ?QueryInterface@?$CComContainedObject@VCOPOSItemDispenser@@@ATL@@UEAAJAEBU_GUID@@PEAPEAX@Z 0000000180003bcc f i ItemDispenser.obj
 0001:00002bdc       ??_G?$CComAggObject@VCOPOSItemDispenser@@@ATL@@UEAAPEAXI@Z 0000000180003bdc f i ItemDispenser.obj
 0001:00002bdc       ??_E?$CComAggObject@VCOPOSItemDispenser@@@ATL@@UEAAPEAXI@Z 0000000180003bdc f i ItemDispenser.obj
 0001:00002c34       ?AddRef@?$CComObject@VCOPOSItemDispenser@@@ATL@@UEAAKXZ 0000000180003c34 f i ItemDispenser.obj
 0001:00002c44       ?Release@?$CComObject@VCOPOSItemDispenser@@@ATL@@UEAAKXZ 0000000180003c44 f i ItemDispenser.obj
 0001:00002c9c       ?QueryInterface@?$CComObject@VCOPOSItemDispenser@@@ATL@@UEAAJAEBU_GUID@@PEAPEAX@Z 0000000180003c9c f i ItemDispenser.obj
 0001:00002cb0       ?OnDrawAdvanced@CComControlBase@ATL@@UEAAJAEAUATL_DRAWINFO@@@Z 0000000180003cb0 f i ItemDispenser.obj
 0001:00002e3c       ?Next@?$CComEnumImpl@UIEnumConnections@@$1?_GUID_b196b287_bab4_101a_b69c_00aa00341d07@@3U__s_GUID@@BUtagCONNECTDATA@@V?$_Copy@UtagCONNECTDATA@@@ATL@@@ATL@@UEAAJKPEAUtagCONNECTDATA@@PEAK@Z 0000000180003e3c f i ItemDispenser.obj
 0001:00002f10       ?Skip@?$CComEnumImpl@UIEnumConnections@@$1?_GUID_b196b287_bab4_101a_b69c_00aa00341d07@@3U__s_GUID@@BUtagCONNECTDATA@@V?$_Copy@UtagCONNECTDATA@@@ATL@@@ATL@@UEAAJK@Z 0000000180003f10 f i ItemDispenser.obj
 0001:00002f3c       ?Clone@?$CComEnumImpl@UIEnumConnections@@$1?_GUID_b196b287_bab4_101a_b69c_00aa00341d07@@3U__s_GUID@@BUtagCONNECTDATA@@V?$_Copy@UtagCONNECTDATA@@@ATL@@@ATL@@UEAAJPEAPEAUIEnumConnections@@@Z 0000000180003f3c f i ItemDispenser.obj
 0001:00003068       ?QueryInterface@?$CComObject@V?$CComEnum@UIEnumConnections@@$1?_GUID_b196b287_bab4_101a_b69c_00aa00341d07@@3U__s_GUID@@BUtagCONNECTDATA@@V?$_Copy@UtagCONNECTDATA@@@ATL@@VCComSingleThreadModel@6@@ATL@@@ATL@@UEAAJAEBU_GUID@@PEAPEAX@Z 0000000180004068 f i ItemDispenser.obj
 0001:0000307c       ??_G?$CComObject@V?$CComEnum@UIEnumConnections@@$1?_GUID_b196b287_bab4_101a_b69c_00aa00341d07@@3U__s_GUID@@BUtagCONNECTDATA@@V?$_Copy@UtagCONNECTDATA@@@ATL@@VCComSingleThreadModel@6@@ATL@@@ATL@@UEAAPEAXI@Z 000000018000407c f i ItemDispenser.obj
 0001:0000307c       ??_E?$CComObject@V?$CComEnum@UIEnumConnections@@$1?_GUID_b196b287_bab4_101a_b69c_00aa00341d07@@3U__s_GUID@@BUtagCONNECTDATA@@V?$_Copy@UtagCONNECTDATA@@@ATL@@VCComSingleThreadModel@6@@ATL@@@ATL@@UEAAPEAXI@Z 000000018000407c f i ItemDispenser.obj
 0001:000030d4       ??_E?$CComObject@VCOPOSItemDispenser@@@ATL@@W7EAAPEAXI@Z 00000001800040d4 f i ItemDispenser.obj
 0001:000030e0       ??_E?$CComObject@VCOPOSItemDispenser@@@ATL@@WHA@EAAPEAXI@Z 00000001800040e0 f i ItemDispenser.obj
 0001:000030ec       ?QueryInterface@?$CComObject@VCOPOSItemDispenser@@@ATL@@WLI@EAAJAEBU_GUID@@PEAPEAX@Z 00000001800040ec f i ItemDispenser.obj
 0001:000030f8       ?AddRef@?$CComObject@VCOPOSItemDispenser@@@ATL@@WLI@EAAKXZ 00000001800040f8 f i ItemDispenser.obj
 0001:00003104       ?Release@?$CComObject@VCOPOSItemDispenser@@@ATL@@WLI@EAAKXZ 0000000180004104 f i ItemDispenser.obj
 0001:00003110       ?QueryInterface@?$CComObject@VCOPOSItemDispenser@@@ATL@@WMA@EAAJAEBU_GUID@@PEAPEAX@Z 0000000180004110 f i ItemDispenser.obj
 0001:0000311c       ?AddRef@?$CComObject@VCOPOSItemDispenser@@@ATL@@WMA@EAAKXZ 000000018000411c f i ItemDispenser.obj
 0001:00003128       ?Release@?$CComObject@VCOPOSItemDispenser@@@ATL@@WMA@EAAKXZ 0000000180004128 f i ItemDispenser.obj
 0001:00003134       ?QueryInterface@?$CComObject@VCOPOSItemDispenser@@@ATL@@WMI@EAAJAEBU_GUID@@PEAPEAX@Z 0000000180004134 f i ItemDispenser.obj
 0001:00003140       ?AddRef@?$CComObject@VCOPOSItemDispenser@@@ATL@@WMI@EAAKXZ 0000000180004140 f i ItemDispenser.obj
 0001:0000314c       ?Release@?$CComObject@VCOPOSItemDispenser@@@ATL@@WMI@EAAKXZ 000000018000414c f i ItemDispenser.obj
 0001:00003158       ?QueryInterface@?$CComObject@VCOPOSItemDispenser@@@ATL@@WNA@EAAJAEBU_GUID@@PEAPEAX@Z 0000000180004158 f i ItemDispenser.obj
 0001:00003164       ?AddRef@?$CComObject@VCOPOSItemDispenser@@@ATL@@WNA@EAAKXZ 0000000180004164 f i ItemDispenser.obj
 0001:00003170       ?Release@?$CComObject@VCOPOSItemDispenser@@@ATL@@WNA@EAAKXZ 0000000180004170 f i ItemDispenser.obj
 0001:0000317c       ?QueryInterface@?$CComObject@VCOPOSItemDispenser@@@ATL@@WNI@EAAJAEBU_GUID@@PEAPEAX@Z 000000018000417c f i ItemDispenser.obj
 0001:00003188       ?AddRef@?$CComObject@VCOPOSItemDispenser@@@ATL@@WNI@EAAKXZ 0000000180004188 f i ItemDispenser.obj
 0001:00003194       ?Release@?$CComObject@VCOPOSItemDispenser@@@ATL@@WNI@EAAKXZ 0000000180004194 f i ItemDispenser.obj
 0001:000031a0       ?QueryInterface@?$CComObject@VCOPOSItemDispenser@@@ATL@@WOA@EAAJAEBU_GUID@@PEAPEAX@Z 00000001800041a0 f i ItemDispenser.obj
 0001:000031ac       ?AddRef@?$CComObject@VCOPOSItemDispenser@@@ATL@@WOA@EAAKXZ 00000001800041ac f i ItemDispenser.obj
 0001:000031b8       ?Release@?$CComObject@VCOPOSItemDispenser@@@ATL@@WOA@EAAKXZ 00000001800041b8 f i ItemDispenser.obj
 0001:000031c4       ?QueryInterface@?$CComObject@VCOPOSItemDispenser@@@ATL@@WOI@EAAJAEBU_GUID@@PEAPEAX@Z 00000001800041c4 f i ItemDispenser.obj
 0001:000031d0       ?AddRef@?$CComObject@VCOPOSItemDispenser@@@ATL@@WOI@EAAKXZ 00000001800041d0 f i ItemDispenser.obj
 0001:000031dc       ?Release@?$CComObject@VCOPOSItemDispenser@@@ATL@@WOI@EAAKXZ 00000001800041dc f i ItemDispenser.obj
 0001:000031e8       ?QueryInterface@?$CComObject@VCOPOSItemDispenser@@@ATL@@WPA@EAAJAEBU_GUID@@PEAPEAX@Z 00000001800041e8 f i ItemDispenser.obj
 0001:000031f4       ?AddRef@?$CComObject@VCOPOSItemDispenser@@@ATL@@WPA@EAAKXZ 00000001800041f4 f i ItemDispenser.obj
 0001:00003200       ?Release@?$CComObject@VCOPOSItemDispenser@@@ATL@@WPA@EAAKXZ 0000000180004200 f i ItemDispenser.obj
 0001:0000320c       ?QueryInterface@?$CComObject@VCOPOSItemDispenser@@@ATL@@WPI@EAAJAEBU_GUID@@PEAPEAX@Z 000000018000420c f i ItemDispenser.obj
 0001:00003218       ?AddRef@?$CComObject@VCOPOSItemDispenser@@@ATL@@WPI@EAAKXZ 0000000180004218 f i ItemDispenser.obj
 0001:00003224       ?Release@?$CComObject@VCOPOSItemDispenser@@@ATL@@WPI@EAAKXZ 0000000180004224 f i ItemDispenser.obj
 0001:00003230       ?QueryInterface@?$CComObject@VCOPOSItemDispenser@@@ATL@@WBAA@EAAJAEBU_GUID@@PEAPEAX@Z 0000000180004230 f i ItemDispenser.obj
 0001:0000323c       ?AddRef@?$CComObject@VCOPOSItemDispenser@@@ATL@@WBAA@EAAKXZ 000000018000423c f i ItemDispenser.obj
 0001:00003248       ?Release@?$CComObject@VCOPOSItemDispenser@@@ATL@@WBAA@EAAKXZ 0000000180004248 f i ItemDispenser.obj
 0001:00003254       ?QueryInterface@?$CComObject@VCOPOSItemDispenser@@@ATL@@WBAI@EAAJAEBU_GUID@@PEAPEAX@Z 0000000180004254 f i ItemDispenser.obj
 0001:00003260       ?AddRef@?$CComObject@VCOPOSItemDispenser@@@ATL@@WBAI@EAAKXZ 0000000180004260 f i ItemDispenser.obj
 0001:0000326c       ?Release@?$CComObject@VCOPOSItemDispenser@@@ATL@@WBAI@EAAKXZ 000000018000426c f i ItemDispenser.obj
 0001:00003278       ?QueryInterface@?$CComObject@VCOPOSItemDispenser@@@ATL@@WBBA@EAAJAEBU_GUID@@PEAPEAX@Z 0000000180004278 f i ItemDispenser.obj
 0001:00003284       ?AddRef@?$CComObject@VCOPOSItemDispenser@@@ATL@@WBBA@EAAKXZ 0000000180004284 f i ItemDispenser.obj
 0001:00003290       ?Release@?$CComObject@VCOPOSItemDispenser@@@ATL@@WBBA@EAAKXZ 0000000180004290 f i ItemDispenser.obj
 0001:0000329c       ?QueryInterface@?$CComObject@VCOPOSItemDispenser@@@ATL@@WBBI@EAAJAEBU_GUID@@PEAPEAX@Z 000000018000429c f i ItemDispenser.obj
 0001:000032a8       ?AddRef@?$CComObject@VCOPOSItemDispenser@@@ATL@@WBBI@EAAKXZ 00000001800042a8 f i ItemDispenser.obj
 0001:000032b4       ?Release@?$CComObject@VCOPOSItemDispenser@@@ATL@@WBBI@EAAKXZ 00000001800042b4 f i ItemDispenser.obj
 0001:000032c0       ?AddRef@?$CComObject@VCOPOSItemDispenser@@@ATL@@WBCI@EAAKXZ 00000001800042c0 f i ItemDispenser.obj
 0001:000032cc       ?Release@?$CComObject@VCOPOSItemDispenser@@@ATL@@WBCI@EAAKXZ 00000001800042cc f i ItemDispenser.obj
 0001:000032d8       ?AddRef@?$CComObject@VCOPOSItemDispenser@@@ATL@@WBEA@EAAKXZ 00000001800042d8 f i ItemDispenser.obj
 0001:000032e4       ?Release@?$CComObject@VCOPOSItemDispenser@@@ATL@@WBEA@EAAKXZ 00000001800042e4 f i ItemDispenser.obj
 0001:000032f0       ??_E?$CComContainedObject@VCOPOSItemDispenser@@@ATL@@W7EAAPEAXI@Z 00000001800042f0 f i ItemDispenser.obj
 0001:000032fc       ??_E?$CComContainedObject@VCOPOSItemDispenser@@@ATL@@WHA@EAAPEAXI@Z 00000001800042fc f i ItemDispenser.obj
 0001:00003308       ?QueryInterface@?$CComContainedObject@VCOPOSItemDispenser@@@ATL@@WLI@EAAJAEBU_GUID@@PEAPEAX@Z 0000000180004308 f i ItemDispenser.obj
 0001:00003314       ?AddRef@?$CComContainedObject@VCOPOSItemDispenser@@@ATL@@WLI@EAAKXZ 0000000180004314 f i ItemDispenser.obj
 0001:00003320       ?Release@?$CComContainedObject@VCOPOSItemDispenser@@@ATL@@WLI@EAAKXZ 0000000180004320 f i ItemDispenser.obj
 0001:0000332c       ?QueryInterface@?$CComContainedObject@VCOPOSItemDispenser@@@ATL@@WMA@EAAJAEBU_GUID@@PEAPEAX@Z 000000018000432c f i ItemDispenser.obj
 0001:00003338       ?AddRef@?$CComContainedObject@VCOPOSItemDispenser@@@ATL@@WMA@EAAKXZ 0000000180004338 f i ItemDispenser.obj
 0001:00003344       ?Release@?$CComContainedObject@VCOPOSItemDispenser@@@ATL@@WMA@EAAKXZ 0000000180004344 f i ItemDispenser.obj
 0001:00003350       ?QueryInterface@?$CComContainedObject@VCOPOSItemDispenser@@@ATL@@WMI@EAAJAEBU_GUID@@PEAPEAX@Z 0000000180004350 f i ItemDispenser.obj
 0001:0000335c       ?AddRef@?$CComContainedObject@VCOPOSItemDispenser@@@ATL@@WMI@EAAKXZ 000000018000435c f i ItemDispenser.obj
 0001:00003368       ?Release@?$CComContainedObject@VCOPOSItemDispenser@@@ATL@@WMI@EAAKXZ 0000000180004368 f i ItemDispenser.obj
 0001:00003374       ?QueryInterface@?$CComContainedObject@VCOPOSItemDispenser@@@ATL@@WNA@EAAJAEBU_GUID@@PEAPEAX@Z 0000000180004374 f i ItemDispenser.obj
 0001:00003380       ?AddRef@?$CComContainedObject@VCOPOSItemDispenser@@@ATL@@WNA@EAAKXZ 0000000180004380 f i ItemDispenser.obj
 0001:0000338c       ?Release@?$CComContainedObject@VCOPOSItemDispenser@@@ATL@@WNA@EAAKXZ 000000018000438c f i ItemDispenser.obj
 0001:00003398       ?QueryInterface@?$CComContainedObject@VCOPOSItemDispenser@@@ATL@@WNI@EAAJAEBU_GUID@@PEAPEAX@Z 0000000180004398 f i ItemDispenser.obj
 0001:000033a4       ?AddRef@?$CComContainedObject@VCOPOSItemDispenser@@@ATL@@WNI@EAAKXZ 00000001800043a4 f i ItemDispenser.obj
 0001:000033b0       ?Release@?$CComContainedObject@VCOPOSItemDispenser@@@ATL@@WNI@EAAKXZ 00000001800043b0 f i ItemDispenser.obj
 0001:000033bc       ?QueryInterface@?$CComContainedObject@VCOPOSItemDispenser@@@ATL@@WOA@EAAJAEBU_GUID@@PEAPEAX@Z 00000001800043bc f i ItemDispenser.obj
 0001:000033c8       ?AddRef@?$CComContainedObject@VCOPOSItemDispenser@@@ATL@@WOA@EAAKXZ 00000001800043c8 f i ItemDispenser.obj
 0001:000033d4       ?Release@?$CComContainedObject@VCOPOSItemDispenser@@@ATL@@WOA@EAAKXZ 00000001800043d4 f i ItemDispenser.obj
 0001:000033e0       ?QueryInterface@?$CComContainedObject@VCOPOSItemDispenser@@@ATL@@WOI@EAAJAEBU_GUID@@PEAPEAX@Z 00000001800043e0 f i ItemDispenser.obj
 0001:000033ec       ?AddRef@?$CComContainedObject@VCOPOSItemDispenser@@@ATL@@WOI@EAAKXZ 00000001800043ec f i ItemDispenser.obj
 0001:000033f8       ?Release@?$CComContainedObject@VCOPOSItemDispenser@@@ATL@@WOI@EAAKXZ 00000001800043f8 f i ItemDispenser.obj
 0001:00003404       ?QueryInterface@?$CComContainedObject@VCOPOSItemDispenser@@@ATL@@WPA@EAAJAEBU_GUID@@PEAPEAX@Z 0000000180004404 f i ItemDispenser.obj
 0001:00003410       ?AddRef@?$CComContainedObject@VCOPOSItemDispenser@@@ATL@@WPA@EAAKXZ 0000000180004410 f i ItemDispenser.obj
 0001:0000341c       ?Release@?$CComContainedObject@VCOPOSItemDispenser@@@ATL@@WPA@EAAKXZ 000000018000441c f i ItemDispenser.obj
 0001:00003428       ?QueryInterface@?$CComContainedObject@VCOPOSItemDispenser@@@ATL@@WPI@EAAJAEBU_GUID@@PEAPEAX@Z 0000000180004428 f i ItemDispenser.obj
 0001:00003434       ?AddRef@?$CComContainedObject@VCOPOSItemDispenser@@@ATL@@WPI@EAAKXZ 0000000180004434 f i ItemDispenser.obj
 0001:00003440       ?Release@?$CComContainedObject@VCOPOSItemDispenser@@@ATL@@WPI@EAAKXZ 0000000180004440 f i ItemDispenser.obj
 0001:0000344c       ?QueryInterface@?$CComContainedObject@VCOPOSItemDispenser@@@ATL@@WBAA@EAAJAEBU_GUID@@PEAPEAX@Z 000000018000444c f i ItemDispenser.obj
 0001:00003458       ?AddRef@?$CComContainedObject@VCOPOSItemDispenser@@@ATL@@WBAA@EAAKXZ 0000000180004458 f i ItemDispenser.obj
 0001:00003464       ?Release@?$CComContainedObject@VCOPOSItemDispenser@@@ATL@@WBAA@EAAKXZ 0000000180004464 f i ItemDispenser.obj
 0001:00003470       ?QueryInterface@?$CComContainedObject@VCOPOSItemDispenser@@@ATL@@WBAI@EAAJAEBU_GUID@@PEAPEAX@Z 0000000180004470 f i ItemDispenser.obj
 0001:0000347c       ?AddRef@?$CComContainedObject@VCOPOSItemDispenser@@@ATL@@WBAI@EAAKXZ 000000018000447c f i ItemDispenser.obj
 0001:00003488       ?Release@?$CComContainedObject@VCOPOSItemDispenser@@@ATL@@WBAI@EAAKXZ 0000000180004488 f i ItemDispenser.obj
 0001:00003494       ?QueryInterface@?$CComContainedObject@VCOPOSItemDispenser@@@ATL@@WBBA@EAAJAEBU_GUID@@PEAPEAX@Z 0000000180004494 f i ItemDispenser.obj
 0001:000034a0       ?AddRef@?$CComContainedObject@VCOPOSItemDispenser@@@ATL@@WBBA@EAAKXZ 00000001800044a0 f i ItemDispenser.obj
 0001:000034ac       ?Release@?$CComContainedObject@VCOPOSItemDispenser@@@ATL@@WBBA@EAAKXZ 00000001800044ac f i ItemDispenser.obj
 0001:000034b8       ?QueryInterface@?$CComContainedObject@VCOPOSItemDispenser@@@ATL@@WBBI@EAAJAEBU_GUID@@PEAPEAX@Z 00000001800044b8 f i ItemDispenser.obj
 0001:000034c4       ?AddRef@?$CComContainedObject@VCOPOSItemDispenser@@@ATL@@WBBI@EAAKXZ 00000001800044c4 f i ItemDispenser.obj
 0001:000034d0       ?Release@?$CComContainedObject@VCOPOSItemDispenser@@@ATL@@WBBI@EAAKXZ 00000001800044d0 f i ItemDispenser.obj
 0001:000034dc       ?AddRef@?$CComContainedObject@VCOPOSItemDispenser@@@ATL@@WBCI@EAAKXZ 00000001800044dc f i ItemDispenser.obj
 0001:000034e8       ?Release@?$CComContainedObject@VCOPOSItemDispenser@@@ATL@@WBCI@EAAKXZ 00000001800044e8 f i ItemDispenser.obj
 0001:000034f4       ?AddRef@?$CComContainedObject@VCOPOSItemDispenser@@@ATL@@WBEA@EAAKXZ 00000001800044f4 f i ItemDispenser.obj
 0001:00003500       ?Release@?$CComContainedObject@VCOPOSItemDispenser@@@ATL@@WBEA@EAAKXZ 0000000180004500 f i ItemDispenser.obj
 0001:0000350c       ?CreateInstance@CComClassFactory@ATL@@UEAAJPEAUIUnknown@@AEBU_GUID@@PEAPEAX@Z 000000018000450c f i ItemDispenser.obj
 0001:0000356c       ?LockServer@CComClassFactory@ATL@@UEAAJH@Z 000000018000456c f i ItemDispenser.obj
 0001:00003590       ??_GCComClassFactory@ATL@@UEAAPEAXI@Z 0000000180004590 f i ItemDispenser.obj
 0001:00003590       ??_ECComClassFactory@ATL@@UEAAPEAXI@Z 0000000180004590 f i ItemDispenser.obj
 0001:000035e0       ??$AtlModuleRegisterWndClassInfoT@VAtlModuleRegisterWndClassInfoParamW@ATL@@@ATL@@YAGPEAU_ATL_BASE_MODULE70@0@PEAU_ATL_WIN_MODULE70@0@PEAU_ATL_WNDCLASSINFOW@0@PEAP6A_JPEAUHWND__@@I_K_J@ZVAtlModuleRegisterWndClassInfoParamW@0@@Z 00000001800045e0 f i ItemDispenser.obj
 0001:000037e0       ??0?$CComContainedObject@VCOPOSItemDispenser@@@ATL@@QEAA@PEAX@Z 00000001800047e0 f i ItemDispenser.obj
 0001:000038fc       ??0?$CComObject@VCOPOSItemDispenser@@@ATL@@QEAA@PEAX@Z 00000001800048fc f i ItemDispenser.obj
 0001:00003a14       ??0CAtlModule@ATL@@QEAA@XZ 0000000180004a14 f i ItemDispenser.obj
 0001:00003a88       ??1?$CComEnumImpl@UIEnumConnectionPoints@@$1?_GUID_b196b285_bab4_101a_b69c_00aa00341d07@@3U__s_GUID@@BPEAUIConnectionPoint@@V?$_CopyInterface@UIConnectionPoint@@@ATL@@@ATL@@UEAA@XZ 0000000180004a88 f i ItemDispenser.obj
 0001:00003ae4       ??1?$CComEnumImpl@UIEnumConnections@@$1?_GUID_b196b287_bab4_101a_b69c_00aa00341d07@@3U__s_GUID@@BUtagCONNECTDATA@@V?$_Copy@UtagCONNECTDATA@@@ATL@@@ATL@@UEAA@XZ 0000000180004ae4 f i ItemDispenser.obj
 0001:00003b40       ??1?$CComObject@VCOPOSItemDispenser@@@ATL@@UEAA@XZ 0000000180004b40 f i ItemDispenser.obj
 0001:00003c60       ??_E?$CComContainedObject@VCOPOSItemDispenser@@@ATL@@UEAAPEAXI@Z 0000000180004c60 f i ItemDispenser.obj
 0001:00003c60       ??_G?$CComContainedObject@VCOPOSItemDispenser@@@ATL@@UEAAPEAXI@Z 0000000180004c60 f i ItemDispenser.obj
 0001:00003c94       ??_G?$CComObject@VCOPOSItemDispenser@@@ATL@@UEAAPEAXI@Z 0000000180004c94 f i ItemDispenser.obj
 0001:00003c94       ??_E?$CComObject@VCOPOSItemDispenser@@@ATL@@UEAAPEAXI@Z 0000000180004c94 f i ItemDispenser.obj
 0001:00003cc8       ?Add@?$CSimpleArray@GV?$CSimpleArrayEqualHelper@G@ATL@@@ATL@@QEAAHAEBG@Z 0000000180004cc8 f i ItemDispenser.obj
 0001:00003d7c       ?Add@?$CSimpleMap@PEA_WPEA_WVCExpansionVectorEqualHelper@ATL@@@ATL@@QEAAHAEBQEA_W0@Z 0000000180004d7c f i ItemDispenser.obj
 0001:00003e1c       ?Add@CComDynamicUnkArray@ATL@@QEAAKPEAUIUnknown@@@Z 0000000180004e1c f i ItemDispenser.obj
 0001:00003f04       ?Add@CExpansionVector@ATL@@QEAAHPEB_W0@Z 0000000180004f04 f i ItemDispenser.obj
 0001:00004038       ?AddTermFunc@CAtlModule@ATL@@QEAAJP6AX_K@Z0@Z 0000000180005038 f i ItemDispenser.obj
 0001:000040d4       ?AddValue@CRegParser@ATL@@IEAAJAEAVCRegKey@2@PEB_WPEA_W@Z 00000001800050d4 f i ItemDispenser.obj
 0001:0000451c       ?AllocateHeap@?$CTempBuffer@E$0BAA@VCCRTAllocator@ATL@@@ATL@@AEAAX_K@Z 000000018000551c f i ItemDispenser.obj
 0001:0000451c       ?AllocateHeap@?$CTempBuffer@_W$0EAA@VCCRTAllocator@ATL@@@ATL@@AEAAX_K@Z 000000018000551c f i ItemDispenser.obj
 0001:0000451c       ?AllocateHeap@?$CTempBuffer@_W$0BAA@VCCRTAllocator@ATL@@@ATL@@AEAAX_K@Z 000000018000551c f i ItemDispenser.obj
 0001:00004548       ?Append@CParseBuffer@CRegParser@ATL@@QEAAHPEB_WH@Z 0000000180005548 f i ItemDispenser.obj
 0001:00004690       ?AtlComModuleGetClassObject@ATL@@YAJPEAU_ATL_COM_MODULE70@1@AEBU_GUID@@1PEAPEAX@Z 0000000180005690 f i ItemDispenser.obj
 0001:000047d0       ?AtlComModuleRegisterServer@ATL@@YAJPEAU_ATL_COM_MODULE70@1@HPEBU_GUID@@@Z 00000001800057d0 f i ItemDispenser.obj
 0001:00004890       ?AtlComModuleUnregisterServer@ATL@@YAJPEAU_ATL_COM_MODULE70@1@HPEBU_GUID@@@Z 0000000180005890 f i ItemDispenser.obj
 0001:0000494c       ?AtlHiMetricToPixel@ATL@@YAXPEBUtagSIZE@@PEAU2@@Z 000000018000594c f i ItemDispenser.obj
 0001:000049fc       ?AtlHresultFromLastError@ATL@@YAJXZ 00000001800059fc f i ItemDispenser.obj
 0001:00004a1c       ?AtlHresultFromWin32@ATL@@YAJK@Z 0000000180005a1c f i ItemDispenser.obj
 0001:00004a2c       ?AtlInternalOleLoadFromStream@ATL@@YAJPEAUIStream@@AEBU_GUID@@PEAPEAXTClassesAllowedInStream@1@K@Z 0000000180005a2c f i ItemDispenser.obj
 0001:00004b70       ?AtlInternalQueryInterface@ATL@@YAJPEAXPEBU_ATL_INTMAP_ENTRY@1@AEBU_GUID@@PEAPEAX@Z 0000000180005b70 f i ItemDispenser.obj
 0001:00004c78       ?AtlLoadTypeLib@ATL@@YAJPEAUHINSTANCE__@@PEB_WPEAPEA_WPEAPEAUITypeLib@@@Z 0000000180005c78 f i ItemDispenser.obj
 0001:00004ed4       ?AtlRegisterClassCategoriesHelper@ATL@@YAJAEBU_GUID@@PEBU_ATL_CATMAP_ENTRY@1@H@Z 0000000180005ed4 f i ItemDispenser.obj
 0001:00005358       ?AtlRegisterTypeLib@ATL@@YAJPEAUHINSTANCE__@@PEB_W@Z 0000000180006358 f i ItemDispenser.obj
 0001:00005554       ?AtlThrowImpl@ATL@@YAXJ@Z  0000000180006554 f i ItemDispenser.obj
 0001:00005578       ?AtlUnRegisterTypeLib@ATL@@YAJPEAUHINSTANCE__@@PEB_W@Z 0000000180006578 f i ItemDispenser.obj
 0001:00005640       ?AtlWinModuleExtractCreateWndData@ATL@@YAPEAXPEAU_ATL_WIN_MODULE70@1@@Z 0000000180006640 f i ItemDispenser.obj
 0001:000056cc       ?Cleanup@CComTypeInfoHolder@ATL@@SAX_K@Z 00000001800066cc f i ItemDispenser.obj
 0001:0000570c       ?ClearReplacements@CExpansionVector@ATL@@QEAAJXZ 000000018000670c f i ItemDispenser.obj
 0001:000057a8       ?CreateInstance@?$CComCreator@V?$CComAggObject@VCOPOSItemDispenser@@@ATL@@@ATL@@SAJPEAXAEBU_GUID@@PEAPEAX@Z 00000001800067a8 f i ItemDispenser.obj
 0001:00005898       ?CreateInstance@?$CComCreator@V?$CComObject@VCOPOSItemDispenser@@@ATL@@@ATL@@SAJPEAXAEBU_GUID@@PEAPEAX@Z 0000000180006898 f i ItemDispenser.obj
 0001:00005950       ?CreateInstance@?$CComObject@V?$CComEnum@UIEnumConnectionPoints@@$1?_GUID_b196b285_bab4_101a_b69c_00aa00341d07@@3U__s_GUID@@BPEAUIConnectionPoint@@V?$_CopyInterface@UIConnectionPoint@@@ATL@@VCComSingleThreadModel@6@@ATL@@@ATL@@SAJPEAPEAV12@@Z 0000000180006950 f i ItemDispenser.obj
 0001:000059dc       ?CreateInstance@?$CComObject@V?$CComEnum@UIEnumConnections@@$1?_GUID_b196b287_bab4_101a_b69c_00aa00341d07@@3U__s_GUID@@BUtagCONNECTDATA@@V?$_Copy@UtagCONNECTDATA@@@ATL@@VCComSingleThreadModel@6@@ATL@@@ATL@@SAJPEAPEAV12@@Z 00000001800069dc f i ItemDispenser.obj
 0001:00005a68       ?DefaultReflectionHandler@?$CWindowImplRoot@VCWindow@ATL@@@ATL@@SAHPEAUHWND__@@I_K_JAEA_J@Z 0000000180006a68 f i ItemDispenser.obj
 0001:00005acc       ?DeleteSubKey@CRegKey@ATL@@QEAAJPEB_W@Z 0000000180006acc f i ItemDispenser.obj
 0001:00005b64       ?DoEvent@COPOSItemDispenser@@IEAAXI_K_J@Z 0000000180006b64 f i ItemDispenser.obj
 0001:00005c18       ?DoVerbPrimary@?$IOleObjectImpl@VCOPOSItemDispenser@@@ATL@@QEAAJPEBUtagRECT@@PEAUHWND__@@@Z 0000000180006c18 f i ItemDispenser.obj
 0001:00005d44       ?DoVerbProperties@CComControlBase@ATL@@QEAAJPEBUtagRECT@@PEAUHWND__@@@Z 0000000180006d44 f i ItemDispenser.obj
 0001:00005f6c       ?FireTheEvent@?$CProxy_IOPOSEvents@VCOPOSItemDispenser@@@@IEAAXPEAVOposVariant@@IAEAJPEB_WJ@Z 0000000180006f6c f i ItemDispenser.obj
 0001:00006058       ?FireViewChange@CComControlBase@ATL@@QEAAJXZ 0000000180007058 f i ItemDispenser.obj
 0001:000060bc       ?Fire_DirectIOEvent@?$CProxy_IOPOSEvents@VCOPOSItemDispenser@@@@QEAAXJPEAJPEAPEA_W@Z 00000001800070bc f i ItemDispenser.obj
 0001:00006214       ?Fire_StatusUpdateEvent@?$CProxy_IOPOSEvents@VCOPOSItemDispenser@@@@QEAAXJ@Z 0000000180007214 f i ItemDispenser.obj
 0001:00006300       ?FreeHeap@?$CTempBuffer@_W$0BAA@VCCRTAllocator@ATL@@@ATL@@AEAAXXZ 0000000180007300 f i ItemDispenser.obj
 0001:00006300       ?FreeHeap@?$CTempBuffer@_W$0EAA@VCCRTAllocator@ATL@@@ATL@@AEAAXXZ 0000000180007300 f i ItemDispenser.obj
 0001:00006300       ?FreeHeap@?$CTempBuffer@E$0BAA@VCCRTAllocator@ATL@@@ATL@@AEAAXXZ 0000000180007300 f i ItemDispenser.obj
 0001:00006308       ?GetAmbientLocaleID@CComControlBase@ATL@@QEAAJAEAK@Z 0000000180007308 f i ItemDispenser.obj
 0001:000063c8       ?GetAmbientUserMode@CComControlBase@ATL@@QEAAJAEAH@Z 00000001800073c8 f i ItemDispenser.obj
 0001:00006498       ?GetClassObject@CComModule@ATL@@QEAAJAEBU_GUID@@0PEAPEAX@Z 0000000180007498 f i ItemDispenser.obj
 0001:0000658c       ?GetConnMap@COPOSItemDispenser@@SAPEBU_ATL_CONNMAP_ENTRY@ATL@@PEAH@Z 000000018000758c f i ItemDispenser.obj
 0001:00006614       ?GetIDsOfNames@CComTypeInfoHolder@ATL@@QEAAJAEBU_GUID@@PEAPEA_WIKPEAJ@Z 0000000180007614 f i ItemDispenser.obj
 0001:0000678c       ?GetPagesHelper@?$ISpecifyPropertyPagesImpl@VCOPOSItemDispenser@@@ATL@@IEAAJPEAUtagCAUUID@@PEBUATL_PROPMAP_ENTRY@2@@Z 000000018000778c f i ItemDispenser.obj
 0001:0000692c       ?GetSizeMax@CComVariant@ATL@@QEBAJPEAT_ULARGE_INTEGER@@@Z 000000018000792c f i ItemDispenser.obj
 0001:00006b60       ?GetTI@CComTypeInfoHolder@ATL@@QEAAJK@Z 0000000180007b60 f i ItemDispenser.obj
 0001:00006e58       ?GetZoomInfo@CComControlBase@ATL@@QEAAXAEAUATL_DRAWINFO@@@Z 0000000180007e58 f i ItemDispenser.obj
 0001:00006efc       ?HKeyFromString@CRegParser@ATL@@KAPEAUHKEY__@@PEA_W@Z 0000000180007efc f i ItemDispenser.obj
 0001:00006f60       ?IDataObject_GetData@CComControlBase@ATL@@QEAAJPEAUtagFORMATETC@@PEAUtagSTGMEDIUM@@@Z 0000000180007f60 f i ItemDispenser.obj
 0001:00007154       ?IOleInPlaceObject_InPlaceDeactivate@CComControlBase@ATL@@QEAAJXZ 0000000180008154 f i ItemDispenser.obj
 0001:000071f4       ?IOleInPlaceObject_SetObjectRects@CComControlBase@ATL@@QEAAJPEBUtagRECT@@0@Z 00000001800081f4 f i ItemDispenser.obj
 0001:000072e4       ?IOleInPlaceObject_UIDeactivate@CComControlBase@ATL@@QEAAJXZ 00000001800082e4 f i ItemDispenser.obj
 0001:000073f0       ?IOleObject_Close@CComControlBase@ATL@@QEAAJK@Z 00000001800083f0 f i ItemDispenser.obj
 0001:00007508       ?IOleObject_SetClientSite@CComControlBase@ATL@@QEAAJPEAUIOleClientSite@@@Z 0000000180008508 f i ItemDispenser.obj
 0001:00007580       ?IOleObject_SetExtent@CComControlBase@ATL@@QEAAJKPEAUtagSIZE@@@Z 0000000180008580 f i ItemDispenser.obj
 0001:00007618       ?IPSI_GetIPersistStreamInit@?$IPersistStorageImpl@VCOPOSItemDispenser@@@ATL@@AEAAPEAUIPersistStreamInit@@XZ 0000000180008618 f i ItemDispenser.obj
 0001:00007700       ?IPersistStreamInit_Load@?$IPersistStreamInitImpl@VCOPOSItemDispenser@@@ATL@@QEAAJPEAUIStream@@PEBUATL_PROPMAP_ENTRY@2@@Z 0000000180008700 f i ItemDispenser.obj
 0001:00007a34       ?IPersistStreamInit_Save@?$IPersistStreamInitImpl@VCOPOSItemDispenser@@@ATL@@QEAAJPEAUIStream@@HPEBUATL_PROPMAP_ENTRY@2@@Z 0000000180008a34 f i ItemDispenser.obj
 0001:00007cd8       ?IQuickActivate_QuickActivate@CComControlBase@ATL@@QEAAJPEAUtagQACONTAINER@@PEAUtagQACONTROL@@@Z 0000000180008cd8 f i ItemDispenser.obj
 0001:00007f9c       ?IViewObject_Draw@CComControlBase@ATL@@QEAAJKJPEAXPEAUtagDVTARGETDEVICE@@PEAUHDC__@@2PEBU_RECTL@@3@Z 0000000180008f9c f i ItemDispenser.obj
 0001:000080b0       ?InPlaceActivate@CComControlBase@ATL@@QEAAJJPEBUtagRECT@@@Z 00000001800090b0 f i ItemDispenser.obj
 0001:000083e8       ?Init@?$CComEnumImpl@UIEnumConnectionPoints@@$1?_GUID_b196b285_bab4_101a_b69c_00aa00341d07@@3U__s_GUID@@BPEAUIConnectionPoint@@V?$_CopyInterface@UIConnectionPoint@@@ATL@@@ATL@@QEAAJPEAPEAUIConnectionPoint@@0PEAUIUnknown@@W4CComEnumFlags@2@@Z 00000001800093e8 f i ItemDispenser.obj
 0001:00008508       ?Init@?$CComEnumImpl@UIEnumConnections@@$1?_GUID_b196b287_bab4_101a_b69c_00aa00341d07@@3U__s_GUID@@BUtagCONNECTDATA@@V?$_Copy@UtagCONNECTDATA@@@ATL@@@ATL@@QEAAJPEAUtagCONNECTDATA@@0PEAUIUnknown@@W4CComEnumFlags@2@@Z 0000000180009508 f i ItemDispenser.obj
 0001:0000862c       ?IsEqualObject@?$CComPtrBase@UIOleClientSite@@@ATL@@QEAA_NPEAUIUnknown@@@Z 000000018000962c f i ItemDispenser.obj
 0001:000086b8       ?LoadNameCache@CComTypeInfoHolder@ATL@@QEAAJPEAUITypeInfo@@@Z 00000001800096b8 f i ItemDispenser.obj
 0001:00008838       ?Lookup@?$CSimpleMap@PEA_WPEA_WVCExpansionVectorEqualHelper@ATL@@@ATL@@QEBAPEA_WAEBQEA_W@Z 0000000180009838 f i ItemDispenser.obj
 0001:000088c4       ?NextToken@CRegParser@ATL@@IEAAJPEA_W@Z 00000001800098c4 f i ItemDispenser.obj
 0001:00008a7c       ?OnKillFocus@CComControlBase@ATL@@QEAA_JI_K_JAEAH@Z 0000000180009a7c f i ItemDispenser.obj
 0001:00008b18       ?OnMouseActivate@CComControlBase@ATL@@QEAA_JI_K_JAEAH@Z 0000000180009b18 f i ItemDispenser.obj
 0001:00008bb8       ?OnPaint@CComControlBase@ATL@@QEAA_JI_K_JAEAH@Z 0000000180009bb8 f i ItemDispenser.obj
 0001:00008ca4       ?OnSetFocus@CComControlBase@ATL@@QEAA_JI_K_JAEAH@Z 0000000180009ca4 f i ItemDispenser.obj
 0001:00008da0       ?PreProcessBuffer@CRegParser@ATL@@QEAAJPEA_WPEAPEA_W@Z 0000000180009da0 f i ItemDispenser.obj
 0001:00009124       ?ProcessWindowMessage@?$CComControl@VCOPOSItemDispenser@@V?$CWindowImpl@VCOPOSItemDispenser@@VCWindow@ATL@@V?$CWinTraits@$0FGAAAAAA@$0A@@3@@ATL@@@ATL@@UEAAHPEAUHWND__@@I_K_JAEA_JK@Z 000000018000a124 f i ItemDispenser.obj
 0001:00009208       ?ReadFromStream@CComBSTR@ATL@@QEAAJPEAUIStream@@@Z 000000018000a208 f i ItemDispenser.obj
 0001:00009364       ?ReadFromStream@CComVariant@ATL@@QEAAJPEAUIStream@@GTClassesAllowedInStream@2@K@Z 000000018000a364 f i ItemDispenser.obj
 0001:00009574       ?RecurseDeleteKey@CRegKey@ATL@@QEAAJPEB_W@Z 000000018000a574 f i ItemDispenser.obj
 0001:000096cc       ?RegCreateKeyExW@CAtlTransactionManager@ATL@@QEAAJPEAUHKEY__@@PEB_WKPEA_WKKQEAU_SECURITY_ATTRIBUTES@@PEAPEAU3@PEAK@Z 000000018000a6cc f i ItemDispenser.obj
 0001:00009800       ?RegDeleteKeyW@CAtlTransactionManager@ATL@@QEAAJPEAUHKEY__@@PEB_W@Z 000000018000a800 f i ItemDispenser.obj
 0001:0000988c       ?RegOpenKeyExW@CAtlTransactionManager@ATL@@QEAAJPEAUHKEY__@@PEB_WKKPEAPEAU3@@Z 000000018000a88c f i ItemDispenser.obj
 0001:00009944       ?RegisterBuffer@CRegParser@ATL@@QEAAJPEA_WH@Z 000000018000a944 f i ItemDispenser.obj
 0001:00009aac       ?RegisterFromResource@CRegObject@ATL@@IEAAJPEB_W00H@Z 000000018000aaac f i ItemDispenser.obj
 0001:00009c68       ?RegisterServer@CComModule@ATL@@QEAAJHPEBU_GUID@@@Z 000000018000ac68 f i ItemDispenser.obj
 0001:00009d28       ?RegisterSubkeys@CRegParser@ATL@@IEAAJPEA_WPEAUHKEY__@@HH@Z 000000018000ad28 f i ItemDispenser.obj
 0001:0000a594       ?SendOnDataChange@CComControlBase@ATL@@QEAAJK@Z 000000018000b594 f i ItemDispenser.obj
 0001:0000a604       ?SetControlFocus@CComControlBase@ATL@@QEAAHH@Z 000000018000b604 f i ItemDispenser.obj
 0001:0000a6e0       ?SkipAssignment@CRegParser@ATL@@IEAAJPEA_W@Z 000000018000b6e0 f i ItemDispenser.obj
 0001:0000a784       ?Term@CAtlModule@ATL@@QEAAXXZ 000000018000b784 f i ItemDispenser.obj
 0001:0000a804       ?Term@CComModule@ATL@@QEAAXXZ 000000018000b804 f i ItemDispenser.obj
 0001:0000a880       ?UnregisterServer@CComModule@ATL@@QEAAJHPEBU_GUID@@@Z 000000018000b880 f i ItemDispenser.obj
 0001:0000a930       ?UpdateRegistryFromResource@CAtlModule@ATL@@QEAAJIHPEAU_ATL_REGMAP_ENTRY@2@@Z 000000018000b930 f i ItemDispenser.obj
 0001:0000ac3c       ?UpdateRegistryFromResource@CAtlModule@ATL@@QEAAJPEB_WHPEAU_ATL_REGMAP_ENTRY@2@@Z 000000018000bc3c f i ItemDispenser.obj
 0001:0000af60       ?VTFromRegType@CRegParser@ATL@@KAHPEB_WAEAG@Z 000000018000bf60 f i ItemDispenser.obj
 0001:0000affc       ?WindowProc@?$CWindowImplBaseT@VCWindow@ATL@@V?$CWinTraits@$0FGAAAAAA@$0A@@2@@ATL@@SA_JPEAUHWND__@@I_K_J@Z 000000018000bffc f i ItemDispenser.obj
 0001:0000b168       ?WriteToStream@CComVariant@ATL@@QEAAJPEAUIStream@@@Z 000000018000c168 f i ItemDispenser.obj
 0001:0000b3bc       ?WriteToStream@CComVariant@ATL@@QEAAJPEAUIStream@@G@Z 000000018000c3bc f i ItemDispenser.obj
 0001:0000b454       ?_AtlVerifyStackAvailable@_ATL_SAFE_ALLOCA_IMPL@ATL@@YA_N_K@Z 000000018000c454 f i ItemDispenser.obj
 0001:0000b4d8       ?atlCreate@?$CWindowImpl@VCOPOSItemDispenser@@VCWindow@ATL@@V?$CWinTraits@$0FGAAAAAA@$0A@@3@@ATL@@QEAAPEAUHWND__@@PEAU3@V_U_RECT@2@PEB_WKKV_U_MENUorID@2@PEAX@Z 000000018000c4d8 f i ItemDispenser.obj
 0001:0000b588       ?atlCreate@?$CWindowImplBaseT@VCWindow@ATL@@V?$CWinTraits@$0FGAAAAAA@$0A@@2@@ATL@@QEAAPEAUHWND__@@PEAU3@V_U_RECT@2@PEB_WKKV_U_MENUorID@2@GPEAX@Z 000000018000c588 f i ItemDispenser.obj
 0001:0000b6f8       ?ocscpy_s@@YA_NPEA_W_KPEB_W@Z 000000018000c6f8 f i ItemDispenser.obj
 0001:0000b7a8       DllCanUnloadNow            000000018000c7a8 f   ItemDispenser.obj
 0001:0000b7b4       DllGetClassObject          000000018000c7b4 f   ItemDispenser.obj
 0001:0000b7cc       DllMain                    000000018000c7cc f   ItemDispenser.obj
 0001:0000b874       DllRegisterServer          000000018000c874 f   ItemDispenser.obj
 0001:0000b888       DllUnregisterServer        000000018000c888 f   ItemDispenser.obj
 0001:0000b89c       __local_stdio_printf_options 000000018000c89c f i ItemDispenser.obj
 0001:0000b8a4       swprintf_s                 000000018000c8a4 f i ItemDispenser.obj
 0001:0000b8f8       ??0COPOSItemDispenser@@QEAA@XZ 000000018000c8f8 f   ItemDispenserImpl.obj
 0001:0000b9b4       ??1?$IConnectionPointImpl@VCOPOSItemDispenser@@$1?DIID__IOPOSItemDispenserEvents@@3U_GUID@@BVCComDynamicUnkArray@ATL@@@ATL@@QEAA@XZ 000000018000c9b4 f i ItemDispenserImpl.obj
 0001:0000b9b4       ??1?$IConnectionPointImpl@VCOPOSItemDispenser@@$1?IID_IPropertyNotifySink@@3U_GUID@@BVCComDynamicUnkArray@ATL@@@ATL@@QEAA@XZ 000000018000c9b4 f i ItemDispenserImpl.obj
 0001:0000ba10       ??1CComControlBase@ATL@@UEAA@XZ 000000018000ca10 f i ItemDispenserImpl.obj
 0001:0000ba8c       ??1COPOSItemDispenser@@UEAA@XZ 000000018000ca8c f   ItemDispenserImpl.obj
 0001:0000baf0       ?AdjustItemCount@COPOSItemDispenser@@UEAAJJJPEAJ@Z 000000018000caf0 f   ItemDispenserImpl.obj
 0001:0000bbbc       ?CheckHealth@COPOSItemDispenser@@UEAAJJPEAJ@Z 000000018000cbbc f   ItemDispenserImpl.obj
 0001:0000bc38       ?ClaimDevice@COPOSItemDispenser@@UEAAJJPEAJ@Z 000000018000cc38 f   ItemDispenserImpl.obj
 0001:0000bcd8       ?Close@COPOSItemDispenser@@UEAAJPEAJ@Z 000000018000ccd8 f   ItemDispenserImpl.obj
 0001:0000bd90       ?CompareFirmwareVersion@COPOSItemDispenser@@UEAAJPEA_WPEAJ1@Z 000000018000cd90 f   ItemDispenserImpl.obj
 0001:0000be6c       ?DirectIO@COPOSItemDispenser@@UEAAJJPEAJPEAPEA_W0@Z 000000018000ce6c f   ItemDispenserImpl.obj
 0001:0000bf68       ?DispenseItem@COPOSItemDispenser@@UEAAJPEAJJ0@Z 000000018000cf68 f   ItemDispenserImpl.obj
 0001:0000c040       ?DoInvoke@COPOSItemDispenser@@IEAAJJPEAVOposVariant@@IHPEAJ_N@Z 000000018000d040 f   ItemDispenserImpl.obj
 0001:0000c174       ?EventInit@COPOSItemDispenser@@IEAAJXZ 000000018000d174 f i ItemDispenserImpl.obj
 0001:0000c2bc       ?EventUninit@COPOSItemDispenser@@IEAAXXZ 000000018000d2bc f i ItemDispenserImpl.obj
 0001:0000c320       ?EventWindowProc@COPOSItemDispenser@@IEAA_JI_K_J@Z 000000018000d320 f i ItemDispenserImpl.obj
 0001:0000c418       ?FinalConstruct@COPOSItemDispenser@@QEAAJXZ 000000018000d418 f   ItemDispenserImpl.obj
 0001:0000c454       ?FreezeEvents@COPOSItemDispenser@@MEAAJH@Z 000000018000d454 f   ItemDispenserImpl.obj
 0001:0000c4c8       ?GetOposProp@COPOSItemDispenser@@IEAAJJPEAJJ@Z 000000018000d4c8 f   ItemDispenserImpl.obj
 0001:0000c5e4       ?GetOposProp@COPOSItemDispenser@@IEAAJJPEAPEA_WJ@Z 000000018000d5e4 f   ItemDispenserImpl.obj
 0001:0000c710       ?OnDraw@COPOSItemDispenser@@MEAAJAEAUATL_DRAWINFO@@@Z 000000018000d710 f   ItemDispenserImpl.obj
 0001:0000c7fc       ?Open@COPOSItemDispenser@@UEAAJPEA_WPEAJ@Z 000000018000d7fc f   ItemDispenserImpl.obj
 0001:0000d084       ?ReadItemCount@COPOSItemDispenser@@UEAAJPEAJJ0@Z 000000018000e084 f   ItemDispenserImpl.obj
 0001:0000d15c       ?ReleaseDevice@COPOSItemDispenser@@UEAAJPEAJ@Z 000000018000e15c f   ItemDispenserImpl.obj
 0001:0000d1c8       ?ResetStatistics@COPOSItemDispenser@@UEAAJPEA_WPEAJ@Z 000000018000e1c8 f   ItemDispenserImpl.obj
 0001:0000d250       ?RetrieveStatistics@COPOSItemDispenser@@UEAAJPEAPEA_WPEAJ@Z 000000018000e250 f   ItemDispenserImpl.obj
 0001:0000d2d8       ?SOProcessID@COPOSItemDispenser@@UEAAJPEAJ@Z 000000018000e2d8 f   ItemDispenserImpl.obj
 0001:0000d2f4       ?SetCOFreezeEvents@COPOSItemDispenser@@IEAAXF@Z 000000018000e2f4 f   ItemDispenserImpl.obj
 0001:0000d3d8       ?SetOposProp@COPOSItemDispenser@@IEAAJJJJ@Z 000000018000e3d8 f   ItemDispenserImpl.obj
 0001:0000d538       ?UpdateFirmware@COPOSItemDispenser@@UEAAJPEA_WPEAJ@Z 000000018000e538 f   ItemDispenserImpl.obj
 0001:0000d5c0       ?UpdateStatistics@COPOSItemDispenser@@UEAAJPEA_WPEAJ@Z 000000018000e5c0 f   ItemDispenserImpl.obj
 0001:0000d648       ?get_BinaryConversion@COPOSItemDispenser@@UEAAJPEAJ@Z 000000018000e648 f   ItemDispenserImpl.obj
 0001:0000d65c       ?get_CapCompareFirmwareVersion@COPOSItemDispenser@@UEAAJPEAF@Z 000000018000e65c f   ItemDispenserImpl.obj
 0001:0000d690       ?get_CapEmptySensor@COPOSItemDispenser@@UEAAJPEAF@Z 000000018000e690 f   ItemDispenserImpl.obj
 0001:0000d6c4       ?get_CapIndividualSlotStatus@COPOSItemDispenser@@UEAAJPEAF@Z 000000018000e6c4 f   ItemDispenserImpl.obj
 0001:0000d6f8       ?get_CapJamSensor@COPOSItemDispenser@@UEAAJPEAF@Z 000000018000e6f8 f   ItemDispenserImpl.obj
 0001:0000d72c       ?get_CapNearEmptySensor@COPOSItemDispenser@@UEAAJPEAF@Z 000000018000e72c f   ItemDispenserImpl.obj
 0001:0000d760       ?get_CapPowerReporting@COPOSItemDispenser@@UEAAJPEAJ@Z 000000018000e760 f   ItemDispenserImpl.obj
 0001:0000d774       ?get_CapStatisticsReporting@COPOSItemDispenser@@UEAAJPEAF@Z 000000018000e774 f   ItemDispenserImpl.obj
 0001:0000d7a8       ?get_CapUpdateFirmware@COPOSItemDispenser@@UEAAJPEAF@Z 000000018000e7a8 f   ItemDispenserImpl.obj
 0001:0000d7dc       ?get_CapUpdateStatistics@COPOSItemDispenser@@UEAAJPEAF@Z 000000018000e7dc f   ItemDispenserImpl.obj
 0001:0000d810       ?get_CheckHealthText@COPOSItemDispenser@@UEAAJPEAPEA_W@Z 000000018000e810 f   ItemDispenserImpl.obj
 0001:0000d824       ?get_Claimed@COPOSItemDispenser@@UEAAJPEAF@Z 000000018000e824 f   ItemDispenserImpl.obj
 0001:0000d858       ?get_ControlObjectDescription@COPOSItemDispenser@@UEAAJPEAPEA_W@Z 000000018000e858 f   ItemDispenserImpl.obj
 0001:0000d8bc       ?get_ControlObjectVersion@COPOSItemDispenser@@UEAAJPEAJ@Z 000000018000e8bc f   ItemDispenserImpl.obj
 0001:0000d8c8       ?get_DeviceDescription@COPOSItemDispenser@@UEAAJPEAPEA_W@Z 000000018000e8c8 f   ItemDispenserImpl.obj
 0001:0000d8dc       ?get_DeviceEnabled@COPOSItemDispenser@@UEAAJPEAF@Z 000000018000e8dc f   ItemDispenserImpl.obj
 0001:0000d910       ?get_DeviceName@COPOSItemDispenser@@UEAAJPEAPEA_W@Z 000000018000e910 f   ItemDispenserImpl.obj
 0001:0000d924       ?get_DispenserStatus@COPOSItemDispenser@@UEAAJPEAJ@Z 000000018000e924 f   ItemDispenserImpl.obj
 0001:0000d938       ?get_FreezeEvents@COPOSItemDispenser@@UEAAJPEAF@Z 000000018000e938 f   ItemDispenserImpl.obj
 0001:0000d968       ?get_MaxSlots@COPOSItemDispenser@@UEAAJPEAJ@Z 000000018000e968 f   ItemDispenserImpl.obj
 0001:0000d97c       ?get_OpenResult@COPOSItemDispenser@@UEAAJPEAJ@Z 000000018000e97c f   ItemDispenserImpl.obj
 0001:0000d988       ?get_PowerNotify@COPOSItemDispenser@@UEAAJPEAJ@Z 000000018000e988 f   ItemDispenserImpl.obj
 0001:0000d99c       ?get_PowerState@COPOSItemDispenser@@UEAAJPEAJ@Z 000000018000e99c f   ItemDispenserImpl.obj
 0001:0000d9b0       ?get_ResultCode@COPOSItemDispenser@@UEAAJPEAJ@Z 000000018000e9b0 f   ItemDispenserImpl.obj
 0001:0000d9ec       ?get_ResultCodeExtended@COPOSItemDispenser@@UEAAJPEAJ@Z 000000018000e9ec f   ItemDispenserImpl.obj
 0001:0000da00       ?get_ServiceObjectDescription@COPOSItemDispenser@@UEAAJPEAPEA_W@Z 000000018000ea00 f   ItemDispenserImpl.obj
 0001:0000da14       ?get_ServiceObjectVersion@COPOSItemDispenser@@UEAAJPEAJ@Z 000000018000ea14 f   ItemDispenserImpl.obj
 0001:0000da28       ?get_State@COPOSItemDispenser@@UEAAJPEAJ@Z 000000018000ea28 f   ItemDispenserImpl.obj
 0001:0000da54       ?put_BinaryConversion@COPOSItemDispenser@@UEAAJJ@Z 000000018000ea54 f   ItemDispenserImpl.obj
 0001:0000da68       ?put_DeviceEnabled@COPOSItemDispenser@@UEAAJF@Z 000000018000ea68 f   ItemDispenserImpl.obj
 0001:0000da80       ?put_FreezeEvents@COPOSItemDispenser@@UEAAJF@Z 000000018000ea80 f   ItemDispenserImpl.obj
 0001:0000dad0       ?put_PowerNotify@COPOSItemDispenser@@UEAAJJ@Z 000000018000ead0 f   ItemDispenserImpl.obj
 0001:0000dae4       ?s_EventWindowProc@COPOSItemDispenser@@KA_JPEAUHWND__@@I_K_J@Z 000000018000eae4 f i ItemDispenserImpl.obj
 0001:0000db60       ??_U@YAPEAX_K@Z            000000018000eb60 f   LIBCMT:new_array.obj
 0001:0000db68       ??_V@YAXPEAX@Z             000000018000eb68 f   LIBCMT:delete_array.obj
 0001:0000db68       ??3@YAXPEAX_K@Z            000000018000eb68 f   LIBCMT:delete_scalar_size.obj
 0001:0000db70       ??_V@YAXPEAX_K@Z           000000018000eb70 f   LIBCMT:delete_array_size.obj
 0001:0000db78       __scrt_acquire_startup_lock 000000018000eb78 f   LIBCMT:utility.obj
 0001:0000dbb4       __scrt_dllmain_after_initialize_c 000000018000ebb4 f   LIBCMT:utility.obj
 0001:0000dbe8       __scrt_dllmain_before_initialize_c 000000018000ebe8 f   LIBCMT:utility.obj
 0001:0000dc00       __scrt_dllmain_crt_thread_attach 000000018000ec00 f   LIBCMT:utility.obj
 0001:0000dc28       __scrt_dllmain_crt_thread_detach 000000018000ec28 f   LIBCMT:utility.obj
 0001:0000dc40       __scrt_dllmain_exception_filter 000000018000ec40 f   LIBCMT:utility.obj
 0001:0000dca0       __scrt_dllmain_uninitialize_c 000000018000eca0 f   LIBCMT:utility.obj
 0001:0000dcd0       __scrt_dllmain_uninitialize_critical 000000018000ecd0 f   LIBCMT:utility.obj
 0001:0000dce4       __scrt_initialize_crt      000000018000ece4 f   LIBCMT:utility.obj
 0001:0000dd30       __scrt_initialize_onexit_tables 000000018000ed30 f   LIBCMT:utility.obj
 0001:0000ddbc       __scrt_is_nonwritable_in_current_image 000000018000edbc f   LIBCMT:utility.obj
 0001:0000de54       __scrt_release_startup_lock 000000018000ee54 f   LIBCMT:utility.obj
 0001:0000de78       __scrt_uninitialize_crt    000000018000ee78 f   LIBCMT:utility.obj
 0001:0000dea4       _onexit                    000000018000eea4 f   LIBCMT:utility.obj
 0001:0000dee0       atexit                     000000018000eee0 f   LIBCMT:utility.obj
 0001:0000def8       ??3@YAXPEAX@Z              000000018000eef8 f   LIBCMT:delete_scalar.obj
 0001:0000dff8       _Init_thread_footer        000000018000eff8 f   LIBCMT:thread_safe_statics.obj
 0001:0000e058       _Init_thread_header        000000018000f058 f   LIBCMT:thread_safe_statics.obj
 0001:0000e0c0       _Init_thread_notify        000000018000f0c0 f   LIBCMT:thread_safe_statics.obj
 0001:0000e104       _Init_thread_wait          000000018000f104 f   LIBCMT:thread_safe_statics.obj
 0001:0000e168       __raise_securityfailure    000000018000f168 f   LIBCMT:gs_report.obj
 0001:0000e19c       __report_gsfailure         000000018000f19c f   LIBCMT:gs_report.obj
 0001:0000e270       __report_rangecheckfailure 000000018000f270 f   LIBCMT:gs_report.obj
 0001:0000e284       __report_securityfailure   000000018000f284 f   LIBCMT:gs_report.obj
 0001:0000e404       ??2@YAPEAX_KAEBUnothrow_t@std@@@Z 000000018000f404 f   LIBCMT:new_scalar_nothrow.obj
 0001:0000e424       ??_U@YAPEAX_KAEBUnothrow_t@std@@@Z 000000018000f424 f   LIBCMT:new_array_nothrow.obj
 0001:0000e42c       __GSHandlerCheck           000000018000f42c f   LIBCMT:gshandler.obj
 0001:0000e44c       __GSHandlerCheckCommon     000000018000f44c f   LIBCMT:gshandler.obj
 0001:0000e4a8       __GSHandlerCheck_SEH       000000018000f4a8 f   LIBCMT:gshandlerseh.obj
 0001:0000e540       __chkstk                   000000018000f540 f   LIBCMT:chkstk.obj
 0001:0000e540       _alloca_probe              000000018000f540 f   LIBCMT:chkstk.obj
 0001:0000e5b0       __security_check_cookie    000000018000f5b0 f   LIBCMT:amdsecgs.obj
 0001:0000e8f4       _DllMainCRTStartup         000000018000f8f4 f   LIBCMT:dll_dllmain.obj
 0001:0000e934       ??2@YAPEAX_K@Z             000000018000f934 f   LIBCMT:new_scalar.obj
 0001:0000e970       __isa_available_init       000000018000f970 f   LIBCMT:cpu_disp.obj
 0001:0000eb14       __scrt_is_ucrt_dll_in_use  000000018000fb14 f   LIBCMT:ucrt_detection.obj
 0001:0000eb20       __crt_debugger_hook        000000018000fb20 f   LIBCMT:utility_desktop.obj
 0001:0000eb28       __scrt_fastfail            000000018000fb28 f   LIBCMT:utility_desktop.obj
 0001:0000ec74       __security_init_cookie     000000018000fc74 f   LIBCMT:gs_support.obj
 0001:0000ed20       ?__scrt_initialize_type_info@@YAXXZ 000000018000fd20 f   LIBCMT:tncleanup.obj
 0001:0000ed30       ?__scrt_uninitialize_type_info@@YAXXZ 000000018000fd30 f   LIBCMT:tncleanup.obj
 0001:0000ed3c       __local_stdio_scanf_options 000000018000fd3c f i LIBCMT:default_local_stdio_options.obj
 0001:0000ed44       __scrt_initialize_default_local_stdio_options 000000018000fd44 f   LIBCMT:default_local_stdio_options.obj
 0001:0000ed60       __scrt_get_dyn_tls_init_callback 000000018000fd60 f   LIBCMT:dyn_tls_init.obj
 0001:0000ed68       _RTC_Initialize            000000018000fd68 f   LIBCMT:initsect.obj
 0001:0000eda4       _RTC_Terminate             000000018000fda4 f   LIBCMT:initsect.obj
 0001:0000ede0       ??0bad_alloc@std@@QEAA@AEBV01@@Z 000000018000fde0 f i LIBCMT:throw_bad_alloc.obj
 0001:0000ee1c       ??0bad_alloc@std@@QEAA@XZ  000000018000fe1c f i LIBCMT:throw_bad_alloc.obj
 0001:0000ee3c       ??0bad_array_new_length@std@@QEAA@AEBV01@@Z 000000018000fe3c f i LIBCMT:throw_bad_alloc.obj
 0001:0000ee78       ??0bad_array_new_length@std@@QEAA@XZ 000000018000fe78 f i LIBCMT:throw_bad_alloc.obj
 0001:0000ee98       ??0exception@std@@QEAA@AEBV01@@Z 000000018000fe98 f i LIBCMT:throw_bad_alloc.obj
 0001:0000eecc       ??1bad_array_new_length@std@@UEAA@XZ 000000018000fecc f i LIBCMT:throw_bad_alloc.obj
 0001:0000eecc       ??1bad_alloc@std@@UEAA@XZ  000000018000fecc f i LIBCMT:throw_bad_alloc.obj
 0001:0000eecc       ??1bad_exception@std@@UEAA@XZ 000000018000fecc f i libvcruntime:frame.obj
 0001:0000eee0       ??_Ebad_alloc@std@@UEAAPEAXI@Z 000000018000fee0 f i LIBCMT:throw_bad_alloc.obj
 0001:0000eee0       ??_Eexception@std@@UEAAPEAXI@Z 000000018000fee0 f i LIBCMT:throw_bad_alloc.obj
 0001:0000eee0       ??_Ebad_exception@std@@UEAAPEAXI@Z 000000018000fee0 f i libvcruntime:frame.obj
 0001:0000eee0       ??_Gbad_exception@std@@UEAAPEAXI@Z 000000018000fee0 f i libvcruntime:frame.obj
 0001:0000eee0       ??_Gbad_array_new_length@std@@UEAAPEAXI@Z 000000018000fee0 f i LIBCMT:throw_bad_alloc.obj
 0001:0000eee0       ??_Gexception@std@@UEAAPEAXI@Z 000000018000fee0 f i LIBCMT:throw_bad_alloc.obj
 0001:0000eee0       ??_Gbad_alloc@std@@UEAAPEAXI@Z 000000018000fee0 f i LIBCMT:throw_bad_alloc.obj
 0001:0000eee0       ??_Ebad_array_new_length@std@@UEAAPEAXI@Z 000000018000fee0 f i LIBCMT:throw_bad_alloc.obj
 0001:0000ef24       ?__scrt_throw_std_bad_alloc@@YAXXZ 000000018000ff24 f   LIBCMT:throw_bad_alloc.obj
 0001:0000ef44       ?__scrt_throw_std_bad_array_new_length@@YAXXZ 000000018000ff44 f   LIBCMT:throw_bad_alloc.obj
 0001:0000ef64       ?what@exception@std@@UEBAPEBDXZ 000000018000ff64 f i LIBCMT:throw_bad_alloc.obj
 0001:0000ef80       ??_Gtype_info@@UEAAPEAXI@Z 000000018000ff80 f i LIBCMT:std_type_info_static.obj
 0001:0000ef80       ??_Etype_info@@UEAAPEAXI@Z 000000018000ff80 f i LIBCMT:std_type_info_static.obj
 0001:0000efac       ??0CAtlBaseModule@ATL@@QEAA@XZ 000000018000ffac f   atls:atlbase.obj
 0001:0000f054       ??1CAtlBaseModule@ATL@@QEAA@XZ 0000000180010054 f   atls:atlbase.obj
 0001:0000f188       ?__AllocStdCallThunk_cmn@@YAPEAXXZ 0000000180010188 f   atls:atlthunk.obj
 0001:0000f2e0       AtlThunk_AllocateData      00000001800102e0 f   atls:atlthunk.obj
 0001:0000f35c       AtlThunk_DataToCode        000000018001035c f   atls:atlthunk.obj
 0001:0000f3b0       AtlThunk_FreeData          00000001800103b0 f   atls:atlthunk.obj
 0001:0000f410       AtlThunk_InitData          0000000180010410 f   atls:atlthunk.obj
 0001:0000f4b8       _get_purecall_handler      00000001800104b8 f   libvcruntime:purevirt.obj
 0001:0000f4c0       _purecall                  00000001800104c0 f   libvcruntime:purevirt.obj
 0001:0000f4dc       wcsstr                     00000001800104dc f   libvcruntime:wcsstr.obj
 0001:0000f710       memcmp                     0000000180010710 f   libvcruntime:memcmp.obj
 0001:0000f7f0       memcpy_repmovs             00000001800107f0 f   libvcruntime:memcpy.obj
 0001:0000f810       memmove                    0000000180010810 f   libvcruntime:memcpy.obj
 0001:0000f810       memcpy                     0000000180010810 f   libvcruntime:memcpy.obj
 0001:0000fc00       memset_repmovs             0000000180010c00 f   libvcruntime:memset.obj
 0001:0000fc20       memset                     0000000180010c20 f   libvcruntime:memset.obj
 0001:0000fdb0       __vcrt_initialize          0000000180010db0 f   libvcruntime:initialization.obj
 0001:0000fdd8       __vcrt_thread_attach       0000000180010dd8 f   libvcruntime:initialization.obj
 0001:0000fdec       __vcrt_thread_detach       0000000180010dec f   libvcruntime:initialization.obj
 0001:0000fe00       __vcrt_uninitialize        0000000180010e00 f   libvcruntime:initialization.obj
 0001:0000fe1c       __vcrt_uninitialize_critical 0000000180010e1c f   libvcruntime:initialization.obj
 0001:0000fe2c       __C_specific_handler       0000000180010e2c f   libvcruntime:riscchandler.obj
 0001:00010038       ??$_CallSETranslator@V__FrameHandler3@@@@YAHPEAUEHExceptionRecord@@PEA_KPEAU_CONTEXT@@PEAU_xDISPATCHER_CONTEXT@@PEBU_s_FuncInfo@@K1@Z 0000000180011038 f i libvcruntime:risctrnsctrl.obj
 0001:0001008c       ?CatchTryBlock@__FrameHandler3@@SAPEBU_s_TryBlockMapEntry@@PEBU_s_FuncInfo@@H@Z 000000018001108c f   libvcruntime:risctrnsctrl.obj
 0001:000100e0       ?ExecutionInCatch@__FrameHandler3@@SA_NPEAU_xDISPATCHER_CONTEXT@@PEBU_s_FuncInfo@@@Z 00000001800110e0 f   libvcruntime:risctrnsctrl.obj
 0001:0001010c       ?FrameUnwindToEmptyState@__FrameHandler3@@SAXPEA_KPEAU_xDISPATCHER_CONTEXT@@PEBU_s_FuncInfo@@@Z 000000018001110c f   libvcruntime:risctrnsctrl.obj
 0001:00010170       ?GetEstablisherFrame@__FrameHandler3@@SAPEA_KPEA_KPEAU_xDISPATCHER_CONTEXT@@PEBU_s_FuncInfo@@0@Z 0000000180011170 f   libvcruntime:risctrnsctrl.obj
 0001:0001023c       ?GetRangeOfTrysToCheck@__FrameHandler3@@SA?AU?$pair@Viterator@TryBlockMap@__FrameHandler3@@V123@@std@@AEAVTryBlockMap@1@HPEAU_xDISPATCHER_CONTEXT@@PEBU_s_FuncInfo@@H@Z 000000018001123c f   libvcruntime:risctrnsctrl.obj
 0001:0001037c       ?UnwindNestedFrames@__FrameHandler3@@SAXPEA_KPEAUEHExceptionRecord@@PEAU_CONTEXT@@0PEAXPEBU_s_FuncInfo@@HHPEBU_s_HandlerType@@PEAU_xDISPATCHER_CONTEXT@@E@Z 000000018001137c f   libvcruntime:risctrnsctrl.obj
 0001:00010480       _CreateFrameInfo           0000000180011480 f   libvcruntime:risctrnsctrl.obj
 0001:000104bc       _FindAndUnlinkFrame        00000001800114bc f   libvcruntime:risctrnsctrl.obj
 0001:00010510       _GetImageBase              0000000180011510 f   libvcruntime:risctrnsctrl.obj
 0001:00010524       _GetThrowImageBase         0000000180011524 f   libvcruntime:risctrnsctrl.obj
 0001:00010538       _SetImageBase              0000000180011538 f   libvcruntime:risctrnsctrl.obj
 0001:00010550       _SetThrowImageBase         0000000180011550 f   libvcruntime:risctrnsctrl.obj
 0001:00010568       __CxxFrameHandler3         0000000180011568 f   libvcruntime:risctrnsctrl.obj
 0001:000105f0       __DestructExceptionObject  00000001800115f0 f   libvcruntime:ehhelpers.obj
 0001:00010660       ?_CallMemberFunction0@@YAXQEAX0@Z 0000000180011660 f i libvcruntime:ehhelpers.obj
 0001:00010664       _IsExceptionObjectToBeDestroyed 0000000180011664 f   libvcruntime:ehhelpers.obj
 0001:00010694       __AdjustPointer            0000000180011694 f   libvcruntime:ehhelpers.obj
 0001:000106b8       __FrameUnwindFilter        00000001800116b8 f   libvcruntime:ehhelpers.obj
 0001:00010720       __std_type_info_compare    0000000180011720 f   libvcruntime:std_type_info.obj
 0001:00010748       __std_type_info_destroy_list 0000000180011748 f   libvcruntime:std_type_info.obj
 0001:00010774       __std_exception_copy       0000000180011774 f   libvcruntime:std_exception.obj
 0001:00010804       __std_exception_destroy    0000000180011804 f   libvcruntime:std_exception.obj
 0001:0001082c       _CxxThrowException         000000018001182c f   libvcruntime:throw.obj
 0001:000108cc       __vcrt_freefls             00000001800118cc f   libvcruntime:per_thread_data.obj
 0001:000108ec       __vcrt_freeptd             00000001800118ec f   libvcruntime:per_thread_data.obj
 0001:0001093c       __vcrt_getptd              000000018001193c f   libvcruntime:per_thread_data.obj
 0001:00010958       __vcrt_getptd_noexit       0000000180011958 f   libvcruntime:per_thread_data.obj
 0001:00010a18       __vcrt_initialize_ptd      0000000180011a18 f   libvcruntime:per_thread_data.obj
 0001:00010a60       __vcrt_uninitialize_ptd    0000000180011a60 f   libvcruntime:per_thread_data.obj
 0001:00010a84       __vcrt_initialize_locks    0000000180011a84 f   libvcruntime:locks.obj
 0001:00010ab8       __vcrt_uninitialize_locks  0000000180011ab8 f   libvcruntime:locks.obj
 0001:00010b00       _NLG_Notify                0000000180011b00 f   libvcruntime:notify.obj
 0001:00010b20       __NLG_Dispatch2            0000000180011b20 f   libvcruntime:notify.obj
 0001:00010b30       __NLG_Return2              0000000180011b30 f   libvcruntime:notify.obj
 0001:00010b34       __except_validate_context_record 0000000180011b34 f   libvcruntime:jbcxrval.obj
 0001:00010b6c       ?GetCurrentState@__FrameHandler3@@SAHPEA_KPEAU_xDISPATCHER_CONTEXT@@PEBU_s_FuncInfo@@@Z 0000000180011b6c f   libvcruntime:ehstate.obj
 0001:00010b94       ?GetUnwindTryBlock@__FrameHandler3@@SAHPEA_KPEAU_xDISPATCHER_CONTEXT@@PEBU_s_FuncInfo@@@Z 0000000180011b94 f   libvcruntime:ehstate.obj
 0001:00010bc0       ?SetState@__FrameHandler3@@SAXPEA_KPEBU_s_FuncInfo@@H@Z 0000000180011bc0 f   libvcruntime:ehstate.obj
 0001:00010bcc       ?SetUnwindTryBlock@__FrameHandler3@@SAXPEA_KPEAU_xDISPATCHER_CONTEXT@@PEBU_s_FuncInfo@@H@Z 0000000180011bcc f   libvcruntime:ehstate.obj
 0001:00010c08       ?StateFromControlPc@__FrameHandler3@@SAHPEBU_s_FuncInfo@@PEAU_xDISPATCHER_CONTEXT@@@Z 0000000180011c08 f   libvcruntime:ehstate.obj
 0001:00010c10       ?StateFromIp@__FrameHandler3@@SAHPEBU_s_FuncInfo@@PEAU_xDISPATCHER_CONTEXT@@_K@Z 0000000180011c10 f   libvcruntime:ehstate.obj
 0001:00011718       ??$TypeMatchHelper@V__FrameHandler3@@@@YAHPEBU_s_HandlerType@@PEBU_s_CatchableType@@PEBU_s_ThrowInfo@@@Z 0000000180012718 f i libvcruntime:frame.obj
 0001:0001185c       ??$__InternalCxxFrameHandler@V__FrameHandler3@@@@YA?AW4_EXCEPTION_DISPOSITION@@PEAUEHExceptionRecord@@PEA_KPEAU_CONTEXT@@PEAU_xDISPATCHER_CONTEXT@@PEBU_s_FuncInfo@@H1E@Z 000000018001285c f i libvcruntime:frame.obj
 0001:00011aa4       ??0bad_exception@std@@QEAA@AEBV01@@Z 0000000180012aa4 f i libvcruntime:frame.obj
 0001:00011ae0       ??0bad_exception@std@@QEAA@XZ 0000000180012ae0 f i libvcruntime:frame.obj
 0001:00011b00       ?CxxCallCatchBlock@__FrameHandler3@@SAPEAXPEAU_EXCEPTION_RECORD@@@Z 0000000180012b00 f   libvcruntime:frame.obj
 0001:00011d74       ?FrameUnwindToState@__FrameHandler3@@SAXPEA_KPEAU_xDISPATCHER_CONTEXT@@PEBU_s_FuncInfo@@H@Z 0000000180012d74 f   libvcruntime:frame.obj
 0001:00011f00       ?GetHandlerSearchState@__FrameHandler3@@SAHPEA_KPEAU_xDISPATCHER_CONTEXT@@PEBU_s_FuncInfo@@@Z 0000000180012f00 f i libvcruntime:frame.obj
 0001:00012110       ?_CallMemberFunction1@@YAXQEAX00@Z 0000000180013110 f i libvcruntime:frame.obj
 0001:0001211c       ?_CallMemberFunction2@@YAXQEAX00H@Z 000000018001311c f i libvcruntime:frame.obj
 0001:00012288       __vcrt_FlsAlloc            0000000180013288 f   libvcruntime:winapi_downlevel.obj
 0001:000122d0       __vcrt_FlsFree             00000001800132d0 f   libvcruntime:winapi_downlevel.obj
 0001:00012318       __vcrt_FlsGetValue         0000000180013318 f   libvcruntime:winapi_downlevel.obj
 0001:00012360       __vcrt_FlsSetValue         0000000180013360 f   libvcruntime:winapi_downlevel.obj
 0001:000123b4       __vcrt_InitializeCriticalSectionEx 00000001800133b4 f   libvcruntime:winapi_downlevel.obj
 0001:00012430       _CallSettingFrame          0000000180013430 f   libvcruntime:handlers.obj
 0001:00012480       _CallSettingFrame_LookupContinuationIndex 0000000180013480 f   libvcruntime:handlers.obj
 0001:000124b0       _CallSettingFrame_NotifyContinuationAddr 00000001800134b0 f   libvcruntime:handlers.obj
 0001:000124e0       _CallSettingFrameEncoded   00000001800134e0 f   libvcruntime:handlers.obj
 0001:00012528       free                       0000000180013528 f   libucrt:free.obj
 0001:0001253c       __acrt_call_reportfault    000000018001353c f   libucrt:invalid_parameter.obj
 0001:00012698       __acrt_initialize_invalid_parameter_handler 0000000180013698 f   libucrt:invalid_parameter.obj
 0001:000126a0       _invalid_parameter         00000001800136a0 f   libucrt:invalid_parameter.obj
 0001:00012750       _invalid_parameter_noinfo  0000000180013750 f   libucrt:invalid_parameter.obj
 0001:00012770       _invoke_watson             0000000180013770 f   libucrt:invalid_parameter.obj
 0001:000127b8       __acrt_errno_from_os_error 00000001800137b8 f   libucrt:errno.obj
 0001:00012800       __acrt_errno_map_os_error  0000000180013800 f   libucrt:errno.obj
 0001:00012850       __doserrno                 0000000180013850 f   libucrt:errno.obj
 0001:00012870       _errno                     0000000180013870 f   libucrt:errno.obj
 0001:00012890       calloc                     0000000180013890 f   libucrt:calloc.obj
 0001:00012898       malloc                     0000000180013898 f   libucrt:malloc.obj
 0001:000128a0       _recalloc                  00000001800138a0 f   libucrt:recalloc.obj
 0001:000128a8       _recalloc_base             00000001800138a8 f   libucrt:recalloc.obj
 0001:00012940       _resetstkoflw              0000000180013940 f   libucrt:resetstk.obj
 0001:00012a6c       wcscat_s                   0000000180013a6c f   libucrt:wcscat_s.obj
 0001:00012aec       wcscpy_s                   0000000180013aec f   libucrt:wcscpy_s.obj
 0001:00012b54       wcsncpy_s                  0000000180013b54 f   libucrt:wcsncpy_s.obj
 0001:00012e0c       ??$ensure_buffer_is_big_enough@D@formatting_buffer@__crt_stdio_output@@QEAA_N_K@Z 0000000180013e0c f i libucrt:output.obj
 0001:00012eb4       ??$ensure_buffer_is_big_enough@_W@formatting_buffer@__crt_stdio_output@@QEAA_N_K@Z 0000000180013eb4 f i libucrt:output.obj
 0001:00012f60       ??$is_wide_character_specifier@_W@__crt_stdio_output@@YA_N_K_WW4length_modifier@0@@Z 0000000180013f60 f i libucrt:output.obj
 0001:00012fa0       ??$type_case_integer_parse_into_buffer@I@?$output_processor@_WV?$string_output_adapter@_W@__crt_stdio_output@@V?$format_validation_base@_WV?$string_output_adapter@_W@__crt_stdio_output@@@2@@__crt_stdio_output@@AEAAXII_N@Z 0000000180013fa0 f i libucrt:output.obj
 0001:00013044       ??$type_case_integer_parse_into_buffer@_K@?$output_processor@_WV?$string_output_adapter@_W@__crt_stdio_output@@V?$format_validation_base@_WV?$string_output_adapter@_W@__crt_stdio_output@@@2@@__crt_stdio_output@@AEAAX_KI_N@Z 0000000180014044 f i libucrt:output.obj
 0001:000130e8       ??$write_multiple_characters@V?$string_output_adapter@_W@__crt_stdio_output@@D@__crt_stdio_output@@YAXAEBV?$string_output_adapter@_W@0@DHQEAH@Z 00000001800140e8 f i libucrt:output.obj
 0001:00013164       ??0_LocaleUpdate@@QEAA@QEAU__crt_locale_pointers@@@Z 0000000180014164 f i libucrt:output.obj
 0001:00013200       ?crop_zeroes@__crt_stdio_output@@YAXPEADQEAU__crt_locale_pointers@@@Z 0000000180014200 f i libucrt:output.obj
 0001:0001326c       ?parse_int_from_format_string@?$output_processor@_WV?$string_output_adapter@_W@__crt_stdio_output@@V?$format_validation_base@_WV?$string_output_adapter@_W@__crt_stdio_output@@@2@@__crt_stdio_output@@AEAA_NQEAH@Z 000000018001426c f i libucrt:output.obj
 0001:00013310       ?process@?$output_processor@_WV?$string_output_adapter@_W@__crt_stdio_output@@V?$format_validation_base@_WV?$string_output_adapter@_W@__crt_stdio_output@@@2@@__crt_stdio_output@@QEAAHXZ 0000000180014310 f i libucrt:output.obj
 0001:00013598       ?state_case_size@?$output_processor@_WV?$string_output_adapter@_W@__crt_stdio_output@@V?$format_validation_base@_WV?$string_output_adapter@_W@__crt_stdio_output@@@2@@__crt_stdio_output@@AEAA_NXZ 0000000180014598 f i libucrt:output.obj
 0001:00013730       ?state_case_type@?$output_processor@_WV?$string_output_adapter@_W@__crt_stdio_output@@V?$format_validation_base@_WV?$string_output_adapter@_W@__crt_stdio_output@@@2@@__crt_stdio_output@@AEAA_NXZ 0000000180014730 f i libucrt:output.obj
 0001:000139fc       ?type_case_Z@?$output_processor@_WV?$string_output_adapter@_W@__crt_stdio_output@@V?$format_validation_base@_WV?$string_output_adapter@_W@__crt_stdio_output@@@2@@__crt_stdio_output@@AEAA_NXZ 00000001800149fc f i libucrt:output.obj
 0001:00013a78       ?type_case_a@?$output_processor@_WV?$string_output_adapter@_W@__crt_stdio_output@@V?$format_validation_base@_WV?$string_output_adapter@_W@__crt_stdio_output@@@2@@__crt_stdio_output@@AEAA_NXZ 0000000180014a78 f i libucrt:output.obj
 0001:00013cb4       ?type_case_c_tchar@?$output_processor@_WV?$string_output_adapter@_W@__crt_stdio_output@@V?$format_validation_base@_WV?$string_output_adapter@_W@__crt_stdio_output@@@2@@__crt_stdio_output@@AEAA_N_W@Z 0000000180014cb4 f i libucrt:output.obj
 0001:00013d5c       ?type_case_integer@?$output_processor@_WV?$string_output_adapter@_W@__crt_stdio_output@@V?$format_validation_base@_WV?$string_output_adapter@_W@__crt_stdio_output@@@2@@__crt_stdio_output@@AEAA_NI_N@Z 0000000180014d5c f i libucrt:output.obj
 0001:00013f28       ?type_case_n@?$output_processor@_WV?$string_output_adapter@_W@__crt_stdio_output@@V?$format_validation_base@_WV?$string_output_adapter@_W@__crt_stdio_output@@@2@@__crt_stdio_output@@AEAA_NXZ 0000000180014f28 f i libucrt:output.obj
 0001:00014004       ?type_case_s@?$output_processor@_WV?$string_output_adapter@_W@__crt_stdio_output@@V?$format_validation_base@_WV?$string_output_adapter@_W@__crt_stdio_output@@@2@@__crt_stdio_output@@AEAA_NXZ 0000000180015004 f i libucrt:output.obj
 0001:000140cc       ?write_stored_string_tchar@?$output_processor@_WV?$string_output_adapter@_W@__crt_stdio_output@@V?$format_validation_base@_WV?$string_output_adapter@_W@__crt_stdio_output@@@2@@__crt_stdio_output@@AEAA_N_W@Z 00000001800150cc f i libucrt:output.obj
 0001:000141b8       ?write_string@?$string_output_adapter@_W@__crt_stdio_output@@QEBAXQEB_WHQEAHAEAV__crt_deferred_errno_cache@@@Z 00000001800151b8 f i libucrt:output.obj
 0001:00014260       __stdio_common_vswprintf_s 0000000180015260 f   libucrt:output.obj
 0001:000142d0       _seh_filter_dll            00000001800152d0 f   libucrt:exception_filter.obj
 0001:000142e4       _seh_filter_exe            00000001800152e4 f   libucrt:exception_filter.obj
 0001:000146d4       __acrt_initialize_thread_local_exit_callback 00000001800156d4 f   libucrt:exit.obj
 0001:000146dc       _cexit                     00000001800156dc f   libucrt:exit.obj
 0001:000146ec       _exit                      00000001800156ec f   libucrt:exit.obj
 0001:000146f8       _is_c_termination_complete 00000001800156f8 f   libucrt:exit.obj
 0001:000148c4       __acrt_allocate_buffer_for_argv 00000001800158c4 f   libucrt:argv_parsing.obj
 0001:00014924       _configure_narrow_argv     0000000180015924 f   libucrt:argv_parsing.obj
 0001:00014c9c       __dcrt_uninitialize_environments_nolock 0000000180015c9c f   libucrt:environment_initialization.obj
 0001:00014cd4       _initialize_narrow_environment 0000000180015cd4 f   libucrt:environment_initialization.obj
 0001:0001501c       _crt_atexit                000000018001601c f   libucrt:onexit.obj
 0001:0001502c       _execute_onexit_table      000000018001602c f   libucrt:onexit.obj
 0001:00015068       _initialize_onexit_table   0000000180016068 f   libucrt:onexit.obj
 0001:00015090       _register_onexit_function  0000000180016090 f   libucrt:onexit.obj
 0001:00015110       __acrt_uninitialize_command_line 0000000180016110 f   libucrt:argv_data.obj
 0001:00015208       __acrt_initialize          0000000180016208 f   libucrt:initialization.obj
 0001:0001521c       __acrt_thread_attach       000000018001621c f   libucrt:initialization.obj
 0001:00015230       __acrt_thread_detach       0000000180016230 f   libucrt:initialization.obj
 0001:00015240       __acrt_uninitialize        0000000180016240 f   libucrt:initialization.obj
 0001:00015278       __acrt_uninitialize_critical 0000000180016278 f   libucrt:initialization.obj
 0001:00015288       _initterm                  0000000180016288 f   libucrt:initterm.obj
 0001:000152ec       _initterm_e                00000001800162ec f   libucrt:initterm.obj
 0001:0001532c       __acrt_initialize_new_handler 000000018001632c f   libucrt:new_handler.obj
 0001:00015334       _callnewh                  0000000180016334 f   libucrt:new_handler.obj
 0001:00015364       _query_new_handler         0000000180016364 f   libucrt:new_handler.obj
 0001:00015398       terminate                  0000000180016398 f   libucrt:terminate.obj
 0001:000153b8       abort                      00000001800163b8 f   libucrt:abort.obj
 0001:00015410       strcpy_s                   0000000180016410 f   libucrt:strcpy_s.obj
 0001:00015470       ??$parse_integer@KV?$c_string_character_source@_W@__crt_strtox@@@__crt_strtox@@YAKQEAU__crt_locale_pointers@@V?$c_string_character_source@_W@0@H_N@Z 0000000180016470 f i libucrt:atox.obj
 0001:00015b30       strncmp                    0000000180016b30 f   libucrt:strncmp.obj
 0001:00015bb0       wcsncmp                    0000000180016bb0 f   libucrt:wcsncmp.obj
 0001:00015bdc       _free_base                 0000000180016bdc f   libucrt:free_base.obj
 0001:00015f94       __acrt_freeptd             0000000180016f94 f   libucrt:per_thread_data.obj
 0001:00015fd8       __acrt_getptd              0000000180016fd8 f   libucrt:per_thread_data.obj
 0001:000160ac       __acrt_getptd_head         00000001800170ac f   libucrt:per_thread_data.obj
 0001:00016154       __acrt_getptd_noexit       0000000180017154 f   libucrt:per_thread_data.obj
 0001:00016220       __acrt_initialize_ptd      0000000180017220 f   libucrt:per_thread_data.obj
 0001:0001625c       __acrt_uninitialize_ptd    000000018001725c f   libucrt:per_thread_data.obj
 0001:00016280       _calloc_base               0000000180017280 f   libucrt:calloc_base.obj
 0001:000162f8       _malloc_base               00000001800172f8 f   libucrt:malloc_base.obj
 0001:00016358       _msize_base                0000000180017358 f   libucrt:msize.obj
 0001:00016394       _realloc_base              0000000180017394 f   libucrt:realloc_base.obj
 0001:000165e8       __acrt_AppPolicyGetProcessTerminationMethodInternal 00000001800175e8 f   libucrt:winapi_thunks.obj
 0001:00016638       __acrt_AreFileApisANSI     0000000180017638 f   libucrt:winapi_thunks.obj
 0001:00016674       __acrt_FlsAlloc            0000000180017674 f   libucrt:winapi_thunks.obj
 0001:000166bc       __acrt_FlsFree             00000001800176bc f   libucrt:winapi_thunks.obj
 0001:00016704       __acrt_FlsGetValue         0000000180017704 f   libucrt:winapi_thunks.obj
 0001:0001674c       __acrt_FlsSetValue         000000018001774c f   libucrt:winapi_thunks.obj
 0001:000167a0       __acrt_InitializeCriticalSectionEx 00000001800177a0 f   libucrt:winapi_thunks.obj
 0001:00016804       __acrt_LCMapStringEx       0000000180017804 f   libucrt:winapi_thunks.obj
 0001:000168e0       __acrt_LocaleNameToLCID    00000001800178e0 f   libucrt:winapi_thunks.obj
 0001:00016930       __acrt_SetThreadStackGuarantee 0000000180017930 f   libucrt:winapi_thunks.obj
 0001:00016974       __acrt_initialize_winapi_thunks 0000000180017974 f   libucrt:winapi_thunks.obj
 0001:000169a8       __acrt_uninitialize_winapi_thunks 00000001800179a8 f   libucrt:winapi_thunks.obj
 0001:000169ec       wcstol                     00000001800179ec f   libucrt:strtox.obj
 0001:00016a18       _mbtowc_l                  0000000180017a18 f   libucrt:mbtowc.obj
 0001:00016b98       mbtowc                     0000000180017b98 f   libucrt:mbtowc.obj
 0001:00016ba0       wcsnlen                    0000000180017ba0 f   libucrt:strnlen.obj
 0001:00016d78       __acrt_update_locale_info  0000000180017d78 f   libucrt:locale_update.obj
 0001:00016dac       __acrt_update_multibyte_info 0000000180017dac f   libucrt:locale_update.obj
 0001:00017678       __acrt_fp_format           0000000180018678 f   libucrt:cvt.obj
 0001:0001797c       _fileno                    000000018001897c f   libucrt:fileno.obj
 0001:000179a4       __acrt_initialize_stdio    00000001800189a4 f   libucrt:_file.obj
 0001:00017ac4       __acrt_uninitialize_stdio  0000000180018ac4 f   libucrt:_file.obj
 0001:00017b20       _lock_file                 0000000180018b20 f   libucrt:_file.obj
 0001:00017b2c       _unlock_file               0000000180018b2c f   libucrt:_file.obj
 0001:00017b38       _get_printf_count_output   0000000180018b38 f   libucrt:printf_count_output.obj
 0001:00017bc0       __acrt_set_locale_changed  0000000180018bc0 f   libucrt:wsetlocale.obj
 0001:00017bcc       __acrt_uninitialize_locale 0000000180018bcc f   libucrt:wsetlocale.obj
 0001:00017df8       __acrt_initialize_lowio    0000000180018df8 f   libucrt:ioinit.obj
 0001:00017e34       __acrt_uninitialize_lowio  0000000180018e34 f   libucrt:ioinit.obj
 0001:00017e74       __acrt_initialize_locks    0000000180018e74 f   libucrt:locks.obj
 0001:00017ebc       __acrt_lock                0000000180018ebc f   libucrt:locks.obj
 0001:00017ed8       __acrt_uninitialize_locks  0000000180018ed8 f   libucrt:locks.obj
 0001:00017f10       __acrt_unlock              0000000180018f10 f   libucrt:locks.obj
 0001:00017f2c       __acrt_get_process_end_policy 0000000180018f2c f   libucrt:win_policies.obj
 0001:00017f7c       ??$__acrt_mbs_to_wcs_cp@U__crt_win32_buffer_internal_dynamic_resizing@@@@YAHQEBDAEAV?$__crt_win32_buffer@_WU__crt_win32_buffer_internal_dynamic_resizing@@@@I@Z 0000000180018f7c f i libucrt:argv_wildcards.obj
 0001:000180f4       ??$__acrt_wcs_to_mbs_cp@U__crt_win32_buffer_internal_dynamic_resizing@@@@YAHQEB_WAEAV?$__crt_win32_buffer@DU__crt_win32_buffer_internal_dynamic_resizing@@@@I@Z 00000001800190f4 f i libucrt:argv_wildcards.obj
 0001:00018924       __acrt_expand_narrow_argv_wildcards 0000000180019924 f   libucrt:argv_wildcards.obj
 0001:0001892c       ??$__acrt_wcs_to_mbs_cp@U__crt_win32_buffer_no_resizing@@@@YAHQEB_WAEAV?$__crt_win32_buffer@DU__crt_win32_buffer_no_resizing@@@@I@Z 000000018001992c f i libucrt:getmodulefilenamea.obj
 0001:00018a40       __acrt_GetModuleFileNameA  0000000180019a40 f   libucrt:getmodulefilenamea.obj
 0001:0001928c       __acrt_initialize_multibyte 000000018001a28c f   libucrt:mbctype.obj
 0001:000192ec       __acrt_update_thread_multibyte_data 000000018001a2ec f   libucrt:mbctype.obj
 0001:00019308       _setmbcp_nolock            000000018001a308 f   libucrt:mbctype.obj
 0001:0001963c       _ismbblead                 000000018001a63c f   libucrt:ismbbyte.obj
 0001:00019650       __acrt_initialize_command_line 000000018001a650 f   libucrt:argv_data.obj
 0001:00019678       __acrt_MultiByteToWideChar 000000018001a678 f   libucrt:multibytetowidechar.obj
 0001:000196d4       __acrt_WideCharToMultiByte 000000018001a6d4 f   libucrt:widechartomultibyte.obj
 0001:0001976c       __dcrt_get_narrow_environment_from_os 000000018001a76c f   libucrt:get_environment_from_os.obj
 0001:00019870       __acrt_initialize_heap     000000018001a870 f   libucrt:heap_handle.obj
 0001:0001988c       __acrt_uninitialize_heap   000000018001a88c f   libucrt:heap_handle.obj
 0001:00019898       __acrt_execute_initializers 000000018001a898 f   libucrt:shared_initialization.obj
 0001:00019918       __acrt_execute_uninitializers 000000018001a918 f   libucrt:shared_initialization.obj
 0001:0001999c       __acrt_get_sigabrt_handler 000000018001a99c f   libucrt:signal.obj
 0001:000199cc       __acrt_initialize_signal_handlers 000000018001a9cc f   libucrt:signal.obj
 0001:000199ec       raise                      000000018001a9ec f   libucrt:signal.obj
 0001:00019c58       __acrt_has_user_matherr    000000018001ac58 f   libucrt:matherr.obj
 0001:00019c78       __acrt_initialize_user_matherr 000000018001ac78 f   libucrt:matherr.obj
 0001:00019c80       __acrt_invoke_user_matherr 000000018001ac80 f   libucrt:matherr.obj
 0001:00019e8c       __acrt_stdio_flush_nolock  000000018001ae8c f   libucrt:fflush.obj
 0001:00019f08       _fflush_nolock             000000018001af08 f   libucrt:fflush.obj
 0001:00019f54       _flushall                  000000018001af54 f   libucrt:fflush.obj
 0001:00019f5c       __pctype_func              000000018001af5c f   libucrt:ctype.obj
 0001:00019f8c       iswctype                   000000018001af8c f   libucrt:iswctype.obj
 0001:00019ffc       __acrt_add_locale_ref      000000018001affc f   libucrt:locale_refcounting.obj
 0001:0001a088       __acrt_free_locale         000000018001b088 f   libucrt:locale_refcounting.obj
 0001:0001a200       __acrt_locale_add_lc_time_reference 000000018001b200 f   libucrt:locale_refcounting.obj
 0001:0001a228       __acrt_locale_free_lc_time_if_unreferenced 000000018001b228 f   libucrt:locale_refcounting.obj
 0001:0001a260       __acrt_locale_release_lc_time_reference 000000018001b260 f   libucrt:locale_refcounting.obj
 0001:0001a288       __acrt_release_locale_ref  000000018001b288 f   libucrt:locale_refcounting.obj
 0001:0001a330       __acrt_update_thread_locale_data 000000018001b330 f   libucrt:locale_refcounting.obj
 0001:0001a39c       _updatetlocinfoEx_nolock   000000018001b39c f   libucrt:locale_refcounting.obj
 0001:0001a404       _query_new_mode            000000018001b404 f   libucrt:new_mode.obj
 0001:0001a40c       __acrt_DownlevelLocaleNameToLCID 000000018001b40c f   libucrt:lcidtoname_downlevel.obj
 0001:0001a4bc       _isleadbyte_l              000000018001b4bc f i libucrt:_wctype.obj
 0001:0001a508       ?__mbrtowc_utf8@__crt_mbstring@@YA_KPEA_WPEBD_KPEAU_Mbstatet@@@Z 000000018001b508 f   libucrt:mbrtowc.obj
 0001:0001a544       ?__mbsrtowcs_utf8@__crt_mbstring@@YA_KPEA_WPEAPEBD_KPEAU_Mbstatet@@@Z 000000018001b544 f   libucrt:mbrtowc.obj
 0001:0001a6bc       __acrt_fp_strflt_to_string 000000018001b6bc f   libucrt:_fptostr.obj
 0001:0001a7a0       ?divide@__crt_strtox@@YA_KAEAUbig_integer@1@AEBU21@@Z 000000018001b7a0 f i libucrt:cfout.obj
 0001:0001abcc       __acrt_fltout              000000018001bbcc f   libucrt:cfout.obj
 0001:0001be88       _fcloseall                 000000018001ce88 f   libucrt:closeall.obj
 0001:0001bf3c       __acrt_stdio_free_buffer_nolock 000000018001cf3c f   libucrt:_freebuf.obj
 0001:0001bf7c       _isatty                    000000018001cf7c f   libucrt:isatty.obj
 0001:0001bfdc       __acrt_locale_free_monetary 000000018001cfdc f   libucrt:initmon.obj
 0001:0001c0e8       __acrt_locale_free_numeric 000000018001d0e8 f   libucrt:initnum.obj
 0001:0001c1ac       __acrt_locale_free_time    000000018001d1ac f   libucrt:inittime.obj
 0001:0001c2b4       __acrt_GetStringTypeA      000000018001d2b4 f   libucrt:getstringtypea.obj
 0001:0001c444       __acrt_lowio_create_handle_array 000000018001d444 f   libucrt:osfinfo.obj
 0001:0001c4ec       __acrt_lowio_destroy_handle_array 000000018001d4ec f   libucrt:osfinfo.obj
 0001:0001c53c       __acrt_lowio_ensure_fh_exists 000000018001d53c f   libucrt:osfinfo.obj
 0001:0001c5e4       __acrt_lowio_lock_fh       000000018001d5e4 f   libucrt:osfinfo.obj
 0001:0001c60c       __acrt_lowio_unlock_fh     000000018001d60c f   libucrt:osfinfo.obj
 0001:0001c634       _free_osfhnd               000000018001d634 f   libucrt:osfinfo.obj
 0001:0001c6f0       _get_osfhandle             000000018001d6f0 f   libucrt:osfinfo.obj
 0001:0001c770       qsort                      000000018001d770 f   libucrt:qsort.obj
 0001:0001cb20       strncpy_s                  000000018001db20 f   libucrt:strncpy_s.obj
 0001:0001cca0       strpbrk                    000000018001dca0 f   libucrt:strpbrk.obj
 0001:0001d080       _mbsdec                    000000018001e080 f   libucrt:mbsdec.obj
 0001:0001d088       _mbsdec_l                  000000018001e088 f   libucrt:mbsdec.obj
 0001:0001d434       __acrt_LCMapStringA        000000018001e434 f   libucrt:lcmapstringa.obj
 0001:0001d570       _commit                    000000018001e570 f   libucrt:commit.obj
 0001:0001de64       _write                     000000018001ee64 f   libucrt:write.obj
 0001:0001df50       _write_nolock              000000018001ef50 f   libucrt:write.obj
 0001:0001e22c       __acrt_GetStringTypeW      000000018001f22c f   libucrt:getstringtypew.obj
 0001:0001e234       __ascii_wcsnicmp           000000018001f234 f   libucrt:wcsnicmp.obj
 0001:0001e280       ?__mbrtoc32_utf8@__crt_mbstring@@YA_KPEA_UPEBD_KPEAU_Mbstatet@@@Z 000000018001f280 f   libucrt:mbrtoc32.obj
 0001:0001e45c       fegetenv                   000000018001f45c f   libucrt:fegetenv.obj
 0001:0001e47c       fesetenv                   000000018001f47c f   libucrt:fesetenv.obj
 0001:0001e4c8       feholdexcept               000000018001f4c8 f   libucrt:feholdexcept.obj
 0001:0001e518       ceil                       000000018001f518 f   libucrt:ceil.obj
 0001:0001e5e0       log10                      000000018001f5e0 f   libucrt:log10.obj
 0001:0001ec28       _lseeki64_nolock           000000018001fc28 f   libucrt:lseek.obj
 0001:0001ec30       _fclose_nolock             000000018001fc30 f   libucrt:fclose.obj
 0001:0001ecb4       fclose                     000000018001fcb4 f   libucrt:fclose.obj
 0001:0001ed18       _query_app_type            000000018001fd18 f   libucrt:report_runtime_error.obj
 0001:0001ed20       __strncnt                  000000018001fd20 f   libucrt:strncnt.obj
 0001:0001ed38       _putwch_nolock             000000018001fd38 f   libucrt:putwch.obj
 0001:0001ed74       __acrt_fenv_get_control    000000018001fd74 f   libucrt:_fenvutils.obj
 0001:0001ee68       __acrt_fenv_get_status     000000018001fe68 f   libucrt:_fenvutils.obj
 0001:0001eebc       __acrt_fenv_set_control    000000018001febc f   libucrt:_fenvutils.obj
 0001:0001f004       __acrt_fenv_set_status     0000000180020004 f   libucrt:_fenvutils.obj
 0001:0001f088       _clearfp                   0000000180020088 f   libucrt:ieee.obj
 0001:0001f21c       _handle_error              000000018002021c f   libucrt:libm_error.obj
 0001:0001f344       _handle_nan                0000000180020344 f   libucrt:libm_error.obj
 0001:0001f360       __acrt_initialize_fma3     0000000180020360 f   libucrt:fma3_available.obj
 0001:0001f3d0       _log10_special             00000001800203d0 f   libucrt:log_special.obj
 0001:0001f4fc       _close                     00000001800204fc f   libucrt:close.obj
 0001:0001f5a0       _close_nolock              00000001800205a0 f   libucrt:close.obj
 0001:0001f660       ?__acrt_stdio_free_stream@@YAXV__crt_stdio_stream@@@Z 0000000180020660 f   libucrt:stream.obj
 0001:0001f67c       __dcrt_lowio_ensure_console_output_initialized 000000018002067c f   libucrt:initcon.obj
 0001:0001f6d0       __dcrt_terminate_console_output 00000001800206d0 f   libucrt:initcon.obj
 0001:0001f6ec       __dcrt_write_console       00000001800206ec f   libucrt:initcon.obj
 0001:0001f7c0       _get_fpsr                  00000001800207c0 f   libucrt:fpsr.obj
 0001:0001f7d0       _set_fpsr                  00000001800207d0 f   libucrt:fpsr.obj
 0001:0001f7da       _fclrf                     00000001800207da f   libucrt:fpsr.obj
 0001:0001f7ee       _frnd                      00000001800207ee f   libucrt:fpsr.obj
 0001:0001f810       _raise_exc                 0000000180020810 f   libucrt:fpexcept.obj
 0001:0001f838       _raise_exc_ex              0000000180020838 f   libucrt:fpexcept.obj
 0001:0001fb48       _set_errno_from_matherr    0000000180020b48 f   libucrt:fpexcept.obj
 0001:0001fb78       _clrfp                     0000000180020b78 f   libucrt:fpctrl.obj
 0001:0001fb98       _ctrlfp                    0000000180020b98 f   libucrt:fpctrl.obj
 0001:0001fc14       _set_statfp                0000000180020c14 f   libucrt:fpctrl.obj
 0001:0001fc34       _statfp                    0000000180020c34 f   libucrt:fpctrl.obj
 0001:0001fc45       IsProcessorFeaturePresent  0000000180020c45 f   kernel32:KERNEL32.dll
 0001:0001fc50       _FindPESection             0000000180020c50 f   LIBCMT:pesect.obj
 0001:0001fca0       _IsNonwritableInCurrentImage 0000000180020ca0 f   LIBCMT:pesect.obj
 0001:0001fcf0       _ValidateImageBase         0000000180020cf0 f   LIBCMT:pesect.obj
 0001:0001fd20       strrchr                    0000000180020d20 f   libvcruntime:strrchr.obj
 0001:0001fe60       _guard_dispatch_icall_nop  0000000180020e60 f   LIBCMT:guard_dispatch.obj
 0002:00000000       __imp_RegQueryValueExW     0000000180022000     advapi32:ADVAPI32.dll
 0002:00000008       __imp_RegSetValueExW       0000000180022008     advapi32:ADVAPI32.dll
 0002:00000010       __imp_RegQueryInfoKeyW     0000000180022010     advapi32:ADVAPI32.dll
 0002:00000018       __imp_RegOpenKeyExW        0000000180022018     advapi32:ADVAPI32.dll
 0002:00000020       __imp_RegEnumKeyExW        0000000180022020     advapi32:ADVAPI32.dll
 0002:00000028       __imp_RegDeleteValueW      0000000180022028     advapi32:ADVAPI32.dll
 0002:00000030       __imp_RegDeleteKeyW        0000000180022030     advapi32:ADVAPI32.dll
 0002:00000038       __imp_RegCreateKeyExW      0000000180022038     advapi32:ADVAPI32.dll
 0002:00000040       __imp_RegCloseKey          0000000180022040     advapi32:ADVAPI32.dll
 0002:00000048       \177ADVAPI32_NULL_THUNK_DATA 0000000180022048     advapi32:ADVAPI32.dll
 0002:00000050       __imp_GetObjectW           0000000180022050     gdi32:GDI32.dll
 0002:00000058       __imp_SelectObject         0000000180022058     gdi32:GDI32.dll
 0002:00000060       __imp_DeleteObject         0000000180022060     gdi32:GDI32.dll
 0002:00000068       __imp_CreateCompatibleDC   0000000180022068     gdi32:GDI32.dll
 0002:00000070       __imp_BitBlt               0000000180022070     gdi32:GDI32.dll
 0002:00000078       __imp_SetWindowOrgEx       0000000180022078     gdi32:GDI32.dll
 0002:00000080       __imp_SetWindowExtEx       0000000180022080     gdi32:GDI32.dll
 0002:00000088       __imp_SetViewportOrgEx     0000000180022088     gdi32:GDI32.dll
 0002:00000090       __imp_LPtoDP               0000000180022090     gdi32:GDI32.dll
 0002:00000098       __imp_SetMapMode           0000000180022098     gdi32:GDI32.dll
 0002:000000a0       __imp_SaveDC               00000001800220a0     gdi32:GDI32.dll
 0002:000000a8       __imp_RestoreDC            00000001800220a8     gdi32:GDI32.dll
 0002:000000b0       __imp_GetDeviceCaps        00000001800220b0     gdi32:GDI32.dll
 0002:000000b8       __imp_DeleteMetaFile       00000001800220b8     gdi32:GDI32.dll
 0002:000000c0       __imp_DeleteDC             00000001800220c0     gdi32:GDI32.dll
 0002:000000c8       __imp_CreateRectRgnIndirect 00000001800220c8     gdi32:GDI32.dll
 0002:000000d0       __imp_CreateMetaFileW      00000001800220d0     gdi32:GDI32.dll
 0002:000000d8       __imp_CreateDCW            00000001800220d8     gdi32:GDI32.dll
 0002:000000e0       __imp_CloseMetaFile        00000001800220e0     gdi32:GDI32.dll
 0002:000000e8       \177GDI32_NULL_THUNK_DATA  00000001800220e8     gdi32:GDI32.dll
 0002:000000f0       __imp_CloseHandle          00000001800220f0     kernel32:KERNEL32.dll
 0002:000000f8       __imp_SetEvent             00000001800220f8     kernel32:KERNEL32.dll
 0002:00000100       __imp_CreateMutexW         0000000180022100     kernel32:KERNEL32.dll
 0002:00000108       __imp_CreateEventW         0000000180022108     kernel32:KERNEL32.dll
 0002:00000110       __imp_GetCurrentProcessId  0000000180022110     kernel32:KERNEL32.dll
 0002:00000118       __imp_WriteConsoleW        0000000180022118     kernel32:KERNEL32.dll
 0002:00000120       __imp_CreateFileW          0000000180022120     kernel32:KERNEL32.dll
 0002:00000128       __imp_GetConsoleMode       0000000180022128     kernel32:KERNEL32.dll
 0002:00000130       __imp_GetConsoleCP         0000000180022130     kernel32:KERNEL32.dll
 0002:00000138       __imp_WriteFile            0000000180022138     kernel32:KERNEL32.dll
 0002:00000140       __imp_FlushFileBuffers     0000000180022140     kernel32:KERNEL32.dll
 0002:00000148       __imp_SetStdHandle         0000000180022148     kernel32:KERNEL32.dll
 0002:00000150       __imp_GetStringTypeW       0000000180022150     kernel32:KERNEL32.dll
 0002:00000158       __imp_SetFilePointerEx     0000000180022158     kernel32:KERNEL32.dll
 0002:00000160       __imp_FreeEnvironmentStringsW 0000000180022160     kernel32:KERNEL32.dll
 0002:00000168       __imp_lstrcmpiW            0000000180022168     kernel32:KERNEL32.dll
 0002:00000170       __imp_GetCommandLineW      0000000180022170     kernel32:KERNEL32.dll
 0002:00000178       __imp_GetCommandLineA      0000000180022178     kernel32:KERNEL32.dll
 0002:00000180       __imp_GetCPInfo            0000000180022180     kernel32:KERNEL32.dll
 0002:00000188       __imp_GetOEMCP             0000000180022188     kernel32:KERNEL32.dll
 0002:00000190       __imp_GetACP               0000000180022190     kernel32:KERNEL32.dll
 0002:00000198       __imp_IsValidCodePage      0000000180022198     kernel32:KERNEL32.dll
 0002:000001a0       __imp_FindNextFileW        00000001800221a0     kernel32:KERNEL32.dll
 0002:000001a8       __imp_FindFirstFileExW     00000001800221a8     kernel32:KERNEL32.dll
 0002:000001b0       __imp_FindClose            00000001800221b0     kernel32:KERNEL32.dll
 0002:000001b8       __imp_GetFileType          00000001800221b8     kernel32:KERNEL32.dll
 0002:000001c0       __imp_GetStdHandle         00000001800221c0     kernel32:KERNEL32.dll
 0002:000001c8       __imp_LCMapStringW         00000001800221c8     kernel32:KERNEL32.dll
 0002:000001d0       __imp_HeapReAlloc          00000001800221d0     kernel32:KERNEL32.dll
 0002:000001d8       __imp_HeapSize             00000001800221d8     kernel32:KERNEL32.dll
 0002:000001e0       __imp_MulDiv               00000001800221e0     kernel32:KERNEL32.dll
 0002:000001e8       __imp_GlobalLock           00000001800221e8     kernel32:KERNEL32.dll
 0002:000001f0       __imp_GlobalUnlock         00000001800221f0     kernel32:KERNEL32.dll
 0002:000001f8       __imp_GlobalAlloc          00000001800221f8     kernel32:KERNEL32.dll
 0002:00000200       __imp_FindResourceW        0000000180022200     kernel32:KERNEL32.dll
 0002:00000208       __imp_SizeofResource       0000000180022208     kernel32:KERNEL32.dll
 0002:00000210       __imp_LoadResource         0000000180022210     kernel32:KERNEL32.dll
 0002:00000218       __imp_LoadLibraryExW       0000000180022218     kernel32:KERNEL32.dll
 0002:00000220       __imp_GetProcAddress       0000000180022220     kernel32:KERNEL32.dll
 0002:00000228       __imp_GetModuleHandleW     0000000180022228     kernel32:KERNEL32.dll
 0002:00000230       __imp_GetModuleFileNameW   0000000180022230     kernel32:KERNEL32.dll
 0002:00000238       __imp_FreeLibrary          0000000180022238     kernel32:KERNEL32.dll
 0002:00000240       __imp_DisableThreadLibraryCalls 0000000180022240     kernel32:KERNEL32.dll
 0002:00000248       __imp_GetCurrentThreadId   0000000180022248     kernel32:KERNEL32.dll
 0002:00000250       __imp_Sleep                0000000180022250     kernel32:KERNEL32.dll
 0002:00000258       __imp_WaitForSingleObject  0000000180022258     kernel32:KERNEL32.dll
 0002:00000260       __imp_ReleaseMutex         0000000180022260     kernel32:KERNEL32.dll
 0002:00000268       __imp_ResetEvent           0000000180022268     kernel32:KERNEL32.dll
 0002:00000270       __imp_EnterCriticalSection 0000000180022270     kernel32:KERNEL32.dll
 0002:00000278       __imp_LeaveCriticalSection 0000000180022278     kernel32:KERNEL32.dll
 0002:00000280       __imp_SetLastError         0000000180022280     kernel32:KERNEL32.dll
 0002:00000288       __imp_EncodePointer        0000000180022288     kernel32:KERNEL32.dll
 0002:00000290       __imp_DeleteCriticalSection 0000000180022290     kernel32:KERNEL32.dll
 0002:00000298       __imp_InitializeCriticalSectionEx 0000000180022298     kernel32:KERNEL32.dll
 0002:000002a0       __imp_GetLastError         00000001800222a0     kernel32:KERNEL32.dll
 0002:000002a8       __imp_RaiseException       00000001800222a8     kernel32:KERNEL32.dll
 0002:000002b0       __imp_DecodePointer        00000001800222b0     kernel32:KERNEL32.dll
 0002:000002b8       __imp_WideCharToMultiByte  00000001800222b8     kernel32:KERNEL32.dll
 0002:000002c0       __imp_GetEnvironmentStringsW 00000001800222c0     kernel32:KERNEL32.dll
 0002:000002c8       __imp_MultiByteToWideChar  00000001800222c8     kernel32:KERNEL32.dll
 0002:000002d0       __imp_GetModuleHandleExW   00000001800222d0     kernel32:KERNEL32.dll
 0002:000002d8       __imp_ExitProcess          00000001800222d8     kernel32:KERNEL32.dll
 0002:000002e0       __imp_VirtualQuery         00000001800222e0     kernel32:KERNEL32.dll
 0002:000002e8       __imp_VirtualProtect       00000001800222e8     kernel32:KERNEL32.dll
 0002:000002f0       __imp_GetSystemInfo        00000001800222f0     kernel32:KERNEL32.dll
 0002:000002f8       __imp_TlsFree              00000001800222f8     kernel32:KERNEL32.dll
 0002:00000300       __imp_TlsSetValue          0000000180022300     kernel32:KERNEL32.dll
 0002:00000308       __imp_TlsGetValue          0000000180022308     kernel32:KERNEL32.dll
 0002:00000310       __imp_TlsAlloc             0000000180022310     kernel32:KERNEL32.dll
 0002:00000318       __imp_RtlPcToFileHeader    0000000180022318     kernel32:KERNEL32.dll
 0002:00000320       __imp_InterlockedFlushSList 0000000180022320     kernel32:KERNEL32.dll
 0002:00000328       __imp_RtlUnwindEx          0000000180022328     kernel32:KERNEL32.dll
 0002:00000330       __imp_LoadLibraryExA       0000000180022330     kernel32:KERNEL32.dll
 0002:00000338       __imp_VirtualFree          0000000180022338     kernel32:KERNEL32.dll
 0002:00000340       __imp_VirtualAlloc         0000000180022340     kernel32:KERNEL32.dll
 0002:00000348       __imp_FlushInstructionCache 0000000180022348     kernel32:KERNEL32.dll
 0002:00000350       __imp_InterlockedPushEntrySList 0000000180022350     kernel32:KERNEL32.dll
 0002:00000358       __imp_InterlockedPopEntrySList 0000000180022358     kernel32:KERNEL32.dll
 0002:00000360       __imp_GetProcessHeap       0000000180022360     kernel32:KERNEL32.dll
 0002:00000368       __imp_HeapFree             0000000180022368     kernel32:KERNEL32.dll
 0002:00000370       __imp_HeapAlloc            0000000180022370     kernel32:KERNEL32.dll
 0002:00000378       __imp_OutputDebugStringW   0000000180022378     kernel32:KERNEL32.dll
 0002:00000380       __imp_InitializeSListHead  0000000180022380     kernel32:KERNEL32.dll
 0002:00000388       __imp_GetSystemTimeAsFileTime 0000000180022388     kernel32:KERNEL32.dll
 0002:00000390       __imp_QueryPerformanceCounter 0000000180022390     kernel32:KERNEL32.dll
 0002:00000398       __imp_GetStartupInfoW      0000000180022398     kernel32:KERNEL32.dll
 0002:000003a0       __imp_IsDebuggerPresent    00000001800223a0     kernel32:KERNEL32.dll
 0002:000003a8       __imp_IsProcessorFeaturePresent 00000001800223a8     kernel32:KERNEL32.dll
 0002:000003b0       __imp_TerminateProcess     00000001800223b0     kernel32:KERNEL32.dll
 0002:000003b8       __imp_GetCurrentProcess    00000001800223b8     kernel32:KERNEL32.dll
 0002:000003c0       __imp_InitializeCriticalSectionAndSpinCount 00000001800223c0     kernel32:KERNEL32.dll
 0002:000003c8       __imp_WaitForSingleObjectEx 00000001800223c8     kernel32:KERNEL32.dll
 0002:000003d0       __imp_RtlCaptureContext    00000001800223d0     kernel32:KERNEL32.dll
 0002:000003d8       __imp_RtlLookupFunctionEntry 00000001800223d8     kernel32:KERNEL32.dll
 0002:000003e0       __imp_RtlVirtualUnwind     00000001800223e0     kernel32:KERNEL32.dll
 0002:000003e8       __imp_UnhandledExceptionFilter 00000001800223e8     kernel32:KERNEL32.dll
 0002:000003f0       __imp_SetUnhandledExceptionFilter 00000001800223f0     kernel32:KERNEL32.dll
 0002:000003f8       \177KERNEL32_NULL_THUNK_DATA 00000001800223f8     kernel32:KERNEL32.dll
 0002:00000400       __imp_OleCreatePropertyFrame 0000000180022400     oleaut32:OLEAUT32.dll
 0002:00000408       __imp_UnRegisterTypeLib    0000000180022408     oleaut32:OLEAUT32.dll
 0002:00000410       __imp_RegisterTypeLib      0000000180022410     oleaut32:OLEAUT32.dll
 0002:00000418       __imp_LoadRegTypeLib       0000000180022418     oleaut32:OLEAUT32.dll
 0002:00000420       __imp_LoadTypeLib          0000000180022420     oleaut32:OLEAUT32.dll
 0002:00000428       __imp_VarUI4FromStr        0000000180022428     oleaut32:OLEAUT32.dll
 0002:00000430       __imp_VariantInit          0000000180022430     oleaut32:OLEAUT32.dll
 0002:00000438       __imp_SysAllocStringByteLen 0000000180022438     oleaut32:OLEAUT32.dll
 0002:00000440       __imp_SysStringByteLen     0000000180022440     oleaut32:OLEAUT32.dll
 0002:00000448       __imp_VariantChangeType    0000000180022448     oleaut32:OLEAUT32.dll
 0002:00000450       __imp_VariantClear         0000000180022450     oleaut32:OLEAUT32.dll
 0002:00000458       __imp_SysStringLen         0000000180022458     oleaut32:OLEAUT32.dll
 0002:00000460       __imp_SysFreeString        0000000180022460     oleaut32:OLEAUT32.dll
 0002:00000468       __imp_SysAllocStringLen    0000000180022468     oleaut32:OLEAUT32.dll
 0002:00000470       __imp_SysAllocString       0000000180022470     oleaut32:OLEAUT32.dll
 0002:00000478       \177OLEAUT32_NULL_THUNK_DATA 0000000180022478     oleaut32:OLEAUT32.dll
 0002:00000480       __imp_UnregisterClassW     0000000180022480     user32:USER32.dll
 0002:00000488       __imp_PostMessageW         0000000180022488     user32:USER32.dll
 0002:00000490       __imp_DefWindowProcW       0000000180022490     user32:USER32.dll
 0002:00000498       __imp_CallWindowProcW      0000000180022498     user32:USER32.dll
 0002:000004a0       __imp_RegisterClassExW     00000001800224a0     user32:USER32.dll
 0002:000004a8       __imp_GetClassInfoExW      00000001800224a8     user32:USER32.dll
 0002:000004b0       __imp_CreateWindowExW      00000001800224b0     user32:USER32.dll
 0002:000004b8       __imp_IsWindow             00000001800224b8     user32:USER32.dll
 0002:000004c0       __imp_IsChild              00000001800224c0     user32:USER32.dll
 0002:000004c8       __imp_DestroyWindow        00000001800224c8     user32:USER32.dll
 0002:000004d0       __imp_ShowWindow           00000001800224d0     user32:USER32.dll
 0002:000004d8       __imp_SetWindowPos         00000001800224d8     user32:USER32.dll
 0002:000004e0       __imp_CharNextW            00000001800224e0     user32:USER32.dll
 0002:000004e8       __imp_SetFocus             00000001800224e8     user32:USER32.dll
 0002:000004f0       __imp_LoadBitmapW          00000001800224f0     user32:USER32.dll
 0002:000004f8       __imp_RegisterClassW       00000001800224f8     user32:USER32.dll
 0002:00000500       __imp_PeekMessageW         0000000180022500     user32:USER32.dll
 0002:00000508       __imp_LoadCursorW          0000000180022508     user32:USER32.dll
 0002:00000510       __imp_GetParent            0000000180022510     user32:USER32.dll
 0002:00000518       __imp_SetWindowLongPtrW    0000000180022518     user32:USER32.dll
 0002:00000520       __imp_GetWindowLongPtrW    0000000180022520     user32:USER32.dll
 0002:00000528       __imp_PtInRect             0000000180022528     user32:USER32.dll
 0002:00000530       __imp_EqualRect            0000000180022530     user32:USER32.dll
 0002:00000538       __imp_OffsetRect           0000000180022538     user32:USER32.dll
 0002:00000540       __imp_UnionRect            0000000180022540     user32:USER32.dll
 0002:00000548       __imp_IntersectRect        0000000180022548     user32:USER32.dll
 0002:00000550       __imp_GetClientRect        0000000180022550     user32:USER32.dll
 0002:00000558       __imp_InvalidateRect       0000000180022558     user32:USER32.dll
 0002:00000560       __imp_SetWindowRgn         0000000180022560     user32:USER32.dll
 0002:00000568       __imp_EndPaint             0000000180022568     user32:USER32.dll
 0002:00000570       __imp_BeginPaint           0000000180022570     user32:USER32.dll
 0002:00000578       __imp_ReleaseDC            0000000180022578     user32:USER32.dll
 0002:00000580       __imp_GetDC                0000000180022580     user32:USER32.dll
 0002:00000588       __imp_GetKeyState          0000000180022588     user32:USER32.dll
 0002:00000590       __imp_GetFocus             0000000180022590     user32:USER32.dll
 0002:00000598       \177USER32_NULL_THUNK_DATA 0000000180022598     user32:USER32.dll
 0002:000005a0       __imp_CoCreateInstance     00000001800225a0     ole32:ole32.dll
 0002:000005a8       __imp_StringFromGUID2      00000001800225a8     ole32:ole32.dll
 0002:000005b0       __imp_CoTaskMemAlloc       00000001800225b0     ole32:ole32.dll
 0002:000005b8       __imp_CoTaskMemFree        00000001800225b8     ole32:ole32.dll
 0002:000005c0       __imp_ReadClassStm         00000001800225c0     ole32:ole32.dll
 0002:000005c8       __imp_WriteClassStm        00000001800225c8     ole32:ole32.dll
 0002:000005d0       __imp_CreateDataAdviseHolder 00000001800225d0     ole32:ole32.dll
 0002:000005d8       __imp_OleSaveToStream      00000001800225d8     ole32:ole32.dll
 0002:000005e0       __imp_CreateOleAdviseHolder 00000001800225e0     ole32:ole32.dll
 0002:000005e8       __imp_OleRegGetUserType    00000001800225e8     ole32:ole32.dll
 0002:000005f0       __imp_OleRegGetMiscStatus  00000001800225f0     ole32:ole32.dll
 0002:000005f8       __imp_OleRegEnumVerbs      00000001800225f8     ole32:ole32.dll
 0002:00000600       __imp_CLSIDFromProgID      0000000180022600     ole32:ole32.dll
 0002:00000608       __imp_CoTaskMemRealloc     0000000180022608     ole32:ole32.dll
 0002:00000610       \177ole32_NULL_THUNK_DATA  0000000180022610     ole32:ole32.dll
 0002:00000618       __guard_check_icall_fptr   0000000180022618     LIBCMT:guard_support.obj
 0002:00000620       __guard_dispatch_icall_fptr 0000000180022620     LIBCMT:guard_support.obj
 0002:00000628       __xc_a                     0000000180022628     LIBCMT:initializers.obj
 0002:00000658       __xc_z                     0000000180022658     LIBCMT:initializers.obj
 0002:00000660       __xi_a                     0000000180022660     LIBCMT:initializers.obj
 0002:00000670       __acrt_stdio_initializer   0000000180022670     libucrt:stdio_initializer.obj
 0002:00000678       __acrt_multibyte_initializer 0000000180022678     libucrt:multibyte_initializer.obj
 0002:00000680       __acrt_tran_fma3_initializer 0000000180022680     libucrt:fma3_initializer.obj
 0002:00000688       __xi_z                     0000000180022688     LIBCMT:initializers.obj
 0002:00000690       __xl_a                     0000000180022690     LIBCMT:tlssup.obj
 0002:00000698       __xl_z                     0000000180022698     LIBCMT:tlssup.obj
 0002:000006a0       __xp_a                     00000001800226a0     LIBCMT:initializers.obj
 0002:000006a8       __acrt_locale_terminator   00000001800226a8     libucrt:locale_initializer.obj
 0002:000006b0       __dcrt_console_output_terminator 00000001800226b0     libucrt:console_output_initializer.obj
 0002:000006b8       __acrt_stdio_terminator    00000001800226b8     libucrt:stdio_initializer.obj
 0002:000006c0       __xp_z                     00000001800226c0     LIBCMT:initializers.obj
 0002:000006c8       __xt_a                     00000001800226c8     LIBCMT:initializers.obj
 0002:000006d0       __xt_z                     00000001800226d0     LIBCMT:initializers.obj
 0002:000006e0       ??_C@_13HADIAKP@?$AAS@     00000001800226e0     OposVariant.obj
 0002:000006e4       ??_C@_13LHMFKAAD@?$AAM@    00000001800226e4     OposVariant.obj
 0002:000006e8       ??_C@_13MKMNOPIJ@?$AAD@    00000001800226e8     OposVariant.obj
 0002:000006ec       ??_C@_13OPKGLAFF@?$AAB@    00000001800226ec     OposVariant.obj
 0002:000006f0       ??_C@_17LLMMEOJD@?$AAV?$AAa?$AAl@ 00000001800226f0     OposVariant.obj
 0002:000006f8       ??_C@_1BI@JFAIJMHL@?$AAF?$AAo?$AAr?$AAc?$AAe?$AAR?$AAe?$AAm?$AAo?$AAv?$AAe@ 00000001800226f8     OposVariant.obj
 0002:00000710       ??_C@_1BC@GCKHIPE@?$AAN?$AAo?$AAR?$AAe?$AAm?$AAo?$AAv?$AAe@ 0000000180022710     OposVariant.obj
 0002:00000728       ??_C@_1O@JDLOHAN@?$AAD?$AAe?$AAl?$AAe?$AAt?$AAe@ 0000000180022728     OposVariant.obj
 0002:00000738       ??_C@_11LOCGONAA@@         0000000180022738     OposVariant.obj
 0002:00000740       IID_IOPOSItemDispenser_1_12 0000000180022740     ItemDispenser.obj
 0002:00000750       IID_IOPOSItemDispenser     0000000180022750     ItemDispenser.obj
 0002:00000760       LIBID_OposItemDispenser_CCO 0000000180022760     ItemDispenser.obj
 0002:00000770       DIID__IOPOSItemDispenserEvents 0000000180022770     ItemDispenser.obj
 0002:00000780       CLSID_OPOSItemDispenser    0000000180022780     ItemDispenser.obj
 0002:00000790       _GUID_00000114_0000_0000_c000_000000000046 0000000180022790     ItemDispenser.obj
 0002:000007a0       ??_C@_1BK@BIGILECK@?$AAA?$AAd?$AAv?$AAa?$AAp?$AAi?$AA3?$AA2?$AA?4?$AAd?$AAl?$AAl@ 00000001800227a0     ItemDispenser.obj
 0002:000007c0       ??_C@_0BI@MNCFCPFK@RegCreateKeyTransactedW@ 00000001800227c0     ItemDispenser.obj
 0002:000007d8       _GUID_b196b287_bab4_101a_b69c_00aa00341d07 00000001800227d8     ItemDispenser.obj
 0002:000007e8       _GUID_b196b285_bab4_101a_b69c_00aa00341d07 00000001800227e8     ItemDispenser.obj
 0002:00000800       ?_entries@?1??_GetEntries@COPOSItemDispenser@@SAPEBU_ATL_INTMAP_ENTRY@ATL@@XZ@4QBU34@B 0000000180022800     ItemDispenser.obj
 0002:00000a40       _GUID_cf51ed10_62fe_11cf_bf86_00a0c9034836 0000000180022a40     ItemDispenser.obj
 0002:00000a50       _GUID_0000010a_0000_0000_c000_000000000046 0000000180022a50     ItemDispenser.obj
 0002:00000a60       _GUID_b196b283_bab4_101a_b69c_00aa00341d07 0000000180022a60     ItemDispenser.obj
 0002:00000a70       _GUID_a6bc3ac0_dbaa_11ce_9de3_00aa004bb851 0000000180022a70     ItemDispenser.obj
 0002:00000a80       _GUID_cb5bdc81_93c1_11cf_8f20_00805f2cd064 0000000180022a80     ItemDispenser.obj
 0002:00000a90       ?pPropMap@?1??GetPropertyMap@COPOSItemDispenser@@SAPEBUATL_PROPMAP_ENTRY@ATL@@XZ@4QBU34@B 0000000180022a90     ItemDispenser.obj
 0002:00000b38       ??_C@_17DGDADEHL@?$AA_?$AAc?$AAx@ 0000000180022b38     ItemDispenser.obj
 0002:00000b40       ??_C@_17IOIMFDBO@?$AA_?$AAc?$AAy@ 0000000180022b40     ItemDispenser.obj
 0002:00000b48       _GUID_0000010c_0000_0000_c000_000000000046 0000000180022b48     ItemDispenser.obj
 0002:00000b58       _GUID_00000146_0000_0000_c000_000000000046 0000000180022b58     ItemDispenser.obj
 0002:00000b68       ??_7?$CComObjectCached@VCComClassFactory@ATL@@@ATL@@6B@ 0000000180022b68     ItemDispenser.obj
 0002:00000b98       ??_C@_1CE@PGFMOFKI@?$AAS?$AAt?$AAa?$AAt?$AAu?$AAs?$AAU?$AAp?$AAd?$AAa?$AAt?$AAe?$AAE?$AAv?$AAe@ 0000000180022b98     ItemDispenser.obj
 0002:00000bc0       _GUID_922eada0_3424_11cf_b670_00aa004cd6d8 0000000180022bc0     ItemDispenser.obj
 0002:00000bd0       _GUID_9c2cad80_3424_11cf_b670_00aa004cd6d8 0000000180022bd0     ItemDispenser.obj
 0002:00000be0       ??_C@_1BM@CBGEBBBJ@?$AAD?$AAi?$AAr?$AAe?$AAc?$AAt?$AAI?$AAO?$AAE?$AAv?$AAe?$AAn?$AAt@ 0000000180022be0     ItemDispenser.obj
 0002:00000c00       _GUID_00000119_0000_0000_c000_000000000046 0000000180022c00     ItemDispenser.obj
 0002:00000c10       _GUID_b196b289_bab4_101a_b69c_00aa00341d07 0000000180022c10     ItemDispenser.obj
 0002:00000c20       _GUID_b196b286_bab4_101a_b69c_00aa00341d07 0000000180022c20     ItemDispenser.obj
 0002:00000c30       ??_C@_1BC@ENICKDH@?$AAC?$AAo?$AAn?$AAt?$AAe?$AAn?$AAt?$AAs@ 0000000180022c30     ItemDispenser.obj
 0002:00000c48       _GUID_00000117_0000_0000_c000_000000000046 0000000180022c48     ItemDispenser.obj
 0002:00000c58       ??_7CComModule@ATL@@6B@    0000000180022c58     ItemDispenser.obj
 0002:00000ca8       ??_7?$CComObject@V?$CComEnum@UIEnumConnectionPoints@@$1?_GUID_b196b285_bab4_101a_b69c_00aa00341d07@@3U__s_GUID@@BPEAUIConnectionPoint@@V?$_CopyInterface@UIConnectionPoint@@@ATL@@VCComSingleThreadModel@6@@ATL@@@ATL@@6B@ 0000000180022ca8     ItemDispenser.obj
 0002:00000ce8       _GUID_00000000_0000_0000_c000_000000000046 0000000180022ce8     ItemDispenser.obj
 0002:00000cf8       _GUID_00020400_0000_0000_c000_000000000046 0000000180022cf8     ItemDispenser.obj
 0002:00000d08       _GUID_0000010e_0000_0000_c000_000000000046 0000000180022d08     ItemDispenser.obj
 0002:00000d18       _GUID_b196b288_bab4_101a_b69c_00aa00341d07 0000000180022d18     ItemDispenser.obj
 0002:00000d28       ??_C@_1M@KANJNLFF@?$AAC?$AAL?$AAS?$AAI?$AAD@ 0000000180022d28     ItemDispenser.obj
 0002:00000d38       ??_C@_1M@EJNEECMJ@?$AAA?$AAp?$AAp?$AAI?$AAD@ 0000000180022d38     ItemDispenser.obj
 0002:00000d48       _GUID_00000113_0000_0000_c000_000000000046 0000000180022d48     ItemDispenser.obj
 0002:00000d60       ?rgszNeverDelete@CRegParser@ATL@@1QBQEB_WB 0000000180022d60     ItemDispenser.obj
 0002:00000dc0       _GUID_1c2056cc_5ef4_101b_8bc8_00aa003e3b29 0000000180022dc0     ItemDispenser.obj
 0002:00000dd0       ??_7CRegObject@ATL@@6B@    0000000180022dd0     ItemDispenser.obj
 0002:00000e00       _GUID_00000112_0000_0000_c000_000000000046 0000000180022e00     ItemDispenser.obj
 0002:00000e10       _GUID_3af24292_0c96_11ce_a0cf_00aa00600ab8 0000000180022e10     ItemDispenser.obj
 0002:00000e20       _GUID_00000127_0000_0000_c000_000000000046 0000000180022e20     ItemDispenser.obj
 0002:00000e30       _GUID_0000010d_0000_0000_c000_000000000046 0000000180022e30     ItemDispenser.obj
 0002:00000e40       ??_C@_1M@PPPPCDEP@?$AAA?$AAP?$AAP?$AAI?$AAD@ 0000000180022e40     ItemDispenser.obj
 0002:00000e50       ??_C@_1CK@OEKPKBNA@?$AAC?$AAo?$AAm?$AAp?$AAo?$AAn?$AAe?$AAn?$AAt?$AA?5?$AAC?$AAa?$AAt?$AAe?$AAg@ 0000000180022e50     ItemDispenser.obj
 0002:00000e80       ??_C@_1BC@NKMMNMGL@?$AAF?$AAi?$AAl?$AAe?$AAT?$AAy?$AAp?$AAe@ 0000000180022e80     ItemDispenser.obj
 0002:00000e98       ??_C@_1BE@EKPAFMCP@?$AAI?$AAn?$AAt?$AAe?$AAr?$AAf?$AAa?$AAc?$AAe@ 0000000180022e98     ItemDispenser.obj
 0002:00000eb0       ??_C@_1BC@MAICEHGI@?$AAH?$AAa?$AAr?$AAd?$AAw?$AAa?$AAr?$AAe@ 0000000180022eb0     ItemDispenser.obj
 0002:00000ec8       ??_C@_19HLLLM@?$AAM?$AAi?$AAm?$AAe@ 0000000180022ec8     ItemDispenser.obj
 0002:00000ed8       ??_C@_17OMAOINJK@?$AAS?$AAA?$AAM@ 0000000180022ed8     ItemDispenser.obj
 0002:00000ee0       ??_C@_1BC@IBECJAAI@?$AAS?$AAE?$AAC?$AAU?$AAR?$AAI?$AAT?$AAY@ 0000000180022ee0     ItemDispenser.obj
 0002:00000ef8       ??_C@_1O@GBFINDKL@?$AAS?$AAY?$AAS?$AAT?$AAE?$AAM@ 0000000180022ef8     ItemDispenser.obj
 0002:00000f08       ??_C@_1BC@EAHCMADO@?$AAS?$AAo?$AAf?$AAt?$AAw?$AAa?$AAr?$AAe@ 0000000180022f08     ItemDispenser.obj
 0002:00000f20       ??_C@_1BA@JIHHIEDE@?$AAT?$AAy?$AAp?$AAe?$AAL?$AAi?$AAb@ 0000000180022f20     ItemDispenser.obj
 0002:00000f30       ?map@?1??HKeyFromString@CRegParser@ATL@@KAPEAUHKEY__@@PEA_W@Z@4QBUkeymap@?1??123@KAPEAU4@0@Z@B 0000000180022f30     ItemDispenser.obj
 0002:00001010       ??_C@_19NCHLBIN@?$AAH?$AAK?$AAC?$AAR@ 0000000180023010     ItemDispenser.obj
 0002:00001020       ??_C@_19JAPAIJDE@?$AAH?$AAK?$AAC?$AAU@ 0000000180023020     ItemDispenser.obj
 0002:00001030       ??_C@_19PEALEEJB@?$AAH?$AAK?$AAL?$AAM@ 0000000180023030     ItemDispenser.obj
 0002:00001040       ??_C@_17PJOJPMPB@?$AAH?$AAK?$AAU@ 0000000180023040     ItemDispenser.obj
 0002:00001048       ??_C@_19PNBHMJPL@?$AAH?$AAK?$AAP?$AAD@ 0000000180023048     ItemDispenser.obj
 0002:00001058       ??_C@_19GFFAIJHG@?$AAH?$AAK?$AAD?$AAD@ 0000000180023058     ItemDispenser.obj
 0002:00001068       ??_C@_19OFICIBHH@?$AAH?$AAK?$AAC?$AAC@ 0000000180023068     ItemDispenser.obj
 0002:00001078       ??_C@_1CE@PACHPJFI@?$AAH?$AAK?$AAE?$AAY?$AA_?$AAC?$AAL?$AAA?$AAS?$AAS?$AAE?$AAS?$AA_?$AAR?$AAO@ 0000000180023078     ItemDispenser.obj
 0002:000010a0       ??_C@_1CE@HLHNCBPM@?$AAH?$AAK?$AAE?$AAY?$AA_?$AAC?$AAU?$AAR?$AAR?$AAE?$AAN?$AAT?$AA_?$AAU?$AAS@ 00000001800230a0     ItemDispenser.obj
 0002:000010c8       ??_C@_1CG@GFBEANJL@?$AAH?$AAK?$AAE?$AAY?$AA_?$AAL?$AAO?$AAC?$AAA?$AAL?$AA_?$AAM?$AAA?$AAC?$AAH@ 00000001800230c8     ItemDispenser.obj
 0002:000010f0       ??_C@_1BG@BGODANIO@?$AAH?$AAK?$AAE?$AAY?$AA_?$AAU?$AAS?$AAE?$AAR?$AAS@ 00000001800230f0     ItemDispenser.obj
 0002:00001108       ??_C@_1CM@KHNNAOIC@?$AAH?$AAK?$AAE?$AAY?$AA_?$AAP?$AAE?$AAR?$AAF?$AAO?$AAR?$AAM?$AAA?$AAN?$AAC@ 0000000180023108     ItemDispenser.obj
 0002:00001138       ??_C@_1BM@HAGMMHIA@?$AAH?$AAK?$AAE?$AAY?$AA_?$AAD?$AAY?$AAN?$AA_?$AAD?$AAA?$AAT?$AAA@ 0000000180023138     ItemDispenser.obj
 0002:00001158       ??_C@_1CI@BBJOACGG@?$AAH?$AAK?$AAE?$AAY?$AA_?$AAC?$AAU?$AAR?$AAR?$AAE?$AAN?$AAT?$AA_?$AAC?$AAO@ 0000000180023158     ItemDispenser.obj
 0002:00001180       _GUID_00000109_0000_0000_c000_000000000046 0000000180023180     ItemDispenser.obj
 0002:00001190       _GUID_7fd52380_4e07_101b_ae2d_08002b2ec713 0000000180023190     ItemDispenser.obj
 0002:000011a0       ??_7?$CComContainedObject@VCOPOSItemDispenser@@@ATL@@6B?$IDispatchImpl@UIOPOSItemDispenser@@$1?IID_IOPOSItemDispenser@@3U_GUID@@B$1?LIBID_OposItemDispenser_CCO@@3U3@B$00$0A@VCComTypeInfoHolder@ATL@@@1@@ 00000001800231a0     ItemDispenser.obj
 0002:00001378       ??_7?$CComContainedObject@VCOPOSItemDispenser@@@ATL@@6BCComControlBase@1@@ 0000000180023378     ItemDispenser.obj
 0002:000013a0       ??_7?$CComContainedObject@VCOPOSItemDispenser@@@ATL@@6B?$CWindowImpl@VCOPOSItemDispenser@@VCWindow@ATL@@V?$CWinTraits@$0FGAAAAAA@$0A@@3@@1@@ 00000001800233a0     ItemDispenser.obj
 0002:000013c0       ??_7?$CComContainedObject@VCOPOSItemDispenser@@@ATL@@6B?$IPersistStreamInitImpl@VCOPOSItemDispenser@@@1@@ 00000001800233c0     ItemDispenser.obj
 0002:00001408       ??_7?$CComContainedObject@VCOPOSItemDispenser@@@ATL@@6B?$IOleControlImpl@VCOPOSItemDispenser@@@1@@ 0000000180023408     ItemDispenser.obj
 0002:00001440       ??_7?$CComContainedObject@VCOPOSItemDispenser@@@ATL@@6B?$IOleObjectImpl@VCOPOSItemDispenser@@@1@@ 0000000180023440     ItemDispenser.obj
 0002:00001500       ??_7?$CComContainedObject@VCOPOSItemDispenser@@@ATL@@6B?$IOleInPlaceActiveObjectImpl@VCOPOSItemDispenser@@@1@@ 0000000180023500     ItemDispenser.obj
 0002:00001550       ??_7?$CComContainedObject@VCOPOSItemDispenser@@@ATL@@6B?$IViewObjectExImpl@VCOPOSItemDispenser@@@1@@ 0000000180023550     ItemDispenser.obj
 0002:000015c8       ??_7?$CComContainedObject@VCOPOSItemDispenser@@@ATL@@6B?$IOleInPlaceObjectWindowlessImpl@VCOPOSItemDispenser@@@1@@ 00000001800235c8     ItemDispenser.obj
 0002:00001620       ??_7?$CComContainedObject@VCOPOSItemDispenser@@@ATL@@6B?$IConnectionPointContainerImpl@VCOPOSItemDispenser@@@1@@ 0000000180023620     ItemDispenser.obj
 0002:00001648       ??_7?$CComContainedObject@VCOPOSItemDispenser@@@ATL@@6B?$IPersistStorageImpl@VCOPOSItemDispenser@@@1@@ 0000000180023648     ItemDispenser.obj
 0002:00001698       ??_7?$CComContainedObject@VCOPOSItemDispenser@@@ATL@@6B?$ISpecifyPropertyPagesImpl@VCOPOSItemDispenser@@@1@@ 0000000180023698     ItemDispenser.obj
 0002:000016b8       ??_7?$CComContainedObject@VCOPOSItemDispenser@@@ATL@@6B?$IQuickActivateImpl@VCOPOSItemDispenser@@@1@@ 00000001800236b8     ItemDispenser.obj
 0002:000016e8       ??_7?$CComContainedObject@VCOPOSItemDispenser@@@ATL@@6B?$IDataObjectImpl@VCOPOSItemDispenser@@@1@@ 00000001800236e8     ItemDispenser.obj
 0002:00001748       ??_7?$CComContainedObject@VCOPOSItemDispenser@@@ATL@@6B?$IProvideClassInfo2Impl@$1?CLSID_OPOSItemDispenser@@3U_GUID@@B$1?DIID__IOPOSItemDispenserEvents@@3U2@B$1?LIBID_OposItemDispenser_CCO@@3U2@B$00$0A@VCComTypeInfoHolder@ATL@@@1@@ 0000000180023748     ItemDispenser.obj
 0002:00001770       ??_7?$CComContainedObject@VCOPOSItemDispenser@@@ATL@@6B?$IObjectSafetyImpl@VCOPOSItemDispenser@@$02@1@@ 0000000180023770     ItemDispenser.obj
 0002:000017a0       ??_7?$CComContainedObject@VCOPOSItemDispenser@@@ATL@@6B?$IPropertyNotifySinkCP@VCOPOSItemDispenser@@VCComDynamicUnkArray@ATL@@@1@@ 00000001800237a0     ItemDispenser.obj
 0002:000017e0       ??_7?$CComContainedObject@VCOPOSItemDispenser@@@ATL@@6B?$CProxy_IOPOSEvents@VCOPOSItemDispenser@@@@@ 00000001800237e0     ItemDispenser.obj
 0002:00001820       ??_7?$CComAggObject@VCOPOSItemDispenser@@@ATL@@6B@ 0000000180023820     ItemDispenser.obj
 0002:00001840       ??_7?$CComObject@VCOPOSItemDispenser@@@ATL@@6B?$IDispatchImpl@UIOPOSItemDispenser@@$1?IID_IOPOSItemDispenser@@3U_GUID@@B$1?LIBID_OposItemDispenser_CCO@@3U3@B$00$0A@VCComTypeInfoHolder@ATL@@@1@@ 0000000180023840     ItemDispenser.obj
 0002:00001a18       ??_7?$CComObject@VCOPOSItemDispenser@@@ATL@@6BCComControlBase@1@@ 0000000180023a18     ItemDispenser.obj
 0002:00001a40       ??_7?$CComObject@VCOPOSItemDispenser@@@ATL@@6B?$CWindowImpl@VCOPOSItemDispenser@@VCWindow@ATL@@V?$CWinTraits@$0FGAAAAAA@$0A@@3@@1@@ 0000000180023a40     ItemDispenser.obj
 0002:00001a60       ??_7?$CComObject@VCOPOSItemDispenser@@@ATL@@6B?$IPersistStreamInitImpl@VCOPOSItemDispenser@@@1@@ 0000000180023a60     ItemDispenser.obj
 0002:00001aa8       ??_7?$CComObject@VCOPOSItemDispenser@@@ATL@@6B?$IOleControlImpl@VCOPOSItemDispenser@@@1@@ 0000000180023aa8     ItemDispenser.obj
 0002:00001ae0       ??_C@_1EA@NHKLICFA@?$AAH?$AAK?$AAC?$AAU?$AA?$AN?$AA?6?$AA?$HL?$AA?7?$AAS?$AAo?$AAf?$AAt?$AAw?$AAa?$AAr@ 0000000180023ae0     ItemDispenser.obj
 0002:00001b20       ??_7?$CComObject@VCOPOSItemDispenser@@@ATL@@6B?$IOleObjectImpl@VCOPOSItemDispenser@@@1@@ 0000000180023b20     ItemDispenser.obj
 0002:00001be0       ??_C@_1BE@LJOLIMEM@?$AA?$AN?$AA?6?$AA?7?$AA?$HN?$AA?$AN?$AA?6?$AA?$HN?$AA?$AN?$AA?6@ 0000000180023be0     ItemDispenser.obj
 0002:00001bf8       ??_7?$CComObject@VCOPOSItemDispenser@@@ATL@@6B?$IOleInPlaceActiveObjectImpl@VCOPOSItemDispenser@@@1@@ 0000000180023bf8     ItemDispenser.obj
 0002:00001c48       ??_7?$CComObject@VCOPOSItemDispenser@@@ATL@@6B?$IViewObjectExImpl@VCOPOSItemDispenser@@@1@@ 0000000180023c48     ItemDispenser.obj
 0002:00001cc0       ??_7?$CComObject@VCOPOSItemDispenser@@@ATL@@6B?$IOleInPlaceObjectWindowlessImpl@VCOPOSItemDispenser@@@1@@ 0000000180023cc0     ItemDispenser.obj
 0002:00001d18       ??_7?$CComObject@VCOPOSItemDispenser@@@ATL@@6B?$IConnectionPointContainerImpl@VCOPOSItemDispenser@@@1@@ 0000000180023d18     ItemDispenser.obj
 0002:00001d40       ??_7?$CComObject@VCOPOSItemDispenser@@@ATL@@6B?$IPersistStorageImpl@VCOPOSItemDispenser@@@1@@ 0000000180023d40     ItemDispenser.obj
 0002:00001d90       ??_7?$CComObject@VCOPOSItemDispenser@@@ATL@@6B?$ISpecifyPropertyPagesImpl@VCOPOSItemDispenser@@@1@@ 0000000180023d90     ItemDispenser.obj
 0002:00001db0       ??_7?$CComObject@VCOPOSItemDispenser@@@ATL@@6B?$IQuickActivateImpl@VCOPOSItemDispenser@@@1@@ 0000000180023db0     ItemDispenser.obj
 0002:00001de0       ??_7?$CComObject@VCOPOSItemDispenser@@@ATL@@6B?$IDataObjectImpl@VCOPOSItemDispenser@@@1@@ 0000000180023de0     ItemDispenser.obj
 0002:00001e40       ??_7?$CComObject@VCOPOSItemDispenser@@@ATL@@6B?$IProvideClassInfo2Impl@$1?CLSID_OPOSItemDispenser@@3U_GUID@@B$1?DIID__IOPOSItemDispenserEvents@@3U2@B$1?LIBID_OposItemDispenser_CCO@@3U2@B$00$0A@VCComTypeInfoHolder@ATL@@@1@@ 0000000180023e40     ItemDispenser.obj
 0002:00001e68       ??_7?$CComObject@VCOPOSItemDispenser@@@ATL@@6B?$IObjectSafetyImpl@VCOPOSItemDispenser@@$02@1@@ 0000000180023e68     ItemDispenser.obj
 0002:00001e98       ??_7?$CComObject@VCOPOSItemDispenser@@@ATL@@6B?$IPropertyNotifySinkCP@VCOPOSItemDispenser@@VCComDynamicUnkArray@ATL@@@1@@ 0000000180023e98     ItemDispenser.obj
 0002:00001ed8       ??_7?$CComObject@VCOPOSItemDispenser@@@ATL@@6B?$CProxy_IOPOSEvents@VCOPOSItemDispenser@@@@@ 0000000180023ed8     ItemDispenser.obj
 0002:00001f18       ??_C@_1O@MNLDABAF@?$AAM?$AAo?$AAd?$AAu?$AAl?$AAe@ 0000000180023f18     ItemDispenser.obj
 0002:00001f28       ??_C@_1BG@JBACFMF@?$AAM?$AAo?$AAd?$AAu?$AAl?$AAe?$AA_?$AAR?$AAa?$AAw@ 0000000180023f28     ItemDispenser.obj
 0002:00001f40       ??_C@_1BC@KAILKFFG@?$AAR?$AAE?$AAG?$AAI?$AAS?$AAT?$AAR?$AAY@ 0000000180023f40     ItemDispenser.obj
 0002:00001f58       ??_C@_1O@GBFKGNEO@?$AAA?$AAT?$AAL?$AA?3?$AA?$CF?$AAp@ 0000000180023f58     ItemDispenser.obj
 0002:00001f68       ??_C@_1BA@PICGEGJB@?$AAD?$AAI?$AAS?$AAP?$AAL?$AAA?$AAY@ 0000000180023f68     ItemDispenser.obj
 0002:00001f78       _GUID_9bfbbc02_eff1_101a_84ed_00aa00341d07 0000000180023f78     ItemDispenser.obj
 0002:00001f88       ?_entries@?1??_GetEntries@?$CComEnum@UIEnumConnectionPoints@@$1?_GUID_b196b285_bab4_101a_b69c_00aa00341d07@@3U__s_GUID@@BPEAUIConnectionPoint@@V?$_CopyInterface@UIConnectionPoint@@@ATL@@VCComSingleThreadModel@6@@ATL@@SAPEBU_ATL_INTMAP_ENTRY@3@XZ@4QBU43@B 0000000180023f88     ItemDispenser.obj
 0002:00001fb8       _GUID_00020412_0000_0000_c000_000000000046 0000000180023fb8     ItemDispenser.obj
 0002:00001fc8       _GUID_00020401_0000_0000_c000_000000000046 0000000180023fc8     ItemDispenser.obj
 0002:00001fd8       _GUID_b196b284_bab4_101a_b69c_00aa00341d07 0000000180023fd8     ItemDispenser.obj
 0002:00001fe8       ??_7?$CComObject@V?$CComEnum@UIEnumConnections@@$1?_GUID_b196b287_bab4_101a_b69c_00aa00341d07@@3U__s_GUID@@BUtagCONNECTDATA@@V?$_Copy@UtagCONNECTDATA@@@ATL@@VCComSingleThreadModel@6@@ATL@@@ATL@@6B@ 0000000180023fe8     ItemDispenser.obj
 0002:00002028       _GUID_55980ba0_35aa_11cf_b671_00aa004cd6d8 0000000180024028     ItemDispenser.obj
 0002:00002038       _GUID_b196b28b_bab4_101a_b69c_00aa00341d07 0000000180024038     ItemDispenser.obj
 0002:00002048       ?_entries@?1??_GetEntries@?$CComEnum@UIEnumConnections@@$1?_GUID_b196b287_bab4_101a_b69c_00aa00341d07@@3U__s_GUID@@BUtagCONNECTDATA@@V?$_Copy@UtagCONNECTDATA@@@ATL@@VCComSingleThreadModel@6@@ATL@@SAPEBU_ATL_INTMAP_ENTRY@3@XZ@4QBU43@B 0000000180024048     ItemDispenser.obj
 0002:00002078       ??_7CComClassFactory@ATL@@6B@ 0000000180024078     ItemDispenser.obj
 0002:000020a8       ?_entries@?1??_GetEntries@CComClassFactory@ATL@@SAPEBU_ATL_INTMAP_ENTRY@3@XZ@4QBU43@B 00000001800240a8     ItemDispenser.obj
 0002:000020d8       _GUID_00000001_0000_0000_c000_000000000046 00000001800240d8     ItemDispenser.obj
 0002:000020e8       ??_C@_0BG@EKFFMJIO@RegOpenKeyTransactedW@ 00000001800240e8     ItemDispenser.obj
 0002:00002100       ??_C@_0BI@HAKLOOGP@RegDeleteKeyTransactedW@ 0000000180024100     ItemDispenser.obj
 0002:00002118       ??_C@_0BA@LILAPHGE@RegDeleteKeyExW@ 0000000180024118     ItemDispenser.obj
 0002:00002128       ??_C@_19ILOCMLCJ@?$AA?4?$AAt?$AAl?$AAb@ 0000000180024128     ItemDispenser.obj
 0002:00002138       _GUID_0002e012_0000_0000_c000_000000000046 0000000180024138     ItemDispenser.obj
 0002:00002148       ??_C@_1O@FHBGLCIO@?$AAC?$AAL?$AAS?$AAI?$AAD?$AA?2@ 0000000180024148     ItemDispenser.obj
 0002:00002158       ??_C@_1CK@IFBKBFAA@?$AA?2?$AAR?$AAe?$AAq?$AAu?$AAi?$AAr?$AAe?$AAd?$AA?5?$AAC?$AAa?$AAt?$AAe?$AAg@ 0000000180024158     ItemDispenser.obj
 0002:00002188       ??_C@_1DA@BIHALFED@?$AA?2?$AAI?$AAm?$AAp?$AAl?$AAe?$AAm?$AAe?$AAn?$AAt?$AAe?$AAd?$AA?5?$AAC?$AAa@ 0000000180024188     ItemDispenser.obj
 0002:000021b8       ??_C@_1BK@EDKOLFBJ@?$AAO?$AAL?$AAE?$AAA?$AAU?$AAT?$AA3?$AA2?$AA?4?$AAD?$AAL?$AAL@ 00000001800241b8     ItemDispenser.obj
 0002:000021d8       ??_C@_0BJ@CNLFOMHB@UnRegisterTypeLibForUser@ 00000001800241d8     ItemDispenser.obj
 0002:000021f8       ??_C@_0BH@LBOMMKPJ@RegisterTypeLibForUser@ 00000001800241f8     ItemDispenser.obj
 0002:00002210       ??_C@_0P@MMNMMLGK@COFreezeEvents@ 0000000180024210     ItemDispenserImpl.obj
 0002:00002220       ??_C@_0BC@OGCGGIMP@GetPropertyNumber@ 0000000180024220     ItemDispenserImpl.obj
 0002:00002238       ??_C@_0BC@MDCNODNB@SetPropertyNumber@ 0000000180024238     ItemDispenserImpl.obj
 0002:00002250       ??_C@_0BC@CFCCMIMD@GetPropertyString@ 0000000180024250     ItemDispenserImpl.obj
 0002:00002268       ??_C@_0BC@CJEDNN@SetPropertyString@ 0000000180024268     ItemDispenserImpl.obj
 0002:00002280       ??_C@_0M@LNPKKKDA@OpenService@ 0000000180024280     ItemDispenserImpl.obj
 0002:00002290       ??_C@_0M@PCMCHHMH@CheckHealth@ 0000000180024290     ItemDispenserImpl.obj
 0002:000022a0       ??_C@_0M@JGMIDNEK@ClaimDevice@ 00000001800242a0     ItemDispenserImpl.obj
 0002:000022b0       ??_C@_0N@DDFIIBMP@CloseService@ 00000001800242b0     ItemDispenserImpl.obj
 0002:000022c0       ??_C@_08EEIHICPC@DirectIO@ 00000001800242c0     ItemDispenserImpl.obj
 0002:000022d0       ??_C@_0O@BCPMENMJ@ReleaseDevice@ 00000001800242d0     ItemDispenserImpl.obj
 0002:000022e0       ??_C@_0BA@GFABKEEE@ResetStatistics@ 00000001800242e0     ItemDispenserImpl.obj
 0002:000022f0       ??_C@_0BD@DPALHJGC@RetrieveStatistics@ 00000001800242f0     ItemDispenserImpl.obj
 0002:00002308       ??_C@_0BB@KOHIKNFC@UpdateStatistics@ 0000000180024308     ItemDispenserImpl.obj
 0002:00002320       ??_C@_0BH@PBKBNMGB@CompareFirmwareVersion@ 0000000180024320     ItemDispenserImpl.obj
 0002:00002338       ??_C@_0P@FBPDPIPA@UpdateFirmware@ 0000000180024338     ItemDispenserImpl.obj
 0002:00002348       ??_C@_0BA@MFNBLEHA@AdjustItemCount@ 0000000180024348     ItemDispenserImpl.obj
 0002:00002358       ??_C@_0N@NABAJGFM@DispenseItem@ 0000000180024358     ItemDispenserImpl.obj
 0002:00002368       ??_C@_0O@NCNIIKPJ@ReadItemCount@ 0000000180024368     ItemDispenserImpl.obj
 0002:00002378       ??_7?$CProxy_IOPOSEvents@VCOPOSItemDispenser@@@@6B@ 0000000180024378     ItemDispenserImpl.obj
 0002:000023b8       ??_C@_1BA@IFHENID@?$AA?$FL?$AAE?$AAr?$AAr?$AAo?$AAr?$AA?$FN@ 00000001800243b8     ItemDispenserImpl.obj
 0002:000023c8       ??_C@_0DA@GBNHLJBC@SOFTWARE?2OLEforRetail?2ServiceOP@ 00000001800243c8     ItemDispenserImpl.obj
 0002:000023f8       ??_C@_1M@IAIJHCCH@?$AAC?$AAl?$AAo?$AAs?$AAe@ 00000001800243f8     ItemDispenserImpl.obj
 0002:00002408       ??_C@_1M@PCPKGJAH@?$AAC?$AAl?$AAa?$AAi?$AAm@ 0000000180024408     ItemDispenserImpl.obj
 0002:00002418       ??_C@_1BA@NDFKIOCP@?$AAR?$AAe?$AAl?$AAe?$AAa?$AAs?$AAe@ 0000000180024418     ItemDispenserImpl.obj
 0002:00002428       ??_C@_0O@GNNFMEMJ@ItemDispenser@ 0000000180024428     ItemDispenserImpl.obj
 0002:00002438       ??_C@_1BM@IJMNMBPK@?$AAG?$AAe?$AAt?$AAO?$AAp?$AAe?$AAn?$AAR?$AAe?$AAs?$AAu?$AAl?$AAt@ 0000000180024438     ItemDispenserImpl.obj
 0002:00002458       IID_IDispatch              0000000180024458     uuid:oaidl_i.obj
 0002:00002468       IID_IPropertyNotifySink    0000000180024468     uuid:ocidl_i.obj
 0002:00002478       GUID_NULL                  0000000180024478     uuid:cguid_i.obj
 0002:00002488       CLSID_StdGlobalInterfaceTable 0000000180024488     uuid:cguid_i.obj
 0002:00002498       CLSID_StdComponentCategoriesMgr 0000000180024498     uuid:ieguids.obj
 0002:000024a8       IID_IUnknown               00000001800244a8     uuid:unknwn_i.obj
 0002:000024c0       __xmm@ffffffffffffffffffffffffffffffff 00000001800244c0     LIBCMT:utility.obj
 0002:000024d0       ??_C@_1EC@JIJBPKFM@?$AAa?$AAp?$AAi?$AA?9?$AAm?$AAs?$AA?9?$AAw?$AAi?$AAn?$AA?9?$AAc?$AAo?$AAr?$AAe@ 00000001800244d0     LIBCMT:thread_safe_statics.obj
 0002:00002518       ??_C@_1BK@MGMFAEKH@?$AAk?$AAe?$AAr?$AAn?$AAe?$AAl?$AA3?$AA2?$AA?4?$AAd?$AAl?$AAl@ 0000000180024518     LIBCMT:thread_safe_statics.obj
 0002:00002538       ??_C@_0BJ@JEBJOJFJ@SleepConditionVariableCS@ 0000000180024538     LIBCMT:thread_safe_statics.obj
 0002:00002558       ??_C@_0BJ@PGPPEPCC@WakeAllConditionVariable@ 0000000180024558     LIBCMT:thread_safe_statics.obj
 0002:00002571       ?nothrow@std@@3Unothrow_t@1@B 0000000180024571     LIBCMT:std_nothrow.obj
 0002:000025b0       _pDefaultRawDllMain        00000001800245b0     LIBCMT:dll_dllmain.obj
 0002:000025b0       _pRawDllMain               00000001800245b0     LIBCMT:dll_dllmain.obj
 0002:000025c0       ??_7exception@std@@6B@     00000001800245c0     LIBCMT:throw_bad_alloc.obj
 0002:000025d0       ??_C@_0BC@EOODALEL@Unknown?5exception@ 00000001800245d0     LIBCMT:throw_bad_alloc.obj
 0002:000025f0       ??_7bad_alloc@std@@6B@     00000001800245f0     LIBCMT:throw_bad_alloc.obj
 0002:00002600       ??_C@_0P@GHFPNOJB@bad?5allocation@ 0000000180024600     LIBCMT:throw_bad_alloc.obj
 0002:00002618       ??_7bad_array_new_length@std@@6B@ 0000000180024618     LIBCMT:throw_bad_alloc.obj
 0002:00002628       ??_C@_0BF@KINCDENJ@bad?5array?5new?5length@ 0000000180024628     LIBCMT:throw_bad_alloc.obj
 0002:00002648       ??_7type_info@@6B@         0000000180024648     LIBCMT:std_type_info_static.obj
 0002:00002650       GUID_ATLVer110             0000000180024650     atls:atlbase.obj
 0002:00002660       ??_C@_1IC@ONKHOIDK@?$AAE?$AAR?$AAR?$AAO?$AAR?$AA?5?$AA?3?$AA?5?$AAU?$AAn?$AAa?$AAb?$AAl?$AAe?$AA?5@ 0000000180024660     atls:atlbase.obj
 0002:000026e8       ??_C@_0N@FJEPLCIH@atlthunk?4dll@ 00000001800246e8     atls:atlthunk.obj
 0002:000026f8       ??_C@_0BG@GAKFHCBM@AtlThunk_AllocateData@ 00000001800246f8     atls:atlthunk.obj
 0002:00002710       ??_C@_0BC@JKONFIAH@AtlThunk_InitData@ 0000000180024710     atls:atlthunk.obj
 0002:00002728       ??_C@_0BE@IAOEELAK@AtlThunk_DataToCode@ 0000000180024728     atls:atlthunk.obj
 0002:00002740       ??_C@_0BC@GBGKAIPI@AtlThunk_FreeData@ 0000000180024740     atls:atlthunk.obj
 0002:000027f8       _pDestructExceptionObject  00000001800247f8     libvcruntime:ehhelpers.obj
 0002:00002808       ??_7bad_exception@std@@6B@ 0000000180024808     libvcruntime:frame.obj
 0002:00002818       ??_C@_0O@DPKOEFFH@bad?5exception@ 0000000180024818     libvcruntime:frame.obj
 0002:00002f30       ??_C@_08EHJDFFNH@__based?$CI@ 0000000180024f30     libvcruntime:undname.obj
 0002:00002f40       ??_C@_07KOLFKCDI@__cdecl@  0000000180024f40     libvcruntime:undname.obj
 0002:00002f48       ??_C@_08GHMPAG@__pascal@   0000000180024f48     libvcruntime:undname.obj
 0002:00002f58       ??_C@_09IFJBGAPI@__stdcall@ 0000000180024f58     libvcruntime:undname.obj
 0002:00002f68       ??_C@_0L@NPHFGOKO@__thiscall@ 0000000180024f68     libvcruntime:undname.obj
 0002:00002f78       ??_C@_0L@JMKHOMEK@__fastcall@ 0000000180024f78     libvcruntime:undname.obj
 0002:00002f88       ??_C@_0N@BCKKPABJ@__vectorcall@ 0000000180024f88     libvcruntime:undname.obj
 0002:00002f98       ??_C@_09HIJEGCPM@__clrcall@ 0000000180024f98     libvcruntime:undname.obj
 0002:00002fa4       ??_C@_06GHPCKEAG@__eabi@   0000000180024fa4     libvcruntime:undname.obj
 0002:00002fb0       ??_C@_09IOPIDJLG@__swift_1@ 0000000180024fb0     libvcruntime:undname.obj
 0002:00002fc0       ??_C@_09KFNFGKHF@__swift_2@ 0000000180024fc0     libvcruntime:undname.obj
 0002:00002fd0       ??_C@_07JOMMBBKO@__ptr64@  0000000180024fd0     libvcruntime:undname.obj
 0002:00002fd8       ??_C@_0L@PILCLIHE@__restrict@ 0000000180024fd8     libvcruntime:undname.obj
 0002:00002fe8       ??_C@_0M@GFIIJFMG@__unaligned@ 0000000180024fe8     libvcruntime:undname.obj
 0002:00002ff8       ??_C@_09DHDLOLLB@restrict?$CI@ 0000000180024ff8     libvcruntime:undname.obj
 0002:00003002       ??_C@_00CNPNBAHC@@         0000000180025002     libvcruntime:undname.obj
 0002:00003004       ??_C@_04NIHEBCM@?5new@     0000000180025004     libvcruntime:undname.obj
 0002:00003010       ??_C@_07FPCDHGMM@?5delete@ 0000000180025010     libvcruntime:undname.obj
 0002:00003018       ??_C@_01NEMOKFLO@?$DN@     0000000180025018     libvcruntime:undname.obj
 0002:0000301c       ??_C@_02GPIOPFAK@?$DO?$DO@ 000000018002501c     libvcruntime:undname.obj
 0002:00003020       ??_C@_02FODMEDOG@?$DM?$DM@ 0000000180025020     libvcruntime:undname.obj
 0002:00003024       ??_C@_01DCLJPIOD@?$CB@     0000000180025024     libvcruntime:undname.obj
 0002:00003028       ??_C@_02EGOFBIJA@?$DN?$DN@ 0000000180025028     libvcruntime:undname.obj
 0002:0000302c       ??_C@_02FDNJECIE@?$CB?$DN@ 000000018002502c     libvcruntime:undname.obj
 0002:00003030       ??_C@_02GPECMEKF@?$FL?$FN@ 0000000180025030     libvcruntime:undname.obj
 0002:00003038       ??_C@_08LHJFAFGD@operator@ 0000000180025038     libvcruntime:undname.obj
 0002:00003044       ??_C@_02HBOOOICD@?9?$DO@   0000000180025044     libvcruntime:undname.obj
 0002:00003048       ??_C@_01NBENCBCI@?$CK@     0000000180025048     libvcruntime:undname.obj
 0002:0000304c       ??_C@_02ECNGHCIF@?$CL?$CL@ 000000018002504c     libvcruntime:undname.obj
 0002:00003050       ??_C@_02BAABKJLB@?9?9@     0000000180025050     libvcruntime:undname.obj
 0002:00003054       ??_C@_01JOAMLHOP@?9@       0000000180025054     libvcruntime:undname.obj
 0002:00003058       ??_C@_01MIFGBAGJ@?$CL@     0000000180025058     libvcruntime:undname.obj
 0002:0000305c       ??_C@_01HNPIGOCE@?$CG@     000000018002505c     libvcruntime:undname.obj
 0002:00003060       ??_C@_03MNHNFDLC@?9?$DO?$CK@ 0000000180025060     libvcruntime:undname.obj
 0002:00003064       ??_C@_01KMDKNFGN@?1@       0000000180025064     libvcruntime:undname.obj
 0002:00003068       ??_C@_01FGNFDNOH@?$CF@     0000000180025068     libvcruntime:undname.obj
 0002:0000306c       ??_C@_01MNNFJEPP@?$DM@     000000018002506c     libvcruntime:undname.obj
 0002:00003070       ??_C@_02EHCHHCKH@?$DM?$DN@ 0000000180025070     libvcruntime:undname.obj
 0002:00003074       ??_C@_01PPODPGHN@?$DO@     0000000180025074     libvcruntime:undname.obj
 0002:00003078       ??_C@_02EEKDKGMJ@?$DO?$DN@ 0000000180025078     libvcruntime:undname.obj
 0002:0000307c       ??_C@_01IHBHIGKO@?0@       000000018002507c     libvcruntime:undname.obj
 0002:00003080       ??_C@_02HCKGKOFO@?$CI?$CJ@ 0000000180025080     libvcruntime:undname.obj
 0002:00003084       ??_C@_01PJKLJHI@?$HO@      0000000180025084     libvcruntime:undname.obj
 0002:00003088       ??_C@_01JKBOJNNK@?$FO@     0000000180025088     libvcruntime:undname.obj
 0002:0000308c       ??_C@_01DNKMNLPK@?$HM@     000000018002508c     libvcruntime:undname.obj
 0002:00003090       ??_C@_02PPKAJPJL@?$CG?$CG@ 0000000180025090     libvcruntime:undname.obj
 0002:00003094       ??_C@_02NONPIBCD@?$HM?$HM@ 0000000180025094     libvcruntime:undname.obj
 0002:00003098       ??_C@_02FPIMKNGF@?$CK?$DN@ 0000000180025098     libvcruntime:undname.obj
 0002:0000309c       ??_C@_02FOEOMHFC@?$CL?$DN@ 000000018002509c     libvcruntime:undname.obj
 0002:000030a0       ??_C@_02FKMDLLOA@?9?$DN@   00000001800250a0     libvcruntime:undname.obj
 0002:000030a4       ??_C@_02FJEHGPIO@?1?$DN@   00000001800250a4     libvcruntime:undname.obj
 0002:000030a8       ??_C@_02FENAOKFI@?$CF?$DN@ 00000001800250a8     libvcruntime:undname.obj
 0002:000030ac       ??_C@_03IKFCCPFF@?$DO?$DO?$DN@ 00000001800250ac     libvcruntime:undname.obj
 0002:000030b0       ??_C@_03CDNPDDLA@?$DM?$DM?$DN@ 00000001800250b0     libvcruntime:undname.obj
 0002:000030b4       ??_C@_02FGJGFEAB@?$CG?$DN@ 00000001800250b4     libvcruntime:undname.obj
 0002:000030b8       ??_C@_02DHLNPPGH@?$HM?$DN@ 00000001800250b8     libvcruntime:undname.obj
 0002:000030bc       ??_C@_02MHEGNOJ@?$FO?$DN@  00000001800250bc     libvcruntime:undname.obj
 0002:000030c0       ??_C@_09IFPLHPGF@?$GAvftable?8@ 00000001800250c0     libvcruntime:undname.obj
 0002:000030d0       ??_C@_09BLBHBJP@?$GAvbtable?8@ 00000001800250d0     libvcruntime:undname.obj
 0002:000030e0       ??_C@_07FEEIOKP@?$GAvcall?8@ 00000001800250e0     libvcruntime:undname.obj
 0002:000030e8       ??_C@_08LLFFHHDJ@?$GAtypeof?8@ 00000001800250e8     libvcruntime:undname.obj
 0002:000030f8       ??_C@_0BF@KDPPACIK@?$GAlocal?5static?5guard?8@ 00000001800250f8     libvcruntime:undname.obj
 0002:00003110       ??_C@_08OBABFOLI@?$GAstring?8@ 0000000180025110     libvcruntime:undname.obj
 0002:00003120       ??_C@_0BD@JDLKDPAB@?$GAvbase?5destructor?8@ 0000000180025120     libvcruntime:undname.obj
 0002:00003138       ??_C@_0BN@DEGPLNFK@?$GAvector?5deleting?5destructor?8@ 0000000180025138     libvcruntime:undname.obj
 0002:00003158       ??_C@_0BO@OBMKPJIG@?$GAdefault?5constructor?5closure?8@ 0000000180025158     libvcruntime:undname.obj
 0002:00003178       ??_C@_0BN@IMDCHIKM@?$GAscalar?5deleting?5destructor?8@ 0000000180025178     libvcruntime:undname.obj
 0002:00003198       ??_C@_0BO@PFGOCPJJ@?$GAvector?5constructor?5iterator?8@ 0000000180025198     libvcruntime:undname.obj
 0002:000031b8       ??_C@_0BN@LFPFMEDL@?$GAvector?5destructor?5iterator?8@ 00000001800251b8     libvcruntime:undname.obj
 0002:000031d8       ??_C@_0CE@IKBNEHA@?$GAvector?5vbase?5constructor?5itera@ 00000001800251d8     libvcruntime:undname.obj
 0002:00003200       ??_C@_0BL@NILFHHPC@?$GAvirtual?5displacement?5map?8@ 0000000180025200     libvcruntime:undname.obj
 0002:00003220       ??_C@_0CB@JONCMFFK@?$GAeh?5vector?5constructor?5iterator@ 0000000180025220     libvcruntime:undname.obj
 0002:00003248       ??_C@_0CA@GCEOPDGL@?$GAeh?5vector?5destructor?5iterator?8@ 0000000180025248     libvcruntime:undname.obj
 0002:00003268       ??_C@_0CH@OOJPLCPH@?$GAeh?5vector?5vbase?5constructor?5it@ 0000000180025268     libvcruntime:undname.obj
 0002:00003290       ??_C@_0BL@LLKPOHJI@?$GAcopy?5constructor?5closure?8@ 0000000180025290     libvcruntime:undname.obj
 0002:000032b0       ??_C@_0BA@KBCDOMBN@?$GAudt?5returning?8@ 00000001800252b0     libvcruntime:undname.obj
 0002:000032c0       ??_C@_03KLGMFNMG@?$GAEH@   00000001800252c0     libvcruntime:undname.obj
 0002:000032c4       ??_C@_05KHLCHHI@?$GARTTI@  00000001800252c4     libvcruntime:undname.obj
 0002:000032d0       ??_C@_0BA@KKLDJDLB@?$GAlocal?5vftable?8@ 00000001800252d0     libvcruntime:undname.obj
 0002:000032e0       ??_C@_0CE@IIHCMGGL@?$GAlocal?5vftable?5constructor?5clos@ 00000001800252e0     libvcruntime:undname.obj
 0002:00003304       ??_C@_06FHBGPFGH@?5new?$FL?$FN@ 0000000180025304     libvcruntime:undname.obj
 0002:00003310       ??_C@_09LBNFPBCA@?5delete?$FL?$FN@ 0000000180025310     libvcruntime:undname.obj
 0002:00003320       ??_C@_0P@HJKNJFNN@?$GAomni?5callsig?8@ 0000000180025320     libvcruntime:undname.obj
 0002:00003330       ??_C@_0BL@CNOONJFP@?$GAplacement?5delete?5closure?8@ 0000000180025330     libvcruntime:undname.obj
 0002:00003350       ??_C@_0BN@CKNJLHMB@?$GAplacement?5delete?$FL?$FN?5closure?8@ 0000000180025350     libvcruntime:undname.obj
 0002:00003370       ??_C@_0CG@CFDHKGGD@?$GAmanaged?5vector?5constructor?5ite@ 0000000180025370     libvcruntime:undname.obj
 0002:00003398       ??_C@_0CF@IMGKMJNO@?$GAmanaged?5vector?5destructor?5iter@ 0000000180025398     libvcruntime:undname.obj
 0002:000033c0       ??_C@_0CG@HLDDJMAG@?$GAeh?5vector?5copy?5constructor?5ite@ 00000001800253c0     libvcruntime:undname.obj
 0002:000033e8       ??_C@_0CM@FCBBDIGB@?$GAeh?5vector?5vbase?5copy?5construct@ 00000001800253e8     libvcruntime:undname.obj
 0002:00003418       ??_C@_0BL@CLIPGLGB@?$GAdynamic?5initializer?5for?5?8@ 0000000180025418     libvcruntime:undname.obj
 0002:00003438       ??_C@_0CB@PDBIFEP@?$GAdynamic?5atexit?5destructor?5for?5@ 0000000180025438     libvcruntime:undname.obj
 0002:00003460       ??_C@_0CD@CGAJBKEJ@?$GAvector?5copy?5constructor?5iterat@ 0000000180025460     libvcruntime:undname.obj
 0002:00003488       ??_C@_0CJ@GJELGAMM@?$GAvector?5vbase?5copy?5constructor?5@ 0000000180025488     libvcruntime:undname.obj
 0002:000034b8       ??_C@_0CL@FGIJHLCE@?$GAmanaged?5vector?5copy?5constructo@ 00000001800254b8     libvcruntime:undname.obj
 0002:000034e8       ??_C@_0BM@PMGGMLDN@?$GAlocal?5static?5thread?5guard?8@ 00000001800254e8     libvcruntime:undname.obj
 0002:00003508       ??_C@_0N@BDNMDMOL@operator?5?$CC?$CC?5@ 0000000180025508     libvcruntime:undname.obj
 0002:00003518       ??_C@_0BC@GGEBGALA@operator?5co_await@ 0000000180025518     libvcruntime:undname.obj
 0002:00003530       ??_C@_0M@GAAIMMOH@operator?$DM?$DN?$DO@ 0000000180025530     libvcruntime:undname.obj
 0002:00003540       ??_C@_0BC@DAFEJGAK@?5Type?5Descriptor?8@ 0000000180025540     libvcruntime:undname.obj
 0002:00003558       ??_C@_0BM@LDKODKLH@?5Base?5Class?5Descriptor?5at?5?$CI@ 0000000180025558     libvcruntime:undname.obj
 0002:00003578       ??_C@_0BD@LGICGFMM@?5Base?5Class?5Array?8@ 0000000180025578     libvcruntime:undname.obj
 0002:00003590       ??_C@_0BN@MECKDCOJ@?5Class?5Hierarchy?5Descriptor?8@ 0000000180025590     libvcruntime:undname.obj
 0002:000035b0       ??_C@_0BK@CFCOFLF@?5Complete?5Object?5Locator?8@ 00000001800255b0     libvcruntime:undname.obj
 0002:000035d0       ??_C@_0BG@JNJLAMPM@?$GAanonymous?5namespace?8@ 00000001800255d0     libvcruntime:undname.obj
 0002:00003600       ??_C@_1DM@KHCHBNEB@?$AAa?$AAp?$AAi?$AA?9?$AAm?$AAs?$AA?9?$AAw?$AAi?$AAn?$AA?9?$AAc?$AAo?$AAr?$AAe@ 0000000180025600     libvcruntime:winapi_downlevel.obj
 0002:00003640       ??_C@_1DK@LPPGFMPP@?$AAa?$AAp?$AAi?$AA?9?$AAm?$AAs?$AA?9?$AAw?$AAi?$AAn?$AA?9?$AAc?$AAo?$AAr?$AAe@ 0000000180025640     libvcruntime:winapi_downlevel.obj
 0002:00003680       ??_C@_1BC@GDMECMAK@?$AAk?$AAe?$AAr?$AAn?$AAe?$AAl?$AA3?$AA2@ 0000000180025680     libvcruntime:winapi_downlevel.obj
 0002:00003698       ??_C@_1BA@PFFKHIOG@?$AAa?$AAp?$AAi?$AA?9?$AAm?$AAs?$AA?9@ 0000000180025698     libvcruntime:winapi_downlevel.obj
 0002:000036b0       ??_C@_08KNHFBNJ@FlsAlloc@  00000001800256b0     libvcruntime:winapi_downlevel.obj
 0002:000036c8       ??_C@_07PEJMOBNF@FlsFree@  00000001800256c8     libvcruntime:winapi_downlevel.obj
 0002:000036d8       ??_C@_0M@GDNOONDI@FlsGetValue@ 00000001800256d8     libvcruntime:winapi_downlevel.obj
 0002:000036f0       ??_C@_0M@JCPCPOEF@FlsSetValue@ 00000001800256f0     libvcruntime:winapi_downlevel.obj
 0002:00003708       ??_C@_0BM@HCFOFFN@InitializeCriticalSectionEx@ 0000000180025708     libvcruntime:winapi_downlevel.obj
 0002:000038a0       format_validation_lookup_table 00000001800258a0     libucrt:output.obj
 0002:00003900       ??_C@_1O@CEDCILHN@?$AA?$CI?$AAn?$AAu?$AAl?$AAl?$AA?$CJ@ 0000000180025900     libucrt:output.obj
 0002:00003910       ??_C@_06OJHGLDPL@?$CInull?$CJ@ 0000000180025910     libucrt:output.obj
 0002:00003920       __acrt_exception_action_table 0000000180025920     libucrt:exception_filter.obj
 0002:000039e0       __acrt_signal_action_table_count 00000001800259e0     libucrt:exception_filter.obj
 0002:000039e8       __acrt_signal_action_first_fpe_index 00000001800259e8     libucrt:exception_filter.obj
 0002:000039f0       __acrt_signal_action_fpe_count 00000001800259f0     libucrt:exception_filter.obj
 0002:000039f8       ??_C@_1BI@BGOHAHKC@?$AAm?$AAs?$AAc?$AAo?$AAr?$AAe?$AAe?$AA?4?$AAd?$AAl?$AAl@ 00000001800259f8     libucrt:exit.obj
 0002:00003a10       ??_C@_0P@MIGLKIOC@CorExitProcess@ 0000000180025a10     libucrt:exit.obj
 0002:00003bc0       ??_C@_1EA@JGEFHKEI@?$AAa?$AAp?$AAi?$AA?9?$AAm?$AAs?$AA?9?$AAw?$AAi?$AAn?$AA?9?$AAc?$AAo?$AAr?$AAe@ 0000000180025bc0     libucrt:winapi_thunks.obj
 0002:00003c00       ??_C@_1DI@IJCEHOCB@?$AAa?$AAp?$AAi?$AA?9?$AAm?$AAs?$AA?9?$AAw?$AAi?$AAn?$AA?9?$AAc?$AAo?$AAr?$AAe@ 0000000180025c00     libucrt:winapi_thunks.obj
 0002:00003c40       ??_C@_1EI@MPIAOHOC@?$AAa?$AAp?$AAi?$AA?9?$AAm?$AAs?$AA?9?$AAw?$AAi?$AAn?$AA?9?$AAc?$AAo?$AAr?$AAe@ 0000000180025c40     libucrt:winapi_thunks.obj
 0002:00003c90       ??_C@_1FK@FPHCKFIE@?$AAa?$AAp?$AAi?$AA?9?$AAm?$AAs?$AA?9?$AAw?$AAi?$AAn?$AA?9?$AAc?$AAo?$AAr?$AAe@ 0000000180025c90     libucrt:winapi_thunks.obj
 0002:00003cf0       ??_C@_1EM@DILCGIIO@?$AAa?$AAp?$AAi?$AA?9?$AAm?$AAs?$AA?9?$AAw?$AAi?$AAn?$AA?9?$AAc?$AAo?$AAr?$AAe@ 0000000180025cf0     libucrt:winapi_thunks.obj
 0002:00003d40       ??_C@_1DM@LNCGDDPN@?$AAa?$AAp?$AAi?$AA?9?$AAm?$AAs?$AA?9?$AAw?$AAi?$AAn?$AA?9?$AAc?$AAo?$AAr?$AAe@ 0000000180025d40     libucrt:winapi_thunks.obj
 0002:00003d80       ??_C@_1DO@FPAPJEMD@?$AAa?$AAp?$AAi?$AA?9?$AAm?$AAs?$AA?9?$AAw?$AAi?$AAn?$AA?9?$AAc?$AAo?$AAr?$AAe@ 0000000180025d80     libucrt:winapi_thunks.obj
 0002:00003dc0       ??_C@_1DK@NDHNAHIO@?$AAa?$AAp?$AAi?$AA?9?$AAm?$AAs?$AA?9?$AAw?$AAi?$AAn?$AA?9?$AAc?$AAo?$AAr?$AAe@ 0000000180025dc0     libucrt:winapi_thunks.obj
 0002:00003e00       ??_C@_1DM@KGHDGBCM@?$AAa?$AAp?$AAi?$AA?9?$AAm?$AAs?$AA?9?$AAw?$AAi?$AAn?$AA?9?$AAc?$AAo?$AAr?$AAe@ 0000000180025e00     libucrt:winapi_thunks.obj
 0002:00003e40       ??_C@_1EO@IJIOEFOH@?$AAa?$AAp?$AAi?$AA?9?$AAm?$AAs?$AA?9?$AAw?$AAi?$AAn?$AA?9?$AAr?$AAt?$AAc?$AAo@ 0000000180025e40     libucrt:winapi_thunks.obj
 0002:00003e90       ??_C@_1FG@HHGEKANL@?$AAa?$AAp?$AAi?$AA?9?$AAm?$AAs?$AA?9?$AAw?$AAi?$AAn?$AA?9?$AAs?$AAe?$AAc?$AAu@ 0000000180025e90     libucrt:winapi_thunks.obj
 0002:00003ef0       ??_C@_1EG@DBIOJECG@?$AAe?$AAx?$AAt?$AA?9?$AAm?$AAs?$AA?9?$AAw?$AAi?$AAn?$AA?9?$AAn?$AAt?$AAu?$AAs@ 0000000180025ef0     libucrt:winapi_thunks.obj
 0002:00003f40       ??_C@_1EO@FIHMJCLF@?$AAe?$AAx?$AAt?$AA?9?$AAm?$AAs?$AA?9?$AAw?$AAi?$AAn?$AA?9?$AAn?$AAt?$AAu?$AAs@ 0000000180025f40     libucrt:winapi_thunks.obj
 0002:00003f90       ??_C@_1BC@DNHGCMLG@?$AAa?$AAd?$AAv?$AAa?$AAp?$AAi?$AA3?$AA2@ 0000000180025f90     libucrt:winapi_thunks.obj
 0002:00003fa8       ??_C@_1M@OAIMIKLP@?$AAn?$AAt?$AAd?$AAl?$AAl@ 0000000180025fa8     libucrt:winapi_thunks.obj
 0002:00003fc0       ??_C@_1EG@DPGNFKGC@?$AAa?$AAp?$AAi?$AA?9?$AAm?$AAs?$AA?9?$AAw?$AAi?$AAn?$AA?9?$AAa?$AAp?$AAp?$AAm@ 0000000180025fc0     libucrt:winapi_thunks.obj
 0002:00004008       ??_C@_1O@BCCLBEOE@?$AAu?$AAs?$AAe?$AAr?$AA3?$AA2@ 0000000180026008     libucrt:winapi_thunks.obj
 0002:00004018       ??_C@_1BA@IAIFMGEF@?$AAe?$AAx?$AAt?$AA?9?$AAm?$AAs?$AA?9@ 0000000180026018     libucrt:winapi_thunks.obj
 0002:00004030       ??_C@_0BA@FHFNEAED@AreFileApisANSI@ 0000000180026030     libucrt:winapi_thunks.obj
 0002:00004070       ??_C@_0O@KKBNKAPF@LCMapStringEx@ 0000000180026070     libucrt:winapi_thunks.obj
 0002:00004088       ??_C@_0BB@HBDEELFH@LocaleNameToLCID@ 0000000180026088     libucrt:winapi_thunks.obj
 0002:000040a0       ??_C@_0CF@OJOFEIGO@AppPolicyGetProcessTerminationM@ 00000001800260a0     libucrt:winapi_thunks.obj
 0002:000040d0       ??_C@_0BI@BKLFFAPO@SetThreadStackGuarantee@ 00000001800260d0     libucrt:winapi_thunks.obj
 0002:00004170       ??_C@_03OEIAHPBN@INF@      0000000180026170     libucrt:cvt.obj
 0002:00004174       ??_C@_03OJHLLCGB@inf@      0000000180026174     libucrt:cvt.obj
 0002:00004178       ??_C@_03LKNCIKJB@NAN@      0000000180026178     libucrt:cvt.obj
 0002:0000417c       ??_C@_03LHCJEHON@nan@      000000018002617c     libucrt:cvt.obj
 0002:00004180       ??_C@_09OFJJIMPC@NAN?$CISNAN?$CJ@ 0000000180026180     libucrt:cvt.obj
 0002:00004190       ??_C@_09IPFBKMDL@nan?$CIsnan?$CJ@ 0000000180026190     libucrt:cvt.obj
 0002:000041a0       ??_C@_08IKHNHAJ@NAN?$CIIND?$CJ@ 00000001800261a0     libucrt:cvt.obj
 0002:000041b0       ??_C@_08OFCDMILK@nan?$CIind?$CJ@ 00000001800261b0     libucrt:cvt.obj
 0002:000041bc       ??_C@_05KLBDPFGC@e?$CL000@ 00000001800261bc     libucrt:cvt.obj
 0002:000041d0       __lc_time_c                00000001800261d0     libucrt:nlsdata.obj
 0002:00004490       ??_C@_03KOEHGMDN@Sun@      0000000180026490     libucrt:nlsdata.obj
 0002:00004494       ??_C@_03PDAGKDH@Mon@       0000000180026494     libucrt:nlsdata.obj
 0002:00004498       ??_C@_03NAGEINEP@Tue@      0000000180026498     libucrt:nlsdata.obj
 0002:0000449c       ??_C@_03MHOMLAJA@Wed@      000000018002649c     libucrt:nlsdata.obj
 0002:000044a0       ??_C@_03IOFIKPDN@Thu@      00000001800264a0     libucrt:nlsdata.obj
 0002:000044a4       ??_C@_03IDIOELNC@Fri@      00000001800264a4     libucrt:nlsdata.obj
 0002:000044a8       ??_C@_03FEFJNEK@Sat@       00000001800264a8     libucrt:nlsdata.obj
 0002:000044ac       ??_C@_06OOPIFAJ@Sunday@    00000001800264ac     libucrt:nlsdata.obj
 0002:000044b4       ??_C@_06JLEDEDGH@Monday@   00000001800264b4     libucrt:nlsdata.obj
 0002:000044c0       ??_C@_07BAAGCFCM@Tuesday@  00000001800264c0     libucrt:nlsdata.obj
 0002:000044c8       ??_C@_09DLIGFAKA@Wednesday@ 00000001800264c8     libucrt:nlsdata.obj
 0002:000044d8       ??_C@_08HACCIKIA@Thursday@ 00000001800264d8     libucrt:nlsdata.obj
 0002:000044e4       ??_C@_06JECMNKMI@Friday@   00000001800264e4     libucrt:nlsdata.obj
 0002:000044f0       ??_C@_08INBOOONO@Saturday@ 00000001800264f0     libucrt:nlsdata.obj
 0002:000044fc       ??_C@_03JIHJHPIE@Jan@      00000001800264fc     libucrt:nlsdata.obj
 0002:00004500       ??_C@_03HJBDCHOM@Feb@      0000000180026500     libucrt:nlsdata.obj
 0002:00004504       ??_C@_03ODNJBKGA@Mar@      0000000180026504     libucrt:nlsdata.obj
 0002:00004508       ??_C@_03LEOLGMJP@Apr@      0000000180026508     libucrt:nlsdata.obj
 0002:0000450c       ??_C@_03CNMDKL@May@        000000018002650c     libucrt:nlsdata.obj
 0002:00004510       ??_C@_03IDFGHECI@Jun@      0000000180026510     libucrt:nlsdata.obj
 0002:00004514       ??_C@_03LBGABGKK@Jul@      0000000180026514     libucrt:nlsdata.obj
 0002:00004518       ??_C@_03IFJFEIGA@Aug@      0000000180026518     libucrt:nlsdata.obj
 0002:0000451c       ??_C@_03GGCAPAJC@Sep@      000000018002651c     libucrt:nlsdata.obj
 0002:00004520       ??_C@_03BMAOKBAD@Oct@      0000000180026520     libucrt:nlsdata.obj
 0002:00004524       ??_C@_03JPJOFNIA@Nov@      0000000180026524     libucrt:nlsdata.obj
 0002:00004528       ??_C@_03MKABNOCG@Dec@      0000000180026528     libucrt:nlsdata.obj
 0002:00004530       ??_C@_07CGJPFGJA@January@  0000000180026530     libucrt:nlsdata.obj
 0002:00004538       ??_C@_08GNJGEPFN@February@ 0000000180026538     libucrt:nlsdata.obj
 0002:00004544       ??_C@_05HPCKOFNC@March@    0000000180026544     libucrt:nlsdata.obj
 0002:0000454c       ??_C@_05DMJDNLEJ@April@    000000018002654c     libucrt:nlsdata.obj
 0002:00004554       ??_C@_04CNLMGBGM@June@     0000000180026554     libucrt:nlsdata.obj
 0002:0000455c       ??_C@_04MIEPOIFP@July@     000000018002655c     libucrt:nlsdata.obj
 0002:00004564       ??_C@_06LBBHFDDG@August@   0000000180026564     libucrt:nlsdata.obj
 0002:00004570       ??_C@_09BHHEALKD@September@ 0000000180026570     libucrt:nlsdata.obj
 0002:00004580       ??_C@_07JJNFCEND@October@  0000000180026580     libucrt:nlsdata.obj
 0002:00004588       ??_C@_08HCHEGEOA@November@ 0000000180026588     libucrt:nlsdata.obj
 0002:00004598       ??_C@_08EDHMEBNP@December@ 0000000180026598     libucrt:nlsdata.obj
 0002:000045a4       ??_C@_02DEDBPAFC@AM@       00000001800265a4     libucrt:nlsdata.obj
 0002:000045a8       ??_C@_02CJNFDJBF@PM@       00000001800265a8     libucrt:nlsdata.obj
 0002:000045b0       ??_C@_08BPBNCDIB@MM?1dd?1yy@ 00000001800265b0     libucrt:nlsdata.obj
 0002:000045c0       ??_C@_0BE@CKGJFCPC@dddd?0?5MMMM?5dd?0?5yyyy@ 00000001800265c0     libucrt:nlsdata.obj
 0002:000045d8       ??_C@_08JCCMCCIL@HH?3mm?3ss@ 00000001800265d8     libucrt:nlsdata.obj
 0002:000045e8       ??_C@_17MBGCMIPB@?$AAS?$AAu?$AAn@ 00000001800265e8     libucrt:nlsdata.obj
 0002:000045f0       ??_C@_17KBOMKBF@?$AAM?$AAo?$AAn@ 00000001800265f0     libucrt:nlsdata.obj
 0002:000045f8       ??_C@_17BMKGEGOJ@?$AAT?$AAu?$AAe@ 00000001800265f8     libucrt:nlsdata.obj
 0002:00004600       ??_C@_17CJEDCEPE@?$AAW?$AAe?$AAd@ 0000000180026600     libucrt:nlsdata.obj
 0002:00004608       ??_C@_17PDPHAADD@?$AAT?$AAh?$AAu@ 0000000180026608     libucrt:nlsdata.obj
 0002:00004610       ??_C@_17HFOLPPLP@?$AAF?$AAr?$AAi@ 0000000180026610     libucrt:nlsdata.obj
 0002:00004618       ??_C@_17GGIBDPIH@?$AAS?$AAa?$AAt@ 0000000180026618     libucrt:nlsdata.obj
 0002:00004620       ??_C@_1O@IHNHDHPB@?$AAS?$AAu?$AAn?$AAd?$AAa?$AAy@ 0000000180026620     libucrt:nlsdata.obj
 0002:00004630       ??_C@_1O@MMNBFLIA@?$AAM?$AAo?$AAn?$AAd?$AAa?$AAy@ 0000000180026630     libucrt:nlsdata.obj
 0002:00004640       ??_C@_1BA@ENFBFFEK@?$AAT?$AAu?$AAe?$AAs?$AAd?$AAa?$AAy@ 0000000180026640     libucrt:nlsdata.obj
 0002:00004650       ??_C@_1BE@EBOGMDOH@?$AAW?$AAe?$AAd?$AAn?$AAe?$AAs?$AAd?$AAa?$AAy@ 0000000180026650     libucrt:nlsdata.obj
 0002:00004668       ??_C@_1BC@HHMNLIHE@?$AAT?$AAh?$AAu?$AAr?$AAs?$AAd?$AAa?$AAy@ 0000000180026668     libucrt:nlsdata.obj
 0002:00004680       ??_C@_1O@PDICJHAG@?$AAF?$AAr?$AAi?$AAd?$AAa?$AAy@ 0000000180026680     libucrt:nlsdata.obj
 0002:00004690       ??_C@_1BC@ENMNNPAJ@?$AAS?$AAa?$AAt?$AAu?$AAr?$AAd?$AAa?$AAy@ 0000000180026690     libucrt:nlsdata.obj
 0002:000046a8       ??_C@_17DKNBKCHM@?$AAJ?$AAa?$AAn@ 00000001800266a8     libucrt:nlsdata.obj
 0002:000046b0       ??_C@_17LMDJEKJN@?$AAF?$AAe?$AAb@ 00000001800266b0     libucrt:nlsdata.obj
 0002:000046b8       ??_C@_17CKNLEDEC@?$AAM?$AAa?$AAr@ 00000001800266b8     libucrt:nlsdata.obj
 0002:000046c0       ??_C@_17LFPOIHDD@?$AAA?$AAp?$AAr@ 00000001800266c0     libucrt:nlsdata.obj
 0002:000046c8       ??_C@_17PNNKMEED@?$AAM?$AAa?$AAy@ 00000001800266c8     libucrt:nlsdata.obj
 0002:000046d0       ??_C@_17KCJGOCPB@?$AAJ?$AAu?$AAn@ 00000001800266d0     libucrt:nlsdata.obj
 0002:000046d8       ??_C@_17IJPCKHK@?$AAJ?$AAu?$AAl@ 00000001800266d8     libucrt:nlsdata.obj
 0002:000046e0       ??_C@_17ICPELBCN@?$AAA?$AAu?$AAg@ 00000001800266e0     libucrt:nlsdata.obj
 0002:000046e8       ??_C@_17HCHCOKMG@?$AAS?$AAe?$AAp@ 00000001800266e8     libucrt:nlsdata.obj
 0002:000046f0       ??_C@_17FNLKOI@?$AAO?$AAc?$AAt@ 00000001800266f0     libucrt:nlsdata.obj
 0002:000046f8       ??_C@_17BBDMLCIG@?$AAN?$AAo?$AAv@ 00000001800266f8     libucrt:nlsdata.obj
 0002:00004700       ??_C@_17EGKACKIF@?$AAD?$AAe?$AAc@ 0000000180026700     libucrt:nlsdata.obj
 0002:00004708       ??_C@_1BA@EFMEIEBA@?$AAJ?$AAa?$AAn?$AAu?$AAa?$AAr?$AAy@ 0000000180026708     libucrt:nlsdata.obj
 0002:00004718       ??_C@_1BC@JGDDFFAM@?$AAF?$AAe?$AAb?$AAr?$AAu?$AAa?$AAr?$AAy@ 0000000180026718     libucrt:nlsdata.obj
 0002:00004730       ??_C@_1M@IKEENEDF@?$AAM?$AAa?$AAr?$AAc?$AAh@ 0000000180026730     libucrt:nlsdata.obj
 0002:00004740       ??_C@_1M@GJNLMHFD@?$AAA?$AAp?$AAr?$AAi?$AAl@ 0000000180026740     libucrt:nlsdata.obj
 0002:00004750       ??_C@_19EPFLPGAP@?$AAJ?$AAu?$AAn?$AAe@ 0000000180026750     libucrt:nlsdata.obj
 0002:00004760       ??_C@_19BIFMLPCD@?$AAJ?$AAu?$AAl?$AAy@ 0000000180026760     libucrt:nlsdata.obj
 0002:00004770       ??_C@_1O@PAHLKOAC@?$AAA?$AAu?$AAg?$AAu?$AAs?$AAt@ 0000000180026770     libucrt:nlsdata.obj
 0002:00004780       ??_C@_1BE@DKAAMBJL@?$AAS?$AAe?$AAp?$AAt?$AAe?$AAm?$AAb?$AAe?$AAr@ 0000000180026780     libucrt:nlsdata.obj
 0002:00004798       ??_C@_1BA@EPANDLNG@?$AAO?$AAc?$AAt?$AAo?$AAb?$AAe?$AAr@ 0000000180026798     libucrt:nlsdata.obj
 0002:000047a8       ??_C@_1BC@BGLIFPF@?$AAN?$AAo?$AAv?$AAe?$AAm?$AAb?$AAe?$AAr@ 00000001800267a8     libucrt:nlsdata.obj
 0002:000047c0       ??_C@_1BC@FEMKIFH@?$AAD?$AAe?$AAc?$AAe?$AAm?$AAb?$AAe?$AAr@ 00000001800267c0     libucrt:nlsdata.obj
 0002:000047d4       ??_C@_15ODEHAHHF@?$AAA?$AAM@ 00000001800267d4     libucrt:nlsdata.obj
 0002:000047dc       ??_C@_15CLMNNGEL@?$AAP?$AAM@ 00000001800267dc     libucrt:nlsdata.obj
 0002:000047e8       ??_C@_1BC@IEBCMHCM@?$AAM?$AAM?$AA?1?$AAd?$AAd?$AA?1?$AAy?$AAy@ 00000001800267e8     libucrt:nlsdata.obj
 0002:00004800       ??_C@_1CI@KNAKOEBC@?$AAd?$AAd?$AAd?$AAd?$AA?0?$AA?5?$AAM?$AAM?$AAM?$AAM?$AA?5?$AAd?$AAd?$AA?0?$AA?5@ 0000000180026800     libucrt:nlsdata.obj
 0002:00004828       ??_C@_1BC@GDGBMEMK@?$AAH?$AAH?$AA?3?$AAm?$AAm?$AA?3?$AAs?$AAs@ 0000000180026828     libucrt:nlsdata.obj
 0002:00004840       ??_C@_1M@BMHNFIME@?$AAe?$AAn?$AA?9?$AAU?$AAS@ 0000000180026840     libucrt:nlsdata.obj
 0002:00004870       ??_C@_1M@HPNHIDJI@?$AAj?$AAa?$AA?9?$AAJ?$AAP@ 0000000180026870     libucrt:mbctype.obj
 0002:00004880       ??_C@_1M@BIBDDEMK@?$AAz?$AAh?$AA?9?$AAC?$AAN@ 0000000180026880     libucrt:mbctype.obj
 0002:00004890       ??_C@_1M@JLOOOEGK@?$AAk?$AAo?$AA?9?$AAK?$AAR@ 0000000180026890     libucrt:mbctype.obj
 0002:000048a0       ??_C@_1M@CLNBBOPM@?$AAz?$AAh?$AA?9?$AAT?$AAW@ 00000001800268a0     libucrt:mbctype.obj
 0002:000048b0       __newctype                 00000001800268b0     libucrt:ctype.obj
 0002:00004bb0       __newclmap                 0000000180026bb0     libucrt:ctype.obj
 0002:00004d30       __newcumap                 0000000180026d30     libucrt:ctype.obj
 0002:00004eb0       _wctype                    0000000180026eb0     libucrt:ctype.obj
 0002:00005f00       ??_C@_15EMKDOKLE@?$AAa?$AAr@ 0000000180027f00     libucrt:lcidtoname_downlevel.obj
 0002:00005f08       ??_C@_15KNPADPLH@?$AAb?$AAg@ 0000000180027f08     libucrt:lcidtoname_downlevel.obj
 0002:00005f10       ??_C@_15EDMHLDMO@?$AAc?$AAa@ 0000000180027f10     libucrt:lcidtoname_downlevel.obj
 0002:00005f18       ??_C@_1O@BPEAJADD@?$AAz?$AAh?$AA?9?$AAC?$AAH?$AAS@ 0000000180027f18     libucrt:lcidtoname_downlevel.obj
 0002:00005f28       ??_C@_15LJNHCMNK@?$AAc?$AAs@ 0000000180027f28     libucrt:lcidtoname_downlevel.obj
 0002:00005f30       ??_C@_15FOMCIDHG@?$AAd?$AAa@ 0000000180027f30     libucrt:lcidtoname_downlevel.obj
 0002:00005f38       ??_C@_15NBKABECB@?$AAd?$AAe@ 0000000180027f38     libucrt:lcidtoname_downlevel.obj
 0002:00005f40       ??_C@_15GHPEIIAO@?$AAe?$AAl@ 0000000180027f40     libucrt:lcidtoname_downlevel.obj
 0002:00005f48       ??_C@_15MNPNEAIF@?$AAe?$AAn@ 0000000180027f48     libucrt:lcidtoname_downlevel.obj
 0002:00005f50       ??_C@_15GPIOMPMH@?$AAe?$AAs@ 0000000180027f50     libucrt:lcidtoname_downlevel.obj
 0002:00005f58       ??_C@_15NGLOAKJC@?$AAf?$AAi@ 0000000180027f58     libucrt:lcidtoname_downlevel.obj
 0002:00005f60       ??_C@_15FBKGNKAM@?$AAf?$AAr@ 0000000180027f60     libucrt:lcidtoname_downlevel.obj
 0002:00005f68       ??_C@_15KGGCNEFK@?$AAh?$AAe@ 0000000180027f68     libucrt:lcidtoname_downlevel.obj
 0002:00005f70       ??_C@_15PGHLIDMF@?$AAh?$AAu@ 0000000180027f70     libucrt:lcidtoname_downlevel.obj
 0002:00005f78       ??_C@_15BIEMAPLM@?$AAi?$AAs@ 0000000180027f78     libucrt:lcidtoname_downlevel.obj
 0002:00005f80       ??_C@_15IFJLDHAF@?$AAi?$AAt@ 0000000180027f80     libucrt:lcidtoname_downlevel.obj
 0002:00005f88       ??_C@_15GEMIOCAG@?$AAj?$AAa@ 0000000180027f88     libucrt:lcidtoname_downlevel.obj
 0002:00005f90       ??_C@_15EPELEGJA@?$AAk?$AAo@ 0000000180027f90     libucrt:lcidtoname_downlevel.obj
 0002:00005f98       ??_C@_15NDDHIMN@?$AAn?$AAl@ 0000000180027f98     libucrt:lcidtoname_downlevel.obj
 0002:00005fa0       ??_C@_15BPIGNHCD@?$AAn?$AAo@ 0000000180027fa0     libucrt:lcidtoname_downlevel.obj
 0002:00005fa8       ??_C@_15DEOPBLCG@?$AAp?$AAl@ 0000000180027fa8     libucrt:lcidtoname_downlevel.obj
 0002:00005fb0       ??_C@_15KBECGEFG@?$AAp?$AAt@ 0000000180027fb0     libucrt:lcidtoname_downlevel.obj
 0002:00005fb8       ??_C@_15GLJCBFMD@?$AAr?$AAo@ 0000000180027fb8     libucrt:lcidtoname_downlevel.obj
 0002:00005fc0       ??_C@_15FEDGKCDI@?$AAr?$AAu@ 0000000180027fc0     libucrt:lcidtoname_downlevel.obj
 0002:00005fc8       ??_C@_15GLKMLLHM@?$AAh?$AAr@ 0000000180027fc8     libucrt:lcidtoname_downlevel.obj
 0002:00005fd0       ??_C@_15CPKMFBDB@?$AAs?$AAk@ 0000000180027fd0     libucrt:lcidtoname_downlevel.obj
 0002:00005fd8       ??_C@_15BAAIOGMK@?$AAs?$AAq@ 0000000180027fd8     libucrt:lcidtoname_downlevel.obj
 0002:00005fe0       ??_C@_15INNPNOHD@?$AAs?$AAv@ 0000000180027fe0     libucrt:lcidtoname_downlevel.obj
 0002:00005fe8       ??_C@_15CABMMOGH@?$AAt?$AAh@ 0000000180027fe8     libucrt:lcidtoname_downlevel.obj
 0002:00005ff0       ??_C@_15BPLIHJJM@?$AAt?$AAr@ 0000000180027ff0     libucrt:lcidtoname_downlevel.obj
 0002:00005ff8       ??_C@_15NEOEKKDJ@?$AAu?$AAr@ 0000000180027ff8     libucrt:lcidtoname_downlevel.obj
 0002:00006000       ??_C@_15NFICGAJK@?$AAi?$AAd@ 0000000180028000     libucrt:lcidtoname_downlevel.obj
 0002:00006008       ??_C@_15PJPFLCCM@?$AAu?$AAk@ 0000000180028008     libucrt:lcidtoname_downlevel.obj
 0002:00006010       ??_C@_15HPJPHDM@?$AAb?$AAe@ 0000000180028010     libucrt:lcidtoname_downlevel.obj
 0002:00006018       ??_C@_15LCHLGJII@?$AAs?$AAl@ 0000000180028018     libucrt:lcidtoname_downlevel.obj
 0002:00006020       ??_C@_15PCFJPHHO@?$AAe?$AAt@ 0000000180028020     libucrt:lcidtoname_downlevel.obj
 0002:00006028       ??_C@_15HPFPGODN@?$AAl?$AAv@ 0000000180028028     libucrt:lcidtoname_downlevel.obj
 0002:00006030       ??_C@_15NFFGKGLG@?$AAl?$AAt@ 0000000180028030     libucrt:lcidtoname_downlevel.obj
 0002:00006038       ??_C@_15BDAKCCHN@?$AAf?$AAa@ 0000000180028038     libucrt:lcidtoname_downlevel.obj
 0002:00006040       ??_C@_15NFGIAIAJ@?$AAv?$AAi@ 0000000180028040     libucrt:lcidtoname_downlevel.obj
 0002:00006048       ??_C@_15LMKNDMHN@?$AAh?$AAy@ 0000000180028048     libucrt:lcidtoname_downlevel.obj
 0002:00006050       ??_C@_15IJBHMCFL@?$AAa?$AAz@ 0000000180028050     libucrt:lcidtoname_downlevel.obj
 0002:00006058       ??_C@_15EKOFJABL@?$AAe?$AAu@ 0000000180028058     libucrt:lcidtoname_downlevel.obj
 0002:00006060       ??_C@_15BGHADCNK@?$AAm?$AAk@ 0000000180028060     libucrt:lcidtoname_downlevel.obj
 0002:00006068       ??_C@_15JDNICKHM@?$AAa?$AAf@ 0000000180028068     libucrt:lcidtoname_downlevel.obj
 0002:00006070       ??_C@_15KPJEDBKD@?$AAk?$AAa@ 0000000180028070     libucrt:lcidtoname_downlevel.obj
 0002:00006078       ??_C@_15PDNFFFEO@?$AAf?$AAo@ 0000000180028078     libucrt:lcidtoname_downlevel.obj
 0002:00006080       ??_C@_15OMLEGLOC@?$AAh?$AAi@ 0000000180028080     libucrt:lcidtoname_downlevel.obj
 0002:00006088       ??_C@_15IDNNENKK@?$AAm?$AAs@ 0000000180028088     libucrt:lcidtoname_downlevel.obj
 0002:00006090       ??_C@_15MACJNBMH@?$AAk?$AAk@ 0000000180028090     libucrt:lcidtoname_downlevel.obj
 0002:00006098       ??_C@_15DKDJEOND@?$AAk?$AAy@ 0000000180028098     libucrt:lcidtoname_downlevel.obj
 0002:000060a0       ??_C@_15DFGDLJBG@?$AAs?$AAw@ 00000001800280a0     libucrt:lcidtoname_downlevel.obj
 0002:000060a8       ??_C@_15BBFAICNG@?$AAu?$AAz@ 00000001800280a8     libucrt:lcidtoname_downlevel.obj
 0002:000060b0       ??_C@_15DKNDCGEA@?$AAt?$AAt@ 00000001800280b0     libucrt:lcidtoname_downlevel.obj
 0002:000060b8       ??_C@_15MGIFMDPL@?$AAp?$AAa@ 00000001800280b8     libucrt:lcidtoname_downlevel.obj
 0002:000060c0       ??_C@_15HCNDBBA@?$AAg?$AAu@ 00000001800280c0     libucrt:lcidtoname_downlevel.obj
 0002:000060c8       ??_C@_15FNBEIBON@?$AAt?$AAa@ 00000001800280c8     libucrt:lcidtoname_downlevel.obj
 0002:000060d0       ??_C@_15NCHGBGLK@?$AAt?$AAe@ 00000001800280d0     libucrt:lcidtoname_downlevel.obj
 0002:000060d8       ??_C@_15PHPHCBPF@?$AAk?$AAn@ 00000001800280d8     libucrt:lcidtoname_downlevel.obj
 0002:000060e0       ??_C@_15DLGBCKMP@?$AAm?$AAr@ 00000001800280e0     libucrt:lcidtoname_downlevel.obj
 0002:000060e8       ??_C@_15EABBLBFF@?$AAs?$AAa@ 00000001800280e8     libucrt:lcidtoname_downlevel.obj
 0002:000060f0       ??_C@_15CBKOMCOI@?$AAm?$AAn@ 00000001800280f0     libucrt:lcidtoname_downlevel.obj
 0002:000060f8       ??_C@_15CKDMCJAF@?$AAg?$AAl@ 00000001800280f8     libucrt:lcidtoname_downlevel.obj
 0002:00006100       ??_C@_17CNJFBPG@?$AAk?$AAo?$AAk@ 0000000180028100     libucrt:lcidtoname_downlevel.obj
 0002:00006108       ??_C@_17FFBJICPL@?$AAs?$AAy?$AAr@ 0000000180028108     libucrt:lcidtoname_downlevel.obj
 0002:00006110       ??_C@_17KPNDCPAF@?$AAd?$AAi?$AAv@ 0000000180028110     libucrt:lcidtoname_downlevel.obj
 0002:00006118       ??_C@_1M@OKAHONE@?$AAa?$AAr?$AA?9?$AAS?$AAA@ 0000000180028118     libucrt:lcidtoname_downlevel.obj
 0002:00006128       ??_C@_1M@FFFIGIGK@?$AAb?$AAg?$AA?9?$AAB?$AAG@ 0000000180028128     libucrt:lcidtoname_downlevel.obj
 0002:00006138       ??_C@_1M@BJNKEDC@?$AAc?$AAa?$AA?9?$AAE?$AAS@ 0000000180028138     libucrt:lcidtoname_downlevel.obj
 0002:00006148       ??_C@_1M@IJJHFJHA@?$AAc?$AAs?$AA?9?$AAC?$AAZ@ 0000000180028148     libucrt:lcidtoname_downlevel.obj
 0002:00006158       ??_C@_1M@CLPEOBGI@?$AAd?$AAa?$AA?9?$AAD?$AAK@ 0000000180028158     libucrt:lcidtoname_downlevel.obj
 0002:00006168       ??_C@_1M@MCMADGCB@?$AAd?$AAe?$AA?9?$AAD?$AAE@ 0000000180028168     libucrt:lcidtoname_downlevel.obj
 0002:00006178       ??_C@_1M@OOCKEMAM@?$AAe?$AAl?$AA?9?$AAG?$AAR@ 0000000180028178     libucrt:lcidtoname_downlevel.obj
 0002:00006188       ??_C@_1M@DDNJFGID@?$AAf?$AAi?$AA?9?$AAF?$AAI@ 0000000180028188     libucrt:lcidtoname_downlevel.obj
 0002:00006198       ??_C@_1M@GLIPPMAC@?$AAf?$AAr?$AA?9?$AAF?$AAR@ 0000000180028198     libucrt:lcidtoname_downlevel.obj
 0002:000061a8       ??_C@_1M@GFMCHPE@?$AAh?$AAe?$AA?9?$AAI?$AAL@ 00000001800281a8     libucrt:lcidtoname_downlevel.obj
 0002:000061b8       ??_C@_1M@MHLPGNKM@?$AAh?$AAu?$AA?9?$AAH?$AAU@ 00000001800281b8     libucrt:lcidtoname_downlevel.obj
 0002:000061c8       ??_C@_1M@LPDDNNPN@?$AAi?$AAs?$AA?9?$AAI?$AAS@ 00000001800281c8     libucrt:lcidtoname_downlevel.obj
 0002:000061d8       ??_C@_1M@MADIPODN@?$AAi?$AAt?$AA?9?$AAI?$AAT@ 00000001800281d8     libucrt:lcidtoname_downlevel.obj
 0002:000061e8       ??_C@_1M@IHBJJGG@?$AAn?$AAl?$AA?9?$AAN?$AAL@ 00000001800281e8     libucrt:lcidtoname_downlevel.obj
 0002:000061f8       ??_C@_1M@EANAGDL@?$AAn?$AAb?$AA?9?$AAN?$AAO@ 00000001800281f8     libucrt:lcidtoname_downlevel.obj
 0002:00006208       ??_C@_1M@NEIEMEGP@?$AAp?$AAl?$AA?9?$AAP?$AAL@ 0000000180028208     libucrt:lcidtoname_downlevel.obj
 0002:00006218       ??_C@_1M@BOCFIGEP@?$AAp?$AAt?$AA?9?$AAB?$AAR@ 0000000180028218     libucrt:lcidtoname_downlevel.obj
 0002:00006228       ??_C@_1M@IMPFOPBG@?$AAr?$AAo?$AA?9?$AAR?$AAO@ 0000000180028228     libucrt:lcidtoname_downlevel.obj
 0002:00006238       ??_C@_1M@IDNNEJMM@?$AAr?$AAu?$AA?9?$AAR?$AAU@ 0000000180028238     libucrt:lcidtoname_downlevel.obj
 0002:00006248       ??_C@_1M@LILEEOGM@?$AAh?$AAr?$AA?9?$AAH?$AAR@ 0000000180028248     libucrt:lcidtoname_downlevel.obj
 0002:00006258       ??_C@_1M@FKIFEHPB@?$AAs?$AAk?$AA?9?$AAS?$AAK@ 0000000180028258     libucrt:lcidtoname_downlevel.obj
 0002:00006268       ??_C@_1M@LJMAMNPJ@?$AAs?$AAq?$AA?9?$AAA?$AAL@ 0000000180028268     libucrt:lcidtoname_downlevel.obj
 0002:00006278       ??_C@_1M@GIAKDKJK@?$AAs?$AAv?$AA?9?$AAS?$AAE@ 0000000180028278     libucrt:lcidtoname_downlevel.obj
 0002:00006288       ??_C@_1M@MKJKIKCL@?$AAt?$AAh?$AA?9?$AAT?$AAH@ 0000000180028288     libucrt:lcidtoname_downlevel.obj
 0002:00006298       ??_C@_1M@MFLCCMPB@?$AAt?$AAr?$AA?9?$AAT?$AAR@ 0000000180028298     libucrt:lcidtoname_downlevel.obj
 0002:000062a8       ??_C@_1M@OIJHDKJN@?$AAu?$AAr?$AA?9?$AAP?$AAK@ 00000001800282a8     libucrt:lcidtoname_downlevel.obj
 0002:000062b8       ??_C@_1M@LHIPCIEK@?$AAi?$AAd?$AA?9?$AAI?$AAD@ 00000001800282b8     libucrt:lcidtoname_downlevel.obj
 0002:000062c8       ??_C@_1M@MFMOBGI@?$AAu?$AAk?$AA?9?$AAU?$AAA@ 00000001800282c8     libucrt:lcidtoname_downlevel.obj
 0002:000062d8       ??_C@_1M@OBGLJIPL@?$AAb?$AAe?$AA?9?$AAB?$AAY@ 00000001800282d8     libucrt:lcidtoname_downlevel.obj
 0002:000062e8       ??_C@_1M@BCFAJEAD@?$AAs?$AAl?$AA?9?$AAS?$AAI@ 00000001800282e8     libucrt:lcidtoname_downlevel.obj
 0002:000062f8       ??_C@_1M@FKFFEDDN@?$AAe?$AAt?$AA?9?$AAE?$AAE@ 00000001800282f8     libucrt:lcidtoname_downlevel.obj
 0002:00006308       ??_C@_1M@KGKKAACI@?$AAl?$AAv?$AA?9?$AAL?$AAV@ 0000000180028308     libucrt:lcidtoname_downlevel.obj
 0002:00006318       ??_C@_1M@IFGBIJO@?$AAl?$AAt?$AA?9?$AAL?$AAT@ 0000000180028318     libucrt:lcidtoname_downlevel.obj
 0002:00006328       ??_C@_1M@FGEAHEDM@?$AAf?$AAa?$AA?9?$AAI?$AAR@ 0000000180028328     libucrt:lcidtoname_downlevel.obj
 0002:00006338       ??_C@_1M@KBMAIBFN@?$AAv?$AAi?$AA?9?$AAV?$AAN@ 0000000180028338     libucrt:lcidtoname_downlevel.obj
 0002:00006348       ??_C@_1M@GPCBKDJK@?$AAh?$AAy?$AA?9?$AAA?$AAM@ 0000000180028348     libucrt:lcidtoname_downlevel.obj
 0002:00006358       ??_C@_1BG@BECMDDJB@?$AAa?$AAz?$AA?9?$AAA?$AAZ?$AA?9?$AAL?$AAa?$AAt?$AAn@ 0000000180028358     libucrt:lcidtoname_downlevel.obj
 0002:00006370       ??_C@_1M@MAOFCAEA@?$AAe?$AAu?$AA?9?$AAE?$AAS@ 0000000180028370     libucrt:lcidtoname_downlevel.obj
 0002:00006380       ??_C@_1M@IGHABKPI@?$AAm?$AAk?$AA?9?$AAM?$AAK@ 0000000180028380     libucrt:lcidtoname_downlevel.obj
 0002:00006390       ??_C@_1M@IAIGNEJG@?$AAt?$AAn?$AA?9?$AAZ?$AAA@ 0000000180028390     libucrt:lcidtoname_downlevel.obj
 0002:000063a0       ??_C@_1M@IIJCOJFA@?$AAx?$AAh?$AA?9?$AAZ?$AAA@ 00000001800283a0     libucrt:lcidtoname_downlevel.obj
 0002:000063b0       ??_C@_1M@LGPJHNJH@?$AAz?$AAu?$AA?9?$AAZ?$AAA@ 00000001800283b0     libucrt:lcidtoname_downlevel.obj
 0002:000063c0       ??_C@_1M@HOKAOIO@?$AAa?$AAf?$AA?9?$AAZ?$AAA@ 00000001800283c0     libucrt:lcidtoname_downlevel.obj
 0002:000063d0       ??_C@_1M@DPCLHLIE@?$AAk?$AAa?$AA?9?$AAG?$AAE@ 00000001800283d0     libucrt:lcidtoname_downlevel.obj
 0002:000063e0       ??_C@_1M@BLKMHJBI@?$AAf?$AAo?$AA?9?$AAF?$AAO@ 00000001800283e0     libucrt:lcidtoname_downlevel.obj
 0002:000063f0       ??_C@_1M@LGGJAPPB@?$AAh?$AAi?$AA?9?$AAI?$AAN@ 00000001800283f0     libucrt:lcidtoname_downlevel.obj
 0002:00006400       ??_C@_1M@FIKPIHFE@?$AAm?$AAt?$AA?9?$AAM?$AAT@ 0000000180028400     libucrt:lcidtoname_downlevel.obj
 0002:00006410       ??_C@_1M@HEGGPBFA@?$AAs?$AAe?$AA?9?$AAN?$AAO@ 0000000180028410     libucrt:lcidtoname_downlevel.obj
 0002:00006420       ??_C@_1M@EIBJEEPA@?$AAm?$AAs?$AA?9?$AAM?$AAY@ 0000000180028420     libucrt:lcidtoname_downlevel.obj
 0002:00006430       ??_C@_1M@FHLBGMPP@?$AAk?$AAk?$AA?9?$AAK?$AAZ@ 0000000180028430     libucrt:lcidtoname_downlevel.obj
 0002:00006440       ??_C@_1M@NGJJLCGI@?$AAk?$AAy?$AA?9?$AAK?$AAG@ 0000000180028440     libucrt:lcidtoname_downlevel.obj
 0002:00006450       ??_C@_1M@GIENNBFC@?$AAs?$AAw?$AA?9?$AAK?$AAE@ 0000000180028450     libucrt:lcidtoname_downlevel.obj
 0002:00006460       ??_C@_1BG@NDGMJIMJ@?$AAu?$AAz?$AA?9?$AAU?$AAZ?$AA?9?$AAL?$AAa?$AAt?$AAn@ 0000000180028460     libucrt:lcidtoname_downlevel.obj
 0002:00006478       ??_C@_1M@IDCCIHBC@?$AAt?$AAt?$AA?9?$AAR?$AAU@ 0000000180028478     libucrt:lcidtoname_downlevel.obj
 0002:00006488       ??_C@_1M@LOICPMOJ@?$AAb?$AAn?$AA?9?$AAI?$AAN@ 0000000180028488     libucrt:lcidtoname_downlevel.obj
 0002:00006498       ??_C@_1M@KPKKNEAH@?$AAp?$AAa?$AA?9?$AAI?$AAN@ 0000000180028498     libucrt:lcidtoname_downlevel.obj
 0002:000064a8       ??_C@_1M@PJGPPBOG@?$AAg?$AAu?$AA?9?$AAI?$AAN@ 00000001800284a8     libucrt:lcidtoname_downlevel.obj
 0002:000064b8       ??_C@_1M@KMKMOPHI@?$AAt?$AAa?$AA?9?$AAI?$AAN@ 00000001800284b8     libucrt:lcidtoname_downlevel.obj
 0002:000064c8       ??_C@_1M@KFEHEPAC@?$AAt?$AAe?$AA?9?$AAI?$AAN@ 00000001800284c8     libucrt:lcidtoname_downlevel.obj
 0002:000064d8       ??_C@_1M@CDCLMGHI@?$AAk?$AAn?$AA?9?$AAI?$AAN@ 00000001800284d8     libucrt:lcidtoname_downlevel.obj
 0002:000064e8       ??_C@_1M@MIODLDKF@?$AAm?$AAl?$AA?9?$AAI?$AAN@ 00000001800284e8     libucrt:lcidtoname_downlevel.obj
 0002:000064f8       ??_C@_1M@PBIEACPO@?$AAm?$AAr?$AA?9?$AAI?$AAN@ 00000001800284f8     libucrt:lcidtoname_downlevel.obj
 0002:00006508       ??_C@_1M@NIDEAGPH@?$AAs?$AAa?$AA?9?$AAI?$AAN@ 0000000180028508     libucrt:lcidtoname_downlevel.obj
 0002:00006518       ??_C@_1M@FHIHCBIO@?$AAm?$AAn?$AA?9?$AAM?$AAN@ 0000000180028518     libucrt:lcidtoname_downlevel.obj
 0002:00006528       ??_C@_1M@JAIJPENP@?$AAc?$AAy?$AA?9?$AAG?$AAB@ 0000000180028528     libucrt:lcidtoname_downlevel.obj
 0002:00006538       ??_C@_1M@PHGFBEPN@?$AAg?$AAl?$AA?9?$AAE?$AAS@ 0000000180028538     libucrt:lcidtoname_downlevel.obj
 0002:00006548       ??_C@_1O@KPIPDNCP@?$AAk?$AAo?$AAk?$AA?9?$AAI?$AAN@ 0000000180028548     libucrt:lcidtoname_downlevel.obj
 0002:00006558       ??_C@_1O@KNHJLDJA@?$AAs?$AAy?$AAr?$AA?9?$AAS?$AAY@ 0000000180028558     libucrt:lcidtoname_downlevel.obj
 0002:00006568       ??_C@_1O@MKEKBLAH@?$AAd?$AAi?$AAv?$AA?9?$AAM?$AAV@ 0000000180028568     libucrt:lcidtoname_downlevel.obj
 0002:00006578       ??_C@_1O@OHDCKDDF@?$AAq?$AAu?$AAz?$AA?9?$AAB?$AAO@ 0000000180028578     libucrt:lcidtoname_downlevel.obj
 0002:00006588       ??_C@_1M@LEPJNLFD@?$AAn?$AAs?$AA?9?$AAZ?$AAA@ 0000000180028588     libucrt:lcidtoname_downlevel.obj
 0002:00006598       ??_C@_1M@OMLEIIJB@?$AAm?$AAi?$AA?9?$AAN?$AAZ@ 0000000180028598     libucrt:lcidtoname_downlevel.obj
 0002:000065a8       ??_C@_1M@PMPEAILG@?$AAa?$AAr?$AA?9?$AAI?$AAQ@ 00000001800285a8     libucrt:lcidtoname_downlevel.obj
 0002:000065b8       ??_C@_1M@CNKPNOEE@?$AAd?$AAe?$AA?9?$AAC?$AAH@ 00000001800285b8     libucrt:lcidtoname_downlevel.obj
 0002:000065c8       ??_C@_1M@LKMGMLKO@?$AAe?$AAn?$AA?9?$AAG?$AAB@ 00000001800285c8     libucrt:lcidtoname_downlevel.obj
 0002:000065d8       ??_C@_1M@PGKJFFGL@?$AAe?$AAs?$AA?9?$AAM?$AAX@ 00000001800285d8     libucrt:lcidtoname_downlevel.obj
 0002:000065e8       ??_C@_1M@DNNANBDC@?$AAf?$AAr?$AA?9?$AAB?$AAE@ 00000001800285e8     libucrt:lcidtoname_downlevel.obj
 0002:000065f8       ??_C@_1M@HLGMDFHM@?$AAi?$AAt?$AA?9?$AAC?$AAH@ 00000001800285f8     libucrt:lcidtoname_downlevel.obj
 0002:00006608       ??_C@_1M@CLLBGJH@?$AAn?$AAl?$AA?9?$AAB?$AAE@ 0000000180028608     libucrt:lcidtoname_downlevel.obj
 0002:00006618       ??_C@_1M@BODBOGLF@?$AAn?$AAn?$AA?9?$AAN?$AAO@ 0000000180028618     libucrt:lcidtoname_downlevel.obj
 0002:00006628       ??_C@_1M@HFFAHKAD@?$AAp?$AAt?$AA?9?$AAP?$AAT@ 0000000180028628     libucrt:lcidtoname_downlevel.obj
 0002:00006638       ??_C@_1BG@LNOAKHIE@?$AAs?$AAr?$AA?9?$AAS?$AAP?$AA?9?$AAL?$AAa?$AAt?$AAn@ 0000000180028638     libucrt:lcidtoname_downlevel.obj
 0002:00006650       ??_C@_1M@HBMHBGAK@?$AAs?$AAv?$AA?9?$AAF?$AAI@ 0000000180028650     libucrt:lcidtoname_downlevel.obj
 0002:00006660       ??_C@_1BG@DGCJGJBE@?$AAa?$AAz?$AA?9?$AAA?$AAZ?$AA?9?$AAC?$AAy?$AAr?$AAl@ 0000000180028660     libucrt:lcidtoname_downlevel.obj
 0002:00006678       ??_C@_1M@KEJDAAHB@?$AAs?$AAe?$AA?9?$AAS?$AAE@ 0000000180028678     libucrt:lcidtoname_downlevel.obj
 0002:00006688       ??_C@_1M@HEIBJJAD@?$AAm?$AAs?$AA?9?$AAB?$AAN@ 0000000180028688     libucrt:lcidtoname_downlevel.obj
 0002:00006698       ??_C@_1BG@PBGJMCEM@?$AAu?$AAz?$AA?9?$AAU?$AAZ?$AA?9?$AAC?$AAy?$AAr?$AAl@ 0000000180028698     libucrt:lcidtoname_downlevel.obj
 0002:000066b0       ??_C@_1O@LAOBCMDF@?$AAq?$AAu?$AAz?$AA?9?$AAE?$AAC@ 00000001800286b0     libucrt:lcidtoname_downlevel.obj
 0002:000066c0       ??_C@_1M@POEEMAIO@?$AAa?$AAr?$AA?9?$AAE?$AAG@ 00000001800286c0     libucrt:lcidtoname_downlevel.obj
 0002:000066d0       ??_C@_1M@EFAKDEDL@?$AAz?$AAh?$AA?9?$AAH?$AAK@ 00000001800286d0     libucrt:lcidtoname_downlevel.obj
 0002:000066e0       ??_C@_1M@HKKIJHGI@?$AAd?$AAe?$AA?9?$AAA?$AAT@ 00000001800286e0     libucrt:lcidtoname_downlevel.obj
 0002:000066f0       ??_C@_1M@KBFBEHJF@?$AAe?$AAn?$AA?9?$AAA?$AAU@ 00000001800286f0     libucrt:lcidtoname_downlevel.obj
 0002:00006700       ??_C@_1M@MNPLFAAH@?$AAe?$AAs?$AA?9?$AAE?$AAS@ 0000000180028700     libucrt:lcidtoname_downlevel.obj
 0002:00006710       ??_C@_1M@HJOOJFMA@?$AAf?$AAr?$AA?9?$AAC?$AAA@ 0000000180028710     libucrt:lcidtoname_downlevel.obj
 0002:00006720       ??_C@_1BG@JPOFPNAB@?$AAs?$AAr?$AA?9?$AAS?$AAP?$AA?9?$AAC?$AAy?$AAr?$AAl@ 0000000180028720     libucrt:lcidtoname_downlevel.obj
 0002:00006738       ??_C@_1M@LNFOCMOB@?$AAs?$AAe?$AA?9?$AAF?$AAI@ 0000000180028738     libucrt:lcidtoname_downlevel.obj
 0002:00006748       ??_C@_1O@MGJBOAMB@?$AAq?$AAu?$AAz?$AA?9?$AAP?$AAE@ 0000000180028748     libucrt:lcidtoname_downlevel.obj
 0002:00006758       ??_C@_1M@GJINLBOK@?$AAa?$AAr?$AA?9?$AAL?$AAY@ 0000000180028758     libucrt:lcidtoname_downlevel.obj
 0002:00006768       ??_C@_1M@GGMNHJNL@?$AAz?$AAh?$AA?9?$AAS?$AAG@ 0000000180028768     libucrt:lcidtoname_downlevel.obj
 0002:00006778       ??_C@_1M@HOIKODND@?$AAd?$AAe?$AA?9?$AAL?$AAU@ 0000000180028778     libucrt:lcidtoname_downlevel.obj
 0002:00006788       ??_C@_1M@DDOCCGFG@?$AAe?$AAn?$AA?9?$AAC?$AAA@ 0000000180028788     libucrt:lcidtoname_downlevel.obj
 0002:00006798       ??_C@_1M@BNOEMJLF@?$AAe?$AAs?$AA?9?$AAG?$AAT@ 0000000180028798     libucrt:lcidtoname_downlevel.obj
 0002:000067a8       ??_C@_1M@EOGNKEK@?$AAf?$AAr?$AA?9?$AAC?$AAH@ 00000001800287a8     libucrt:lcidtoname_downlevel.obj
 0002:000067b8       ??_C@_1M@FLIDJFHL@?$AAh?$AAr?$AA?9?$AAB?$AAA@ 00000001800287b8     libucrt:lcidtoname_downlevel.obj
 0002:000067c8       ??_C@_1O@FMCELNAJ@?$AAs?$AAm?$AAj?$AA?9?$AAN?$AAO@ 00000001800287c8     libucrt:lcidtoname_downlevel.obj
 0002:000067d8       ??_C@_1M@JHGLJMGJ@?$AAa?$AAr?$AA?9?$AAD?$AAZ@ 00000001800287d8     libucrt:lcidtoname_downlevel.obj
 0002:000067e8       ??_C@_1M@JKKFDCNP@?$AAz?$AAh?$AA?9?$AAM?$AAO@ 00000001800287e8     libucrt:lcidtoname_downlevel.obj
 0002:000067f8       ??_C@_1M@GEEFALPE@?$AAd?$AAe?$AA?9?$AAL?$AAI@ 00000001800287f8     libucrt:lcidtoname_downlevel.obj
 0002:00006808       ??_C@_1M@IGEOFBG@?$AAe?$AAn?$AA?9?$AAN?$AAZ@ 0000000180028808     libucrt:lcidtoname_downlevel.obj
 0002:00006818       ??_C@_1M@KDBONEHP@?$AAe?$AAs?$AA?9?$AAC?$AAR@ 0000000180028818     libucrt:lcidtoname_downlevel.obj
 0002:00006828       ??_C@_1M@FHMDOHNN@?$AAf?$AAr?$AA?9?$AAL?$AAU@ 0000000180028828     libucrt:lcidtoname_downlevel.obj
 0002:00006838       ??_C@_1BG@NFKKMAFG@?$AAb?$AAs?$AA?9?$AAB?$AAA?$AA?9?$AAL?$AAa?$AAt?$AAn@ 0000000180028838     libucrt:lcidtoname_downlevel.obj
 0002:00006850       ??_C@_1O@IMNBEMCI@?$AAs?$AAm?$AAj?$AA?9?$AAS?$AAE@ 0000000180028850     libucrt:lcidtoname_downlevel.obj
 0002:00006860       ??_C@_1M@DHHMBNDP@?$AAa?$AAr?$AA?9?$AAM?$AAA@ 0000000180028860     libucrt:lcidtoname_downlevel.obj
 0002:00006870       ??_C@_1M@BNBLJCGH@?$AAe?$AAn?$AA?9?$AAI?$AAE@ 0000000180028870     libucrt:lcidtoname_downlevel.obj
 0002:00006880       ??_C@_1M@GEPAFMDL@?$AAe?$AAs?$AA?9?$AAP?$AAA@ 0000000180028880     libucrt:lcidtoname_downlevel.obj
 0002:00006890       ??_C@_1M@OJONDMDL@?$AAf?$AAr?$AA?9?$AAM?$AAC@ 0000000180028890     libucrt:lcidtoname_downlevel.obj
 0002:000068a0       ??_C@_1BG@OBCNFJB@?$AAs?$AAr?$AA?9?$AAB?$AAA?$AA?9?$AAL?$AAa?$AAt?$AAn@ 00000001800288a0     libucrt:lcidtoname_downlevel.obj
 0002:000068b8       ??_C@_1O@KEMEEGPO@?$AAs?$AAm?$AAa?$AA?9?$AAN?$AAO@ 00000001800288b8     libucrt:lcidtoname_downlevel.obj
 0002:000068c8       ??_C@_1M@ELMGFODK@?$AAa?$AAr?$AA?9?$AAT?$AAN@ 00000001800288c8     libucrt:lcidtoname_downlevel.obj
 0002:000068d8       ??_C@_1M@BHDLHFAF@?$AAe?$AAn?$AA?9?$AAZ?$AAA@ 00000001800288d8     libucrt:lcidtoname_downlevel.obj
 0002:000068e8       ??_C@_1M@BMGIGLIF@?$AAe?$AAs?$AA?9?$AAD?$AAO@ 00000001800288e8     libucrt:lcidtoname_downlevel.obj
 0002:000068f8       ??_C@_1BG@CMBHIPBE@?$AAs?$AAr?$AA?9?$AAB?$AAA?$AA?9?$AAC?$AAy?$AAr?$AAl@ 00000001800288f8     libucrt:lcidtoname_downlevel.obj
 0002:00006910       ??_C@_1O@HEDBLHNP@?$AAs?$AAm?$AAa?$AA?9?$AAS?$AAE@ 0000000180028910     libucrt:lcidtoname_downlevel.obj
 0002:00006920       ??_C@_1M@DAGCADIM@?$AAa?$AAr?$AA?9?$AAO?$AAM@ 0000000180028920     libucrt:lcidtoname_downlevel.obj
 0002:00006930       ??_C@_1M@FODLMICG@?$AAe?$AAn?$AA?9?$AAJ?$AAM@ 0000000180028930     libucrt:lcidtoname_downlevel.obj
 0002:00006940       ??_C@_1M@DNMLCIHB@?$AAe?$AAs?$AA?9?$AAV?$AAE@ 0000000180028940     libucrt:lcidtoname_downlevel.obj
 0002:00006950       ??_C@_1O@EOKHMKJK@?$AAs?$AAm?$AAs?$AA?9?$AAF?$AAI@ 0000000180028950     libucrt:lcidtoname_downlevel.obj
 0002:00006960       ??_C@_1M@CAFJMKOF@?$AAa?$AAr?$AA?9?$AAY?$AAE@ 0000000180028960     libucrt:lcidtoname_downlevel.obj
 0002:00006970       ??_C@_1M@CBFHIJLI@?$AAe?$AAn?$AA?9?$AAC?$AAB@ 0000000180028970     libucrt:lcidtoname_downlevel.obj
 0002:00006980       ??_C@_1M@BGNFLDN@?$AAe?$AAs?$AA?9?$AAC?$AAO@ 0000000180028980     libucrt:lcidtoname_downlevel.obj
 0002:00006990       ??_C@_1O@JMPHMAMC@?$AAs?$AAm?$AAn?$AA?9?$AAF?$AAI@ 0000000180028990     libucrt:lcidtoname_downlevel.obj
 0002:000069a0       ??_C@_1M@JLANABKE@?$AAa?$AAr?$AA?9?$AAS?$AAY@ 00000001800289a0     libucrt:lcidtoname_downlevel.obj
 0002:000069b0       ??_C@_1M@HPKGCFGN@?$AAe?$AAn?$AA?9?$AAB?$AAZ@ 00000001800289b0     libucrt:lcidtoname_downlevel.obj
 0002:000069c0       ??_C@_1M@OLJCMLGM@?$AAe?$AAs?$AA?9?$AAP?$AAE@ 00000001800289c0     libucrt:lcidtoname_downlevel.obj
 0002:000069d0       ??_C@_1M@MKKGFKLE@?$AAa?$AAr?$AA?9?$AAJ?$AAO@ 00000001800289d0     libucrt:lcidtoname_downlevel.obj
 0002:000069e0       ??_C@_1M@EKPGLDNI@?$AAe?$AAn?$AA?9?$AAT?$AAT@ 00000001800289e0     libucrt:lcidtoname_downlevel.obj
 0002:000069f0       ??_C@_1M@OONGHFHE@?$AAe?$AAs?$AA?9?$AAA?$AAR@ 00000001800289f0     libucrt:lcidtoname_downlevel.obj
 0002:00006a00       ??_C@_1M@OOJFGBHE@?$AAa?$AAr?$AA?9?$AAL?$AAB@ 0000000180028a00     libucrt:lcidtoname_downlevel.obj
 0002:00006a10       ??_C@_1M@GCEJHNEG@?$AAe?$AAn?$AA?9?$AAZ?$AAW@ 0000000180028a10     libucrt:lcidtoname_downlevel.obj
 0002:00006a20       ??_C@_1M@JNOCAHJI@?$AAe?$AAs?$AA?9?$AAE?$AAC@ 0000000180028a20     libucrt:lcidtoname_downlevel.obj
 0002:00006a30       ??_C@_1M@JEFHPGGB@?$AAa?$AAr?$AA?9?$AAK?$AAW@ 0000000180028a30     libucrt:lcidtoname_downlevel.obj
 0002:00006a40       ??_C@_1M@MLKIBJOJ@?$AAe?$AAn?$AA?9?$AAP?$AAH@ 0000000180028a40     libucrt:lcidtoname_downlevel.obj
 0002:00006a50       ??_C@_1M@BDNIPEND@?$AAe?$AAs?$AA?9?$AAC?$AAL@ 0000000180028a50     libucrt:lcidtoname_downlevel.obj
 0002:00006a60       ??_C@_1M@MPNMEKBD@?$AAa?$AAr?$AA?9?$AAA?$AAE@ 0000000180028a60     libucrt:lcidtoname_downlevel.obj
 0002:00006a70       ??_C@_1M@KBJALCPI@?$AAe?$AAs?$AA?9?$AAU?$AAY@ 0000000180028a70     libucrt:lcidtoname_downlevel.obj
 0002:00006a80       ??_C@_1M@LLCCOAGA@?$AAa?$AAr?$AA?9?$AAB?$AAH@ 0000000180028a80     libucrt:lcidtoname_downlevel.obj
 0002:00006a90       ??_C@_1M@PBFNCDEL@?$AAe?$AAs?$AA?9?$AAP?$AAY@ 0000000180028a90     libucrt:lcidtoname_downlevel.obj
 0002:00006aa0       ??_C@_1M@EDGINPNP@?$AAa?$AAr?$AA?9?$AAQ?$AAA@ 0000000180028aa0     libucrt:lcidtoname_downlevel.obj
 0002:00006ab0       ??_C@_1M@MKDBIIJI@?$AAe?$AAs?$AA?9?$AAB?$AAO@ 0000000180028ab0     libucrt:lcidtoname_downlevel.obj
 0002:00006ac0       ??_C@_1M@CPKKEBLD@?$AAe?$AAs?$AA?9?$AAS?$AAV@ 0000000180028ac0     libucrt:lcidtoname_downlevel.obj
 0002:00006ad0       ??_C@_1M@NDBGMMJL@?$AAe?$AAs?$AA?9?$AAH?$AAN@ 0000000180028ad0     libucrt:lcidtoname_downlevel.obj
 0002:00006ae0       ??_C@_1M@JIJIBHDP@?$AAe?$AAs?$AA?9?$AAN?$AAI@ 0000000180028ae0     libucrt:lcidtoname_downlevel.obj
 0002:00006af0       ??_C@_1M@CGFMKEEK@?$AAe?$AAs?$AA?9?$AAP?$AAR@ 0000000180028af0     libucrt:lcidtoname_downlevel.obj
 0002:00006b00       ??_C@_1O@ICJHKIIK@?$AAz?$AAh?$AA?9?$AAC?$AAH?$AAT@ 0000000180028b00     libucrt:lcidtoname_downlevel.obj
 0002:00006b10       ??_C@_15CLNEJCE@?$AAs?$AAr@ 0000000180028b10     libucrt:lcidtoname_downlevel.obj
 0002:00007960       ??_C@_1M@KAHEKEIG@?$AAa?$AAf?$AA?9?$AAz?$AAa@ 0000000180029960     libucrt:lcidtoname_downlevel.obj
 0002:00007970       ??_C@_1M@GIECOABL@?$AAa?$AAr?$AA?9?$AAa?$AAe@ 0000000180029970     libucrt:lcidtoname_downlevel.obj
 0002:00007980       ??_C@_1M@BMLMEKGI@?$AAa?$AAr?$AA?9?$AAb?$AAh@ 0000000180029980     libucrt:lcidtoname_downlevel.obj
 0002:00007990       ??_C@_1M@DAPFDGGB@?$AAa?$AAr?$AA?9?$AAd?$AAz@ 0000000180029990     libucrt:lcidtoname_downlevel.obj
 0002:000079a0       ??_C@_1M@FJNKGKIG@?$AAa?$AAr?$AA?9?$AAe?$AAg@ 00000001800299a0     libucrt:lcidtoname_downlevel.obj
 0002:000079b0       ??_C@_1M@FLGKKCLO@?$AAa?$AAr?$AA?9?$AAi?$AAq@ 00000001800299b0     libucrt:lcidtoname_downlevel.obj
 0002:000079c0       ??_C@_1M@GNDIPALM@?$AAa?$AAr?$AA?9?$AAj?$AAo@ 00000001800299c0     libucrt:lcidtoname_downlevel.obj
 0002:000079d0       ??_C@_1M@DDMJFMGJ@?$AAa?$AAr?$AA?9?$AAk?$AAw@ 00000001800299d0     libucrt:lcidtoname_downlevel.obj
 0002:000079e0       ??_C@_1M@EJALMLHM@?$AAa?$AAr?$AA?9?$AAl?$AAb@ 00000001800299e0     libucrt:lcidtoname_downlevel.obj
 0002:000079f0       ??_C@_1M@MOBDBLOC@?$AAa?$AAr?$AA?9?$AAl?$AAy@ 00000001800299f0     libucrt:lcidtoname_downlevel.obj
 0002:00007a00       ??_C@_1M@JAOCLHDH@?$AAa?$AAr?$AA?9?$AAm?$AAa@ 0000000180029a00     libucrt:lcidtoname_downlevel.obj
 0002:00007a10       ??_C@_1M@JHPMKJIE@?$AAa?$AAr?$AA?9?$AAo?$AAm@ 0000000180029a10     libucrt:lcidtoname_downlevel.obj
 0002:00007a20       ??_C@_1M@OEPGHFNH@?$AAa?$AAr?$AA?9?$AAq?$AAa@ 0000000180029a20     libucrt:lcidtoname_downlevel.obj
 0002:00007a30       ??_C@_1M@KJDONENM@?$AAa?$AAr?$AA?9?$AAs?$AAa@ 0000000180029a30     libucrt:lcidtoname_downlevel.obj
 0002:00007a40       ??_C@_1M@DMJDKLKM@?$AAa?$AAr?$AA?9?$AAs?$AAy@ 0000000180029a40     libucrt:lcidtoname_downlevel.obj
 0002:00007a50       ??_C@_1M@OMFIPEDC@?$AAa?$AAr?$AA?9?$AAt?$AAn@ 0000000180029a50     libucrt:lcidtoname_downlevel.obj
 0002:00007a60       ??_C@_1M@IHMHGAON@?$AAa?$AAr?$AA?9?$AAy?$AAe@ 0000000180029a60     libucrt:lcidtoname_downlevel.obj
 0002:00007a70       ??_C@_1BG@KDCPGJGB@?$AAa?$AAz?$AA?9?$AAa?$AAz?$AA?9?$AAc?$AAy?$AAr?$AAl@ 0000000180029a70     libucrt:lcidtoname_downlevel.obj
 0002:00007a88       ??_C@_1BG@IBCKDDOE@?$AAa?$AAz?$AA?9?$AAa?$AAz?$AA?9?$AAl?$AAa?$AAt?$AAn@ 0000000180029a88     libucrt:lcidtoname_downlevel.obj
 0002:00007aa0       ??_C@_1M@EGPFDCPD@?$AAb?$AAe?$AA?9?$AAb?$AAy@ 0000000180029aa0     libucrt:lcidtoname_downlevel.obj
 0002:00007ab0       ??_C@_1M@PCMGMCGC@?$AAb?$AAg?$AA?9?$AAb?$AAg@ 0000000180029ab0     libucrt:lcidtoname_downlevel.obj
 0002:00007ac0       ??_C@_1M@BJBMFGOB@?$AAb?$AAn?$AA?9?$AAi?$AAn@ 0000000180029ac0     libucrt:lcidtoname_downlevel.obj
 0002:00007ad0       ??_C@_1BG@EAKMMACD@?$AAb?$AAs?$AA?9?$AAb?$AAa?$AA?9?$AAl?$AAa?$AAt?$AAn@ 0000000180029ad0     libucrt:lcidtoname_downlevel.obj
 0002:00007ae8       ??_C@_1M@KGADAODK@?$AAc?$AAa?$AA?9?$AAe?$AAs@ 0000000180029ae8     libucrt:lcidtoname_downlevel.obj
 0002:00007af8       ??_C@_1M@COAJPDHI@?$AAc?$AAs?$AA?9?$AAc?$AAz@ 0000000180029af8     libucrt:lcidtoname_downlevel.obj
 0002:00007b08       ??_C@_1M@DHBHFONH@?$AAc?$AAy?$AA?9?$AAg?$AAb@ 0000000180029b08     libucrt:lcidtoname_downlevel.obj
 0002:00007b18       ??_C@_1M@IMGKELGA@?$AAd?$AAa?$AA?9?$AAd?$AAk@ 0000000180029b18     libucrt:lcidtoname_downlevel.obj
 0002:00007b28       ??_C@_1M@NNDGDNGA@?$AAd?$AAe?$AA?9?$AAa?$AAt@ 0000000180029b28     libucrt:lcidtoname_downlevel.obj
 0002:00007b38       ??_C@_1M@IKDBHEEM@?$AAd?$AAe?$AA?9?$AAc?$AAh@ 0000000180029b38     libucrt:lcidtoname_downlevel.obj
 0002:00007b48       ??_C@_1M@GFFOJMCJ@?$AAd?$AAe?$AA?9?$AAd?$AAe@ 0000000180029b48     libucrt:lcidtoname_downlevel.obj
 0002:00007b58       ??_C@_1M@MDNLKBPM@?$AAd?$AAe?$AA?9?$AAl?$AAi@ 0000000180029b58     libucrt:lcidtoname_downlevel.obj
 0002:00007b68       ??_C@_1M@NJBEEJNL@?$AAd?$AAe?$AA?9?$AAl?$AAu@ 0000000180029b68     libucrt:lcidtoname_downlevel.obj
 0002:00007b78       ??_C@_1O@GNNELBAP@?$AAd?$AAi?$AAv?$AA?9?$AAm?$AAv@ 0000000180029b78     libucrt:lcidtoname_downlevel.obj
 0002:00007b88       ??_C@_1M@EJLEOGAE@?$AAe?$AAl?$AA?9?$AAg?$AAr@ 0000000180029b88     libucrt:lcidtoname_downlevel.obj
 0002:00007b98       ??_C@_1M@GMPONJN@?$AAe?$AAn?$AA?9?$AAa?$AAu@ 0000000180029b98     libucrt:lcidtoname_downlevel.obj
 0002:00007ba8       ??_C@_1M@NIDIIPGF@?$AAe?$AAn?$AA?9?$AAb?$AAz@ 0000000180029ba8     libucrt:lcidtoname_downlevel.obj
 0002:00007bb8       ??_C@_1M@JEHMIMFO@?$AAe?$AAn?$AA?9?$AAc?$AAa@ 0000000180029bb8     libucrt:lcidtoname_downlevel.obj
 0002:00007bc8       ??_C@_1M@IGMJCDLA@?$AAe?$AAn?$AA?9?$AAc?$AAb@ 0000000180029bc8     libucrt:lcidtoname_downlevel.obj
 0002:00007bd8       ??_C@_1M@BNFIGBKG@?$AAe?$AAn?$AA?9?$AAg?$AAb@ 0000000180029bd8     libucrt:lcidtoname_downlevel.obj
 0002:00007be8       ??_C@_1M@LKIFDIGP@?$AAe?$AAn?$AA?9?$AAi?$AAe@ 0000000180029be8     libucrt:lcidtoname_downlevel.obj
 0002:00007bf8       ??_C@_1M@PJKFGCCO@?$AAe?$AAn?$AA?9?$AAj?$AAm@ 0000000180029bf8     libucrt:lcidtoname_downlevel.obj
 0002:00007c08       ??_C@_1M@KPPKEPBO@?$AAe?$AAn?$AA?9?$AAn?$AAz@ 0000000180029c08     libucrt:lcidtoname_downlevel.obj
 0002:00007c18       ??_C@_1M@GMDGLDOB@?$AAe?$AAn?$AA?9?$AAp?$AAh@ 0000000180029c18     libucrt:lcidtoname_downlevel.obj
 0002:00007c28       ??_C@_1M@ONGIBJNA@?$AAe?$AAn?$AA?9?$AAt?$AAt@ 0000000180029c28     libucrt:lcidtoname_downlevel.obj
 0002:00007c38       ??_C@_1M@LLODPCMM@?$AAe?$AAn?$AA?9?$AAu?$AAs@ 0000000180029c38     libucrt:lcidtoname_downlevel.obj
 0002:00007c48       ??_C@_1M@LAKFNPAN@?$AAe?$AAn?$AA?9?$AAz?$AAa@ 0000000180029c48     libucrt:lcidtoname_downlevel.obj
 0002:00007c58       ??_C@_1M@MFNHNHEO@?$AAe?$AAn?$AA?9?$AAz?$AAw@ 0000000180029c58     libucrt:lcidtoname_downlevel.obj
 0002:00007c68       ??_C@_1M@EJEINPHM@?$AAe?$AAs?$AA?9?$AAa?$AAr@ 0000000180029c68     libucrt:lcidtoname_downlevel.obj
 0002:00007c78       ??_C@_1M@GNKPCCJA@?$AAe?$AAs?$AA?9?$AAb?$AAo@ 0000000180029c78     libucrt:lcidtoname_downlevel.obj
 0002:00007c88       ??_C@_1M@LEEGFONL@?$AAe?$AAs?$AA?9?$AAc?$AAl@ 0000000180029c88     libucrt:lcidtoname_downlevel.obj
 0002:00007c98       ??_C@_1M@KGPDPBDF@?$AAe?$AAs?$AA?9?$AAc?$AAo@ 0000000180029c98     libucrt:lcidtoname_downlevel.obj
 0002:00007ca8       ??_C@_1M@EIAHOHH@?$AAe?$AAs?$AA?9?$AAc?$AAr@ 0000000180029ca8     libucrt:lcidtoname_downlevel.obj
 0002:00007cb8       ??_C@_1M@LLPGMBIN@?$AAe?$AAs?$AA?9?$AAd?$AAo@ 0000000180029cb8     libucrt:lcidtoname_downlevel.obj
 0002:00007cc8       ??_C@_1M@DKHMKNJA@?$AAe?$AAs?$AA?9?$AAe?$AAc@ 0000000180029cc8     libucrt:lcidtoname_downlevel.obj
 0002:00007cd8       ??_C@_1M@GKGFPKAP@?$AAe?$AAs?$AA?9?$AAe?$AAs@ 0000000180029cd8     libucrt:lcidtoname_downlevel.obj
 0002:00007ce8       ??_C@_1M@LKHKGDLN@?$AAe?$AAs?$AA?9?$AAg?$AAt@ 0000000180029ce8     libucrt:lcidtoname_downlevel.obj
 0002:00007cf8       ??_C@_1M@HEIIGGJD@?$AAe?$AAs?$AA?9?$AAh?$AAn@ 0000000180029cf8     libucrt:lcidtoname_downlevel.obj
 0002:00007d08       ??_C@_1M@FBDHPPGD@?$AAe?$AAs?$AA?9?$AAm?$AAx@ 0000000180029d08     libucrt:lcidtoname_downlevel.obj
 0002:00007d18       ??_C@_1M@DPAGLNDH@?$AAe?$AAs?$AA?9?$AAn?$AAi@ 0000000180029d18     libucrt:lcidtoname_downlevel.obj
 0002:00007d28       ??_C@_1M@MDGOPGDD@?$AAe?$AAs?$AA?9?$AAp?$AAa@ 0000000180029d28     libucrt:lcidtoname_downlevel.obj
 0002:00007d38       ??_C@_1M@EMAMGBGE@?$AAe?$AAs?$AA?9?$AAp?$AAe@ 0000000180029d38     libucrt:lcidtoname_downlevel.obj
 0002:00007d48       ??_C@_1M@IBMCAOEC@?$AAe?$AAs?$AA?9?$AAp?$AAr@ 0000000180029d48     libucrt:lcidtoname_downlevel.obj
 0002:00007d58       ??_C@_1M@FGMDIJED@?$AAe?$AAs?$AA?9?$AAp?$AAy@ 0000000180029d58     libucrt:lcidtoname_downlevel.obj
 0002:00007d68       ??_C@_1M@IIDEOLLL@?$AAe?$AAs?$AA?9?$AAs?$AAv@ 0000000180029d68     libucrt:lcidtoname_downlevel.obj
 0002:00007d78       ??_C@_1M@GAOBIPA@?$AAe?$AAs?$AA?9?$AAu?$AAy@ 0000000180029d78     libucrt:lcidtoname_downlevel.obj
 0002:00007d88       ??_C@_1M@JKFFICHJ@?$AAe?$AAs?$AA?9?$AAv?$AAe@ 0000000180029d88     libucrt:lcidtoname_downlevel.obj
 0002:00007d98       ??_C@_1M@PNMLOJDF@?$AAe?$AAt?$AA?9?$AAe?$AAe@ 0000000180029d98     libucrt:lcidtoname_downlevel.obj
 0002:00007da8       ??_C@_1M@GHHLIKEI@?$AAe?$AAu?$AA?9?$AAe?$AAs@ 0000000180029da8     libucrt:lcidtoname_downlevel.obj
 0002:00007db8       ??_C@_1M@PBNONODE@?$AAf?$AAa?$AA?9?$AAi?$AAr@ 0000000180029db8     libucrt:lcidtoname_downlevel.obj
 0002:00007dc8       ??_C@_1M@JEEHPMIL@?$AAf?$AAi?$AA?9?$AAf?$AAi@ 0000000180029dc8     libucrt:lcidtoname_downlevel.obj
 0002:00007dd8       ??_C@_1M@LMDCNDBA@?$AAf?$AAo?$AA?9?$AAf?$AAo@ 0000000180029dd8     libucrt:lcidtoname_downlevel.obj
 0002:00007de8       ??_C@_1M@JKEOHLDK@?$AAf?$AAr?$AA?9?$AAb?$AAe@ 0000000180029de8     libucrt:lcidtoname_downlevel.obj
 0002:00007df8       ??_C@_1M@NOHADPMI@?$AAf?$AAr?$AA?9?$AAc?$AAa@ 0000000180029df8     libucrt:lcidtoname_downlevel.obj
 0002:00007e08       ??_C@_1M@KDHIHAEC@?$AAf?$AAr?$AA?9?$AAc?$AAh@ 0000000180029e08     libucrt:lcidtoname_downlevel.obj
 0002:00007e18       ??_C@_1M@MMBBFGAK@?$AAf?$AAr?$AA?9?$AAf?$AAr@ 0000000180029e18     libucrt:lcidtoname_downlevel.obj
 0002:00007e28       ??_C@_1M@PAFNENNF@?$AAf?$AAr?$AA?9?$AAl?$AAu@ 0000000180029e28     libucrt:lcidtoname_downlevel.obj
 0002:00007e38       ??_C@_1M@EOHDJGDD@?$AAf?$AAr?$AA?9?$AAm?$AAc@ 0000000180029e38     libucrt:lcidtoname_downlevel.obj
 0002:00007e48       ??_C@_1M@FAPLLOPF@?$AAg?$AAl?$AA?9?$AAe?$AAs@ 0000000180029e48     libucrt:lcidtoname_downlevel.obj
 0002:00007e58       ??_C@_1M@FOPBFLOO@?$AAg?$AAu?$AA?9?$AAi?$AAn@ 0000000180029e58     libucrt:lcidtoname_downlevel.obj
 0002:00007e68       ??_C@_1M@KBMCINPM@?$AAh?$AAe?$AA?9?$AAi?$AAl@ 0000000180029e68     libucrt:lcidtoname_downlevel.obj
 0002:00007e78       ??_C@_1M@BBPHKFPJ@?$AAh?$AAi?$AA?9?$AAi?$AAn@ 0000000180029e78     libucrt:lcidtoname_downlevel.obj
 0002:00007e88       ??_C@_1M@PMBNDPHD@?$AAh?$AAr?$AA?9?$AAb?$AAa@ 0000000180029e88     libucrt:lcidtoname_downlevel.obj
 0002:00007e98       ??_C@_1M@BPCKOEGE@?$AAh?$AAr?$AA?9?$AAh?$AAr@ 0000000180029e98     libucrt:lcidtoname_downlevel.obj
 0002:00007ea8       ??_C@_1M@GACBMHKE@?$AAh?$AAu?$AA?9?$AAh?$AAu@ 0000000180029ea8     libucrt:lcidtoname_downlevel.obj
 0002:00007eb8       ??_C@_1M@MILPAJJC@?$AAh?$AAy?$AA?9?$AAa?$AAm@ 0000000180029eb8     libucrt:lcidtoname_downlevel.obj
 0002:00007ec8       ??_C@_1M@BABBICEC@?$AAi?$AAd?$AA?9?$AAi?$AAd@ 0000000180029ec8     libucrt:lcidtoname_downlevel.obj
 0002:00007ed8       ??_C@_1M@BIKNHHPF@?$AAi?$AAs?$AA?9?$AAi?$AAs@ 0000000180029ed8     libucrt:lcidtoname_downlevel.obj
 0002:00007ee8       ??_C@_1M@NMPCJPHE@?$AAi?$AAt?$AA?9?$AAc?$AAh@ 0000000180029ee8     libucrt:lcidtoname_downlevel.obj
 0002:00007ef8       ??_C@_1M@GHKGFEDF@?$AAi?$AAt?$AA?9?$AAi?$AAt@ 0000000180029ef8     libucrt:lcidtoname_downlevel.obj
 0002:00007f08       ??_C@_1M@NIEJCJJA@?$AAj?$AAa?$AA?9?$AAj?$AAp@ 0000000180029f08     libucrt:lcidtoname_downlevel.obj
 0002:00007f18       ??_C@_1M@JILFNBIM@?$AAk?$AAa?$AA?9?$AAg?$AAe@ 0000000180029f18     libucrt:lcidtoname_downlevel.obj
 0002:00007f28       ??_C@_1M@PACPMGPH@?$AAk?$AAk?$AA?9?$AAk?$AAz@ 0000000180029f28     libucrt:lcidtoname_downlevel.obj
 0002:00007f38       ??_C@_1M@IELFGMHA@?$AAk?$AAn?$AA?9?$AAi?$AAn@ 0000000180029f38     libucrt:lcidtoname_downlevel.obj
 0002:00007f48       ??_C@_1O@IBBJHCH@?$AAk?$AAo?$AAk?$AA?9?$AAi?$AAn@ 0000000180029f48     libucrt:lcidtoname_downlevel.obj
 0002:00007f58       ??_C@_1M@DMHAEOGC@?$AAk?$AAo?$AA?9?$AAk?$AAr@ 0000000180029f58     libucrt:lcidtoname_downlevel.obj
 0002:00007f68       ??_C@_1M@HBAHBIGA@?$AAk?$AAy?$AA?9?$AAk?$AAg@ 0000000180029f68     libucrt:lcidtoname_downlevel.obj
 0002:00007f78       ??_C@_1M@KPMILCJG@?$AAl?$AAt?$AA?9?$AAl?$AAt@ 0000000180029f78     libucrt:lcidtoname_downlevel.obj
 0002:00007f88       ??_C@_1M@BDEKKCA@?$AAl?$AAv?$AA?9?$AAl?$AAv@ 0000000180029f88     libucrt:lcidtoname_downlevel.obj
 0002:00007f98       ??_C@_1M@ELCKCCJJ@?$AAm?$AAi?$AA?9?$AAn?$AAz@ 0000000180029f98     libucrt:lcidtoname_downlevel.obj
 0002:00007fa8       ??_C@_1M@CBOOLAPA@?$AAm?$AAk?$AA?9?$AAm?$AAk@ 0000000180029fa8     libucrt:lcidtoname_downlevel.obj
 0002:00007fb8       ??_C@_1M@GPHNBJKN@?$AAm?$AAl?$AA?9?$AAi?$AAn@ 0000000180029fb8     libucrt:lcidtoname_downlevel.obj
 0002:00007fc8       ??_C@_1M@PABJILIG@?$AAm?$AAn?$AA?9?$AAm?$AAn@ 0000000180029fc8     libucrt:lcidtoname_downlevel.obj
 0002:00007fd8       ??_C@_1M@FGBKKIPG@?$AAm?$AAr?$AA?9?$AAi?$AAn@ 0000000180029fd8     libucrt:lcidtoname_downlevel.obj
 0002:00007fe8       ??_C@_1M@NDBPDDAL@?$AAm?$AAs?$AA?9?$AAb?$AAn@ 0000000180029fe8     libucrt:lcidtoname_downlevel.obj
 0002:00007ff8       ??_C@_1M@OPIHOOPI@?$AAm?$AAs?$AA?9?$AAm?$AAy@ 0000000180029ff8     libucrt:lcidtoname_downlevel.obj
 0002:00008008       ??_C@_1M@PPDBCNFM@?$AAm?$AAt?$AA?9?$AAm?$AAt@ 000000018002a008     libucrt:lcidtoname_downlevel.obj
 0002:00008018       ??_C@_1M@KDJDKMDD@?$AAn?$AAb?$AA?9?$AAn?$AAo@ 000000018002a018     libucrt:lcidtoname_downlevel.obj
 0002:00008028       ??_C@_1M@KFCFLMJP@?$AAn?$AAl?$AA?9?$AAb?$AAe@ 000000018002a028     libucrt:lcidtoname_downlevel.obj
 0002:00008038       ??_C@_1M@KPOPDDGO@?$AAn?$AAl?$AA?9?$AAn?$AAl@ 000000018002a038     libucrt:lcidtoname_downlevel.obj
 0002:00008048       ??_C@_1M@LJKPEMLN@?$AAn?$AAn?$AA?9?$AAn?$AAo@ 000000018002a048     libucrt:lcidtoname_downlevel.obj
 0002:00008058       ??_C@_1M@BDGHHBFL@?$AAn?$AAs?$AA?9?$AAz?$AAa@ 000000018002a058     libucrt:lcidtoname_downlevel.obj
 0002:00008068       ??_C@_1M@IDEHOAP@?$AAp?$AAa?$AA?9?$AAi?$AAn@ 000000018002a068     libucrt:lcidtoname_downlevel.obj
 0002:00008078       ??_C@_1M@HDBKGOGH@?$AAp?$AAl?$AA?9?$AAp?$AAl@ 000000018002a078     libucrt:lcidtoname_downlevel.obj
 0002:00008088       ??_C@_1M@LJLLCMEH@?$AAp?$AAt?$AA?9?$AAb?$AAr@ 000000018002a088     libucrt:lcidtoname_downlevel.obj
 0002:00008098       ??_C@_1M@NCMONAAL@?$AAp?$AAt?$AA?9?$AAp?$AAt@ 000000018002a098     libucrt:lcidtoname_downlevel.obj
 0002:000080a8       ??_C@_1O@EAKMAJDN@?$AAq?$AAu?$AAz?$AA?9?$AAb?$AAo@ 000000018002a0a8     libucrt:lcidtoname_downlevel.obj
 0002:000080b8       ??_C@_1O@BHHPIGDN@?$AAq?$AAu?$AAz?$AA?9?$AAe?$AAc@ 000000018002a0b8     libucrt:lcidtoname_downlevel.obj
 0002:000080c8       ??_C@_1O@GBAPEKMJ@?$AAq?$AAu?$AAz?$AA?9?$AAp?$AAe@ 000000018002a0c8     libucrt:lcidtoname_downlevel.obj
 0002:000080d8       ??_C@_1M@CLGLEFBO@?$AAr?$AAo?$AA?9?$AAr?$AAo@ 000000018002a0d8     libucrt:lcidtoname_downlevel.obj
 0002:000080e8       ??_C@_1M@CEEDODME@?$AAr?$AAu?$AA?9?$AAr?$AAu@ 000000018002a0e8     libucrt:lcidtoname_downlevel.obj
 0002:000080f8       ??_C@_1M@HPKKKMPP@?$AAs?$AAa?$AA?9?$AAi?$AAn@ 000000018002a0f8     libucrt:lcidtoname_downlevel.obj
 0002:00008108       ??_C@_1M@BKMAIGOJ@?$AAs?$AAe?$AA?9?$AAf?$AAi@ 000000018002a108     libucrt:lcidtoname_downlevel.obj
 0002:00008118       ??_C@_1M@NDPIFLFI@?$AAs?$AAe?$AA?9?$AAn?$AAo@ 000000018002a118     libucrt:lcidtoname_downlevel.obj
 0002:00008128       ??_C@_1M@DANKKHJ@?$AAs?$AAe?$AA?9?$AAs?$AAe@ 000000018002a128     libucrt:lcidtoname_downlevel.obj
 0002:00008138       ??_C@_1M@PNBLONPJ@?$AAs?$AAk?$AA?9?$AAs?$AAk@ 000000018002a138     libucrt:lcidtoname_downlevel.obj
 0002:00008148       ??_C@_1M@LFMODOAL@?$AAs?$AAl?$AA?9?$AAs?$AAi@ 000000018002a148     libucrt:lcidtoname_downlevel.obj
 0002:00008158       ??_C@_1O@DFKOMPG@?$AAs?$AAm?$AAa?$AA?9?$AAn?$AAo@ 000000018002a158     libucrt:lcidtoname_downlevel.obj
 0002:00008168       ??_C@_1O@NDKPBNNH@?$AAs?$AAm?$AAa?$AA?9?$AAs?$AAe@ 000000018002a168     libucrt:lcidtoname_downlevel.obj
 0002:00008178       ??_C@_1O@PLLKBHAB@?$AAs?$AAm?$AAj?$AA?9?$AAn?$AAo@ 000000018002a178     libucrt:lcidtoname_downlevel.obj
 0002:00008188       ??_C@_1O@CLEPOGCA@?$AAs?$AAm?$AAj?$AA?9?$AAs?$AAe@ 000000018002a188     libucrt:lcidtoname_downlevel.obj
 0002:00008198       ??_C@_1O@DLGJGKMK@?$AAs?$AAm?$AAn?$AA?9?$AAf?$AAi@ 000000018002a198     libucrt:lcidtoname_downlevel.obj
 0002:000081a8       ??_C@_1O@OJDJGAJC@?$AAs?$AAm?$AAs?$AA?9?$AAf?$AAi@ 000000018002a1a8     libucrt:lcidtoname_downlevel.obj
 0002:000081b8       ??_C@_1M@BOFOGHPB@?$AAs?$AAq?$AA?9?$AAa?$AAl@ 000000018002a1b8     libucrt:lcidtoname_downlevel.obj
 0002:000081c8       ??_C@_1BG@LJBBIPGB@?$AAs?$AAr?$AA?9?$AAb?$AAa?$AA?9?$AAc?$AAy?$AAr?$AAl@ 000000018002a1c8     libucrt:lcidtoname_downlevel.obj
 0002:000081e0       ??_C@_1BG@JLBENFOE@?$AAs?$AAr?$AA?9?$AAb?$AAa?$AA?9?$AAl?$AAa?$AAt?$AAn@ 000000018002a1e0     libucrt:lcidtoname_downlevel.obj
 0002:000081f8       ??_C@_1BG@KODPNHE@?$AAs?$AAr?$AA?9?$AAs?$AAp?$AA?9?$AAc?$AAy?$AAr?$AAl@ 000000018002a1f8     libucrt:lcidtoname_downlevel.obj
 0002:00008210       ??_C@_1BG@CIOGKHPB@?$AAs?$AAr?$AA?9?$AAs?$AAp?$AA?9?$AAl?$AAa?$AAt?$AAn@ 000000018002a210     libucrt:lcidtoname_downlevel.obj
 0002:00008228       ??_C@_1M@NGFJLMAC@?$AAs?$AAv?$AA?9?$AAf?$AAi@ 000000018002a228     libucrt:lcidtoname_downlevel.obj
 0002:00008238       ??_C@_1M@MPJEJAJC@?$AAs?$AAv?$AA?9?$AAs?$AAe@ 000000018002a238     libucrt:lcidtoname_downlevel.obj
 0002:00008248       ??_C@_1M@MPNDHLFK@?$AAs?$AAw?$AA?9?$AAk?$AAe@ 000000018002a248     libucrt:lcidtoname_downlevel.obj
 0002:00008258       ??_C@_1O@KOHBJJI@?$AAs?$AAy?$AAr?$AA?9?$AAs?$AAy@ 000000018002a258     libucrt:lcidtoname_downlevel.obj
 0002:00008268       ??_C@_1M@LDCEFHA@?$AAt?$AAa?$AA?9?$AAi?$AAn@ 000000018002a268     libucrt:lcidtoname_downlevel.obj
 0002:00008278       ??_C@_1M@CNJOFAK@?$AAt?$AAe?$AA?9?$AAi?$AAn@ 000000018002a278     libucrt:lcidtoname_downlevel.obj
 0002:00008288       ??_C@_1M@GNAECACD@?$AAt?$AAh?$AA?9?$AAt?$AAh@ 000000018002a288     libucrt:lcidtoname_downlevel.obj
 0002:00008298       ??_C@_1M@CHBIHOJO@?$AAt?$AAn?$AA?9?$AAz?$AAa@ 000000018002a298     libucrt:lcidtoname_downlevel.obj
 0002:000082a8       ??_C@_1M@GCCMIGPJ@?$AAt?$AAr?$AA?9?$AAt?$AAr@ 000000018002a2a8     libucrt:lcidtoname_downlevel.obj
 0002:000082b8       ??_C@_1M@CELMCNBK@?$AAt?$AAt?$AA?9?$AAr?$AAu@ 000000018002a2b8     libucrt:lcidtoname_downlevel.obj
 0002:000082c8       ??_C@_1M@KLMCELGA@?$AAu?$AAk?$AA?9?$AAu?$AAa@ 000000018002a2c8     libucrt:lcidtoname_downlevel.obj
 0002:000082d8       ??_C@_1M@EPAJJAJF@?$AAu?$AAr?$AA?9?$AAp?$AAk@ 000000018002a2d8     libucrt:lcidtoname_downlevel.obj
 0002:000082e8       ??_C@_1BG@GEGPMCDJ@?$AAu?$AAz?$AA?9?$AAu?$AAz?$AA?9?$AAc?$AAy?$AAr?$AAl@ 000000018002a2e8     libucrt:lcidtoname_downlevel.obj
 0002:00008300       ??_C@_1BG@EGGKJILM@?$AAu?$AAz?$AA?9?$AAu?$AAz?$AA?9?$AAl?$AAa?$AAt?$AAn@ 000000018002a300     libucrt:lcidtoname_downlevel.obj
 0002:00008318       ??_C@_1M@GFOCLFF@?$AAv?$AAi?$AA?9?$AAv?$AAn@ 000000018002a318     libucrt:lcidtoname_downlevel.obj
 0002:00008328       ??_C@_1M@CPAMEDFI@?$AAx?$AAh?$AA?9?$AAz?$AAa@ 000000018002a328     libucrt:lcidtoname_downlevel.obj
 0002:00008338       ??_C@_1O@EBKIFIGN@?$AAz?$AAh?$AA?9?$AAc?$AAh?$AAs@ 000000018002a338     libucrt:lcidtoname_downlevel.obj
 0002:00008348       ??_C@_1O@NMHPGANE@?$AAz?$AAh?$AA?9?$AAc?$AAh?$AAt@ 000000018002a348     libucrt:lcidtoname_downlevel.obj
 0002:00008358       ??_C@_1M@LPINJOMC@?$AAz?$AAh?$AA?9?$AAc?$AAn@ 000000018002a358     libucrt:lcidtoname_downlevel.obj
 0002:00008368       ??_C@_1M@OCJEJODD@?$AAz?$AAh?$AA?9?$AAh?$AAk@ 000000018002a368     libucrt:lcidtoname_downlevel.obj
 0002:00008378       ??_C@_1M@DNDLJINH@?$AAz?$AAh?$AA?9?$AAm?$AAo@ 000000018002a378     libucrt:lcidtoname_downlevel.obj
 0002:00008388       ??_C@_1M@MBFDNDND@?$AAz?$AAh?$AA?9?$AAs?$AAg@ 000000018002a388     libucrt:lcidtoname_downlevel.obj
 0002:00008398       ??_C@_1M@IMEPLEPE@?$AAz?$AAh?$AA?9?$AAt?$AAw@ 000000018002a398     libucrt:lcidtoname_downlevel.obj
 0002:000083a8       ??_C@_1M@BBGHNHJP@?$AAz?$AAu?$AA?9?$AAz?$AAa@ 000000018002a3a8     libucrt:lcidtoname_downlevel.obj
 0002:000083c0       ?large_power_data@?1??multiply_by_power_of_ten@__crt_strtox@@YA_NAEAUbig_integer@2@I@Z@4QBIB 000000018002a3c0     libucrt:cfout.obj
 0002:00008d68       ?small_powers_of_ten@?1??multiply_by_power_of_ten@__crt_strtox@@YA_NAEAUbig_integer@2@I@Z@4QBIB 000000018002ad68     libucrt:cfout.obj
 0002:00008d8c       ??_C@_01GBGANLPD@0@        000000018002ad8c     libucrt:cfout.obj
 0002:00008d90       ??_C@_05DNEBIAHO@1?$CDINF@ 000000018002ad90     libucrt:cfout.obj
 0002:00008d98       ??_C@_06IMKFLFPG@1?$CDQNAN@ 000000018002ad98     libucrt:cfout.obj
 0002:00008da0       ??_C@_06PGGFOGJG@1?$CDSNAN@ 000000018002ada0     libucrt:cfout.obj
 0002:00008da8       ??_C@_05PHHOCPM@1?$CDIND@  000000018002ada8     libucrt:cfout.obj
 0002:00008db0       __real@3ff0000000000000    000000018002adb0     libucrt:ceil.obj
 0002:00009010       __log10_256_lead           000000018002b010     libucrt:log10_256_lead_tail_table.obj
 0002:00009820       __log10_256_tail           000000018002b820     libucrt:log10_256_lead_tail_table.obj
 0002:0000a030       __log_F_inv_qword          000000018002c030     libucrt:log_f_inv_qword_table.obj
 0002:0000a840       ??_C@_05HGHHAHAP@log10@    000000018002c840     libucrt:log_special.obj
 0002:0000a848       ??_C@_1BA@BALFACEM@?$AAC?$AAO?$AAN?$AAO?$AAU?$AAT?$AA$@ 000000018002c848     libucrt:initcon.obj
 0002:0000a8d0       _load_config_used          000000018002c8d0     LIBCMT:loadcfg.obj
 0002:0000a9d8       _tls_used                  000000018002c9d8     LIBCMT:tlssup.obj
 0002:0000aa00       ??_R4exception@std@@6B@    000000018002ca00     LIBCMT:throw_bad_alloc.obj
 0002:0000aa28       ??_R3exception@std@@8      000000018002ca28     LIBCMT:throw_bad_alloc.obj
 0002:0000aa40       ??_R2exception@std@@8      000000018002ca40     LIBCMT:throw_bad_alloc.obj
 0002:0000aa50       ??_R1A@?0A@EA@exception@std@@8 000000018002ca50     LIBCMT:throw_bad_alloc.obj
 0002:0000aa78       ??_R4bad_alloc@std@@6B@    000000018002ca78     LIBCMT:throw_bad_alloc.obj
 0002:0000aaa0       ??_R3bad_alloc@std@@8      000000018002caa0     LIBCMT:throw_bad_alloc.obj
 0002:0000aab8       ??_R2bad_alloc@std@@8      000000018002cab8     LIBCMT:throw_bad_alloc.obj
 0002:0000aad0       ??_R1A@?0A@EA@bad_alloc@std@@8 000000018002cad0     LIBCMT:throw_bad_alloc.obj
 0002:0000aaf8       ??_R4bad_array_new_length@std@@6B@ 000000018002caf8     LIBCMT:throw_bad_alloc.obj
 0002:0000ab20       ??_R3bad_array_new_length@std@@8 000000018002cb20     LIBCMT:throw_bad_alloc.obj
 0002:0000ab38       ??_R2bad_array_new_length@std@@8 000000018002cb38     LIBCMT:throw_bad_alloc.obj
 0002:0000ab58       ??_R1A@?0A@EA@bad_array_new_length@std@@8 000000018002cb58     LIBCMT:throw_bad_alloc.obj
 0002:0000ab80       ??_R4type_info@@6B@        000000018002cb80     LIBCMT:std_type_info_static.obj
 0002:0000aba8       ??_R3type_info@@8          000000018002cba8     LIBCMT:std_type_info_static.obj
 0002:0000abc0       ??_R2type_info@@8          000000018002cbc0     LIBCMT:std_type_info_static.obj
 0002:0000abd0       ??_R1A@?0A@EA@type_info@@8 000000018002cbd0     LIBCMT:std_type_info_static.obj
 0002:0000abf8       ??_R4bad_exception@std@@6B@ 000000018002cbf8     libvcruntime:frame.obj
 0002:0000ac20       ??_R3bad_exception@std@@8  000000018002cc20     libvcruntime:frame.obj
 0002:0000ac38       ??_R2bad_exception@std@@8  000000018002cc38     libvcruntime:frame.obj
 0002:0000ac50       ??_R1A@?0A@EA@bad_exception@std@@8 000000018002cc50     libvcruntime:frame.obj
 0002:0000b080       __rtc_iaa                  000000018002d080     LIBCMT:initsect.obj
 0002:0000b088       __rtc_izz                  000000018002d088     LIBCMT:initsect.obj
 0002:0000b090       __rtc_taa                  000000018002d090     LIBCMT:initsect.obj
 0002:0000b098       __rtc_tzz                  000000018002d098     LIBCMT:initsect.obj
 0002:0000b0a0       _tls_start                 000000018002d0a0     LIBCMT:tlssup.obj
 0002:0000b0a4       _Init_thread_epoch         000000018002d0a4     LIBCMT:thread_safe_statics.obj
 0002:0000b0a8       _tls_end                   000000018002d0a8     LIBCMT:tlssup.obj
 0002:0000c6a8       _TI2?AVbad_alloc@std@@     000000018002e6a8     LIBCMT:throw_bad_alloc.obj
 0002:0000c6c8       _CTA2?AVbad_alloc@std@@    000000018002e6c8     LIBCMT:throw_bad_alloc.obj
 0002:0000c6e0       _CT??_R0?AVbad_alloc@std@@@8??0bad_alloc@std@@QEAA@AEBV01@@Z24 000000018002e6e0     LIBCMT:throw_bad_alloc.obj
 0002:0000c708       _CT??_R0?AVexception@std@@@8??0exception@std@@QEAA@AEBV01@@Z24 000000018002e708     LIBCMT:throw_bad_alloc.obj
 0002:0000c730       _TI3?AVbad_array_new_length@std@@ 000000018002e730     LIBCMT:throw_bad_alloc.obj
 0002:0000c750       _CTA3?AVbad_array_new_length@std@@ 000000018002e750     LIBCMT:throw_bad_alloc.obj
 0002:0000c770       _CT??_R0?AVbad_array_new_length@std@@@8??0bad_array_new_length@std@@QEAA@AEBV01@@Z24 000000018002e770     LIBCMT:throw_bad_alloc.obj
 0002:0000c798       _TI2?AVbad_exception@std@@ 000000018002e798     libvcruntime:frame.obj
 0002:0000c7b8       _CTA2?AVbad_exception@std@@ 000000018002e7b8     libvcruntime:frame.obj
 0002:0000c7d0       _CT??_R0?AVbad_exception@std@@@8??0bad_exception@std@@QEAA@AEBV01@@Z24 000000018002e7d0     libvcruntime:frame.obj
 0002:0000c7f8       __pobjMapEntryFirst        000000018002e7f8     OposVariant.obj
 0002:0000c800       __pobjMapEntryLast         000000018002e800     OposVariant.obj
 0002:0000c8c0       __IMPORT_DESCRIPTOR_KERNEL32 000000018002e8c0     kernel32:KERNEL32.dll
 0002:0000c8d4       __IMPORT_DESCRIPTOR_USER32 000000018002e8d4     user32:USER32.dll
 0002:0000c8e8       __IMPORT_DESCRIPTOR_GDI32  000000018002e8e8     gdi32:GDI32.dll
 0002:0000c8fc       __IMPORT_DESCRIPTOR_ADVAPI32 000000018002e8fc     advapi32:ADVAPI32.dll
 0002:0000c910       __IMPORT_DESCRIPTOR_ole32  000000018002e910     ole32:ole32.dll
 0002:0000c924       __IMPORT_DESCRIPTOR_OLEAUT32 000000018002e924     oleaut32:OLEAUT32.dll
 0002:0000c938       __NULL_IMPORT_DESCRIPTOR   000000018002e938     kernel32:KERNEL32.dll
 0003:00000000       ?_tih@?$IDispatchImpl@UIOPOSItemDispenser@@$1?IID_IOPOSItemDispenser@@3U_GUID@@B$1?LIBID_OposItemDispenser_CCO@@3U3@B$00$0A@VCComTypeInfoHolder@ATL@@@ATL@@1VCComTypeInfoHolder@2@A 0000000180030000     ItemDispenser.obj
 0003:00000038       ?_tih@?$IProvideClassInfo2Impl@$1?CLSID_OPOSItemDispenser@@3U_GUID@@B$1?DIID__IOPOSItemDispenserEvents@@3U2@B$1?LIBID_OposItemDispenser_CCO@@3U2@B$00$0A@VCComTypeInfoHolder@ATL@@@ATL@@1VCComTypeInfoHolder@2@A 0000000180030038     ItemDispenser.obj
 0003:00000070       ?vszContents@?6??Save@?$IPersistStorageImpl@VCOPOSItemDispenser@@@ATL@@UEAAJPEAUIStorage@@H@Z@4PEB_WEB 0000000180030070     ItemDispenser.obj
 0003:00000080       ?wc@?1??GetWndClassInfo@?$CWindowImpl@VCOPOSItemDispenser@@VCWindow@ATL@@V?$CWinTraits@$0FGAAAAAA@$0A@@3@@ATL@@SAAEAU_ATL_WNDCLASSINFOW@3@XZ@4U43@A 0000000180030080     ItemDispenser.obj
 0003:00000178       ?rcDefault@CWindow@ATL@@2UtagRECT@@A 0000000180030178     ItemDispenser.obj
 0003:00000188       ?s_Claim@?7??GetIDsOfNames@CComTypeInfoHolder@ATL@@QEAAJAEBU_GUID@@PEAPEA_WIKPEAJ@Z@4PA_WA 0000000180030188     ItemDispenser.obj
 0003:000001a0       ?s_Release@?7??GetIDsOfNames@CComTypeInfoHolder@ATL@@QEAAJAEBU_GUID@@PEAPEA_WIKPEAJ@Z@4PA_WA 00000001800301a0     ItemDispenser.obj
 0003:00000250       ?g_WindowName@@3PA_WA      0000000180030250     ItemDispenserImpl.obj
 0003:00000280       ?g_ControlDescription@@3PADA 0000000180030280     ItemDispenserImpl.obj
 0003:000002d0       ?g_ControlVersion@@3JA     00000001800302d0     ItemDispenserImpl.obj
 0003:00000380       __scrt_native_dllmain_reason 0000000180030380     LIBCMT:utility.obj
 0003:00000384       _Init_global_epoch         0000000180030384     LIBCMT:thread_safe_statics.obj
 0003:00000390       __security_cookie_complement 0000000180030390     LIBCMT:gs_cookie.obj
 0003:00000398       __security_cookie          0000000180030398     LIBCMT:gs_cookie.obj
 0003:000003a0       __isa_available            00000001800303a0     LIBCMT:cpu_disp.obj
 0003:000003a4       __isa_enabled              00000001800303a4     LIBCMT:cpu_disp.obj
 0003:000003a8       __memcpy_nt_iters          00000001800303a8     LIBCMT:cpu_disp.obj
 0003:000003b0       __memset_nt_iters          00000001800303b0     LIBCMT:cpu_disp.obj
 0003:000003d8       __abort_behavior           00000001800303d8     libucrt:abort.obj
 0003:000003f0       _iob                       00000001800303f0     libucrt:_file.obj
 0003:00000500       __acrt_initial_locale_data 0000000180030500     libucrt:nlsdata.obj
 0003:00000658       __acrt_initial_locale_pointers 0000000180030658     libucrt:nlsdata.obj
 0003:00000668       __acrt_wide_c_locale_string 0000000180030668     libucrt:nlsdata.obj
 0003:00000670       __acrt_initial_multibyte_data 0000000180030670     libucrt:mbctype.obj
 0003:00000bb0       _pwctype                   0000000180030bb0     libucrt:ctype.obj
 0003:00000bb8       __globallocalestatus       0000000180030bb8     libucrt:glstatus.obj
 0003:00000bc0       __acrt_lconv_c             0000000180030bc0     libucrt:localeconv.obj
 0003:00000c58       __acrt_lconv_static_decimal 0000000180030c58     libucrt:localeconv.obj
 0003:00000c5c       __acrt_lconv_static_W_decimal 0000000180030c5c     libucrt:localeconv.obj
 0003:00000c60       _lookuptrailbytes          0000000180030c60     libucrt:read.obj
 0003:00000d74       _fltused                   0000000180030d74     LIBCMT:fltused.obj
 0003:00000d78       ??_R0?AVbad_alloc@std@@@8  0000000180030d78     LIBCMT:throw_bad_alloc.obj
 0003:00000da0       ??_R0?AVexception@std@@@8  0000000180030da0     LIBCMT:throw_bad_alloc.obj
 0003:00000dc8       ??_R0?AVbad_array_new_length@std@@@8 0000000180030dc8     LIBCMT:throw_bad_alloc.obj
 0003:00000df8       ??_R0?AVtype_info@@@8      0000000180030df8     LIBCMT:std_type_info_static.obj
 0003:00000e18       ??_R0?AVbad_exception@std@@@8 0000000180030e18     libvcruntime:frame.obj
 0003:00000e40       ?_pPerfRegFunc@ATL@@3P6AJPEAUHINSTANCE__@@@ZEA 0000000180030e40     OposVariant.obj
 0003:00000e48       ?_pPerfUnRegFunc@ATL@@3P6AJXZEA 0000000180030e48     OposVariant.obj
 0003:00000e50       ?_AtlRegisterPerUser@ATL@@3_NA 0000000180030e50     OposVariant.obj
 0003:00000e58       ?_pAtlModule@ATL@@3PEAVCAtlModule@1@EA 0000000180030e58     OposVariant.obj
 0003:00000e60       ?_pModule@ATL@@3PEAVCComModule@1@EA 0000000180030e60     OposVariant.obj
 0003:00000e68       ?m_bInitFailed@CAtlBaseModule@ATL@@2_NA 0000000180030e68     OposVariant.obj
 0003:00000e70       ?_AtlComModule@ATL@@3VCAtlComModule@1@A 0000000180030e70     OposVariant.obj
 0003:00000ec0       ?_AtlWinModule@ATL@@3VCAtlWinModule@1@A 0000000180030ec0     OposVariant.obj
 0003:00000f08       ?_entries@?1??GetConnMap@COPOSItemDispenser@@SAPEBU_ATL_CONNMAP_ENTRY@ATL@@PEAH@Z@4QBU34@B 0000000180030f08     ItemDispenser.obj
 0003:00000f20       ?$TSS0@?1??GetConnMap@COPOSItemDispenser@@SAPEBU_ATL_CONNMAP_ENTRY@ATL@@PEAH@Z@4HA 0000000180030f20     ItemDispenser.obj
 0003:00000f28       ?m_libid@CAtlModule@ATL@@2U_GUID@@A 0000000180030f28     ItemDispenser.obj
 0003:00000f38       ?_OptionsStorage@?1??__local_stdio_printf_options@@9@4_KA 0000000180030f38     ItemDispenser.obj
 0003:00000f40       ?pfnRegDeleteKeyEx@?1??DeleteSubKey@CRegKey@ATL@@QEAAJPEB_W@Z@4P6AJPEAUHKEY__@@0KK@ZEA 0000000180030f40     ItemDispenser.obj
 0003:00000f48       ?bInitialized@?1??DeleteSubKey@CRegKey@ATL@@QEAAJPEB_W@Z@4_NA 0000000180030f48     ItemDispenser.obj
 0003:00000f50       ?_Module@@3VCComModule@ATL@@A 0000000180030f50     ItemDispenser.obj
 0003:00000fa0       ?pConnMap@?$IConnectionPointContainerImpl@VCOPOSItemDispenser@@@ATL@@0PEBU_ATL_CONNMAP_ENTRY@2@EB 0000000180030fa0     ItemDispenser.obj
 0003:00000fa8       ?s_nInstances@COPOSItemDispenser@@1HA 0000000180030fa8     ItemDispenserImpl.obj
 0003:00000fb0       __scrt_current_native_startup_state 0000000180030fb0     LIBCMT:utility.obj
 0003:00000fb8       __scrt_native_startup_lock 0000000180030fb8     LIBCMT:utility.obj
 0003:000015b0       _tls_index                 00000001800315b0     LIBCMT:tlssup.obj
 0003:000015b8       __favor                    00000001800315b8     LIBCMT:cpu_disp.obj
 0003:000015bc       __scrt_debugger_hook_flag  00000001800315bc     LIBCMT:utility_desktop.obj
 0003:000015c0       ?__type_info_root_node@@3U__type_info_node@@A 00000001800315c0     LIBCMT:tncleanup.obj
 0003:000015d0       ?_OptionsStorage@?1??__local_stdio_scanf_options@@9@4_KA 00000001800315d0     LIBCMT:default_local_stdio_options.obj
 0003:000015e0       ?_AtlBaseModule@ATL@@3VCAtlBaseModule@1@A 00000001800315e0     atls:atlbase.obj
 0003:00001640       ?__AtlThunkPool@@3PEAT_SLIST_HEADER@@EA 0000000180031640     atls:atlthunk.obj
 0003:0000166c       __@@_PchSym_@00@UztvmgUPdlipUFUhUrmgvinvwrzgvUexgllohUzgohOmzgrevkilqPBACIAJCBDBUlyqiUznwGEUhgwzucOlyq@4B2008FD98C1DD4 000000018003166c     atls:stdafx.obj
 0003:00001670       ?__WinRTOutOfMemoryExceptionCallback@@3P6APEAXXZEA 0000000180031670     libvcruntime:ehhelpers.obj
 0003:00001678       __pPurecall                0000000180031678     libvcruntime:purevirt_data.obj
 0003:00001730       ?pArgList@UnDecorator@@0PEAVReplicator@@EA 0000000180031730     libvcruntime:undname.obj
 0003:00001738       ?pZNameList@UnDecorator@@0PEAVReplicator@@EA 0000000180031738     libvcruntime:undname.obj
 0003:00001740       ?pTemplateArgList@UnDecorator@@0PEAVReplicator@@EA 0000000180031740     libvcruntime:undname.obj
 0003:00001748       ?gName@UnDecorator@@0PEBDEB 0000000180031748     libvcruntime:undname.obj
 0003:00001750       ?name@UnDecorator@@0PEBDEB 0000000180031750     libvcruntime:undname.obj
 0003:00001758       ?disableFlags@UnDecorator@@0KA 0000000180031758     libvcruntime:undname.obj
 0003:0000175c       ?fExplicitTemplateParams@UnDecorator@@0_NA 000000018003175c     libvcruntime:undname.obj
 0003:0000175d       ?fGetTemplateArgumentList@UnDecorator@@0_NA 000000018003175d     libvcruntime:undname.obj
 0003:00001760       ?m_pGetParameter@UnDecorator@@0P6APEADJ@ZEA 0000000180031760     libvcruntime:undname.obj
 0003:00001768       ?m_CHPENameOffset@UnDecorator@@0KA 0000000180031768     libvcruntime:undname.obj
 0003:0000176c       ?m_recursionLevel@UnDecorator@@0KA 000000018003176c     libvcruntime:undname.obj
 0003:000017f0       ?c_exit_complete@?1???R<lambda_6e4b09c48022b2350581041d5f6b0c4c>@@QEBA@XZ@4_NA 00000001800317f0     libucrt:exit.obj
 0003:00001908       _environ_table             0000000180031908     libucrt:environment_initialization.obj
 0003:00001910       _wenviron_table            0000000180031910     libucrt:environment_initialization.obj
 0003:00001918       __dcrt_initial_wide_environment 0000000180031918     libucrt:environment_initialization.obj
 0003:00001920       __dcrt_initial_narrow_environment 0000000180031920     libucrt:environment_initialization.obj
 0003:00001928       __acrt_atexit_table        0000000180031928     libucrt:onexit.obj
 0003:00001940       __acrt_at_quick_exit_table 0000000180031940     libucrt:onexit.obj
 0003:00001b18       _nstream                   0000000180031b18     libucrt:_file.obj
 0003:00001b20       __piob                     0000000180031b20     libucrt:_file.obj
 0003:00001b30       __acrt_stdout_buffer       0000000180031b30     libucrt:_sftbuf.obj
 0003:00001b38       __acrt_stderr_buffer       0000000180031b38     libucrt:_sftbuf.obj
 0003:00001b40       __acrt_locale_changed_data 0000000180031b40     libucrt:wsetlocale.obj
 0003:00001b48       __acrt_current_locale_data 0000000180031b48     libucrt:nlsdata.obj
 0003:00001b50       __pioinfo                  0000000180031b50     libucrt:ioinit.obj
 0003:00001f50       _nhandle                   0000000180031f50     libucrt:ioinit.obj
 0003:00002198       _mbctype                   0000000180032198     libucrt:mbctype.obj
 0003:000021a0       _mbcasemap                 00000001800321a0     libucrt:mbctype.obj
 0003:000021a8       __acrt_current_multibyte_data 00000001800321a8     libucrt:mbctype.obj
 0003:000021b8       _pgmptr                    00000001800321b8     libucrt:argv_data.obj
 0003:000021c0       __argc                     00000001800321c0     libucrt:argv_data.obj
 0003:000021c8       __argv                     00000001800321c8     libucrt:argv_data.obj
 0003:000021d0       __wargv                    00000001800321d0     libucrt:argv_data.obj
 0003:000021d8       _acmdln                    00000001800321d8     libucrt:argv_data.obj
 0003:000021e0       _wcmdln                    00000001800321e0     libucrt:argv_data.obj
 0003:000021e8       __acrt_heap                00000001800321e8     libucrt:heap_handle.obj
 0003:0000221c       __acrt_lconv_static_null   000000018003221c     libucrt:localeconv.obj
 0003:00002220       __acrt_lconv_static_W_null 0000000180032220     libucrt:localeconv.obj
 0003:00002234       __fma3_is_available        0000000180032234     libucrt:fma3_available.obj
 0003:00002238       __use_fma3_lib             0000000180032238     libucrt:fma3_available.obj
 0003:00002240       __dyn_tls_init_callback    0000000180032240     <common>
 0003:00002248       __scrt_ucrt_dll_is_in_use  0000000180032248     <common>

 entry point at        0001:0000e8f4

 Static symbols

 0000:fffc5000       .debug$S                   0000000180000000     OPOSItemDispenser.exp
 0000:fffc5000       .debug$S                   0000000180000000     advapi32:ADVAPI32.dll
 0000:fffc5000       .debug$S                   0000000180000000     advapi32:ADVAPI32.dll
 0000:fffc5000       .debug$S                   0000000180000000     advapi32:ADVAPI32.dll
 0000:fffc5000       .debug$S                   0000000180000000     advapi32:ADVAPI32.dll
 0000:fffc5000       .debug$S                   0000000180000000     advapi32:ADVAPI32.dll
 0000:fffc5000       .debug$S                   0000000180000000     advapi32:ADVAPI32.dll
 0000:fffc5000       .debug$S                   0000000180000000     advapi32:ADVAPI32.dll
 0000:fffc5000       .debug$S                   0000000180000000     advapi32:ADVAPI32.dll
 0000:fffc5000       .debug$S                   0000000180000000     advapi32:ADVAPI32.dll
 0000:fffc5000       .debug$S                   0000000180000000     gdi32:GDI32.dll
 0000:fffc5000       .debug$S                   0000000180000000     gdi32:GDI32.dll
 0000:fffc5000       .debug$S                   0000000180000000     gdi32:GDI32.dll
 0000:fffc5000       .debug$S                   0000000180000000     gdi32:GDI32.dll
 0000:fffc5000       .debug$S                   0000000180000000     gdi32:GDI32.dll
 0000:fffc5000       .debug$S                   0000000180000000     gdi32:GDI32.dll
 0000:fffc5000       .debug$S                   0000000180000000     gdi32:GDI32.dll
 0000:fffc5000       .debug$S                   0000000180000000     gdi32:GDI32.dll
 0000:fffc5000       .debug$S                   0000000180000000     gdi32:GDI32.dll
 0000:fffc5000       .debug$S                   0000000180000000     gdi32:GDI32.dll
 0000:fffc5000       .debug$S                   0000000180000000     gdi32:GDI32.dll
 0000:fffc5000       .debug$S                   0000000180000000     gdi32:GDI32.dll
 0000:fffc5000       .debug$S                   0000000180000000     gdi32:GDI32.dll
 0000:fffc5000       .debug$S                   0000000180000000     gdi32:GDI32.dll
 0000:fffc5000       .debug$S                   0000000180000000     gdi32:GDI32.dll
 0000:fffc5000       .debug$S                   0000000180000000     gdi32:GDI32.dll
 0000:fffc5000       .debug$S                   0000000180000000     gdi32:GDI32.dll
 0000:fffc5000       .debug$S                   0000000180000000     gdi32:GDI32.dll
 0000:fffc5000       .debug$S                   0000000180000000     gdi32:GDI32.dll
 0000:fffc5000       .debug$S                   0000000180000000     kernel32:KERNEL32.dll
 0000:fffc5000       .debug$S                   0000000180000000     kernel32:KERNEL32.dll
 0000:fffc5000       .debug$S                   0000000180000000     kernel32:KERNEL32.dll
 0000:fffc5000       .debug$S                   0000000180000000     kernel32:KERNEL32.dll
 0000:fffc5000       .debug$S                   0000000180000000     kernel32:KERNEL32.dll
 0000:fffc5000       .debug$S                   0000000180000000     kernel32:KERNEL32.dll
 0000:fffc5000       .debug$S                   0000000180000000     kernel32:KERNEL32.dll
 0000:fffc5000       .debug$S                   0000000180000000     kernel32:KERNEL32.dll
 0000:fffc5000       .debug$S                   0000000180000000     kernel32:KERNEL32.dll
 0000:fffc5000       .debug$S                   0000000180000000     kernel32:KERNEL32.dll
 0000:fffc5000       .debug$S                   0000000180000000     kernel32:KERNEL32.dll
 0000:fffc5000       .debug$S                   0000000180000000     kernel32:KERNEL32.dll
 0000:fffc5000       .debug$S                   0000000180000000     kernel32:KERNEL32.dll
 0000:fffc5000       .debug$S                   0000000180000000     kernel32:KERNEL32.dll
 0000:fffc5000       .debug$S                   0000000180000000     kernel32:KERNEL32.dll
 0000:fffc5000       .debug$S                   0000000180000000     kernel32:KERNEL32.dll
 0000:fffc5000       .debug$S                   0000000180000000     kernel32:KERNEL32.dll
 0000:fffc5000       .debug$S                   0000000180000000     kernel32:KERNEL32.dll
 0000:fffc5000       .debug$S                   0000000180000000     kernel32:KERNEL32.dll
 0000:fffc5000       .debug$S                   0000000180000000     kernel32:KERNEL32.dll
 0000:fffc5000       .debug$S                   0000000180000000     kernel32:KERNEL32.dll
 0000:fffc5000       .debug$S                   0000000180000000     kernel32:KERNEL32.dll
 0000:fffc5000       .debug$S                   0000000180000000     kernel32:KERNEL32.dll
 0000:fffc5000       .debug$S                   0000000180000000     kernel32:KERNEL32.dll
 0000:fffc5000       .debug$S                   0000000180000000     kernel32:KERNEL32.dll
 0000:fffc5000       .debug$S                   0000000180000000     kernel32:KERNEL32.dll
 0000:fffc5000       .debug$S                   0000000180000000     kernel32:KERNEL32.dll
 0000:fffc5000       .debug$S                   0000000180000000     kernel32:KERNEL32.dll
 0000:fffc5000       .debug$S                   0000000180000000     kernel32:KERNEL32.dll
 0000:fffc5000       .debug$S                   0000000180000000     kernel32:KERNEL32.dll
 0000:fffc5000       .debug$S                   0000000180000000     kernel32:KERNEL32.dll
 0000:fffc5000       .debug$S                   0000000180000000     kernel32:KERNEL32.dll
 0000:fffc5000       .debug$S                   0000000180000000     kernel32:KERNEL32.dll
 0000:fffc5000       .debug$S                   0000000180000000     kernel32:KERNEL32.dll
 0000:fffc5000       .debug$S                   0000000180000000     kernel32:KERNEL32.dll
 0000:fffc5000       .debug$S                   0000000180000000     kernel32:KERNEL32.dll
 0000:fffc5000       .debug$S                   0000000180000000     kernel32:KERNEL32.dll
 0000:fffc5000       .debug$S                   0000000180000000     kernel32:KERNEL32.dll
 0000:fffc5000       .debug$S                   0000000180000000     kernel32:KERNEL32.dll
 0000:fffc5000       .debug$S                   0000000180000000     kernel32:KERNEL32.dll
 0000:fffc5000       .debug$S                   0000000180000000     kernel32:KERNEL32.dll
 0000:fffc5000       .debug$S                   0000000180000000     kernel32:KERNEL32.dll
 0000:fffc5000       .debug$S                   0000000180000000     kernel32:KERNEL32.dll
 0000:fffc5000       .debug$S                   0000000180000000     kernel32:KERNEL32.dll
 0000:fffc5000       .debug$S                   0000000180000000     kernel32:KERNEL32.dll
 0000:fffc5000       .debug$S                   0000000180000000     kernel32:KERNEL32.dll
 0000:fffc5000       .debug$S                   0000000180000000     kernel32:KERNEL32.dll
 0000:fffc5000       .debug$S                   0000000180000000     kernel32:KERNEL32.dll
 0000:fffc5000       .debug$S                   0000000180000000     kernel32:KERNEL32.dll
 0000:fffc5000       .debug$S                   0000000180000000     kernel32:KERNEL32.dll
 0000:fffc5000       .debug$S                   0000000180000000     kernel32:KERNEL32.dll
 0000:fffc5000       .debug$S                   0000000180000000     kernel32:KERNEL32.dll
 0000:fffc5000       .debug$S                   0000000180000000     kernel32:KERNEL32.dll
 0000:fffc5000       .debug$S                   0000000180000000     kernel32:KERNEL32.dll
 0000:fffc5000       .debug$S                   0000000180000000     kernel32:KERNEL32.dll
 0000:fffc5000       .debug$S                   0000000180000000     kernel32:KERNEL32.dll
 0000:fffc5000       .debug$S                   0000000180000000     kernel32:KERNEL32.dll
 0000:fffc5000       .debug$S                   0000000180000000     kernel32:KERNEL32.dll
 0000:fffc5000       .debug$S                   0000000180000000     kernel32:KERNEL32.dll
 0000:fffc5000       .debug$S                   0000000180000000     kernel32:KERNEL32.dll
 0000:fffc5000       .debug$S                   0000000180000000     kernel32:KERNEL32.dll
 0000:fffc5000       .debug$S                   0000000180000000     kernel32:KERNEL32.dll
 0000:fffc5000       .debug$S                   0000000180000000     kernel32:KERNEL32.dll
 0000:fffc5000       .debug$S                   0000000180000000     kernel32:KERNEL32.dll
 0000:fffc5000       .debug$S                   0000000180000000     kernel32:KERNEL32.dll
 0000:fffc5000       .debug$S                   0000000180000000     kernel32:KERNEL32.dll
 0000:fffc5000       .debug$S                   0000000180000000     kernel32:KERNEL32.dll
 0000:fffc5000       .debug$S                   0000000180000000     kernel32:KERNEL32.dll
 0000:fffc5000       .debug$S                   0000000180000000     kernel32:KERNEL32.dll
 0000:fffc5000       .debug$S                   0000000180000000     kernel32:KERNEL32.dll
 0000:fffc5000       .debug$S                   0000000180000000     kernel32:KERNEL32.dll
 0000:fffc5000       .debug$S                   0000000180000000     kernel32:KERNEL32.dll
 0000:fffc5000       .debug$S                   0000000180000000     kernel32:KERNEL32.dll
 0000:fffc5000       .debug$S                   0000000180000000     kernel32:KERNEL32.dll
 0000:fffc5000       .debug$S                   0000000180000000     kernel32:KERNEL32.dll
 0000:fffc5000       .debug$S                   0000000180000000     kernel32:KERNEL32.dll
 0000:fffc5000       .debug$S                   0000000180000000     kernel32:KERNEL32.dll
 0000:fffc5000       .debug$S                   0000000180000000     kernel32:KERNEL32.dll
 0000:fffc5000       .debug$S                   0000000180000000     kernel32:KERNEL32.dll
 0000:fffc5000       .debug$S                   0000000180000000     kernel32:KERNEL32.dll
 0000:fffc5000       .debug$S                   0000000180000000     kernel32:KERNEL32.dll
 0000:fffc5000       .debug$S                   0000000180000000     kernel32:KERNEL32.dll
 0000:fffc5000       .debug$S                   0000000180000000     kernel32:KERNEL32.dll
 0000:fffc5000       .debug$S                   0000000180000000     kernel32:KERNEL32.dll
 0000:fffc5000       .debug$S                   0000000180000000     kernel32:KERNEL32.dll
 0000:fffc5000       .debug$S                   0000000180000000     kernel32:KERNEL32.dll
 0000:fffc5000       .debug$S                   0000000180000000     kernel32:KERNEL32.dll
 0000:fffc5000       .debug$S                   0000000180000000     kernel32:KERNEL32.dll
 0000:fffc5000       .debug$S                   0000000180000000     kernel32:KERNEL32.dll
 0000:fffc5000       .debug$S                   0000000180000000     kernel32:KERNEL32.dll
 0000:fffc5000       .debug$S                   0000000180000000     kernel32:KERNEL32.dll
 0000:fffc5000       .debug$S                   0000000180000000     kernel32:KERNEL32.dll
 0000:fffc5000       .debug$S                   0000000180000000     kernel32:KERNEL32.dll
 0000:fffc5000       .debug$S                   0000000180000000     kernel32:KERNEL32.dll
 0000:fffc5000       .debug$S                   0000000180000000     kernel32:KERNEL32.dll
 0000:fffc5000       .debug$S                   0000000180000000     kernel32:KERNEL32.dll
 0000:fffc5000       .debug$S                   0000000180000000     kernel32:KERNEL32.dll
 0000:fffc5000       .debug$S                   0000000180000000     kernel32:KERNEL32.dll
 0000:fffc5000       .debug$S                   0000000180000000     kernel32:KERNEL32.dll
 0000:fffc5000       .debug$S                   0000000180000000     kernel32:KERNEL32.dll
 0000:fffc5000       .debug$S                   0000000180000000     kernel32:KERNEL32.dll
 0000:fffc5000       .debug$S                   0000000180000000     kernel32:KERNEL32.dll
 0000:fffc5000       .debug$S                   0000000180000000     kernel32:KERNEL32.dll
 0000:fffc5000       .debug$S                   0000000180000000     kernel32:KERNEL32.dll
 0000:fffc5000       .debug$S                   0000000180000000     kernel32:KERNEL32.dll
 0000:fffc5000       .debug$S                   0000000180000000     kernel32:KERNEL32.dll
 0000:fffc5000       .debug$S                   0000000180000000     kernel32:KERNEL32.dll
 0000:fffc5000       .debug$S                   0000000180000000     kernel32:KERNEL32.dll
 0000:fffc5000       .debug$S                   0000000180000000     kernel32:KERNEL32.dll
 0000:fffc5000       .debug$S                   0000000180000000     kernel32:KERNEL32.dll
 0000:fffc5000       .debug$S                   0000000180000000     kernel32:KERNEL32.dll
 0000:fffc5000       .debug$S                   0000000180000000     ole32:ole32.dll
 0000:fffc5000       .debug$S                   0000000180000000     ole32:ole32.dll
 0000:fffc5000       .debug$S                   0000000180000000     ole32:ole32.dll
 0000:fffc5000       .debug$S                   0000000180000000     ole32:ole32.dll
 0000:fffc5000       .debug$S                   0000000180000000     ole32:ole32.dll
 0000:fffc5000       .debug$S                   0000000180000000     ole32:ole32.dll
 0000:fffc5000       .debug$S                   0000000180000000     ole32:ole32.dll
 0000:fffc5000       .debug$S                   0000000180000000     ole32:ole32.dll
 0000:fffc5000       .debug$S                   0000000180000000     ole32:ole32.dll
 0000:fffc5000       .debug$S                   0000000180000000     ole32:ole32.dll
 0000:fffc5000       .debug$S                   0000000180000000     ole32:ole32.dll
 0000:fffc5000       .debug$S                   0000000180000000     ole32:ole32.dll
 0000:fffc5000       .debug$S                   0000000180000000     ole32:ole32.dll
 0000:fffc5000       .debug$S                   0000000180000000     ole32:ole32.dll
 0000:fffc5000       .debug$S                   0000000180000000     oleaut32:OLEAUT32.dll
 0000:fffc5000       .debug$S                   0000000180000000     oleaut32:OLEAUT32.dll
 0000:fffc5000       .debug$S                   0000000180000000     oleaut32:OLEAUT32.dll
 0000:fffc5000       .debug$S                   0000000180000000     oleaut32:OLEAUT32.dll
 0000:fffc5000       .debug$S                   0000000180000000     oleaut32:OLEAUT32.dll
 0000:fffc5000       .debug$S                   0000000180000000     oleaut32:OLEAUT32.dll
 0000:fffc5000       .debug$S                   0000000180000000     oleaut32:OLEAUT32.dll
 0000:fffc5000       .debug$S                   0000000180000000     oleaut32:OLEAUT32.dll
 0000:fffc5000       .debug$S                   0000000180000000     oleaut32:OLEAUT32.dll
 0000:fffc5000       .debug$S                   0000000180000000     oleaut32:OLEAUT32.dll
 0000:fffc5000       .debug$S                   0000000180000000     oleaut32:OLEAUT32.dll
 0000:fffc5000       .debug$S                   0000000180000000     oleaut32:OLEAUT32.dll
 0000:fffc5000       .debug$S                   0000000180000000     oleaut32:OLEAUT32.dll
 0000:fffc5000       .debug$S                   0000000180000000     oleaut32:OLEAUT32.dll
 0000:fffc5000       .debug$S                   0000000180000000     oleaut32:OLEAUT32.dll
 0000:fffc5000       .debug$S                   0000000180000000     oleaut32:OLEAUT32.dll
 0000:fffc5000       .debug$S                   0000000180000000     user32:USER32.dll
 0000:fffc5000       .debug$S                   0000000180000000     user32:USER32.dll
 0000:fffc5000       .debug$S                   0000000180000000     user32:USER32.dll
 0000:fffc5000       .debug$S                   0000000180000000     user32:USER32.dll
 0000:fffc5000       .debug$S                   0000000180000000     user32:USER32.dll
 0000:fffc5000       .debug$S                   0000000180000000     user32:USER32.dll
 0000:fffc5000       .debug$S                   0000000180000000     user32:USER32.dll
 0000:fffc5000       .debug$S                   0000000180000000     user32:USER32.dll
 0000:fffc5000       .debug$S                   0000000180000000     user32:USER32.dll
 0000:fffc5000       .debug$S                   0000000180000000     user32:USER32.dll
 0000:fffc5000       .debug$S                   0000000180000000     user32:USER32.dll
 0000:fffc5000       .debug$S                   0000000180000000     user32:USER32.dll
 0000:fffc5000       .debug$S                   0000000180000000     user32:USER32.dll
 0000:fffc5000       .debug$S                   0000000180000000     user32:USER32.dll
 0000:fffc5000       .debug$S                   0000000180000000     user32:USER32.dll
 0000:fffc5000       .debug$S                   0000000180000000     user32:USER32.dll
 0000:fffc5000       .debug$S                   0000000180000000     user32:USER32.dll
 0000:fffc5000       .debug$S                   0000000180000000     user32:USER32.dll
 0000:fffc5000       .debug$S                   0000000180000000     user32:USER32.dll
 0000:fffc5000       .debug$S                   0000000180000000     user32:USER32.dll
 0000:fffc5000       .debug$S                   0000000180000000     user32:USER32.dll
 0000:fffc5000       .debug$S                   0000000180000000     user32:USER32.dll
 0000:fffc5000       .debug$S                   0000000180000000     user32:USER32.dll
 0000:fffc5000       .debug$S                   0000000180000000     user32:USER32.dll
 0000:fffc5000       .debug$S                   0000000180000000     user32:USER32.dll
 0000:fffc5000       .debug$S                   0000000180000000     user32:USER32.dll
 0000:fffc5000       .debug$S                   0000000180000000     user32:USER32.dll
 0000:fffc5000       .debug$S                   0000000180000000     user32:USER32.dll
 0000:fffc5000       .debug$S                   0000000180000000     user32:USER32.dll
 0000:fffc5000       .debug$S                   0000000180000000     user32:USER32.dll
 0000:fffc5000       .debug$S                   0000000180000000     user32:USER32.dll
 0000:fffc5000       .debug$S                   0000000180000000     user32:USER32.dll
 0000:fffc5000       .debug$S                   0000000180000000     user32:USER32.dll
 0000:fffc5000       .debug$S                   0000000180000000     user32:USER32.dll
 0000:fffc5000       .debug$S                   0000000180000000     user32:USER32.dll
 0001:00000000       ??__E_AtlComModule@ATL@@YAXXZ 0000000180001000 f   OposVariant.obj
 0001:00000020       ??__E_AtlWinModule@ATL@@YAXXZ 0000000180001020 f   OposVariant.obj
 0001:00000040       ??__E?pConnMap@?$IConnectionPointContainerImpl@VCOPOSItemDispenser@@@ATL@@0PEBU_ATL_CONNMAP_ENTRY@2@EB@@YAXXZ 0000000180001040 f   ItemDispenser.obj
 0001:00000058       ??__E_Module@@YAXXZ        0000000180001058 f   ItemDispenser.obj
 0001:00000094       ??__E_AtlBaseModule@ATL@@YAXXZ 0000000180001094 f   atls:atlbase.obj
 0001:0000df00       ?__scrt_initialize_thread_safe_statics@@YAHXZ 000000018000ef00 f   LIBCMT:thread_safe_statics.obj
 0001:0000dfd0       ?__scrt_uninitialize_thread_safe_statics@@YAXXZ 000000018000efd0 f   LIBCMT:thread_safe_statics.obj
 0001:0000e320       capture_current_context    000000018000f320 f   LIBCMT:gs_report.obj
 0001:0000e390       capture_previous_context   000000018000f390 f   LIBCMT:gs_report.obj
 0001:0000e530       $$000000                   000000018000f530     LIBCMT:chkstk.obj
 0001:0000e5a0       $$000000                   000000018000f5a0     LIBCMT:amdsecgs.obj
 0001:0000e5d4       ?dllmain_crt_dispatch@@YAHQEAUHINSTANCE__@@KQEAX@Z 000000018000f5d4 f   LIBCMT:dll_dllmain.obj
 0001:0000e624       ?dllmain_crt_process_attach@@YAHQEAUHINSTANCE__@@QEAX@Z 000000018000f624 f   LIBCMT:dll_dllmain.obj
 0001:0000e73c       ?dllmain_crt_process_detach@@YAH_N@Z 000000018000f73c f   LIBCMT:dll_dllmain.obj
 0001:0000e7c0       ?dllmain_dispatch@@YAHQEAUHINSTANCE__@@KQEAX@Z 000000018000f7c0 f   LIBCMT:dll_dllmain.obj
 0001:0000f088       ??$GetProcAddressAll@P6AP6A_JPEAUHWND__@@I_K_J@ZPEAUAtlThunkData_t@@@Z@@YAP6AP6A_JPEAUHWND__@@I_K_J@ZPEAUAtlThunkData_t@@@ZPEAP6AP6A_J0I12@Z3@Z@Z 0000000180010088 f   atls:atlthunk.obj
 0001:0000f088       ??$GetProcAddressAll@P6APEAUAtlThunkData_t@@XZ@@YAP6APEAUAtlThunkData_t@@XZPEAP6APEAU0@XZ@Z 0000000180010088 f   atls:atlthunk.obj
 0001:0000f088       ??$GetProcAddressAll@P6AXPEAUAtlThunkData_t@@@Z@@YAP6AXPEAUAtlThunkData_t@@@ZPEAP6AX0@Z@Z 0000000180010088 f   atls:atlthunk.obj
 0001:0000f088       ??$GetProcAddressAll@P6AXPEAUAtlThunkData_t@@PEAX_K@Z@@YAP6AXPEAUAtlThunkData_t@@PEAX_K@ZPEAP6AX012@Z@Z 0000000180010088 f   atls:atlthunk.obj
 0001:0000f260       ?__InitializeThunkPool@@YAHXZ 0000000180010260 f   atls:atlthunk.obj
 0001:0000f700       $$000000                   0000000180010700     libvcruntime:memcmp.obj
 0001:0000f7e0       $$000000                   00000001800107e0     libvcruntime:memcpy.obj
 0001:0000fbf0       $$000000                   0000000180010bf0     libvcruntime:memset.obj
 0001:00010af0       $$000000                   0000000180011af0     libvcruntime:notify.obj
 0001:00010c78       ??$BuildCatchObjectHelperInternal@V__FrameHandler3@@@@YAHPEAUEHExceptionRecord@@PEAXPEBU_s_HandlerType@@PEBU_s_CatchableType@@@Z 0000000180011c78 f   libvcruntime:frame.obj
 0001:00010e78       ??$BuildCatchObjectInternal@V__FrameHandler3@@@@YAXPEAUEHExceptionRecord@@PEAXPEBU_s_HandlerType@@PEBU_s_CatchableType@@@Z 0000000180011e78 f   libvcruntime:frame.obj
 0001:00010f38       ??$CatchIt@V__FrameHandler3@@@@YAXPEAUEHExceptionRecord@@PEA_KPEAU_CONTEXT@@PEAU_xDISPATCHER_CONTEXT@@PEBU_s_FuncInfo@@PEBU_s_HandlerType@@PEBU_s_CatchableType@@PEBU_s_TryBlockMapEntry@@H1EE@Z 0000000180011f38 f   libvcruntime:frame.obj
 0001:0001100c       ??$FindHandler@V__FrameHandler3@@@@YAXPEAUEHExceptionRecord@@PEA_KPEAU_CONTEXT@@PEAU_xDISPATCHER_CONTEXT@@PEBU_s_FuncInfo@@EH1@Z 000000018001200c f   libvcruntime:frame.obj
 0001:00011504       ??$FindHandlerForForeignException@V__FrameHandler3@@@@YAXPEAUEHExceptionRecord@@PEA_KPEAU_CONTEXT@@PEAU_xDISPATCHER_CONTEXT@@PEBU_s_FuncInfo@@HH1@Z 0000000180012504 f   libvcruntime:frame.obj
 0001:00011cec       ?ExFilterRethrow@@YAHPEAU_EXCEPTION_POINTERS@@PEAUEHExceptionRecord@@PEAH@Z 0000000180012cec f   libvcruntime:frame.obj
 0001:00011f98       ?IsInExceptionSpec@@YAEPEAUEHExceptionRecord@@PEBU_s_ESTypeList@@@Z 0000000180012f98 f   libvcruntime:frame.obj
 0001:00012088       ?Is_bad_exception_allowed@@YAEPEBU_s_ESTypeList@@@Z 0000000180013088 f   libvcruntime:frame.obj
 0001:0001212c       ?try_get_function@@YAPEAXW4function_id@?A0x81a78551@@QEBDQEBW4module_id@2@2@Z 000000018001312c f   libvcruntime:winapi_downlevel.obj
 0001:00012420       $$000000                   0000000180013420     libvcruntime:handlers.obj
 0001:00012c38       ??$common_vsprintf@Vformat_validation_base@__crt_stdio_output@@_W@@YAH_KQEA_W0QEB_WQEAU__crt_locale_pointers@@QEAD@Z 0000000180013c38 f   libucrt:output.obj
 0001:00014468       ??$?RV<lambda_d80eeec6fff315bfe5c115232f3240e3>@@AEAV<lambda_6e4b09c48022b2350581041d5f6b0c4c>@@V<lambda_2358e3775559c9db80273638284d5e45>@@@?$__crt_seh_guarded_call@X@@QEAAX$$QEAV<lambda_d80eeec6fff315bfe5c115232f3240e3>@@AEAV<lambda_6e4b09c48022b2350581041d5f6b0c4c>@@$$QEAV<lambda_2358e3775559c9db80273638284d5e45>@@@Z 0000000180015468 f   libucrt:exit.obj
 0001:000144a0       ??R<lambda_6e4b09c48022b2350581041d5f6b0c4c>@@QEBA@XZ 00000001800154a0 f   libucrt:exit.obj
 0001:00014564       ?atexit_exception_filter@@YAHK@Z 0000000180015564 f   libucrt:exit.obj
 0001:00014570       ?common_exit@@YAXHW4_crt_exit_cleanup_mode@@W4_crt_exit_return_mode@@@Z 0000000180015570 f   libucrt:exit.obj
 0001:0001462c       ?exit_or_terminate_process@@YAXI@Z 000000018001562c f   libucrt:exit.obj
 0001:00014678       ?try_cor_exit_process@@YAXI@Z 0000000180015678 f   libucrt:exit.obj
 0001:00014700       ??$parse_command_line@D@@YAXPEADPEAPEAD0PEA_K2@Z 0000000180015700 f   libucrt:argv_parsing.obj
 0001:00014aac       ??$common_initialize_environment_nolock@D@@YAHXZ 0000000180015aac f   libucrt:environment_initialization.obj
 0001:00014b18       ??$create_environment@D@@YAQEAPEADQEAD@Z 0000000180015b18 f   libucrt:environment_initialization.obj
 0001:00014c20       ??$free_environment@D@@YAXQEAPEAD@Z 0000000180015c20 f   libucrt:environment_initialization.obj
 0001:00014c20       ??$free_environment@_W@@YAXQEAPEA_W@Z 0000000180015c20 f   libucrt:environment_initialization.obj
 0001:00014c64       ??$uninitialize_environment_internal@D@@YAXAEAPEAPEAD@Z 0000000180015c64 f   libucrt:environment_initialization.obj
 0001:00014c80       ??$uninitialize_environment_internal@_W@@YAXAEAPEAPEA_W@Z 0000000180015c80 f   libucrt:environment_initialization.obj
 0001:00014cdc       ??$?RV<lambda_638799b9deba96c50f710eeac98168cd>@@AEAV<lambda_22ebabd17bc4fa466a2aca6d8deb888d>@@V<lambda_a6f7d7db0129f75315ebf26d50c089f1>@@@?$__crt_seh_guarded_call@H@@QEAAH$$QEAV<lambda_638799b9deba96c50f710eeac98168cd>@@AEAV<lambda_22ebabd17bc4fa466a2aca6d8deb888d>@@$$QEAV<lambda_a6f7d7db0129f75315ebf26d50c089f1>@@@Z 0000000180015cdc f   libucrt:onexit.obj
 0001:00014d18       ??$?RV<lambda_7777bce6b2f8c936911f934f8298dc43>@@AEAV<lambda_f03950bc5685219e0bcd2087efbe011e>@@V<lambda_3883c3dff614d5e0c5f61bb1ac94921c>@@@?$__crt_seh_guarded_call@H@@QEAAH$$QEAV<lambda_7777bce6b2f8c936911f934f8298dc43>@@AEAV<lambda_f03950bc5685219e0bcd2087efbe011e>@@$$QEAV<lambda_3883c3dff614d5e0c5f61bb1ac94921c>@@@Z 0000000180015d18 f   libucrt:onexit.obj
 0001:00014d54       ??R<lambda_22ebabd17bc4fa466a2aca6d8deb888d>@@QEBAHXZ 0000000180015d54 f   libucrt:onexit.obj
 0001:00014f04       ??R<lambda_f03950bc5685219e0bcd2087efbe011e>@@QEBAHXZ 0000000180015f04 f   libucrt:onexit.obj
 0001:000150d8       initialize_global_variables 00000001800160d8 f   libucrt:initialization.obj
 0001:000150ec       initialize_c               00000001800160ec f   libucrt:initialization.obj
 0001:00015110       initialize_environment     0000000180016110 f   libucrt:initialization.obj
 0001:00015110       initialize_global_state_isolation 0000000180016110 f   libucrt:initialization.obj
 0001:00015110       report_memory_leaks        0000000180016110 f   libucrt:initialization.obj
 0001:00015110       uninitialize_c             0000000180016110 f   libucrt:initialization.obj
 0001:00015110       uninitialize_global_state_isolation 0000000180016110 f   libucrt:initialization.obj
 0001:00015114       uninitialize_environment   0000000180016114 f   libucrt:initialization.obj
 0001:00015124       initialize_pointers        0000000180016124 f   libucrt:initialization.obj
 0001:00015164       uninitialize_vcruntime     0000000180016164 f   libucrt:initialization.obj
 0001:0001516c       uninitialize_allocated_memory 000000018001616c f   libucrt:initialization.obj
 0001:000151ac       uninitialize_allocated_io_buffers 00000001800161ac f   libucrt:initialization.obj
 0001:00015b20       $$000000                   0000000180016b20     libucrt:strncmp.obj
 0001:00015c1c       ??$?RV<lambda_0ae27a3a962d80f24befdcbee591983d>@@AEAV<lambda_8d0ee55de4b1038c4002e0adecdf1839>@@V<lambda_dc504788e8f1664fe9b84e20bfb512f2>@@@?$__crt_seh_guarded_call@X@@QEAAX$$QEAV<lambda_0ae27a3a962d80f24befdcbee591983d>@@AEAV<lambda_8d0ee55de4b1038c4002e0adecdf1839>@@$$QEAV<lambda_dc504788e8f1664fe9b84e20bfb512f2>@@@Z 0000000180016c1c f   libucrt:per_thread_data.obj
 0001:00015c5c       ??$?RV<lambda_2d41944a1d46af3157314b8a01080d33>@@AEAV<lambda_8f455de75cd7d7f24b4096f044d8b9e6>@@V<lambda_aa500f224e6afead328df44964fe2772>@@@?$__crt_seh_guarded_call@X@@QEAAX$$QEAV<lambda_2d41944a1d46af3157314b8a01080d33>@@AEAV<lambda_8f455de75cd7d7f24b4096f044d8b9e6>@@$$QEAV<lambda_aa500f224e6afead328df44964fe2772>@@@Z 0000000180016c5c f   libucrt:per_thread_data.obj
 0001:00015c9c       ??$?RV<lambda_aa87e3671a710a21b5dc78c0bdf72e11>@@AEAV<lambda_92619d2358a28f41a33ba319515a20b9>@@V<lambda_6992ecaafeb10aed2b74cb1fae11a551>@@@?$__crt_seh_guarded_call@X@@QEAAX$$QEAV<lambda_aa87e3671a710a21b5dc78c0bdf72e11>@@AEAV<lambda_92619d2358a28f41a33ba319515a20b9>@@$$QEAV<lambda_6992ecaafeb10aed2b74cb1fae11a551>@@@Z 0000000180016c9c f   libucrt:per_thread_data.obj
 0001:00015ce4       ??$?RV<lambda_f2e299630e499de9f9a165e60fcd3db5>@@AEAV<lambda_2ae9d31cdba2644fcbeaf08da7c24588>@@V<lambda_40d01ff24d0e7b3814fdbdcee8eab3c7>@@@?$__crt_seh_guarded_call@X@@QEAAX$$QEAV<lambda_f2e299630e499de9f9a165e60fcd3db5>@@AEAV<lambda_2ae9d31cdba2644fcbeaf08da7c24588>@@$$QEAV<lambda_40d01ff24d0e7b3814fdbdcee8eab3c7>@@@Z 0000000180016ce4 f   libucrt:per_thread_data.obj
 0001:00015d44       ?construct_ptd_array@@YAXQEAU__acrt_ptd@@@Z 0000000180016d44 f   libucrt:per_thread_data.obj
 0001:00015e14       ?destroy_fls@@YAXPEAX@Z    0000000180016e14 f   libucrt:per_thread_data.obj
 0001:00015e34       ?destroy_ptd_array@@YAXQEAU__acrt_ptd@@@Z 0000000180016e34 f   libucrt:per_thread_data.obj
 0001:00015f2c       ?replace_current_thread_locale_nolock@@YAXQEAU__acrt_ptd@@QEAU__crt_locale_data@@@Z 0000000180016f2c f   libucrt:per_thread_data.obj
 0001:00016410       ?try_get_function@@YAPEAXW4function_id@?A0x391cf84c@@QEBDQEBW4module_id@2@2@Z 0000000180017410 f   libucrt:winapi_thunks.obj
 0001:00016de0       ?fp_format_a@@YAHQEBNPEAD_KQEAD2H_NIQEAU__crt_locale_pointers@@@Z 0000000180017de0 f   libucrt:cvt.obj
 0001:00017150       ?fp_format_e@@YAHQEBNQEAD_K12H_NIQEAU__crt_locale_pointers@@@Z 0000000180018150 f   libucrt:cvt.obj
 0001:0001722c       ?fp_format_e_internal@@YAHQEAD_KH_NIQEAU_strflt@@2QEAU__crt_locale_pointers@@@Z 000000018001822c f   libucrt:cvt.obj
 0001:00017400       ?fp_format_f_internal@@YAHQEAD_KHQEAU_strflt@@_NQEAU__crt_locale_pointers@@@Z 0000000180018400 f   libucrt:cvt.obj
 0001:00017544       ?fp_format_g@@YAHQEBNQEAD_K12H_NIQEAU__crt_locale_pointers@@@Z 0000000180018544 f   libucrt:cvt.obj
 0001:00017b50       ??$?RV<lambda_410d79af7f07d98d83a3f525b3859a53>@@AEAV<lambda_3e16ef9562a7dcce91392c22ab16ea36>@@V<lambda_38119f0e861e05405d8a144b9b982f0a>@@@?$__crt_seh_guarded_call@X@@QEAAX$$QEAV<lambda_410d79af7f07d98d83a3f525b3859a53>@@AEAV<lambda_3e16ef9562a7dcce91392c22ab16ea36>@@$$QEAV<lambda_38119f0e861e05405d8a144b9b982f0a>@@@Z 0000000180018b50 f   libucrt:wsetlocale.obj
 0001:00017bfc       ?initialize_inherited_file_handles_nolock@@YAXXZ 0000000180018bfc f   libucrt:ioinit.obj
 0001:00017cec       ?initialize_stdio_handles_nolock@@YAXXZ 0000000180018cec f   libucrt:ioinit.obj
 0001:00017f68       ?<lambda_invoker_cdecl>@<lambda_a1ce4c8ae42411fd470c77163914f50e>@@CAHPEBX0@Z 0000000180018f68 f   libucrt:argv_wildcards.obj
 0001:00018280       ??$common_expand_argv_wildcards@D@@YAHQEAPEADQEAPEAPEAD@Z 0000000180019280 f   libucrt:argv_wildcards.obj
 0001:0001848c       ??$copy_and_add_argument_to_buffer@D@@YAHQEBD0_KAEAV?$argument_list@D@?A0x5f5c8891@@@Z 000000018001948c f   libucrt:argv_wildcards.obj
 0001:00018614       ??$expand_argument_wildcards@D@@YAHQEAD0AEAV?$argument_list@D@?A0x5f5c8891@@@Z 0000000180019614 f   libucrt:argv_wildcards.obj
 0001:00018b60       ??$?RV<lambda_efdfa57d1f175319df784efa44bb7b81>@@AEAV<lambda_5f0a4c1567f8adc6734073e5d1e1b35c>@@V<lambda_2e8a7d3640ea6ccb4c2413664c2db6fd>@@@?$__crt_seh_guarded_call@X@@QEAAX$$QEAV<lambda_efdfa57d1f175319df784efa44bb7b81>@@AEAV<lambda_5f0a4c1567f8adc6734073e5d1e1b35c>@@$$QEAV<lambda_2e8a7d3640ea6ccb4c2413664c2db6fd>@@@Z 0000000180019b60 f   libucrt:mbctype.obj
 0001:00018d1c       ?getSystemCP@@YAHH@Z       0000000180019d1c f   libucrt:mbctype.obj
 0001:00018d9c       ?setSBCS@@YAXPEAU__crt_multibyte_data@@@Z 0000000180019d9c f   libucrt:mbctype.obj
 0001:00018e2c       ?setSBUpLow@@YAXPEAU__crt_multibyte_data@@@Z 0000000180019e2c f   libucrt:mbctype.obj
 0001:00019010       ?setmbcp_internal@@YAHH_NQEAU__acrt_ptd@@QEAPEAU__crt_multibyte_data@@@Z 000000018001a010 f   libucrt:mbctype.obj
 0001:000191d4       ?update_thread_multibyte_data_internal@@YAPEAU__crt_multibyte_data@@QEAU__acrt_ptd@@QEAPEAU1@@Z 000000018001a1d4 f   libucrt:mbctype.obj
 0001:000195c4       ?x_ismbbtype_l@@YAHPEAU__crt_locale_pointers@@IHH@Z 000000018001a5c4 f   libucrt:ismbbyte.obj
 0001:00019954       ??$?RV<lambda_450d765d439847d4c735a33c368b5fc0>@@AEAV<lambda_44731a7d0e6d81c3e6aa82d741081786>@@V<lambda_601a2a7da3b7a96e9554ac7215c4b07c>@@@?$__crt_seh_guarded_call@P6AXH@Z@@QEAAP6AXH@Z$$QEAV<lambda_450d765d439847d4c735a33c368b5fc0>@@AEAV<lambda_44731a7d0e6d81c3e6aa82d741081786>@@$$QEAV<lambda_601a2a7da3b7a96e9554ac7215c4b07c>@@@Z 000000018001a954 f   libucrt:signal.obj
 0001:00019cb0       ??$?RV<lambda_842d9ff0dc9ef11c61343bbaebe7f885>@@AEAV<lambda_c5860995281e5c4ce005b3de8f5874ee>@@V<lambda_d90129c13df834fdcbf8d2b88dafcf2d>@@@?$__crt_seh_guarded_call@X@@QEAAX$$QEAV<lambda_842d9ff0dc9ef11c61343bbaebe7f885>@@AEAV<lambda_c5860995281e5c4ce005b3de8f5874ee>@@$$QEAV<lambda_d90129c13df834fdcbf8d2b88dafcf2d>@@@Z 000000018001acb0 f   libucrt:fflush.obj
 0001:00019d4c       ??$?RV<lambda_886d6c58226a84441f68b9f2b8217b83>@@AEAV<lambda_ab61a845afdef5b7c387490eaf3616ee>@@V<lambda_f7f22ab5edc0698d5f6905b0d3f44752>@@@?$__crt_seh_guarded_call@X@@QEAAX$$QEAV<lambda_886d6c58226a84441f68b9f2b8217b83>@@AEAV<lambda_ab61a845afdef5b7c387490eaf3616ee>@@$$QEAV<lambda_f7f22ab5edc0698d5f6905b0d3f44752>@@@Z 000000018001ad4c f   libucrt:fflush.obj
 0001:00019e2c       ?common_flush_all@@YAH_N@Z 000000018001ae2c f   libucrt:fflush.obj
 0001:0001be00       memcpy_s                   000000018001ce00 f   libucrt:cfout.obj
 0001:0001c154       ?free_crt_array_internal@@YAXQEAPEBX_K@Z 000000018001d154 f   libucrt:inittime.obj
 0001:0001cbf4       fallbackMethod             000000018001dbf4 f   libucrt:strpbrk.obj
 0001:0001cfc4       $LN78                      000000018001dfc4     libucrt:strpbrk.obj
 0001:0001d000       $LN77                      000000018001e000     libucrt:strpbrk.obj
 0001:0001d040       $LN76                      000000018001e040     libucrt:strpbrk.obj
 0001:0001d11c       ?__acrt_LCMapStringA_stat@@YAHPEAU__crt_locale_pointers@@PEB_WKPEBDHPEADHHH@Z 000000018001e11c f   libucrt:lcmapstringa.obj
 0001:0001d4cc       ?initialize_multibyte@@YAHXZ 000000018001e4cc f   libucrt:multibyte_initializer.obj
 0001:0001d4e4       ??$?RV<lambda_a37b2b86f63e897a80ea819b0eb08c01>@@AEAV<lambda_38ce7e780aa69e748d6df282ebc68efe>@@V<lambda_99fb1378e971ab6e7edea83e3a7a83a2>@@@?$__crt_seh_guarded_call@H@@QEAAH$$QEAV<lambda_a37b2b86f63e897a80ea819b0eb08c01>@@AEAV<lambda_38ce7e780aa69e748d6df282ebc68efe>@@$$QEAV<lambda_99fb1378e971ab6e7edea83e3a7a83a2>@@@Z 000000018001e4e4 f   libucrt:commit.obj
 0001:0001d604       ?write_double_translated_ansi_nolock@@YA?AUwrite_result@?A0x17268360@@HQEBDI@Z 000000018001e604 f   libucrt:write.obj
 0001:0001dad4       ?write_text_ansi_nolock@@YA?AUwrite_result@?A0x17268360@@HQEBDI@Z 000000018001ead4 f   libucrt:write.obj
 0001:0001dbd8       ?write_text_utf16le_nolock@@YA?AUwrite_result@?A0x17268360@@HQEBDI@Z 000000018001ebd8 f   libucrt:write.obj
 0001:0001dcf4       ?write_text_utf8_nolock@@YA?AUwrite_result@?A0x17268360@@HQEBDI@Z 000000018001ecf4 f   libucrt:write.obj
 0001:0001e5e0       $$000000                   000000018001f5e0     libucrt:log10.obj
 0001:0001eb8c       ??$common_lseek_nolock@_J@@YA_JH_JH@Z 000000018001fb8c f   libucrt:lseek.obj
 0001:0001f0f8       _call_matherr              00000001800200f8 f   libucrt:libm_error.obj
 0001:0001f160       _exception_enabled         0000000180020160 f   libucrt:libm_error.obj
 0001:0001f3f0       _log_special_common        00000001800203f0 f   libucrt:log_special.obj
 0001:0001f488       ??$?RV<lambda_751a882b2c74d4b022dec766aa51a29a>@@AEAV<lambda_628dfdc04ba53c8bfc02c9951375f3f5>@@V<lambda_f6c7be5f7998530c34de24c7437d6b54>@@@?$__crt_seh_guarded_call@H@@QEAAH$$QEAV<lambda_751a882b2c74d4b022dec766aa51a29a>@@AEAV<lambda_628dfdc04ba53c8bfc02c9951375f3f5>@@$$QEAV<lambda_f6c7be5f7998530c34de24c7437d6b54>@@@Z 0000000180020488 f   libucrt:close.obj
 0001:0001f7b0       $$000000                   00000001800207b0     libucrt:fpsr.obj
 0001:0001fe50       $$000000                   0000000180020e50     LIBCMT:guard_dispatch.obj
 0001:0001fe70       ?filt$0@?0??_AtlVerifyStackAvailable@_ATL_SAFE_ALLOCA_IMPL@ATL@@YA_N_K@Z@4HA 0000000180020e70 f   ItemDispenser.obj
 0001:0001fe91       __scrt_is_nonwritable_in_current_image$filt$0 0000000180020e91 f   LIBCMT:utility.obj
 0001:0001fea9       ?catch$0@?0???2@YAPEAX_KAEBUnothrow_t@std@@@Z@4HA 0000000180020ea9 f   LIBCMT:new_scalar_nothrow.obj
 0001:0001feb6       __catch$??2@YAPEAX_KAEBUnothrow_t@std@@@Z$0 0000000180020eb6 f   LIBCMT:new_scalar_nothrow.obj
 0001:0001fec4       ?fin$0@?0??dllmain_crt_process_attach@@YAHQEAUHINSTANCE__@@QEAX@Z@4HA 0000000180020ec4 f   LIBCMT:dll_dllmain.obj
 0001:0001fedb       ?fin$0@?0??dllmain_crt_process_detach@@YAH_N@Z@4HA 0000000180020edb f   LIBCMT:dll_dllmain.obj
 0001:0001fef4       ?fin$1@?0??dllmain_crt_process_detach@@YAH_N@Z@4HA 0000000180020ef4 f   LIBCMT:dll_dllmain.obj
 0001:0001ff08       ?filt$0@?0??dllmain_dispatch@@YAHQEAUHINSTANCE__@@KQEAX@Z@4HA 0000000180020f08 f   LIBCMT:dll_dllmain.obj
 0001:0001ff3e       ?filt$0@?0???$_CallSETranslator@V__FrameHandler3@@@@YAHPEAUEHExceptionRecord@@PEA_KPEAU_CONTEXT@@PEAU_xDISPATCHER_CONTEXT@@PEBU_s_FuncInfo@@K1@Z@4HA 0000000180020f3e f   libvcruntime:risctrnsctrl.obj
 0001:0001ffcf       __DestructExceptionObject$filt$0 0000000180020fcf f   libvcruntime:ehhelpers.obj
 0001:00020065       ?filt$0@?0??CxxCallCatchBlock@__FrameHandler3@@SAPEAXPEAU_EXCEPTION_RECORD@@@Z@4HA 0000000180021065 f   libvcruntime:frame.obj
 0001:0002008a       ?fin$1@?0??CxxCallCatchBlock@__FrameHandler3@@SAPEAXPEAU_EXCEPTION_RECORD@@@Z@4HA 000000018002108a f   libvcruntime:frame.obj
 0001:00020102       ?filt$0@?0??FrameUnwindToState@__FrameHandler3@@SAXPEA_KPEAU_xDISPATCHER_CONTEXT@@PEBU_s_FuncInfo@@H@Z@4HA 0000000180021102 f   libvcruntime:frame.obj
 0001:00020118       ?fin$1@?0??FrameUnwindToState@__FrameHandler3@@SAXPEA_KPEAU_xDISPATCHER_CONTEXT@@PEBU_s_FuncInfo@@H@Z@4HA 0000000180021118 f   libvcruntime:frame.obj
 0001:0002013b       ?fin$0@?0???$?RV<lambda_0ae27a3a962d80f24befdcbee591983d>@@AEAV<lambda_8d0ee55de4b1038c4002e0adecdf1839>@@V<lambda_dc504788e8f1664fe9b84e20bfb512f2>@@@?$__crt_seh_guarded_call@X@@QEAAX$$QEAV<lambda_0ae27a3a962d80f24befdcbee591983d>@@AEAV<lambda_8d0ee55de4b1038c4002e0adecdf1839>@@$$QEAV<lambda_dc504788e8f1664fe9b84e20bfb512f2>@@@Z@4HA 000000018002113b f   libucrt:per_thread_data.obj
 0001:0002013b       ?fin$0@?0???$?RV<lambda_2d41944a1d46af3157314b8a01080d33>@@AEAV<lambda_8f455de75cd7d7f24b4096f044d8b9e6>@@V<lambda_aa500f224e6afead328df44964fe2772>@@@?$__crt_seh_guarded_call@X@@QEAAX$$QEAV<lambda_2d41944a1d46af3157314b8a01080d33>@@AEAV<lambda_8f455de75cd7d7f24b4096f044d8b9e6>@@$$QEAV<lambda_aa500f224e6afead328df44964fe2772>@@@Z@4HA 000000018002113b f   libucrt:per_thread_data.obj
 0001:0002013b       ?fin$0@?0???$?RV<lambda_aa87e3671a710a21b5dc78c0bdf72e11>@@AEAV<lambda_92619d2358a28f41a33ba319515a20b9>@@V<lambda_6992ecaafeb10aed2b74cb1fae11a551>@@@?$__crt_seh_guarded_call@X@@QEAAX$$QEAV<lambda_aa87e3671a710a21b5dc78c0bdf72e11>@@AEAV<lambda_92619d2358a28f41a33ba319515a20b9>@@$$QEAV<lambda_6992ecaafeb10aed2b74cb1fae11a551>@@@Z@4HA 000000018002113b f   libucrt:per_thread_data.obj
 0001:0002013b       ?fin$0@?0???$?RV<lambda_f2e299630e499de9f9a165e60fcd3db5>@@AEAV<lambda_2ae9d31cdba2644fcbeaf08da7c24588>@@V<lambda_40d01ff24d0e7b3814fdbdcee8eab3c7>@@@?$__crt_seh_guarded_call@X@@QEAAX$$QEAV<lambda_f2e299630e499de9f9a165e60fcd3db5>@@AEAV<lambda_2ae9d31cdba2644fcbeaf08da7c24588>@@$$QEAV<lambda_40d01ff24d0e7b3814fdbdcee8eab3c7>@@@Z@4HA 000000018002113b f   libucrt:per_thread_data.obj
 0001:0002013b       ?fin$0@?0???$?RV<lambda_efdfa57d1f175319df784efa44bb7b81>@@AEAV<lambda_5f0a4c1567f8adc6734073e5d1e1b35c>@@V<lambda_2e8a7d3640ea6ccb4c2413664c2db6fd>@@@?$__crt_seh_guarded_call@X@@QEAAX$$QEAV<lambda_efdfa57d1f175319df784efa44bb7b81>@@AEAV<lambda_5f0a4c1567f8adc6734073e5d1e1b35c>@@$$QEAV<lambda_2e8a7d3640ea6ccb4c2413664c2db6fd>@@@Z@4HA 000000018002113b f   libucrt:mbctype.obj
 0001:0002013b       ?fin$0@?0???$?RV<lambda_450d765d439847d4c735a33c368b5fc0>@@AEAV<lambda_44731a7d0e6d81c3e6aa82d741081786>@@V<lambda_601a2a7da3b7a96e9554ac7215c4b07c>@@@?$__crt_seh_guarded_call@P6AXH@Z@@QEAAP6AXH@Z$$QEAV<lambda_450d765d439847d4c735a33c368b5fc0>@@AEAV<lambda_44731a7d0e6d81c3e6aa82d741081786>@@$$QEAV<lambda_601a2a7da3b7a96e9554ac7215c4b07c>@@@Z@4HA 000000018002113b f   libucrt:signal.obj
 0001:0002013b       ?fin$0@?0???$?RV<lambda_d80eeec6fff315bfe5c115232f3240e3>@@AEAV<lambda_6e4b09c48022b2350581041d5f6b0c4c>@@V<lambda_2358e3775559c9db80273638284d5e45>@@@?$__crt_seh_guarded_call@X@@QEAAX$$QEAV<lambda_d80eeec6fff315bfe5c115232f3240e3>@@AEAV<lambda_6e4b09c48022b2350581041d5f6b0c4c>@@$$QEAV<lambda_2358e3775559c9db80273638284d5e45>@@@Z@4HA 000000018002113b f   libucrt:exit.obj
 0001:0002013b       ?fin$0@?0???$?RV<lambda_638799b9deba96c50f710eeac98168cd>@@AEAV<lambda_22ebabd17bc4fa466a2aca6d8deb888d>@@V<lambda_a6f7d7db0129f75315ebf26d50c089f1>@@@?$__crt_seh_guarded_call@H@@QEAAH$$QEAV<lambda_638799b9deba96c50f710eeac98168cd>@@AEAV<lambda_22ebabd17bc4fa466a2aca6d8deb888d>@@$$QEAV<lambda_a6f7d7db0129f75315ebf26d50c089f1>@@@Z@4HA 000000018002113b f   libucrt:onexit.obj
 0001:0002013b       ?fin$0@?0???$?RV<lambda_7777bce6b2f8c936911f934f8298dc43>@@AEAV<lambda_f03950bc5685219e0bcd2087efbe011e>@@V<lambda_3883c3dff614d5e0c5f61bb1ac94921c>@@@?$__crt_seh_guarded_call@H@@QEAAH$$QEAV<lambda_7777bce6b2f8c936911f934f8298dc43>@@AEAV<lambda_f03950bc5685219e0bcd2087efbe011e>@@$$QEAV<lambda_3883c3dff614d5e0c5f61bb1ac94921c>@@@Z@4HA 000000018002113b f   libucrt:onexit.obj
 0001:00020155       ?filt$0@?0???R<lambda_6e4b09c48022b2350581041d5f6b0c4c>@@QEBA@XZ@4HA 0000000180021155 f   libucrt:exit.obj
 0001:00020170       _query_new_handler$fin$0   0000000180021170 f   libucrt:new_handler.obj
 0001:00020186       ?fin$0@?0???$?RV<lambda_410d79af7f07d98d83a3f525b3859a53>@@AEAV<lambda_3e16ef9562a7dcce91392c22ab16ea36>@@V<lambda_38119f0e861e05405d8a144b9b982f0a>@@@?$__crt_seh_guarded_call@X@@QEAAX$$QEAV<lambda_410d79af7f07d98d83a3f525b3859a53>@@AEAV<lambda_3e16ef9562a7dcce91392c22ab16ea36>@@$$QEAV<lambda_38119f0e861e05405d8a144b9b982f0a>@@@Z@4HA 0000000180021186 f   libucrt:wsetlocale.obj
 0001:000201a0       __acrt_initialize_lowio$fin$0 00000001800211a0 f   libucrt:ioinit.obj
 0001:000201a0       __acrt_lowio_ensure_fh_exists$fin$0 00000001800211a0 f   libucrt:osfinfo.obj
 0001:000201b9       ?fin$0@?0??update_thread_multibyte_data_internal@@YAPEAU__crt_multibyte_data@@QEAU__acrt_ptd@@QEAPEAU1@@Z@4HA 00000001800211b9 f   libucrt:mbctype.obj
 0001:000201d2       raise$fin$0                00000001800211d2 f   libucrt:signal.obj
 0001:000201f3       ?fin$0@?0???$?RV<lambda_842d9ff0dc9ef11c61343bbaebe7f885>@@AEAV<lambda_c5860995281e5c4ce005b3de8f5874ee>@@V<lambda_d90129c13df834fdcbf8d2b88dafcf2d>@@@?$__crt_seh_guarded_call@X@@QEAAX$$QEAV<lambda_842d9ff0dc9ef11c61343bbaebe7f885>@@AEAV<lambda_c5860995281e5c4ce005b3de8f5874ee>@@$$QEAV<lambda_d90129c13df834fdcbf8d2b88dafcf2d>@@@Z@4HA 00000001800211f3 f   libucrt:fflush.obj
 0001:0002020e       ?fin$0@?0???$?RV<lambda_886d6c58226a84441f68b9f2b8217b83>@@AEAV<lambda_ab61a845afdef5b7c387490eaf3616ee>@@V<lambda_f7f22ab5edc0698d5f6905b0d3f44752>@@@?$__crt_seh_guarded_call@X@@QEAAX$$QEAV<lambda_886d6c58226a84441f68b9f2b8217b83>@@AEAV<lambda_ab61a845afdef5b7c387490eaf3616ee>@@$$QEAV<lambda_f7f22ab5edc0698d5f6905b0d3f44752>@@@Z@4HA 000000018002120e f   libucrt:fflush.obj
 0001:0002022b       __acrt_update_thread_locale_data$fin$0 000000018002122b f   libucrt:locale_refcounting.obj
 0001:00020244       _fcloseall$fin$0           0000000180021244 f   libucrt:closeall.obj
 0001:0002025d       ?fin$0@?0???$?RV<lambda_751a882b2c74d4b022dec766aa51a29a>@@AEAV<lambda_628dfdc04ba53c8bfc02c9951375f3f5>@@V<lambda_f6c7be5f7998530c34de24c7437d6b54>@@@?$__crt_seh_guarded_call@H@@QEAAH$$QEAV<lambda_751a882b2c74d4b022dec766aa51a29a>@@AEAV<lambda_628dfdc04ba53c8bfc02c9951375f3f5>@@$$QEAV<lambda_f6c7be5f7998530c34de24c7437d6b54>@@@Z@4HA 000000018002125d f   libucrt:close.obj
 0001:0002025d       ?fin$0@?0???$?RV<lambda_a37b2b86f63e897a80ea819b0eb08c01>@@AEAV<lambda_38ce7e780aa69e748d6df282ebc68efe>@@V<lambda_99fb1378e971ab6e7edea83e3a7a83a2>@@@?$__crt_seh_guarded_call@H@@QEAAH$$QEAV<lambda_a37b2b86f63e897a80ea819b0eb08c01>@@AEAV<lambda_38ce7e780aa69e748d6df282ebc68efe>@@$$QEAV<lambda_99fb1378e971ab6e7edea83e3a7a83a2>@@@Z@4HA 000000018002125d f   libucrt:commit.obj
 0001:00020277       _write$fin$0               0000000180021277 f   libucrt:write.obj
 0001:0002028e       fclose$fin$0               000000018002128e f   libucrt:fclose.obj
 0001:000202a6       _ctrlfp$filt$0             00000001800212a6 f   libucrt:fpctrl.obj
 0001:000202e0       _IsNonwritableInCurrentImage$filt$0 00000001800212e0 f   LIBCMT:pesect.obj
 0001:00020300       ??__F_AtlComModule@ATL@@YAXXZ 0000000180021300 f   OposVariant.obj
 0001:0002030c       ??__F_AtlWinModule@ATL@@YAXXZ 000000018002130c f   OposVariant.obj
 0001:00020350       ??__F_Module@@YAXXZ        0000000180021350 f   ItemDispenser.obj
 0001:0002036c       ??__F_AtlBaseModule@ATL@@YAXXZ 000000018002136c f   atls:atlbase.obj
 0002:00000630       ?_AtlBaseModule$initializer$@ATL@@3P6AXXZEA 0000000180022630     atls:atlbase.obj
 0002:00000638       ?_AtlComModule$initializer$@ATL@@3P6AXXZEA 0000000180022638     OposVariant.obj
 0002:00000640       ?_AtlWinModule$initializer$@ATL@@3P6AXXZEA 0000000180022640     OposVariant.obj
 0002:00000648       ?_Module$initializer$@@3P6AXXZEA 0000000180022648     ItemDispenser.obj
 0002:00000650       ??pConnMap$initializer$@?$IConnectionPointContainerImpl@VCOPOSItemDispenser@@@ATL@@0P6AXXZEA@@3P6AXXZEA 0000000180022650     ItemDispenser.obj
 0002:00000668       ?__scrt_initialize_tss_var@@3P6AHXZEA 0000000180022668     LIBCMT:thread_safe_statics.obj
 0002:00002578       GS_ExceptionPointers       0000000180024578     LIBCMT:gs_report.obj
 0002:00002588       $cppxdata$??2@YAPEAX_KAEBUnothrow_t@std@@@Z 0000000180024588     LIBCMT:new_scalar_nothrow.obj
 0002:00002760       ?ExceptionTemplate@?1??UnwindNestedFrames@__FrameHandler3@@SAXPEA_KPEAUEHExceptionRecord@@PEAU_CONTEXT@@0PEAXPEBU_s_FuncInfo@@HHPEBU_s_HandlerType@@PEAU_xDISPATCHER_CONTEXT@@E@Z@4U_EXCEPTION_RECORD@@B 0000000180024760     libvcruntime:risctrnsctrl.obj
 0002:00002830       ?tokenTable@@3QBUStringLiteral@@B 0000000180024830     libvcruntime:undname.obj
 0002:00002930       ?nameTable@@3QBUStringLiteral@@B 0000000180024930     libvcruntime:undname.obj
 0002:00002e60       ?rttiTable@@3QBUStringLiteral@@B 0000000180024e60     libvcruntime:undname.obj
 0002:00002eb0       ?IndirectionName@@3QBUStringLiteral@@B 0000000180024eb0     libvcruntime:undname.obj
 0002:00002f10       ?PrefixName@@3QBUStringLiteral@@B 0000000180024f10     libvcruntime:undname.obj
 0002:000035e8       ?module_names@?A0x81a78551@@3QBQEB_WB 00000001800255e8     libvcruntime:winapi_downlevel.obj
 0002:000036a8       ?candidate_modules@?1??try_get_FlsAlloc@@YAP6AKP6AXPEAX@Z@ZXZ@4QBW4module_id@?A0x81a78551@@B 00000001800256a8     libvcruntime:winapi_downlevel.obj
 0002:000036c0       ?candidate_modules@?1??try_get_FlsFree@@YAP6AHK@ZXZ@4QBW4module_id@?A0x81a78551@@B 00000001800256c0     libvcruntime:winapi_downlevel.obj
 0002:000036d0       ?candidate_modules@?1??try_get_FlsGetValue@@YAP6APEAXK@ZXZ@4QBW4module_id@?A0x81a78551@@B 00000001800256d0     libvcruntime:winapi_downlevel.obj
 0002:000036e8       ?candidate_modules@?1??try_get_FlsSetValue@@YAP6AHKPEAX@ZXZ@4QBW4module_id@?A0x81a78551@@B 00000001800256e8     libvcruntime:winapi_downlevel.obj
 0002:00003700       ?candidate_modules@?1??try_get_InitializeCriticalSectionEx@@YAP6AHPEAU_RTL_CRITICAL_SECTION@@KK@ZXZ@4QBW4module_id@?A0x81a78551@@B 0000000180025700     libvcruntime:winapi_downlevel.obj
 0002:00003730       ?errtable@@3QBUerrentry@?A0x31fdb9ec@@B 0000000180025730     libucrt:errno.obj
 0002:00003a20       __acrt_initializers        0000000180025a20     libucrt:initialization.obj
 0002:00003b20       ?module_names@?A0x391cf84c@@3QBQEB_WB 0000000180025b20     libucrt:winapi_thunks.obj
 0002:00004028       ?candidate_modules@?1??try_get_AreFileApisANSI@@YAP6AHXZXZ@4QBW4module_id@?A0x391cf84c@@B 0000000180026028     libucrt:winapi_thunks.obj
 0002:00004040       ?candidate_modules@?1??try_get_FlsAlloc@@YAP6AKP6AXPEAX@Z@ZXZ@4QBW4module_id@?A0x391cf84c@@B 0000000180026040     libucrt:winapi_thunks.obj
 0002:00004048       ?candidate_modules@?1??try_get_FlsFree@@YAP6AHK@ZXZ@4QBW4module_id@?A0x391cf84c@@B 0000000180026048     libucrt:winapi_thunks.obj
 0002:00004050       ?candidate_modules@?1??try_get_FlsGetValue@@YAP6APEAXK@ZXZ@4QBW4module_id@?A0x391cf84c@@B 0000000180026050     libucrt:winapi_thunks.obj
 0002:00004058       ?candidate_modules@?1??try_get_FlsSetValue@@YAP6AHKPEAX@ZXZ@4QBW4module_id@?A0x391cf84c@@B 0000000180026058     libucrt:winapi_thunks.obj
 0002:00004060       ?candidate_modules@?1??try_get_InitializeCriticalSectionEx@@YAP6AHPEAU_RTL_CRITICAL_SECTION@@KK@ZXZ@4QBW4module_id@?A0x391cf84c@@B 0000000180026060     libucrt:winapi_thunks.obj
 0002:00004068       ?candidate_modules@?1??try_get_LCMapStringEx@@YAP6AHPEB_WK0HPEA_WHPEAU_nlsversioninfo@@PEAX_J@ZXZ@4QBW4module_id@?A0x391cf84c@@B 0000000180026068     libucrt:winapi_thunks.obj
 0002:00004080       ?candidate_modules@?1??try_get_LocaleNameToLCID@@YAP6AKPEB_WK@ZXZ@4QBW4module_id@?A0x391cf84c@@B 0000000180026080     libucrt:winapi_thunks.obj
 0002:0000409c       ?candidate_modules@?1??try_get_AppPolicyGetProcessTerminationMethod@@YAP6AJPEAXPEAW4AppPolicyProcessTerminationMethod@@@ZXZ@4QBW4module_id@?A0x391cf84c@@B 000000018002609c     libucrt:winapi_thunks.obj
 0002:000040c8       ?candidate_modules@?1??try_get_SetThreadStackGuarantee@@YAP6AHPEAK@ZXZ@4QBW4module_id@?A0x391cf84c@@B 00000001800260c8     libucrt:winapi_thunks.obj
 0002:000040f0       ?strings@?1??fp_format_nan_or_infinity@@YAHW4__acrt_fp_class@@_NPEAD_K1@Z@4QAY03QEBDA 00000001800260f0     libucrt:cvt.obj
 0002:00004850       ?_mb_locale_names@@3QBQEB_WB 0000000180026850     libucrt:mbctype.obj
 0002:000050c0       ?LcidToLocaleNameTable@?A0x881e4c05@@3QBULcidToLocaleName@1@B 00000001800270c0     libucrt:lcidtoname_downlevel.obj
 0002:00006b20       ?LocaleNameToIndexTable@?A0x881e4c05@@3QBULocaleNameIndex@1@B 0000000180028b20     libucrt:lcidtoname_downlevel.obj
 0002:00008cd0       ?large_power_indices@?1??multiply_by_power_of_ten@__crt_strtox@@YA_NAEAUbig_integer@2@I@Z@4QBUunpack_index@?1??12@YA_N0I@Z@B 000000018002acd0     libucrt:cfout.obj
 0002:00008dc0       __real_ninf                000000018002adc0     libucrt:log10.obj
 0002:00008dd0       __real_inf                 000000018002add0     libucrt:log10.obj
 0002:00008de0       __real_neg_qnan            000000018002ade0     libucrt:log10.obj
 0002:00008df0       __real_qnanbit             000000018002adf0     libucrt:log10.obj
 0002:00008e00       __int_1023                 000000018002ae00     libucrt:log10.obj
 0002:00008e10       __mask_001                 000000018002ae10     libucrt:log10.obj
 0002:00008e20       __mask_mant                000000018002ae20     libucrt:log10.obj
 0002:00008e30       __mask_mant_top8           000000018002ae30     libucrt:log10.obj
 0002:00008e40       __mask_mant9               000000018002ae40     libucrt:log10.obj
 0002:00008e50       __real_log10_e             000000018002ae50     libucrt:log10.obj
 0002:00008e60       __real_log10_e_lead        000000018002ae60     libucrt:log10.obj
 0002:00008e70       __real_log10_e_tail        000000018002ae70     libucrt:log10.obj
 0002:00008e80       __real_log10_2_lead        000000018002ae80     libucrt:log10.obj
 0002:00008e90       __real_log10_2_tail        000000018002ae90     libucrt:log10.obj
 0002:00008ea0       __real_two                 000000018002aea0     libucrt:log10.obj
 0002:00008eb0       __real_one                 000000018002aeb0     libucrt:log10.obj
 0002:00008ec0       __real_half                000000018002aec0     libucrt:log10.obj
 0002:00008ed0       __mask_100                 000000018002aed0     libucrt:log10.obj
 0002:00008ee0       __real_1_over_512          000000018002aee0     libucrt:log10.obj
 0002:00008ef0       __real_1_over_2            000000018002aef0     libucrt:log10.obj
 0002:00008f00       __real_1_over_3            000000018002af00     libucrt:log10.obj
 0002:00008f10       __real_1_over_4            000000018002af10     libucrt:log10.obj
 0002:00008f20       __real_1_over_5            000000018002af20     libucrt:log10.obj
 0002:00008f30       __real_1_over_6            000000018002af30     libucrt:log10.obj
 0002:00008f40       __real_neg_1023            000000018002af40     libucrt:log10.obj
 0002:00008f50       __mask_2045                000000018002af50     libucrt:log10.obj
 0002:00008f60       __real_threshold           000000018002af60     libucrt:log10.obj
 0002:00008f70       __real_near_one_lt         000000018002af70     libucrt:log10.obj
 0002:00008f80       __real_near_one_gt         000000018002af80     libucrt:log10.obj
 0002:00008f90       __real_min_norm            000000018002af90     libucrt:log10.obj
 0002:00008fa0       __real_notsign             000000018002afa0     libucrt:log10.obj
 0002:00008fb0       __real_ca1                 000000018002afb0     libucrt:log10.obj
 0002:00008fc0       __real_ca2                 000000018002afc0     libucrt:log10.obj
 0002:00008fd0       __real_ca3                 000000018002afd0     libucrt:log10.obj
 0002:00008fe0       __real_ca4                 000000018002afe0     libucrt:log10.obj
 0002:00008ff0       __mask_lower               000000018002aff0     libucrt:log10.obj
 0002:00009000       __flag_x_zero              000000018002b000     libucrt:log10.obj
 0002:00009004       __flag_x_neg               000000018002b004     libucrt:log10.obj
 0002:00009008       __flag_x_nan               000000018002b008     libucrt:log10.obj
 0002:0000a860       __real@433fffffffffffff    000000018002c860     libucrt:fpsr.obj
 0002:0000a868       __real@c33fffffffffffff    000000018002c868     libucrt:fpsr.obj
 0002:0000b0b0       $unwind$?cw_memcpy@@YAHPEA_WPEBDH@Z 000000018002d0b0     CWString.obj
 0002:0000b0b0       $unwind$?ProcessWindowMessage@?$CComControl@VCOPOSItemDispenser@@V?$CWindowImpl@VCOPOSItemDispenser@@VCWindow@ATL@@V?$CWinTraits@$0FGAAAAAA@$0A@@3@@ATL@@@ATL@@UEAAHPEAUHWND__@@I_K_JAEA_JK@Z 000000018002d0b0     ItemDispenser.obj
 0002:0000b0b0       $unwind$wcstol             000000018002d0b0     libucrt:strtox.obj
 0002:0000b0b0       $unwind$_invalid_parameter_noinfo 000000018002d0b0     libucrt:invalid_parameter.obj
 0002:0000b0b0       $unwind$_log10_special     000000018002d0b0     libucrt:log_special.obj
 0002:0000b0b8       $unwind$?cw_strcpy@@YAHPEA_WPEBD@Z 000000018002d0b8     CWString.obj
 0002:0000b0b8       $unwind$??__E?pConnMap@?$IConnectionPointContainerImpl@VCOPOSItemDispenser@@@ATL@@0PEBU_ATL_CONNMAP_ENTRY@2@EB@@YAXXZ 000000018002d0b8     ItemDispenser.obj
 0002:0000b0b8       $unwind$?AddReplacement@CRegObject@ATL@@UEAAJPEB_W0@Z 000000018002d0b8     ItemDispenser.obj
 0002:0000b0b8       $unwind$?AtlHresultFromLastError@ATL@@YAJXZ 000000018002d0b8     ItemDispenser.obj
 0002:0000b0b8       $unwind$?AtlThrowImpl@ATL@@YAXJ@Z 000000018002d0b8     ItemDispenser.obj
 0002:0000b0b8       $unwind$?CreateInstance@CComClassFactory@ATL@@UEAAJPEAUIUnknown@@AEBU_GUID@@PEAPEAX@Z 000000018002d0b8     ItemDispenser.obj
 0002:0000b0b8       $unwind$?DefaultReflectionHandler@?$CWindowImplRoot@VCWindow@ATL@@@ATL@@SAHPEAUHWND__@@I_K_JAEA_J@Z 000000018002d0b8     ItemDispenser.obj
 0002:0000b0b8       $unwind$?EnumAdvise@?$IOleObjectImpl@VCOPOSItemDispenser@@@ATL@@UEAAJPEAPEAUIEnumSTATDATA@@@Z 000000018002d0b8     ItemDispenser.obj
 0002:0000b0b8       $unwind$?FireViewChange@CComControlBase@ATL@@QEAAJXZ 000000018002d0b8     ItemDispenser.obj
 0002:0000b0b8       $unwind$?GetAdvise@?$IViewObjectExImpl@VCOPOSItemDispenser@@@ATL@@UEAAJPEAK0PEAPEAUIAdviseSink@@@Z 000000018002d0b8     ItemDispenser.obj
 0002:0000b0b8       $unwind$?LockServer@CComClassFactory@ATL@@UEAAJH@Z 000000018002d0b8     ItemDispenser.obj
 0002:0000b0b8       $unwind$?OnDocWindowActivate@?$IOleInPlaceActiveObjectImpl@VCOPOSItemDispenser@@@ATL@@UEAAJH@Z 000000018002d0b8     ItemDispenser.obj
 0002:0000b0b8       $unwind$?Unadvise@?$IOleObjectImpl@VCOPOSItemDispenser@@@ATL@@UEAAJK@Z 000000018002d0b8     ItemDispenser.obj
 0002:0000b0b8       $unwind$?_LocCPQueryInterface@?$IConnectionPointImpl@VCOPOSItemDispenser@@$1?DIID__IOPOSItemDispenserEvents@@3U_GUID@@BVCComDynamicUnkArray@ATL@@@ATL@@UEAAJAEBU_GUID@@PEAPEAX@Z 000000018002d0b8     ItemDispenser.obj
 0002:0000b0b8       $unwind$?_LocCPQueryInterface@?$IConnectionPointImpl@VCOPOSItemDispenser@@$1?IID_IPropertyNotifySink@@3U_GUID@@BVCComDynamicUnkArray@ATL@@@ATL@@UEAAJAEBU_GUID@@PEAPEAX@Z 000000018002d0b8     ItemDispenser.obj
 0002:0000b0b8       $unwind$?FinalConstruct@COPOSItemDispenser@@QEAAJXZ 000000018002d0b8     ItemDispenserImpl.obj
 0002:0000b0b8       $unwind$?get_ResultCode@COPOSItemDispenser@@UEAAJPEAJ@Z 000000018002d0b8     ItemDispenserImpl.obj
 0002:0000b0b8       $unwind$?get_State@COPOSItemDispenser@@UEAAJPEAJ@Z 000000018002d0b8     ItemDispenserImpl.obj
 0002:0000b0b8       $unwind$??1OposDispParms@@QEAA@XZ 000000018002d0b8     OposVariant.obj
 0002:0000b0b8       $unwind$??__E_AtlComModule@ATL@@YAXXZ 000000018002d0b8     OposVariant.obj
 0002:0000b0b8       $unwind$??__E_AtlWinModule@ATL@@YAXXZ 000000018002d0b8     OposVariant.obj
 0002:0000b0b8       $unwind$??__F_AtlWinModule@ATL@@YAXXZ 000000018002d0b8     OposVariant.obj
 0002:0000b0b8       $unwind$?GetLONG@OposVariant@@QEAAJXZ 000000018002d0b8     OposVariant.obj
 0002:0000b0b8       $unwind$??__E_AtlBaseModule@ATL@@YAXXZ 000000018002d0b8     atls:atlbase.obj
 0002:0000b0b8       $unwind$__scrt_initialize_default_local_stdio_options 000000018002d0b8     LIBCMT:default_local_stdio_options.obj
 0002:0000b0b8       $unwind$?dllmain_crt_dispatch@@YAHQEAUHINSTANCE__@@KQEAX@Z 000000018002d0b8     LIBCMT:dll_dllmain.obj
 0002:0000b0b8       $unwind$__report_rangecheckfailure 000000018002d0b8     LIBCMT:gs_report.obj
 0002:0000b0b8       $unwind$__GSHandlerCheck   000000018002d0b8     LIBCMT:gshandler.obj
 0002:0000b0b8       $unwind$?__scrt_uninitialize_thread_safe_statics@@YAXXZ 000000018002d0b8     LIBCMT:thread_safe_statics.obj
 0002:0000b0b8       $unwind$_Init_thread_notify 000000018002d0b8     LIBCMT:thread_safe_statics.obj
 0002:0000b0b8       $unwind$__scrt_acquire_startup_lock 000000018002d0b8     LIBCMT:utility.obj
 0002:0000b0b8       $unwind$__scrt_dllmain_after_initialize_c 000000018002d0b8     LIBCMT:utility.obj
 0002:0000b0b8       $unwind$__scrt_dllmain_before_initialize_c 000000018002d0b8     LIBCMT:utility.obj
 0002:0000b0b8       $unwind$__scrt_dllmain_crt_thread_attach 000000018002d0b8     LIBCMT:utility.obj
 0002:0000b0b8       $unwind$__scrt_dllmain_crt_thread_detach 000000018002d0b8     LIBCMT:utility.obj
 0002:0000b0b8       $unwind$__scrt_dllmain_uninitialize_c 000000018002d0b8     LIBCMT:utility.obj
 0002:0000b0b8       $unwind$__scrt_dllmain_uninitialize_critical 000000018002d0b8     LIBCMT:utility.obj
 0002:0000b0b8       $unwind$atexit             000000018002d0b8     LIBCMT:utility.obj
 0002:0000b0b8       $unwind$?GetCurrentState@__FrameHandler3@@SAHPEA_KPEAU_xDISPATCHER_CONTEXT@@PEBU_s_FuncInfo@@@Z 000000018002d0b8     libvcruntime:ehstate.obj
 0002:0000b0b8       $unwind$__vcrt_initialize  000000018002d0b8     libvcruntime:initialization.obj
 0002:0000b0b8       $unwind$__vcrt_thread_attach 000000018002d0b8     libvcruntime:initialization.obj
 0002:0000b0b8       $unwind$__vcrt_thread_detach 000000018002d0b8     libvcruntime:initialization.obj
 0002:0000b0b8       $unwind$__vcrt_uninitialize 000000018002d0b8     libvcruntime:initialization.obj
 0002:0000b0b8       $unwind$__vcrt_uninitialize_critical 000000018002d0b8     libvcruntime:initialization.obj
 0002:0000b0b8       $unwind$__vcrt_initialize_locks 000000018002d0b8     libvcruntime:locks.obj
 0002:0000b0b8       $unwind$__vcrt_freefls     000000018002d0b8     libvcruntime:per_thread_data.obj
 0002:0000b0b8       $unwind$__vcrt_getptd      000000018002d0b8     libvcruntime:per_thread_data.obj
 0002:0000b0b8       $unwind$__vcrt_initialize_ptd 000000018002d0b8     libvcruntime:per_thread_data.obj
 0002:0000b0b8       $unwind$__vcrt_uninitialize_ptd 000000018002d0b8     libvcruntime:per_thread_data.obj
 0002:0000b0b8       $unwind$_purecall          000000018002d0b8     libvcruntime:purevirt.obj
 0002:0000b0b8       $unwind$_GetImageBase      000000018002d0b8     libvcruntime:risctrnsctrl.obj
 0002:0000b0b8       $unwind$_GetThrowImageBase 000000018002d0b8     libvcruntime:risctrnsctrl.obj
 0002:0000b0b8       $unwind$__dcrt_terminate_console_output 000000018002d0b8     libucrt:initcon.obj
 0002:0000b0b8       $unwind$??$uninitialize_environment_internal@D@@YAXAEAPEAPEAD@Z 000000018002d0b8     libucrt:environment_initialization.obj
 0002:0000b0b8       $unwind$??$uninitialize_environment_internal@_W@@YAXAEAPEAPEA_W@Z 000000018002d0b8     libucrt:environment_initialization.obj
 0002:0000b0b8       $unwind$__dcrt_uninitialize_environments_nolock 000000018002d0b8     libucrt:environment_initialization.obj
 0002:0000b0b8       $unwind$__acrt_initialize_heap 000000018002d0b8     libucrt:heap_handle.obj
 0002:0000b0b8       $unwind$_msize_base        000000018002d0b8     libucrt:msize.obj
 0002:0000b0b8       $unwind$?initialize_multibyte@@YAHXZ 000000018002d0b8     libucrt:multibyte_initializer.obj
 0002:0000b0b8       $unwind$__acrt_thread_attach 000000018002d0b8     libucrt:initialization.obj
 0002:0000b0b8       $unwind$__acrt_thread_detach 000000018002d0b8     libucrt:initialization.obj
 0002:0000b0b8       $unwind$__acrt_uninitialize 000000018002d0b8     libucrt:initialization.obj
 0002:0000b0b8       $unwind$__acrt_uninitialize_critical 000000018002d0b8     libucrt:initialization.obj
 0002:0000b0b8       $unwind$initialize_c       000000018002d0b8     libucrt:initialization.obj
 0002:0000b0b8       $unwind$uninitialize_allocated_io_buffers 000000018002d0b8     libucrt:initialization.obj
 0002:0000b0b8       $unwind$uninitialize_environment 000000018002d0b8     libucrt:initialization.obj
 0002:0000b0b8       $unwind$__acrt_initialize_ptd 000000018002d0b8     libucrt:per_thread_data.obj
 0002:0000b0b8       $unwind$__acrt_uninitialize_ptd 000000018002d0b8     libucrt:per_thread_data.obj
 0002:0000b0b8       $unwind$__acrt_AreFileApisANSI 000000018002d0b8     libucrt:winapi_thunks.obj
 0002:0000b0b8       $unwind$__pctype_func      000000018002d0b8     libucrt:ctype.obj
 0002:0000b0b8       $unwind$__acrt_release_locale_ref 000000018002d0b8     libucrt:locale_refcounting.obj
 0002:0000b0b8       $unwind$_isatty            000000018002d0b8     libucrt:isatty.obj
 0002:0000b0b8       $unwind$_get_osfhandle     000000018002d0b8     libucrt:osfinfo.obj
 0002:0000b0b8       $unwind$__acrt_initialize_multibyte 000000018002d0b8     libucrt:mbctype.obj
 0002:0000b0b8       $unwind$__acrt_update_thread_multibyte_data 000000018002d0b8     libucrt:mbctype.obj
 0002:0000b0b8       $unwind$__doserrno         000000018002d0b8     libucrt:errno.obj
 0002:0000b0b8       $unwind$_errno             000000018002d0b8     libucrt:errno.obj
 0002:0000b0b8       $unwind$_invoke_watson     000000018002d0b8     libucrt:invalid_parameter.obj
 0002:0000b0b8       $unwind$abort              000000018002d0b8     libucrt:abort.obj
 0002:0000b0b8       $unwind$__acrt_initialize_command_line 000000018002d0b8     libucrt:argv_data.obj
 0002:0000b0b8       $unwind$_fileno            000000018002d0b8     libucrt:fileno.obj
 0002:0000b0b8       $unwind$?state_case_size@?$output_processor@_WV?$string_output_adapter@_W@__crt_stdio_output@@V?$format_validation_base@_WV?$string_output_adapter@_W@__crt_stdio_output@@@2@@__crt_stdio_output@@AEAA_NXZ 000000018002d0b8     libucrt:output.obj
 0002:0000b0b8       $unwind$_statfp            000000018002d0b8     libucrt:fpctrl.obj
 0002:0000b0b8       $unwind$_set_errno_from_matherr 000000018002d0b8     libucrt:fpexcept.obj
 0002:0000b0c0       $unwind$?cw_dup@@YAXPEBDAEAHAEAPEA_W1@Z 000000018002d0c0     CWString.obj
 0002:0000b0c0       $unwind$?DAdvise@?$IDataObjectImpl@VCOPOSItemDispenser@@@ATL@@UEAAJPEAUtagFORMATETC@@KPEAUIAdviseSink@@PEAK@Z 000000018002d0c0     ItemDispenser.obj
 0002:0000b0c0       $unwind$??$__acrt_mbs_to_wcs_cp@U__crt_win32_buffer_internal_dynamic_resizing@@@@YAHQEBDAEAV?$__crt_win32_buffer@_WU__crt_win32_buffer_internal_dynamic_resizing@@@@I@Z 000000018002d0c0     libucrt:argv_wildcards.obj
 0002:0000b0d8       $unwind$?DupWide@_CW@@AEAAXXZ 000000018002d0d8     CWString.obj
 0002:0000b0d8       $unwind$??0?$CComObject@VCOPOSItemDispenser@@@ATL@@QEAA@PEAX@Z 000000018002d0d8     ItemDispenser.obj
 0002:0000b0d8       $unwind$??0CAtlModule@ATL@@QEAA@XZ 000000018002d0d8     ItemDispenser.obj
 0002:0000b0d8       $unwind$??1?$CComObject@VCOPOSItemDispenser@@@ATL@@UEAA@XZ 000000018002d0d8     ItemDispenser.obj
 0002:0000b0d8       $unwind$??__E_Module@@YAXXZ 000000018002d0d8     ItemDispenser.obj
 0002:0000b0d8       $unwind$?AddRef@?$CComObjectCached@VCComClassFactory@ATL@@@ATL@@UEAAKXZ 000000018002d0d8     ItemDispenser.obj
 0002:0000b0d8       $unwind$?AllocateHeap@?$CTempBuffer@E$0BAA@VCCRTAllocator@ATL@@@ATL@@AEAAX_K@Z 000000018002d0d8     ItemDispenser.obj
 0002:0000b0d8       $unwind$?AllocateHeap@?$CTempBuffer@_W$0BAA@VCCRTAllocator@ATL@@@ATL@@AEAAX_K@Z 000000018002d0d8     ItemDispenser.obj
 0002:0000b0d8       $unwind$?AllocateHeap@?$CTempBuffer@_W$0EAA@VCCRTAllocator@ATL@@@ATL@@AEAAX_K@Z 000000018002d0d8     ItemDispenser.obj
 0002:0000b0d8       $unwind$?GetClassInfoW@?$IProvideClassInfo2Impl@$1?CLSID_OPOSItemDispenser@@3U_GUID@@B$1?DIID__IOPOSItemDispenserEvents@@3U2@B$1?LIBID_OposItemDispenser_CCO@@3U2@B$00$0A@VCComTypeInfoHolder@ATL@@@ATL@@UEAAJPEAPEAUITypeInfo@@@Z 000000018002d0d8     ItemDispenser.obj
 0002:0000b0d8       $unwind$?GetClientSite@?$IOleObjectImpl@VCOPOSItemDispenser@@@ATL@@UEAAJPEAPEAUIOleClientSite@@@Z 000000018002d0d8     ItemDispenser.obj
 0002:0000b0d8       $unwind$?GetConnMap@COPOSItemDispenser@@SAPEBU_ATL_CONNMAP_ENTRY@ATL@@PEAH@Z 000000018002d0d8     ItemDispenser.obj
 0002:0000b0d8       $unwind$?GetTypeInfo@?$IDispatchImpl@UIOPOSItemDispenser@@$1?IID_IOPOSItemDispenser@@3U_GUID@@B$1?LIBID_OposItemDispenser_CCO@@3U3@B$00$0A@VCComTypeInfoHolder@ATL@@@ATL@@UEAAJIKPEAPEAUITypeInfo@@@Z 000000018002d0d8     ItemDispenser.obj
 0002:0000b0d8       $unwind$?IOleInPlaceObject_InPlaceDeactivate@CComControlBase@ATL@@QEAAJXZ 000000018002d0d8     ItemDispenser.obj
 0002:0000b0d8       $unwind$?IOleObject_SetExtent@CComControlBase@ATL@@QEAAJKPEAUtagSIZE@@@Z 000000018002d0d8     ItemDispenser.obj
 0002:0000b0d8       $unwind$?IsEqualObject@?$CComPtrBase@UIOleClientSite@@@ATL@@QEAA_NPEAUIUnknown@@@Z 000000018002d0d8     ItemDispenser.obj
 0002:0000b0d8       $unwind$?QueryHitPoint@?$IViewObjectExImpl@VCOPOSItemDispenser@@@ATL@@UEAAJKPEBUtagRECT@@UtagPOINT@@JPEAK@Z 000000018002d0d8     ItemDispenser.obj
 0002:0000b0d8       $unwind$?QueryInterface@?$CComAggObject@VCOPOSItemDispenser@@@ATL@@UEAAJAEBU_GUID@@PEAPEAX@Z 000000018002d0d8     ItemDispenser.obj
 0002:0000b0d8       $unwind$?Release@?$CComObjectCached@VCComClassFactory@ATL@@@ATL@@UEAAKXZ 000000018002d0d8     ItemDispenser.obj
 0002:0000b0d8       $unwind$?Unadvise@?$IConnectionPointImpl@VCOPOSItemDispenser@@$1?DIID__IOPOSItemDispenserEvents@@3U_GUID@@BVCComDynamicUnkArray@ATL@@@ATL@@UEAAJK@Z 000000018002d0d8     ItemDispenser.obj
 0002:0000b0d8       $unwind$?Unadvise@?$IConnectionPointImpl@VCOPOSItemDispenser@@$1?IID_IPropertyNotifySink@@3U_GUID@@BVCComDynamicUnkArray@ATL@@@ATL@@UEAAJK@Z 000000018002d0d8     ItemDispenser.obj
 0002:0000b0d8       $unwind$??1CComControlBase@ATL@@UEAA@XZ 000000018002d0d8     ItemDispenserImpl.obj
 0002:0000b0d8       $unwind$??1COPOSItemDispenser@@UEAA@XZ 000000018002d0d8     ItemDispenserImpl.obj
 0002:0000b0d8       $unwind$?EventUninit@COPOSItemDispenser@@IEAAXXZ 000000018002d0d8     ItemDispenserImpl.obj
 0002:0000b0d8       $unwind$?FreezeEvents@COPOSItemDispenser@@MEAAJH@Z 000000018002d0d8     ItemDispenserImpl.obj
 0002:0000b0d8       $unwind$?SOProcessID@COPOSItemDispenser@@UEAAJPEAJ@Z 000000018002d0d8     ItemDispenserImpl.obj
 0002:0000b0d8       $unwind$?get_CapCompareFirmwareVersion@COPOSItemDispenser@@UEAAJPEAF@Z 000000018002d0d8     ItemDispenserImpl.obj
 0002:0000b0d8       $unwind$?get_CapEmptySensor@COPOSItemDispenser@@UEAAJPEAF@Z 000000018002d0d8     ItemDispenserImpl.obj
 0002:0000b0d8       $unwind$?get_CapIndividualSlotStatus@COPOSItemDispenser@@UEAAJPEAF@Z 000000018002d0d8     ItemDispenserImpl.obj
 0002:0000b0d8       $unwind$?get_CapJamSensor@COPOSItemDispenser@@UEAAJPEAF@Z 000000018002d0d8     ItemDispenserImpl.obj
 0002:0000b0d8       $unwind$?get_CapNearEmptySensor@COPOSItemDispenser@@UEAAJPEAF@Z 000000018002d0d8     ItemDispenserImpl.obj
 0002:0000b0d8       $unwind$?get_CapStatisticsReporting@COPOSItemDispenser@@UEAAJPEAF@Z 000000018002d0d8     ItemDispenserImpl.obj
 0002:0000b0d8       $unwind$?get_CapUpdateFirmware@COPOSItemDispenser@@UEAAJPEAF@Z 000000018002d0d8     ItemDispenserImpl.obj
 0002:0000b0d8       $unwind$?get_CapUpdateStatistics@COPOSItemDispenser@@UEAAJPEAF@Z 000000018002d0d8     ItemDispenserImpl.obj
 0002:0000b0d8       $unwind$?get_Claimed@COPOSItemDispenser@@UEAAJPEAF@Z 000000018002d0d8     ItemDispenserImpl.obj
 0002:0000b0d8       $unwind$?get_DeviceEnabled@COPOSItemDispenser@@UEAAJPEAF@Z 000000018002d0d8     ItemDispenserImpl.obj
 0002:0000b0d8       $unwind$?get_FreezeEvents@COPOSItemDispenser@@UEAAJPEAF@Z 000000018002d0d8     ItemDispenserImpl.obj
 0002:0000b0d8       $unwind$?put_FreezeEvents@COPOSItemDispenser@@UEAAJF@Z 000000018002d0d8     ItemDispenserImpl.obj
 0002:0000b0d8       $unwind$??0CAtlComModule@ATL@@QEAA@XZ 000000018002d0d8     OposVariant.obj
 0002:0000b0d8       $unwind$??0CAtlWinModule@ATL@@QEAA@XZ 000000018002d0d8     OposVariant.obj
 0002:0000b0d8       $unwind$??1CAtlBaseModule@ATL@@QEAA@XZ 000000018002d0d8     atls:atlbase.obj
 0002:0000b0d8       $unwind$AtlThunk_AllocateData 000000018002d0d8     atls:atlthunk.obj
 0002:0000b0d8       $unwind$__raise_securityfailure 000000018002d0d8     LIBCMT:gs_report.obj
 0002:0000b0d8       $unwind$??2@YAPEAX_K@Z     000000018002d0d8     LIBCMT:new_scalar.obj
 0002:0000b0d8       $unwind$??_Gtype_info@@UEAAPEAXI@Z 000000018002d0d8     LIBCMT:std_type_info_static.obj
 0002:0000b0d8       $unwind$_Init_thread_footer 000000018002d0d8     LIBCMT:thread_safe_statics.obj
 0002:0000b0d8       $unwind$_Init_thread_header 000000018002d0d8     LIBCMT:thread_safe_statics.obj
 0002:0000b0d8       $unwind$_Init_thread_wait  000000018002d0d8     LIBCMT:thread_safe_statics.obj
 0002:0000b0d8       $unwind$??0bad_alloc@std@@QEAA@AEBV01@@Z 000000018002d0d8     LIBCMT:throw_bad_alloc.obj
 0002:0000b0d8       $unwind$??0bad_array_new_length@std@@QEAA@AEBV01@@Z 000000018002d0d8     LIBCMT:throw_bad_alloc.obj
 0002:0000b0d8       $unwind$??0exception@std@@QEAA@AEBV01@@Z 000000018002d0d8     LIBCMT:throw_bad_alloc.obj
 0002:0000b0d8       $unwind$__scrt_initialize_crt 000000018002d0d8     LIBCMT:utility.obj
 0002:0000b0d8       $unwind$__scrt_initialize_onexit_tables 000000018002d0d8     LIBCMT:utility.obj
 0002:0000b0d8       $unwind$__scrt_release_startup_lock 000000018002d0d8     LIBCMT:utility.obj
 0002:0000b0d8       $unwind$__scrt_uninitialize_crt 000000018002d0d8     LIBCMT:utility.obj
 0002:0000b0d8       $unwind$_onexit            000000018002d0d8     LIBCMT:utility.obj
 0002:0000b0d8       $unwind$_IsExceptionObjectToBeDestroyed 000000018002d0d8     libvcruntime:ehhelpers.obj
 0002:0000b0d8       $unwind$?GetUnwindTryBlock@__FrameHandler3@@SAHPEA_KPEAU_xDISPATCHER_CONTEXT@@PEBU_s_FuncInfo@@@Z 000000018002d0d8     libvcruntime:ehstate.obj
 0002:0000b0d8       $unwind$?StateFromIp@__FrameHandler3@@SAHPEBU_s_FuncInfo@@PEAU_xDISPATCHER_CONTEXT@@_K@Z 000000018002d0d8     libvcruntime:ehstate.obj
 0002:0000b0d8       $unwind$??0bad_exception@std@@QEAA@AEBV01@@Z 000000018002d0d8     libvcruntime:frame.obj
 0002:0000b0d8       $unwind$?ExFilterRethrow@@YAHPEAU_EXCEPTION_POINTERS@@PEAUEHExceptionRecord@@PEAH@Z 000000018002d0d8     libvcruntime:frame.obj
 0002:0000b0d8       $unwind$__vcrt_uninitialize_locks 000000018002d0d8     libvcruntime:locks.obj
 0002:0000b0d8       $unwind$__vcrt_freeptd     000000018002d0d8     libvcruntime:per_thread_data.obj
 0002:0000b0d8       $unwind$?ExecutionInCatch@__FrameHandler3@@SA_NPEAU_xDISPATCHER_CONTEXT@@PEBU_s_FuncInfo@@@Z 000000018002d0d8     libvcruntime:risctrnsctrl.obj
 0002:0000b0d8       $unwind$_CreateFrameInfo   000000018002d0d8     libvcruntime:risctrnsctrl.obj
 0002:0000b0d8       $unwind$_SetImageBase      000000018002d0d8     libvcruntime:risctrnsctrl.obj
 0002:0000b0d8       $unwind$_SetThrowImageBase 000000018002d0d8     libvcruntime:risctrnsctrl.obj
 0002:0000b0d8       $unwind$__std_exception_destroy 000000018002d0d8     libvcruntime:std_exception.obj
 0002:0000b0d8       $unwind$__std_type_info_destroy_list 000000018002d0d8     libvcruntime:std_type_info.obj
 0002:0000b0d8       $unwind$__vcrt_FlsAlloc    000000018002d0d8     libvcruntime:winapi_downlevel.obj
 0002:0000b0d8       $unwind$__vcrt_FlsFree     000000018002d0d8     libvcruntime:winapi_downlevel.obj
 0002:0000b0d8       $unwind$__vcrt_FlsGetValue 000000018002d0d8     libvcruntime:winapi_downlevel.obj
 0002:0000b0d8       $unwind$_calloc_base       000000018002d0d8     libucrt:calloc_base.obj
 0002:0000b0d8       $unwind$_malloc_base       000000018002d0d8     libucrt:malloc_base.obj
 0002:0000b0d8       $unwind$_callnewh          000000018002d0d8     libucrt:new_handler.obj
 0002:0000b0d8       $unwind$initialize_pointers 000000018002d0d8     libucrt:initialization.obj
 0002:0000b0d8       $unwind$uninitialize_allocated_memory 000000018002d0d8     libucrt:initialization.obj
 0002:0000b0d8       $unwind$__acrt_initialize_locks 000000018002d0d8     libucrt:locks.obj
 0002:0000b0d8       $unwind$__acrt_uninitialize_locks 000000018002d0d8     libucrt:locks.obj
 0002:0000b0d8       $unwind$__acrt_freeptd     000000018002d0d8     libucrt:per_thread_data.obj
 0002:0000b0d8       $unwind$__acrt_getptd_head 000000018002d0d8     libucrt:per_thread_data.obj
 0002:0000b0d8       $unwind$__acrt_get_process_end_policy 000000018002d0d8     libucrt:win_policies.obj
 0002:0000b0d8       $unwind$__acrt_AppPolicyGetProcessTerminationMethodInternal 000000018002d0d8     libucrt:winapi_thunks.obj
 0002:0000b0d8       $unwind$__acrt_FlsAlloc    000000018002d0d8     libucrt:winapi_thunks.obj
 0002:0000b0d8       $unwind$__acrt_FlsFree     000000018002d0d8     libucrt:winapi_thunks.obj
 0002:0000b0d8       $unwind$__acrt_FlsGetValue 000000018002d0d8     libucrt:winapi_thunks.obj
 0002:0000b0d8       $unwind$__acrt_SetThreadStackGuarantee 000000018002d0d8     libucrt:winapi_thunks.obj
 0002:0000b0d8       $unwind$__acrt_uninitialize_winapi_thunks 000000018002d0d8     libucrt:winapi_thunks.obj
 0002:0000b0d8       $unwind$__acrt_update_locale_info 000000018002d0d8     libucrt:locale_update.obj
 0002:0000b0d8       $unwind$__acrt_update_multibyte_info 000000018002d0d8     libucrt:locale_update.obj
 0002:0000b0d8       $unwind$__acrt_allocate_buffer_for_argv 000000018002d0d8     libucrt:argv_parsing.obj
 0002:0000b0d8       $unwind$?exit_or_terminate_process@@YAXI@Z 000000018002d0d8     libucrt:exit.obj
 0002:0000b0d8       $unwind$?try_cor_exit_process@@YAXI@Z 000000018002d0d8     libucrt:exit.obj
 0002:0000b0d8       $unwind$__acrt_uninitialize_stdio 000000018002d0d8     libucrt:_file.obj
 0002:0000b0d8       $unwind$__acrt_stdio_free_buffer_nolock 000000018002d0d8     libucrt:_freebuf.obj
 0002:0000b0d8       $unwind$_fflush_nolock     000000018002d0d8     libucrt:fflush.obj
 0002:0000b0d8       $unwind$strcpy_s           000000018002d0d8     libucrt:strcpy_s.obj
 0002:0000b0d8       $unwind$wcscat_s           000000018002d0d8     libucrt:wcscat_s.obj
 0002:0000b0d8       $unwind$wcscpy_s           000000018002d0d8     libucrt:wcscpy_s.obj
 0002:0000b0d8       $unwind$_clrfp             000000018002d0d8     libucrt:fpctrl.obj
 0002:0000b0d8       $unwind$_set_statfp        000000018002d0d8     libucrt:fpctrl.obj
 0002:0000b0d8       $unwind$_clearfp           000000018002d0d8     libucrt:ieee.obj
 0002:0000b0d8       $unwind$fegetenv           000000018002d0d8     libucrt:fegetenv.obj
 0002:0000b0d8       $unwind$feholdexcept       000000018002d0d8     libucrt:feholdexcept.obj
 0002:0000b0d8       $unwind$fesetenv           000000018002d0d8     libucrt:fesetenv.obj
 0002:0000b0e0       $unwind$?AtlWinModuleExtractCreateWndData@ATL@@YAPEAXPEAU_ATL_WIN_MODULE70@1@@Z 000000018002d0e0     ItemDispenser.obj
 0002:0000b0e0       $unwind$?CreateInstance@?$CComCreator@V?$CComObject@VCOPOSItemDispenser@@@ATL@@@ATL@@SAJPEAXAEBU_GUID@@PEAPEAX@Z 000000018002d0e0     ItemDispenser.obj
 0002:0000b0e0       $unwind$?DoEvent@COPOSItemDispenser@@IEAAXI_K_J@Z 000000018002d0e0     ItemDispenser.obj
 0002:0000b0e0       $unwind$?DoVerb@?$IOleObjectImpl@VCOPOSItemDispenser@@@ATL@@UEAAJJPEAUtagMSG@@PEAUIOleClientSite@@JPEAUHWND__@@PEBUtagRECT@@@Z 000000018002d0e0     ItemDispenser.obj
 0002:0000b0e0       $unwind$?HKeyFromString@CRegParser@ATL@@KAPEAUHKEY__@@PEA_W@Z 000000018002d0e0     ItemDispenser.obj
 0002:0000b0e0       $unwind$?Next@?$CComEnumImpl@UIEnumConnectionPoints@@$1?_GUID_b196b285_bab4_101a_b69c_00aa00341d07@@3U__s_GUID@@BPEAUIConnectionPoint@@V?$_CopyInterface@UIConnectionPoint@@@ATL@@@ATL@@UEAAJKPEAPEAUIConnectionPoint@@PEAK@Z 000000018002d0e0     ItemDispenser.obj
 0002:0000b0e0       $unwind$?Next@?$CComEnumImpl@UIEnumConnections@@$1?_GUID_b196b287_bab4_101a_b69c_00aa00341d07@@3U__s_GUID@@BUtagCONNECTDATA@@V?$_Copy@UtagCONNECTDATA@@@ATL@@@ATL@@UEAAJKPEAUtagCONNECTDATA@@PEAK@Z 000000018002d0e0     ItemDispenser.obj
 0002:0000b0e0       $unwind$?SODirectIO@COPOSItemDispenser@@MEAAJJPEAJPEAPEA_W@Z 000000018002d0e0     ItemDispenser.obj
 0002:0000b0e0       $unwind$?SetControlFocus@CComControlBase@ATL@@QEAAHH@Z 000000018002d0e0     ItemDispenser.obj
 0002:0000b0e0       $unwind$?ocscpy_s@@YA_NPEA_W_KPEB_W@Z 000000018002d0e0     ItemDispenser.obj
 0002:0000b0e0       $unwind$?s_EventWindowProc@COPOSItemDispenser@@KA_JPEAUHWND__@@I_K_J@Z 000000018002d0e0     ItemDispenserImpl.obj
 0002:0000b0e0       $unwind$?AtlWinModuleTerm@ATL@@YAJPEAU_ATL_WIN_MODULE70@1@PEAUHINSTANCE__@@@Z 000000018002d0e0     OposVariant.obj
 0002:0000b0e0       $unwind$__scrt_dllmain_exception_filter 000000018002d0e0     LIBCMT:utility.obj
 0002:0000b0e0       $unwind$?GetHandlerSearchState@__FrameHandler3@@SAHPEA_KPEAU_xDISPATCHER_CONTEXT@@PEBU_s_FuncInfo@@@Z 000000018002d0e0     libvcruntime:frame.obj
 0002:0000b0e0       $unwind$?Is_bad_exception_allowed@@YAEPEBU_s_ESTypeList@@@Z 000000018002d0e0     libvcruntime:frame.obj
 0002:0000b0e0       $unwind$_recalloc_base     000000018002d0e0     libucrt:recalloc.obj
 0002:0000b0e0       $unwind$__acrt_free_locale 000000018002d0e0     libucrt:locale_refcounting.obj
 0002:0000b0e0       $unwind$__acrt_lowio_create_handle_array 000000018002d0e0     libucrt:osfinfo.obj
 0002:0000b0e0       $unwind$?setSBCS@@YAXPEAU__crt_multibyte_data@@@Z 000000018002d0e0     libucrt:mbctype.obj
 0002:0000b0e0       $unwind$_seh_filter_exe    000000018002d0e0     libucrt:exception_filter.obj
 0002:0000b0e0       $unwind$_initterm          000000018002d0e0     libucrt:initterm.obj
 0002:0000b0e0       $unwind$??$ensure_buffer_is_big_enough@D@formatting_buffer@__crt_stdio_output@@QEAA_N_K@Z 000000018002d0e0     libucrt:output.obj
 0002:0000b0e0       $unwind$??$ensure_buffer_is_big_enough@_W@formatting_buffer@__crt_stdio_output@@QEAA_N_K@Z 000000018002d0e0     libucrt:output.obj
 0002:0000b0f4       $unwind$??_GCRegObject@ATL@@UEAAPEAXI@Z 000000018002d0f4     ItemDispenser.obj
 0002:0000b0f4       $unwind$?Add@?$CSimpleArray@GV?$CSimpleArrayEqualHelper@G@ATL@@@ATL@@QEAAHAEBG@Z 000000018002d0f4     ItemDispenser.obj
 0002:0000b0f4       $unwind$?Add@?$CSimpleMap@PEA_WPEA_WVCExpansionVectorEqualHelper@ATL@@@ATL@@QEAAHAEBQEA_W0@Z 000000018002d0f4     ItemDispenser.obj
 0002:0000b0f4       $unwind$?Add@CComDynamicUnkArray@ATL@@QEAAKPEAUIUnknown@@@Z 000000018002d0f4     ItemDispenser.obj
 0002:0000b0f4       $unwind$?Advise@?$IOleObjectImpl@VCOPOSItemDispenser@@@ATL@@UEAAJPEAUIAdviseSink@@PEAK@Z 000000018002d0f4     ItemDispenser.obj
 0002:0000b0f4       $unwind$?ClearReplacements@CExpansionVector@ATL@@QEAAJXZ 000000018002d0f4     ItemDispenser.obj
 0002:0000b0f4       $unwind$?RegisterServer@CComModule@ATL@@QEAAJHPEBU_GUID@@@Z 000000018002d0f4     ItemDispenser.obj
 0002:0000b0f4       $unwind$?Term@CAtlModule@ATL@@QEAAXXZ 000000018002d0f4     ItemDispenser.obj
 0002:0000b0f4       $unwind$?UnregisterServer@CComModule@ATL@@QEAAJHPEBU_GUID@@@Z 000000018002d0f4     ItemDispenser.obj
 0002:0000b0f4       $unwind$?VTFromRegType@CRegParser@ATL@@KAHPEB_WAEAG@Z 000000018002d0f4     ItemDispenser.obj
 0002:0000b0f4       $unwind$??0OposDispParms@@QEAA@PEAVOposVariant@@H@Z 000000018002d0f4     OposVariant.obj
 0002:0000b0f4       $unwind$?SetBSTR_Copy@OposVariant@@QEAAXPEA_WAEAJ@Z 000000018002d0f4     OposVariant.obj
 0002:0000b0f4       $unwind$?SetBSTR_InOutPtr@OposVariant@@QEAA_NPEAPEA_WAEAJ@Z 000000018002d0f4     OposVariant.obj
 0002:0000b0f4       $unwind$?SetDispatch_Ptr@OposVariant@@QEAAXPEAUIDispatch@@AEAJ@Z 000000018002d0f4     OposVariant.obj
 0002:0000b0f4       $unwind$?SetLONG_Ptr@OposVariant@@QEAAXPEAJAEAJ@Z 000000018002d0f4     OposVariant.obj
 0002:0000b0f4       $unwind$?SetString@OposVariant@@QEAAXPEB_WAEAJ@Z 000000018002d0f4     OposVariant.obj
 0002:0000b0f4       $unwind$?Term@CAtlComModule@ATL@@QEAAXXZ 000000018002d0f4     OposVariant.obj
 0002:0000b0f4       $unwind$_DllMainCRTStartup 000000018002d0f4     LIBCMT:dll_dllmain.obj
 0002:0000b0f4       $unwind$__vcrt_getptd_noexit 000000018002d0f4     libvcruntime:per_thread_data.obj
 0002:0000b0f4       $unwind$?CatchTryBlock@__FrameHandler3@@SAPEBU_s_TryBlockMapEntry@@PEBU_s_FuncInfo@@H@Z 000000018002d0f4     libvcruntime:risctrnsctrl.obj
 0002:0000b0f4       $unwind$?FrameUnwindToEmptyState@__FrameHandler3@@SAXPEA_KPEAU_xDISPATCHER_CONTEXT@@PEBU_s_FuncInfo@@@Z 000000018002d0f4     libvcruntime:risctrnsctrl.obj
 0002:0000b0f4       $unwind$__vcrt_InitializeCriticalSectionEx 000000018002d0f4     libvcruntime:winapi_downlevel.obj
 0002:0000b0f4       $unwind$memcpy_s           000000018002d0f4     libucrt:cfout.obj
 0002:0000b0f4       $unwind$__acrt_getptd      000000018002d0f4     libucrt:per_thread_data.obj
 0002:0000b0f4       $unwind$__acrt_getptd_noexit 000000018002d0f4     libucrt:per_thread_data.obj
 0002:0000b0f4       $unwind$__acrt_execute_initializers 000000018002d0f4     libucrt:shared_initialization.obj
 0002:0000b0f4       $unwind$__acrt_InitializeCriticalSectionEx 000000018002d0f4     libucrt:winapi_thunks.obj
 0002:0000b0f4       $unwind$?free_crt_array_internal@@YAXQEAPEBX_K@Z 000000018002d0f4     libucrt:inittime.obj
 0002:0000b0f4       $unwind$??$common_lseek_nolock@_J@@YA_JH_JH@Z 000000018002d0f4     libucrt:lseek.obj
 0002:0000b0f4       $unwind$__acrt_stdio_flush_nolock 000000018002d0f4     libucrt:fflush.obj
 0002:0000b0f4       $unwind$??0_LocaleUpdate@@QEAA@QEAU__crt_locale_pointers@@@Z 000000018002d0f4     libucrt:output.obj
 0002:0000b0f4       $unwind$?type_case_Z@?$output_processor@_WV?$string_output_adapter@_W@__crt_stdio_output@@V?$format_validation_base@_WV?$string_output_adapter@_W@__crt_stdio_output@@@2@@__crt_stdio_output@@AEAA_NXZ 000000018002d0f4     libucrt:output.obj
 0002:0000b0f4       $unwind$?type_case_n@?$output_processor@_WV?$string_output_adapter@_W@__crt_stdio_output@@V?$format_validation_base@_WV?$string_output_adapter@_W@__crt_stdio_output@@@2@@__crt_stdio_output@@AEAA_NXZ 000000018002d0f4     libucrt:output.obj
 0002:0000b0f4       $unwind$?type_case_s@?$output_processor@_WV?$string_output_adapter@_W@__crt_stdio_output@@V?$format_validation_base@_WV?$string_output_adapter@_W@__crt_stdio_output@@@2@@__crt_stdio_output@@AEAA_NXZ 000000018002d0f4     libucrt:output.obj
 0002:0000b0f4       $unwind$_exception_enabled 000000018002d0f4     libucrt:libm_error.obj
 0002:0000b104       $unwind$?AddTermFunc@CAtlModule@ATL@@QEAAJP6AX_K@Z0@Z 000000018002d104     ItemDispenser.obj
 0002:0000b104       $unwind$?AtlComModuleRegisterServer@ATL@@YAJPEAU_ATL_COM_MODULE70@1@HPEBU_GUID@@@Z 000000018002d104     ItemDispenser.obj
 0002:0000b104       $unwind$?AtlComModuleUnregisterServer@ATL@@YAJPEAU_ATL_COM_MODULE70@1@HPEBU_GUID@@@Z 000000018002d104     ItemDispenser.obj
 0002:0000b104       $unwind$?CreateInstance@?$CComCreator@V?$CComAggObject@VCOPOSItemDispenser@@@ATL@@@ATL@@SAJPEAXAEBU_GUID@@PEAPEAX@Z 000000018002d104     ItemDispenser.obj
 0002:0000b104       $unwind$?CreateInstance@?$CComCreator@V?$CComObjectCached@VCComClassFactory@ATL@@@ATL@@@ATL@@SAJPEAXAEBU_GUID@@PEAPEAX@Z 000000018002d104     ItemDispenser.obj
 0002:0000b104       $unwind$?GetPagesHelper@?$ISpecifyPropertyPagesImpl@VCOPOSItemDispenser@@@ATL@@IEAAJPEAUtagCAUUID@@PEBUATL_PROPMAP_ENTRY@2@@Z 000000018002d104     ItemDispenser.obj
 0002:0000b104       $unwind$??_Estringdispid@CComTypeInfoHolder@ATL@@QEAAPEAXI@Z 000000018002d104     OposVariant.obj
 0002:0000b104       $unwind$__GSHandlerCheck_SEH 000000018002d104     LIBCMT:gshandlerseh.obj
 0002:0000b104       $unwind$??$TypeMatchHelper@V__FrameHandler3@@@@YAHPEBU_s_HandlerType@@PEBU_s_CatchableType@@PEBU_s_ThrowInfo@@@Z 000000018002d104     libvcruntime:frame.obj
 0002:0000b104       $unwind$?initialize_stdio_handles_nolock@@YAXXZ 000000018002d104     libucrt:ioinit.obj
 0002:0000b104       $unwind$__acrt_initialize_stdio 000000018002d104     libucrt:_file.obj
 0002:0000b11c       $unwind$??0?$CComContainedObject@VCOPOSItemDispenser@@@ATL@@QEAA@PEAX@Z 000000018002d11c     ItemDispenser.obj
 0002:0000b11c       $unwind$??1?$CComEnumImpl@UIEnumConnectionPoints@@$1?_GUID_b196b285_bab4_101a_b69c_00aa00341d07@@3U__s_GUID@@BPEAUIConnectionPoint@@V?$_CopyInterface@UIConnectionPoint@@@ATL@@@ATL@@UEAA@XZ 000000018002d11c     ItemDispenser.obj
 0002:0000b11c       $unwind$??1?$CComEnumImpl@UIEnumConnections@@$1?_GUID_b196b287_bab4_101a_b69c_00aa00341d07@@3U__s_GUID@@BUtagCONNECTDATA@@V?$_Copy@UtagCONNECTDATA@@@ATL@@@ATL@@UEAA@XZ 000000018002d11c     ItemDispenser.obj
 0002:0000b11c       $unwind$??_G?$CComAggObject@VCOPOSItemDispenser@@@ATL@@UEAAPEAXI@Z 000000018002d11c     ItemDispenser.obj
 0002:0000b11c       $unwind$??_G?$CComContainedObject@VCOPOSItemDispenser@@@ATL@@UEAAPEAXI@Z 000000018002d11c     ItemDispenser.obj
 0002:0000b11c       $unwind$??_G?$CComObject@V?$CComEnum@UIEnumConnectionPoints@@$1?_GUID_b196b285_bab4_101a_b69c_00aa00341d07@@3U__s_GUID@@BPEAUIConnectionPoint@@V?$_CopyInterface@UIConnectionPoint@@@ATL@@VCComSingleThreadModel@6@@ATL@@@ATL@@UEAAPEAXI@Z 000000018002d11c     ItemDispenser.obj
 0002:0000b11c       $unwind$??_G?$CComObject@V?$CComEnum@UIEnumConnections@@$1?_GUID_b196b287_bab4_101a_b69c_00aa00341d07@@3U__s_GUID@@BUtagCONNECTDATA@@V?$_Copy@UtagCONNECTDATA@@@ATL@@VCComSingleThreadModel@6@@ATL@@@ATL@@UEAAPEAXI@Z 000000018002d11c     ItemDispenser.obj
 0002:0000b11c       $unwind$??_G?$CComObject@VCOPOSItemDispenser@@@ATL@@UEAAPEAXI@Z 000000018002d11c     ItemDispenser.obj
 0002:0000b11c       $unwind$??_G?$CComObjectCached@VCComClassFactory@ATL@@@ATL@@UEAAPEAXI@Z 000000018002d11c     ItemDispenser.obj
 0002:0000b11c       $unwind$??_GCComClassFactory@ATL@@UEAAPEAXI@Z 000000018002d11c     ItemDispenser.obj
 0002:0000b11c       $unwind$??_GCComModule@ATL@@UEAAPEAXI@Z 000000018002d11c     ItemDispenser.obj
 0002:0000b11c       $unwind$?CreateInstance@?$CComObject@V?$CComEnum@UIEnumConnectionPoints@@$1?_GUID_b196b285_bab4_101a_b69c_00aa00341d07@@3U__s_GUID@@BPEAUIConnectionPoint@@V?$_CopyInterface@UIConnectionPoint@@@ATL@@VCComSingleThreadModel@6@@ATL@@@ATL@@SAJPEAPEAV12@@Z 000000018002d11c     ItemDispenser.obj
 0002:0000b11c       $unwind$?CreateInstance@?$CComObject@V?$CComEnum@UIEnumConnections@@$1?_GUID_b196b287_bab4_101a_b69c_00aa00341d07@@3U__s_GUID@@BUtagCONNECTDATA@@V?$_Copy@UtagCONNECTDATA@@@ATL@@VCComSingleThreadModel@6@@ATL@@@ATL@@SAJPEAPEAV12@@Z 000000018002d11c     ItemDispenser.obj
 0002:0000b11c       $unwind$?DeleteSubKey@CRegKey@ATL@@QEAAJPEB_W@Z 000000018002d11c     ItemDispenser.obj
 0002:0000b11c       $unwind$?IOleObject_SetClientSite@CComControlBase@ATL@@QEAAJPEAUIOleClientSite@@@Z 000000018002d11c     ItemDispenser.obj
 0002:0000b11c       $unwind$?InitNew@?$IPersistStorageImpl@VCOPOSItemDispenser@@@ATL@@UEAAJPEAUIStorage@@@Z 000000018002d11c     ItemDispenser.obj
 0002:0000b11c       $unwind$?IsDirty@?$IPersistStorageImpl@VCOPOSItemDispenser@@@ATL@@UEAAJXZ 000000018002d11c     ItemDispenser.obj
 0002:0000b11c       $unwind$?Release@?$CComAggObject@VCOPOSItemDispenser@@@ATL@@UEAAKXZ 000000018002d11c     ItemDispenser.obj
 0002:0000b11c       $unwind$?Release@?$CComObject@V?$CComEnum@UIEnumConnectionPoints@@$1?_GUID_b196b285_bab4_101a_b69c_00aa00341d07@@3U__s_GUID@@BPEAUIConnectionPoint@@V?$_CopyInterface@UIConnectionPoint@@@ATL@@VCComSingleThreadModel@6@@ATL@@@ATL@@UEAAKXZ 000000018002d11c     ItemDispenser.obj
 0002:0000b11c       $unwind$?Release@?$CComObject@V?$CComEnum@UIEnumConnections@@$1?_GUID_b196b287_bab4_101a_b69c_00aa00341d07@@3U__s_GUID@@BUtagCONNECTDATA@@V?$_Copy@UtagCONNECTDATA@@@ATL@@VCComSingleThreadModel@6@@ATL@@@ATL@@UEAAKXZ 000000018002d11c     ItemDispenser.obj
 0002:0000b11c       $unwind$?Release@?$CComObject@VCOPOSItemDispenser@@@ATL@@UEAAKXZ 000000018002d11c     ItemDispenser.obj
 0002:0000b11c       $unwind$?SOStatusUpdate@COPOSItemDispenser@@MEAAJJ@Z 000000018002d11c     ItemDispenser.obj
 0002:0000b11c       $unwind$?SetAdvise@?$IViewObjectExImpl@VCOPOSItemDispenser@@@ATL@@UEAAJKKPEAUIAdviseSink@@@Z 000000018002d11c     ItemDispenser.obj
 0002:0000b11c       $unwind$?Term@CComModule@ATL@@QEAAXXZ 000000018002d11c     ItemDispenser.obj
 0002:0000b11c       $unwind$DllMain            000000018002d11c     ItemDispenser.obj
 0002:0000b11c       $unwind$??1?$IConnectionPointImpl@VCOPOSItemDispenser@@$1?DIID__IOPOSItemDispenserEvents@@3U_GUID@@BVCComDynamicUnkArray@ATL@@@ATL@@QEAA@XZ 000000018002d11c     ItemDispenserImpl.obj
 0002:0000b11c       $unwind$??1?$IConnectionPointImpl@VCOPOSItemDispenser@@$1?IID_IPropertyNotifySink@@3U_GUID@@BVCComDynamicUnkArray@ATL@@@ATL@@QEAA@XZ 000000018002d11c     ItemDispenserImpl.obj
 0002:0000b11c       $unwind$?SetBSTR@OposVariant@@QEAAXPEA_WAEAJ@Z 000000018002d11c     OposVariant.obj
 0002:0000b11c       $unwind$?SetLONG@OposVariant@@QEAAXJ@Z 000000018002d11c     OposVariant.obj
 0002:0000b11c       $unwind$?SetVARIANT_BOOL@OposVariant@@QEAAXF@Z 000000018002d11c     OposVariant.obj
 0002:0000b11c       $unwind$??0CAtlBaseModule@ATL@@QEAA@XZ 000000018002d11c     atls:atlbase.obj
 0002:0000b11c       $unwind$??$GetProcAddressAll@P6AP6A_JPEAUHWND__@@I_K_J@ZPEAUAtlThunkData_t@@@Z@@YAP6AP6A_JPEAUHWND__@@I_K_J@ZPEAUAtlThunkData_t@@@ZPEAP6AP6A_J0I12@Z3@Z@Z 000000018002d11c     atls:atlthunk.obj
 0002:0000b11c       $unwind$??$GetProcAddressAll@P6APEAUAtlThunkData_t@@XZ@@YAP6APEAUAtlThunkData_t@@XZPEAP6APEAU0@XZ@Z 000000018002d11c     atls:atlthunk.obj
 0002:0000b11c       $unwind$??$GetProcAddressAll@P6AXPEAUAtlThunkData_t@@@Z@@YAP6AXPEAUAtlThunkData_t@@@ZPEAP6AX0@Z@Z 000000018002d11c     atls:atlthunk.obj
 0002:0000b11c       $unwind$??$GetProcAddressAll@P6AXPEAUAtlThunkData_t@@PEAX_K@Z@@YAP6AXPEAUAtlThunkData_t@@PEAX_K@ZPEAP6AX012@Z@Z 000000018002d11c     atls:atlthunk.obj
 0002:0000b11c       $unwind$?__AllocStdCallThunk_cmn@@YAPEAXXZ 000000018002d11c     atls:atlthunk.obj
 0002:0000b11c       $unwind$?__InitializeThunkPool@@YAHXZ 000000018002d11c     atls:atlthunk.obj
 0002:0000b11c       $unwind$AtlThunk_DataToCode 000000018002d11c     atls:atlthunk.obj
 0002:0000b11c       $unwind$_RTC_Initialize    000000018002d11c     LIBCMT:initsect.obj
 0002:0000b11c       $unwind$_RTC_Terminate     000000018002d11c     LIBCMT:initsect.obj
 0002:0000b11c       $unwind$?__scrt_initialize_thread_safe_statics@@YAHXZ 000000018002d11c     LIBCMT:thread_safe_statics.obj
 0002:0000b11c       $unwind$??_Gbad_alloc@std@@UEAAPEAXI@Z 000000018002d11c     LIBCMT:throw_bad_alloc.obj
 0002:0000b11c       $unwind$??_Gbad_array_new_length@std@@UEAAPEAXI@Z 000000018002d11c     LIBCMT:throw_bad_alloc.obj
 0002:0000b11c       $unwind$??_Gexception@std@@UEAAPEAXI@Z 000000018002d11c     LIBCMT:throw_bad_alloc.obj
 0002:0000b11c       $unwind$__FrameUnwindFilter 000000018002d11c     libvcruntime:ehhelpers.obj
 0002:0000b11c       $unwind$?SetUnwindTryBlock@__FrameHandler3@@SAXPEA_KPEAU_xDISPATCHER_CONTEXT@@PEBU_s_FuncInfo@@H@Z 000000018002d11c     libvcruntime:ehstate.obj
 0002:0000b11c       $unwind$??_Gbad_exception@std@@UEAAPEAXI@Z 000000018002d11c     libvcruntime:frame.obj
 0002:0000b11c       $unwind$_FindAndUnlinkFrame 000000018002d11c     libvcruntime:risctrnsctrl.obj
 0002:0000b11c       $unwind$__vcrt_FlsSetValue 000000018002d11c     libvcruntime:winapi_downlevel.obj
 0002:0000b11c       $unwind$??$common_initialize_environment_nolock@D@@YAHXZ 000000018002d11c     libucrt:environment_initialization.obj
 0002:0000b11c       $unwind$__acrt_fp_strflt_to_string 000000018002d11c     libucrt:_fptostr.obj
 0002:0000b11c       $unwind$_realloc_base      000000018002d11c     libucrt:realloc_base.obj
 0002:0000b11c       $unwind$?replace_current_thread_locale_nolock@@YAXQEAU__acrt_ptd@@QEAU__crt_locale_data@@@Z 000000018002d11c     libucrt:per_thread_data.obj
 0002:0000b11c       $unwind$__acrt_execute_uninitializers 000000018002d11c     libucrt:shared_initialization.obj
 0002:0000b11c       $unwind$__acrt_FlsSetValue 000000018002d11c     libucrt:winapi_thunks.obj
 0002:0000b11c       $unwind$__acrt_LocaleNameToLCID 000000018002d11c     libucrt:winapi_thunks.obj
 0002:0000b11c       $unwind$_updatetlocinfoEx_nolock 000000018002d11c     libucrt:locale_refcounting.obj
 0002:0000b11c       $unwind$_close_nolock      000000018002d11c     libucrt:close.obj
 0002:0000b11c       $unwind$__acrt_uninitialize_lowio 000000018002d11c     libucrt:ioinit.obj
 0002:0000b11c       $unwind$__acrt_errno_map_os_error 000000018002d11c     libucrt:errno.obj
 0002:0000b11c       $unwind$_initterm_e        000000018002d11c     libucrt:initterm.obj
 0002:0000b11c       $unwind$_fclose_nolock     000000018002d11c     libucrt:fclose.obj
 0002:0000b11c       $unwind$strncpy_s          000000018002d11c     libucrt:strncpy_s.obj
 0002:0000b11c       $unwind$wcsncpy_s          000000018002d11c     libucrt:wcsncpy_s.obj
 0002:0000b128       $unwind$?ChangeBSTR@OposVariant@@QEAAXPEAPEA_WAEAJ@Z 000000018002d128     OposVariant.obj
 0002:0000b128       $unwind$?ChangeLONG@OposVariant@@QEAAXPEAJAEAJ@Z 000000018002d128     OposVariant.obj
 0002:0000b128       $unwind$?x_ismbbtype_l@@YAHPEAU__crt_locale_pointers@@IHH@Z 000000018002d128     libucrt:ismbbyte.obj
 0002:0000b138       $unwind$swprintf_s         000000018002d138     ItemDispenser.obj
 0002:0000b148       $unwind$?_AtlVerifyStackAvailable@_ATL_SAFE_ALLOCA_IMPL@ATL@@YA_N_K@Z 000000018002d148     ItemDispenser.obj
 0002:0000b174       $unwind$?filt$0@?0??_AtlVerifyStackAvailable@_ATL_SAFE_ALLOCA_IMPL@ATL@@YA_N_K@Z@4HA 000000018002d174     ItemDispenser.obj
 0002:0000b174       $unwind$?fin$0@?0??dllmain_crt_process_attach@@YAHQEAUHINSTANCE__@@QEAX@Z@4HA 000000018002d174     LIBCMT:dll_dllmain.obj
 0002:0000b174       $unwind$?fin$0@?0??dllmain_crt_process_detach@@YAH_N@Z@4HA 000000018002d174     LIBCMT:dll_dllmain.obj
 0002:0000b174       $unwind$?fin$1@?0??dllmain_crt_process_detach@@YAH_N@Z@4HA 000000018002d174     LIBCMT:dll_dllmain.obj
 0002:0000b174       $unwind$_IsNonwritableInCurrentImage$filt$0 000000018002d174     LIBCMT:pesect.obj
 0002:0000b174       $unwind$?filt$0@?0??CxxCallCatchBlock@__FrameHandler3@@SAPEAXPEAU_EXCEPTION_RECORD@@@Z@4HA 000000018002d174     libvcruntime:frame.obj
 0002:0000b174       $unwind$?filt$0@?0??FrameUnwindToState@__FrameHandler3@@SAXPEA_KPEAU_xDISPATCHER_CONTEXT@@PEBU_s_FuncInfo@@H@Z@4HA 000000018002d174     libvcruntime:frame.obj
 0002:0000b174       $unwind$?fin$1@?0??FrameUnwindToState@__FrameHandler3@@SAXPEA_KPEAU_xDISPATCHER_CONTEXT@@PEBU_s_FuncInfo@@H@Z@4HA 000000018002d174     libvcruntime:frame.obj
 0002:0000b174       $unwind$_query_new_handler$fin$0 000000018002d174     libucrt:new_handler.obj
 0002:0000b174       $unwind$?fin$0@?0???$?RV<lambda_0ae27a3a962d80f24befdcbee591983d>@@AEAV<lambda_8d0ee55de4b1038c4002e0adecdf1839>@@V<lambda_dc504788e8f1664fe9b84e20bfb512f2>@@@?$__crt_seh_guarded_call@X@@QEAAX$$QEAV<lambda_0ae27a3a962d80f24befdcbee591983d>@@AEAV<lambda_8d0ee55de4b1038c4002e0adecdf1839>@@$$QEAV<lambda_dc504788e8f1664fe9b84e20bfb512f2>@@@Z@4HA 000000018002d174     libucrt:per_thread_data.obj
 0002:0000b174       $unwind$?fin$0@?0???$?RV<lambda_2d41944a1d46af3157314b8a01080d33>@@AEAV<lambda_8f455de75cd7d7f24b4096f044d8b9e6>@@V<lambda_aa500f224e6afead328df44964fe2772>@@@?$__crt_seh_guarded_call@X@@QEAAX$$QEAV<lambda_2d41944a1d46af3157314b8a01080d33>@@AEAV<lambda_8f455de75cd7d7f24b4096f044d8b9e6>@@$$QEAV<lambda_aa500f224e6afead328df44964fe2772>@@@Z@4HA 000000018002d174     libucrt:per_thread_data.obj
 0002:0000b174       $unwind$?fin$0@?0???$?RV<lambda_aa87e3671a710a21b5dc78c0bdf72e11>@@AEAV<lambda_92619d2358a28f41a33ba319515a20b9>@@V<lambda_6992ecaafeb10aed2b74cb1fae11a551>@@@?$__crt_seh_guarded_call@X@@QEAAX$$QEAV<lambda_aa87e3671a710a21b5dc78c0bdf72e11>@@AEAV<lambda_92619d2358a28f41a33ba319515a20b9>@@$$QEAV<lambda_6992ecaafeb10aed2b74cb1fae11a551>@@@Z@4HA 000000018002d174     libucrt:per_thread_data.obj
 0002:0000b174       $unwind$?fin$0@?0???$?RV<lambda_f2e299630e499de9f9a165e60fcd3db5>@@AEAV<lambda_2ae9d31cdba2644fcbeaf08da7c24588>@@V<lambda_40d01ff24d0e7b3814fdbdcee8eab3c7>@@@?$__crt_seh_guarded_call@X@@QEAAX$$QEAV<lambda_f2e299630e499de9f9a165e60fcd3db5>@@AEAV<lambda_2ae9d31cdba2644fcbeaf08da7c24588>@@$$QEAV<lambda_40d01ff24d0e7b3814fdbdcee8eab3c7>@@@Z@4HA 000000018002d174     libucrt:per_thread_data.obj
 0002:0000b174       $unwind$__acrt_update_thread_locale_data$fin$0 000000018002d174     libucrt:locale_refcounting.obj
 0002:0000b174       $unwind$?fin$0@?0???$?RV<lambda_410d79af7f07d98d83a3f525b3859a53>@@AEAV<lambda_3e16ef9562a7dcce91392c22ab16ea36>@@V<lambda_38119f0e861e05405d8a144b9b982f0a>@@@?$__crt_seh_guarded_call@X@@QEAAX$$QEAV<lambda_410d79af7f07d98d83a3f525b3859a53>@@AEAV<lambda_3e16ef9562a7dcce91392c22ab16ea36>@@$$QEAV<lambda_38119f0e861e05405d8a144b9b982f0a>@@@Z@4HA 000000018002d174     libucrt:wsetlocale.obj
 0002:0000b174       $unwind$?fin$0@?0???$?RV<lambda_751a882b2c74d4b022dec766aa51a29a>@@AEAV<lambda_628dfdc04ba53c8bfc02c9951375f3f5>@@V<lambda_f6c7be5f7998530c34de24c7437d6b54>@@@?$__crt_seh_guarded_call@H@@QEAAH$$QEAV<lambda_751a882b2c74d4b022dec766aa51a29a>@@AEAV<lambda_628dfdc04ba53c8bfc02c9951375f3f5>@@$$QEAV<lambda_f6c7be5f7998530c34de24c7437d6b54>@@@Z@4HA 000000018002d174     libucrt:close.obj
 0002:0000b174       $unwind$?fin$0@?0???$?RV<lambda_a37b2b86f63e897a80ea819b0eb08c01>@@AEAV<lambda_38ce7e780aa69e748d6df282ebc68efe>@@V<lambda_99fb1378e971ab6e7edea83e3a7a83a2>@@@?$__crt_seh_guarded_call@H@@QEAAH$$QEAV<lambda_a37b2b86f63e897a80ea819b0eb08c01>@@AEAV<lambda_38ce7e780aa69e748d6df282ebc68efe>@@$$QEAV<lambda_99fb1378e971ab6e7edea83e3a7a83a2>@@@Z@4HA 000000018002d174     libucrt:commit.obj
 0002:0000b174       $unwind$__acrt_initialize_lowio$fin$0 000000018002d174     libucrt:ioinit.obj
 0002:0000b174       $unwind$__acrt_lowio_ensure_fh_exists$fin$0 000000018002d174     libucrt:osfinfo.obj
 0002:0000b174       $unwind$_write$fin$0       000000018002d174     libucrt:write.obj
 0002:0000b174       $unwind$?fin$0@?0???$?RV<lambda_efdfa57d1f175319df784efa44bb7b81>@@AEAV<lambda_5f0a4c1567f8adc6734073e5d1e1b35c>@@V<lambda_2e8a7d3640ea6ccb4c2413664c2db6fd>@@@?$__crt_seh_guarded_call@X@@QEAAX$$QEAV<lambda_efdfa57d1f175319df784efa44bb7b81>@@AEAV<lambda_5f0a4c1567f8adc6734073e5d1e1b35c>@@$$QEAV<lambda_2e8a7d3640ea6ccb4c2413664c2db6fd>@@@Z@4HA 000000018002d174     libucrt:mbctype.obj
 0002:0000b174       $unwind$?fin$0@?0??update_thread_multibyte_data_internal@@YAPEAU__crt_multibyte_data@@QEAU__acrt_ptd@@QEAPEAU1@@Z@4HA 000000018002d174     libucrt:mbctype.obj
 0002:0000b174       $unwind$?fin$0@?0???$?RV<lambda_450d765d439847d4c735a33c368b5fc0>@@AEAV<lambda_44731a7d0e6d81c3e6aa82d741081786>@@V<lambda_601a2a7da3b7a96e9554ac7215c4b07c>@@@?$__crt_seh_guarded_call@P6AXH@Z@@QEAAP6AXH@Z$$QEAV<lambda_450d765d439847d4c735a33c368b5fc0>@@AEAV<lambda_44731a7d0e6d81c3e6aa82d741081786>@@$$QEAV<lambda_601a2a7da3b7a96e9554ac7215c4b07c>@@@Z@4HA 000000018002d174     libucrt:signal.obj
 0002:0000b174       $unwind$raise$fin$0        000000018002d174     libucrt:signal.obj
 0002:0000b174       $unwind$?filt$0@?0???R<lambda_6e4b09c48022b2350581041d5f6b0c4c>@@QEBA@XZ@4HA 000000018002d174     libucrt:exit.obj
 0002:0000b174       $unwind$?fin$0@?0???$?RV<lambda_d80eeec6fff315bfe5c115232f3240e3>@@AEAV<lambda_6e4b09c48022b2350581041d5f6b0c4c>@@V<lambda_2358e3775559c9db80273638284d5e45>@@@?$__crt_seh_guarded_call@X@@QEAAX$$QEAV<lambda_d80eeec6fff315bfe5c115232f3240e3>@@AEAV<lambda_6e4b09c48022b2350581041d5f6b0c4c>@@$$QEAV<lambda_2358e3775559c9db80273638284d5e45>@@@Z@4HA 000000018002d174     libucrt:exit.obj
 0002:0000b174       $unwind$?fin$0@?0???$?RV<lambda_638799b9deba96c50f710eeac98168cd>@@AEAV<lambda_22ebabd17bc4fa466a2aca6d8deb888d>@@V<lambda_a6f7d7db0129f75315ebf26d50c089f1>@@@?$__crt_seh_guarded_call@H@@QEAAH$$QEAV<lambda_638799b9deba96c50f710eeac98168cd>@@AEAV<lambda_22ebabd17bc4fa466a2aca6d8deb888d>@@$$QEAV<lambda_a6f7d7db0129f75315ebf26d50c089f1>@@@Z@4HA 000000018002d174     libucrt:onexit.obj
 0002:0000b174       $unwind$?fin$0@?0???$?RV<lambda_7777bce6b2f8c936911f934f8298dc43>@@AEAV<lambda_f03950bc5685219e0bcd2087efbe011e>@@V<lambda_3883c3dff614d5e0c5f61bb1ac94921c>@@@?$__crt_seh_guarded_call@H@@QEAAH$$QEAV<lambda_7777bce6b2f8c936911f934f8298dc43>@@AEAV<lambda_f03950bc5685219e0bcd2087efbe011e>@@$$QEAV<lambda_3883c3dff614d5e0c5f61bb1ac94921c>@@@Z@4HA 000000018002d174     libucrt:onexit.obj
 0002:0000b174       $unwind$_fcloseall$fin$0   000000018002d174     libucrt:closeall.obj
 0002:0000b174       $unwind$fclose$fin$0       000000018002d174     libucrt:fclose.obj
 0002:0000b174       $unwind$?fin$0@?0???$?RV<lambda_842d9ff0dc9ef11c61343bbaebe7f885>@@AEAV<lambda_c5860995281e5c4ce005b3de8f5874ee>@@V<lambda_d90129c13df834fdcbf8d2b88dafcf2d>@@@?$__crt_seh_guarded_call@X@@QEAAX$$QEAV<lambda_842d9ff0dc9ef11c61343bbaebe7f885>@@AEAV<lambda_c5860995281e5c4ce005b3de8f5874ee>@@$$QEAV<lambda_d90129c13df834fdcbf8d2b88dafcf2d>@@@Z@4HA 000000018002d174     libucrt:fflush.obj
 0002:0000b174       $unwind$?fin$0@?0???$?RV<lambda_886d6c58226a84441f68b9f2b8217b83>@@AEAV<lambda_ab61a845afdef5b7c387490eaf3616ee>@@V<lambda_f7f22ab5edc0698d5f6905b0d3f44752>@@@?$__crt_seh_guarded_call@X@@QEAAX$$QEAV<lambda_886d6c58226a84441f68b9f2b8217b83>@@AEAV<lambda_ab61a845afdef5b7c387490eaf3616ee>@@$$QEAV<lambda_f7f22ab5edc0698d5f6905b0d3f44752>@@@Z@4HA 000000018002d174     libucrt:fflush.obj
 0002:0000b174       $unwind$_ctrlfp$filt$0     000000018002d174     libucrt:fpctrl.obj
 0002:0000b17c       $unwind$?AtlInternalOleLoadFromStream@ATL@@YAJPEAUIStream@@AEBU_GUID@@PEAPEAXTClassesAllowedInStream@1@K@Z 000000018002d17c     ItemDispenser.obj
 0002:0000b198       $unwind$?ReadFromStream@CComBSTR@ATL@@QEAAJPEAUIStream@@@Z 000000018002d198     ItemDispenser.obj
 0002:0000b198       $unwind$_configure_narrow_argv 000000018002d198     libucrt:argv_parsing.obj
 0002:0000b1ac       $unwind$?WriteToStream@CComVariant@ATL@@QEAAJPEAUIStream@@@Z 000000018002d1ac     ItemDispenser.obj
 0002:0000b1c0       $unwind$?RegOpenKeyExW@CAtlTransactionManager@ATL@@QEAAJPEAUHKEY__@@PEB_WKKPEAPEAU3@@Z 000000018002d1c0     ItemDispenser.obj
 0002:0000b1c0       $unwind$?WriteToStream@CComVariant@ATL@@QEAAJPEAUIStream@@G@Z 000000018002d1c0     ItemDispenser.obj
 0002:0000b1c0       $unwind$__dcrt_write_console 000000018002d1c0     libucrt:initcon.obj
 0002:0000b1c0       $unwind$??$__acrt_wcs_to_mbs_cp@U__crt_win32_buffer_no_resizing@@@@YAHQEB_WAEAV?$__crt_win32_buffer@DU__crt_win32_buffer_no_resizing@@@@I@Z 000000018002d1c0     libucrt:getmodulefilenamea.obj
 0002:0000b1d4       $unwind$?ReadFromStream@CComVariant@ATL@@QEAAJPEAUIStream@@GTClassesAllowedInStream@2@K@Z 000000018002d1d4     ItemDispenser.obj
 0002:0000b1ec       $unwind$?GetSizeMax@CComVariant@ATL@@QEBAJPEAT_ULARGE_INTEGER@@@Z 000000018002d1ec     ItemDispenser.obj
 0002:0000b204       $unwind$?RegCreateKeyExW@CAtlTransactionManager@ATL@@QEAAJPEAUHKEY__@@PEB_WKPEA_WKKQEAU_SECURITY_ATTRIBUTES@@PEAPEAU3@PEAK@Z 000000018002d204     ItemDispenser.obj
 0002:0000b204       $unwind$__acrt_fp_format   000000018002d204     libucrt:cvt.obj
 0002:0000b218       $unwind$?GetGITPtr@CAtlModule@ATL@@UEAAJPEAPEAUIGlobalInterfaceTable@@@Z 000000018002d218     ItemDispenser.obj
 0002:0000b218       $unwind$?RegDeleteKeyW@CAtlTransactionManager@ATL@@QEAAJPEAUHKEY__@@PEB_W@Z 000000018002d218     ItemDispenser.obj
 0002:0000b218       $unwind$strpbrk            000000018002d218     libucrt:strpbrk.obj
 0002:0000b228       $unwind$?AtlHiMetricToPixel@ATL@@YAXPEBUtagSIZE@@PEAU2@@Z 000000018002d228     ItemDispenser.obj
 0002:0000b228       $unwind$?AtlInternalQueryInterface@ATL@@YAJPEAXPEBU_ATL_INTMAP_ENTRY@1@AEBU_GUID@@PEAPEAX@Z 000000018002d228     ItemDispenser.obj
 0002:0000b240       $unwind$?Append@CParseBuffer@CRegParser@ATL@@QEAAHPEB_WH@Z 000000018002d240     ItemDispenser.obj
 0002:0000b240       $unwind$?AtlComModuleGetClassObject@ATL@@YAJPEAU_ATL_COM_MODULE70@1@AEBU_GUID@@1PEAPEAX@Z 000000018002d240     ItemDispenser.obj
 0002:0000b240       $unwind$?EnumConnections@?$IConnectionPointImpl@VCOPOSItemDispenser@@$1?DIID__IOPOSItemDispenserEvents@@3U_GUID@@BVCComDynamicUnkArray@ATL@@@ATL@@UEAAJPEAPEAUIEnumConnections@@@Z 000000018002d240     ItemDispenser.obj
 0002:0000b240       $unwind$?EnumConnections@?$IConnectionPointImpl@VCOPOSItemDispenser@@$1?IID_IPropertyNotifySink@@3U_GUID@@BVCComDynamicUnkArray@ATL@@@ATL@@UEAAJPEAPEAUIEnumConnections@@@Z 000000018002d240     ItemDispenser.obj
 0002:0000b240       $unwind$?GetClassObject@CComModule@ATL@@QEAAJAEBU_GUID@@0PEAPEAX@Z 000000018002d240     ItemDispenser.obj
 0002:0000b240       $unwind$?Init@?$CComEnumImpl@UIEnumConnectionPoints@@$1?_GUID_b196b285_bab4_101a_b69c_00aa00341d07@@3U__s_GUID@@BPEAUIConnectionPoint@@V?$_CopyInterface@UIConnectionPoint@@@ATL@@@ATL@@QEAAJPEAPEAUIConnectionPoint@@0PEAUIUnknown@@W4CComEnumFlags@2@@Z 000000018002d240     ItemDispenser.obj
 0002:0000b240       $unwind$?Init@?$CComEnumImpl@UIEnumConnections@@$1?_GUID_b196b287_bab4_101a_b69c_00aa00341d07@@3U__s_GUID@@BUtagCONNECTDATA@@V?$_Copy@UtagCONNECTDATA@@@ATL@@@ATL@@QEAAJPEAUtagCONNECTDATA@@0PEAUIUnknown@@W4CComEnumFlags@2@@Z 000000018002d240     ItemDispenser.obj
 0002:0000b240       $unwind$?NextToken@CRegParser@ATL@@IEAAJPEA_W@Z 000000018002d240     ItemDispenser.obj
 0002:0000b240       $unwind$__acrt_DownlevelLocaleNameToLCID 000000018002d240     libucrt:lcidtoname_downlevel.obj
 0002:0000b240       $unwind$??R<lambda_f03950bc5685219e0bcd2087efbe011e>@@QEBAHXZ 000000018002d240     libucrt:onexit.obj
 0002:0000b240       $unwind$?type_case_integer@?$output_processor@_WV?$string_output_adapter@_W@__crt_stdio_output@@V?$format_validation_base@_WV?$string_output_adapter@_W@__crt_stdio_output@@@2@@__crt_stdio_output@@AEAA_NI_N@Z 000000018002d240     libucrt:output.obj
 0002:0000b258       $unwind$?AtlRegisterClassCategoriesHelper@ATL@@YAJAEBU_GUID@@PEBU_ATL_CATMAP_ENTRY@1@H@Z 000000018002d258     ItemDispenser.obj
 0002:0000b27c       $unwind$?AtlLoadTypeLib@ATL@@YAJPEAUHINSTANCE__@@PEB_WPEAPEA_WPEAPEAUITypeLib@@@Z 000000018002d27c     ItemDispenser.obj
 0002:0000b29c       $unwind$?AtlRegisterTypeLib@ATL@@YAJPEAUHINSTANCE__@@PEB_W@Z 000000018002d29c     ItemDispenser.obj
 0002:0000b2b8       $unwind$?AtlUnRegisterTypeLib@ATL@@YAJPEAUHINSTANCE__@@PEB_W@Z 000000018002d2b8     ItemDispenser.obj
 0002:0000b2c0       $unwind$?GetTI@CComTypeInfoHolder@ATL@@QEAAJK@Z 000000018002d2c0     ItemDispenser.obj
 0002:0000b2c0       $unwind$?RecurseDeleteKey@CRegKey@ATL@@QEAAJPEB_W@Z 000000018002d2c0     ItemDispenser.obj
 0002:0000b2e0       $unwind$?UpdateRegistryFromResource@CAtlModule@ATL@@QEAAJIHPEAU_ATL_REGMAP_ENTRY@2@@Z 000000018002d2e0     ItemDispenser.obj
 0002:0000b2e0       $unwind$?UpdateRegistryFromResource@CAtlModule@ATL@@QEAAJPEB_WHPEAU_ATL_REGMAP_ENTRY@2@@Z 000000018002d2e0     ItemDispenser.obj
 0002:0000b300       $unwind$?Lookup@?$CSimpleMap@PEA_WPEA_WVCExpansionVectorEqualHelper@ATL@@@ATL@@QEBAPEA_WAEBQEA_W@Z 000000018002d300     ItemDispenser.obj
 0002:0000b300       $unwind$__std_exception_copy 000000018002d300     libvcruntime:std_exception.obj
 0002:0000b300       $unwind$_free_osfhnd       000000018002d300     libucrt:osfinfo.obj
 0002:0000b314       $unwind$?Add@CExpansionVector@ATL@@QEAAHPEB_W0@Z 000000018002d314     ItemDispenser.obj
 0002:0000b32c       $unwind$?PreProcessBuffer@CRegParser@ATL@@QEAAJPEA_WPEAPEA_W@Z 000000018002d32c     ItemDispenser.obj
 0002:0000b350       $unwind$?RegisterBuffer@CRegParser@ATL@@QEAAJPEA_WH@Z 000000018002d350     ItemDispenser.obj
 0002:0000b370       $unwind$?AddValue@CRegParser@ATL@@IEAAJAEAVCRegKey@2@PEB_WPEA_W@Z 000000018002d370     ItemDispenser.obj
 0002:0000b390       $unwind$?RegisterSubkeys@CRegParser@ATL@@IEAAJPEA_WPEAUHKEY__@@HH@Z 000000018002d390     ItemDispenser.obj
 0002:0000b3b0       $unwind$?SkipAssignment@CRegParser@ATL@@IEAAJPEA_W@Z 000000018002d3b0     ItemDispenser.obj
 0002:0000b3c8       $unwind$?RegisterFromResource@CRegObject@ATL@@IEAAJPEB_W00H@Z 000000018002d3c8     ItemDispenser.obj
 0002:0000b3e8       $unwind$?Cleanup@CComTypeInfoHolder@ATL@@SAX_K@Z 000000018002d3e8     ItemDispenser.obj
 0002:0000b3e8       $unwind$AtlThunk_FreeData  000000018002d3e8     atls:atlthunk.obj
 0002:0000b3e8       $unwind$_free_base         000000018002d3e8     libucrt:free_base.obj
 0002:0000b3e8       $unwind$?destroy_fls@@YAXPEAX@Z 000000018002d3e8     libucrt:per_thread_data.obj
 0002:0000b3e8       $unwind$__acrt_locale_free_numeric 000000018002d3e8     libucrt:initnum.obj
 0002:0000b3e8       $unwind$__acrt_locale_free_lc_time_if_unreferenced 000000018002d3e8     libucrt:locale_refcounting.obj
 0002:0000b3f0       $unwind$?GetIDsOfNames@CComTypeInfoHolder@ATL@@QEAAJAEBU_GUID@@PEAPEA_WIKPEAJ@Z 000000018002d3f0     ItemDispenser.obj
 0002:0000b40c       $unwind$?LoadNameCache@CComTypeInfoHolder@ATL@@QEAAJPEAUITypeInfo@@@Z 000000018002d40c     ItemDispenser.obj
 0002:0000b420       $unwind$?StartWindowProc@?$CWindowImplBaseT@VCWindow@ATL@@V?$CWinTraits@$0FGAAAAAA@$0A@@2@@ATL@@SA_JPEAUHWND__@@I_K_J@Z 000000018002d420     ItemDispenser.obj
 0002:0000b420       $unwind$??$parse_command_line@D@@YAXPEADPEAPEAD0PEA_K2@Z 000000018002d420     libucrt:argv_parsing.obj
 0002:0000b43c       $unwind$?WindowProc@?$CWindowImplBaseT@VCWindow@ATL@@V?$CWinTraits@$0FGAAAAAA@$0A@@2@@ATL@@SA_JPEAUHWND__@@I_K_J@Z 000000018002d43c     ItemDispenser.obj
 0002:0000b454       $unwind$?atlCreate@?$CWindowImplBaseT@VCWindow@ATL@@V?$CWinTraits@$0FGAAAAAA@$0A@@2@@ATL@@QEAAPEAUHWND__@@PEAU3@V_U_RECT@2@PEB_WKKV_U_MENUorID@2@GPEAX@Z 000000018002d454     ItemDispenser.obj
 0002:0000b46c       $unwind$??$AtlModuleRegisterWndClassInfoT@VAtlModuleRegisterWndClassInfoParamW@ATL@@@ATL@@YAGPEAU_ATL_BASE_MODULE70@0@PEAU_ATL_WIN_MODULE70@0@PEAU_ATL_WNDCLASSINFOW@0@PEAP6A_JPEAUHWND__@@I_K_J@ZVAtlModuleRegisterWndClassInfoParamW@0@@Z 000000018002d46c     ItemDispenser.obj
 0002:0000b48c       $unwind$?GetZoomInfo@CComControlBase@ATL@@QEAAXAEAUATL_DRAWINFO@@@Z 000000018002d48c     ItemDispenser.obj
 0002:0000b48c       $unwind$?OnKillFocus@CComControlBase@ATL@@QEAA_JI_K_JAEAH@Z 000000018002d48c     ItemDispenser.obj
 0002:0000b48c       $unwind$iswctype           000000018002d48c     libucrt:iswctype.obj
 0002:0000b498       $unwind$?SendOnDataChange@CComControlBase@ATL@@QEAAJK@Z 000000018002d498     ItemDispenser.obj
 0002:0000b4a8       $unwind$?OnSetFocus@CComControlBase@ATL@@QEAA_JI_K_JAEAH@Z 000000018002d4a8     ItemDispenser.obj
 0002:0000b4b8       $unwind$?OnMouseActivate@CComControlBase@ATL@@QEAA_JI_K_JAEAH@Z 000000018002d4b8     ItemDispenser.obj
 0002:0000b4c0       $unwind$?GetAmbientLocaleID@CComControlBase@ATL@@QEAAJAEAK@Z 000000018002d4c0     ItemDispenser.obj
 0002:0000b4c0       $unwind$?GetAmbientUserMode@CComControlBase@ATL@@QEAAJAEAH@Z 000000018002d4c0     ItemDispenser.obj
 0002:0000b4d0       $unwind$?IQuickActivate_QuickActivate@CComControlBase@ATL@@QEAAJPEAUtagQACONTAINER@@PEAUtagQACONTROL@@@Z 000000018002d4d0     ItemDispenser.obj
 0002:0000b4e8       $unwind$?DoVerbProperties@CComControlBase@ATL@@QEAAJPEBUtagRECT@@PEAUHWND__@@@Z 000000018002d4e8     ItemDispenser.obj
 0002:0000b500       $unwind$?InPlaceActivate@CComControlBase@ATL@@QEAAJJPEBUtagRECT@@@Z 000000018002d500     ItemDispenser.obj
 0002:0000b520       $unwind$?IOleObject_Close@CComControlBase@ATL@@QEAAJK@Z 000000018002d520     ItemDispenser.obj
 0002:0000b520       $unwind$?type_case_c_tchar@?$output_processor@_WV?$string_output_adapter@_W@__crt_stdio_output@@V?$format_validation_base@_WV?$string_output_adapter@_W@__crt_stdio_output@@@2@@__crt_stdio_output@@AEAA_N_W@Z 000000018002d520     libucrt:output.obj
 0002:0000b530       $unwind$?IOleInPlaceObject_UIDeactivate@CComControlBase@ATL@@QEAAJXZ 000000018002d530     ItemDispenser.obj
 0002:0000b548       $unwind$?IOleInPlaceObject_SetObjectRects@CComControlBase@ATL@@QEAAJPEBUtagRECT@@0@Z 000000018002d548     ItemDispenser.obj
 0002:0000b55c       $unwind$?IViewObject_Draw@CComControlBase@ATL@@QEAAJKJPEAXPEAUtagDVTARGETDEVICE@@PEAUHDC__@@2PEBU_RECTL@@3@Z 000000018002d55c     ItemDispenser.obj
 0002:0000b578       $unwind$?IDataObject_GetData@CComControlBase@ATL@@QEAAJPEAUtagFORMATETC@@PEAUtagSTGMEDIUM@@@Z 000000018002d578     ItemDispenser.obj
 0002:0000b598       $unwind$?OnPaint@CComControlBase@ATL@@QEAA_JI_K_JAEAH@Z 000000018002d598     ItemDispenser.obj
 0002:0000b5b4       $unwind$?OnDrawAdvanced@CComControlBase@ATL@@UEAAJAEAUATL_DRAWINFO@@@Z 000000018002d5b4     ItemDispenser.obj
 0002:0000b5d0       $unwind$?Invoke@?$IDispatchImpl@UIOPOSItemDispenser@@$1?IID_IOPOSItemDispenser@@3U_GUID@@B$1?LIBID_OposItemDispenser_CCO@@3U3@B$00$0A@VCComTypeInfoHolder@ATL@@@ATL@@UEAAJJAEBU_GUID@@KGPEAUtagDISPPARAMS@@PEAUtagVARIANT@@PEAUtagEXCEPINFO@@PEAI@Z 000000018002d5d0     ItemDispenser.obj
 0002:0000b5d0       $unwind$?ReleaseDevice@COPOSItemDispenser@@UEAAJPEAJ@Z 000000018002d5d0     ItemDispenserImpl.obj
 0002:0000b5d0       $unwind$_mbsdec_l          000000018002d5d0     libucrt:mbsdec.obj
 0002:0000b5dc       $unwind$?atlCreate@?$CWindowImpl@VCOPOSItemDispenser@@VCWindow@ATL@@V?$CWinTraits@$0FGAAAAAA@$0A@@3@@ATL@@QEAAPEAUHWND__@@PEAU3@V_U_RECT@2@PEB_WKKV_U_MENUorID@2@PEAX@Z 000000018002d5dc     ItemDispenser.obj
 0002:0000b5dc       $unwind$?fp_format_e@@YAHQEBNQEAD_K12H_NIQEAU__crt_locale_pointers@@@Z 000000018002d5dc     libucrt:cvt.obj
 0002:0000b5dc       $unwind$_mbtowc_l          000000018002d5dc     libucrt:mbtowc.obj
 0002:0000b5dc       $unwind$__acrt_LCMapStringEx 000000018002d5dc     libucrt:winapi_thunks.obj
 0002:0000b5f0       $unwind$?CreateControlWindow@?$CComControl@VCOPOSItemDispenser@@V?$CWindowImpl@VCOPOSItemDispenser@@VCWindow@ATL@@V?$CWinTraits@$0FGAAAAAA@$0A@@3@@ATL@@@ATL@@UEAAPEAUHWND__@@PEAU3@AEAUtagRECT@@@Z 000000018002d5f0     ItemDispenser.obj
 0002:0000b5f0       $unwind$?__scrt_throw_std_bad_alloc@@YAXXZ 000000018002d5f0     LIBCMT:throw_bad_alloc.obj
 0002:0000b5f0       $unwind$?__scrt_throw_std_bad_array_new_length@@YAXXZ 000000018002d5f0     LIBCMT:throw_bad_alloc.obj
 0002:0000b5f0       $unwind$_raise_exc         000000018002d5f0     libucrt:fpexcept.obj
 0002:0000b5f8       $unwind$?GetSizeMax@?$IPersistStreamInitImpl@VCOPOSItemDispenser@@@ATL@@UEAAJPEAT_ULARGE_INTEGER@@@Z 000000018002d5f8     ItemDispenser.obj
 0002:0000b610       $unwind$?IPersistStreamInit_Load@?$IPersistStreamInitImpl@VCOPOSItemDispenser@@@ATL@@QEAAJPEAUIStream@@PEBUATL_PROPMAP_ENTRY@2@@Z 000000018002d610     ItemDispenser.obj
 0002:0000b62c       $unwind$?IPersistStreamInit_Save@?$IPersistStreamInitImpl@VCOPOSItemDispenser@@@ATL@@QEAAJPEAUIStream@@HPEBUATL_PROPMAP_ENTRY@2@@Z 000000018002d62c     ItemDispenser.obj
 0002:0000b648       $unwind$?DoVerbPrimary@?$IOleObjectImpl@VCOPOSItemDispenser@@@ATL@@QEAAJPEBUtagRECT@@PEAUHWND__@@@Z 000000018002d648     ItemDispenser.obj
 0002:0000b648       $unwind$?AdjustItemCount@COPOSItemDispenser@@UEAAJJJPEAJ@Z 000000018002d648     ItemDispenserImpl.obj
 0002:0000b660       $unwind$?TranslateAcceleratorW@?$IOleInPlaceActiveObjectImpl@VCOPOSItemDispenser@@@ATL@@UEAAJPEAUtagMSG@@@Z 000000018002d660     ItemDispenser.obj
 0002:0000b66c       $unwind$?Draw@?$IViewObjectExImpl@VCOPOSItemDispenser@@@ATL@@UEAAJKJPEAXPEAUtagDVTARGETDEVICE@@PEAUHDC__@@2PEBU_RECTL@@3P6AH_K@Z4@Z 000000018002d66c     ItemDispenser.obj
 0002:0000b674       $unwind$?QueryHitRect@?$IViewObjectExImpl@VCOPOSItemDispenser@@@ATL@@UEAAJKPEBUtagRECT@@0JPEAK@Z 000000018002d674     ItemDispenser.obj
 0002:0000b684       $unwind$?OnWindowMessage@?$IOleInPlaceObjectWindowlessImpl@VCOPOSItemDispenser@@@ATL@@UEAAJI_K_JPEA_J@Z 000000018002d684     ItemDispenser.obj
 0002:0000b698       $unwind$?EnumConnectionPoints@?$IConnectionPointContainerImpl@VCOPOSItemDispenser@@@ATL@@UEAAJPEAPEAUIEnumConnectionPoints@@@Z 000000018002d698     ItemDispenser.obj
 0002:0000b6c0       $unwind$?FindConnectionPoint@?$IConnectionPointContainerImpl@VCOPOSItemDispenser@@@ATL@@UEAAJAEBU_GUID@@PEAPEAUIConnectionPoint@@@Z 000000018002d6c0     ItemDispenser.obj
 0002:0000b6c0       $unwind$?__mbrtoc32_utf8@__crt_mbstring@@YA_KPEA_UPEBD_KPEAU_Mbstatet@@@Z 000000018002d6c0     libucrt:mbrtoc32.obj
 0002:0000b6dc       $unwind$?Load@?$IPersistStorageImpl@VCOPOSItemDispenser@@@ATL@@UEAAJPEAUIStorage@@@Z 000000018002d6dc     ItemDispenser.obj
 0002:0000b6ec       $unwind$?Save@?$IPersistStorageImpl@VCOPOSItemDispenser@@@ATL@@UEAAJPEAUIStorage@@H@Z 000000018002d6ec     ItemDispenser.obj
 0002:0000b700       $unwind$?IPSI_GetIPersistStreamInit@?$IPersistStorageImpl@VCOPOSItemDispenser@@@ATL@@AEAAPEAUIPersistStreamInit@@XZ 000000018002d700     ItemDispenser.obj
 0002:0000b700       $unwind$?parse_int_from_format_string@?$output_processor@_WV?$string_output_adapter@_W@__crt_stdio_output@@V?$format_validation_base@_WV?$string_output_adapter@_W@__crt_stdio_output@@@2@@__crt_stdio_output@@AEAA_NQEAH@Z 000000018002d700     libucrt:output.obj
 0002:0000b714       $unwind$?GetInterfaceSafetyOptions@?$IObjectSafetyImpl@VCOPOSItemDispenser@@$02@ATL@@UEAAJAEBU_GUID@@PEAK1@Z 000000018002d714     ItemDispenser.obj
 0002:0000b728       $unwind$?SetInterfaceSafetyOptions@?$IObjectSafetyImpl@VCOPOSItemDispenser@@$02@ATL@@UEAAJAEBU_GUID@@KK@Z 000000018002d728     ItemDispenser.obj
 0002:0000b73c       $unwind$?Advise@?$IConnectionPointImpl@VCOPOSItemDispenser@@$1?DIID__IOPOSItemDispenserEvents@@3U_GUID@@BVCComDynamicUnkArray@ATL@@@ATL@@UEAAJPEAUIUnknown@@PEAK@Z 000000018002d73c     ItemDispenser.obj
 0002:0000b73c       $unwind$?Advise@?$IConnectionPointImpl@VCOPOSItemDispenser@@$1?IID_IPropertyNotifySink@@3U_GUID@@BVCComDynamicUnkArray@ATL@@@ATL@@UEAAJPEAUIUnknown@@PEAK@Z 000000018002d73c     ItemDispenser.obj
 0002:0000b750       $unwind$?Fire_DirectIOEvent@?$CProxy_IOPOSEvents@VCOPOSItemDispenser@@@@QEAAXJPEAJPEAPEA_W@Z 000000018002d750     ItemDispenser.obj
 0002:0000b770       $unwind$?Fire_StatusUpdateEvent@?$CProxy_IOPOSEvents@VCOPOSItemDispenser@@@@QEAAXJ@Z 000000018002d770     ItemDispenser.obj
 0002:0000b770       $unwind$??$__InternalCxxFrameHandler@V__FrameHandler3@@@@YA?AW4_EXCEPTION_DISPOSITION@@PEAUEHExceptionRecord@@PEA_KPEAU_CONTEXT@@PEAU_xDISPATCHER_CONTEXT@@PEBU_s_FuncInfo@@H1E@Z 000000018002d770     libvcruntime:frame.obj
 0002:0000b788       $unwind$?FireTheEvent@?$CProxy_IOPOSEvents@VCOPOSItemDispenser@@@@IEAAXPEAVOposVariant@@IAEAJPEB_WJ@Z 000000018002d788     ItemDispenser.obj
 0002:0000b798       $unwind$?ProcessWindowMessage@COPOSItemDispenser@@UEAAHPEAUHWND__@@I_K_JAEA_JK@Z 000000018002d798     ItemDispenser.obj
 0002:0000b798       $unwind$__dcrt_get_narrow_environment_from_os 000000018002d798     libucrt:get_environment_from_os.obj
 0002:0000b798       $unwind$?fp_format_f_internal@@YAHQEAD_KHQEAU_strflt@@_NQEAU__crt_locale_pointers@@@Z 000000018002d798     libucrt:cvt.obj
 0002:0000b798       $unwind$??$__acrt_wcs_to_mbs_cp@U__crt_win32_buffer_internal_dynamic_resizing@@@@YAHQEB_WAEAV?$__crt_win32_buffer@DU__crt_win32_buffer_internal_dynamic_resizing@@@@I@Z 000000018002d798     libucrt:argv_wildcards.obj
 0002:0000b7b0       $unwind$?Clone@?$CComEnumImpl@UIEnumConnectionPoints@@$1?_GUID_b196b285_bab4_101a_b69c_00aa00341d07@@3U__s_GUID@@BPEAUIConnectionPoint@@V?$_CopyInterface@UIConnectionPoint@@@ATL@@@ATL@@UEAAJPEAPEAUIEnumConnectionPoints@@@Z 000000018002d7b0     ItemDispenser.obj
 0002:0000b7b0       $unwind$?Clone@?$CComEnumImpl@UIEnumConnections@@$1?_GUID_b196b287_bab4_101a_b69c_00aa00341d07@@3U__s_GUID@@BUtagCONNECTDATA@@V?$_Copy@UtagCONNECTDATA@@@ATL@@@ATL@@UEAAJPEAPEAUIEnumConnections@@@Z 000000018002d7b0     ItemDispenser.obj
 0002:0000b7c8       $unwind$?GetOposProp@COPOSItemDispenser@@IEAAJJPEAJJ@Z 000000018002d7c8     ItemDispenserImpl.obj
 0002:0000b7c8       $unwind$?GetOposProp@COPOSItemDispenser@@IEAAJJPEAPEA_WJ@Z 000000018002d7c8     ItemDispenserImpl.obj
 0002:0000b7e0       $unwind$?SetOposProp@COPOSItemDispenser@@IEAAJJJJ@Z 000000018002d7e0     ItemDispenserImpl.obj
 0002:0000b800       $unwind$?DoInvoke@COPOSItemDispenser@@IEAAJJPEAVOposVariant@@IHPEAJ_N@Z 000000018002d800     ItemDispenserImpl.obj
 0002:0000b818       $unwind$?SetCOFreezeEvents@COPOSItemDispenser@@IEAAXF@Z 000000018002d818     ItemDispenserImpl.obj
 0002:0000b82c       $unwind$?OnDraw@COPOSItemDispenser@@MEAAJAEAUATL_DRAWINFO@@@Z 000000018002d82c     ItemDispenserImpl.obj
 0002:0000b844       $unwind$?EventInit@COPOSItemDispenser@@IEAAJXZ 000000018002d844     ItemDispenserImpl.obj
 0002:0000b858       $unwind$?EventWindowProc@COPOSItemDispenser@@IEAA_JI_K_J@Z 000000018002d858     ItemDispenserImpl.obj
 0002:0000b86c       $unwind$?get_ControlObjectDescription@COPOSItemDispenser@@UEAAJPEAPEA_W@Z 000000018002d86c     ItemDispenserImpl.obj
 0002:0000b86c       $unwind$__dcrt_lowio_ensure_console_output_initialized 000000018002d86c     libucrt:initcon.obj
 0002:0000b86c       $unwind$_isleadbyte_l      000000018002d86c     libucrt:_wctype.obj
 0002:0000b86c       $unwind$?getSystemCP@@YAHH@Z 000000018002d86c     libucrt:mbctype.obj
 0002:0000b874       $unwind$?CheckHealth@COPOSItemDispenser@@UEAAJJPEAJ@Z 000000018002d874     ItemDispenserImpl.obj
 0002:0000b874       $unwind$?ResetStatistics@COPOSItemDispenser@@UEAAJPEA_WPEAJ@Z 000000018002d874     ItemDispenserImpl.obj
 0002:0000b874       $unwind$?RetrieveStatistics@COPOSItemDispenser@@UEAAJPEAPEA_WPEAJ@Z 000000018002d874     ItemDispenserImpl.obj
 0002:0000b874       $unwind$?UpdateFirmware@COPOSItemDispenser@@UEAAJPEA_WPEAJ@Z 000000018002d874     ItemDispenserImpl.obj
 0002:0000b874       $unwind$?UpdateStatistics@COPOSItemDispenser@@UEAAJPEA_WPEAJ@Z 000000018002d874     ItemDispenserImpl.obj
 0002:0000b884       $unwind$?ClaimDevice@COPOSItemDispenser@@UEAAJJPEAJ@Z 000000018002d884     ItemDispenserImpl.obj
 0002:0000b894       $unwind$?Close@COPOSItemDispenser@@UEAAJPEAJ@Z 000000018002d894     ItemDispenserImpl.obj
 0002:0000b8a0       $unwind$?DirectIO@COPOSItemDispenser@@UEAAJJPEAJPEAPEA_W0@Z 000000018002d8a0     ItemDispenserImpl.obj
 0002:0000b8bc       $unwind$?Open@COPOSItemDispenser@@UEAAJPEA_WPEAJ@Z 000000018002d8bc     ItemDispenserImpl.obj
 0002:0000b8e0       $unwind$?CompareFirmwareVersion@COPOSItemDispenser@@UEAAJPEA_WPEAJ1@Z 000000018002d8e0     ItemDispenserImpl.obj
 0002:0000b8e0       $unwind$?DispenseItem@COPOSItemDispenser@@UEAAJPEAJJ0@Z 000000018002d8e0     ItemDispenserImpl.obj
 0002:0000b8e0       $unwind$?ReadItemCount@COPOSItemDispenser@@UEAAJPEAJJ0@Z 000000018002d8e0     ItemDispenserImpl.obj
 0002:0000b8e0       $unwind$?initialize_inherited_file_handles_nolock@@YAXXZ 000000018002d8e0     libucrt:ioinit.obj
 0002:0000b8fc       $unwind$__scrt_is_nonwritable_in_current_image 000000018002d8fc     LIBCMT:utility.obj
 0002:0000b91c       $unwind$__scrt_is_nonwritable_in_current_image$filt$0 000000018002d91c     LIBCMT:utility.obj
 0002:0000b924       $unwind$__report_securityfailure 000000018002d924     LIBCMT:gs_report.obj
 0002:0000b92c       $unwind$__report_gsfailure 000000018002d92c     LIBCMT:gs_report.obj
 0002:0000b934       $unwind$capture_current_context 000000018002d934     LIBCMT:gs_report.obj
 0002:0000b940       $unwind$capture_previous_context 000000018002d940     LIBCMT:gs_report.obj
 0002:0000b94c       $unwind$??2@YAPEAX_KAEBUnothrow_t@std@@@Z 000000018002d94c     LIBCMT:new_scalar_nothrow.obj
 0002:0000b95c       $stateUnwindMap$??2@YAPEAX_KAEBUnothrow_t@std@@@Z 000000018002d95c     LIBCMT:new_scalar_nothrow.obj
 0002:0000b96c       $tryMap$??2@YAPEAX_KAEBUnothrow_t@std@@@Z 000000018002d96c     LIBCMT:new_scalar_nothrow.obj
 0002:0000b980       $handlerMap$0$??2@YAPEAX_KAEBUnothrow_t@std@@@Z 000000018002d980     LIBCMT:new_scalar_nothrow.obj
 0002:0000b998       $ip2state$??2@YAPEAX_KAEBUnothrow_t@std@@@Z 000000018002d998     LIBCMT:new_scalar_nothrow.obj
 0002:0000b9a0       $unwind$?catch$0@?0???2@YAPEAX_KAEBUnothrow_t@std@@@Z@4HA 000000018002d9a0     LIBCMT:new_scalar_nothrow.obj
 0002:0000b9b0       $unwind$__GSHandlerCheckCommon 000000018002d9b0     LIBCMT:gshandler.obj
 0002:0000b9b0       $unwind$__acrt_WideCharToMultiByte 000000018002d9b0     libucrt:widechartomultibyte.obj
 0002:0000b9b8       $xdatasym                  000000018002d9b8     LIBCMT:chkstk.obj
 0002:0000b9c0       $xdatasym                  000000018002d9c0     LIBCMT:amdsecgs.obj
 0002:0000b9c4       $unwind$?dllmain_crt_process_attach@@YAHQEAUHINSTANCE__@@QEAX@Z 000000018002d9c4     LIBCMT:dll_dllmain.obj
 0002:0000ba00       $unwind$?dllmain_crt_process_detach@@YAH_N@Z 000000018002da00     LIBCMT:dll_dllmain.obj
 0002:0000ba54       $unwind$?dllmain_dispatch@@YAHQEAUHINSTANCE__@@KQEAX@Z 000000018002da54     LIBCMT:dll_dllmain.obj
 0002:0000ba7c       $unwind$?filt$0@?0??dllmain_dispatch@@YAHQEAUHINSTANCE__@@KQEAX@Z@4HA 000000018002da7c     LIBCMT:dll_dllmain.obj
 0002:0000ba84       $unwind$__isa_available_init 000000018002da84     LIBCMT:cpu_disp.obj
 0002:0000ba94       $unwind$__scrt_fastfail    000000018002da94     LIBCMT:utility_desktop.obj
 0002:0000baa4       $unwind$__security_init_cookie 000000018002daa4     LIBCMT:gs_support.obj
 0002:0000bab0       $xdatasym                  000000018002dab0     LIBCMT:guard_dispatch.obj
 0002:0000bab4       $unwind$AtlThunk_InitData  000000018002dab4     atls:atlthunk.obj
 0002:0000bac8       $unwind$wcsstr             000000018002dac8     libvcruntime:wcsstr.obj
 0002:0000bae0       $xdatasym                  000000018002dae0     libvcruntime:memcmp.obj
 0002:0000bae8       $xdatasym                  000000018002dae8     libvcruntime:memcpy.obj
 0002:0000baf8       $xdatasym                  000000018002daf8     libvcruntime:memset.obj
 0002:0000bb08       $unwind$__C_specific_handler 000000018002db08     libvcruntime:riscchandler.obj
 0002:0000bb24       $unwind$?GetEstablisherFrame@__FrameHandler3@@SAPEA_KPEA_KPEAU_xDISPATCHER_CONTEXT@@PEBU_s_FuncInfo@@0@Z 000000018002db24     libvcruntime:risctrnsctrl.obj
 0002:0000bb3c       $unwind$?UnwindNestedFrames@__FrameHandler3@@SAXPEA_KPEAUEHExceptionRecord@@PEAU_CONTEXT@@0PEAXPEBU_s_FuncInfo@@HHPEBU_s_HandlerType@@PEAU_xDISPATCHER_CONTEXT@@E@Z 000000018002db3c     libvcruntime:risctrnsctrl.obj
 0002:0000bb50       $unwind$?GetRangeOfTrysToCheck@__FrameHandler3@@SA?AU?$pair@Viterator@TryBlockMap@__FrameHandler3@@V123@@std@@AEAVTryBlockMap@1@HPEAU_xDISPATCHER_CONTEXT@@PEBU_s_FuncInfo@@H@Z 000000018002db50     libvcruntime:risctrnsctrl.obj
 0002:0000bb68       $unwind$__CxxFrameHandler3 000000018002db68     libvcruntime:risctrnsctrl.obj
 0002:0000bb7c       $unwind$??$_CallSETranslator@V__FrameHandler3@@@@YAHPEAUEHExceptionRecord@@PEA_KPEAU_CONTEXT@@PEAU_xDISPATCHER_CONTEXT@@PEBU_s_FuncInfo@@K1@Z 000000018002db7c     libvcruntime:risctrnsctrl.obj
 0002:0000bb9c       $unwind$?filt$0@?0???$_CallSETranslator@V__FrameHandler3@@@@YAHPEAUEHExceptionRecord@@PEA_KPEAU_CONTEXT@@PEAU_xDISPATCHER_CONTEXT@@PEBU_s_FuncInfo@@K1@Z@4HA 000000018002db9c     libvcruntime:risctrnsctrl.obj
 0002:0000bba8       $unwind$__DestructExceptionObject 000000018002dba8     libvcruntime:ehhelpers.obj
 0002:0000bbc8       $unwind$__DestructExceptionObject$filt$0 000000018002dbc8     libvcruntime:ehhelpers.obj
 0002:0000bbc8       $unwind$?fin$1@?0??CxxCallCatchBlock@__FrameHandler3@@SAPEAXPEAU_EXCEPTION_RECORD@@@Z@4HA 000000018002dbc8     libvcruntime:frame.obj
 0002:0000bbd4       $unwind$_CxxThrowException 000000018002dbd4     libvcruntime:throw.obj
 0002:0000bbe8       $xdatasym                  000000018002dbe8     libvcruntime:notify.obj
 0002:0000bbf4       $unwind$?FrameUnwindToState@__FrameHandler3@@SAXPEA_KPEAU_xDISPATCHER_CONTEXT@@PEBU_s_FuncInfo@@H@Z 000000018002dbf4     libvcruntime:frame.obj
 0002:0000bc40       $unwind$?CxxCallCatchBlock@__FrameHandler3@@SAPEAXPEAU_EXCEPTION_RECORD@@@Z 000000018002dc40     libvcruntime:frame.obj
 0002:0000bc7c       $unwind$?IsInExceptionSpec@@YAEPEAUEHExceptionRecord@@PEBU_s_ESTypeList@@@Z 000000018002dc7c     libvcruntime:frame.obj
 0002:0000bc98       $unwind$??$BuildCatchObjectHelperInternal@V__FrameHandler3@@@@YAHPEAUEHExceptionRecord@@PEAXPEBU_s_HandlerType@@PEBU_s_CatchableType@@@Z 000000018002dc98     libvcruntime:frame.obj
 0002:0000bcd8       $unwind$??$BuildCatchObjectInternal@V__FrameHandler3@@@@YAXPEAUEHExceptionRecord@@PEAXPEBU_s_HandlerType@@PEBU_s_CatchableType@@@Z 000000018002dcd8     libvcruntime:frame.obj
 0002:0000bd04       $unwind$??$FindHandler@V__FrameHandler3@@@@YAXPEAUEHExceptionRecord@@PEA_KPEAU_CONTEXT@@PEAU_xDISPATCHER_CONTEXT@@PEBU_s_FuncInfo@@EH1@Z 000000018002dd04     libvcruntime:frame.obj
 0002:0000bd24       $unwind$??$CatchIt@V__FrameHandler3@@@@YAXPEAUEHExceptionRecord@@PEA_KPEAU_CONTEXT@@PEAU_xDISPATCHER_CONTEXT@@PEBU_s_FuncInfo@@PEBU_s_HandlerType@@PEBU_s_CatchableType@@PEBU_s_TryBlockMapEntry@@H1EE@Z 000000018002dd24     libvcruntime:frame.obj
 0002:0000bd3c       $unwind$??$FindHandlerForForeignException@V__FrameHandler3@@@@YAXPEAUEHExceptionRecord@@PEA_KPEAU_CONTEXT@@PEAU_xDISPATCHER_CONTEXT@@PEBU_s_FuncInfo@@HH1@Z 000000018002dd3c     libvcruntime:frame.obj
 0002:0000bd58       $unwind$?try_get_function@@YAPEAXW4function_id@?A0x81a78551@@QEBDQEBW4module_id@2@2@Z 000000018002dd58     libvcruntime:winapi_downlevel.obj
 0002:0000bd58       $unwind$?try_get_function@@YAPEAXW4function_id@?A0x391cf84c@@QEBDQEBW4module_id@2@2@Z 000000018002dd58     libucrt:winapi_thunks.obj
 0002:0000bd78       $xdatasym                  000000018002dd78     libvcruntime:handlers.obj
 0002:0000bd98       $unwind$__acrt_call_reportfault 000000018002dd98     libucrt:invalid_parameter.obj
 0002:0000bdb8       $unwind$_invalid_parameter 000000018002ddb8     libucrt:invalid_parameter.obj
 0002:0000bdcc       $unwind$_resetstkoflw      000000018002ddcc     libucrt:resetstk.obj
 0002:0000bdf0       $unwind$__stdio_common_vswprintf_s 000000018002ddf0     libucrt:output.obj
 0002:0000bdfc       $unwind$?write_string@?$string_output_adapter@_W@__crt_stdio_output@@QEBAXQEB_WHQEAHAEAV__crt_deferred_errno_cache@@@Z 000000018002ddfc     libucrt:output.obj
 0002:0000be14       $unwind$??$common_vsprintf@Vformat_validation_base@__crt_stdio_output@@_W@@YAH_KQEA_W0QEB_WQEAU__crt_locale_pointers@@QEAD@Z 000000018002de14     libucrt:output.obj
 0002:0000be34       $unwind$??$write_multiple_characters@V?$string_output_adapter@_W@__crt_stdio_output@@D@__crt_stdio_output@@YAXAEBV?$string_output_adapter@_W@0@DHQEAH@Z 000000018002de34     libucrt:output.obj
 0002:0000be40       $unwind$?process@?$output_processor@_WV?$string_output_adapter@_W@__crt_stdio_output@@V?$format_validation_base@_WV?$string_output_adapter@_W@__crt_stdio_output@@@2@@__crt_stdio_output@@QEAAHXZ 000000018002de40     libucrt:output.obj
 0002:0000be54       $unwind$?state_case_type@?$output_processor@_WV?$string_output_adapter@_W@__crt_stdio_output@@V?$format_validation_base@_WV?$string_output_adapter@_W@__crt_stdio_output@@@2@@__crt_stdio_output@@AEAA_NXZ 000000018002de54     libucrt:output.obj
 0002:0000be78       $unwind$?type_case_a@?$output_processor@_WV?$string_output_adapter@_W@__crt_stdio_output@@V?$format_validation_base@_WV?$string_output_adapter@_W@__crt_stdio_output@@@2@@__crt_stdio_output@@AEAA_NXZ 000000018002de78     libucrt:output.obj
 0002:0000be88       $unwind$?write_stored_string_tchar@?$output_processor@_WV?$string_output_adapter@_W@__crt_stdio_output@@V?$format_validation_base@_WV?$string_output_adapter@_W@__crt_stdio_output@@@2@@__crt_stdio_output@@AEAA_N_W@Z 000000018002de88     libucrt:output.obj
 0002:0000be9c       $unwind$??$type_case_integer_parse_into_buffer@I@?$output_processor@_WV?$string_output_adapter@_W@__crt_stdio_output@@V?$format_validation_base@_WV?$string_output_adapter@_W@__crt_stdio_output@@@2@@__crt_stdio_output@@AEAAXII_N@Z 000000018002de9c     libucrt:output.obj
 0002:0000be9c       $unwind$??$type_case_integer_parse_into_buffer@_K@?$output_processor@_WV?$string_output_adapter@_W@__crt_stdio_output@@V?$format_validation_base@_WV?$string_output_adapter@_W@__crt_stdio_output@@@2@@__crt_stdio_output@@AEAAX_KI_N@Z 000000018002de9c     libucrt:output.obj
 0002:0000bea4       $unwind$?common_exit@@YAXHW4_crt_exit_cleanup_mode@@W4_crt_exit_return_mode@@@Z 000000018002dea4     libucrt:exit.obj
 0002:0000beb0       $unwind$??R<lambda_6e4b09c48022b2350581041d5f6b0c4c>@@QEBA@XZ 000000018002deb0     libucrt:exit.obj
 0002:0000bed0       $unwind$??$?RV<lambda_d80eeec6fff315bfe5c115232f3240e3>@@AEAV<lambda_6e4b09c48022b2350581041d5f6b0c4c>@@V<lambda_2358e3775559c9db80273638284d5e45>@@@?$__crt_seh_guarded_call@X@@QEAAX$$QEAV<lambda_d80eeec6fff315bfe5c115232f3240e3>@@AEAV<lambda_6e4b09c48022b2350581041d5f6b0c4c>@@$$QEAV<lambda_2358e3775559c9db80273638284d5e45>@@@Z 000000018002ded0     libucrt:exit.obj
 0002:0000bef4       $unwind$??$free_environment@D@@YAXQEAPEAD@Z 000000018002def4     libucrt:environment_initialization.obj
 0002:0000bef4       $unwind$??$free_environment@_W@@YAXQEAPEA_W@Z 000000018002def4     libucrt:environment_initialization.obj
 0002:0000bf00       $unwind$??$create_environment@D@@YAQEAPEADQEAD@Z 000000018002df00     libucrt:environment_initialization.obj
 0002:0000bf18       $unwind$_register_onexit_function 000000018002df18     libucrt:onexit.obj
 0002:0000bf20       $unwind$_execute_onexit_table 000000018002df20     libucrt:onexit.obj
 0002:0000bf28       $unwind$??R<lambda_22ebabd17bc4fa466a2aca6d8deb888d>@@QEBAHXZ 000000018002df28     libucrt:onexit.obj
 0002:0000bf40       $unwind$??$?RV<lambda_638799b9deba96c50f710eeac98168cd>@@AEAV<lambda_22ebabd17bc4fa466a2aca6d8deb888d>@@V<lambda_a6f7d7db0129f75315ebf26d50c089f1>@@@?$__crt_seh_guarded_call@H@@QEAAH$$QEAV<lambda_638799b9deba96c50f710eeac98168cd>@@AEAV<lambda_22ebabd17bc4fa466a2aca6d8deb888d>@@$$QEAV<lambda_a6f7d7db0129f75315ebf26d50c089f1>@@@Z 000000018002df40     libucrt:onexit.obj
 0002:0000bf64       $unwind$??$?RV<lambda_7777bce6b2f8c936911f934f8298dc43>@@AEAV<lambda_f03950bc5685219e0bcd2087efbe011e>@@V<lambda_3883c3dff614d5e0c5f61bb1ac94921c>@@@?$__crt_seh_guarded_call@H@@QEAAH$$QEAV<lambda_7777bce6b2f8c936911f934f8298dc43>@@AEAV<lambda_f03950bc5685219e0bcd2087efbe011e>@@$$QEAV<lambda_3883c3dff614d5e0c5f61bb1ac94921c>@@@Z 000000018002df64     libucrt:onexit.obj
 0002:0000bf88       $unwind$_query_new_handler 000000018002df88     libucrt:new_handler.obj
 0002:0000bfa8       $unwind$terminate          000000018002dfa8     libucrt:terminate.obj
 0002:0000bfc8       $unwind$??$parse_integer@KV?$c_string_character_source@_W@__crt_strtox@@@__crt_strtox@@YAKQEAU__crt_locale_pointers@@V?$c_string_character_source@_W@0@H_N@Z 000000018002dfc8     libucrt:atox.obj
 0002:0000bfe0       $xdatasym                  000000018002dfe0     libucrt:strncmp.obj
 0002:0000bfe4       $unwind$?construct_ptd_array@@YAXQEAU__acrt_ptd@@@Z 000000018002dfe4     libucrt:per_thread_data.obj
 0002:0000bfec       $unwind$?destroy_ptd_array@@YAXQEAU__acrt_ptd@@@Z 000000018002dfec     libucrt:per_thread_data.obj
 0002:0000bff4       $unwind$??$?RV<lambda_0ae27a3a962d80f24befdcbee591983d>@@AEAV<lambda_8d0ee55de4b1038c4002e0adecdf1839>@@V<lambda_dc504788e8f1664fe9b84e20bfb512f2>@@@?$__crt_seh_guarded_call@X@@QEAAX$$QEAV<lambda_0ae27a3a962d80f24befdcbee591983d>@@AEAV<lambda_8d0ee55de4b1038c4002e0adecdf1839>@@$$QEAV<lambda_dc504788e8f1664fe9b84e20bfb512f2>@@@Z 000000018002dff4     libucrt:per_thread_data.obj
 0002:0000c018       $unwind$??$?RV<lambda_aa87e3671a710a21b5dc78c0bdf72e11>@@AEAV<lambda_92619d2358a28f41a33ba319515a20b9>@@V<lambda_6992ecaafeb10aed2b74cb1fae11a551>@@@?$__crt_seh_guarded_call@X@@QEAAX$$QEAV<lambda_aa87e3671a710a21b5dc78c0bdf72e11>@@AEAV<lambda_92619d2358a28f41a33ba319515a20b9>@@$$QEAV<lambda_6992ecaafeb10aed2b74cb1fae11a551>@@@Z 000000018002e018     libucrt:per_thread_data.obj
 0002:0000c03c       $unwind$??$?RV<lambda_f2e299630e499de9f9a165e60fcd3db5>@@AEAV<lambda_2ae9d31cdba2644fcbeaf08da7c24588>@@V<lambda_40d01ff24d0e7b3814fdbdcee8eab3c7>@@@?$__crt_seh_guarded_call@X@@QEAAX$$QEAV<lambda_f2e299630e499de9f9a165e60fcd3db5>@@AEAV<lambda_2ae9d31cdba2644fcbeaf08da7c24588>@@$$QEAV<lambda_40d01ff24d0e7b3814fdbdcee8eab3c7>@@@Z 000000018002e03c     libucrt:per_thread_data.obj
 0002:0000c060       $unwind$??$?RV<lambda_2d41944a1d46af3157314b8a01080d33>@@AEAV<lambda_8f455de75cd7d7f24b4096f044d8b9e6>@@V<lambda_aa500f224e6afead328df44964fe2772>@@@?$__crt_seh_guarded_call@X@@QEAAX$$QEAV<lambda_2d41944a1d46af3157314b8a01080d33>@@AEAV<lambda_8f455de75cd7d7f24b4096f044d8b9e6>@@$$QEAV<lambda_aa500f224e6afead328df44964fe2772>@@@Z 000000018002e060     libucrt:per_thread_data.obj
 0002:0000c084       $unwind$__acrt_initialize_winapi_thunks 000000018002e084     libucrt:winapi_thunks.obj
 0002:0000c08c       $unwind$?fp_format_e_internal@@YAHQEAD_KH_NIQEAU_strflt@@2QEAU__crt_locale_pointers@@@Z 000000018002e08c     libucrt:cvt.obj
 0002:0000c0a4       $unwind$?fp_format_a@@YAHQEBNPEAD_KQEAD2H_NIQEAU__crt_locale_pointers@@@Z 000000018002e0a4     libucrt:cvt.obj
 0002:0000c0c0       $unwind$?fp_format_g@@YAHQEBNQEAD_K12H_NIQEAU__crt_locale_pointers@@@Z 000000018002e0c0     libucrt:cvt.obj
 0002:0000c0d4       $unwind$__acrt_uninitialize_locale 000000018002e0d4     libucrt:wsetlocale.obj
 0002:0000c0d4       $unwind$__acrt_get_sigabrt_handler 000000018002e0d4     libucrt:signal.obj
 0002:0000c0dc       $unwind$??$?RV<lambda_410d79af7f07d98d83a3f525b3859a53>@@AEAV<lambda_3e16ef9562a7dcce91392c22ab16ea36>@@V<lambda_38119f0e861e05405d8a144b9b982f0a>@@@?$__crt_seh_guarded_call@X@@QEAAX$$QEAV<lambda_410d79af7f07d98d83a3f525b3859a53>@@AEAV<lambda_3e16ef9562a7dcce91392c22ab16ea36>@@$$QEAV<lambda_38119f0e861e05405d8a144b9b982f0a>@@@Z 000000018002e0dc     libucrt:wsetlocale.obj
 0002:0000c104       $unwind$__acrt_initialize_lowio 000000018002e104     libucrt:ioinit.obj
 0002:0000c124       $unwind$??$common_expand_argv_wildcards@D@@YAHQEAPEADQEAPEAPEAD@Z 000000018002e124     libucrt:argv_wildcards.obj
 0002:0000c13c       $unwind$??$copy_and_add_argument_to_buffer@D@@YAHQEBD0_KAEAV?$argument_list@D@?A0x5f5c8891@@@Z 000000018002e13c     libucrt:argv_wildcards.obj
 0002:0000c158       $unwind$??$expand_argument_wildcards@D@@YAHQEAD0AEAV?$argument_list@D@?A0x5f5c8891@@@Z 000000018002e158     libucrt:argv_wildcards.obj
 0002:0000c17c       $unwind$__acrt_GetModuleFileNameA 000000018002e17c     libucrt:getmodulefilenamea.obj
 0002:0000c198       $unwind$_setmbcp_nolock    000000018002e198     libucrt:mbctype.obj
 0002:0000c1b8       $unwind$?update_thread_multibyte_data_internal@@YAPEAU__crt_multibyte_data@@QEAU__acrt_ptd@@QEAPEAU1@@Z 000000018002e1b8     libucrt:mbctype.obj
 0002:0000c1e0       $unwind$?setmbcp_internal@@YAHH_NQEAU__acrt_ptd@@QEAPEAU__crt_multibyte_data@@@Z 000000018002e1e0     libucrt:mbctype.obj
 0002:0000c1f0       $unwind$?setSBUpLow@@YAXPEAU__crt_multibyte_data@@@Z 000000018002e1f0     libucrt:mbctype.obj
 0002:0000c20c       $unwind$??$?RV<lambda_efdfa57d1f175319df784efa44bb7b81>@@AEAV<lambda_5f0a4c1567f8adc6734073e5d1e1b35c>@@V<lambda_2e8a7d3640ea6ccb4c2413664c2db6fd>@@@?$__crt_seh_guarded_call@X@@QEAAX$$QEAV<lambda_efdfa57d1f175319df784efa44bb7b81>@@AEAV<lambda_5f0a4c1567f8adc6734073e5d1e1b35c>@@$$QEAV<lambda_2e8a7d3640ea6ccb4c2413664c2db6fd>@@@Z 000000018002e20c     libucrt:mbctype.obj
 0002:0000c230       $unwind$raise              000000018002e230     libucrt:signal.obj
 0002:0000c26c       $unwind$??$?RV<lambda_450d765d439847d4c735a33c368b5fc0>@@AEAV<lambda_44731a7d0e6d81c3e6aa82d741081786>@@V<lambda_601a2a7da3b7a96e9554ac7215c4b07c>@@@?$__crt_seh_guarded_call@P6AXH@Z@@QEAAP6AXH@Z$$QEAV<lambda_450d765d439847d4c735a33c368b5fc0>@@AEAV<lambda_44731a7d0e6d81c3e6aa82d741081786>@@$$QEAV<lambda_601a2a7da3b7a96e9554ac7215c4b07c>@@@Z 000000018002e26c     libucrt:signal.obj
 0002:0000c290       $unwind$?common_flush_all@@YAH_N@Z 000000018002e290     libucrt:fflush.obj
 0002:0000c298       $unwind$??$?RV<lambda_842d9ff0dc9ef11c61343bbaebe7f885>@@AEAV<lambda_c5860995281e5c4ce005b3de8f5874ee>@@V<lambda_d90129c13df834fdcbf8d2b88dafcf2d>@@@?$__crt_seh_guarded_call@X@@QEAAX$$QEAV<lambda_842d9ff0dc9ef11c61343bbaebe7f885>@@AEAV<lambda_c5860995281e5c4ce005b3de8f5874ee>@@$$QEAV<lambda_d90129c13df834fdcbf8d2b88dafcf2d>@@@Z 000000018002e298     libucrt:fflush.obj
 0002:0000c2bc       $unwind$??$?RV<lambda_886d6c58226a84441f68b9f2b8217b83>@@AEAV<lambda_ab61a845afdef5b7c387490eaf3616ee>@@V<lambda_f7f22ab5edc0698d5f6905b0d3f44752>@@@?$__crt_seh_guarded_call@X@@QEAAX$$QEAV<lambda_886d6c58226a84441f68b9f2b8217b83>@@AEAV<lambda_ab61a845afdef5b7c387490eaf3616ee>@@$$QEAV<lambda_f7f22ab5edc0698d5f6905b0d3f44752>@@@Z 000000018002e2bc     libucrt:fflush.obj
 0002:0000c2e4       $unwind$__acrt_update_thread_locale_data 000000018002e2e4     libucrt:locale_refcounting.obj
 0002:0000c308       $unwind$?__mbrtowc_utf8@__crt_mbstring@@YA_KPEA_WPEBD_KPEAU_Mbstatet@@@Z 000000018002e308     libucrt:mbrtowc.obj
 0002:0000c310       $unwind$?__mbsrtowcs_utf8@__crt_mbstring@@YA_KPEA_WPEAPEBD_KPEAU_Mbstatet@@@Z 000000018002e310     libucrt:mbrtowc.obj
 0002:0000c328       $unwind$__acrt_fltout      000000018002e328     libucrt:cfout.obj
 0002:0000c348       $unwind$?divide@__crt_strtox@@YA_KAEAUbig_integer@1@AEBU21@@Z 000000018002e348     libucrt:cfout.obj
 0002:0000c360       $chain$0$?divide@__crt_strtox@@YA_KAEAUbig_integer@1@AEBU21@@Z 000000018002e360     libucrt:cfout.obj
 0002:0000c374       $chain$1$?divide@__crt_strtox@@YA_KAEAUbig_integer@1@AEBU21@@Z 000000018002e374     libucrt:cfout.obj
 0002:0000c384       $unwind$_fcloseall         000000018002e384     libucrt:closeall.obj
 0002:0000c3a8       $unwind$__acrt_locale_free_monetary 000000018002e3a8     libucrt:initmon.obj
 0002:0000c3b0       $unwind$__acrt_locale_free_time 000000018002e3b0     libucrt:inittime.obj
 0002:0000c3c0       $unwind$__acrt_GetStringTypeA 000000018002e3c0     libucrt:getstringtypea.obj
 0002:0000c3e8       $unwind$__acrt_lowio_destroy_handle_array 000000018002e3e8     libucrt:osfinfo.obj
 0002:0000c3f8       $unwind$__acrt_lowio_ensure_fh_exists 000000018002e3f8     libucrt:osfinfo.obj
 0002:0000c424       $unwind$qsort              000000018002e424     libucrt:qsort.obj
 0002:0000c43c       $chain$4$qsort             000000018002e43c     libucrt:qsort.obj
 0002:0000c460       $chain$5$qsort             000000018002e460     libucrt:qsort.obj
 0002:0000c470       $unwind$fallbackMethod     000000018002e470     libucrt:strpbrk.obj
 0002:0000c480       $unwind$__acrt_LCMapStringA 000000018002e480     libucrt:lcmapstringa.obj
 0002:0000c490       $unwind$?__acrt_LCMapStringA_stat@@YAHPEAU__crt_locale_pointers@@PEB_WKPEBDHPEADHHH@Z 000000018002e490     libucrt:lcmapstringa.obj
 0002:0000c4b8       $unwind$_close             000000018002e4b8     libucrt:close.obj
 0002:0000c4b8       $unwind$_commit            000000018002e4b8     libucrt:commit.obj
 0002:0000c4c0       $unwind$??$?RV<lambda_a37b2b86f63e897a80ea819b0eb08c01>@@AEAV<lambda_38ce7e780aa69e748d6df282ebc68efe>@@V<lambda_99fb1378e971ab6e7edea83e3a7a83a2>@@@?$__crt_seh_guarded_call@H@@QEAAH$$QEAV<lambda_a37b2b86f63e897a80ea819b0eb08c01>@@AEAV<lambda_38ce7e780aa69e748d6df282ebc68efe>@@$$QEAV<lambda_99fb1378e971ab6e7edea83e3a7a83a2>@@@Z 000000018002e4c0     libucrt:commit.obj
 0002:0000c4e4       $unwind$_write             000000018002e4e4     libucrt:write.obj
 0002:0000c514       $unwind$_write_nolock      000000018002e514     libucrt:write.obj
 0002:0000c52c       $unwind$?write_double_translated_ansi_nolock@@YA?AUwrite_result@?A0x17268360@@HQEBDI@Z 000000018002e52c     libucrt:write.obj
 0002:0000c550       $unwind$?write_text_ansi_nolock@@YA?AUwrite_result@?A0x17268360@@HQEBDI@Z 000000018002e550     libucrt:write.obj
 0002:0000c550       $unwind$?write_text_utf16le_nolock@@YA?AUwrite_result@?A0x17268360@@HQEBDI@Z 000000018002e550     libucrt:write.obj
 0002:0000c570       $unwind$?write_text_utf8_nolock@@YA?AUwrite_result@?A0x17268360@@HQEBDI@Z 000000018002e570     libucrt:write.obj
 0002:0000c598       $xdatasym                  000000018002e598     libucrt:log10.obj
 0002:0000c5a4       $unwind$fclose             000000018002e5a4     libucrt:fclose.obj
 0002:0000c5c8       $unwind$_putwch_nolock     000000018002e5c8     libucrt:putwch.obj
 0002:0000c5d0       $unwind$__acrt_fenv_set_control 000000018002e5d0     libucrt:_fenvutils.obj
 0002:0000c5e0       $unwind$_call_matherr      000000018002e5e0     libucrt:libm_error.obj
 0002:0000c5e8       $unwind$_handle_error      000000018002e5e8     libucrt:libm_error.obj
 0002:0000c608       $unwind$__acrt_initialize_fma3 000000018002e608     libucrt:fma3_available.obj
 0002:0000c610       $unwind$_log_special_common 000000018002e610     libucrt:log_special.obj
 0002:0000c61c       $unwind$??$?RV<lambda_751a882b2c74d4b022dec766aa51a29a>@@AEAV<lambda_628dfdc04ba53c8bfc02c9951375f3f5>@@V<lambda_f6c7be5f7998530c34de24c7437d6b54>@@@?$__crt_seh_guarded_call@H@@QEAAH$$QEAV<lambda_751a882b2c74d4b022dec766aa51a29a>@@AEAV<lambda_628dfdc04ba53c8bfc02c9951375f3f5>@@$$QEAV<lambda_f6c7be5f7998530c34de24c7437d6b54>@@@Z 000000018002e61c     libucrt:close.obj
 0002:0000c640       $xdatasym                  000000018002e640     libucrt:fpsr.obj
 0002:0000c648       $unwind$_raise_exc_ex      000000018002e648     libucrt:fpexcept.obj
 0002:0000c65c       $unwind$_ctrlfp            000000018002e65c     libucrt:fpctrl.obj
 0002:0000c684       $unwind$_IsNonwritableInCurrentImage 000000018002e684     LIBCMT:pesect.obj
 0002:0000c810       .edata                     000000018002e810     OPOSItemDispenser.exp
 0002:0000c838       rgpv                       000000018002e838     OPOSItemDispenser.exp
 0002:0000c848       rgszName                   000000018002e848     OPOSItemDispenser.exp
 0002:0000c858       rgwOrd                     000000018002e858     OPOSItemDispenser.exp
 0002:0000c860       szName                     000000018002e860     OPOSItemDispenser.exp
 0002:0000c876       $N00001                    000000018002e876     OPOSItemDispenser.exp
 0002:0000c886       $N00002                    000000018002e886     OPOSItemDispenser.exp
 0002:0000c898       $N00003                    000000018002e898     OPOSItemDispenser.exp
 0002:0000c8aa       $N00004                    000000018002e8aa     OPOSItemDispenser.exp
 0002:0000d1da       .idata$6                   000000018002f1da     kernel32:KERNEL32.dll
 0002:0000d3f2       .idata$6                   000000018002f3f2     user32:USER32.dll
 0002:0000d526       .idata$6                   000000018002f526     gdi32:GDI32.dll
 0002:0000d5cc       .idata$6                   000000018002f5cc     advapi32:ADVAPI32.dll
 0002:0000d6e8       .idata$6                   000000018002f6e8     ole32:ole32.dll
 0002:0000d6f2       .idata$6                   000000018002f6f2     oleaut32:OLEAUT32.dll
 0003:000001c0       ?ObjectMap@@3PAU_ATL_OBJMAP_ENTRY30@ATL@@A 00000001800301c0     ItemDispenser.obj
 0003:000002d4       ?s_RequiredMethodsPerRelease@@3PAHA 00000001800302d4     ItemDispenserImpl.obj
 0003:000002e0       ?s_SOMethodNames@@3PAPEADA 00000001800302e0     ItemDispenserImpl.obj
 0003:000003c0       ?__vcrt_flsindex@@3KA      00000001800303c0     libvcruntime:per_thread_data.obj
 0003:000003d0       ?errno_no_memory@@3HA      00000001800303d0     libucrt:errno.obj
 0003:000003d4       ?doserrno_no_memory@@3KA   00000001800303d4     libucrt:errno.obj
 0003:000003e0       ?__acrt_flsindex@@3KA      00000001800303e0     libucrt:per_thread_data.obj
 0003:000008a0       _mbctypes                  00000001800308a0     libucrt:mbctype.obj
 0003:000009b0       _mbcasemaps                00000001800309b0     libucrt:mbctype.obj
 0003:00000ab0       ?__rgctypeflag@@3PADA      0000000180030ab0     libucrt:mbctype.obj
 0003:00000ac0       ?__rgcode_page_info@@3PAUcode_page_info@@A 0000000180030ac0     libucrt:mbctype.obj
 0003:00000d60       ?__dcrt_lowio_console_output_handle@@3PEAXEA 0000000180030d60     libucrt:initcon.obj
 0003:00000d70       ?dazSupported@?1??_ctrlfp@@9@9 0000000180030d70     libucrt:fpctrl.obj
 0003:00000fc0       ?is_initialized_as_dll@@3_NA 0000000180030fc0     LIBCMT:utility.obj
 0003:00000fc1       ?module_local_atexit_table_initialized@@3_NA 0000000180030fc1     LIBCMT:utility.obj
 0003:00000fc8       ?module_local_atexit_table@@3U_onexit_table_t@@A 0000000180030fc8     LIBCMT:utility.obj
 0003:00000fe0       ?module_local_at_quick_exit_table@@3U_onexit_table_t@@A 0000000180030fe0     LIBCMT:utility.obj
 0003:00000ff8       ?g_tss_cv@@3U_RTL_CONDITION_VARIABLE@@A 0000000180030ff8     LIBCMT:thread_safe_statics.obj
 0003:00001000       ?g_tss_event@@3PEAXEA      0000000180031000     LIBCMT:thread_safe_statics.obj
 0003:00001008       ?g_tss_mutex@@3U_RTL_CRITICAL_SECTION@@A 0000000180031008     LIBCMT:thread_safe_statics.obj
 0003:00001030       ?g_sleep_condition_variable_cs@@3P6AHPEAU_RTL_CONDITION_VARIABLE@@PEAU_RTL_CRITICAL_SECTION@@K@ZEA 0000000180031030     LIBCMT:thread_safe_statics.obj
 0003:00001038       ?g_wake_all_condition_variable@@3P6AXPEAU_RTL_CONDITION_VARIABLE@@@ZEA 0000000180031038     LIBCMT:thread_safe_statics.obj
 0003:00001040       GS_ExceptionRecord         0000000180031040     LIBCMT:gs_report.obj
 0003:000010e0       GS_ContextRecord           00000001800310e0     LIBCMT:gs_report.obj
 0003:000015b4       ?__proc_attached@@3HA      00000001800315b4     LIBCMT:dll_dllmain.obj
 0003:00001648       ?AllocateData@@3P6APEAUAtlThunkData_t@@XZEA 0000000180031648     atls:atlthunk.obj
 0003:00001650       ?InitData@@3P6AXPEAUAtlThunkData_t@@PEAX_K@ZEA 0000000180031650     atls:atlthunk.obj
 0003:00001658       ?DataToCode@@3P6AP6A_JPEAUHWND__@@I_K_J@ZPEAUAtlThunkData_t@@@ZEA 0000000180031658     atls:atlthunk.obj
 0003:00001660       ?FreeData@@3P6AXPEAUAtlThunkData_t@@@ZEA 0000000180031660     atls:atlthunk.obj
 0003:00001668       ?Initialized@@3_NA         0000000180031668     atls:atlthunk.obj
 0003:00001680       ?__vcrt_startup_thread_ptd@@3U__vcrt_ptd@@A 0000000180031680     libvcruntime:per_thread_data.obj
 0003:00001700       __vcrt_lock_table          0000000180031700     libvcruntime:locks.obj
 0003:00001728       __vcrt_locks_initialized   0000000180031728     libvcruntime:locks.obj
 0003:00001770       ?heap@@3V_HeapManager@@A   0000000180031770     libvcruntime:undname.obj
 0003:00001798       ?module_handles@@3PAPEAUHINSTANCE__@@A 0000000180031798     libvcruntime:winapi_downlevel.obj
 0003:000017b0       ?function_pointers@@3PAPEAXA 00000001800317b0     libvcruntime:winapi_downlevel.obj
 0003:000017d8       ?__acrt_invalid_parameter_handler@@3V?$dual_state_global@P6AXPEB_W00I_K@Z@__crt_state_management@@A 00000001800317d8     libucrt:invalid_parameter.obj
 0003:000017e0       ?c_termination_complete@@3JA 00000001800317e0     libucrt:exit.obj
 0003:000017e8       ?thread_local_exit_callback_func@@3P6AXPEAXK0@ZEA 00000001800317e8     libucrt:exit.obj
 0003:00001800       ?program_name@?1???$common_configure_argv@D@@YAHW4_crt_argv_mode@@@Z@4PADA 0000000180031800     libucrt:argv_parsing.obj
 0003:00001958       ?__acrt_new_handler@@3V?$dual_state_global@P6AH_K@Z@__crt_state_management@@A 0000000180031958     libucrt:new_handler.obj
 0003:00001960       ?module_handles@@3PAPEAUHINSTANCE__@@A 0000000180031960     libucrt:winapi_thunks.obj
 0003:00001a00       ?encoded_function_pointers@@3PAPEAXA 0000000180031a00     libucrt:winapi_thunks.obj
 0003:00001b10       ?internal_state@?1??_mbtowc_l@@9@4U_Mbstatet@@A 0000000180031b10     libucrt:mbtowc.obj
 0003:00001b28       ?enable_percent_n@@3_KA    0000000180031b28     libucrt:printf_count_output.obj
 0003:00001f60       ?__acrt_lock_table@@3PAU_RTL_CRITICAL_SECTION@@A 0000000180031f60     libucrt:locks.obj
 0003:00002190       ?__acrt_locks_initialized@@3IA 0000000180032190     libucrt:locks.obj
 0003:000021b0       ?fSystemSet@@3HA           00000001800321b0     libucrt:mbctype.obj
 0003:000021b4       ?initialized@?1??__acrt_initialize_multibyte@@9@4_NA 00000001800321b4     libucrt:mbctype.obj
 0003:000021f0       ?ctrlc_action@@3V?$dual_state_global@P6AXH@Z@__crt_state_management@@A 00000001800321f0     libucrt:signal.obj
 0003:000021f8       ?ctrlbreak_action@@3V?$dual_state_global@P6AXH@Z@__crt_state_management@@A 00000001800321f8     libucrt:signal.obj
 0003:00002200       ?abort_action@@3V?$dual_state_global@P6AXH@Z@__crt_state_management@@A 0000000180032200     libucrt:signal.obj
 0003:00002208       ?term_action@@3V?$dual_state_global@P6AXH@Z@__crt_state_management@@A 0000000180032208     libucrt:signal.obj
 0003:00002210       ?user_matherr@@3V?$dual_state_global@P6AHPEAU_exception@@@Z@__crt_state_management@@A 0000000180032210     libucrt:matherr.obj
 0003:00002218       ?__acrt_global_new_mode@@3V?$dual_state_global@J@__crt_state_management@@A 0000000180032218     libucrt:new_mode.obj
 0003:00002228       ?internal_pst@?1??__mbrtoc32_utf8@__crt_mbstring@@YA_KPEA_UPEBD_KPEAU_Mbstatet@@@Z@4U3@A 0000000180032228     libucrt:mbrtoc32.obj
 0003:00002230       ?__acrt_app_type@@3W4_crt_app_type@@A 0000000180032230     libucrt:report_runtime_error.obj
 0004:00000000       $pdata$?cw_memcpy@@YAHPEA_WPEBDH@Z 0000000180033000     CWString.obj
 0004:0000000c       $pdata$?cw_strcpy@@YAHPEA_WPEBD@Z 000000018003300c     CWString.obj
 0004:00000018       $pdata$?cw_dup@@YAXPEBDAEAHAEAPEA_W1@Z 0000000180033018     CWString.obj
 0004:00000024       $pdata$?DupWide@_CW@@AEAAXXZ 0000000180033024     CWString.obj
 0004:00000030       $pdata$?AtlWinModuleTerm@ATL@@YAJPEAU_ATL_WIN_MODULE70@1@PEAUHINSTANCE__@@@Z 0000000180033030     OposVariant.obj
 0004:0000003c       $pdata$??0CAtlComModule@ATL@@QEAA@XZ 000000018003303c     OposVariant.obj
 0004:00000048       $pdata$?Term@CAtlComModule@ATL@@QEAAXXZ 0000000180033048     OposVariant.obj
 0004:00000054       $pdata$??__E_AtlComModule@ATL@@YAXXZ 0000000180033054     OposVariant.obj
 0004:00000060       $pdata$??0CAtlWinModule@ATL@@QEAA@XZ 0000000180033060     OposVariant.obj
 0004:0000006c       $pdata$??__E_AtlWinModule@ATL@@YAXXZ 000000018003306c     OposVariant.obj
 0004:00000078       $pdata$??__F_AtlWinModule@ATL@@YAXXZ 0000000180033078     OposVariant.obj
 0004:00000084       $pdata$??_Estringdispid@CComTypeInfoHolder@ATL@@QEAAPEAXI@Z 0000000180033084     OposVariant.obj
 0004:00000090       $pdata$?SetVARIANT_BOOL@OposVariant@@QEAAXF@Z 0000000180033090     OposVariant.obj
 0004:0000009c       $pdata$?GetLONG@OposVariant@@QEAAJXZ 000000018003309c     OposVariant.obj
 0004:000000a8       $pdata$?ChangeLONG@OposVariant@@QEAAXPEAJAEAJ@Z 00000001800330a8     OposVariant.obj
 0004:000000b4       $pdata$?SetLONG@OposVariant@@QEAAXJ@Z 00000001800330b4     OposVariant.obj
 0004:000000c0       $pdata$?SetLONG_Ptr@OposVariant@@QEAAXPEAJAEAJ@Z 00000001800330c0     OposVariant.obj
 0004:000000cc       $pdata$?ChangeBSTR@OposVariant@@QEAAXPEAPEA_WAEAJ@Z 00000001800330cc     OposVariant.obj
 0004:000000d8       $pdata$?SetBSTR@OposVariant@@QEAAXPEA_WAEAJ@Z 00000001800330d8     OposVariant.obj
 0004:000000e4       $pdata$?SetBSTR_Copy@OposVariant@@QEAAXPEA_WAEAJ@Z 00000001800330e4     OposVariant.obj
 0004:000000f0       $pdata$?SetBSTR_InOutPtr@OposVariant@@QEAA_NPEAPEA_WAEAJ@Z 00000001800330f0     OposVariant.obj
 0004:000000fc       $pdata$?SetString@OposVariant@@QEAAXPEB_WAEAJ@Z 00000001800330fc     OposVariant.obj
 0004:00000108       $pdata$?SetDispatch_Ptr@OposVariant@@QEAAXPEAUIDispatch@@AEAJ@Z 0000000180033108     OposVariant.obj
 0004:00000114       $pdata$??0OposDispParms@@QEAA@PEAVOposVariant@@H@Z 0000000180033114     OposVariant.obj
 0004:00000120       $pdata$??1OposDispParms@@QEAA@XZ 0000000180033120     OposVariant.obj
 0004:0000012c       $pdata$?AtlThrowImpl@ATL@@YAXJ@Z 000000018003312c     ItemDispenser.obj
 0004:00000138       $pdata$swprintf_s          0000000180033138     ItemDispenser.obj
 0004:00000144       $pdata$?_AtlVerifyStackAvailable@_ATL_SAFE_ALLOCA_IMPL@ATL@@YA_N_K@Z 0000000180033144     ItemDispenser.obj
 0004:00000150       $pdata$?filt$0@?0??_AtlVerifyStackAvailable@_ATL_SAFE_ALLOCA_IMPL@ATL@@YA_N_K@Z@4HA 0000000180033150     ItemDispenser.obj
 0004:0000015c       $pdata$?ocscpy_s@@YA_NPEA_W_KPEB_W@Z 000000018003315c     ItemDispenser.obj
 0004:00000168       $pdata$?AtlHresultFromLastError@ATL@@YAJXZ 0000000180033168     ItemDispenser.obj
 0004:00000174       $pdata$?AtlInternalOleLoadFromStream@ATL@@YAJPEAUIStream@@AEBU_GUID@@PEAPEAXTClassesAllowedInStream@1@K@Z 0000000180033174     ItemDispenser.obj
 0004:00000180       $pdata$?ReadFromStream@CComBSTR@ATL@@QEAAJPEAUIStream@@@Z 0000000180033180     ItemDispenser.obj
 0004:0000018c       $pdata$?WriteToStream@CComVariant@ATL@@QEAAJPEAUIStream@@@Z 000000018003318c     ItemDispenser.obj
 0004:00000198       $pdata$?WriteToStream@CComVariant@ATL@@QEAAJPEAUIStream@@G@Z 0000000180033198     ItemDispenser.obj
 0004:000001a4       $pdata$?ReadFromStream@CComVariant@ATL@@QEAAJPEAUIStream@@GTClassesAllowedInStream@2@K@Z 00000001800331a4     ItemDispenser.obj
 0004:000001b0       $pdata$?GetSizeMax@CComVariant@ATL@@QEBAJPEAT_ULARGE_INTEGER@@@Z 00000001800331b0     ItemDispenser.obj
 0004:000001bc       $pdata$?RegCreateKeyExW@CAtlTransactionManager@ATL@@QEAAJPEAUHKEY__@@PEB_WKPEA_WKKQEAU_SECURITY_ATTRIBUTES@@PEAPEAU3@PEAK@Z 00000001800331bc     ItemDispenser.obj
 0004:000001c8       $pdata$?RegOpenKeyExW@CAtlTransactionManager@ATL@@QEAAJPEAUHKEY__@@PEB_WKKPEAPEAU3@@Z 00000001800331c8     ItemDispenser.obj
 0004:000001d4       $pdata$?RegDeleteKeyW@CAtlTransactionManager@ATL@@QEAAJPEAUHKEY__@@PEB_W@Z 00000001800331d4     ItemDispenser.obj
 0004:000001e0       $pdata$?Add@?$CSimpleArray@GV?$CSimpleArrayEqualHelper@G@ATL@@@ATL@@QEAAHAEBG@Z 00000001800331e0     ItemDispenser.obj
 0004:000001ec       $pdata$?AtlInternalQueryInterface@ATL@@YAJPEAXPEBU_ATL_INTMAP_ENTRY@1@AEBU_GUID@@PEAPEAX@Z 00000001800331ec     ItemDispenser.obj
 0004:000001f8       $pdata$?AtlComModuleGetClassObject@ATL@@YAJPEAU_ATL_COM_MODULE70@1@AEBU_GUID@@1PEAPEAX@Z 00000001800331f8     ItemDispenser.obj
 0004:00000204       $pdata$?AtlRegisterClassCategoriesHelper@ATL@@YAJAEBU_GUID@@PEBU_ATL_CATMAP_ENTRY@1@H@Z 0000000180033204     ItemDispenser.obj
 0004:00000210       $pdata$?AtlLoadTypeLib@ATL@@YAJPEAUHINSTANCE__@@PEB_WPEAPEA_WPEAPEAUITypeLib@@@Z 0000000180033210     ItemDispenser.obj
 0004:0000021c       $pdata$?AtlRegisterTypeLib@ATL@@YAJPEAUHINSTANCE__@@PEB_W@Z 000000018003321c     ItemDispenser.obj
 0004:00000228       $pdata$?AtlUnRegisterTypeLib@ATL@@YAJPEAUHINSTANCE__@@PEB_W@Z 0000000180033228     ItemDispenser.obj
 0004:00000234       $pdata$?AtlComModuleRegisterServer@ATL@@YAJPEAU_ATL_COM_MODULE70@1@HPEBU_GUID@@@Z 0000000180033234     ItemDispenser.obj
 0004:00000240       $pdata$?AtlComModuleUnregisterServer@ATL@@YAJPEAU_ATL_COM_MODULE70@1@HPEBU_GUID@@@Z 0000000180033240     ItemDispenser.obj
 0004:0000024c       $pdata$?AtlWinModuleExtractCreateWndData@ATL@@YAPEAXPEAU_ATL_WIN_MODULE70@1@@Z 000000018003324c     ItemDispenser.obj
 0004:00000258       $pdata$?DeleteSubKey@CRegKey@ATL@@QEAAJPEB_W@Z 0000000180033258     ItemDispenser.obj
 0004:00000264       $pdata$?RecurseDeleteKey@CRegKey@ATL@@QEAAJPEB_W@Z 0000000180033264     ItemDispenser.obj
 0004:00000270       $pdata$??0CAtlModule@ATL@@QEAA@XZ 0000000180033270     ItemDispenser.obj
 0004:0000027c       $pdata$?Term@CAtlModule@ATL@@QEAAXXZ 000000018003327c     ItemDispenser.obj
 0004:00000288       $pdata$?AddTermFunc@CAtlModule@ATL@@QEAAJP6AX_K@Z0@Z 0000000180033288     ItemDispenser.obj
 0004:00000294       $pdata$?GetGITPtr@CAtlModule@ATL@@UEAAJPEAPEAUIGlobalInterfaceTable@@@Z 0000000180033294     ItemDispenser.obj
 0004:000002a0       $pdata$?UpdateRegistryFromResource@CAtlModule@ATL@@QEAAJPEB_WHPEAU_ATL_REGMAP_ENTRY@2@@Z 00000001800332a0     ItemDispenser.obj
 0004:000002ac       $pdata$?UpdateRegistryFromResource@CAtlModule@ATL@@QEAAJIHPEAU_ATL_REGMAP_ENTRY@2@@Z 00000001800332ac     ItemDispenser.obj
 0004:000002b8       $pdata$?Term@CComModule@ATL@@QEAAXXZ 00000001800332b8     ItemDispenser.obj
 0004:000002c4       $pdata$?GetClassObject@CComModule@ATL@@QEAAJAEBU_GUID@@0PEAPEAX@Z 00000001800332c4     ItemDispenser.obj
 0004:000002d0       $pdata$?RegisterServer@CComModule@ATL@@QEAAJHPEBU_GUID@@@Z 00000001800332d0     ItemDispenser.obj
 0004:000002dc       $pdata$?UnregisterServer@CComModule@ATL@@QEAAJHPEBU_GUID@@@Z 00000001800332dc     ItemDispenser.obj
 0004:000002e8       $pdata$??_GCComModule@ATL@@UEAAPEAXI@Z 00000001800332e8     ItemDispenser.obj
 0004:000002f4       $pdata$?Add@?$CSimpleMap@PEA_WPEA_WVCExpansionVectorEqualHelper@ATL@@@ATL@@QEAAHAEBQEA_W0@Z 00000001800332f4     ItemDispenser.obj
 0004:00000300       $pdata$?Lookup@?$CSimpleMap@PEA_WPEA_WVCExpansionVectorEqualHelper@ATL@@@ATL@@QEBAPEA_WAEBQEA_W@Z 0000000180033300     ItemDispenser.obj
 0004:0000030c       $pdata$?Add@CExpansionVector@ATL@@QEAAHPEB_W0@Z 000000018003330c     ItemDispenser.obj
 0004:00000318       $pdata$?ClearReplacements@CExpansionVector@ATL@@QEAAJXZ 0000000180033318     ItemDispenser.obj
 0004:00000324       $pdata$?PreProcessBuffer@CRegParser@ATL@@QEAAJPEA_WPEAPEA_W@Z 0000000180033324     ItemDispenser.obj
 0004:00000330       $pdata$?RegisterBuffer@CRegParser@ATL@@QEAAJPEA_WH@Z 0000000180033330     ItemDispenser.obj
 0004:0000033c       $pdata$?NextToken@CRegParser@ATL@@IEAAJPEA_W@Z 000000018003333c     ItemDispenser.obj
 0004:00000348       $pdata$?AddValue@CRegParser@ATL@@IEAAJAEAVCRegKey@2@PEB_WPEA_W@Z 0000000180033348     ItemDispenser.obj
 0004:00000354       $pdata$?RegisterSubkeys@CRegParser@ATL@@IEAAJPEA_WPEAUHKEY__@@HH@Z 0000000180033354     ItemDispenser.obj
 0004:00000360       $pdata$?SkipAssignment@CRegParser@ATL@@IEAAJPEA_W@Z 0000000180033360     ItemDispenser.obj
 0004:0000036c       $pdata$?HKeyFromString@CRegParser@ATL@@KAPEAUHKEY__@@PEA_W@Z 000000018003336c     ItemDispenser.obj
 0004:00000378       $pdata$?VTFromRegType@CRegParser@ATL@@KAHPEB_WAEAG@Z 0000000180033378     ItemDispenser.obj
 0004:00000384       $pdata$?Append@CParseBuffer@CRegParser@ATL@@QEAAHPEB_WH@Z 0000000180033384     ItemDispenser.obj
 0004:00000390       $pdata$?AddReplacement@CRegObject@ATL@@UEAAJPEB_W0@Z 0000000180033390     ItemDispenser.obj
 0004:0000039c       $pdata$?RegisterFromResource@CRegObject@ATL@@IEAAJPEB_W00H@Z 000000018003339c     ItemDispenser.obj
 0004:000003a8       $pdata$??_GCRegObject@ATL@@UEAAPEAXI@Z 00000001800333a8     ItemDispenser.obj
 0004:000003b4       $pdata$?AllocateHeap@?$CTempBuffer@E$0BAA@VCCRTAllocator@ATL@@@ATL@@AEAAX_K@Z 00000001800333b4     ItemDispenser.obj
 0004:000003b4       $pdata$?AllocateHeap@?$CTempBuffer@_W$0BAA@VCCRTAllocator@ATL@@@ATL@@AEAAX_K@Z 00000001800333b4     ItemDispenser.obj
 0004:000003b4       $pdata$?AllocateHeap@?$CTempBuffer@_W$0EAA@VCCRTAllocator@ATL@@@ATL@@AEAAX_K@Z 00000001800333b4     ItemDispenser.obj
 0004:000003c0       $pdata$?CreateInstance@CComClassFactory@ATL@@UEAAJPEAUIUnknown@@AEBU_GUID@@PEAPEAX@Z 00000001800333c0     ItemDispenser.obj
 0004:000003cc       $pdata$?LockServer@CComClassFactory@ATL@@UEAAJH@Z 00000001800333cc     ItemDispenser.obj
 0004:000003d8       $pdata$??_GCComClassFactory@ATL@@UEAAPEAXI@Z 00000001800333d8     ItemDispenser.obj
 0004:000003e4       $pdata$?GetTI@CComTypeInfoHolder@ATL@@QEAAJK@Z 00000001800333e4     ItemDispenser.obj
 0004:000003f0       $pdata$?Cleanup@CComTypeInfoHolder@ATL@@SAX_K@Z 00000001800333f0     ItemDispenser.obj
 0004:000003fc       $pdata$?GetIDsOfNames@CComTypeInfoHolder@ATL@@QEAAJAEBU_GUID@@PEAPEA_WIKPEAJ@Z 00000001800333fc     ItemDispenser.obj
 0004:00000408       $pdata$?LoadNameCache@CComTypeInfoHolder@ATL@@QEAAJPEAUITypeInfo@@@Z 0000000180033408     ItemDispenser.obj
 0004:00000414       $pdata$?Add@CComDynamicUnkArray@ATL@@QEAAKPEAUIUnknown@@@Z 0000000180033414     ItemDispenser.obj
 0004:00000420       $pdata$?AtlHiMetricToPixel@ATL@@YAXPEBUtagSIZE@@PEAU2@@Z 0000000180033420     ItemDispenser.obj
 0004:0000042c       $pdata$?DefaultReflectionHandler@?$CWindowImplRoot@VCWindow@ATL@@@ATL@@SAHPEAUHWND__@@I_K_JAEA_J@Z 000000018003342c     ItemDispenser.obj
 0004:00000438       $pdata$?StartWindowProc@?$CWindowImplBaseT@VCWindow@ATL@@V?$CWinTraits@$0FGAAAAAA@$0A@@2@@ATL@@SA_JPEAUHWND__@@I_K_J@Z 0000000180033438     ItemDispenser.obj
 0004:00000444       $pdata$?WindowProc@?$CWindowImplBaseT@VCWindow@ATL@@V?$CWinTraits@$0FGAAAAAA@$0A@@2@@ATL@@SA_JPEAUHWND__@@I_K_J@Z 0000000180033444     ItemDispenser.obj
 0004:00000450       $pdata$?atlCreate@?$CWindowImplBaseT@VCWindow@ATL@@V?$CWinTraits@$0FGAAAAAA@$0A@@2@@ATL@@QEAAPEAUHWND__@@PEAU3@V_U_RECT@2@PEB_WKKV_U_MENUorID@2@GPEAX@Z 0000000180033450     ItemDispenser.obj
 0004:0000045c       $pdata$?IsEqualObject@?$CComPtrBase@UIOleClientSite@@@ATL@@QEAA_NPEAUIUnknown@@@Z 000000018003345c     ItemDispenser.obj
 0004:00000468       $pdata$??$AtlModuleRegisterWndClassInfoT@VAtlModuleRegisterWndClassInfoParamW@ATL@@@ATL@@YAGPEAU_ATL_BASE_MODULE70@0@PEAU_ATL_WIN_MODULE70@0@PEAU_ATL_WNDCLASSINFOW@0@PEAP6A_JPEAUHWND__@@I_K_J@ZVAtlModuleRegisterWndClassInfoParamW@0@@Z 0000000180033468     ItemDispenser.obj
 0004:00000474       $pdata$?GetZoomInfo@CComControlBase@ATL@@QEAAXAEAUATL_DRAWINFO@@@Z 0000000180033474     ItemDispenser.obj
 0004:00000480       $pdata$?SendOnDataChange@CComControlBase@ATL@@QEAAJK@Z 0000000180033480     ItemDispenser.obj
 0004:0000048c       $pdata$?OnSetFocus@CComControlBase@ATL@@QEAA_JI_K_JAEAH@Z 000000018003348c     ItemDispenser.obj
 0004:00000498       $pdata$?OnKillFocus@CComControlBase@ATL@@QEAA_JI_K_JAEAH@Z 0000000180033498     ItemDispenser.obj
 0004:000004a4       $pdata$?OnMouseActivate@CComControlBase@ATL@@QEAA_JI_K_JAEAH@Z 00000001800334a4     ItemDispenser.obj
 0004:000004b0       $pdata$?GetAmbientLocaleID@CComControlBase@ATL@@QEAAJAEAK@Z 00000001800334b0     ItemDispenser.obj
 0004:000004bc       $pdata$?GetAmbientUserMode@CComControlBase@ATL@@QEAAJAEAH@Z 00000001800334bc     ItemDispenser.obj
 0004:000004c8       $pdata$?SetControlFocus@CComControlBase@ATL@@QEAAHH@Z 00000001800334c8     ItemDispenser.obj
 0004:000004d4       $pdata$?IQuickActivate_QuickActivate@CComControlBase@ATL@@QEAAJPEAUtagQACONTAINER@@PEAUtagQACONTROL@@@Z 00000001800334d4     ItemDispenser.obj
 0004:000004e0       $pdata$?DoVerbProperties@CComControlBase@ATL@@QEAAJPEBUtagRECT@@PEAUHWND__@@@Z 00000001800334e0     ItemDispenser.obj
 0004:000004ec       $pdata$?InPlaceActivate@CComControlBase@ATL@@QEAAJJPEBUtagRECT@@@Z 00000001800334ec     ItemDispenser.obj
 0004:000004f8       $pdata$?IOleObject_SetClientSite@CComControlBase@ATL@@QEAAJPEAUIOleClientSite@@@Z 00000001800334f8     ItemDispenser.obj
 0004:00000504       $pdata$?IOleObject_Close@CComControlBase@ATL@@QEAAJK@Z 0000000180033504     ItemDispenser.obj
 0004:00000510       $pdata$?IOleObject_SetExtent@CComControlBase@ATL@@QEAAJKPEAUtagSIZE@@@Z 0000000180033510     ItemDispenser.obj
 0004:0000051c       $pdata$?IOleInPlaceObject_InPlaceDeactivate@CComControlBase@ATL@@QEAAJXZ 000000018003351c     ItemDispenser.obj
 0004:00000528       $pdata$?IOleInPlaceObject_UIDeactivate@CComControlBase@ATL@@QEAAJXZ 0000000180033528     ItemDispenser.obj
 0004:00000534       $pdata$?IOleInPlaceObject_SetObjectRects@CComControlBase@ATL@@QEAAJPEBUtagRECT@@0@Z 0000000180033534     ItemDispenser.obj
 0004:00000540       $pdata$?IViewObject_Draw@CComControlBase@ATL@@QEAAJKJPEAXPEAUtagDVTARGETDEVICE@@PEAUHDC__@@2PEBU_RECTL@@3@Z 0000000180033540     ItemDispenser.obj
 0004:0000054c       $pdata$?IDataObject_GetData@CComControlBase@ATL@@QEAAJPEAUtagFORMATETC@@PEAUtagSTGMEDIUM@@@Z 000000018003354c     ItemDispenser.obj
 0004:00000558       $pdata$?FireViewChange@CComControlBase@ATL@@QEAAJXZ 0000000180033558     ItemDispenser.obj
 0004:00000564       $pdata$?OnPaint@CComControlBase@ATL@@QEAA_JI_K_JAEAH@Z 0000000180033564     ItemDispenser.obj
 0004:00000570       $pdata$?OnDrawAdvanced@CComControlBase@ATL@@UEAAJAEAUATL_DRAWINFO@@@Z 0000000180033570     ItemDispenser.obj
 0004:0000057c       $pdata$?GetTypeInfo@?$IDispatchImpl@UIOPOSItemDispenser@@$1?IID_IOPOSItemDispenser@@3U_GUID@@B$1?LIBID_OposItemDispenser_CCO@@3U3@B$00$0A@VCComTypeInfoHolder@ATL@@@ATL@@UEAAJIKPEAPEAUITypeInfo@@@Z 000000018003357c     ItemDispenser.obj
 0004:00000588       $pdata$?Invoke@?$IDispatchImpl@UIOPOSItemDispenser@@$1?IID_IOPOSItemDispenser@@3U_GUID@@B$1?LIBID_OposItemDispenser_CCO@@3U3@B$00$0A@VCComTypeInfoHolder@ATL@@@ATL@@UEAAJJAEBU_GUID@@KGPEAUtagDISPPARAMS@@PEAUtagVARIANT@@PEAUtagEXCEPINFO@@PEAI@Z 0000000180033588     ItemDispenser.obj
 0004:00000594       $pdata$?atlCreate@?$CWindowImpl@VCOPOSItemDispenser@@VCWindow@ATL@@V?$CWinTraits@$0FGAAAAAA@$0A@@3@@ATL@@QEAAPEAUHWND__@@PEAU3@V_U_RECT@2@PEB_WKKV_U_MENUorID@2@PEAX@Z 0000000180033594     ItemDispenser.obj
 0004:000005a0       $pdata$?CreateControlWindow@?$CComControl@VCOPOSItemDispenser@@V?$CWindowImpl@VCOPOSItemDispenser@@VCWindow@ATL@@V?$CWinTraits@$0FGAAAAAA@$0A@@3@@ATL@@@ATL@@UEAAPEAUHWND__@@PEAU3@AEAUtagRECT@@@Z 00000001800335a0     ItemDispenser.obj
 0004:000005ac       $pdata$?ProcessWindowMessage@?$CComControl@VCOPOSItemDispenser@@V?$CWindowImpl@VCOPOSItemDispenser@@VCWindow@ATL@@V?$CWinTraits@$0FGAAAAAA@$0A@@3@@ATL@@@ATL@@UEAAHPEAUHWND__@@I_K_JAEA_JK@Z 00000001800335ac     ItemDispenser.obj
 0004:000005b8       $pdata$?GetSizeMax@?$IPersistStreamInitImpl@VCOPOSItemDispenser@@@ATL@@UEAAJPEAT_ULARGE_INTEGER@@@Z 00000001800335b8     ItemDispenser.obj
 0004:000005c4       $pdata$?IPersistStreamInit_Load@?$IPersistStreamInitImpl@VCOPOSItemDispenser@@@ATL@@QEAAJPEAUIStream@@PEBUATL_PROPMAP_ENTRY@2@@Z 00000001800335c4     ItemDispenser.obj
 0004:000005d0       $pdata$?IPersistStreamInit_Save@?$IPersistStreamInitImpl@VCOPOSItemDispenser@@@ATL@@QEAAJPEAUIStream@@HPEBUATL_PROPMAP_ENTRY@2@@Z 00000001800335d0     ItemDispenser.obj
 0004:000005dc       $pdata$?GetClientSite@?$IOleObjectImpl@VCOPOSItemDispenser@@@ATL@@UEAAJPEAPEAUIOleClientSite@@@Z 00000001800335dc     ItemDispenser.obj
 0004:000005e8       $pdata$?DoVerbPrimary@?$IOleObjectImpl@VCOPOSItemDispenser@@@ATL@@QEAAJPEBUtagRECT@@PEAUHWND__@@@Z 00000001800335e8     ItemDispenser.obj
 0004:000005f4       $pdata$?DoVerb@?$IOleObjectImpl@VCOPOSItemDispenser@@@ATL@@UEAAJJPEAUtagMSG@@PEAUIOleClientSite@@JPEAUHWND__@@PEBUtagRECT@@@Z 00000001800335f4     ItemDispenser.obj
 0004:00000600       $pdata$?Advise@?$IOleObjectImpl@VCOPOSItemDispenser@@@ATL@@UEAAJPEAUIAdviseSink@@PEAK@Z 0000000180033600     ItemDispenser.obj
 0004:0000060c       $pdata$?Unadvise@?$IOleObjectImpl@VCOPOSItemDispenser@@@ATL@@UEAAJK@Z 000000018003360c     ItemDispenser.obj
 0004:00000618       $pdata$?EnumAdvise@?$IOleObjectImpl@VCOPOSItemDispenser@@@ATL@@UEAAJPEAPEAUIEnumSTATDATA@@@Z 0000000180033618     ItemDispenser.obj
 0004:00000624       $pdata$?TranslateAcceleratorW@?$IOleInPlaceActiveObjectImpl@VCOPOSItemDispenser@@@ATL@@UEAAJPEAUtagMSG@@@Z 0000000180033624     ItemDispenser.obj
 0004:00000630       $pdata$?OnDocWindowActivate@?$IOleInPlaceActiveObjectImpl@VCOPOSItemDispenser@@@ATL@@UEAAJH@Z 0000000180033630     ItemDispenser.obj
 0004:0000063c       $pdata$?Draw@?$IViewObjectExImpl@VCOPOSItemDispenser@@@ATL@@UEAAJKJPEAXPEAUtagDVTARGETDEVICE@@PEAUHDC__@@2PEBU_RECTL@@3P6AH_K@Z4@Z 000000018003363c     ItemDispenser.obj
 0004:00000648       $pdata$?SetAdvise@?$IViewObjectExImpl@VCOPOSItemDispenser@@@ATL@@UEAAJKKPEAUIAdviseSink@@@Z 0000000180033648     ItemDispenser.obj
 0004:00000654       $pdata$?GetAdvise@?$IViewObjectExImpl@VCOPOSItemDispenser@@@ATL@@UEAAJPEAK0PEAPEAUIAdviseSink@@@Z 0000000180033654     ItemDispenser.obj
 0004:00000660       $pdata$?QueryHitPoint@?$IViewObjectExImpl@VCOPOSItemDispenser@@@ATL@@UEAAJKPEBUtagRECT@@UtagPOINT@@JPEAK@Z 0000000180033660     ItemDispenser.obj
 0004:0000066c       $pdata$?QueryHitRect@?$IViewObjectExImpl@VCOPOSItemDispenser@@@ATL@@UEAAJKPEBUtagRECT@@0JPEAK@Z 000000018003366c     ItemDispenser.obj
 0004:00000678       $pdata$?OnWindowMessage@?$IOleInPlaceObjectWindowlessImpl@VCOPOSItemDispenser@@@ATL@@UEAAJI_K_JPEA_J@Z 0000000180033678     ItemDispenser.obj
 0004:00000684       $pdata$?EnumConnectionPoints@?$IConnectionPointContainerImpl@VCOPOSItemDispenser@@@ATL@@UEAAJPEAPEAUIEnumConnectionPoints@@@Z 0000000180033684     ItemDispenser.obj
 0004:00000690       $pdata$?FindConnectionPoint@?$IConnectionPointContainerImpl@VCOPOSItemDispenser@@@ATL@@UEAAJAEBU_GUID@@PEAPEAUIConnectionPoint@@@Z 0000000180033690     ItemDispenser.obj
 0004:0000069c       $pdata$?IsDirty@?$IPersistStorageImpl@VCOPOSItemDispenser@@@ATL@@UEAAJXZ 000000018003369c     ItemDispenser.obj
 0004:000006a8       $pdata$?InitNew@?$IPersistStorageImpl@VCOPOSItemDispenser@@@ATL@@UEAAJPEAUIStorage@@@Z 00000001800336a8     ItemDispenser.obj
 0004:000006b4       $pdata$?Load@?$IPersistStorageImpl@VCOPOSItemDispenser@@@ATL@@UEAAJPEAUIStorage@@@Z 00000001800336b4     ItemDispenser.obj
 0004:000006c0       $pdata$?Save@?$IPersistStorageImpl@VCOPOSItemDispenser@@@ATL@@UEAAJPEAUIStorage@@H@Z 00000001800336c0     ItemDispenser.obj
 0004:000006cc       $pdata$?IPSI_GetIPersistStreamInit@?$IPersistStorageImpl@VCOPOSItemDispenser@@@ATL@@AEAAPEAUIPersistStreamInit@@XZ 00000001800336cc     ItemDispenser.obj
 0004:000006d8       $pdata$?GetPagesHelper@?$ISpecifyPropertyPagesImpl@VCOPOSItemDispenser@@@ATL@@IEAAJPEAUtagCAUUID@@PEBUATL_PROPMAP_ENTRY@2@@Z 00000001800336d8     ItemDispenser.obj
 0004:000006e4       $pdata$?DAdvise@?$IDataObjectImpl@VCOPOSItemDispenser@@@ATL@@UEAAJPEAUtagFORMATETC@@KPEAUIAdviseSink@@PEAK@Z 00000001800336e4     ItemDispenser.obj
 0004:000006f0       $pdata$?GetClassInfoW@?$IProvideClassInfo2Impl@$1?CLSID_OPOSItemDispenser@@3U_GUID@@B$1?DIID__IOPOSItemDispenserEvents@@3U2@B$1?LIBID_OposItemDispenser_CCO@@3U2@B$00$0A@VCComTypeInfoHolder@ATL@@@ATL@@UEAAJPEAPEAUITypeInfo@@@Z 00000001800336f0     ItemDispenser.obj
 0004:000006fc       $pdata$?GetInterfaceSafetyOptions@?$IObjectSafetyImpl@VCOPOSItemDispenser@@$02@ATL@@UEAAJAEBU_GUID@@PEAK1@Z 00000001800336fc     ItemDispenser.obj
 0004:00000708       $pdata$?SetInterfaceSafetyOptions@?$IObjectSafetyImpl@VCOPOSItemDispenser@@$02@ATL@@UEAAJAEBU_GUID@@KK@Z 0000000180033708     ItemDispenser.obj
 0004:00000714       $pdata$?_LocCPQueryInterface@?$IConnectionPointImpl@VCOPOSItemDispenser@@$1?DIID__IOPOSItemDispenserEvents@@3U_GUID@@BVCComDynamicUnkArray@ATL@@@ATL@@UEAAJAEBU_GUID@@PEAPEAX@Z 0000000180033714     ItemDispenser.obj
 0004:00000714       $pdata$?_LocCPQueryInterface@?$IConnectionPointImpl@VCOPOSItemDispenser@@$1?IID_IPropertyNotifySink@@3U_GUID@@BVCComDynamicUnkArray@ATL@@@ATL@@UEAAJAEBU_GUID@@PEAPEAX@Z 0000000180033714     ItemDispenser.obj
 0004:00000720       $pdata$?Advise@?$IConnectionPointImpl@VCOPOSItemDispenser@@$1?DIID__IOPOSItemDispenserEvents@@3U_GUID@@BVCComDynamicUnkArray@ATL@@@ATL@@UEAAJPEAUIUnknown@@PEAK@Z 0000000180033720     ItemDispenser.obj
 0004:00000720       $pdata$?Advise@?$IConnectionPointImpl@VCOPOSItemDispenser@@$1?IID_IPropertyNotifySink@@3U_GUID@@BVCComDynamicUnkArray@ATL@@@ATL@@UEAAJPEAUIUnknown@@PEAK@Z 0000000180033720     ItemDispenser.obj
 0004:0000072c       $pdata$?Unadvise@?$IConnectionPointImpl@VCOPOSItemDispenser@@$1?DIID__IOPOSItemDispenserEvents@@3U_GUID@@BVCComDynamicUnkArray@ATL@@@ATL@@UEAAJK@Z 000000018003372c     ItemDispenser.obj
 0004:0000072c       $pdata$?Unadvise@?$IConnectionPointImpl@VCOPOSItemDispenser@@$1?IID_IPropertyNotifySink@@3U_GUID@@BVCComDynamicUnkArray@ATL@@@ATL@@UEAAJK@Z 000000018003372c     ItemDispenser.obj
 0004:00000738       $pdata$?EnumConnections@?$IConnectionPointImpl@VCOPOSItemDispenser@@$1?DIID__IOPOSItemDispenserEvents@@3U_GUID@@BVCComDynamicUnkArray@ATL@@@ATL@@UEAAJPEAPEAUIEnumConnections@@@Z 0000000180033738     ItemDispenser.obj
 0004:00000738       $pdata$?EnumConnections@?$IConnectionPointImpl@VCOPOSItemDispenser@@$1?IID_IPropertyNotifySink@@3U_GUID@@BVCComDynamicUnkArray@ATL@@@ATL@@UEAAJPEAPEAUIEnumConnections@@@Z 0000000180033738     ItemDispenser.obj
 0004:00000744       $pdata$?Fire_DirectIOEvent@?$CProxy_IOPOSEvents@VCOPOSItemDispenser@@@@QEAAXJPEAJPEAPEA_W@Z 0000000180033744     ItemDispenser.obj
 0004:00000750       $pdata$?Fire_StatusUpdateEvent@?$CProxy_IOPOSEvents@VCOPOSItemDispenser@@@@QEAAXJ@Z 0000000180033750     ItemDispenser.obj
 0004:0000075c       $pdata$?FireTheEvent@?$CProxy_IOPOSEvents@VCOPOSItemDispenser@@@@IEAAXPEAVOposVariant@@IAEAJPEB_WJ@Z 000000018003375c     ItemDispenser.obj
 0004:00000768       $pdata$?GetConnMap@COPOSItemDispenser@@SAPEBU_ATL_CONNMAP_ENTRY@ATL@@PEAH@Z 0000000180033768     ItemDispenser.obj
 0004:00000774       $pdata$?ProcessWindowMessage@COPOSItemDispenser@@UEAAHPEAUHWND__@@I_K_JAEA_JK@Z 0000000180033774     ItemDispenser.obj
 0004:00000780       $pdata$?SODirectIO@COPOSItemDispenser@@MEAAJJPEAJPEAPEA_W@Z 0000000180033780     ItemDispenser.obj
 0004:0000078c       $pdata$?SOStatusUpdate@COPOSItemDispenser@@MEAAJJ@Z 000000018003378c     ItemDispenser.obj
 0004:00000798       $pdata$?DoEvent@COPOSItemDispenser@@IEAAXI_K_J@Z 0000000180033798     ItemDispenser.obj
 0004:000007a4       $pdata$??__E_Module@@YAXXZ 00000001800337a4     ItemDispenser.obj
 0004:000007b0       $pdata$?CreateInstance@?$CComCreator@V?$CComObjectCached@VCComClassFactory@ATL@@@ATL@@@ATL@@SAJPEAXAEBU_GUID@@PEAPEAX@Z 00000001800337b0     ItemDispenser.obj
 0004:000007bc       $pdata$DllMain             00000001800337bc     ItemDispenser.obj
 0004:000007c8       $pdata$?CreateInstance@?$CComCreator@V?$CComObject@VCOPOSItemDispenser@@@ATL@@@ATL@@SAJPEAXAEBU_GUID@@PEAPEAX@Z 00000001800337c8     ItemDispenser.obj
 0004:000007d4       $pdata$?CreateInstance@?$CComCreator@V?$CComAggObject@VCOPOSItemDispenser@@@ATL@@@ATL@@SAJPEAXAEBU_GUID@@PEAPEAX@Z 00000001800337d4     ItemDispenser.obj
 0004:000007e0       $pdata$?AddRef@?$CComObjectCached@VCComClassFactory@ATL@@@ATL@@UEAAKXZ 00000001800337e0     ItemDispenser.obj
 0004:000007ec       $pdata$?Release@?$CComObjectCached@VCComClassFactory@ATL@@@ATL@@UEAAKXZ 00000001800337ec     ItemDispenser.obj
 0004:000007f8       $pdata$??_G?$CComObjectCached@VCComClassFactory@ATL@@@ATL@@UEAAPEAXI@Z 00000001800337f8     ItemDispenser.obj
 0004:00000804       $pdata$??1?$CComEnumImpl@UIEnumConnectionPoints@@$1?_GUID_b196b285_bab4_101a_b69c_00aa00341d07@@3U__s_GUID@@BPEAUIConnectionPoint@@V?$_CopyInterface@UIConnectionPoint@@@ATL@@@ATL@@UEAA@XZ 0000000180033804     ItemDispenser.obj
 0004:00000810       $pdata$?Next@?$CComEnumImpl@UIEnumConnectionPoints@@$1?_GUID_b196b285_bab4_101a_b69c_00aa00341d07@@3U__s_GUID@@BPEAUIConnectionPoint@@V?$_CopyInterface@UIConnectionPoint@@@ATL@@@ATL@@UEAAJKPEAPEAUIConnectionPoint@@PEAK@Z 0000000180033810     ItemDispenser.obj
 0004:0000081c       $pdata$?Clone@?$CComEnumImpl@UIEnumConnectionPoints@@$1?_GUID_b196b285_bab4_101a_b69c_00aa00341d07@@3U__s_GUID@@BPEAUIConnectionPoint@@V?$_CopyInterface@UIConnectionPoint@@@ATL@@@ATL@@UEAAJPEAPEAUIEnumConnectionPoints@@@Z 000000018003381c     ItemDispenser.obj
 0004:00000828       $pdata$?Init@?$CComEnumImpl@UIEnumConnectionPoints@@$1?_GUID_b196b285_bab4_101a_b69c_00aa00341d07@@3U__s_GUID@@BPEAUIConnectionPoint@@V?$_CopyInterface@UIConnectionPoint@@@ATL@@@ATL@@QEAAJPEAPEAUIConnectionPoint@@0PEAUIUnknown@@W4CComEnumFlags@2@@Z 0000000180033828     ItemDispenser.obj
 0004:00000834       $pdata$?Release@?$CComObject@V?$CComEnum@UIEnumConnectionPoints@@$1?_GUID_b196b285_bab4_101a_b69c_00aa00341d07@@3U__s_GUID@@BPEAUIConnectionPoint@@V?$_CopyInterface@UIConnectionPoint@@@ATL@@VCComSingleThreadModel@6@@ATL@@@ATL@@UEAAKXZ 0000000180033834     ItemDispenser.obj
 0004:00000834       $pdata$?Release@?$CComObject@V?$CComEnum@UIEnumConnections@@$1?_GUID_b196b287_bab4_101a_b69c_00aa00341d07@@3U__s_GUID@@BUtagCONNECTDATA@@V?$_Copy@UtagCONNECTDATA@@@ATL@@VCComSingleThreadModel@6@@ATL@@@ATL@@UEAAKXZ 0000000180033834     ItemDispenser.obj
 0004:00000840       $pdata$?CreateInstance@?$CComObject@V?$CComEnum@UIEnumConnectionPoints@@$1?_GUID_b196b285_bab4_101a_b69c_00aa00341d07@@3U__s_GUID@@BPEAUIConnectionPoint@@V?$_CopyInterface@UIConnectionPoint@@@ATL@@VCComSingleThreadModel@6@@ATL@@@ATL@@SAJPEAPEAV12@@Z 0000000180033840     ItemDispenser.obj
 0004:0000084c       $pdata$??_G?$CComObject@V?$CComEnum@UIEnumConnectionPoints@@$1?_GUID_b196b285_bab4_101a_b69c_00aa00341d07@@3U__s_GUID@@BPEAUIConnectionPoint@@V?$_CopyInterface@UIConnectionPoint@@@ATL@@VCComSingleThreadModel@6@@ATL@@@ATL@@UEAAPEAXI@Z 000000018003384c     ItemDispenser.obj
 0004:00000858       $pdata$?Release@?$CComAggObject@VCOPOSItemDispenser@@@ATL@@UEAAKXZ 0000000180033858     ItemDispenser.obj
 0004:00000864       $pdata$?QueryInterface@?$CComAggObject@VCOPOSItemDispenser@@@ATL@@UEAAJAEBU_GUID@@PEAPEAX@Z 0000000180033864     ItemDispenser.obj
 0004:00000870       $pdata$??0?$CComContainedObject@VCOPOSItemDispenser@@@ATL@@QEAA@PEAX@Z 0000000180033870     ItemDispenser.obj
 0004:0000087c       $pdata$??_G?$CComContainedObject@VCOPOSItemDispenser@@@ATL@@UEAAPEAXI@Z 000000018003387c     ItemDispenser.obj
 0004:00000888       $pdata$??_G?$CComAggObject@VCOPOSItemDispenser@@@ATL@@UEAAPEAXI@Z 0000000180033888     ItemDispenser.obj
 0004:00000894       $pdata$??0?$CComObject@VCOPOSItemDispenser@@@ATL@@QEAA@PEAX@Z 0000000180033894     ItemDispenser.obj
 0004:000008a0       $pdata$??1?$CComObject@VCOPOSItemDispenser@@@ATL@@UEAA@XZ 00000001800338a0     ItemDispenser.obj
 0004:000008ac       $pdata$?Release@?$CComObject@VCOPOSItemDispenser@@@ATL@@UEAAKXZ 00000001800338ac     ItemDispenser.obj
 0004:000008b8       $pdata$??_G?$CComObject@VCOPOSItemDispenser@@@ATL@@UEAAPEAXI@Z 00000001800338b8     ItemDispenser.obj
 0004:000008c4       $pdata$??__E?pConnMap@?$IConnectionPointContainerImpl@VCOPOSItemDispenser@@@ATL@@0PEBU_ATL_CONNMAP_ENTRY@2@EB@@YAXXZ 00000001800338c4     ItemDispenser.obj
 0004:000008d0       $pdata$??1?$CComEnumImpl@UIEnumConnections@@$1?_GUID_b196b287_bab4_101a_b69c_00aa00341d07@@3U__s_GUID@@BUtagCONNECTDATA@@V?$_Copy@UtagCONNECTDATA@@@ATL@@@ATL@@UEAA@XZ 00000001800338d0     ItemDispenser.obj
 0004:000008dc       $pdata$?Next@?$CComEnumImpl@UIEnumConnections@@$1?_GUID_b196b287_bab4_101a_b69c_00aa00341d07@@3U__s_GUID@@BUtagCONNECTDATA@@V?$_Copy@UtagCONNECTDATA@@@ATL@@@ATL@@UEAAJKPEAUtagCONNECTDATA@@PEAK@Z 00000001800338dc     ItemDispenser.obj
 0004:000008e8       $pdata$?Clone@?$CComEnumImpl@UIEnumConnections@@$1?_GUID_b196b287_bab4_101a_b69c_00aa00341d07@@3U__s_GUID@@BUtagCONNECTDATA@@V?$_Copy@UtagCONNECTDATA@@@ATL@@@ATL@@UEAAJPEAPEAUIEnumConnections@@@Z 00000001800338e8     ItemDispenser.obj
 0004:000008f4       $pdata$?Init@?$CComEnumImpl@UIEnumConnections@@$1?_GUID_b196b287_bab4_101a_b69c_00aa00341d07@@3U__s_GUID@@BUtagCONNECTDATA@@V?$_Copy@UtagCONNECTDATA@@@ATL@@@ATL@@QEAAJPEAUtagCONNECTDATA@@0PEAUIUnknown@@W4CComEnumFlags@2@@Z 00000001800338f4     ItemDispenser.obj
 0004:00000900       $pdata$?CreateInstance@?$CComObject@V?$CComEnum@UIEnumConnections@@$1?_GUID_b196b287_bab4_101a_b69c_00aa00341d07@@3U__s_GUID@@BUtagCONNECTDATA@@V?$_Copy@UtagCONNECTDATA@@@ATL@@VCComSingleThreadModel@6@@ATL@@@ATL@@SAJPEAPEAV12@@Z 0000000180033900     ItemDispenser.obj
 0004:0000090c       $pdata$??_G?$CComObject@V?$CComEnum@UIEnumConnections@@$1?_GUID_b196b287_bab4_101a_b69c_00aa00341d07@@3U__s_GUID@@BUtagCONNECTDATA@@V?$_Copy@UtagCONNECTDATA@@@ATL@@VCComSingleThreadModel@6@@ATL@@@ATL@@UEAAPEAXI@Z 000000018003390c     ItemDispenser.obj
 0004:00000918       $pdata$??1CComControlBase@ATL@@UEAA@XZ 0000000180033918     ItemDispenserImpl.obj
 0004:00000924       $pdata$??1?$IConnectionPointImpl@VCOPOSItemDispenser@@$1?DIID__IOPOSItemDispenserEvents@@3U_GUID@@BVCComDynamicUnkArray@ATL@@@ATL@@QEAA@XZ 0000000180033924     ItemDispenserImpl.obj
 0004:00000924       $pdata$??1?$IConnectionPointImpl@VCOPOSItemDispenser@@$1?IID_IPropertyNotifySink@@3U_GUID@@BVCComDynamicUnkArray@ATL@@@ATL@@QEAA@XZ 0000000180033924     ItemDispenserImpl.obj
 0004:00000930       $pdata$?FinalConstruct@COPOSItemDispenser@@QEAAJXZ 0000000180033930     ItemDispenserImpl.obj
 0004:0000093c       $pdata$??1COPOSItemDispenser@@UEAA@XZ 000000018003393c     ItemDispenserImpl.obj
 0004:00000948       $pdata$?GetOposProp@COPOSItemDispenser@@IEAAJJPEAJJ@Z 0000000180033948     ItemDispenserImpl.obj
 0004:00000954       $pdata$?SetOposProp@COPOSItemDispenser@@IEAAJJJJ@Z 0000000180033954     ItemDispenserImpl.obj
 0004:00000960       $pdata$?GetOposProp@COPOSItemDispenser@@IEAAJJPEAPEA_WJ@Z 0000000180033960     ItemDispenserImpl.obj
 0004:0000096c       $pdata$?DoInvoke@COPOSItemDispenser@@IEAAJJPEAVOposVariant@@IHPEAJ_N@Z 000000018003396c     ItemDispenserImpl.obj
 0004:00000978       $pdata$?SetCOFreezeEvents@COPOSItemDispenser@@IEAAXF@Z 0000000180033978     ItemDispenserImpl.obj
 0004:00000984       $pdata$?FreezeEvents@COPOSItemDispenser@@MEAAJH@Z 0000000180033984     ItemDispenserImpl.obj
 0004:00000990       $pdata$?OnDraw@COPOSItemDispenser@@MEAAJAEAUATL_DRAWINFO@@@Z 0000000180033990     ItemDispenserImpl.obj
 0004:0000099c       $pdata$?EventInit@COPOSItemDispenser@@IEAAJXZ 000000018003399c     ItemDispenserImpl.obj
 0004:000009a8       $pdata$?EventUninit@COPOSItemDispenser@@IEAAXXZ 00000001800339a8     ItemDispenserImpl.obj
 0004:000009b4       $pdata$?s_EventWindowProc@COPOSItemDispenser@@KA_JPEAUHWND__@@I_K_J@Z 00000001800339b4     ItemDispenserImpl.obj
 0004:000009c0       $pdata$?EventWindowProc@COPOSItemDispenser@@IEAA_JI_K_J@Z 00000001800339c0     ItemDispenserImpl.obj
 0004:000009cc       $pdata$?SOProcessID@COPOSItemDispenser@@UEAAJPEAJ@Z 00000001800339cc     ItemDispenserImpl.obj
 0004:000009d8       $pdata$?get_Claimed@COPOSItemDispenser@@UEAAJPEAF@Z 00000001800339d8     ItemDispenserImpl.obj
 0004:000009e4       $pdata$?get_DeviceEnabled@COPOSItemDispenser@@UEAAJPEAF@Z 00000001800339e4     ItemDispenserImpl.obj
 0004:000009f0       $pdata$?get_FreezeEvents@COPOSItemDispenser@@UEAAJPEAF@Z 00000001800339f0     ItemDispenserImpl.obj
 0004:000009fc       $pdata$?put_FreezeEvents@COPOSItemDispenser@@UEAAJF@Z 00000001800339fc     ItemDispenserImpl.obj
 0004:00000a08       $pdata$?get_ResultCode@COPOSItemDispenser@@UEAAJPEAJ@Z 0000000180033a08     ItemDispenserImpl.obj
 0004:00000a14       $pdata$?get_State@COPOSItemDispenser@@UEAAJPEAJ@Z 0000000180033a14     ItemDispenserImpl.obj
 0004:00000a20       $pdata$?get_ControlObjectDescription@COPOSItemDispenser@@UEAAJPEAPEA_W@Z 0000000180033a20     ItemDispenserImpl.obj
 0004:00000a2c       $pdata$?get_CapStatisticsReporting@COPOSItemDispenser@@UEAAJPEAF@Z 0000000180033a2c     ItemDispenserImpl.obj
 0004:00000a38       $pdata$?get_CapUpdateStatistics@COPOSItemDispenser@@UEAAJPEAF@Z 0000000180033a38     ItemDispenserImpl.obj
 0004:00000a44       $pdata$?get_CapCompareFirmwareVersion@COPOSItemDispenser@@UEAAJPEAF@Z 0000000180033a44     ItemDispenserImpl.obj
 0004:00000a50       $pdata$?get_CapUpdateFirmware@COPOSItemDispenser@@UEAAJPEAF@Z 0000000180033a50     ItemDispenserImpl.obj
 0004:00000a5c       $pdata$?CheckHealth@COPOSItemDispenser@@UEAAJJPEAJ@Z 0000000180033a5c     ItemDispenserImpl.obj
 0004:00000a68       $pdata$?ClaimDevice@COPOSItemDispenser@@UEAAJJPEAJ@Z 0000000180033a68     ItemDispenserImpl.obj
 0004:00000a74       $pdata$?Close@COPOSItemDispenser@@UEAAJPEAJ@Z 0000000180033a74     ItemDispenserImpl.obj
 0004:00000a80       $pdata$?DirectIO@COPOSItemDispenser@@UEAAJJPEAJPEAPEA_W0@Z 0000000180033a80     ItemDispenserImpl.obj
 0004:00000a8c       $pdata$?Open@COPOSItemDispenser@@UEAAJPEA_WPEAJ@Z 0000000180033a8c     ItemDispenserImpl.obj
 0004:00000a98       $pdata$?ReleaseDevice@COPOSItemDispenser@@UEAAJPEAJ@Z 0000000180033a98     ItemDispenserImpl.obj
 0004:00000aa4       $pdata$?ResetStatistics@COPOSItemDispenser@@UEAAJPEA_WPEAJ@Z 0000000180033aa4     ItemDispenserImpl.obj
 0004:00000ab0       $pdata$?RetrieveStatistics@COPOSItemDispenser@@UEAAJPEAPEA_WPEAJ@Z 0000000180033ab0     ItemDispenserImpl.obj
 0004:00000abc       $pdata$?UpdateStatistics@COPOSItemDispenser@@UEAAJPEA_WPEAJ@Z 0000000180033abc     ItemDispenserImpl.obj
 0004:00000ac8       $pdata$?CompareFirmwareVersion@COPOSItemDispenser@@UEAAJPEA_WPEAJ1@Z 0000000180033ac8     ItemDispenserImpl.obj
 0004:00000ad4       $pdata$?UpdateFirmware@COPOSItemDispenser@@UEAAJPEA_WPEAJ@Z 0000000180033ad4     ItemDispenserImpl.obj
 0004:00000ae0       $pdata$?get_CapEmptySensor@COPOSItemDispenser@@UEAAJPEAF@Z 0000000180033ae0     ItemDispenserImpl.obj
 0004:00000aec       $pdata$?get_CapIndividualSlotStatus@COPOSItemDispenser@@UEAAJPEAF@Z 0000000180033aec     ItemDispenserImpl.obj
 0004:00000af8       $pdata$?get_CapJamSensor@COPOSItemDispenser@@UEAAJPEAF@Z 0000000180033af8     ItemDispenserImpl.obj
 0004:00000b04       $pdata$?get_CapNearEmptySensor@COPOSItemDispenser@@UEAAJPEAF@Z 0000000180033b04     ItemDispenserImpl.obj
 0004:00000b10       $pdata$?AdjustItemCount@COPOSItemDispenser@@UEAAJJJPEAJ@Z 0000000180033b10     ItemDispenserImpl.obj
 0004:00000b1c       $pdata$?DispenseItem@COPOSItemDispenser@@UEAAJPEAJJ0@Z 0000000180033b1c     ItemDispenserImpl.obj
 0004:00000b28       $pdata$?ReadItemCount@COPOSItemDispenser@@UEAAJPEAJJ0@Z 0000000180033b28     ItemDispenserImpl.obj
 0004:00000b34       $pdata$atexit              0000000180033b34     LIBCMT:utility.obj
 0004:00000b40       $pdata$_onexit             0000000180033b40     LIBCMT:utility.obj
 0004:00000b4c       $pdata$__scrt_is_nonwritable_in_current_image 0000000180033b4c     LIBCMT:utility.obj
 0004:00000b58       $pdata$__scrt_is_nonwritable_in_current_image$filt$0 0000000180033b58     LIBCMT:utility.obj
 0004:00000b64       $pdata$__scrt_acquire_startup_lock 0000000180033b64     LIBCMT:utility.obj
 0004:00000b70       $pdata$__scrt_release_startup_lock 0000000180033b70     LIBCMT:utility.obj
 0004:00000b7c       $pdata$__scrt_initialize_crt 0000000180033b7c     LIBCMT:utility.obj
 0004:00000b88       $pdata$__scrt_uninitialize_crt 0000000180033b88     LIBCMT:utility.obj
 0004:00000b94       $pdata$__scrt_initialize_onexit_tables 0000000180033b94     LIBCMT:utility.obj
 0004:00000ba0       $pdata$__scrt_dllmain_exception_filter 0000000180033ba0     LIBCMT:utility.obj
 0004:00000bac       $pdata$__scrt_dllmain_before_initialize_c 0000000180033bac     LIBCMT:utility.obj
 0004:00000bb8       $pdata$__scrt_dllmain_after_initialize_c 0000000180033bb8     LIBCMT:utility.obj
 0004:00000bc4       $pdata$__scrt_dllmain_uninitialize_c 0000000180033bc4     LIBCMT:utility.obj
 0004:00000bd0       $pdata$__scrt_dllmain_uninitialize_critical 0000000180033bd0     LIBCMT:utility.obj
 0004:00000bdc       $pdata$__scrt_dllmain_crt_thread_attach 0000000180033bdc     LIBCMT:utility.obj
 0004:00000be8       $pdata$__scrt_dllmain_crt_thread_detach 0000000180033be8     LIBCMT:utility.obj
 0004:00000bf4       $pdata$_Init_thread_header 0000000180033bf4     LIBCMT:thread_safe_statics.obj
 0004:00000c00       $pdata$_Init_thread_footer 0000000180033c00     LIBCMT:thread_safe_statics.obj
 0004:00000c0c       $pdata$_Init_thread_wait   0000000180033c0c     LIBCMT:thread_safe_statics.obj
 0004:00000c18       $pdata$_Init_thread_notify 0000000180033c18     LIBCMT:thread_safe_statics.obj
 0004:00000c24       $pdata$?__scrt_uninitialize_thread_safe_statics@@YAXXZ 0000000180033c24     LIBCMT:thread_safe_statics.obj
 0004:00000c30       $pdata$?__scrt_initialize_thread_safe_statics@@YAHXZ 0000000180033c30     LIBCMT:thread_safe_statics.obj
 0004:00000c3c       $pdata$__report_securityfailure 0000000180033c3c     LIBCMT:gs_report.obj
 0004:00000c48       $pdata$__report_rangecheckfailure 0000000180033c48     LIBCMT:gs_report.obj
 0004:00000c54       $pdata$__report_gsfailure  0000000180033c54     LIBCMT:gs_report.obj
 0004:00000c60       $pdata$capture_current_context 0000000180033c60     LIBCMT:gs_report.obj
 0004:00000c6c       $pdata$capture_previous_context 0000000180033c6c     LIBCMT:gs_report.obj
 0004:00000c78       $pdata$__raise_securityfailure 0000000180033c78     LIBCMT:gs_report.obj
 0004:00000c84       $pdata$??2@YAPEAX_KAEBUnothrow_t@std@@@Z 0000000180033c84     LIBCMT:new_scalar_nothrow.obj
 0004:00000c90       $pdata$?catch$0@?0???2@YAPEAX_KAEBUnothrow_t@std@@@Z@4HA 0000000180033c90     LIBCMT:new_scalar_nothrow.obj
 0004:00000c9c       $pdata$__GSHandlerCheckCommon 0000000180033c9c     LIBCMT:gshandler.obj
 0004:00000ca8       $pdata$__GSHandlerCheck    0000000180033ca8     LIBCMT:gshandler.obj
 0004:00000cb4       $pdata$__GSHandlerCheck_SEH 0000000180033cb4     LIBCMT:gshandlerseh.obj
 0004:00000cd8       $pdata$?dllmain_crt_process_attach@@YAHQEAUHINSTANCE__@@QEAX@Z 0000000180033cd8     LIBCMT:dll_dllmain.obj
 0004:00000ce4       $pdata$?fin$0@?0??dllmain_crt_process_attach@@YAHQEAUHINSTANCE__@@QEAX@Z@4HA 0000000180033ce4     LIBCMT:dll_dllmain.obj
 0004:00000cf0       $pdata$?dllmain_crt_process_detach@@YAH_N@Z 0000000180033cf0     LIBCMT:dll_dllmain.obj
 0004:00000cfc       $pdata$?fin$0@?0??dllmain_crt_process_detach@@YAH_N@Z@4HA 0000000180033cfc     LIBCMT:dll_dllmain.obj
 0004:00000d08       $pdata$?fin$1@?0??dllmain_crt_process_detach@@YAH_N@Z@4HA 0000000180033d08     LIBCMT:dll_dllmain.obj
 0004:00000d14       $pdata$?dllmain_crt_dispatch@@YAHQEAUHINSTANCE__@@KQEAX@Z 0000000180033d14     LIBCMT:dll_dllmain.obj
 0004:00000d20       $pdata$?dllmain_dispatch@@YAHQEAUHINSTANCE__@@KQEAX@Z 0000000180033d20     LIBCMT:dll_dllmain.obj
 0004:00000d2c       $pdata$?filt$0@?0??dllmain_dispatch@@YAHQEAUHINSTANCE__@@KQEAX@Z@4HA 0000000180033d2c     LIBCMT:dll_dllmain.obj
 0004:00000d38       $pdata$_DllMainCRTStartup  0000000180033d38     LIBCMT:dll_dllmain.obj
 0004:00000d44       $pdata$??2@YAPEAX_K@Z      0000000180033d44     LIBCMT:new_scalar.obj
 0004:00000d50       $pdata$__isa_available_init 0000000180033d50     LIBCMT:cpu_disp.obj
 0004:00000d5c       $pdata$__scrt_fastfail     0000000180033d5c     LIBCMT:utility_desktop.obj
 0004:00000d68       $pdata$__security_init_cookie 0000000180033d68     LIBCMT:gs_support.obj
 0004:00000d74       $pdata$__scrt_initialize_default_local_stdio_options 0000000180033d74     LIBCMT:default_local_stdio_options.obj
 0004:00000d80       $pdata$_RTC_Initialize     0000000180033d80     LIBCMT:initsect.obj
 0004:00000d8c       $pdata$_RTC_Terminate      0000000180033d8c     LIBCMT:initsect.obj
 0004:00000d98       $pdata$??0exception@std@@QEAA@AEBV01@@Z 0000000180033d98     LIBCMT:throw_bad_alloc.obj
 0004:00000da4       $pdata$??_Gbad_alloc@std@@UEAAPEAXI@Z 0000000180033da4     LIBCMT:throw_bad_alloc.obj
 0004:00000da4       $pdata$??_Gbad_array_new_length@std@@UEAAPEAXI@Z 0000000180033da4     LIBCMT:throw_bad_alloc.obj
 0004:00000da4       $pdata$??_Gexception@std@@UEAAPEAXI@Z 0000000180033da4     LIBCMT:throw_bad_alloc.obj
 0004:00000da4       $pdata$??_Gbad_exception@std@@UEAAPEAXI@Z 0000000180033da4     libvcruntime:frame.obj
 0004:00000db0       $pdata$??0bad_alloc@std@@QEAA@AEBV01@@Z 0000000180033db0     LIBCMT:throw_bad_alloc.obj
 0004:00000dbc       $pdata$??0bad_array_new_length@std@@QEAA@AEBV01@@Z 0000000180033dbc     LIBCMT:throw_bad_alloc.obj
 0004:00000dc8       $pdata$?__scrt_throw_std_bad_alloc@@YAXXZ 0000000180033dc8     LIBCMT:throw_bad_alloc.obj
 0004:00000dd4       $pdata$?__scrt_throw_std_bad_array_new_length@@YAXXZ 0000000180033dd4     LIBCMT:throw_bad_alloc.obj
 0004:00000dec       $pdata$??_Gtype_info@@UEAAPEAXI@Z 0000000180033dec     LIBCMT:std_type_info_static.obj
 0004:00000df8       $pdata$??0CAtlBaseModule@ATL@@QEAA@XZ 0000000180033df8     atls:atlbase.obj
 0004:00000e04       $pdata$??1CAtlBaseModule@ATL@@QEAA@XZ 0000000180033e04     atls:atlbase.obj
 0004:00000e10       $pdata$??__E_AtlBaseModule@ATL@@YAXXZ 0000000180033e10     atls:atlbase.obj
 0004:00000e1c       $pdata$AtlThunk_AllocateData 0000000180033e1c     atls:atlthunk.obj
 0004:00000e28       $pdata$AtlThunk_InitData   0000000180033e28     atls:atlthunk.obj
 0004:00000e34       $pdata$AtlThunk_DataToCode 0000000180033e34     atls:atlthunk.obj
 0004:00000e40       $pdata$AtlThunk_FreeData   0000000180033e40     atls:atlthunk.obj
 0004:00000e4c       $pdata$?__InitializeThunkPool@@YAHXZ 0000000180033e4c     atls:atlthunk.obj
 0004:00000e58       $pdata$?__AllocStdCallThunk_cmn@@YAPEAXXZ 0000000180033e58     atls:atlthunk.obj
 0004:00000e64       $pdata$??$GetProcAddressAll@P6AP6A_JPEAUHWND__@@I_K_J@ZPEAUAtlThunkData_t@@@Z@@YAP6AP6A_JPEAUHWND__@@I_K_J@ZPEAUAtlThunkData_t@@@ZPEAP6AP6A_J0I12@Z3@Z@Z 0000000180033e64     atls:atlthunk.obj
 0004:00000e64       $pdata$??$GetProcAddressAll@P6APEAUAtlThunkData_t@@XZ@@YAP6APEAUAtlThunkData_t@@XZPEAP6APEAU0@XZ@Z 0000000180033e64     atls:atlthunk.obj
 0004:00000e64       $pdata$??$GetProcAddressAll@P6AXPEAUAtlThunkData_t@@@Z@@YAP6AXPEAUAtlThunkData_t@@@ZPEAP6AX0@Z@Z 0000000180033e64     atls:atlthunk.obj
 0004:00000e64       $pdata$??$GetProcAddressAll@P6AXPEAUAtlThunkData_t@@PEAX_K@Z@@YAP6AXPEAUAtlThunkData_t@@PEAX_K@ZPEAP6AX012@Z@Z 0000000180033e64     atls:atlthunk.obj
 0004:00000e70       $pdata$_purecall           0000000180033e70     libvcruntime:purevirt.obj
 0004:00000e7c       $pdata$wcsstr              0000000180033e7c     libvcruntime:wcsstr.obj
 0004:00000ec4       $pdata$__vcrt_initialize   0000000180033ec4     libvcruntime:initialization.obj
 0004:00000ed0       $pdata$__vcrt_uninitialize 0000000180033ed0     libvcruntime:initialization.obj
 0004:00000edc       $pdata$__vcrt_uninitialize_critical 0000000180033edc     libvcruntime:initialization.obj
 0004:00000ee8       $pdata$__vcrt_thread_attach 0000000180033ee8     libvcruntime:initialization.obj
 0004:00000ef4       $pdata$__vcrt_thread_detach 0000000180033ef4     libvcruntime:initialization.obj
 0004:00000f00       $pdata$__C_specific_handler 0000000180033f00     libvcruntime:riscchandler.obj
 0004:00000f0c       $pdata$?CatchTryBlock@__FrameHandler3@@SAPEBU_s_TryBlockMapEntry@@PEBU_s_FuncInfo@@H@Z 0000000180033f0c     libvcruntime:risctrnsctrl.obj
 0004:00000f18       $pdata$?ExecutionInCatch@__FrameHandler3@@SA_NPEAU_xDISPATCHER_CONTEXT@@PEBU_s_FuncInfo@@@Z 0000000180033f18     libvcruntime:risctrnsctrl.obj
 0004:00000f24       $pdata$?FrameUnwindToEmptyState@__FrameHandler3@@SAXPEA_KPEAU_xDISPATCHER_CONTEXT@@PEBU_s_FuncInfo@@@Z 0000000180033f24     libvcruntime:risctrnsctrl.obj
 0004:00000f30       $pdata$?GetEstablisherFrame@__FrameHandler3@@SAPEA_KPEA_KPEAU_xDISPATCHER_CONTEXT@@PEBU_s_FuncInfo@@0@Z 0000000180033f30     libvcruntime:risctrnsctrl.obj
 0004:00000f3c       $pdata$?UnwindNestedFrames@__FrameHandler3@@SAXPEA_KPEAUEHExceptionRecord@@PEAU_CONTEXT@@0PEAXPEBU_s_FuncInfo@@HHPEBU_s_HandlerType@@PEAU_xDISPATCHER_CONTEXT@@E@Z 0000000180033f3c     libvcruntime:risctrnsctrl.obj
 0004:00000f48       $pdata$?GetRangeOfTrysToCheck@__FrameHandler3@@SA?AU?$pair@Viterator@TryBlockMap@__FrameHandler3@@V123@@std@@AEAVTryBlockMap@1@HPEAU_xDISPATCHER_CONTEXT@@PEBU_s_FuncInfo@@H@Z 0000000180033f48     libvcruntime:risctrnsctrl.obj
 0004:00000f54       $pdata$_GetImageBase       0000000180033f54     libvcruntime:risctrnsctrl.obj
 0004:00000f60       $pdata$_SetImageBase       0000000180033f60     libvcruntime:risctrnsctrl.obj
 0004:00000f6c       $pdata$_GetThrowImageBase  0000000180033f6c     libvcruntime:risctrnsctrl.obj
 0004:00000f78       $pdata$_SetThrowImageBase  0000000180033f78     libvcruntime:risctrnsctrl.obj
 0004:00000f84       $pdata$_CreateFrameInfo    0000000180033f84     libvcruntime:risctrnsctrl.obj
 0004:00000f90       $pdata$_FindAndUnlinkFrame 0000000180033f90     libvcruntime:risctrnsctrl.obj
 0004:00000f9c       $pdata$__CxxFrameHandler3  0000000180033f9c     libvcruntime:risctrnsctrl.obj
 0004:00000fa8       $pdata$??$_CallSETranslator@V__FrameHandler3@@@@YAHPEAUEHExceptionRecord@@PEA_KPEAU_CONTEXT@@PEAU_xDISPATCHER_CONTEXT@@PEBU_s_FuncInfo@@K1@Z 0000000180033fa8     libvcruntime:risctrnsctrl.obj
 0004:00000fb4       $pdata$?filt$0@?0???$_CallSETranslator@V__FrameHandler3@@@@YAHPEAUEHExceptionRecord@@PEA_KPEAU_CONTEXT@@PEAU_xDISPATCHER_CONTEXT@@PEBU_s_FuncInfo@@K1@Z@4HA 0000000180033fb4     libvcruntime:risctrnsctrl.obj
 0004:00000fc0       $pdata$_IsExceptionObjectToBeDestroyed 0000000180033fc0     libvcruntime:ehhelpers.obj
 0004:00000fcc       $pdata$__FrameUnwindFilter 0000000180033fcc     libvcruntime:ehhelpers.obj
 0004:00000fd8       $pdata$__DestructExceptionObject 0000000180033fd8     libvcruntime:ehhelpers.obj
 0004:00000fe4       $pdata$__DestructExceptionObject$filt$0 0000000180033fe4     libvcruntime:ehhelpers.obj
 0004:00000ff0       $pdata$__std_type_info_destroy_list 0000000180033ff0     libvcruntime:std_type_info.obj
 0004:00000ffc       $pdata$__std_exception_copy 0000000180033ffc     libvcruntime:std_exception.obj
 0004:00001008       $pdata$__std_exception_destroy 0000000180034008     libvcruntime:std_exception.obj
 0004:00001014       $pdata$_CxxThrowException  0000000180034014     libvcruntime:throw.obj
 0004:00001020       $pdata$__vcrt_initialize_ptd 0000000180034020     libvcruntime:per_thread_data.obj
 0004:0000102c       $pdata$__vcrt_uninitialize_ptd 000000018003402c     libvcruntime:per_thread_data.obj
 0004:00001038       $pdata$__vcrt_getptd       0000000180034038     libvcruntime:per_thread_data.obj
 0004:00001044       $pdata$__vcrt_getptd_noexit 0000000180034044     libvcruntime:per_thread_data.obj
 0004:00001050       $pdata$__vcrt_freeptd      0000000180034050     libvcruntime:per_thread_data.obj
 0004:0000105c       $pdata$__vcrt_freefls      000000018003405c     libvcruntime:per_thread_data.obj
 0004:00001068       $pdata$__vcrt_initialize_locks 0000000180034068     libvcruntime:locks.obj
 0004:00001074       $pdata$__vcrt_uninitialize_locks 0000000180034074     libvcruntime:locks.obj
 0004:000010a4       $pdata$?StateFromIp@__FrameHandler3@@SAHPEBU_s_FuncInfo@@PEAU_xDISPATCHER_CONTEXT@@_K@Z 00000001800340a4     libvcruntime:ehstate.obj
 0004:000010b0       $pdata$?GetCurrentState@__FrameHandler3@@SAHPEA_KPEAU_xDISPATCHER_CONTEXT@@PEBU_s_FuncInfo@@@Z 00000001800340b0     libvcruntime:ehstate.obj
 0004:000010bc       $pdata$?SetUnwindTryBlock@__FrameHandler3@@SAXPEA_KPEAU_xDISPATCHER_CONTEXT@@PEBU_s_FuncInfo@@H@Z 00000001800340bc     libvcruntime:ehstate.obj
 0004:000010c8       $pdata$?GetUnwindTryBlock@__FrameHandler3@@SAHPEA_KPEAU_xDISPATCHER_CONTEXT@@PEBU_s_FuncInfo@@@Z 00000001800340c8     libvcruntime:ehstate.obj
 0004:000010d4       $pdata$?FrameUnwindToState@__FrameHandler3@@SAXPEA_KPEAU_xDISPATCHER_CONTEXT@@PEBU_s_FuncInfo@@H@Z 00000001800340d4     libvcruntime:frame.obj
 0004:000010e0       $pdata$?filt$0@?0??FrameUnwindToState@__FrameHandler3@@SAXPEA_KPEAU_xDISPATCHER_CONTEXT@@PEBU_s_FuncInfo@@H@Z@4HA 00000001800340e0     libvcruntime:frame.obj
 0004:000010ec       $pdata$?fin$1@?0??FrameUnwindToState@__FrameHandler3@@SAXPEA_KPEAU_xDISPATCHER_CONTEXT@@PEBU_s_FuncInfo@@H@Z@4HA 00000001800340ec     libvcruntime:frame.obj
 0004:000010f8       $pdata$?GetHandlerSearchState@__FrameHandler3@@SAHPEA_KPEAU_xDISPATCHER_CONTEXT@@PEBU_s_FuncInfo@@@Z 00000001800340f8     libvcruntime:frame.obj
 0004:00001104       $pdata$?CxxCallCatchBlock@__FrameHandler3@@SAPEAXPEAU_EXCEPTION_RECORD@@@Z 0000000180034104     libvcruntime:frame.obj
 0004:00001110       $pdata$?filt$0@?0??CxxCallCatchBlock@__FrameHandler3@@SAPEAXPEAU_EXCEPTION_RECORD@@@Z@4HA 0000000180034110     libvcruntime:frame.obj
 0004:0000111c       $pdata$?fin$1@?0??CxxCallCatchBlock@__FrameHandler3@@SAPEAXPEAU_EXCEPTION_RECORD@@@Z@4HA 000000018003411c     libvcruntime:frame.obj
 0004:00001128       $pdata$??0bad_exception@std@@QEAA@AEBV01@@Z 0000000180034128     libvcruntime:frame.obj
 0004:00001134       $pdata$?ExFilterRethrow@@YAHPEAU_EXCEPTION_POINTERS@@PEAUEHExceptionRecord@@PEAH@Z 0000000180034134     libvcruntime:frame.obj
 0004:00001140       $pdata$?IsInExceptionSpec@@YAEPEAUEHExceptionRecord@@PEBU_s_ESTypeList@@@Z 0000000180034140     libvcruntime:frame.obj
 0004:0000114c       $pdata$?Is_bad_exception_allowed@@YAEPEBU_s_ESTypeList@@@Z 000000018003414c     libvcruntime:frame.obj
 0004:00001158       $pdata$??$__InternalCxxFrameHandler@V__FrameHandler3@@@@YA?AW4_EXCEPTION_DISPOSITION@@PEAUEHExceptionRecord@@PEA_KPEAU_CONTEXT@@PEAU_xDISPATCHER_CONTEXT@@PEBU_s_FuncInfo@@H1E@Z 0000000180034158     libvcruntime:frame.obj
 0004:00001164       $pdata$??$TypeMatchHelper@V__FrameHandler3@@@@YAHPEBU_s_HandlerType@@PEBU_s_CatchableType@@PEBU_s_ThrowInfo@@@Z 0000000180034164     libvcruntime:frame.obj
 0004:00001170       $pdata$??$BuildCatchObjectHelperInternal@V__FrameHandler3@@@@YAHPEAUEHExceptionRecord@@PEAXPEBU_s_HandlerType@@PEBU_s_CatchableType@@@Z 0000000180034170     libvcruntime:frame.obj
 0004:0000117c       $pdata$??$BuildCatchObjectInternal@V__FrameHandler3@@@@YAXPEAUEHExceptionRecord@@PEAXPEBU_s_HandlerType@@PEBU_s_CatchableType@@@Z 000000018003417c     libvcruntime:frame.obj
 0004:00001188       $pdata$??$FindHandler@V__FrameHandler3@@@@YAXPEAUEHExceptionRecord@@PEA_KPEAU_CONTEXT@@PEAU_xDISPATCHER_CONTEXT@@PEBU_s_FuncInfo@@EH1@Z 0000000180034188     libvcruntime:frame.obj
 0004:00001194       $pdata$??$CatchIt@V__FrameHandler3@@@@YAXPEAUEHExceptionRecord@@PEA_KPEAU_CONTEXT@@PEAU_xDISPATCHER_CONTEXT@@PEBU_s_FuncInfo@@PEBU_s_HandlerType@@PEBU_s_CatchableType@@PEBU_s_TryBlockMapEntry@@H1EE@Z 0000000180034194     libvcruntime:frame.obj
 0004:000011a0       $pdata$??$FindHandlerForForeignException@V__FrameHandler3@@@@YAXPEAUEHExceptionRecord@@PEA_KPEAU_CONTEXT@@PEAU_xDISPATCHER_CONTEXT@@PEBU_s_FuncInfo@@HH1@Z 00000001800341a0     libvcruntime:frame.obj
 0004:000011ac       $pdata$__vcrt_FlsAlloc     00000001800341ac     libvcruntime:winapi_downlevel.obj
 0004:000011b8       $pdata$__vcrt_FlsFree      00000001800341b8     libvcruntime:winapi_downlevel.obj
 0004:000011c4       $pdata$__vcrt_FlsGetValue  00000001800341c4     libvcruntime:winapi_downlevel.obj
 0004:000011d0       $pdata$__vcrt_FlsSetValue  00000001800341d0     libvcruntime:winapi_downlevel.obj
 0004:000011dc       $pdata$__vcrt_InitializeCriticalSectionEx 00000001800341dc     libvcruntime:winapi_downlevel.obj
 0004:000011e8       $pdata$?try_get_function@@YAPEAXW4function_id@?A0x81a78551@@QEBDQEBW4module_id@2@2@Z 00000001800341e8     libvcruntime:winapi_downlevel.obj
 0004:00001224       $pdata$_invalid_parameter_noinfo 0000000180034224     libucrt:invalid_parameter.obj
 0004:00001230       $pdata$_invoke_watson      0000000180034230     libucrt:invalid_parameter.obj
 0004:0000123c       $pdata$__acrt_call_reportfault 000000018003423c     libucrt:invalid_parameter.obj
 0004:00001248       $pdata$_invalid_parameter  0000000180034248     libucrt:invalid_parameter.obj
 0004:00001254       $pdata$_errno              0000000180034254     libucrt:errno.obj
 0004:00001260       $pdata$__doserrno          0000000180034260     libucrt:errno.obj
 0004:0000126c       $pdata$__acrt_errno_map_os_error 000000018003426c     libucrt:errno.obj
 0004:00001278       $pdata$_recalloc_base      0000000180034278     libucrt:recalloc.obj
 0004:00001284       $pdata$_resetstkoflw       0000000180034284     libucrt:resetstk.obj
 0004:00001290       $pdata$wcscat_s            0000000180034290     libucrt:wcscat_s.obj
 0004:0000129c       $pdata$wcscpy_s            000000018003429c     libucrt:wcscpy_s.obj
 0004:000012a8       $pdata$wcsncpy_s           00000001800342a8     libucrt:wcsncpy_s.obj
 0004:000012b4       $pdata$??0_LocaleUpdate@@QEAA@QEAU__crt_locale_pointers@@@Z 00000001800342b4     libucrt:output.obj
 0004:000012c0       $pdata$__stdio_common_vswprintf_s 00000001800342c0     libucrt:output.obj
 0004:000012cc       $pdata$?write_string@?$string_output_adapter@_W@__crt_stdio_output@@QEBAXQEB_WHQEAHAEAV__crt_deferred_errno_cache@@@Z 00000001800342cc     libucrt:output.obj
 0004:000012d8       $pdata$??$common_vsprintf@Vformat_validation_base@__crt_stdio_output@@_W@@YAH_KQEA_W0QEB_WQEAU__crt_locale_pointers@@QEAD@Z 00000001800342d8     libucrt:output.obj
 0004:000012e4       $pdata$??$write_multiple_characters@V?$string_output_adapter@_W@__crt_stdio_output@@D@__crt_stdio_output@@YAXAEBV?$string_output_adapter@_W@0@DHQEAH@Z 00000001800342e4     libucrt:output.obj
 0004:000012f0       $pdata$??$ensure_buffer_is_big_enough@D@formatting_buffer@__crt_stdio_output@@QEAA_N_K@Z 00000001800342f0     libucrt:output.obj
 0004:000012fc       $pdata$??$ensure_buffer_is_big_enough@_W@formatting_buffer@__crt_stdio_output@@QEAA_N_K@Z 00000001800342fc     libucrt:output.obj
 0004:00001308       $pdata$?process@?$output_processor@_WV?$string_output_adapter@_W@__crt_stdio_output@@V?$format_validation_base@_WV?$string_output_adapter@_W@__crt_stdio_output@@@2@@__crt_stdio_output@@QEAAHXZ 0000000180034308     libucrt:output.obj
 0004:00001314       $pdata$?parse_int_from_format_string@?$output_processor@_WV?$string_output_adapter@_W@__crt_stdio_output@@V?$format_validation_base@_WV?$string_output_adapter@_W@__crt_stdio_output@@@2@@__crt_stdio_output@@AEAA_NQEAH@Z 0000000180034314     libucrt:output.obj
 0004:00001320       $pdata$?state_case_size@?$output_processor@_WV?$string_output_adapter@_W@__crt_stdio_output@@V?$format_validation_base@_WV?$string_output_adapter@_W@__crt_stdio_output@@@2@@__crt_stdio_output@@AEAA_NXZ 0000000180034320     libucrt:output.obj
 0004:0000132c       $pdata$?state_case_type@?$output_processor@_WV?$string_output_adapter@_W@__crt_stdio_output@@V?$format_validation_base@_WV?$string_output_adapter@_W@__crt_stdio_output@@@2@@__crt_stdio_output@@AEAA_NXZ 000000018003432c     libucrt:output.obj
 0004:00001338       $pdata$?type_case_c_tchar@?$output_processor@_WV?$string_output_adapter@_W@__crt_stdio_output@@V?$format_validation_base@_WV?$string_output_adapter@_W@__crt_stdio_output@@@2@@__crt_stdio_output@@AEAA_N_W@Z 0000000180034338     libucrt:output.obj
 0004:00001344       $pdata$?type_case_Z@?$output_processor@_WV?$string_output_adapter@_W@__crt_stdio_output@@V?$format_validation_base@_WV?$string_output_adapter@_W@__crt_stdio_output@@@2@@__crt_stdio_output@@AEAA_NXZ 0000000180034344     libucrt:output.obj
 0004:00001350       $pdata$?type_case_s@?$output_processor@_WV?$string_output_adapter@_W@__crt_stdio_output@@V?$format_validation_base@_WV?$string_output_adapter@_W@__crt_stdio_output@@@2@@__crt_stdio_output@@AEAA_NXZ 0000000180034350     libucrt:output.obj
 0004:0000135c       $pdata$?type_case_a@?$output_processor@_WV?$string_output_adapter@_W@__crt_stdio_output@@V?$format_validation_base@_WV?$string_output_adapter@_W@__crt_stdio_output@@@2@@__crt_stdio_output@@AEAA_NXZ 000000018003435c     libucrt:output.obj
 0004:00001368       $pdata$?type_case_integer@?$output_processor@_WV?$string_output_adapter@_W@__crt_stdio_output@@V?$format_validation_base@_WV?$string_output_adapter@_W@__crt_stdio_output@@@2@@__crt_stdio_output@@AEAA_NI_N@Z 0000000180034368     libucrt:output.obj
 0004:00001374       $pdata$?type_case_n@?$output_processor@_WV?$string_output_adapter@_W@__crt_stdio_output@@V?$format_validation_base@_WV?$string_output_adapter@_W@__crt_stdio_output@@@2@@__crt_stdio_output@@AEAA_NXZ 0000000180034374     libucrt:output.obj
 0004:00001380       $pdata$?write_stored_string_tchar@?$output_processor@_WV?$string_output_adapter@_W@__crt_stdio_output@@V?$format_validation_base@_WV?$string_output_adapter@_W@__crt_stdio_output@@@2@@__crt_stdio_output@@AEAA_N_W@Z 0000000180034380     libucrt:output.obj
 0004:0000138c       $pdata$??$type_case_integer_parse_into_buffer@_K@?$output_processor@_WV?$string_output_adapter@_W@__crt_stdio_output@@V?$format_validation_base@_WV?$string_output_adapter@_W@__crt_stdio_output@@@2@@__crt_stdio_output@@AEAAX_KI_N@Z 000000018003438c     libucrt:output.obj
 0004:00001398       $pdata$??$type_case_integer_parse_into_buffer@I@?$output_processor@_WV?$string_output_adapter@_W@__crt_stdio_output@@V?$format_validation_base@_WV?$string_output_adapter@_W@__crt_stdio_output@@@2@@__crt_stdio_output@@AEAAXII_N@Z 0000000180034398     libucrt:output.obj
 0004:000013a4       $pdata$_seh_filter_exe     00000001800343a4     libucrt:exception_filter.obj
 0004:000013b0       $pdata$?try_cor_exit_process@@YAXI@Z 00000001800343b0     libucrt:exit.obj
 0004:000013bc       $pdata$?exit_or_terminate_process@@YAXI@Z 00000001800343bc     libucrt:exit.obj
 0004:000013c8       $pdata$?common_exit@@YAXHW4_crt_exit_cleanup_mode@@W4_crt_exit_return_mode@@@Z 00000001800343c8     libucrt:exit.obj
 0004:000013d4       $pdata$??R<lambda_6e4b09c48022b2350581041d5f6b0c4c>@@QEBA@XZ 00000001800343d4     libucrt:exit.obj
 0004:000013e0       $pdata$?filt$0@?0???R<lambda_6e4b09c48022b2350581041d5f6b0c4c>@@QEBA@XZ@4HA 00000001800343e0     libucrt:exit.obj
 0004:000013ec       $pdata$??$?RV<lambda_d80eeec6fff315bfe5c115232f3240e3>@@AEAV<lambda_6e4b09c48022b2350581041d5f6b0c4c>@@V<lambda_2358e3775559c9db80273638284d5e45>@@@?$__crt_seh_guarded_call@X@@QEAAX$$QEAV<lambda_d80eeec6fff315bfe5c115232f3240e3>@@AEAV<lambda_6e4b09c48022b2350581041d5f6b0c4c>@@$$QEAV<lambda_2358e3775559c9db80273638284d5e45>@@@Z 00000001800343ec     libucrt:exit.obj
 0004:000013f8       $pdata$?fin$0@?0???$?RV<lambda_0ae27a3a962d80f24befdcbee591983d>@@AEAV<lambda_8d0ee55de4b1038c4002e0adecdf1839>@@V<lambda_dc504788e8f1664fe9b84e20bfb512f2>@@@?$__crt_seh_guarded_call@X@@QEAAX$$QEAV<lambda_0ae27a3a962d80f24befdcbee591983d>@@AEAV<lambda_8d0ee55de4b1038c4002e0adecdf1839>@@$$QEAV<lambda_dc504788e8f1664fe9b84e20bfb512f2>@@@Z@4HA 00000001800343f8     libucrt:per_thread_data.obj
 0004:000013f8       $pdata$?fin$0@?0???$?RV<lambda_2d41944a1d46af3157314b8a01080d33>@@AEAV<lambda_8f455de75cd7d7f24b4096f044d8b9e6>@@V<lambda_aa500f224e6afead328df44964fe2772>@@@?$__crt_seh_guarded_call@X@@QEAAX$$QEAV<lambda_2d41944a1d46af3157314b8a01080d33>@@AEAV<lambda_8f455de75cd7d7f24b4096f044d8b9e6>@@$$QEAV<lambda_aa500f224e6afead328df44964fe2772>@@@Z@4HA 00000001800343f8     libucrt:per_thread_data.obj
 0004:000013f8       $pdata$?fin$0@?0???$?RV<lambda_aa87e3671a710a21b5dc78c0bdf72e11>@@AEAV<lambda_92619d2358a28f41a33ba319515a20b9>@@V<lambda_6992ecaafeb10aed2b74cb1fae11a551>@@@?$__crt_seh_guarded_call@X@@QEAAX$$QEAV<lambda_aa87e3671a710a21b5dc78c0bdf72e11>@@AEAV<lambda_92619d2358a28f41a33ba319515a20b9>@@$$QEAV<lambda_6992ecaafeb10aed2b74cb1fae11a551>@@@Z@4HA 00000001800343f8     libucrt:per_thread_data.obj
 0004:000013f8       $pdata$?fin$0@?0???$?RV<lambda_f2e299630e499de9f9a165e60fcd3db5>@@AEAV<lambda_2ae9d31cdba2644fcbeaf08da7c24588>@@V<lambda_40d01ff24d0e7b3814fdbdcee8eab3c7>@@@?$__crt_seh_guarded_call@X@@QEAAX$$QEAV<lambda_f2e299630e499de9f9a165e60fcd3db5>@@AEAV<lambda_2ae9d31cdba2644fcbeaf08da7c24588>@@$$QEAV<lambda_40d01ff24d0e7b3814fdbdcee8eab3c7>@@@Z@4HA 00000001800343f8     libucrt:per_thread_data.obj
 0004:000013f8       $pdata$?fin$0@?0???$?RV<lambda_efdfa57d1f175319df784efa44bb7b81>@@AEAV<lambda_5f0a4c1567f8adc6734073e5d1e1b35c>@@V<lambda_2e8a7d3640ea6ccb4c2413664c2db6fd>@@@?$__crt_seh_guarded_call@X@@QEAAX$$QEAV<lambda_efdfa57d1f175319df784efa44bb7b81>@@AEAV<lambda_5f0a4c1567f8adc6734073e5d1e1b35c>@@$$QEAV<lambda_2e8a7d3640ea6ccb4c2413664c2db6fd>@@@Z@4HA 00000001800343f8     libucrt:mbctype.obj
 0004:000013f8       $pdata$?fin$0@?0???$?RV<lambda_450d765d439847d4c735a33c368b5fc0>@@AEAV<lambda_44731a7d0e6d81c3e6aa82d741081786>@@V<lambda_601a2a7da3b7a96e9554ac7215c4b07c>@@@?$__crt_seh_guarded_call@P6AXH@Z@@QEAAP6AXH@Z$$QEAV<lambda_450d765d439847d4c735a33c368b5fc0>@@AEAV<lambda_44731a7d0e6d81c3e6aa82d741081786>@@$$QEAV<lambda_601a2a7da3b7a96e9554ac7215c4b07c>@@@Z@4HA 00000001800343f8     libucrt:signal.obj
 0004:000013f8       $pdata$?fin$0@?0???$?RV<lambda_d80eeec6fff315bfe5c115232f3240e3>@@AEAV<lambda_6e4b09c48022b2350581041d5f6b0c4c>@@V<lambda_2358e3775559c9db80273638284d5e45>@@@?$__crt_seh_guarded_call@X@@QEAAX$$QEAV<lambda_d80eeec6fff315bfe5c115232f3240e3>@@AEAV<lambda_6e4b09c48022b2350581041d5f6b0c4c>@@$$QEAV<lambda_2358e3775559c9db80273638284d5e45>@@@Z@4HA 00000001800343f8     libucrt:exit.obj
 0004:000013f8       $pdata$?fin$0@?0???$?RV<lambda_638799b9deba96c50f710eeac98168cd>@@AEAV<lambda_22ebabd17bc4fa466a2aca6d8deb888d>@@V<lambda_a6f7d7db0129f75315ebf26d50c089f1>@@@?$__crt_seh_guarded_call@H@@QEAAH$$QEAV<lambda_638799b9deba96c50f710eeac98168cd>@@AEAV<lambda_22ebabd17bc4fa466a2aca6d8deb888d>@@$$QEAV<lambda_a6f7d7db0129f75315ebf26d50c089f1>@@@Z@4HA 00000001800343f8     libucrt:onexit.obj
 0004:000013f8       $pdata$?fin$0@?0???$?RV<lambda_7777bce6b2f8c936911f934f8298dc43>@@AEAV<lambda_f03950bc5685219e0bcd2087efbe011e>@@V<lambda_3883c3dff614d5e0c5f61bb1ac94921c>@@@?$__crt_seh_guarded_call@H@@QEAAH$$QEAV<lambda_7777bce6b2f8c936911f934f8298dc43>@@AEAV<lambda_f03950bc5685219e0bcd2087efbe011e>@@$$QEAV<lambda_3883c3dff614d5e0c5f61bb1ac94921c>@@@Z@4HA 00000001800343f8     libucrt:onexit.obj
 0004:00001404       $pdata$_configure_narrow_argv 0000000180034404     libucrt:argv_parsing.obj
 0004:00001410       $pdata$__acrt_allocate_buffer_for_argv 0000000180034410     libucrt:argv_parsing.obj
 0004:0000141c       $pdata$??$parse_command_line@D@@YAXPEADPEAPEAD0PEA_K2@Z 000000018003441c     libucrt:argv_parsing.obj
 0004:00001428       $pdata$__dcrt_uninitialize_environments_nolock 0000000180034428     libucrt:environment_initialization.obj
 0004:00001434       $pdata$??$common_initialize_environment_nolock@D@@YAHXZ 0000000180034434     libucrt:environment_initialization.obj
 0004:00001440       $pdata$??$uninitialize_environment_internal@D@@YAXAEAPEAPEAD@Z 0000000180034440     libucrt:environment_initialization.obj
 0004:0000144c       $pdata$??$uninitialize_environment_internal@_W@@YAXAEAPEAPEA_W@Z 000000018003444c     libucrt:environment_initialization.obj
 0004:00001458       $pdata$??$free_environment@D@@YAXQEAPEAD@Z 0000000180034458     libucrt:environment_initialization.obj
 0004:00001458       $pdata$??$free_environment@_W@@YAXQEAPEA_W@Z 0000000180034458     libucrt:environment_initialization.obj
 0004:00001464       $pdata$??$create_environment@D@@YAQEAPEADQEAD@Z 0000000180034464     libucrt:environment_initialization.obj
 0004:00001470       $pdata$_register_onexit_function 0000000180034470     libucrt:onexit.obj
 0004:0000147c       $pdata$_execute_onexit_table 000000018003447c     libucrt:onexit.obj
 0004:00001488       $pdata$??R<lambda_22ebabd17bc4fa466a2aca6d8deb888d>@@QEBAHXZ 0000000180034488     libucrt:onexit.obj
 0004:00001494       $pdata$??R<lambda_f03950bc5685219e0bcd2087efbe011e>@@QEBAHXZ 0000000180034494     libucrt:onexit.obj
 0004:000014a0       $pdata$??$?RV<lambda_638799b9deba96c50f710eeac98168cd>@@AEAV<lambda_22ebabd17bc4fa466a2aca6d8deb888d>@@V<lambda_a6f7d7db0129f75315ebf26d50c089f1>@@@?$__crt_seh_guarded_call@H@@QEAAH$$QEAV<lambda_638799b9deba96c50f710eeac98168cd>@@AEAV<lambda_22ebabd17bc4fa466a2aca6d8deb888d>@@$$QEAV<lambda_a6f7d7db0129f75315ebf26d50c089f1>@@@Z 00000001800344a0     libucrt:onexit.obj
 0004:000014ac       $pdata$??$?RV<lambda_7777bce6b2f8c936911f934f8298dc43>@@AEAV<lambda_f03950bc5685219e0bcd2087efbe011e>@@V<lambda_3883c3dff614d5e0c5f61bb1ac94921c>@@@?$__crt_seh_guarded_call@H@@QEAAH$$QEAV<lambda_7777bce6b2f8c936911f934f8298dc43>@@AEAV<lambda_f03950bc5685219e0bcd2087efbe011e>@@$$QEAV<lambda_3883c3dff614d5e0c5f61bb1ac94921c>@@@Z 00000001800344ac     libucrt:onexit.obj
 0004:000014b8       $pdata$__acrt_uninitialize 00000001800344b8     libucrt:initialization.obj
 0004:000014c4       $pdata$__acrt_uninitialize_critical 00000001800344c4     libucrt:initialization.obj
 0004:000014d0       $pdata$__acrt_thread_attach 00000001800344d0     libucrt:initialization.obj
 0004:000014dc       $pdata$__acrt_thread_detach 00000001800344dc     libucrt:initialization.obj
 0004:000014e8       $pdata$initialize_c        00000001800344e8     libucrt:initialization.obj
 0004:000014f4       $pdata$uninitialize_environment 00000001800344f4     libucrt:initialization.obj
 0004:00001500       $pdata$initialize_pointers 0000000180034500     libucrt:initialization.obj
 0004:0000150c       $pdata$uninitialize_allocated_memory 000000018003450c     libucrt:initialization.obj
 0004:00001518       $pdata$uninitialize_allocated_io_buffers 0000000180034518     libucrt:initialization.obj
 0004:00001524       $pdata$_initterm           0000000180034524     libucrt:initterm.obj
 0004:00001530       $pdata$_initterm_e         0000000180034530     libucrt:initterm.obj
 0004:0000153c       $pdata$_callnewh           000000018003453c     libucrt:new_handler.obj
 0004:00001548       $pdata$_query_new_handler  0000000180034548     libucrt:new_handler.obj
 0004:00001554       $pdata$_query_new_handler$fin$0 0000000180034554     libucrt:new_handler.obj
 0004:00001560       $pdata$terminate           0000000180034560     libucrt:terminate.obj
 0004:0000156c       $pdata$abort               000000018003456c     libucrt:abort.obj
 0004:00001578       $pdata$strcpy_s            0000000180034578     libucrt:strcpy_s.obj
 0004:00001584       $pdata$??$parse_integer@KV?$c_string_character_source@_W@__crt_strtox@@@__crt_strtox@@YAKQEAU__crt_locale_pointers@@V?$c_string_character_source@_W@0@H_N@Z 0000000180034584     libucrt:atox.obj
 0004:0000159c       $pdata$_free_base          000000018003459c     libucrt:free_base.obj
 0004:000015a8       $pdata$__acrt_initialize_ptd 00000001800345a8     libucrt:per_thread_data.obj
 0004:000015b4       $pdata$__acrt_uninitialize_ptd 00000001800345b4     libucrt:per_thread_data.obj
 0004:000015c0       $pdata$__acrt_getptd       00000001800345c0     libucrt:per_thread_data.obj
 0004:000015cc       $pdata$__acrt_getptd_head  00000001800345cc     libucrt:per_thread_data.obj
 0004:000015d8       $pdata$__acrt_getptd_noexit 00000001800345d8     libucrt:per_thread_data.obj
 0004:000015e4       $pdata$__acrt_freeptd      00000001800345e4     libucrt:per_thread_data.obj
 0004:000015f0       $pdata$?destroy_fls@@YAXPEAX@Z 00000001800345f0     libucrt:per_thread_data.obj
 0004:000015fc       $pdata$?replace_current_thread_locale_nolock@@YAXQEAU__acrt_ptd@@QEAU__crt_locale_data@@@Z 00000001800345fc     libucrt:per_thread_data.obj
 0004:00001608       $pdata$?construct_ptd_array@@YAXQEAU__acrt_ptd@@@Z 0000000180034608     libucrt:per_thread_data.obj
 0004:00001614       $pdata$?destroy_ptd_array@@YAXQEAU__acrt_ptd@@@Z 0000000180034614     libucrt:per_thread_data.obj
 0004:00001620       $pdata$??$?RV<lambda_0ae27a3a962d80f24befdcbee591983d>@@AEAV<lambda_8d0ee55de4b1038c4002e0adecdf1839>@@V<lambda_dc504788e8f1664fe9b84e20bfb512f2>@@@?$__crt_seh_guarded_call@X@@QEAAX$$QEAV<lambda_0ae27a3a962d80f24befdcbee591983d>@@AEAV<lambda_8d0ee55de4b1038c4002e0adecdf1839>@@$$QEAV<lambda_dc504788e8f1664fe9b84e20bfb512f2>@@@Z 0000000180034620     libucrt:per_thread_data.obj
 0004:0000162c       $pdata$??$?RV<lambda_aa87e3671a710a21b5dc78c0bdf72e11>@@AEAV<lambda_92619d2358a28f41a33ba319515a20b9>@@V<lambda_6992ecaafeb10aed2b74cb1fae11a551>@@@?$__crt_seh_guarded_call@X@@QEAAX$$QEAV<lambda_aa87e3671a710a21b5dc78c0bdf72e11>@@AEAV<lambda_92619d2358a28f41a33ba319515a20b9>@@$$QEAV<lambda_6992ecaafeb10aed2b74cb1fae11a551>@@@Z 000000018003462c     libucrt:per_thread_data.obj
 0004:00001638       $pdata$??$?RV<lambda_f2e299630e499de9f9a165e60fcd3db5>@@AEAV<lambda_2ae9d31cdba2644fcbeaf08da7c24588>@@V<lambda_40d01ff24d0e7b3814fdbdcee8eab3c7>@@@?$__crt_seh_guarded_call@X@@QEAAX$$QEAV<lambda_f2e299630e499de9f9a165e60fcd3db5>@@AEAV<lambda_2ae9d31cdba2644fcbeaf08da7c24588>@@$$QEAV<lambda_40d01ff24d0e7b3814fdbdcee8eab3c7>@@@Z 0000000180034638     libucrt:per_thread_data.obj
 0004:00001644       $pdata$??$?RV<lambda_2d41944a1d46af3157314b8a01080d33>@@AEAV<lambda_8f455de75cd7d7f24b4096f044d8b9e6>@@V<lambda_aa500f224e6afead328df44964fe2772>@@@?$__crt_seh_guarded_call@X@@QEAAX$$QEAV<lambda_2d41944a1d46af3157314b8a01080d33>@@AEAV<lambda_8f455de75cd7d7f24b4096f044d8b9e6>@@$$QEAV<lambda_aa500f224e6afead328df44964fe2772>@@@Z 0000000180034644     libucrt:per_thread_data.obj
 0004:00001650       $pdata$_calloc_base        0000000180034650     libucrt:calloc_base.obj
 0004:0000165c       $pdata$_malloc_base        000000018003465c     libucrt:malloc_base.obj
 0004:00001668       $pdata$_msize_base         0000000180034668     libucrt:msize.obj
 0004:00001674       $pdata$_realloc_base       0000000180034674     libucrt:realloc_base.obj
 0004:00001680       $pdata$__acrt_initialize_winapi_thunks 0000000180034680     libucrt:winapi_thunks.obj
 0004:0000168c       $pdata$__acrt_uninitialize_winapi_thunks 000000018003468c     libucrt:winapi_thunks.obj
 0004:00001698       $pdata$__acrt_AreFileApisANSI 0000000180034698     libucrt:winapi_thunks.obj
 0004:000016a4       $pdata$__acrt_FlsAlloc     00000001800346a4     libucrt:winapi_thunks.obj
 0004:000016b0       $pdata$__acrt_FlsFree      00000001800346b0     libucrt:winapi_thunks.obj
 0004:000016bc       $pdata$__acrt_FlsGetValue  00000001800346bc     libucrt:winapi_thunks.obj
 0004:000016c8       $pdata$__acrt_FlsSetValue  00000001800346c8     libucrt:winapi_thunks.obj
 0004:000016d4       $pdata$__acrt_InitializeCriticalSectionEx 00000001800346d4     libucrt:winapi_thunks.obj
 0004:000016e0       $pdata$__acrt_LCMapStringEx 00000001800346e0     libucrt:winapi_thunks.obj
 0004:000016ec       $pdata$__acrt_LocaleNameToLCID 00000001800346ec     libucrt:winapi_thunks.obj
 0004:000016f8       $pdata$__acrt_AppPolicyGetProcessTerminationMethodInternal 00000001800346f8     libucrt:winapi_thunks.obj
 0004:00001704       $pdata$__acrt_SetThreadStackGuarantee 0000000180034704     libucrt:winapi_thunks.obj
 0004:00001710       $pdata$?try_get_function@@YAPEAXW4function_id@?A0x391cf84c@@QEBDQEBW4module_id@2@2@Z 0000000180034710     libucrt:winapi_thunks.obj
 0004:0000171c       $pdata$wcstol              000000018003471c     libucrt:strtox.obj
 0004:00001728       $pdata$_mbtowc_l           0000000180034728     libucrt:mbtowc.obj
 0004:00001734       $pdata$__acrt_update_locale_info 0000000180034734     libucrt:locale_update.obj
 0004:00001740       $pdata$__acrt_update_multibyte_info 0000000180034740     libucrt:locale_update.obj
 0004:0000174c       $pdata$__acrt_fp_format    000000018003474c     libucrt:cvt.obj
 0004:00001758       $pdata$?fp_format_e_internal@@YAHQEAD_KH_NIQEAU_strflt@@2QEAU__crt_locale_pointers@@@Z 0000000180034758     libucrt:cvt.obj
 0004:00001764       $pdata$?fp_format_e@@YAHQEBNQEAD_K12H_NIQEAU__crt_locale_pointers@@@Z 0000000180034764     libucrt:cvt.obj
 0004:00001770       $pdata$?fp_format_a@@YAHQEBNPEAD_KQEAD2H_NIQEAU__crt_locale_pointers@@@Z 0000000180034770     libucrt:cvt.obj
 0004:0000177c       $pdata$?fp_format_f_internal@@YAHQEAD_KHQEAU_strflt@@_NQEAU__crt_locale_pointers@@@Z 000000018003477c     libucrt:cvt.obj
 0004:00001788       $pdata$?fp_format_g@@YAHQEBNQEAD_K12H_NIQEAU__crt_locale_pointers@@@Z 0000000180034788     libucrt:cvt.obj
 0004:00001794       $pdata$_fileno             0000000180034794     libucrt:fileno.obj
 0004:000017a0       $pdata$__acrt_initialize_stdio 00000001800347a0     libucrt:_file.obj
 0004:000017ac       $pdata$__acrt_uninitialize_stdio 00000001800347ac     libucrt:_file.obj
 0004:000017b8       $pdata$__acrt_uninitialize_locale 00000001800347b8     libucrt:wsetlocale.obj
 0004:000017c4       $pdata$??$?RV<lambda_410d79af7f07d98d83a3f525b3859a53>@@AEAV<lambda_3e16ef9562a7dcce91392c22ab16ea36>@@V<lambda_38119f0e861e05405d8a144b9b982f0a>@@@?$__crt_seh_guarded_call@X@@QEAAX$$QEAV<lambda_410d79af7f07d98d83a3f525b3859a53>@@AEAV<lambda_3e16ef9562a7dcce91392c22ab16ea36>@@$$QEAV<lambda_38119f0e861e05405d8a144b9b982f0a>@@@Z 00000001800347c4     libucrt:wsetlocale.obj
 0004:000017d0       $pdata$?fin$0@?0???$?RV<lambda_410d79af7f07d98d83a3f525b3859a53>@@AEAV<lambda_3e16ef9562a7dcce91392c22ab16ea36>@@V<lambda_38119f0e861e05405d8a144b9b982f0a>@@@?$__crt_seh_guarded_call@X@@QEAAX$$QEAV<lambda_410d79af7f07d98d83a3f525b3859a53>@@AEAV<lambda_3e16ef9562a7dcce91392c22ab16ea36>@@$$QEAV<lambda_38119f0e861e05405d8a144b9b982f0a>@@@Z@4HA 00000001800347d0     libucrt:wsetlocale.obj
 0004:000017dc       $pdata$__acrt_initialize_lowio 00000001800347dc     libucrt:ioinit.obj
 0004:000017e8       $pdata$__acrt_initialize_lowio$fin$0 00000001800347e8     libucrt:ioinit.obj
 0004:000017e8       $pdata$__acrt_lowio_ensure_fh_exists$fin$0 00000001800347e8     libucrt:osfinfo.obj
 0004:000017f4       $pdata$__acrt_uninitialize_lowio 00000001800347f4     libucrt:ioinit.obj
 0004:00001800       $pdata$?initialize_inherited_file_handles_nolock@@YAXXZ 0000000180034800     libucrt:ioinit.obj
 0004:0000180c       $pdata$?initialize_stdio_handles_nolock@@YAXXZ 000000018003480c     libucrt:ioinit.obj
 0004:00001818       $pdata$__acrt_initialize_locks 0000000180034818     libucrt:locks.obj
 0004:00001824       $pdata$__acrt_uninitialize_locks 0000000180034824     libucrt:locks.obj
 0004:00001830       $pdata$__acrt_get_process_end_policy 0000000180034830     libucrt:win_policies.obj
 0004:0000183c       $pdata$??$__acrt_mbs_to_wcs_cp@U__crt_win32_buffer_internal_dynamic_resizing@@@@YAHQEBDAEAV?$__crt_win32_buffer@_WU__crt_win32_buffer_internal_dynamic_resizing@@@@I@Z 000000018003483c     libucrt:argv_wildcards.obj
 0004:00001848       $pdata$??$__acrt_wcs_to_mbs_cp@U__crt_win32_buffer_internal_dynamic_resizing@@@@YAHQEB_WAEAV?$__crt_win32_buffer@DU__crt_win32_buffer_internal_dynamic_resizing@@@@I@Z 0000000180034848     libucrt:argv_wildcards.obj
 0004:00001854       $pdata$??$common_expand_argv_wildcards@D@@YAHQEAPEADQEAPEAPEAD@Z 0000000180034854     libucrt:argv_wildcards.obj
 0004:00001860       $pdata$??$copy_and_add_argument_to_buffer@D@@YAHQEBD0_KAEAV?$argument_list@D@?A0x5f5c8891@@@Z 0000000180034860     libucrt:argv_wildcards.obj
 0004:0000186c       $pdata$??$expand_argument_wildcards@D@@YAHQEAD0AEAV?$argument_list@D@?A0x5f5c8891@@@Z 000000018003486c     libucrt:argv_wildcards.obj
 0004:00001878       $pdata$__acrt_GetModuleFileNameA 0000000180034878     libucrt:getmodulefilenamea.obj
 0004:00001884       $pdata$??$__acrt_wcs_to_mbs_cp@U__crt_win32_buffer_no_resizing@@@@YAHQEB_WAEAV?$__crt_win32_buffer@DU__crt_win32_buffer_no_resizing@@@@I@Z 0000000180034884     libucrt:getmodulefilenamea.obj
 0004:00001890       $pdata$__acrt_update_thread_multibyte_data 0000000180034890     libucrt:mbctype.obj
 0004:0000189c       $pdata$__acrt_initialize_multibyte 000000018003489c     libucrt:mbctype.obj
 0004:000018a8       $pdata$_setmbcp_nolock     00000001800348a8     libucrt:mbctype.obj
 0004:000018b4       $pdata$?getSystemCP@@YAHH@Z 00000001800348b4     libucrt:mbctype.obj
 0004:000018c0       $pdata$?setSBCS@@YAXPEAU__crt_multibyte_data@@@Z 00000001800348c0     libucrt:mbctype.obj
 0004:000018cc       $pdata$?update_thread_multibyte_data_internal@@YAPEAU__crt_multibyte_data@@QEAU__acrt_ptd@@QEAPEAU1@@Z 00000001800348cc     libucrt:mbctype.obj
 0004:000018d8       $pdata$?fin$0@?0??update_thread_multibyte_data_internal@@YAPEAU__crt_multibyte_data@@QEAU__acrt_ptd@@QEAPEAU1@@Z@4HA 00000001800348d8     libucrt:mbctype.obj
 0004:000018e4       $pdata$?setmbcp_internal@@YAHH_NQEAU__acrt_ptd@@QEAPEAU__crt_multibyte_data@@@Z 00000001800348e4     libucrt:mbctype.obj
 0004:000018f0       $pdata$?setSBUpLow@@YAXPEAU__crt_multibyte_data@@@Z 00000001800348f0     libucrt:mbctype.obj
 0004:000018fc       $pdata$??$?RV<lambda_efdfa57d1f175319df784efa44bb7b81>@@AEAV<lambda_5f0a4c1567f8adc6734073e5d1e1b35c>@@V<lambda_2e8a7d3640ea6ccb4c2413664c2db6fd>@@@?$__crt_seh_guarded_call@X@@QEAAX$$QEAV<lambda_efdfa57d1f175319df784efa44bb7b81>@@AEAV<lambda_5f0a4c1567f8adc6734073e5d1e1b35c>@@$$QEAV<lambda_2e8a7d3640ea6ccb4c2413664c2db6fd>@@@Z 00000001800348fc     libucrt:mbctype.obj
 0004:00001908       $pdata$?x_ismbbtype_l@@YAHPEAU__crt_locale_pointers@@IHH@Z 0000000180034908     libucrt:ismbbyte.obj
 0004:00001914       $pdata$__acrt_initialize_command_line 0000000180034914     libucrt:argv_data.obj
 0004:00001920       $pdata$__acrt_WideCharToMultiByte 0000000180034920     libucrt:widechartomultibyte.obj
 0004:0000192c       $pdata$__dcrt_get_narrow_environment_from_os 000000018003492c     libucrt:get_environment_from_os.obj
 0004:00001938       $pdata$__acrt_initialize_heap 0000000180034938     libucrt:heap_handle.obj
 0004:00001944       $pdata$__acrt_execute_initializers 0000000180034944     libucrt:shared_initialization.obj
 0004:00001950       $pdata$__acrt_execute_uninitializers 0000000180034950     libucrt:shared_initialization.obj
 0004:0000195c       $pdata$__acrt_get_sigabrt_handler 000000018003495c     libucrt:signal.obj
 0004:00001968       $pdata$raise               0000000180034968     libucrt:signal.obj
 0004:00001974       $pdata$raise$fin$0         0000000180034974     libucrt:signal.obj
 0004:00001980       $pdata$??$?RV<lambda_450d765d439847d4c735a33c368b5fc0>@@AEAV<lambda_44731a7d0e6d81c3e6aa82d741081786>@@V<lambda_601a2a7da3b7a96e9554ac7215c4b07c>@@@?$__crt_seh_guarded_call@P6AXH@Z@@QEAAP6AXH@Z$$QEAV<lambda_450d765d439847d4c735a33c368b5fc0>@@AEAV<lambda_44731a7d0e6d81c3e6aa82d741081786>@@$$QEAV<lambda_601a2a7da3b7a96e9554ac7215c4b07c>@@@Z 0000000180034980     libucrt:signal.obj
 0004:0000198c       $pdata$_fflush_nolock      000000018003498c     libucrt:fflush.obj
 0004:00001998       $pdata$__acrt_stdio_flush_nolock 0000000180034998     libucrt:fflush.obj
 0004:000019a4       $pdata$?common_flush_all@@YAH_N@Z 00000001800349a4     libucrt:fflush.obj
 0004:000019b0       $pdata$??$?RV<lambda_842d9ff0dc9ef11c61343bbaebe7f885>@@AEAV<lambda_c5860995281e5c4ce005b3de8f5874ee>@@V<lambda_d90129c13df834fdcbf8d2b88dafcf2d>@@@?$__crt_seh_guarded_call@X@@QEAAX$$QEAV<lambda_842d9ff0dc9ef11c61343bbaebe7f885>@@AEAV<lambda_c5860995281e5c4ce005b3de8f5874ee>@@$$QEAV<lambda_d90129c13df834fdcbf8d2b88dafcf2d>@@@Z 00000001800349b0     libucrt:fflush.obj
 0004:000019bc       $pdata$?fin$0@?0???$?RV<lambda_842d9ff0dc9ef11c61343bbaebe7f885>@@AEAV<lambda_c5860995281e5c4ce005b3de8f5874ee>@@V<lambda_d90129c13df834fdcbf8d2b88dafcf2d>@@@?$__crt_seh_guarded_call@X@@QEAAX$$QEAV<lambda_842d9ff0dc9ef11c61343bbaebe7f885>@@AEAV<lambda_c5860995281e5c4ce005b3de8f5874ee>@@$$QEAV<lambda_d90129c13df834fdcbf8d2b88dafcf2d>@@@Z@4HA 00000001800349bc     libucrt:fflush.obj
 0004:000019c8       $pdata$??$?RV<lambda_886d6c58226a84441f68b9f2b8217b83>@@AEAV<lambda_ab61a845afdef5b7c387490eaf3616ee>@@V<lambda_f7f22ab5edc0698d5f6905b0d3f44752>@@@?$__crt_seh_guarded_call@X@@QEAAX$$QEAV<lambda_886d6c58226a84441f68b9f2b8217b83>@@AEAV<lambda_ab61a845afdef5b7c387490eaf3616ee>@@$$QEAV<lambda_f7f22ab5edc0698d5f6905b0d3f44752>@@@Z 00000001800349c8     libucrt:fflush.obj
 0004:000019d4       $pdata$?fin$0@?0???$?RV<lambda_886d6c58226a84441f68b9f2b8217b83>@@AEAV<lambda_ab61a845afdef5b7c387490eaf3616ee>@@V<lambda_f7f22ab5edc0698d5f6905b0d3f44752>@@@?$__crt_seh_guarded_call@X@@QEAAX$$QEAV<lambda_886d6c58226a84441f68b9f2b8217b83>@@AEAV<lambda_ab61a845afdef5b7c387490eaf3616ee>@@$$QEAV<lambda_f7f22ab5edc0698d5f6905b0d3f44752>@@@Z@4HA 00000001800349d4     libucrt:fflush.obj
 0004:000019e0       $pdata$__pctype_func       00000001800349e0     libucrt:ctype.obj
 0004:000019ec       $pdata$iswctype            00000001800349ec     libucrt:iswctype.obj
 0004:000019f8       $pdata$__acrt_release_locale_ref 00000001800349f8     libucrt:locale_refcounting.obj
 0004:00001a04       $pdata$__acrt_free_locale  0000000180034a04     libucrt:locale_refcounting.obj
 0004:00001a10       $pdata$__acrt_locale_free_lc_time_if_unreferenced 0000000180034a10     libucrt:locale_refcounting.obj
 0004:00001a1c       $pdata$__acrt_update_thread_locale_data 0000000180034a1c     libucrt:locale_refcounting.obj
 0004:00001a28       $pdata$__acrt_update_thread_locale_data$fin$0 0000000180034a28     libucrt:locale_refcounting.obj
 0004:00001a34       $pdata$_updatetlocinfoEx_nolock 0000000180034a34     libucrt:locale_refcounting.obj
 0004:00001a40       $pdata$__acrt_DownlevelLocaleNameToLCID 0000000180034a40     libucrt:lcidtoname_downlevel.obj
 0004:00001a4c       $pdata$_isleadbyte_l       0000000180034a4c     libucrt:_wctype.obj
 0004:00001a58       $pdata$?__mbrtowc_utf8@__crt_mbstring@@YA_KPEA_WPEBD_KPEAU_Mbstatet@@@Z 0000000180034a58     libucrt:mbrtowc.obj
 0004:00001a64       $pdata$?__mbsrtowcs_utf8@__crt_mbstring@@YA_KPEA_WPEAPEBD_KPEAU_Mbstatet@@@Z 0000000180034a64     libucrt:mbrtowc.obj
 0004:00001a70       $pdata$__acrt_fp_strflt_to_string 0000000180034a70     libucrt:_fptostr.obj
 0004:00001a7c       $pdata$memcpy_s            0000000180034a7c     libucrt:cfout.obj
 0004:00001a88       $pdata$__acrt_fltout       0000000180034a88     libucrt:cfout.obj
 0004:00001a94       $pdata$?divide@__crt_strtox@@YA_KAEAUbig_integer@1@AEBU21@@Z 0000000180034a94     libucrt:cfout.obj
 0004:00001aa0       $pdata$0$?divide@__crt_strtox@@YA_KAEAUbig_integer@1@AEBU21@@Z 0000000180034aa0     libucrt:cfout.obj
 0004:00001aac       $pdata$1$?divide@__crt_strtox@@YA_KAEAUbig_integer@1@AEBU21@@Z 0000000180034aac     libucrt:cfout.obj
 0004:00001ab8       $pdata$_fcloseall          0000000180034ab8     libucrt:closeall.obj
 0004:00001ac4       $pdata$_fcloseall$fin$0    0000000180034ac4     libucrt:closeall.obj
 0004:00001ad0       $pdata$__acrt_stdio_free_buffer_nolock 0000000180034ad0     libucrt:_freebuf.obj
 0004:00001adc       $pdata$_isatty             0000000180034adc     libucrt:isatty.obj
 0004:00001ae8       $pdata$__acrt_locale_free_monetary 0000000180034ae8     libucrt:initmon.obj
 0004:00001af4       $pdata$__acrt_locale_free_numeric 0000000180034af4     libucrt:initnum.obj
 0004:00001b00       $pdata$__acrt_locale_free_time 0000000180034b00     libucrt:inittime.obj
 0004:00001b0c       $pdata$?free_crt_array_internal@@YAXQEAPEBX_K@Z 0000000180034b0c     libucrt:inittime.obj
 0004:00001b18       $pdata$__acrt_GetStringTypeA 0000000180034b18     libucrt:getstringtypea.obj
 0004:00001b24       $pdata$_get_osfhandle      0000000180034b24     libucrt:osfinfo.obj
 0004:00001b30       $pdata$_free_osfhnd        0000000180034b30     libucrt:osfinfo.obj
 0004:00001b3c       $pdata$__acrt_lowio_create_handle_array 0000000180034b3c     libucrt:osfinfo.obj
 0004:00001b48       $pdata$__acrt_lowio_destroy_handle_array 0000000180034b48     libucrt:osfinfo.obj
 0004:00001b54       $pdata$__acrt_lowio_ensure_fh_exists 0000000180034b54     libucrt:osfinfo.obj
 0004:00001b60       $pdata$qsort               0000000180034b60     libucrt:qsort.obj
 0004:00001b6c       $pdata$4$qsort             0000000180034b6c     libucrt:qsort.obj
 0004:00001b78       $pdata$5$qsort             0000000180034b78     libucrt:qsort.obj
 0004:00001b84       $pdata$strncpy_s           0000000180034b84     libucrt:strncpy_s.obj
 0004:00001b90       $pdata$strpbrk             0000000180034b90     libucrt:strpbrk.obj
 0004:00001b9c       $pdata$fallbackMethod      0000000180034b9c     libucrt:strpbrk.obj
 0004:00001ba8       $pdata$_mbsdec_l           0000000180034ba8     libucrt:mbsdec.obj
 0004:00001bb4       $pdata$__acrt_LCMapStringA 0000000180034bb4     libucrt:lcmapstringa.obj
 0004:00001bc0       $pdata$?__acrt_LCMapStringA_stat@@YAHPEAU__crt_locale_pointers@@PEB_WKPEBDHPEADHHH@Z 0000000180034bc0     libucrt:lcmapstringa.obj
 0004:00001bcc       $pdata$?initialize_multibyte@@YAHXZ 0000000180034bcc     libucrt:multibyte_initializer.obj
 0004:00001bd8       $pdata$_commit             0000000180034bd8     libucrt:commit.obj
 0004:00001be4       $pdata$??$?RV<lambda_a37b2b86f63e897a80ea819b0eb08c01>@@AEAV<lambda_38ce7e780aa69e748d6df282ebc68efe>@@V<lambda_99fb1378e971ab6e7edea83e3a7a83a2>@@@?$__crt_seh_guarded_call@H@@QEAAH$$QEAV<lambda_a37b2b86f63e897a80ea819b0eb08c01>@@AEAV<lambda_38ce7e780aa69e748d6df282ebc68efe>@@$$QEAV<lambda_99fb1378e971ab6e7edea83e3a7a83a2>@@@Z 0000000180034be4     libucrt:commit.obj
 0004:00001bf0       $pdata$?fin$0@?0???$?RV<lambda_751a882b2c74d4b022dec766aa51a29a>@@AEAV<lambda_628dfdc04ba53c8bfc02c9951375f3f5>@@V<lambda_f6c7be5f7998530c34de24c7437d6b54>@@@?$__crt_seh_guarded_call@H@@QEAAH$$QEAV<lambda_751a882b2c74d4b022dec766aa51a29a>@@AEAV<lambda_628dfdc04ba53c8bfc02c9951375f3f5>@@$$QEAV<lambda_f6c7be5f7998530c34de24c7437d6b54>@@@Z@4HA 0000000180034bf0     libucrt:close.obj
 0004:00001bf0       $pdata$?fin$0@?0???$?RV<lambda_a37b2b86f63e897a80ea819b0eb08c01>@@AEAV<lambda_38ce7e780aa69e748d6df282ebc68efe>@@V<lambda_99fb1378e971ab6e7edea83e3a7a83a2>@@@?$__crt_seh_guarded_call@H@@QEAAH$$QEAV<lambda_a37b2b86f63e897a80ea819b0eb08c01>@@AEAV<lambda_38ce7e780aa69e748d6df282ebc68efe>@@$$QEAV<lambda_99fb1378e971ab6e7edea83e3a7a83a2>@@@Z@4HA 0000000180034bf0     libucrt:commit.obj
 0004:00001bfc       $pdata$_write              0000000180034bfc     libucrt:write.obj
 0004:00001c08       $pdata$_write$fin$0        0000000180034c08     libucrt:write.obj
 0004:00001c14       $pdata$_write_nolock       0000000180034c14     libucrt:write.obj
 0004:00001c20       $pdata$?write_double_translated_ansi_nolock@@YA?AUwrite_result@?A0x17268360@@HQEBDI@Z 0000000180034c20     libucrt:write.obj
 0004:00001c2c       $pdata$?write_text_ansi_nolock@@YA?AUwrite_result@?A0x17268360@@HQEBDI@Z 0000000180034c2c     libucrt:write.obj
 0004:00001c38       $pdata$?write_text_utf16le_nolock@@YA?AUwrite_result@?A0x17268360@@HQEBDI@Z 0000000180034c38     libucrt:write.obj
 0004:00001c44       $pdata$?write_text_utf8_nolock@@YA?AUwrite_result@?A0x17268360@@HQEBDI@Z 0000000180034c44     libucrt:write.obj
 0004:00001c50       $pdata$?__mbrtoc32_utf8@__crt_mbstring@@YA_KPEA_UPEBD_KPEAU_Mbstatet@@@Z 0000000180034c50     libucrt:mbrtoc32.obj
 0004:00001c5c       $pdata$fegetenv            0000000180034c5c     libucrt:fegetenv.obj
 0004:00001c68       $pdata$fesetenv            0000000180034c68     libucrt:fesetenv.obj
 0004:00001c74       $pdata$feholdexcept        0000000180034c74     libucrt:feholdexcept.obj
 0004:00001c8c       $pdata$??$common_lseek_nolock@_J@@YA_JH_JH@Z 0000000180034c8c     libucrt:lseek.obj
 0004:00001c98       $pdata$fclose              0000000180034c98     libucrt:fclose.obj
 0004:00001ca4       $pdata$fclose$fin$0        0000000180034ca4     libucrt:fclose.obj
 0004:00001cb0       $pdata$_fclose_nolock      0000000180034cb0     libucrt:fclose.obj
 0004:00001cbc       $pdata$_putwch_nolock      0000000180034cbc     libucrt:putwch.obj
 0004:00001cc8       $pdata$__acrt_fenv_set_control 0000000180034cc8     libucrt:_fenvutils.obj
 0004:00001cd4       $pdata$_clearfp            0000000180034cd4     libucrt:ieee.obj
 0004:00001ce0       $pdata$_call_matherr       0000000180034ce0     libucrt:libm_error.obj
 0004:00001cec       $pdata$_exception_enabled  0000000180034cec     libucrt:libm_error.obj
 0004:00001cf8       $pdata$_handle_error       0000000180034cf8     libucrt:libm_error.obj
 0004:00001d04       $pdata$__acrt_initialize_fma3 0000000180034d04     libucrt:fma3_available.obj
 0004:00001d10       $pdata$_log_special_common 0000000180034d10     libucrt:log_special.obj
 0004:00001d1c       $pdata$_log10_special      0000000180034d1c     libucrt:log_special.obj
 0004:00001d28       $pdata$_close              0000000180034d28     libucrt:close.obj
 0004:00001d34       $pdata$_close_nolock       0000000180034d34     libucrt:close.obj
 0004:00001d40       $pdata$??$?RV<lambda_751a882b2c74d4b022dec766aa51a29a>@@AEAV<lambda_628dfdc04ba53c8bfc02c9951375f3f5>@@V<lambda_f6c7be5f7998530c34de24c7437d6b54>@@@?$__crt_seh_guarded_call@H@@QEAAH$$QEAV<lambda_751a882b2c74d4b022dec766aa51a29a>@@AEAV<lambda_628dfdc04ba53c8bfc02c9951375f3f5>@@$$QEAV<lambda_f6c7be5f7998530c34de24c7437d6b54>@@@Z 0000000180034d40     libucrt:close.obj
 0004:00001d4c       $pdata$__dcrt_lowio_ensure_console_output_initialized 0000000180034d4c     libucrt:initcon.obj
 0004:00001d58       $pdata$__dcrt_write_console 0000000180034d58     libucrt:initcon.obj
 0004:00001d64       $pdata$__dcrt_terminate_console_output 0000000180034d64     libucrt:initcon.obj
 0004:00001d7c       $pdata$_set_errno_from_matherr 0000000180034d7c     libucrt:fpexcept.obj
 0004:00001d88       $pdata$_raise_exc          0000000180034d88     libucrt:fpexcept.obj
 0004:00001d94       $pdata$_raise_exc_ex       0000000180034d94     libucrt:fpexcept.obj
 0004:00001da0       $pdata$_clrfp              0000000180034da0     libucrt:fpctrl.obj
 0004:00001dac       $pdata$_ctrlfp             0000000180034dac     libucrt:fpctrl.obj
 0004:00001db8       $pdata$_ctrlfp$filt$0      0000000180034db8     libucrt:fpctrl.obj
 0004:00001dc4       $pdata$_statfp             0000000180034dc4     libucrt:fpctrl.obj
 0004:00001dd0       $pdata$_set_statfp         0000000180034dd0     libucrt:fpctrl.obj
 0004:00001ddc       $pdata$_IsNonwritableInCurrentImage 0000000180034ddc     LIBCMT:pesect.obj
 0004:00001de8       $pdata$_IsNonwritableInCurrentImage$filt$0 0000000180034de8     LIBCMT:pesect.obj
 0005:00000000       MoveSmall                  0000000180035000     libvcruntime:memcpy.obj
 0005:00000050       MsetTab                    0000000180035050     libvcruntime:memset.obj
 0006:00000220       $R000000                   0000000180036220     ItemDispenser.res
 0006:00000bc8       $R0009A8                   0000000180036bc8     ItemDispenser.res
 0006:00000cb0       $R000A90                   0000000180036cb0     ItemDispenser.res
 0006:00000f18       $R000CF8                   0000000180036f18     ItemDispenser.res
 0006:00001438       $R001218                   0000000180037438     ItemDispenser.res
 0006:00003990       $R003770                   0000000180039990     ItemDispenser.res
 0006:000039d0       $R0037B0                   00000001800399d0     ItemDispenser.res
