 Opos_Constants

 Timestamp is 5c4436ab (Sun Jan 20 17:51:55 2019)

 Preferred load address is 0000000180000000

 Start         Length     Name                   Class
 0001:00000000 000001a0H .text$di                CODE
 0001:000001a0 000105e0H .text$mn                CODE
 0001:00010780 00000020H .text$mn$00             CODE
 0001:000107a0 000003f0H .text$x                 CODE
 0001:00010b90 000000b8H .text$yd                CODE
 0002:00000000 00000338H .idata$5                DATA
 0002:00000338 00000010H .00cfg                  DATA
 0002:00000348 00000008H .CRT$XCA                DATA
 0002:00000350 00000008H .CRT$XCL                DATA
 0002:00000358 00000010H .CRT$XCU                DATA
 0002:00000368 00000008H .CRT$XCZ                DATA
 0002:00000370 00000008H .CRT$XIA                DATA
 0002:00000378 00000018H .CRT$XIC                DATA
 0002:00000390 00000008H .CRT$XIZ                DATA
 0002:00000398 00000008H .CRT$XPA                DATA
 0002:000003a0 00000010H .CRT$XPX                DATA
 0002:000003b0 00000008H .CRT$XPXA               DATA
 0002:000003b8 00000008H .CRT$XPZ                DATA
 0002:000003c0 00000008H .CRT$XTA                DATA
 0002:000003c8 00000008H .CRT$XTZ                DATA
 0002:000003d0 00000000H .gfids$x                DATA
 0002:000003d0 00000000H .gfids$y                DATA
 0002:000003d0 00007aa0H .rdata                  DATA
 0002:00007e70 00000274H .rdata$r                DATA
 0002:000080e4 0000038cH .rdata$zzzdbg           DATA
 0002:00008470 00000008H .rtc$IAA                DATA
 0002:00008478 00000008H .rtc$IZZ                DATA
 0002:00008480 00000008H .rtc$TAA                DATA
 0002:00008488 00000008H .rtc$TZZ                DATA
 0002:00008490 00001220H .xdata                  DATA
 0002:000096b0 00000150H .xdata$x                DATA
 0002:00009800 00000008H ATL$__a                 DATA
 0002:00009808 00000008H ATL$__z                 DATA
 0002:00009810 000000acH .edata                  DATA
 0002:000098bc 00000064H .idata$2                DATA
 0002:00009920 00000018H .idata$3                DATA
 0002:00009938 00000338H .idata$4                DATA
 0002:00009c70 000006dcH .idata$6                DATA
 0003:00000000 000008e0H .data                   DATA
 0003:000008e0 000000d0H .data$r                 DATA
 0003:000009b0 00001324H .bss                    DATA
 0004:00000000 00001374H .pdata                  DATA
 0005:00000000 00000140H .rsrc$01                DATA
 0005:00000140 0001add0H .rsrc$02                DATA

  Address         Publics by Value              Rva+Base               Lib:Object

 0000:00000000       __hybrid_code_map_count    0000000000000000     <absolute>
 0000:00000000       __hybrid_code_map          0000000000000000     <absolute>
 0000:00000000       __guard_iat_count          0000000000000000     <absolute>
 0000:00000000       __volatile_metadata        0000000000000000     <absolute>
 0000:00000000       __guard_longjmp_count      0000000000000000     <absolute>
 0000:00000000       __guard_longjmp_table      0000000000000000     <absolute>
 0000:00000000       __guard_iat_table          0000000000000000     <absolute>
 0000:00000000       __guard_fids_count         0000000000000000     <absolute>
 0000:00000000       ___safe_se_handler_count   0000000000000000     <absolute>
 0000:00000000       __enclave_config           0000000000000000     <absolute>
 0000:00000000       ___safe_se_handler_table   0000000000000000     <absolute>
 0000:00000000       __guard_fids_table         0000000000000000     <absolute>
 0000:00000000       __dynamic_value_reloc_table 0000000000000000     <absolute>
 0000:00000000       __hybrid_auxiliary_iat     0000000000000000     <absolute>
 0000:00000100       __guard_flags              0000000000000100     <absolute>
 0000:00000000       __ImageBase                0000000180000000     <linker-defined>
 0001:000001a0       ?_AtlInitializeCriticalSectionEx@ATL@@YAHPEAU_RTL_CRITICAL_SECTION@@KK@Z 00000001800011a0 f i StdAfx.obj
 0001:000001b0       ?_AtlRaiseException@ATL@@YAXKK@Z 00000001800011b0 f i StdAfx.obj
 0001:000001c0       ?Lock@CAtlModule@ATL@@UEAAJXZ 00000001800011c0 f i OposConstants.obj
 0001:000001d0       ?Unlock@CAtlModule@ATL@@UEAAJXZ 00000001800011d0 f i OposConstants.obj
 0001:000001e0       ?GetLockCount@CAtlModule@ATL@@UEAAJXZ 00000001800011e0 f i OposConstants.obj
 0001:000001f0       ?GetGITPtr@CAtlModule@ATL@@UEAAJPEAPEAUIGlobalInterfaceTable@@@Z 00000001800011f0 f i OposConstants.obj
 0001:00000270       ?AddCommonRGSReplacements@?$CAtlModuleT@VCComModule@ATL@@@ATL@@UEAAJPEAUIRegistrarBase@@@Z 0000000180001270 f i OposConstants.obj
 0001:00000290       ?UpdateRegistryFromResourceD@CComModule@ATL@@UEAAJIHPEAU_ATL_REGMAP_ENTRY@2@@Z 0000000180001290 f i OposConstants.obj
 0001:00000290       ?UpdateRegistryFromResourceD@CComModule@ATL@@UEAAJPEB_WHPEAU_ATL_REGMAP_ENTRY@2@@Z 0000000180001290 f i OposConstants.obj
 0001:000002a0       ?UpdateRegistryFromResource@CComModule@ATL@@UEAAJPEB_WHPEAU_ATL_REGMAP_ENTRY@2@@Z 00000001800012a0 f i OposConstants.obj
 0001:000002b0       ?UpdateRegistryFromResource@CComModule@ATL@@UEAAJIHPEAU_ATL_REGMAP_ENTRY@2@@Z 00000001800012b0 f i OposConstants.obj
 0001:000002c0       ??_GCComModule@ATL@@UEAAPEAXI@Z 00000001800012c0 f i OposConstants.obj
 0001:000002c0       ??_ECComModule@ATL@@UEAAPEAXI@Z 00000001800012c0 f i OposConstants.obj
 0001:00000300       ?QueryInterface@CRegObject@ATL@@UEAAJAEBU_GUID@@PEAPEAX@Z 0000000180001300 f i OposConstants.obj
 0001:00000310       _get_startup_argv_mode     0000000180001310 f i LIBCMT:argv_mode.obj
 0001:00000310       ?AddRef@CRegObject@ATL@@UEAAKXZ 0000000180001310 f i OposConstants.obj
 0001:00000320       ?Release@CRegObject@ATL@@UEAAKXZ 0000000180001320 f i OposConstants.obj
 0001:00000330       ?AddReplacement@CRegObject@ATL@@UEAAJPEB_W0@Z 0000000180001330 f i OposConstants.obj
 0001:00000370       ?ClearReplacements@CRegObject@ATL@@UEAAJXZ 0000000180001370 f i OposConstants.obj
 0001:00000380       ??_ECRegObject@ATL@@UEAAPEAXI@Z 0000000180001380 f i OposConstants.obj
 0001:00000380       ??_GCRegObject@ATL@@UEAAPEAXI@Z 0000000180001380 f i OposConstants.obj
 0001:00000410       ?Add@CExpansionVector@ATL@@QEAAHPEB_W0@Z 0000000180001410 f i OposConstants.obj
 0001:000005b0       ?AddValue@CRegParser@ATL@@IEAAJAEAVCRegKey@2@PEB_WPEA_W@Z 00000001800015b0 f i OposConstants.obj
 0001:00000af0       ?AllocateHeap@?$CTempBuffer@E$0BAA@VCCRTAllocator@ATL@@@ATL@@AEAAX_K@Z 0000000180001af0 f i OposConstants.obj
 0001:00000af0       ?AllocateHeap@?$CTempBuffer@_W$0BAA@VCCRTAllocator@ATL@@@ATL@@AEAAX_K@Z 0000000180001af0 f i OposConstants.obj
 0001:00000af0       ?AllocateHeap@?$CTempBuffer@_W$0EAA@VCCRTAllocator@ATL@@@ATL@@AEAAX_K@Z 0000000180001af0 f i OposConstants.obj
 0001:00000b20       ?Append@CParseBuffer@CRegParser@ATL@@QEAAHPEB_WH@Z 0000000180001b20 f i OposConstants.obj
 0001:00000c10       ?AtlHresultFromLastError@ATL@@YAJXZ 0000000180001c10 f i OposConstants.obj
 0001:00000c30       ?AtlHresultFromWin32@ATL@@YAJK@Z 0000000180001c30 f i OposConstants.obj
 0001:00000c40       ?AtlLoadTypeLib@ATL@@YAJPEAUHINSTANCE__@@PEB_WPEAPEA_WPEAPEAUITypeLib@@@Z 0000000180001c40 f i OposConstants.obj
 0001:00000e80       ?AtlRegisterClassCategoriesHelper@ATL@@YAJAEBU_GUID@@PEBU_ATL_CATMAP_ENTRY@1@H@Z 0000000180001e80 f i OposConstants.obj
 0001:000012f0       ?AtlRegisterTypeLib@ATL@@YAJPEAUHINSTANCE__@@PEB_W@Z 00000001800022f0 f i OposConstants.obj
 0001:00001500       ?AtlThrowImpl@ATL@@YAXJ@Z  0000000180002500 f i OposConstants.obj
 0001:00001530       ?AtlUnRegisterTypeLib@ATL@@YAJPEAUHINSTANCE__@@PEB_W@Z 0000000180002530 f i OposConstants.obj
 0001:00001600       ?ClearReplacements@CExpansionVector@ATL@@QEAAJXZ 0000000180002600 f i OposConstants.obj
 0001:000016b0       ?DeleteSubKey@CRegKey@ATL@@QEAAJPEB_W@Z 00000001800026b0 f i OposConstants.obj
 0001:000017e0       ?EndOfVar@CRegParser@ATL@@IEAAHXZ 00000001800027e0 f i OposConstants.obj
 0001:00001820       ?FreeHeap@?$CTempBuffer@_W$0EAA@VCCRTAllocator@ATL@@@ATL@@AEAAXXZ 0000000180002820 f i OposConstants.obj
 0001:00001820       ?FreeHeap@?$CTempBuffer@_W$0BAA@VCCRTAllocator@ATL@@@ATL@@AEAAXXZ 0000000180002820 f i OposConstants.obj
 0001:00001820       ?FreeHeap@?$CTempBuffer@E$0BAA@VCCRTAllocator@ATL@@@ATL@@AEAAXXZ 0000000180002820 f i OposConstants.obj
 0001:00001830       ?GetClassObject@CComModule@ATL@@QEAAJAEBU_GUID@@0PEAPEAX@Z 0000000180002830 f i OposConstants.obj
 0001:00001a50       ?HasSubKeys@CRegParser@ATL@@IEAAHPEAUHKEY__@@@Z 0000000180002a50 f i OposConstants.obj
 0001:00001ac0       ?NextToken@CRegParser@ATL@@IEAAJPEA_W@Z 0000000180002ac0 f i OposConstants.obj
 0001:00001ca0       ?Open@CRegKey@ATL@@QEAAJPEAUHKEY__@@PEB_WK@Z 0000000180002ca0 f i OposConstants.obj
 0001:00001da0       ?PreProcessBuffer@CRegParser@ATL@@QEAAJPEA_WPEAPEA_W@Z 0000000180002da0 f i OposConstants.obj
 0001:000021e0       ?RecurseDeleteKey@CRegKey@ATL@@QEAAJPEB_W@Z 00000001800031e0 f i OposConstants.obj
 0001:00002330       ?RegisterBuffer@CRegParser@ATL@@QEAAJPEA_WH@Z 0000000180003330 f i OposConstants.obj
 0001:00002810       ?RegisterFromResource@CRegObject@ATL@@IEAAJPEB_W00H@Z 0000000180003810 f i OposConstants.obj
 0001:000029d0       ?RegisterServer@CComModule@ATL@@QEAAJHPEBU_GUID@@@Z 00000001800039d0 f i OposConstants.obj
 0001:00002c30       ?RegisterSubkeys@CRegParser@ATL@@IEAAJPEA_WPEAUHKEY__@@HH@Z 0000000180003c30 f i OposConstants.obj
 0001:000038e0       ?SkipAssignment@CRegParser@ATL@@IEAAJPEA_W@Z 00000001800048e0 f i OposConstants.obj
 0001:00003990       ?StrChrW@CRegParser@ATL@@KAPEA_WPEA_W_W@Z 0000000180004990 f i OposConstants.obj
 0001:00003a00       ?Term@CAtlModule@ATL@@QEAAXXZ 0000000180004a00 f i OposConstants.obj
 0001:00003ab0       ?Term@CComModule@ATL@@QEAAXXZ 0000000180004ab0 f i OposConstants.obj
 0001:00003bd0       ?UpdateRegistryFromResource@CAtlModule@ATL@@QEAAJIHPEAU_ATL_REGMAP_ENTRY@2@@Z 0000000180004bd0 f i OposConstants.obj
 0001:00003f60       ?UpdateRegistryFromResource@CAtlModule@ATL@@QEAAJPEB_WHPEAU_ATL_REGMAP_ENTRY@2@@Z 0000000180004f60 f i OposConstants.obj
 0001:00004310       ?atlCreate@CRegKey@ATL@@QEAAJPEAUHKEY__@@PEB_WPEA_WKKPEAU_SECURITY_ATTRIBUTES@@PEAK@Z 0000000180005310 f i OposConstants.obj
 0001:00004480       ?memcpy_s@Checked@ATL@@YAXPEAX_KPEBX1@Z 0000000180005480 f i OposConstants.obj
 0001:000044d0       ?wcscpy_s@Checked@ATL@@YAXPEA_W_KPEB_W@Z 00000001800054d0 f i OposConstants.obj
 0001:00004520       DllCanUnloadNow            0000000180005520 f   OposConstants.obj
 0001:00004530       DllGetClassObject          0000000180005530 f   OposConstants.obj
 0001:00004550       DllMain                    0000000180005550 f   OposConstants.obj
 0001:00004610       DllRegisterServer          0000000180005610 f   OposConstants.obj
 0001:00004630       DllUnregisterServer        0000000180005630 f   OposConstants.obj
 0001:000047a8       ??0CAtlBaseModule@ATL@@QEAA@XZ 00000001800057a8 f   atls:atlbase.obj
 0001:00004850       ??1CAtlBaseModule@ATL@@QEAA@XZ 0000000180005850 f   atls:atlbase.obj
 0001:00004884       ??3@YAXPEAX_K@Z            0000000180005884 f   LIBCMT:delete_scalar_size.obj
 0001:00004884       ??_V@YAXPEAX@Z             0000000180005884 f   LIBCMT:delete_array.obj
 0001:0000488c       __scrt_acquire_startup_lock 000000018000588c f   LIBCMT:utility.obj
 0001:000048c8       __scrt_dllmain_after_initialize_c 00000001800058c8 f   LIBCMT:utility.obj
 0001:000048fc       __scrt_dllmain_before_initialize_c 00000001800058fc f   LIBCMT:utility.obj
 0001:00004914       __scrt_dllmain_crt_thread_attach 0000000180005914 f   LIBCMT:utility.obj
 0001:0000493c       __scrt_dllmain_crt_thread_detach 000000018000593c f   LIBCMT:utility.obj
 0001:00004954       __scrt_dllmain_exception_filter 0000000180005954 f   LIBCMT:utility.obj
 0001:000049b4       __scrt_dllmain_uninitialize_c 00000001800059b4 f   LIBCMT:utility.obj
 0001:000049e4       __scrt_dllmain_uninitialize_critical 00000001800059e4 f   LIBCMT:utility.obj
 0001:000049f8       __scrt_initialize_crt      00000001800059f8 f   LIBCMT:utility.obj
 0001:00004a44       __scrt_initialize_onexit_tables 0000000180005a44 f   LIBCMT:utility.obj
 0001:00004b1c       __scrt_is_nonwritable_in_current_image 0000000180005b1c f   LIBCMT:utility.obj
 0001:00004bb8       __scrt_release_startup_lock 0000000180005bb8 f   LIBCMT:utility.obj
 0001:00004bdc       __scrt_uninitialize_crt    0000000180005bdc f   LIBCMT:utility.obj
 0001:00004c08       _onexit                    0000000180005c08 f   LIBCMT:utility.obj
 0001:00004c58       atexit                     0000000180005c58 f   LIBCMT:utility.obj
 0001:00004c70       ??3@YAXPEAX@Z              0000000180005c70 f   LIBCMT:delete_scalar.obj
 0001:00004c78       __raise_securityfailure    0000000180005c78 f   LIBCMT:gs_report.obj
 0001:00004cac       __report_gsfailure         0000000180005cac f   LIBCMT:gs_report.obj
 0001:00004d80       __report_rangecheckfailure 0000000180005d80 f   LIBCMT:gs_report.obj
 0001:00004d94       __report_securityfailure   0000000180005d94 f   LIBCMT:gs_report.obj
 0001:00004f14       ??_U@YAPEAX_KAEBUnothrow_t@std@@@Z 0000000180005f14 f   LIBCMT:new_array_nothrow.obj
 0001:00004f1c       __GSHandlerCheck           0000000180005f1c f   LIBCMT:gshandler.obj
 0001:00004f3c       __GSHandlerCheckCommon     0000000180005f3c f   LIBCMT:gshandler.obj
 0001:00004fb0       _alloca_probe              0000000180005fb0 f   LIBCMT:chkstk.obj
 0001:00004fb0       __chkstk                   0000000180005fb0 f   LIBCMT:chkstk.obj
 0001:00005020       __security_check_cookie    0000000180006020 f   LIBCMT:amdsecgs.obj
 0001:00005374       _DllMainCRTStartup         0000000180006374 f   LIBCMT:dll_dllmain.obj
 0001:000053b4       _guard_check_icall_nop     00000001800063b4 f i LIBCMT:guard_support.obj
 0001:000053b8       __isa_available_init       00000001800063b8 f   LIBCMT:cpu_disp.obj
 0001:00005574       __scrt_is_ucrt_dll_in_use  0000000180006574 f   LIBCMT:ucrt_detection.obj
 0001:00005580       __crt_debugger_hook        0000000180006580 f   LIBCMT:utility_desktop.obj
 0001:00005588       __scrt_fastfail            0000000180006588 f   LIBCMT:utility_desktop.obj
 0001:000056d4       ??2@YAPEAX_KAEBUnothrow_t@std@@@Z 00000001800066d4 f   LIBCMT:new_scalar_nothrow.obj
 0001:000056f4       __security_init_cookie     00000001800066f4 f   LIBCMT:gs_support.obj
 0001:000057a0       ?__scrt_initialize_type_info@@YAXXZ 00000001800067a0 f   LIBCMT:tncleanup.obj
 0001:000057b0       ?__scrt_uninitialize_type_info@@YAXXZ 00000001800067b0 f   LIBCMT:tncleanup.obj
 0001:000057bc       __local_stdio_printf_options 00000001800067bc f i LIBCMT:default_local_stdio_options.obj
 0001:000057c4       __local_stdio_scanf_options 00000001800067c4 f i LIBCMT:default_local_stdio_options.obj
 0001:000057cc       __scrt_initialize_default_local_stdio_options 00000001800067cc f   LIBCMT:default_local_stdio_options.obj
 0001:000057e8       __scrt_get_dyn_tls_init_callback 00000001800067e8 f   LIBCMT:dyn_tls_init.obj
 0001:000057f0       _RTC_Initialize            00000001800067f0 f   LIBCMT:initsect.obj
 0001:0000582c       _RTC_Terminate             000000018000682c f   LIBCMT:initsect.obj
 0001:00005870       ??2@YAPEAX_K@Z             0000000180006870 f   LIBCMT:new_scalar.obj
 0001:000058ac       ??0bad_alloc@std@@QEAA@AEBV01@@Z 00000001800068ac f i LIBCMT:throw_bad_alloc.obj
 0001:000058ec       ??0bad_alloc@std@@QEAA@XZ  00000001800068ec f i LIBCMT:throw_bad_alloc.obj
 0001:0000590c       ??0bad_array_new_length@std@@QEAA@AEBV01@@Z 000000018000690c f i LIBCMT:throw_bad_alloc.obj
 0001:0000594c       ??0bad_array_new_length@std@@QEAA@XZ 000000018000694c f i LIBCMT:throw_bad_alloc.obj
 0001:0000596c       ??0exception@std@@QEAA@AEBV01@@Z 000000018000696c f i LIBCMT:throw_bad_alloc.obj
 0001:000059a4       ??1bad_exception@std@@UEAA@XZ 00000001800069a4 f i libvcruntime:frame.obj
 0001:000059a4       ??1bad_alloc@std@@UEAA@XZ  00000001800069a4 f i LIBCMT:throw_bad_alloc.obj
 0001:000059a4       ??1bad_array_new_length@std@@UEAA@XZ 00000001800069a4 f i LIBCMT:throw_bad_alloc.obj
 0001:000059b8       ??_Ebad_alloc@std@@UEAAPEAXI@Z 00000001800069b8 f i LIBCMT:throw_bad_alloc.obj
 0001:000059b8       ??_Ebad_exception@std@@UEAAPEAXI@Z 00000001800069b8 f i libvcruntime:frame.obj
 0001:000059b8       ??_Gexception@std@@UEAAPEAXI@Z 00000001800069b8 f i LIBCMT:throw_bad_alloc.obj
 0001:000059b8       ??_Ebad_array_new_length@std@@UEAAPEAXI@Z 00000001800069b8 f i LIBCMT:throw_bad_alloc.obj
 0001:000059b8       ??_Gbad_array_new_length@std@@UEAAPEAXI@Z 00000001800069b8 f i LIBCMT:throw_bad_alloc.obj
 0001:000059b8       ??_Gbad_exception@std@@UEAAPEAXI@Z 00000001800069b8 f i libvcruntime:frame.obj
 0001:000059b8       ??_Gbad_alloc@std@@UEAAPEAXI@Z 00000001800069b8 f i LIBCMT:throw_bad_alloc.obj
 0001:000059b8       ??_Eexception@std@@UEAAPEAXI@Z 00000001800069b8 f i LIBCMT:throw_bad_alloc.obj
 0001:000059fc       ?__scrt_throw_std_bad_alloc@@YAXXZ 00000001800069fc f   LIBCMT:throw_bad_alloc.obj
 0001:00005a1c       ?__scrt_throw_std_bad_array_new_length@@YAXXZ 0000000180006a1c f   LIBCMT:throw_bad_alloc.obj
 0001:00005a3c       ?what@exception@std@@UEBAPEBDXZ 0000000180006a3c f i LIBCMT:throw_bad_alloc.obj
 0001:00005a50       ??_Etype_info@@UEAAPEAXI@Z 0000000180006a50 f i LIBCMT:std_type_info_static.obj
 0001:00005a50       ??_Gtype_info@@UEAAPEAXI@Z 0000000180006a50 f i LIBCMT:std_type_info_static.obj
 0001:00005a7c       wcsstr                     0000000180006a7c f   libvcruntime:wcsstr.obj
 0001:00005cb0       memcpy_repmovs             0000000180006cb0 f   libvcruntime:memcpy.obj
 0001:00005cd0       memmove                    0000000180006cd0 f   libvcruntime:memcpy.obj
 0001:00005cd0       memcpy                     0000000180006cd0 f   libvcruntime:memcpy.obj
 0001:00006120       memset_repmovs             0000000180007120 f   libvcruntime:memset.obj
 0001:00006140       memset                     0000000180007140 f   libvcruntime:memset.obj
 0001:000062d0       __vcrt_initialize          00000001800072d0 f   libvcruntime:initialization.obj
 0001:00006304       __vcrt_thread_attach       0000000180007304 f   libvcruntime:initialization.obj
 0001:00006318       __vcrt_thread_detach       0000000180007318 f   libvcruntime:initialization.obj
 0001:0000632c       __vcrt_uninitialize        000000018000732c f   libvcruntime:initialization.obj
 0001:0000634c       __vcrt_uninitialize_critical 000000018000734c f   libvcruntime:initialization.obj
 0001:0000635c       __C_specific_handler       000000018000735c f   libvcruntime:riscchandler.obj
 0001:00006568       ??$_CallSETranslator@V__FrameHandler3@@@@YAHPEAUEHExceptionRecord@@PEA_KPEAU_CONTEXT@@PEAU_xDISPATCHER_CONTEXT@@PEBU_s_FuncInfo@@K1@Z 0000000180007568 f i libvcruntime:risctrnsctrl.obj
 0001:000065bc       ?CatchTryBlock@__FrameHandler3@@SAPEBU_s_TryBlockMapEntry@@PEBU_s_FuncInfo@@H@Z 00000001800075bc f   libvcruntime:risctrnsctrl.obj
 0001:00006614       ?ExecutionInCatch@__FrameHandler3@@SA_NPEAU_xDISPATCHER_CONTEXT@@PEBU_s_FuncInfo@@@Z 0000000180007614 f   libvcruntime:risctrnsctrl.obj
 0001:00006640       ?FrameUnwindToEmptyState@__FrameHandler3@@SAXPEA_KPEAU_xDISPATCHER_CONTEXT@@PEBU_s_FuncInfo@@@Z 0000000180007640 f   libvcruntime:risctrnsctrl.obj
 0001:000066a4       ?GetEstablisherFrame@__FrameHandler3@@SAPEA_KPEA_KPEAU_xDISPATCHER_CONTEXT@@PEBU_s_FuncInfo@@0@Z 00000001800076a4 f   libvcruntime:risctrnsctrl.obj
 0001:00006770       ?GetRangeOfTrysToCheck@__FrameHandler3@@SA?AU?$pair@Viterator@TryBlockMap@__FrameHandler3@@V123@@std@@AEAVTryBlockMap@1@HH@Z 0000000180007770 f   libvcruntime:risctrnsctrl.obj
 0001:000068cc       ?UnwindNestedFrames@__FrameHandler3@@SAXPEA_KPEAUEHExceptionRecord@@PEAU_CONTEXT@@0PEAXPEBU_s_FuncInfo@@HHPEBU_s_HandlerType@@PEAU_xDISPATCHER_CONTEXT@@E@Z 00000001800078cc f   libvcruntime:risctrnsctrl.obj
 0001:000069f0       _CreateFrameInfo           00000001800079f0 f   libvcruntime:risctrnsctrl.obj
 0001:00006a2c       _FindAndUnlinkFrame        0000000180007a2c f   libvcruntime:risctrnsctrl.obj
 0001:00006a80       _GetImageBase              0000000180007a80 f   libvcruntime:risctrnsctrl.obj
 0001:00006a94       _GetThrowImageBase         0000000180007a94 f   libvcruntime:risctrnsctrl.obj
 0001:00006aa8       _SetImageBase              0000000180007aa8 f   libvcruntime:risctrnsctrl.obj
 0001:00006ac0       _SetThrowImageBase         0000000180007ac0 f   libvcruntime:risctrnsctrl.obj
 0001:00006ad8       __CxxFrameHandler3         0000000180007ad8 f   libvcruntime:risctrnsctrl.obj
 0001:00006b58       __std_type_info_compare    0000000180007b58 f   libvcruntime:std_type_info.obj
 0001:00006b80       __std_type_info_destroy_list 0000000180007b80 f   libvcruntime:std_type_info.obj
 0001:00006bac       __std_exception_copy       0000000180007bac f   libvcruntime:std_exception.obj
 0001:00006c3c       __std_exception_destroy    0000000180007c3c f   libvcruntime:std_exception.obj
 0001:00006c64       _CxxThrowException         0000000180007c64 f   libvcruntime:throw.obj
 0001:00006d24       __vcrt_freefls             0000000180007d24 f   libvcruntime:per_thread_data.obj
 0001:00006d44       __vcrt_freeptd             0000000180007d44 f   libvcruntime:per_thread_data.obj
 0001:00006d94       __vcrt_getptd              0000000180007d94 f   libvcruntime:per_thread_data.obj
 0001:00006db0       __vcrt_getptd_noexit       0000000180007db0 f   libvcruntime:per_thread_data.obj
 0001:00006e7c       __vcrt_initialize_ptd      0000000180007e7c f   libvcruntime:per_thread_data.obj
 0001:00006ed0       __vcrt_uninitialize_ptd    0000000180007ed0 f   libvcruntime:per_thread_data.obj
 0001:00006ef4       __vcrt_initialize_locks    0000000180007ef4 f   libvcruntime:locks.obj
 0001:00006f3c       __vcrt_uninitialize_locks  0000000180007f3c f   libvcruntime:locks.obj
 0001:0000714c       __vcrt_FlsAlloc            000000018000814c f   libvcruntime:winapi_downlevel.obj
 0001:00007194       __vcrt_FlsFree             0000000180008194 f   libvcruntime:winapi_downlevel.obj
 0001:000071dc       __vcrt_FlsGetValue         00000001800081dc f   libvcruntime:winapi_downlevel.obj
 0001:00007224       __vcrt_FlsSetValue         0000000180008224 f   libvcruntime:winapi_downlevel.obj
 0001:00007278       __vcrt_InitializeCriticalSectionEx 0000000180008278 f   libvcruntime:winapi_downlevel.obj
 0001:000072dc       __vcrt_initialize_winapi_thunks 00000001800082dc f   libvcruntime:winapi_downlevel.obj
 0001:0000730c       __vcrt_uninitialize_winapi_thunks 000000018000830c f   libvcruntime:winapi_downlevel.obj
 0001:0000734c       __vcrt_initialize_pure_virtual_call_handler 000000018000834c f   libvcruntime:purevirt_data.obj
 0001:00007370       _NLG_Notify                0000000180008370 f   libvcruntime:notify.obj
 0001:00007390       __NLG_Dispatch2            0000000180008390 f   libvcruntime:notify.obj
 0001:000073a0       __NLG_Return2              00000001800083a0 f   libvcruntime:notify.obj
 0001:000073a4       __except_validate_context_record 00000001800083a4 f   libvcruntime:jbcxrval.obj
 0001:000073dc       __DestructExceptionObject  00000001800083dc f   libvcruntime:ehhelpers.obj
 0001:00007450       ?_CallMemberFunction0@@YAXQEAX0@Z 0000000180008450 f i libvcruntime:ehhelpers.obj
 0001:00007454       _IsExceptionObjectToBeDestroyed 0000000180008454 f   libvcruntime:ehhelpers.obj
 0001:00007484       __AdjustPointer            0000000180008484 f   libvcruntime:ehhelpers.obj
 0001:000074a8       __FrameUnwindFilter        00000001800084a8 f   libvcruntime:ehhelpers.obj
 0001:000074f4       ?GetCurrentState@__FrameHandler3@@SAHPEA_KPEAU_xDISPATCHER_CONTEXT@@PEBU_s_FuncInfo@@@Z 00000001800084f4 f   libvcruntime:ehstate.obj
 0001:0000751c       ?GetUnwindTryBlock@__FrameHandler3@@SAHPEA_KPEAU_xDISPATCHER_CONTEXT@@PEBU_s_FuncInfo@@@Z 000000018000851c f   libvcruntime:ehstate.obj
 0001:00007548       ?SetState@__FrameHandler3@@SAXPEA_KPEBU_s_FuncInfo@@H@Z 0000000180008548 f   libvcruntime:ehstate.obj
 0001:00007554       ?SetUnwindTryBlock@__FrameHandler3@@SAXPEA_KPEAU_xDISPATCHER_CONTEXT@@PEBU_s_FuncInfo@@H@Z 0000000180008554 f   libvcruntime:ehstate.obj
 0001:00007590       ?StateFromControlPc@__FrameHandler3@@SAHPEBU_s_FuncInfo@@PEAU_xDISPATCHER_CONTEXT@@@Z 0000000180008590 f   libvcruntime:ehstate.obj
 0001:00007598       ?StateFromIp@__FrameHandler3@@SAHPEBU_s_FuncInfo@@PEAU_xDISPATCHER_CONTEXT@@_K@Z 0000000180008598 f   libvcruntime:ehstate.obj
 0001:00008024       ??$TypeMatchHelper@V__FrameHandler3@@@@YAHPEBU_s_HandlerType@@PEBU_s_CatchableType@@PEBU_s_ThrowInfo@@@Z 0000000180009024 f i libvcruntime:frame.obj
 0001:00008168       ??$__InternalCxxFrameHandler@V__FrameHandler3@@@@YA?AW4_EXCEPTION_DISPOSITION@@PEAUEHExceptionRecord@@PEA_KPEAU_CONTEXT@@PEAU_xDISPATCHER_CONTEXT@@PEBU_s_FuncInfo@@H1E@Z 0000000180009168 f i libvcruntime:frame.obj
 0001:000083b0       ??0bad_exception@std@@QEAA@AEBV01@@Z 00000001800093b0 f i libvcruntime:frame.obj
 0001:000083f0       ??0bad_exception@std@@QEAA@XZ 00000001800093f0 f i libvcruntime:frame.obj
 0001:00008410       ?CxxCallCatchBlock@__FrameHandler3@@SAPEAXPEAU_EXCEPTION_RECORD@@@Z 0000000180009410 f   libvcruntime:frame.obj
 0001:00008684       ?FrameUnwindToState@__FrameHandler3@@SAXPEA_KPEAU_xDISPATCHER_CONTEXT@@PEBU_s_FuncInfo@@H@Z 0000000180009684 f   libvcruntime:frame.obj
 0001:00008818       ?GetHandlerSearchState@__FrameHandler3@@SAHPEA_KPEAU_xDISPATCHER_CONTEXT@@PEBU_s_FuncInfo@@@Z 0000000180009818 f i libvcruntime:frame.obj
 0001:00008a1c       ?_CallMemberFunction1@@YAXQEAX00@Z 0000000180009a1c f i libvcruntime:frame.obj
 0001:00008a28       ?_CallMemberFunction2@@YAXQEAX00H@Z 0000000180009a28 f i libvcruntime:frame.obj
 0001:00008a50       _CallSettingFrame          0000000180009a50 f   libvcruntime:handlers.obj
 0001:00008aa0       _CallSettingFrameEncoded   0000000180009aa0 f   libvcruntime:handlers.obj
 0001:00008ae8       free                       0000000180009ae8 f   libucrt:free.obj
 0001:00008af0       __acrt_call_reportfault    0000000180009af0 f   libucrt:invalid_parameter.obj
 0001:00008c4c       __acrt_initialize_invalid_parameter_handler 0000000180009c4c f   libucrt:invalid_parameter.obj
 0001:00008c54       _invalid_parameter         0000000180009c54 f   libucrt:invalid_parameter.obj
 0001:00008cfc       _invalid_parameter_noinfo  0000000180009cfc f   libucrt:invalid_parameter.obj
 0001:00008d1c       _invoke_watson             0000000180009d1c f   libucrt:invalid_parameter.obj
 0001:00008d64       __acrt_errno_from_os_error 0000000180009d64 f   libucrt:errno.obj
 0001:00008dac       __acrt_errno_map_os_error  0000000180009dac f   libucrt:errno.obj
 0001:00008dfc       __doserrno                 0000000180009dfc f   libucrt:errno.obj
 0001:00008e1c       _errno                     0000000180009e1c f   libucrt:errno.obj
 0001:00008e3c       malloc                     0000000180009e3c f   libucrt:malloc.obj
 0001:00008e44       _recalloc                  0000000180009e44 f   libucrt:recalloc.obj
 0001:00008e4c       _recalloc_base             0000000180009e4c f   libucrt:recalloc.obj
 0001:00008ee4       wcscat_s                   0000000180009ee4 f   libucrt:wcscat_s.obj
 0001:00008f64       wcscpy_s                   0000000180009f64 f   libucrt:wcscpy_s.obj
 0001:00008fcc       wcsncpy_s                  0000000180009fcc f   libucrt:wcsncpy_s.obj
 0001:000090b0       _seh_filter_dll            000000018000a0b0 f   libucrt:exception_filter.obj
 0001:000090c4       _seh_filter_exe            000000018000a0c4 f   libucrt:exception_filter.obj
 0001:00009484       __acrt_initialize_thread_local_exit_callback 000000018000a484 f   libucrt:exit.obj
 0001:0000948c       _cexit                     000000018000a48c f   libucrt:exit.obj
 0001:0000949c       _exit                      000000018000a49c f   libucrt:exit.obj
 0001:000094a8       _is_c_termination_complete 000000018000a4a8 f   libucrt:exit.obj
 0001:0000966c       __acrt_allocate_buffer_for_argv 000000018000a66c f   libucrt:argv_parsing.obj
 0001:000096d0       _configure_narrow_argv     000000018000a6d0 f   libucrt:argv_parsing.obj
 0001:00009a2c       __dcrt_uninitialize_environments_nolock 000000018000aa2c f   libucrt:environment_initialization.obj
 0001:00009a64       _initialize_narrow_environment 000000018000aa64 f   libucrt:environment_initialization.obj
 0001:00009a6c       ??$?RV<lambda_b8c45f8f788dd370798f47cfe8ac3a86>@@AEAV<lambda_4e60a939b0d047cfe11ddc22648dfba9>@@V<lambda_332c3edc96d0294ec56c57d38c1cdfd5>@@@?$__crt_seh_guarded_call@H@@QEAAH$$QEAV<lambda_b8c45f8f788dd370798f47cfe8ac3a86>@@AEAV<lambda_4e60a939b0d047cfe11ddc22648dfba9>@@$$QEAV<lambda_332c3edc96d0294ec56c57d38c1cdfd5>@@@Z 000000018000aa6c f i libucrt:onexit.obj
 0001:00009aa8       ??$?RV<lambda_e24bbb7b643b32fcea6fa61b31d4c984>@@AEAV<lambda_275893d493268fdec8709772e3fcec0e>@@V<lambda_9d71df4d7cf3f480f8d633942495c3b0>@@@?$__crt_seh_guarded_call@H@@QEAAH$$QEAV<lambda_e24bbb7b643b32fcea6fa61b31d4c984>@@AEAV<lambda_275893d493268fdec8709772e3fcec0e>@@$$QEAV<lambda_9d71df4d7cf3f480f8d633942495c3b0>@@@Z 000000018000aaa8 f i libucrt:onexit.obj
 0001:00009e24       _crt_atexit                000000018000ae24 f   libucrt:onexit.obj
 0001:00009e34       _execute_onexit_table      000000018000ae34 f   libucrt:onexit.obj
 0001:00009e70       _initialize_onexit_table   000000018000ae70 f   libucrt:onexit.obj
 0001:00009eb0       _register_onexit_function  000000018000aeb0 f   libucrt:onexit.obj
 0001:00009f30       __acrt_uninitialize_command_line 000000018000af30 f   libucrt:argv_data.obj
 0001:0000a030       __acrt_initialize          000000018000b030 f   libucrt:initialization.obj
 0001:0000a044       __acrt_thread_attach       000000018000b044 f   libucrt:initialization.obj
 0001:0000a058       __acrt_thread_detach       000000018000b058 f   libucrt:initialization.obj
 0001:0000a068       __acrt_uninitialize        000000018000b068 f   libucrt:initialization.obj
 0001:0000a07c       __acrt_uninitialize_critical 000000018000b07c f   libucrt:initialization.obj
 0001:0000a08c       _initterm                  000000018000b08c f   libucrt:initterm.obj
 0001:0000a104       _initterm_e                000000018000b104 f   libucrt:initterm.obj
 0001:0000a150       terminate                  000000018000b150 f   libucrt:terminate.obj
 0001:0000a178       __acrt_initialize_new_handler 000000018000b178 f   libucrt:new_handler.obj
 0001:0000a180       _callnewh                  000000018000b180 f   libucrt:new_handler.obj
 0001:0000a1c0       _query_new_handler         000000018000b1c0 f   libucrt:new_handler.obj
 0001:0000a1f4       strcpy_s                   000000018000b1f4 f   libucrt:strcpy_s.obj
 0001:0000a254       abort                      000000018000b254 f   libucrt:abort.obj
 0001:0000a2ac       calloc                     000000018000b2ac f   libucrt:calloc.obj
 0001:0000a2b4       wcsncmp                    000000018000b2b4 f   libucrt:wcsncmp.obj
 0001:0000a2e0       ??0_LocaleUpdate@@QEAA@QEAU__crt_locale_pointers@@@Z 000000018000b2e0 f i libucrt:output.obj
 0001:0000a380       strncmp                    000000018000b380 f   libucrt:strncmp.obj
 0001:0000a400       _free_base                 000000018000b400 f   libucrt:free_base.obj
 0001:0000a440       ??$?RV<lambda_46352004c1216016012b18bd6f87e700>@@AEAV<lambda_3bd07e1a1191394380780325891bf33f>@@V<lambda_334532d3f185bcaa59b5be82d7d22bff>@@@?$__crt_seh_guarded_call@X@@QEAAX$$QEAV<lambda_46352004c1216016012b18bd6f87e700>@@AEAV<lambda_3bd07e1a1191394380780325891bf33f>@@$$QEAV<lambda_334532d3f185bcaa59b5be82d7d22bff>@@@Z 000000018000b440 f i libucrt:per_thread_data.obj
 0001:0000a4a0       ??$?RV<lambda_5e887d1dcbef67a5eb4283622ba103bf>@@AEAV<lambda_4466841279450cc726390878d4a41900>@@V<lambda_341c25c0346d94847f1f3c463c57e077>@@@?$__crt_seh_guarded_call@X@@QEAAX$$QEAV<lambda_5e887d1dcbef67a5eb4283622ba103bf>@@AEAV<lambda_4466841279450cc726390878d4a41900>@@$$QEAV<lambda_341c25c0346d94847f1f3c463c57e077>@@@Z 000000018000b4a0 f i libucrt:per_thread_data.obj
 0001:0000a4e8       ??$?RV<lambda_72d1df2b273a38828b1ce30cbf4cdab5>@@AEAV<lambda_876a65b173b8412d3a47c70a915b0cf4>@@V<lambda_41932305e351933ebe8f8be3ed8bb5dc>@@@?$__crt_seh_guarded_call@X@@QEAAX$$QEAV<lambda_72d1df2b273a38828b1ce30cbf4cdab5>@@AEAV<lambda_876a65b173b8412d3a47c70a915b0cf4>@@$$QEAV<lambda_41932305e351933ebe8f8be3ed8bb5dc>@@@Z 000000018000b4e8 f i libucrt:per_thread_data.obj
 0001:0000a528       ??$?RV<lambda_fb3a7dec4e47f37f22dae91bb15c9095>@@AEAV<lambda_698284760c8add0bfb0756c19673e34b>@@V<lambda_dfb8eca1e75fef3034a8fb18dd509707>@@@?$__crt_seh_guarded_call@X@@QEAAX$$QEAV<lambda_fb3a7dec4e47f37f22dae91bb15c9095>@@AEAV<lambda_698284760c8add0bfb0756c19673e34b>@@$$QEAV<lambda_dfb8eca1e75fef3034a8fb18dd509707>@@@Z 000000018000b528 f i libucrt:per_thread_data.obj
 0001:0000a7b8       __acrt_freeptd             000000018000b7b8 f   libucrt:per_thread_data.obj
 0001:0000a7fc       __acrt_getptd              000000018000b7fc f   libucrt:per_thread_data.obj
 0001:0000a890       __acrt_getptd_noexit       000000018000b890 f   libucrt:per_thread_data.obj
 0001:0000a930       __acrt_initialize_ptd      000000018000b930 f   libucrt:per_thread_data.obj
 0001:0000a96c       __acrt_uninitialize_ptd    000000018000b96c f   libucrt:per_thread_data.obj
 0001:0000a990       _malloc_base               000000018000b990 f   libucrt:malloc_base.obj
 0001:0000a9f0       _msize                     000000018000b9f0 f   libucrt:msize.obj
 0001:0000aa2c       _realloc_base              000000018000ba2c f   libucrt:realloc_base.obj
 0001:0000aab0       __acrt_initialize_locks    000000018000bab0 f   libucrt:locks.obj
 0001:0000aaf8       __acrt_lock                000000018000baf8 f   libucrt:locks.obj
 0001:0000ab14       __acrt_uninitialize_locks  000000018000bb14 f   libucrt:locks.obj
 0001:0000ab4c       __acrt_unlock              000000018000bb4c f   libucrt:locks.obj
 0001:0000ad08       __acrt_FlsAlloc            000000018000bd08 f   libucrt:winapi_thunks.obj
 0001:0000ad60       __acrt_FlsFree             000000018000bd60 f   libucrt:winapi_thunks.obj
 0001:0000adb8       __acrt_FlsGetValue         000000018000bdb8 f   libucrt:winapi_thunks.obj
 0001:0000ae10       __acrt_FlsSetValue         000000018000be10 f   libucrt:winapi_thunks.obj
 0001:0000ae78       __acrt_InitializeCriticalSectionEx 000000018000be78 f   libucrt:winapi_thunks.obj
 0001:0000aef0       __acrt_LCMapStringEx       000000018000bef0 f   libucrt:winapi_thunks.obj
 0001:0000afe0       __acrt_LocaleNameToLCID    000000018000bfe0 f   libucrt:winapi_thunks.obj
 0001:0000b048       __acrt_initialize_winapi_thunks 000000018000c048 f   libucrt:winapi_thunks.obj
 0001:0000b080       __acrt_is_packaged_app     000000018000c080 f   libucrt:winapi_thunks.obj
 0001:0000b108       __acrt_uninitialize_winapi_thunks 000000018000c108 f   libucrt:winapi_thunks.obj
 0001:0000b14c       _calloc_base               000000018000c14c f   libucrt:calloc_base.obj
 0001:0000b6a0       ?expand_if_necessary@?$argument_list@D@?A0xca0879c4@@AEAAHXZ 000000018000c6a0 f i libucrt:argv_wildcards.obj
 0001:0000b768       __acrt_expand_narrow_argv_wildcards 000000018000c768 f   libucrt:argv_wildcards.obj
 0001:0000b770       ??$?RV<lambda_99476a1ad63dd22509b5d3e65b0ffc95>@@AEAV<lambda_ad1ced32f4ac17aa236e5ef05d6b3b7c>@@V<lambda_f7424dd8d45958661754dc4f2697e9c3>@@@?$__crt_seh_guarded_call@X@@QEAAX$$QEAV<lambda_99476a1ad63dd22509b5d3e65b0ffc95>@@AEAV<lambda_ad1ced32f4ac17aa236e5ef05d6b3b7c>@@$$QEAV<lambda_f7424dd8d45958661754dc4f2697e9c3>@@@Z 000000018000c770 f i libucrt:mbctype.obj
 0001:0000be6c       __acrt_initialize_multibyte 000000018000ce6c f   libucrt:mbctype.obj
 0001:0000be94       __acrt_update_thread_multibyte_data 000000018000ce94 f   libucrt:mbctype.obj
 0001:0000bf54       _setmbcp_nolock            000000018000cf54 f   libucrt:mbctype.obj
 0001:0000c274       _ismbblead                 000000018000d274 f   libucrt:ismbbyte.obj
 0001:0000c288       __acrt_initialize_command_line 000000018000d288 f   libucrt:argv_data.obj
 0001:0000c2b0       __dcrt_get_narrow_environment_from_os 000000018000d2b0 f   libucrt:get_environment_from_os.obj
 0001:0000c3b4       __acrt_initialize_heap     000000018000d3b4 f   libucrt:heap_handle.obj
 0001:0000c3d0       __acrt_uninitialize_heap   000000018000d3d0 f   libucrt:heap_handle.obj
 0001:0000c5c4       __acrt_initialize_lowio    000000018000d5c4 f   libucrt:ioinit.obj
 0001:0000c600       __acrt_uninitialize_lowio  000000018000d600 f   libucrt:ioinit.obj
 0001:0000c640       __acrt_execute_initializers 000000018000d640 f   libucrt:shared_initialization.obj
 0001:0000c6d4       __acrt_execute_uninitializers 000000018000d6d4 f   libucrt:shared_initialization.obj
 0001:0000c724       ??$?RV<lambda_c36588078e9f5dfd39652860aa6b3aaf>@@AEAV<lambda_ec61778202f4f5fc7e7711acc23c3bca>@@V<lambda_dc9d2797ccde5d239b4a0efae8ebd7db>@@@?$__crt_seh_guarded_call@P6AXH@Z@@QEAAP6AXH@Z$$QEAV<lambda_c36588078e9f5dfd39652860aa6b3aaf>@@AEAV<lambda_ec61778202f4f5fc7e7711acc23c3bca>@@$$QEAV<lambda_dc9d2797ccde5d239b4a0efae8ebd7db>@@@Z 000000018000d724 f i libucrt:signal.obj
 0001:0000c76c       __acrt_get_sigabrt_handler 000000018000d76c f   libucrt:signal.obj
 0001:0000c79c       __acrt_initialize_signal_handlers 000000018000d79c f   libucrt:signal.obj
 0001:0000c7bc       raise                      000000018000d7bc f   libucrt:signal.obj
 0001:0000ca58       __acrt_has_user_matherr    000000018000da58 f   libucrt:matherr.obj
 0001:0000ca78       __acrt_initialize_user_matherr 000000018000da78 f   libucrt:matherr.obj
 0001:0000ca80       __acrt_invoke_user_matherr 000000018000da80 f   libucrt:matherr.obj
 0001:0000cac8       _mbtowc_l                  000000018000dac8 f   libucrt:mbtowc.obj
 0001:0000cc10       mbtowc                     000000018000dc10 f   libucrt:mbtowc.obj
 0001:0000cc18       __acrt_update_locale_info  000000018000dc18 f   libucrt:locale_update.obj
 0001:0000cc4c       __acrt_update_multibyte_info 000000018000dc4c f   libucrt:locale_update.obj
 0001:0000cc80       _fileno                    000000018000dc80 f   libucrt:fileno.obj
 0001:0000cca8       __acrt_initialize_stdio    000000018000dca8 f   libucrt:_file.obj
 0001:0000cdc8       __acrt_uninitialize_stdio  000000018000ddc8 f   libucrt:_file.obj
 0001:0000ce24       _lock_file                 000000018000de24 f   libucrt:_file.obj
 0001:0000ce30       _unlock_file               000000018000de30 f   libucrt:_file.obj
 0001:0000ce3c       __acrt_set_locale_changed  000000018000de3c f   libucrt:wsetlocale.obj
 0001:0000ce48       __acrt_uninitialize_locale 000000018000de48 f   libucrt:wsetlocale.obj
 0001:0000ce90       __pctype_func              000000018000de90 f   libucrt:ctype.obj
 0001:0000cec0       __acrt_add_locale_ref      000000018000dec0 f   libucrt:locale_refcounting.obj
 0001:0000cf4c       __acrt_free_locale         000000018000df4c f   libucrt:locale_refcounting.obj
 0001:0000d0c4       __acrt_locale_add_lc_time_reference 000000018000e0c4 f   libucrt:locale_refcounting.obj
 0001:0000d0ec       __acrt_locale_free_lc_time_if_unreferenced 000000018000e0ec f   libucrt:locale_refcounting.obj
 0001:0000d124       __acrt_locale_release_lc_time_reference 000000018000e124 f   libucrt:locale_refcounting.obj
 0001:0000d14c       __acrt_release_locale_ref  000000018000e14c f   libucrt:locale_refcounting.obj
 0001:0000d1f4       __acrt_update_thread_locale_data 000000018000e1f4 f   libucrt:locale_refcounting.obj
 0001:0000d264       _updatetlocinfoEx_nolock   000000018000e264 f   libucrt:locale_refcounting.obj
 0001:0000d2cc       _query_new_mode            000000018000e2cc f   libucrt:new_mode.obj
 0001:0000d39c       __acrt_DownlevelLocaleNameToLCID 000000018000e39c f   libucrt:lcidtoname_downlevel.obj
 0001:0000d4a0       qsort                      000000018000e4a0 f   libucrt:qsort.obj
 0001:0000d7d4       strncpy_s                  000000018000e7d4 f   libucrt:strncpy_s.obj
 0001:0000d8a8       strpbrk                    000000018000e8a8 f   libucrt:strpbrk.obj
 0001:0000d948       _mbsdec                    000000018000e948 f   libucrt:mbsdec.obj
 0001:0000d950       _mbsdec_l                  000000018000e950 f   libucrt:mbsdec.obj
 0001:0000d9e8       __acrt_GetStringTypeA      000000018000e9e8 f   libucrt:getstringtypea.obj
 0001:0000def8       __acrt_LCMapStringA        000000018000eef8 f   libucrt:lcmapstringa.obj
 0001:0000dfa8       __acrt_lowio_create_handle_array 000000018000efa8 f   libucrt:osfinfo.obj
 0001:0000e040       __acrt_lowio_destroy_handle_array 000000018000f040 f   libucrt:osfinfo.obj
 0001:0000e090       __acrt_lowio_ensure_fh_exists 000000018000f090 f   libucrt:osfinfo.obj
 0001:0000e148       __acrt_lowio_lock_fh       000000018000f148 f   libucrt:osfinfo.obj
 0001:0000e16c       __acrt_lowio_unlock_fh     000000018000f16c f   libucrt:osfinfo.obj
 0001:0000e190       _free_osfhnd               000000018000f190 f   libucrt:osfinfo.obj
 0001:0000e24c       _get_osfhandle             000000018000f24c f   libucrt:osfinfo.obj
 0001:0000e2c4       _isatty                    000000018000f2c4 f   libucrt:isatty.obj
 0001:0000e324       __acrt_stdio_flush_nolock  000000018000f324 f   libucrt:fflush.obj
 0001:0000e39c       _fflush_nolock             000000018000f39c f   libucrt:fflush.obj
 0001:0000e3e8       _flushall                  000000018000f3e8 f   libucrt:fflush.obj
 0001:0000e4d8       _isleadbyte_l              000000018000f4d8 f i libucrt:_wctype.obj
 0001:0000e518       _fcloseall                 000000018000f518 f   libucrt:closeall.obj
 0001:0000e5cc       __acrt_stdio_free_buffer_nolock 000000018000f5cc f   libucrt:_freebuf.obj
 0001:0000e60c       __acrt_locale_free_monetary 000000018000f60c f   libucrt:initmon.obj
 0001:0000e718       __acrt_locale_free_numeric 000000018000f718 f   libucrt:initnum.obj
 0001:0000e7dc       __acrt_locale_free_time    000000018000f7dc f   libucrt:inittime.obj
 0001:0000e8e4       __strncnt                  000000018000f8e4 f   libucrt:strncnt.obj
 0001:0000e8fc       _query_app_type            000000018000f8fc f   libucrt:report_runtime_error.obj
 0001:0000e904       ??$?RV<lambda_b521505b218e5242e90febf6bfebc422>@@AEAV<lambda_6978c1fb23f02e42e1d9e99668cc68aa>@@V<lambda_314360699dd331753a4119843814e9a7>@@@?$__crt_seh_guarded_call@H@@QEAAH$$QEAV<lambda_b521505b218e5242e90febf6bfebc422>@@AEAV<lambda_6978c1fb23f02e42e1d9e99668cc68aa>@@$$QEAV<lambda_314360699dd331753a4119843814e9a7>@@@Z 000000018000f904 f i libucrt:commit.obj
 0001:0000e990       _commit                    000000018000f990 f   libucrt:commit.obj
 0001:0000efc4       _write                     000000018000ffc4 f   libucrt:write.obj
 0001:0000f0b0       _write_nolock              00000001800100b0 f   libucrt:write.obj
 0001:0000f3a0       log10                      00000001800103a0 f   libucrt:log10.obj
 0001:0000f9e8       _lseeki64_nolock           00000001800109e8 f   libucrt:lseek.obj
 0001:0000f9f0       _fclose_nolock             00000001800109f0 f   libucrt:fclose.obj
 0001:0000fa74       fclose                     0000000180010a74 f   libucrt:fclose.obj
 0001:0000fae0       _putwch_nolock             0000000180010ae0 f   libucrt:putwch.obj
 0001:0000fc60       _handle_error              0000000180010c60 f   libucrt:libm_error.obj
 0001:0000fd90       __acrt_initialize_fma3     0000000180010d90 f   libucrt:fma3_available.obj
 0001:0000fe00       _log10_special             0000000180010e00 f   libucrt:log_special.obj
 0001:0000feb8       ??$?RV<lambda_bfedae4ebbf01fab1bb6dcc6a9e276e0>@@AEAV<lambda_2fe9b910cf3cbf4a0ab98a02ba45b3ec>@@V<lambda_237c231691f317818eb88cc1d5d642d6>@@@?$__crt_seh_guarded_call@H@@QEAAH$$QEAV<lambda_bfedae4ebbf01fab1bb6dcc6a9e276e0>@@AEAV<lambda_2fe9b910cf3cbf4a0ab98a02ba45b3ec>@@$$QEAV<lambda_237c231691f317818eb88cc1d5d642d6>@@@Z 0000000180010eb8 f i libucrt:close.obj
 0001:0000ff2c       _close                     0000000180010f2c f   libucrt:close.obj
 0001:0000ffd0       _close_nolock              0000000180010fd0 f   libucrt:close.obj
 0001:0001008c       ?__acrt_stdio_free_stream@@YAXV__crt_stdio_stream@@@Z 000000018001108c f   libucrt:stream.obj
 0001:000100d0       __dcrt_lowio_initialize_console_output 00000001800110d0 f   libucrt:initcon.obj
 0001:0001010c       __dcrt_terminate_console_output 000000018001110c f   libucrt:initcon.obj
 0001:00010140       _get_fpsr                  0000000180011140 f   libucrt:fpsr.obj
 0001:00010150       _set_fpsr                  0000000180011150 f   libucrt:fpsr.obj
 0001:0001015a       _fclrf                     000000018001115a f   libucrt:fpsr.obj
 0001:0001016e       _frnd                      000000018001116e f   libucrt:fpsr.obj
 0001:00010190       _raise_exc                 0000000180011190 f   libucrt:fpexcept.obj
 0001:000101b8       _raise_exc_ex              00000001800111b8 f   libucrt:fpexcept.obj
 0001:000104c0       _set_errno_from_matherr    00000001800114c0 f   libucrt:fpexcept.obj
 0001:000104f0       _clrfp                     00000001800114f0 f   libucrt:fpctrl.obj
 0001:00010510       _ctrlfp                    0000000180011510 f   libucrt:fpctrl.obj
 0001:0001058c       _set_statfp                000000018001158c f   libucrt:fpctrl.obj
 0001:000105ac       _statfp                    00000001800115ac f   libucrt:fpctrl.obj
 0001:000105bd       IsProcessorFeaturePresent  00000001800115bd f   kernel32:KERNEL32.dll
 0001:000105d0       _FindPESection             00000001800115d0 f   LIBCMT:pesect.obj
 0001:00010620       _IsNonwritableInCurrentImage 0000000180011620 f   LIBCMT:pesect.obj
 0001:00010670       _ValidateImageBase         0000000180011670 f   LIBCMT:pesect.obj
 0001:000106b0       memcmp                     00000001800116b0 f   libvcruntime:memcmp.obj
 0001:00010790       _guard_dispatch_icall_nop  0000000180011790 f   LIBCMT:guard_dispatch.obj
 0002:00000000       __imp_RegQueryInfoKeyW     0000000180012000     advapi32:ADVAPI32.dll
 0002:00000008       __imp_RegOpenKeyExW        0000000180012008     advapi32:ADVAPI32.dll
 0002:00000010       __imp_RegEnumKeyExW        0000000180012010     advapi32:ADVAPI32.dll
 0002:00000018       __imp_RegDeleteValueW      0000000180012018     advapi32:ADVAPI32.dll
 0002:00000020       __imp_RegDeleteKeyW        0000000180012020     advapi32:ADVAPI32.dll
 0002:00000028       __imp_RegCreateKeyExW      0000000180012028     advapi32:ADVAPI32.dll
 0002:00000030       __imp_RegCloseKey          0000000180012030     advapi32:ADVAPI32.dll
 0002:00000038       __imp_RegSetValueExW       0000000180012038     advapi32:ADVAPI32.dll
 0002:00000040       \177ADVAPI32_NULL_THUNK_DATA 0000000180012040     advapi32:ADVAPI32.dll
 0002:00000048       __imp_FreeLibrary          0000000180012048     kernel32:KERNEL32.dll
 0002:00000050       __imp_GetModuleFileNameW   0000000180012050     kernel32:KERNEL32.dll
 0002:00000058       __imp_GetModuleHandleW     0000000180012058     kernel32:KERNEL32.dll
 0002:00000060       __imp_GetProcAddress       0000000180012060     kernel32:KERNEL32.dll
 0002:00000068       __imp_LoadLibraryExW       0000000180012068     kernel32:KERNEL32.dll
 0002:00000070       __imp_LoadResource         0000000180012070     kernel32:KERNEL32.dll
 0002:00000078       __imp_DisableThreadLibraryCalls 0000000180012078     kernel32:KERNEL32.dll
 0002:00000080       __imp_lstrcmpiW            0000000180012080     kernel32:KERNEL32.dll
 0002:00000088       __imp_FindResourceW        0000000180012088     kernel32:KERNEL32.dll
 0002:00000090       __imp_MultiByteToWideChar  0000000180012090     kernel32:KERNEL32.dll
 0002:00000098       __imp_CreateFileW          0000000180012098     kernel32:KERNEL32.dll
 0002:000000a0       __imp_WriteConsoleW        00000001800120a0     kernel32:KERNEL32.dll
 0002:000000a8       __imp_LeaveCriticalSection 00000001800120a8     kernel32:KERNEL32.dll
 0002:000000b0       __imp_EnterCriticalSection 00000001800120b0     kernel32:KERNEL32.dll
 0002:000000b8       __imp_EncodePointer        00000001800120b8     kernel32:KERNEL32.dll
 0002:000000c0       __imp_DeleteCriticalSection 00000001800120c0     kernel32:KERNEL32.dll
 0002:000000c8       __imp_InitializeCriticalSectionEx 00000001800120c8     kernel32:KERNEL32.dll
 0002:000000d0       __imp_GetLastError         00000001800120d0     kernel32:KERNEL32.dll
 0002:000000d8       __imp_RaiseException       00000001800120d8     kernel32:KERNEL32.dll
 0002:000000e0       __imp_SizeofResource       00000001800120e0     kernel32:KERNEL32.dll
 0002:000000e8       __imp_DecodePointer        00000001800120e8     kernel32:KERNEL32.dll
 0002:000000f0       __imp_CloseHandle          00000001800120f0     kernel32:KERNEL32.dll
 0002:000000f8       __imp_SetFilePointerEx     00000001800120f8     kernel32:KERNEL32.dll
 0002:00000100       __imp_GetConsoleMode       0000000180012100     kernel32:KERNEL32.dll
 0002:00000108       __imp_GetConsoleCP         0000000180012108     kernel32:KERNEL32.dll
 0002:00000110       __imp_FlushFileBuffers     0000000180012110     kernel32:KERNEL32.dll
 0002:00000118       __imp_WriteFile            0000000180012118     kernel32:KERNEL32.dll
 0002:00000120       __imp_SetStdHandle         0000000180012120     kernel32:KERNEL32.dll
 0002:00000128       __imp_GetStringTypeW       0000000180012128     kernel32:KERNEL32.dll
 0002:00000130       __imp_GetFileType          0000000180012130     kernel32:KERNEL32.dll
 0002:00000138       __imp_GetStdHandle         0000000180012138     kernel32:KERNEL32.dll
 0002:00000140       __imp_GetProcessHeap       0000000180012140     kernel32:KERNEL32.dll
 0002:00000148       __imp_IsDebuggerPresent    0000000180012148     kernel32:KERNEL32.dll
 0002:00000150       __imp_OutputDebugStringW   0000000180012150     kernel32:KERNEL32.dll
 0002:00000158       __imp_RtlCaptureContext    0000000180012158     kernel32:KERNEL32.dll
 0002:00000160       __imp_RtlLookupFunctionEntry 0000000180012160     kernel32:KERNEL32.dll
 0002:00000168       __imp_RtlVirtualUnwind     0000000180012168     kernel32:KERNEL32.dll
 0002:00000170       __imp_UnhandledExceptionFilter 0000000180012170     kernel32:KERNEL32.dll
 0002:00000178       __imp_SetUnhandledExceptionFilter 0000000180012178     kernel32:KERNEL32.dll
 0002:00000180       __imp_GetCurrentProcess    0000000180012180     kernel32:KERNEL32.dll
 0002:00000188       __imp_TerminateProcess     0000000180012188     kernel32:KERNEL32.dll
 0002:00000190       __imp_IsProcessorFeaturePresent 0000000180012190     kernel32:KERNEL32.dll
 0002:00000198       __imp_GetStartupInfoW      0000000180012198     kernel32:KERNEL32.dll
 0002:000001a0       __imp_QueryPerformanceCounter 00000001800121a0     kernel32:KERNEL32.dll
 0002:000001a8       __imp_GetCurrentProcessId  00000001800121a8     kernel32:KERNEL32.dll
 0002:000001b0       __imp_GetCurrentThreadId   00000001800121b0     kernel32:KERNEL32.dll
 0002:000001b8       __imp_GetSystemTimeAsFileTime 00000001800121b8     kernel32:KERNEL32.dll
 0002:000001c0       __imp_InitializeSListHead  00000001800121c0     kernel32:KERNEL32.dll
 0002:000001c8       __imp_RtlUnwindEx          00000001800121c8     kernel32:KERNEL32.dll
 0002:000001d0       __imp_InterlockedFlushSList 00000001800121d0     kernel32:KERNEL32.dll
 0002:000001d8       __imp_RtlPcToFileHeader    00000001800121d8     kernel32:KERNEL32.dll
 0002:000001e0       __imp_SetLastError         00000001800121e0     kernel32:KERNEL32.dll
 0002:000001e8       __imp_InitializeCriticalSectionAndSpinCount 00000001800121e8     kernel32:KERNEL32.dll
 0002:000001f0       __imp_TlsAlloc             00000001800121f0     kernel32:KERNEL32.dll
 0002:000001f8       __imp_TlsGetValue          00000001800121f8     kernel32:KERNEL32.dll
 0002:00000200       __imp_TlsSetValue          0000000180012200     kernel32:KERNEL32.dll
 0002:00000208       __imp_TlsFree              0000000180012208     kernel32:KERNEL32.dll
 0002:00000210       __imp_ExitProcess          0000000180012210     kernel32:KERNEL32.dll
 0002:00000218       __imp_GetModuleHandleExW   0000000180012218     kernel32:KERNEL32.dll
 0002:00000220       __imp_GetModuleFileNameA   0000000180012220     kernel32:KERNEL32.dll
 0002:00000228       __imp_WideCharToMultiByte  0000000180012228     kernel32:KERNEL32.dll
 0002:00000230       __imp_HeapFree             0000000180012230     kernel32:KERNEL32.dll
 0002:00000238       __imp_HeapAlloc            0000000180012238     kernel32:KERNEL32.dll
 0002:00000240       __imp_HeapSize             0000000180012240     kernel32:KERNEL32.dll
 0002:00000248       __imp_HeapReAlloc          0000000180012248     kernel32:KERNEL32.dll
 0002:00000250       __imp_LCMapStringW         0000000180012250     kernel32:KERNEL32.dll
 0002:00000258       __imp_FindClose            0000000180012258     kernel32:KERNEL32.dll
 0002:00000260       __imp_FindFirstFileExA     0000000180012260     kernel32:KERNEL32.dll
 0002:00000268       __imp_FindNextFileA        0000000180012268     kernel32:KERNEL32.dll
 0002:00000270       __imp_IsValidCodePage      0000000180012270     kernel32:KERNEL32.dll
 0002:00000278       __imp_GetACP               0000000180012278     kernel32:KERNEL32.dll
 0002:00000280       __imp_GetOEMCP             0000000180012280     kernel32:KERNEL32.dll
 0002:00000288       __imp_GetCPInfo            0000000180012288     kernel32:KERNEL32.dll
 0002:00000290       __imp_GetCommandLineA      0000000180012290     kernel32:KERNEL32.dll
 0002:00000298       __imp_GetCommandLineW      0000000180012298     kernel32:KERNEL32.dll
 0002:000002a0       __imp_GetEnvironmentStringsW 00000001800122a0     kernel32:KERNEL32.dll
 0002:000002a8       __imp_FreeEnvironmentStringsW 00000001800122a8     kernel32:KERNEL32.dll
 0002:000002b0       \177KERNEL32_NULL_THUNK_DATA 00000001800122b0     kernel32:KERNEL32.dll
 0002:000002b8       __imp_LoadTypeLib          00000001800122b8     oleaut32:OLEAUT32.dll
 0002:000002c0       __imp_UnRegisterTypeLib    00000001800122c0     oleaut32:OLEAUT32.dll
 0002:000002c8       __imp_SysStringLen         00000001800122c8     oleaut32:OLEAUT32.dll
 0002:000002d0       __imp_SysAllocString       00000001800122d0     oleaut32:OLEAUT32.dll
 0002:000002d8       __imp_SysFreeString        00000001800122d8     oleaut32:OLEAUT32.dll
 0002:000002e0       __imp_VarUI4FromStr        00000001800122e0     oleaut32:OLEAUT32.dll
 0002:000002e8       __imp_RegisterTypeLib      00000001800122e8     oleaut32:OLEAUT32.dll
 0002:000002f0       \177OLEAUT32_NULL_THUNK_DATA 00000001800122f0     oleaut32:OLEAUT32.dll
 0002:000002f8       __imp_CharNextW            00000001800122f8     user32:USER32.dll
 0002:00000300       \177USER32_NULL_THUNK_DATA 0000000180012300     user32:USER32.dll
 0002:00000308       __imp_CoTaskMemRealloc     0000000180012308     ole32:ole32.dll
 0002:00000310       __imp_CoCreateInstance     0000000180012310     ole32:ole32.dll
 0002:00000318       __imp_StringFromGUID2      0000000180012318     ole32:ole32.dll
 0002:00000320       __imp_CoTaskMemAlloc       0000000180012320     ole32:ole32.dll
 0002:00000328       __imp_CoTaskMemFree        0000000180012328     ole32:ole32.dll
 0002:00000330       \177ole32_NULL_THUNK_DATA  0000000180012330     ole32:ole32.dll
 0002:00000338       __guard_check_icall_fptr   0000000180012338     LIBCMT:guard_support.obj
 0002:00000340       __guard_dispatch_icall_fptr 0000000180012340     LIBCMT:guard_support.obj
 0002:00000348       __xc_a                     0000000180012348     LIBCMT:initializers.obj
 0002:00000368       __xc_z                     0000000180012368     LIBCMT:initializers.obj
 0002:00000370       __xi_a                     0000000180012370     LIBCMT:initializers.obj
 0002:00000378       __acrt_multibyte_initializer 0000000180012378     libucrt:multibyte_initializer.obj
 0002:00000380       __acrt_stdio_initializer   0000000180012380     libucrt:stdio_initializer.obj
 0002:00000388       __acrt_tran_fma3_initializer 0000000180012388     libucrt:fma3_initializer.obj
 0002:00000390       __xi_z                     0000000180012390     LIBCMT:initializers.obj
 0002:00000398       __xp_a                     0000000180012398     LIBCMT:initializers.obj
 0002:000003a0       __acrt_locale_terminator   00000001800123a0     libucrt:locale_initializer.obj
 0002:000003a8       __dcrt_console_output_terminator 00000001800123a8     libucrt:console_output_initializer.obj
 0002:000003b0       __acrt_stdio_terminator    00000001800123b0     libucrt:stdio_initializer.obj
 0002:000003b8       __xp_z                     00000001800123b8     LIBCMT:initializers.obj
 0002:000003c0       __xt_a                     00000001800123c0     LIBCMT:initializers.obj
 0002:000003c8       __xt_z                     00000001800123c8     LIBCMT:initializers.obj
 0002:000003d0       ??_C@_13HADIAKP@?$AAS@     00000001800123d0     StdAfx.obj
 0002:000003d4       ??_C@_13LHMFKAAD@?$AAM@    00000001800123d4     StdAfx.obj
 0002:000003d8       ??_C@_13MKMNOPIJ@?$AAD@    00000001800123d8     StdAfx.obj
 0002:000003dc       ??_C@_13OPKGLAFF@?$AAB@    00000001800123dc     StdAfx.obj
 0002:000003e0       ??_C@_17LLMMEOJD@?$AAV?$AAa?$AAl@ 00000001800123e0     StdAfx.obj
 0002:000003e8       ??_C@_1BI@JFAIJMHL@?$AAF?$AAo?$AAr?$AAc?$AAe?$AAR?$AAe?$AAm?$AAo?$AAv?$AAe@ 00000001800123e8     StdAfx.obj
 0002:00000400       ??_C@_1BC@GCKHIPE@?$AAN?$AAo?$AAR?$AAe?$AAm?$AAo?$AAv?$AAe@ 0000000180012400     StdAfx.obj
 0002:00000418       ??_C@_1O@JDLOHAN@?$AAD?$AAe?$AAl?$AAe?$AAt?$AAe@ 0000000180012418     StdAfx.obj
 0002:00000428       ??_C@_1BK@BIGILECK@?$AAA?$AAd?$AAv?$AAa?$AAp?$AAi?$AA3?$AA2?$AA?4?$AAd?$AAl?$AAl@ 0000000180012428     OposConstants.obj
 0002:00000448       ??_C@_0BI@MNCFCPFK@RegCreateKeyTransactedW@ 0000000180012448     OposConstants.obj
 0002:00000460       _GUID_00000146_0000_0000_c000_000000000046 0000000180012460     OposConstants.obj
 0002:00000470       ??_7CComModule@ATL@@6B@    0000000180012470     OposConstants.obj
 0002:000004c0       ??_C@_1M@KANJNLFF@?$AAC?$AAL?$AAS?$AAI?$AAD@ 00000001800124c0     OposConstants.obj
 0002:000004d0       ??_C@_1M@EJNEECMJ@?$AAA?$AAp?$AAp?$AAI?$AAD@ 00000001800124d0     OposConstants.obj
 0002:000004e0       ?rgszNeverDelete@CRegParser@ATL@@1QBQEB_WB 00000001800124e0     OposConstants.obj
 0002:00000540       LIBID_OPOSCONSTANTSLib     0000000180012540     OposConstants.obj
 0002:00000550       ??_7CRegObject@ATL@@6B@    0000000180012550     OposConstants.obj
 0002:00000580       ??_C@_1CK@OEKPKBNA@?$AAC?$AAo?$AAm?$AAp?$AAo?$AAn?$AAe?$AAn?$AAt?$AA?5?$AAC?$AAa?$AAt?$AAe?$AAg@ 0000000180012580     OposConstants.obj
 0002:000005b0       ??_C@_1BC@NKMMNMGL@?$AAF?$AAi?$AAl?$AAe?$AAT?$AAy?$AAp?$AAe@ 00000001800125b0     OposConstants.obj
 0002:000005c8       ??_C@_1BE@EKPAFMCP@?$AAI?$AAn?$AAt?$AAe?$AAr?$AAf?$AAa?$AAc?$AAe@ 00000001800125c8     OposConstants.obj
 0002:000005e0       ??_C@_1BC@MAICEHGI@?$AAH?$AAa?$AAr?$AAd?$AAw?$AAa?$AAr?$AAe@ 00000001800125e0     OposConstants.obj
 0002:000005f8       ??_C@_19HLLLM@?$AAM?$AAi?$AAm?$AAe@ 00000001800125f8     OposConstants.obj
 0002:00000608       ??_C@_17OMAOINJK@?$AAS?$AAA?$AAM@ 0000000180012608     OposConstants.obj
 0002:00000610       ??_C@_1BC@IBECJAAI@?$AAS?$AAE?$AAC?$AAU?$AAR?$AAI?$AAT?$AAY@ 0000000180012610     OposConstants.obj
 0002:00000628       ??_C@_1O@GBFINDKL@?$AAS?$AAY?$AAS?$AAT?$AAE?$AAM@ 0000000180012628     OposConstants.obj
 0002:00000638       ??_C@_1BC@EAHCMADO@?$AAS?$AAo?$AAf?$AAt?$AAw?$AAa?$AAr?$AAe@ 0000000180012638     OposConstants.obj
 0002:00000650       ??_C@_1BA@JIHHIEDE@?$AAT?$AAy?$AAp?$AAe?$AAL?$AAi?$AAb@ 0000000180012650     OposConstants.obj
 0002:00000660       ?map@?1??HKeyFromString@CRegParser@ATL@@KAPEAUHKEY__@@PEA_W@Z@4QBUkeymap@?1??123@KAPEAU4@0@Z@B 0000000180012660     OposConstants.obj
 0002:00000740       ??_C@_19NCHLBIN@?$AAH?$AAK?$AAC?$AAR@ 0000000180012740     OposConstants.obj
 0002:00000750       ??_C@_19JAPAIJDE@?$AAH?$AAK?$AAC?$AAU@ 0000000180012750     OposConstants.obj
 0002:00000760       ??_C@_19PEALEEJB@?$AAH?$AAK?$AAL?$AAM@ 0000000180012760     OposConstants.obj
 0002:00000770       ??_C@_17PJOJPMPB@?$AAH?$AAK?$AAU@ 0000000180012770     OposConstants.obj
 0002:00000778       ??_C@_19PNBHMJPL@?$AAH?$AAK?$AAP?$AAD@ 0000000180012778     OposConstants.obj
 0002:00000788       ??_C@_19GFFAIJHG@?$AAH?$AAK?$AAD?$AAD@ 0000000180012788     OposConstants.obj
 0002:00000798       ??_C@_19OFICIBHH@?$AAH?$AAK?$AAC?$AAC@ 0000000180012798     OposConstants.obj
 0002:000007a8       ??_C@_1CE@PACHPJFI@?$AAH?$AAK?$AAE?$AAY?$AA_?$AAC?$AAL?$AAA?$AAS?$AAS?$AAE?$AAS?$AA_?$AAR?$AAO@ 00000001800127a8     OposConstants.obj
 0002:000007d0       ??_C@_1CE@HLHNCBPM@?$AAH?$AAK?$AAE?$AAY?$AA_?$AAC?$AAU?$AAR?$AAR?$AAE?$AAN?$AAT?$AA_?$AAU?$AAS@ 00000001800127d0     OposConstants.obj
 0002:000007f8       ??_C@_1CG@GFBEANJL@?$AAH?$AAK?$AAE?$AAY?$AA_?$AAL?$AAO?$AAC?$AAA?$AAL?$AA_?$AAM?$AAA?$AAC?$AAH@ 00000001800127f8     OposConstants.obj
 0002:00000820       ??_C@_1BG@BGODANIO@?$AAH?$AAK?$AAE?$AAY?$AA_?$AAU?$AAS?$AAE?$AAR?$AAS@ 0000000180012820     OposConstants.obj
 0002:00000838       ??_C@_1CM@KHNNAOIC@?$AAH?$AAK?$AAE?$AAY?$AA_?$AAP?$AAE?$AAR?$AAF?$AAO?$AAR?$AAM?$AAA?$AAN?$AAC@ 0000000180012838     OposConstants.obj
 0002:00000868       ??_C@_1BM@HAGMMHIA@?$AAH?$AAK?$AAE?$AAY?$AA_?$AAD?$AAY?$AAN?$AA_?$AAD?$AAA?$AAT?$AAA@ 0000000180012868     OposConstants.obj
 0002:00000888       ??_C@_1CI@BBJOACGG@?$AAH?$AAK?$AAE?$AAY?$AA_?$AAC?$AAU?$AAR?$AAR?$AAE?$AAN?$AAT?$AA_?$AAC?$AAO@ 0000000180012888     OposConstants.obj
 0002:000008b0       ??_C@_1EA@NHKLICFA@?$AAH?$AAK?$AAC?$AAU?$AA?$AN?$AA?6?$AA?$HL?$AA?7?$AAS?$AAo?$AAf?$AAt?$AAw?$AAa?$AAr@ 00000001800128b0     OposConstants.obj
 0002:000008f0       ??_C@_1BE@LJOLIMEM@?$AA?$AN?$AA?6?$AA?7?$AA?$HN?$AA?$AN?$AA?6?$AA?$HN?$AA?$AN?$AA?6@ 00000001800128f0     OposConstants.obj
 0002:00000908       ??_C@_1O@MNLDABAF@?$AAM?$AAo?$AAd?$AAu?$AAl?$AAe@ 0000000180012908     OposConstants.obj
 0002:00000918       ??_C@_1BG@JBACFMF@?$AAM?$AAo?$AAd?$AAu?$AAl?$AAe?$AA_?$AAR?$AAa?$AAw@ 0000000180012918     OposConstants.obj
 0002:00000930       ??_C@_1BC@KAILKFFG@?$AAR?$AAE?$AAG?$AAI?$AAS?$AAT?$AAR?$AAY@ 0000000180012930     OposConstants.obj
 0002:00000944       ??_C@_11LOCGONAA@@         0000000180012944     OposConstants.obj
 0002:00000948       ??_C@_1M@PPPPCDEP@?$AAA?$AAP?$AAP?$AAI?$AAD@ 0000000180012948     OposConstants.obj
 0002:00000958       _GUID_00000000_0000_0000_c000_000000000046 0000000180012958     OposConstants.obj
 0002:00000968       ??_C@_0BG@EKFFMJIO@RegOpenKeyTransactedW@ 0000000180012968     OposConstants.obj
 0002:00000980       ??_C@_0BI@HAKLOOGP@RegDeleteKeyTransactedW@ 0000000180012980     OposConstants.obj
 0002:00000998       ??_C@_0BA@LILAPHGE@RegDeleteKeyExW@ 0000000180012998     OposConstants.obj
 0002:000009a8       ??_C@_19ILOCMLCJ@?$AA?4?$AAt?$AAl?$AAb@ 00000001800129a8     OposConstants.obj
 0002:000009b8       _GUID_0002e012_0000_0000_c000_000000000046 00000001800129b8     OposConstants.obj
 0002:000009c8       ??_C@_1O@FHBGLCIO@?$AAC?$AAL?$AAS?$AAI?$AAD?$AA?2@ 00000001800129c8     OposConstants.obj
 0002:000009d8       ??_C@_1CK@IFBKBFAA@?$AA?2?$AAR?$AAe?$AAq?$AAu?$AAi?$AAr?$AAe?$AAd?$AA?5?$AAC?$AAa?$AAt?$AAe?$AAg@ 00000001800129d8     OposConstants.obj
 0002:00000a08       ??_C@_1DA@BIHALFED@?$AA?2?$AAI?$AAm?$AAp?$AAl?$AAe?$AAm?$AAe?$AAn?$AAt?$AAe?$AAd?$AA?5?$AAC?$AAa@ 0000000180012a08     OposConstants.obj
 0002:00000a38       ??_C@_1BK@EDKOLFBJ@?$AAO?$AAL?$AAE?$AAA?$AAU?$AAT?$AA3?$AA2?$AA?4?$AAD?$AAL?$AAL@ 0000000180012a38     OposConstants.obj
 0002:00000a58       ??_C@_0BJ@CNLFOMHB@UnRegisterTypeLibForUser@ 0000000180012a58     OposConstants.obj
 0002:00000a78       ??_C@_0BH@LBOMMKPJ@RegisterTypeLibForUser@ 0000000180012a78     OposConstants.obj
 0002:00000a90       GUID_NULL                  0000000180012a90     uuid:cguid_i.obj
 0002:00000aa0       CLSID_StdGlobalInterfaceTable 0000000180012aa0     uuid:cguid_i.obj
 0002:00000ab0       CLSID_StdComponentCategoriesMgr 0000000180012ab0     uuid:ieguids.obj
 0002:00000ac0       GUID_ATLVer110             0000000180012ac0     atls:atlbase.obj
 0002:00000ad0       ??_C@_1IC@ONKHOIDK@?$AAE?$AAR?$AAR?$AAO?$AAR?$AA?5?$AA?3?$AA?5?$AAU?$AAn?$AAa?$AAb?$AAl?$AAe?$AA?5@ 0000000180012ad0     atls:atlbase.obj
 0002:00000b52       ?nothrow@std@@3Unothrow_t@1@B 0000000180012b52     LIBCMT:std_nothrow.obj
 0002:00000b68       _pRawDllMain               0000000180012b68     LIBCMT:dll_dllmain.obj
 0002:00000b68       _pDefaultRawDllMain        0000000180012b68     LIBCMT:dll_dllmain.obj
 0002:00000ba0       ??_7exception@std@@6B@     0000000180012ba0     LIBCMT:throw_bad_alloc.obj
 0002:00000bb0       ??_C@_0BC@EOODALEL@Unknown?5exception@ 0000000180012bb0     LIBCMT:throw_bad_alloc.obj
 0002:00000bd0       ??_7bad_alloc@std@@6B@     0000000180012bd0     LIBCMT:throw_bad_alloc.obj
 0002:00000be0       ??_C@_0P@GHFPNOJB@bad?5allocation@ 0000000180012be0     LIBCMT:throw_bad_alloc.obj
 0002:00000bf8       ??_7bad_array_new_length@std@@6B@ 0000000180012bf8     LIBCMT:throw_bad_alloc.obj
 0002:00000c08       ??_C@_0BF@KINCDENJ@bad?5array?5new?5length@ 0000000180012c08     LIBCMT:throw_bad_alloc.obj
 0002:00000c28       ??_7type_info@@6B@         0000000180012c28     LIBCMT:std_type_info_static.obj
 0002:00000d28       ??_C@_1DM@KHCHBNEB@?$AAa?$AAp?$AAi?$AA?9?$AAm?$AAs?$AA?9?$AAw?$AAi?$AAn?$AA?9?$AAc?$AAo?$AAr?$AAe@ 0000000180012d28     libvcruntime:winapi_downlevel.obj
 0002:00000d68       ??_C@_1DK@LPPGFMPP@?$AAa?$AAp?$AAi?$AA?9?$AAm?$AAs?$AA?9?$AAw?$AAi?$AAn?$AA?9?$AAc?$AAo?$AAr?$AAe@ 0000000180012d68     libvcruntime:winapi_downlevel.obj
 0002:00000da8       ??_C@_1BC@GDMECMAK@?$AAk?$AAe?$AAr?$AAn?$AAe?$AAl?$AA3?$AA2@ 0000000180012da8     libvcruntime:winapi_downlevel.obj
 0002:00000dc0       ??_C@_1BA@PFFKHIOG@?$AAa?$AAp?$AAi?$AA?9?$AAm?$AAs?$AA?9@ 0000000180012dc0     libvcruntime:winapi_downlevel.obj
 0002:00000dd0       ??_C@_1BA@IAIFMGEF@?$AAe?$AAx?$AAt?$AA?9?$AAm?$AAs?$AA?9@ 0000000180012dd0     libvcruntime:winapi_downlevel.obj
 0002:00000de8       ??_C@_08KNHFBNJ@FlsAlloc@  0000000180012de8     libvcruntime:winapi_downlevel.obj
 0002:00000e00       ??_C@_07PEJMOBNF@FlsFree@  0000000180012e00     libvcruntime:winapi_downlevel.obj
 0002:00000e10       ??_C@_0M@GDNOONDI@FlsGetValue@ 0000000180012e10     libvcruntime:winapi_downlevel.obj
 0002:00000e28       ??_C@_0M@JCPCPOEF@FlsSetValue@ 0000000180012e28     libvcruntime:winapi_downlevel.obj
 0002:00000e40       ??_C@_0BM@HCFOFFN@InitializeCriticalSectionEx@ 0000000180012e40     libvcruntime:winapi_downlevel.obj
 0002:00000e60       _pDestructExceptionObject  0000000180012e60     libvcruntime:ehhelpers.obj
 0002:00000e70       ??_7bad_exception@std@@6B@ 0000000180012e70     libvcruntime:frame.obj
 0002:00000e80       ??_C@_0O@DPKOEFFH@bad?5exception@ 0000000180012e80     libvcruntime:frame.obj
 0002:000011c8       ??_C@_08EHJDFFNH@__based?$CI@ 00000001800131c8     libvcruntime:undname.obj
 0002:000011d8       ??_C@_07KOLFKCDI@__cdecl@  00000001800131d8     libvcruntime:undname.obj
 0002:000011e0       ??_C@_08GHMPAG@__pascal@   00000001800131e0     libvcruntime:undname.obj
 0002:000011f0       ??_C@_09IFJBGAPI@__stdcall@ 00000001800131f0     libvcruntime:undname.obj
 0002:00001200       ??_C@_0L@NPHFGOKO@__thiscall@ 0000000180013200     libvcruntime:undname.obj
 0002:00001210       ??_C@_0L@JMKHOMEK@__fastcall@ 0000000180013210     libvcruntime:undname.obj
 0002:00001220       ??_C@_0N@BCKKPABJ@__vectorcall@ 0000000180013220     libvcruntime:undname.obj
 0002:00001230       ??_C@_09HIJEGCPM@__clrcall@ 0000000180013230     libvcruntime:undname.obj
 0002:0000123c       ??_C@_06GHPCKEAG@__eabi@   000000018001323c     libvcruntime:undname.obj
 0002:00001248       ??_C@_09IOPIDJLG@__swift_1@ 0000000180013248     libvcruntime:undname.obj
 0002:00001258       ??_C@_09KFNFGKHF@__swift_2@ 0000000180013258     libvcruntime:undname.obj
 0002:00001268       ??_C@_07JOMMBBKO@__ptr64@  0000000180013268     libvcruntime:undname.obj
 0002:00001270       ??_C@_0L@PILCLIHE@__restrict@ 0000000180013270     libvcruntime:undname.obj
 0002:00001280       ??_C@_0M@GFIIJFMG@__unaligned@ 0000000180013280     libvcruntime:undname.obj
 0002:00001290       ??_C@_09DHDLOLLB@restrict?$CI@ 0000000180013290     libvcruntime:undname.obj
 0002:0000129a       ??_C@_00CNPNBAHC@@         000000018001329a     libvcruntime:undname.obj
 0002:0000129c       ??_C@_04NIHEBCM@?5new@     000000018001329c     libvcruntime:undname.obj
 0002:000012a8       ??_C@_07FPCDHGMM@?5delete@ 00000001800132a8     libvcruntime:undname.obj
 0002:000012b0       ??_C@_01NEMOKFLO@?$DN@     00000001800132b0     libvcruntime:undname.obj
 0002:000012b4       ??_C@_02GPIOPFAK@?$DO?$DO@ 00000001800132b4     libvcruntime:undname.obj
 0002:000012b8       ??_C@_02FODMEDOG@?$DM?$DM@ 00000001800132b8     libvcruntime:undname.obj
 0002:000012bc       ??_C@_01DCLJPIOD@?$CB@     00000001800132bc     libvcruntime:undname.obj
 0002:000012c0       ??_C@_02EGOFBIJA@?$DN?$DN@ 00000001800132c0     libvcruntime:undname.obj
 0002:000012c4       ??_C@_02FDNJECIE@?$CB?$DN@ 00000001800132c4     libvcruntime:undname.obj
 0002:000012c8       ??_C@_02GPECMEKF@?$FL?$FN@ 00000001800132c8     libvcruntime:undname.obj
 0002:000012d0       ??_C@_08LHJFAFGD@operator@ 00000001800132d0     libvcruntime:undname.obj
 0002:000012dc       ??_C@_02HBOOOICD@?9?$DO@   00000001800132dc     libvcruntime:undname.obj
 0002:000012e0       ??_C@_01NBENCBCI@?$CK@     00000001800132e0     libvcruntime:undname.obj
 0002:000012e4       ??_C@_02ECNGHCIF@?$CL?$CL@ 00000001800132e4     libvcruntime:undname.obj
 0002:000012e8       ??_C@_02BAABKJLB@?9?9@     00000001800132e8     libvcruntime:undname.obj
 0002:000012ec       ??_C@_01JOAMLHOP@?9@       00000001800132ec     libvcruntime:undname.obj
 0002:000012f0       ??_C@_01MIFGBAGJ@?$CL@     00000001800132f0     libvcruntime:undname.obj
 0002:000012f4       ??_C@_01HNPIGOCE@?$CG@     00000001800132f4     libvcruntime:undname.obj
 0002:000012f8       ??_C@_03MNHNFDLC@?9?$DO?$CK@ 00000001800132f8     libvcruntime:undname.obj
 0002:000012fc       ??_C@_01KMDKNFGN@?1@       00000001800132fc     libvcruntime:undname.obj
 0002:00001300       ??_C@_01FGNFDNOH@?$CF@     0000000180013300     libvcruntime:undname.obj
 0002:00001304       ??_C@_01MNNFJEPP@?$DM@     0000000180013304     libvcruntime:undname.obj
 0002:00001308       ??_C@_02EHCHHCKH@?$DM?$DN@ 0000000180013308     libvcruntime:undname.obj
 0002:0000130c       ??_C@_01PPODPGHN@?$DO@     000000018001330c     libvcruntime:undname.obj
 0002:00001310       ??_C@_02EEKDKGMJ@?$DO?$DN@ 0000000180013310     libvcruntime:undname.obj
 0002:00001314       ??_C@_01IHBHIGKO@?0@       0000000180013314     libvcruntime:undname.obj
 0002:00001318       ??_C@_02HCKGKOFO@?$CI?$CJ@ 0000000180013318     libvcruntime:undname.obj
 0002:0000131c       ??_C@_01PJKLJHI@?$HO@      000000018001331c     libvcruntime:undname.obj
 0002:00001320       ??_C@_01JKBOJNNK@?$FO@     0000000180013320     libvcruntime:undname.obj
 0002:00001324       ??_C@_01DNKMNLPK@?$HM@     0000000180013324     libvcruntime:undname.obj
 0002:00001328       ??_C@_02PPKAJPJL@?$CG?$CG@ 0000000180013328     libvcruntime:undname.obj
 0002:0000132c       ??_C@_02NONPIBCD@?$HM?$HM@ 000000018001332c     libvcruntime:undname.obj
 0002:00001330       ??_C@_02FPIMKNGF@?$CK?$DN@ 0000000180013330     libvcruntime:undname.obj
 0002:00001334       ??_C@_02FOEOMHFC@?$CL?$DN@ 0000000180013334     libvcruntime:undname.obj
 0002:00001338       ??_C@_02FKMDLLOA@?9?$DN@   0000000180013338     libvcruntime:undname.obj
 0002:0000133c       ??_C@_02FJEHGPIO@?1?$DN@   000000018001333c     libvcruntime:undname.obj
 0002:00001340       ??_C@_02FENAOKFI@?$CF?$DN@ 0000000180013340     libvcruntime:undname.obj
 0002:00001344       ??_C@_03IKFCCPFF@?$DO?$DO?$DN@ 0000000180013344     libvcruntime:undname.obj
 0002:00001348       ??_C@_03CDNPDDLA@?$DM?$DM?$DN@ 0000000180013348     libvcruntime:undname.obj
 0002:0000134c       ??_C@_02FGJGFEAB@?$CG?$DN@ 000000018001334c     libvcruntime:undname.obj
 0002:00001350       ??_C@_02DHLNPPGH@?$HM?$DN@ 0000000180013350     libvcruntime:undname.obj
 0002:00001354       ??_C@_02MHEGNOJ@?$FO?$DN@  0000000180013354     libvcruntime:undname.obj
 0002:00001358       ??_C@_09IFPLHPGF@?$GAvftable?8@ 0000000180013358     libvcruntime:undname.obj
 0002:00001368       ??_C@_09BLBHBJP@?$GAvbtable?8@ 0000000180013368     libvcruntime:undname.obj
 0002:00001378       ??_C@_07FEEIOKP@?$GAvcall?8@ 0000000180013378     libvcruntime:undname.obj
 0002:00001380       ??_C@_08LLFFHHDJ@?$GAtypeof?8@ 0000000180013380     libvcruntime:undname.obj
 0002:00001390       ??_C@_0BF@KDPPACIK@?$GAlocal?5static?5guard?8@ 0000000180013390     libvcruntime:undname.obj
 0002:000013a8       ??_C@_08OBABFOLI@?$GAstring?8@ 00000001800133a8     libvcruntime:undname.obj
 0002:000013b8       ??_C@_0BD@JDLKDPAB@?$GAvbase?5destructor?8@ 00000001800133b8     libvcruntime:undname.obj
 0002:000013d0       ??_C@_0BN@DEGPLNFK@?$GAvector?5deleting?5destructor?8@ 00000001800133d0     libvcruntime:undname.obj
 0002:000013f0       ??_C@_0BO@OBMKPJIG@?$GAdefault?5constructor?5closure?8@ 00000001800133f0     libvcruntime:undname.obj
 0002:00001410       ??_C@_0BN@IMDCHIKM@?$GAscalar?5deleting?5destructor?8@ 0000000180013410     libvcruntime:undname.obj
 0002:00001430       ??_C@_0BO@PFGOCPJJ@?$GAvector?5constructor?5iterator?8@ 0000000180013430     libvcruntime:undname.obj
 0002:00001450       ??_C@_0BN@LFPFMEDL@?$GAvector?5destructor?5iterator?8@ 0000000180013450     libvcruntime:undname.obj
 0002:00001470       ??_C@_0CE@IKBNEHA@?$GAvector?5vbase?5constructor?5itera@ 0000000180013470     libvcruntime:undname.obj
 0002:00001498       ??_C@_0BL@NILFHHPC@?$GAvirtual?5displacement?5map?8@ 0000000180013498     libvcruntime:undname.obj
 0002:000014b8       ??_C@_0CB@JONCMFFK@?$GAeh?5vector?5constructor?5iterator@ 00000001800134b8     libvcruntime:undname.obj
 0002:000014e0       ??_C@_0CA@GCEOPDGL@?$GAeh?5vector?5destructor?5iterator?8@ 00000001800134e0     libvcruntime:undname.obj
 0002:00001500       ??_C@_0CH@OOJPLCPH@?$GAeh?5vector?5vbase?5constructor?5it@ 0000000180013500     libvcruntime:undname.obj
 0002:00001528       ??_C@_0BL@LLKPOHJI@?$GAcopy?5constructor?5closure?8@ 0000000180013528     libvcruntime:undname.obj
 0002:00001548       ??_C@_0BA@KBCDOMBN@?$GAudt?5returning?8@ 0000000180013548     libvcruntime:undname.obj
 0002:00001558       ??_C@_03KLGMFNMG@?$GAEH@   0000000180013558     libvcruntime:undname.obj
 0002:0000155c       ??_C@_05KHLCHHI@?$GARTTI@  000000018001355c     libvcruntime:undname.obj
 0002:00001568       ??_C@_0BA@KKLDJDLB@?$GAlocal?5vftable?8@ 0000000180013568     libvcruntime:undname.obj
 0002:00001578       ??_C@_0CE@IIHCMGGL@?$GAlocal?5vftable?5constructor?5clos@ 0000000180013578     libvcruntime:undname.obj
 0002:0000159c       ??_C@_06FHBGPFGH@?5new?$FL?$FN@ 000000018001359c     libvcruntime:undname.obj
 0002:000015a8       ??_C@_09LBNFPBCA@?5delete?$FL?$FN@ 00000001800135a8     libvcruntime:undname.obj
 0002:000015b8       ??_C@_0P@HJKNJFNN@?$GAomni?5callsig?8@ 00000001800135b8     libvcruntime:undname.obj
 0002:000015c8       ??_C@_0BL@CNOONJFP@?$GAplacement?5delete?5closure?8@ 00000001800135c8     libvcruntime:undname.obj
 0002:000015e8       ??_C@_0BN@CKNJLHMB@?$GAplacement?5delete?$FL?$FN?5closure?8@ 00000001800135e8     libvcruntime:undname.obj
 0002:00001608       ??_C@_0CG@CFDHKGGD@?$GAmanaged?5vector?5constructor?5ite@ 0000000180013608     libvcruntime:undname.obj
 0002:00001630       ??_C@_0CF@IMGKMJNO@?$GAmanaged?5vector?5destructor?5iter@ 0000000180013630     libvcruntime:undname.obj
 0002:00001658       ??_C@_0CG@HLDDJMAG@?$GAeh?5vector?5copy?5constructor?5ite@ 0000000180013658     libvcruntime:undname.obj
 0002:00001680       ??_C@_0CM@FCBBDIGB@?$GAeh?5vector?5vbase?5copy?5construct@ 0000000180013680     libvcruntime:undname.obj
 0002:000016b0       ??_C@_0BL@CLIPGLGB@?$GAdynamic?5initializer?5for?5?8@ 00000001800136b0     libvcruntime:undname.obj
 0002:000016d0       ??_C@_0CB@PDBIFEP@?$GAdynamic?5atexit?5destructor?5for?5@ 00000001800136d0     libvcruntime:undname.obj
 0002:000016f8       ??_C@_0CD@CGAJBKEJ@?$GAvector?5copy?5constructor?5iterat@ 00000001800136f8     libvcruntime:undname.obj
 0002:00001720       ??_C@_0CJ@GJELGAMM@?$GAvector?5vbase?5copy?5constructor?5@ 0000000180013720     libvcruntime:undname.obj
 0002:00001750       ??_C@_0CL@FGIJHLCE@?$GAmanaged?5vector?5copy?5constructo@ 0000000180013750     libvcruntime:undname.obj
 0002:00001780       ??_C@_0BM@PMGGMLDN@?$GAlocal?5static?5thread?5guard?8@ 0000000180013780     libvcruntime:undname.obj
 0002:000017a0       ??_C@_0N@BDNMDMOL@operator?5?$CC?$CC?5@ 00000001800137a0     libvcruntime:undname.obj
 0002:000017b0       ??_C@_0BC@GGEBGALA@operator?5co_await@ 00000001800137b0     libvcruntime:undname.obj
 0002:000017c8       ??_C@_0BC@DAFEJGAK@?5Type?5Descriptor?8@ 00000001800137c8     libvcruntime:undname.obj
 0002:000017e0       ??_C@_0BM@LDKODKLH@?5Base?5Class?5Descriptor?5at?5?$CI@ 00000001800137e0     libvcruntime:undname.obj
 0002:00001800       ??_C@_0BD@LGICGFMM@?5Base?5Class?5Array?8@ 0000000180013800     libvcruntime:undname.obj
 0002:00001818       ??_C@_0BN@MECKDCOJ@?5Class?5Hierarchy?5Descriptor?8@ 0000000180013818     libvcruntime:undname.obj
 0002:00001838       ??_C@_0BK@CFCOFLF@?5Complete?5Object?5Locator?8@ 0000000180013838     libvcruntime:undname.obj
 0002:000019d0       __acrt_exception_action_table 00000001800139d0     libucrt:exception_filter.obj
 0002:00001a90       __acrt_signal_action_table_count 0000000180013a90     libucrt:exception_filter.obj
 0002:00001a98       __acrt_signal_action_first_fpe_index 0000000180013a98     libucrt:exception_filter.obj
 0002:00001aa0       __acrt_signal_action_fpe_count 0000000180013aa0     libucrt:exception_filter.obj
 0002:00001aa8       ??_C@_1BI@BGOHAHKC@?$AAm?$AAs?$AAc?$AAo?$AAr?$AAe?$AAe?$AA?4?$AAd?$AAl?$AAl?$AA?$AA@ 0000000180013aa8     libucrt:exit.obj
 0002:00001ac0       ??_C@_0P@MIGLKIOC@CorExitProcess?$AA@ 0000000180013ac0     libucrt:exit.obj
 0002:00001c60       ??_C@_1EG@CNNIPFIM@?$AAa?$AAp?$AAi?$AA?9?$AAm?$AAs?$AA?9?$AAw?$AAi?$AAn?$AA?9?$AAa?$AAp?$AAp?$AAm?$AAo?$AAd?$AAe?$AAl?$AA?9?$AAr?$AAu?$AAn?$AAt?$AAi?$AAm?$AAe?$AA?9?$AAl?$AA1?$AA?9?$AA1@ 0000000180013c60     libucrt:winapi_thunks.obj
 0002:00001cb0       ??_C@_1EA@JGEFHKEI@?$AAa?$AAp?$AAi?$AA?9?$AAm?$AAs?$AA?9?$AAw?$AAi?$AAn?$AA?9?$AAc?$AAo?$AAr?$AAe?$AA?9?$AAd?$AAa?$AAt?$AAe?$AAt?$AAi?$AAm?$AAe?$AA?9?$AAl?$AA1?$AA?9?$AA1?$AA?9?$AA1?$AA?$AA@ 0000000180013cb0     libucrt:winapi_thunks.obj
 0002:00001cf0       ??_C@_1DM@KHCHBNEB@?$AAa?$AAp?$AAi?$AA?9?$AAm?$AAs?$AA?9?$AAw?$AAi?$AAn?$AA?9?$AAc?$AAo?$AAr?$AAe?$AA?9?$AAf?$AAi?$AAb?$AAe?$AAr?$AAs?$AA?9?$AAl?$AA1?$AA?9?$AA1?$AA?9?$AA1?$AA?$AA@ 0000000180013cf0     libucrt:winapi_thunks.obj
 0002:00001d30       ??_C@_1DI@GCIAAENM@?$AAa?$AAp?$AAi?$AA?9?$AAm?$AAs?$AA?9?$AAw?$AAi?$AAn?$AA?9?$AAc?$AAo?$AAr?$AAe?$AA?9?$AAf?$AAi?$AAl?$AAe?$AA?9?$AAl?$AA2?$AA?9?$AA1?$AA?9?$AA1?$AA?$AA@ 0000000180013d30     libucrt:winapi_thunks.obj
 0002:00001d70       ??_C@_1EI@MPIAOHOC@?$AAa?$AAp?$AAi?$AA?9?$AAm?$AAs?$AA?9?$AAw?$AAi?$AAn?$AA?9?$AAc?$AAo?$AAr?$AAe?$AA?9?$AAl?$AAo?$AAc?$AAa?$AAl?$AAi?$AAz?$AAa?$AAt?$AAi?$AAo?$AAn?$AA?9?$AAl?$AA1?$AA?9@ 0000000180013d70     libucrt:winapi_thunks.obj
 0002:00001dc0       ??_C@_1FK@FPHCKFIE@?$AAa?$AAp?$AAi?$AA?9?$AAm?$AAs?$AA?9?$AAw?$AAi?$AAn?$AA?9?$AAc?$AAo?$AAr?$AAe?$AA?9?$AAl?$AAo?$AAc?$AAa?$AAl?$AAi?$AAz?$AAa?$AAt?$AAi?$AAo?$AAn?$AA?9?$AAo?$AAb?$AAs@ 0000000180013dc0     libucrt:winapi_thunks.obj
 0002:00001e20       ??_C@_1EM@DILCGIIO@?$AAa?$AAp?$AAi?$AA?9?$AAm?$AAs?$AA?9?$AAw?$AAi?$AAn?$AA?9?$AAc?$AAo?$AAr?$AAe?$AA?9?$AAp?$AAr?$AAo?$AAc?$AAe?$AAs?$AAs?$AAt?$AAh?$AAr?$AAe?$AAa?$AAd?$AAs?$AA?9?$AAl@ 0000000180013e20     libucrt:winapi_thunks.obj
 0002:00001e70       ??_C@_1DM@LNCGDDPN@?$AAa?$AAp?$AAi?$AA?9?$AAm?$AAs?$AA?9?$AAw?$AAi?$AAn?$AA?9?$AAc?$AAo?$AAr?$AAe?$AA?9?$AAs?$AAt?$AAr?$AAi?$AAn?$AAg?$AA?9?$AAl?$AA1?$AA?9?$AA1?$AA?9?$AA0?$AA?$AA@ 0000000180013e70     libucrt:winapi_thunks.obj
 0002:00001eb0       ??_C@_1DK@LPPGFMPP@?$AAa?$AAp?$AAi?$AA?9?$AAm?$AAs?$AA?9?$AAw?$AAi?$AAn?$AA?9?$AAc?$AAo?$AAr?$AAe?$AA?9?$AAs?$AAy?$AAn?$AAc?$AAh?$AA?9?$AAl?$AA1?$AA?9?$AA2?$AA?9?$AA0?$AA?$AA@ 0000000180013eb0     libucrt:winapi_thunks.obj
 0002:00001ef0       ??_C@_1DO@FPAPJEMD@?$AAa?$AAp?$AAi?$AA?9?$AAm?$AAs?$AA?9?$AAw?$AAi?$AAn?$AA?9?$AAc?$AAo?$AAr?$AAe?$AA?9?$AAs?$AAy?$AAs?$AAi?$AAn?$AAf?$AAo?$AA?9?$AAl?$AA1?$AA?9?$AA2?$AA?9?$AA1?$AA?$AA@ 0000000180013ef0     libucrt:winapi_thunks.obj
 0002:00001f30       ??_C@_1DK@NDHNAHIO@?$AAa?$AAp?$AAi?$AA?9?$AAm?$AAs?$AA?9?$AAw?$AAi?$AAn?$AA?9?$AAc?$AAo?$AAr?$AAe?$AA?9?$AAw?$AAi?$AAn?$AAr?$AAt?$AA?9?$AAl?$AA1?$AA?9?$AA1?$AA?9?$AA0?$AA?$AA@ 0000000180013f30     libucrt:winapi_thunks.obj
 0002:00001f70       ??_C@_1DM@KGHDGBCM@?$AAa?$AAp?$AAi?$AA?9?$AAm?$AAs?$AA?9?$AAw?$AAi?$AAn?$AA?9?$AAc?$AAo?$AAr?$AAe?$AA?9?$AAx?$AAs?$AAt?$AAa?$AAt?$AAe?$AA?9?$AAl?$AA2?$AA?9?$AA1?$AA?9?$AA0?$AA?$AA@ 0000000180013f70     libucrt:winapi_thunks.obj
 0002:00001fb0       ??_C@_1EO@IJIOEFOH@?$AAa?$AAp?$AAi?$AA?9?$AAm?$AAs?$AA?9?$AAw?$AAi?$AAn?$AA?9?$AAr?$AAt?$AAc?$AAo?$AAr?$AAe?$AA?9?$AAn?$AAt?$AAu?$AAs?$AAe?$AAr?$AA?9?$AAw?$AAi?$AAn?$AAd?$AAo?$AAw?$AA?9@ 0000000180013fb0     libucrt:winapi_thunks.obj
 0002:00002000       ??_C@_1FG@HHGEKANL@?$AAa?$AAp?$AAi?$AA?9?$AAm?$AAs?$AA?9?$AAw?$AAi?$AAn?$AA?9?$AAs?$AAe?$AAc?$AAu?$AAr?$AAi?$AAt?$AAy?$AA?9?$AAs?$AAy?$AAs?$AAt?$AAe?$AAm?$AAf?$AAu?$AAn?$AAc?$AAt?$AAi@ 0000000180014000     libucrt:winapi_thunks.obj
 0002:00002060       ??_C@_1FG@NCKKOLKO@?$AAe?$AAx?$AAt?$AA?9?$AAm?$AAs?$AA?9?$AAw?$AAi?$AAn?$AA?9?$AAk?$AAe?$AAr?$AAn?$AAe?$AAl?$AA3?$AA2?$AA?9?$AAp?$AAa?$AAc?$AAk?$AAa?$AAg?$AAe?$AA?9?$AAc?$AAu?$AAr?$AAr@ 0000000180014060     libucrt:winapi_thunks.obj
 0002:000020c0       ??_C@_1EG@DBIOJECG@?$AAe?$AAx?$AAt?$AA?9?$AAm?$AAs?$AA?9?$AAw?$AAi?$AAn?$AA?9?$AAn?$AAt?$AAu?$AAs?$AAe?$AAr?$AA?9?$AAd?$AAi?$AAa?$AAl?$AAo?$AAg?$AAb?$AAo?$AAx?$AA?9?$AAl?$AA1?$AA?9?$AA1@ 00000001800140c0     libucrt:winapi_thunks.obj
 0002:00002110       ??_C@_1EO@FIHMJCLF@?$AAe?$AAx?$AAt?$AA?9?$AAm?$AAs?$AA?9?$AAw?$AAi?$AAn?$AA?9?$AAn?$AAt?$AAu?$AAs?$AAe?$AAr?$AA?9?$AAw?$AAi?$AAn?$AAd?$AAo?$AAw?$AAs?$AAt?$AAa?$AAt?$AAi?$AAo?$AAn?$AA?9@ 0000000180014110     libucrt:winapi_thunks.obj
 0002:00002160       ??_C@_1BC@DNHGCMLG@?$AAa?$AAd?$AAv?$AAa?$AAp?$AAi?$AA3?$AA2?$AA?$AA@ 0000000180014160     libucrt:winapi_thunks.obj
 0002:00002178       ??_C@_1BC@GDMECMAK@?$AAk?$AAe?$AAr?$AAn?$AAe?$AAl?$AA3?$AA2?$AA?$AA@ 0000000180014178     libucrt:winapi_thunks.obj
 0002:00002190       ??_C@_1O@BCCLBEOE@?$AAu?$AAs?$AAe?$AAr?$AA3?$AA2?$AA?$AA@ 0000000180014190     libucrt:winapi_thunks.obj
 0002:000021a8       ??_C@_08KNHFBNJ@FlsAlloc?$AA@ 00000001800141a8     libucrt:winapi_thunks.obj
 0002:000021c0       ??_C@_07PEJMOBNF@FlsFree?$AA@ 00000001800141c0     libucrt:winapi_thunks.obj
 0002:000021d0       ??_C@_0M@GDNOONDI@FlsGetValue?$AA@ 00000001800141d0     libucrt:winapi_thunks.obj
 0002:000021e8       ??_C@_0M@JCPCPOEF@FlsSetValue?$AA@ 00000001800141e8     libucrt:winapi_thunks.obj
 0002:00002200       ??_C@_0BE@JOGNEJCI@GetCurrentPackageId?$AA@ 0000000180014200     libucrt:winapi_thunks.obj
 0002:00002220       ??_C@_0BM@HCFOFFN@InitializeCriticalSectionEx?$AA@ 0000000180014220     libucrt:winapi_thunks.obj
 0002:00002248       ??_C@_0O@KKBNKAPF@LCMapStringEx?$AA@ 0000000180014248     libucrt:winapi_thunks.obj
 0002:00002260       ??_C@_0BB@HBDEELFH@LocaleNameToLCID?$AA@ 0000000180014260     libucrt:winapi_thunks.obj
 0002:00002298       ??_C@_1M@HPNHIDJI@?$AAj?$AAa?$AA?9?$AAJ?$AAP?$AA?$AA@ 0000000180014298     libucrt:mbctype.obj
 0002:000022a8       ??_C@_1M@BIBDDEMK@?$AAz?$AAh?$AA?9?$AAC?$AAN?$AA?$AA@ 00000001800142a8     libucrt:mbctype.obj
 0002:000022b8       ??_C@_1M@JLOOOEGK@?$AAk?$AAo?$AA?9?$AAK?$AAR?$AA?$AA@ 00000001800142b8     libucrt:mbctype.obj
 0002:000022c8       ??_C@_1M@CLNBBOPM@?$AAz?$AAh?$AA?9?$AAT?$AAW?$AA?$AA@ 00000001800142c8     libucrt:mbctype.obj
 0002:000022e0       __lc_time_c                00000001800142e0     libucrt:nlsdata.obj
 0002:000025a0       ??_C@_03KOEHGMDN@Sun?$AA@  00000001800145a0     libucrt:nlsdata.obj
 0002:000025a4       ??_C@_03PDAGKDH@Mon?$AA@   00000001800145a4     libucrt:nlsdata.obj
 0002:000025a8       ??_C@_03NAGEINEP@Tue?$AA@  00000001800145a8     libucrt:nlsdata.obj
 0002:000025ac       ??_C@_03MHOMLAJA@Wed?$AA@  00000001800145ac     libucrt:nlsdata.obj
 0002:000025b0       ??_C@_03IOFIKPDN@Thu?$AA@  00000001800145b0     libucrt:nlsdata.obj
 0002:000025b4       ??_C@_03IDIOELNC@Fri?$AA@  00000001800145b4     libucrt:nlsdata.obj
 0002:000025b8       ??_C@_03FEFJNEK@Sat?$AA@   00000001800145b8     libucrt:nlsdata.obj
 0002:000025bc       ??_C@_06OOPIFAJ@Sunday?$AA@ 00000001800145bc     libucrt:nlsdata.obj
 0002:000025c4       ??_C@_06JLEDEDGH@Monday?$AA@ 00000001800145c4     libucrt:nlsdata.obj
 0002:000025d0       ??_C@_07BAAGCFCM@Tuesday?$AA@ 00000001800145d0     libucrt:nlsdata.obj
 0002:000025d8       ??_C@_09DLIGFAKA@Wednesday?$AA@ 00000001800145d8     libucrt:nlsdata.obj
 0002:000025e8       ??_C@_08HACCIKIA@Thursday?$AA@ 00000001800145e8     libucrt:nlsdata.obj
 0002:000025f4       ??_C@_06JECMNKMI@Friday?$AA@ 00000001800145f4     libucrt:nlsdata.obj
 0002:00002600       ??_C@_08INBOOONO@Saturday?$AA@ 0000000180014600     libucrt:nlsdata.obj
 0002:0000260c       ??_C@_03JIHJHPIE@Jan?$AA@  000000018001460c     libucrt:nlsdata.obj
 0002:00002610       ??_C@_03HJBDCHOM@Feb?$AA@  0000000180014610     libucrt:nlsdata.obj
 0002:00002614       ??_C@_03ODNJBKGA@Mar?$AA@  0000000180014614     libucrt:nlsdata.obj
 0002:00002618       ??_C@_03LEOLGMJP@Apr?$AA@  0000000180014618     libucrt:nlsdata.obj
 0002:0000261c       ??_C@_03CNMDKL@May?$AA@    000000018001461c     libucrt:nlsdata.obj
 0002:00002620       ??_C@_03IDFGHECI@Jun?$AA@  0000000180014620     libucrt:nlsdata.obj
 0002:00002624       ??_C@_03LBGABGKK@Jul?$AA@  0000000180014624     libucrt:nlsdata.obj
 0002:00002628       ??_C@_03IFJFEIGA@Aug?$AA@  0000000180014628     libucrt:nlsdata.obj
 0002:0000262c       ??_C@_03GGCAPAJC@Sep?$AA@  000000018001462c     libucrt:nlsdata.obj
 0002:00002630       ??_C@_03BMAOKBAD@Oct?$AA@  0000000180014630     libucrt:nlsdata.obj
 0002:00002634       ??_C@_03JPJOFNIA@Nov?$AA@  0000000180014634     libucrt:nlsdata.obj
 0002:00002638       ??_C@_03MKABNOCG@Dec?$AA@  0000000180014638     libucrt:nlsdata.obj
 0002:00002640       ??_C@_07CGJPFGJA@January?$AA@ 0000000180014640     libucrt:nlsdata.obj
 0002:00002648       ??_C@_08GNJGEPFN@February?$AA@ 0000000180014648     libucrt:nlsdata.obj
 0002:00002654       ??_C@_05HPCKOFNC@March?$AA@ 0000000180014654     libucrt:nlsdata.obj
 0002:0000265c       ??_C@_05DMJDNLEJ@April?$AA@ 000000018001465c     libucrt:nlsdata.obj
 0002:00002664       ??_C@_04CNLMGBGM@June?$AA@ 0000000180014664     libucrt:nlsdata.obj
 0002:0000266c       ??_C@_04MIEPOIFP@July?$AA@ 000000018001466c     libucrt:nlsdata.obj
 0002:00002674       ??_C@_06LBBHFDDG@August?$AA@ 0000000180014674     libucrt:nlsdata.obj
 0002:00002680       ??_C@_09BHHEALKD@September?$AA@ 0000000180014680     libucrt:nlsdata.obj
 0002:00002690       ??_C@_07JJNFCEND@October?$AA@ 0000000180014690     libucrt:nlsdata.obj
 0002:00002698       ??_C@_08HCHEGEOA@November?$AA@ 0000000180014698     libucrt:nlsdata.obj
 0002:000026a8       ??_C@_08EDHMEBNP@December?$AA@ 00000001800146a8     libucrt:nlsdata.obj
 0002:000026b4       ??_C@_02DEDBPAFC@AM?$AA@   00000001800146b4     libucrt:nlsdata.obj
 0002:000026b8       ??_C@_02CJNFDJBF@PM?$AA@   00000001800146b8     libucrt:nlsdata.obj
 0002:000026c0       ??_C@_08BPBNCDIB@MM?1dd?1yy?$AA@ 00000001800146c0     libucrt:nlsdata.obj
 0002:000026d0       ??_C@_0BE@CKGJFCPC@dddd?0?5MMMM?5dd?0?5yyyy?$AA@ 00000001800146d0     libucrt:nlsdata.obj
 0002:000026e8       ??_C@_08JCCMCCIL@HH?3mm?3ss?$AA@ 00000001800146e8     libucrt:nlsdata.obj
 0002:000026f8       ??_C@_17MBGCMIPB@?$AAS?$AAu?$AAn?$AA?$AA@ 00000001800146f8     libucrt:nlsdata.obj
 0002:00002700       ??_C@_17KBOMKBF@?$AAM?$AAo?$AAn?$AA?$AA@ 0000000180014700     libucrt:nlsdata.obj
 0002:00002708       ??_C@_17BMKGEGOJ@?$AAT?$AAu?$AAe?$AA?$AA@ 0000000180014708     libucrt:nlsdata.obj
 0002:00002710       ??_C@_17CJEDCEPE@?$AAW?$AAe?$AAd?$AA?$AA@ 0000000180014710     libucrt:nlsdata.obj
 0002:00002718       ??_C@_17PDPHAADD@?$AAT?$AAh?$AAu?$AA?$AA@ 0000000180014718     libucrt:nlsdata.obj
 0002:00002720       ??_C@_17HFOLPPLP@?$AAF?$AAr?$AAi?$AA?$AA@ 0000000180014720     libucrt:nlsdata.obj
 0002:00002728       ??_C@_17GGIBDPIH@?$AAS?$AAa?$AAt?$AA?$AA@ 0000000180014728     libucrt:nlsdata.obj
 0002:00002730       ??_C@_1O@IHNHDHPB@?$AAS?$AAu?$AAn?$AAd?$AAa?$AAy?$AA?$AA@ 0000000180014730     libucrt:nlsdata.obj
 0002:00002740       ??_C@_1O@MMNBFLIA@?$AAM?$AAo?$AAn?$AAd?$AAa?$AAy?$AA?$AA@ 0000000180014740     libucrt:nlsdata.obj
 0002:00002750       ??_C@_1BA@ENFBFFEK@?$AAT?$AAu?$AAe?$AAs?$AAd?$AAa?$AAy?$AA?$AA@ 0000000180014750     libucrt:nlsdata.obj
 0002:00002760       ??_C@_1BE@EBOGMDOH@?$AAW?$AAe?$AAd?$AAn?$AAe?$AAs?$AAd?$AAa?$AAy?$AA?$AA@ 0000000180014760     libucrt:nlsdata.obj
 0002:00002778       ??_C@_1BC@HHMNLIHE@?$AAT?$AAh?$AAu?$AAr?$AAs?$AAd?$AAa?$AAy?$AA?$AA@ 0000000180014778     libucrt:nlsdata.obj
 0002:00002790       ??_C@_1O@PDICJHAG@?$AAF?$AAr?$AAi?$AAd?$AAa?$AAy?$AA?$AA@ 0000000180014790     libucrt:nlsdata.obj
 0002:000027a0       ??_C@_1BC@ENMNNPAJ@?$AAS?$AAa?$AAt?$AAu?$AAr?$AAd?$AAa?$AAy?$AA?$AA@ 00000001800147a0     libucrt:nlsdata.obj
 0002:000027b8       ??_C@_17DKNBKCHM@?$AAJ?$AAa?$AAn?$AA?$AA@ 00000001800147b8     libucrt:nlsdata.obj
 0002:000027c0       ??_C@_17LMDJEKJN@?$AAF?$AAe?$AAb?$AA?$AA@ 00000001800147c0     libucrt:nlsdata.obj
 0002:000027c8       ??_C@_17CKNLEDEC@?$AAM?$AAa?$AAr?$AA?$AA@ 00000001800147c8     libucrt:nlsdata.obj
 0002:000027d0       ??_C@_17LFPOIHDD@?$AAA?$AAp?$AAr?$AA?$AA@ 00000001800147d0     libucrt:nlsdata.obj
 0002:000027d8       ??_C@_17PNNKMEED@?$AAM?$AAa?$AAy?$AA?$AA@ 00000001800147d8     libucrt:nlsdata.obj
 0002:000027e0       ??_C@_17KCJGOCPB@?$AAJ?$AAu?$AAn?$AA?$AA@ 00000001800147e0     libucrt:nlsdata.obj
 0002:000027e8       ??_C@_17IJPCKHK@?$AAJ?$AAu?$AAl?$AA?$AA@ 00000001800147e8     libucrt:nlsdata.obj
 0002:000027f0       ??_C@_17ICPELBCN@?$AAA?$AAu?$AAg?$AA?$AA@ 00000001800147f0     libucrt:nlsdata.obj
 0002:000027f8       ??_C@_17HCHCOKMG@?$AAS?$AAe?$AAp?$AA?$AA@ 00000001800147f8     libucrt:nlsdata.obj
 0002:00002800       ??_C@_17FNLKOI@?$AAO?$AAc?$AAt?$AA?$AA@ 0000000180014800     libucrt:nlsdata.obj
 0002:00002808       ??_C@_17BBDMLCIG@?$AAN?$AAo?$AAv?$AA?$AA@ 0000000180014808     libucrt:nlsdata.obj
 0002:00002810       ??_C@_17EGKACKIF@?$AAD?$AAe?$AAc?$AA?$AA@ 0000000180014810     libucrt:nlsdata.obj
 0002:00002818       ??_C@_1BA@EFMEIEBA@?$AAJ?$AAa?$AAn?$AAu?$AAa?$AAr?$AAy?$AA?$AA@ 0000000180014818     libucrt:nlsdata.obj
 0002:00002828       ??_C@_1BC@JGDDFFAM@?$AAF?$AAe?$AAb?$AAr?$AAu?$AAa?$AAr?$AAy?$AA?$AA@ 0000000180014828     libucrt:nlsdata.obj
 0002:00002840       ??_C@_1M@IKEENEDF@?$AAM?$AAa?$AAr?$AAc?$AAh?$AA?$AA@ 0000000180014840     libucrt:nlsdata.obj
 0002:00002850       ??_C@_1M@GJNLMHFD@?$AAA?$AAp?$AAr?$AAi?$AAl?$AA?$AA@ 0000000180014850     libucrt:nlsdata.obj
 0002:00002860       ??_C@_19EPFLPGAP@?$AAJ?$AAu?$AAn?$AAe?$AA?$AA@ 0000000180014860     libucrt:nlsdata.obj
 0002:00002870       ??_C@_19BIFMLPCD@?$AAJ?$AAu?$AAl?$AAy?$AA?$AA@ 0000000180014870     libucrt:nlsdata.obj
 0002:00002880       ??_C@_1O@PAHLKOAC@?$AAA?$AAu?$AAg?$AAu?$AAs?$AAt?$AA?$AA@ 0000000180014880     libucrt:nlsdata.obj
 0002:00002890       ??_C@_1BE@DKAAMBJL@?$AAS?$AAe?$AAp?$AAt?$AAe?$AAm?$AAb?$AAe?$AAr?$AA?$AA@ 0000000180014890     libucrt:nlsdata.obj
 0002:000028a8       ??_C@_1BA@EPANDLNG@?$AAO?$AAc?$AAt?$AAo?$AAb?$AAe?$AAr?$AA?$AA@ 00000001800148a8     libucrt:nlsdata.obj
 0002:000028b8       ??_C@_1BC@BGLIFPF@?$AAN?$AAo?$AAv?$AAe?$AAm?$AAb?$AAe?$AAr?$AA?$AA@ 00000001800148b8     libucrt:nlsdata.obj
 0002:000028d0       ??_C@_1BC@FEMKIFH@?$AAD?$AAe?$AAc?$AAe?$AAm?$AAb?$AAe?$AAr?$AA?$AA@ 00000001800148d0     libucrt:nlsdata.obj
 0002:000028e4       ??_C@_15ODEHAHHF@?$AAA?$AAM?$AA?$AA@ 00000001800148e4     libucrt:nlsdata.obj
 0002:000028ec       ??_C@_15CLMNNGEL@?$AAP?$AAM?$AA?$AA@ 00000001800148ec     libucrt:nlsdata.obj
 0002:000028f8       ??_C@_1BC@IEBCMHCM@?$AAM?$AAM?$AA?1?$AAd?$AAd?$AA?1?$AAy?$AAy?$AA?$AA@ 00000001800148f8     libucrt:nlsdata.obj
 0002:00002910       ??_C@_1CI@KNAKOEBC@?$AAd?$AAd?$AAd?$AAd?$AA?0?$AA?5?$AAM?$AAM?$AAM?$AAM?$AA?5?$AAd?$AAd?$AA?0?$AA?5?$AAy?$AAy?$AAy?$AAy?$AA?$AA@ 0000000180014910     libucrt:nlsdata.obj
 0002:00002938       ??_C@_1BC@GDGBMEMK@?$AAH?$AAH?$AA?3?$AAm?$AAm?$AA?3?$AAs?$AAs?$AA?$AA@ 0000000180014938     libucrt:nlsdata.obj
 0002:00002950       ??_C@_1M@BMHNFIME@?$AAe?$AAn?$AA?9?$AAU?$AAS?$AA?$AA@ 0000000180014950     libucrt:nlsdata.obj
 0002:00002960       __newctype                 0000000180014960     libucrt:ctype.obj
 0002:00002c60       __newclmap                 0000000180014c60     libucrt:ctype.obj
 0002:00002de0       __newcumap                 0000000180014de0     libucrt:ctype.obj
 0002:00003da0       ??_C@_15EMKDOKLE@?$AAa?$AAr?$AA?$AA@ 0000000180015da0     libucrt:lcidtoname_downlevel.obj
 0002:00003da8       ??_C@_15KNPADPLH@?$AAb?$AAg?$AA?$AA@ 0000000180015da8     libucrt:lcidtoname_downlevel.obj
 0002:00003db0       ??_C@_15EDMHLDMO@?$AAc?$AAa?$AA?$AA@ 0000000180015db0     libucrt:lcidtoname_downlevel.obj
 0002:00003db8       ??_C@_1O@BPEAJADD@?$AAz?$AAh?$AA?9?$AAC?$AAH?$AAS?$AA?$AA@ 0000000180015db8     libucrt:lcidtoname_downlevel.obj
 0002:00003dc8       ??_C@_15LJNHCMNK@?$AAc?$AAs?$AA?$AA@ 0000000180015dc8     libucrt:lcidtoname_downlevel.obj
 0002:00003dd0       ??_C@_15FOMCIDHG@?$AAd?$AAa?$AA?$AA@ 0000000180015dd0     libucrt:lcidtoname_downlevel.obj
 0002:00003dd8       ??_C@_15NBKABECB@?$AAd?$AAe?$AA?$AA@ 0000000180015dd8     libucrt:lcidtoname_downlevel.obj
 0002:00003de0       ??_C@_15GHPEIIAO@?$AAe?$AAl?$AA?$AA@ 0000000180015de0     libucrt:lcidtoname_downlevel.obj
 0002:00003de8       ??_C@_15MNPNEAIF@?$AAe?$AAn?$AA?$AA@ 0000000180015de8     libucrt:lcidtoname_downlevel.obj
 0002:00003df0       ??_C@_15GPIOMPMH@?$AAe?$AAs?$AA?$AA@ 0000000180015df0     libucrt:lcidtoname_downlevel.obj
 0002:00003df8       ??_C@_15NGLOAKJC@?$AAf?$AAi?$AA?$AA@ 0000000180015df8     libucrt:lcidtoname_downlevel.obj
 0002:00003e00       ??_C@_15FBKGNKAM@?$AAf?$AAr?$AA?$AA@ 0000000180015e00     libucrt:lcidtoname_downlevel.obj
 0002:00003e08       ??_C@_15KGGCNEFK@?$AAh?$AAe?$AA?$AA@ 0000000180015e08     libucrt:lcidtoname_downlevel.obj
 0002:00003e10       ??_C@_15PGHLIDMF@?$AAh?$AAu?$AA?$AA@ 0000000180015e10     libucrt:lcidtoname_downlevel.obj
 0002:00003e18       ??_C@_15BIEMAPLM@?$AAi?$AAs?$AA?$AA@ 0000000180015e18     libucrt:lcidtoname_downlevel.obj
 0002:00003e20       ??_C@_15IFJLDHAF@?$AAi?$AAt?$AA?$AA@ 0000000180015e20     libucrt:lcidtoname_downlevel.obj
 0002:00003e28       ??_C@_15GEMIOCAG@?$AAj?$AAa?$AA?$AA@ 0000000180015e28     libucrt:lcidtoname_downlevel.obj
 0002:00003e30       ??_C@_15EPELEGJA@?$AAk?$AAo?$AA?$AA@ 0000000180015e30     libucrt:lcidtoname_downlevel.obj
 0002:00003e38       ??_C@_15NDDHIMN@?$AAn?$AAl?$AA?$AA@ 0000000180015e38     libucrt:lcidtoname_downlevel.obj
 0002:00003e40       ??_C@_15BPIGNHCD@?$AAn?$AAo?$AA?$AA@ 0000000180015e40     libucrt:lcidtoname_downlevel.obj
 0002:00003e48       ??_C@_15DEOPBLCG@?$AAp?$AAl?$AA?$AA@ 0000000180015e48     libucrt:lcidtoname_downlevel.obj
 0002:00003e50       ??_C@_15KBECGEFG@?$AAp?$AAt?$AA?$AA@ 0000000180015e50     libucrt:lcidtoname_downlevel.obj
 0002:00003e58       ??_C@_15GLJCBFMD@?$AAr?$AAo?$AA?$AA@ 0000000180015e58     libucrt:lcidtoname_downlevel.obj
 0002:00003e60       ??_C@_15FEDGKCDI@?$AAr?$AAu?$AA?$AA@ 0000000180015e60     libucrt:lcidtoname_downlevel.obj
 0002:00003e68       ??_C@_15GLKMLLHM@?$AAh?$AAr?$AA?$AA@ 0000000180015e68     libucrt:lcidtoname_downlevel.obj
 0002:00003e70       ??_C@_15CPKMFBDB@?$AAs?$AAk?$AA?$AA@ 0000000180015e70     libucrt:lcidtoname_downlevel.obj
 0002:00003e78       ??_C@_15BAAIOGMK@?$AAs?$AAq?$AA?$AA@ 0000000180015e78     libucrt:lcidtoname_downlevel.obj
 0002:00003e80       ??_C@_15INNPNOHD@?$AAs?$AAv?$AA?$AA@ 0000000180015e80     libucrt:lcidtoname_downlevel.obj
 0002:00003e88       ??_C@_15CABMMOGH@?$AAt?$AAh?$AA?$AA@ 0000000180015e88     libucrt:lcidtoname_downlevel.obj
 0002:00003e90       ??_C@_15BPLIHJJM@?$AAt?$AAr?$AA?$AA@ 0000000180015e90     libucrt:lcidtoname_downlevel.obj
 0002:00003e98       ??_C@_15NEOEKKDJ@?$AAu?$AAr?$AA?$AA@ 0000000180015e98     libucrt:lcidtoname_downlevel.obj
 0002:00003ea0       ??_C@_15NFICGAJK@?$AAi?$AAd?$AA?$AA@ 0000000180015ea0     libucrt:lcidtoname_downlevel.obj
 0002:00003ea8       ??_C@_15PJPFLCCM@?$AAu?$AAk?$AA?$AA@ 0000000180015ea8     libucrt:lcidtoname_downlevel.obj
 0002:00003eb0       ??_C@_15HPJPHDM@?$AAb?$AAe?$AA?$AA@ 0000000180015eb0     libucrt:lcidtoname_downlevel.obj
 0002:00003eb8       ??_C@_15LCHLGJII@?$AAs?$AAl?$AA?$AA@ 0000000180015eb8     libucrt:lcidtoname_downlevel.obj
 0002:00003ec0       ??_C@_15PCFJPHHO@?$AAe?$AAt?$AA?$AA@ 0000000180015ec0     libucrt:lcidtoname_downlevel.obj
 0002:00003ec8       ??_C@_15HPFPGODN@?$AAl?$AAv?$AA?$AA@ 0000000180015ec8     libucrt:lcidtoname_downlevel.obj
 0002:00003ed0       ??_C@_15NFFGKGLG@?$AAl?$AAt?$AA?$AA@ 0000000180015ed0     libucrt:lcidtoname_downlevel.obj
 0002:00003ed8       ??_C@_15BDAKCCHN@?$AAf?$AAa?$AA?$AA@ 0000000180015ed8     libucrt:lcidtoname_downlevel.obj
 0002:00003ee0       ??_C@_15NFGIAIAJ@?$AAv?$AAi?$AA?$AA@ 0000000180015ee0     libucrt:lcidtoname_downlevel.obj
 0002:00003ee8       ??_C@_15LMKNDMHN@?$AAh?$AAy?$AA?$AA@ 0000000180015ee8     libucrt:lcidtoname_downlevel.obj
 0002:00003ef0       ??_C@_15IJBHMCFL@?$AAa?$AAz?$AA?$AA@ 0000000180015ef0     libucrt:lcidtoname_downlevel.obj
 0002:00003ef8       ??_C@_15EKOFJABL@?$AAe?$AAu?$AA?$AA@ 0000000180015ef8     libucrt:lcidtoname_downlevel.obj
 0002:00003f00       ??_C@_15BGHADCNK@?$AAm?$AAk?$AA?$AA@ 0000000180015f00     libucrt:lcidtoname_downlevel.obj
 0002:00003f08       ??_C@_15JDNICKHM@?$AAa?$AAf?$AA?$AA@ 0000000180015f08     libucrt:lcidtoname_downlevel.obj
 0002:00003f10       ??_C@_15KPJEDBKD@?$AAk?$AAa?$AA?$AA@ 0000000180015f10     libucrt:lcidtoname_downlevel.obj
 0002:00003f18       ??_C@_15PDNFFFEO@?$AAf?$AAo?$AA?$AA@ 0000000180015f18     libucrt:lcidtoname_downlevel.obj
 0002:00003f20       ??_C@_15OMLEGLOC@?$AAh?$AAi?$AA?$AA@ 0000000180015f20     libucrt:lcidtoname_downlevel.obj
 0002:00003f28       ??_C@_15IDNNENKK@?$AAm?$AAs?$AA?$AA@ 0000000180015f28     libucrt:lcidtoname_downlevel.obj
 0002:00003f30       ??_C@_15MACJNBMH@?$AAk?$AAk?$AA?$AA@ 0000000180015f30     libucrt:lcidtoname_downlevel.obj
 0002:00003f38       ??_C@_15DKDJEOND@?$AAk?$AAy?$AA?$AA@ 0000000180015f38     libucrt:lcidtoname_downlevel.obj
 0002:00003f40       ??_C@_15DFGDLJBG@?$AAs?$AAw?$AA?$AA@ 0000000180015f40     libucrt:lcidtoname_downlevel.obj
 0002:00003f48       ??_C@_15BBFAICNG@?$AAu?$AAz?$AA?$AA@ 0000000180015f48     libucrt:lcidtoname_downlevel.obj
 0002:00003f50       ??_C@_15DKNDCGEA@?$AAt?$AAt?$AA?$AA@ 0000000180015f50     libucrt:lcidtoname_downlevel.obj
 0002:00003f58       ??_C@_15MGIFMDPL@?$AAp?$AAa?$AA?$AA@ 0000000180015f58     libucrt:lcidtoname_downlevel.obj
 0002:00003f60       ??_C@_15HCNDBBA@?$AAg?$AAu?$AA?$AA@ 0000000180015f60     libucrt:lcidtoname_downlevel.obj
 0002:00003f68       ??_C@_15FNBEIBON@?$AAt?$AAa?$AA?$AA@ 0000000180015f68     libucrt:lcidtoname_downlevel.obj
 0002:00003f70       ??_C@_15NCHGBGLK@?$AAt?$AAe?$AA?$AA@ 0000000180015f70     libucrt:lcidtoname_downlevel.obj
 0002:00003f78       ??_C@_15PHPHCBPF@?$AAk?$AAn?$AA?$AA@ 0000000180015f78     libucrt:lcidtoname_downlevel.obj
 0002:00003f80       ??_C@_15DLGBCKMP@?$AAm?$AAr?$AA?$AA@ 0000000180015f80     libucrt:lcidtoname_downlevel.obj
 0002:00003f88       ??_C@_15EABBLBFF@?$AAs?$AAa?$AA?$AA@ 0000000180015f88     libucrt:lcidtoname_downlevel.obj
 0002:00003f90       ??_C@_15CBKOMCOI@?$AAm?$AAn?$AA?$AA@ 0000000180015f90     libucrt:lcidtoname_downlevel.obj
 0002:00003f98       ??_C@_15CKDMCJAF@?$AAg?$AAl?$AA?$AA@ 0000000180015f98     libucrt:lcidtoname_downlevel.obj
 0002:00003fa0       ??_C@_17CNJFBPG@?$AAk?$AAo?$AAk?$AA?$AA@ 0000000180015fa0     libucrt:lcidtoname_downlevel.obj
 0002:00003fa8       ??_C@_17FFBJICPL@?$AAs?$AAy?$AAr?$AA?$AA@ 0000000180015fa8     libucrt:lcidtoname_downlevel.obj
 0002:00003fb0       ??_C@_17KPNDCPAF@?$AAd?$AAi?$AAv?$AA?$AA@ 0000000180015fb0     libucrt:lcidtoname_downlevel.obj
 0002:00003fb8       ??_C@_11LOCGONAA@?$AA?$AA@ 0000000180015fb8     libucrt:lcidtoname_downlevel.obj
 0002:00003fc0       ??_C@_1M@OKAHONE@?$AAa?$AAr?$AA?9?$AAS?$AAA?$AA?$AA@ 0000000180015fc0     libucrt:lcidtoname_downlevel.obj
 0002:00003fd0       ??_C@_1M@FFFIGIGK@?$AAb?$AAg?$AA?9?$AAB?$AAG?$AA?$AA@ 0000000180015fd0     libucrt:lcidtoname_downlevel.obj
 0002:00003fe0       ??_C@_1M@BJNKEDC@?$AAc?$AAa?$AA?9?$AAE?$AAS?$AA?$AA@ 0000000180015fe0     libucrt:lcidtoname_downlevel.obj
 0002:00003ff0       ??_C@_1M@IJJHFJHA@?$AAc?$AAs?$AA?9?$AAC?$AAZ?$AA?$AA@ 0000000180015ff0     libucrt:lcidtoname_downlevel.obj
 0002:00004000       ??_C@_1M@CLPEOBGI@?$AAd?$AAa?$AA?9?$AAD?$AAK?$AA?$AA@ 0000000180016000     libucrt:lcidtoname_downlevel.obj
 0002:00004010       ??_C@_1M@MCMADGCB@?$AAd?$AAe?$AA?9?$AAD?$AAE?$AA?$AA@ 0000000180016010     libucrt:lcidtoname_downlevel.obj
 0002:00004020       ??_C@_1M@OOCKEMAM@?$AAe?$AAl?$AA?9?$AAG?$AAR?$AA?$AA@ 0000000180016020     libucrt:lcidtoname_downlevel.obj
 0002:00004030       ??_C@_1M@DDNJFGID@?$AAf?$AAi?$AA?9?$AAF?$AAI?$AA?$AA@ 0000000180016030     libucrt:lcidtoname_downlevel.obj
 0002:00004040       ??_C@_1M@GLIPPMAC@?$AAf?$AAr?$AA?9?$AAF?$AAR?$AA?$AA@ 0000000180016040     libucrt:lcidtoname_downlevel.obj
 0002:00004050       ??_C@_1M@GFMCHPE@?$AAh?$AAe?$AA?9?$AAI?$AAL?$AA?$AA@ 0000000180016050     libucrt:lcidtoname_downlevel.obj
 0002:00004060       ??_C@_1M@MHLPGNKM@?$AAh?$AAu?$AA?9?$AAH?$AAU?$AA?$AA@ 0000000180016060     libucrt:lcidtoname_downlevel.obj
 0002:00004070       ??_C@_1M@LPDDNNPN@?$AAi?$AAs?$AA?9?$AAI?$AAS?$AA?$AA@ 0000000180016070     libucrt:lcidtoname_downlevel.obj
 0002:00004080       ??_C@_1M@MADIPODN@?$AAi?$AAt?$AA?9?$AAI?$AAT?$AA?$AA@ 0000000180016080     libucrt:lcidtoname_downlevel.obj
 0002:00004090       ??_C@_1M@IHBJJGG@?$AAn?$AAl?$AA?9?$AAN?$AAL?$AA?$AA@ 0000000180016090     libucrt:lcidtoname_downlevel.obj
 0002:000040a0       ??_C@_1M@EANAGDL@?$AAn?$AAb?$AA?9?$AAN?$AAO?$AA?$AA@ 00000001800160a0     libucrt:lcidtoname_downlevel.obj
 0002:000040b0       ??_C@_1M@NEIEMEGP@?$AAp?$AAl?$AA?9?$AAP?$AAL?$AA?$AA@ 00000001800160b0     libucrt:lcidtoname_downlevel.obj
 0002:000040c0       ??_C@_1M@BOCFIGEP@?$AAp?$AAt?$AA?9?$AAB?$AAR?$AA?$AA@ 00000001800160c0     libucrt:lcidtoname_downlevel.obj
 0002:000040d0       ??_C@_1M@IMPFOPBG@?$AAr?$AAo?$AA?9?$AAR?$AAO?$AA?$AA@ 00000001800160d0     libucrt:lcidtoname_downlevel.obj
 0002:000040e0       ??_C@_1M@IDNNEJMM@?$AAr?$AAu?$AA?9?$AAR?$AAU?$AA?$AA@ 00000001800160e0     libucrt:lcidtoname_downlevel.obj
 0002:000040f0       ??_C@_1M@LILEEOGM@?$AAh?$AAr?$AA?9?$AAH?$AAR?$AA?$AA@ 00000001800160f0     libucrt:lcidtoname_downlevel.obj
 0002:00004100       ??_C@_1M@FKIFEHPB@?$AAs?$AAk?$AA?9?$AAS?$AAK?$AA?$AA@ 0000000180016100     libucrt:lcidtoname_downlevel.obj
 0002:00004110       ??_C@_1M@LJMAMNPJ@?$AAs?$AAq?$AA?9?$AAA?$AAL?$AA?$AA@ 0000000180016110     libucrt:lcidtoname_downlevel.obj
 0002:00004120       ??_C@_1M@GIAKDKJK@?$AAs?$AAv?$AA?9?$AAS?$AAE?$AA?$AA@ 0000000180016120     libucrt:lcidtoname_downlevel.obj
 0002:00004130       ??_C@_1M@MKJKIKCL@?$AAt?$AAh?$AA?9?$AAT?$AAH?$AA?$AA@ 0000000180016130     libucrt:lcidtoname_downlevel.obj
 0002:00004140       ??_C@_1M@MFLCCMPB@?$AAt?$AAr?$AA?9?$AAT?$AAR?$AA?$AA@ 0000000180016140     libucrt:lcidtoname_downlevel.obj
 0002:00004150       ??_C@_1M@OIJHDKJN@?$AAu?$AAr?$AA?9?$AAP?$AAK?$AA?$AA@ 0000000180016150     libucrt:lcidtoname_downlevel.obj
 0002:00004160       ??_C@_1M@LHIPCIEK@?$AAi?$AAd?$AA?9?$AAI?$AAD?$AA?$AA@ 0000000180016160     libucrt:lcidtoname_downlevel.obj
 0002:00004170       ??_C@_1M@MFMOBGI@?$AAu?$AAk?$AA?9?$AAU?$AAA?$AA?$AA@ 0000000180016170     libucrt:lcidtoname_downlevel.obj
 0002:00004180       ??_C@_1M@OBGLJIPL@?$AAb?$AAe?$AA?9?$AAB?$AAY?$AA?$AA@ 0000000180016180     libucrt:lcidtoname_downlevel.obj
 0002:00004190       ??_C@_1M@BCFAJEAD@?$AAs?$AAl?$AA?9?$AAS?$AAI?$AA?$AA@ 0000000180016190     libucrt:lcidtoname_downlevel.obj
 0002:000041a0       ??_C@_1M@FKFFEDDN@?$AAe?$AAt?$AA?9?$AAE?$AAE?$AA?$AA@ 00000001800161a0     libucrt:lcidtoname_downlevel.obj
 0002:000041b0       ??_C@_1M@KGKKAACI@?$AAl?$AAv?$AA?9?$AAL?$AAV?$AA?$AA@ 00000001800161b0     libucrt:lcidtoname_downlevel.obj
 0002:000041c0       ??_C@_1M@IFGBIJO@?$AAl?$AAt?$AA?9?$AAL?$AAT?$AA?$AA@ 00000001800161c0     libucrt:lcidtoname_downlevel.obj
 0002:000041d0       ??_C@_1M@FGEAHEDM@?$AAf?$AAa?$AA?9?$AAI?$AAR?$AA?$AA@ 00000001800161d0     libucrt:lcidtoname_downlevel.obj
 0002:000041e0       ??_C@_1M@KBMAIBFN@?$AAv?$AAi?$AA?9?$AAV?$AAN?$AA?$AA@ 00000001800161e0     libucrt:lcidtoname_downlevel.obj
 0002:000041f0       ??_C@_1M@GPCBKDJK@?$AAh?$AAy?$AA?9?$AAA?$AAM?$AA?$AA@ 00000001800161f0     libucrt:lcidtoname_downlevel.obj
 0002:00004200       ??_C@_1BG@BECMDDJB@?$AAa?$AAz?$AA?9?$AAA?$AAZ?$AA?9?$AAL?$AAa?$AAt?$AAn?$AA?$AA@ 0000000180016200     libucrt:lcidtoname_downlevel.obj
 0002:00004218       ??_C@_1M@MAOFCAEA@?$AAe?$AAu?$AA?9?$AAE?$AAS?$AA?$AA@ 0000000180016218     libucrt:lcidtoname_downlevel.obj
 0002:00004228       ??_C@_1M@IGHABKPI@?$AAm?$AAk?$AA?9?$AAM?$AAK?$AA?$AA@ 0000000180016228     libucrt:lcidtoname_downlevel.obj
 0002:00004238       ??_C@_1M@IAIGNEJG@?$AAt?$AAn?$AA?9?$AAZ?$AAA?$AA?$AA@ 0000000180016238     libucrt:lcidtoname_downlevel.obj
 0002:00004248       ??_C@_1M@IIJCOJFA@?$AAx?$AAh?$AA?9?$AAZ?$AAA?$AA?$AA@ 0000000180016248     libucrt:lcidtoname_downlevel.obj
 0002:00004258       ??_C@_1M@LGPJHNJH@?$AAz?$AAu?$AA?9?$AAZ?$AAA?$AA?$AA@ 0000000180016258     libucrt:lcidtoname_downlevel.obj
 0002:00004268       ??_C@_1M@HOKAOIO@?$AAa?$AAf?$AA?9?$AAZ?$AAA?$AA?$AA@ 0000000180016268     libucrt:lcidtoname_downlevel.obj
 0002:00004278       ??_C@_1M@DPCLHLIE@?$AAk?$AAa?$AA?9?$AAG?$AAE?$AA?$AA@ 0000000180016278     libucrt:lcidtoname_downlevel.obj
 0002:00004288       ??_C@_1M@BLKMHJBI@?$AAf?$AAo?$AA?9?$AAF?$AAO?$AA?$AA@ 0000000180016288     libucrt:lcidtoname_downlevel.obj
 0002:00004298       ??_C@_1M@LGGJAPPB@?$AAh?$AAi?$AA?9?$AAI?$AAN?$AA?$AA@ 0000000180016298     libucrt:lcidtoname_downlevel.obj
 0002:000042a8       ??_C@_1M@FIKPIHFE@?$AAm?$AAt?$AA?9?$AAM?$AAT?$AA?$AA@ 00000001800162a8     libucrt:lcidtoname_downlevel.obj
 0002:000042b8       ??_C@_1M@HEGGPBFA@?$AAs?$AAe?$AA?9?$AAN?$AAO?$AA?$AA@ 00000001800162b8     libucrt:lcidtoname_downlevel.obj
 0002:000042c8       ??_C@_1M@EIBJEEPA@?$AAm?$AAs?$AA?9?$AAM?$AAY?$AA?$AA@ 00000001800162c8     libucrt:lcidtoname_downlevel.obj
 0002:000042d8       ??_C@_1M@FHLBGMPP@?$AAk?$AAk?$AA?9?$AAK?$AAZ?$AA?$AA@ 00000001800162d8     libucrt:lcidtoname_downlevel.obj
 0002:000042e8       ??_C@_1M@NGJJLCGI@?$AAk?$AAy?$AA?9?$AAK?$AAG?$AA?$AA@ 00000001800162e8     libucrt:lcidtoname_downlevel.obj
 0002:000042f8       ??_C@_1M@GIENNBFC@?$AAs?$AAw?$AA?9?$AAK?$AAE?$AA?$AA@ 00000001800162f8     libucrt:lcidtoname_downlevel.obj
 0002:00004308       ??_C@_1BG@NDGMJIMJ@?$AAu?$AAz?$AA?9?$AAU?$AAZ?$AA?9?$AAL?$AAa?$AAt?$AAn?$AA?$AA@ 0000000180016308     libucrt:lcidtoname_downlevel.obj
 0002:00004320       ??_C@_1M@IDCCIHBC@?$AAt?$AAt?$AA?9?$AAR?$AAU?$AA?$AA@ 0000000180016320     libucrt:lcidtoname_downlevel.obj
 0002:00004330       ??_C@_1M@LOICPMOJ@?$AAb?$AAn?$AA?9?$AAI?$AAN?$AA?$AA@ 0000000180016330     libucrt:lcidtoname_downlevel.obj
 0002:00004340       ??_C@_1M@KPKKNEAH@?$AAp?$AAa?$AA?9?$AAI?$AAN?$AA?$AA@ 0000000180016340     libucrt:lcidtoname_downlevel.obj
 0002:00004350       ??_C@_1M@PJGPPBOG@?$AAg?$AAu?$AA?9?$AAI?$AAN?$AA?$AA@ 0000000180016350     libucrt:lcidtoname_downlevel.obj
 0002:00004360       ??_C@_1M@KMKMOPHI@?$AAt?$AAa?$AA?9?$AAI?$AAN?$AA?$AA@ 0000000180016360     libucrt:lcidtoname_downlevel.obj
 0002:00004370       ??_C@_1M@KFEHEPAC@?$AAt?$AAe?$AA?9?$AAI?$AAN?$AA?$AA@ 0000000180016370     libucrt:lcidtoname_downlevel.obj
 0002:00004380       ??_C@_1M@CDCLMGHI@?$AAk?$AAn?$AA?9?$AAI?$AAN?$AA?$AA@ 0000000180016380     libucrt:lcidtoname_downlevel.obj
 0002:00004390       ??_C@_1M@MIODLDKF@?$AAm?$AAl?$AA?9?$AAI?$AAN?$AA?$AA@ 0000000180016390     libucrt:lcidtoname_downlevel.obj
 0002:000043a0       ??_C@_1M@PBIEACPO@?$AAm?$AAr?$AA?9?$AAI?$AAN?$AA?$AA@ 00000001800163a0     libucrt:lcidtoname_downlevel.obj
 0002:000043b0       ??_C@_1M@NIDEAGPH@?$AAs?$AAa?$AA?9?$AAI?$AAN?$AA?$AA@ 00000001800163b0     libucrt:lcidtoname_downlevel.obj
 0002:000043c0       ??_C@_1M@FHIHCBIO@?$AAm?$AAn?$AA?9?$AAM?$AAN?$AA?$AA@ 00000001800163c0     libucrt:lcidtoname_downlevel.obj
 0002:000043d0       ??_C@_1M@JAIJPENP@?$AAc?$AAy?$AA?9?$AAG?$AAB?$AA?$AA@ 00000001800163d0     libucrt:lcidtoname_downlevel.obj
 0002:000043e0       ??_C@_1M@PHGFBEPN@?$AAg?$AAl?$AA?9?$AAE?$AAS?$AA?$AA@ 00000001800163e0     libucrt:lcidtoname_downlevel.obj
 0002:000043f0       ??_C@_1O@KPIPDNCP@?$AAk?$AAo?$AAk?$AA?9?$AAI?$AAN?$AA?$AA@ 00000001800163f0     libucrt:lcidtoname_downlevel.obj
 0002:00004400       ??_C@_1O@KNHJLDJA@?$AAs?$AAy?$AAr?$AA?9?$AAS?$AAY?$AA?$AA@ 0000000180016400     libucrt:lcidtoname_downlevel.obj
 0002:00004410       ??_C@_1O@MKEKBLAH@?$AAd?$AAi?$AAv?$AA?9?$AAM?$AAV?$AA?$AA@ 0000000180016410     libucrt:lcidtoname_downlevel.obj
 0002:00004420       ??_C@_1O@OHDCKDDF@?$AAq?$AAu?$AAz?$AA?9?$AAB?$AAO?$AA?$AA@ 0000000180016420     libucrt:lcidtoname_downlevel.obj
 0002:00004430       ??_C@_1M@LEPJNLFD@?$AAn?$AAs?$AA?9?$AAZ?$AAA?$AA?$AA@ 0000000180016430     libucrt:lcidtoname_downlevel.obj
 0002:00004440       ??_C@_1M@OMLEIIJB@?$AAm?$AAi?$AA?9?$AAN?$AAZ?$AA?$AA@ 0000000180016440     libucrt:lcidtoname_downlevel.obj
 0002:00004450       ??_C@_1M@PMPEAILG@?$AAa?$AAr?$AA?9?$AAI?$AAQ?$AA?$AA@ 0000000180016450     libucrt:lcidtoname_downlevel.obj
 0002:00004460       ??_C@_1M@CNKPNOEE@?$AAd?$AAe?$AA?9?$AAC?$AAH?$AA?$AA@ 0000000180016460     libucrt:lcidtoname_downlevel.obj
 0002:00004470       ??_C@_1M@LKMGMLKO@?$AAe?$AAn?$AA?9?$AAG?$AAB?$AA?$AA@ 0000000180016470     libucrt:lcidtoname_downlevel.obj
 0002:00004480       ??_C@_1M@PGKJFFGL@?$AAe?$AAs?$AA?9?$AAM?$AAX?$AA?$AA@ 0000000180016480     libucrt:lcidtoname_downlevel.obj
 0002:00004490       ??_C@_1M@DNNANBDC@?$AAf?$AAr?$AA?9?$AAB?$AAE?$AA?$AA@ 0000000180016490     libucrt:lcidtoname_downlevel.obj
 0002:000044a0       ??_C@_1M@HLGMDFHM@?$AAi?$AAt?$AA?9?$AAC?$AAH?$AA?$AA@ 00000001800164a0     libucrt:lcidtoname_downlevel.obj
 0002:000044b0       ??_C@_1M@CLLBGJH@?$AAn?$AAl?$AA?9?$AAB?$AAE?$AA?$AA@ 00000001800164b0     libucrt:lcidtoname_downlevel.obj
 0002:000044c0       ??_C@_1M@BODBOGLF@?$AAn?$AAn?$AA?9?$AAN?$AAO?$AA?$AA@ 00000001800164c0     libucrt:lcidtoname_downlevel.obj
 0002:000044d0       ??_C@_1M@HFFAHKAD@?$AAp?$AAt?$AA?9?$AAP?$AAT?$AA?$AA@ 00000001800164d0     libucrt:lcidtoname_downlevel.obj
 0002:000044e0       ??_C@_1BG@LNOAKHIE@?$AAs?$AAr?$AA?9?$AAS?$AAP?$AA?9?$AAL?$AAa?$AAt?$AAn?$AA?$AA@ 00000001800164e0     libucrt:lcidtoname_downlevel.obj
 0002:000044f8       ??_C@_1M@HBMHBGAK@?$AAs?$AAv?$AA?9?$AAF?$AAI?$AA?$AA@ 00000001800164f8     libucrt:lcidtoname_downlevel.obj
 0002:00004508       ??_C@_1BG@DGCJGJBE@?$AAa?$AAz?$AA?9?$AAA?$AAZ?$AA?9?$AAC?$AAy?$AAr?$AAl?$AA?$AA@ 0000000180016508     libucrt:lcidtoname_downlevel.obj
 0002:00004520       ??_C@_1M@KEJDAAHB@?$AAs?$AAe?$AA?9?$AAS?$AAE?$AA?$AA@ 0000000180016520     libucrt:lcidtoname_downlevel.obj
 0002:00004530       ??_C@_1M@HEIBJJAD@?$AAm?$AAs?$AA?9?$AAB?$AAN?$AA?$AA@ 0000000180016530     libucrt:lcidtoname_downlevel.obj
 0002:00004540       ??_C@_1BG@PBGJMCEM@?$AAu?$AAz?$AA?9?$AAU?$AAZ?$AA?9?$AAC?$AAy?$AAr?$AAl?$AA?$AA@ 0000000180016540     libucrt:lcidtoname_downlevel.obj
 0002:00004558       ??_C@_1O@LAOBCMDF@?$AAq?$AAu?$AAz?$AA?9?$AAE?$AAC?$AA?$AA@ 0000000180016558     libucrt:lcidtoname_downlevel.obj
 0002:00004568       ??_C@_1M@POEEMAIO@?$AAa?$AAr?$AA?9?$AAE?$AAG?$AA?$AA@ 0000000180016568     libucrt:lcidtoname_downlevel.obj
 0002:00004578       ??_C@_1M@EFAKDEDL@?$AAz?$AAh?$AA?9?$AAH?$AAK?$AA?$AA@ 0000000180016578     libucrt:lcidtoname_downlevel.obj
 0002:00004588       ??_C@_1M@HKKIJHGI@?$AAd?$AAe?$AA?9?$AAA?$AAT?$AA?$AA@ 0000000180016588     libucrt:lcidtoname_downlevel.obj
 0002:00004598       ??_C@_1M@KBFBEHJF@?$AAe?$AAn?$AA?9?$AAA?$AAU?$AA?$AA@ 0000000180016598     libucrt:lcidtoname_downlevel.obj
 0002:000045a8       ??_C@_1M@MNPLFAAH@?$AAe?$AAs?$AA?9?$AAE?$AAS?$AA?$AA@ 00000001800165a8     libucrt:lcidtoname_downlevel.obj
 0002:000045b8       ??_C@_1M@HJOOJFMA@?$AAf?$AAr?$AA?9?$AAC?$AAA?$AA?$AA@ 00000001800165b8     libucrt:lcidtoname_downlevel.obj
 0002:000045c8       ??_C@_1BG@JPOFPNAB@?$AAs?$AAr?$AA?9?$AAS?$AAP?$AA?9?$AAC?$AAy?$AAr?$AAl?$AA?$AA@ 00000001800165c8     libucrt:lcidtoname_downlevel.obj
 0002:000045e0       ??_C@_1M@LNFOCMOB@?$AAs?$AAe?$AA?9?$AAF?$AAI?$AA?$AA@ 00000001800165e0     libucrt:lcidtoname_downlevel.obj
 0002:000045f0       ??_C@_1O@MGJBOAMB@?$AAq?$AAu?$AAz?$AA?9?$AAP?$AAE?$AA?$AA@ 00000001800165f0     libucrt:lcidtoname_downlevel.obj
 0002:00004600       ??_C@_1M@GJINLBOK@?$AAa?$AAr?$AA?9?$AAL?$AAY?$AA?$AA@ 0000000180016600     libucrt:lcidtoname_downlevel.obj
 0002:00004610       ??_C@_1M@GGMNHJNL@?$AAz?$AAh?$AA?9?$AAS?$AAG?$AA?$AA@ 0000000180016610     libucrt:lcidtoname_downlevel.obj
 0002:00004620       ??_C@_1M@HOIKODND@?$AAd?$AAe?$AA?9?$AAL?$AAU?$AA?$AA@ 0000000180016620     libucrt:lcidtoname_downlevel.obj
 0002:00004630       ??_C@_1M@DDOCCGFG@?$AAe?$AAn?$AA?9?$AAC?$AAA?$AA?$AA@ 0000000180016630     libucrt:lcidtoname_downlevel.obj
 0002:00004640       ??_C@_1M@BNOEMJLF@?$AAe?$AAs?$AA?9?$AAG?$AAT?$AA?$AA@ 0000000180016640     libucrt:lcidtoname_downlevel.obj
 0002:00004650       ??_C@_1M@EOGNKEK@?$AAf?$AAr?$AA?9?$AAC?$AAH?$AA?$AA@ 0000000180016650     libucrt:lcidtoname_downlevel.obj
 0002:00004660       ??_C@_1M@FLIDJFHL@?$AAh?$AAr?$AA?9?$AAB?$AAA?$AA?$AA@ 0000000180016660     libucrt:lcidtoname_downlevel.obj
 0002:00004670       ??_C@_1O@FMCELNAJ@?$AAs?$AAm?$AAj?$AA?9?$AAN?$AAO?$AA?$AA@ 0000000180016670     libucrt:lcidtoname_downlevel.obj
 0002:00004680       ??_C@_1M@JHGLJMGJ@?$AAa?$AAr?$AA?9?$AAD?$AAZ?$AA?$AA@ 0000000180016680     libucrt:lcidtoname_downlevel.obj
 0002:00004690       ??_C@_1M@JKKFDCNP@?$AAz?$AAh?$AA?9?$AAM?$AAO?$AA?$AA@ 0000000180016690     libucrt:lcidtoname_downlevel.obj
 0002:000046a0       ??_C@_1M@GEEFALPE@?$AAd?$AAe?$AA?9?$AAL?$AAI?$AA?$AA@ 00000001800166a0     libucrt:lcidtoname_downlevel.obj
 0002:000046b0       ??_C@_1M@IGEOFBG@?$AAe?$AAn?$AA?9?$AAN?$AAZ?$AA?$AA@ 00000001800166b0     libucrt:lcidtoname_downlevel.obj
 0002:000046c0       ??_C@_1M@KDBONEHP@?$AAe?$AAs?$AA?9?$AAC?$AAR?$AA?$AA@ 00000001800166c0     libucrt:lcidtoname_downlevel.obj
 0002:000046d0       ??_C@_1M@FHMDOHNN@?$AAf?$AAr?$AA?9?$AAL?$AAU?$AA?$AA@ 00000001800166d0     libucrt:lcidtoname_downlevel.obj
 0002:000046e0       ??_C@_1BG@NFKKMAFG@?$AAb?$AAs?$AA?9?$AAB?$AAA?$AA?9?$AAL?$AAa?$AAt?$AAn?$AA?$AA@ 00000001800166e0     libucrt:lcidtoname_downlevel.obj
 0002:000046f8       ??_C@_1O@IMNBEMCI@?$AAs?$AAm?$AAj?$AA?9?$AAS?$AAE?$AA?$AA@ 00000001800166f8     libucrt:lcidtoname_downlevel.obj
 0002:00004708       ??_C@_1M@DHHMBNDP@?$AAa?$AAr?$AA?9?$AAM?$AAA?$AA?$AA@ 0000000180016708     libucrt:lcidtoname_downlevel.obj
 0002:00004718       ??_C@_1M@BNBLJCGH@?$AAe?$AAn?$AA?9?$AAI?$AAE?$AA?$AA@ 0000000180016718     libucrt:lcidtoname_downlevel.obj
 0002:00004728       ??_C@_1M@GEPAFMDL@?$AAe?$AAs?$AA?9?$AAP?$AAA?$AA?$AA@ 0000000180016728     libucrt:lcidtoname_downlevel.obj
 0002:00004738       ??_C@_1M@OJONDMDL@?$AAf?$AAr?$AA?9?$AAM?$AAC?$AA?$AA@ 0000000180016738     libucrt:lcidtoname_downlevel.obj
 0002:00004748       ??_C@_1BG@OBCNFJB@?$AAs?$AAr?$AA?9?$AAB?$AAA?$AA?9?$AAL?$AAa?$AAt?$AAn?$AA?$AA@ 0000000180016748     libucrt:lcidtoname_downlevel.obj
 0002:00004760       ??_C@_1O@KEMEEGPO@?$AAs?$AAm?$AAa?$AA?9?$AAN?$AAO?$AA?$AA@ 0000000180016760     libucrt:lcidtoname_downlevel.obj
 0002:00004770       ??_C@_1M@ELMGFODK@?$AAa?$AAr?$AA?9?$AAT?$AAN?$AA?$AA@ 0000000180016770     libucrt:lcidtoname_downlevel.obj
 0002:00004780       ??_C@_1M@BHDLHFAF@?$AAe?$AAn?$AA?9?$AAZ?$AAA?$AA?$AA@ 0000000180016780     libucrt:lcidtoname_downlevel.obj
 0002:00004790       ??_C@_1M@BMGIGLIF@?$AAe?$AAs?$AA?9?$AAD?$AAO?$AA?$AA@ 0000000180016790     libucrt:lcidtoname_downlevel.obj
 0002:000047a0       ??_C@_1BG@CMBHIPBE@?$AAs?$AAr?$AA?9?$AAB?$AAA?$AA?9?$AAC?$AAy?$AAr?$AAl?$AA?$AA@ 00000001800167a0     libucrt:lcidtoname_downlevel.obj
 0002:000047b8       ??_C@_1O@HEDBLHNP@?$AAs?$AAm?$AAa?$AA?9?$AAS?$AAE?$AA?$AA@ 00000001800167b8     libucrt:lcidtoname_downlevel.obj
 0002:000047c8       ??_C@_1M@DAGCADIM@?$AAa?$AAr?$AA?9?$AAO?$AAM?$AA?$AA@ 00000001800167c8     libucrt:lcidtoname_downlevel.obj
 0002:000047d8       ??_C@_1M@FODLMICG@?$AAe?$AAn?$AA?9?$AAJ?$AAM?$AA?$AA@ 00000001800167d8     libucrt:lcidtoname_downlevel.obj
 0002:000047e8       ??_C@_1M@DNMLCIHB@?$AAe?$AAs?$AA?9?$AAV?$AAE?$AA?$AA@ 00000001800167e8     libucrt:lcidtoname_downlevel.obj
 0002:000047f8       ??_C@_1O@EOKHMKJK@?$AAs?$AAm?$AAs?$AA?9?$AAF?$AAI?$AA?$AA@ 00000001800167f8     libucrt:lcidtoname_downlevel.obj
 0002:00004808       ??_C@_1M@CAFJMKOF@?$AAa?$AAr?$AA?9?$AAY?$AAE?$AA?$AA@ 0000000180016808     libucrt:lcidtoname_downlevel.obj
 0002:00004818       ??_C@_1M@CBFHIJLI@?$AAe?$AAn?$AA?9?$AAC?$AAB?$AA?$AA@ 0000000180016818     libucrt:lcidtoname_downlevel.obj
 0002:00004828       ??_C@_1M@BGNFLDN@?$AAe?$AAs?$AA?9?$AAC?$AAO?$AA?$AA@ 0000000180016828     libucrt:lcidtoname_downlevel.obj
 0002:00004838       ??_C@_1O@JMPHMAMC@?$AAs?$AAm?$AAn?$AA?9?$AAF?$AAI?$AA?$AA@ 0000000180016838     libucrt:lcidtoname_downlevel.obj
 0002:00004848       ??_C@_1M@JLANABKE@?$AAa?$AAr?$AA?9?$AAS?$AAY?$AA?$AA@ 0000000180016848     libucrt:lcidtoname_downlevel.obj
 0002:00004858       ??_C@_1M@HPKGCFGN@?$AAe?$AAn?$AA?9?$AAB?$AAZ?$AA?$AA@ 0000000180016858     libucrt:lcidtoname_downlevel.obj
 0002:00004868       ??_C@_1M@OLJCMLGM@?$AAe?$AAs?$AA?9?$AAP?$AAE?$AA?$AA@ 0000000180016868     libucrt:lcidtoname_downlevel.obj
 0002:00004878       ??_C@_1M@MKKGFKLE@?$AAa?$AAr?$AA?9?$AAJ?$AAO?$AA?$AA@ 0000000180016878     libucrt:lcidtoname_downlevel.obj
 0002:00004888       ??_C@_1M@EKPGLDNI@?$AAe?$AAn?$AA?9?$AAT?$AAT?$AA?$AA@ 0000000180016888     libucrt:lcidtoname_downlevel.obj
 0002:00004898       ??_C@_1M@OONGHFHE@?$AAe?$AAs?$AA?9?$AAA?$AAR?$AA?$AA@ 0000000180016898     libucrt:lcidtoname_downlevel.obj
 0002:000048a8       ??_C@_1M@OOJFGBHE@?$AAa?$AAr?$AA?9?$AAL?$AAB?$AA?$AA@ 00000001800168a8     libucrt:lcidtoname_downlevel.obj
 0002:000048b8       ??_C@_1M@GCEJHNEG@?$AAe?$AAn?$AA?9?$AAZ?$AAW?$AA?$AA@ 00000001800168b8     libucrt:lcidtoname_downlevel.obj
 0002:000048c8       ??_C@_1M@JNOCAHJI@?$AAe?$AAs?$AA?9?$AAE?$AAC?$AA?$AA@ 00000001800168c8     libucrt:lcidtoname_downlevel.obj
 0002:000048d8       ??_C@_1M@JEFHPGGB@?$AAa?$AAr?$AA?9?$AAK?$AAW?$AA?$AA@ 00000001800168d8     libucrt:lcidtoname_downlevel.obj
 0002:000048e8       ??_C@_1M@MLKIBJOJ@?$AAe?$AAn?$AA?9?$AAP?$AAH?$AA?$AA@ 00000001800168e8     libucrt:lcidtoname_downlevel.obj
 0002:000048f8       ??_C@_1M@BDNIPEND@?$AAe?$AAs?$AA?9?$AAC?$AAL?$AA?$AA@ 00000001800168f8     libucrt:lcidtoname_downlevel.obj
 0002:00004908       ??_C@_1M@MPNMEKBD@?$AAa?$AAr?$AA?9?$AAA?$AAE?$AA?$AA@ 0000000180016908     libucrt:lcidtoname_downlevel.obj
 0002:00004918       ??_C@_1M@KBJALCPI@?$AAe?$AAs?$AA?9?$AAU?$AAY?$AA?$AA@ 0000000180016918     libucrt:lcidtoname_downlevel.obj
 0002:00004928       ??_C@_1M@LLCCOAGA@?$AAa?$AAr?$AA?9?$AAB?$AAH?$AA?$AA@ 0000000180016928     libucrt:lcidtoname_downlevel.obj
 0002:00004938       ??_C@_1M@PBFNCDEL@?$AAe?$AAs?$AA?9?$AAP?$AAY?$AA?$AA@ 0000000180016938     libucrt:lcidtoname_downlevel.obj
 0002:00004948       ??_C@_1M@EDGINPNP@?$AAa?$AAr?$AA?9?$AAQ?$AAA?$AA?$AA@ 0000000180016948     libucrt:lcidtoname_downlevel.obj
 0002:00004958       ??_C@_1M@MKDBIIJI@?$AAe?$AAs?$AA?9?$AAB?$AAO?$AA?$AA@ 0000000180016958     libucrt:lcidtoname_downlevel.obj
 0002:00004968       ??_C@_1M@CPKKEBLD@?$AAe?$AAs?$AA?9?$AAS?$AAV?$AA?$AA@ 0000000180016968     libucrt:lcidtoname_downlevel.obj
 0002:00004978       ??_C@_1M@NDBGMMJL@?$AAe?$AAs?$AA?9?$AAH?$AAN?$AA?$AA@ 0000000180016978     libucrt:lcidtoname_downlevel.obj
 0002:00004988       ??_C@_1M@JIJIBHDP@?$AAe?$AAs?$AA?9?$AAN?$AAI?$AA?$AA@ 0000000180016988     libucrt:lcidtoname_downlevel.obj
 0002:00004998       ??_C@_1M@CGFMKEEK@?$AAe?$AAs?$AA?9?$AAP?$AAR?$AA?$AA@ 0000000180016998     libucrt:lcidtoname_downlevel.obj
 0002:000049a8       ??_C@_1O@ICJHKIIK@?$AAz?$AAh?$AA?9?$AAC?$AAH?$AAT?$AA?$AA@ 00000001800169a8     libucrt:lcidtoname_downlevel.obj
 0002:000049b8       ??_C@_15CLNEJCE@?$AAs?$AAr?$AA?$AA@ 00000001800169b8     libucrt:lcidtoname_downlevel.obj
 0002:00005800       ??_C@_1M@KAHEKEIG@?$AAa?$AAf?$AA?9?$AAz?$AAa?$AA?$AA@ 0000000180017800     libucrt:lcidtoname_downlevel.obj
 0002:00005810       ??_C@_1M@GIECOABL@?$AAa?$AAr?$AA?9?$AAa?$AAe?$AA?$AA@ 0000000180017810     libucrt:lcidtoname_downlevel.obj
 0002:00005820       ??_C@_1M@BMLMEKGI@?$AAa?$AAr?$AA?9?$AAb?$AAh?$AA?$AA@ 0000000180017820     libucrt:lcidtoname_downlevel.obj
 0002:00005830       ??_C@_1M@DAPFDGGB@?$AAa?$AAr?$AA?9?$AAd?$AAz?$AA?$AA@ 0000000180017830     libucrt:lcidtoname_downlevel.obj
 0002:00005840       ??_C@_1M@FJNKGKIG@?$AAa?$AAr?$AA?9?$AAe?$AAg?$AA?$AA@ 0000000180017840     libucrt:lcidtoname_downlevel.obj
 0002:00005850       ??_C@_1M@FLGKKCLO@?$AAa?$AAr?$AA?9?$AAi?$AAq?$AA?$AA@ 0000000180017850     libucrt:lcidtoname_downlevel.obj
 0002:00005860       ??_C@_1M@GNDIPALM@?$AAa?$AAr?$AA?9?$AAj?$AAo?$AA?$AA@ 0000000180017860     libucrt:lcidtoname_downlevel.obj
 0002:00005870       ??_C@_1M@DDMJFMGJ@?$AAa?$AAr?$AA?9?$AAk?$AAw?$AA?$AA@ 0000000180017870     libucrt:lcidtoname_downlevel.obj
 0002:00005880       ??_C@_1M@EJALMLHM@?$AAa?$AAr?$AA?9?$AAl?$AAb?$AA?$AA@ 0000000180017880     libucrt:lcidtoname_downlevel.obj
 0002:00005890       ??_C@_1M@MOBDBLOC@?$AAa?$AAr?$AA?9?$AAl?$AAy?$AA?$AA@ 0000000180017890     libucrt:lcidtoname_downlevel.obj
 0002:000058a0       ??_C@_1M@JAOCLHDH@?$AAa?$AAr?$AA?9?$AAm?$AAa?$AA?$AA@ 00000001800178a0     libucrt:lcidtoname_downlevel.obj
 0002:000058b0       ??_C@_1M@JHPMKJIE@?$AAa?$AAr?$AA?9?$AAo?$AAm?$AA?$AA@ 00000001800178b0     libucrt:lcidtoname_downlevel.obj
 0002:000058c0       ??_C@_1M@OEPGHFNH@?$AAa?$AAr?$AA?9?$AAq?$AAa?$AA?$AA@ 00000001800178c0     libucrt:lcidtoname_downlevel.obj
 0002:000058d0       ??_C@_1M@KJDONENM@?$AAa?$AAr?$AA?9?$AAs?$AAa?$AA?$AA@ 00000001800178d0     libucrt:lcidtoname_downlevel.obj
 0002:000058e0       ??_C@_1M@DMJDKLKM@?$AAa?$AAr?$AA?9?$AAs?$AAy?$AA?$AA@ 00000001800178e0     libucrt:lcidtoname_downlevel.obj
 0002:000058f0       ??_C@_1M@OMFIPEDC@?$AAa?$AAr?$AA?9?$AAt?$AAn?$AA?$AA@ 00000001800178f0     libucrt:lcidtoname_downlevel.obj
 0002:00005900       ??_C@_1M@IHMHGAON@?$AAa?$AAr?$AA?9?$AAy?$AAe?$AA?$AA@ 0000000180017900     libucrt:lcidtoname_downlevel.obj
 0002:00005910       ??_C@_1BG@KDCPGJGB@?$AAa?$AAz?$AA?9?$AAa?$AAz?$AA?9?$AAc?$AAy?$AAr?$AAl?$AA?$AA@ 0000000180017910     libucrt:lcidtoname_downlevel.obj
 0002:00005928       ??_C@_1BG@IBCKDDOE@?$AAa?$AAz?$AA?9?$AAa?$AAz?$AA?9?$AAl?$AAa?$AAt?$AAn?$AA?$AA@ 0000000180017928     libucrt:lcidtoname_downlevel.obj
 0002:00005940       ??_C@_1M@EGPFDCPD@?$AAb?$AAe?$AA?9?$AAb?$AAy?$AA?$AA@ 0000000180017940     libucrt:lcidtoname_downlevel.obj
 0002:00005950       ??_C@_1M@PCMGMCGC@?$AAb?$AAg?$AA?9?$AAb?$AAg?$AA?$AA@ 0000000180017950     libucrt:lcidtoname_downlevel.obj
 0002:00005960       ??_C@_1M@BJBMFGOB@?$AAb?$AAn?$AA?9?$AAi?$AAn?$AA?$AA@ 0000000180017960     libucrt:lcidtoname_downlevel.obj
 0002:00005970       ??_C@_1BG@EAKMMACD@?$AAb?$AAs?$AA?9?$AAb?$AAa?$AA?9?$AAl?$AAa?$AAt?$AAn?$AA?$AA@ 0000000180017970     libucrt:lcidtoname_downlevel.obj
 0002:00005988       ??_C@_1M@KGADAODK@?$AAc?$AAa?$AA?9?$AAe?$AAs?$AA?$AA@ 0000000180017988     libucrt:lcidtoname_downlevel.obj
 0002:00005998       ??_C@_1M@COAJPDHI@?$AAc?$AAs?$AA?9?$AAc?$AAz?$AA?$AA@ 0000000180017998     libucrt:lcidtoname_downlevel.obj
 0002:000059a8       ??_C@_1M@DHBHFONH@?$AAc?$AAy?$AA?9?$AAg?$AAb?$AA?$AA@ 00000001800179a8     libucrt:lcidtoname_downlevel.obj
 0002:000059b8       ??_C@_1M@IMGKELGA@?$AAd?$AAa?$AA?9?$AAd?$AAk?$AA?$AA@ 00000001800179b8     libucrt:lcidtoname_downlevel.obj
 0002:000059c8       ??_C@_1M@NNDGDNGA@?$AAd?$AAe?$AA?9?$AAa?$AAt?$AA?$AA@ 00000001800179c8     libucrt:lcidtoname_downlevel.obj
 0002:000059d8       ??_C@_1M@IKDBHEEM@?$AAd?$AAe?$AA?9?$AAc?$AAh?$AA?$AA@ 00000001800179d8     libucrt:lcidtoname_downlevel.obj
 0002:000059e8       ??_C@_1M@GFFOJMCJ@?$AAd?$AAe?$AA?9?$AAd?$AAe?$AA?$AA@ 00000001800179e8     libucrt:lcidtoname_downlevel.obj
 0002:000059f8       ??_C@_1M@MDNLKBPM@?$AAd?$AAe?$AA?9?$AAl?$AAi?$AA?$AA@ 00000001800179f8     libucrt:lcidtoname_downlevel.obj
 0002:00005a08       ??_C@_1M@NJBEEJNL@?$AAd?$AAe?$AA?9?$AAl?$AAu?$AA?$AA@ 0000000180017a08     libucrt:lcidtoname_downlevel.obj
 0002:00005a18       ??_C@_1O@GNNELBAP@?$AAd?$AAi?$AAv?$AA?9?$AAm?$AAv?$AA?$AA@ 0000000180017a18     libucrt:lcidtoname_downlevel.obj
 0002:00005a28       ??_C@_1M@EJLEOGAE@?$AAe?$AAl?$AA?9?$AAg?$AAr?$AA?$AA@ 0000000180017a28     libucrt:lcidtoname_downlevel.obj
 0002:00005a38       ??_C@_1M@GMPONJN@?$AAe?$AAn?$AA?9?$AAa?$AAu?$AA?$AA@ 0000000180017a38     libucrt:lcidtoname_downlevel.obj
 0002:00005a48       ??_C@_1M@NIDIIPGF@?$AAe?$AAn?$AA?9?$AAb?$AAz?$AA?$AA@ 0000000180017a48     libucrt:lcidtoname_downlevel.obj
 0002:00005a58       ??_C@_1M@JEHMIMFO@?$AAe?$AAn?$AA?9?$AAc?$AAa?$AA?$AA@ 0000000180017a58     libucrt:lcidtoname_downlevel.obj
 0002:00005a68       ??_C@_1M@IGMJCDLA@?$AAe?$AAn?$AA?9?$AAc?$AAb?$AA?$AA@ 0000000180017a68     libucrt:lcidtoname_downlevel.obj
 0002:00005a78       ??_C@_1M@BNFIGBKG@?$AAe?$AAn?$AA?9?$AAg?$AAb?$AA?$AA@ 0000000180017a78     libucrt:lcidtoname_downlevel.obj
 0002:00005a88       ??_C@_1M@LKIFDIGP@?$AAe?$AAn?$AA?9?$AAi?$AAe?$AA?$AA@ 0000000180017a88     libucrt:lcidtoname_downlevel.obj
 0002:00005a98       ??_C@_1M@PJKFGCCO@?$AAe?$AAn?$AA?9?$AAj?$AAm?$AA?$AA@ 0000000180017a98     libucrt:lcidtoname_downlevel.obj
 0002:00005aa8       ??_C@_1M@KPPKEPBO@?$AAe?$AAn?$AA?9?$AAn?$AAz?$AA?$AA@ 0000000180017aa8     libucrt:lcidtoname_downlevel.obj
 0002:00005ab8       ??_C@_1M@GMDGLDOB@?$AAe?$AAn?$AA?9?$AAp?$AAh?$AA?$AA@ 0000000180017ab8     libucrt:lcidtoname_downlevel.obj
 0002:00005ac8       ??_C@_1M@ONGIBJNA@?$AAe?$AAn?$AA?9?$AAt?$AAt?$AA?$AA@ 0000000180017ac8     libucrt:lcidtoname_downlevel.obj
 0002:00005ad8       ??_C@_1M@LLODPCMM@?$AAe?$AAn?$AA?9?$AAu?$AAs?$AA?$AA@ 0000000180017ad8     libucrt:lcidtoname_downlevel.obj
 0002:00005ae8       ??_C@_1M@LAKFNPAN@?$AAe?$AAn?$AA?9?$AAz?$AAa?$AA?$AA@ 0000000180017ae8     libucrt:lcidtoname_downlevel.obj
 0002:00005af8       ??_C@_1M@MFNHNHEO@?$AAe?$AAn?$AA?9?$AAz?$AAw?$AA?$AA@ 0000000180017af8     libucrt:lcidtoname_downlevel.obj
 0002:00005b08       ??_C@_1M@EJEINPHM@?$AAe?$AAs?$AA?9?$AAa?$AAr?$AA?$AA@ 0000000180017b08     libucrt:lcidtoname_downlevel.obj
 0002:00005b18       ??_C@_1M@GNKPCCJA@?$AAe?$AAs?$AA?9?$AAb?$AAo?$AA?$AA@ 0000000180017b18     libucrt:lcidtoname_downlevel.obj
 0002:00005b28       ??_C@_1M@LEEGFONL@?$AAe?$AAs?$AA?9?$AAc?$AAl?$AA?$AA@ 0000000180017b28     libucrt:lcidtoname_downlevel.obj
 0002:00005b38       ??_C@_1M@KGPDPBDF@?$AAe?$AAs?$AA?9?$AAc?$AAo?$AA?$AA@ 0000000180017b38     libucrt:lcidtoname_downlevel.obj
 0002:00005b48       ??_C@_1M@EIAHOHH@?$AAe?$AAs?$AA?9?$AAc?$AAr?$AA?$AA@ 0000000180017b48     libucrt:lcidtoname_downlevel.obj
 0002:00005b58       ??_C@_1M@LLPGMBIN@?$AAe?$AAs?$AA?9?$AAd?$AAo?$AA?$AA@ 0000000180017b58     libucrt:lcidtoname_downlevel.obj
 0002:00005b68       ??_C@_1M@DKHMKNJA@?$AAe?$AAs?$AA?9?$AAe?$AAc?$AA?$AA@ 0000000180017b68     libucrt:lcidtoname_downlevel.obj
 0002:00005b78       ??_C@_1M@GKGFPKAP@?$AAe?$AAs?$AA?9?$AAe?$AAs?$AA?$AA@ 0000000180017b78     libucrt:lcidtoname_downlevel.obj
 0002:00005b88       ??_C@_1M@LKHKGDLN@?$AAe?$AAs?$AA?9?$AAg?$AAt?$AA?$AA@ 0000000180017b88     libucrt:lcidtoname_downlevel.obj
 0002:00005b98       ??_C@_1M@HEIIGGJD@?$AAe?$AAs?$AA?9?$AAh?$AAn?$AA?$AA@ 0000000180017b98     libucrt:lcidtoname_downlevel.obj
 0002:00005ba8       ??_C@_1M@FBDHPPGD@?$AAe?$AAs?$AA?9?$AAm?$AAx?$AA?$AA@ 0000000180017ba8     libucrt:lcidtoname_downlevel.obj
 0002:00005bb8       ??_C@_1M@DPAGLNDH@?$AAe?$AAs?$AA?9?$AAn?$AAi?$AA?$AA@ 0000000180017bb8     libucrt:lcidtoname_downlevel.obj
 0002:00005bc8       ??_C@_1M@MDGOPGDD@?$AAe?$AAs?$AA?9?$AAp?$AAa?$AA?$AA@ 0000000180017bc8     libucrt:lcidtoname_downlevel.obj
 0002:00005bd8       ??_C@_1M@EMAMGBGE@?$AAe?$AAs?$AA?9?$AAp?$AAe?$AA?$AA@ 0000000180017bd8     libucrt:lcidtoname_downlevel.obj
 0002:00005be8       ??_C@_1M@IBMCAOEC@?$AAe?$AAs?$AA?9?$AAp?$AAr?$AA?$AA@ 0000000180017be8     libucrt:lcidtoname_downlevel.obj
 0002:00005bf8       ??_C@_1M@FGMDIJED@?$AAe?$AAs?$AA?9?$AAp?$AAy?$AA?$AA@ 0000000180017bf8     libucrt:lcidtoname_downlevel.obj
 0002:00005c08       ??_C@_1M@IIDEOLLL@?$AAe?$AAs?$AA?9?$AAs?$AAv?$AA?$AA@ 0000000180017c08     libucrt:lcidtoname_downlevel.obj
 0002:00005c18       ??_C@_1M@GAOBIPA@?$AAe?$AAs?$AA?9?$AAu?$AAy?$AA?$AA@ 0000000180017c18     libucrt:lcidtoname_downlevel.obj
 0002:00005c28       ??_C@_1M@JKFFICHJ@?$AAe?$AAs?$AA?9?$AAv?$AAe?$AA?$AA@ 0000000180017c28     libucrt:lcidtoname_downlevel.obj
 0002:00005c38       ??_C@_1M@PNMLOJDF@?$AAe?$AAt?$AA?9?$AAe?$AAe?$AA?$AA@ 0000000180017c38     libucrt:lcidtoname_downlevel.obj
 0002:00005c48       ??_C@_1M@GHHLIKEI@?$AAe?$AAu?$AA?9?$AAe?$AAs?$AA?$AA@ 0000000180017c48     libucrt:lcidtoname_downlevel.obj
 0002:00005c58       ??_C@_1M@PBNONODE@?$AAf?$AAa?$AA?9?$AAi?$AAr?$AA?$AA@ 0000000180017c58     libucrt:lcidtoname_downlevel.obj
 0002:00005c68       ??_C@_1M@JEEHPMIL@?$AAf?$AAi?$AA?9?$AAf?$AAi?$AA?$AA@ 0000000180017c68     libucrt:lcidtoname_downlevel.obj
 0002:00005c78       ??_C@_1M@LMDCNDBA@?$AAf?$AAo?$AA?9?$AAf?$AAo?$AA?$AA@ 0000000180017c78     libucrt:lcidtoname_downlevel.obj
 0002:00005c88       ??_C@_1M@JKEOHLDK@?$AAf?$AAr?$AA?9?$AAb?$AAe?$AA?$AA@ 0000000180017c88     libucrt:lcidtoname_downlevel.obj
 0002:00005c98       ??_C@_1M@NOHADPMI@?$AAf?$AAr?$AA?9?$AAc?$AAa?$AA?$AA@ 0000000180017c98     libucrt:lcidtoname_downlevel.obj
 0002:00005ca8       ??_C@_1M@KDHIHAEC@?$AAf?$AAr?$AA?9?$AAc?$AAh?$AA?$AA@ 0000000180017ca8     libucrt:lcidtoname_downlevel.obj
 0002:00005cb8       ??_C@_1M@MMBBFGAK@?$AAf?$AAr?$AA?9?$AAf?$AAr?$AA?$AA@ 0000000180017cb8     libucrt:lcidtoname_downlevel.obj
 0002:00005cc8       ??_C@_1M@PAFNENNF@?$AAf?$AAr?$AA?9?$AAl?$AAu?$AA?$AA@ 0000000180017cc8     libucrt:lcidtoname_downlevel.obj
 0002:00005cd8       ??_C@_1M@EOHDJGDD@?$AAf?$AAr?$AA?9?$AAm?$AAc?$AA?$AA@ 0000000180017cd8     libucrt:lcidtoname_downlevel.obj
 0002:00005ce8       ??_C@_1M@FAPLLOPF@?$AAg?$AAl?$AA?9?$AAe?$AAs?$AA?$AA@ 0000000180017ce8     libucrt:lcidtoname_downlevel.obj
 0002:00005cf8       ??_C@_1M@FOPBFLOO@?$AAg?$AAu?$AA?9?$AAi?$AAn?$AA?$AA@ 0000000180017cf8     libucrt:lcidtoname_downlevel.obj
 0002:00005d08       ??_C@_1M@KBMCINPM@?$AAh?$AAe?$AA?9?$AAi?$AAl?$AA?$AA@ 0000000180017d08     libucrt:lcidtoname_downlevel.obj
 0002:00005d18       ??_C@_1M@BBPHKFPJ@?$AAh?$AAi?$AA?9?$AAi?$AAn?$AA?$AA@ 0000000180017d18     libucrt:lcidtoname_downlevel.obj
 0002:00005d28       ??_C@_1M@PMBNDPHD@?$AAh?$AAr?$AA?9?$AAb?$AAa?$AA?$AA@ 0000000180017d28     libucrt:lcidtoname_downlevel.obj
 0002:00005d38       ??_C@_1M@BPCKOEGE@?$AAh?$AAr?$AA?9?$AAh?$AAr?$AA?$AA@ 0000000180017d38     libucrt:lcidtoname_downlevel.obj
 0002:00005d48       ??_C@_1M@GACBMHKE@?$AAh?$AAu?$AA?9?$AAh?$AAu?$AA?$AA@ 0000000180017d48     libucrt:lcidtoname_downlevel.obj
 0002:00005d58       ??_C@_1M@MILPAJJC@?$AAh?$AAy?$AA?9?$AAa?$AAm?$AA?$AA@ 0000000180017d58     libucrt:lcidtoname_downlevel.obj
 0002:00005d68       ??_C@_1M@BABBICEC@?$AAi?$AAd?$AA?9?$AAi?$AAd?$AA?$AA@ 0000000180017d68     libucrt:lcidtoname_downlevel.obj
 0002:00005d78       ??_C@_1M@BIKNHHPF@?$AAi?$AAs?$AA?9?$AAi?$AAs?$AA?$AA@ 0000000180017d78     libucrt:lcidtoname_downlevel.obj
 0002:00005d88       ??_C@_1M@NMPCJPHE@?$AAi?$AAt?$AA?9?$AAc?$AAh?$AA?$AA@ 0000000180017d88     libucrt:lcidtoname_downlevel.obj
 0002:00005d98       ??_C@_1M@GHKGFEDF@?$AAi?$AAt?$AA?9?$AAi?$AAt?$AA?$AA@ 0000000180017d98     libucrt:lcidtoname_downlevel.obj
 0002:00005da8       ??_C@_1M@NIEJCJJA@?$AAj?$AAa?$AA?9?$AAj?$AAp?$AA?$AA@ 0000000180017da8     libucrt:lcidtoname_downlevel.obj
 0002:00005db8       ??_C@_1M@JILFNBIM@?$AAk?$AAa?$AA?9?$AAg?$AAe?$AA?$AA@ 0000000180017db8     libucrt:lcidtoname_downlevel.obj
 0002:00005dc8       ??_C@_1M@PACPMGPH@?$AAk?$AAk?$AA?9?$AAk?$AAz?$AA?$AA@ 0000000180017dc8     libucrt:lcidtoname_downlevel.obj
 0002:00005dd8       ??_C@_1M@IELFGMHA@?$AAk?$AAn?$AA?9?$AAi?$AAn?$AA?$AA@ 0000000180017dd8     libucrt:lcidtoname_downlevel.obj
 0002:00005de8       ??_C@_1O@IBBJHCH@?$AAk?$AAo?$AAk?$AA?9?$AAi?$AAn?$AA?$AA@ 0000000180017de8     libucrt:lcidtoname_downlevel.obj
 0002:00005df8       ??_C@_1M@DMHAEOGC@?$AAk?$AAo?$AA?9?$AAk?$AAr?$AA?$AA@ 0000000180017df8     libucrt:lcidtoname_downlevel.obj
 0002:00005e08       ??_C@_1M@HBAHBIGA@?$AAk?$AAy?$AA?9?$AAk?$AAg?$AA?$AA@ 0000000180017e08     libucrt:lcidtoname_downlevel.obj
 0002:00005e18       ??_C@_1M@KPMILCJG@?$AAl?$AAt?$AA?9?$AAl?$AAt?$AA?$AA@ 0000000180017e18     libucrt:lcidtoname_downlevel.obj
 0002:00005e28       ??_C@_1M@BDEKKCA@?$AAl?$AAv?$AA?9?$AAl?$AAv?$AA?$AA@ 0000000180017e28     libucrt:lcidtoname_downlevel.obj
 0002:00005e38       ??_C@_1M@ELCKCCJJ@?$AAm?$AAi?$AA?9?$AAn?$AAz?$AA?$AA@ 0000000180017e38     libucrt:lcidtoname_downlevel.obj
 0002:00005e48       ??_C@_1M@CBOOLAPA@?$AAm?$AAk?$AA?9?$AAm?$AAk?$AA?$AA@ 0000000180017e48     libucrt:lcidtoname_downlevel.obj
 0002:00005e58       ??_C@_1M@GPHNBJKN@?$AAm?$AAl?$AA?9?$AAi?$AAn?$AA?$AA@ 0000000180017e58     libucrt:lcidtoname_downlevel.obj
 0002:00005e68       ??_C@_1M@PABJILIG@?$AAm?$AAn?$AA?9?$AAm?$AAn?$AA?$AA@ 0000000180017e68     libucrt:lcidtoname_downlevel.obj
 0002:00005e78       ??_C@_1M@FGBKKIPG@?$AAm?$AAr?$AA?9?$AAi?$AAn?$AA?$AA@ 0000000180017e78     libucrt:lcidtoname_downlevel.obj
 0002:00005e88       ??_C@_1M@NDBPDDAL@?$AAm?$AAs?$AA?9?$AAb?$AAn?$AA?$AA@ 0000000180017e88     libucrt:lcidtoname_downlevel.obj
 0002:00005e98       ??_C@_1M@OPIHOOPI@?$AAm?$AAs?$AA?9?$AAm?$AAy?$AA?$AA@ 0000000180017e98     libucrt:lcidtoname_downlevel.obj
 0002:00005ea8       ??_C@_1M@PPDBCNFM@?$AAm?$AAt?$AA?9?$AAm?$AAt?$AA?$AA@ 0000000180017ea8     libucrt:lcidtoname_downlevel.obj
 0002:00005eb8       ??_C@_1M@KDJDKMDD@?$AAn?$AAb?$AA?9?$AAn?$AAo?$AA?$AA@ 0000000180017eb8     libucrt:lcidtoname_downlevel.obj
 0002:00005ec8       ??_C@_1M@KFCFLMJP@?$AAn?$AAl?$AA?9?$AAb?$AAe?$AA?$AA@ 0000000180017ec8     libucrt:lcidtoname_downlevel.obj
 0002:00005ed8       ??_C@_1M@KPOPDDGO@?$AAn?$AAl?$AA?9?$AAn?$AAl?$AA?$AA@ 0000000180017ed8     libucrt:lcidtoname_downlevel.obj
 0002:00005ee8       ??_C@_1M@LJKPEMLN@?$AAn?$AAn?$AA?9?$AAn?$AAo?$AA?$AA@ 0000000180017ee8     libucrt:lcidtoname_downlevel.obj
 0002:00005ef8       ??_C@_1M@BDGHHBFL@?$AAn?$AAs?$AA?9?$AAz?$AAa?$AA?$AA@ 0000000180017ef8     libucrt:lcidtoname_downlevel.obj
 0002:00005f08       ??_C@_1M@IDEHOAP@?$AAp?$AAa?$AA?9?$AAi?$AAn?$AA?$AA@ 0000000180017f08     libucrt:lcidtoname_downlevel.obj
 0002:00005f18       ??_C@_1M@HDBKGOGH@?$AAp?$AAl?$AA?9?$AAp?$AAl?$AA?$AA@ 0000000180017f18     libucrt:lcidtoname_downlevel.obj
 0002:00005f28       ??_C@_1M@LJLLCMEH@?$AAp?$AAt?$AA?9?$AAb?$AAr?$AA?$AA@ 0000000180017f28     libucrt:lcidtoname_downlevel.obj
 0002:00005f38       ??_C@_1M@NCMONAAL@?$AAp?$AAt?$AA?9?$AAp?$AAt?$AA?$AA@ 0000000180017f38     libucrt:lcidtoname_downlevel.obj
 0002:00005f48       ??_C@_1O@EAKMAJDN@?$AAq?$AAu?$AAz?$AA?9?$AAb?$AAo?$AA?$AA@ 0000000180017f48     libucrt:lcidtoname_downlevel.obj
 0002:00005f58       ??_C@_1O@BHHPIGDN@?$AAq?$AAu?$AAz?$AA?9?$AAe?$AAc?$AA?$AA@ 0000000180017f58     libucrt:lcidtoname_downlevel.obj
 0002:00005f68       ??_C@_1O@GBAPEKMJ@?$AAq?$AAu?$AAz?$AA?9?$AAp?$AAe?$AA?$AA@ 0000000180017f68     libucrt:lcidtoname_downlevel.obj
 0002:00005f78       ??_C@_1M@CLGLEFBO@?$AAr?$AAo?$AA?9?$AAr?$AAo?$AA?$AA@ 0000000180017f78     libucrt:lcidtoname_downlevel.obj
 0002:00005f88       ??_C@_1M@CEEDODME@?$AAr?$AAu?$AA?9?$AAr?$AAu?$AA?$AA@ 0000000180017f88     libucrt:lcidtoname_downlevel.obj
 0002:00005f98       ??_C@_1M@HPKKKMPP@?$AAs?$AAa?$AA?9?$AAi?$AAn?$AA?$AA@ 0000000180017f98     libucrt:lcidtoname_downlevel.obj
 0002:00005fa8       ??_C@_1M@BKMAIGOJ@?$AAs?$AAe?$AA?9?$AAf?$AAi?$AA?$AA@ 0000000180017fa8     libucrt:lcidtoname_downlevel.obj
 0002:00005fb8       ??_C@_1M@NDPIFLFI@?$AAs?$AAe?$AA?9?$AAn?$AAo?$AA?$AA@ 0000000180017fb8     libucrt:lcidtoname_downlevel.obj
 0002:00005fc8       ??_C@_1M@DANKKHJ@?$AAs?$AAe?$AA?9?$AAs?$AAe?$AA?$AA@ 0000000180017fc8     libucrt:lcidtoname_downlevel.obj
 0002:00005fd8       ??_C@_1M@PNBLONPJ@?$AAs?$AAk?$AA?9?$AAs?$AAk?$AA?$AA@ 0000000180017fd8     libucrt:lcidtoname_downlevel.obj
 0002:00005fe8       ??_C@_1M@LFMODOAL@?$AAs?$AAl?$AA?9?$AAs?$AAi?$AA?$AA@ 0000000180017fe8     libucrt:lcidtoname_downlevel.obj
 0002:00005ff8       ??_C@_1O@DFKOMPG@?$AAs?$AAm?$AAa?$AA?9?$AAn?$AAo?$AA?$AA@ 0000000180017ff8     libucrt:lcidtoname_downlevel.obj
 0002:00006008       ??_C@_1O@NDKPBNNH@?$AAs?$AAm?$AAa?$AA?9?$AAs?$AAe?$AA?$AA@ 0000000180018008     libucrt:lcidtoname_downlevel.obj
 0002:00006018       ??_C@_1O@PLLKBHAB@?$AAs?$AAm?$AAj?$AA?9?$AAn?$AAo?$AA?$AA@ 0000000180018018     libucrt:lcidtoname_downlevel.obj
 0002:00006028       ??_C@_1O@CLEPOGCA@?$AAs?$AAm?$AAj?$AA?9?$AAs?$AAe?$AA?$AA@ 0000000180018028     libucrt:lcidtoname_downlevel.obj
 0002:00006038       ??_C@_1O@DLGJGKMK@?$AAs?$AAm?$AAn?$AA?9?$AAf?$AAi?$AA?$AA@ 0000000180018038     libucrt:lcidtoname_downlevel.obj
 0002:00006048       ??_C@_1O@OJDJGAJC@?$AAs?$AAm?$AAs?$AA?9?$AAf?$AAi?$AA?$AA@ 0000000180018048     libucrt:lcidtoname_downlevel.obj
 0002:00006058       ??_C@_1M@BOFOGHPB@?$AAs?$AAq?$AA?9?$AAa?$AAl?$AA?$AA@ 0000000180018058     libucrt:lcidtoname_downlevel.obj
 0002:00006068       ??_C@_1BG@LJBBIPGB@?$AAs?$AAr?$AA?9?$AAb?$AAa?$AA?9?$AAc?$AAy?$AAr?$AAl?$AA?$AA@ 0000000180018068     libucrt:lcidtoname_downlevel.obj
 0002:00006080       ??_C@_1BG@JLBENFOE@?$AAs?$AAr?$AA?9?$AAb?$AAa?$AA?9?$AAl?$AAa?$AAt?$AAn?$AA?$AA@ 0000000180018080     libucrt:lcidtoname_downlevel.obj
 0002:00006098       ??_C@_1BG@KODPNHE@?$AAs?$AAr?$AA?9?$AAs?$AAp?$AA?9?$AAc?$AAy?$AAr?$AAl?$AA?$AA@ 0000000180018098     libucrt:lcidtoname_downlevel.obj
 0002:000060b0       ??_C@_1BG@CIOGKHPB@?$AAs?$AAr?$AA?9?$AAs?$AAp?$AA?9?$AAl?$AAa?$AAt?$AAn?$AA?$AA@ 00000001800180b0     libucrt:lcidtoname_downlevel.obj
 0002:000060c8       ??_C@_1M@NGFJLMAC@?$AAs?$AAv?$AA?9?$AAf?$AAi?$AA?$AA@ 00000001800180c8     libucrt:lcidtoname_downlevel.obj
 0002:000060d8       ??_C@_1M@MPJEJAJC@?$AAs?$AAv?$AA?9?$AAs?$AAe?$AA?$AA@ 00000001800180d8     libucrt:lcidtoname_downlevel.obj
 0002:000060e8       ??_C@_1M@MPNDHLFK@?$AAs?$AAw?$AA?9?$AAk?$AAe?$AA?$AA@ 00000001800180e8     libucrt:lcidtoname_downlevel.obj
 0002:000060f8       ??_C@_1O@KOHBJJI@?$AAs?$AAy?$AAr?$AA?9?$AAs?$AAy?$AA?$AA@ 00000001800180f8     libucrt:lcidtoname_downlevel.obj
 0002:00006108       ??_C@_1M@LDCEFHA@?$AAt?$AAa?$AA?9?$AAi?$AAn?$AA?$AA@ 0000000180018108     libucrt:lcidtoname_downlevel.obj
 0002:00006118       ??_C@_1M@CNJOFAK@?$AAt?$AAe?$AA?9?$AAi?$AAn?$AA?$AA@ 0000000180018118     libucrt:lcidtoname_downlevel.obj
 0002:00006128       ??_C@_1M@GNAECACD@?$AAt?$AAh?$AA?9?$AAt?$AAh?$AA?$AA@ 0000000180018128     libucrt:lcidtoname_downlevel.obj
 0002:00006138       ??_C@_1M@CHBIHOJO@?$AAt?$AAn?$AA?9?$AAz?$AAa?$AA?$AA@ 0000000180018138     libucrt:lcidtoname_downlevel.obj
 0002:00006148       ??_C@_1M@GCCMIGPJ@?$AAt?$AAr?$AA?9?$AAt?$AAr?$AA?$AA@ 0000000180018148     libucrt:lcidtoname_downlevel.obj
 0002:00006158       ??_C@_1M@CELMCNBK@?$AAt?$AAt?$AA?9?$AAr?$AAu?$AA?$AA@ 0000000180018158     libucrt:lcidtoname_downlevel.obj
 0002:00006168       ??_C@_1M@KLMCELGA@?$AAu?$AAk?$AA?9?$AAu?$AAa?$AA?$AA@ 0000000180018168     libucrt:lcidtoname_downlevel.obj
 0002:00006178       ??_C@_1M@EPAJJAJF@?$AAu?$AAr?$AA?9?$AAp?$AAk?$AA?$AA@ 0000000180018178     libucrt:lcidtoname_downlevel.obj
 0002:00006188       ??_C@_1BG@GEGPMCDJ@?$AAu?$AAz?$AA?9?$AAu?$AAz?$AA?9?$AAc?$AAy?$AAr?$AAl?$AA?$AA@ 0000000180018188     libucrt:lcidtoname_downlevel.obj
 0002:000061a0       ??_C@_1BG@EGGKJILM@?$AAu?$AAz?$AA?9?$AAu?$AAz?$AA?9?$AAl?$AAa?$AAt?$AAn?$AA?$AA@ 00000001800181a0     libucrt:lcidtoname_downlevel.obj
 0002:000061b8       ??_C@_1M@GFOCLFF@?$AAv?$AAi?$AA?9?$AAv?$AAn?$AA?$AA@ 00000001800181b8     libucrt:lcidtoname_downlevel.obj
 0002:000061c8       ??_C@_1M@CPAMEDFI@?$AAx?$AAh?$AA?9?$AAz?$AAa?$AA?$AA@ 00000001800181c8     libucrt:lcidtoname_downlevel.obj
 0002:000061d8       ??_C@_1O@EBKIFIGN@?$AAz?$AAh?$AA?9?$AAc?$AAh?$AAs?$AA?$AA@ 00000001800181d8     libucrt:lcidtoname_downlevel.obj
 0002:000061e8       ??_C@_1O@NMHPGANE@?$AAz?$AAh?$AA?9?$AAc?$AAh?$AAt?$AA?$AA@ 00000001800181e8     libucrt:lcidtoname_downlevel.obj
 0002:000061f8       ??_C@_1M@LPINJOMC@?$AAz?$AAh?$AA?9?$AAc?$AAn?$AA?$AA@ 00000001800181f8     libucrt:lcidtoname_downlevel.obj
 0002:00006208       ??_C@_1M@OCJEJODD@?$AAz?$AAh?$AA?9?$AAh?$AAk?$AA?$AA@ 0000000180018208     libucrt:lcidtoname_downlevel.obj
 0002:00006218       ??_C@_1M@DNDLJINH@?$AAz?$AAh?$AA?9?$AAm?$AAo?$AA?$AA@ 0000000180018218     libucrt:lcidtoname_downlevel.obj
 0002:00006228       ??_C@_1M@MBFDNDND@?$AAz?$AAh?$AA?9?$AAs?$AAg?$AA?$AA@ 0000000180018228     libucrt:lcidtoname_downlevel.obj
 0002:00006238       ??_C@_1M@IMEPLEPE@?$AAz?$AAh?$AA?9?$AAt?$AAw?$AA?$AA@ 0000000180018238     libucrt:lcidtoname_downlevel.obj
 0002:00006248       ??_C@_1M@BBGHNHJP@?$AAz?$AAu?$AA?9?$AAz?$AAa?$AA?$AA@ 0000000180018248     libucrt:lcidtoname_downlevel.obj
 0002:000064b0       __log10_256_lead           00000001800184b0     libucrt:log10_256_lead_tail_table.obj
 0002:00006cc0       __log10_256_tail           0000000180018cc0     libucrt:log10_256_lead_tail_table.obj
 0002:000074d0       __log_F_inv_qword          00000001800194d0     libucrt:log_f_inv_qword_table.obj
 0002:00007ce0       ??_C@_05HGHHAHAP@log10?$AA@ 0000000180019ce0     libucrt:log_special.obj
 0002:00007ce8       ??_C@_1BA@BALFACEM@?$AAC?$AAO?$AAN?$AAO?$AAU?$AAT?$AA$?$AA?$AA@ 0000000180019ce8     libucrt:initcon.obj
 0002:00007d70       _load_config_used          0000000180019d70     LIBCMT:loadcfg.obj
 0002:00007e70       ??_R4exception@std@@6B@    0000000180019e70     LIBCMT:throw_bad_alloc.obj
 0002:00007e98       ??_R3exception@std@@8      0000000180019e98     LIBCMT:throw_bad_alloc.obj
 0002:00007eb0       ??_R2exception@std@@8      0000000180019eb0     LIBCMT:throw_bad_alloc.obj
 0002:00007ec0       ??_R1A@?0A@EA@exception@std@@8 0000000180019ec0     LIBCMT:throw_bad_alloc.obj
 0002:00007ee8       ??_R4bad_alloc@std@@6B@    0000000180019ee8     LIBCMT:throw_bad_alloc.obj
 0002:00007f10       ??_R3bad_alloc@std@@8      0000000180019f10     LIBCMT:throw_bad_alloc.obj
 0002:00007f28       ??_R2bad_alloc@std@@8      0000000180019f28     LIBCMT:throw_bad_alloc.obj
 0002:00007f40       ??_R1A@?0A@EA@bad_alloc@std@@8 0000000180019f40     LIBCMT:throw_bad_alloc.obj
 0002:00007f68       ??_R4bad_array_new_length@std@@6B@ 0000000180019f68     LIBCMT:throw_bad_alloc.obj
 0002:00007f90       ??_R3bad_array_new_length@std@@8 0000000180019f90     LIBCMT:throw_bad_alloc.obj
 0002:00007fa8       ??_R2bad_array_new_length@std@@8 0000000180019fa8     LIBCMT:throw_bad_alloc.obj
 0002:00007fc8       ??_R1A@?0A@EA@bad_array_new_length@std@@8 0000000180019fc8     LIBCMT:throw_bad_alloc.obj
 0002:00007ff0       ??_R4type_info@@6B@        0000000180019ff0     LIBCMT:std_type_info_static.obj
 0002:00008018       ??_R3type_info@@8          000000018001a018     LIBCMT:std_type_info_static.obj
 0002:00008030       ??_R2type_info@@8          000000018001a030     LIBCMT:std_type_info_static.obj
 0002:00008040       ??_R1A@?0A@EA@type_info@@8 000000018001a040     LIBCMT:std_type_info_static.obj
 0002:00008068       ??_R4bad_exception@std@@6B@ 000000018001a068     libvcruntime:frame.obj
 0002:00008090       ??_R3bad_exception@std@@8  000000018001a090     libvcruntime:frame.obj
 0002:000080a8       ??_R2bad_exception@std@@8  000000018001a0a8     libvcruntime:frame.obj
 0002:000080c0       ??_R1A@?0A@EA@bad_exception@std@@8 000000018001a0c0     libvcruntime:frame.obj
 0002:00008470       __rtc_iaa                  000000018001a470     LIBCMT:initsect.obj
 0002:00008478       __rtc_izz                  000000018001a478     LIBCMT:initsect.obj
 0002:00008480       __rtc_taa                  000000018001a480     LIBCMT:initsect.obj
 0002:00008488       __rtc_tzz                  000000018001a488     LIBCMT:initsect.obj
 0002:000096b0       _TI2?AVbad_alloc@std@@     000000018001b6b0     LIBCMT:throw_bad_alloc.obj
 0002:000096d0       _CTA2?AVbad_alloc@std@@    000000018001b6d0     LIBCMT:throw_bad_alloc.obj
 0002:000096e8       _CT??_R0?AVbad_alloc@std@@@8??0bad_alloc@std@@QEAA@AEBV01@@Z24 000000018001b6e8     LIBCMT:throw_bad_alloc.obj
 0002:00009710       _CT??_R0?AVexception@std@@@8??0exception@std@@QEAA@AEBV01@@Z24 000000018001b710     LIBCMT:throw_bad_alloc.obj
 0002:00009738       _TI3?AVbad_array_new_length@std@@ 000000018001b738     LIBCMT:throw_bad_alloc.obj
 0002:00009758       _CTA3?AVbad_array_new_length@std@@ 000000018001b758     LIBCMT:throw_bad_alloc.obj
 0002:00009778       _CT??_R0?AVbad_array_new_length@std@@@8??0bad_array_new_length@std@@QEAA@AEBV01@@Z24 000000018001b778     LIBCMT:throw_bad_alloc.obj
 0002:000097a0       _TI2?AVbad_exception@std@@ 000000018001b7a0     libvcruntime:frame.obj
 0002:000097c0       _CTA2?AVbad_exception@std@@ 000000018001b7c0     libvcruntime:frame.obj
 0002:000097d8       _CT??_R0?AVbad_exception@std@@@8??0bad_exception@std@@QEAA@AEBV01@@Z24 000000018001b7d8     libvcruntime:frame.obj
 0002:00009800       __pobjMapEntryFirst        000000018001b800     StdAfx.obj
 0002:00009808       __pobjMapEntryLast         000000018001b808     StdAfx.obj
 0002:000098bc       __IMPORT_DESCRIPTOR_KERNEL32 000000018001b8bc     kernel32:KERNEL32.dll
 0002:000098d0       __IMPORT_DESCRIPTOR_USER32 000000018001b8d0     user32:USER32.dll
 0002:000098e4       __IMPORT_DESCRIPTOR_ADVAPI32 000000018001b8e4     advapi32:ADVAPI32.dll
 0002:000098f8       __IMPORT_DESCRIPTOR_ole32  000000018001b8f8     ole32:ole32.dll
 0002:0000990c       __IMPORT_DESCRIPTOR_OLEAUT32 000000018001b90c     oleaut32:OLEAUT32.dll
 0002:00009920       __NULL_IMPORT_DESCRIPTOR   000000018001b920     kernel32:KERNEL32.dll
 0003:00000000       __scrt_native_dllmain_reason 000000018001d000     LIBCMT:utility.obj
 0003:00000010       __security_cookie_complement 000000018001d010     LIBCMT:gs_cookie.obj
 0003:00000018       __security_cookie          000000018001d018     LIBCMT:gs_cookie.obj
 0003:00000020       __isa_available            000000018001d020     LIBCMT:cpu_disp.obj
 0003:00000024       __isa_enabled              000000018001d024     LIBCMT:cpu_disp.obj
 0003:00000028       __memcpy_nt_iters          000000018001d028     LIBCMT:cpu_disp.obj
 0003:00000048       __abort_behavior           000000018001d048     libucrt:abort.obj
 0003:00000060       __acrt_initial_multibyte_data 000000018001d060     libucrt:mbctype.obj
 0003:00000288       __acrt_current_multibyte_data 000000018001d288     libucrt:mbctype.obj
 0003:00000390       _mbctype                   000000018001d390     libucrt:mbctype.obj
 0003:000004a0       _mbcasemap                 000000018001d4a0     libucrt:mbctype.obj
 0003:000005a0       __acrt_initial_locale_data 000000018001d5a0     libucrt:nlsdata.obj
 0003:000006f8       __acrt_initial_locale_pointers 000000018001d6f8     libucrt:nlsdata.obj
 0003:00000708       __acrt_wide_c_locale_string 000000018001d708     libucrt:nlsdata.obj
 0003:00000710       _iob                       000000018001d710     libucrt:_file.obj
 0003:00000818       __globallocalestatus       000000018001d818     libucrt:glstatus.obj
 0003:00000820       __acrt_lconv_c             000000018001d820     libucrt:localeconv.obj
 0003:000008b8       __acrt_lconv_static_decimal 000000018001d8b8     libucrt:localeconv.obj
 0003:000008bc       __acrt_lconv_static_W_decimal 000000018001d8bc     libucrt:localeconv.obj
 0003:000008c0       __dcrt_lowio_console_output_handle 000000018001d8c0     libucrt:initcon.obj
 0003:000008d4       _fltused                   000000018001d8d4     LIBCMT:fltused.obj
 0003:000008e0       ??_R0?AVbad_alloc@std@@@8  000000018001d8e0     LIBCMT:throw_bad_alloc.obj
 0003:00000908       ??_R0?AVexception@std@@@8  000000018001d908     LIBCMT:throw_bad_alloc.obj
 0003:00000930       ??_R0?AVbad_array_new_length@std@@@8 000000018001d930     LIBCMT:throw_bad_alloc.obj
 0003:00000960       ??_R0?AVtype_info@@@8      000000018001d960     LIBCMT:std_type_info_static.obj
 0003:00000980       ??_R0?AVbad_exception@std@@@8 000000018001d980     libvcruntime:frame.obj
 0003:000009b0       ?m_bInitFailed@CAtlBaseModule@ATL@@2_NA 000000018001d9b0     StdAfx.obj
 0003:000009b8       ?_pPerfRegFunc@ATL@@3P6AJPEAUHINSTANCE__@@@ZEA 000000018001d9b8     StdAfx.obj
 0003:000009c0       ?_pPerfUnRegFunc@ATL@@3P6AJXZEA 000000018001d9c0     StdAfx.obj
 0003:000009c8       ?_AtlRegisterPerUser@ATL@@3_NA 000000018001d9c8     StdAfx.obj
 0003:000009d0       ?_pAtlModule@ATL@@3PEAVCAtlModule@1@EA 000000018001d9d0     StdAfx.obj
 0003:000009d8       ?_pModule@ATL@@3PEAVCComModule@1@EA 000000018001d9d8     StdAfx.obj
 0003:000009e0       ?_AtlComModule@ATL@@3VCAtlComModule@1@A 000000018001d9e0     StdAfx.obj
 0003:00000a28       ?m_libid@CAtlModule@ATL@@2U_GUID@@A 000000018001da28     OposConstants.obj
 0003:00000a38       ?pfnRegDeleteKeyEx@?1??DeleteSubKey@CRegKey@ATL@@QEAAJPEB_W@Z@4P6AJPEAUHKEY__@@0KK@ZEA 000000018001da38     OposConstants.obj
 0003:00000a40       ?bInitialized@?1??DeleteSubKey@CRegKey@ATL@@QEAAJPEB_W@Z@4_NA 000000018001da40     OposConstants.obj
 0003:00000a50       ?_Module@@3VCComModule@ATL@@A 000000018001da50     OposConstants.obj
 0003:00000af0       ?_AtlBaseModule@ATL@@3VCAtlBaseModule@1@A 000000018001daf0     atls:atlbase.obj
 0003:00000b50       __@@_PchSym_@00@UztvmgUPdlipUCUhUrmgvinvwrzgvUexgllohUzgohOmzgrevkilqPBACIAJCBDBUlyqiUznwGEUhgwzucOlyq@4B2008FD98C1DD4 000000018001db50     atls:stdafx.obj
 0003:00000b58       __scrt_current_native_startup_state 000000018001db58     LIBCMT:utility.obj
 0003:00000b60       __scrt_native_startup_lock 000000018001db60     LIBCMT:utility.obj
 0003:00001114       __favor                    000000018001e114     LIBCMT:cpu_disp.obj
 0003:00001118       __scrt_debugger_hook_flag  000000018001e118     LIBCMT:utility_desktop.obj
 0003:00001120       ?__type_info_root_node@@3U__type_info_node@@A 000000018001e120     LIBCMT:tncleanup.obj
 0003:00001130       ?_OptionsStorage@?1??__local_stdio_printf_options@@9@4_KA 000000018001e130     LIBCMT:default_local_stdio_options.obj
 0003:00001138       ?_OptionsStorage@?1??__local_stdio_scanf_options@@9@4_KA 000000018001e138     LIBCMT:default_local_stdio_options.obj
 0003:00001240       __pPurecall                000000018001e240     libvcruntime:purevirt_data.obj
 0003:00001248       ?__WinRTOutOfMemoryExceptionCallback@@3P6APEAXXZEA 000000018001e248     libvcruntime:ehhelpers.obj
 0003:00001250       ?pArgList@UnDecorator@@0PEAVReplicator@@EA 000000018001e250     libvcruntime:undname.obj
 0003:00001258       ?pZNameList@UnDecorator@@0PEAVReplicator@@EA 000000018001e258     libvcruntime:undname.obj
 0003:00001260       ?pTemplateArgList@UnDecorator@@0PEAVReplicator@@EA 000000018001e260     libvcruntime:undname.obj
 0003:00001268       ?gName@UnDecorator@@0PEBDEB 000000018001e268     libvcruntime:undname.obj
 0003:00001270       ?name@UnDecorator@@0PEBDEB 000000018001e270     libvcruntime:undname.obj
 0003:00001278       ?disableFlags@UnDecorator@@0KA 000000018001e278     libvcruntime:undname.obj
 0003:0000127c       ?fExplicitTemplateParams@UnDecorator@@0_NA 000000018001e27c     libvcruntime:undname.obj
 0003:0000127d       ?fGetTemplateArgumentList@UnDecorator@@0_NA 000000018001e27d     libvcruntime:undname.obj
 0003:00001280       ?m_pGetParameter@UnDecorator@@0P6APEADJ@ZEA 000000018001e280     libvcruntime:undname.obj
 0003:00001288       ?m_CHPENameOffset@UnDecorator@@0KA 000000018001e288     libvcruntime:undname.obj
 0003:0000128c       ?m_recursionLevel@UnDecorator@@0KA 000000018001e28c     libvcruntime:undname.obj
 0003:000013e8       _environ_table             000000018001e3e8     libucrt:environment_initialization.obj
 0003:000013f0       _wenviron_table            000000018001e3f0     libucrt:environment_initialization.obj
 0003:000013f8       __dcrt_initial_wide_environment 000000018001e3f8     libucrt:environment_initialization.obj
 0003:00001400       __dcrt_initial_narrow_environment 000000018001e400     libucrt:environment_initialization.obj
 0003:00001408       __acrt_atexit_table        000000018001e408     libucrt:onexit.obj
 0003:00001420       __acrt_at_quick_exit_table 000000018001e420     libucrt:onexit.obj
 0003:000017f4       __mbcodepage               000000018001e7f4     libucrt:mbctype.obj
 0003:000017f8       __ismbcodepage             000000018001e7f8     libucrt:mbctype.obj
 0003:00001800       __mbulinfo                 000000018001e800     libucrt:mbctype.obj
 0003:00001810       __mblocalename             000000018001e810     libucrt:mbctype.obj
 0003:0000181c       __argc                     000000018001e81c     libucrt:argv_data.obj
 0003:00001820       __argv                     000000018001e820     libucrt:argv_data.obj
 0003:00001828       __wargv                    000000018001e828     libucrt:argv_data.obj
 0003:00001830       _acmdln                    000000018001e830     libucrt:argv_data.obj
 0003:00001838       _wcmdln                    000000018001e838     libucrt:argv_data.obj
 0003:00001840       _pgmptr                    000000018001e840     libucrt:argv_data.obj
 0003:00001848       __acrt_heap                000000018001e848     libucrt:heap_handle.obj
 0003:00001850       __pioinfo                  000000018001e850     libucrt:ioinit.obj
 0003:00001c50       _nhandle                   000000018001ec50     libucrt:ioinit.obj
 0003:00001c80       __acrt_current_locale_data 000000018001ec80     libucrt:nlsdata.obj
 0003:00001c88       __acrt_stdout_buffer       000000018001ec88     libucrt:_sftbuf.obj
 0003:00001c90       __acrt_stderr_buffer       000000018001ec90     libucrt:_sftbuf.obj
 0003:00001c98       _nstream                   000000018001ec98     libucrt:_file.obj
 0003:00001ca0       __piob                     000000018001eca0     libucrt:_file.obj
 0003:00001ca8       __acrt_locale_changed_data 000000018001eca8     libucrt:wsetlocale.obj
 0003:00001cb0       __acrt_lconv_static_null   000000018001ecb0     libucrt:localeconv.obj
 0003:00001cb4       __acrt_lconv_static_W_null 000000018001ecb4     libucrt:localeconv.obj
 0003:00001cbc       __fma3_is_available        000000018001ecbc     libucrt:fma3_available.obj
 0003:00001cc0       __use_fma3_lib             000000018001ecc0     libucrt:fma3_available.obj
 0003:00001cc8       __dyn_tls_init_callback    000000018001ecc8     <common>
 0003:00001cd0       __scrt_ucrt_dll_is_in_use  000000018001ecd0     <common>

 entry point at        0001:00005374

 Static symbols

 0000:fffc3000       .debug$S                   0000000180000000     kernel32:KERNEL32.dll
 0000:fffc3000       .debug$S                   0000000180000000     oleaut32:OLEAUT32.dll
 0000:fffc3000       .debug$S                   0000000180000000     oleaut32:OLEAUT32.dll
 0000:fffc3000       .debug$S                   0000000180000000     oleaut32:OLEAUT32.dll
 0000:fffc3000       .debug$S                   0000000180000000     oleaut32:OLEAUT32.dll
 0000:fffc3000       .debug$S                   0000000180000000     kernel32:KERNEL32.dll
 0000:fffc3000       .debug$S                   0000000180000000     kernel32:KERNEL32.dll
 0000:fffc3000       .debug$S                   0000000180000000     kernel32:KERNEL32.dll
 0000:fffc3000       .debug$S                   0000000180000000     kernel32:KERNEL32.dll
 0000:fffc3000       .debug$S                   0000000180000000     kernel32:KERNEL32.dll
 0000:fffc3000       .debug$S                   0000000180000000     kernel32:KERNEL32.dll
 0000:fffc3000       .debug$S                   0000000180000000     kernel32:KERNEL32.dll
 0000:fffc3000       .debug$S                   0000000180000000     Opos_Constants.exp
 0000:fffc3000       .debug$S                   0000000180000000     kernel32:KERNEL32.dll
 0000:fffc3000       .debug$S                   0000000180000000     kernel32:KERNEL32.dll
 0000:fffc3000       .debug$S                   0000000180000000     kernel32:KERNEL32.dll
 0000:fffc3000       .debug$S                   0000000180000000     kernel32:KERNEL32.dll
 0000:fffc3000       .debug$S                   0000000180000000     kernel32:KERNEL32.dll
 0000:fffc3000       .debug$S                   0000000180000000     kernel32:KERNEL32.dll
 0000:fffc3000       .debug$S                   0000000180000000     kernel32:KERNEL32.dll
 0000:fffc3000       .debug$S                   0000000180000000     kernel32:KERNEL32.dll
 0000:fffc3000       .debug$S                   0000000180000000     kernel32:KERNEL32.dll
 0000:fffc3000       .debug$S                   0000000180000000     kernel32:KERNEL32.dll
 0000:fffc3000       .debug$S                   0000000180000000     kernel32:KERNEL32.dll
 0000:fffc3000       .debug$S                   0000000180000000     kernel32:KERNEL32.dll
 0000:fffc3000       .debug$S                   0000000180000000     kernel32:KERNEL32.dll
 0000:fffc3000       .debug$S                   0000000180000000     kernel32:KERNEL32.dll
 0000:fffc3000       .debug$S                   0000000180000000     kernel32:KERNEL32.dll
 0000:fffc3000       .debug$S                   0000000180000000     kernel32:KERNEL32.dll
 0000:fffc3000       .debug$S                   0000000180000000     kernel32:KERNEL32.dll
 0000:fffc3000       .debug$S                   0000000180000000     kernel32:KERNEL32.dll
 0000:fffc3000       .debug$S                   0000000180000000     kernel32:KERNEL32.dll
 0000:fffc3000       .debug$S                   0000000180000000     kernel32:KERNEL32.dll
 0000:fffc3000       .debug$S                   0000000180000000     kernel32:KERNEL32.dll
 0000:fffc3000       .debug$S                   0000000180000000     kernel32:KERNEL32.dll
 0000:fffc3000       .debug$S                   0000000180000000     kernel32:KERNEL32.dll
 0000:fffc3000       .debug$S                   0000000180000000     kernel32:KERNEL32.dll
 0000:fffc3000       .debug$S                   0000000180000000     kernel32:KERNEL32.dll
 0000:fffc3000       .debug$S                   0000000180000000     kernel32:KERNEL32.dll
 0000:fffc3000       .debug$S                   0000000180000000     kernel32:KERNEL32.dll
 0000:fffc3000       .debug$S                   0000000180000000     kernel32:KERNEL32.dll
 0000:fffc3000       .debug$S                   0000000180000000     kernel32:KERNEL32.dll
 0000:fffc3000       .debug$S                   0000000180000000     kernel32:KERNEL32.dll
 0000:fffc3000       .debug$S                   0000000180000000     kernel32:KERNEL32.dll
 0000:fffc3000       .debug$S                   0000000180000000     kernel32:KERNEL32.dll
 0000:fffc3000       .debug$S                   0000000180000000     kernel32:KERNEL32.dll
 0000:fffc3000       .debug$S                   0000000180000000     kernel32:KERNEL32.dll
 0000:fffc3000       .debug$S                   0000000180000000     kernel32:KERNEL32.dll
 0000:fffc3000       .debug$S                   0000000180000000     kernel32:KERNEL32.dll
 0000:fffc3000       .debug$S                   0000000180000000     kernel32:KERNEL32.dll
 0000:fffc3000       .debug$S                   0000000180000000     kernel32:KERNEL32.dll
 0000:fffc3000       .debug$S                   0000000180000000     kernel32:KERNEL32.dll
 0000:fffc3000       .debug$S                   0000000180000000     kernel32:KERNEL32.dll
 0000:fffc3000       .debug$S                   0000000180000000     kernel32:KERNEL32.dll
 0000:fffc3000       .debug$S                   0000000180000000     kernel32:KERNEL32.dll
 0000:fffc3000       .debug$S                   0000000180000000     kernel32:KERNEL32.dll
 0000:fffc3000       .debug$S                   0000000180000000     kernel32:KERNEL32.dll
 0000:fffc3000       .debug$S                   0000000180000000     kernel32:KERNEL32.dll
 0000:fffc3000       .debug$S                   0000000180000000     kernel32:KERNEL32.dll
 0000:fffc3000       .debug$S                   0000000180000000     kernel32:KERNEL32.dll
 0000:fffc3000       .debug$S                   0000000180000000     kernel32:KERNEL32.dll
 0000:fffc3000       .debug$S                   0000000180000000     kernel32:KERNEL32.dll
 0000:fffc3000       .debug$S                   0000000180000000     kernel32:KERNEL32.dll
 0000:fffc3000       .debug$S                   0000000180000000     kernel32:KERNEL32.dll
 0000:fffc3000       .debug$S                   0000000180000000     kernel32:KERNEL32.dll
 0000:fffc3000       .debug$S                   0000000180000000     kernel32:KERNEL32.dll
 0000:fffc3000       .debug$S                   0000000180000000     kernel32:KERNEL32.dll
 0000:fffc3000       .debug$S                   0000000180000000     kernel32:KERNEL32.dll
 0000:fffc3000       .debug$S                   0000000180000000     kernel32:KERNEL32.dll
 0000:fffc3000       .debug$S                   0000000180000000     kernel32:KERNEL32.dll
 0000:fffc3000       .debug$S                   0000000180000000     kernel32:KERNEL32.dll
 0000:fffc3000       .debug$S                   0000000180000000     kernel32:KERNEL32.dll
 0000:fffc3000       .debug$S                   0000000180000000     kernel32:KERNEL32.dll
 0000:fffc3000       .debug$S                   0000000180000000     kernel32:KERNEL32.dll
 0000:fffc3000       .debug$S                   0000000180000000     kernel32:KERNEL32.dll
 0000:fffc3000       .debug$S                   0000000180000000     kernel32:KERNEL32.dll
 0000:fffc3000       .debug$S                   0000000180000000     kernel32:KERNEL32.dll
 0000:fffc3000       .debug$S                   0000000180000000     kernel32:KERNEL32.dll
 0000:fffc3000       .debug$S                   0000000180000000     oleaut32:OLEAUT32.dll
 0000:fffc3000       .debug$S                   0000000180000000     kernel32:KERNEL32.dll
 0000:fffc3000       .debug$S                   0000000180000000     kernel32:KERNEL32.dll
 0000:fffc3000       .debug$S                   0000000180000000     kernel32:KERNEL32.dll
 0000:fffc3000       .debug$S                   0000000180000000     kernel32:KERNEL32.dll
 0000:fffc3000       .debug$S                   0000000180000000     kernel32:KERNEL32.dll
 0000:fffc3000       .debug$S                   0000000180000000     kernel32:KERNEL32.dll
 0000:fffc3000       .debug$S                   0000000180000000     kernel32:KERNEL32.dll
 0000:fffc3000       .debug$S                   0000000180000000     kernel32:KERNEL32.dll
 0000:fffc3000       .debug$S                   0000000180000000     kernel32:KERNEL32.dll
 0000:fffc3000       .debug$S                   0000000180000000     kernel32:KERNEL32.dll
 0000:fffc3000       .debug$S                   0000000180000000     kernel32:KERNEL32.dll
 0000:fffc3000       .debug$S                   0000000180000000     kernel32:KERNEL32.dll
 0000:fffc3000       .debug$S                   0000000180000000     kernel32:KERNEL32.dll
 0000:fffc3000       .debug$S                   0000000180000000     kernel32:KERNEL32.dll
 0000:fffc3000       .debug$S                   0000000180000000     kernel32:KERNEL32.dll
 0000:fffc3000       .debug$S                   0000000180000000     kernel32:KERNEL32.dll
 0000:fffc3000       .debug$S                   0000000180000000     kernel32:KERNEL32.dll
 0000:fffc3000       .debug$S                   0000000180000000     kernel32:KERNEL32.dll
 0000:fffc3000       .debug$S                   0000000180000000     kernel32:KERNEL32.dll
 0000:fffc3000       .debug$S                   0000000180000000     kernel32:KERNEL32.dll
 0000:fffc3000       .debug$S                   0000000180000000     kernel32:KERNEL32.dll
 0000:fffc3000       .debug$S                   0000000180000000     kernel32:KERNEL32.dll
 0000:fffc3000       .debug$S                   0000000180000000     user32:USER32.dll
 0000:fffc3000       .debug$S                   0000000180000000     user32:USER32.dll
 0000:fffc3000       .debug$S                   0000000180000000     advapi32:ADVAPI32.dll
 0000:fffc3000       .debug$S                   0000000180000000     advapi32:ADVAPI32.dll
 0000:fffc3000       .debug$S                   0000000180000000     advapi32:ADVAPI32.dll
 0000:fffc3000       .debug$S                   0000000180000000     advapi32:ADVAPI32.dll
 0000:fffc3000       .debug$S                   0000000180000000     advapi32:ADVAPI32.dll
 0000:fffc3000       .debug$S                   0000000180000000     advapi32:ADVAPI32.dll
 0000:fffc3000       .debug$S                   0000000180000000     advapi32:ADVAPI32.dll
 0000:fffc3000       .debug$S                   0000000180000000     advapi32:ADVAPI32.dll
 0000:fffc3000       .debug$S                   0000000180000000     ole32:ole32.dll
 0000:fffc3000       .debug$S                   0000000180000000     ole32:ole32.dll
 0000:fffc3000       .debug$S                   0000000180000000     ole32:ole32.dll
 0000:fffc3000       .debug$S                   0000000180000000     ole32:ole32.dll
 0000:fffc3000       .debug$S                   0000000180000000     ole32:ole32.dll
 0000:fffc3000       .debug$S                   0000000180000000     oleaut32:OLEAUT32.dll
 0000:fffc3000       .debug$S                   0000000180000000     oleaut32:OLEAUT32.dll
 0001:00000000       ??__E_AtlComModule@ATL@@YAXXZ 0000000180001000 f   StdAfx.obj
 0001:000000c0       ??__E_Module@@YAXXZ        00000001800010c0 f   OposConstants.obj
 0001:00000174       ??__E_AtlBaseModule@ATL@@YAXXZ 0000000180001174 f   atls:atlbase.obj
 0001:00000a9c       $LN223                     0000000180001a9c     OposConstants.obj
 0001:00000aac       $LN222                     0000000180001aac     OposConstants.obj
 0001:00004700       memcpy_s                   0000000180005700 f   OposConstants.obj
 0001:00004e30       capture_current_context    0000000180005e30 f   LIBCMT:gs_report.obj
 0001:00004ea0       capture_previous_context   0000000180005ea0 f   LIBCMT:gs_report.obj
 0001:00004fa0       $$000000                   0000000180005fa0     LIBCMT:chkstk.obj
 0001:00005010       $$000000                   0000000180006010     LIBCMT:amdsecgs.obj
 0001:00005044       ?dllmain_crt_dispatch@@YAHQEAUHINSTANCE__@@KQEAX@Z 0000000180006044 f   LIBCMT:dll_dllmain.obj
 0001:00005094       ?dllmain_crt_process_attach@@YAHQEAUHINSTANCE__@@QEAX@Z 0000000180006094 f   LIBCMT:dll_dllmain.obj
 0001:000051b0       ?dllmain_crt_process_detach@@YAH_N@Z 00000001800061b0 f   LIBCMT:dll_dllmain.obj
 0001:00005240       ?dllmain_dispatch@@YAHQEAUHINSTANCE__@@KQEAX@Z 0000000180006240 f   LIBCMT:dll_dllmain.obj
 0001:00005ca0       $$000000                   0000000180006ca0     libvcruntime:memcpy.obj
 0001:00005d57       MoveSmall                  0000000180006d57     libvcruntime:memcpy.obj
 0001:00006110       $$000000                   0000000180007110     libvcruntime:memset.obj
 0001:0000620c       MsetTab                    000000018000720c     libvcruntime:memset.obj
 0001:00006f74       ?try_get_function@@YAPEAXW4function_id@?A0xbfd18cd1@@QEBDQEBW4module_id@2@2@Z 0000000180007f74 f   libvcruntime:winapi_downlevel.obj
 0001:00007360       $$000000                   0000000180008360     libvcruntime:notify.obj
 0001:00007600       ??$BuildCatchObjectHelperInternal@V__FrameHandler3@@@@YAHPEAUEHExceptionRecord@@PEAXPEBU_s_HandlerType@@PEBU_s_CatchableType@@@Z 0000000180008600 f   libvcruntime:frame.obj
 0001:00007800       ??$BuildCatchObjectInternal@V__FrameHandler3@@@@YAXPEAUEHExceptionRecord@@PEAXPEBU_s_HandlerType@@PEBU_s_CatchableType@@@Z 0000000180008800 f   libvcruntime:frame.obj
 0001:000078c0       ??$CatchIt@V__FrameHandler3@@@@YAXPEAUEHExceptionRecord@@PEA_KPEAU_CONTEXT@@PEAU_xDISPATCHER_CONTEXT@@PEBU_s_FuncInfo@@PEBU_s_HandlerType@@PEBU_s_CatchableType@@PEBU_s_TryBlockMapEntry@@H1EE@Z 00000001800088c0 f   libvcruntime:frame.obj
 0001:00007990       ??$FindHandler@V__FrameHandler3@@@@YAXPEAUEHExceptionRecord@@PEA_KPEAU_CONTEXT@@PEAU_xDISPATCHER_CONTEXT@@PEBU_s_FuncInfo@@EH1@Z 0000000180008990 f   libvcruntime:frame.obj
 0001:00007df4       ??$FindHandlerForForeignException@V__FrameHandler3@@@@YAXPEAUEHExceptionRecord@@PEA_KPEAU_CONTEXT@@PEAU_xDISPATCHER_CONTEXT@@PEBU_s_FuncInfo@@HH1@Z 0000000180008df4 f   libvcruntime:frame.obj
 0001:000085fc       ?ExFilterRethrow@@YAHPEAU_EXCEPTION_POINTERS@@PEAUEHExceptionRecord@@PEAH@Z 00000001800095fc f   libvcruntime:frame.obj
 0001:000088b0       ?IsInExceptionSpec@@YAEPEAUEHExceptionRecord@@PEBU_s_ESTypeList@@@Z 00000001800098b0 f   libvcruntime:frame.obj
 0001:00008988       ?Is_bad_exception_allowed@@YAEPEBU_s_ESTypeList@@@Z 0000000180009988 f   libvcruntime:frame.obj
 0001:00008a40       $$000000                   0000000180009a40     libvcruntime:handlers.obj
 0001:00009254       ?atexit_exception_filter@@YAHK@Z 000000018000a254 f   libucrt:exit.obj
 0001:00009260       ?common_exit@@YAXHW4_crt_exit_cleanup_mode@@W4_crt_exit_return_mode@@@Z 000000018000a260 f   libucrt:exit.obj
 0001:000093cc       ?exit_or_terminate_process@@YAXI@Z 000000018000a3cc f   libucrt:exit.obj
 0001:00009418       ?try_cor_exit_process@@YAXI@Z 000000018000a418 f   libucrt:exit.obj
 0001:000094b0       ??$parse_command_line@D@@YAXPEADPEAPEAD0PEA_K2@Z 000000018000a4b0 f   libucrt:argv_parsing.obj
 0001:00009848       ??$common_initialize_environment_nolock@D@@YAHXZ 000000018000a848 f   libucrt:environment_initialization.obj
 0001:000098b4       ??$create_environment@D@@YAQEAPEADQEAD@Z 000000018000a8b4 f   libucrt:environment_initialization.obj
 0001:000099b0       ??$free_environment@_W@@YAXQEAPEA_W@Z 000000018000a9b0 f   libucrt:environment_initialization.obj
 0001:000099b0       ??$free_environment@D@@YAXQEAPEAD@Z 000000018000a9b0 f   libucrt:environment_initialization.obj
 0001:000099f4       ??$uninitialize_environment_internal@D@@YAXAEAPEAPEAD@Z 000000018000a9f4 f   libucrt:environment_initialization.obj
 0001:00009a10       ??$uninitialize_environment_internal@_W@@YAXAEAPEAPEA_W@Z 000000018000aa10 f   libucrt:environment_initialization.obj
 0001:00009c48       ??R<lambda_4e60a939b0d047cfe11ddc22648dfba9>@@QEBAHXZ 000000018000ac48 f   libucrt:onexit.obj
 0001:00009ef8       initialize_global_variables 000000018000aef8 f   libucrt:initialization.obj
 0001:00009f0c       initialize_c               000000018000af0c f   libucrt:initialization.obj
 0001:00009f30       uninitialize_c             000000018000af30 f   libucrt:initialization.obj
 0001:00009f30       report_memory_leaks        000000018000af30 f   libucrt:initialization.obj
 0001:00009f30       uninitialize_global_state_isolation 000000018000af30 f   libucrt:initialization.obj
 0001:00009f30       initialize_global_state_isolation 000000018000af30 f   libucrt:initialization.obj
 0001:00009f30       initialize_environment     000000018000af30 f   libucrt:initialization.obj
 0001:00009f34       uninitialize_environment   000000018000af34 f   libucrt:initialization.obj
 0001:00009f44       initialize_pointers        000000018000af44 f   libucrt:initialization.obj
 0001:00009f98       uninitialize_vcruntime     000000018000af98 f   libucrt:initialization.obj
 0001:00009fa0       uninitialize_allocated_memory 000000018000afa0 f   libucrt:initialization.obj
 0001:0000a370       $$000000                   000000018000b370     libucrt:strncmp.obj
 0001:0000a568       ?construct_ptd_array@@YAXQEAU__acrt_ptd@@@Z 000000018000b568 f   libucrt:per_thread_data.obj
 0001:0000a638       ?destroy_fls@@YAXPEAX@Z    000000018000b638 f   libucrt:per_thread_data.obj
 0001:0000a658       ?destroy_ptd_array@@YAXQEAU__acrt_ptd@@@Z 000000018000b658 f   libucrt:per_thread_data.obj
 0001:0000a750       ?replace_current_thread_locale_nolock@@YAXQEAU__acrt_ptd@@QEAU__crt_locale_data@@@Z 000000018000b750 f   libucrt:per_thread_data.obj
 0001:0000ab68       ?try_get_function@@YAPEAXW4function_id@?A0x63058377@@QEBDQEBW4module_id@2@2@Z 000000018000bb68 f   libucrt:winapi_thunks.obj
 0001:0000b1c4       ?<helper_func_cdecl>@<lambda_2feae5270eb4d0d5532525f423405775>@@CAHPEBX0@Z 000000018000c1c4 f   libucrt:argv_wildcards.obj
 0001:0000b1d8       ??$common_expand_argv_wildcards@D@@YAHQEAPEADQEAPEAPEAD@Z 000000018000c1d8 f   libucrt:argv_wildcards.obj
 0001:0000b3e4       ??$copy_and_add_argument_to_buffer@D@@YAHQEBD0_KAEAV?$argument_list@D@?A0xca0879c4@@@Z 000000018000c3e4 f   libucrt:argv_wildcards.obj
 0001:0000b4f4       ??$expand_argument_wildcards@D@@YAHQEAD0AEAV?$argument_list@D@?A0xca0879c4@@@Z 000000018000c4f4 f   libucrt:argv_wildcards.obj
 0001:0000b7a8       ??R<lambda_ad1ced32f4ac17aa236e5ef05d6b3b7c>@@QEBAXXZ 000000018000c7a8 f   libucrt:mbctype.obj
 0001:0000b9c0       ?getSystemCP@@YAHH@Z       000000018000c9c0 f   libucrt:mbctype.obj
 0001:0000ba40       ?setSBCS@@YAXPEAU__crt_multibyte_data@@@Z 000000018000ca40 f   libucrt:mbctype.obj
 0001:0000bad0       ?setSBUpLow@@YAXPEAU__crt_multibyte_data@@@Z 000000018000cad0 f   libucrt:mbctype.obj
 0001:0000bcb4       ?setmbcp_internal@@YAHH_N@Z 000000018000ccb4 f   libucrt:mbctype.obj
 0001:0000c1fc       ?x_ismbbtype_l@@YAHPEAU__crt_locale_pointers@@IHH@Z 000000018000d1fc f   libucrt:ismbbyte.obj
 0001:0000c3dc       ?initialize_inherited_file_handles_nolock@@YAXXZ 000000018000d3dc f   libucrt:ioinit.obj
 0001:0000c4c8       ?initialize_stdio_handles_nolock@@YAXXZ 000000018000d4c8 f   libucrt:ioinit.obj
 0001:0000d2d4       ?GetTableIndexFromLocaleName@@YAHPEB_W@Z 000000018000e2d4 f   libucrt:lcidtoname_downlevel.obj
 0001:0000d3d0       ?shortsort@@YAXPEAD0_KP6AHPEBX2@Z@Z 000000018000e3d0 f   libucrt:qsort.obj
 0001:0000db9c       ?__acrt_LCMapStringA_stat@@YAHPEAU__crt_locale_pointers@@PEB_WKPEBDHPEADHHH@Z 000000018000eb9c f   libucrt:lcmapstringa.obj
 0001:0000df90       ?initialize_multibyte@@YAHXZ 000000018000ef90 f   libucrt:multibyte_initializer.obj
 0001:0000e3f4       common_flush_all           000000018000f3f4 f   libucrt:fflush.obj
 0001:0000e784       ?free_crt_array_internal@@YAXQEAPEBX_K@Z 000000018000f784 f   libucrt:inittime.obj
 0001:0000ea24       ?write_double_translated_ansi_nolock@@YA?AUwrite_result@?A0x9c548279@@HQEBDI@Z 000000018000fa24 f   libucrt:write.obj
 0001:0000ec2c       ?write_text_ansi_nolock@@YA?AUwrite_result@?A0x9c548279@@HQEBDI@Z 000000018000fc2c f   libucrt:write.obj
 0001:0000ed34       ?write_text_utf16le_nolock@@YA?AUwrite_result@?A0x9c548279@@HQEBDI@Z 000000018000fd34 f   libucrt:write.obj
 0001:0000ee50       ?write_text_utf8_nolock@@YA?AUwrite_result@?A0x9c548279@@HQEBDI@Z 000000018000fe50 f   libucrt:write.obj
 0001:0000f3a0       $$000000                   00000001800103a0     libucrt:log10.obj
 0001:0000f94c       ??$common_lseek_nolock@_J@@YA_JH_JH@Z 000000018001094c f   libucrt:lseek.obj
 0001:0000fb3c       _call_matherr              0000000180010b3c f   libucrt:libm_error.obj
 0001:0000fba4       _exception_enabled         0000000180010ba4 f   libucrt:libm_error.obj
 0001:0000fe20       _log_special_common        0000000180010e20 f   libucrt:log_special.obj
 0001:00010130       $$000000                   0000000180011130     libucrt:fpsr.obj
 0001:000106a0       $$000000                   00000001800116a0     libvcruntime:memcmp.obj
 0001:00010780       $$000000                   0000000180011780     LIBCMT:guard_dispatch.obj
 0001:000107a0       __scrt_is_nonwritable_in_current_image$filt$0 00000001800117a0 f   LIBCMT:utility.obj
 0001:000107b8       ?fin$0@?0??dllmain_crt_process_attach@@YAHQEAUHINSTANCE__@@QEAX@Z@4HA 00000001800117b8 f   LIBCMT:dll_dllmain.obj
 0001:000107cf       ?fin$0@?0??dllmain_crt_process_detach@@YAH_N@Z@4HA 00000001800117cf f   LIBCMT:dll_dllmain.obj
 0001:000107eb       ?filt$0@?0??dllmain_dispatch@@YAHQEAUHINSTANCE__@@KQEAX@Z@4HA 00000001800117eb f   LIBCMT:dll_dllmain.obj
 0001:00010821       ?catch$0@?0???2@YAPEAX_KAEBUnothrow_t@std@@@Z@4HA 0000000180011821 f   LIBCMT:new_scalar_nothrow.obj
 0001:0001082e       __catch$??2@YAPEAX_KAEBUnothrow_t@std@@@Z$0 000000018001182e f   LIBCMT:new_scalar_nothrow.obj
 0001:0001083c       ?filt$0@?0???$_CallSETranslator@V__FrameHandler3@@@@YAHPEAUEHExceptionRecord@@PEA_KPEAU_CONTEXT@@PEAU_xDISPATCHER_CONTEXT@@PEBU_s_FuncInfo@@K1@Z@4HA 000000018001183c f   libvcruntime:risctrnsctrl.obj
 0001:000108cd       __DestructExceptionObject$filt$0 00000001800118cd f   libvcruntime:ehhelpers.obj
 0001:000108e5       ?filt$0@?0??CxxCallCatchBlock@__FrameHandler3@@SAPEAXPEAU_EXCEPTION_RECORD@@@Z@4HA 00000001800118e5 f   libvcruntime:frame.obj
 0001:0001090a       ?fin$1@?0??CxxCallCatchBlock@__FrameHandler3@@SAPEAXPEAU_EXCEPTION_RECORD@@@Z@4HA 000000018001190a f   libvcruntime:frame.obj
 0001:00010982       ?filt$0@?0??FrameUnwindToState@__FrameHandler3@@SAXPEA_KPEAU_xDISPATCHER_CONTEXT@@PEBU_s_FuncInfo@@H@Z@4HA 0000000180011982 f   libvcruntime:frame.obj
 0001:00010998       ?fin$1@?0??FrameUnwindToState@__FrameHandler3@@SAXPEA_KPEAU_xDISPATCHER_CONTEXT@@PEBU_s_FuncInfo@@H@Z@4HA 0000000180011998 f   libvcruntime:frame.obj
 0001:000109bb       ?filt$0@?0??common_exit@@YAXHW4_crt_exit_cleanup_mode@@W4_crt_exit_return_mode@@@Z@4HA 00000001800119bb f   libucrt:exit.obj
 0001:000109d6       ?fin$1@?0??common_exit@@YAXHW4_crt_exit_cleanup_mode@@W4_crt_exit_return_mode@@@Z@4HA 00000001800119d6 f   libucrt:exit.obj
 0001:000109ef       ?fin$0@?0???$?RV<lambda_72d1df2b273a38828b1ce30cbf4cdab5>@@AEAV<lambda_876a65b173b8412d3a47c70a915b0cf4>@@V<lambda_41932305e351933ebe8f8be3ed8bb5dc>@@@?$__crt_seh_guarded_call@X@@QEAAX$$QEAV<lambda_72d1df2b273a38828b1ce30cbf4cdab5>@@AEAV<lambda_876a65b173b8412d3a47c70a915b0cf4>@@$$QEAV<lambda_41932305e351933ebe8f8be3ed8bb5dc>@@@Z@4HA 00000001800119ef f   libucrt:per_thread_data.obj
 0001:000109ef       ?fin$0@?0???$?RV<lambda_99476a1ad63dd22509b5d3e65b0ffc95>@@AEAV<lambda_ad1ced32f4ac17aa236e5ef05d6b3b7c>@@V<lambda_f7424dd8d45958661754dc4f2697e9c3>@@@?$__crt_seh_guarded_call@X@@QEAAX$$QEAV<lambda_99476a1ad63dd22509b5d3e65b0ffc95>@@AEAV<lambda_ad1ced32f4ac17aa236e5ef05d6b3b7c>@@$$QEAV<lambda_f7424dd8d45958661754dc4f2697e9c3>@@@Z@4HA 00000001800119ef f   libucrt:mbctype.obj
 0001:000109ef       ?fin$0@?0???$?RV<lambda_c36588078e9f5dfd39652860aa6b3aaf>@@AEAV<lambda_ec61778202f4f5fc7e7711acc23c3bca>@@V<lambda_dc9d2797ccde5d239b4a0efae8ebd7db>@@@?$__crt_seh_guarded_call@P6AXH@Z@@QEAAP6AXH@Z$$QEAV<lambda_c36588078e9f5dfd39652860aa6b3aaf>@@AEAV<lambda_ec61778202f4f5fc7e7711acc23c3bca>@@$$QEAV<lambda_dc9d2797ccde5d239b4a0efae8ebd7db>@@@Z@4HA 00000001800119ef f   libucrt:signal.obj
 0001:000109ef       ?fin$0@?0???$?RV<lambda_5e887d1dcbef67a5eb4283622ba103bf>@@AEAV<lambda_4466841279450cc726390878d4a41900>@@V<lambda_341c25c0346d94847f1f3c463c57e077>@@@?$__crt_seh_guarded_call@X@@QEAAX$$QEAV<lambda_5e887d1dcbef67a5eb4283622ba103bf>@@AEAV<lambda_4466841279450cc726390878d4a41900>@@$$QEAV<lambda_341c25c0346d94847f1f3c463c57e077>@@@Z@4HA 00000001800119ef f   libucrt:per_thread_data.obj
 0001:000109ef       ?fin$0@?0???$?RV<lambda_fb3a7dec4e47f37f22dae91bb15c9095>@@AEAV<lambda_698284760c8add0bfb0756c19673e34b>@@V<lambda_dfb8eca1e75fef3034a8fb18dd509707>@@@?$__crt_seh_guarded_call@X@@QEAAX$$QEAV<lambda_fb3a7dec4e47f37f22dae91bb15c9095>@@AEAV<lambda_698284760c8add0bfb0756c19673e34b>@@$$QEAV<lambda_dfb8eca1e75fef3034a8fb18dd509707>@@@Z@4HA 00000001800119ef f   libucrt:per_thread_data.obj
 0001:000109ef       ?fin$0@?0???$?RV<lambda_b8c45f8f788dd370798f47cfe8ac3a86>@@AEAV<lambda_4e60a939b0d047cfe11ddc22648dfba9>@@V<lambda_332c3edc96d0294ec56c57d38c1cdfd5>@@@?$__crt_seh_guarded_call@H@@QEAAH$$QEAV<lambda_b8c45f8f788dd370798f47cfe8ac3a86>@@AEAV<lambda_4e60a939b0d047cfe11ddc22648dfba9>@@$$QEAV<lambda_332c3edc96d0294ec56c57d38c1cdfd5>@@@Z@4HA 00000001800119ef f   libucrt:onexit.obj
 0001:000109ef       ?fin$0@?0???$?RV<lambda_46352004c1216016012b18bd6f87e700>@@AEAV<lambda_3bd07e1a1191394380780325891bf33f>@@V<lambda_334532d3f185bcaa59b5be82d7d22bff>@@@?$__crt_seh_guarded_call@X@@QEAAX$$QEAV<lambda_46352004c1216016012b18bd6f87e700>@@AEAV<lambda_3bd07e1a1191394380780325891bf33f>@@$$QEAV<lambda_334532d3f185bcaa59b5be82d7d22bff>@@@Z@4HA 00000001800119ef f   libucrt:per_thread_data.obj
 0001:00010a09       ?fin$0@?0???$?RV<lambda_e24bbb7b643b32fcea6fa61b31d4c984>@@AEAV<lambda_275893d493268fdec8709772e3fcec0e>@@V<lambda_9d71df4d7cf3f480f8d633942495c3b0>@@@?$__crt_seh_guarded_call@H@@QEAAH$$QEAV<lambda_e24bbb7b643b32fcea6fa61b31d4c984>@@AEAV<lambda_275893d493268fdec8709772e3fcec0e>@@$$QEAV<lambda_9d71df4d7cf3f480f8d633942495c3b0>@@@Z@4HA 0000000180011a09 f   libucrt:onexit.obj
 0001:00010a26       _query_new_handler$fin$0   0000000180011a26 f   libucrt:new_handler.obj
 0001:00010a3c       __acrt_update_thread_multibyte_data$fin$0 0000000180011a3c f   libucrt:mbctype.obj
 0001:00010a55       __acrt_initialize_lowio$fin$0 0000000180011a55 f   libucrt:ioinit.obj
 0001:00010a55       __acrt_lowio_ensure_fh_exists$fin$0 0000000180011a55 f   libucrt:osfinfo.obj
 0001:00010a6e       raise$fin$0                0000000180011a6e f   libucrt:signal.obj
 0001:00010a92       __acrt_update_thread_locale_data$fin$0 0000000180011a92 f   libucrt:locale_refcounting.obj
 0001:00010a92       __acrt_uninitialize_locale$fin$0 0000000180011a92 f   libucrt:wsetlocale.obj
 0001:00010aab       common_flush_all$fin$0     0000000180011aab f   libucrt:fflush.obj
 0001:00010ac5       common_flush_all$fin$1     0000000180011ac5 f   libucrt:fflush.obj
 0001:00010ade       _fcloseall$fin$0           0000000180011ade f   libucrt:closeall.obj
 0001:00010af7       ?fin$0@?0???$?RV<lambda_bfedae4ebbf01fab1bb6dcc6a9e276e0>@@AEAV<lambda_2fe9b910cf3cbf4a0ab98a02ba45b3ec>@@V<lambda_237c231691f317818eb88cc1d5d642d6>@@@?$__crt_seh_guarded_call@H@@QEAAH$$QEAV<lambda_bfedae4ebbf01fab1bb6dcc6a9e276e0>@@AEAV<lambda_2fe9b910cf3cbf4a0ab98a02ba45b3ec>@@$$QEAV<lambda_237c231691f317818eb88cc1d5d642d6>@@@Z@4HA 0000000180011af7 f   libucrt:close.obj
 0001:00010af7       ?fin$0@?0???$?RV<lambda_b521505b218e5242e90febf6bfebc422>@@AEAV<lambda_6978c1fb23f02e42e1d9e99668cc68aa>@@V<lambda_314360699dd331753a4119843814e9a7>@@@?$__crt_seh_guarded_call@H@@QEAAH$$QEAV<lambda_b521505b218e5242e90febf6bfebc422>@@AEAV<lambda_6978c1fb23f02e42e1d9e99668cc68aa>@@$$QEAV<lambda_314360699dd331753a4119843814e9a7>@@@Z@4HA 0000000180011af7 f   libucrt:commit.obj
 0001:00010b11       _write$fin$0               0000000180011b11 f   libucrt:write.obj
 0001:00010b28       fclose$fin$0               0000000180011b28 f   libucrt:fclose.obj
 0001:00010b40       _ctrlfp$filt$0             0000000180011b40 f   libucrt:fpctrl.obj
 0001:00010b70       _IsNonwritableInCurrentImage$filt$0 0000000180011b70 f   LIBCMT:pesect.obj
 0001:00010b90       ??__F_AtlComModule@ATL@@YAXXZ 0000000180011b90 f   StdAfx.obj
 0001:00010c20       ??__F_Module@@YAXXZ        0000000180011c20 f   OposConstants.obj
 0001:00010c3c       ??__F_AtlBaseModule@ATL@@YAXXZ 0000000180011c3c f   atls:atlbase.obj
 0002:00000350       ?_AtlBaseModule$initializer$@ATL@@3P6AXXZEA 0000000180012350     atls:atlbase.obj
 0002:00000358       ?_AtlComModule$initializer$@ATL@@3P6AXXZEA 0000000180012358     StdAfx.obj
 0002:00000360       ?_Module$initializer$@@3P6AXXZEA 0000000180012360     OposConstants.obj
 0002:00000b58       GS_ExceptionPointers       0000000180012b58     LIBCMT:gs_report.obj
 0002:00000b70       $cppxdata$??2@YAPEAX_KAEBUnothrow_t@std@@@Z 0000000180012b70     LIBCMT:new_scalar_nothrow.obj
 0002:00000c30       ?ExceptionTemplate@?1??UnwindNestedFrames@__FrameHandler3@@SAXPEA_KPEAUEHExceptionRecord@@PEAU_CONTEXT@@0PEAXPEBU_s_FuncInfo@@HHPEBU_s_HandlerType@@PEAU_xDISPATCHER_CONTEXT@@E@Z@4U_EXCEPTION_RECORD@@B 0000000180012c30     libvcruntime:risctrnsctrl.obj
 0002:00000cd0       ?ExceptionTemplate@?1??_CxxThrowException@@9@4UEHExceptionRecord@@B 0000000180012cd0     libvcruntime:throw.obj
 0002:00000d10       ?module_names@?A0xbfd18cd1@@3QBQEB_WB 0000000180012d10     libvcruntime:winapi_downlevel.obj
 0002:00000de0       ?candidate_modules@?1??try_get_FlsAlloc@@YAP6AKP6AXPEAX@Z@ZXZ@4QBW4module_id@?A0xbfd18cd1@@B 0000000180012de0     libvcruntime:winapi_downlevel.obj
 0002:00000df8       ?candidate_modules@?1??try_get_FlsFree@@YAP6AHK@ZXZ@4QBW4module_id@?A0xbfd18cd1@@B 0000000180012df8     libvcruntime:winapi_downlevel.obj
 0002:00000e08       ?candidate_modules@?1??try_get_FlsGetValue@@YAP6APEAXK@ZXZ@4QBW4module_id@?A0xbfd18cd1@@B 0000000180012e08     libvcruntime:winapi_downlevel.obj
 0002:00000e20       ?candidate_modules@?1??try_get_FlsSetValue@@YAP6AHKPEAX@ZXZ@4QBW4module_id@?A0xbfd18cd1@@B 0000000180012e20     libvcruntime:winapi_downlevel.obj
 0002:00000e38       ?candidate_modules@?1??try_get_InitializeCriticalSectionEx@@YAP6AHPEAU_RTL_CRITICAL_SECTION@@KK@ZXZ@4QBW4module_id@?A0xbfd18cd1@@B 0000000180012e38     libvcruntime:winapi_downlevel.obj
 0002:00000e90       ?tokenTable@@3QBQEBDB      0000000180012e90     libvcruntime:undname.obj
 0002:00000f10       ?nameTable@@3QBQEBDB       0000000180012f10     libvcruntime:undname.obj
 0002:000011a0       ?rttiTable@@3QBQEBDB       00000001800131a0     libvcruntime:undname.obj
 0002:00001860       errtable                   0000000180013860     libucrt:errno.obj
 0002:00001ad0       __acrt_initializers        0000000180013ad0     libucrt:initialization.obj
 0002:00001bc0       module_names               0000000180013bc0     libucrt:winapi_thunks.obj
 0002:000021a0       ?candidate_modules@?1??try_get_FlsAlloc@@YAP6AKP6AXPEAX@Z@ZXZ@4QBW4module_id@?A0x63058377@@B 00000001800141a0     libucrt:winapi_thunks.obj
 0002:000021b8       ?candidate_modules@?1??try_get_FlsFree@@YAP6AHK@ZXZ@4QBW4module_id@?A0x63058377@@B 00000001800141b8     libucrt:winapi_thunks.obj
 0002:000021c8       ?candidate_modules@?1??try_get_FlsGetValue@@YAP6APEAXK@ZXZ@4QBW4module_id@?A0x63058377@@B 00000001800141c8     libucrt:winapi_thunks.obj
 0002:000021e0       ?candidate_modules@?1??try_get_FlsSetValue@@YAP6AHKPEAX@ZXZ@4QBW4module_id@?A0x63058377@@B 00000001800141e0     libucrt:winapi_thunks.obj
 0002:000021f8       ?candidate_modules@?1??try_get_GetCurrentPackageId@@YAP6AJPEAIPEAE@ZXZ@4QBW4module_id@?A0x63058377@@B 00000001800141f8     libucrt:winapi_thunks.obj
 0002:00002218       ?candidate_modules@?1??try_get_InitializeCriticalSectionEx@@YAP6AHPEAU_RTL_CRITICAL_SECTION@@KK@ZXZ@4QBW4module_id@?A0x63058377@@B 0000000180014218     libucrt:winapi_thunks.obj
 0002:00002240       ?candidate_modules@?1??try_get_LCMapStringEx@@YAP6AHPEB_WK0HPEA_WHPEAU_nlsversioninfo@@PEAX_J@ZXZ@4QBW4module_id@?A0x63058377@@B 0000000180014240     libucrt:winapi_thunks.obj
 0002:00002258       ?candidate_modules@?1??try_get_LocaleNameToLCID@@YAP6AKPEB_WK@ZXZ@4QBW4module_id@?A0x63058377@@B 0000000180014258     libucrt:winapi_thunks.obj
 0002:00002278       _mb_locale_names           0000000180014278     libucrt:mbctype.obj
 0002:00002f60       LcidToLocaleNameTable      0000000180014f60     libucrt:lcidtoname_downlevel.obj
 0002:000049c0       LocaleNameToIndexTable     00000001800169c0     libucrt:lcidtoname_downlevel.obj
 0002:00006260       __real_ninf                0000000180018260     libucrt:log10.obj
 0002:00006270       __real_inf                 0000000180018270     libucrt:log10.obj
 0002:00006280       __real_neg_qnan            0000000180018280     libucrt:log10.obj
 0002:00006290       __real_qnanbit             0000000180018290     libucrt:log10.obj
 0002:000062a0       __int_1023                 00000001800182a0     libucrt:log10.obj
 0002:000062b0       __mask_001                 00000001800182b0     libucrt:log10.obj
 0002:000062c0       __mask_mant                00000001800182c0     libucrt:log10.obj
 0002:000062d0       __mask_mant_top8           00000001800182d0     libucrt:log10.obj
 0002:000062e0       __mask_mant9               00000001800182e0     libucrt:log10.obj
 0002:000062f0       __real_log10_e             00000001800182f0     libucrt:log10.obj
 0002:00006300       __real_log10_e_lead        0000000180018300     libucrt:log10.obj
 0002:00006310       __real_log10_e_tail        0000000180018310     libucrt:log10.obj
 0002:00006320       __real_log10_2_lead        0000000180018320     libucrt:log10.obj
 0002:00006330       __real_log10_2_tail        0000000180018330     libucrt:log10.obj
 0002:00006340       __real_two                 0000000180018340     libucrt:log10.obj
 0002:00006350       __real_one                 0000000180018350     libucrt:log10.obj
 0002:00006360       __real_half                0000000180018360     libucrt:log10.obj
 0002:00006370       __mask_100                 0000000180018370     libucrt:log10.obj
 0002:00006380       __real_1_over_512          0000000180018380     libucrt:log10.obj
 0002:00006390       __real_1_over_2            0000000180018390     libucrt:log10.obj
 0002:000063a0       __real_1_over_3            00000001800183a0     libucrt:log10.obj
 0002:000063b0       __real_1_over_4            00000001800183b0     libucrt:log10.obj
 0002:000063c0       __real_1_over_5            00000001800183c0     libucrt:log10.obj
 0002:000063d0       __real_1_over_6            00000001800183d0     libucrt:log10.obj
 0002:000063e0       __real_neg_1023            00000001800183e0     libucrt:log10.obj
 0002:000063f0       __mask_2045                00000001800183f0     libucrt:log10.obj
 0002:00006400       __real_threshold           0000000180018400     libucrt:log10.obj
 0002:00006410       __real_near_one_lt         0000000180018410     libucrt:log10.obj
 0002:00006420       __real_near_one_gt         0000000180018420     libucrt:log10.obj
 0002:00006430       __real_min_norm            0000000180018430     libucrt:log10.obj
 0002:00006440       __real_notsign             0000000180018440     libucrt:log10.obj
 0002:00006450       __real_ca1                 0000000180018450     libucrt:log10.obj
 0002:00006460       __real_ca2                 0000000180018460     libucrt:log10.obj
 0002:00006470       __real_ca3                 0000000180018470     libucrt:log10.obj
 0002:00006480       __real_ca4                 0000000180018480     libucrt:log10.obj
 0002:00006490       __mask_lower               0000000180018490     libucrt:log10.obj
 0002:000064a0       __flag_x_zero              00000001800184a0     libucrt:log10.obj
 0002:000064a4       __flag_x_neg               00000001800184a4     libucrt:log10.obj
 0002:000064a8       __flag_x_nan               00000001800184a8     libucrt:log10.obj
 0002:00007d00       __real@433fffffffffffff    0000000180019d00     libucrt:fpsr.obj
 0002:00007d08       __real@c33fffffffffffff    0000000180019d08     libucrt:fpsr.obj
 0002:00008490       $unwind$__acrt_initialize_multibyte 000000018001a490     libucrt:mbctype.obj
 0002:00008490       $unwind$__acrt_uninitialize_ptd 000000018001a490     libucrt:per_thread_data.obj
 0002:00008490       $unwind$__acrt_initialize_ptd 000000018001a490     libucrt:per_thread_data.obj
 0002:00008490       $unwind$__acrt_release_locale_ref 000000018001a490     libucrt:locale_refcounting.obj
 0002:00008490       $unwind$__acrt_thread_attach 000000018001a490     libucrt:initialization.obj
 0002:00008490       $unwind$__acrt_uninitialize_critical 000000018001a490     libucrt:initialization.obj
 0002:00008490       $unwind$__pctype_func      000000018001a490     libucrt:ctype.obj
 0002:00008490       $unwind$__acrt_thread_detach 000000018001a490     libucrt:initialization.obj
 0002:00008490       $unwind$__vcrt_thread_detach 000000018001a490     libvcruntime:initialization.obj
 0002:00008490       $unwind$__vcrt_initialize_ptd 000000018001a490     libvcruntime:per_thread_data.obj
 0002:00008490       $unwind$_statfp            000000018001a490     libucrt:fpctrl.obj
 0002:00008490       $unwind$??__E_AtlComModule@ATL@@YAXXZ 000000018001a490     StdAfx.obj
 0002:00008490       $unwind$__vcrt_uninitialize 000000018001a490     libvcruntime:initialization.obj
 0002:00008490       $unwind$_isatty            000000018001a490     libucrt:isatty.obj
 0002:00008490       $unwind$__acrt_DownlevelLocaleNameToLCID 000000018001a490     libucrt:lcidtoname_downlevel.obj
 0002:00008490       $unwind$_set_errno_from_matherr 000000018001a490     libucrt:fpexcept.obj
 0002:00008490       $unwind$__vcrt_getptd      000000018001a490     libvcruntime:per_thread_data.obj
 0002:00008490       $unwind$_fileno            000000018001a490     libucrt:fileno.obj
 0002:00008490       $unwind$__vcrt_uninitialize_ptd 000000018001a490     libvcruntime:per_thread_data.obj
 0002:00008490       $unwind$uninitialize_environment 000000018001a490     libucrt:initialization.obj
 0002:00008490       $unwind$abort              000000018001a490     libucrt:abort.obj
 0002:00008490       $unwind$__vcrt_thread_attach 000000018001a490     libvcruntime:initialization.obj
 0002:00008490       $unwind$__dcrt_terminate_console_output 000000018001a490     libucrt:initcon.obj
 0002:00008490       $unwind$?AddReplacement@CRegObject@ATL@@UEAAJPEB_W0@Z 000000018001a490     OposConstants.obj
 0002:00008490       $unwind$?AtlHresultFromLastError@ATL@@YAJXZ 000000018001a490     OposConstants.obj
 0002:00008490       $unwind$??__F_AtlComModule@ATL@@YAXXZ 000000018001a490     StdAfx.obj
 0002:00008490       $unwind$_get_osfhandle     000000018001a490     libucrt:osfinfo.obj
 0002:00008490       $unwind$??__E_AtlBaseModule@ATL@@YAXXZ 000000018001a490     atls:atlbase.obj
 0002:00008490       $unwind$?dllmain_crt_dispatch@@YAHQEAUHINSTANCE__@@KQEAX@Z 000000018001a490     LIBCMT:dll_dllmain.obj
 0002:00008490       $unwind$__acrt_initialize_command_line 000000018001a490     libucrt:argv_data.obj
 0002:00008490       $unwind$atexit             000000018001a490     LIBCMT:utility.obj
 0002:00008490       $unwind$__scrt_initialize_default_local_stdio_options 000000018001a490     LIBCMT:default_local_stdio_options.obj
 0002:00008490       $unwind$__doserrno         000000018001a490     libucrt:errno.obj
 0002:00008490       $unwind$_GetThrowImageBase 000000018001a490     libvcruntime:risctrnsctrl.obj
 0002:00008490       $unwind$__scrt_acquire_startup_lock 000000018001a490     LIBCMT:utility.obj
 0002:00008490       $unwind$_GetImageBase      000000018001a490     libvcruntime:risctrnsctrl.obj
 0002:00008490       $unwind$?AtlThrowImpl@ATL@@YAXJ@Z 000000018001a490     OposConstants.obj
 0002:00008490       $unwind$__acrt_initialize_heap 000000018001a490     libucrt:heap_handle.obj
 0002:00008490       $unwind$??$uninitialize_environment_internal@_W@@YAXAEAPEAPEA_W@Z 000000018001a490     libucrt:environment_initialization.obj
 0002:00008490       $unwind$initialize_c       000000018001a490     libucrt:initialization.obj
 0002:00008490       $unwind$__scrt_dllmain_before_initialize_c 000000018001a490     LIBCMT:utility.obj
 0002:00008490       $unwind$__vcrt_uninitialize_critical 000000018001a490     libvcruntime:initialization.obj
 0002:00008490       $unwind$?memcpy_s@Checked@ATL@@YAXPEAX_KPEBX1@Z 000000018001a490     OposConstants.obj
 0002:00008490       $unwind$__scrt_dllmain_after_initialize_c 000000018001a490     LIBCMT:utility.obj
 0002:00008490       $unwind$?wcscpy_s@Checked@ATL@@YAXPEA_W_KPEB_W@Z 000000018001a490     OposConstants.obj
 0002:00008490       $unwind$__scrt_dllmain_uninitialize_c 000000018001a490     LIBCMT:utility.obj
 0002:00008490       $unwind$_errno             000000018001a490     libucrt:errno.obj
 0002:00008490       $unwind$__scrt_dllmain_uninitialize_critical 000000018001a490     LIBCMT:utility.obj
 0002:00008490       $unwind$__scrt_dllmain_crt_thread_attach 000000018001a490     LIBCMT:utility.obj
 0002:00008490       $unwind$__scrt_dllmain_crt_thread_detach 000000018001a490     LIBCMT:utility.obj
 0002:00008490       $unwind$??$uninitialize_environment_internal@D@@YAXAEAPEAPEAD@Z 000000018001a490     libucrt:environment_initialization.obj
 0002:00008490       $unwind$__report_rangecheckfailure 000000018001a490     LIBCMT:gs_report.obj
 0002:00008490       $unwind$_msize             000000018001a490     libucrt:msize.obj
 0002:00008490       $unwind$__FrameUnwindFilter 000000018001a490     libvcruntime:ehhelpers.obj
 0002:00008490       $unwind$__GSHandlerCheck   000000018001a490     LIBCMT:gshandler.obj
 0002:00008490       $unwind$?initialize_multibyte@@YAHXZ 000000018001a490     libucrt:multibyte_initializer.obj
 0002:00008490       $unwind$__vcrt_freefls     000000018001a490     libvcruntime:per_thread_data.obj
 0002:00008490       $unwind$?GetCurrentState@__FrameHandler3@@SAHPEA_KPEAU_xDISPATCHER_CONTEXT@@PEBU_s_FuncInfo@@@Z 000000018001a490     libvcruntime:ehstate.obj
 0002:00008490       $unwind$_invoke_watson     000000018001a490     libucrt:invalid_parameter.obj
 0002:00008490       $unwind$__dcrt_uninitialize_environments_nolock 000000018001a490     libucrt:environment_initialization.obj
 0002:00008490       $unwind$__vcrt_initialize  000000018001a490     libvcruntime:initialization.obj
 0002:00008498       $chain$1$??__F_AtlComModule@ATL@@YAXXZ 000000018001a498     StdAfx.obj
 0002:000084b0       $chain$2$??__F_AtlComModule@ATL@@YAXXZ 000000018001a4b0     StdAfx.obj
 0002:000084c4       $chain$3$??__F_AtlComModule@ATL@@YAXXZ 000000018001a4c4     StdAfx.obj
 0002:000084d4       $chain$4$??__F_AtlComModule@ATL@@YAXXZ 000000018001a4d4     StdAfx.obj
 0002:000084e4       $unwind$__acrt_LocaleNameToLCID 000000018001a4e4     libucrt:winapi_thunks.obj
 0002:000084e4       $unwind$_DllMainCRTStartup 000000018001a4e4     LIBCMT:dll_dllmain.obj
 0002:000084e4       $unwind$??_GCRegObject@ATL@@UEAAPEAXI@Z 000000018001a4e4     OposConstants.obj
 0002:000084e4       $unwind$__vcrt_getptd_noexit 000000018001a4e4     libvcruntime:per_thread_data.obj
 0002:000084e4       $unwind$?FrameUnwindToEmptyState@__FrameHandler3@@SAXPEA_KPEAU_xDISPATCHER_CONTEXT@@PEBU_s_FuncInfo@@@Z 000000018001a4e4     libvcruntime:risctrnsctrl.obj
 0002:000084e4       $unwind$__acrt_FlsSetValue 000000018001a4e4     libucrt:winapi_thunks.obj
 0002:000084e4       $unwind$__vcrt_InitializeCriticalSectionEx 000000018001a4e4     libvcruntime:winapi_downlevel.obj
 0002:000084e4       $unwind$?CatchTryBlock@__FrameHandler3@@SAPEBU_s_TryBlockMapEntry@@PEBU_s_FuncInfo@@H@Z 000000018001a4e4     libvcruntime:risctrnsctrl.obj
 0002:000084e4       $unwind$?Append@CParseBuffer@CRegParser@ATL@@QEAAHPEB_WH@Z 000000018001a4e4     OposConstants.obj
 0002:000084e4       $unwind$memcpy_s           000000018001a4e4     OposConstants.obj
 0002:000084e4       $unwind$_exception_enabled 000000018001a4e4     libucrt:libm_error.obj
 0002:000084e4       $unwind$??R<lambda_ad1ced32f4ac17aa236e5ef05d6b3b7c>@@QEBAXXZ 000000018001a4e4     libucrt:mbctype.obj
 0002:000084e4       $unwind$?free_crt_array_internal@@YAXQEAPEBX_K@Z 000000018001a4e4     libucrt:inittime.obj
 0002:000084e4       $unwind$_initterm_e        000000018001a4e4     libucrt:initterm.obj
 0002:000084e4       $unwind$?ClearReplacements@CExpansionVector@ATL@@QEAAJXZ 000000018001a4e4     OposConstants.obj
 0002:000084e4       $unwind$__acrt_getptd_noexit 000000018001a4e4     libucrt:per_thread_data.obj
 0002:000084e4       $unwind$__acrt_stdio_flush_nolock 000000018001a4e4     libucrt:fflush.obj
 0002:000084e4       $unwind$__acrt_execute_uninitializers 000000018001a4e4     libucrt:shared_initialization.obj
 0002:000084e4       $unwind$??$common_lseek_nolock@_J@@YA_JH_JH@Z 000000018001a4e4     libucrt:lseek.obj
 0002:000084f4       $unwind$_fflush_nolock     000000018001a4f4     libucrt:fflush.obj
 0002:000084f4       $unwind$??_Gtype_info@@UEAAPEAXI@Z 000000018001a4f4     LIBCMT:std_type_info_static.obj
 0002:000084f4       $unwind$DllUnregisterServer 000000018001a4f4     OposConstants.obj
 0002:000084f4       $unwind$??0bad_array_new_length@std@@QEAA@AEBV01@@Z 000000018001a4f4     LIBCMT:throw_bad_alloc.obj
 0002:000084f4       $unwind$wcscpy_s           000000018001a4f4     libucrt:wcscpy_s.obj
 0002:000084f4       $unwind$??0bad_alloc@std@@QEAA@AEBV01@@Z 000000018001a4f4     LIBCMT:throw_bad_alloc.obj
 0002:000084f4       $unwind$wcscat_s           000000018001a4f4     libucrt:wcscat_s.obj
 0002:000084f4       $unwind$??0exception@std@@QEAA@AEBV01@@Z 000000018001a4f4     LIBCMT:throw_bad_alloc.obj
 0002:000084f4       $unwind$??2@YAPEAX_K@Z     000000018001a4f4     LIBCMT:new_scalar.obj
 0002:000084f4       $unwind$__acrt_freeptd     000000018001a4f4     libucrt:per_thread_data.obj
 0002:000084f4       $unwind$?exit_or_terminate_process@@YAXI@Z 000000018001a4f4     libucrt:exit.obj
 0002:000084f4       $unwind$strcpy_s           000000018001a4f4     libucrt:strcpy_s.obj
 0002:000084f4       $unwind$__raise_securityfailure 000000018001a4f4     LIBCMT:gs_report.obj
 0002:000084f4       $unwind$?ExFilterRethrow@@YAHPEAU_EXCEPTION_POINTERS@@PEAUEHExceptionRecord@@PEAH@Z 000000018001a4f4     libvcruntime:frame.obj
 0002:000084f4       $unwind$??0bad_exception@std@@QEAA@AEBV01@@Z 000000018001a4f4     libvcruntime:frame.obj
 0002:000084f4       $unwind$__acrt_allocate_buffer_for_argv 000000018001a4f4     libucrt:argv_parsing.obj
 0002:000084f4       $unwind$?GetUnwindTryBlock@__FrameHandler3@@SAHPEA_KPEAU_xDISPATCHER_CONTEXT@@PEBU_s_FuncInfo@@@Z 000000018001a4f4     libvcruntime:ehstate.obj
 0002:000084f4       $unwind$__scrt_uninitialize_crt 000000018001a4f4     LIBCMT:utility.obj
 0002:000084f4       $unwind$?ExecutionInCatch@__FrameHandler3@@SA_NPEAU_xDISPATCHER_CONTEXT@@PEBU_s_FuncInfo@@@Z 000000018001a4f4     libvcruntime:risctrnsctrl.obj
 0002:000084f4       $unwind$__scrt_initialize_crt 000000018001a4f4     LIBCMT:utility.obj
 0002:000084f4       $unwind$__scrt_release_startup_lock 000000018001a4f4     LIBCMT:utility.obj
 0002:000084f4       $unwind$_SetImageBase      000000018001a4f4     libvcruntime:risctrnsctrl.obj
 0002:000084f4       $unwind$?StateFromIp@__FrameHandler3@@SAHPEBU_s_FuncInfo@@PEAU_xDISPATCHER_CONTEXT@@_K@Z 000000018001a4f4     libvcruntime:ehstate.obj
 0002:000084f4       $unwind$_SetThrowImageBase 000000018001a4f4     libvcruntime:risctrnsctrl.obj
 0002:000084f4       $unwind$_malloc_base       000000018001a4f4     libucrt:malloc_base.obj
 0002:000084f4       $unwind$_CreateFrameInfo   000000018001a4f4     libvcruntime:risctrnsctrl.obj
 0002:000084f4       $unwind$_IsExceptionObjectToBeDestroyed 000000018001a4f4     libvcruntime:ehhelpers.obj
 0002:000084f4       $unwind$__acrt_initialize_locks 000000018001a4f4     libucrt:locks.obj
 0002:000084f4       $unwind$_onexit            000000018001a4f4     LIBCMT:utility.obj
 0002:000084f4       $unwind$__acrt_uninitialize_locks 000000018001a4f4     libucrt:locks.obj
 0002:000084f4       $unwind$??1CAtlBaseModule@ATL@@QEAA@XZ 000000018001a4f4     atls:atlbase.obj
 0002:000084f4       $unwind$__acrt_stdio_free_buffer_nolock 000000018001a4f4     libucrt:_freebuf.obj
 0002:000084f4       $unwind$_calloc_base       000000018001a4f4     libucrt:calloc_base.obj
 0002:000084f4       $unwind$__std_type_info_destroy_list 000000018001a4f4     libvcruntime:std_type_info.obj
 0002:000084f4       $unwind$__acrt_update_locale_info 000000018001a4f4     libucrt:locale_update.obj
 0002:000084f4       $unwind$__acrt_update_multibyte_info 000000018001a4f4     libucrt:locale_update.obj
 0002:000084f4       $unwind$__acrt_uninitialize_stdio 000000018001a4f4     libucrt:_file.obj
 0002:000084f4       $unwind$_clrfp             000000018001a4f4     libucrt:fpctrl.obj
 0002:000084f4       $unwind$_set_statfp        000000018001a4f4     libucrt:fpctrl.obj
 0002:000084f4       $unwind$uninitialize_allocated_memory 000000018001a4f4     libucrt:initialization.obj
 0002:000084f4       $unwind$initialize_pointers 000000018001a4f4     libucrt:initialization.obj
 0002:000084f4       $unwind$__vcrt_FlsGetValue 000000018001a4f4     libvcruntime:winapi_downlevel.obj
 0002:000084f4       $unwind$__std_exception_destroy 000000018001a4f4     libvcruntime:std_exception.obj
 0002:000084f4       $unwind$__vcrt_FlsFree     000000018001a4f4     libvcruntime:winapi_downlevel.obj
 0002:000084f4       $unwind$??__E_Module@@YAXXZ 000000018001a4f4     OposConstants.obj
 0002:000084f4       $unwind$?AllocateHeap@?$CTempBuffer@E$0BAA@VCCRTAllocator@ATL@@@ATL@@AEAAX_K@Z 000000018001a4f4     OposConstants.obj
 0002:000084f4       $unwind$?AllocateHeap@?$CTempBuffer@_W$0BAA@VCCRTAllocator@ATL@@@ATL@@AEAAX_K@Z 000000018001a4f4     OposConstants.obj
 0002:000084f4       $unwind$?AllocateHeap@?$CTempBuffer@_W$0EAA@VCCRTAllocator@ATL@@@ATL@@AEAAX_K@Z 000000018001a4f4     OposConstants.obj
 0002:000084f4       $unwind$__vcrt_freeptd     000000018001a4f4     libvcruntime:per_thread_data.obj
 0002:000084f4       $unwind$__vcrt_FlsAlloc    000000018001a4f4     libvcruntime:winapi_downlevel.obj
 0002:000084f4       $unwind$?EndOfVar@CRegParser@ATL@@IEAAHXZ 000000018001a4f4     OposConstants.obj
 0002:000084f4       $unwind$__vcrt_initialize_locks 000000018001a4f4     libvcruntime:locks.obj
 0002:000084f4       $unwind$__vcrt_uninitialize_locks 000000018001a4f4     libvcruntime:locks.obj
 0002:000084f4       $unwind$__acrt_uninitialize_winapi_thunks 000000018001a4f4     libucrt:winapi_thunks.obj
 0002:000084fc       $chain$0$DllUnregisterServer 000000018001a4fc     OposConstants.obj
 0002:00008510       $chain$1$DllUnregisterServer 000000018001a510     OposConstants.obj
 0002:00008520       $unwind$?AtlRegisterClassCategoriesHelper@ATL@@YAJAEBU_GUID@@PEBU_ATL_CATMAP_ENTRY@1@H@Z 000000018001a520     OposConstants.obj
 0002:00008540       $unwind$?AtlLoadTypeLib@ATL@@YAJPEAUHINSTANCE__@@PEB_WPEAPEA_WPEAPEAUITypeLib@@@Z 000000018001a540     OposConstants.obj
 0002:00008558       $chain$2$?AtlLoadTypeLib@ATL@@YAJPEAUHINSTANCE__@@PEB_WPEAPEA_WPEAPEAUITypeLib@@@Z 000000018001a558     OposConstants.obj
 0002:00008574       $chain$3$?AtlLoadTypeLib@ATL@@YAJPEAUHINSTANCE__@@PEB_WPEAPEA_WPEAPEAUITypeLib@@@Z 000000018001a574     OposConstants.obj
 0002:00008584       $chain$4$?AtlLoadTypeLib@ATL@@YAJPEAUHINSTANCE__@@PEB_WPEAPEA_WPEAPEAUITypeLib@@@Z 000000018001a584     OposConstants.obj
 0002:000085a0       $unwind$?AtlRegisterTypeLib@ATL@@YAJPEAUHINSTANCE__@@PEB_W@Z 000000018001a5a0     OposConstants.obj
 0002:000085b4       $chain$0$?AtlRegisterTypeLib@ATL@@YAJPEAUHINSTANCE__@@PEB_W@Z 000000018001a5b4     OposConstants.obj
 0002:000085c8       $chain$1$?AtlRegisterTypeLib@ATL@@YAJPEAUHINSTANCE__@@PEB_W@Z 000000018001a5c8     OposConstants.obj
 0002:000085dc       $chain$2$?AtlRegisterTypeLib@ATL@@YAJPEAUHINSTANCE__@@PEB_W@Z 000000018001a5dc     OposConstants.obj
 0002:000085ec       $chain$3$?AtlRegisterTypeLib@ATL@@YAJPEAUHINSTANCE__@@PEB_W@Z 000000018001a5ec     OposConstants.obj
 0002:000085fc       $unwind$_isleadbyte_l      000000018001a5fc     libucrt:_wctype.obj
 0002:000085fc       $unwind$?getSystemCP@@YAHH@Z 000000018001a5fc     libucrt:mbctype.obj
 0002:000085fc       $unwind$__scrt_initialize_onexit_tables 000000018001a5fc     LIBCMT:utility.obj
 0002:000085fc       $unwind$?AtlUnRegisterTypeLib@ATL@@YAJPEAUHINSTANCE__@@PEB_W@Z 000000018001a5fc     OposConstants.obj
 0002:00008604       $unwind$?atlCreate@CRegKey@ATL@@QEAAJPEAUHKEY__@@PEB_WPEA_WKKPEAU_SECURITY_ATTRIBUTES@@PEAK@Z 000000018001a604     OposConstants.obj
 0002:0000861c       $unwind$?Open@CRegKey@ATL@@QEAAJPEAUHKEY__@@PEB_WK@Z 000000018001a61c     OposConstants.obj
 0002:00008634       $unwind$?DeleteSubKey@CRegKey@ATL@@QEAAJPEB_W@Z 000000018001a634     OposConstants.obj
 0002:00008644       $unwind$?RecurseDeleteKey@CRegKey@ATL@@QEAAJPEB_W@Z 000000018001a644     OposConstants.obj
 0002:00008660       $unwind$?Term@CAtlModule@ATL@@QEAAXXZ 000000018001a660     OposConstants.obj
 0002:0000866c       $chain$0$?Term@CAtlModule@ATL@@QEAAXXZ 000000018001a66c     OposConstants.obj
 0002:00008680       $chain$1$?Term@CAtlModule@ATL@@QEAAXXZ 000000018001a680     OposConstants.obj
 0002:00008694       $chain$2$?Term@CAtlModule@ATL@@QEAAXXZ 000000018001a694     OposConstants.obj
 0002:000086a4       $chain$3$?Term@CAtlModule@ATL@@QEAAXXZ 000000018001a6a4     OposConstants.obj
 0002:000086b4       $unwind$?GetGITPtr@CAtlModule@ATL@@UEAAJPEAPEAUIGlobalInterfaceTable@@@Z 000000018001a6b4     OposConstants.obj
 0002:000086c4       $unwind$?UpdateRegistryFromResource@CAtlModule@ATL@@QEAAJPEB_WHPEAU_ATL_REGMAP_ENTRY@2@@Z 000000018001a6c4     OposConstants.obj
 0002:000086c4       $unwind$?UpdateRegistryFromResource@CAtlModule@ATL@@QEAAJIHPEAU_ATL_REGMAP_ENTRY@2@@Z 000000018001a6c4     OposConstants.obj
 0002:000086e4       $unwind$?Term@CComModule@ATL@@QEAAXXZ 000000018001a6e4     OposConstants.obj
 0002:000086f8       $chain$0$?Term@CComModule@ATL@@QEAAXXZ 000000018001a6f8     OposConstants.obj
 0002:0000870c       $chain$1$?Term@CComModule@ATL@@QEAAXXZ 000000018001a70c     OposConstants.obj
 0002:0000871c       $unwind$?GetClassObject@CComModule@ATL@@QEAAJAEBU_GUID@@0PEAPEAX@Z 000000018001a71c     OposConstants.obj
 0002:00008730       $chain$0$?GetClassObject@CComModule@ATL@@QEAAJAEBU_GUID@@0PEAPEAX@Z 000000018001a730     OposConstants.obj
 0002:00008744       $chain$1$?GetClassObject@CComModule@ATL@@QEAAJAEBU_GUID@@0PEAPEAX@Z 000000018001a744     OposConstants.obj
 0002:00008754       $unwind$?RegisterServer@CComModule@ATL@@QEAAJHPEBU_GUID@@@Z 000000018001a754     OposConstants.obj
 0002:0000876c       $chain$2$?RegisterServer@CComModule@ATL@@QEAAJHPEBU_GUID@@@Z 000000018001a76c     OposConstants.obj
 0002:00008788       $chain$3$?RegisterServer@CComModule@ATL@@QEAAJHPEBU_GUID@@@Z 000000018001a788     OposConstants.obj
 0002:0000879c       $chain$4$?RegisterServer@CComModule@ATL@@QEAAJHPEBU_GUID@@@Z 000000018001a79c     OposConstants.obj
 0002:000087ac       $chain$5$?RegisterServer@CComModule@ATL@@QEAAJHPEBU_GUID@@@Z 000000018001a7ac     OposConstants.obj
 0002:000087c8       $unwind$??_Gbad_exception@std@@UEAAPEAXI@Z 000000018001a7c8     libvcruntime:frame.obj
 0002:000087c8       $unwind$__acrt_uninitialize_lowio 000000018001a7c8     libucrt:ioinit.obj
 0002:000087c8       $unwind$_close_nolock      000000018001a7c8     libucrt:close.obj
 0002:000087c8       $unwind$_RTC_Initialize    000000018001a7c8     LIBCMT:initsect.obj
 0002:000087c8       $unwind$__acrt_FlsAlloc    000000018001a7c8     libucrt:winapi_thunks.obj
 0002:000087c8       $unwind$?try_cor_exit_process@@YAXI@Z 000000018001a7c8     libucrt:exit.obj
 0002:000087c8       $unwind$??0_LocaleUpdate@@QEAA@QEAU__crt_locale_pointers@@@Z 000000018001a7c8     libucrt:output.obj
 0002:000087c8       $unwind$__acrt_FlsFree     000000018001a7c8     libucrt:winapi_thunks.obj
 0002:000087c8       $unwind$??0CAtlBaseModule@ATL@@QEAA@XZ 000000018001a7c8     atls:atlbase.obj
 0002:000087c8       $unwind$_realloc_base      000000018001a7c8     libucrt:realloc_base.obj
 0002:000087c8       $unwind$__acrt_FlsGetValue 000000018001a7c8     libucrt:winapi_thunks.obj
 0002:000087c8       $unwind$??_GCComModule@ATL@@UEAAPEAXI@Z 000000018001a7c8     OposConstants.obj
 0002:000087c8       $unwind$_RTC_Terminate     000000018001a7c8     LIBCMT:initsect.obj
 0002:000087c8       $unwind$__acrt_errno_map_os_error 000000018001a7c8     libucrt:errno.obj
 0002:000087c8       $unwind$_fclose_nolock     000000018001a7c8     libucrt:fclose.obj
 0002:000087c8       $unwind$wcsncpy_s          000000018001a7c8     libucrt:wcsncpy_s.obj
 0002:000087c8       $unwind$__acrt_getptd      000000018001a7c8     libucrt:per_thread_data.obj
 0002:000087c8       $unwind$??_Gexception@std@@UEAAPEAXI@Z 000000018001a7c8     LIBCMT:throw_bad_alloc.obj
 0002:000087c8       $unwind$?replace_current_thread_locale_nolock@@YAXQEAU__acrt_ptd@@QEAU__crt_locale_data@@@Z 000000018001a7c8     libucrt:per_thread_data.obj
 0002:000087c8       $unwind$??_Gbad_alloc@std@@UEAAPEAXI@Z 000000018001a7c8     LIBCMT:throw_bad_alloc.obj
 0002:000087c8       $unwind$__acrt_invoke_user_matherr 000000018001a7c8     libucrt:matherr.obj
 0002:000087c8       $unwind$strncpy_s          000000018001a7c8     libucrt:strncpy_s.obj
 0002:000087c8       $unwind$_FindAndUnlinkFrame 000000018001a7c8     libvcruntime:risctrnsctrl.obj
 0002:000087c8       $unwind$?SetUnwindTryBlock@__FrameHandler3@@SAXPEA_KPEAU_xDISPATCHER_CONTEXT@@PEBU_s_FuncInfo@@H@Z 000000018001a7c8     libvcruntime:ehstate.obj
 0002:000087c8       $unwind$??$common_initialize_environment_nolock@D@@YAHXZ 000000018001a7c8     libucrt:environment_initialization.obj
 0002:000087c8       $unwind$__vcrt_FlsSetValue 000000018001a7c8     libvcruntime:winapi_downlevel.obj
 0002:000087c8       $unwind$_callnewh          000000018001a7c8     libucrt:new_handler.obj
 0002:000087c8       $unwind$_updatetlocinfoEx_nolock 000000018001a7c8     libucrt:locale_refcounting.obj
 0002:000087c8       $unwind$?StrChrW@CRegParser@ATL@@KAPEA_WPEA_W_W@Z 000000018001a7c8     OposConstants.obj
 0002:000087c8       $unwind$??_Gbad_array_new_length@std@@UEAAPEAXI@Z 000000018001a7c8     LIBCMT:throw_bad_alloc.obj
 0002:000087d4       $unwind$?Add@CExpansionVector@ATL@@QEAAHPEB_W0@Z 000000018001a7d4     OposConstants.obj
 0002:000087e0       $chain$3$?Add@CExpansionVector@ATL@@QEAAHPEB_W0@Z 000000018001a7e0     OposConstants.obj
 0002:00008800       $chain$4$?Add@CExpansionVector@ATL@@QEAAHPEB_W0@Z 000000018001a800     OposConstants.obj
 0002:00008810       $unwind$?PreProcessBuffer@CRegParser@ATL@@QEAAJPEA_WPEAPEA_W@Z 000000018001a810     OposConstants.obj
 0002:00008824       $chain$5$?PreProcessBuffer@CRegParser@ATL@@QEAAJPEA_WPEAPEA_W@Z 000000018001a824     OposConstants.obj
 0002:0000884c       $chain$6$?PreProcessBuffer@CRegParser@ATL@@QEAAJPEA_WPEAPEA_W@Z 000000018001a84c     OposConstants.obj
 0002:0000885c       $chain$7$?PreProcessBuffer@CRegParser@ATL@@QEAAJPEA_WPEAPEA_W@Z 000000018001a85c     OposConstants.obj
 0002:00008884       $unwind$?RegisterBuffer@CRegParser@ATL@@QEAAJPEA_WH@Z 000000018001a884     OposConstants.obj
 0002:0000889c       $chain$0$?RegisterBuffer@CRegParser@ATL@@QEAAJPEA_WH@Z 000000018001a89c     OposConstants.obj
 0002:000088b0       $chain$3$?RegisterBuffer@CRegParser@ATL@@QEAAJPEA_WH@Z 000000018001a8b0     OposConstants.obj
 0002:000088cc       $chain$4$?RegisterBuffer@CRegParser@ATL@@QEAAJPEA_WH@Z 000000018001a8cc     OposConstants.obj
 0002:000088dc       $chain$5$?RegisterBuffer@CRegParser@ATL@@QEAAJPEA_WH@Z 000000018001a8dc     OposConstants.obj
 0002:000088ec       $chain$6$?RegisterBuffer@CRegParser@ATL@@QEAAJPEA_WH@Z 000000018001a8ec     OposConstants.obj
 0002:0000890c       $unwind$?NextToken@CRegParser@ATL@@IEAAJPEA_W@Z 000000018001a90c     OposConstants.obj
 0002:00008924       $unwind$?AddValue@CRegParser@ATL@@IEAAJAEAVCRegKey@2@PEB_WPEA_W@Z 000000018001a924     OposConstants.obj
 0002:00008940       $chain$0$?AddValue@CRegParser@ATL@@IEAAJAEAVCRegKey@2@PEB_WPEA_W@Z 000000018001a940     OposConstants.obj
 0002:00008954       $chain$2$?AddValue@CRegParser@ATL@@IEAAJAEAVCRegKey@2@PEB_WPEA_W@Z 000000018001a954     OposConstants.obj
 0002:0000896c       $chain$3$?AddValue@CRegParser@ATL@@IEAAJAEAVCRegKey@2@PEB_WPEA_W@Z 000000018001a96c     OposConstants.obj
 0002:0000897c       $chain$4$?AddValue@CRegParser@ATL@@IEAAJAEAVCRegKey@2@PEB_WPEA_W@Z 000000018001a97c     OposConstants.obj
 0002:0000898c       $chain$5$?AddValue@CRegParser@ATL@@IEAAJAEAVCRegKey@2@PEB_WPEA_W@Z 000000018001a98c     OposConstants.obj
 0002:0000898c       $chain$7$?AddValue@CRegParser@ATL@@IEAAJAEAVCRegKey@2@PEB_WPEA_W@Z 000000018001a98c     OposConstants.obj
 0002:000089a8       $chain$6$?AddValue@CRegParser@ATL@@IEAAJAEAVCRegKey@2@PEB_WPEA_W@Z 000000018001a9a8     OposConstants.obj
 0002:000089bc       $unwind$?HasSubKeys@CRegParser@ATL@@IEAAHPEAUHKEY__@@@Z 000000018001a9bc     OposConstants.obj
 0002:000089c4       $unwind$?RegisterSubkeys@CRegParser@ATL@@IEAAJPEA_WPEAUHKEY__@@HH@Z 000000018001a9c4     OposConstants.obj
 0002:000089e4       $unwind$?SkipAssignment@CRegParser@ATL@@IEAAJPEA_W@Z 000000018001a9e4     OposConstants.obj
 0002:000089fc       $unwind$?RegisterFromResource@CRegObject@ATL@@IEAAJPEB_W00H@Z 000000018001a9fc     OposConstants.obj
 0002:00008a18       $unwind$DllMain            000000018001aa18     OposConstants.obj
 0002:00008a20       $chain$0$DllMain           000000018001aa20     OposConstants.obj
 0002:00008a34       $chain$1$DllMain           000000018001aa34     OposConstants.obj
 0002:00008a44       $unwind$__scrt_is_nonwritable_in_current_image 000000018001aa44     LIBCMT:utility.obj
 0002:00008a64       $unwind$__scrt_is_nonwritable_in_current_image$filt$0 000000018001aa64     LIBCMT:utility.obj
 0002:00008a6c       $unwind$_seh_filter_exe    000000018001aa6c     libucrt:exception_filter.obj
 0002:00008a6c       $unwind$__acrt_free_locale 000000018001aa6c     libucrt:locale_refcounting.obj
 0002:00008a6c       $unwind$__acrt_lowio_create_handle_array 000000018001aa6c     libucrt:osfinfo.obj
 0002:00008a6c       $unwind$?Is_bad_exception_allowed@@YAEPEBU_s_ESTypeList@@@Z 000000018001aa6c     libvcruntime:frame.obj
 0002:00008a6c       $unwind$?expand_if_necessary@?$argument_list@D@?A0xca0879c4@@AEAAHXZ 000000018001aa6c     libucrt:argv_wildcards.obj
 0002:00008a6c       $unwind$?GetHandlerSearchState@__FrameHandler3@@SAHPEA_KPEAU_xDISPATCHER_CONTEXT@@PEBU_s_FuncInfo@@@Z 000000018001aa6c     libvcruntime:frame.obj
 0002:00008a6c       $unwind$__acrt_InitializeCriticalSectionEx 000000018001aa6c     libucrt:winapi_thunks.obj
 0002:00008a6c       $unwind$__scrt_dllmain_exception_filter 000000018001aa6c     LIBCMT:utility.obj
 0002:00008a6c       $unwind$__acrt_execute_initializers 000000018001aa6c     libucrt:shared_initialization.obj
 0002:00008a6c       $unwind$?setSBCS@@YAXPEAU__crt_multibyte_data@@@Z 000000018001aa6c     libucrt:mbctype.obj
 0002:00008a6c       $unwind$_recalloc_base     000000018001aa6c     libucrt:recalloc.obj
 0002:00008a80       $unwind$__report_securityfailure 000000018001aa80     LIBCMT:gs_report.obj
 0002:00008a88       $unwind$__report_gsfailure 000000018001aa88     LIBCMT:gs_report.obj
 0002:00008a88       $unwind$_putwch_nolock     000000018001aa88     libucrt:putwch.obj
 0002:00008a90       $unwind$capture_current_context 000000018001aa90     LIBCMT:gs_report.obj
 0002:00008a9c       $unwind$capture_previous_context 000000018001aa9c     LIBCMT:gs_report.obj
 0002:00008aa8       $unwind$__GSHandlerCheckCommon 000000018001aaa8     LIBCMT:gshandler.obj
 0002:00008ab0       $xdatasym                  000000018001aab0     LIBCMT:chkstk.obj
 0002:00008ab8       $xdatasym                  000000018001aab8     LIBCMT:amdsecgs.obj
 0002:00008abc       $unwind$?dllmain_crt_process_attach@@YAHQEAUHINSTANCE__@@QEAX@Z 000000018001aabc     LIBCMT:dll_dllmain.obj
 0002:00008af8       $unwind$__acrt_initialize_lowio$fin$0 000000018001aaf8     libucrt:ioinit.obj
 0002:00008af8       $unwind$?fin$0@?0???$?RV<lambda_bfedae4ebbf01fab1bb6dcc6a9e276e0>@@AEAV<lambda_2fe9b910cf3cbf4a0ab98a02ba45b3ec>@@V<lambda_237c231691f317818eb88cc1d5d642d6>@@@?$__crt_seh_guarded_call@H@@QEAAH$$QEAV<lambda_bfedae4ebbf01fab1bb6dcc6a9e276e0>@@AEAV<lambda_2fe9b910cf3cbf4a0ab98a02ba45b3ec>@@$$QEAV<lambda_237c231691f317818eb88cc1d5d642d6>@@@Z@4HA 000000018001aaf8     libucrt:close.obj
 0002:00008af8       $unwind$?fin$0@?0???$?RV<lambda_e24bbb7b643b32fcea6fa61b31d4c984>@@AEAV<lambda_275893d493268fdec8709772e3fcec0e>@@V<lambda_9d71df4d7cf3f480f8d633942495c3b0>@@@?$__crt_seh_guarded_call@H@@QEAAH$$QEAV<lambda_e24bbb7b643b32fcea6fa61b31d4c984>@@AEAV<lambda_275893d493268fdec8709772e3fcec0e>@@$$QEAV<lambda_9d71df4d7cf3f480f8d633942495c3b0>@@@Z@4HA 000000018001aaf8     libucrt:onexit.obj
 0002:00008af8       $unwind$common_flush_all$fin$0 000000018001aaf8     libucrt:fflush.obj
 0002:00008af8       $unwind$__acrt_update_thread_locale_data$fin$0 000000018001aaf8     libucrt:locale_refcounting.obj
 0002:00008af8       $unwind$?fin$0@?0???$?RV<lambda_72d1df2b273a38828b1ce30cbf4cdab5>@@AEAV<lambda_876a65b173b8412d3a47c70a915b0cf4>@@V<lambda_41932305e351933ebe8f8be3ed8bb5dc>@@@?$__crt_seh_guarded_call@X@@QEAAX$$QEAV<lambda_72d1df2b273a38828b1ce30cbf4cdab5>@@AEAV<lambda_876a65b173b8412d3a47c70a915b0cf4>@@$$QEAV<lambda_41932305e351933ebe8f8be3ed8bb5dc>@@@Z@4HA 000000018001aaf8     libucrt:per_thread_data.obj
 0002:00008af8       $unwind$?fin$0@?0??dllmain_crt_process_attach@@YAHQEAUHINSTANCE__@@QEAX@Z@4HA 000000018001aaf8     LIBCMT:dll_dllmain.obj
 0002:00008af8       $unwind$?fin$0@?0??dllmain_crt_process_detach@@YAH_N@Z@4HA 000000018001aaf8     LIBCMT:dll_dllmain.obj
 0002:00008af8       $unwind$?filt$0@?0??CxxCallCatchBlock@__FrameHandler3@@SAPEAXPEAU_EXCEPTION_RECORD@@@Z@4HA 000000018001aaf8     libvcruntime:frame.obj
 0002:00008af8       $unwind$_fcloseall$fin$0   000000018001aaf8     libucrt:closeall.obj
 0002:00008af8       $unwind$?fin$1@?0??FrameUnwindToState@__FrameHandler3@@SAXPEA_KPEAU_xDISPATCHER_CONTEXT@@PEBU_s_FuncInfo@@H@Z@4HA 000000018001aaf8     libvcruntime:frame.obj
 0002:00008af8       $unwind$?fin$0@?0???$?RV<lambda_b521505b218e5242e90febf6bfebc422>@@AEAV<lambda_6978c1fb23f02e42e1d9e99668cc68aa>@@V<lambda_314360699dd331753a4119843814e9a7>@@@?$__crt_seh_guarded_call@H@@QEAAH$$QEAV<lambda_b521505b218e5242e90febf6bfebc422>@@AEAV<lambda_6978c1fb23f02e42e1d9e99668cc68aa>@@$$QEAV<lambda_314360699dd331753a4119843814e9a7>@@@Z@4HA 000000018001aaf8     libucrt:commit.obj
 0002:00008af8       $unwind$?filt$0@?0??FrameUnwindToState@__FrameHandler3@@SAXPEA_KPEAU_xDISPATCHER_CONTEXT@@PEBU_s_FuncInfo@@H@Z@4HA 000000018001aaf8     libvcruntime:frame.obj
 0002:00008af8       $unwind$raise$fin$0        000000018001aaf8     libucrt:signal.obj
 0002:00008af8       $unwind$?fin$0@?0???$?RV<lambda_c36588078e9f5dfd39652860aa6b3aaf>@@AEAV<lambda_ec61778202f4f5fc7e7711acc23c3bca>@@V<lambda_dc9d2797ccde5d239b4a0efae8ebd7db>@@@?$__crt_seh_guarded_call@P6AXH@Z@@QEAAP6AXH@Z$$QEAV<lambda_c36588078e9f5dfd39652860aa6b3aaf>@@AEAV<lambda_ec61778202f4f5fc7e7711acc23c3bca>@@$$QEAV<lambda_dc9d2797ccde5d239b4a0efae8ebd7db>@@@Z@4HA 000000018001aaf8     libucrt:signal.obj
 0002:00008af8       $unwind$?fin$0@?0???$?RV<lambda_5e887d1dcbef67a5eb4283622ba103bf>@@AEAV<lambda_4466841279450cc726390878d4a41900>@@V<lambda_341c25c0346d94847f1f3c463c57e077>@@@?$__crt_seh_guarded_call@X@@QEAAX$$QEAV<lambda_5e887d1dcbef67a5eb4283622ba103bf>@@AEAV<lambda_4466841279450cc726390878d4a41900>@@$$QEAV<lambda_341c25c0346d94847f1f3c463c57e077>@@@Z@4HA 000000018001aaf8     libucrt:per_thread_data.obj
 0002:00008af8       $unwind$?fin$0@?0???$?RV<lambda_b8c45f8f788dd370798f47cfe8ac3a86>@@AEAV<lambda_4e60a939b0d047cfe11ddc22648dfba9>@@V<lambda_332c3edc96d0294ec56c57d38c1cdfd5>@@@?$__crt_seh_guarded_call@H@@QEAAH$$QEAV<lambda_b8c45f8f788dd370798f47cfe8ac3a86>@@AEAV<lambda_4e60a939b0d047cfe11ddc22648dfba9>@@$$QEAV<lambda_332c3edc96d0294ec56c57d38c1cdfd5>@@@Z@4HA 000000018001aaf8     libucrt:onexit.obj
 0002:00008af8       $unwind$_write$fin$0       000000018001aaf8     libucrt:write.obj
 0002:00008af8       $unwind$?fin$0@?0???$?RV<lambda_46352004c1216016012b18bd6f87e700>@@AEAV<lambda_3bd07e1a1191394380780325891bf33f>@@V<lambda_334532d3f185bcaa59b5be82d7d22bff>@@@?$__crt_seh_guarded_call@X@@QEAAX$$QEAV<lambda_46352004c1216016012b18bd6f87e700>@@AEAV<lambda_3bd07e1a1191394380780325891bf33f>@@$$QEAV<lambda_334532d3f185bcaa59b5be82d7d22bff>@@@Z@4HA 000000018001aaf8     libucrt:per_thread_data.obj
 0002:00008af8       $unwind$common_flush_all$fin$1 000000018001aaf8     libucrt:fflush.obj
 0002:00008af8       $unwind$?filt$0@?0??common_exit@@YAXHW4_crt_exit_cleanup_mode@@W4_crt_exit_return_mode@@@Z@4HA 000000018001aaf8     libucrt:exit.obj
 0002:00008af8       $unwind$?fin$1@?0??common_exit@@YAXHW4_crt_exit_cleanup_mode@@W4_crt_exit_return_mode@@@Z@4HA 000000018001aaf8     libucrt:exit.obj
 0002:00008af8       $unwind$_IsNonwritableInCurrentImage$filt$0 000000018001aaf8     LIBCMT:pesect.obj
 0002:00008af8       $unwind$?fin$0@?0???$?RV<lambda_99476a1ad63dd22509b5d3e65b0ffc95>@@AEAV<lambda_ad1ced32f4ac17aa236e5ef05d6b3b7c>@@V<lambda_f7424dd8d45958661754dc4f2697e9c3>@@@?$__crt_seh_guarded_call@X@@QEAAX$$QEAV<lambda_99476a1ad63dd22509b5d3e65b0ffc95>@@AEAV<lambda_ad1ced32f4ac17aa236e5ef05d6b3b7c>@@$$QEAV<lambda_f7424dd8d45958661754dc4f2697e9c3>@@@Z@4HA 000000018001aaf8     libucrt:mbctype.obj
 0002:00008af8       $unwind$__acrt_update_thread_multibyte_data$fin$0 000000018001aaf8     libucrt:mbctype.obj
 0002:00008af8       $unwind$__acrt_uninitialize_locale$fin$0 000000018001aaf8     libucrt:wsetlocale.obj
 0002:00008af8       $unwind$?fin$0@?0???$?RV<lambda_fb3a7dec4e47f37f22dae91bb15c9095>@@AEAV<lambda_698284760c8add0bfb0756c19673e34b>@@V<lambda_dfb8eca1e75fef3034a8fb18dd509707>@@@?$__crt_seh_guarded_call@X@@QEAAX$$QEAV<lambda_fb3a7dec4e47f37f22dae91bb15c9095>@@AEAV<lambda_698284760c8add0bfb0756c19673e34b>@@$$QEAV<lambda_dfb8eca1e75fef3034a8fb18dd509707>@@@Z@4HA 000000018001aaf8     libucrt:per_thread_data.obj
 0002:00008af8       $unwind$__DestructExceptionObject$filt$0 000000018001aaf8     libvcruntime:ehhelpers.obj
 0002:00008af8       $unwind$_ctrlfp$filt$0     000000018001aaf8     libucrt:fpctrl.obj
 0002:00008af8       $unwind$fclose$fin$0       000000018001aaf8     libucrt:fclose.obj
 0002:00008af8       $unwind$__acrt_lowio_ensure_fh_exists$fin$0 000000018001aaf8     libucrt:osfinfo.obj
 0002:00008af8       $unwind$_query_new_handler$fin$0 000000018001aaf8     libucrt:new_handler.obj
 0002:00008b00       $unwind$?dllmain_crt_process_detach@@YAH_N@Z 000000018001ab00     LIBCMT:dll_dllmain.obj
 0002:00008b38       $unwind$?dllmain_dispatch@@YAHQEAUHINSTANCE__@@KQEAX@Z 000000018001ab38     LIBCMT:dll_dllmain.obj
 0002:00008b60       $unwind$?filt$0@?0??dllmain_dispatch@@YAHQEAUHINSTANCE__@@KQEAX@Z@4HA 000000018001ab60     LIBCMT:dll_dllmain.obj
 0002:00008b68       $unwind$__isa_available_init 000000018001ab68     LIBCMT:cpu_disp.obj
 0002:00008b7c       $unwind$__scrt_fastfail    000000018001ab7c     LIBCMT:utility_desktop.obj
 0002:00008b8c       $unwind$??2@YAPEAX_KAEBUnothrow_t@std@@@Z 000000018001ab8c     LIBCMT:new_scalar_nothrow.obj
 0002:00008b9c       $stateUnwindMap$??2@YAPEAX_KAEBUnothrow_t@std@@@Z 000000018001ab9c     LIBCMT:new_scalar_nothrow.obj
 0002:00008bac       $tryMap$??2@YAPEAX_KAEBUnothrow_t@std@@@Z 000000018001abac     LIBCMT:new_scalar_nothrow.obj
 0002:00008bc0       $handlerMap$0$??2@YAPEAX_KAEBUnothrow_t@std@@@Z 000000018001abc0     LIBCMT:new_scalar_nothrow.obj
 0002:00008bd8       $ip2state$??2@YAPEAX_KAEBUnothrow_t@std@@@Z 000000018001abd8     LIBCMT:new_scalar_nothrow.obj
 0002:00008be0       $unwind$?catch$0@?0???2@YAPEAX_KAEBUnothrow_t@std@@@Z@4HA 000000018001abe0     LIBCMT:new_scalar_nothrow.obj
 0002:00008bf0       $unwind$__security_init_cookie 000000018001abf0     LIBCMT:gs_support.obj
 0002:00008c00       $xdatasym                  000000018001ac00     LIBCMT:guard_dispatch.obj
 0002:00008c04       $unwind$_raise_exc         000000018001ac04     libucrt:fpexcept.obj
 0002:00008c04       $unwind$?__scrt_throw_std_bad_array_new_length@@YAXXZ 000000018001ac04     LIBCMT:throw_bad_alloc.obj
 0002:00008c04       $unwind$?__scrt_throw_std_bad_alloc@@YAXXZ 000000018001ac04     LIBCMT:throw_bad_alloc.obj
 0002:00008c04       $unwind$__dcrt_lowio_initialize_console_output 000000018001ac04     libucrt:initcon.obj
 0002:00008c0c       $unwind$wcsstr             000000018001ac0c     libvcruntime:wcsstr.obj
 0002:00008c20       $xdatasym                  000000018001ac20     libvcruntime:memcpy.obj
 0002:00008c30       $xdatasym                  000000018001ac30     libvcruntime:memset.obj
 0002:00008c40       $unwind$__C_specific_handler 000000018001ac40     libvcruntime:riscchandler.obj
 0002:00008c5c       $unwind$?GetEstablisherFrame@__FrameHandler3@@SAPEA_KPEA_KPEAU_xDISPATCHER_CONTEXT@@PEBU_s_FuncInfo@@0@Z 000000018001ac5c     libvcruntime:risctrnsctrl.obj
 0002:00008c74       $unwind$?UnwindNestedFrames@__FrameHandler3@@SAXPEA_KPEAUEHExceptionRecord@@PEAU_CONTEXT@@0PEAXPEBU_s_FuncInfo@@HHPEBU_s_HandlerType@@PEAU_xDISPATCHER_CONTEXT@@E@Z 000000018001ac74     libvcruntime:risctrnsctrl.obj
 0002:00008c88       $unwind$?GetRangeOfTrysToCheck@__FrameHandler3@@SA?AU?$pair@Viterator@TryBlockMap@__FrameHandler3@@V123@@std@@AEAVTryBlockMap@1@HH@Z 000000018001ac88     libvcruntime:risctrnsctrl.obj
 0002:00008ca0       $unwind$__CxxFrameHandler3 000000018001aca0     libvcruntime:risctrnsctrl.obj
 0002:00008cb0       $unwind$??$_CallSETranslator@V__FrameHandler3@@@@YAHPEAUEHExceptionRecord@@PEA_KPEAU_CONTEXT@@PEAU_xDISPATCHER_CONTEXT@@PEBU_s_FuncInfo@@K1@Z 000000018001acb0     libvcruntime:risctrnsctrl.obj
 0002:00008cd0       $unwind$?filt$0@?0???$_CallSETranslator@V__FrameHandler3@@@@YAHPEAUEHExceptionRecord@@PEA_KPEAU_CONTEXT@@PEAU_xDISPATCHER_CONTEXT@@PEBU_s_FuncInfo@@K1@Z@4HA 000000018001acd0     libvcruntime:risctrnsctrl.obj
 0002:00008cdc       $unwind$_free_osfhnd       000000018001acdc     libucrt:osfinfo.obj
 0002:00008cdc       $unwind$?initialize_stdio_handles_nolock@@YAXXZ 000000018001acdc     libucrt:ioinit.obj
 0002:00008cdc       $unwind$__std_exception_copy 000000018001acdc     libvcruntime:std_exception.obj
 0002:00008cf0       $unwind$_CxxThrowException 000000018001acf0     libvcruntime:throw.obj
 0002:00008d00       $unwind$__vcrt_initialize_winapi_thunks 000000018001ad00     libvcruntime:winapi_downlevel.obj
 0002:00008d00       $unwind$__acrt_initialize_winapi_thunks 000000018001ad00     libucrt:winapi_thunks.obj
 0002:00008d08       $unwind$__vcrt_uninitialize_winapi_thunks 000000018001ad08     libvcruntime:winapi_downlevel.obj
 0002:00008d10       $unwind$?try_get_function@@YAPEAXW4function_id@?A0xbfd18cd1@@QEBDQEBW4module_id@2@2@Z 000000018001ad10     libvcruntime:winapi_downlevel.obj
 0002:00008d10       $unwind$?try_get_function@@YAPEAXW4function_id@?A0x63058377@@QEBDQEBW4module_id@2@2@Z 000000018001ad10     libucrt:winapi_thunks.obj
 0002:00008d10       $unwind$?IsInExceptionSpec@@YAEPEAUEHExceptionRecord@@PEBU_s_ESTypeList@@@Z 000000018001ad10     libvcruntime:frame.obj
 0002:00008d30       $xdatasym                  000000018001ad30     libvcruntime:notify.obj
 0002:00008d3c       $unwind$__DestructExceptionObject 000000018001ad3c     libvcruntime:ehhelpers.obj
 0002:00008d5c       $unwind$?FrameUnwindToState@__FrameHandler3@@SAXPEA_KPEAU_xDISPATCHER_CONTEXT@@PEBU_s_FuncInfo@@H@Z 000000018001ad5c     libvcruntime:frame.obj
 0002:00008da8       $unwind$?CxxCallCatchBlock@__FrameHandler3@@SAPEAXPEAU_EXCEPTION_RECORD@@@Z 000000018001ada8     libvcruntime:frame.obj
 0002:00008de4       $unwind$?fin$1@?0??CxxCallCatchBlock@__FrameHandler3@@SAPEAXPEAU_EXCEPTION_RECORD@@@Z@4HA 000000018001ade4     libvcruntime:frame.obj
 0002:00008df0       $unwind$_mbtowc_l          000000018001adf0     libucrt:mbtowc.obj
 0002:00008df0       $unwind$??$__InternalCxxFrameHandler@V__FrameHandler3@@@@YA?AW4_EXCEPTION_DISPOSITION@@PEAUEHExceptionRecord@@PEA_KPEAU_CONTEXT@@PEAU_xDISPATCHER_CONTEXT@@PEBU_s_FuncInfo@@H1E@Z 000000018001adf0     libvcruntime:frame.obj
 0002:00008df0       $unwind$__acrt_LCMapStringEx 000000018001adf0     libucrt:winapi_thunks.obj
 0002:00008e08       $unwind$__acrt_initialize_stdio 000000018001ae08     libucrt:_file.obj
 0002:00008e08       $unwind$_initterm          000000018001ae08     libucrt:initterm.obj
 0002:00008e08       $unwind$??$TypeMatchHelper@V__FrameHandler3@@@@YAHPEBU_s_HandlerType@@PEBU_s_CatchableType@@PEBU_s_ThrowInfo@@@Z 000000018001ae08     libvcruntime:frame.obj
 0002:00008e20       $unwind$??$BuildCatchObjectHelperInternal@V__FrameHandler3@@@@YAHPEAUEHExceptionRecord@@PEAXPEBU_s_HandlerType@@PEBU_s_CatchableType@@@Z 000000018001ae20     libvcruntime:frame.obj
 0002:00008e60       $unwind$??$BuildCatchObjectInternal@V__FrameHandler3@@@@YAXPEAUEHExceptionRecord@@PEAXPEBU_s_HandlerType@@PEBU_s_CatchableType@@@Z 000000018001ae60     libvcruntime:frame.obj
 0002:00008e8c       $unwind$??$FindHandler@V__FrameHandler3@@@@YAXPEAUEHExceptionRecord@@PEA_KPEAU_CONTEXT@@PEAU_xDISPATCHER_CONTEXT@@PEBU_s_FuncInfo@@EH1@Z 000000018001ae8c     libvcruntime:frame.obj
 0002:00008ea8       $unwind$??$CatchIt@V__FrameHandler3@@@@YAXPEAUEHExceptionRecord@@PEA_KPEAU_CONTEXT@@PEAU_xDISPATCHER_CONTEXT@@PEBU_s_FuncInfo@@PEBU_s_HandlerType@@PEBU_s_CatchableType@@PEBU_s_TryBlockMapEntry@@H1EE@Z 000000018001aea8     libvcruntime:frame.obj
 0002:00008ec0       $unwind$??$FindHandlerForForeignException@V__FrameHandler3@@@@YAXPEAUEHExceptionRecord@@PEA_KPEAU_CONTEXT@@PEAU_xDISPATCHER_CONTEXT@@PEBU_s_FuncInfo@@HH1@Z 000000018001aec0     libvcruntime:frame.obj
 0002:00008ee0       $xdatasym                  000000018001aee0     libvcruntime:handlers.obj
 0002:00008ef0       $unwind$_log10_special     000000018001aef0     libucrt:log_special.obj
 0002:00008ef0       $unwind$_invalid_parameter_noinfo 000000018001aef0     libucrt:invalid_parameter.obj
 0002:00008ef8       $unwind$__acrt_call_reportfault 000000018001aef8     libucrt:invalid_parameter.obj
 0002:00008f18       $unwind$_invalid_parameter 000000018001af18     libucrt:invalid_parameter.obj
 0002:00008f30       $unwind$?common_exit@@YAXHW4_crt_exit_cleanup_mode@@W4_crt_exit_return_mode@@@Z 000000018001af30     libucrt:exit.obj
 0002:00008f70       $unwind$_configure_narrow_argv 000000018001af70     libucrt:argv_parsing.obj
 0002:00008f84       $unwind$??$parse_command_line@D@@YAXPEADPEAPEAD0PEA_K2@Z 000000018001af84     libucrt:argv_parsing.obj
 0002:00008f84       $unwind$??R<lambda_4e60a939b0d047cfe11ddc22648dfba9>@@QEBAHXZ 000000018001af84     libucrt:onexit.obj
 0002:00008fa0       $unwind$??$free_environment@_W@@YAXQEAPEA_W@Z 000000018001afa0     libucrt:environment_initialization.obj
 0002:00008fa0       $unwind$??$free_environment@D@@YAXQEAPEAD@Z 000000018001afa0     libucrt:environment_initialization.obj
 0002:00008fac       $unwind$??$create_environment@D@@YAQEAPEADQEAD@Z 000000018001afac     libucrt:environment_initialization.obj
 0002:00008fc4       $unwind$_register_onexit_function 000000018001afc4     libucrt:onexit.obj
 0002:00008fcc       $unwind$_execute_onexit_table 000000018001afcc     libucrt:onexit.obj
 0002:00008fd4       $unwind$??$?RV<lambda_b8c45f8f788dd370798f47cfe8ac3a86>@@AEAV<lambda_4e60a939b0d047cfe11ddc22648dfba9>@@V<lambda_332c3edc96d0294ec56c57d38c1cdfd5>@@@?$__crt_seh_guarded_call@H@@QEAAH$$QEAV<lambda_b8c45f8f788dd370798f47cfe8ac3a86>@@AEAV<lambda_4e60a939b0d047cfe11ddc22648dfba9>@@$$QEAV<lambda_332c3edc96d0294ec56c57d38c1cdfd5>@@@Z 000000018001afd4     libucrt:onexit.obj
 0002:00008ff8       $unwind$??$?RV<lambda_e24bbb7b643b32fcea6fa61b31d4c984>@@AEAV<lambda_275893d493268fdec8709772e3fcec0e>@@V<lambda_9d71df4d7cf3f480f8d633942495c3b0>@@@?$__crt_seh_guarded_call@H@@QEAAH$$QEAV<lambda_e24bbb7b643b32fcea6fa61b31d4c984>@@AEAV<lambda_275893d493268fdec8709772e3fcec0e>@@$$QEAV<lambda_9d71df4d7cf3f480f8d633942495c3b0>@@@Z 000000018001aff8     libucrt:onexit.obj
 0002:00009028       $unwind$terminate          000000018001b028     libucrt:terminate.obj
 0002:00009048       $unwind$_query_new_handler 000000018001b048     libucrt:new_handler.obj
 0002:00009068       $xdatasym                  000000018001b068     libucrt:strncmp.obj
 0002:0000906c       $unwind$?destroy_fls@@YAXPEAX@Z 000000018001b06c     libucrt:per_thread_data.obj
 0002:0000906c       $unwind$_free_base         000000018001b06c     libucrt:free_base.obj
 0002:0000906c       $unwind$__acrt_locale_free_lc_time_if_unreferenced 000000018001b06c     libucrt:locale_refcounting.obj
 0002:0000906c       $unwind$__acrt_locale_free_numeric 000000018001b06c     libucrt:initnum.obj
 0002:00009074       $unwind$?construct_ptd_array@@YAXQEAU__acrt_ptd@@@Z 000000018001b074     libucrt:per_thread_data.obj
 0002:0000907c       $unwind$?destroy_ptd_array@@YAXQEAU__acrt_ptd@@@Z 000000018001b07c     libucrt:per_thread_data.obj
 0002:00009084       $unwind$??$?RV<lambda_72d1df2b273a38828b1ce30cbf4cdab5>@@AEAV<lambda_876a65b173b8412d3a47c70a915b0cf4>@@V<lambda_41932305e351933ebe8f8be3ed8bb5dc>@@@?$__crt_seh_guarded_call@X@@QEAAX$$QEAV<lambda_72d1df2b273a38828b1ce30cbf4cdab5>@@AEAV<lambda_876a65b173b8412d3a47c70a915b0cf4>@@$$QEAV<lambda_41932305e351933ebe8f8be3ed8bb5dc>@@@Z 000000018001b084     libucrt:per_thread_data.obj
 0002:000090a8       $unwind$??$?RV<lambda_5e887d1dcbef67a5eb4283622ba103bf>@@AEAV<lambda_4466841279450cc726390878d4a41900>@@V<lambda_341c25c0346d94847f1f3c463c57e077>@@@?$__crt_seh_guarded_call@X@@QEAAX$$QEAV<lambda_5e887d1dcbef67a5eb4283622ba103bf>@@AEAV<lambda_4466841279450cc726390878d4a41900>@@$$QEAV<lambda_341c25c0346d94847f1f3c463c57e077>@@@Z 000000018001b0a8     libucrt:per_thread_data.obj
 0002:000090cc       $unwind$??$?RV<lambda_46352004c1216016012b18bd6f87e700>@@AEAV<lambda_3bd07e1a1191394380780325891bf33f>@@V<lambda_334532d3f185bcaa59b5be82d7d22bff>@@@?$__crt_seh_guarded_call@X@@QEAAX$$QEAV<lambda_46352004c1216016012b18bd6f87e700>@@AEAV<lambda_3bd07e1a1191394380780325891bf33f>@@$$QEAV<lambda_334532d3f185bcaa59b5be82d7d22bff>@@@Z 000000018001b0cc     libucrt:per_thread_data.obj
 0002:000090f0       $unwind$??$?RV<lambda_fb3a7dec4e47f37f22dae91bb15c9095>@@AEAV<lambda_698284760c8add0bfb0756c19673e34b>@@V<lambda_dfb8eca1e75fef3034a8fb18dd509707>@@@?$__crt_seh_guarded_call@X@@QEAAX$$QEAV<lambda_fb3a7dec4e47f37f22dae91bb15c9095>@@AEAV<lambda_698284760c8add0bfb0756c19673e34b>@@$$QEAV<lambda_dfb8eca1e75fef3034a8fb18dd509707>@@@Z 000000018001b0f0     libucrt:per_thread_data.obj
 0002:00009114       $unwind$__acrt_is_packaged_app 000000018001b114     libucrt:winapi_thunks.obj
 0002:00009120       $unwind$??$common_expand_argv_wildcards@D@@YAHQEAPEADQEAPEAPEAD@Z 000000018001b120     libucrt:argv_wildcards.obj
 0002:00009138       $unwind$??$copy_and_add_argument_to_buffer@D@@YAHQEBD0_KAEAV?$argument_list@D@?A0xca0879c4@@@Z 000000018001b138     libucrt:argv_wildcards.obj
 0002:00009154       $unwind$??$expand_argument_wildcards@D@@YAHQEAD0AEAV?$argument_list@D@?A0xca0879c4@@@Z 000000018001b154     libucrt:argv_wildcards.obj
 0002:00009174       $unwind$__acrt_update_thread_multibyte_data 000000018001b174     libucrt:mbctype.obj
 0002:00009198       $unwind$_setmbcp_nolock    000000018001b198     libucrt:mbctype.obj
 0002:000091b8       $unwind$?setSBUpLow@@YAXPEAU__crt_multibyte_data@@@Z 000000018001b1b8     libucrt:mbctype.obj
 0002:000091d4       $unwind$?setmbcp_internal@@YAHH_N@Z 000000018001b1d4     libucrt:mbctype.obj
 0002:000091e4       $unwind$??$?RV<lambda_99476a1ad63dd22509b5d3e65b0ffc95>@@AEAV<lambda_ad1ced32f4ac17aa236e5ef05d6b3b7c>@@V<lambda_f7424dd8d45958661754dc4f2697e9c3>@@@?$__crt_seh_guarded_call@X@@QEAAX$$QEAV<lambda_99476a1ad63dd22509b5d3e65b0ffc95>@@AEAV<lambda_ad1ced32f4ac17aa236e5ef05d6b3b7c>@@$$QEAV<lambda_f7424dd8d45958661754dc4f2697e9c3>@@@Z 000000018001b1e4     libucrt:mbctype.obj
 0002:00009208       $unwind$?x_ismbbtype_l@@YAHPEAU__crt_locale_pointers@@IHH@Z 000000018001b208     libucrt:ismbbyte.obj
 0002:00009218       $unwind$__dcrt_get_narrow_environment_from_os 000000018001b218     libucrt:get_environment_from_os.obj
 0002:00009230       $unwind$__acrt_initialize_lowio 000000018001b230     libucrt:ioinit.obj
 0002:00009250       $unwind$?initialize_inherited_file_handles_nolock@@YAXXZ 000000018001b250     libucrt:ioinit.obj
 0002:0000926c       $unwind$__acrt_get_sigabrt_handler 000000018001b26c     libucrt:signal.obj
 0002:00009274       $unwind$raise              000000018001b274     libucrt:signal.obj
 0002:000092a0       $unwind$??$?RV<lambda_c36588078e9f5dfd39652860aa6b3aaf>@@AEAV<lambda_ec61778202f4f5fc7e7711acc23c3bca>@@V<lambda_dc9d2797ccde5d239b4a0efae8ebd7db>@@@?$__crt_seh_guarded_call@P6AXH@Z@@QEAAP6AXH@Z$$QEAV<lambda_c36588078e9f5dfd39652860aa6b3aaf>@@AEAV<lambda_ec61778202f4f5fc7e7711acc23c3bca>@@$$QEAV<lambda_dc9d2797ccde5d239b4a0efae8ebd7db>@@@Z 000000018001b2a0     libucrt:signal.obj
 0002:000092c4       $unwind$__acrt_uninitialize_locale 000000018001b2c4     libucrt:wsetlocale.obj
 0002:000092e4       $unwind$__acrt_update_thread_locale_data 000000018001b2e4     libucrt:locale_refcounting.obj
 0002:00009308       $unwind$?GetTableIndexFromLocaleName@@YAHPEB_W@Z 000000018001b308     libucrt:lcidtoname_downlevel.obj
 0002:00009320       $unwind$qsort              000000018001b320     libucrt:qsort.obj
 0002:00009338       $chain$4$qsort             000000018001b338     libucrt:qsort.obj
 0002:0000935c       $chain$5$qsort             000000018001b35c     libucrt:qsort.obj
 0002:0000936c       $unwind$?shortsort@@YAXPEAD0_KP6AHPEBX2@Z@Z 000000018001b36c     libucrt:qsort.obj
 0002:0000937c       $chain$2$?shortsort@@YAXPEAD0_KP6AHPEBX2@Z@Z 000000018001b37c     libucrt:qsort.obj
 0002:00009398       $chain$3$?shortsort@@YAXPEAD0_KP6AHPEBX2@Z@Z 000000018001b398     libucrt:qsort.obj
 0002:000093a8       $unwind$strpbrk            000000018001b3a8     libucrt:strpbrk.obj
 0002:000093b8       $unwind$_mbsdec_l          000000018001b3b8     libucrt:mbsdec.obj
 0002:000093c4       $unwind$__acrt_GetStringTypeA 000000018001b3c4     libucrt:getstringtypea.obj
 0002:000093ec       $unwind$__acrt_LCMapStringA 000000018001b3ec     libucrt:lcmapstringa.obj
 0002:000093fc       $unwind$?__acrt_LCMapStringA_stat@@YAHPEAU__crt_locale_pointers@@PEB_WKPEBDHPEADHHH@Z 000000018001b3fc     libucrt:lcmapstringa.obj
 0002:00009424       $unwind$__acrt_lowio_destroy_handle_array 000000018001b424     libucrt:osfinfo.obj
 0002:00009434       $unwind$__acrt_lowio_ensure_fh_exists 000000018001b434     libucrt:osfinfo.obj
 0002:00009460       $unwind$common_flush_all   000000018001b460     libucrt:fflush.obj
 0002:0000949c       $unwind$_fcloseall         000000018001b49c     libucrt:closeall.obj
 0002:000094c0       $unwind$__acrt_locale_free_monetary 000000018001b4c0     libucrt:initmon.obj
 0002:000094c8       $unwind$__acrt_locale_free_time 000000018001b4c8     libucrt:inittime.obj
 0002:000094d8       $unwind$_close             000000018001b4d8     libucrt:close.obj
 0002:000094d8       $unwind$_commit            000000018001b4d8     libucrt:commit.obj
 0002:000094e0       $unwind$??$?RV<lambda_b521505b218e5242e90febf6bfebc422>@@AEAV<lambda_6978c1fb23f02e42e1d9e99668cc68aa>@@V<lambda_314360699dd331753a4119843814e9a7>@@@?$__crt_seh_guarded_call@H@@QEAAH$$QEAV<lambda_b521505b218e5242e90febf6bfebc422>@@AEAV<lambda_6978c1fb23f02e42e1d9e99668cc68aa>@@$$QEAV<lambda_314360699dd331753a4119843814e9a7>@@@Z 000000018001b4e0     libucrt:commit.obj
 0002:00009504       $unwind$_write             000000018001b504     libucrt:write.obj
 0002:00009534       $unwind$_write_nolock      000000018001b534     libucrt:write.obj
 0002:0000954c       $unwind$?write_double_translated_ansi_nolock@@YA?AUwrite_result@?A0x9c548279@@HQEBDI@Z 000000018001b54c     libucrt:write.obj
 0002:0000956c       $unwind$?write_text_ansi_nolock@@YA?AUwrite_result@?A0x9c548279@@HQEBDI@Z 000000018001b56c     libucrt:write.obj
 0002:0000956c       $unwind$?write_text_utf16le_nolock@@YA?AUwrite_result@?A0x9c548279@@HQEBDI@Z 000000018001b56c     libucrt:write.obj
 0002:0000958c       $unwind$?write_text_utf8_nolock@@YA?AUwrite_result@?A0x9c548279@@HQEBDI@Z 000000018001b58c     libucrt:write.obj
 0002:000095b0       $xdatasym                  000000018001b5b0     libucrt:log10.obj
 0002:000095bc       $unwind$fclose             000000018001b5bc     libucrt:fclose.obj
 0002:000095e0       $unwind$_call_matherr      000000018001b5e0     libucrt:libm_error.obj
 0002:000095e8       $unwind$_handle_error      000000018001b5e8     libucrt:libm_error.obj
 0002:00009608       $unwind$__acrt_initialize_fma3 000000018001b608     libucrt:fma3_available.obj
 0002:00009610       $unwind$_log_special_common 000000018001b610     libucrt:log_special.obj
 0002:0000961c       $unwind$??$?RV<lambda_bfedae4ebbf01fab1bb6dcc6a9e276e0>@@AEAV<lambda_2fe9b910cf3cbf4a0ab98a02ba45b3ec>@@V<lambda_237c231691f317818eb88cc1d5d642d6>@@@?$__crt_seh_guarded_call@H@@QEAAH$$QEAV<lambda_bfedae4ebbf01fab1bb6dcc6a9e276e0>@@AEAV<lambda_2fe9b910cf3cbf4a0ab98a02ba45b3ec>@@$$QEAV<lambda_237c231691f317818eb88cc1d5d642d6>@@@Z 000000018001b61c     libucrt:close.obj
 0002:00009640       $xdatasym                  000000018001b640     libucrt:fpsr.obj
 0002:00009648       $unwind$_raise_exc_ex      000000018001b648     libucrt:fpexcept.obj
 0002:0000965c       $unwind$_ctrlfp            000000018001b65c     libucrt:fpctrl.obj
 0002:00009684       $unwind$_IsNonwritableInCurrentImage 000000018001b684     LIBCMT:pesect.obj
 0002:000096a8       $xdatasym                  000000018001b6a8     libvcruntime:memcmp.obj
 0002:00009810       .edata                     000000018001b810     Opos_Constants.exp
 0002:00009838       rgpv                       000000018001b838     Opos_Constants.exp
 0002:00009848       rgszName                   000000018001b848     Opos_Constants.exp
 0002:00009858       rgwOrd                     000000018001b858     Opos_Constants.exp
 0002:00009860       szName                     000000018001b860     Opos_Constants.exp
 0002:00009873       $N00001                    000000018001b873     Opos_Constants.exp
 0002:00009883       $N00002                    000000018001b883     Opos_Constants.exp
 0002:00009895       $N00003                    000000018001b895     Opos_Constants.exp
 0002:000098a7       $N00004                    000000018001b8a7     Opos_Constants.exp
 0002:00009de4       .idata$6                   000000018001bde4     kernel32:KERNEL32.dll
 0002:00009dfe       .idata$6                   000000018001bdfe     user32:USER32.dll
 0002:00009e92       .idata$6                   000000018001be92     advapi32:ADVAPI32.dll
 0002:00009efc       .idata$6                   000000018001befc     ole32:ole32.dll
 0002:00009f06       .idata$6                   000000018001bf06     oleaut32:OLEAUT32.dll
 0003:00000030       ?__vcrt_flsindex@@3KA      000000018001d030     libvcruntime:per_thread_data.obj
 0003:00000040       errno_no_memory            000000018001d040     libucrt:errno.obj
 0003:00000044       doserrno_no_memory         000000018001d044     libucrt:errno.obj
 0003:00000050       __acrt_flsindex            000000018001d050     libucrt:per_thread_data.obj
 0003:00000290       __rgctypeflag              000000018001d290     libucrt:mbctype.obj
 0003:000002a0       __rgcode_page_info         000000018001d2a0     libucrt:mbctype.obj
 0003:000008d0       ?dazSupported@?1??_ctrlfp@@9@9 000000018001d8d0     libucrt:fpctrl.obj
 0003:00000aa0       ?ObjectMap@@3PAU_ATL_OBJMAP_ENTRY30@ATL@@A 000000018001daa0     OposConstants.obj
 0003:00000b68       ?is_initialized_as_dll@@3_NA 000000018001db68     LIBCMT:utility.obj
 0003:00000b69       ?module_local_atexit_table_initialized@@3_NA 000000018001db69     LIBCMT:utility.obj
 0003:00000b70       ?module_local_atexit_table@@3U_onexit_table_t@@A 000000018001db70     LIBCMT:utility.obj
 0003:00000b88       ?module_local_at_quick_exit_table@@3U_onexit_table_t@@A 000000018001db88     LIBCMT:utility.obj
 0003:00000ba0       GS_ExceptionRecord         000000018001dba0     LIBCMT:gs_report.obj
 0003:00000c40       GS_ContextRecord           000000018001dc40     LIBCMT:gs_report.obj
 0003:00001110       ?__proc_attached@@3HA      000000018001e110     LIBCMT:dll_dllmain.obj
 0003:00001140       ?__vcrt_startup_thread_ptd@@3U__vcrt_ptd@@A 000000018001e140     libvcruntime:per_thread_data.obj
 0003:000011d0       __vcrt_lock_table          000000018001e1d0     libvcruntime:locks.obj
 0003:000011f8       __vcrt_locks_initialized   000000018001e1f8     libvcruntime:locks.obj
 0003:00001200       ?module_handles@@3PAPEAUHINSTANCE__@@A 000000018001e200     libvcruntime:winapi_downlevel.obj
 0003:00001218       ?encoded_function_pointers@@3PAPEAXA 000000018001e218     libvcruntime:winapi_downlevel.obj
 0003:00001290       ?heap@@3V_HeapManager@@A   000000018001e290     libvcruntime:undname.obj
 0003:000012b8       __acrt_invalid_parameter_handler 000000018001e2b8     libucrt:invalid_parameter.obj
 0003:000012c0       c_termination_complete     000000018001e2c0     libucrt:exit.obj
 0003:000012c8       thread_local_exit_callback_func 000000018001e2c8     libucrt:exit.obj
 0003:000012d0       ?c_exit_complete@?5??common_exit@@YAXHW4_crt_exit_cleanup_mode@@W4_crt_exit_return_mode@@@Z@4_NA 000000018001e2d0     libucrt:exit.obj
 0003:000012e0       ?program_name@?5???$common_configure_argv@D@@YAHW4_crt_argv_mode@@@Z@4PADA 000000018001e2e0     libucrt:argv_parsing.obj
 0003:00001438       __acrt_new_handler         000000018001e438     libucrt:new_handler.obj
 0003:00001440       __acrt_lock_table          000000018001e440     libucrt:locks.obj
 0003:00001648       __acrt_locks_initialized   000000018001e648     libucrt:locks.obj
 0003:00001650       module_handles             000000018001e650     libucrt:winapi_thunks.obj
 0003:000016f0       encoded_function_pointers  000000018001e6f0     libucrt:winapi_thunks.obj
 0003:000017f0       ?state_cache@?1??__acrt_is_packaged_app@@9@4JA 000000018001e7f0     libucrt:winapi_thunks.obj
 0003:0000180c       fSystemSet                 000000018001e80c     libucrt:mbctype.obj
 0003:00001818       ?initialized@?1??__acrt_initialize_multibyte@@9@4_NA 000000018001e818     libucrt:mbctype.obj
 0003:00001c58       ctrlc_action               000000018001ec58     libucrt:signal.obj
 0003:00001c60       ctrlbreak_action           000000018001ec60     libucrt:signal.obj
 0003:00001c68       abort_action               000000018001ec68     libucrt:signal.obj
 0003:00001c70       term_action                000000018001ec70     libucrt:signal.obj
 0003:00001c78       user_matherr               000000018001ec78     libucrt:matherr.obj
 0003:00001cac       __acrt_global_new_mode     000000018001ecac     libucrt:new_mode.obj
 0003:00001cb8       __acrt_app_type            000000018001ecb8     libucrt:report_runtime_error.obj
 0004:00000000       $pdata$??__E_AtlComModule@ATL@@YAXXZ 000000018001f000     StdAfx.obj
 0004:0000000c       $pdata$??__F_AtlComModule@ATL@@YAXXZ 000000018001f00c     StdAfx.obj
 0004:00000018       $pdata$1$??__F_AtlComModule@ATL@@YAXXZ 000000018001f018     StdAfx.obj
 0004:00000024       $pdata$2$??__F_AtlComModule@ATL@@YAXXZ 000000018001f024     StdAfx.obj
 0004:00000030       $pdata$3$??__F_AtlComModule@ATL@@YAXXZ 000000018001f030     StdAfx.obj
 0004:0000003c       $pdata$4$??__F_AtlComModule@ATL@@YAXXZ 000000018001f03c     StdAfx.obj
 0004:00000048       $pdata$memcpy_s            000000018001f048     OposConstants.obj
 0004:00000054       $pdata$?AtlThrowImpl@ATL@@YAXJ@Z 000000018001f054     OposConstants.obj
 0004:00000060       $pdata$?memcpy_s@Checked@ATL@@YAXPEAX_KPEBX1@Z 000000018001f060     OposConstants.obj
 0004:0000006c       $pdata$?wcscpy_s@Checked@ATL@@YAXPEA_W_KPEB_W@Z 000000018001f06c     OposConstants.obj
 0004:00000078       $pdata$DllUnregisterServer 000000018001f078     OposConstants.obj
 0004:00000084       $pdata$0$DllUnregisterServer 000000018001f084     OposConstants.obj
 0004:00000090       $pdata$1$DllUnregisterServer 000000018001f090     OposConstants.obj
 0004:0000009c       $pdata$?AtlHresultFromLastError@ATL@@YAJXZ 000000018001f09c     OposConstants.obj
 0004:000000a8       $pdata$?AtlRegisterClassCategoriesHelper@ATL@@YAJAEBU_GUID@@PEBU_ATL_CATMAP_ENTRY@1@H@Z 000000018001f0a8     OposConstants.obj
 0004:000000b4       $pdata$?AtlLoadTypeLib@ATL@@YAJPEAUHINSTANCE__@@PEB_WPEAPEA_WPEAPEAUITypeLib@@@Z 000000018001f0b4     OposConstants.obj
 0004:000000c0       $pdata$2$?AtlLoadTypeLib@ATL@@YAJPEAUHINSTANCE__@@PEB_WPEAPEA_WPEAPEAUITypeLib@@@Z 000000018001f0c0     OposConstants.obj
 0004:000000cc       $pdata$3$?AtlLoadTypeLib@ATL@@YAJPEAUHINSTANCE__@@PEB_WPEAPEA_WPEAPEAUITypeLib@@@Z 000000018001f0cc     OposConstants.obj
 0004:000000d8       $pdata$4$?AtlLoadTypeLib@ATL@@YAJPEAUHINSTANCE__@@PEB_WPEAPEA_WPEAPEAUITypeLib@@@Z 000000018001f0d8     OposConstants.obj
 0004:000000e4       $pdata$?AtlRegisterTypeLib@ATL@@YAJPEAUHINSTANCE__@@PEB_W@Z 000000018001f0e4     OposConstants.obj
 0004:000000f0       $pdata$0$?AtlRegisterTypeLib@ATL@@YAJPEAUHINSTANCE__@@PEB_W@Z 000000018001f0f0     OposConstants.obj
 0004:000000fc       $pdata$1$?AtlRegisterTypeLib@ATL@@YAJPEAUHINSTANCE__@@PEB_W@Z 000000018001f0fc     OposConstants.obj
 0004:00000108       $pdata$2$?AtlRegisterTypeLib@ATL@@YAJPEAUHINSTANCE__@@PEB_W@Z 000000018001f108     OposConstants.obj
 0004:00000114       $pdata$3$?AtlRegisterTypeLib@ATL@@YAJPEAUHINSTANCE__@@PEB_W@Z 000000018001f114     OposConstants.obj
 0004:00000120       $pdata$?AtlUnRegisterTypeLib@ATL@@YAJPEAUHINSTANCE__@@PEB_W@Z 000000018001f120     OposConstants.obj
 0004:0000012c       $pdata$?atlCreate@CRegKey@ATL@@QEAAJPEAUHKEY__@@PEB_WPEA_WKKPEAU_SECURITY_ATTRIBUTES@@PEAK@Z 000000018001f12c     OposConstants.obj
 0004:00000138       $pdata$?Open@CRegKey@ATL@@QEAAJPEAUHKEY__@@PEB_WK@Z 000000018001f138     OposConstants.obj
 0004:00000144       $pdata$?DeleteSubKey@CRegKey@ATL@@QEAAJPEB_W@Z 000000018001f144     OposConstants.obj
 0004:00000150       $pdata$?RecurseDeleteKey@CRegKey@ATL@@QEAAJPEB_W@Z 000000018001f150     OposConstants.obj
 0004:0000015c       $pdata$?Term@CAtlModule@ATL@@QEAAXXZ 000000018001f15c     OposConstants.obj
 0004:00000168       $pdata$0$?Term@CAtlModule@ATL@@QEAAXXZ 000000018001f168     OposConstants.obj
 0004:00000174       $pdata$1$?Term@CAtlModule@ATL@@QEAAXXZ 000000018001f174     OposConstants.obj
 0004:00000180       $pdata$2$?Term@CAtlModule@ATL@@QEAAXXZ 000000018001f180     OposConstants.obj
 0004:0000018c       $pdata$3$?Term@CAtlModule@ATL@@QEAAXXZ 000000018001f18c     OposConstants.obj
 0004:00000198       $pdata$?GetGITPtr@CAtlModule@ATL@@UEAAJPEAPEAUIGlobalInterfaceTable@@@Z 000000018001f198     OposConstants.obj
 0004:000001a4       $pdata$?UpdateRegistryFromResource@CAtlModule@ATL@@QEAAJPEB_WHPEAU_ATL_REGMAP_ENTRY@2@@Z 000000018001f1a4     OposConstants.obj
 0004:000001b0       $pdata$?UpdateRegistryFromResource@CAtlModule@ATL@@QEAAJIHPEAU_ATL_REGMAP_ENTRY@2@@Z 000000018001f1b0     OposConstants.obj
 0004:000001bc       $pdata$?Term@CComModule@ATL@@QEAAXXZ 000000018001f1bc     OposConstants.obj
 0004:000001c8       $pdata$0$?Term@CComModule@ATL@@QEAAXXZ 000000018001f1c8     OposConstants.obj
 0004:000001d4       $pdata$1$?Term@CComModule@ATL@@QEAAXXZ 000000018001f1d4     OposConstants.obj
 0004:000001e0       $pdata$?GetClassObject@CComModule@ATL@@QEAAJAEBU_GUID@@0PEAPEAX@Z 000000018001f1e0     OposConstants.obj
 0004:000001ec       $pdata$0$?GetClassObject@CComModule@ATL@@QEAAJAEBU_GUID@@0PEAPEAX@Z 000000018001f1ec     OposConstants.obj
 0004:000001f8       $pdata$1$?GetClassObject@CComModule@ATL@@QEAAJAEBU_GUID@@0PEAPEAX@Z 000000018001f1f8     OposConstants.obj
 0004:00000204       $pdata$?RegisterServer@CComModule@ATL@@QEAAJHPEBU_GUID@@@Z 000000018001f204     OposConstants.obj
 0004:00000210       $pdata$2$?RegisterServer@CComModule@ATL@@QEAAJHPEBU_GUID@@@Z 000000018001f210     OposConstants.obj
 0004:0000021c       $pdata$3$?RegisterServer@CComModule@ATL@@QEAAJHPEBU_GUID@@@Z 000000018001f21c     OposConstants.obj
 0004:00000228       $pdata$4$?RegisterServer@CComModule@ATL@@QEAAJHPEBU_GUID@@@Z 000000018001f228     OposConstants.obj
 0004:00000234       $pdata$5$?RegisterServer@CComModule@ATL@@QEAAJHPEBU_GUID@@@Z 000000018001f234     OposConstants.obj
 0004:00000240       $pdata$??_GCComModule@ATL@@UEAAPEAXI@Z 000000018001f240     OposConstants.obj
 0004:0000024c       $pdata$?Add@CExpansionVector@ATL@@QEAAHPEB_W0@Z 000000018001f24c     OposConstants.obj
 0004:00000258       $pdata$3$?Add@CExpansionVector@ATL@@QEAAHPEB_W0@Z 000000018001f258     OposConstants.obj
 0004:00000264       $pdata$4$?Add@CExpansionVector@ATL@@QEAAHPEB_W0@Z 000000018001f264     OposConstants.obj
 0004:00000270       $pdata$?ClearReplacements@CExpansionVector@ATL@@QEAAJXZ 000000018001f270     OposConstants.obj
 0004:0000027c       $pdata$?PreProcessBuffer@CRegParser@ATL@@QEAAJPEA_WPEAPEA_W@Z 000000018001f27c     OposConstants.obj
 0004:00000288       $pdata$5$?PreProcessBuffer@CRegParser@ATL@@QEAAJPEA_WPEAPEA_W@Z 000000018001f288     OposConstants.obj
 0004:00000294       $pdata$6$?PreProcessBuffer@CRegParser@ATL@@QEAAJPEA_WPEAPEA_W@Z 000000018001f294     OposConstants.obj
 0004:000002a0       $pdata$7$?PreProcessBuffer@CRegParser@ATL@@QEAAJPEA_WPEAPEA_W@Z 000000018001f2a0     OposConstants.obj
 0004:000002ac       $pdata$?RegisterBuffer@CRegParser@ATL@@QEAAJPEA_WH@Z 000000018001f2ac     OposConstants.obj
 0004:000002b8       $pdata$0$?RegisterBuffer@CRegParser@ATL@@QEAAJPEA_WH@Z 000000018001f2b8     OposConstants.obj
 0004:000002c4       $pdata$3$?RegisterBuffer@CRegParser@ATL@@QEAAJPEA_WH@Z 000000018001f2c4     OposConstants.obj
 0004:000002d0       $pdata$4$?RegisterBuffer@CRegParser@ATL@@QEAAJPEA_WH@Z 000000018001f2d0     OposConstants.obj
 0004:000002dc       $pdata$5$?RegisterBuffer@CRegParser@ATL@@QEAAJPEA_WH@Z 000000018001f2dc     OposConstants.obj
 0004:000002e8       $pdata$6$?RegisterBuffer@CRegParser@ATL@@QEAAJPEA_WH@Z 000000018001f2e8     OposConstants.obj
 0004:000002f4       $pdata$?NextToken@CRegParser@ATL@@IEAAJPEA_W@Z 000000018001f2f4     OposConstants.obj
 0004:00000300       $pdata$?AddValue@CRegParser@ATL@@IEAAJAEAVCRegKey@2@PEB_WPEA_W@Z 000000018001f300     OposConstants.obj
 0004:0000030c       $pdata$0$?AddValue@CRegParser@ATL@@IEAAJAEAVCRegKey@2@PEB_WPEA_W@Z 000000018001f30c     OposConstants.obj
 0004:00000318       $pdata$2$?AddValue@CRegParser@ATL@@IEAAJAEAVCRegKey@2@PEB_WPEA_W@Z 000000018001f318     OposConstants.obj
 0004:00000324       $pdata$3$?AddValue@CRegParser@ATL@@IEAAJAEAVCRegKey@2@PEB_WPEA_W@Z 000000018001f324     OposConstants.obj
 0004:00000330       $pdata$4$?AddValue@CRegParser@ATL@@IEAAJAEAVCRegKey@2@PEB_WPEA_W@Z 000000018001f330     OposConstants.obj
 0004:0000033c       $pdata$5$?AddValue@CRegParser@ATL@@IEAAJAEAVCRegKey@2@PEB_WPEA_W@Z 000000018001f33c     OposConstants.obj
 0004:00000348       $pdata$6$?AddValue@CRegParser@ATL@@IEAAJAEAVCRegKey@2@PEB_WPEA_W@Z 000000018001f348     OposConstants.obj
 0004:00000354       $pdata$7$?AddValue@CRegParser@ATL@@IEAAJAEAVCRegKey@2@PEB_WPEA_W@Z 000000018001f354     OposConstants.obj
 0004:00000360       $pdata$?HasSubKeys@CRegParser@ATL@@IEAAHPEAUHKEY__@@@Z 000000018001f360     OposConstants.obj
 0004:0000036c       $pdata$?RegisterSubkeys@CRegParser@ATL@@IEAAJPEA_WPEAUHKEY__@@HH@Z 000000018001f36c     OposConstants.obj
 0004:00000378       $pdata$?SkipAssignment@CRegParser@ATL@@IEAAJPEA_W@Z 000000018001f378     OposConstants.obj
 0004:00000384       $pdata$?EndOfVar@CRegParser@ATL@@IEAAHXZ 000000018001f384     OposConstants.obj
 0004:00000390       $pdata$?StrChrW@CRegParser@ATL@@KAPEA_WPEA_W_W@Z 000000018001f390     OposConstants.obj
 0004:0000039c       $pdata$?Append@CParseBuffer@CRegParser@ATL@@QEAAHPEB_WH@Z 000000018001f39c     OposConstants.obj
 0004:000003a8       $pdata$?AddReplacement@CRegObject@ATL@@UEAAJPEB_W0@Z 000000018001f3a8     OposConstants.obj
 0004:000003b4       $pdata$?RegisterFromResource@CRegObject@ATL@@IEAAJPEB_W00H@Z 000000018001f3b4     OposConstants.obj
 0004:000003c0       $pdata$??_GCRegObject@ATL@@UEAAPEAXI@Z 000000018001f3c0     OposConstants.obj
 0004:000003cc       $pdata$?AllocateHeap@?$CTempBuffer@_W$0BAA@VCCRTAllocator@ATL@@@ATL@@AEAAX_K@Z 000000018001f3cc     OposConstants.obj
 0004:000003cc       $pdata$?AllocateHeap@?$CTempBuffer@_W$0EAA@VCCRTAllocator@ATL@@@ATL@@AEAAX_K@Z 000000018001f3cc     OposConstants.obj
 0004:000003cc       $pdata$?AllocateHeap@?$CTempBuffer@E$0BAA@VCCRTAllocator@ATL@@@ATL@@AEAAX_K@Z 000000018001f3cc     OposConstants.obj
 0004:000003d8       $pdata$??__E_Module@@YAXXZ 000000018001f3d8     OposConstants.obj
 0004:000003e4       $pdata$DllMain             000000018001f3e4     OposConstants.obj
 0004:000003f0       $pdata$0$DllMain           000000018001f3f0     OposConstants.obj
 0004:000003fc       $pdata$1$DllMain           000000018001f3fc     OposConstants.obj
 0004:00000408       $pdata$??0CAtlBaseModule@ATL@@QEAA@XZ 000000018001f408     atls:atlbase.obj
 0004:00000414       $pdata$??1CAtlBaseModule@ATL@@QEAA@XZ 000000018001f414     atls:atlbase.obj
 0004:00000420       $pdata$??__E_AtlBaseModule@ATL@@YAXXZ 000000018001f420     atls:atlbase.obj
 0004:0000042c       $pdata$atexit              000000018001f42c     LIBCMT:utility.obj
 0004:00000438       $pdata$_onexit             000000018001f438     LIBCMT:utility.obj
 0004:00000444       $pdata$__scrt_is_nonwritable_in_current_image 000000018001f444     LIBCMT:utility.obj
 0004:00000450       $pdata$__scrt_is_nonwritable_in_current_image$filt$0 000000018001f450     LIBCMT:utility.obj
 0004:0000045c       $pdata$__scrt_acquire_startup_lock 000000018001f45c     LIBCMT:utility.obj
 0004:00000468       $pdata$__scrt_release_startup_lock 000000018001f468     LIBCMT:utility.obj
 0004:00000474       $pdata$__scrt_initialize_crt 000000018001f474     LIBCMT:utility.obj
 0004:00000480       $pdata$__scrt_uninitialize_crt 000000018001f480     LIBCMT:utility.obj
 0004:0000048c       $pdata$__scrt_initialize_onexit_tables 000000018001f48c     LIBCMT:utility.obj
 0004:00000498       $pdata$__scrt_dllmain_exception_filter 000000018001f498     LIBCMT:utility.obj
 0004:000004a4       $pdata$__scrt_dllmain_before_initialize_c 000000018001f4a4     LIBCMT:utility.obj
 0004:000004b0       $pdata$__scrt_dllmain_after_initialize_c 000000018001f4b0     LIBCMT:utility.obj
 0004:000004bc       $pdata$__scrt_dllmain_uninitialize_c 000000018001f4bc     LIBCMT:utility.obj
 0004:000004c8       $pdata$__scrt_dllmain_uninitialize_critical 000000018001f4c8     LIBCMT:utility.obj
 0004:000004d4       $pdata$__scrt_dllmain_crt_thread_attach 000000018001f4d4     LIBCMT:utility.obj
 0004:000004e0       $pdata$__scrt_dllmain_crt_thread_detach 000000018001f4e0     LIBCMT:utility.obj
 0004:000004ec       $pdata$__report_securityfailure 000000018001f4ec     LIBCMT:gs_report.obj
 0004:000004f8       $pdata$__report_rangecheckfailure 000000018001f4f8     LIBCMT:gs_report.obj
 0004:00000504       $pdata$__report_gsfailure  000000018001f504     LIBCMT:gs_report.obj
 0004:00000510       $pdata$capture_current_context 000000018001f510     LIBCMT:gs_report.obj
 0004:0000051c       $pdata$capture_previous_context 000000018001f51c     LIBCMT:gs_report.obj
 0004:00000528       $pdata$__raise_securityfailure 000000018001f528     LIBCMT:gs_report.obj
 0004:00000534       $pdata$__GSHandlerCheckCommon 000000018001f534     LIBCMT:gshandler.obj
 0004:00000540       $pdata$__GSHandlerCheck    000000018001f540     LIBCMT:gshandler.obj
 0004:00000564       $pdata$?dllmain_crt_process_attach@@YAHQEAUHINSTANCE__@@QEAX@Z 000000018001f564     LIBCMT:dll_dllmain.obj
 0004:00000570       $pdata$?fin$0@?0??dllmain_crt_process_attach@@YAHQEAUHINSTANCE__@@QEAX@Z@4HA 000000018001f570     LIBCMT:dll_dllmain.obj
 0004:0000057c       $pdata$?dllmain_crt_process_detach@@YAH_N@Z 000000018001f57c     LIBCMT:dll_dllmain.obj
 0004:00000588       $pdata$?fin$0@?0??dllmain_crt_process_detach@@YAH_N@Z@4HA 000000018001f588     LIBCMT:dll_dllmain.obj
 0004:00000594       $pdata$?dllmain_crt_dispatch@@YAHQEAUHINSTANCE__@@KQEAX@Z 000000018001f594     LIBCMT:dll_dllmain.obj
 0004:000005a0       $pdata$?dllmain_dispatch@@YAHQEAUHINSTANCE__@@KQEAX@Z 000000018001f5a0     LIBCMT:dll_dllmain.obj
 0004:000005ac       $pdata$?filt$0@?0??dllmain_dispatch@@YAHQEAUHINSTANCE__@@KQEAX@Z@4HA 000000018001f5ac     LIBCMT:dll_dllmain.obj
 0004:000005b8       $pdata$_DllMainCRTStartup  000000018001f5b8     LIBCMT:dll_dllmain.obj
 0004:000005c4       $pdata$__isa_available_init 000000018001f5c4     LIBCMT:cpu_disp.obj
 0004:000005d0       $pdata$__scrt_fastfail     000000018001f5d0     LIBCMT:utility_desktop.obj
 0004:000005dc       $pdata$??2@YAPEAX_KAEBUnothrow_t@std@@@Z 000000018001f5dc     LIBCMT:new_scalar_nothrow.obj
 0004:000005e8       $pdata$?catch$0@?0???2@YAPEAX_KAEBUnothrow_t@std@@@Z@4HA 000000018001f5e8     LIBCMT:new_scalar_nothrow.obj
 0004:000005f4       $pdata$__security_init_cookie 000000018001f5f4     LIBCMT:gs_support.obj
 0004:00000600       $pdata$__scrt_initialize_default_local_stdio_options 000000018001f600     LIBCMT:default_local_stdio_options.obj
 0004:0000060c       $pdata$_RTC_Initialize     000000018001f60c     LIBCMT:initsect.obj
 0004:00000618       $pdata$_RTC_Terminate      000000018001f618     LIBCMT:initsect.obj
 0004:00000630       $pdata$??2@YAPEAX_K@Z      000000018001f630     LIBCMT:new_scalar.obj
 0004:0000063c       $pdata$??0exception@std@@QEAA@AEBV01@@Z 000000018001f63c     LIBCMT:throw_bad_alloc.obj
 0004:00000648       $pdata$??_Gbad_array_new_length@std@@UEAAPEAXI@Z 000000018001f648     LIBCMT:throw_bad_alloc.obj
 0004:00000648       $pdata$??_Gbad_exception@std@@UEAAPEAXI@Z 000000018001f648     libvcruntime:frame.obj
 0004:00000648       $pdata$??_Gbad_alloc@std@@UEAAPEAXI@Z 000000018001f648     LIBCMT:throw_bad_alloc.obj
 0004:00000648       $pdata$??_Gexception@std@@UEAAPEAXI@Z 000000018001f648     LIBCMT:throw_bad_alloc.obj
 0004:00000654       $pdata$??0bad_alloc@std@@QEAA@AEBV01@@Z 000000018001f654     LIBCMT:throw_bad_alloc.obj
 0004:00000660       $pdata$??0bad_array_new_length@std@@QEAA@AEBV01@@Z 000000018001f660     LIBCMT:throw_bad_alloc.obj
 0004:0000066c       $pdata$?__scrt_throw_std_bad_alloc@@YAXXZ 000000018001f66c     LIBCMT:throw_bad_alloc.obj
 0004:00000678       $pdata$?__scrt_throw_std_bad_array_new_length@@YAXXZ 000000018001f678     LIBCMT:throw_bad_alloc.obj
 0004:00000684       $pdata$??_Gtype_info@@UEAAPEAXI@Z 000000018001f684     LIBCMT:std_type_info_static.obj
 0004:00000690       $pdata$wcsstr              000000018001f690     libvcruntime:wcsstr.obj
 0004:000006cc       $pdata$__vcrt_initialize   000000018001f6cc     libvcruntime:initialization.obj
 0004:000006d8       $pdata$__vcrt_uninitialize 000000018001f6d8     libvcruntime:initialization.obj
 0004:000006e4       $pdata$__vcrt_uninitialize_critical 000000018001f6e4     libvcruntime:initialization.obj
 0004:000006f0       $pdata$__vcrt_thread_attach 000000018001f6f0     libvcruntime:initialization.obj
 0004:000006fc       $pdata$__vcrt_thread_detach 000000018001f6fc     libvcruntime:initialization.obj
 0004:00000708       $pdata$__C_specific_handler 000000018001f708     libvcruntime:riscchandler.obj
 0004:00000714       $pdata$?CatchTryBlock@__FrameHandler3@@SAPEBU_s_TryBlockMapEntry@@PEBU_s_FuncInfo@@H@Z 000000018001f714     libvcruntime:risctrnsctrl.obj
 0004:00000720       $pdata$?ExecutionInCatch@__FrameHandler3@@SA_NPEAU_xDISPATCHER_CONTEXT@@PEBU_s_FuncInfo@@@Z 000000018001f720     libvcruntime:risctrnsctrl.obj
 0004:0000072c       $pdata$?FrameUnwindToEmptyState@__FrameHandler3@@SAXPEA_KPEAU_xDISPATCHER_CONTEXT@@PEBU_s_FuncInfo@@@Z 000000018001f72c     libvcruntime:risctrnsctrl.obj
 0004:00000738       $pdata$?GetEstablisherFrame@__FrameHandler3@@SAPEA_KPEA_KPEAU_xDISPATCHER_CONTEXT@@PEBU_s_FuncInfo@@0@Z 000000018001f738     libvcruntime:risctrnsctrl.obj
 0004:00000744       $pdata$?UnwindNestedFrames@__FrameHandler3@@SAXPEA_KPEAUEHExceptionRecord@@PEAU_CONTEXT@@0PEAXPEBU_s_FuncInfo@@HHPEBU_s_HandlerType@@PEAU_xDISPATCHER_CONTEXT@@E@Z 000000018001f744     libvcruntime:risctrnsctrl.obj
 0004:00000750       $pdata$?GetRangeOfTrysToCheck@__FrameHandler3@@SA?AU?$pair@Viterator@TryBlockMap@__FrameHandler3@@V123@@std@@AEAVTryBlockMap@1@HH@Z 000000018001f750     libvcruntime:risctrnsctrl.obj
 0004:0000075c       $pdata$_GetImageBase       000000018001f75c     libvcruntime:risctrnsctrl.obj
 0004:00000768       $pdata$_SetImageBase       000000018001f768     libvcruntime:risctrnsctrl.obj
 0004:00000774       $pdata$_GetThrowImageBase  000000018001f774     libvcruntime:risctrnsctrl.obj
 0004:00000780       $pdata$_SetThrowImageBase  000000018001f780     libvcruntime:risctrnsctrl.obj
 0004:0000078c       $pdata$_CreateFrameInfo    000000018001f78c     libvcruntime:risctrnsctrl.obj
 0004:00000798       $pdata$_FindAndUnlinkFrame 000000018001f798     libvcruntime:risctrnsctrl.obj
 0004:000007a4       $pdata$__CxxFrameHandler3  000000018001f7a4     libvcruntime:risctrnsctrl.obj
 0004:000007b0       $pdata$??$_CallSETranslator@V__FrameHandler3@@@@YAHPEAUEHExceptionRecord@@PEA_KPEAU_CONTEXT@@PEAU_xDISPATCHER_CONTEXT@@PEBU_s_FuncInfo@@K1@Z 000000018001f7b0     libvcruntime:risctrnsctrl.obj
 0004:000007bc       $pdata$?filt$0@?0???$_CallSETranslator@V__FrameHandler3@@@@YAHPEAUEHExceptionRecord@@PEA_KPEAU_CONTEXT@@PEAU_xDISPATCHER_CONTEXT@@PEBU_s_FuncInfo@@K1@Z@4HA 000000018001f7bc     libvcruntime:risctrnsctrl.obj
 0004:000007c8       $pdata$__std_type_info_destroy_list 000000018001f7c8     libvcruntime:std_type_info.obj
 0004:000007d4       $pdata$__std_exception_copy 000000018001f7d4     libvcruntime:std_exception.obj
 0004:000007e0       $pdata$__std_exception_destroy 000000018001f7e0     libvcruntime:std_exception.obj
 0004:000007ec       $pdata$_CxxThrowException  000000018001f7ec     libvcruntime:throw.obj
 0004:000007f8       $pdata$__vcrt_initialize_ptd 000000018001f7f8     libvcruntime:per_thread_data.obj
 0004:00000804       $pdata$__vcrt_uninitialize_ptd 000000018001f804     libvcruntime:per_thread_data.obj
 0004:00000810       $pdata$__vcrt_getptd       000000018001f810     libvcruntime:per_thread_data.obj
 0004:0000081c       $pdata$__vcrt_getptd_noexit 000000018001f81c     libvcruntime:per_thread_data.obj
 0004:00000828       $pdata$__vcrt_freeptd      000000018001f828     libvcruntime:per_thread_data.obj
 0004:00000834       $pdata$__vcrt_freefls      000000018001f834     libvcruntime:per_thread_data.obj
 0004:00000840       $pdata$__vcrt_initialize_locks 000000018001f840     libvcruntime:locks.obj
 0004:0000084c       $pdata$__vcrt_uninitialize_locks 000000018001f84c     libvcruntime:locks.obj
 0004:00000858       $pdata$__vcrt_FlsAlloc     000000018001f858     libvcruntime:winapi_downlevel.obj
 0004:00000864       $pdata$__vcrt_FlsFree      000000018001f864     libvcruntime:winapi_downlevel.obj
 0004:00000870       $pdata$__vcrt_FlsGetValue  000000018001f870     libvcruntime:winapi_downlevel.obj
 0004:0000087c       $pdata$__vcrt_FlsSetValue  000000018001f87c     libvcruntime:winapi_downlevel.obj
 0004:00000888       $pdata$__vcrt_InitializeCriticalSectionEx 000000018001f888     libvcruntime:winapi_downlevel.obj
 0004:00000894       $pdata$__vcrt_initialize_winapi_thunks 000000018001f894     libvcruntime:winapi_downlevel.obj
 0004:000008a0       $pdata$__vcrt_uninitialize_winapi_thunks 000000018001f8a0     libvcruntime:winapi_downlevel.obj
 0004:000008ac       $pdata$?try_get_function@@YAPEAXW4function_id@?A0xbfd18cd1@@QEBDQEBW4module_id@2@2@Z 000000018001f8ac     libvcruntime:winapi_downlevel.obj
 0004:000008dc       $pdata$_IsExceptionObjectToBeDestroyed 000000018001f8dc     libvcruntime:ehhelpers.obj
 0004:000008e8       $pdata$__FrameUnwindFilter 000000018001f8e8     libvcruntime:ehhelpers.obj
 0004:000008f4       $pdata$__DestructExceptionObject 000000018001f8f4     libvcruntime:ehhelpers.obj
 0004:00000900       $pdata$__DestructExceptionObject$filt$0 000000018001f900     libvcruntime:ehhelpers.obj
 0004:0000090c       $pdata$?StateFromIp@__FrameHandler3@@SAHPEBU_s_FuncInfo@@PEAU_xDISPATCHER_CONTEXT@@_K@Z 000000018001f90c     libvcruntime:ehstate.obj
 0004:00000918       $pdata$?GetCurrentState@__FrameHandler3@@SAHPEA_KPEAU_xDISPATCHER_CONTEXT@@PEBU_s_FuncInfo@@@Z 000000018001f918     libvcruntime:ehstate.obj
 0004:00000924       $pdata$?SetUnwindTryBlock@__FrameHandler3@@SAXPEA_KPEAU_xDISPATCHER_CONTEXT@@PEBU_s_FuncInfo@@H@Z 000000018001f924     libvcruntime:ehstate.obj
 0004:00000930       $pdata$?GetUnwindTryBlock@__FrameHandler3@@SAHPEA_KPEAU_xDISPATCHER_CONTEXT@@PEBU_s_FuncInfo@@@Z 000000018001f930     libvcruntime:ehstate.obj
 0004:0000093c       $pdata$?FrameUnwindToState@__FrameHandler3@@SAXPEA_KPEAU_xDISPATCHER_CONTEXT@@PEBU_s_FuncInfo@@H@Z 000000018001f93c     libvcruntime:frame.obj
 0004:00000948       $pdata$?filt$0@?0??FrameUnwindToState@__FrameHandler3@@SAXPEA_KPEAU_xDISPATCHER_CONTEXT@@PEBU_s_FuncInfo@@H@Z@4HA 000000018001f948     libvcruntime:frame.obj
 0004:00000954       $pdata$?fin$1@?0??FrameUnwindToState@__FrameHandler3@@SAXPEA_KPEAU_xDISPATCHER_CONTEXT@@PEBU_s_FuncInfo@@H@Z@4HA 000000018001f954     libvcruntime:frame.obj
 0004:00000960       $pdata$?GetHandlerSearchState@__FrameHandler3@@SAHPEA_KPEAU_xDISPATCHER_CONTEXT@@PEBU_s_FuncInfo@@@Z 000000018001f960     libvcruntime:frame.obj
 0004:0000096c       $pdata$?CxxCallCatchBlock@__FrameHandler3@@SAPEAXPEAU_EXCEPTION_RECORD@@@Z 000000018001f96c     libvcruntime:frame.obj
 0004:00000978       $pdata$?filt$0@?0??CxxCallCatchBlock@__FrameHandler3@@SAPEAXPEAU_EXCEPTION_RECORD@@@Z@4HA 000000018001f978     libvcruntime:frame.obj
 0004:00000984       $pdata$?fin$1@?0??CxxCallCatchBlock@__FrameHandler3@@SAPEAXPEAU_EXCEPTION_RECORD@@@Z@4HA 000000018001f984     libvcruntime:frame.obj
 0004:00000990       $pdata$??0bad_exception@std@@QEAA@AEBV01@@Z 000000018001f990     libvcruntime:frame.obj
 0004:0000099c       $pdata$?ExFilterRethrow@@YAHPEAU_EXCEPTION_POINTERS@@PEAUEHExceptionRecord@@PEAH@Z 000000018001f99c     libvcruntime:frame.obj
 0004:000009a8       $pdata$?IsInExceptionSpec@@YAEPEAUEHExceptionRecord@@PEBU_s_ESTypeList@@@Z 000000018001f9a8     libvcruntime:frame.obj
 0004:000009b4       $pdata$?Is_bad_exception_allowed@@YAEPEBU_s_ESTypeList@@@Z 000000018001f9b4     libvcruntime:frame.obj
 0004:000009c0       $pdata$??$__InternalCxxFrameHandler@V__FrameHandler3@@@@YA?AW4_EXCEPTION_DISPOSITION@@PEAUEHExceptionRecord@@PEA_KPEAU_CONTEXT@@PEAU_xDISPATCHER_CONTEXT@@PEBU_s_FuncInfo@@H1E@Z 000000018001f9c0     libvcruntime:frame.obj
 0004:000009cc       $pdata$??$TypeMatchHelper@V__FrameHandler3@@@@YAHPEBU_s_HandlerType@@PEBU_s_CatchableType@@PEBU_s_ThrowInfo@@@Z 000000018001f9cc     libvcruntime:frame.obj
 0004:000009d8       $pdata$??$BuildCatchObjectHelperInternal@V__FrameHandler3@@@@YAHPEAUEHExceptionRecord@@PEAXPEBU_s_HandlerType@@PEBU_s_CatchableType@@@Z 000000018001f9d8     libvcruntime:frame.obj
 0004:000009e4       $pdata$??$BuildCatchObjectInternal@V__FrameHandler3@@@@YAXPEAUEHExceptionRecord@@PEAXPEBU_s_HandlerType@@PEBU_s_CatchableType@@@Z 000000018001f9e4     libvcruntime:frame.obj
 0004:000009f0       $pdata$??$FindHandler@V__FrameHandler3@@@@YAXPEAUEHExceptionRecord@@PEA_KPEAU_CONTEXT@@PEAU_xDISPATCHER_CONTEXT@@PEBU_s_FuncInfo@@EH1@Z 000000018001f9f0     libvcruntime:frame.obj
 0004:000009fc       $pdata$??$CatchIt@V__FrameHandler3@@@@YAXPEAUEHExceptionRecord@@PEA_KPEAU_CONTEXT@@PEAU_xDISPATCHER_CONTEXT@@PEBU_s_FuncInfo@@PEBU_s_HandlerType@@PEBU_s_CatchableType@@PEBU_s_TryBlockMapEntry@@H1EE@Z 000000018001f9fc     libvcruntime:frame.obj
 0004:00000a08       $pdata$??$FindHandlerForForeignException@V__FrameHandler3@@@@YAXPEAUEHExceptionRecord@@PEA_KPEAU_CONTEXT@@PEAU_xDISPATCHER_CONTEXT@@PEBU_s_FuncInfo@@HH1@Z 000000018001fa08     libvcruntime:frame.obj
 0004:00000a2c       $pdata$_invalid_parameter_noinfo 000000018001fa2c     libucrt:invalid_parameter.obj
 0004:00000a38       $pdata$_invoke_watson      000000018001fa38     libucrt:invalid_parameter.obj
 0004:00000a44       $pdata$__acrt_call_reportfault 000000018001fa44     libucrt:invalid_parameter.obj
 0004:00000a50       $pdata$_invalid_parameter  000000018001fa50     libucrt:invalid_parameter.obj
 0004:00000a5c       $pdata$_errno              000000018001fa5c     libucrt:errno.obj
 0004:00000a68       $pdata$__doserrno          000000018001fa68     libucrt:errno.obj
 0004:00000a74       $pdata$__acrt_errno_map_os_error 000000018001fa74     libucrt:errno.obj
 0004:00000a80       $pdata$_recalloc_base      000000018001fa80     libucrt:recalloc.obj
 0004:00000a8c       $pdata$wcscat_s            000000018001fa8c     libucrt:wcscat_s.obj
 0004:00000a98       $pdata$wcscpy_s            000000018001fa98     libucrt:wcscpy_s.obj
 0004:00000aa4       $pdata$wcsncpy_s           000000018001faa4     libucrt:wcsncpy_s.obj
 0004:00000ab0       $pdata$_seh_filter_exe     000000018001fab0     libucrt:exception_filter.obj
 0004:00000abc       $pdata$?try_cor_exit_process@@YAXI@Z 000000018001fabc     libucrt:exit.obj
 0004:00000ac8       $pdata$?exit_or_terminate_process@@YAXI@Z 000000018001fac8     libucrt:exit.obj
 0004:00000ad4       $pdata$?common_exit@@YAXHW4_crt_exit_cleanup_mode@@W4_crt_exit_return_mode@@@Z 000000018001fad4     libucrt:exit.obj
 0004:00000ae0       $pdata$?filt$0@?0??common_exit@@YAXHW4_crt_exit_cleanup_mode@@W4_crt_exit_return_mode@@@Z@4HA 000000018001fae0     libucrt:exit.obj
 0004:00000aec       $pdata$?fin$1@?0??common_exit@@YAXHW4_crt_exit_cleanup_mode@@W4_crt_exit_return_mode@@@Z@4HA 000000018001faec     libucrt:exit.obj
 0004:00000af8       $pdata$_configure_narrow_argv 000000018001faf8     libucrt:argv_parsing.obj
 0004:00000b04       $pdata$__acrt_allocate_buffer_for_argv 000000018001fb04     libucrt:argv_parsing.obj
 0004:00000b10       $pdata$??$parse_command_line@D@@YAXPEADPEAPEAD0PEA_K2@Z 000000018001fb10     libucrt:argv_parsing.obj
 0004:00000b1c       $pdata$__dcrt_uninitialize_environments_nolock 000000018001fb1c     libucrt:environment_initialization.obj
 0004:00000b28       $pdata$??$common_initialize_environment_nolock@D@@YAHXZ 000000018001fb28     libucrt:environment_initialization.obj
 0004:00000b34       $pdata$??$uninitialize_environment_internal@D@@YAXAEAPEAPEAD@Z 000000018001fb34     libucrt:environment_initialization.obj
 0004:00000b40       $pdata$??$uninitialize_environment_internal@_W@@YAXAEAPEAPEA_W@Z 000000018001fb40     libucrt:environment_initialization.obj
 0004:00000b4c       $pdata$??$free_environment@D@@YAXQEAPEAD@Z 000000018001fb4c     libucrt:environment_initialization.obj
 0004:00000b4c       $pdata$??$free_environment@_W@@YAXQEAPEA_W@Z 000000018001fb4c     libucrt:environment_initialization.obj
 0004:00000b58       $pdata$??$create_environment@D@@YAQEAPEADQEAD@Z 000000018001fb58     libucrt:environment_initialization.obj
 0004:00000b64       $pdata$_register_onexit_function 000000018001fb64     libucrt:onexit.obj
 0004:00000b70       $pdata$_execute_onexit_table 000000018001fb70     libucrt:onexit.obj
 0004:00000b7c       $pdata$??R<lambda_4e60a939b0d047cfe11ddc22648dfba9>@@QEBAHXZ 000000018001fb7c     libucrt:onexit.obj
 0004:00000b88       $pdata$??$?RV<lambda_b8c45f8f788dd370798f47cfe8ac3a86>@@AEAV<lambda_4e60a939b0d047cfe11ddc22648dfba9>@@V<lambda_332c3edc96d0294ec56c57d38c1cdfd5>@@@?$__crt_seh_guarded_call@H@@QEAAH$$QEAV<lambda_b8c45f8f788dd370798f47cfe8ac3a86>@@AEAV<lambda_4e60a939b0d047cfe11ddc22648dfba9>@@$$QEAV<lambda_332c3edc96d0294ec56c57d38c1cdfd5>@@@Z 000000018001fb88     libucrt:onexit.obj
 0004:00000b94       $pdata$?fin$0@?0???$?RV<lambda_5e887d1dcbef67a5eb4283622ba103bf>@@AEAV<lambda_4466841279450cc726390878d4a41900>@@V<lambda_341c25c0346d94847f1f3c463c57e077>@@@?$__crt_seh_guarded_call@X@@QEAAX$$QEAV<lambda_5e887d1dcbef67a5eb4283622ba103bf>@@AEAV<lambda_4466841279450cc726390878d4a41900>@@$$QEAV<lambda_341c25c0346d94847f1f3c463c57e077>@@@Z@4HA 000000018001fb94     libucrt:per_thread_data.obj
 0004:00000b94       $pdata$?fin$0@?0???$?RV<lambda_c36588078e9f5dfd39652860aa6b3aaf>@@AEAV<lambda_ec61778202f4f5fc7e7711acc23c3bca>@@V<lambda_dc9d2797ccde5d239b4a0efae8ebd7db>@@@?$__crt_seh_guarded_call@P6AXH@Z@@QEAAP6AXH@Z$$QEAV<lambda_c36588078e9f5dfd39652860aa6b3aaf>@@AEAV<lambda_ec61778202f4f5fc7e7711acc23c3bca>@@$$QEAV<lambda_dc9d2797ccde5d239b4a0efae8ebd7db>@@@Z@4HA 000000018001fb94     libucrt:signal.obj
 0004:00000b94       $pdata$?fin$0@?0???$?RV<lambda_99476a1ad63dd22509b5d3e65b0ffc95>@@AEAV<lambda_ad1ced32f4ac17aa236e5ef05d6b3b7c>@@V<lambda_f7424dd8d45958661754dc4f2697e9c3>@@@?$__crt_seh_guarded_call@X@@QEAAX$$QEAV<lambda_99476a1ad63dd22509b5d3e65b0ffc95>@@AEAV<lambda_ad1ced32f4ac17aa236e5ef05d6b3b7c>@@$$QEAV<lambda_f7424dd8d45958661754dc4f2697e9c3>@@@Z@4HA 000000018001fb94     libucrt:mbctype.obj
 0004:00000b94       $pdata$?fin$0@?0???$?RV<lambda_b8c45f8f788dd370798f47cfe8ac3a86>@@AEAV<lambda_4e60a939b0d047cfe11ddc22648dfba9>@@V<lambda_332c3edc96d0294ec56c57d38c1cdfd5>@@@?$__crt_seh_guarded_call@H@@QEAAH$$QEAV<lambda_b8c45f8f788dd370798f47cfe8ac3a86>@@AEAV<lambda_4e60a939b0d047cfe11ddc22648dfba9>@@$$QEAV<lambda_332c3edc96d0294ec56c57d38c1cdfd5>@@@Z@4HA 000000018001fb94     libucrt:onexit.obj
 0004:00000b94       $pdata$?fin$0@?0???$?RV<lambda_fb3a7dec4e47f37f22dae91bb15c9095>@@AEAV<lambda_698284760c8add0bfb0756c19673e34b>@@V<lambda_dfb8eca1e75fef3034a8fb18dd509707>@@@?$__crt_seh_guarded_call@X@@QEAAX$$QEAV<lambda_fb3a7dec4e47f37f22dae91bb15c9095>@@AEAV<lambda_698284760c8add0bfb0756c19673e34b>@@$$QEAV<lambda_dfb8eca1e75fef3034a8fb18dd509707>@@@Z@4HA 000000018001fb94     libucrt:per_thread_data.obj
 0004:00000b94       $pdata$?fin$0@?0???$?RV<lambda_46352004c1216016012b18bd6f87e700>@@AEAV<lambda_3bd07e1a1191394380780325891bf33f>@@V<lambda_334532d3f185bcaa59b5be82d7d22bff>@@@?$__crt_seh_guarded_call@X@@QEAAX$$QEAV<lambda_46352004c1216016012b18bd6f87e700>@@AEAV<lambda_3bd07e1a1191394380780325891bf33f>@@$$QEAV<lambda_334532d3f185bcaa59b5be82d7d22bff>@@@Z@4HA 000000018001fb94     libucrt:per_thread_data.obj
 0004:00000b94       $pdata$?fin$0@?0???$?RV<lambda_72d1df2b273a38828b1ce30cbf4cdab5>@@AEAV<lambda_876a65b173b8412d3a47c70a915b0cf4>@@V<lambda_41932305e351933ebe8f8be3ed8bb5dc>@@@?$__crt_seh_guarded_call@X@@QEAAX$$QEAV<lambda_72d1df2b273a38828b1ce30cbf4cdab5>@@AEAV<lambda_876a65b173b8412d3a47c70a915b0cf4>@@$$QEAV<lambda_41932305e351933ebe8f8be3ed8bb5dc>@@@Z@4HA 000000018001fb94     libucrt:per_thread_data.obj
 0004:00000ba0       $pdata$??$?RV<lambda_e24bbb7b643b32fcea6fa61b31d4c984>@@AEAV<lambda_275893d493268fdec8709772e3fcec0e>@@V<lambda_9d71df4d7cf3f480f8d633942495c3b0>@@@?$__crt_seh_guarded_call@H@@QEAAH$$QEAV<lambda_e24bbb7b643b32fcea6fa61b31d4c984>@@AEAV<lambda_275893d493268fdec8709772e3fcec0e>@@$$QEAV<lambda_9d71df4d7cf3f480f8d633942495c3b0>@@@Z 000000018001fba0     libucrt:onexit.obj
 0004:00000bac       $pdata$?fin$0@?0???$?RV<lambda_e24bbb7b643b32fcea6fa61b31d4c984>@@AEAV<lambda_275893d493268fdec8709772e3fcec0e>@@V<lambda_9d71df4d7cf3f480f8d633942495c3b0>@@@?$__crt_seh_guarded_call@H@@QEAAH$$QEAV<lambda_e24bbb7b643b32fcea6fa61b31d4c984>@@AEAV<lambda_275893d493268fdec8709772e3fcec0e>@@$$QEAV<lambda_9d71df4d7cf3f480f8d633942495c3b0>@@@Z@4HA 000000018001fbac     libucrt:onexit.obj
 0004:00000bb8       $pdata$__acrt_uninitialize_critical 000000018001fbb8     libucrt:initialization.obj
 0004:00000bc4       $pdata$__acrt_thread_attach 000000018001fbc4     libucrt:initialization.obj
 0004:00000bd0       $pdata$__acrt_thread_detach 000000018001fbd0     libucrt:initialization.obj
 0004:00000bdc       $pdata$initialize_c        000000018001fbdc     libucrt:initialization.obj
 0004:00000be8       $pdata$uninitialize_environment 000000018001fbe8     libucrt:initialization.obj
 0004:00000bf4       $pdata$initialize_pointers 000000018001fbf4     libucrt:initialization.obj
 0004:00000c00       $pdata$uninitialize_allocated_memory 000000018001fc00     libucrt:initialization.obj
 0004:00000c0c       $pdata$_initterm           000000018001fc0c     libucrt:initterm.obj
 0004:00000c18       $pdata$_initterm_e         000000018001fc18     libucrt:initterm.obj
 0004:00000c24       $pdata$terminate           000000018001fc24     libucrt:terminate.obj
 0004:00000c30       $pdata$_callnewh           000000018001fc30     libucrt:new_handler.obj
 0004:00000c3c       $pdata$_query_new_handler  000000018001fc3c     libucrt:new_handler.obj
 0004:00000c48       $pdata$_query_new_handler$fin$0 000000018001fc48     libucrt:new_handler.obj
 0004:00000c54       $pdata$strcpy_s            000000018001fc54     libucrt:strcpy_s.obj
 0004:00000c60       $pdata$abort               000000018001fc60     libucrt:abort.obj
 0004:00000c6c       $pdata$??0_LocaleUpdate@@QEAA@QEAU__crt_locale_pointers@@@Z 000000018001fc6c     libucrt:output.obj
 0004:00000c84       $pdata$_free_base          000000018001fc84     libucrt:free_base.obj
 0004:00000c90       $pdata$__acrt_initialize_ptd 000000018001fc90     libucrt:per_thread_data.obj
 0004:00000c9c       $pdata$__acrt_uninitialize_ptd 000000018001fc9c     libucrt:per_thread_data.obj
 0004:00000ca8       $pdata$__acrt_getptd       000000018001fca8     libucrt:per_thread_data.obj
 0004:00000cb4       $pdata$__acrt_getptd_noexit 000000018001fcb4     libucrt:per_thread_data.obj
 0004:00000cc0       $pdata$__acrt_freeptd      000000018001fcc0     libucrt:per_thread_data.obj
 0004:00000ccc       $pdata$?destroy_fls@@YAXPEAX@Z 000000018001fccc     libucrt:per_thread_data.obj
 0004:00000cd8       $pdata$?replace_current_thread_locale_nolock@@YAXQEAU__acrt_ptd@@QEAU__crt_locale_data@@@Z 000000018001fcd8     libucrt:per_thread_data.obj
 0004:00000ce4       $pdata$?construct_ptd_array@@YAXQEAU__acrt_ptd@@@Z 000000018001fce4     libucrt:per_thread_data.obj
 0004:00000cf0       $pdata$?destroy_ptd_array@@YAXQEAU__acrt_ptd@@@Z 000000018001fcf0     libucrt:per_thread_data.obj
 0004:00000cfc       $pdata$??$?RV<lambda_72d1df2b273a38828b1ce30cbf4cdab5>@@AEAV<lambda_876a65b173b8412d3a47c70a915b0cf4>@@V<lambda_41932305e351933ebe8f8be3ed8bb5dc>@@@?$__crt_seh_guarded_call@X@@QEAAX$$QEAV<lambda_72d1df2b273a38828b1ce30cbf4cdab5>@@AEAV<lambda_876a65b173b8412d3a47c70a915b0cf4>@@$$QEAV<lambda_41932305e351933ebe8f8be3ed8bb5dc>@@@Z 000000018001fcfc     libucrt:per_thread_data.obj
 0004:00000d08       $pdata$??$?RV<lambda_5e887d1dcbef67a5eb4283622ba103bf>@@AEAV<lambda_4466841279450cc726390878d4a41900>@@V<lambda_341c25c0346d94847f1f3c463c57e077>@@@?$__crt_seh_guarded_call@X@@QEAAX$$QEAV<lambda_5e887d1dcbef67a5eb4283622ba103bf>@@AEAV<lambda_4466841279450cc726390878d4a41900>@@$$QEAV<lambda_341c25c0346d94847f1f3c463c57e077>@@@Z 000000018001fd08     libucrt:per_thread_data.obj
 0004:00000d14       $pdata$??$?RV<lambda_46352004c1216016012b18bd6f87e700>@@AEAV<lambda_3bd07e1a1191394380780325891bf33f>@@V<lambda_334532d3f185bcaa59b5be82d7d22bff>@@@?$__crt_seh_guarded_call@X@@QEAAX$$QEAV<lambda_46352004c1216016012b18bd6f87e700>@@AEAV<lambda_3bd07e1a1191394380780325891bf33f>@@$$QEAV<lambda_334532d3f185bcaa59b5be82d7d22bff>@@@Z 000000018001fd14     libucrt:per_thread_data.obj
 0004:00000d20       $pdata$??$?RV<lambda_fb3a7dec4e47f37f22dae91bb15c9095>@@AEAV<lambda_698284760c8add0bfb0756c19673e34b>@@V<lambda_dfb8eca1e75fef3034a8fb18dd509707>@@@?$__crt_seh_guarded_call@X@@QEAAX$$QEAV<lambda_fb3a7dec4e47f37f22dae91bb15c9095>@@AEAV<lambda_698284760c8add0bfb0756c19673e34b>@@$$QEAV<lambda_dfb8eca1e75fef3034a8fb18dd509707>@@@Z 000000018001fd20     libucrt:per_thread_data.obj
 0004:00000d2c       $pdata$_malloc_base        000000018001fd2c     libucrt:malloc_base.obj
 0004:00000d38       $pdata$_msize              000000018001fd38     libucrt:msize.obj
 0004:00000d44       $pdata$_realloc_base       000000018001fd44     libucrt:realloc_base.obj
 0004:00000d50       $pdata$__acrt_initialize_locks 000000018001fd50     libucrt:locks.obj
 0004:00000d5c       $pdata$__acrt_uninitialize_locks 000000018001fd5c     libucrt:locks.obj
 0004:00000d68       $pdata$__acrt_FlsAlloc     000000018001fd68     libucrt:winapi_thunks.obj
 0004:00000d74       $pdata$__acrt_FlsFree      000000018001fd74     libucrt:winapi_thunks.obj
 0004:00000d80       $pdata$__acrt_FlsGetValue  000000018001fd80     libucrt:winapi_thunks.obj
 0004:00000d8c       $pdata$__acrt_FlsSetValue  000000018001fd8c     libucrt:winapi_thunks.obj
 0004:00000d98       $pdata$__acrt_initialize_winapi_thunks 000000018001fd98     libucrt:winapi_thunks.obj
 0004:00000da4       $pdata$__acrt_uninitialize_winapi_thunks 000000018001fda4     libucrt:winapi_thunks.obj
 0004:00000db0       $pdata$__acrt_InitializeCriticalSectionEx 000000018001fdb0     libucrt:winapi_thunks.obj
 0004:00000dbc       $pdata$__acrt_LCMapStringEx 000000018001fdbc     libucrt:winapi_thunks.obj
 0004:00000dc8       $pdata$__acrt_LocaleNameToLCID 000000018001fdc8     libucrt:winapi_thunks.obj
 0004:00000dd4       $pdata$__acrt_is_packaged_app 000000018001fdd4     libucrt:winapi_thunks.obj
 0004:00000de0       $pdata$?try_get_function@@YAPEAXW4function_id@?A0x63058377@@QEBDQEBW4module_id@2@2@Z 000000018001fde0     libucrt:winapi_thunks.obj
 0004:00000dec       $pdata$_calloc_base        000000018001fdec     libucrt:calloc_base.obj
 0004:00000df8       $pdata$??$common_expand_argv_wildcards@D@@YAHQEAPEADQEAPEAPEAD@Z 000000018001fdf8     libucrt:argv_wildcards.obj
 0004:00000e04       $pdata$?expand_if_necessary@?$argument_list@D@?A0xca0879c4@@AEAAHXZ 000000018001fe04     libucrt:argv_wildcards.obj
 0004:00000e10       $pdata$??$copy_and_add_argument_to_buffer@D@@YAHQEBD0_KAEAV?$argument_list@D@?A0xca0879c4@@@Z 000000018001fe10     libucrt:argv_wildcards.obj
 0004:00000e1c       $pdata$??$expand_argument_wildcards@D@@YAHQEAD0AEAV?$argument_list@D@?A0xca0879c4@@@Z 000000018001fe1c     libucrt:argv_wildcards.obj
 0004:00000e28       $pdata$__acrt_update_thread_multibyte_data 000000018001fe28     libucrt:mbctype.obj
 0004:00000e34       $pdata$__acrt_update_thread_multibyte_data$fin$0 000000018001fe34     libucrt:mbctype.obj
 0004:00000e40       $pdata$__acrt_initialize_multibyte 000000018001fe40     libucrt:mbctype.obj
 0004:00000e4c       $pdata$_setmbcp_nolock     000000018001fe4c     libucrt:mbctype.obj
 0004:00000e58       $pdata$?getSystemCP@@YAHH@Z 000000018001fe58     libucrt:mbctype.obj
 0004:00000e64       $pdata$?setSBCS@@YAXPEAU__crt_multibyte_data@@@Z 000000018001fe64     libucrt:mbctype.obj
 0004:00000e70       $pdata$?setSBUpLow@@YAXPEAU__crt_multibyte_data@@@Z 000000018001fe70     libucrt:mbctype.obj
 0004:00000e7c       $pdata$?setmbcp_internal@@YAHH_N@Z 000000018001fe7c     libucrt:mbctype.obj
 0004:00000e88       $pdata$??R<lambda_ad1ced32f4ac17aa236e5ef05d6b3b7c>@@QEBAXXZ 000000018001fe88     libucrt:mbctype.obj
 0004:00000e94       $pdata$??$?RV<lambda_99476a1ad63dd22509b5d3e65b0ffc95>@@AEAV<lambda_ad1ced32f4ac17aa236e5ef05d6b3b7c>@@V<lambda_f7424dd8d45958661754dc4f2697e9c3>@@@?$__crt_seh_guarded_call@X@@QEAAX$$QEAV<lambda_99476a1ad63dd22509b5d3e65b0ffc95>@@AEAV<lambda_ad1ced32f4ac17aa236e5ef05d6b3b7c>@@$$QEAV<lambda_f7424dd8d45958661754dc4f2697e9c3>@@@Z 000000018001fe94     libucrt:mbctype.obj
 0004:00000ea0       $pdata$?x_ismbbtype_l@@YAHPEAU__crt_locale_pointers@@IHH@Z 000000018001fea0     libucrt:ismbbyte.obj
 0004:00000eac       $pdata$__acrt_initialize_command_line 000000018001feac     libucrt:argv_data.obj
 0004:00000eb8       $pdata$__dcrt_get_narrow_environment_from_os 000000018001feb8     libucrt:get_environment_from_os.obj
 0004:00000ec4       $pdata$__acrt_initialize_heap 000000018001fec4     libucrt:heap_handle.obj
 0004:00000ed0       $pdata$__acrt_initialize_lowio 000000018001fed0     libucrt:ioinit.obj
 0004:00000edc       $pdata$__acrt_lowio_ensure_fh_exists$fin$0 000000018001fedc     libucrt:osfinfo.obj
 0004:00000edc       $pdata$__acrt_initialize_lowio$fin$0 000000018001fedc     libucrt:ioinit.obj
 0004:00000ee8       $pdata$__acrt_uninitialize_lowio 000000018001fee8     libucrt:ioinit.obj
 0004:00000ef4       $pdata$?initialize_inherited_file_handles_nolock@@YAXXZ 000000018001fef4     libucrt:ioinit.obj
 0004:00000f00       $pdata$?initialize_stdio_handles_nolock@@YAXXZ 000000018001ff00     libucrt:ioinit.obj
 0004:00000f0c       $pdata$__acrt_execute_initializers 000000018001ff0c     libucrt:shared_initialization.obj
 0004:00000f18       $pdata$__acrt_execute_uninitializers 000000018001ff18     libucrt:shared_initialization.obj
 0004:00000f24       $pdata$__acrt_get_sigabrt_handler 000000018001ff24     libucrt:signal.obj
 0004:00000f30       $pdata$raise               000000018001ff30     libucrt:signal.obj
 0004:00000f3c       $pdata$raise$fin$0         000000018001ff3c     libucrt:signal.obj
 0004:00000f48       $pdata$??$?RV<lambda_c36588078e9f5dfd39652860aa6b3aaf>@@AEAV<lambda_ec61778202f4f5fc7e7711acc23c3bca>@@V<lambda_dc9d2797ccde5d239b4a0efae8ebd7db>@@@?$__crt_seh_guarded_call@P6AXH@Z@@QEAAP6AXH@Z$$QEAV<lambda_c36588078e9f5dfd39652860aa6b3aaf>@@AEAV<lambda_ec61778202f4f5fc7e7711acc23c3bca>@@$$QEAV<lambda_dc9d2797ccde5d239b4a0efae8ebd7db>@@@Z 000000018001ff48     libucrt:signal.obj
 0004:00000f54       $pdata$__acrt_invoke_user_matherr 000000018001ff54     libucrt:matherr.obj
 0004:00000f60       $pdata$_mbtowc_l           000000018001ff60     libucrt:mbtowc.obj
 0004:00000f6c       $pdata$__acrt_update_locale_info 000000018001ff6c     libucrt:locale_update.obj
 0004:00000f78       $pdata$__acrt_update_multibyte_info 000000018001ff78     libucrt:locale_update.obj
 0004:00000f84       $pdata$_fileno             000000018001ff84     libucrt:fileno.obj
 0004:00000f90       $pdata$__acrt_initialize_stdio 000000018001ff90     libucrt:_file.obj
 0004:00000f9c       $pdata$__acrt_uninitialize_stdio 000000018001ff9c     libucrt:_file.obj
 0004:00000fa8       $pdata$__acrt_uninitialize_locale 000000018001ffa8     libucrt:wsetlocale.obj
 0004:00000fb4       $pdata$__acrt_update_thread_locale_data$fin$0 000000018001ffb4     libucrt:locale_refcounting.obj
 0004:00000fb4       $pdata$__acrt_uninitialize_locale$fin$0 000000018001ffb4     libucrt:wsetlocale.obj
 0004:00000fc0       $pdata$__pctype_func       000000018001ffc0     libucrt:ctype.obj
 0004:00000fcc       $pdata$__acrt_release_locale_ref 000000018001ffcc     libucrt:locale_refcounting.obj
 0004:00000fd8       $pdata$__acrt_free_locale  000000018001ffd8     libucrt:locale_refcounting.obj
 0004:00000fe4       $pdata$__acrt_locale_free_lc_time_if_unreferenced 000000018001ffe4     libucrt:locale_refcounting.obj
 0004:00000ff0       $pdata$__acrt_update_thread_locale_data 000000018001fff0     libucrt:locale_refcounting.obj
 0004:00000ffc       $pdata$_updatetlocinfoEx_nolock 000000018001fffc     libucrt:locale_refcounting.obj
 0004:00001008       $pdata$__acrt_DownlevelLocaleNameToLCID 0000000180020008     libucrt:lcidtoname_downlevel.obj
 0004:00001014       $pdata$?GetTableIndexFromLocaleName@@YAHPEB_W@Z 0000000180020014     libucrt:lcidtoname_downlevel.obj
 0004:00001020       $pdata$qsort               0000000180020020     libucrt:qsort.obj
 0004:0000102c       $pdata$4$qsort             000000018002002c     libucrt:qsort.obj
 0004:00001038       $pdata$5$qsort             0000000180020038     libucrt:qsort.obj
 0004:00001044       $pdata$?shortsort@@YAXPEAD0_KP6AHPEBX2@Z@Z 0000000180020044     libucrt:qsort.obj
 0004:00001050       $pdata$2$?shortsort@@YAXPEAD0_KP6AHPEBX2@Z@Z 0000000180020050     libucrt:qsort.obj
 0004:0000105c       $pdata$3$?shortsort@@YAXPEAD0_KP6AHPEBX2@Z@Z 000000018002005c     libucrt:qsort.obj
 0004:00001068       $pdata$strncpy_s           0000000180020068     libucrt:strncpy_s.obj
 0004:00001074       $pdata$strpbrk             0000000180020074     libucrt:strpbrk.obj
 0004:00001080       $pdata$_mbsdec_l           0000000180020080     libucrt:mbsdec.obj
 0004:0000108c       $pdata$__acrt_GetStringTypeA 000000018002008c     libucrt:getstringtypea.obj
 0004:00001098       $pdata$__acrt_LCMapStringA 0000000180020098     libucrt:lcmapstringa.obj
 0004:000010a4       $pdata$?__acrt_LCMapStringA_stat@@YAHPEAU__crt_locale_pointers@@PEB_WKPEBDHPEADHHH@Z 00000001800200a4     libucrt:lcmapstringa.obj
 0004:000010b0       $pdata$?initialize_multibyte@@YAHXZ 00000001800200b0     libucrt:multibyte_initializer.obj
 0004:000010bc       $pdata$_get_osfhandle      00000001800200bc     libucrt:osfinfo.obj
 0004:000010c8       $pdata$_free_osfhnd        00000001800200c8     libucrt:osfinfo.obj
 0004:000010d4       $pdata$__acrt_lowio_create_handle_array 00000001800200d4     libucrt:osfinfo.obj
 0004:000010e0       $pdata$__acrt_lowio_destroy_handle_array 00000001800200e0     libucrt:osfinfo.obj
 0004:000010ec       $pdata$__acrt_lowio_ensure_fh_exists 00000001800200ec     libucrt:osfinfo.obj
 0004:000010f8       $pdata$_isatty             00000001800200f8     libucrt:isatty.obj
 0004:00001104       $pdata$_fflush_nolock      0000000180020104     libucrt:fflush.obj
 0004:00001110       $pdata$__acrt_stdio_flush_nolock 0000000180020110     libucrt:fflush.obj
 0004:0000111c       $pdata$common_flush_all    000000018002011c     libucrt:fflush.obj
 0004:00001128       $pdata$common_flush_all$fin$0 0000000180020128     libucrt:fflush.obj
 0004:00001134       $pdata$common_flush_all$fin$1 0000000180020134     libucrt:fflush.obj
 0004:00001140       $pdata$_isleadbyte_l       0000000180020140     libucrt:_wctype.obj
 0004:0000114c       $pdata$_fcloseall          000000018002014c     libucrt:closeall.obj
 0004:00001158       $pdata$_fcloseall$fin$0    0000000180020158     libucrt:closeall.obj
 0004:00001164       $pdata$__acrt_stdio_free_buffer_nolock 0000000180020164     libucrt:_freebuf.obj
 0004:00001170       $pdata$__acrt_locale_free_monetary 0000000180020170     libucrt:initmon.obj
 0004:0000117c       $pdata$__acrt_locale_free_numeric 000000018002017c     libucrt:initnum.obj
 0004:00001188       $pdata$__acrt_locale_free_time 0000000180020188     libucrt:inittime.obj
 0004:00001194       $pdata$?free_crt_array_internal@@YAXQEAPEBX_K@Z 0000000180020194     libucrt:inittime.obj
 0004:000011a0       $pdata$_commit             00000001800201a0     libucrt:commit.obj
 0004:000011ac       $pdata$??$?RV<lambda_b521505b218e5242e90febf6bfebc422>@@AEAV<lambda_6978c1fb23f02e42e1d9e99668cc68aa>@@V<lambda_314360699dd331753a4119843814e9a7>@@@?$__crt_seh_guarded_call@H@@QEAAH$$QEAV<lambda_b521505b218e5242e90febf6bfebc422>@@AEAV<lambda_6978c1fb23f02e42e1d9e99668cc68aa>@@$$QEAV<lambda_314360699dd331753a4119843814e9a7>@@@Z 00000001800201ac     libucrt:commit.obj
 0004:000011b8       $pdata$?fin$0@?0???$?RV<lambda_bfedae4ebbf01fab1bb6dcc6a9e276e0>@@AEAV<lambda_2fe9b910cf3cbf4a0ab98a02ba45b3ec>@@V<lambda_237c231691f317818eb88cc1d5d642d6>@@@?$__crt_seh_guarded_call@H@@QEAAH$$QEAV<lambda_bfedae4ebbf01fab1bb6dcc6a9e276e0>@@AEAV<lambda_2fe9b910cf3cbf4a0ab98a02ba45b3ec>@@$$QEAV<lambda_237c231691f317818eb88cc1d5d642d6>@@@Z@4HA 00000001800201b8     libucrt:close.obj
 0004:000011b8       $pdata$?fin$0@?0???$?RV<lambda_b521505b218e5242e90febf6bfebc422>@@AEAV<lambda_6978c1fb23f02e42e1d9e99668cc68aa>@@V<lambda_314360699dd331753a4119843814e9a7>@@@?$__crt_seh_guarded_call@H@@QEAAH$$QEAV<lambda_b521505b218e5242e90febf6bfebc422>@@AEAV<lambda_6978c1fb23f02e42e1d9e99668cc68aa>@@$$QEAV<lambda_314360699dd331753a4119843814e9a7>@@@Z@4HA 00000001800201b8     libucrt:commit.obj
 0004:000011c4       $pdata$_write              00000001800201c4     libucrt:write.obj
 0004:000011d0       $pdata$_write$fin$0        00000001800201d0     libucrt:write.obj
 0004:000011dc       $pdata$_write_nolock       00000001800201dc     libucrt:write.obj
 0004:000011e8       $pdata$?write_double_translated_ansi_nolock@@YA?AUwrite_result@?A0x9c548279@@HQEBDI@Z 00000001800201e8     libucrt:write.obj
 0004:000011f4       $pdata$?write_text_ansi_nolock@@YA?AUwrite_result@?A0x9c548279@@HQEBDI@Z 00000001800201f4     libucrt:write.obj
 0004:00001200       $pdata$?write_text_utf16le_nolock@@YA?AUwrite_result@?A0x9c548279@@HQEBDI@Z 0000000180020200     libucrt:write.obj
 0004:0000120c       $pdata$?write_text_utf8_nolock@@YA?AUwrite_result@?A0x9c548279@@HQEBDI@Z 000000018002020c     libucrt:write.obj
 0004:00001224       $pdata$??$common_lseek_nolock@_J@@YA_JH_JH@Z 0000000180020224     libucrt:lseek.obj
 0004:00001230       $pdata$fclose              0000000180020230     libucrt:fclose.obj
 0004:0000123c       $pdata$fclose$fin$0        000000018002023c     libucrt:fclose.obj
 0004:00001248       $pdata$_fclose_nolock      0000000180020248     libucrt:fclose.obj
 0004:00001254       $pdata$_putwch_nolock      0000000180020254     libucrt:putwch.obj
 0004:00001260       $pdata$_call_matherr       0000000180020260     libucrt:libm_error.obj
 0004:0000126c       $pdata$_exception_enabled  000000018002026c     libucrt:libm_error.obj
 0004:00001278       $pdata$_handle_error       0000000180020278     libucrt:libm_error.obj
 0004:00001284       $pdata$__acrt_initialize_fma3 0000000180020284     libucrt:fma3_available.obj
 0004:00001290       $pdata$_log_special_common 0000000180020290     libucrt:log_special.obj
 0004:0000129c       $pdata$_log10_special      000000018002029c     libucrt:log_special.obj
 0004:000012a8       $pdata$_close              00000001800202a8     libucrt:close.obj
 0004:000012b4       $pdata$_close_nolock       00000001800202b4     libucrt:close.obj
 0004:000012c0       $pdata$??$?RV<lambda_bfedae4ebbf01fab1bb6dcc6a9e276e0>@@AEAV<lambda_2fe9b910cf3cbf4a0ab98a02ba45b3ec>@@V<lambda_237c231691f317818eb88cc1d5d642d6>@@@?$__crt_seh_guarded_call@H@@QEAAH$$QEAV<lambda_bfedae4ebbf01fab1bb6dcc6a9e276e0>@@AEAV<lambda_2fe9b910cf3cbf4a0ab98a02ba45b3ec>@@$$QEAV<lambda_237c231691f317818eb88cc1d5d642d6>@@@Z 00000001800202c0     libucrt:close.obj
 0004:000012cc       $pdata$__dcrt_lowio_initialize_console_output 00000001800202cc     libucrt:initcon.obj
 0004:000012d8       $pdata$__dcrt_terminate_console_output 00000001800202d8     libucrt:initcon.obj
 0004:000012f0       $pdata$_set_errno_from_matherr 00000001800202f0     libucrt:fpexcept.obj
 0004:000012fc       $pdata$_raise_exc          00000001800202fc     libucrt:fpexcept.obj
 0004:00001308       $pdata$_raise_exc_ex       0000000180020308     libucrt:fpexcept.obj
 0004:00001314       $pdata$_clrfp              0000000180020314     libucrt:fpctrl.obj
 0004:00001320       $pdata$_ctrlfp             0000000180020320     libucrt:fpctrl.obj
 0004:0000132c       $pdata$_ctrlfp$filt$0      000000018002032c     libucrt:fpctrl.obj
 0004:00001338       $pdata$_statfp             0000000180020338     libucrt:fpctrl.obj
 0004:00001344       $pdata$_set_statfp         0000000180020344     libucrt:fpctrl.obj
 0004:00001350       $pdata$_IsNonwritableInCurrentImage 0000000180020350     LIBCMT:pesect.obj
 0004:0000135c       $pdata$_IsNonwritableInCurrentImage$filt$0 000000018002035c     LIBCMT:pesect.obj
 0005:00000140       $R000000                   0000000180021140     OposConstants.res
 0005:00000a80       $R000940                   0000000180021a80     OposConstants.res
 0005:0001ad50       $R01AC10                   000000018003bd50     OposConstants.res
 0005:0001ad90       $R01AC50                   000000018003bd90     OposConstants.res
