 OPOSSpeechSynthesis

 Timestamp is 600f7be5 (Tue Jan 26 11:18:13 2021)

 Preferred load address is 0000000180000000

 Start         Length     Name                   Class
 0001:00000000 000000c0H .text$di                CODE
 0001:000000c0 00021380H .text$mn                CODE
 0001:00021440 00000040H .text$mn$00             CODE
 0001:00021480 000004b0H .text$x                 CODE
 0001:00021930 00000078H .text$yd                CODE
 0002:00000000 00000618H .idata$5                DATA
 0002:00000618 00000028H .00cfg                  DATA
 0002:00000640 00000008H .CRT$XCA                DATA
 0002:00000648 00000008H .CRT$XCL                DATA
 0002:00000650 00000020H .CRT$XCU                DATA
 0002:00000670 00000008H .CRT$XCZ                DATA
 0002:00000678 00000008H .CRT$XIA                DATA
 0002:00000680 00000020H .CRT$XIC                DATA
 0002:000006a0 00000008H .CRT$XIZ                DATA
 0002:000006a8 00000008H .CRT$XLA                DATA
 0002:000006b0 00000008H .CRT$XLZ                DATA
 0002:000006b8 00000008H .CRT$XPA                DATA
 0002:000006c0 00000010H .CRT$XPX                DATA
 0002:000006d0 00000008H .CRT$XPXA               DATA
 0002:000006d8 00000008H .CRT$XPZ                DATA
 0002:000006e0 00000008H .CRT$XTA                DATA
 0002:000006e8 00000008H .CRT$XTZ                DATA
 0002:000006f0 00000000H .gehcont$y              DATA
 0002:000006f0 00000000H .gfids$y                DATA
 0002:000006f0 0000a890H .rdata                  DATA
 0002:0000af80 00000000H .rdata$CastGuardVftablesA DATA
 0002:0000af80 00000000H .rdata$CastGuardVftablesC DATA
 0002:0000af80 00000028H .rdata$T                DATA
 0002:0000afa8 00000274H .rdata$r                DATA
 0002:0000b21c 0000040cH .rdata$zzzdbg           DATA
 0002:0000b628 00000008H .rtc$IAA                DATA
 0002:0000b630 00000008H .rtc$IZZ                DATA
 0002:0000b638 00000008H .rtc$TAA                DATA
 0002:0000b640 00000008H .rtc$TZZ                DATA
 0002:0000b648 00000004H .tls                    DATA
 0002:0000b64c 00000004H .tls$                   DATA
 0002:0000b650 00000008H .tls$ZZZ                DATA
 0002:0000b658 000016c8H .xdata                  DATA
 0002:0000cd20 00000150H .xdata$x                DATA
 0002:0000ce70 00000008H ATL$__a                 DATA
 0002:0000ce78 00000008H ATL$__z                 DATA
 0002:0000ce80 000000b0H .edata                  DATA
 0002:0000cf30 00000078H .idata$2                DATA
 0002:0000cfa8 00000018H .idata$3                DATA
 0002:0000cfc0 00000618H .idata$4                DATA
 0002:0000d5d8 00000c2aH .idata$6                DATA
 0003:00000000 00000d78H .data                   DATA
 0003:00000d78 000000c8H .data$r                 DATA
 0003:00000e40 0000141cH .bss                    DATA
 0004:00000000 00001e84H .pdata                  DATA
 0005:00000000 00000094H _RDATA                  DATA
 0006:00000000 00000220H .rsrc$01                DATA
 0006:00000220 00003e28H .rsrc$02                DATA

  Address         Publics by Value              Rva+Base               Lib:Object

 0000:00000000       ___safe_se_handler_table   0000000000000000     <absolute>
 0000:00000000       __guard_longjmp_table      0000000000000000     <absolute>
 0000:00000000       __x64_code_ranges_to_entry_points 0000000000000000     <absolute>
 0000:00000000       __arm64x_redirection_metadata 0000000000000000     <absolute>
 0000:00000000       __guard_iat_table          0000000000000000     <absolute>
 0000:00000000       __guard_fids_count         0000000000000000     <absolute>
 0000:00000000       __arm64x_extra_rfe_table   0000000000000000     <absolute>
 0000:00000000       __guard_iat_count          0000000000000000     <absolute>
 0000:00000000       __guard_longjmp_count      0000000000000000     <absolute>
 0000:00000000       __dynamic_value_reloc_table 0000000000000000     <absolute>
 0000:00000000       __x64_code_ranges_to_entry_points_count 0000000000000000     <absolute>
 0000:00000000       __hybrid_code_map          0000000000000000     <absolute>
 0000:00000000       __hybrid_auxiliary_iat     0000000000000000     <absolute>
 0000:00000000       __volatile_metadata        0000000000000000     <absolute>
 0000:00000000       __arm64x_extra_rfe_table_size 0000000000000000     <absolute>
 0000:00000000       ___safe_se_handler_count   0000000000000000     <absolute>
 0000:00000000       __AbsoluteZero             0000000000000000     <absolute>
 0000:00000000       __guard_eh_cont_count      0000000000000000     <absolute>
 0000:00000000       __guard_fids_table         0000000000000000     <absolute>
 0000:00000000       __arm64x_redirection_metadata_count 0000000000000000     <absolute>
 0000:00000000       __enclave_config           0000000000000000     <absolute>
 0000:00000000       __guard_eh_cont_table      0000000000000000     <absolute>
 0000:00000000       __arm64x_native_entrypoint 0000000000000000     <absolute>
 0000:00000000       __hybrid_code_map_count    0000000000000000     <absolute>
 0000:00000100       __guard_flags              0000000000000100     <absolute>
 0000:00000000       __ImageBase                0000000180000000     <linker-defined>
 0001:000000c0       ?DupWide@_CW@@AEAAXXZ      00000001800010c0 f   CWString.obj
 0001:000000e8       ?cw_dup@@YAXPEBDAEAHAEAPEA_W1@Z 00000001800010e8 f   CWString.obj
 0001:000001c8       ?cw_memcpy@@YAHPEA_WPEBDH@Z 00000001800011c8 f   CWString.obj
 0001:00000214       ?cw_strcpy@@YAHPEA_WPEBD@Z 0000000180001214 f   CWString.obj
 0001:00000228       ??0CAtlComModule@ATL@@QEAA@XZ 0000000180001228 f i OposVariant.obj
 0001:000002a8       ??0CAtlWinModule@ATL@@QEAA@XZ 00000001800012a8 f i OposVariant.obj
 0001:00000314       ??0OposDispParms@@QEAA@PEAVOposVariant@@H@Z 0000000180001314 f   OposVariant.obj
 0001:000003bc       ??1OposDispParms@@QEAA@XZ  00000001800013bc f   OposVariant.obj
 0001:000003d4       ??_Estringdispid@CComTypeInfoHolder@ATL@@QEAAPEAXI@Z 00000001800013d4 f i OposVariant.obj
 0001:00000478       ?AtlWinModuleTerm@ATL@@YAJPEAU_ATL_WIN_MODULE70@1@PEAUHINSTANCE__@@@Z 0000000180001478 f i OposVariant.obj
 0001:00000528       ?ChangeBSTR@OposVariant@@QEAAXPEAPEA_WAEAJ@Z 0000000180001528 f   OposVariant.obj
 0001:00000588       ?ChangeLONG@OposVariant@@QEAAXPEAJAEAJ@Z 0000000180001588 f   OposVariant.obj
 0001:000005e4       ?GetLONG@OposVariant@@QEAAJXZ 00000001800015e4 f   OposVariant.obj
 0001:00000608       ?SetBSTR@OposVariant@@QEAAXPEA_WAEAJ@Z 0000000180001608 f   OposVariant.obj
 0001:00000648       ?SetBSTR_Copy@OposVariant@@QEAAXPEA_WAEAJ@Z 0000000180001648 f   OposVariant.obj
 0001:000006b8       ?SetBSTR_InOutPtr@OposVariant@@QEAA_NPEAPEA_WAEAJ@Z 00000001800016b8 f   OposVariant.obj
 0001:00000708       ?SetDispatch_Ptr@OposVariant@@QEAAXPEAUIDispatch@@AEAJ@Z 0000000180001708 f   OposVariant.obj
 0001:00000760       ?SetLONG@OposVariant@@QEAAXJ@Z 0000000180001760 f   OposVariant.obj
 0001:00000790       ?SetLONG_Ptr@OposVariant@@QEAAXPEAJAEAJ@Z 0000000180001790 f   OposVariant.obj
 0001:000007dc       ?SetString@OposVariant@@QEAAXPEB_WAEAJ@Z 00000001800017dc f   OposVariant.obj
 0001:00000840       ?SetVARIANT_BOOL@OposVariant@@QEAAXF@Z 0000000180001840 f   OposVariant.obj
 0001:00000878       ?Term@CAtlComModule@ATL@@QEAAXXZ 0000000180001878 f i OposVariant.obj
 0001:000008e8       ?_AtlInitializeCriticalSectionEx@ATL@@YAHPEAU_RTL_CRITICAL_SECTION@@KK@Z 00000001800018e8 f i OposVariant.obj
 0001:000008f0       ?_AtlRaiseException@ATL@@YAXKK@Z 00000001800018f0 f i OposVariant.obj
 0001:00000900       ?GetWindowProc@?$CWindowImplBaseT@VCWindow@ATL@@V?$CWinTraits@$0FGAAAAAA@$0A@@2@@ATL@@UEAAP6A_JPEAUHWND__@@I_K_J@ZXZ 0000000180001900 f i SpeechSynthesis.obj
 0001:00000908       ?StartWindowProc@?$CWindowImplBaseT@VCWindow@ATL@@V?$CWinTraits@$0FGAAAAAA@$0A@@2@@ATL@@SA_JPEAUHWND__@@I_K_J@Z 0000000180001908 f i SpeechSynthesis.obj
 0001:000009cc       ?ObjectMain@CComObjectRootBase@ATL@@SAX_N@Z 00000001800019cc f i SpeechSynthesis.obj
 0001:000009cc       ?OnFinalMessage@?$CWindowImplBaseT@VCWindow@ATL@@V?$CWinTraits@$0FGAAAAAA@$0A@@2@@ATL@@UEAAXPEAUHWND__@@@Z 00000001800019cc f i SpeechSynthesis.obj
 0001:000009cc       _guard_check_icall_nop     00000001800019cc f i LIBCMT:guard_support.obj
 0001:000009d0       ?GetTypeInfoCount@?$IDispatchImpl@UIOPOSSpeechSynthesis@@$1?IID_IOPOSSpeechSynthesis@@3U_GUID@@B$1?LIBID_OposSpeechSynthesis_CCO@@3U3@B$00$0A@VCComTypeInfoHolder@ATL@@@ATL@@UEAAJPEAI@Z 00000001800019d0 f i SpeechSynthesis.obj
 0001:000009e4       ?GetTypeInfo@?$IDispatchImpl@UIOPOSSpeechSynthesis@@$1?IID_IOPOSSpeechSynthesis@@3U_GUID@@B$1?LIBID_OposSpeechSynthesis_CCO@@3U3@B$00$0A@VCComTypeInfoHolder@ATL@@@ATL@@UEAAJIKPEAPEAUITypeInfo@@@Z 00000001800019e4 f i SpeechSynthesis.obj
 0001:00000a48       ?GetIDsOfNames@?$IDispatchImpl@UIOPOSSpeechSynthesis@@$1?IID_IOPOSSpeechSynthesis@@3U_GUID@@B$1?LIBID_OposSpeechSynthesis_CCO@@3U3@B$00$0A@VCComTypeInfoHolder@ATL@@@ATL@@UEAAJAEBU_GUID@@PEAPEA_WIKPEAJ@Z 0000000180001a48 f i SpeechSynthesis.obj
 0001:00000a54       ?Invoke@?$IDispatchImpl@UIOPOSSpeechSynthesis@@$1?IID_IOPOSSpeechSynthesis@@3U_GUID@@B$1?LIBID_OposSpeechSynthesis_CCO@@3U3@B$00$0A@VCComTypeInfoHolder@ATL@@@ATL@@UEAAJJAEBU_GUID@@KGPEAUtagDISPPARAMS@@PEAUtagVARIANT@@PEAUtagEXCEPINFO@@PEAI@Z 0000000180001a54 f i SpeechSynthesis.obj
 0001:00000ae4       ?CreateControlWindow@?$CComControl@VCOPOSSpeechSynthesis@@V?$CWindowImpl@VCOPOSSpeechSynthesis@@VCWindow@ATL@@V?$CWinTraits@$0FGAAAAAA@$0A@@3@@ATL@@@ATL@@UEAAPEAUHWND__@@PEAU3@AEAUtagRECT@@@Z 0000000180001ae4 f i SpeechSynthesis.obj
 0001:00000b1c       ?ControlQueryInterface@?$CComControl@VCOPOSSpeechSynthesis@@V?$CWindowImpl@VCOPOSSpeechSynthesis@@VCWindow@ATL@@V?$CWinTraits@$0FGAAAAAA@$0A@@3@@ATL@@@ATL@@UEAAJAEBU_GUID@@PEAPEAX@Z 0000000180001b1c f i SpeechSynthesis.obj
 0001:00000b30       ?GetUserClassID@?$IOleObjectImpl@VCOPOSSpeechSynthesis@@@ATL@@UEAAJPEAU_GUID@@@Z 0000000180001b30 f i SpeechSynthesis.obj
 0001:00000b30       ?GetClassID@?$IPersistStreamInitImpl@VCOPOSSpeechSynthesis@@@ATL@@UEAAJPEAU_GUID@@@Z 0000000180001b30 f i SpeechSynthesis.obj
 0001:00000b30       ?GetClassID@?$IPersistStorageImpl@VCOPOSSpeechSynthesis@@@ATL@@UEAAJPEAU_GUID@@@Z 0000000180001b30 f i SpeechSynthesis.obj
 0001:00000b4c       ?IsDirty@?$IPersistStreamInitImpl@VCOPOSSpeechSynthesis@@@ATL@@UEAAJXZ 0000000180001b4c f i SpeechSynthesis.obj
 0001:00000b68       ?Load@?$IPersistStreamInitImpl@VCOPOSSpeechSynthesis@@@ATL@@UEAAJPEAUIStream@@@Z 0000000180001b68 f i SpeechSynthesis.obj
 0001:00000b80       ?Save@?$IPersistStreamInitImpl@VCOPOSSpeechSynthesis@@@ATL@@UEAAJPEAUIStream@@H@Z 0000000180001b80 f i SpeechSynthesis.obj
 0001:00000b98       ?GetSizeMax@?$IPersistStreamInitImpl@VCOPOSSpeechSynthesis@@@ATL@@UEAAJPEAT_ULARGE_INTEGER@@@Z 0000000180001b98 f i SpeechSynthesis.obj
 0001:00000dc4       ?InitNew@?$IPersistStreamInitImpl@VCOPOSSpeechSynthesis@@@ATL@@UEAAJXZ 0000000180001dc4 f i SpeechSynthesis.obj
 0001:00000ddc       ?GetColorSet@?$IViewObjectExImpl@VCOPOSSpeechSynthesis@@@ATL@@UEAAJKJPEAXPEAUtagDVTARGETDEVICE@@PEAUHDC__@@PEAPEAUtagLOGPALETTE@@@Z 0000000180001ddc f i SpeechSynthesis.obj
 0001:00000ddc       ?GetControlInfo@?$IOleControlImpl@VCOPOSSpeechSynthesis@@@ATL@@UEAAJPEAUtagCONTROLINFO@@@Z 0000000180001ddc f i SpeechSynthesis.obj
 0001:00000ddc       ?Unfreeze@?$IViewObjectExImpl@VCOPOSSpeechSynthesis@@@ATL@@UEAAJK@Z 0000000180001ddc f i SpeechSynthesis.obj
 0001:00000ddc       ?GetCanonicalFormatEtc@?$IDataObjectImpl@VCOPOSSpeechSynthesis@@@ATL@@UEAAJPEAUtagFORMATETC@@0@Z 0000000180001ddc f i SpeechSynthesis.obj
 0001:00000ddc       ?SODataDummy@COPOSSpeechSynthesis@@MEAAJJ@Z 0000000180001ddc f i SpeechSynthesis.obj
 0001:00000ddc       ?SetData@?$IDataObjectImpl@VCOPOSSpeechSynthesis@@@ATL@@UEAAJPEAUtagFORMATETC@@PEAUtagSTGMEDIUM@@H@Z 0000000180001ddc f i SpeechSynthesis.obj
 0001:00000ddc       ?InitFromData@?$IOleObjectImpl@VCOPOSSpeechSynthesis@@@ATL@@UEAAJPEAUIDataObject@@HK@Z 0000000180001ddc f i SpeechSynthesis.obj
 0001:00000ddc       ?Freeze@?$IViewObjectExImpl@VCOPOSSpeechSynthesis@@@ATL@@UEAAJKJPEAXPEAK@Z 0000000180001ddc f i SpeechSynthesis.obj
 0001:00000ddc       ?ContextSensitiveHelp@?$IOleInPlaceActiveObjectImpl@VCOPOSSpeechSynthesis@@@ATL@@UEAAJH@Z 0000000180001ddc f i SpeechSynthesis.obj
 0001:00000ddc       ?GetDropTarget@?$IOleInPlaceObjectWindowlessImpl@VCOPOSSpeechSynthesis@@@ATL@@UEAAJPEAPEAUIDropTarget@@@Z 0000000180001ddc f i SpeechSynthesis.obj
 0001:00000ddc       ?EnumFormatEtc@?$IDataObjectImpl@VCOPOSSpeechSynthesis@@@ATL@@UEAAJKPEAPEAUIEnumFORMATETC@@@Z 0000000180001ddc f i SpeechSynthesis.obj
 0001:00000ddc       ?GetDataHere@?$IDataObjectImpl@VCOPOSSpeechSynthesis@@@ATL@@UEAAJPEAUtagFORMATETC@@PEAUtagSTGMEDIUM@@@Z 0000000180001ddc f i SpeechSynthesis.obj
 0001:00000ddc       ?OnMnemonic@?$IOleControlImpl@VCOPOSSpeechSynthesis@@@ATL@@UEAAJPEAUtagMSG@@@Z 0000000180001ddc f i SpeechSynthesis.obj
 0001:00000ddc       ?QueryInterface@CRegObject@ATL@@UEAAJAEBU_GUID@@PEAPEAX@Z 0000000180001ddc f i SpeechSynthesis.obj
 0001:00000ddc       ?SetColorScheme@?$IOleObjectImpl@VCOPOSSpeechSynthesis@@@ATL@@UEAAJPEAUtagLOGPALETTE@@@Z 0000000180001ddc f i SpeechSynthesis.obj
 0001:00000ddc       ?ReactivateAndUndo@?$IOleInPlaceObjectWindowlessImpl@VCOPOSSpeechSynthesis@@@ATL@@UEAAJXZ 0000000180001ddc f i SpeechSynthesis.obj
 0001:00000ddc       ?GetRect@?$IViewObjectExImpl@VCOPOSSpeechSynthesis@@@ATL@@UEAAJKPEAU_RECTL@@@Z 0000000180001ddc f i SpeechSynthesis.obj
 0001:00000ddc       ?SetMoniker@?$IOleObjectImpl@VCOPOSSpeechSynthesis@@@ATL@@UEAAJKPEAUIMoniker@@@Z 0000000180001ddc f i SpeechSynthesis.obj
 0001:00000ddc       ?ContextSensitiveHelp@?$IOleInPlaceObjectWindowlessImpl@VCOPOSSpeechSynthesis@@@ATL@@UEAAJH@Z 0000000180001ddc f i SpeechSynthesis.obj
 0001:00000ddc       ?QueryGetData@?$IDataObjectImpl@VCOPOSSpeechSynthesis@@@ATL@@UEAAJPEAUtagFORMATETC@@@Z 0000000180001ddc f i SpeechSynthesis.obj
 0001:00000ddc       ?GetMoniker@?$IOleObjectImpl@VCOPOSSpeechSynthesis@@@ATL@@UEAAJKKPEAPEAUIMoniker@@@Z 0000000180001ddc f i SpeechSynthesis.obj
 0001:00000ddc       ?GetClipboardData@?$IOleObjectImpl@VCOPOSSpeechSynthesis@@@ATL@@UEAAJKPEAPEAUIDataObject@@@Z 0000000180001ddc f i SpeechSynthesis.obj
 0001:00000de4       ?GetCategoryMap@CComObjectRootBase@ATL@@SAPEBU_ATL_CATMAP_ENTRY@2@XZ 0000000180001de4 f i SpeechSynthesis.obj
 0001:00000de4       ?Release@CRegObject@ATL@@UEAAKXZ 0000000180001de4 f i SpeechSynthesis.obj
 0001:00000de4       ?EnableModeless@?$IOleInPlaceActiveObjectImpl@VCOPOSSpeechSynthesis@@@ATL@@UEAAJH@Z 0000000180001de4 f i SpeechSynthesis.obj
 0001:00000de4       ?ResizeBorder@?$IOleInPlaceActiveObjectImpl@VCOPOSSpeechSynthesis@@@ATL@@UEAAJPEBUtagRECT@@PEAUIOleInPlaceUIWindow@@H@Z 0000000180001de4 f i SpeechSynthesis.obj
 0001:00000de4       ?SaveCompleted@?$IPersistStorageImpl@VCOPOSSpeechSynthesis@@@ATL@@UEAAJPEAUIStorage@@@Z 0000000180001de4 f i SpeechSynthesis.obj
 0001:00000de4       ?OnFrameWindowActivate@?$IOleInPlaceActiveObjectImpl@VCOPOSSpeechSynthesis@@@ATL@@UEAAJH@Z 0000000180001de4 f i SpeechSynthesis.obj
 0001:00000de4       ?Update@?$IOleObjectImpl@VCOPOSSpeechSynthesis@@@ATL@@UEAAJXZ 0000000180001de4 f i SpeechSynthesis.obj
 0001:00000de4       ?OnAmbientPropertyChange@?$IOleControlImpl@VCOPOSSpeechSynthesis@@@ATL@@UEAAJJ@Z 0000000180001de4 f i SpeechSynthesis.obj
 0001:00000de4       ?SetHostNames@?$IOleObjectImpl@VCOPOSSpeechSynthesis@@@ATL@@UEAAJPEB_W0@Z 0000000180001de4 f i SpeechSynthesis.obj
 0001:00000de4       ?IsUpToDate@?$IOleObjectImpl@VCOPOSSpeechSynthesis@@@ATL@@UEAAJXZ 0000000180001de4 f i SpeechSynthesis.obj
 0001:00000de4       ?GetObjectDescription@?$CComCoClass@VCOPOSSpeechSynthesis@@$1?CLSID_OPOSSpeechSynthesis@@3U_GUID@@B@ATL@@SAPEB_WXZ 0000000180001de4 f i SpeechSynthesis.obj
 0001:00000de4       ?HandsOffStorage@?$IPersistStorageImpl@VCOPOSSpeechSynthesis@@@ATL@@UEAAJXZ 0000000180001de4 f i SpeechSynthesis.obj
 0001:00000de8       ?SetClientSite@?$IOleObjectImpl@VCOPOSSpeechSynthesis@@@ATL@@UEAAJPEAUIOleClientSite@@@Z 0000000180001de8 f i SpeechSynthesis.obj
 0001:00000e04       ?GetClientSite@?$IOleObjectImpl@VCOPOSSpeechSynthesis@@@ATL@@UEAAJPEAPEAUIOleClientSite@@@Z 0000000180001e04 f i SpeechSynthesis.obj
 0001:00000e4c       ?Close@?$IOleObjectImpl@VCOPOSSpeechSynthesis@@@ATL@@UEAAJK@Z 0000000180001e4c f i SpeechSynthesis.obj
 0001:00000e68       ?DoVerb@?$IOleObjectImpl@VCOPOSSpeechSynthesis@@@ATL@@UEAAJJPEAUtagMSG@@PEAUIOleClientSite@@JPEAUHWND__@@PEBUtagRECT@@@Z 0000000180001e68 f i SpeechSynthesis.obj
 0001:0000100c       ?EnumVerbs@?$IOleObjectImpl@VCOPOSSpeechSynthesis@@@ATL@@UEAAJPEAPEAUIEnumOLEVERB@@@Z 000000018000200c f i SpeechSynthesis.obj
 0001:00001028       ?GetUserType@?$IOleObjectImpl@VCOPOSSpeechSynthesis@@@ATL@@UEAAJKPEAPEA_W@Z 0000000180002028 f i SpeechSynthesis.obj
 0001:00001038       ?SetExtent@?$IOleObjectImpl@VCOPOSSpeechSynthesis@@@ATL@@UEAAJKPEAUtagSIZE@@@Z 0000000180002038 f i SpeechSynthesis.obj
 0001:00001054       ?GetExtent@?$IOleObjectImpl@VCOPOSSpeechSynthesis@@@ATL@@UEAAJKPEAUtagSIZE@@@Z 0000000180002054 f i SpeechSynthesis.obj
 0001:00001084       ?Advise@?$IOleObjectImpl@VCOPOSSpeechSynthesis@@@ATL@@UEAAJPEAUIAdviseSink@@PEAK@Z 0000000180002084 f i SpeechSynthesis.obj
 0001:000010e0       ?Unadvise@?$IOleObjectImpl@VCOPOSSpeechSynthesis@@@ATL@@UEAAJK@Z 00000001800020e0 f i SpeechSynthesis.obj
 0001:00001118       ?EnumAdvise@?$IOleObjectImpl@VCOPOSSpeechSynthesis@@@ATL@@UEAAJPEAPEAUIEnumSTATDATA@@@Z 0000000180002118 f i SpeechSynthesis.obj
 0001:00001160       ?GetMiscStatus@?$IOleObjectImpl@VCOPOSSpeechSynthesis@@@ATL@@UEAAJKPEAK@Z 0000000180002160 f i SpeechSynthesis.obj
 0001:00001170       ?GetWindow@?$IOleInPlaceActiveObjectImpl@VCOPOSSpeechSynthesis@@@ATL@@UEAAJPEAPEAUHWND__@@@Z 0000000180002170 f i SpeechSynthesis.obj
 0001:000011c4       ?TranslateAcceleratorW@?$IOleInPlaceActiveObjectImpl@VCOPOSSpeechSynthesis@@@ATL@@UEAAJPEAUtagMSG@@@Z 00000001800021c4 f i SpeechSynthesis.obj
 0001:000012b8       ?OnDocWindowActivate@?$IOleInPlaceActiveObjectImpl@VCOPOSSpeechSynthesis@@@ATL@@UEAAJH@Z 00000001800022b8 f i SpeechSynthesis.obj
 0001:000012e4       ?Draw@?$IViewObjectExImpl@VCOPOSSpeechSynthesis@@@ATL@@UEAAJKJPEAXPEAUtagDVTARGETDEVICE@@PEAUHDC__@@2PEBU_RECTL@@3P6AH_K@Z4@Z 00000001800022e4 f i SpeechSynthesis.obj
 0001:00001348       ?SetAdvise@?$IViewObjectExImpl@VCOPOSSpeechSynthesis@@@ATL@@UEAAJKKPEAUIAdviseSink@@@Z 0000000180002348 f i SpeechSynthesis.obj
 0001:0000139c       ?GetAdvise@?$IViewObjectExImpl@VCOPOSSpeechSynthesis@@@ATL@@UEAAJPEAK0PEAPEAUIAdviseSink@@@Z 000000018000239c f i SpeechSynthesis.obj
 0001:000013d8       ?GetExtent@?$IViewObjectExImpl@VCOPOSSpeechSynthesis@@@ATL@@UEAAJKJPEAUtagDVTARGETDEVICE@@PEAUtagSIZE@@@Z 00000001800023d8 f i SpeechSynthesis.obj
 0001:00001408       ?GetViewStatus@?$IViewObjectExImpl@VCOPOSSpeechSynthesis@@@ATL@@UEAAJPEAK@Z 0000000180002408 f i SpeechSynthesis.obj
 0001:0000141c       ?QueryHitPoint@?$IViewObjectExImpl@VCOPOSSpeechSynthesis@@@ATL@@UEAAJKPEBUtagRECT@@UtagPOINT@@JPEAK@Z 000000018000241c f i SpeechSynthesis.obj
 0001:00001460       ?QueryHitRect@?$IViewObjectExImpl@VCOPOSSpeechSynthesis@@@ATL@@UEAAJKPEBUtagRECT@@0JPEAK@Z 0000000180002460 f i SpeechSynthesis.obj
 0001:000014c8       ?GetNaturalExtent@?$IViewObjectExImpl@VCOPOSSpeechSynthesis@@@ATL@@UEAAJKJPEAUtagDVTARGETDEVICE@@PEAUHDC__@@PEAUtagExtentInfo@@PEAUtagSIZE@@@Z 00000001800024c8 f i SpeechSynthesis.obj
 0001:00001510       ?GetWindow@?$IOleInPlaceObjectWindowlessImpl@VCOPOSSpeechSynthesis@@@ATL@@UEAAJPEAPEAUHWND__@@@Z 0000000180002510 f i SpeechSynthesis.obj
 0001:00001564       ?InPlaceDeactivate@?$IOleInPlaceObjectWindowlessImpl@VCOPOSSpeechSynthesis@@@ATL@@UEAAJXZ 0000000180002564 f i SpeechSynthesis.obj
 0001:00001580       ?UIDeactivate@?$IOleInPlaceObjectWindowlessImpl@VCOPOSSpeechSynthesis@@@ATL@@UEAAJXZ 0000000180002580 f i SpeechSynthesis.obj
 0001:0000159c       ?SetObjectRects@?$IOleInPlaceObjectWindowlessImpl@VCOPOSSpeechSynthesis@@@ATL@@UEAAJPEBUtagRECT@@0@Z 000000018000259c f i SpeechSynthesis.obj
 0001:000015b8       ?OnWindowMessage@?$IOleInPlaceObjectWindowlessImpl@VCOPOSSpeechSynthesis@@@ATL@@UEAAJI_K_JPEA_J@Z 00000001800025b8 f i SpeechSynthesis.obj
 0001:00001680       ?EnumConnectionPoints@?$IConnectionPointContainerImpl@VCOPOSSpeechSynthesis@@@ATL@@UEAAJPEAPEAUIEnumConnectionPoints@@@Z 0000000180002680 f i SpeechSynthesis.obj
 0001:000018cc       ?FindConnectionPoint@?$IConnectionPointContainerImpl@VCOPOSSpeechSynthesis@@@ATL@@UEAAJAEBU_GUID@@PEAPEAUIConnectionPoint@@@Z 00000001800028cc f i SpeechSynthesis.obj
 0001:0000199c       ?IsDirty@?$IPersistStorageImpl@VCOPOSSpeechSynthesis@@@ATL@@UEAAJXZ 000000018000299c f i SpeechSynthesis.obj
 0001:000019dc       ?InitNew@?$IPersistStorageImpl@VCOPOSSpeechSynthesis@@@ATL@@UEAAJPEAUIStorage@@@Z 00000001800029dc f i SpeechSynthesis.obj
 0001:00001a1c       ?Load@?$IPersistStorageImpl@VCOPOSSpeechSynthesis@@@ATL@@UEAAJPEAUIStorage@@@Z 0000000180002a1c f i SpeechSynthesis.obj
 0001:00001abc       ?Save@?$IPersistStorageImpl@VCOPOSSpeechSynthesis@@@ATL@@UEAAJPEAUIStorage@@H@Z 0000000180002abc f i SpeechSynthesis.obj
 0001:00001b6c       ?GetPages@?$ISpecifyPropertyPagesImpl@VCOPOSSpeechSynthesis@@@ATL@@UEAAJPEAUtagCAUUID@@@Z 0000000180002b6c f i SpeechSynthesis.obj
 0001:00001b78       ?QuickActivate@?$IQuickActivateImpl@VCOPOSSpeechSynthesis@@@ATL@@UEAAJPEAUtagQACONTAINER@@PEAUtagQACONTROL@@@Z 0000000180002b78 f i SpeechSynthesis.obj
 0001:00001b94       ?SetContentExtent@?$IQuickActivateImpl@VCOPOSSpeechSynthesis@@@ATL@@UEAAJPEAUtagSIZE@@@Z 0000000180002b94 f i SpeechSynthesis.obj
 0001:00001bc8       ?GetContentExtent@?$IQuickActivateImpl@VCOPOSSpeechSynthesis@@@ATL@@UEAAJPEAUtagSIZE@@@Z 0000000180002bc8 f i SpeechSynthesis.obj
 0001:00001c00       ?GetData@?$IDataObjectImpl@VCOPOSSpeechSynthesis@@@ATL@@UEAAJPEAUtagFORMATETC@@PEAUtagSTGMEDIUM@@@Z 0000000180002c00 f i SpeechSynthesis.obj
 0001:00001c1c       ?DAdvise@?$IDataObjectImpl@VCOPOSSpeechSynthesis@@@ATL@@UEAAJPEAUtagFORMATETC@@KPEAUIAdviseSink@@PEAK@Z 0000000180002c1c f i SpeechSynthesis.obj
 0001:00001ca4       ?DUnadvise@?$IDataObjectImpl@VCOPOSSpeechSynthesis@@@ATL@@UEAAJK@Z 0000000180002ca4 f i SpeechSynthesis.obj
 0001:00001cd0       ?EnumDAdvise@?$IDataObjectImpl@VCOPOSSpeechSynthesis@@@ATL@@UEAAJPEAPEAUIEnumSTATDATA@@@Z 0000000180002cd0 f i SpeechSynthesis.obj
 0001:00001d0c       ?GetClassInfoW@?$IProvideClassInfo2Impl@$1?CLSID_OPOSSpeechSynthesis@@3U_GUID@@B$1?DIID__IOPOSSpeechSynthesisEvents@@3U2@B$1?LIBID_OposSpeechSynthesis_CCO@@3U2@B$00$0A@VCComTypeInfoHolder@ATL@@@ATL@@UEAAJPEAPEAUITypeInfo@@@Z 0000000180002d0c f i SpeechSynthesis.obj
 0001:00001d64       ?GetGUID@?$IProvideClassInfo2Impl@$1?CLSID_OPOSSpeechSynthesis@@3U_GUID@@B$1?DIID__IOPOSSpeechSynthesisEvents@@3U2@B$1?LIBID_OposSpeechSynthesis_CCO@@3U2@B$00$0A@VCComTypeInfoHolder@ATL@@@ATL@@UEAAJKPEAU_GUID@@@Z 0000000180002d64 f i SpeechSynthesis.obj
 0001:00001d98       _get_startup_argv_mode     0000000180002d98 f i LIBCMT:argv_mode.obj
 0001:00001d98       ?FAccessAllowed@?$IObjectSafetyImpl@VCOPOSSpeechSynthesis@@$02@ATL@@MEAAHXZ 0000000180002d98 f i SpeechSynthesis.obj
 0001:00001d98       ?AddRef@CRegObject@ATL@@UEAAKXZ 0000000180002d98 f i SpeechSynthesis.obj
 0001:00001da0       ?GetInterfaceSafetyOptions@?$IObjectSafetyImpl@VCOPOSSpeechSynthesis@@$02@ATL@@UEAAJAEBU_GUID@@PEAK1@Z 0000000180002da0 f i SpeechSynthesis.obj
 0001:00001e34       ?SetInterfaceSafetyOptions@?$IObjectSafetyImpl@VCOPOSSpeechSynthesis@@$02@ATL@@UEAAJAEBU_GUID@@KK@Z 0000000180002e34 f i SpeechSynthesis.obj
 0001:00001ed8       ?_LocCPQueryInterface@?$IConnectionPointImpl@VCOPOSSpeechSynthesis@@$1?DIID__IOPOSSpeechSynthesisEvents@@3U_GUID@@BVCComDynamicUnkArray@ATL@@@ATL@@UEAAJAEBU_GUID@@PEAPEAX@Z 0000000180002ed8 f i SpeechSynthesis.obj
 0001:00001ed8       ?_LocCPQueryInterface@?$IConnectionPointImpl@VCOPOSSpeechSynthesis@@$1?IID_IPropertyNotifySink@@3U_GUID@@BVCComDynamicUnkArray@ATL@@@ATL@@UEAAJAEBU_GUID@@PEAPEAX@Z 0000000180002ed8 f i SpeechSynthesis.obj
 0001:00001f48       ?GetConnectionInterface@?$IConnectionPointImpl@VCOPOSSpeechSynthesis@@$1?IID_IPropertyNotifySink@@3U_GUID@@BVCComDynamicUnkArray@ATL@@@ATL@@UEAAJPEAU_GUID@@@Z 0000000180002f48 f i SpeechSynthesis.obj
 0001:00001f64       ?GetConnectionPointContainer@?$IConnectionPointImpl@VCOPOSSpeechSynthesis@@$1?IID_IPropertyNotifySink@@3U_GUID@@BVCComDynamicUnkArray@ATL@@@ATL@@UEAAJPEAPEAUIConnectionPointContainer@@@Z 0000000180002f64 f i SpeechSynthesis.obj
 0001:00001f84       ?Advise@?$IConnectionPointImpl@VCOPOSSpeechSynthesis@@$1?DIID__IOPOSSpeechSynthesisEvents@@3U_GUID@@BVCComDynamicUnkArray@ATL@@@ATL@@UEAAJPEAUIUnknown@@PEAK@Z 0000000180002f84 f i SpeechSynthesis.obj
 0001:00001f84       ?Advise@?$IConnectionPointImpl@VCOPOSSpeechSynthesis@@$1?IID_IPropertyNotifySink@@3U_GUID@@BVCComDynamicUnkArray@ATL@@@ATL@@UEAAJPEAUIUnknown@@PEAK@Z 0000000180002f84 f i SpeechSynthesis.obj
 0001:00002040       ?Unadvise@?$IConnectionPointImpl@VCOPOSSpeechSynthesis@@$1?IID_IPropertyNotifySink@@3U_GUID@@BVCComDynamicUnkArray@ATL@@@ATL@@UEAAJK@Z 0000000180003040 f i SpeechSynthesis.obj
 0001:00002040       ?Unadvise@?$IConnectionPointImpl@VCOPOSSpeechSynthesis@@$1?DIID__IOPOSSpeechSynthesisEvents@@3U_GUID@@BVCComDynamicUnkArray@ATL@@@ATL@@UEAAJK@Z 0000000180003040 f i SpeechSynthesis.obj
 0001:000020a8       ?EnumConnections@?$IConnectionPointImpl@VCOPOSSpeechSynthesis@@$1?DIID__IOPOSSpeechSynthesisEvents@@3U_GUID@@BVCComDynamicUnkArray@ATL@@@ATL@@UEAAJPEAPEAUIEnumConnections@@@Z 00000001800030a8 f i SpeechSynthesis.obj
 0001:000020a8       ?EnumConnections@?$IConnectionPointImpl@VCOPOSSpeechSynthesis@@$1?IID_IPropertyNotifySink@@3U_GUID@@BVCComDynamicUnkArray@ATL@@@ATL@@UEAAJPEAPEAUIEnumConnections@@@Z 00000001800030a8 f i SpeechSynthesis.obj
 0001:00002254       ?GetConnectionInterface@?$IConnectionPointImpl@VCOPOSSpeechSynthesis@@$1?DIID__IOPOSSpeechSynthesisEvents@@3U_GUID@@BVCComDynamicUnkArray@ATL@@@ATL@@UEAAJPEAU_GUID@@@Z 0000000180003254 f i SpeechSynthesis.obj
 0001:00002270       ?GetConnectionPointContainer@?$IConnectionPointImpl@VCOPOSSpeechSynthesis@@$1?DIID__IOPOSSpeechSynthesisEvents@@3U_GUID@@BVCComDynamicUnkArray@ATL@@@ATL@@UEAAJPEAPEAUIConnectionPointContainer@@@Z 0000000180003270 f i SpeechSynthesis.obj
 0001:00002290       ?UpdateRegistry@COPOSSpeechSynthesis@@SAJH@Z 0000000180003290 f i SpeechSynthesis.obj
 0001:000022a8       ?ProcessWindowMessage@COPOSSpeechSynthesis@@UEAAHPEAUHWND__@@I_K_JAEA_JK@Z 00000001800032a8 f i SpeechSynthesis.obj
 0001:00002330       ?SODirectIO@COPOSSpeechSynthesis@@MEAAJJPEAJPEAPEA_W@Z 0000000180003330 f i SpeechSynthesis.obj
 0001:000023a8       ?SOError@COPOSSpeechSynthesis@@MEAAJJJJPEAJ@Z 00000001800033a8 f i SpeechSynthesis.obj
 0001:00002430       ?SOOutputComplete@COPOSSpeechSynthesis@@MEAAJJ@Z 0000000180003430 f i SpeechSynthesis.obj
 0001:00002480       ?SOStatusUpdate@COPOSSpeechSynthesis@@MEAAJJ@Z 0000000180003480 f i SpeechSynthesis.obj
 0001:000024d0       ?Lock@CAtlModule@ATL@@UEAAJXZ 00000001800034d0 f i SpeechSynthesis.obj
 0001:000024e0       ?Unlock@CAtlModule@ATL@@UEAAJXZ 00000001800034e0 f i SpeechSynthesis.obj
 0001:000024ec       ?GetLockCount@CAtlModule@ATL@@UEAAJXZ 00000001800034ec f i SpeechSynthesis.obj
 0001:000024f0       ?GetGITPtr@CAtlModule@ATL@@UEAAJPEAPEAUIGlobalInterfaceTable@@@Z 00000001800034f0 f i SpeechSynthesis.obj
 0001:00002560       ?CreateInstance@?$CComCreator@V?$CComObjectCached@VCComClassFactory@ATL@@@ATL@@@ATL@@SAJPEAXAEBU_GUID@@PEAPEAX@Z 0000000180003560 f i SpeechSynthesis.obj
 0001:00002684       ?AddCommonRGSReplacements@?$CAtlModuleT@VCComModule@ATL@@@ATL@@UEAAJPEAUIRegistrarBase@@@Z 0000000180003684 f i SpeechSynthesis.obj
 0001:0000269c       ?CreateInstance@?$CComCreator2@V?$CComCreator@V?$CComObject@VCOPOSSpeechSynthesis@@@ATL@@@ATL@@V?$CComCreator@V?$CComAggObject@VCOPOSSpeechSynthesis@@@ATL@@@2@@ATL@@SAJPEAXAEBU_GUID@@PEAPEAX@Z 000000018000369c f i SpeechSynthesis.obj
 0001:000026ac       ?UpdateRegistryFromResourceD@CComModule@ATL@@UEAAJPEB_WHPEAU_ATL_REGMAP_ENTRY@2@@Z 00000001800036ac f i SpeechSynthesis.obj
 0001:000026ac       ?UpdateRegistryFromResourceD@CComModule@ATL@@UEAAJIHPEAU_ATL_REGMAP_ENTRY@2@@Z 00000001800036ac f i SpeechSynthesis.obj
 0001:000026b4       ?AddRef@?$CComObjectCached@VCComClassFactory@ATL@@@ATL@@UEAAKXZ 00000001800036b4 f i SpeechSynthesis.obj
 0001:000026e0       ?Release@?$CComObjectCached@VCComClassFactory@ATL@@@ATL@@UEAAKXZ 00000001800036e0 f i SpeechSynthesis.obj
 0001:00002720       ?QueryInterface@?$CComObjectCached@VCComClassFactory@ATL@@@ATL@@UEAAJAEBU_GUID@@PEAPEAX@Z 0000000180003720 f i SpeechSynthesis.obj
 0001:00002734       ?UpdateRegistryFromResource@CComModule@ATL@@UEAAJPEB_WHPEAU_ATL_REGMAP_ENTRY@2@@Z 0000000180003734 f i SpeechSynthesis.obj
 0001:0000273c       ?UpdateRegistryFromResource@CComModule@ATL@@UEAAJIHPEAU_ATL_REGMAP_ENTRY@2@@Z 000000018000373c f i SpeechSynthesis.obj
 0001:00002744       ??_E?$CComObjectCached@VCComClassFactory@ATL@@@ATL@@UEAAPEAXI@Z 0000000180003744 f i SpeechSynthesis.obj
 0001:00002744       ??_G?$CComObjectCached@VCComClassFactory@ATL@@@ATL@@UEAAPEAXI@Z 0000000180003744 f i SpeechSynthesis.obj
 0001:0000279c       ??_ECComModule@ATL@@UEAAPEAXI@Z 000000018000379c f i SpeechSynthesis.obj
 0001:0000279c       ??_GCComModule@ATL@@UEAAPEAXI@Z 000000018000379c f i SpeechSynthesis.obj
 0001:000027dc       ?Next@?$CComEnumImpl@UIEnumConnectionPoints@@$1?_GUID_b196b285_bab4_101a_b69c_00aa00341d07@@3U__s_GUID@@BPEAUIConnectionPoint@@V?$_CopyInterface@UIConnectionPoint@@@ATL@@@ATL@@UEAAJKPEAPEAUIConnectionPoint@@PEAK@Z 00000001800037dc f i SpeechSynthesis.obj
 0001:000028a8       ?Skip@?$CComEnumImpl@UIEnumConnectionPoints@@$1?_GUID_b196b285_bab4_101a_b69c_00aa00341d07@@3U__s_GUID@@BPEAUIConnectionPoint@@V?$_CopyInterface@UIConnectionPoint@@@ATL@@@ATL@@UEAAJK@Z 00000001800038a8 f i SpeechSynthesis.obj
 0001:000028d4       ?Reset@?$CComEnumImpl@UIEnumConnectionPoints@@$1?_GUID_b196b285_bab4_101a_b69c_00aa00341d07@@3U__s_GUID@@BPEAUIConnectionPoint@@V?$_CopyInterface@UIConnectionPoint@@@ATL@@@ATL@@UEAAJXZ 00000001800038d4 f i SpeechSynthesis.obj
 0001:000028d4       ?Reset@?$CComEnumImpl@UIEnumConnections@@$1?_GUID_b196b287_bab4_101a_b69c_00aa00341d07@@3U__s_GUID@@BUtagCONNECTDATA@@V?$_Copy@UtagCONNECTDATA@@@ATL@@@ATL@@UEAAJXZ 00000001800038d4 f i SpeechSynthesis.obj
 0001:000028e0       ?Clone@?$CComEnumImpl@UIEnumConnectionPoints@@$1?_GUID_b196b285_bab4_101a_b69c_00aa00341d07@@3U__s_GUID@@BPEAUIConnectionPoint@@V?$_CopyInterface@UIConnectionPoint@@@ATL@@@ATL@@UEAAJPEAPEAUIEnumConnectionPoints@@@Z 00000001800038e0 f i SpeechSynthesis.obj
 0001:00002a0c       ?AddRef@?$CComObject@V?$CComEnum@UIEnumConnections@@$1?_GUID_b196b287_bab4_101a_b69c_00aa00341d07@@3U__s_GUID@@BUtagCONNECTDATA@@V?$_Copy@UtagCONNECTDATA@@@ATL@@VCComSingleThreadModel@6@@ATL@@@ATL@@UEAAKXZ 0000000180003a0c f i SpeechSynthesis.obj
 0001:00002a0c       ?AddRef@?$CComObject@V?$CComEnum@UIEnumConnectionPoints@@$1?_GUID_b196b285_bab4_101a_b69c_00aa00341d07@@3U__s_GUID@@BPEAUIConnectionPoint@@V?$_CopyInterface@UIConnectionPoint@@@ATL@@VCComSingleThreadModel@6@@ATL@@@ATL@@UEAAKXZ 0000000180003a0c f i SpeechSynthesis.obj
 0001:00002a18       ?Release@?$CComObject@V?$CComEnum@UIEnumConnectionPoints@@$1?_GUID_b196b285_bab4_101a_b69c_00aa00341d07@@3U__s_GUID@@BPEAUIConnectionPoint@@V?$_CopyInterface@UIConnectionPoint@@@ATL@@VCComSingleThreadModel@6@@ATL@@@ATL@@UEAAKXZ 0000000180003a18 f i SpeechSynthesis.obj
 0001:00002a18       ?Release@?$CComObject@V?$CComEnum@UIEnumConnections@@$1?_GUID_b196b287_bab4_101a_b69c_00aa00341d07@@3U__s_GUID@@BUtagCONNECTDATA@@V?$_Copy@UtagCONNECTDATA@@@ATL@@VCComSingleThreadModel@6@@ATL@@@ATL@@UEAAKXZ 0000000180003a18 f i SpeechSynthesis.obj
 0001:00002a6c       ?QueryInterface@?$CComObject@V?$CComEnum@UIEnumConnectionPoints@@$1?_GUID_b196b285_bab4_101a_b69c_00aa00341d07@@3U__s_GUID@@BPEAUIConnectionPoint@@V?$_CopyInterface@UIConnectionPoint@@@ATL@@VCComSingleThreadModel@6@@ATL@@@ATL@@UEAAJAEBU_GUID@@PEAPEAX@Z 0000000180003a6c f i SpeechSynthesis.obj
 0001:00002a80       ??_G?$CComObject@V?$CComEnum@UIEnumConnectionPoints@@$1?_GUID_b196b285_bab4_101a_b69c_00aa00341d07@@3U__s_GUID@@BPEAUIConnectionPoint@@V?$_CopyInterface@UIConnectionPoint@@@ATL@@VCComSingleThreadModel@6@@ATL@@@ATL@@UEAAPEAXI@Z 0000000180003a80 f i SpeechSynthesis.obj
 0001:00002a80       ??_E?$CComObject@V?$CComEnum@UIEnumConnectionPoints@@$1?_GUID_b196b285_bab4_101a_b69c_00aa00341d07@@3U__s_GUID@@BPEAUIConnectionPoint@@V?$_CopyInterface@UIConnectionPoint@@@ATL@@VCComSingleThreadModel@6@@ATL@@@ATL@@UEAAPEAXI@Z 0000000180003a80 f i SpeechSynthesis.obj
 0001:00002ad8       ?AddReplacement@CRegObject@ATL@@UEAAJPEB_W0@Z 0000000180003ad8 f i SpeechSynthesis.obj
 0001:00002b08       ?ClearReplacements@CRegObject@ATL@@UEAAJXZ 0000000180003b08 f i SpeechSynthesis.obj
 0001:00002b14       ??_GCRegObject@ATL@@UEAAPEAXI@Z 0000000180003b14 f i SpeechSynthesis.obj
 0001:00002b14       ??_ECRegObject@ATL@@UEAAPEAXI@Z 0000000180003b14 f i SpeechSynthesis.obj
 0001:00002b94       ?AddRef@?$CComAggObject@VCOPOSSpeechSynthesis@@@ATL@@UEAAKXZ 0000000180003b94 f i SpeechSynthesis.obj
 0001:00002ba0       ?Release@?$CComAggObject@VCOPOSSpeechSynthesis@@@ATL@@UEAAKXZ 0000000180003ba0 f i SpeechSynthesis.obj
 0001:00002bf4       ?QueryInterface@?$CComAggObject@VCOPOSSpeechSynthesis@@@ATL@@UEAAJAEBU_GUID@@PEAPEAX@Z 0000000180003bf4 f i SpeechSynthesis.obj
 0001:00002c54       ?AddRef@?$CComContainedObject@VCOPOSSpeechSynthesis@@@ATL@@UEAAKXZ 0000000180003c54 f i SpeechSynthesis.obj
 0001:00002c64       ?Release@?$CComContainedObject@VCOPOSSpeechSynthesis@@@ATL@@UEAAKXZ 0000000180003c64 f i SpeechSynthesis.obj
 0001:00002c74       ?QueryInterface@?$CComContainedObject@VCOPOSSpeechSynthesis@@@ATL@@UEAAJAEBU_GUID@@PEAPEAX@Z 0000000180003c74 f i SpeechSynthesis.obj
 0001:00002c84       ??_E?$CComAggObject@VCOPOSSpeechSynthesis@@@ATL@@UEAAPEAXI@Z 0000000180003c84 f i SpeechSynthesis.obj
 0001:00002c84       ??_G?$CComAggObject@VCOPOSSpeechSynthesis@@@ATL@@UEAAPEAXI@Z 0000000180003c84 f i SpeechSynthesis.obj
 0001:00002cdc       ?AddRef@?$CComObject@VCOPOSSpeechSynthesis@@@ATL@@UEAAKXZ 0000000180003cdc f i SpeechSynthesis.obj
 0001:00002cec       ?Release@?$CComObject@VCOPOSSpeechSynthesis@@@ATL@@UEAAKXZ 0000000180003cec f i SpeechSynthesis.obj
 0001:00002d44       ?QueryInterface@?$CComObject@VCOPOSSpeechSynthesis@@@ATL@@UEAAJAEBU_GUID@@PEAPEAX@Z 0000000180003d44 f i SpeechSynthesis.obj
 0001:00002d58       ?OnDrawAdvanced@CComControlBase@ATL@@UEAAJAEAUATL_DRAWINFO@@@Z 0000000180003d58 f i SpeechSynthesis.obj
 0001:00002ee4       ?Next@?$CComEnumImpl@UIEnumConnections@@$1?_GUID_b196b287_bab4_101a_b69c_00aa00341d07@@3U__s_GUID@@BUtagCONNECTDATA@@V?$_Copy@UtagCONNECTDATA@@@ATL@@@ATL@@UEAAJKPEAUtagCONNECTDATA@@PEAK@Z 0000000180003ee4 f i SpeechSynthesis.obj
 0001:00002fb8       ?Skip@?$CComEnumImpl@UIEnumConnections@@$1?_GUID_b196b287_bab4_101a_b69c_00aa00341d07@@3U__s_GUID@@BUtagCONNECTDATA@@V?$_Copy@UtagCONNECTDATA@@@ATL@@@ATL@@UEAAJK@Z 0000000180003fb8 f i SpeechSynthesis.obj
 0001:00002fe4       ?Clone@?$CComEnumImpl@UIEnumConnections@@$1?_GUID_b196b287_bab4_101a_b69c_00aa00341d07@@3U__s_GUID@@BUtagCONNECTDATA@@V?$_Copy@UtagCONNECTDATA@@@ATL@@@ATL@@UEAAJPEAPEAUIEnumConnections@@@Z 0000000180003fe4 f i SpeechSynthesis.obj
 0001:00003110       ?QueryInterface@?$CComObject@V?$CComEnum@UIEnumConnections@@$1?_GUID_b196b287_bab4_101a_b69c_00aa00341d07@@3U__s_GUID@@BUtagCONNECTDATA@@V?$_Copy@UtagCONNECTDATA@@@ATL@@VCComSingleThreadModel@6@@ATL@@@ATL@@UEAAJAEBU_GUID@@PEAPEAX@Z 0000000180004110 f i SpeechSynthesis.obj
 0001:00003124       ??_G?$CComObject@V?$CComEnum@UIEnumConnections@@$1?_GUID_b196b287_bab4_101a_b69c_00aa00341d07@@3U__s_GUID@@BUtagCONNECTDATA@@V?$_Copy@UtagCONNECTDATA@@@ATL@@VCComSingleThreadModel@6@@ATL@@@ATL@@UEAAPEAXI@Z 0000000180004124 f i SpeechSynthesis.obj
 0001:00003124       ??_E?$CComObject@V?$CComEnum@UIEnumConnections@@$1?_GUID_b196b287_bab4_101a_b69c_00aa00341d07@@3U__s_GUID@@BUtagCONNECTDATA@@V?$_Copy@UtagCONNECTDATA@@@ATL@@VCComSingleThreadModel@6@@ATL@@@ATL@@UEAAPEAXI@Z 0000000180004124 f i SpeechSynthesis.obj
 0001:0000317c       ??_E?$CComObject@VCOPOSSpeechSynthesis@@@ATL@@W7EAAPEAXI@Z 000000018000417c f i SpeechSynthesis.obj
 0001:00003188       ??_E?$CComObject@VCOPOSSpeechSynthesis@@@ATL@@WHA@EAAPEAXI@Z 0000000180004188 f i SpeechSynthesis.obj
 0001:00003194       ?QueryInterface@?$CComObject@VCOPOSSpeechSynthesis@@@ATL@@WLI@EAAJAEBU_GUID@@PEAPEAX@Z 0000000180004194 f i SpeechSynthesis.obj
 0001:000031a0       ?AddRef@?$CComObject@VCOPOSSpeechSynthesis@@@ATL@@WLI@EAAKXZ 00000001800041a0 f i SpeechSynthesis.obj
 0001:000031ac       ?Release@?$CComObject@VCOPOSSpeechSynthesis@@@ATL@@WLI@EAAKXZ 00000001800041ac f i SpeechSynthesis.obj
 0001:000031b8       ?QueryInterface@?$CComObject@VCOPOSSpeechSynthesis@@@ATL@@WMA@EAAJAEBU_GUID@@PEAPEAX@Z 00000001800041b8 f i SpeechSynthesis.obj
 0001:000031c4       ?AddRef@?$CComObject@VCOPOSSpeechSynthesis@@@ATL@@WMA@EAAKXZ 00000001800041c4 f i SpeechSynthesis.obj
 0001:000031d0       ?Release@?$CComObject@VCOPOSSpeechSynthesis@@@ATL@@WMA@EAAKXZ 00000001800041d0 f i SpeechSynthesis.obj
 0001:000031dc       ?QueryInterface@?$CComObject@VCOPOSSpeechSynthesis@@@ATL@@WMI@EAAJAEBU_GUID@@PEAPEAX@Z 00000001800041dc f i SpeechSynthesis.obj
 0001:000031e8       ?AddRef@?$CComObject@VCOPOSSpeechSynthesis@@@ATL@@WMI@EAAKXZ 00000001800041e8 f i SpeechSynthesis.obj
 0001:000031f4       ?Release@?$CComObject@VCOPOSSpeechSynthesis@@@ATL@@WMI@EAAKXZ 00000001800041f4 f i SpeechSynthesis.obj
 0001:00003200       ?QueryInterface@?$CComObject@VCOPOSSpeechSynthesis@@@ATL@@WNA@EAAJAEBU_GUID@@PEAPEAX@Z 0000000180004200 f i SpeechSynthesis.obj
 0001:0000320c       ?AddRef@?$CComObject@VCOPOSSpeechSynthesis@@@ATL@@WNA@EAAKXZ 000000018000420c f i SpeechSynthesis.obj
 0001:00003218       ?Release@?$CComObject@VCOPOSSpeechSynthesis@@@ATL@@WNA@EAAKXZ 0000000180004218 f i SpeechSynthesis.obj
 0001:00003224       ?QueryInterface@?$CComObject@VCOPOSSpeechSynthesis@@@ATL@@WNI@EAAJAEBU_GUID@@PEAPEAX@Z 0000000180004224 f i SpeechSynthesis.obj
 0001:00003230       ?AddRef@?$CComObject@VCOPOSSpeechSynthesis@@@ATL@@WNI@EAAKXZ 0000000180004230 f i SpeechSynthesis.obj
 0001:0000323c       ?Release@?$CComObject@VCOPOSSpeechSynthesis@@@ATL@@WNI@EAAKXZ 000000018000423c f i SpeechSynthesis.obj
 0001:00003248       ?QueryInterface@?$CComObject@VCOPOSSpeechSynthesis@@@ATL@@WOA@EAAJAEBU_GUID@@PEAPEAX@Z 0000000180004248 f i SpeechSynthesis.obj
 0001:00003254       ?AddRef@?$CComObject@VCOPOSSpeechSynthesis@@@ATL@@WOA@EAAKXZ 0000000180004254 f i SpeechSynthesis.obj
 0001:00003260       ?Release@?$CComObject@VCOPOSSpeechSynthesis@@@ATL@@WOA@EAAKXZ 0000000180004260 f i SpeechSynthesis.obj
 0001:0000326c       ?QueryInterface@?$CComObject@VCOPOSSpeechSynthesis@@@ATL@@WOI@EAAJAEBU_GUID@@PEAPEAX@Z 000000018000426c f i SpeechSynthesis.obj
 0001:00003278       ?AddRef@?$CComObject@VCOPOSSpeechSynthesis@@@ATL@@WOI@EAAKXZ 0000000180004278 f i SpeechSynthesis.obj
 0001:00003284       ?Release@?$CComObject@VCOPOSSpeechSynthesis@@@ATL@@WOI@EAAKXZ 0000000180004284 f i SpeechSynthesis.obj
 0001:00003290       ?QueryInterface@?$CComObject@VCOPOSSpeechSynthesis@@@ATL@@WPA@EAAJAEBU_GUID@@PEAPEAX@Z 0000000180004290 f i SpeechSynthesis.obj
 0001:0000329c       ?AddRef@?$CComObject@VCOPOSSpeechSynthesis@@@ATL@@WPA@EAAKXZ 000000018000429c f i SpeechSynthesis.obj
 0001:000032a8       ?Release@?$CComObject@VCOPOSSpeechSynthesis@@@ATL@@WPA@EAAKXZ 00000001800042a8 f i SpeechSynthesis.obj
 0001:000032b4       ?QueryInterface@?$CComObject@VCOPOSSpeechSynthesis@@@ATL@@WPI@EAAJAEBU_GUID@@PEAPEAX@Z 00000001800042b4 f i SpeechSynthesis.obj
 0001:000032c0       ?AddRef@?$CComObject@VCOPOSSpeechSynthesis@@@ATL@@WPI@EAAKXZ 00000001800042c0 f i SpeechSynthesis.obj
 0001:000032cc       ?Release@?$CComObject@VCOPOSSpeechSynthesis@@@ATL@@WPI@EAAKXZ 00000001800042cc f i SpeechSynthesis.obj
 0001:000032d8       ?QueryInterface@?$CComObject@VCOPOSSpeechSynthesis@@@ATL@@WBAA@EAAJAEBU_GUID@@PEAPEAX@Z 00000001800042d8 f i SpeechSynthesis.obj
 0001:000032e4       ?AddRef@?$CComObject@VCOPOSSpeechSynthesis@@@ATL@@WBAA@EAAKXZ 00000001800042e4 f i SpeechSynthesis.obj
 0001:000032f0       ?Release@?$CComObject@VCOPOSSpeechSynthesis@@@ATL@@WBAA@EAAKXZ 00000001800042f0 f i SpeechSynthesis.obj
 0001:000032fc       ?QueryInterface@?$CComObject@VCOPOSSpeechSynthesis@@@ATL@@WBAI@EAAJAEBU_GUID@@PEAPEAX@Z 00000001800042fc f i SpeechSynthesis.obj
 0001:00003308       ?AddRef@?$CComObject@VCOPOSSpeechSynthesis@@@ATL@@WBAI@EAAKXZ 0000000180004308 f i SpeechSynthesis.obj
 0001:00003314       ?Release@?$CComObject@VCOPOSSpeechSynthesis@@@ATL@@WBAI@EAAKXZ 0000000180004314 f i SpeechSynthesis.obj
 0001:00003320       ?QueryInterface@?$CComObject@VCOPOSSpeechSynthesis@@@ATL@@WBBA@EAAJAEBU_GUID@@PEAPEAX@Z 0000000180004320 f i SpeechSynthesis.obj
 0001:0000332c       ?AddRef@?$CComObject@VCOPOSSpeechSynthesis@@@ATL@@WBBA@EAAKXZ 000000018000432c f i SpeechSynthesis.obj
 0001:00003338       ?Release@?$CComObject@VCOPOSSpeechSynthesis@@@ATL@@WBBA@EAAKXZ 0000000180004338 f i SpeechSynthesis.obj
 0001:00003344       ?QueryInterface@?$CComObject@VCOPOSSpeechSynthesis@@@ATL@@WBBI@EAAJAEBU_GUID@@PEAPEAX@Z 0000000180004344 f i SpeechSynthesis.obj
 0001:00003350       ?AddRef@?$CComObject@VCOPOSSpeechSynthesis@@@ATL@@WBBI@EAAKXZ 0000000180004350 f i SpeechSynthesis.obj
 0001:0000335c       ?Release@?$CComObject@VCOPOSSpeechSynthesis@@@ATL@@WBBI@EAAKXZ 000000018000435c f i SpeechSynthesis.obj
 0001:00003368       ?AddRef@?$CComObject@VCOPOSSpeechSynthesis@@@ATL@@WBCI@EAAKXZ 0000000180004368 f i SpeechSynthesis.obj
 0001:00003374       ?Release@?$CComObject@VCOPOSSpeechSynthesis@@@ATL@@WBCI@EAAKXZ 0000000180004374 f i SpeechSynthesis.obj
 0001:00003380       ?AddRef@?$CComObject@VCOPOSSpeechSynthesis@@@ATL@@WBEA@EAAKXZ 0000000180004380 f i SpeechSynthesis.obj
 0001:0000338c       ?Release@?$CComObject@VCOPOSSpeechSynthesis@@@ATL@@WBEA@EAAKXZ 000000018000438c f i SpeechSynthesis.obj
 0001:00003398       ??_E?$CComContainedObject@VCOPOSSpeechSynthesis@@@ATL@@W7EAAPEAXI@Z 0000000180004398 f i SpeechSynthesis.obj
 0001:000033a4       ??_E?$CComContainedObject@VCOPOSSpeechSynthesis@@@ATL@@WHA@EAAPEAXI@Z 00000001800043a4 f i SpeechSynthesis.obj
 0001:000033b0       ?QueryInterface@?$CComContainedObject@VCOPOSSpeechSynthesis@@@ATL@@WLI@EAAJAEBU_GUID@@PEAPEAX@Z 00000001800043b0 f i SpeechSynthesis.obj
 0001:000033bc       ?AddRef@?$CComContainedObject@VCOPOSSpeechSynthesis@@@ATL@@WLI@EAAKXZ 00000001800043bc f i SpeechSynthesis.obj
 0001:000033c8       ?Release@?$CComContainedObject@VCOPOSSpeechSynthesis@@@ATL@@WLI@EAAKXZ 00000001800043c8 f i SpeechSynthesis.obj
 0001:000033d4       ?QueryInterface@?$CComContainedObject@VCOPOSSpeechSynthesis@@@ATL@@WMA@EAAJAEBU_GUID@@PEAPEAX@Z 00000001800043d4 f i SpeechSynthesis.obj
 0001:000033e0       ?AddRef@?$CComContainedObject@VCOPOSSpeechSynthesis@@@ATL@@WMA@EAAKXZ 00000001800043e0 f i SpeechSynthesis.obj
 0001:000033ec       ?Release@?$CComContainedObject@VCOPOSSpeechSynthesis@@@ATL@@WMA@EAAKXZ 00000001800043ec f i SpeechSynthesis.obj
 0001:000033f8       ?QueryInterface@?$CComContainedObject@VCOPOSSpeechSynthesis@@@ATL@@WMI@EAAJAEBU_GUID@@PEAPEAX@Z 00000001800043f8 f i SpeechSynthesis.obj
 0001:00003404       ?AddRef@?$CComContainedObject@VCOPOSSpeechSynthesis@@@ATL@@WMI@EAAKXZ 0000000180004404 f i SpeechSynthesis.obj
 0001:00003410       ?Release@?$CComContainedObject@VCOPOSSpeechSynthesis@@@ATL@@WMI@EAAKXZ 0000000180004410 f i SpeechSynthesis.obj
 0001:0000341c       ?QueryInterface@?$CComContainedObject@VCOPOSSpeechSynthesis@@@ATL@@WNA@EAAJAEBU_GUID@@PEAPEAX@Z 000000018000441c f i SpeechSynthesis.obj
 0001:00003428       ?AddRef@?$CComContainedObject@VCOPOSSpeechSynthesis@@@ATL@@WNA@EAAKXZ 0000000180004428 f i SpeechSynthesis.obj
 0001:00003434       ?Release@?$CComContainedObject@VCOPOSSpeechSynthesis@@@ATL@@WNA@EAAKXZ 0000000180004434 f i SpeechSynthesis.obj
 0001:00003440       ?QueryInterface@?$CComContainedObject@VCOPOSSpeechSynthesis@@@ATL@@WNI@EAAJAEBU_GUID@@PEAPEAX@Z 0000000180004440 f i SpeechSynthesis.obj
 0001:0000344c       ?AddRef@?$CComContainedObject@VCOPOSSpeechSynthesis@@@ATL@@WNI@EAAKXZ 000000018000444c f i SpeechSynthesis.obj
 0001:00003458       ?Release@?$CComContainedObject@VCOPOSSpeechSynthesis@@@ATL@@WNI@EAAKXZ 0000000180004458 f i SpeechSynthesis.obj
 0001:00003464       ?QueryInterface@?$CComContainedObject@VCOPOSSpeechSynthesis@@@ATL@@WOA@EAAJAEBU_GUID@@PEAPEAX@Z 0000000180004464 f i SpeechSynthesis.obj
 0001:00003470       ?AddRef@?$CComContainedObject@VCOPOSSpeechSynthesis@@@ATL@@WOA@EAAKXZ 0000000180004470 f i SpeechSynthesis.obj
 0001:0000347c       ?Release@?$CComContainedObject@VCOPOSSpeechSynthesis@@@ATL@@WOA@EAAKXZ 000000018000447c f i SpeechSynthesis.obj
 0001:00003488       ?QueryInterface@?$CComContainedObject@VCOPOSSpeechSynthesis@@@ATL@@WOI@EAAJAEBU_GUID@@PEAPEAX@Z 0000000180004488 f i SpeechSynthesis.obj
 0001:00003494       ?AddRef@?$CComContainedObject@VCOPOSSpeechSynthesis@@@ATL@@WOI@EAAKXZ 0000000180004494 f i SpeechSynthesis.obj
 0001:000034a0       ?Release@?$CComContainedObject@VCOPOSSpeechSynthesis@@@ATL@@WOI@EAAKXZ 00000001800044a0 f i SpeechSynthesis.obj
 0001:000034ac       ?QueryInterface@?$CComContainedObject@VCOPOSSpeechSynthesis@@@ATL@@WPA@EAAJAEBU_GUID@@PEAPEAX@Z 00000001800044ac f i SpeechSynthesis.obj
 0001:000034b8       ?AddRef@?$CComContainedObject@VCOPOSSpeechSynthesis@@@ATL@@WPA@EAAKXZ 00000001800044b8 f i SpeechSynthesis.obj
 0001:000034c4       ?Release@?$CComContainedObject@VCOPOSSpeechSynthesis@@@ATL@@WPA@EAAKXZ 00000001800044c4 f i SpeechSynthesis.obj
 0001:000034d0       ?QueryInterface@?$CComContainedObject@VCOPOSSpeechSynthesis@@@ATL@@WPI@EAAJAEBU_GUID@@PEAPEAX@Z 00000001800044d0 f i SpeechSynthesis.obj
 0001:000034dc       ?AddRef@?$CComContainedObject@VCOPOSSpeechSynthesis@@@ATL@@WPI@EAAKXZ 00000001800044dc f i SpeechSynthesis.obj
 0001:000034e8       ?Release@?$CComContainedObject@VCOPOSSpeechSynthesis@@@ATL@@WPI@EAAKXZ 00000001800044e8 f i SpeechSynthesis.obj
 0001:000034f4       ?QueryInterface@?$CComContainedObject@VCOPOSSpeechSynthesis@@@ATL@@WBAA@EAAJAEBU_GUID@@PEAPEAX@Z 00000001800044f4 f i SpeechSynthesis.obj
 0001:00003500       ?AddRef@?$CComContainedObject@VCOPOSSpeechSynthesis@@@ATL@@WBAA@EAAKXZ 0000000180004500 f i SpeechSynthesis.obj
 0001:0000350c       ?Release@?$CComContainedObject@VCOPOSSpeechSynthesis@@@ATL@@WBAA@EAAKXZ 000000018000450c f i SpeechSynthesis.obj
 0001:00003518       ?QueryInterface@?$CComContainedObject@VCOPOSSpeechSynthesis@@@ATL@@WBAI@EAAJAEBU_GUID@@PEAPEAX@Z 0000000180004518 f i SpeechSynthesis.obj
 0001:00003524       ?AddRef@?$CComContainedObject@VCOPOSSpeechSynthesis@@@ATL@@WBAI@EAAKXZ 0000000180004524 f i SpeechSynthesis.obj
 0001:00003530       ?Release@?$CComContainedObject@VCOPOSSpeechSynthesis@@@ATL@@WBAI@EAAKXZ 0000000180004530 f i SpeechSynthesis.obj
 0001:0000353c       ?QueryInterface@?$CComContainedObject@VCOPOSSpeechSynthesis@@@ATL@@WBBA@EAAJAEBU_GUID@@PEAPEAX@Z 000000018000453c f i SpeechSynthesis.obj
 0001:00003548       ?AddRef@?$CComContainedObject@VCOPOSSpeechSynthesis@@@ATL@@WBBA@EAAKXZ 0000000180004548 f i SpeechSynthesis.obj
 0001:00003554       ?Release@?$CComContainedObject@VCOPOSSpeechSynthesis@@@ATL@@WBBA@EAAKXZ 0000000180004554 f i SpeechSynthesis.obj
 0001:00003560       ?QueryInterface@?$CComContainedObject@VCOPOSSpeechSynthesis@@@ATL@@WBBI@EAAJAEBU_GUID@@PEAPEAX@Z 0000000180004560 f i SpeechSynthesis.obj
 0001:0000356c       ?AddRef@?$CComContainedObject@VCOPOSSpeechSynthesis@@@ATL@@WBBI@EAAKXZ 000000018000456c f i SpeechSynthesis.obj
 0001:00003578       ?Release@?$CComContainedObject@VCOPOSSpeechSynthesis@@@ATL@@WBBI@EAAKXZ 0000000180004578 f i SpeechSynthesis.obj
 0001:00003584       ?AddRef@?$CComContainedObject@VCOPOSSpeechSynthesis@@@ATL@@WBCI@EAAKXZ 0000000180004584 f i SpeechSynthesis.obj
 0001:00003590       ?Release@?$CComContainedObject@VCOPOSSpeechSynthesis@@@ATL@@WBCI@EAAKXZ 0000000180004590 f i SpeechSynthesis.obj
 0001:0000359c       ?AddRef@?$CComContainedObject@VCOPOSSpeechSynthesis@@@ATL@@WBEA@EAAKXZ 000000018000459c f i SpeechSynthesis.obj
 0001:000035a8       ?Release@?$CComContainedObject@VCOPOSSpeechSynthesis@@@ATL@@WBEA@EAAKXZ 00000001800045a8 f i SpeechSynthesis.obj
 0001:000035b4       ?CreateInstance@CComClassFactory@ATL@@UEAAJPEAUIUnknown@@AEBU_GUID@@PEAPEAX@Z 00000001800045b4 f i SpeechSynthesis.obj
 0001:00003614       ?LockServer@CComClassFactory@ATL@@UEAAJH@Z 0000000180004614 f i SpeechSynthesis.obj
 0001:00003638       ??_GCComClassFactory@ATL@@UEAAPEAXI@Z 0000000180004638 f i SpeechSynthesis.obj
 0001:00003638       ??_ECComClassFactory@ATL@@UEAAPEAXI@Z 0000000180004638 f i SpeechSynthesis.obj
 0001:00003688       ??$AtlModuleRegisterWndClassInfoT@VAtlModuleRegisterWndClassInfoParamW@ATL@@@ATL@@YAGPEAU_ATL_BASE_MODULE70@0@PEAU_ATL_WIN_MODULE70@0@PEAU_ATL_WNDCLASSINFOW@0@PEAP6A_JPEAUHWND__@@I_K_J@ZVAtlModuleRegisterWndClassInfoParamW@0@@Z 0000000180004688 f i SpeechSynthesis.obj
 0001:00003888       ??0?$CComContainedObject@VCOPOSSpeechSynthesis@@@ATL@@QEAA@PEAX@Z 0000000180004888 f i SpeechSynthesis.obj
 0001:000039a4       ??0?$CComObject@VCOPOSSpeechSynthesis@@@ATL@@QEAA@PEAX@Z 00000001800049a4 f i SpeechSynthesis.obj
 0001:00003abc       ??0CAtlModule@ATL@@QEAA@XZ 0000000180004abc f i SpeechSynthesis.obj
 0001:00003b30       ??1?$CComEnumImpl@UIEnumConnectionPoints@@$1?_GUID_b196b285_bab4_101a_b69c_00aa00341d07@@3U__s_GUID@@BPEAUIConnectionPoint@@V?$_CopyInterface@UIConnectionPoint@@@ATL@@@ATL@@UEAA@XZ 0000000180004b30 f i SpeechSynthesis.obj
 0001:00003b8c       ??1?$CComEnumImpl@UIEnumConnections@@$1?_GUID_b196b287_bab4_101a_b69c_00aa00341d07@@3U__s_GUID@@BUtagCONNECTDATA@@V?$_Copy@UtagCONNECTDATA@@@ATL@@@ATL@@UEAA@XZ 0000000180004b8c f i SpeechSynthesis.obj
 0001:00003be8       ??1?$CComObject@VCOPOSSpeechSynthesis@@@ATL@@UEAA@XZ 0000000180004be8 f i SpeechSynthesis.obj
 0001:00003d08       ??_E?$CComContainedObject@VCOPOSSpeechSynthesis@@@ATL@@UEAAPEAXI@Z 0000000180004d08 f i SpeechSynthesis.obj
 0001:00003d08       ??_G?$CComContainedObject@VCOPOSSpeechSynthesis@@@ATL@@UEAAPEAXI@Z 0000000180004d08 f i SpeechSynthesis.obj
 0001:00003d3c       ??_E?$CComObject@VCOPOSSpeechSynthesis@@@ATL@@UEAAPEAXI@Z 0000000180004d3c f i SpeechSynthesis.obj
 0001:00003d3c       ??_G?$CComObject@VCOPOSSpeechSynthesis@@@ATL@@UEAAPEAXI@Z 0000000180004d3c f i SpeechSynthesis.obj
 0001:00003d70       ?Add@?$CSimpleArray@GV?$CSimpleArrayEqualHelper@G@ATL@@@ATL@@QEAAHAEBG@Z 0000000180004d70 f i SpeechSynthesis.obj
 0001:00003e24       ?Add@?$CSimpleMap@PEA_WPEA_WVCExpansionVectorEqualHelper@ATL@@@ATL@@QEAAHAEBQEA_W0@Z 0000000180004e24 f i SpeechSynthesis.obj
 0001:00003ec4       ?Add@CComDynamicUnkArray@ATL@@QEAAKPEAUIUnknown@@@Z 0000000180004ec4 f i SpeechSynthesis.obj
 0001:00003fb0       ?Add@CExpansionVector@ATL@@QEAAHPEB_W0@Z 0000000180004fb0 f i SpeechSynthesis.obj
 0001:000040e4       ?AddTermFunc@CAtlModule@ATL@@QEAAJP6AX_K@Z0@Z 00000001800050e4 f i SpeechSynthesis.obj
 0001:00004180       ?AddValue@CRegParser@ATL@@IEAAJAEAVCRegKey@2@PEB_WPEA_W@Z 0000000180005180 f i SpeechSynthesis.obj
 0001:000045c8       ?AllocateHeap@?$CTempBuffer@_W$0EAA@VCCRTAllocator@ATL@@@ATL@@AEAAX_K@Z 00000001800055c8 f i SpeechSynthesis.obj
 0001:000045c8       ?AllocateHeap@?$CTempBuffer@_W$0BAA@VCCRTAllocator@ATL@@@ATL@@AEAAX_K@Z 00000001800055c8 f i SpeechSynthesis.obj
 0001:000045c8       ?AllocateHeap@?$CTempBuffer@E$0BAA@VCCRTAllocator@ATL@@@ATL@@AEAAX_K@Z 00000001800055c8 f i SpeechSynthesis.obj
 0001:000045f4       ?Append@CParseBuffer@CRegParser@ATL@@QEAAHPEB_WH@Z 00000001800055f4 f i SpeechSynthesis.obj
 0001:0000473c       ?AtlComModuleGetClassObject@ATL@@YAJPEAU_ATL_COM_MODULE70@1@AEBU_GUID@@1PEAPEAX@Z 000000018000573c f i SpeechSynthesis.obj
 0001:0000487c       ?AtlComModuleRegisterServer@ATL@@YAJPEAU_ATL_COM_MODULE70@1@HPEBU_GUID@@@Z 000000018000587c f i SpeechSynthesis.obj
 0001:0000493c       ?AtlComModuleUnregisterServer@ATL@@YAJPEAU_ATL_COM_MODULE70@1@HPEBU_GUID@@@Z 000000018000593c f i SpeechSynthesis.obj
 0001:000049f8       ?AtlHiMetricToPixel@ATL@@YAXPEBUtagSIZE@@PEAU2@@Z 00000001800059f8 f i SpeechSynthesis.obj
 0001:00004aa8       ?AtlHresultFromLastError@ATL@@YAJXZ 0000000180005aa8 f i SpeechSynthesis.obj
 0001:00004ac8       ?AtlHresultFromWin32@ATL@@YAJK@Z 0000000180005ac8 f i SpeechSynthesis.obj
 0001:00004ad8       ?AtlInternalOleLoadFromStream@ATL@@YAJPEAUIStream@@AEBU_GUID@@PEAPEAXTClassesAllowedInStream@1@K@Z 0000000180005ad8 f i SpeechSynthesis.obj
 0001:00004c1c       ?AtlInternalQueryInterface@ATL@@YAJPEAXPEBU_ATL_INTMAP_ENTRY@1@AEBU_GUID@@PEAPEAX@Z 0000000180005c1c f i SpeechSynthesis.obj
 0001:00004d24       ?AtlLoadTypeLib@ATL@@YAJPEAUHINSTANCE__@@PEB_WPEAPEA_WPEAPEAUITypeLib@@@Z 0000000180005d24 f i SpeechSynthesis.obj
 0001:00004f80       ?AtlRegisterClassCategoriesHelper@ATL@@YAJAEBU_GUID@@PEBU_ATL_CATMAP_ENTRY@1@H@Z 0000000180005f80 f i SpeechSynthesis.obj
 0001:00005404       ?AtlRegisterTypeLib@ATL@@YAJPEAUHINSTANCE__@@PEB_W@Z 0000000180006404 f i SpeechSynthesis.obj
 0001:00005600       ?AtlThrowImpl@ATL@@YAXJ@Z  0000000180006600 f i SpeechSynthesis.obj
 0001:00005624       ?AtlUnRegisterTypeLib@ATL@@YAJPEAUHINSTANCE__@@PEB_W@Z 0000000180006624 f i SpeechSynthesis.obj
 0001:000056ec       ?AtlWinModuleExtractCreateWndData@ATL@@YAPEAXPEAU_ATL_WIN_MODULE70@1@@Z 00000001800066ec f i SpeechSynthesis.obj
 0001:00005778       ?Cleanup@CComTypeInfoHolder@ATL@@SAX_K@Z 0000000180006778 f i SpeechSynthesis.obj
 0001:000057b8       ?ClearReplacements@CExpansionVector@ATL@@QEAAJXZ 00000001800067b8 f i SpeechSynthesis.obj
 0001:00005854       ?CreateInstance@?$CComCreator@V?$CComAggObject@VCOPOSSpeechSynthesis@@@ATL@@@ATL@@SAJPEAXAEBU_GUID@@PEAPEAX@Z 0000000180006854 f i SpeechSynthesis.obj
 0001:00005938       ?CreateInstance@?$CComCreator@V?$CComObject@VCOPOSSpeechSynthesis@@@ATL@@@ATL@@SAJPEAXAEBU_GUID@@PEAPEAX@Z 0000000180006938 f i SpeechSynthesis.obj
 0001:000059ec       ?CreateInstance@?$CComObject@V?$CComEnum@UIEnumConnectionPoints@@$1?_GUID_b196b285_bab4_101a_b69c_00aa00341d07@@3U__s_GUID@@BPEAUIConnectionPoint@@V?$_CopyInterface@UIConnectionPoint@@@ATL@@VCComSingleThreadModel@6@@ATL@@@ATL@@SAJPEAPEAV12@@Z 00000001800069ec f i SpeechSynthesis.obj
 0001:00005a7c       ?CreateInstance@?$CComObject@V?$CComEnum@UIEnumConnections@@$1?_GUID_b196b287_bab4_101a_b69c_00aa00341d07@@3U__s_GUID@@BUtagCONNECTDATA@@V?$_Copy@UtagCONNECTDATA@@@ATL@@VCComSingleThreadModel@6@@ATL@@@ATL@@SAJPEAPEAV12@@Z 0000000180006a7c f i SpeechSynthesis.obj
 0001:00005b0c       ?DefaultReflectionHandler@?$CWindowImplRoot@VCWindow@ATL@@@ATL@@SAHPEAUHWND__@@I_K_JAEA_J@Z 0000000180006b0c f i SpeechSynthesis.obj
 0001:00005b70       ?DeleteSubKey@CRegKey@ATL@@QEAAJPEB_W@Z 0000000180006b70 f i SpeechSynthesis.obj
 0001:00005c08       ?DoEvent@COPOSSpeechSynthesis@@IEAAXI_K_J@Z 0000000180006c08 f i SpeechSynthesis.obj
 0001:00005cbc       ?DoVerbPrimary@?$IOleObjectImpl@VCOPOSSpeechSynthesis@@@ATL@@QEAAJPEBUtagRECT@@PEAUHWND__@@@Z 0000000180006cbc f i SpeechSynthesis.obj
 0001:00005de8       ?DoVerbProperties@CComControlBase@ATL@@QEAAJPEBUtagRECT@@PEAUHWND__@@@Z 0000000180006de8 f i SpeechSynthesis.obj
 0001:00006010       ?FireTheEvent@?$CProxy_IOPOSEvents@VCOPOSSpeechSynthesis@@@@IEAAXPEAVOposVariant@@IAEAJPEB_WJ@Z 0000000180007010 f i SpeechSynthesis.obj
 0001:000060fc       ?FireViewChange@CComControlBase@ATL@@QEAAJXZ 00000001800070fc f i SpeechSynthesis.obj
 0001:00006160       ?Fire_DirectIOEvent@?$CProxy_IOPOSEvents@VCOPOSSpeechSynthesis@@@@QEAAXJPEAJPEAPEA_W@Z 0000000180007160 f i SpeechSynthesis.obj
 0001:000062c0       ?Fire_ErrorEvent@?$CProxy_IOPOSEvents@VCOPOSSpeechSynthesis@@@@QEAAXJJJPEAJ@Z 00000001800072c0 f i SpeechSynthesis.obj
 0001:00006434       ?Fire_OutputCompleteEvent@?$CProxy_IOPOSEvents@VCOPOSSpeechSynthesis@@@@QEAAXJ@Z 0000000180007434 f i SpeechSynthesis.obj
 0001:00006520       ?Fire_StatusUpdateEvent@?$CProxy_IOPOSEvents@VCOPOSSpeechSynthesis@@@@QEAAXJ@Z 0000000180007520 f i SpeechSynthesis.obj
 0001:0000660c       ?FreeHeap@?$CTempBuffer@E$0BAA@VCCRTAllocator@ATL@@@ATL@@AEAAXXZ 000000018000760c f i SpeechSynthesis.obj
 0001:0000660c       ?FreeHeap@?$CTempBuffer@_W$0EAA@VCCRTAllocator@ATL@@@ATL@@AEAAXXZ 000000018000760c f i SpeechSynthesis.obj
 0001:0000660c       ?FreeHeap@?$CTempBuffer@_W$0BAA@VCCRTAllocator@ATL@@@ATL@@AEAAXXZ 000000018000760c f i SpeechSynthesis.obj
 0001:00006614       ?GetAmbientLocaleID@CComControlBase@ATL@@QEAAJAEAK@Z 0000000180007614 f i SpeechSynthesis.obj
 0001:000066d4       ?GetAmbientUserMode@CComControlBase@ATL@@QEAAJAEAH@Z 00000001800076d4 f i SpeechSynthesis.obj
 0001:000067a4       ?GetClassObject@CComModule@ATL@@QEAAJAEBU_GUID@@0PEAPEAX@Z 00000001800077a4 f i SpeechSynthesis.obj
 0001:00006898       ?GetConnMap@COPOSSpeechSynthesis@@SAPEBU_ATL_CONNMAP_ENTRY@ATL@@PEAH@Z 0000000180007898 f i SpeechSynthesis.obj
 0001:00006920       ?GetIDsOfNames@CComTypeInfoHolder@ATL@@QEAAJAEBU_GUID@@PEAPEA_WIKPEAJ@Z 0000000180007920 f i SpeechSynthesis.obj
 0001:00006a98       ?GetPagesHelper@?$ISpecifyPropertyPagesImpl@VCOPOSSpeechSynthesis@@@ATL@@IEAAJPEAUtagCAUUID@@PEBUATL_PROPMAP_ENTRY@2@@Z 0000000180007a98 f i SpeechSynthesis.obj
 0001:00006c38       ?GetSizeMax@CComVariant@ATL@@QEBAJPEAT_ULARGE_INTEGER@@@Z 0000000180007c38 f i SpeechSynthesis.obj
 0001:00006e68       ?GetTI@CComTypeInfoHolder@ATL@@QEAAJK@Z 0000000180007e68 f i SpeechSynthesis.obj
 0001:00007150       ?GetZoomInfo@CComControlBase@ATL@@QEAAXAEAUATL_DRAWINFO@@@Z 0000000180008150 f i SpeechSynthesis.obj
 0001:000071f4       ?HKeyFromString@CRegParser@ATL@@KAPEAUHKEY__@@PEA_W@Z 00000001800081f4 f i SpeechSynthesis.obj
 0001:00007258       ?IDataObject_GetData@CComControlBase@ATL@@QEAAJPEAUtagFORMATETC@@PEAUtagSTGMEDIUM@@@Z 0000000180008258 f i SpeechSynthesis.obj
 0001:0000744c       ?IOleInPlaceObject_InPlaceDeactivate@CComControlBase@ATL@@QEAAJXZ 000000018000844c f i SpeechSynthesis.obj
 0001:000074ec       ?IOleInPlaceObject_SetObjectRects@CComControlBase@ATL@@QEAAJPEBUtagRECT@@0@Z 00000001800084ec f i SpeechSynthesis.obj
 0001:000075dc       ?IOleInPlaceObject_UIDeactivate@CComControlBase@ATL@@QEAAJXZ 00000001800085dc f i SpeechSynthesis.obj
 0001:000076e8       ?IOleObject_Close@CComControlBase@ATL@@QEAAJK@Z 00000001800086e8 f i SpeechSynthesis.obj
 0001:00007800       ?IOleObject_SetClientSite@CComControlBase@ATL@@QEAAJPEAUIOleClientSite@@@Z 0000000180008800 f i SpeechSynthesis.obj
 0001:00007878       ?IOleObject_SetExtent@CComControlBase@ATL@@QEAAJKPEAUtagSIZE@@@Z 0000000180008878 f i SpeechSynthesis.obj
 0001:00007910       ?IPSI_GetIPersistStreamInit@?$IPersistStorageImpl@VCOPOSSpeechSynthesis@@@ATL@@AEAAPEAUIPersistStreamInit@@XZ 0000000180008910 f i SpeechSynthesis.obj
 0001:000079f8       ?IPersistStreamInit_Load@?$IPersistStreamInitImpl@VCOPOSSpeechSynthesis@@@ATL@@QEAAJPEAUIStream@@PEBUATL_PROPMAP_ENTRY@2@@Z 00000001800089f8 f i SpeechSynthesis.obj
 0001:00007d24       ?IPersistStreamInit_Save@?$IPersistStreamInitImpl@VCOPOSSpeechSynthesis@@@ATL@@QEAAJPEAUIStream@@HPEBUATL_PROPMAP_ENTRY@2@@Z 0000000180008d24 f i SpeechSynthesis.obj
 0001:00007fc4       ?IQuickActivate_QuickActivate@CComControlBase@ATL@@QEAAJPEAUtagQACONTAINER@@PEAUtagQACONTROL@@@Z 0000000180008fc4 f i SpeechSynthesis.obj
 0001:00008288       ?IViewObject_Draw@CComControlBase@ATL@@QEAAJKJPEAXPEAUtagDVTARGETDEVICE@@PEAUHDC__@@2PEBU_RECTL@@3@Z 0000000180009288 f i SpeechSynthesis.obj
 0001:0000839c       ?InPlaceActivate@CComControlBase@ATL@@QEAAJJPEBUtagRECT@@@Z 000000018000939c f i SpeechSynthesis.obj
 0001:000086d0       ?Init@?$CComEnumImpl@UIEnumConnectionPoints@@$1?_GUID_b196b285_bab4_101a_b69c_00aa00341d07@@3U__s_GUID@@BPEAUIConnectionPoint@@V?$_CopyInterface@UIConnectionPoint@@@ATL@@@ATL@@QEAAJPEAPEAUIConnectionPoint@@0PEAUIUnknown@@W4CComEnumFlags@2@@Z 00000001800096d0 f i SpeechSynthesis.obj
 0001:000087f0       ?Init@?$CComEnumImpl@UIEnumConnections@@$1?_GUID_b196b287_bab4_101a_b69c_00aa00341d07@@3U__s_GUID@@BUtagCONNECTDATA@@V?$_Copy@UtagCONNECTDATA@@@ATL@@@ATL@@QEAAJPEAUtagCONNECTDATA@@0PEAUIUnknown@@W4CComEnumFlags@2@@Z 00000001800097f0 f i SpeechSynthesis.obj
 0001:00008914       ?IsEqualObject@?$CComPtrBase@UIOleClientSite@@@ATL@@QEAA_NPEAUIUnknown@@@Z 0000000180009914 f i SpeechSynthesis.obj
 0001:000089a0       ?LoadNameCache@CComTypeInfoHolder@ATL@@QEAAJPEAUITypeInfo@@@Z 00000001800099a0 f i SpeechSynthesis.obj
 0001:00008b20       ?Lookup@?$CSimpleMap@PEA_WPEA_WVCExpansionVectorEqualHelper@ATL@@@ATL@@QEBAPEA_WAEBQEA_W@Z 0000000180009b20 f i SpeechSynthesis.obj
 0001:00008ba8       ?NextToken@CRegParser@ATL@@IEAAJPEA_W@Z 0000000180009ba8 f i SpeechSynthesis.obj
 0001:00008d60       ?OnKillFocus@CComControlBase@ATL@@QEAA_JI_K_JAEAH@Z 0000000180009d60 f i SpeechSynthesis.obj
 0001:00008dfc       ?OnMouseActivate@CComControlBase@ATL@@QEAA_JI_K_JAEAH@Z 0000000180009dfc f i SpeechSynthesis.obj
 0001:00008e9c       ?OnPaint@CComControlBase@ATL@@QEAA_JI_K_JAEAH@Z 0000000180009e9c f i SpeechSynthesis.obj
 0001:00008f88       ?OnSetFocus@CComControlBase@ATL@@QEAA_JI_K_JAEAH@Z 0000000180009f88 f i SpeechSynthesis.obj
 0001:00009084       ?PreProcessBuffer@CRegParser@ATL@@QEAAJPEA_WPEAPEA_W@Z 000000018000a084 f i SpeechSynthesis.obj
 0001:00009410       ?ProcessWindowMessage@?$CComControl@VCOPOSSpeechSynthesis@@V?$CWindowImpl@VCOPOSSpeechSynthesis@@VCWindow@ATL@@V?$CWinTraits@$0FGAAAAAA@$0A@@3@@ATL@@@ATL@@UEAAHPEAUHWND__@@I_K_JAEA_JK@Z 000000018000a410 f i SpeechSynthesis.obj
 0001:000094f4       ?ReadFromStream@CComBSTR@ATL@@QEAAJPEAUIStream@@@Z 000000018000a4f4 f i SpeechSynthesis.obj
 0001:00009644       ?ReadFromStream@CComVariant@ATL@@QEAAJPEAUIStream@@GTClassesAllowedInStream@2@K@Z 000000018000a644 f i SpeechSynthesis.obj
 0001:00009868       ?RecurseDeleteKey@CRegKey@ATL@@QEAAJPEB_W@Z 000000018000a868 f i SpeechSynthesis.obj
 0001:000099c0       ?RegCreateKeyExW@CAtlTransactionManager@ATL@@QEAAJPEAUHKEY__@@PEB_WKPEA_WKKQEAU_SECURITY_ATTRIBUTES@@PEAPEAU3@PEAK@Z 000000018000a9c0 f i SpeechSynthesis.obj
 0001:00009af4       ?RegDeleteKeyW@CAtlTransactionManager@ATL@@QEAAJPEAUHKEY__@@PEB_W@Z 000000018000aaf4 f i SpeechSynthesis.obj
 0001:00009b80       ?RegOpenKeyExW@CAtlTransactionManager@ATL@@QEAAJPEAUHKEY__@@PEB_WKKPEAPEAU3@@Z 000000018000ab80 f i SpeechSynthesis.obj
 0001:00009c38       ?RegisterBuffer@CRegParser@ATL@@QEAAJPEA_WH@Z 000000018000ac38 f i SpeechSynthesis.obj
 0001:00009da0       ?RegisterFromResource@CRegObject@ATL@@IEAAJPEB_W00H@Z 000000018000ada0 f i SpeechSynthesis.obj
 0001:00009f5c       ?RegisterServer@CComModule@ATL@@QEAAJHPEBU_GUID@@@Z 000000018000af5c f i SpeechSynthesis.obj
 0001:0000a01c       ?RegisterSubkeys@CRegParser@ATL@@IEAAJPEA_WPEAUHKEY__@@HH@Z 000000018000b01c f i SpeechSynthesis.obj
 0001:0000a888       ?SendOnDataChange@CComControlBase@ATL@@QEAAJK@Z 000000018000b888 f i SpeechSynthesis.obj
 0001:0000a8f8       ?SetControlFocus@CComControlBase@ATL@@QEAAHH@Z 000000018000b8f8 f i SpeechSynthesis.obj
 0001:0000a9d4       ?SkipAssignment@CRegParser@ATL@@IEAAJPEA_W@Z 000000018000b9d4 f i SpeechSynthesis.obj
 0001:0000aa78       ?Term@CAtlModule@ATL@@QEAAXXZ 000000018000ba78 f i SpeechSynthesis.obj
 0001:0000aaf8       ?Term@CComModule@ATL@@QEAAXXZ 000000018000baf8 f i SpeechSynthesis.obj
 0001:0000ab74       ?UnregisterServer@CComModule@ATL@@QEAAJHPEBU_GUID@@@Z 000000018000bb74 f i SpeechSynthesis.obj
 0001:0000ac24       ?UpdateRegistryFromResource@CAtlModule@ATL@@QEAAJIHPEAU_ATL_REGMAP_ENTRY@2@@Z 000000018000bc24 f i SpeechSynthesis.obj
 0001:0000af30       ?UpdateRegistryFromResource@CAtlModule@ATL@@QEAAJPEB_WHPEAU_ATL_REGMAP_ENTRY@2@@Z 000000018000bf30 f i SpeechSynthesis.obj
 0001:0000b254       ?VTFromRegType@CRegParser@ATL@@KAHPEB_WAEAG@Z 000000018000c254 f i SpeechSynthesis.obj
 0001:0000b2f0       ?WindowProc@?$CWindowImplBaseT@VCWindow@ATL@@V?$CWinTraits@$0FGAAAAAA@$0A@@2@@ATL@@SA_JPEAUHWND__@@I_K_J@Z 000000018000c2f0 f i SpeechSynthesis.obj
 0001:0000b45c       ?WriteToStream@CComVariant@ATL@@QEAAJPEAUIStream@@@Z 000000018000c45c f i SpeechSynthesis.obj
 0001:0000b6d8       ?WriteToStream@CComVariant@ATL@@QEAAJPEAUIStream@@G@Z 000000018000c6d8 f i SpeechSynthesis.obj
 0001:0000b770       ?_AtlVerifyStackAvailable@_ATL_SAFE_ALLOCA_IMPL@ATL@@YA_N_K@Z 000000018000c770 f i SpeechSynthesis.obj
 0001:0000b7f4       ?atlCreate@?$CWindowImpl@VCOPOSSpeechSynthesis@@VCWindow@ATL@@V?$CWinTraits@$0FGAAAAAA@$0A@@3@@ATL@@QEAAPEAUHWND__@@PEAU3@V_U_RECT@2@PEB_WKKV_U_MENUorID@2@PEAX@Z 000000018000c7f4 f i SpeechSynthesis.obj
 0001:0000b8a8       ?atlCreate@?$CWindowImplBaseT@VCWindow@ATL@@V?$CWinTraits@$0FGAAAAAA@$0A@@2@@ATL@@QEAAPEAUHWND__@@PEAU3@V_U_RECT@2@PEB_WKKV_U_MENUorID@2@GPEAX@Z 000000018000c8a8 f i SpeechSynthesis.obj
 0001:0000ba18       ?ocscpy_s@@YA_NPEA_W_KPEB_W@Z 000000018000ca18 f i SpeechSynthesis.obj
 0001:0000bac8       DllCanUnloadNow            000000018000cac8 f   SpeechSynthesis.obj
 0001:0000bad4       DllGetClassObject          000000018000cad4 f   SpeechSynthesis.obj
 0001:0000baec       DllMain                    000000018000caec f   SpeechSynthesis.obj
 0001:0000bb94       DllRegisterServer          000000018000cb94 f   SpeechSynthesis.obj
 0001:0000bba8       DllUnregisterServer        000000018000cba8 f   SpeechSynthesis.obj
 0001:0000bbbc       __local_stdio_printf_options 000000018000cbbc f i SpeechSynthesis.obj
 0001:0000bbc4       swprintf_s                 000000018000cbc4 f i SpeechSynthesis.obj
 0001:0000bc18       ??0COPOSSpeechSynthesis@@QEAA@XZ 000000018000cc18 f   SpeechSynthesisImpl.obj
 0001:0000bce8       ??1?$IConnectionPointImpl@VCOPOSSpeechSynthesis@@$1?DIID__IOPOSSpeechSynthesisEvents@@3U_GUID@@BVCComDynamicUnkArray@ATL@@@ATL@@QEAA@XZ 000000018000cce8 f i SpeechSynthesisImpl.obj
 0001:0000bce8       ??1?$IConnectionPointImpl@VCOPOSSpeechSynthesis@@$1?IID_IPropertyNotifySink@@3U_GUID@@BVCComDynamicUnkArray@ATL@@@ATL@@QEAA@XZ 000000018000cce8 f i SpeechSynthesisImpl.obj
 0001:0000bd44       ??1CComControlBase@ATL@@UEAA@XZ 000000018000cd44 f i SpeechSynthesisImpl.obj
 0001:0000bdc0       ??1COPOSSpeechSynthesis@@UEAA@XZ 000000018000cdc0 f   SpeechSynthesisImpl.obj
 0001:0000be24       ?CheckHealth@COPOSSpeechSynthesis@@UEAAJJPEAJ@Z 000000018000ce24 f   SpeechSynthesisImpl.obj
 0001:0000bea0       ?ClaimDevice@COPOSSpeechSynthesis@@UEAAJJPEAJ@Z 000000018000cea0 f   SpeechSynthesisImpl.obj
 0001:0000bf40       ?ClearOutput@COPOSSpeechSynthesis@@UEAAJPEAJ@Z 000000018000cf40 f   SpeechSynthesisImpl.obj
 0001:0000bf68       ?Close@COPOSSpeechSynthesis@@UEAAJPEAJ@Z 000000018000cf68 f   SpeechSynthesisImpl.obj
 0001:0000c020       ?CompareFirmwareVersion@COPOSSpeechSynthesis@@UEAAJPEA_WPEAJ1@Z 000000018000d020 f   SpeechSynthesisImpl.obj
 0001:0000c0fc       ?DirectIO@COPOSSpeechSynthesis@@UEAAJJPEAJPEAPEA_W0@Z 000000018000d0fc f   SpeechSynthesisImpl.obj
 0001:0000c1f8       ?DoInvoke@COPOSSpeechSynthesis@@IEAAJJPEAVOposVariant@@IHPEAJ_N@Z 000000018000d1f8 f   SpeechSynthesisImpl.obj
 0001:0000c32c       ?EventInit@COPOSSpeechSynthesis@@IEAAJXZ 000000018000d32c f i SpeechSynthesisImpl.obj
 0001:0000c474       ?EventUninit@COPOSSpeechSynthesis@@IEAAXXZ 000000018000d474 f i SpeechSynthesisImpl.obj
 0001:0000c4d8       ?EventWindowProc@COPOSSpeechSynthesis@@IEAA_JI_K_J@Z 000000018000d4d8 f i SpeechSynthesisImpl.obj
 0001:0000c654       ?FinalConstruct@COPOSSpeechSynthesis@@QEAAJXZ 000000018000d654 f   SpeechSynthesisImpl.obj
 0001:0000c690       ?FreezeEvents@COPOSSpeechSynthesis@@MEAAJH@Z 000000018000d690 f   SpeechSynthesisImpl.obj
 0001:0000c704       ?GetOposProp@COPOSSpeechSynthesis@@IEAAJJPEAJJ@Z 000000018000d704 f   SpeechSynthesisImpl.obj
 0001:0000c820       ?GetOposProp@COPOSSpeechSynthesis@@IEAAJJPEAPEA_WJ@Z 000000018000d820 f   SpeechSynthesisImpl.obj
 0001:0000c94c       ?OnDraw@COPOSSpeechSynthesis@@MEAAJAEAUATL_DRAWINFO@@@Z 000000018000d94c f   SpeechSynthesisImpl.obj
 0001:0000ca38       ?Open@COPOSSpeechSynthesis@@UEAAJPEA_WPEAJ@Z 000000018000da38 f   SpeechSynthesisImpl.obj
 0001:0000d2c0       ?ReleaseDevice@COPOSSpeechSynthesis@@UEAAJPEAJ@Z 000000018000e2c0 f   SpeechSynthesisImpl.obj
 0001:0000d32c       ?ResetStatistics@COPOSSpeechSynthesis@@UEAAJPEA_WPEAJ@Z 000000018000e32c f   SpeechSynthesisImpl.obj
 0001:0000d3b4       ?RetrieveStatistics@COPOSSpeechSynthesis@@UEAAJPEAPEA_WPEAJ@Z 000000018000e3b4 f   SpeechSynthesisImpl.obj
 0001:0000d43c       ?SOProcessID@COPOSSpeechSynthesis@@UEAAJPEAJ@Z 000000018000e43c f   SpeechSynthesisImpl.obj
 0001:0000d458       ?SetCOFreezeEvents@COPOSSpeechSynthesis@@IEAAXF@Z 000000018000e458 f   SpeechSynthesisImpl.obj
 0001:0000d53c       ?SetOposProp@COPOSSpeechSynthesis@@IEAAJJJJ@Z 000000018000e53c f   SpeechSynthesisImpl.obj
 0001:0000d69c       ?SetOposProp@COPOSSpeechSynthesis@@IEAAJJPEA_WJ@Z 000000018000e69c f   SpeechSynthesisImpl.obj
 0001:0000d7f4       ?Speak@COPOSSpeechSynthesis@@UEAAJPEA_WPEAJ@Z 000000018000e7f4 f   SpeechSynthesisImpl.obj
 0001:0000d87c       ?SpeakImmediate@COPOSSpeechSynthesis@@UEAAJPEA_WPEAJ@Z 000000018000e87c f   SpeechSynthesisImpl.obj
 0001:0000d904       ?StopCurrentSpeaking@COPOSSpeechSynthesis@@UEAAJPEAJ@Z 000000018000e904 f   SpeechSynthesisImpl.obj
 0001:0000d92c       ?StopSpeaking@COPOSSpeechSynthesis@@UEAAJJPEAJ@Z 000000018000e92c f   SpeechSynthesisImpl.obj
 0001:0000d9a8       ?UpdateFirmware@COPOSSpeechSynthesis@@UEAAJPEA_WPEAJ@Z 000000018000e9a8 f   SpeechSynthesisImpl.obj
 0001:0000da30       ?UpdateStatistics@COPOSSpeechSynthesis@@UEAAJPEA_WPEAJ@Z 000000018000ea30 f   SpeechSynthesisImpl.obj
 0001:0000dab8       ?get_BinaryConversion@COPOSSpeechSynthesis@@UEAAJPEAJ@Z 000000018000eab8 f   SpeechSynthesisImpl.obj
 0001:0000dacc       ?get_CapCompareFirmwareVersion@COPOSSpeechSynthesis@@UEAAJPEAF@Z 000000018000eacc f   SpeechSynthesisImpl.obj
 0001:0000db00       ?get_CapLanguage@COPOSSpeechSynthesis@@UEAAJPEAF@Z 000000018000eb00 f   SpeechSynthesisImpl.obj
 0001:0000db34       ?get_CapPitch@COPOSSpeechSynthesis@@UEAAJPEAF@Z 000000018000eb34 f   SpeechSynthesisImpl.obj
 0001:0000db68       ?get_CapPowerReporting@COPOSSpeechSynthesis@@UEAAJPEAJ@Z 000000018000eb68 f   SpeechSynthesisImpl.obj
 0001:0000db7c       ?get_CapSpeed@COPOSSpeechSynthesis@@UEAAJPEAF@Z 000000018000eb7c f   SpeechSynthesisImpl.obj
 0001:0000dbb0       ?get_CapStatisticsReporting@COPOSSpeechSynthesis@@UEAAJPEAF@Z 000000018000ebb0 f   SpeechSynthesisImpl.obj
 0001:0000dbe4       ?get_CapUpdateFirmware@COPOSSpeechSynthesis@@UEAAJPEAF@Z 000000018000ebe4 f   SpeechSynthesisImpl.obj
 0001:0000dc18       ?get_CapUpdateStatistics@COPOSSpeechSynthesis@@UEAAJPEAF@Z 000000018000ec18 f   SpeechSynthesisImpl.obj
 0001:0000dc4c       ?get_CapVoice@COPOSSpeechSynthesis@@UEAAJPEAF@Z 000000018000ec4c f   SpeechSynthesisImpl.obj
 0001:0000dc80       ?get_CapVolume@COPOSSpeechSynthesis@@UEAAJPEAF@Z 000000018000ec80 f   SpeechSynthesisImpl.obj
 0001:0000dcb4       ?get_CheckHealthText@COPOSSpeechSynthesis@@UEAAJPEAPEA_W@Z 000000018000ecb4 f   SpeechSynthesisImpl.obj
 0001:0000dcc8       ?get_Claimed@COPOSSpeechSynthesis@@UEAAJPEAF@Z 000000018000ecc8 f   SpeechSynthesisImpl.obj
 0001:0000dcfc       ?get_ControlObjectDescription@COPOSSpeechSynthesis@@UEAAJPEAPEA_W@Z 000000018000ecfc f   SpeechSynthesisImpl.obj
 0001:0000dd60       ?get_ControlObjectVersion@COPOSSpeechSynthesis@@UEAAJPEAJ@Z 000000018000ed60 f   SpeechSynthesisImpl.obj
 0001:0000dd6c       ?get_DeviceDescription@COPOSSpeechSynthesis@@UEAAJPEAPEA_W@Z 000000018000ed6c f   SpeechSynthesisImpl.obj
 0001:0000dd80       ?get_DeviceEnabled@COPOSSpeechSynthesis@@UEAAJPEAF@Z 000000018000ed80 f   SpeechSynthesisImpl.obj
 0001:0000ddb4       ?get_DeviceName@COPOSSpeechSynthesis@@UEAAJPEAPEA_W@Z 000000018000edb4 f   SpeechSynthesisImpl.obj
 0001:0000ddc8       ?get_FreezeEvents@COPOSSpeechSynthesis@@UEAAJPEAF@Z 000000018000edc8 f   SpeechSynthesisImpl.obj
 0001:0000ddf8       ?get_Language@COPOSSpeechSynthesis@@UEAAJPEAPEA_W@Z 000000018000edf8 f   SpeechSynthesisImpl.obj
 0001:0000de0c       ?get_LanguageList@COPOSSpeechSynthesis@@UEAAJPEAPEA_W@Z 000000018000ee0c f   SpeechSynthesisImpl.obj
 0001:0000de20       ?get_OpenResult@COPOSSpeechSynthesis@@UEAAJPEAJ@Z 000000018000ee20 f   SpeechSynthesisImpl.obj
 0001:0000de2c       ?get_OutputID@COPOSSpeechSynthesis@@UEAAJPEAJ@Z 000000018000ee2c f   SpeechSynthesisImpl.obj
 0001:0000de40       ?get_OutputIDList@COPOSSpeechSynthesis@@UEAAJPEAPEA_W@Z 000000018000ee40 f   SpeechSynthesisImpl.obj
 0001:0000de54       ?get_Pitch@COPOSSpeechSynthesis@@UEAAJPEAJ@Z 000000018000ee54 f   SpeechSynthesisImpl.obj
 0001:0000de68       ?get_PowerNotify@COPOSSpeechSynthesis@@UEAAJPEAJ@Z 000000018000ee68 f   SpeechSynthesisImpl.obj
 0001:0000de7c       ?get_PowerState@COPOSSpeechSynthesis@@UEAAJPEAJ@Z 000000018000ee7c f   SpeechSynthesisImpl.obj
 0001:0000de90       ?get_ResultCode@COPOSSpeechSynthesis@@UEAAJPEAJ@Z 000000018000ee90 f   SpeechSynthesisImpl.obj
 0001:0000decc       ?get_ResultCodeExtended@COPOSSpeechSynthesis@@UEAAJPEAJ@Z 000000018000eecc f   SpeechSynthesisImpl.obj
 0001:0000dee0       ?get_ServiceObjectDescription@COPOSSpeechSynthesis@@UEAAJPEAPEA_W@Z 000000018000eee0 f   SpeechSynthesisImpl.obj
 0001:0000def4       ?get_ServiceObjectVersion@COPOSSpeechSynthesis@@UEAAJPEAJ@Z 000000018000eef4 f   SpeechSynthesisImpl.obj
 0001:0000df08       ?get_Speed@COPOSSpeechSynthesis@@UEAAJPEAJ@Z 000000018000ef08 f   SpeechSynthesisImpl.obj
 0001:0000df1c       ?get_State@COPOSSpeechSynthesis@@UEAAJPEAJ@Z 000000018000ef1c f   SpeechSynthesisImpl.obj
 0001:0000df48       ?get_Voice@COPOSSpeechSynthesis@@UEAAJPEAPEA_W@Z 000000018000ef48 f   SpeechSynthesisImpl.obj
 0001:0000df5c       ?get_VoiceList@COPOSSpeechSynthesis@@UEAAJPEAPEA_W@Z 000000018000ef5c f   SpeechSynthesisImpl.obj
 0001:0000df70       ?get_Volume@COPOSSpeechSynthesis@@UEAAJPEAJ@Z 000000018000ef70 f   SpeechSynthesisImpl.obj
 0001:0000df84       ?put_BinaryConversion@COPOSSpeechSynthesis@@UEAAJJ@Z 000000018000ef84 f   SpeechSynthesisImpl.obj
 0001:0000df98       ?put_DeviceEnabled@COPOSSpeechSynthesis@@UEAAJF@Z 000000018000ef98 f   SpeechSynthesisImpl.obj
 0001:0000dfb0       ?put_FreezeEvents@COPOSSpeechSynthesis@@UEAAJF@Z 000000018000efb0 f   SpeechSynthesisImpl.obj
 0001:0000e000       ?put_Language@COPOSSpeechSynthesis@@UEAAJPEA_W@Z 000000018000f000 f   SpeechSynthesisImpl.obj
 0001:0000e014       ?put_Pitch@COPOSSpeechSynthesis@@UEAAJJ@Z 000000018000f014 f   SpeechSynthesisImpl.obj
 0001:0000e028       ?put_PowerNotify@COPOSSpeechSynthesis@@UEAAJJ@Z 000000018000f028 f   SpeechSynthesisImpl.obj
 0001:0000e03c       ?put_Speed@COPOSSpeechSynthesis@@UEAAJJ@Z 000000018000f03c f   SpeechSynthesisImpl.obj
 0001:0000e050       ?put_Voice@COPOSSpeechSynthesis@@UEAAJPEA_W@Z 000000018000f050 f   SpeechSynthesisImpl.obj
 0001:0000e064       ?put_Volume@COPOSSpeechSynthesis@@UEAAJJ@Z 000000018000f064 f   SpeechSynthesisImpl.obj
 0001:0000e078       ?s_EventWindowProc@COPOSSpeechSynthesis@@KA_JPEAUHWND__@@I_K_J@Z 000000018000f078 f i SpeechSynthesisImpl.obj
 0001:0000e0f4       ??_U@YAPEAX_K@Z            000000018000f0f4 f   LIBCMT:new_array.obj
 0001:0000e0fc       ??3@YAXPEAX_K@Z            000000018000f0fc f   LIBCMT:delete_scalar_size.obj
 0001:0000e0fc       ??_V@YAXPEAX@Z             000000018000f0fc f   LIBCMT:delete_array.obj
 0001:0000e104       ??_V@YAXPEAX_K@Z           000000018000f104 f   LIBCMT:delete_array_size.obj
 0001:0000e10c       __scrt_acquire_startup_lock 000000018000f10c f   LIBCMT:utility.obj
 0001:0000e148       __scrt_dllmain_after_initialize_c 000000018000f148 f   LIBCMT:utility.obj
 0001:0000e17c       __scrt_dllmain_before_initialize_c 000000018000f17c f   LIBCMT:utility.obj
 0001:0000e194       __scrt_dllmain_crt_thread_attach 000000018000f194 f   LIBCMT:utility.obj
 0001:0000e1bc       __scrt_dllmain_crt_thread_detach 000000018000f1bc f   LIBCMT:utility.obj
 0001:0000e1d4       __scrt_dllmain_exception_filter 000000018000f1d4 f   LIBCMT:utility.obj
 0001:0000e234       __scrt_dllmain_uninitialize_c 000000018000f234 f   LIBCMT:utility.obj
 0001:0000e264       __scrt_dllmain_uninitialize_critical 000000018000f264 f   LIBCMT:utility.obj
 0001:0000e278       __scrt_initialize_crt      000000018000f278 f   LIBCMT:utility.obj
 0001:0000e2c4       __scrt_initialize_onexit_tables 000000018000f2c4 f   LIBCMT:utility.obj
 0001:0000e350       __scrt_is_nonwritable_in_current_image 000000018000f350 f   LIBCMT:utility.obj
 0001:0000e3e8       __scrt_release_startup_lock 000000018000f3e8 f   LIBCMT:utility.obj
 0001:0000e40c       __scrt_uninitialize_crt    000000018000f40c f   LIBCMT:utility.obj
 0001:0000e438       _onexit                    000000018000f438 f   LIBCMT:utility.obj
 0001:0000e474       atexit                     000000018000f474 f   LIBCMT:utility.obj
 0001:0000e48c       ??3@YAXPEAX@Z              000000018000f48c f   LIBCMT:delete_scalar.obj
 0001:0000e58c       _Init_thread_footer        000000018000f58c f   LIBCMT:thread_safe_statics.obj
 0001:0000e5ec       _Init_thread_header        000000018000f5ec f   LIBCMT:thread_safe_statics.obj
 0001:0000e654       _Init_thread_notify        000000018000f654 f   LIBCMT:thread_safe_statics.obj
 0001:0000e698       _Init_thread_wait          000000018000f698 f   LIBCMT:thread_safe_statics.obj
 0001:0000e6fc       __raise_securityfailure    000000018000f6fc f   LIBCMT:gs_report.obj
 0001:0000e730       __report_gsfailure         000000018000f730 f   LIBCMT:gs_report.obj
 0001:0000e804       __report_rangecheckfailure 000000018000f804 f   LIBCMT:gs_report.obj
 0001:0000e818       __report_securityfailure   000000018000f818 f   LIBCMT:gs_report.obj
 0001:0000e998       ??2@YAPEAX_KAEBUnothrow_t@std@@@Z 000000018000f998 f   LIBCMT:new_scalar_nothrow.obj
 0001:0000e9ac       ??_U@YAPEAX_KAEBUnothrow_t@std@@@Z 000000018000f9ac f   LIBCMT:new_array_nothrow.obj
 0001:0000e9b4       __GSHandlerCheck           000000018000f9b4 f   LIBCMT:gshandler.obj
 0001:0000e9d4       __GSHandlerCheckCommon     000000018000f9d4 f   LIBCMT:gshandler.obj
 0001:0000ea30       __GSHandlerCheck_SEH       000000018000fa30 f   LIBCMT:gshandlerseh.obj
 0001:0000ead0       __chkstk                   000000018000fad0 f   LIBCMT:chkstk.obj
 0001:0000ead0       _alloca_probe              000000018000fad0 f   LIBCMT:chkstk.obj
 0001:0000eb40       __security_check_cookie    000000018000fb40 f   LIBCMT:amdsecgs.obj
 0001:0000ee84       _DllMainCRTStartup         000000018000fe84 f   LIBCMT:dll_dllmain.obj
 0001:0000eec4       ??2@YAPEAX_K@Z             000000018000fec4 f   LIBCMT:new_scalar.obj
 0001:0000ef00       __isa_available_init       000000018000ff00 f   LIBCMT:cpu_disp.obj
 0001:0000f0a4       __scrt_is_ucrt_dll_in_use  00000001800100a4 f   LIBCMT:ucrt_detection.obj
 0001:0000f0b0       __crt_debugger_hook        00000001800100b0 f   LIBCMT:utility_desktop.obj
 0001:0000f0b8       __scrt_fastfail            00000001800100b8 f   LIBCMT:utility_desktop.obj
 0001:0000f204       __security_init_cookie     0000000180010204 f   LIBCMT:gs_support.obj
 0001:0000f2b0       ?__scrt_initialize_type_info@@YAXXZ 00000001800102b0 f   LIBCMT:tncleanup.obj
 0001:0000f2c0       ?__scrt_uninitialize_type_info@@YAXXZ 00000001800102c0 f   LIBCMT:tncleanup.obj
 0001:0000f2cc       __local_stdio_scanf_options 00000001800102cc f i LIBCMT:default_local_stdio_options.obj
 0001:0000f2d4       __scrt_initialize_default_local_stdio_options 00000001800102d4 f   LIBCMT:default_local_stdio_options.obj
 0001:0000f2f0       __scrt_get_dyn_tls_init_callback 00000001800102f0 f   LIBCMT:dyn_tls_init.obj
 0001:0000f2f8       _RTC_Initialize            00000001800102f8 f   LIBCMT:initsect.obj
 0001:0000f334       _RTC_Terminate             0000000180010334 f   LIBCMT:initsect.obj
 0001:0000f370       ??0bad_alloc@std@@QEAA@AEBV01@@Z 0000000180010370 f i LIBCMT:throw_bad_alloc.obj
 0001:0000f3ac       ??0bad_alloc@std@@QEAA@XZ  00000001800103ac f i LIBCMT:throw_bad_alloc.obj
 0001:0000f3cc       ??0bad_array_new_length@std@@QEAA@AEBV01@@Z 00000001800103cc f i LIBCMT:throw_bad_alloc.obj
 0001:0000f408       ??0bad_array_new_length@std@@QEAA@XZ 0000000180010408 f i LIBCMT:throw_bad_alloc.obj
 0001:0000f428       ??0exception@std@@QEAA@AEBV01@@Z 0000000180010428 f i LIBCMT:throw_bad_alloc.obj
 0001:0000f45c       ??1bad_alloc@std@@UEAA@XZ  000000018001045c f i LIBCMT:throw_bad_alloc.obj
 0001:0000f45c       ??1bad_exception@std@@UEAA@XZ 000000018001045c f i libvcruntime:frame.obj
 0001:0000f45c       ??1bad_array_new_length@std@@UEAA@XZ 000000018001045c f i LIBCMT:throw_bad_alloc.obj
 0001:0000f470       ??_Ebad_array_new_length@std@@UEAAPEAXI@Z 0000000180010470 f i LIBCMT:throw_bad_alloc.obj
 0001:0000f470       ??_Eexception@std@@UEAAPEAXI@Z 0000000180010470 f i LIBCMT:throw_bad_alloc.obj
 0001:0000f470       ??_Ebad_alloc@std@@UEAAPEAXI@Z 0000000180010470 f i LIBCMT:throw_bad_alloc.obj
 0001:0000f470       ??_Gbad_alloc@std@@UEAAPEAXI@Z 0000000180010470 f i LIBCMT:throw_bad_alloc.obj
 0001:0000f470       ??_Gbad_array_new_length@std@@UEAAPEAXI@Z 0000000180010470 f i LIBCMT:throw_bad_alloc.obj
 0001:0000f470       ??_Ebad_exception@std@@UEAAPEAXI@Z 0000000180010470 f i libvcruntime:frame.obj
 0001:0000f470       ??_Gbad_exception@std@@UEAAPEAXI@Z 0000000180010470 f i libvcruntime:frame.obj
 0001:0000f470       ??_Gexception@std@@UEAAPEAXI@Z 0000000180010470 f i LIBCMT:throw_bad_alloc.obj
 0001:0000f4b4       ?__scrt_throw_std_bad_alloc@@YAXXZ 00000001800104b4 f   LIBCMT:throw_bad_alloc.obj
 0001:0000f4d4       ?__scrt_throw_std_bad_array_new_length@@YAXXZ 00000001800104d4 f   LIBCMT:throw_bad_alloc.obj
 0001:0000f4f4       ?what@exception@std@@UEBAPEBDXZ 00000001800104f4 f i LIBCMT:throw_bad_alloc.obj
 0001:0000f510       ??_Etype_info@@UEAAPEAXI@Z 0000000180010510 f i LIBCMT:std_type_info_static.obj
 0001:0000f510       ??_Gtype_info@@UEAAPEAXI@Z 0000000180010510 f i LIBCMT:std_type_info_static.obj
 0001:0000f53c       ??0CAtlBaseModule@ATL@@QEAA@XZ 000000018001053c f   atls:atlbase.obj
 0001:0000f5e4       ??1CAtlBaseModule@ATL@@QEAA@XZ 00000001800105e4 f   atls:atlbase.obj
 0001:0000f718       ?__AllocStdCallThunk_cmn@@YAPEAXXZ 0000000180010718 f   atls:atlthunk.obj
 0001:0000f870       AtlThunk_AllocateData      0000000180010870 f   atls:atlthunk.obj
 0001:0000f8ec       AtlThunk_DataToCode        00000001800108ec f   atls:atlthunk.obj
 0001:0000f940       AtlThunk_FreeData          0000000180010940 f   atls:atlthunk.obj
 0001:0000f9a0       AtlThunk_InitData          00000001800109a0 f   atls:atlthunk.obj
 0001:0000fa48       _get_purecall_handler      0000000180010a48 f   libvcruntime:purevirt.obj
 0001:0000fa50       _purecall                  0000000180010a50 f   libvcruntime:purevirt.obj
 0001:0000fa6c       wcsstr                     0000000180010a6c f   libvcruntime:wcsstr.obj
 0001:0000fca0       memcmp                     0000000180010ca0 f   libvcruntime:memcmp.obj
 0001:0000fd80       memcpy_repmovs             0000000180010d80 f   libvcruntime:memcpy.obj
 0001:0000fda0       memmove                    0000000180010da0 f   libvcruntime:memcpy.obj
 0001:0000fda0       memcpy                     0000000180010da0 f   libvcruntime:memcpy.obj
 0001:00010190       memset_repmovs             0000000180011190 f   libvcruntime:memset.obj
 0001:000101b0       memset                     00000001800111b0 f   libvcruntime:memset.obj
 0001:00010340       __vcrt_initialize          0000000180011340 f   libvcruntime:initialization.obj
 0001:00010368       __vcrt_thread_attach       0000000180011368 f   libvcruntime:initialization.obj
 0001:0001037c       __vcrt_thread_detach       000000018001137c f   libvcruntime:initialization.obj
 0001:00010390       __vcrt_uninitialize        0000000180011390 f   libvcruntime:initialization.obj
 0001:000103ac       __vcrt_uninitialize_critical 00000001800113ac f   libvcruntime:initialization.obj
 0001:000103bc       __C_specific_handler       00000001800113bc f   libvcruntime:riscchandler.obj
 0001:000105c8       ??$_CallSETranslator@V__FrameHandler4@@@@YAHPEAUEHExceptionRecord@@PEA_KPEAU_CONTEXT@@PEAU_xDISPATCHER_CONTEXT@@PEAUFuncInfo4@FH4@@K1H@Z 00000001800115c8 f i libvcruntime:risctrnsctrl.obj
 0001:0001061c       ?DecompFuncInfo@FH4@@YA_JPEAEAEAUFuncInfo4@1@_KH_N@Z 000000018001161c f i libvcruntime:risctrnsctrl.obj
 0001:00010740       ?ExecutionInCatch@__FrameHandler4@@SA_NPEAU_xDISPATCHER_CONTEXT@@PEAUFuncInfo4@FH4@@@Z 0000000180011740 f   libvcruntime:risctrnsctrl.obj
 0001:00010748       ?FrameUnwindToEmptyState@__FrameHandler4@@SAXPEA_KPEAU_xDISPATCHER_CONTEXT@@PEAUFuncInfo4@FH4@@@Z 0000000180011748 f   libvcruntime:risctrnsctrl.obj
 0001:0001077c       ?GetEstablisherFrame@__FrameHandler4@@SAPEA_KPEA_KPEAU_xDISPATCHER_CONTEXT@@PEAUFuncInfo4@FH4@@0@Z 000000018001177c f   libvcruntime:risctrnsctrl.obj
 0001:000107a0       ?GetRangeOfTrysToCheck@__FrameHandler4@@SA?AU?$pair@Viterator@TryBlockMap4@FH4@@V123@@std@@AEAVTryBlockMap4@FH4@@HPEAU_xDISPATCHER_CONTEXT@@PEAUFuncInfo4@5@H@Z 00000001800117a0 f   libvcruntime:risctrnsctrl.obj
 0001:00010908       ?UnwindNestedFrames@__FrameHandler4@@SAXPEA_KPEAUEHExceptionRecord@@PEAU_CONTEXT@@0PEAXPEAUFuncInfo4@FH4@@HHPEAUHandlerType4@5@PEAU_xDISPATCHER_CONTEXT@@E@Z 0000000180011908 f   libvcruntime:risctrnsctrl.obj
 0001:00010a28       ?setBuffer@TryBlockMap4@FH4@@QEAAXViterator@12@@Z 0000000180011a28 f i libvcruntime:risctrnsctrl.obj
 0001:00010be8       _CreateFrameInfo           0000000180011be8 f   libvcruntime:risctrnsctrl.obj
 0001:00010c24       _FindAndUnlinkFrame        0000000180011c24 f   libvcruntime:risctrnsctrl.obj
 0001:00010c78       _GetImageBase              0000000180011c78 f   libvcruntime:risctrnsctrl.obj
 0001:00010c8c       _GetThrowImageBase         0000000180011c8c f   libvcruntime:risctrnsctrl.obj
 0001:00010ca0       _SetImageBase              0000000180011ca0 f   libvcruntime:risctrnsctrl.obj
 0001:00010cb8       _SetThrowImageBase         0000000180011cb8 f   libvcruntime:risctrnsctrl.obj
 0001:00010cd0       __CxxFrameHandler4         0000000180011cd0 f   libvcruntime:risctrnsctrl.obj
 0001:00010d90       __DestructExceptionObject  0000000180011d90 f   libvcruntime:ehhelpers.obj
 0001:00010e00       ?_CallMemberFunction0@@YAXQEAX0@Z 0000000180011e00 f i libvcruntime:ehhelpers.obj
 0001:00010e04       _IsExceptionObjectToBeDestroyed 0000000180011e04 f   libvcruntime:ehhelpers.obj
 0001:00010e34       __AdjustPointer            0000000180011e34 f   libvcruntime:ehhelpers.obj
 0001:00010e58       __FrameUnwindFilter        0000000180011e58 f   libvcruntime:ehhelpers.obj
 0001:00010ec0       __std_type_info_compare    0000000180011ec0 f   libvcruntime:std_type_info.obj
 0001:00010ee8       __std_type_info_destroy_list 0000000180011ee8 f   libvcruntime:std_type_info.obj
 0001:00010f14       __std_exception_copy       0000000180011f14 f   libvcruntime:std_exception.obj
 0001:00010fa4       __std_exception_destroy    0000000180011fa4 f   libvcruntime:std_exception.obj
 0001:00010fcc       _CxxThrowException         0000000180011fcc f   libvcruntime:throw.obj
 0001:0001106c       __vcrt_freefls             000000018001206c f   libvcruntime:per_thread_data.obj
 0001:0001108c       __vcrt_freeptd             000000018001208c f   libvcruntime:per_thread_data.obj
 0001:000110dc       __vcrt_getptd              00000001800120dc f   libvcruntime:per_thread_data.obj
 0001:000110f8       __vcrt_getptd_noexit       00000001800120f8 f   libvcruntime:per_thread_data.obj
 0001:000111b8       __vcrt_initialize_ptd      00000001800121b8 f   libvcruntime:per_thread_data.obj
 0001:00011200       __vcrt_uninitialize_ptd    0000000180012200 f   libvcruntime:per_thread_data.obj
 0001:00011224       __vcrt_initialize_locks    0000000180012224 f   libvcruntime:locks.obj
 0001:00011258       __vcrt_uninitialize_locks  0000000180012258 f   libvcruntime:locks.obj
 0001:000112a0       _NLG_Notify                00000001800122a0 f   libvcruntime:notify.obj
 0001:000112c0       __NLG_Dispatch2            00000001800122c0 f   libvcruntime:notify.obj
 0001:000112d0       __NLG_Return2              00000001800122d0 f   libvcruntime:notify.obj
 0001:000112d4       __except_validate_context_record 00000001800122d4 f   libvcruntime:jbcxrval.obj
 0001:0001130c       ?StateFromControlPc@__FrameHandler4@@SAHPEAUFuncInfo4@FH4@@PEAU_xDISPATCHER_CONTEXT@@@Z 000000018001230c f   libvcruntime:ehstate.obj
 0001:00011314       ?StateFromIp@__FrameHandler4@@SAHPEAUFuncInfo4@FH4@@PEAU_xDISPATCHER_CONTEXT@@_K@Z 0000000180012314 f   libvcruntime:ehstate.obj
 0001:00011f98       ??$TypeMatchHelper@V__FrameHandler3@@@@YAHPEBU_s_HandlerType@@PEBU_s_CatchableType@@PEBU_s_ThrowInfo@@@Z 0000000180012f98 f i libvcruntime:frame.obj
 0001:000120d8       ??$TypeMatchHelper@V__FrameHandler4@@@@YAHPEAUHandlerType4@FH4@@PEBU_s_CatchableType@@PEBU_s_ThrowInfo@@@Z 00000001800130d8 f i libvcruntime:frame.obj
 0001:0001221c       ??$__InternalCxxFrameHandler@V__FrameHandler4@@@@YA?AW4_EXCEPTION_DISPOSITION@@PEAUEHExceptionRecord@@PEA_KPEAU_CONTEXT@@PEAU_xDISPATCHER_CONTEXT@@PEAUFuncInfo4@FH4@@H1E@Z 000000018001321c f i libvcruntime:frame.obj
 0001:000124b0       ??0HandlerMap4@FH4@@QEAA@PEBUTryBlockMapEntry4@1@_KH@Z 00000001800134b0 f i libvcruntime:frame.obj
 0001:0001252c       ??0TryBlockMap4@FH4@@QEAA@PEBUFuncInfo4@1@_K@Z 000000018001352c f i libvcruntime:frame.obj
 0001:00012604       ??0bad_exception@std@@QEAA@AEBV01@@Z 0000000180013604 f i libvcruntime:frame.obj
 0001:00012640       ??0bad_exception@std@@QEAA@XZ 0000000180013640 f i libvcruntime:frame.obj
 0001:00012660       ?CxxCallCatchBlock@__FrameHandler4@@SAPEAXPEAU_EXCEPTION_RECORD@@@Z 0000000180013660 f   libvcruntime:frame.obj
 0001:000128b0       ?DecompHandler@HandlerMap4@FH4@@AEAAXXZ 00000001800138b0 f i libvcruntime:frame.obj
 0001:00012af0       ?FrameUnwindToState@__FrameHandler4@@SAXPEA_KPEAU_xDISPATCHER_CONTEXT@@PEAUFuncInfo4@FH4@@H@Z 0000000180013af0 f   libvcruntime:frame.obj
 0001:00012f50       ?ReadEntry@UWMap4@FH4@@AEAAXPEAPEAE@Z 0000000180013f50 f i libvcruntime:frame.obj
 0001:00012ff0       ?_CallMemberFunction1@@YAXQEAX00@Z 0000000180013ff0 f i libvcruntime:frame.obj
 0001:00012ffc       ?_CallMemberFunction2@@YAXQEAX00H@Z 0000000180013ffc f i libvcruntime:frame.obj
 0001:0001300c       ?getStartStop@UWMap4@FH4@@QEAAXHHAEAViterator@12@0@Z 000000018001400c f i libvcruntime:frame.obj
 0001:000130dc       ?getStateFromIterators@UWMap4@FH4@@SAHAEBViterator@12@H0H0@Z 00000001800140dc f i libvcruntime:frame.obj
 0001:000132f0       __vcrt_FlsAlloc            00000001800142f0 f   libvcruntime:winapi_downlevel.obj
 0001:00013338       __vcrt_FlsFree             0000000180014338 f   libvcruntime:winapi_downlevel.obj
 0001:00013380       __vcrt_FlsGetValue         0000000180014380 f   libvcruntime:winapi_downlevel.obj
 0001:000133c8       __vcrt_FlsSetValue         00000001800143c8 f   libvcruntime:winapi_downlevel.obj
 0001:0001341c       __vcrt_InitializeCriticalSectionEx 000000018001441c f   libvcruntime:winapi_downlevel.obj
 0001:00013490       _CallSettingFrame          0000000180014490 f   libvcruntime:handlers.obj
 0001:000134e0       _CallSettingFrame_LookupContinuationIndex 00000001800144e0 f   libvcruntime:handlers.obj
 0001:00013510       _CallSettingFrame_NotifyContinuationAddr 0000000180014510 f   libvcruntime:handlers.obj
 0001:00013540       _CallSettingFrameEncoded   0000000180014540 f   libvcruntime:handlers.obj
 0001:00013588       free                       0000000180014588 f   libucrt:free.obj
 0001:0001359c       __acrt_call_reportfault    000000018001459c f   libucrt:invalid_parameter.obj
 0001:000136f8       __acrt_initialize_invalid_parameter_handler 00000001800146f8 f   libucrt:invalid_parameter.obj
 0001:00013700       _invalid_parameter         0000000180014700 f   libucrt:invalid_parameter.obj
 0001:000137b0       _invalid_parameter_noinfo  00000001800147b0 f   libucrt:invalid_parameter.obj
 0001:000137d0       _invoke_watson             00000001800147d0 f   libucrt:invalid_parameter.obj
 0001:00013818       __acrt_errno_from_os_error 0000000180014818 f   libucrt:errno.obj
 0001:00013860       __acrt_errno_map_os_error  0000000180014860 f   libucrt:errno.obj
 0001:000138b0       __doserrno                 00000001800148b0 f   libucrt:errno.obj
 0001:000138d0       _errno                     00000001800148d0 f   libucrt:errno.obj
 0001:000138f0       calloc                     00000001800148f0 f   libucrt:calloc.obj
 0001:000138f8       malloc                     00000001800148f8 f   libucrt:malloc.obj
 0001:00013900       _recalloc                  0000000180014900 f   libucrt:recalloc.obj
 0001:00013908       _recalloc_base             0000000180014908 f   libucrt:recalloc.obj
 0001:000139a0       _resetstkoflw              00000001800149a0 f   libucrt:resetstk.obj
 0001:00013acc       wcscat_s                   0000000180014acc f   libucrt:wcscat_s.obj
 0001:00013b4c       wcscpy_s                   0000000180014b4c f   libucrt:wcscpy_s.obj
 0001:00013bb4       wcsncpy_s                  0000000180014bb4 f   libucrt:wcsncpy_s.obj
 0001:00013e6c       ??$ensure_buffer_is_big_enough@D@formatting_buffer@__crt_stdio_output@@QEAA_N_K@Z 0000000180014e6c f i libucrt:output.obj
 0001:00013f14       ??$ensure_buffer_is_big_enough@_W@formatting_buffer@__crt_stdio_output@@QEAA_N_K@Z 0000000180014f14 f i libucrt:output.obj
 0001:00013fc0       ??$is_wide_character_specifier@_W@__crt_stdio_output@@YA_N_K_WW4length_modifier@0@@Z 0000000180014fc0 f i libucrt:output.obj
 0001:00014000       ??$type_case_integer_parse_into_buffer@I@?$output_processor@_WV?$string_output_adapter@_W@__crt_stdio_output@@V?$format_validation_base@_WV?$string_output_adapter@_W@__crt_stdio_output@@@2@@__crt_stdio_output@@AEAAXII_N@Z 0000000180015000 f i libucrt:output.obj
 0001:000140a4       ??$type_case_integer_parse_into_buffer@_K@?$output_processor@_WV?$string_output_adapter@_W@__crt_stdio_output@@V?$format_validation_base@_WV?$string_output_adapter@_W@__crt_stdio_output@@@2@@__crt_stdio_output@@AEAAX_KI_N@Z 00000001800150a4 f i libucrt:output.obj
 0001:00014148       ??$write_multiple_characters@V?$string_output_adapter@_W@__crt_stdio_output@@D@__crt_stdio_output@@YAXAEBV?$string_output_adapter@_W@0@DHQEAH@Z 0000000180015148 f i libucrt:output.obj
 0001:000141c0       ??0_LocaleUpdate@@QEAA@QEAU__crt_locale_pointers@@@Z 00000001800151c0 f i libucrt:output.obj
 0001:00014260       ?crop_zeroes@__crt_stdio_output@@YAXPEADQEAU__crt_locale_pointers@@@Z 0000000180015260 f i libucrt:output.obj
 0001:00014300       ?force_decimal_point@__crt_stdio_output@@YAXPEADQEAU__crt_locale_pointers@@@Z 0000000180015300 f i libucrt:output.obj
 0001:00014378       ?parse_int_from_format_string@?$output_processor@_WV?$string_output_adapter@_W@__crt_stdio_output@@V?$format_validation_base@_WV?$string_output_adapter@_W@__crt_stdio_output@@@2@@__crt_stdio_output@@AEAA_NQEAH@Z 0000000180015378 f i libucrt:output.obj
 0001:0001441c       ?process@?$output_processor@_WV?$string_output_adapter@_W@__crt_stdio_output@@V?$format_validation_base@_WV?$string_output_adapter@_W@__crt_stdio_output@@@2@@__crt_stdio_output@@QEAAHXZ 000000018001541c f i libucrt:output.obj
 0001:00014694       ?state_case_size@?$output_processor@_WV?$string_output_adapter@_W@__crt_stdio_output@@V?$format_validation_base@_WV?$string_output_adapter@_W@__crt_stdio_output@@@2@@__crt_stdio_output@@AEAA_NXZ 0000000180015694 f i libucrt:output.obj
 0001:00014828       ?state_case_type@?$output_processor@_WV?$string_output_adapter@_W@__crt_stdio_output@@V?$format_validation_base@_WV?$string_output_adapter@_W@__crt_stdio_output@@@2@@__crt_stdio_output@@AEAA_NXZ 0000000180015828 f i libucrt:output.obj
 0001:00014b00       ?to_integer_size@__crt_stdio_output@@YA_KW4length_modifier@1@@Z 0000000180015b00 f i libucrt:output.obj
 0001:00014b68       ?type_case_Z@?$output_processor@_WV?$string_output_adapter@_W@__crt_stdio_output@@V?$format_validation_base@_WV?$string_output_adapter@_W@__crt_stdio_output@@@2@@__crt_stdio_output@@AEAA_NXZ 0000000180015b68 f i libucrt:output.obj
 0001:00014be4       ?type_case_a@?$output_processor@_WV?$string_output_adapter@_W@__crt_stdio_output@@V?$format_validation_base@_WV?$string_output_adapter@_W@__crt_stdio_output@@@2@@__crt_stdio_output@@AEAA_NXZ 0000000180015be4 f i libucrt:output.obj
 0001:00014dc4       ?type_case_c_tchar@?$output_processor@_WV?$string_output_adapter@_W@__crt_stdio_output@@V?$format_validation_base@_WV?$string_output_adapter@_W@__crt_stdio_output@@@2@@__crt_stdio_output@@AEAA_N_W@Z 0000000180015dc4 f i libucrt:output.obj
 0001:00014e6c       ?type_case_integer@?$output_processor@_WV?$string_output_adapter@_W@__crt_stdio_output@@V?$format_validation_base@_WV?$string_output_adapter@_W@__crt_stdio_output@@@2@@__crt_stdio_output@@AEAA_NI_N@Z 0000000180015e6c f i libucrt:output.obj
 0001:00014ff4       ?type_case_n@?$output_processor@_WV?$string_output_adapter@_W@__crt_stdio_output@@V?$format_validation_base@_WV?$string_output_adapter@_W@__crt_stdio_output@@@2@@__crt_stdio_output@@AEAA_NXZ 0000000180015ff4 f i libucrt:output.obj
 0001:0001507c       ?type_case_s@?$output_processor@_WV?$string_output_adapter@_W@__crt_stdio_output@@V?$format_validation_base@_WV?$string_output_adapter@_W@__crt_stdio_output@@@2@@__crt_stdio_output@@AEAA_NXZ 000000018001607c f i libucrt:output.obj
 0001:00015144       ?write_stored_string_tchar@?$output_processor@_WV?$string_output_adapter@_W@__crt_stdio_output@@V?$format_validation_base@_WV?$string_output_adapter@_W@__crt_stdio_output@@@2@@__crt_stdio_output@@AEAA_N_W@Z 0000000180016144 f i libucrt:output.obj
 0001:0001522c       ?write_string@?$string_output_adapter@_W@__crt_stdio_output@@QEBAXQEB_WHQEAHAEAV__crt_deferred_errno_cache@@@Z 000000018001622c f i libucrt:output.obj
 0001:000152d4       __stdio_common_vswprintf_s 00000001800162d4 f   libucrt:output.obj
 0001:00015344       _seh_filter_dll            0000000180016344 f   libucrt:exception_filter.obj
 0001:00015358       _seh_filter_exe            0000000180016358 f   libucrt:exception_filter.obj
 0001:00015748       __acrt_initialize_thread_local_exit_callback 0000000180016748 f   libucrt:exit.obj
 0001:00015750       _cexit                     0000000180016750 f   libucrt:exit.obj
 0001:00015760       _exit                      0000000180016760 f   libucrt:exit.obj
 0001:0001576c       _is_c_termination_complete 000000018001676c f   libucrt:exit.obj
 0001:00015934       __acrt_allocate_buffer_for_argv 0000000180016934 f   libucrt:argv_parsing.obj
 0001:00015994       _configure_narrow_argv     0000000180016994 f   libucrt:argv_parsing.obj
 0001:00015d0c       __dcrt_uninitialize_environments_nolock 0000000180016d0c f   libucrt:environment_initialization.obj
 0001:00015d44       _initialize_narrow_environment 0000000180016d44 f   libucrt:environment_initialization.obj
 0001:0001608c       _crt_atexit                000000018001708c f   libucrt:onexit.obj
 0001:0001609c       _execute_onexit_table      000000018001709c f   libucrt:onexit.obj
 0001:000160d8       _initialize_onexit_table   00000001800170d8 f   libucrt:onexit.obj
 0001:00016100       _register_onexit_function  0000000180017100 f   libucrt:onexit.obj
 0001:00016180       __acrt_uninitialize_command_line 0000000180017180 f   libucrt:argv_data.obj
 0001:00016278       __acrt_initialize          0000000180017278 f   libucrt:initialization.obj
 0001:0001628c       __acrt_thread_attach       000000018001728c f   libucrt:initialization.obj
 0001:000162a0       __acrt_thread_detach       00000001800172a0 f   libucrt:initialization.obj
 0001:000162b0       __acrt_uninitialize        00000001800172b0 f   libucrt:initialization.obj
 0001:000162e8       __acrt_uninitialize_critical 00000001800172e8 f   libucrt:initialization.obj
 0001:000162f8       _initterm                  00000001800172f8 f   libucrt:initterm.obj
 0001:0001635c       _initterm_e                000000018001735c f   libucrt:initterm.obj
 0001:0001639c       __acrt_initialize_new_handler 000000018001739c f   libucrt:new_handler.obj
 0001:000163a4       _callnewh                  00000001800173a4 f   libucrt:new_handler.obj
 0001:000163d4       _query_new_handler         00000001800173d4 f   libucrt:new_handler.obj
 0001:00016408       terminate                  0000000180017408 f   libucrt:terminate.obj
 0001:00016428       abort                      0000000180017428 f   libucrt:abort.obj
 0001:00016480       strcpy_s                   0000000180017480 f   libucrt:strcpy_s.obj
 0001:000164e0       ??$parse_integer@KV?$c_string_character_source@_W@__crt_strtox@@@__crt_strtox@@YAKQEAU__crt_locale_pointers@@V?$c_string_character_source@_W@0@H_N@Z 00000001800174e0 f i libucrt:atox.obj
 0001:00016ba0       strncmp                    0000000180017ba0 f   libucrt:strncmp.obj
 0001:00016c20       wcsncmp                    0000000180017c20 f   libucrt:wcsncmp.obj
 0001:00016c4c       _free_base                 0000000180017c4c f   libucrt:free_base.obj
 0001:00017004       __acrt_freeptd             0000000180018004 f   libucrt:per_thread_data.obj
 0001:00017048       __acrt_getptd              0000000180018048 f   libucrt:per_thread_data.obj
 0001:0001711c       __acrt_getptd_head         000000018001811c f   libucrt:per_thread_data.obj
 0001:000171c4       __acrt_getptd_noexit       00000001800181c4 f   libucrt:per_thread_data.obj
 0001:00017290       __acrt_initialize_ptd      0000000180018290 f   libucrt:per_thread_data.obj
 0001:000172cc       __acrt_uninitialize_ptd    00000001800182cc f   libucrt:per_thread_data.obj
 0001:000172f0       _calloc_base               00000001800182f0 f   libucrt:calloc_base.obj
 0001:00017368       _malloc_base               0000000180018368 f   libucrt:malloc_base.obj
 0001:000173c8       _msize_base                00000001800183c8 f   libucrt:msize.obj
 0001:00017404       _realloc_base              0000000180018404 f   libucrt:realloc_base.obj
 0001:00017658       __acrt_AppPolicyGetProcessTerminationMethodInternal 0000000180018658 f   libucrt:winapi_thunks.obj
 0001:000176a8       __acrt_AreFileApisANSI     00000001800186a8 f   libucrt:winapi_thunks.obj
 0001:000176e4       __acrt_FlsAlloc            00000001800186e4 f   libucrt:winapi_thunks.obj
 0001:0001772c       __acrt_FlsFree             000000018001872c f   libucrt:winapi_thunks.obj
 0001:00017774       __acrt_FlsGetValue         0000000180018774 f   libucrt:winapi_thunks.obj
 0001:000177bc       __acrt_FlsSetValue         00000001800187bc f   libucrt:winapi_thunks.obj
 0001:00017810       __acrt_InitializeCriticalSectionEx 0000000180018810 f   libucrt:winapi_thunks.obj
 0001:00017874       __acrt_LCMapStringEx       0000000180018874 f   libucrt:winapi_thunks.obj
 0001:00017950       __acrt_LocaleNameToLCID    0000000180018950 f   libucrt:winapi_thunks.obj
 0001:000179a0       __acrt_SetThreadStackGuarantee 00000001800189a0 f   libucrt:winapi_thunks.obj
 0001:000179e4       __acrt_initialize_winapi_thunks 00000001800189e4 f   libucrt:winapi_thunks.obj
 0001:00017a18       __acrt_uninitialize_winapi_thunks 0000000180018a18 f   libucrt:winapi_thunks.obj
 0001:00017a5c       wcstol                     0000000180018a5c f   libucrt:strtox.obj
 0001:00017a88       _mbtowc_l                  0000000180018a88 f   libucrt:mbtowc.obj
 0001:00017c08       mbtowc                     0000000180018c08 f   libucrt:mbtowc.obj
 0001:00017c10       wcsnlen                    0000000180018c10 f   libucrt:strnlen.obj
 0001:00017de8       __acrt_update_locale_info  0000000180018de8 f   libucrt:locale_update.obj
 0001:00017e1c       __acrt_update_multibyte_info 0000000180018e1c f   libucrt:locale_update.obj
 0001:00018854       __acrt_fp_format           0000000180019854 f   libucrt:cvt.obj
 0001:00018b8c       _fileno                    0000000180019b8c f   libucrt:fileno.obj
 0001:00018bb4       __acrt_initialize_stdio    0000000180019bb4 f   libucrt:_file.obj
 0001:00018cd4       __acrt_uninitialize_stdio  0000000180019cd4 f   libucrt:_file.obj
 0001:00018d30       _lock_file                 0000000180019d30 f   libucrt:_file.obj
 0001:00018d3c       _unlock_file               0000000180019d3c f   libucrt:_file.obj
 0001:00018d48       _get_printf_count_output   0000000180019d48 f   libucrt:printf_count_output.obj
 0001:00018dd0       __acrt_set_locale_changed  0000000180019dd0 f   libucrt:wsetlocale.obj
 0001:00018ddc       __acrt_uninitialize_locale 0000000180019ddc f   libucrt:wsetlocale.obj
 0001:00019008       __acrt_initialize_lowio    000000018001a008 f   libucrt:ioinit.obj
 0001:00019044       __acrt_uninitialize_lowio  000000018001a044 f   libucrt:ioinit.obj
 0001:00019084       __acrt_initialize_locks    000000018001a084 f   libucrt:locks.obj
 0001:000190cc       __acrt_lock                000000018001a0cc f   libucrt:locks.obj
 0001:000190e8       __acrt_uninitialize_locks  000000018001a0e8 f   libucrt:locks.obj
 0001:00019120       __acrt_unlock              000000018001a120 f   libucrt:locks.obj
 0001:0001913c       __acrt_get_process_end_policy 000000018001a13c f   libucrt:win_policies.obj
 0001:0001918c       ??$__acrt_mbs_to_wcs_cp@U__crt_win32_buffer_internal_dynamic_resizing@@@@YAHQEBDAEAV?$__crt_win32_buffer@_WU__crt_win32_buffer_internal_dynamic_resizing@@@@I@Z 000000018001a18c f i libucrt:argv_wildcards.obj
 0001:00019304       ??$__acrt_wcs_to_mbs_cp@U__crt_win32_buffer_internal_dynamic_resizing@@@@YAHQEB_WAEAV?$__crt_win32_buffer@DU__crt_win32_buffer_internal_dynamic_resizing@@@@I@Z 000000018001a304 f i libucrt:argv_wildcards.obj
 0001:00019b34       __acrt_expand_narrow_argv_wildcards 000000018001ab34 f   libucrt:argv_wildcards.obj
 0001:00019b3c       ??$__acrt_wcs_to_mbs_cp@U__crt_win32_buffer_no_resizing@@@@YAHQEB_WAEAV?$__crt_win32_buffer@DU__crt_win32_buffer_no_resizing@@@@I@Z 000000018001ab3c f i libucrt:getmodulefilenamea.obj
 0001:00019c50       __acrt_GetModuleFileNameA  000000018001ac50 f   libucrt:getmodulefilenamea.obj
 0001:0001a498       __acrt_initialize_multibyte 000000018001b498 f   libucrt:mbctype.obj
 0001:0001a4f8       __acrt_update_thread_multibyte_data 000000018001b4f8 f   libucrt:mbctype.obj
 0001:0001a514       _setmbcp_nolock            000000018001b514 f   libucrt:mbctype.obj
 0001:0001a848       _ismbblead                 000000018001b848 f   libucrt:ismbbyte.obj
 0001:0001a85c       __acrt_initialize_command_line 000000018001b85c f   libucrt:argv_data.obj
 0001:0001a884       __acrt_MultiByteToWideChar 000000018001b884 f   libucrt:multibytetowidechar.obj
 0001:0001a8e0       __acrt_WideCharToMultiByte 000000018001b8e0 f   libucrt:widechartomultibyte.obj
 0001:0001a990       __dcrt_get_narrow_environment_from_os 000000018001b990 f   libucrt:get_environment_from_os.obj
 0001:0001aa94       __acrt_initialize_heap     000000018001ba94 f   libucrt:heap_handle.obj
 0001:0001aab0       __acrt_uninitialize_heap   000000018001bab0 f   libucrt:heap_handle.obj
 0001:0001aabc       __acrt_execute_initializers 000000018001babc f   libucrt:shared_initialization.obj
 0001:0001ab3c       __acrt_execute_uninitializers 000000018001bb3c f   libucrt:shared_initialization.obj
 0001:0001abc0       __acrt_get_sigabrt_handler 000000018001bbc0 f   libucrt:signal.obj
 0001:0001abf0       __acrt_initialize_signal_handlers 000000018001bbf0 f   libucrt:signal.obj
 0001:0001ac10       raise                      000000018001bc10 f   libucrt:signal.obj
 0001:0001ae7c       __acrt_has_user_matherr    000000018001be7c f   libucrt:matherr.obj
 0001:0001ae9c       __acrt_initialize_user_matherr 000000018001be9c f   libucrt:matherr.obj
 0001:0001aea4       __acrt_invoke_user_matherr 000000018001bea4 f   libucrt:matherr.obj
 0001:0001b0b0       __acrt_stdio_flush_nolock  000000018001c0b0 f   libucrt:fflush.obj
 0001:0001b12c       _fflush_nolock             000000018001c12c f   libucrt:fflush.obj
 0001:0001b178       _flushall                  000000018001c178 f   libucrt:fflush.obj
 0001:0001b180       __pctype_func              000000018001c180 f   libucrt:ctype.obj
 0001:0001b1b0       iswctype                   000000018001c1b0 f   libucrt:iswctype.obj
 0001:0001b21c       __acrt_add_locale_ref      000000018001c21c f   libucrt:locale_refcounting.obj
 0001:0001b2a8       __acrt_free_locale         000000018001c2a8 f   libucrt:locale_refcounting.obj
 0001:0001b420       __acrt_locale_add_lc_time_reference 000000018001c420 f   libucrt:locale_refcounting.obj
 0001:0001b448       __acrt_locale_free_lc_time_if_unreferenced 000000018001c448 f   libucrt:locale_refcounting.obj
 0001:0001b480       __acrt_locale_release_lc_time_reference 000000018001c480 f   libucrt:locale_refcounting.obj
 0001:0001b4a8       __acrt_release_locale_ref  000000018001c4a8 f   libucrt:locale_refcounting.obj
 0001:0001b550       __acrt_update_thread_locale_data 000000018001c550 f   libucrt:locale_refcounting.obj
 0001:0001b5c0       _updatetlocinfoEx_nolock   000000018001c5c0 f   libucrt:locale_refcounting.obj
 0001:0001b628       _query_new_mode            000000018001c628 f   libucrt:new_mode.obj
 0001:0001b630       __acrt_DownlevelLocaleNameToLCID 000000018001c630 f   libucrt:lcidtoname_downlevel.obj
 0001:0001b6e0       _isleadbyte_l              000000018001c6e0 f i libucrt:_wctype.obj
 0001:0001b72c       ?__mbrtowc_utf8@__crt_mbstring@@YA_KPEA_WPEBD_KPEAU_Mbstatet@@@Z 000000018001c72c f   libucrt:mbrtowc.obj
 0001:0001b768       ?__mbsrtowcs_utf8@__crt_mbstring@@YA_KPEA_WPEAPEBD_KPEAU_Mbstatet@@@Z 000000018001c768 f   libucrt:mbrtowc.obj
 0001:0001b8e0       __acrt_fp_strflt_to_string 000000018001c8e0 f   libucrt:_fptostr.obj
 0001:0001ba30       ?divide@__crt_strtox@@YA_KAEAUbig_integer@1@AEBU21@@Z 000000018001ca30 f i libucrt:cfout.obj
 0001:0001be5c       __acrt_fltout              000000018001ce5c f   libucrt:cfout.obj
 0001:0001d128       fegetround                 000000018001e128 f   libucrt:fegetround.obj
 0001:0001d13c       _fcloseall                 000000018001e13c f   libucrt:closeall.obj
 0001:0001d1f0       __acrt_stdio_free_buffer_nolock 000000018001e1f0 f   libucrt:_freebuf.obj
 0001:0001d230       _isatty                    000000018001e230 f   libucrt:isatty.obj
 0001:0001d290       __acrt_locale_free_monetary 000000018001e290 f   libucrt:initmon.obj
 0001:0001d39c       __acrt_locale_free_numeric 000000018001e39c f   libucrt:initnum.obj
 0001:0001d460       __acrt_locale_free_time    000000018001e460 f   libucrt:inittime.obj
 0001:0001d568       __acrt_GetStringTypeA      000000018001e568 f   libucrt:getstringtypea.obj
 0001:0001d6f8       __acrt_lowio_create_handle_array 000000018001e6f8 f   libucrt:osfinfo.obj
 0001:0001d7a0       __acrt_lowio_destroy_handle_array 000000018001e7a0 f   libucrt:osfinfo.obj
 0001:0001d7f0       __acrt_lowio_ensure_fh_exists 000000018001e7f0 f   libucrt:osfinfo.obj
 0001:0001d898       __acrt_lowio_lock_fh       000000018001e898 f   libucrt:osfinfo.obj
 0001:0001d8c0       __acrt_lowio_unlock_fh     000000018001e8c0 f   libucrt:osfinfo.obj
 0001:0001d8e8       _free_osfhnd               000000018001e8e8 f   libucrt:osfinfo.obj
 0001:0001d9a4       _get_osfhandle             000000018001e9a4 f   libucrt:osfinfo.obj
 0001:0001da20       qsort                      000000018001ea20 f   libucrt:qsort.obj
 0001:0001ddc0       strncpy_s                  000000018001edc0 f   libucrt:strncpy_s.obj
 0001:0001df40       strpbrk                    000000018001ef40 f   libucrt:strpbrk.obj
 0001:0001e308       _mbsdec                    000000018001f308 f   libucrt:mbsdec.obj
 0001:0001e310       _mbsdec_l                  000000018001f310 f   libucrt:mbsdec.obj
 0001:0001e6bc       __acrt_LCMapStringA        000000018001f6bc f   libucrt:lcmapstringa.obj
 0001:0001e7f8       _commit                    000000018001f7f8 f   libucrt:commit.obj
 0001:0001f108       _write                     0000000180020108 f   libucrt:write.obj
 0001:0001f1f4       _write_nolock              00000001800201f4 f   libucrt:write.obj
 0001:0001f4d8       __acrt_GetStringTypeW      00000001800204d8 f   libucrt:getstringtypew.obj
 0001:0001f4e0       __ascii_wcsnicmp           00000001800204e0 f   libucrt:wcsnicmp.obj
 0001:0001f52c       ?__mbrtoc32_utf8@__crt_mbstring@@YA_KPEA_UPEBD_KPEAU_Mbstatet@@@Z 000000018002052c f   libucrt:mbrtoc32.obj
 0001:0001f704       _controlfp_s               0000000180020704 f   libucrt:contrlfp.obj
 0001:0001f768       fegetenv                   0000000180020768 f   libucrt:fegetenv.obj
 0001:0001f788       fesetenv                   0000000180020788 f   libucrt:fesetenv.obj
 0001:0001f7d4       feholdexcept               00000001800207d4 f   libucrt:feholdexcept.obj
 0001:0001f824       ceil                       0000000180020824 f   libucrt:ceil.obj
 0001:0001f8f0       log10                      00000001800208f0 f   libucrt:log10.obj
 0001:0001fe9c       __acrt_fenv_get_common_round_control 0000000180020e9c f   libucrt:_fenvutils.obj
 0001:0001fea8       __acrt_fenv_get_control    0000000180020ea8 f   libucrt:_fenvutils.obj
 0001:0001ff9c       __acrt_fenv_get_status     0000000180020f9c f   libucrt:_fenvutils.obj
 0001:0001fff0       __acrt_fenv_set_control    0000000180020ff0 f   libucrt:_fenvutils.obj
 0001:00020138       __acrt_fenv_set_status     0000000180021138 f   libucrt:_fenvutils.obj
 0001:00020258       _lseeki64_nolock           0000000180021258 f   libucrt:lseek.obj
 0001:00020260       _fclose_nolock             0000000180021260 f   libucrt:fclose.obj
 0001:000202e4       fclose                     00000001800212e4 f   libucrt:fclose.obj
 0001:00020348       _query_app_type            0000000180021348 f   libucrt:report_runtime_error.obj
 0001:00020350       __strncnt                  0000000180021350 f   libucrt:strncnt.obj
 0001:00020368       _putwch_nolock             0000000180021368 f   libucrt:putwch.obj
 0001:000203a4       _clearfp                   00000001800213a4 f   libucrt:ieee.obj
 0001:00020414       _control87                 0000000180021414 f   libucrt:ieee.obj
 0001:00020800       _handle_error              0000000180021800 f   libucrt:libm_error.obj
 0001:00020928       _handle_nan                0000000180021928 f   libucrt:libm_error.obj
 0001:00020950       __acrt_initialize_fma3     0000000180021950 f   libucrt:fma3_available.obj
 0001:000209c0       _log10_special             00000001800219c0 f   libucrt:log_special.obj
 0001:00020aec       _close                     0000000180021aec f   libucrt:close.obj
 0001:00020b90       _close_nolock              0000000180021b90 f   libucrt:close.obj
 0001:00020c50       ?__acrt_stdio_free_stream@@YAXV__crt_stdio_stream@@@Z 0000000180021c50 f   libucrt:stream.obj
 0001:00020c6c       __dcrt_lowio_ensure_console_output_initialized 0000000180021c6c f   libucrt:initcon.obj
 0001:00020cc0       __dcrt_terminate_console_output 0000000180021cc0 f   libucrt:initcon.obj
 0001:00020cdc       __dcrt_write_console       0000000180021cdc f   libucrt:initcon.obj
 0001:00020db0       _get_fpsr                  0000000180021db0 f   libucrt:fpsr.obj
 0001:00020dc0       _set_fpsr                  0000000180021dc0 f   libucrt:fpsr.obj
 0001:00020dca       _fclrf                     0000000180021dca f   libucrt:fpsr.obj
 0001:00020dde       _frnd                      0000000180021dde f   libucrt:fpsr.obj
 0001:00020e00       _raise_exc                 0000000180021e00 f   libucrt:fpexcept.obj
 0001:00020e28       _raise_exc_ex              0000000180021e28 f   libucrt:fpexcept.obj
 0001:00021138       _set_errno_from_matherr    0000000180022138 f   libucrt:fpexcept.obj
 0001:00021168       _clrfp                     0000000180022168 f   libucrt:fpctrl.obj
 0001:00021188       _ctrlfp                    0000000180022188 f   libucrt:fpctrl.obj
 0001:00021204       _set_statfp                0000000180022204 f   libucrt:fpctrl.obj
 0001:00021224       _statfp                    0000000180022224 f   libucrt:fpctrl.obj
 0001:00021235       IsProcessorFeaturePresent  0000000180022235 f   kernel32:KERNEL32.dll
 0001:00021240       _FindPESection             0000000180022240 f   LIBCMT:pesect.obj
 0001:00021290       _IsNonwritableInCurrentImage 0000000180022290 f   LIBCMT:pesect.obj
 0001:000212e0       _ValidateImageBase         00000001800222e0 f   LIBCMT:pesect.obj
 0001:00021310       strrchr                    0000000180022310 f   libvcruntime:strrchr.obj
 0001:00021450       _guard_dispatch_icall_nop  0000000180022450 f   LIBCMT:guard_dispatch.obj
 0001:00021470       _guard_xfg_dispatch_icall_nop 0000000180022470 f   LIBCMT:guard_xfg_dispatch.obj
 0002:00000000       __imp_RegQueryValueExW     0000000180023000     advapi32:ADVAPI32.dll
 0002:00000008       __imp_RegSetValueExW       0000000180023008     advapi32:ADVAPI32.dll
 0002:00000010       __imp_RegQueryInfoKeyW     0000000180023010     advapi32:ADVAPI32.dll
 0002:00000018       __imp_RegOpenKeyExW        0000000180023018     advapi32:ADVAPI32.dll
 0002:00000020       __imp_RegEnumKeyExW        0000000180023020     advapi32:ADVAPI32.dll
 0002:00000028       __imp_RegDeleteValueW      0000000180023028     advapi32:ADVAPI32.dll
 0002:00000030       __imp_RegDeleteKeyW        0000000180023030     advapi32:ADVAPI32.dll
 0002:00000038       __imp_RegCreateKeyExW      0000000180023038     advapi32:ADVAPI32.dll
 0002:00000040       __imp_RegCloseKey          0000000180023040     advapi32:ADVAPI32.dll
 0002:00000048       \177ADVAPI32_NULL_THUNK_DATA 0000000180023048     advapi32:ADVAPI32.dll
 0002:00000050       __imp_GetObjectW           0000000180023050     gdi32:GDI32.dll
 0002:00000058       __imp_SelectObject         0000000180023058     gdi32:GDI32.dll
 0002:00000060       __imp_DeleteObject         0000000180023060     gdi32:GDI32.dll
 0002:00000068       __imp_CreateCompatibleDC   0000000180023068     gdi32:GDI32.dll
 0002:00000070       __imp_BitBlt               0000000180023070     gdi32:GDI32.dll
 0002:00000078       __imp_SetWindowOrgEx       0000000180023078     gdi32:GDI32.dll
 0002:00000080       __imp_SetWindowExtEx       0000000180023080     gdi32:GDI32.dll
 0002:00000088       __imp_SetViewportOrgEx     0000000180023088     gdi32:GDI32.dll
 0002:00000090       __imp_LPtoDP               0000000180023090     gdi32:GDI32.dll
 0002:00000098       __imp_SetMapMode           0000000180023098     gdi32:GDI32.dll
 0002:000000a0       __imp_SaveDC               00000001800230a0     gdi32:GDI32.dll
 0002:000000a8       __imp_RestoreDC            00000001800230a8     gdi32:GDI32.dll
 0002:000000b0       __imp_GetDeviceCaps        00000001800230b0     gdi32:GDI32.dll
 0002:000000b8       __imp_DeleteMetaFile       00000001800230b8     gdi32:GDI32.dll
 0002:000000c0       __imp_DeleteDC             00000001800230c0     gdi32:GDI32.dll
 0002:000000c8       __imp_CreateRectRgnIndirect 00000001800230c8     gdi32:GDI32.dll
 0002:000000d0       __imp_CreateMetaFileW      00000001800230d0     gdi32:GDI32.dll
 0002:000000d8       __imp_CreateDCW            00000001800230d8     gdi32:GDI32.dll
 0002:000000e0       __imp_CloseMetaFile        00000001800230e0     gdi32:GDI32.dll
 0002:000000e8       \177GDI32_NULL_THUNK_DATA  00000001800230e8     gdi32:GDI32.dll
 0002:000000f0       __imp_CloseHandle          00000001800230f0     kernel32:KERNEL32.dll
 0002:000000f8       __imp_SetEvent             00000001800230f8     kernel32:KERNEL32.dll
 0002:00000100       __imp_CreateMutexW         0000000180023100     kernel32:KERNEL32.dll
 0002:00000108       __imp_CreateEventW         0000000180023108     kernel32:KERNEL32.dll
 0002:00000110       __imp_GetCurrentProcessId  0000000180023110     kernel32:KERNEL32.dll
 0002:00000118       __imp_WriteConsoleW        0000000180023118     kernel32:KERNEL32.dll
 0002:00000120       __imp_CreateFileW          0000000180023120     kernel32:KERNEL32.dll
 0002:00000128       __imp_GetConsoleMode       0000000180023128     kernel32:KERNEL32.dll
 0002:00000130       __imp_GetConsoleOutputCP   0000000180023130     kernel32:KERNEL32.dll
 0002:00000138       __imp_WriteFile            0000000180023138     kernel32:KERNEL32.dll
 0002:00000140       __imp_FlushFileBuffers     0000000180023140     kernel32:KERNEL32.dll
 0002:00000148       __imp_SetStdHandle         0000000180023148     kernel32:KERNEL32.dll
 0002:00000150       __imp_GetStringTypeW       0000000180023150     kernel32:KERNEL32.dll
 0002:00000158       __imp_SetFilePointerEx     0000000180023158     kernel32:KERNEL32.dll
 0002:00000160       __imp_FreeEnvironmentStringsW 0000000180023160     kernel32:KERNEL32.dll
 0002:00000168       __imp_lstrcmpiW            0000000180023168     kernel32:KERNEL32.dll
 0002:00000170       __imp_GetCommandLineW      0000000180023170     kernel32:KERNEL32.dll
 0002:00000178       __imp_GetCommandLineA      0000000180023178     kernel32:KERNEL32.dll
 0002:00000180       __imp_GetCPInfo            0000000180023180     kernel32:KERNEL32.dll
 0002:00000188       __imp_GetOEMCP             0000000180023188     kernel32:KERNEL32.dll
 0002:00000190       __imp_GetACP               0000000180023190     kernel32:KERNEL32.dll
 0002:00000198       __imp_IsValidCodePage      0000000180023198     kernel32:KERNEL32.dll
 0002:000001a0       __imp_FindNextFileW        00000001800231a0     kernel32:KERNEL32.dll
 0002:000001a8       __imp_FindFirstFileExW     00000001800231a8     kernel32:KERNEL32.dll
 0002:000001b0       __imp_FindClose            00000001800231b0     kernel32:KERNEL32.dll
 0002:000001b8       __imp_GetFileType          00000001800231b8     kernel32:KERNEL32.dll
 0002:000001c0       __imp_GetStdHandle         00000001800231c0     kernel32:KERNEL32.dll
 0002:000001c8       __imp_LCMapStringW         00000001800231c8     kernel32:KERNEL32.dll
 0002:000001d0       __imp_HeapReAlloc          00000001800231d0     kernel32:KERNEL32.dll
 0002:000001d8       __imp_HeapSize             00000001800231d8     kernel32:KERNEL32.dll
 0002:000001e0       __imp_MulDiv               00000001800231e0     kernel32:KERNEL32.dll
 0002:000001e8       __imp_GlobalLock           00000001800231e8     kernel32:KERNEL32.dll
 0002:000001f0       __imp_GlobalUnlock         00000001800231f0     kernel32:KERNEL32.dll
 0002:000001f8       __imp_GlobalAlloc          00000001800231f8     kernel32:KERNEL32.dll
 0002:00000200       __imp_FindResourceW        0000000180023200     kernel32:KERNEL32.dll
 0002:00000208       __imp_SizeofResource       0000000180023208     kernel32:KERNEL32.dll
 0002:00000210       __imp_LoadResource         0000000180023210     kernel32:KERNEL32.dll
 0002:00000218       __imp_LoadLibraryExW       0000000180023218     kernel32:KERNEL32.dll
 0002:00000220       __imp_GetProcAddress       0000000180023220     kernel32:KERNEL32.dll
 0002:00000228       __imp_GetModuleHandleW     0000000180023228     kernel32:KERNEL32.dll
 0002:00000230       __imp_GetModuleFileNameW   0000000180023230     kernel32:KERNEL32.dll
 0002:00000238       __imp_FreeLibrary          0000000180023238     kernel32:KERNEL32.dll
 0002:00000240       __imp_DisableThreadLibraryCalls 0000000180023240     kernel32:KERNEL32.dll
 0002:00000248       __imp_GetCurrentThreadId   0000000180023248     kernel32:KERNEL32.dll
 0002:00000250       __imp_Sleep                0000000180023250     kernel32:KERNEL32.dll
 0002:00000258       __imp_WaitForSingleObject  0000000180023258     kernel32:KERNEL32.dll
 0002:00000260       __imp_ReleaseMutex         0000000180023260     kernel32:KERNEL32.dll
 0002:00000268       __imp_ResetEvent           0000000180023268     kernel32:KERNEL32.dll
 0002:00000270       __imp_EnterCriticalSection 0000000180023270     kernel32:KERNEL32.dll
 0002:00000278       __imp_LeaveCriticalSection 0000000180023278     kernel32:KERNEL32.dll
 0002:00000280       __imp_SetLastError         0000000180023280     kernel32:KERNEL32.dll
 0002:00000288       __imp_EncodePointer        0000000180023288     kernel32:KERNEL32.dll
 0002:00000290       __imp_DeleteCriticalSection 0000000180023290     kernel32:KERNEL32.dll
 0002:00000298       __imp_InitializeCriticalSectionEx 0000000180023298     kernel32:KERNEL32.dll
 0002:000002a0       __imp_GetLastError         00000001800232a0     kernel32:KERNEL32.dll
 0002:000002a8       __imp_RaiseException       00000001800232a8     kernel32:KERNEL32.dll
 0002:000002b0       __imp_DecodePointer        00000001800232b0     kernel32:KERNEL32.dll
 0002:000002b8       __imp_WideCharToMultiByte  00000001800232b8     kernel32:KERNEL32.dll
 0002:000002c0       __imp_GetEnvironmentStringsW 00000001800232c0     kernel32:KERNEL32.dll
 0002:000002c8       __imp_MultiByteToWideChar  00000001800232c8     kernel32:KERNEL32.dll
 0002:000002d0       __imp_GetModuleHandleExW   00000001800232d0     kernel32:KERNEL32.dll
 0002:000002d8       __imp_ExitProcess          00000001800232d8     kernel32:KERNEL32.dll
 0002:000002e0       __imp_VirtualQuery         00000001800232e0     kernel32:KERNEL32.dll
 0002:000002e8       __imp_VirtualProtect       00000001800232e8     kernel32:KERNEL32.dll
 0002:000002f0       __imp_GetSystemInfo        00000001800232f0     kernel32:KERNEL32.dll
 0002:000002f8       __imp_TlsFree              00000001800232f8     kernel32:KERNEL32.dll
 0002:00000300       __imp_TlsSetValue          0000000180023300     kernel32:KERNEL32.dll
 0002:00000308       __imp_TlsGetValue          0000000180023308     kernel32:KERNEL32.dll
 0002:00000310       __imp_TlsAlloc             0000000180023310     kernel32:KERNEL32.dll
 0002:00000318       __imp_RtlPcToFileHeader    0000000180023318     kernel32:KERNEL32.dll
 0002:00000320       __imp_InterlockedFlushSList 0000000180023320     kernel32:KERNEL32.dll
 0002:00000328       __imp_RtlUnwindEx          0000000180023328     kernel32:KERNEL32.dll
 0002:00000330       __imp_LoadLibraryExA       0000000180023330     kernel32:KERNEL32.dll
 0002:00000338       __imp_VirtualFree          0000000180023338     kernel32:KERNEL32.dll
 0002:00000340       __imp_VirtualAlloc         0000000180023340     kernel32:KERNEL32.dll
 0002:00000348       __imp_FlushInstructionCache 0000000180023348     kernel32:KERNEL32.dll
 0002:00000350       __imp_InterlockedPushEntrySList 0000000180023350     kernel32:KERNEL32.dll
 0002:00000358       __imp_InterlockedPopEntrySList 0000000180023358     kernel32:KERNEL32.dll
 0002:00000360       __imp_GetProcessHeap       0000000180023360     kernel32:KERNEL32.dll
 0002:00000368       __imp_HeapFree             0000000180023368     kernel32:KERNEL32.dll
 0002:00000370       __imp_HeapAlloc            0000000180023370     kernel32:KERNEL32.dll
 0002:00000378       __imp_OutputDebugStringW   0000000180023378     kernel32:KERNEL32.dll
 0002:00000380       __imp_InitializeSListHead  0000000180023380     kernel32:KERNEL32.dll
 0002:00000388       __imp_GetSystemTimeAsFileTime 0000000180023388     kernel32:KERNEL32.dll
 0002:00000390       __imp_QueryPerformanceCounter 0000000180023390     kernel32:KERNEL32.dll
 0002:00000398       __imp_GetStartupInfoW      0000000180023398     kernel32:KERNEL32.dll
 0002:000003a0       __imp_IsDebuggerPresent    00000001800233a0     kernel32:KERNEL32.dll
 0002:000003a8       __imp_IsProcessorFeaturePresent 00000001800233a8     kernel32:KERNEL32.dll
 0002:000003b0       __imp_TerminateProcess     00000001800233b0     kernel32:KERNEL32.dll
 0002:000003b8       __imp_GetCurrentProcess    00000001800233b8     kernel32:KERNEL32.dll
 0002:000003c0       __imp_InitializeCriticalSectionAndSpinCount 00000001800233c0     kernel32:KERNEL32.dll
 0002:000003c8       __imp_WaitForSingleObjectEx 00000001800233c8     kernel32:KERNEL32.dll
 0002:000003d0       __imp_RtlCaptureContext    00000001800233d0     kernel32:KERNEL32.dll
 0002:000003d8       __imp_RtlLookupFunctionEntry 00000001800233d8     kernel32:KERNEL32.dll
 0002:000003e0       __imp_RtlVirtualUnwind     00000001800233e0     kernel32:KERNEL32.dll
 0002:000003e8       __imp_UnhandledExceptionFilter 00000001800233e8     kernel32:KERNEL32.dll
 0002:000003f0       __imp_SetUnhandledExceptionFilter 00000001800233f0     kernel32:KERNEL32.dll
 0002:000003f8       \177KERNEL32_NULL_THUNK_DATA 00000001800233f8     kernel32:KERNEL32.dll
 0002:00000400       __imp_OleCreatePropertyFrame 0000000180023400     oleaut32:OLEAUT32.dll
 0002:00000408       __imp_UnRegisterTypeLib    0000000180023408     oleaut32:OLEAUT32.dll
 0002:00000410       __imp_RegisterTypeLib      0000000180023410     oleaut32:OLEAUT32.dll
 0002:00000418       __imp_LoadRegTypeLib       0000000180023418     oleaut32:OLEAUT32.dll
 0002:00000420       __imp_LoadTypeLib          0000000180023420     oleaut32:OLEAUT32.dll
 0002:00000428       __imp_VarUI4FromStr        0000000180023428     oleaut32:OLEAUT32.dll
 0002:00000430       __imp_VariantInit          0000000180023430     oleaut32:OLEAUT32.dll
 0002:00000438       __imp_SysAllocStringByteLen 0000000180023438     oleaut32:OLEAUT32.dll
 0002:00000440       __imp_SysStringByteLen     0000000180023440     oleaut32:OLEAUT32.dll
 0002:00000448       __imp_VariantChangeType    0000000180023448     oleaut32:OLEAUT32.dll
 0002:00000450       __imp_VariantClear         0000000180023450     oleaut32:OLEAUT32.dll
 0002:00000458       __imp_SysStringLen         0000000180023458     oleaut32:OLEAUT32.dll
 0002:00000460       __imp_SysFreeString        0000000180023460     oleaut32:OLEAUT32.dll
 0002:00000468       __imp_SysAllocStringLen    0000000180023468     oleaut32:OLEAUT32.dll
 0002:00000470       __imp_SysAllocString       0000000180023470     oleaut32:OLEAUT32.dll
 0002:00000478       \177OLEAUT32_NULL_THUNK_DATA 0000000180023478     oleaut32:OLEAUT32.dll
 0002:00000480       __imp_UnregisterClassW     0000000180023480     user32:USER32.dll
 0002:00000488       __imp_PostMessageW         0000000180023488     user32:USER32.dll
 0002:00000490       __imp_DefWindowProcW       0000000180023490     user32:USER32.dll
 0002:00000498       __imp_CallWindowProcW      0000000180023498     user32:USER32.dll
 0002:000004a0       __imp_RegisterClassExW     00000001800234a0     user32:USER32.dll
 0002:000004a8       __imp_GetClassInfoExW      00000001800234a8     user32:USER32.dll
 0002:000004b0       __imp_CreateWindowExW      00000001800234b0     user32:USER32.dll
 0002:000004b8       __imp_IsWindow             00000001800234b8     user32:USER32.dll
 0002:000004c0       __imp_IsChild              00000001800234c0     user32:USER32.dll
 0002:000004c8       __imp_DestroyWindow        00000001800234c8     user32:USER32.dll
 0002:000004d0       __imp_ShowWindow           00000001800234d0     user32:USER32.dll
 0002:000004d8       __imp_SetWindowPos         00000001800234d8     user32:USER32.dll
 0002:000004e0       __imp_CharNextW            00000001800234e0     user32:USER32.dll
 0002:000004e8       __imp_SetFocus             00000001800234e8     user32:USER32.dll
 0002:000004f0       __imp_LoadBitmapW          00000001800234f0     user32:USER32.dll
 0002:000004f8       __imp_RegisterClassW       00000001800234f8     user32:USER32.dll
 0002:00000500       __imp_PeekMessageW         0000000180023500     user32:USER32.dll
 0002:00000508       __imp_LoadCursorW          0000000180023508     user32:USER32.dll
 0002:00000510       __imp_GetParent            0000000180023510     user32:USER32.dll
 0002:00000518       __imp_SetWindowLongPtrW    0000000180023518     user32:USER32.dll
 0002:00000520       __imp_GetWindowLongPtrW    0000000180023520     user32:USER32.dll
 0002:00000528       __imp_PtInRect             0000000180023528     user32:USER32.dll
 0002:00000530       __imp_EqualRect            0000000180023530     user32:USER32.dll
 0002:00000538       __imp_OffsetRect           0000000180023538     user32:USER32.dll
 0002:00000540       __imp_UnionRect            0000000180023540     user32:USER32.dll
 0002:00000548       __imp_IntersectRect        0000000180023548     user32:USER32.dll
 0002:00000550       __imp_GetClientRect        0000000180023550     user32:USER32.dll
 0002:00000558       __imp_InvalidateRect       0000000180023558     user32:USER32.dll
 0002:00000560       __imp_SetWindowRgn         0000000180023560     user32:USER32.dll
 0002:00000568       __imp_EndPaint             0000000180023568     user32:USER32.dll
 0002:00000570       __imp_BeginPaint           0000000180023570     user32:USER32.dll
 0002:00000578       __imp_ReleaseDC            0000000180023578     user32:USER32.dll
 0002:00000580       __imp_GetDC                0000000180023580     user32:USER32.dll
 0002:00000588       __imp_GetKeyState          0000000180023588     user32:USER32.dll
 0002:00000590       __imp_GetFocus             0000000180023590     user32:USER32.dll
 0002:00000598       \177USER32_NULL_THUNK_DATA 0000000180023598     user32:USER32.dll
 0002:000005a0       __imp_CoCreateInstance     00000001800235a0     ole32:ole32.dll
 0002:000005a8       __imp_StringFromGUID2      00000001800235a8     ole32:ole32.dll
 0002:000005b0       __imp_CoTaskMemAlloc       00000001800235b0     ole32:ole32.dll
 0002:000005b8       __imp_CoTaskMemFree        00000001800235b8     ole32:ole32.dll
 0002:000005c0       __imp_ReadClassStm         00000001800235c0     ole32:ole32.dll
 0002:000005c8       __imp_WriteClassStm        00000001800235c8     ole32:ole32.dll
 0002:000005d0       __imp_CreateDataAdviseHolder 00000001800235d0     ole32:ole32.dll
 0002:000005d8       __imp_OleSaveToStream      00000001800235d8     ole32:ole32.dll
 0002:000005e0       __imp_CreateOleAdviseHolder 00000001800235e0     ole32:ole32.dll
 0002:000005e8       __imp_OleRegGetUserType    00000001800235e8     ole32:ole32.dll
 0002:000005f0       __imp_OleRegGetMiscStatus  00000001800235f0     ole32:ole32.dll
 0002:000005f8       __imp_OleRegEnumVerbs      00000001800235f8     ole32:ole32.dll
 0002:00000600       __imp_CLSIDFromProgID      0000000180023600     ole32:ole32.dll
 0002:00000608       __imp_CoTaskMemRealloc     0000000180023608     ole32:ole32.dll
 0002:00000610       \177ole32_NULL_THUNK_DATA  0000000180023610     ole32:ole32.dll
 0002:00000618       __guard_check_icall_fptr   0000000180023618     LIBCMT:guard_support.obj
 0002:00000620       __guard_xfg_check_icall_fptr 0000000180023620     LIBCMT:guard_support.obj
 0002:00000628       __guard_dispatch_icall_fptr 0000000180023628     LIBCMT:guard_support.obj
 0002:00000630       __guard_xfg_dispatch_icall_fptr 0000000180023630     LIBCMT:guard_support.obj
 0002:00000638       __guard_xfg_table_dispatch_icall_fptr 0000000180023638     LIBCMT:guard_support.obj
 0002:00000640       __xc_a                     0000000180023640     LIBCMT:initializers.obj
 0002:00000670       __xc_z                     0000000180023670     LIBCMT:initializers.obj
 0002:00000678       __xi_a                     0000000180023678     LIBCMT:initializers.obj
 0002:00000688       __acrt_stdio_initializer   0000000180023688     libucrt:stdio_initializer.obj
 0002:00000690       __acrt_multibyte_initializer 0000000180023690     libucrt:multibyte_initializer.obj
 0002:00000698       __acrt_tran_fma3_initializer 0000000180023698     libucrt:fma3_initializer.obj
 0002:000006a0       __xi_z                     00000001800236a0     LIBCMT:initializers.obj
 0002:000006a8       __xl_a                     00000001800236a8     LIBCMT:tlssup.obj
 0002:000006b0       __xl_z                     00000001800236b0     LIBCMT:tlssup.obj
 0002:000006b8       __xp_a                     00000001800236b8     LIBCMT:initializers.obj
 0002:000006c0       __acrt_locale_terminator   00000001800236c0     libucrt:locale_initializer.obj
 0002:000006c8       __dcrt_console_output_terminator 00000001800236c8     libucrt:console_output_initializer.obj
 0002:000006d0       __acrt_stdio_terminator    00000001800236d0     libucrt:stdio_initializer.obj
 0002:000006d8       __xp_z                     00000001800236d8     LIBCMT:initializers.obj
 0002:000006e0       __xt_a                     00000001800236e0     LIBCMT:initializers.obj
 0002:000006e8       __xt_z                     00000001800236e8     LIBCMT:initializers.obj
 0002:000006f0       ??_C@_13HADIAKP@?$AAS@     00000001800236f0     OposVariant.obj
 0002:000006f4       ??_C@_13LHMFKAAD@?$AAM@    00000001800236f4     OposVariant.obj
 0002:000006f8       ??_C@_13MKMNOPIJ@?$AAD@    00000001800236f8     OposVariant.obj
 0002:000006fc       ??_C@_13OPKGLAFF@?$AAB@    00000001800236fc     OposVariant.obj
 0002:00000700       ??_C@_17LLMMEOJD@?$AAV?$AAa?$AAl@ 0000000180023700     OposVariant.obj
 0002:00000708       ??_C@_1BI@JFAIJMHL@?$AAF?$AAo?$AAr?$AAc?$AAe?$AAR?$AAe?$AAm?$AAo?$AAv?$AAe@ 0000000180023708     OposVariant.obj
 0002:00000720       ??_C@_1BC@GCKHIPE@?$AAN?$AAo?$AAR?$AAe?$AAm?$AAo?$AAv?$AAe@ 0000000180023720     OposVariant.obj
 0002:00000738       ??_C@_1O@JDLOHAN@?$AAD?$AAe?$AAl?$AAe?$AAt?$AAe@ 0000000180023738     OposVariant.obj
 0002:00000748       ??_C@_11LOCGONAA@@         0000000180023748     OposVariant.obj
 0002:00000750       IID_IOPOSSpeechSynthesis_1_16 0000000180023750     SpeechSynthesis.obj
 0002:00000760       IID_IOPOSSpeechSynthesis   0000000180023760     SpeechSynthesis.obj
 0002:00000770       LIBID_OposSpeechSynthesis_CCO 0000000180023770     SpeechSynthesis.obj
 0002:00000780       DIID__IOPOSSpeechSynthesisEvents 0000000180023780     SpeechSynthesis.obj
 0002:00000790       CLSID_OPOSSpeechSynthesis  0000000180023790     SpeechSynthesis.obj
 0002:000007a0       _GUID_00000114_0000_0000_c000_000000000046 00000001800237a0     SpeechSynthesis.obj
 0002:000007b0       ??_C@_1BK@BIGILECK@?$AAA?$AAd?$AAv?$AAa?$AAp?$AAi?$AA3?$AA2?$AA?4?$AAd?$AAl?$AAl@ 00000001800237b0     SpeechSynthesis.obj
 0002:000007d0       ??_C@_0BI@MNCFCPFK@RegCreateKeyTransactedW@ 00000001800237d0     SpeechSynthesis.obj
 0002:000007e8       _GUID_b196b287_bab4_101a_b69c_00aa00341d07 00000001800237e8     SpeechSynthesis.obj
 0002:000007f8       _GUID_b196b285_bab4_101a_b69c_00aa00341d07 00000001800237f8     SpeechSynthesis.obj
 0002:00000808       _GUID_a6bc3ac0_dbaa_11ce_9de3_00aa004bb851 0000000180023808     SpeechSynthesis.obj
 0002:00000818       _GUID_0000010c_0000_0000_c000_000000000046 0000000180023818     SpeechSynthesis.obj
 0002:00000830       ?_entries@?1??_GetEntries@COPOSSpeechSynthesis@@SAPEBU_ATL_INTMAP_ENTRY@ATL@@XZ@4QBU34@B 0000000180023830     SpeechSynthesis.obj
 0002:00000a70       _GUID_00000146_0000_0000_c000_000000000046 0000000180023a70     SpeechSynthesis.obj
 0002:00000a80       _GUID_cf51ed10_62fe_11cf_bf86_00a0c9034836 0000000180023a80     SpeechSynthesis.obj
 0002:00000a90       _GUID_0000010a_0000_0000_c000_000000000046 0000000180023a90     SpeechSynthesis.obj
 0002:00000aa0       _GUID_b196b283_bab4_101a_b69c_00aa00341d07 0000000180023aa0     SpeechSynthesis.obj
 0002:00000ab0       _GUID_cb5bdc81_93c1_11cf_8f20_00805f2cd064 0000000180023ab0     SpeechSynthesis.obj
 0002:00000ac0       ?pPropMap@?1??GetPropertyMap@COPOSSpeechSynthesis@@SAPEBUATL_PROPMAP_ENTRY@ATL@@XZ@4QBU34@B 0000000180023ac0     SpeechSynthesis.obj
 0002:00000b68       ??_C@_17DGDADEHL@?$AA_?$AAc?$AAx@ 0000000180023b68     SpeechSynthesis.obj
 0002:00000b70       ??_C@_17IOIMFDBO@?$AA_?$AAc?$AAy@ 0000000180023b70     SpeechSynthesis.obj
 0002:00000b78       _GUID_922eada0_3424_11cf_b670_00aa004cd6d8 0000000180023b78     SpeechSynthesis.obj
 0002:00000b88       _GUID_9c2cad80_3424_11cf_b670_00aa004cd6d8 0000000180023b88     SpeechSynthesis.obj
 0002:00000b98       _GUID_00000119_0000_0000_c000_000000000046 0000000180023b98     SpeechSynthesis.obj
 0002:00000ba8       _GUID_b196b289_bab4_101a_b69c_00aa00341d07 0000000180023ba8     SpeechSynthesis.obj
 0002:00000bb8       ??_7?$CComObjectCached@VCComClassFactory@ATL@@@ATL@@6B@ 0000000180023bb8     SpeechSynthesis.obj
 0002:00000be8       ??_C@_1CE@PGFMOFKI@?$AAS?$AAt?$AAa?$AAt?$AAu?$AAs?$AAU?$AAp?$AAd?$AAa?$AAt?$AAe?$AAE?$AAv?$AAe@ 0000000180023be8     SpeechSynthesis.obj
 0002:00000c10       ??_C@_1CI@HLBJDONE@?$AAO?$AAu?$AAt?$AAp?$AAu?$AAt?$AAC?$AAo?$AAm?$AAp?$AAl?$AAe?$AAt?$AAe?$AAE@ 0000000180023c10     SpeechSynthesis.obj
 0002:00000c38       ??_C@_1BG@LODEBHDD@?$AAE?$AAr?$AAr?$AAo?$AAr?$AAE?$AAv?$AAe?$AAn?$AAt@ 0000000180023c38     SpeechSynthesis.obj
 0002:00000c50       ??_7CComModule@ATL@@6B@    0000000180023c50     SpeechSynthesis.obj
 0002:00000ca0       ??_C@_1BM@CBGEBBBJ@?$AAD?$AAi?$AAr?$AAe?$AAc?$AAt?$AAI?$AAO?$AAE?$AAv?$AAe?$AAn?$AAt@ 0000000180023ca0     SpeechSynthesis.obj
 0002:00000cc0       _GUID_b196b286_bab4_101a_b69c_00aa00341d07 0000000180023cc0     SpeechSynthesis.obj
 0002:00000cd0       _GUID_00000117_0000_0000_c000_000000000046 0000000180023cd0     SpeechSynthesis.obj
 0002:00000ce0       _GUID_00000000_0000_0000_c000_000000000046 0000000180023ce0     SpeechSynthesis.obj
 0002:00000cf0       _GUID_00020400_0000_0000_c000_000000000046 0000000180023cf0     SpeechSynthesis.obj
 0002:00000d00       ??_C@_1BC@ENICKDH@?$AAC?$AAo?$AAn?$AAt?$AAe?$AAn?$AAt?$AAs@ 0000000180023d00     SpeechSynthesis.obj
 0002:00000d18       ??_7?$CComObject@V?$CComEnum@UIEnumConnectionPoints@@$1?_GUID_b196b285_bab4_101a_b69c_00aa00341d07@@3U__s_GUID@@BPEAUIConnectionPoint@@V?$_CopyInterface@UIConnectionPoint@@@ATL@@VCComSingleThreadModel@6@@ATL@@@ATL@@6B@ 0000000180023d18     SpeechSynthesis.obj
 0002:00000d58       ??_C@_1M@KANJNLFF@?$AAC?$AAL?$AAS?$AAI?$AAD@ 0000000180023d58     SpeechSynthesis.obj
 0002:00000d68       _GUID_0000010e_0000_0000_c000_000000000046 0000000180023d68     SpeechSynthesis.obj
 0002:00000d78       _GUID_b196b288_bab4_101a_b69c_00aa00341d07 0000000180023d78     SpeechSynthesis.obj
 0002:00000d88       ??_C@_1M@EJNEECMJ@?$AAA?$AAp?$AAp?$AAI?$AAD@ 0000000180023d88     SpeechSynthesis.obj
 0002:00000da0       ?rgszNeverDelete@CRegParser@ATL@@1QBQEB_WB 0000000180023da0     SpeechSynthesis.obj
 0002:00000e00       _GUID_00000113_0000_0000_c000_000000000046 0000000180023e00     SpeechSynthesis.obj
 0002:00000e10       ??_7CRegObject@ATL@@6B@    0000000180023e10     SpeechSynthesis.obj
 0002:00000e40       _GUID_1c2056cc_5ef4_101b_8bc8_00aa003e3b29 0000000180023e40     SpeechSynthesis.obj
 0002:00000e50       ??_C@_1CK@OEKPKBNA@?$AAC?$AAo?$AAm?$AAp?$AAo?$AAn?$AAe?$AAn?$AAt?$AA?5?$AAC?$AAa?$AAt?$AAe?$AAg@ 0000000180023e50     SpeechSynthesis.obj
 0002:00000e80       ??_C@_1BC@NKMMNMGL@?$AAF?$AAi?$AAl?$AAe?$AAT?$AAy?$AAp?$AAe@ 0000000180023e80     SpeechSynthesis.obj
 0002:00000e98       ??_C@_1BE@EKPAFMCP@?$AAI?$AAn?$AAt?$AAe?$AAr?$AAf?$AAa?$AAc?$AAe@ 0000000180023e98     SpeechSynthesis.obj
 0002:00000eb0       ??_C@_1BC@MAICEHGI@?$AAH?$AAa?$AAr?$AAd?$AAw?$AAa?$AAr?$AAe@ 0000000180023eb0     SpeechSynthesis.obj
 0002:00000ec8       ??_C@_19HLLLM@?$AAM?$AAi?$AAm?$AAe@ 0000000180023ec8     SpeechSynthesis.obj
 0002:00000ed8       ??_C@_17OMAOINJK@?$AAS?$AAA?$AAM@ 0000000180023ed8     SpeechSynthesis.obj
 0002:00000ee0       ??_C@_1BC@IBECJAAI@?$AAS?$AAE?$AAC?$AAU?$AAR?$AAI?$AAT?$AAY@ 0000000180023ee0     SpeechSynthesis.obj
 0002:00000ef8       ??_C@_1O@GBFINDKL@?$AAS?$AAY?$AAS?$AAT?$AAE?$AAM@ 0000000180023ef8     SpeechSynthesis.obj
 0002:00000f08       ??_C@_1BC@EAHCMADO@?$AAS?$AAo?$AAf?$AAt?$AAw?$AAa?$AAr?$AAe@ 0000000180023f08     SpeechSynthesis.obj
 0002:00000f20       ??_C@_1BA@JIHHIEDE@?$AAT?$AAy?$AAp?$AAe?$AAL?$AAi?$AAb@ 0000000180023f20     SpeechSynthesis.obj
 0002:00000f30       _GUID_00000112_0000_0000_c000_000000000046 0000000180023f30     SpeechSynthesis.obj
 0002:00000f40       ?map@?1??HKeyFromString@CRegParser@ATL@@KAPEAUHKEY__@@PEA_W@Z@4QBUkeymap@?1??123@KAPEAU4@0@Z@B 0000000180023f40     SpeechSynthesis.obj
 0002:00001020       ??_C@_19NCHLBIN@?$AAH?$AAK?$AAC?$AAR@ 0000000180024020     SpeechSynthesis.obj
 0002:00001030       ??_C@_19JAPAIJDE@?$AAH?$AAK?$AAC?$AAU@ 0000000180024030     SpeechSynthesis.obj
 0002:00001040       ??_C@_19PEALEEJB@?$AAH?$AAK?$AAL?$AAM@ 0000000180024040     SpeechSynthesis.obj
 0002:00001050       ??_C@_17PJOJPMPB@?$AAH?$AAK?$AAU@ 0000000180024050     SpeechSynthesis.obj
 0002:00001058       ??_C@_19PNBHMJPL@?$AAH?$AAK?$AAP?$AAD@ 0000000180024058     SpeechSynthesis.obj
 0002:00001068       ??_C@_19GFFAIJHG@?$AAH?$AAK?$AAD?$AAD@ 0000000180024068     SpeechSynthesis.obj
 0002:00001078       ??_C@_19OFICIBHH@?$AAH?$AAK?$AAC?$AAC@ 0000000180024078     SpeechSynthesis.obj
 0002:00001088       ??_C@_1CE@PACHPJFI@?$AAH?$AAK?$AAE?$AAY?$AA_?$AAC?$AAL?$AAA?$AAS?$AAS?$AAE?$AAS?$AA_?$AAR?$AAO@ 0000000180024088     SpeechSynthesis.obj
 0002:000010b0       ??_C@_1CE@HLHNCBPM@?$AAH?$AAK?$AAE?$AAY?$AA_?$AAC?$AAU?$AAR?$AAR?$AAE?$AAN?$AAT?$AA_?$AAU?$AAS@ 00000001800240b0     SpeechSynthesis.obj
 0002:000010d8       ??_C@_1CG@GFBEANJL@?$AAH?$AAK?$AAE?$AAY?$AA_?$AAL?$AAO?$AAC?$AAA?$AAL?$AA_?$AAM?$AAA?$AAC?$AAH@ 00000001800240d8     SpeechSynthesis.obj
 0002:00001100       ??_C@_1BG@BGODANIO@?$AAH?$AAK?$AAE?$AAY?$AA_?$AAU?$AAS?$AAE?$AAR?$AAS@ 0000000180024100     SpeechSynthesis.obj
 0002:00001118       ??_C@_1CM@KHNNAOIC@?$AAH?$AAK?$AAE?$AAY?$AA_?$AAP?$AAE?$AAR?$AAF?$AAO?$AAR?$AAM?$AAA?$AAN?$AAC@ 0000000180024118     SpeechSynthesis.obj
 0002:00001148       _GUID_3af24292_0c96_11ce_a0cf_00aa00600ab8 0000000180024148     SpeechSynthesis.obj
 0002:00001158       ??_C@_1BM@HAGMMHIA@?$AAH?$AAK?$AAE?$AAY?$AA_?$AAD?$AAY?$AAN?$AA_?$AAD?$AAA?$AAT?$AAA@ 0000000180024158     SpeechSynthesis.obj
 0002:00001178       ??_C@_1CI@BBJOACGG@?$AAH?$AAK?$AAE?$AAY?$AA_?$AAC?$AAU?$AAR?$AAR?$AAE?$AAN?$AAT?$AA_?$AAC?$AAO@ 0000000180024178     SpeechSynthesis.obj
 0002:000011a0       _GUID_00000127_0000_0000_c000_000000000046 00000001800241a0     SpeechSynthesis.obj
 0002:000011b0       _GUID_0000010d_0000_0000_c000_000000000046 00000001800241b0     SpeechSynthesis.obj
 0002:000011c0       _GUID_00000109_0000_0000_c000_000000000046 00000001800241c0     SpeechSynthesis.obj
 0002:000011d0       _GUID_7fd52380_4e07_101b_ae2d_08002b2ec713 00000001800241d0     SpeechSynthesis.obj
 0002:000011e0       ??_C@_1M@PPPPCDEP@?$AAA?$AAP?$AAP?$AAI?$AAD@ 00000001800241e0     SpeechSynthesis.obj
 0002:000011f0       ??_C@_1EA@NHKLICFA@?$AAH?$AAK?$AAC?$AAU?$AA?$AN?$AA?6?$AA?$HL?$AA?7?$AAS?$AAo?$AAf?$AAt?$AAw?$AAa?$AAr@ 00000001800241f0     SpeechSynthesis.obj
 0002:00001230       ??_C@_1BE@LJOLIMEM@?$AA?$AN?$AA?6?$AA?7?$AA?$HN?$AA?$AN?$AA?6?$AA?$HN?$AA?$AN?$AA?6@ 0000000180024230     SpeechSynthesis.obj
 0002:00001248       ??_7?$CComContainedObject@VCOPOSSpeechSynthesis@@@ATL@@6B?$IDispatchImpl@UIOPOSSpeechSynthesis@@$1?IID_IOPOSSpeechSynthesis@@3U_GUID@@B$1?LIBID_OposSpeechSynthesis_CCO@@3U3@B$00$0A@VCComTypeInfoHolder@ATL@@@1@@ 0000000180024248     SpeechSynthesis.obj
 0002:00001498       ??_7?$CComContainedObject@VCOPOSSpeechSynthesis@@@ATL@@6BCComControlBase@1@@ 0000000180024498     SpeechSynthesis.obj
 0002:000014c0       ??_7?$CComContainedObject@VCOPOSSpeechSynthesis@@@ATL@@6B?$CWindowImpl@VCOPOSSpeechSynthesis@@VCWindow@ATL@@V?$CWinTraits@$0FGAAAAAA@$0A@@3@@1@@ 00000001800244c0     SpeechSynthesis.obj
 0002:000014e0       ??_7?$CComContainedObject@VCOPOSSpeechSynthesis@@@ATL@@6B?$IPersistStreamInitImpl@VCOPOSSpeechSynthesis@@@1@@ 00000001800244e0     SpeechSynthesis.obj
 0002:00001528       ??_7?$CComContainedObject@VCOPOSSpeechSynthesis@@@ATL@@6B?$IOleControlImpl@VCOPOSSpeechSynthesis@@@1@@ 0000000180024528     SpeechSynthesis.obj
 0002:00001560       ??_7?$CComContainedObject@VCOPOSSpeechSynthesis@@@ATL@@6B?$IOleObjectImpl@VCOPOSSpeechSynthesis@@@1@@ 0000000180024560     SpeechSynthesis.obj
 0002:00001620       ??_7?$CComContainedObject@VCOPOSSpeechSynthesis@@@ATL@@6B?$IOleInPlaceActiveObjectImpl@VCOPOSSpeechSynthesis@@@1@@ 0000000180024620     SpeechSynthesis.obj
 0002:00001670       ??_7?$CComContainedObject@VCOPOSSpeechSynthesis@@@ATL@@6B?$IViewObjectExImpl@VCOPOSSpeechSynthesis@@@1@@ 0000000180024670     SpeechSynthesis.obj
 0002:000016e8       ??_7?$CComContainedObject@VCOPOSSpeechSynthesis@@@ATL@@6B?$IOleInPlaceObjectWindowlessImpl@VCOPOSSpeechSynthesis@@@1@@ 00000001800246e8     SpeechSynthesis.obj
 0002:00001740       ??_7?$CComContainedObject@VCOPOSSpeechSynthesis@@@ATL@@6B?$IConnectionPointContainerImpl@VCOPOSSpeechSynthesis@@@1@@ 0000000180024740     SpeechSynthesis.obj
 0002:00001768       ??_C@_1O@MNLDABAF@?$AAM?$AAo?$AAd?$AAu?$AAl?$AAe@ 0000000180024768     SpeechSynthesis.obj
 0002:00001778       ??_7?$CComContainedObject@VCOPOSSpeechSynthesis@@@ATL@@6B?$IPersistStorageImpl@VCOPOSSpeechSynthesis@@@1@@ 0000000180024778     SpeechSynthesis.obj
 0002:000017c8       ??_C@_1BG@JBACFMF@?$AAM?$AAo?$AAd?$AAu?$AAl?$AAe?$AA_?$AAR?$AAa?$AAw@ 00000001800247c8     SpeechSynthesis.obj
 0002:000017e0       ??_7?$CComContainedObject@VCOPOSSpeechSynthesis@@@ATL@@6B?$ISpecifyPropertyPagesImpl@VCOPOSSpeechSynthesis@@@1@@ 00000001800247e0     SpeechSynthesis.obj
 0002:00001800       ??_7?$CComContainedObject@VCOPOSSpeechSynthesis@@@ATL@@6B?$IQuickActivateImpl@VCOPOSSpeechSynthesis@@@1@@ 0000000180024800     SpeechSynthesis.obj
 0002:00001830       ??_C@_1BC@KAILKFFG@?$AAR?$AAE?$AAG?$AAI?$AAS?$AAT?$AAR?$AAY@ 0000000180024830     SpeechSynthesis.obj
 0002:00001848       ??_7?$CComContainedObject@VCOPOSSpeechSynthesis@@@ATL@@6B?$IDataObjectImpl@VCOPOSSpeechSynthesis@@@1@@ 0000000180024848     SpeechSynthesis.obj
 0002:000018a8       ??_7?$CComContainedObject@VCOPOSSpeechSynthesis@@@ATL@@6B?$IProvideClassInfo2Impl@$1?CLSID_OPOSSpeechSynthesis@@3U_GUID@@B$1?DIID__IOPOSSpeechSynthesisEvents@@3U2@B$1?LIBID_OposSpeechSynthesis_CCO@@3U2@B$00$0A@VCComTypeInfoHolder@ATL@@@1@@ 00000001800248a8     SpeechSynthesis.obj
 0002:000018d0       ??_7?$CComContainedObject@VCOPOSSpeechSynthesis@@@ATL@@6B?$IObjectSafetyImpl@VCOPOSSpeechSynthesis@@$02@1@@ 00000001800248d0     SpeechSynthesis.obj
 0002:00001900       ??_7?$CComContainedObject@VCOPOSSpeechSynthesis@@@ATL@@6B?$IPropertyNotifySinkCP@VCOPOSSpeechSynthesis@@VCComDynamicUnkArray@ATL@@@1@@ 0000000180024900     SpeechSynthesis.obj
 0002:00001940       ??_7?$CComContainedObject@VCOPOSSpeechSynthesis@@@ATL@@6B?$CProxy_IOPOSEvents@VCOPOSSpeechSynthesis@@@@@ 0000000180024940     SpeechSynthesis.obj
 0002:00001980       ??_7?$CComAggObject@VCOPOSSpeechSynthesis@@@ATL@@6B@ 0000000180024980     SpeechSynthesis.obj
 0002:000019a0       ??_7?$CComObject@VCOPOSSpeechSynthesis@@@ATL@@6B?$IDispatchImpl@UIOPOSSpeechSynthesis@@$1?IID_IOPOSSpeechSynthesis@@3U_GUID@@B$1?LIBID_OposSpeechSynthesis_CCO@@3U3@B$00$0A@VCComTypeInfoHolder@ATL@@@1@@ 00000001800249a0     SpeechSynthesis.obj
 0002:00001bf0       ??_7?$CComObject@VCOPOSSpeechSynthesis@@@ATL@@6BCComControlBase@1@@ 0000000180024bf0     SpeechSynthesis.obj
 0002:00001c18       ??_7?$CComObject@VCOPOSSpeechSynthesis@@@ATL@@6B?$CWindowImpl@VCOPOSSpeechSynthesis@@VCWindow@ATL@@V?$CWinTraits@$0FGAAAAAA@$0A@@3@@1@@ 0000000180024c18     SpeechSynthesis.obj
 0002:00001c38       ??_7?$CComObject@VCOPOSSpeechSynthesis@@@ATL@@6B?$IPersistStreamInitImpl@VCOPOSSpeechSynthesis@@@1@@ 0000000180024c38     SpeechSynthesis.obj
 0002:00001c80       ??_7?$CComObject@VCOPOSSpeechSynthesis@@@ATL@@6B?$IOleControlImpl@VCOPOSSpeechSynthesis@@@1@@ 0000000180024c80     SpeechSynthesis.obj
 0002:00001cb8       ??_7?$CComObject@VCOPOSSpeechSynthesis@@@ATL@@6B?$IOleObjectImpl@VCOPOSSpeechSynthesis@@@1@@ 0000000180024cb8     SpeechSynthesis.obj
 0002:00001d78       ??_7?$CComObject@VCOPOSSpeechSynthesis@@@ATL@@6B?$IOleInPlaceActiveObjectImpl@VCOPOSSpeechSynthesis@@@1@@ 0000000180024d78     SpeechSynthesis.obj
 0002:00001dc8       ??_7?$CComObject@VCOPOSSpeechSynthesis@@@ATL@@6B?$IViewObjectExImpl@VCOPOSSpeechSynthesis@@@1@@ 0000000180024dc8     SpeechSynthesis.obj
 0002:00001e40       ??_7?$CComObject@VCOPOSSpeechSynthesis@@@ATL@@6B?$IOleInPlaceObjectWindowlessImpl@VCOPOSSpeechSynthesis@@@1@@ 0000000180024e40     SpeechSynthesis.obj
 0002:00001e98       ??_7?$CComObject@VCOPOSSpeechSynthesis@@@ATL@@6B?$IConnectionPointContainerImpl@VCOPOSSpeechSynthesis@@@1@@ 0000000180024e98     SpeechSynthesis.obj
 0002:00001ec0       ??_7?$CComObject@VCOPOSSpeechSynthesis@@@ATL@@6B?$IPersistStorageImpl@VCOPOSSpeechSynthesis@@@1@@ 0000000180024ec0     SpeechSynthesis.obj
 0002:00001f10       ??_7?$CComObject@VCOPOSSpeechSynthesis@@@ATL@@6B?$ISpecifyPropertyPagesImpl@VCOPOSSpeechSynthesis@@@1@@ 0000000180024f10     SpeechSynthesis.obj
 0002:00001f30       ??_7?$CComObject@VCOPOSSpeechSynthesis@@@ATL@@6B?$IQuickActivateImpl@VCOPOSSpeechSynthesis@@@1@@ 0000000180024f30     SpeechSynthesis.obj
 0002:00001f60       ??_7?$CComObject@VCOPOSSpeechSynthesis@@@ATL@@6B?$IDataObjectImpl@VCOPOSSpeechSynthesis@@@1@@ 0000000180024f60     SpeechSynthesis.obj
 0002:00001fc0       ??_7?$CComObject@VCOPOSSpeechSynthesis@@@ATL@@6B?$IProvideClassInfo2Impl@$1?CLSID_OPOSSpeechSynthesis@@3U_GUID@@B$1?DIID__IOPOSSpeechSynthesisEvents@@3U2@B$1?LIBID_OposSpeechSynthesis_CCO@@3U2@B$00$0A@VCComTypeInfoHolder@ATL@@@1@@ 0000000180024fc0     SpeechSynthesis.obj
 0002:00001fe8       ??_7?$CComObject@VCOPOSSpeechSynthesis@@@ATL@@6B?$IObjectSafetyImpl@VCOPOSSpeechSynthesis@@$02@1@@ 0000000180024fe8     SpeechSynthesis.obj
 0002:00002018       ??_7?$CComObject@VCOPOSSpeechSynthesis@@@ATL@@6B?$IPropertyNotifySinkCP@VCOPOSSpeechSynthesis@@VCComDynamicUnkArray@ATL@@@1@@ 0000000180025018     SpeechSynthesis.obj
 0002:00002058       ??_7?$CComObject@VCOPOSSpeechSynthesis@@@ATL@@6B?$CProxy_IOPOSEvents@VCOPOSSpeechSynthesis@@@@@ 0000000180025058     SpeechSynthesis.obj
 0002:00002098       ??_C@_1O@GBFKGNEO@?$AAA?$AAT?$AAL?$AA?3?$AA?$CF?$AAp@ 0000000180025098     SpeechSynthesis.obj
 0002:000020a8       ??_C@_1BA@PICGEGJB@?$AAD?$AAI?$AAS?$AAP?$AAL?$AAA?$AAY@ 00000001800250a8     SpeechSynthesis.obj
 0002:000020b8       _GUID_9bfbbc02_eff1_101a_84ed_00aa00341d07 00000001800250b8     SpeechSynthesis.obj
 0002:000020c8       ?_entries@?1??_GetEntries@?$CComEnum@UIEnumConnectionPoints@@$1?_GUID_b196b285_bab4_101a_b69c_00aa00341d07@@3U__s_GUID@@BPEAUIConnectionPoint@@V?$_CopyInterface@UIConnectionPoint@@@ATL@@VCComSingleThreadModel@6@@ATL@@SAPEBU_ATL_INTMAP_ENTRY@3@XZ@4QBU43@B 00000001800250c8     SpeechSynthesis.obj
 0002:000020f8       _GUID_b196b284_bab4_101a_b69c_00aa00341d07 00000001800250f8     SpeechSynthesis.obj
 0002:00002108       _GUID_00020412_0000_0000_c000_000000000046 0000000180025108     SpeechSynthesis.obj
 0002:00002118       _GUID_00020401_0000_0000_c000_000000000046 0000000180025118     SpeechSynthesis.obj
 0002:00002128       ??_7?$CComObject@V?$CComEnum@UIEnumConnections@@$1?_GUID_b196b287_bab4_101a_b69c_00aa00341d07@@3U__s_GUID@@BUtagCONNECTDATA@@V?$_Copy@UtagCONNECTDATA@@@ATL@@VCComSingleThreadModel@6@@ATL@@@ATL@@6B@ 0000000180025128     SpeechSynthesis.obj
 0002:00002168       _GUID_55980ba0_35aa_11cf_b671_00aa004cd6d8 0000000180025168     SpeechSynthesis.obj
 0002:00002178       _GUID_b196b28b_bab4_101a_b69c_00aa00341d07 0000000180025178     SpeechSynthesis.obj
 0002:00002188       ?_entries@?1??_GetEntries@?$CComEnum@UIEnumConnections@@$1?_GUID_b196b287_bab4_101a_b69c_00aa00341d07@@3U__s_GUID@@BUtagCONNECTDATA@@V?$_Copy@UtagCONNECTDATA@@@ATL@@VCComSingleThreadModel@6@@ATL@@SAPEBU_ATL_INTMAP_ENTRY@3@XZ@4QBU43@B 0000000180025188     SpeechSynthesis.obj
 0002:000021b8       ??_7CComClassFactory@ATL@@6B@ 00000001800251b8     SpeechSynthesis.obj
 0002:000021e8       ?_entries@?1??_GetEntries@CComClassFactory@ATL@@SAPEBU_ATL_INTMAP_ENTRY@3@XZ@4QBU43@B 00000001800251e8     SpeechSynthesis.obj
 0002:00002218       _GUID_00000001_0000_0000_c000_000000000046 0000000180025218     SpeechSynthesis.obj
 0002:00002228       ??_C@_0BG@EKFFMJIO@RegOpenKeyTransactedW@ 0000000180025228     SpeechSynthesis.obj
 0002:00002240       ??_C@_0BI@HAKLOOGP@RegDeleteKeyTransactedW@ 0000000180025240     SpeechSynthesis.obj
 0002:00002258       ??_C@_0BA@LILAPHGE@RegDeleteKeyExW@ 0000000180025258     SpeechSynthesis.obj
 0002:00002268       ??_C@_19ILOCMLCJ@?$AA?4?$AAt?$AAl?$AAb@ 0000000180025268     SpeechSynthesis.obj
 0002:00002278       _GUID_0002e012_0000_0000_c000_000000000046 0000000180025278     SpeechSynthesis.obj
 0002:00002288       ??_C@_1O@FHBGLCIO@?$AAC?$AAL?$AAS?$AAI?$AAD?$AA?2@ 0000000180025288     SpeechSynthesis.obj
 0002:00002298       ??_C@_1CK@IFBKBFAA@?$AA?2?$AAR?$AAe?$AAq?$AAu?$AAi?$AAr?$AAe?$AAd?$AA?5?$AAC?$AAa?$AAt?$AAe?$AAg@ 0000000180025298     SpeechSynthesis.obj
 0002:000022c8       ??_C@_1DA@BIHALFED@?$AA?2?$AAI?$AAm?$AAp?$AAl?$AAe?$AAm?$AAe?$AAn?$AAt?$AAe?$AAd?$AA?5?$AAC?$AAa@ 00000001800252c8     SpeechSynthesis.obj
 0002:000022f8       ??_C@_1BK@EDKOLFBJ@?$AAO?$AAL?$AAE?$AAA?$AAU?$AAT?$AA3?$AA2?$AA?4?$AAD?$AAL?$AAL@ 00000001800252f8     SpeechSynthesis.obj
 0002:00002318       ??_C@_0BJ@CNLFOMHB@UnRegisterTypeLibForUser@ 0000000180025318     SpeechSynthesis.obj
 0002:00002338       ??_C@_0BH@LBOMMKPJ@RegisterTypeLibForUser@ 0000000180025338     SpeechSynthesis.obj
 0002:00002350       ??_C@_0P@MMNMMLGK@COFreezeEvents@ 0000000180025350     SpeechSynthesisImpl.obj
 0002:00002360       ??_C@_0BC@OGCGGIMP@GetPropertyNumber@ 0000000180025360     SpeechSynthesisImpl.obj
 0002:00002378       ??_C@_0BC@MDCNODNB@SetPropertyNumber@ 0000000180025378     SpeechSynthesisImpl.obj
 0002:00002390       ??_C@_0BC@CFCCMIMD@GetPropertyString@ 0000000180025390     SpeechSynthesisImpl.obj
 0002:000023a8       ??_C@_0BC@CJEDNN@SetPropertyString@ 00000001800253a8     SpeechSynthesisImpl.obj
 0002:000023c0       ??_C@_0M@LNPKKKDA@OpenService@ 00000001800253c0     SpeechSynthesisImpl.obj
 0002:000023d0       ??_C@_0M@PCMCHHMH@CheckHealth@ 00000001800253d0     SpeechSynthesisImpl.obj
 0002:000023e0       ??_C@_0M@JGMIDNEK@ClaimDevice@ 00000001800253e0     SpeechSynthesisImpl.obj
 0002:000023f0       ??_C@_0M@JMBCPNGJ@ClearOutput@ 00000001800253f0     SpeechSynthesisImpl.obj
 0002:00002400       ??_C@_0N@DDFIIBMP@CloseService@ 0000000180025400     SpeechSynthesisImpl.obj
 0002:00002410       ??_C@_08EEIHICPC@DirectIO@ 0000000180025410     SpeechSynthesisImpl.obj
 0002:00002420       ??_C@_0O@BCPMENMJ@ReleaseDevice@ 0000000180025420     SpeechSynthesisImpl.obj
 0002:00002430       ??_C@_0BA@GFABKEEE@ResetStatistics@ 0000000180025430     SpeechSynthesisImpl.obj
 0002:00002440       ??_C@_0BD@DPALHJGC@RetrieveStatistics@ 0000000180025440     SpeechSynthesisImpl.obj
 0002:00002458       ??_C@_0BB@KOHIKNFC@UpdateStatistics@ 0000000180025458     SpeechSynthesisImpl.obj
 0002:00002470       ??_C@_0BH@PBKBNMGB@CompareFirmwareVersion@ 0000000180025470     SpeechSynthesisImpl.obj
 0002:00002488       ??_C@_0P@FBPDPIPA@UpdateFirmware@ 0000000180025488     SpeechSynthesisImpl.obj
 0002:00002498       ??_C@_05POBBNAIA@Speak@    0000000180025498     SpeechSynthesisImpl.obj
 0002:000024a0       ??_C@_0P@BMDFJCIJ@SpeakImmediate@ 00000001800254a0     SpeechSynthesisImpl.obj
 0002:000024b0       ??_C@_0BE@PNLOIBNJ@StopCurrentSpeaking@ 00000001800254b0     SpeechSynthesisImpl.obj
 0002:000024c8       ??_C@_0N@GLHCAJCO@StopSpeaking@ 00000001800254c8     SpeechSynthesisImpl.obj
 0002:000024d8       ??_7?$CProxy_IOPOSEvents@VCOPOSSpeechSynthesis@@@@6B@ 00000001800254d8     SpeechSynthesisImpl.obj
 0002:00002518       ??_C@_1BA@IFHENID@?$AA?$FL?$AAE?$AAr?$AAr?$AAo?$AAr?$AA?$FN@ 0000000180025518     SpeechSynthesisImpl.obj
 0002:00002528       ??_C@_0DC@EKAGOANN@SOFTWARE?2OLEforRetail?2ServiceOP@ 0000000180025528     SpeechSynthesisImpl.obj
 0002:00002560       ??_C@_1M@IAIJHCCH@?$AAC?$AAl?$AAo?$AAs?$AAe@ 0000000180025560     SpeechSynthesisImpl.obj
 0002:00002570       ??_C@_1M@PCPKGJAH@?$AAC?$AAl?$AAa?$AAi?$AAm@ 0000000180025570     SpeechSynthesisImpl.obj
 0002:00002580       ??_C@_1BA@NDFKIOCP@?$AAR?$AAe?$AAl?$AAe?$AAa?$AAs?$AAe@ 0000000180025580     SpeechSynthesisImpl.obj
 0002:00002590       ??_C@_0BA@GHOPNIK@SpeechSynthesis@ 0000000180025590     SpeechSynthesisImpl.obj
 0002:000025a0       ??_C@_1BM@IJMNMBPK@?$AAG?$AAe?$AAt?$AAO?$AAp?$AAe?$AAn?$AAR?$AAe?$AAs?$AAu?$AAl?$AAt@ 00000001800255a0     SpeechSynthesisImpl.obj
 0002:000025c0       IID_IDispatch              00000001800255c0     uuid:oaidl_i.obj
 0002:000025d0       IID_IPropertyNotifySink    00000001800255d0     uuid:ocidl_i.obj
 0002:000025e0       GUID_NULL                  00000001800255e0     uuid:cguid_i.obj
 0002:000025f0       CLSID_StdGlobalInterfaceTable 00000001800255f0     uuid:cguid_i.obj
 0002:00002600       CLSID_StdComponentCategoriesMgr 0000000180025600     uuid:ieguids.obj
 0002:00002610       IID_IUnknown               0000000180025610     uuid:unknwn_i.obj
 0002:00002620       __xmm@ffffffffffffffffffffffffffffffff 0000000180025620     LIBCMT:utility.obj
 0002:00002630       ??_C@_1EC@JIJBPKFM@?$AAa?$AAp?$AAi?$AA?9?$AAm?$AAs?$AA?9?$AAw?$AAi?$AAn?$AA?9?$AAc?$AAo?$AAr?$AAe@ 0000000180025630     LIBCMT:thread_safe_statics.obj
 0002:00002678       ??_C@_1BK@MGMFAEKH@?$AAk?$AAe?$AAr?$AAn?$AAe?$AAl?$AA3?$AA2?$AA?4?$AAd?$AAl?$AAl@ 0000000180025678     LIBCMT:thread_safe_statics.obj
 0002:00002698       ??_C@_0BJ@JEBJOJFJ@SleepConditionVariableCS@ 0000000180025698     LIBCMT:thread_safe_statics.obj
 0002:000026b8       ??_C@_0BJ@PGPPEPCC@WakeAllConditionVariable@ 00000001800256b8     LIBCMT:thread_safe_statics.obj
 0002:000026d1       ?nothrow@std@@3Unothrow_t@1@B 00000001800256d1     LIBCMT:std_nothrow.obj
 0002:000026e8       _pDefaultRawDllMain        00000001800256e8     LIBCMT:dll_dllmain.obj
 0002:000026e8       _pRawDllMain               00000001800256e8     LIBCMT:dll_dllmain.obj
 0002:000026f8       ??_7exception@std@@6B@     00000001800256f8     LIBCMT:throw_bad_alloc.obj
 0002:00002708       ??_C@_0BC@EOODALEL@Unknown?5exception@ 0000000180025708     LIBCMT:throw_bad_alloc.obj
 0002:00002728       ??_7bad_alloc@std@@6B@     0000000180025728     LIBCMT:throw_bad_alloc.obj
 0002:00002738       ??_C@_0P@GHFPNOJB@bad?5allocation@ 0000000180025738     LIBCMT:throw_bad_alloc.obj
 0002:00002750       ??_7bad_array_new_length@std@@6B@ 0000000180025750     LIBCMT:throw_bad_alloc.obj
 0002:00002760       ??_C@_0BF@KINCDENJ@bad?5array?5new?5length@ 0000000180025760     LIBCMT:throw_bad_alloc.obj
 0002:00002780       ??_7type_info@@6B@         0000000180025780     LIBCMT:std_type_info_static.obj
 0002:00002788       GUID_ATLVer110             0000000180025788     atls:atlbase.obj
 0002:000027a0       ??_C@_1IC@ONKHOIDK@?$AAE?$AAR?$AAR?$AAO?$AAR?$AA?5?$AA?3?$AA?5?$AAU?$AAn?$AAa?$AAb?$AAl?$AAe?$AA?5@ 00000001800257a0     atls:atlbase.obj
 0002:00002828       ??_C@_0N@FJEPLCIH@atlthunk?4dll@ 0000000180025828     atls:atlthunk.obj
 0002:00002838       ??_C@_0BG@GAKFHCBM@AtlThunk_AllocateData@ 0000000180025838     atls:atlthunk.obj
 0002:00002850       ??_C@_0BC@JKONFIAH@AtlThunk_InitData@ 0000000180025850     atls:atlthunk.obj
 0002:00002868       ??_C@_0BE@IAOEELAK@AtlThunk_DataToCode@ 0000000180025868     atls:atlthunk.obj
 0002:00002880       ??_C@_0BC@GBGKAIPI@AtlThunk_FreeData@ 0000000180025880     atls:atlthunk.obj
 0002:00002898       ?s_negLengthTab@FH4@@3QBCB 0000000180025898     libvcruntime:risctrnsctrl.obj
 0002:000028a8       ?s_shiftTab@FH4@@3QBEB     00000001800258a8     libvcruntime:risctrnsctrl.obj
 0002:00002958       _pDestructExceptionObject  0000000180025958     libvcruntime:ehhelpers.obj
 0002:00002968       ??_7bad_exception@std@@6B@ 0000000180025968     libvcruntime:frame.obj
 0002:00002978       ??_C@_0O@DPKOEFFH@bad?5exception@ 0000000180025978     libvcruntime:frame.obj
 0002:00003090       ??_C@_08EHJDFFNH@__based?$CI@ 0000000180026090     libvcruntime:undname.obj
 0002:000030a0       ??_C@_07KOLFKCDI@__cdecl@  00000001800260a0     libvcruntime:undname.obj
 0002:000030a8       ??_C@_08GHMPAG@__pascal@   00000001800260a8     libvcruntime:undname.obj
 0002:000030b8       ??_C@_09IFJBGAPI@__stdcall@ 00000001800260b8     libvcruntime:undname.obj
 0002:000030c8       ??_C@_0L@NPHFGOKO@__thiscall@ 00000001800260c8     libvcruntime:undname.obj
 0002:000030d8       ??_C@_0L@JMKHOMEK@__fastcall@ 00000001800260d8     libvcruntime:undname.obj
 0002:000030e8       ??_C@_0N@BCKKPABJ@__vectorcall@ 00000001800260e8     libvcruntime:undname.obj
 0002:000030f8       ??_C@_09HIJEGCPM@__clrcall@ 00000001800260f8     libvcruntime:undname.obj
 0002:00003104       ??_C@_06GHPCKEAG@__eabi@   0000000180026104     libvcruntime:undname.obj
 0002:00003110       ??_C@_09IOPIDJLG@__swift_1@ 0000000180026110     libvcruntime:undname.obj
 0002:00003120       ??_C@_09KFNFGKHF@__swift_2@ 0000000180026120     libvcruntime:undname.obj
 0002:00003130       ??_C@_07JOMMBBKO@__ptr64@  0000000180026130     libvcruntime:undname.obj
 0002:00003138       ??_C@_0L@PILCLIHE@__restrict@ 0000000180026138     libvcruntime:undname.obj
 0002:00003148       ??_C@_0M@GFIIJFMG@__unaligned@ 0000000180026148     libvcruntime:undname.obj
 0002:00003158       ??_C@_09DHDLOLLB@restrict?$CI@ 0000000180026158     libvcruntime:undname.obj
 0002:00003162       ??_C@_00CNPNBAHC@@         0000000180026162     libvcruntime:undname.obj
 0002:00003164       ??_C@_04NIHEBCM@?5new@     0000000180026164     libvcruntime:undname.obj
 0002:00003170       ??_C@_07FPCDHGMM@?5delete@ 0000000180026170     libvcruntime:undname.obj
 0002:00003178       ??_C@_01NEMOKFLO@?$DN@     0000000180026178     libvcruntime:undname.obj
 0002:0000317c       ??_C@_02GPIOPFAK@?$DO?$DO@ 000000018002617c     libvcruntime:undname.obj
 0002:00003180       ??_C@_02FODMEDOG@?$DM?$DM@ 0000000180026180     libvcruntime:undname.obj
 0002:00003184       ??_C@_01DCLJPIOD@?$CB@     0000000180026184     libvcruntime:undname.obj
 0002:00003188       ??_C@_02EGOFBIJA@?$DN?$DN@ 0000000180026188     libvcruntime:undname.obj
 0002:0000318c       ??_C@_02FDNJECIE@?$CB?$DN@ 000000018002618c     libvcruntime:undname.obj
 0002:00003190       ??_C@_02GPECMEKF@?$FL?$FN@ 0000000180026190     libvcruntime:undname.obj
 0002:00003198       ??_C@_08LHJFAFGD@operator@ 0000000180026198     libvcruntime:undname.obj
 0002:000031a4       ??_C@_02HBOOOICD@?9?$DO@   00000001800261a4     libvcruntime:undname.obj
 0002:000031a8       ??_C@_01NBENCBCI@?$CK@     00000001800261a8     libvcruntime:undname.obj
 0002:000031ac       ??_C@_02ECNGHCIF@?$CL?$CL@ 00000001800261ac     libvcruntime:undname.obj
 0002:000031b0       ??_C@_02BAABKJLB@?9?9@     00000001800261b0     libvcruntime:undname.obj
 0002:000031b4       ??_C@_01JOAMLHOP@?9@       00000001800261b4     libvcruntime:undname.obj
 0002:000031b8       ??_C@_01MIFGBAGJ@?$CL@     00000001800261b8     libvcruntime:undname.obj
 0002:000031bc       ??_C@_01HNPIGOCE@?$CG@     00000001800261bc     libvcruntime:undname.obj
 0002:000031c0       ??_C@_03MNHNFDLC@?9?$DO?$CK@ 00000001800261c0     libvcruntime:undname.obj
 0002:000031c4       ??_C@_01KMDKNFGN@?1@       00000001800261c4     libvcruntime:undname.obj
 0002:000031c8       ??_C@_01FGNFDNOH@?$CF@     00000001800261c8     libvcruntime:undname.obj
 0002:000031cc       ??_C@_01MNNFJEPP@?$DM@     00000001800261cc     libvcruntime:undname.obj
 0002:000031d0       ??_C@_02EHCHHCKH@?$DM?$DN@ 00000001800261d0     libvcruntime:undname.obj
 0002:000031d4       ??_C@_01PPODPGHN@?$DO@     00000001800261d4     libvcruntime:undname.obj
 0002:000031d8       ??_C@_02EEKDKGMJ@?$DO?$DN@ 00000001800261d8     libvcruntime:undname.obj
 0002:000031dc       ??_C@_01IHBHIGKO@?0@       00000001800261dc     libvcruntime:undname.obj
 0002:000031e0       ??_C@_02HCKGKOFO@?$CI?$CJ@ 00000001800261e0     libvcruntime:undname.obj
 0002:000031e4       ??_C@_01PJKLJHI@?$HO@      00000001800261e4     libvcruntime:undname.obj
 0002:000031e8       ??_C@_01JKBOJNNK@?$FO@     00000001800261e8     libvcruntime:undname.obj
 0002:000031ec       ??_C@_01DNKMNLPK@?$HM@     00000001800261ec     libvcruntime:undname.obj
 0002:000031f0       ??_C@_02PPKAJPJL@?$CG?$CG@ 00000001800261f0     libvcruntime:undname.obj
 0002:000031f4       ??_C@_02NONPIBCD@?$HM?$HM@ 00000001800261f4     libvcruntime:undname.obj
 0002:000031f8       ??_C@_02FPIMKNGF@?$CK?$DN@ 00000001800261f8     libvcruntime:undname.obj
 0002:000031fc       ??_C@_02FOEOMHFC@?$CL?$DN@ 00000001800261fc     libvcruntime:undname.obj
 0002:00003200       ??_C@_02FKMDLLOA@?9?$DN@   0000000180026200     libvcruntime:undname.obj
 0002:00003204       ??_C@_02FJEHGPIO@?1?$DN@   0000000180026204     libvcruntime:undname.obj
 0002:00003208       ??_C@_02FENAOKFI@?$CF?$DN@ 0000000180026208     libvcruntime:undname.obj
 0002:0000320c       ??_C@_03IKFCCPFF@?$DO?$DO?$DN@ 000000018002620c     libvcruntime:undname.obj
 0002:00003210       ??_C@_03CDNPDDLA@?$DM?$DM?$DN@ 0000000180026210     libvcruntime:undname.obj
 0002:00003214       ??_C@_02FGJGFEAB@?$CG?$DN@ 0000000180026214     libvcruntime:undname.obj
 0002:00003218       ??_C@_02DHLNPPGH@?$HM?$DN@ 0000000180026218     libvcruntime:undname.obj
 0002:0000321c       ??_C@_02MHEGNOJ@?$FO?$DN@  000000018002621c     libvcruntime:undname.obj
 0002:00003220       ??_C@_09IFPLHPGF@?$GAvftable?8@ 0000000180026220     libvcruntime:undname.obj
 0002:00003230       ??_C@_09BLBHBJP@?$GAvbtable?8@ 0000000180026230     libvcruntime:undname.obj
 0002:00003240       ??_C@_07FEEIOKP@?$GAvcall?8@ 0000000180026240     libvcruntime:undname.obj
 0002:00003248       ??_C@_08LLFFHHDJ@?$GAtypeof?8@ 0000000180026248     libvcruntime:undname.obj
 0002:00003258       ??_C@_0BF@KDPPACIK@?$GAlocal?5static?5guard?8@ 0000000180026258     libvcruntime:undname.obj
 0002:00003270       ??_C@_08OBABFOLI@?$GAstring?8@ 0000000180026270     libvcruntime:undname.obj
 0002:00003280       ??_C@_0BD@JDLKDPAB@?$GAvbase?5destructor?8@ 0000000180026280     libvcruntime:undname.obj
 0002:00003298       ??_C@_0BN@DEGPLNFK@?$GAvector?5deleting?5destructor?8@ 0000000180026298     libvcruntime:undname.obj
 0002:000032b8       ??_C@_0BO@OBMKPJIG@?$GAdefault?5constructor?5closure?8@ 00000001800262b8     libvcruntime:undname.obj
 0002:000032d8       ??_C@_0BN@IMDCHIKM@?$GAscalar?5deleting?5destructor?8@ 00000001800262d8     libvcruntime:undname.obj
 0002:000032f8       ??_C@_0BO@PFGOCPJJ@?$GAvector?5constructor?5iterator?8@ 00000001800262f8     libvcruntime:undname.obj
 0002:00003318       ??_C@_0BN@LFPFMEDL@?$GAvector?5destructor?5iterator?8@ 0000000180026318     libvcruntime:undname.obj
 0002:00003338       ??_C@_0CE@IKBNEHA@?$GAvector?5vbase?5constructor?5itera@ 0000000180026338     libvcruntime:undname.obj
 0002:00003360       ??_C@_0BL@NILFHHPC@?$GAvirtual?5displacement?5map?8@ 0000000180026360     libvcruntime:undname.obj
 0002:00003380       ??_C@_0CB@JONCMFFK@?$GAeh?5vector?5constructor?5iterator@ 0000000180026380     libvcruntime:undname.obj
 0002:000033a8       ??_C@_0CA@GCEOPDGL@?$GAeh?5vector?5destructor?5iterator?8@ 00000001800263a8     libvcruntime:undname.obj
 0002:000033c8       ??_C@_0CH@OOJPLCPH@?$GAeh?5vector?5vbase?5constructor?5it@ 00000001800263c8     libvcruntime:undname.obj
 0002:000033f0       ??_C@_0BL@LLKPOHJI@?$GAcopy?5constructor?5closure?8@ 00000001800263f0     libvcruntime:undname.obj
 0002:00003410       ??_C@_0BA@KBCDOMBN@?$GAudt?5returning?8@ 0000000180026410     libvcruntime:undname.obj
 0002:00003420       ??_C@_03KLGMFNMG@?$GAEH@   0000000180026420     libvcruntime:undname.obj
 0002:00003424       ??_C@_05KHLCHHI@?$GARTTI@  0000000180026424     libvcruntime:undname.obj
 0002:00003430       ??_C@_0BA@KKLDJDLB@?$GAlocal?5vftable?8@ 0000000180026430     libvcruntime:undname.obj
 0002:00003440       ??_C@_0CE@IIHCMGGL@?$GAlocal?5vftable?5constructor?5clos@ 0000000180026440     libvcruntime:undname.obj
 0002:00003464       ??_C@_06FHBGPFGH@?5new?$FL?$FN@ 0000000180026464     libvcruntime:undname.obj
 0002:00003470       ??_C@_09LBNFPBCA@?5delete?$FL?$FN@ 0000000180026470     libvcruntime:undname.obj
 0002:00003480       ??_C@_0P@HJKNJFNN@?$GAomni?5callsig?8@ 0000000180026480     libvcruntime:undname.obj
 0002:00003490       ??_C@_0BL@CNOONJFP@?$GAplacement?5delete?5closure?8@ 0000000180026490     libvcruntime:undname.obj
 0002:000034b0       ??_C@_0BN@CKNJLHMB@?$GAplacement?5delete?$FL?$FN?5closure?8@ 00000001800264b0     libvcruntime:undname.obj
 0002:000034d0       ??_C@_0CG@CFDHKGGD@?$GAmanaged?5vector?5constructor?5ite@ 00000001800264d0     libvcruntime:undname.obj
 0002:000034f8       ??_C@_0CF@IMGKMJNO@?$GAmanaged?5vector?5destructor?5iter@ 00000001800264f8     libvcruntime:undname.obj
 0002:00003520       ??_C@_0CG@HLDDJMAG@?$GAeh?5vector?5copy?5constructor?5ite@ 0000000180026520     libvcruntime:undname.obj
 0002:00003548       ??_C@_0CM@FCBBDIGB@?$GAeh?5vector?5vbase?5copy?5construct@ 0000000180026548     libvcruntime:undname.obj
 0002:00003578       ??_C@_0BL@CLIPGLGB@?$GAdynamic?5initializer?5for?5?8@ 0000000180026578     libvcruntime:undname.obj
 0002:00003598       ??_C@_0CB@PDBIFEP@?$GAdynamic?5atexit?5destructor?5for?5@ 0000000180026598     libvcruntime:undname.obj
 0002:000035c0       ??_C@_0CD@CGAJBKEJ@?$GAvector?5copy?5constructor?5iterat@ 00000001800265c0     libvcruntime:undname.obj
 0002:000035e8       ??_C@_0CJ@GJELGAMM@?$GAvector?5vbase?5copy?5constructor?5@ 00000001800265e8     libvcruntime:undname.obj
 0002:00003618       ??_C@_0CL@FGIJHLCE@?$GAmanaged?5vector?5copy?5constructo@ 0000000180026618     libvcruntime:undname.obj
 0002:00003648       ??_C@_0BM@PMGGMLDN@?$GAlocal?5static?5thread?5guard?8@ 0000000180026648     libvcruntime:undname.obj
 0002:00003668       ??_C@_0N@BDNMDMOL@operator?5?$CC?$CC?5@ 0000000180026668     libvcruntime:undname.obj
 0002:00003678       ??_C@_0BC@GGEBGALA@operator?5co_await@ 0000000180026678     libvcruntime:undname.obj
 0002:00003690       ??_C@_0M@GAAIMMOH@operator?$DM?$DN?$DO@ 0000000180026690     libvcruntime:undname.obj
 0002:000036a0       ??_C@_0BC@DAFEJGAK@?5Type?5Descriptor?8@ 00000001800266a0     libvcruntime:undname.obj
 0002:000036b8       ??_C@_0BM@LDKODKLH@?5Base?5Class?5Descriptor?5at?5?$CI@ 00000001800266b8     libvcruntime:undname.obj
 0002:000036d8       ??_C@_0BD@LGICGFMM@?5Base?5Class?5Array?8@ 00000001800266d8     libvcruntime:undname.obj
 0002:000036f0       ??_C@_0BN@MECKDCOJ@?5Class?5Hierarchy?5Descriptor?8@ 00000001800266f0     libvcruntime:undname.obj
 0002:00003710       ??_C@_0BK@CFCOFLF@?5Complete?5Object?5Locator?8@ 0000000180026710     libvcruntime:undname.obj
 0002:00003730       ??_C@_0BG@JNJLAMPM@?$GAanonymous?5namespace?8@ 0000000180026730     libvcruntime:undname.obj
 0002:00003760       ??_C@_1DM@KHCHBNEB@?$AAa?$AAp?$AAi?$AA?9?$AAm?$AAs?$AA?9?$AAw?$AAi?$AAn?$AA?9?$AAc?$AAo?$AAr?$AAe@ 0000000180026760     libvcruntime:winapi_downlevel.obj
 0002:000037a0       ??_C@_1DK@LPPGFMPP@?$AAa?$AAp?$AAi?$AA?9?$AAm?$AAs?$AA?9?$AAw?$AAi?$AAn?$AA?9?$AAc?$AAo?$AAr?$AAe@ 00000001800267a0     libvcruntime:winapi_downlevel.obj
 0002:000037e0       ??_C@_1BC@GDMECMAK@?$AAk?$AAe?$AAr?$AAn?$AAe?$AAl?$AA3?$AA2@ 00000001800267e0     libvcruntime:winapi_downlevel.obj
 0002:000037f8       ??_C@_1BA@PFFKHIOG@?$AAa?$AAp?$AAi?$AA?9?$AAm?$AAs?$AA?9@ 00000001800267f8     libvcruntime:winapi_downlevel.obj
 0002:00003810       ??_C@_08KNHFBNJ@FlsAlloc@  0000000180026810     libvcruntime:winapi_downlevel.obj
 0002:00003828       ??_C@_07PEJMOBNF@FlsFree@  0000000180026828     libvcruntime:winapi_downlevel.obj
 0002:00003838       ??_C@_0M@GDNOONDI@FlsGetValue@ 0000000180026838     libvcruntime:winapi_downlevel.obj
 0002:00003850       ??_C@_0M@JCPCPOEF@FlsSetValue@ 0000000180026850     libvcruntime:winapi_downlevel.obj
 0002:00003868       ??_C@_0BM@HCFOFFN@InitializeCriticalSectionEx@ 0000000180026868     libvcruntime:winapi_downlevel.obj
 0002:00003a00       ?format_validation_lookup_table_spectre@__crt_stdio_output@@3V?$spectre_mitigated_lookup_table@Ustate_transition_pair@__crt_stdio_output@@$0IA@@1@B 0000000180026a00     libucrt:output.obj
 0002:00003e00       ??_C@_1O@CEDCILHN@?$AA?$CI?$AAn?$AAu?$AAl?$AAl?$AA?$CJ@ 0000000180026e00     libucrt:output.obj
 0002:00003e10       ??_C@_06OJHGLDPL@?$CInull?$CJ@ 0000000180026e10     libucrt:output.obj
 0002:00003e20       __acrt_exception_action_table 0000000180026e20     libucrt:exception_filter.obj
 0002:00003ee0       __acrt_signal_action_table_count 0000000180026ee0     libucrt:exception_filter.obj
 0002:00003ee8       __acrt_signal_action_first_fpe_index 0000000180026ee8     libucrt:exception_filter.obj
 0002:00003ef0       __acrt_signal_action_fpe_count 0000000180026ef0     libucrt:exception_filter.obj
 0002:00003ef8       ??_C@_1BI@BGOHAHKC@?$AAm?$AAs?$AAc?$AAo?$AAr?$AAe?$AAe?$AA?4?$AAd?$AAl?$AAl@ 0000000180026ef8     libucrt:exit.obj
 0002:00003f10       ??_C@_0P@MIGLKIOC@CorExitProcess@ 0000000180026f10     libucrt:exit.obj
 0002:000040c0       ??_C@_1EA@JGEFHKEI@?$AAa?$AAp?$AAi?$AA?9?$AAm?$AAs?$AA?9?$AAw?$AAi?$AAn?$AA?9?$AAc?$AAo?$AAr?$AAe@ 00000001800270c0     libucrt:winapi_thunks.obj
 0002:00004100       ??_C@_1DI@IJCEHOCB@?$AAa?$AAp?$AAi?$AA?9?$AAm?$AAs?$AA?9?$AAw?$AAi?$AAn?$AA?9?$AAc?$AAo?$AAr?$AAe@ 0000000180027100     libucrt:winapi_thunks.obj
 0002:00004140       ??_C@_1EI@MPIAOHOC@?$AAa?$AAp?$AAi?$AA?9?$AAm?$AAs?$AA?9?$AAw?$AAi?$AAn?$AA?9?$AAc?$AAo?$AAr?$AAe@ 0000000180027140     libucrt:winapi_thunks.obj
 0002:00004190       ??_C@_1FK@FPHCKFIE@?$AAa?$AAp?$AAi?$AA?9?$AAm?$AAs?$AA?9?$AAw?$AAi?$AAn?$AA?9?$AAc?$AAo?$AAr?$AAe@ 0000000180027190     libucrt:winapi_thunks.obj
 0002:000041f0       ??_C@_1EM@DILCGIIO@?$AAa?$AAp?$AAi?$AA?9?$AAm?$AAs?$AA?9?$AAw?$AAi?$AAn?$AA?9?$AAc?$AAo?$AAr?$AAe@ 00000001800271f0     libucrt:winapi_thunks.obj
 0002:00004240       ??_C@_1DM@LNCGDDPN@?$AAa?$AAp?$AAi?$AA?9?$AAm?$AAs?$AA?9?$AAw?$AAi?$AAn?$AA?9?$AAc?$AAo?$AAr?$AAe@ 0000000180027240     libucrt:winapi_thunks.obj
 0002:00004280       ??_C@_1DO@FPAPJEMD@?$AAa?$AAp?$AAi?$AA?9?$AAm?$AAs?$AA?9?$AAw?$AAi?$AAn?$AA?9?$AAc?$AAo?$AAr?$AAe@ 0000000180027280     libucrt:winapi_thunks.obj
 0002:000042c0       ??_C@_1DK@NDHNAHIO@?$AAa?$AAp?$AAi?$AA?9?$AAm?$AAs?$AA?9?$AAw?$AAi?$AAn?$AA?9?$AAc?$AAo?$AAr?$AAe@ 00000001800272c0     libucrt:winapi_thunks.obj
 0002:00004300       ??_C@_1DM@KGHDGBCM@?$AAa?$AAp?$AAi?$AA?9?$AAm?$AAs?$AA?9?$AAw?$AAi?$AAn?$AA?9?$AAc?$AAo?$AAr?$AAe@ 0000000180027300     libucrt:winapi_thunks.obj
 0002:00004340       ??_C@_1EO@IJIOEFOH@?$AAa?$AAp?$AAi?$AA?9?$AAm?$AAs?$AA?9?$AAw?$AAi?$AAn?$AA?9?$AAr?$AAt?$AAc?$AAo@ 0000000180027340     libucrt:winapi_thunks.obj
 0002:00004390       ??_C@_1FG@HHGEKANL@?$AAa?$AAp?$AAi?$AA?9?$AAm?$AAs?$AA?9?$AAw?$AAi?$AAn?$AA?9?$AAs?$AAe?$AAc?$AAu@ 0000000180027390     libucrt:winapi_thunks.obj
 0002:000043f0       ??_C@_1EG@DBIOJECG@?$AAe?$AAx?$AAt?$AA?9?$AAm?$AAs?$AA?9?$AAw?$AAi?$AAn?$AA?9?$AAn?$AAt?$AAu?$AAs@ 00000001800273f0     libucrt:winapi_thunks.obj
 0002:00004440       ??_C@_1EO@FIHMJCLF@?$AAe?$AAx?$AAt?$AA?9?$AAm?$AAs?$AA?9?$AAw?$AAi?$AAn?$AA?9?$AAn?$AAt?$AAu?$AAs@ 0000000180027440     libucrt:winapi_thunks.obj
 0002:00004490       ??_C@_1BC@DNHGCMLG@?$AAa?$AAd?$AAv?$AAa?$AAp?$AAi?$AA3?$AA2@ 0000000180027490     libucrt:winapi_thunks.obj
 0002:000044a8       ??_C@_1M@OAIMIKLP@?$AAn?$AAt?$AAd?$AAl?$AAl@ 00000001800274a8     libucrt:winapi_thunks.obj
 0002:000044c0       ??_C@_1EG@DPGNFKGC@?$AAa?$AAp?$AAi?$AA?9?$AAm?$AAs?$AA?9?$AAw?$AAi?$AAn?$AA?9?$AAa?$AAp?$AAp?$AAm@ 00000001800274c0     libucrt:winapi_thunks.obj
 0002:00004508       ??_C@_1O@BCCLBEOE@?$AAu?$AAs?$AAe?$AAr?$AA3?$AA2@ 0000000180027508     libucrt:winapi_thunks.obj
 0002:00004518       ??_C@_1BA@IAIFMGEF@?$AAe?$AAx?$AAt?$AA?9?$AAm?$AAs?$AA?9@ 0000000180027518     libucrt:winapi_thunks.obj
 0002:00004530       ??_C@_0BA@FHFNEAED@AreFileApisANSI@ 0000000180027530     libucrt:winapi_thunks.obj
 0002:00004570       ??_C@_0O@KKBNKAPF@LCMapStringEx@ 0000000180027570     libucrt:winapi_thunks.obj
 0002:00004588       ??_C@_0BB@HBDEELFH@LocaleNameToLCID@ 0000000180027588     libucrt:winapi_thunks.obj
 0002:000045a0       ??_C@_0CF@OJOFEIGO@AppPolicyGetProcessTerminationM@ 00000001800275a0     libucrt:winapi_thunks.obj
 0002:000045d0       ??_C@_0BI@BKLFFAPO@SetThreadStackGuarantee@ 00000001800275d0     libucrt:winapi_thunks.obj
 0002:00004670       ??_C@_03OEIAHPBN@INF@      0000000180027670     libucrt:cvt.obj
 0002:00004674       ??_C@_03OJHLLCGB@inf@      0000000180027674     libucrt:cvt.obj
 0002:00004678       ??_C@_03LKNCIKJB@NAN@      0000000180027678     libucrt:cvt.obj
 0002:0000467c       ??_C@_03LHCJEHON@nan@      000000018002767c     libucrt:cvt.obj
 0002:00004680       ??_C@_09OFJJIMPC@NAN?$CISNAN?$CJ@ 0000000180027680     libucrt:cvt.obj
 0002:00004690       ??_C@_09IPFBKMDL@nan?$CIsnan?$CJ@ 0000000180027690     libucrt:cvt.obj
 0002:000046a0       ??_C@_08IKHNHAJ@NAN?$CIIND?$CJ@ 00000001800276a0     libucrt:cvt.obj
 0002:000046b0       ??_C@_08OFCDMILK@nan?$CIind?$CJ@ 00000001800276b0     libucrt:cvt.obj
 0002:000046bc       ??_C@_05KLBDPFGC@e?$CL000@ 00000001800276bc     libucrt:cvt.obj
 0002:000046d0       __lc_time_c                00000001800276d0     libucrt:nlsdata.obj
 0002:00004990       ??_C@_03KOEHGMDN@Sun@      0000000180027990     libucrt:nlsdata.obj
 0002:00004994       ??_C@_03PDAGKDH@Mon@       0000000180027994     libucrt:nlsdata.obj
 0002:00004998       ??_C@_03NAGEINEP@Tue@      0000000180027998     libucrt:nlsdata.obj
 0002:0000499c       ??_C@_03MHOMLAJA@Wed@      000000018002799c     libucrt:nlsdata.obj
 0002:000049a0       ??_C@_03IOFIKPDN@Thu@      00000001800279a0     libucrt:nlsdata.obj
 0002:000049a4       ??_C@_03IDIOELNC@Fri@      00000001800279a4     libucrt:nlsdata.obj
 0002:000049a8       ??_C@_03FEFJNEK@Sat@       00000001800279a8     libucrt:nlsdata.obj
 0002:000049ac       ??_C@_06OOPIFAJ@Sunday@    00000001800279ac     libucrt:nlsdata.obj
 0002:000049b4       ??_C@_06JLEDEDGH@Monday@   00000001800279b4     libucrt:nlsdata.obj
 0002:000049c0       ??_C@_07BAAGCFCM@Tuesday@  00000001800279c0     libucrt:nlsdata.obj
 0002:000049c8       ??_C@_09DLIGFAKA@Wednesday@ 00000001800279c8     libucrt:nlsdata.obj
 0002:000049d8       ??_C@_08HACCIKIA@Thursday@ 00000001800279d8     libucrt:nlsdata.obj
 0002:000049e4       ??_C@_06JECMNKMI@Friday@   00000001800279e4     libucrt:nlsdata.obj
 0002:000049f0       ??_C@_08INBOOONO@Saturday@ 00000001800279f0     libucrt:nlsdata.obj
 0002:000049fc       ??_C@_03JIHJHPIE@Jan@      00000001800279fc     libucrt:nlsdata.obj
 0002:00004a00       ??_C@_03HJBDCHOM@Feb@      0000000180027a00     libucrt:nlsdata.obj
 0002:00004a04       ??_C@_03ODNJBKGA@Mar@      0000000180027a04     libucrt:nlsdata.obj
 0002:00004a08       ??_C@_03LEOLGMJP@Apr@      0000000180027a08     libucrt:nlsdata.obj
 0002:00004a0c       ??_C@_03CNMDKL@May@        0000000180027a0c     libucrt:nlsdata.obj
 0002:00004a10       ??_C@_03IDFGHECI@Jun@      0000000180027a10     libucrt:nlsdata.obj
 0002:00004a14       ??_C@_03LBGABGKK@Jul@      0000000180027a14     libucrt:nlsdata.obj
 0002:00004a18       ??_C@_03IFJFEIGA@Aug@      0000000180027a18     libucrt:nlsdata.obj
 0002:00004a1c       ??_C@_03GGCAPAJC@Sep@      0000000180027a1c     libucrt:nlsdata.obj
 0002:00004a20       ??_C@_03BMAOKBAD@Oct@      0000000180027a20     libucrt:nlsdata.obj
 0002:00004a24       ??_C@_03JPJOFNIA@Nov@      0000000180027a24     libucrt:nlsdata.obj
 0002:00004a28       ??_C@_03MKABNOCG@Dec@      0000000180027a28     libucrt:nlsdata.obj
 0002:00004a30       ??_C@_07CGJPFGJA@January@  0000000180027a30     libucrt:nlsdata.obj
 0002:00004a38       ??_C@_08GNJGEPFN@February@ 0000000180027a38     libucrt:nlsdata.obj
 0002:00004a44       ??_C@_05HPCKOFNC@March@    0000000180027a44     libucrt:nlsdata.obj
 0002:00004a4c       ??_C@_05DMJDNLEJ@April@    0000000180027a4c     libucrt:nlsdata.obj
 0002:00004a54       ??_C@_04CNLMGBGM@June@     0000000180027a54     libucrt:nlsdata.obj
 0002:00004a5c       ??_C@_04MIEPOIFP@July@     0000000180027a5c     libucrt:nlsdata.obj
 0002:00004a64       ??_C@_06LBBHFDDG@August@   0000000180027a64     libucrt:nlsdata.obj
 0002:00004a70       ??_C@_09BHHEALKD@September@ 0000000180027a70     libucrt:nlsdata.obj
 0002:00004a80       ??_C@_07JJNFCEND@October@  0000000180027a80     libucrt:nlsdata.obj
 0002:00004a88       ??_C@_08HCHEGEOA@November@ 0000000180027a88     libucrt:nlsdata.obj
 0002:00004a98       ??_C@_08EDHMEBNP@December@ 0000000180027a98     libucrt:nlsdata.obj
 0002:00004aa4       ??_C@_02DEDBPAFC@AM@       0000000180027aa4     libucrt:nlsdata.obj
 0002:00004aa8       ??_C@_02CJNFDJBF@PM@       0000000180027aa8     libucrt:nlsdata.obj
 0002:00004ab0       ??_C@_08BPBNCDIB@MM?1dd?1yy@ 0000000180027ab0     libucrt:nlsdata.obj
 0002:00004ac0       ??_C@_0BE@CKGJFCPC@dddd?0?5MMMM?5dd?0?5yyyy@ 0000000180027ac0     libucrt:nlsdata.obj
 0002:00004ad8       ??_C@_08JCCMCCIL@HH?3mm?3ss@ 0000000180027ad8     libucrt:nlsdata.obj
 0002:00004ae8       ??_C@_17MBGCMIPB@?$AAS?$AAu?$AAn@ 0000000180027ae8     libucrt:nlsdata.obj
 0002:00004af0       ??_C@_17KBOMKBF@?$AAM?$AAo?$AAn@ 0000000180027af0     libucrt:nlsdata.obj
 0002:00004af8       ??_C@_17BMKGEGOJ@?$AAT?$AAu?$AAe@ 0000000180027af8     libucrt:nlsdata.obj
 0002:00004b00       ??_C@_17CJEDCEPE@?$AAW?$AAe?$AAd@ 0000000180027b00     libucrt:nlsdata.obj
 0002:00004b08       ??_C@_17PDPHAADD@?$AAT?$AAh?$AAu@ 0000000180027b08     libucrt:nlsdata.obj
 0002:00004b10       ??_C@_17HFOLPPLP@?$AAF?$AAr?$AAi@ 0000000180027b10     libucrt:nlsdata.obj
 0002:00004b18       ??_C@_17GGIBDPIH@?$AAS?$AAa?$AAt@ 0000000180027b18     libucrt:nlsdata.obj
 0002:00004b20       ??_C@_1O@IHNHDHPB@?$AAS?$AAu?$AAn?$AAd?$AAa?$AAy@ 0000000180027b20     libucrt:nlsdata.obj
 0002:00004b30       ??_C@_1O@MMNBFLIA@?$AAM?$AAo?$AAn?$AAd?$AAa?$AAy@ 0000000180027b30     libucrt:nlsdata.obj
 0002:00004b40       ??_C@_1BA@ENFBFFEK@?$AAT?$AAu?$AAe?$AAs?$AAd?$AAa?$AAy@ 0000000180027b40     libucrt:nlsdata.obj
 0002:00004b50       ??_C@_1BE@EBOGMDOH@?$AAW?$AAe?$AAd?$AAn?$AAe?$AAs?$AAd?$AAa?$AAy@ 0000000180027b50     libucrt:nlsdata.obj
 0002:00004b68       ??_C@_1BC@HHMNLIHE@?$AAT?$AAh?$AAu?$AAr?$AAs?$AAd?$AAa?$AAy@ 0000000180027b68     libucrt:nlsdata.obj
 0002:00004b80       ??_C@_1O@PDICJHAG@?$AAF?$AAr?$AAi?$AAd?$AAa?$AAy@ 0000000180027b80     libucrt:nlsdata.obj
 0002:00004b90       ??_C@_1BC@ENMNNPAJ@?$AAS?$AAa?$AAt?$AAu?$AAr?$AAd?$AAa?$AAy@ 0000000180027b90     libucrt:nlsdata.obj
 0002:00004ba8       ??_C@_17DKNBKCHM@?$AAJ?$AAa?$AAn@ 0000000180027ba8     libucrt:nlsdata.obj
 0002:00004bb0       ??_C@_17LMDJEKJN@?$AAF?$AAe?$AAb@ 0000000180027bb0     libucrt:nlsdata.obj
 0002:00004bb8       ??_C@_17CKNLEDEC@?$AAM?$AAa?$AAr@ 0000000180027bb8     libucrt:nlsdata.obj
 0002:00004bc0       ??_C@_17LFPOIHDD@?$AAA?$AAp?$AAr@ 0000000180027bc0     libucrt:nlsdata.obj
 0002:00004bc8       ??_C@_17PNNKMEED@?$AAM?$AAa?$AAy@ 0000000180027bc8     libucrt:nlsdata.obj
 0002:00004bd0       ??_C@_17KCJGOCPB@?$AAJ?$AAu?$AAn@ 0000000180027bd0     libucrt:nlsdata.obj
 0002:00004bd8       ??_C@_17IJPCKHK@?$AAJ?$AAu?$AAl@ 0000000180027bd8     libucrt:nlsdata.obj
 0002:00004be0       ??_C@_17ICPELBCN@?$AAA?$AAu?$AAg@ 0000000180027be0     libucrt:nlsdata.obj
 0002:00004be8       ??_C@_17HCHCOKMG@?$AAS?$AAe?$AAp@ 0000000180027be8     libucrt:nlsdata.obj
 0002:00004bf0       ??_C@_17FNLKOI@?$AAO?$AAc?$AAt@ 0000000180027bf0     libucrt:nlsdata.obj
 0002:00004bf8       ??_C@_17BBDMLCIG@?$AAN?$AAo?$AAv@ 0000000180027bf8     libucrt:nlsdata.obj
 0002:00004c00       ??_C@_17EGKACKIF@?$AAD?$AAe?$AAc@ 0000000180027c00     libucrt:nlsdata.obj
 0002:00004c08       ??_C@_1BA@EFMEIEBA@?$AAJ?$AAa?$AAn?$AAu?$AAa?$AAr?$AAy@ 0000000180027c08     libucrt:nlsdata.obj
 0002:00004c18       ??_C@_1BC@JGDDFFAM@?$AAF?$AAe?$AAb?$AAr?$AAu?$AAa?$AAr?$AAy@ 0000000180027c18     libucrt:nlsdata.obj
 0002:00004c30       ??_C@_1M@IKEENEDF@?$AAM?$AAa?$AAr?$AAc?$AAh@ 0000000180027c30     libucrt:nlsdata.obj
 0002:00004c40       ??_C@_1M@GJNLMHFD@?$AAA?$AAp?$AAr?$AAi?$AAl@ 0000000180027c40     libucrt:nlsdata.obj
 0002:00004c50       ??_C@_19EPFLPGAP@?$AAJ?$AAu?$AAn?$AAe@ 0000000180027c50     libucrt:nlsdata.obj
 0002:00004c60       ??_C@_19BIFMLPCD@?$AAJ?$AAu?$AAl?$AAy@ 0000000180027c60     libucrt:nlsdata.obj
 0002:00004c70       ??_C@_1O@PAHLKOAC@?$AAA?$AAu?$AAg?$AAu?$AAs?$AAt@ 0000000180027c70     libucrt:nlsdata.obj
 0002:00004c80       ??_C@_1BE@DKAAMBJL@?$AAS?$AAe?$AAp?$AAt?$AAe?$AAm?$AAb?$AAe?$AAr@ 0000000180027c80     libucrt:nlsdata.obj
 0002:00004c98       ??_C@_1BA@EPANDLNG@?$AAO?$AAc?$AAt?$AAo?$AAb?$AAe?$AAr@ 0000000180027c98     libucrt:nlsdata.obj
 0002:00004ca8       ??_C@_1BC@BGLIFPF@?$AAN?$AAo?$AAv?$AAe?$AAm?$AAb?$AAe?$AAr@ 0000000180027ca8     libucrt:nlsdata.obj
 0002:00004cc0       ??_C@_1BC@FEMKIFH@?$AAD?$AAe?$AAc?$AAe?$AAm?$AAb?$AAe?$AAr@ 0000000180027cc0     libucrt:nlsdata.obj
 0002:00004cd4       ??_C@_15ODEHAHHF@?$AAA?$AAM@ 0000000180027cd4     libucrt:nlsdata.obj
 0002:00004cdc       ??_C@_15CLMNNGEL@?$AAP?$AAM@ 0000000180027cdc     libucrt:nlsdata.obj
 0002:00004ce8       ??_C@_1BC@IEBCMHCM@?$AAM?$AAM?$AA?1?$AAd?$AAd?$AA?1?$AAy?$AAy@ 0000000180027ce8     libucrt:nlsdata.obj
 0002:00004d00       ??_C@_1CI@KNAKOEBC@?$AAd?$AAd?$AAd?$AAd?$AA?0?$AA?5?$AAM?$AAM?$AAM?$AAM?$AA?5?$AAd?$AAd?$AA?0?$AA?5@ 0000000180027d00     libucrt:nlsdata.obj
 0002:00004d28       ??_C@_1BC@GDGBMEMK@?$AAH?$AAH?$AA?3?$AAm?$AAm?$AA?3?$AAs?$AAs@ 0000000180027d28     libucrt:nlsdata.obj
 0002:00004d40       ??_C@_1M@BMHNFIME@?$AAe?$AAn?$AA?9?$AAU?$AAS@ 0000000180027d40     libucrt:nlsdata.obj
 0002:00004d70       ??_C@_1M@HPNHIDJI@?$AAj?$AAa?$AA?9?$AAJ?$AAP@ 0000000180027d70     libucrt:mbctype.obj
 0002:00004d80       ??_C@_1M@BIBDDEMK@?$AAz?$AAh?$AA?9?$AAC?$AAN@ 0000000180027d80     libucrt:mbctype.obj
 0002:00004d90       ??_C@_1M@JLOOOEGK@?$AAk?$AAo?$AA?9?$AAK?$AAR@ 0000000180027d90     libucrt:mbctype.obj
 0002:00004da0       ??_C@_1M@CLNBBOPM@?$AAz?$AAh?$AA?9?$AAT?$AAW@ 0000000180027da0     libucrt:mbctype.obj
 0002:00004db0       __newctype                 0000000180027db0     libucrt:ctype.obj
 0002:000050b0       __newclmap                 00000001800280b0     libucrt:ctype.obj
 0002:00005230       __newcumap                 0000000180028230     libucrt:ctype.obj
 0002:000053b0       _wctype                    00000001800283b0     libucrt:ctype.obj
 0002:00006400       ??_C@_15EMKDOKLE@?$AAa?$AAr@ 0000000180029400     libucrt:lcidtoname_downlevel.obj
 0002:00006408       ??_C@_15KNPADPLH@?$AAb?$AAg@ 0000000180029408     libucrt:lcidtoname_downlevel.obj
 0002:00006410       ??_C@_15EDMHLDMO@?$AAc?$AAa@ 0000000180029410     libucrt:lcidtoname_downlevel.obj
 0002:00006418       ??_C@_1O@BPEAJADD@?$AAz?$AAh?$AA?9?$AAC?$AAH?$AAS@ 0000000180029418     libucrt:lcidtoname_downlevel.obj
 0002:00006428       ??_C@_15LJNHCMNK@?$AAc?$AAs@ 0000000180029428     libucrt:lcidtoname_downlevel.obj
 0002:00006430       ??_C@_15FOMCIDHG@?$AAd?$AAa@ 0000000180029430     libucrt:lcidtoname_downlevel.obj
 0002:00006438       ??_C@_15NBKABECB@?$AAd?$AAe@ 0000000180029438     libucrt:lcidtoname_downlevel.obj
 0002:00006440       ??_C@_15GHPEIIAO@?$AAe?$AAl@ 0000000180029440     libucrt:lcidtoname_downlevel.obj
 0002:00006448       ??_C@_15MNPNEAIF@?$AAe?$AAn@ 0000000180029448     libucrt:lcidtoname_downlevel.obj
 0002:00006450       ??_C@_15GPIOMPMH@?$AAe?$AAs@ 0000000180029450     libucrt:lcidtoname_downlevel.obj
 0002:00006458       ??_C@_15NGLOAKJC@?$AAf?$AAi@ 0000000180029458     libucrt:lcidtoname_downlevel.obj
 0002:00006460       ??_C@_15FBKGNKAM@?$AAf?$AAr@ 0000000180029460     libucrt:lcidtoname_downlevel.obj
 0002:00006468       ??_C@_15KGGCNEFK@?$AAh?$AAe@ 0000000180029468     libucrt:lcidtoname_downlevel.obj
 0002:00006470       ??_C@_15PGHLIDMF@?$AAh?$AAu@ 0000000180029470     libucrt:lcidtoname_downlevel.obj
 0002:00006478       ??_C@_15BIEMAPLM@?$AAi?$AAs@ 0000000180029478     libucrt:lcidtoname_downlevel.obj
 0002:00006480       ??_C@_15IFJLDHAF@?$AAi?$AAt@ 0000000180029480     libucrt:lcidtoname_downlevel.obj
 0002:00006488       ??_C@_15GEMIOCAG@?$AAj?$AAa@ 0000000180029488     libucrt:lcidtoname_downlevel.obj
 0002:00006490       ??_C@_15EPELEGJA@?$AAk?$AAo@ 0000000180029490     libucrt:lcidtoname_downlevel.obj
 0002:00006498       ??_C@_15NDDHIMN@?$AAn?$AAl@ 0000000180029498     libucrt:lcidtoname_downlevel.obj
 0002:000064a0       ??_C@_15BPIGNHCD@?$AAn?$AAo@ 00000001800294a0     libucrt:lcidtoname_downlevel.obj
 0002:000064a8       ??_C@_15DEOPBLCG@?$AAp?$AAl@ 00000001800294a8     libucrt:lcidtoname_downlevel.obj
 0002:000064b0       ??_C@_15KBECGEFG@?$AAp?$AAt@ 00000001800294b0     libucrt:lcidtoname_downlevel.obj
 0002:000064b8       ??_C@_15GLJCBFMD@?$AAr?$AAo@ 00000001800294b8     libucrt:lcidtoname_downlevel.obj
 0002:000064c0       ??_C@_15FEDGKCDI@?$AAr?$AAu@ 00000001800294c0     libucrt:lcidtoname_downlevel.obj
 0002:000064c8       ??_C@_15GLKMLLHM@?$AAh?$AAr@ 00000001800294c8     libucrt:lcidtoname_downlevel.obj
 0002:000064d0       ??_C@_15CPKMFBDB@?$AAs?$AAk@ 00000001800294d0     libucrt:lcidtoname_downlevel.obj
 0002:000064d8       ??_C@_15BAAIOGMK@?$AAs?$AAq@ 00000001800294d8     libucrt:lcidtoname_downlevel.obj
 0002:000064e0       ??_C@_15INNPNOHD@?$AAs?$AAv@ 00000001800294e0     libucrt:lcidtoname_downlevel.obj
 0002:000064e8       ??_C@_15CABMMOGH@?$AAt?$AAh@ 00000001800294e8     libucrt:lcidtoname_downlevel.obj
 0002:000064f0       ??_C@_15BPLIHJJM@?$AAt?$AAr@ 00000001800294f0     libucrt:lcidtoname_downlevel.obj
 0002:000064f8       ??_C@_15NEOEKKDJ@?$AAu?$AAr@ 00000001800294f8     libucrt:lcidtoname_downlevel.obj
 0002:00006500       ??_C@_15NFICGAJK@?$AAi?$AAd@ 0000000180029500     libucrt:lcidtoname_downlevel.obj
 0002:00006508       ??_C@_15PJPFLCCM@?$AAu?$AAk@ 0000000180029508     libucrt:lcidtoname_downlevel.obj
 0002:00006510       ??_C@_15HPJPHDM@?$AAb?$AAe@ 0000000180029510     libucrt:lcidtoname_downlevel.obj
 0002:00006518       ??_C@_15LCHLGJII@?$AAs?$AAl@ 0000000180029518     libucrt:lcidtoname_downlevel.obj
 0002:00006520       ??_C@_15PCFJPHHO@?$AAe?$AAt@ 0000000180029520     libucrt:lcidtoname_downlevel.obj
 0002:00006528       ??_C@_15HPFPGODN@?$AAl?$AAv@ 0000000180029528     libucrt:lcidtoname_downlevel.obj
 0002:00006530       ??_C@_15NFFGKGLG@?$AAl?$AAt@ 0000000180029530     libucrt:lcidtoname_downlevel.obj
 0002:00006538       ??_C@_15BDAKCCHN@?$AAf?$AAa@ 0000000180029538     libucrt:lcidtoname_downlevel.obj
 0002:00006540       ??_C@_15NFGIAIAJ@?$AAv?$AAi@ 0000000180029540     libucrt:lcidtoname_downlevel.obj
 0002:00006548       ??_C@_15LMKNDMHN@?$AAh?$AAy@ 0000000180029548     libucrt:lcidtoname_downlevel.obj
 0002:00006550       ??_C@_15IJBHMCFL@?$AAa?$AAz@ 0000000180029550     libucrt:lcidtoname_downlevel.obj
 0002:00006558       ??_C@_15EKOFJABL@?$AAe?$AAu@ 0000000180029558     libucrt:lcidtoname_downlevel.obj
 0002:00006560       ??_C@_15BGHADCNK@?$AAm?$AAk@ 0000000180029560     libucrt:lcidtoname_downlevel.obj
 0002:00006568       ??_C@_15JDNICKHM@?$AAa?$AAf@ 0000000180029568     libucrt:lcidtoname_downlevel.obj
 0002:00006570       ??_C@_15KPJEDBKD@?$AAk?$AAa@ 0000000180029570     libucrt:lcidtoname_downlevel.obj
 0002:00006578       ??_C@_15PDNFFFEO@?$AAf?$AAo@ 0000000180029578     libucrt:lcidtoname_downlevel.obj
 0002:00006580       ??_C@_15OMLEGLOC@?$AAh?$AAi@ 0000000180029580     libucrt:lcidtoname_downlevel.obj
 0002:00006588       ??_C@_15IDNNENKK@?$AAm?$AAs@ 0000000180029588     libucrt:lcidtoname_downlevel.obj
 0002:00006590       ??_C@_15MACJNBMH@?$AAk?$AAk@ 0000000180029590     libucrt:lcidtoname_downlevel.obj
 0002:00006598       ??_C@_15DKDJEOND@?$AAk?$AAy@ 0000000180029598     libucrt:lcidtoname_downlevel.obj
 0002:000065a0       ??_C@_15DFGDLJBG@?$AAs?$AAw@ 00000001800295a0     libucrt:lcidtoname_downlevel.obj
 0002:000065a8       ??_C@_15BBFAICNG@?$AAu?$AAz@ 00000001800295a8     libucrt:lcidtoname_downlevel.obj
 0002:000065b0       ??_C@_15DKNDCGEA@?$AAt?$AAt@ 00000001800295b0     libucrt:lcidtoname_downlevel.obj
 0002:000065b8       ??_C@_15MGIFMDPL@?$AAp?$AAa@ 00000001800295b8     libucrt:lcidtoname_downlevel.obj
 0002:000065c0       ??_C@_15HCNDBBA@?$AAg?$AAu@ 00000001800295c0     libucrt:lcidtoname_downlevel.obj
 0002:000065c8       ??_C@_15FNBEIBON@?$AAt?$AAa@ 00000001800295c8     libucrt:lcidtoname_downlevel.obj
 0002:000065d0       ??_C@_15NCHGBGLK@?$AAt?$AAe@ 00000001800295d0     libucrt:lcidtoname_downlevel.obj
 0002:000065d8       ??_C@_15PHPHCBPF@?$AAk?$AAn@ 00000001800295d8     libucrt:lcidtoname_downlevel.obj
 0002:000065e0       ??_C@_15DLGBCKMP@?$AAm?$AAr@ 00000001800295e0     libucrt:lcidtoname_downlevel.obj
 0002:000065e8       ??_C@_15EABBLBFF@?$AAs?$AAa@ 00000001800295e8     libucrt:lcidtoname_downlevel.obj
 0002:000065f0       ??_C@_15CBKOMCOI@?$AAm?$AAn@ 00000001800295f0     libucrt:lcidtoname_downlevel.obj
 0002:000065f8       ??_C@_15CKDMCJAF@?$AAg?$AAl@ 00000001800295f8     libucrt:lcidtoname_downlevel.obj
 0002:00006600       ??_C@_17CNJFBPG@?$AAk?$AAo?$AAk@ 0000000180029600     libucrt:lcidtoname_downlevel.obj
 0002:00006608       ??_C@_17FFBJICPL@?$AAs?$AAy?$AAr@ 0000000180029608     libucrt:lcidtoname_downlevel.obj
 0002:00006610       ??_C@_17KPNDCPAF@?$AAd?$AAi?$AAv@ 0000000180029610     libucrt:lcidtoname_downlevel.obj
 0002:00006618       ??_C@_1M@OKAHONE@?$AAa?$AAr?$AA?9?$AAS?$AAA@ 0000000180029618     libucrt:lcidtoname_downlevel.obj
 0002:00006628       ??_C@_1M@FFFIGIGK@?$AAb?$AAg?$AA?9?$AAB?$AAG@ 0000000180029628     libucrt:lcidtoname_downlevel.obj
 0002:00006638       ??_C@_1M@BJNKEDC@?$AAc?$AAa?$AA?9?$AAE?$AAS@ 0000000180029638     libucrt:lcidtoname_downlevel.obj
 0002:00006648       ??_C@_1M@IJJHFJHA@?$AAc?$AAs?$AA?9?$AAC?$AAZ@ 0000000180029648     libucrt:lcidtoname_downlevel.obj
 0002:00006658       ??_C@_1M@CLPEOBGI@?$AAd?$AAa?$AA?9?$AAD?$AAK@ 0000000180029658     libucrt:lcidtoname_downlevel.obj
 0002:00006668       ??_C@_1M@MCMADGCB@?$AAd?$AAe?$AA?9?$AAD?$AAE@ 0000000180029668     libucrt:lcidtoname_downlevel.obj
 0002:00006678       ??_C@_1M@OOCKEMAM@?$AAe?$AAl?$AA?9?$AAG?$AAR@ 0000000180029678     libucrt:lcidtoname_downlevel.obj
 0002:00006688       ??_C@_1M@DDNJFGID@?$AAf?$AAi?$AA?9?$AAF?$AAI@ 0000000180029688     libucrt:lcidtoname_downlevel.obj
 0002:00006698       ??_C@_1M@GLIPPMAC@?$AAf?$AAr?$AA?9?$AAF?$AAR@ 0000000180029698     libucrt:lcidtoname_downlevel.obj
 0002:000066a8       ??_C@_1M@GFMCHPE@?$AAh?$AAe?$AA?9?$AAI?$AAL@ 00000001800296a8     libucrt:lcidtoname_downlevel.obj
 0002:000066b8       ??_C@_1M@MHLPGNKM@?$AAh?$AAu?$AA?9?$AAH?$AAU@ 00000001800296b8     libucrt:lcidtoname_downlevel.obj
 0002:000066c8       ??_C@_1M@LPDDNNPN@?$AAi?$AAs?$AA?9?$AAI?$AAS@ 00000001800296c8     libucrt:lcidtoname_downlevel.obj
 0002:000066d8       ??_C@_1M@MADIPODN@?$AAi?$AAt?$AA?9?$AAI?$AAT@ 00000001800296d8     libucrt:lcidtoname_downlevel.obj
 0002:000066e8       ??_C@_1M@IHBJJGG@?$AAn?$AAl?$AA?9?$AAN?$AAL@ 00000001800296e8     libucrt:lcidtoname_downlevel.obj
 0002:000066f8       ??_C@_1M@EANAGDL@?$AAn?$AAb?$AA?9?$AAN?$AAO@ 00000001800296f8     libucrt:lcidtoname_downlevel.obj
 0002:00006708       ??_C@_1M@NEIEMEGP@?$AAp?$AAl?$AA?9?$AAP?$AAL@ 0000000180029708     libucrt:lcidtoname_downlevel.obj
 0002:00006718       ??_C@_1M@BOCFIGEP@?$AAp?$AAt?$AA?9?$AAB?$AAR@ 0000000180029718     libucrt:lcidtoname_downlevel.obj
 0002:00006728       ??_C@_1M@IMPFOPBG@?$AAr?$AAo?$AA?9?$AAR?$AAO@ 0000000180029728     libucrt:lcidtoname_downlevel.obj
 0002:00006738       ??_C@_1M@IDNNEJMM@?$AAr?$AAu?$AA?9?$AAR?$AAU@ 0000000180029738     libucrt:lcidtoname_downlevel.obj
 0002:00006748       ??_C@_1M@LILEEOGM@?$AAh?$AAr?$AA?9?$AAH?$AAR@ 0000000180029748     libucrt:lcidtoname_downlevel.obj
 0002:00006758       ??_C@_1M@FKIFEHPB@?$AAs?$AAk?$AA?9?$AAS?$AAK@ 0000000180029758     libucrt:lcidtoname_downlevel.obj
 0002:00006768       ??_C@_1M@LJMAMNPJ@?$AAs?$AAq?$AA?9?$AAA?$AAL@ 0000000180029768     libucrt:lcidtoname_downlevel.obj
 0002:00006778       ??_C@_1M@GIAKDKJK@?$AAs?$AAv?$AA?9?$AAS?$AAE@ 0000000180029778     libucrt:lcidtoname_downlevel.obj
 0002:00006788       ??_C@_1M@MKJKIKCL@?$AAt?$AAh?$AA?9?$AAT?$AAH@ 0000000180029788     libucrt:lcidtoname_downlevel.obj
 0002:00006798       ??_C@_1M@MFLCCMPB@?$AAt?$AAr?$AA?9?$AAT?$AAR@ 0000000180029798     libucrt:lcidtoname_downlevel.obj
 0002:000067a8       ??_C@_1M@OIJHDKJN@?$AAu?$AAr?$AA?9?$AAP?$AAK@ 00000001800297a8     libucrt:lcidtoname_downlevel.obj
 0002:000067b8       ??_C@_1M@LHIPCIEK@?$AAi?$AAd?$AA?9?$AAI?$AAD@ 00000001800297b8     libucrt:lcidtoname_downlevel.obj
 0002:000067c8       ??_C@_1M@MFMOBGI@?$AAu?$AAk?$AA?9?$AAU?$AAA@ 00000001800297c8     libucrt:lcidtoname_downlevel.obj
 0002:000067d8       ??_C@_1M@OBGLJIPL@?$AAb?$AAe?$AA?9?$AAB?$AAY@ 00000001800297d8     libucrt:lcidtoname_downlevel.obj
 0002:000067e8       ??_C@_1M@BCFAJEAD@?$AAs?$AAl?$AA?9?$AAS?$AAI@ 00000001800297e8     libucrt:lcidtoname_downlevel.obj
 0002:000067f8       ??_C@_1M@FKFFEDDN@?$AAe?$AAt?$AA?9?$AAE?$AAE@ 00000001800297f8     libucrt:lcidtoname_downlevel.obj
 0002:00006808       ??_C@_1M@KGKKAACI@?$AAl?$AAv?$AA?9?$AAL?$AAV@ 0000000180029808     libucrt:lcidtoname_downlevel.obj
 0002:00006818       ??_C@_1M@IFGBIJO@?$AAl?$AAt?$AA?9?$AAL?$AAT@ 0000000180029818     libucrt:lcidtoname_downlevel.obj
 0002:00006828       ??_C@_1M@FGEAHEDM@?$AAf?$AAa?$AA?9?$AAI?$AAR@ 0000000180029828     libucrt:lcidtoname_downlevel.obj
 0002:00006838       ??_C@_1M@KBMAIBFN@?$AAv?$AAi?$AA?9?$AAV?$AAN@ 0000000180029838     libucrt:lcidtoname_downlevel.obj
 0002:00006848       ??_C@_1M@GPCBKDJK@?$AAh?$AAy?$AA?9?$AAA?$AAM@ 0000000180029848     libucrt:lcidtoname_downlevel.obj
 0002:00006858       ??_C@_1BG@BECMDDJB@?$AAa?$AAz?$AA?9?$AAA?$AAZ?$AA?9?$AAL?$AAa?$AAt?$AAn@ 0000000180029858     libucrt:lcidtoname_downlevel.obj
 0002:00006870       ??_C@_1M@MAOFCAEA@?$AAe?$AAu?$AA?9?$AAE?$AAS@ 0000000180029870     libucrt:lcidtoname_downlevel.obj
 0002:00006880       ??_C@_1M@IGHABKPI@?$AAm?$AAk?$AA?9?$AAM?$AAK@ 0000000180029880     libucrt:lcidtoname_downlevel.obj
 0002:00006890       ??_C@_1M@IAIGNEJG@?$AAt?$AAn?$AA?9?$AAZ?$AAA@ 0000000180029890     libucrt:lcidtoname_downlevel.obj
 0002:000068a0       ??_C@_1M@IIJCOJFA@?$AAx?$AAh?$AA?9?$AAZ?$AAA@ 00000001800298a0     libucrt:lcidtoname_downlevel.obj
 0002:000068b0       ??_C@_1M@LGPJHNJH@?$AAz?$AAu?$AA?9?$AAZ?$AAA@ 00000001800298b0     libucrt:lcidtoname_downlevel.obj
 0002:000068c0       ??_C@_1M@HOKAOIO@?$AAa?$AAf?$AA?9?$AAZ?$AAA@ 00000001800298c0     libucrt:lcidtoname_downlevel.obj
 0002:000068d0       ??_C@_1M@DPCLHLIE@?$AAk?$AAa?$AA?9?$AAG?$AAE@ 00000001800298d0     libucrt:lcidtoname_downlevel.obj
 0002:000068e0       ??_C@_1M@BLKMHJBI@?$AAf?$AAo?$AA?9?$AAF?$AAO@ 00000001800298e0     libucrt:lcidtoname_downlevel.obj
 0002:000068f0       ??_C@_1M@LGGJAPPB@?$AAh?$AAi?$AA?9?$AAI?$AAN@ 00000001800298f0     libucrt:lcidtoname_downlevel.obj
 0002:00006900       ??_C@_1M@FIKPIHFE@?$AAm?$AAt?$AA?9?$AAM?$AAT@ 0000000180029900     libucrt:lcidtoname_downlevel.obj
 0002:00006910       ??_C@_1M@HEGGPBFA@?$AAs?$AAe?$AA?9?$AAN?$AAO@ 0000000180029910     libucrt:lcidtoname_downlevel.obj
 0002:00006920       ??_C@_1M@EIBJEEPA@?$AAm?$AAs?$AA?9?$AAM?$AAY@ 0000000180029920     libucrt:lcidtoname_downlevel.obj
 0002:00006930       ??_C@_1M@FHLBGMPP@?$AAk?$AAk?$AA?9?$AAK?$AAZ@ 0000000180029930     libucrt:lcidtoname_downlevel.obj
 0002:00006940       ??_C@_1M@NGJJLCGI@?$AAk?$AAy?$AA?9?$AAK?$AAG@ 0000000180029940     libucrt:lcidtoname_downlevel.obj
 0002:00006950       ??_C@_1M@GIENNBFC@?$AAs?$AAw?$AA?9?$AAK?$AAE@ 0000000180029950     libucrt:lcidtoname_downlevel.obj
 0002:00006960       ??_C@_1BG@NDGMJIMJ@?$AAu?$AAz?$AA?9?$AAU?$AAZ?$AA?9?$AAL?$AAa?$AAt?$AAn@ 0000000180029960     libucrt:lcidtoname_downlevel.obj
 0002:00006978       ??_C@_1M@IDCCIHBC@?$AAt?$AAt?$AA?9?$AAR?$AAU@ 0000000180029978     libucrt:lcidtoname_downlevel.obj
 0002:00006988       ??_C@_1M@LOICPMOJ@?$AAb?$AAn?$AA?9?$AAI?$AAN@ 0000000180029988     libucrt:lcidtoname_downlevel.obj
 0002:00006998       ??_C@_1M@KPKKNEAH@?$AAp?$AAa?$AA?9?$AAI?$AAN@ 0000000180029998     libucrt:lcidtoname_downlevel.obj
 0002:000069a8       ??_C@_1M@PJGPPBOG@?$AAg?$AAu?$AA?9?$AAI?$AAN@ 00000001800299a8     libucrt:lcidtoname_downlevel.obj
 0002:000069b8       ??_C@_1M@KMKMOPHI@?$AAt?$AAa?$AA?9?$AAI?$AAN@ 00000001800299b8     libucrt:lcidtoname_downlevel.obj
 0002:000069c8       ??_C@_1M@KFEHEPAC@?$AAt?$AAe?$AA?9?$AAI?$AAN@ 00000001800299c8     libucrt:lcidtoname_downlevel.obj
 0002:000069d8       ??_C@_1M@CDCLMGHI@?$AAk?$AAn?$AA?9?$AAI?$AAN@ 00000001800299d8     libucrt:lcidtoname_downlevel.obj
 0002:000069e8       ??_C@_1M@MIODLDKF@?$AAm?$AAl?$AA?9?$AAI?$AAN@ 00000001800299e8     libucrt:lcidtoname_downlevel.obj
 0002:000069f8       ??_C@_1M@PBIEACPO@?$AAm?$AAr?$AA?9?$AAI?$AAN@ 00000001800299f8     libucrt:lcidtoname_downlevel.obj
 0002:00006a08       ??_C@_1M@NIDEAGPH@?$AAs?$AAa?$AA?9?$AAI?$AAN@ 0000000180029a08     libucrt:lcidtoname_downlevel.obj
 0002:00006a18       ??_C@_1M@FHIHCBIO@?$AAm?$AAn?$AA?9?$AAM?$AAN@ 0000000180029a18     libucrt:lcidtoname_downlevel.obj
 0002:00006a28       ??_C@_1M@JAIJPENP@?$AAc?$AAy?$AA?9?$AAG?$AAB@ 0000000180029a28     libucrt:lcidtoname_downlevel.obj
 0002:00006a38       ??_C@_1M@PHGFBEPN@?$AAg?$AAl?$AA?9?$AAE?$AAS@ 0000000180029a38     libucrt:lcidtoname_downlevel.obj
 0002:00006a48       ??_C@_1O@KPIPDNCP@?$AAk?$AAo?$AAk?$AA?9?$AAI?$AAN@ 0000000180029a48     libucrt:lcidtoname_downlevel.obj
 0002:00006a58       ??_C@_1O@KNHJLDJA@?$AAs?$AAy?$AAr?$AA?9?$AAS?$AAY@ 0000000180029a58     libucrt:lcidtoname_downlevel.obj
 0002:00006a68       ??_C@_1O@MKEKBLAH@?$AAd?$AAi?$AAv?$AA?9?$AAM?$AAV@ 0000000180029a68     libucrt:lcidtoname_downlevel.obj
 0002:00006a78       ??_C@_1O@OHDCKDDF@?$AAq?$AAu?$AAz?$AA?9?$AAB?$AAO@ 0000000180029a78     libucrt:lcidtoname_downlevel.obj
 0002:00006a88       ??_C@_1M@LEPJNLFD@?$AAn?$AAs?$AA?9?$AAZ?$AAA@ 0000000180029a88     libucrt:lcidtoname_downlevel.obj
 0002:00006a98       ??_C@_1M@OMLEIIJB@?$AAm?$AAi?$AA?9?$AAN?$AAZ@ 0000000180029a98     libucrt:lcidtoname_downlevel.obj
 0002:00006aa8       ??_C@_1M@PMPEAILG@?$AAa?$AAr?$AA?9?$AAI?$AAQ@ 0000000180029aa8     libucrt:lcidtoname_downlevel.obj
 0002:00006ab8       ??_C@_1M@CNKPNOEE@?$AAd?$AAe?$AA?9?$AAC?$AAH@ 0000000180029ab8     libucrt:lcidtoname_downlevel.obj
 0002:00006ac8       ??_C@_1M@LKMGMLKO@?$AAe?$AAn?$AA?9?$AAG?$AAB@ 0000000180029ac8     libucrt:lcidtoname_downlevel.obj
 0002:00006ad8       ??_C@_1M@PGKJFFGL@?$AAe?$AAs?$AA?9?$AAM?$AAX@ 0000000180029ad8     libucrt:lcidtoname_downlevel.obj
 0002:00006ae8       ??_C@_1M@DNNANBDC@?$AAf?$AAr?$AA?9?$AAB?$AAE@ 0000000180029ae8     libucrt:lcidtoname_downlevel.obj
 0002:00006af8       ??_C@_1M@HLGMDFHM@?$AAi?$AAt?$AA?9?$AAC?$AAH@ 0000000180029af8     libucrt:lcidtoname_downlevel.obj
 0002:00006b08       ??_C@_1M@CLLBGJH@?$AAn?$AAl?$AA?9?$AAB?$AAE@ 0000000180029b08     libucrt:lcidtoname_downlevel.obj
 0002:00006b18       ??_C@_1M@BODBOGLF@?$AAn?$AAn?$AA?9?$AAN?$AAO@ 0000000180029b18     libucrt:lcidtoname_downlevel.obj
 0002:00006b28       ??_C@_1M@HFFAHKAD@?$AAp?$AAt?$AA?9?$AAP?$AAT@ 0000000180029b28     libucrt:lcidtoname_downlevel.obj
 0002:00006b38       ??_C@_1BG@LNOAKHIE@?$AAs?$AAr?$AA?9?$AAS?$AAP?$AA?9?$AAL?$AAa?$AAt?$AAn@ 0000000180029b38     libucrt:lcidtoname_downlevel.obj
 0002:00006b50       ??_C@_1M@HBMHBGAK@?$AAs?$AAv?$AA?9?$AAF?$AAI@ 0000000180029b50     libucrt:lcidtoname_downlevel.obj
 0002:00006b60       ??_C@_1BG@DGCJGJBE@?$AAa?$AAz?$AA?9?$AAA?$AAZ?$AA?9?$AAC?$AAy?$AAr?$AAl@ 0000000180029b60     libucrt:lcidtoname_downlevel.obj
 0002:00006b78       ??_C@_1M@KEJDAAHB@?$AAs?$AAe?$AA?9?$AAS?$AAE@ 0000000180029b78     libucrt:lcidtoname_downlevel.obj
 0002:00006b88       ??_C@_1M@HEIBJJAD@?$AAm?$AAs?$AA?9?$AAB?$AAN@ 0000000180029b88     libucrt:lcidtoname_downlevel.obj
 0002:00006b98       ??_C@_1BG@PBGJMCEM@?$AAu?$AAz?$AA?9?$AAU?$AAZ?$AA?9?$AAC?$AAy?$AAr?$AAl@ 0000000180029b98     libucrt:lcidtoname_downlevel.obj
 0002:00006bb0       ??_C@_1O@LAOBCMDF@?$AAq?$AAu?$AAz?$AA?9?$AAE?$AAC@ 0000000180029bb0     libucrt:lcidtoname_downlevel.obj
 0002:00006bc0       ??_C@_1M@POEEMAIO@?$AAa?$AAr?$AA?9?$AAE?$AAG@ 0000000180029bc0     libucrt:lcidtoname_downlevel.obj
 0002:00006bd0       ??_C@_1M@EFAKDEDL@?$AAz?$AAh?$AA?9?$AAH?$AAK@ 0000000180029bd0     libucrt:lcidtoname_downlevel.obj
 0002:00006be0       ??_C@_1M@HKKIJHGI@?$AAd?$AAe?$AA?9?$AAA?$AAT@ 0000000180029be0     libucrt:lcidtoname_downlevel.obj
 0002:00006bf0       ??_C@_1M@KBFBEHJF@?$AAe?$AAn?$AA?9?$AAA?$AAU@ 0000000180029bf0     libucrt:lcidtoname_downlevel.obj
 0002:00006c00       ??_C@_1M@MNPLFAAH@?$AAe?$AAs?$AA?9?$AAE?$AAS@ 0000000180029c00     libucrt:lcidtoname_downlevel.obj
 0002:00006c10       ??_C@_1M@HJOOJFMA@?$AAf?$AAr?$AA?9?$AAC?$AAA@ 0000000180029c10     libucrt:lcidtoname_downlevel.obj
 0002:00006c20       ??_C@_1BG@JPOFPNAB@?$AAs?$AAr?$AA?9?$AAS?$AAP?$AA?9?$AAC?$AAy?$AAr?$AAl@ 0000000180029c20     libucrt:lcidtoname_downlevel.obj
 0002:00006c38       ??_C@_1M@LNFOCMOB@?$AAs?$AAe?$AA?9?$AAF?$AAI@ 0000000180029c38     libucrt:lcidtoname_downlevel.obj
 0002:00006c48       ??_C@_1O@MGJBOAMB@?$AAq?$AAu?$AAz?$AA?9?$AAP?$AAE@ 0000000180029c48     libucrt:lcidtoname_downlevel.obj
 0002:00006c58       ??_C@_1M@GJINLBOK@?$AAa?$AAr?$AA?9?$AAL?$AAY@ 0000000180029c58     libucrt:lcidtoname_downlevel.obj
 0002:00006c68       ??_C@_1M@GGMNHJNL@?$AAz?$AAh?$AA?9?$AAS?$AAG@ 0000000180029c68     libucrt:lcidtoname_downlevel.obj
 0002:00006c78       ??_C@_1M@HOIKODND@?$AAd?$AAe?$AA?9?$AAL?$AAU@ 0000000180029c78     libucrt:lcidtoname_downlevel.obj
 0002:00006c88       ??_C@_1M@DDOCCGFG@?$AAe?$AAn?$AA?9?$AAC?$AAA@ 0000000180029c88     libucrt:lcidtoname_downlevel.obj
 0002:00006c98       ??_C@_1M@BNOEMJLF@?$AAe?$AAs?$AA?9?$AAG?$AAT@ 0000000180029c98     libucrt:lcidtoname_downlevel.obj
 0002:00006ca8       ??_C@_1M@EOGNKEK@?$AAf?$AAr?$AA?9?$AAC?$AAH@ 0000000180029ca8     libucrt:lcidtoname_downlevel.obj
 0002:00006cb8       ??_C@_1M@FLIDJFHL@?$AAh?$AAr?$AA?9?$AAB?$AAA@ 0000000180029cb8     libucrt:lcidtoname_downlevel.obj
 0002:00006cc8       ??_C@_1O@FMCELNAJ@?$AAs?$AAm?$AAj?$AA?9?$AAN?$AAO@ 0000000180029cc8     libucrt:lcidtoname_downlevel.obj
 0002:00006cd8       ??_C@_1M@JHGLJMGJ@?$AAa?$AAr?$AA?9?$AAD?$AAZ@ 0000000180029cd8     libucrt:lcidtoname_downlevel.obj
 0002:00006ce8       ??_C@_1M@JKKFDCNP@?$AAz?$AAh?$AA?9?$AAM?$AAO@ 0000000180029ce8     libucrt:lcidtoname_downlevel.obj
 0002:00006cf8       ??_C@_1M@GEEFALPE@?$AAd?$AAe?$AA?9?$AAL?$AAI@ 0000000180029cf8     libucrt:lcidtoname_downlevel.obj
 0002:00006d08       ??_C@_1M@IGEOFBG@?$AAe?$AAn?$AA?9?$AAN?$AAZ@ 0000000180029d08     libucrt:lcidtoname_downlevel.obj
 0002:00006d18       ??_C@_1M@KDBONEHP@?$AAe?$AAs?$AA?9?$AAC?$AAR@ 0000000180029d18     libucrt:lcidtoname_downlevel.obj
 0002:00006d28       ??_C@_1M@FHMDOHNN@?$AAf?$AAr?$AA?9?$AAL?$AAU@ 0000000180029d28     libucrt:lcidtoname_downlevel.obj
 0002:00006d38       ??_C@_1BG@NFKKMAFG@?$AAb?$AAs?$AA?9?$AAB?$AAA?$AA?9?$AAL?$AAa?$AAt?$AAn@ 0000000180029d38     libucrt:lcidtoname_downlevel.obj
 0002:00006d50       ??_C@_1O@IMNBEMCI@?$AAs?$AAm?$AAj?$AA?9?$AAS?$AAE@ 0000000180029d50     libucrt:lcidtoname_downlevel.obj
 0002:00006d60       ??_C@_1M@DHHMBNDP@?$AAa?$AAr?$AA?9?$AAM?$AAA@ 0000000180029d60     libucrt:lcidtoname_downlevel.obj
 0002:00006d70       ??_C@_1M@BNBLJCGH@?$AAe?$AAn?$AA?9?$AAI?$AAE@ 0000000180029d70     libucrt:lcidtoname_downlevel.obj
 0002:00006d80       ??_C@_1M@GEPAFMDL@?$AAe?$AAs?$AA?9?$AAP?$AAA@ 0000000180029d80     libucrt:lcidtoname_downlevel.obj
 0002:00006d90       ??_C@_1M@OJONDMDL@?$AAf?$AAr?$AA?9?$AAM?$AAC@ 0000000180029d90     libucrt:lcidtoname_downlevel.obj
 0002:00006da0       ??_C@_1BG@OBCNFJB@?$AAs?$AAr?$AA?9?$AAB?$AAA?$AA?9?$AAL?$AAa?$AAt?$AAn@ 0000000180029da0     libucrt:lcidtoname_downlevel.obj
 0002:00006db8       ??_C@_1O@KEMEEGPO@?$AAs?$AAm?$AAa?$AA?9?$AAN?$AAO@ 0000000180029db8     libucrt:lcidtoname_downlevel.obj
 0002:00006dc8       ??_C@_1M@ELMGFODK@?$AAa?$AAr?$AA?9?$AAT?$AAN@ 0000000180029dc8     libucrt:lcidtoname_downlevel.obj
 0002:00006dd8       ??_C@_1M@BHDLHFAF@?$AAe?$AAn?$AA?9?$AAZ?$AAA@ 0000000180029dd8     libucrt:lcidtoname_downlevel.obj
 0002:00006de8       ??_C@_1M@BMGIGLIF@?$AAe?$AAs?$AA?9?$AAD?$AAO@ 0000000180029de8     libucrt:lcidtoname_downlevel.obj
 0002:00006df8       ??_C@_1BG@CMBHIPBE@?$AAs?$AAr?$AA?9?$AAB?$AAA?$AA?9?$AAC?$AAy?$AAr?$AAl@ 0000000180029df8     libucrt:lcidtoname_downlevel.obj
 0002:00006e10       ??_C@_1O@HEDBLHNP@?$AAs?$AAm?$AAa?$AA?9?$AAS?$AAE@ 0000000180029e10     libucrt:lcidtoname_downlevel.obj
 0002:00006e20       ??_C@_1M@DAGCADIM@?$AAa?$AAr?$AA?9?$AAO?$AAM@ 0000000180029e20     libucrt:lcidtoname_downlevel.obj
 0002:00006e30       ??_C@_1M@FODLMICG@?$AAe?$AAn?$AA?9?$AAJ?$AAM@ 0000000180029e30     libucrt:lcidtoname_downlevel.obj
 0002:00006e40       ??_C@_1M@DNMLCIHB@?$AAe?$AAs?$AA?9?$AAV?$AAE@ 0000000180029e40     libucrt:lcidtoname_downlevel.obj
 0002:00006e50       ??_C@_1O@EOKHMKJK@?$AAs?$AAm?$AAs?$AA?9?$AAF?$AAI@ 0000000180029e50     libucrt:lcidtoname_downlevel.obj
 0002:00006e60       ??_C@_1M@CAFJMKOF@?$AAa?$AAr?$AA?9?$AAY?$AAE@ 0000000180029e60     libucrt:lcidtoname_downlevel.obj
 0002:00006e70       ??_C@_1M@CBFHIJLI@?$AAe?$AAn?$AA?9?$AAC?$AAB@ 0000000180029e70     libucrt:lcidtoname_downlevel.obj
 0002:00006e80       ??_C@_1M@BGNFLDN@?$AAe?$AAs?$AA?9?$AAC?$AAO@ 0000000180029e80     libucrt:lcidtoname_downlevel.obj
 0002:00006e90       ??_C@_1O@JMPHMAMC@?$AAs?$AAm?$AAn?$AA?9?$AAF?$AAI@ 0000000180029e90     libucrt:lcidtoname_downlevel.obj
 0002:00006ea0       ??_C@_1M@JLANABKE@?$AAa?$AAr?$AA?9?$AAS?$AAY@ 0000000180029ea0     libucrt:lcidtoname_downlevel.obj
 0002:00006eb0       ??_C@_1M@HPKGCFGN@?$AAe?$AAn?$AA?9?$AAB?$AAZ@ 0000000180029eb0     libucrt:lcidtoname_downlevel.obj
 0002:00006ec0       ??_C@_1M@OLJCMLGM@?$AAe?$AAs?$AA?9?$AAP?$AAE@ 0000000180029ec0     libucrt:lcidtoname_downlevel.obj
 0002:00006ed0       ??_C@_1M@MKKGFKLE@?$AAa?$AAr?$AA?9?$AAJ?$AAO@ 0000000180029ed0     libucrt:lcidtoname_downlevel.obj
 0002:00006ee0       ??_C@_1M@EKPGLDNI@?$AAe?$AAn?$AA?9?$AAT?$AAT@ 0000000180029ee0     libucrt:lcidtoname_downlevel.obj
 0002:00006ef0       ??_C@_1M@OONGHFHE@?$AAe?$AAs?$AA?9?$AAA?$AAR@ 0000000180029ef0     libucrt:lcidtoname_downlevel.obj
 0002:00006f00       ??_C@_1M@OOJFGBHE@?$AAa?$AAr?$AA?9?$AAL?$AAB@ 0000000180029f00     libucrt:lcidtoname_downlevel.obj
 0002:00006f10       ??_C@_1M@GCEJHNEG@?$AAe?$AAn?$AA?9?$AAZ?$AAW@ 0000000180029f10     libucrt:lcidtoname_downlevel.obj
 0002:00006f20       ??_C@_1M@JNOCAHJI@?$AAe?$AAs?$AA?9?$AAE?$AAC@ 0000000180029f20     libucrt:lcidtoname_downlevel.obj
 0002:00006f30       ??_C@_1M@JEFHPGGB@?$AAa?$AAr?$AA?9?$AAK?$AAW@ 0000000180029f30     libucrt:lcidtoname_downlevel.obj
 0002:00006f40       ??_C@_1M@MLKIBJOJ@?$AAe?$AAn?$AA?9?$AAP?$AAH@ 0000000180029f40     libucrt:lcidtoname_downlevel.obj
 0002:00006f50       ??_C@_1M@BDNIPEND@?$AAe?$AAs?$AA?9?$AAC?$AAL@ 0000000180029f50     libucrt:lcidtoname_downlevel.obj
 0002:00006f60       ??_C@_1M@MPNMEKBD@?$AAa?$AAr?$AA?9?$AAA?$AAE@ 0000000180029f60     libucrt:lcidtoname_downlevel.obj
 0002:00006f70       ??_C@_1M@KBJALCPI@?$AAe?$AAs?$AA?9?$AAU?$AAY@ 0000000180029f70     libucrt:lcidtoname_downlevel.obj
 0002:00006f80       ??_C@_1M@LLCCOAGA@?$AAa?$AAr?$AA?9?$AAB?$AAH@ 0000000180029f80     libucrt:lcidtoname_downlevel.obj
 0002:00006f90       ??_C@_1M@PBFNCDEL@?$AAe?$AAs?$AA?9?$AAP?$AAY@ 0000000180029f90     libucrt:lcidtoname_downlevel.obj
 0002:00006fa0       ??_C@_1M@EDGINPNP@?$AAa?$AAr?$AA?9?$AAQ?$AAA@ 0000000180029fa0     libucrt:lcidtoname_downlevel.obj
 0002:00006fb0       ??_C@_1M@MKDBIIJI@?$AAe?$AAs?$AA?9?$AAB?$AAO@ 0000000180029fb0     libucrt:lcidtoname_downlevel.obj
 0002:00006fc0       ??_C@_1M@CPKKEBLD@?$AAe?$AAs?$AA?9?$AAS?$AAV@ 0000000180029fc0     libucrt:lcidtoname_downlevel.obj
 0002:00006fd0       ??_C@_1M@NDBGMMJL@?$AAe?$AAs?$AA?9?$AAH?$AAN@ 0000000180029fd0     libucrt:lcidtoname_downlevel.obj
 0002:00006fe0       ??_C@_1M@JIJIBHDP@?$AAe?$AAs?$AA?9?$AAN?$AAI@ 0000000180029fe0     libucrt:lcidtoname_downlevel.obj
 0002:00006ff0       ??_C@_1M@CGFMKEEK@?$AAe?$AAs?$AA?9?$AAP?$AAR@ 0000000180029ff0     libucrt:lcidtoname_downlevel.obj
 0002:00007000       ??_C@_1O@ICJHKIIK@?$AAz?$AAh?$AA?9?$AAC?$AAH?$AAT@ 000000018002a000     libucrt:lcidtoname_downlevel.obj
 0002:00007010       ??_C@_15CLNEJCE@?$AAs?$AAr@ 000000018002a010     libucrt:lcidtoname_downlevel.obj
 0002:00007e60       ??_C@_1M@KAHEKEIG@?$AAa?$AAf?$AA?9?$AAz?$AAa@ 000000018002ae60     libucrt:lcidtoname_downlevel.obj
 0002:00007e70       ??_C@_1M@GIECOABL@?$AAa?$AAr?$AA?9?$AAa?$AAe@ 000000018002ae70     libucrt:lcidtoname_downlevel.obj
 0002:00007e80       ??_C@_1M@BMLMEKGI@?$AAa?$AAr?$AA?9?$AAb?$AAh@ 000000018002ae80     libucrt:lcidtoname_downlevel.obj
 0002:00007e90       ??_C@_1M@DAPFDGGB@?$AAa?$AAr?$AA?9?$AAd?$AAz@ 000000018002ae90     libucrt:lcidtoname_downlevel.obj
 0002:00007ea0       ??_C@_1M@FJNKGKIG@?$AAa?$AAr?$AA?9?$AAe?$AAg@ 000000018002aea0     libucrt:lcidtoname_downlevel.obj
 0002:00007eb0       ??_C@_1M@FLGKKCLO@?$AAa?$AAr?$AA?9?$AAi?$AAq@ 000000018002aeb0     libucrt:lcidtoname_downlevel.obj
 0002:00007ec0       ??_C@_1M@GNDIPALM@?$AAa?$AAr?$AA?9?$AAj?$AAo@ 000000018002aec0     libucrt:lcidtoname_downlevel.obj
 0002:00007ed0       ??_C@_1M@DDMJFMGJ@?$AAa?$AAr?$AA?9?$AAk?$AAw@ 000000018002aed0     libucrt:lcidtoname_downlevel.obj
 0002:00007ee0       ??_C@_1M@EJALMLHM@?$AAa?$AAr?$AA?9?$AAl?$AAb@ 000000018002aee0     libucrt:lcidtoname_downlevel.obj
 0002:00007ef0       ??_C@_1M@MOBDBLOC@?$AAa?$AAr?$AA?9?$AAl?$AAy@ 000000018002aef0     libucrt:lcidtoname_downlevel.obj
 0002:00007f00       ??_C@_1M@JAOCLHDH@?$AAa?$AAr?$AA?9?$AAm?$AAa@ 000000018002af00     libucrt:lcidtoname_downlevel.obj
 0002:00007f10       ??_C@_1M@JHPMKJIE@?$AAa?$AAr?$AA?9?$AAo?$AAm@ 000000018002af10     libucrt:lcidtoname_downlevel.obj
 0002:00007f20       ??_C@_1M@OEPGHFNH@?$AAa?$AAr?$AA?9?$AAq?$AAa@ 000000018002af20     libucrt:lcidtoname_downlevel.obj
 0002:00007f30       ??_C@_1M@KJDONENM@?$AAa?$AAr?$AA?9?$AAs?$AAa@ 000000018002af30     libucrt:lcidtoname_downlevel.obj
 0002:00007f40       ??_C@_1M@DMJDKLKM@?$AAa?$AAr?$AA?9?$AAs?$AAy@ 000000018002af40     libucrt:lcidtoname_downlevel.obj
 0002:00007f50       ??_C@_1M@OMFIPEDC@?$AAa?$AAr?$AA?9?$AAt?$AAn@ 000000018002af50     libucrt:lcidtoname_downlevel.obj
 0002:00007f60       ??_C@_1M@IHMHGAON@?$AAa?$AAr?$AA?9?$AAy?$AAe@ 000000018002af60     libucrt:lcidtoname_downlevel.obj
 0002:00007f70       ??_C@_1BG@KDCPGJGB@?$AAa?$AAz?$AA?9?$AAa?$AAz?$AA?9?$AAc?$AAy?$AAr?$AAl@ 000000018002af70     libucrt:lcidtoname_downlevel.obj
 0002:00007f88       ??_C@_1BG@IBCKDDOE@?$AAa?$AAz?$AA?9?$AAa?$AAz?$AA?9?$AAl?$AAa?$AAt?$AAn@ 000000018002af88     libucrt:lcidtoname_downlevel.obj
 0002:00007fa0       ??_C@_1M@EGPFDCPD@?$AAb?$AAe?$AA?9?$AAb?$AAy@ 000000018002afa0     libucrt:lcidtoname_downlevel.obj
 0002:00007fb0       ??_C@_1M@PCMGMCGC@?$AAb?$AAg?$AA?9?$AAb?$AAg@ 000000018002afb0     libucrt:lcidtoname_downlevel.obj
 0002:00007fc0       ??_C@_1M@BJBMFGOB@?$AAb?$AAn?$AA?9?$AAi?$AAn@ 000000018002afc0     libucrt:lcidtoname_downlevel.obj
 0002:00007fd0       ??_C@_1BG@EAKMMACD@?$AAb?$AAs?$AA?9?$AAb?$AAa?$AA?9?$AAl?$AAa?$AAt?$AAn@ 000000018002afd0     libucrt:lcidtoname_downlevel.obj
 0002:00007fe8       ??_C@_1M@KGADAODK@?$AAc?$AAa?$AA?9?$AAe?$AAs@ 000000018002afe8     libucrt:lcidtoname_downlevel.obj
 0002:00007ff8       ??_C@_1M@COAJPDHI@?$AAc?$AAs?$AA?9?$AAc?$AAz@ 000000018002aff8     libucrt:lcidtoname_downlevel.obj
 0002:00008008       ??_C@_1M@DHBHFONH@?$AAc?$AAy?$AA?9?$AAg?$AAb@ 000000018002b008     libucrt:lcidtoname_downlevel.obj
 0002:00008018       ??_C@_1M@IMGKELGA@?$AAd?$AAa?$AA?9?$AAd?$AAk@ 000000018002b018     libucrt:lcidtoname_downlevel.obj
 0002:00008028       ??_C@_1M@NNDGDNGA@?$AAd?$AAe?$AA?9?$AAa?$AAt@ 000000018002b028     libucrt:lcidtoname_downlevel.obj
 0002:00008038       ??_C@_1M@IKDBHEEM@?$AAd?$AAe?$AA?9?$AAc?$AAh@ 000000018002b038     libucrt:lcidtoname_downlevel.obj
 0002:00008048       ??_C@_1M@GFFOJMCJ@?$AAd?$AAe?$AA?9?$AAd?$AAe@ 000000018002b048     libucrt:lcidtoname_downlevel.obj
 0002:00008058       ??_C@_1M@MDNLKBPM@?$AAd?$AAe?$AA?9?$AAl?$AAi@ 000000018002b058     libucrt:lcidtoname_downlevel.obj
 0002:00008068       ??_C@_1M@NJBEEJNL@?$AAd?$AAe?$AA?9?$AAl?$AAu@ 000000018002b068     libucrt:lcidtoname_downlevel.obj
 0002:00008078       ??_C@_1O@GNNELBAP@?$AAd?$AAi?$AAv?$AA?9?$AAm?$AAv@ 000000018002b078     libucrt:lcidtoname_downlevel.obj
 0002:00008088       ??_C@_1M@EJLEOGAE@?$AAe?$AAl?$AA?9?$AAg?$AAr@ 000000018002b088     libucrt:lcidtoname_downlevel.obj
 0002:00008098       ??_C@_1M@GMPONJN@?$AAe?$AAn?$AA?9?$AAa?$AAu@ 000000018002b098     libucrt:lcidtoname_downlevel.obj
 0002:000080a8       ??_C@_1M@NIDIIPGF@?$AAe?$AAn?$AA?9?$AAb?$AAz@ 000000018002b0a8     libucrt:lcidtoname_downlevel.obj
 0002:000080b8       ??_C@_1M@JEHMIMFO@?$AAe?$AAn?$AA?9?$AAc?$AAa@ 000000018002b0b8     libucrt:lcidtoname_downlevel.obj
 0002:000080c8       ??_C@_1M@IGMJCDLA@?$AAe?$AAn?$AA?9?$AAc?$AAb@ 000000018002b0c8     libucrt:lcidtoname_downlevel.obj
 0002:000080d8       ??_C@_1M@BNFIGBKG@?$AAe?$AAn?$AA?9?$AAg?$AAb@ 000000018002b0d8     libucrt:lcidtoname_downlevel.obj
 0002:000080e8       ??_C@_1M@LKIFDIGP@?$AAe?$AAn?$AA?9?$AAi?$AAe@ 000000018002b0e8     libucrt:lcidtoname_downlevel.obj
 0002:000080f8       ??_C@_1M@PJKFGCCO@?$AAe?$AAn?$AA?9?$AAj?$AAm@ 000000018002b0f8     libucrt:lcidtoname_downlevel.obj
 0002:00008108       ??_C@_1M@KPPKEPBO@?$AAe?$AAn?$AA?9?$AAn?$AAz@ 000000018002b108     libucrt:lcidtoname_downlevel.obj
 0002:00008118       ??_C@_1M@GMDGLDOB@?$AAe?$AAn?$AA?9?$AAp?$AAh@ 000000018002b118     libucrt:lcidtoname_downlevel.obj
 0002:00008128       ??_C@_1M@ONGIBJNA@?$AAe?$AAn?$AA?9?$AAt?$AAt@ 000000018002b128     libucrt:lcidtoname_downlevel.obj
 0002:00008138       ??_C@_1M@LLODPCMM@?$AAe?$AAn?$AA?9?$AAu?$AAs@ 000000018002b138     libucrt:lcidtoname_downlevel.obj
 0002:00008148       ??_C@_1M@LAKFNPAN@?$AAe?$AAn?$AA?9?$AAz?$AAa@ 000000018002b148     libucrt:lcidtoname_downlevel.obj
 0002:00008158       ??_C@_1M@MFNHNHEO@?$AAe?$AAn?$AA?9?$AAz?$AAw@ 000000018002b158     libucrt:lcidtoname_downlevel.obj
 0002:00008168       ??_C@_1M@EJEINPHM@?$AAe?$AAs?$AA?9?$AAa?$AAr@ 000000018002b168     libucrt:lcidtoname_downlevel.obj
 0002:00008178       ??_C@_1M@GNKPCCJA@?$AAe?$AAs?$AA?9?$AAb?$AAo@ 000000018002b178     libucrt:lcidtoname_downlevel.obj
 0002:00008188       ??_C@_1M@LEEGFONL@?$AAe?$AAs?$AA?9?$AAc?$AAl@ 000000018002b188     libucrt:lcidtoname_downlevel.obj
 0002:00008198       ??_C@_1M@KGPDPBDF@?$AAe?$AAs?$AA?9?$AAc?$AAo@ 000000018002b198     libucrt:lcidtoname_downlevel.obj
 0002:000081a8       ??_C@_1M@EIAHOHH@?$AAe?$AAs?$AA?9?$AAc?$AAr@ 000000018002b1a8     libucrt:lcidtoname_downlevel.obj
 0002:000081b8       ??_C@_1M@LLPGMBIN@?$AAe?$AAs?$AA?9?$AAd?$AAo@ 000000018002b1b8     libucrt:lcidtoname_downlevel.obj
 0002:000081c8       ??_C@_1M@DKHMKNJA@?$AAe?$AAs?$AA?9?$AAe?$AAc@ 000000018002b1c8     libucrt:lcidtoname_downlevel.obj
 0002:000081d8       ??_C@_1M@GKGFPKAP@?$AAe?$AAs?$AA?9?$AAe?$AAs@ 000000018002b1d8     libucrt:lcidtoname_downlevel.obj
 0002:000081e8       ??_C@_1M@LKHKGDLN@?$AAe?$AAs?$AA?9?$AAg?$AAt@ 000000018002b1e8     libucrt:lcidtoname_downlevel.obj
 0002:000081f8       ??_C@_1M@HEIIGGJD@?$AAe?$AAs?$AA?9?$AAh?$AAn@ 000000018002b1f8     libucrt:lcidtoname_downlevel.obj
 0002:00008208       ??_C@_1M@FBDHPPGD@?$AAe?$AAs?$AA?9?$AAm?$AAx@ 000000018002b208     libucrt:lcidtoname_downlevel.obj
 0002:00008218       ??_C@_1M@DPAGLNDH@?$AAe?$AAs?$AA?9?$AAn?$AAi@ 000000018002b218     libucrt:lcidtoname_downlevel.obj
 0002:00008228       ??_C@_1M@MDGOPGDD@?$AAe?$AAs?$AA?9?$AAp?$AAa@ 000000018002b228     libucrt:lcidtoname_downlevel.obj
 0002:00008238       ??_C@_1M@EMAMGBGE@?$AAe?$AAs?$AA?9?$AAp?$AAe@ 000000018002b238     libucrt:lcidtoname_downlevel.obj
 0002:00008248       ??_C@_1M@IBMCAOEC@?$AAe?$AAs?$AA?9?$AAp?$AAr@ 000000018002b248     libucrt:lcidtoname_downlevel.obj
 0002:00008258       ??_C@_1M@FGMDIJED@?$AAe?$AAs?$AA?9?$AAp?$AAy@ 000000018002b258     libucrt:lcidtoname_downlevel.obj
 0002:00008268       ??_C@_1M@IIDEOLLL@?$AAe?$AAs?$AA?9?$AAs?$AAv@ 000000018002b268     libucrt:lcidtoname_downlevel.obj
 0002:00008278       ??_C@_1M@GAOBIPA@?$AAe?$AAs?$AA?9?$AAu?$AAy@ 000000018002b278     libucrt:lcidtoname_downlevel.obj
 0002:00008288       ??_C@_1M@JKFFICHJ@?$AAe?$AAs?$AA?9?$AAv?$AAe@ 000000018002b288     libucrt:lcidtoname_downlevel.obj
 0002:00008298       ??_C@_1M@PNMLOJDF@?$AAe?$AAt?$AA?9?$AAe?$AAe@ 000000018002b298     libucrt:lcidtoname_downlevel.obj
 0002:000082a8       ??_C@_1M@GHHLIKEI@?$AAe?$AAu?$AA?9?$AAe?$AAs@ 000000018002b2a8     libucrt:lcidtoname_downlevel.obj
 0002:000082b8       ??_C@_1M@PBNONODE@?$AAf?$AAa?$AA?9?$AAi?$AAr@ 000000018002b2b8     libucrt:lcidtoname_downlevel.obj
 0002:000082c8       ??_C@_1M@JEEHPMIL@?$AAf?$AAi?$AA?9?$AAf?$AAi@ 000000018002b2c8     libucrt:lcidtoname_downlevel.obj
 0002:000082d8       ??_C@_1M@LMDCNDBA@?$AAf?$AAo?$AA?9?$AAf?$AAo@ 000000018002b2d8     libucrt:lcidtoname_downlevel.obj
 0002:000082e8       ??_C@_1M@JKEOHLDK@?$AAf?$AAr?$AA?9?$AAb?$AAe@ 000000018002b2e8     libucrt:lcidtoname_downlevel.obj
 0002:000082f8       ??_C@_1M@NOHADPMI@?$AAf?$AAr?$AA?9?$AAc?$AAa@ 000000018002b2f8     libucrt:lcidtoname_downlevel.obj
 0002:00008308       ??_C@_1M@KDHIHAEC@?$AAf?$AAr?$AA?9?$AAc?$AAh@ 000000018002b308     libucrt:lcidtoname_downlevel.obj
 0002:00008318       ??_C@_1M@MMBBFGAK@?$AAf?$AAr?$AA?9?$AAf?$AAr@ 000000018002b318     libucrt:lcidtoname_downlevel.obj
 0002:00008328       ??_C@_1M@PAFNENNF@?$AAf?$AAr?$AA?9?$AAl?$AAu@ 000000018002b328     libucrt:lcidtoname_downlevel.obj
 0002:00008338       ??_C@_1M@EOHDJGDD@?$AAf?$AAr?$AA?9?$AAm?$AAc@ 000000018002b338     libucrt:lcidtoname_downlevel.obj
 0002:00008348       ??_C@_1M@FAPLLOPF@?$AAg?$AAl?$AA?9?$AAe?$AAs@ 000000018002b348     libucrt:lcidtoname_downlevel.obj
 0002:00008358       ??_C@_1M@FOPBFLOO@?$AAg?$AAu?$AA?9?$AAi?$AAn@ 000000018002b358     libucrt:lcidtoname_downlevel.obj
 0002:00008368       ??_C@_1M@KBMCINPM@?$AAh?$AAe?$AA?9?$AAi?$AAl@ 000000018002b368     libucrt:lcidtoname_downlevel.obj
 0002:00008378       ??_C@_1M@BBPHKFPJ@?$AAh?$AAi?$AA?9?$AAi?$AAn@ 000000018002b378     libucrt:lcidtoname_downlevel.obj
 0002:00008388       ??_C@_1M@PMBNDPHD@?$AAh?$AAr?$AA?9?$AAb?$AAa@ 000000018002b388     libucrt:lcidtoname_downlevel.obj
 0002:00008398       ??_C@_1M@BPCKOEGE@?$AAh?$AAr?$AA?9?$AAh?$AAr@ 000000018002b398     libucrt:lcidtoname_downlevel.obj
 0002:000083a8       ??_C@_1M@GACBMHKE@?$AAh?$AAu?$AA?9?$AAh?$AAu@ 000000018002b3a8     libucrt:lcidtoname_downlevel.obj
 0002:000083b8       ??_C@_1M@MILPAJJC@?$AAh?$AAy?$AA?9?$AAa?$AAm@ 000000018002b3b8     libucrt:lcidtoname_downlevel.obj
 0002:000083c8       ??_C@_1M@BABBICEC@?$AAi?$AAd?$AA?9?$AAi?$AAd@ 000000018002b3c8     libucrt:lcidtoname_downlevel.obj
 0002:000083d8       ??_C@_1M@BIKNHHPF@?$AAi?$AAs?$AA?9?$AAi?$AAs@ 000000018002b3d8     libucrt:lcidtoname_downlevel.obj
 0002:000083e8       ??_C@_1M@NMPCJPHE@?$AAi?$AAt?$AA?9?$AAc?$AAh@ 000000018002b3e8     libucrt:lcidtoname_downlevel.obj
 0002:000083f8       ??_C@_1M@GHKGFEDF@?$AAi?$AAt?$AA?9?$AAi?$AAt@ 000000018002b3f8     libucrt:lcidtoname_downlevel.obj
 0002:00008408       ??_C@_1M@NIEJCJJA@?$AAj?$AAa?$AA?9?$AAj?$AAp@ 000000018002b408     libucrt:lcidtoname_downlevel.obj
 0002:00008418       ??_C@_1M@JILFNBIM@?$AAk?$AAa?$AA?9?$AAg?$AAe@ 000000018002b418     libucrt:lcidtoname_downlevel.obj
 0002:00008428       ??_C@_1M@PACPMGPH@?$AAk?$AAk?$AA?9?$AAk?$AAz@ 000000018002b428     libucrt:lcidtoname_downlevel.obj
 0002:00008438       ??_C@_1M@IELFGMHA@?$AAk?$AAn?$AA?9?$AAi?$AAn@ 000000018002b438     libucrt:lcidtoname_downlevel.obj
 0002:00008448       ??_C@_1O@IBBJHCH@?$AAk?$AAo?$AAk?$AA?9?$AAi?$AAn@ 000000018002b448     libucrt:lcidtoname_downlevel.obj
 0002:00008458       ??_C@_1M@DMHAEOGC@?$AAk?$AAo?$AA?9?$AAk?$AAr@ 000000018002b458     libucrt:lcidtoname_downlevel.obj
 0002:00008468       ??_C@_1M@HBAHBIGA@?$AAk?$AAy?$AA?9?$AAk?$AAg@ 000000018002b468     libucrt:lcidtoname_downlevel.obj
 0002:00008478       ??_C@_1M@KPMILCJG@?$AAl?$AAt?$AA?9?$AAl?$AAt@ 000000018002b478     libucrt:lcidtoname_downlevel.obj
 0002:00008488       ??_C@_1M@BDEKKCA@?$AAl?$AAv?$AA?9?$AAl?$AAv@ 000000018002b488     libucrt:lcidtoname_downlevel.obj
 0002:00008498       ??_C@_1M@ELCKCCJJ@?$AAm?$AAi?$AA?9?$AAn?$AAz@ 000000018002b498     libucrt:lcidtoname_downlevel.obj
 0002:000084a8       ??_C@_1M@CBOOLAPA@?$AAm?$AAk?$AA?9?$AAm?$AAk@ 000000018002b4a8     libucrt:lcidtoname_downlevel.obj
 0002:000084b8       ??_C@_1M@GPHNBJKN@?$AAm?$AAl?$AA?9?$AAi?$AAn@ 000000018002b4b8     libucrt:lcidtoname_downlevel.obj
 0002:000084c8       ??_C@_1M@PABJILIG@?$AAm?$AAn?$AA?9?$AAm?$AAn@ 000000018002b4c8     libucrt:lcidtoname_downlevel.obj
 0002:000084d8       ??_C@_1M@FGBKKIPG@?$AAm?$AAr?$AA?9?$AAi?$AAn@ 000000018002b4d8     libucrt:lcidtoname_downlevel.obj
 0002:000084e8       ??_C@_1M@NDBPDDAL@?$AAm?$AAs?$AA?9?$AAb?$AAn@ 000000018002b4e8     libucrt:lcidtoname_downlevel.obj
 0002:000084f8       ??_C@_1M@OPIHOOPI@?$AAm?$AAs?$AA?9?$AAm?$AAy@ 000000018002b4f8     libucrt:lcidtoname_downlevel.obj
 0002:00008508       ??_C@_1M@PPDBCNFM@?$AAm?$AAt?$AA?9?$AAm?$AAt@ 000000018002b508     libucrt:lcidtoname_downlevel.obj
 0002:00008518       ??_C@_1M@KDJDKMDD@?$AAn?$AAb?$AA?9?$AAn?$AAo@ 000000018002b518     libucrt:lcidtoname_downlevel.obj
 0002:00008528       ??_C@_1M@KFCFLMJP@?$AAn?$AAl?$AA?9?$AAb?$AAe@ 000000018002b528     libucrt:lcidtoname_downlevel.obj
 0002:00008538       ??_C@_1M@KPOPDDGO@?$AAn?$AAl?$AA?9?$AAn?$AAl@ 000000018002b538     libucrt:lcidtoname_downlevel.obj
 0002:00008548       ??_C@_1M@LJKPEMLN@?$AAn?$AAn?$AA?9?$AAn?$AAo@ 000000018002b548     libucrt:lcidtoname_downlevel.obj
 0002:00008558       ??_C@_1M@BDGHHBFL@?$AAn?$AAs?$AA?9?$AAz?$AAa@ 000000018002b558     libucrt:lcidtoname_downlevel.obj
 0002:00008568       ??_C@_1M@IDEHOAP@?$AAp?$AAa?$AA?9?$AAi?$AAn@ 000000018002b568     libucrt:lcidtoname_downlevel.obj
 0002:00008578       ??_C@_1M@HDBKGOGH@?$AAp?$AAl?$AA?9?$AAp?$AAl@ 000000018002b578     libucrt:lcidtoname_downlevel.obj
 0002:00008588       ??_C@_1M@LJLLCMEH@?$AAp?$AAt?$AA?9?$AAb?$AAr@ 000000018002b588     libucrt:lcidtoname_downlevel.obj
 0002:00008598       ??_C@_1M@NCMONAAL@?$AAp?$AAt?$AA?9?$AAp?$AAt@ 000000018002b598     libucrt:lcidtoname_downlevel.obj
 0002:000085a8       ??_C@_1O@EAKMAJDN@?$AAq?$AAu?$AAz?$AA?9?$AAb?$AAo@ 000000018002b5a8     libucrt:lcidtoname_downlevel.obj
 0002:000085b8       ??_C@_1O@BHHPIGDN@?$AAq?$AAu?$AAz?$AA?9?$AAe?$AAc@ 000000018002b5b8     libucrt:lcidtoname_downlevel.obj
 0002:000085c8       ??_C@_1O@GBAPEKMJ@?$AAq?$AAu?$AAz?$AA?9?$AAp?$AAe@ 000000018002b5c8     libucrt:lcidtoname_downlevel.obj
 0002:000085d8       ??_C@_1M@CLGLEFBO@?$AAr?$AAo?$AA?9?$AAr?$AAo@ 000000018002b5d8     libucrt:lcidtoname_downlevel.obj
 0002:000085e8       ??_C@_1M@CEEDODME@?$AAr?$AAu?$AA?9?$AAr?$AAu@ 000000018002b5e8     libucrt:lcidtoname_downlevel.obj
 0002:000085f8       ??_C@_1M@HPKKKMPP@?$AAs?$AAa?$AA?9?$AAi?$AAn@ 000000018002b5f8     libucrt:lcidtoname_downlevel.obj
 0002:00008608       ??_C@_1M@BKMAIGOJ@?$AAs?$AAe?$AA?9?$AAf?$AAi@ 000000018002b608     libucrt:lcidtoname_downlevel.obj
 0002:00008618       ??_C@_1M@NDPIFLFI@?$AAs?$AAe?$AA?9?$AAn?$AAo@ 000000018002b618     libucrt:lcidtoname_downlevel.obj
 0002:00008628       ??_C@_1M@DANKKHJ@?$AAs?$AAe?$AA?9?$AAs?$AAe@ 000000018002b628     libucrt:lcidtoname_downlevel.obj
 0002:00008638       ??_C@_1M@PNBLONPJ@?$AAs?$AAk?$AA?9?$AAs?$AAk@ 000000018002b638     libucrt:lcidtoname_downlevel.obj
 0002:00008648       ??_C@_1M@LFMODOAL@?$AAs?$AAl?$AA?9?$AAs?$AAi@ 000000018002b648     libucrt:lcidtoname_downlevel.obj
 0002:00008658       ??_C@_1O@DFKOMPG@?$AAs?$AAm?$AAa?$AA?9?$AAn?$AAo@ 000000018002b658     libucrt:lcidtoname_downlevel.obj
 0002:00008668       ??_C@_1O@NDKPBNNH@?$AAs?$AAm?$AAa?$AA?9?$AAs?$AAe@ 000000018002b668     libucrt:lcidtoname_downlevel.obj
 0002:00008678       ??_C@_1O@PLLKBHAB@?$AAs?$AAm?$AAj?$AA?9?$AAn?$AAo@ 000000018002b678     libucrt:lcidtoname_downlevel.obj
 0002:00008688       ??_C@_1O@CLEPOGCA@?$AAs?$AAm?$AAj?$AA?9?$AAs?$AAe@ 000000018002b688     libucrt:lcidtoname_downlevel.obj
 0002:00008698       ??_C@_1O@DLGJGKMK@?$AAs?$AAm?$AAn?$AA?9?$AAf?$AAi@ 000000018002b698     libucrt:lcidtoname_downlevel.obj
 0002:000086a8       ??_C@_1O@OJDJGAJC@?$AAs?$AAm?$AAs?$AA?9?$AAf?$AAi@ 000000018002b6a8     libucrt:lcidtoname_downlevel.obj
 0002:000086b8       ??_C@_1M@BOFOGHPB@?$AAs?$AAq?$AA?9?$AAa?$AAl@ 000000018002b6b8     libucrt:lcidtoname_downlevel.obj
 0002:000086c8       ??_C@_1BG@LJBBIPGB@?$AAs?$AAr?$AA?9?$AAb?$AAa?$AA?9?$AAc?$AAy?$AAr?$AAl@ 000000018002b6c8     libucrt:lcidtoname_downlevel.obj
 0002:000086e0       ??_C@_1BG@JLBENFOE@?$AAs?$AAr?$AA?9?$AAb?$AAa?$AA?9?$AAl?$AAa?$AAt?$AAn@ 000000018002b6e0     libucrt:lcidtoname_downlevel.obj
 0002:000086f8       ??_C@_1BG@KODPNHE@?$AAs?$AAr?$AA?9?$AAs?$AAp?$AA?9?$AAc?$AAy?$AAr?$AAl@ 000000018002b6f8     libucrt:lcidtoname_downlevel.obj
 0002:00008710       ??_C@_1BG@CIOGKHPB@?$AAs?$AAr?$AA?9?$AAs?$AAp?$AA?9?$AAl?$AAa?$AAt?$AAn@ 000000018002b710     libucrt:lcidtoname_downlevel.obj
 0002:00008728       ??_C@_1M@NGFJLMAC@?$AAs?$AAv?$AA?9?$AAf?$AAi@ 000000018002b728     libucrt:lcidtoname_downlevel.obj
 0002:00008738       ??_C@_1M@MPJEJAJC@?$AAs?$AAv?$AA?9?$AAs?$AAe@ 000000018002b738     libucrt:lcidtoname_downlevel.obj
 0002:00008748       ??_C@_1M@MPNDHLFK@?$AAs?$AAw?$AA?9?$AAk?$AAe@ 000000018002b748     libucrt:lcidtoname_downlevel.obj
 0002:00008758       ??_C@_1O@KOHBJJI@?$AAs?$AAy?$AAr?$AA?9?$AAs?$AAy@ 000000018002b758     libucrt:lcidtoname_downlevel.obj
 0002:00008768       ??_C@_1M@LDCEFHA@?$AAt?$AAa?$AA?9?$AAi?$AAn@ 000000018002b768     libucrt:lcidtoname_downlevel.obj
 0002:00008778       ??_C@_1M@CNJOFAK@?$AAt?$AAe?$AA?9?$AAi?$AAn@ 000000018002b778     libucrt:lcidtoname_downlevel.obj
 0002:00008788       ??_C@_1M@GNAECACD@?$AAt?$AAh?$AA?9?$AAt?$AAh@ 000000018002b788     libucrt:lcidtoname_downlevel.obj
 0002:00008798       ??_C@_1M@CHBIHOJO@?$AAt?$AAn?$AA?9?$AAz?$AAa@ 000000018002b798     libucrt:lcidtoname_downlevel.obj
 0002:000087a8       ??_C@_1M@GCCMIGPJ@?$AAt?$AAr?$AA?9?$AAt?$AAr@ 000000018002b7a8     libucrt:lcidtoname_downlevel.obj
 0002:000087b8       ??_C@_1M@CELMCNBK@?$AAt?$AAt?$AA?9?$AAr?$AAu@ 000000018002b7b8     libucrt:lcidtoname_downlevel.obj
 0002:000087c8       ??_C@_1M@KLMCELGA@?$AAu?$AAk?$AA?9?$AAu?$AAa@ 000000018002b7c8     libucrt:lcidtoname_downlevel.obj
 0002:000087d8       ??_C@_1M@EPAJJAJF@?$AAu?$AAr?$AA?9?$AAp?$AAk@ 000000018002b7d8     libucrt:lcidtoname_downlevel.obj
 0002:000087e8       ??_C@_1BG@GEGPMCDJ@?$AAu?$AAz?$AA?9?$AAu?$AAz?$AA?9?$AAc?$AAy?$AAr?$AAl@ 000000018002b7e8     libucrt:lcidtoname_downlevel.obj
 0002:00008800       ??_C@_1BG@EGGKJILM@?$AAu?$AAz?$AA?9?$AAu?$AAz?$AA?9?$AAl?$AAa?$AAt?$AAn@ 000000018002b800     libucrt:lcidtoname_downlevel.obj
 0002:00008818       ??_C@_1M@GFOCLFF@?$AAv?$AAi?$AA?9?$AAv?$AAn@ 000000018002b818     libucrt:lcidtoname_downlevel.obj
 0002:00008828       ??_C@_1M@CPAMEDFI@?$AAx?$AAh?$AA?9?$AAz?$AAa@ 000000018002b828     libucrt:lcidtoname_downlevel.obj
 0002:00008838       ??_C@_1O@EBKIFIGN@?$AAz?$AAh?$AA?9?$AAc?$AAh?$AAs@ 000000018002b838     libucrt:lcidtoname_downlevel.obj
 0002:00008848       ??_C@_1O@NMHPGANE@?$AAz?$AAh?$AA?9?$AAc?$AAh?$AAt@ 000000018002b848     libucrt:lcidtoname_downlevel.obj
 0002:00008858       ??_C@_1M@LPINJOMC@?$AAz?$AAh?$AA?9?$AAc?$AAn@ 000000018002b858     libucrt:lcidtoname_downlevel.obj
 0002:00008868       ??_C@_1M@OCJEJODD@?$AAz?$AAh?$AA?9?$AAh?$AAk@ 000000018002b868     libucrt:lcidtoname_downlevel.obj
 0002:00008878       ??_C@_1M@DNDLJINH@?$AAz?$AAh?$AA?9?$AAm?$AAo@ 000000018002b878     libucrt:lcidtoname_downlevel.obj
 0002:00008888       ??_C@_1M@MBFDNDND@?$AAz?$AAh?$AA?9?$AAs?$AAg@ 000000018002b888     libucrt:lcidtoname_downlevel.obj
 0002:00008898       ??_C@_1M@IMEPLEPE@?$AAz?$AAh?$AA?9?$AAt?$AAw@ 000000018002b898     libucrt:lcidtoname_downlevel.obj
 0002:000088a8       ??_C@_1M@BBGHNHJP@?$AAz?$AAu?$AA?9?$AAz?$AAa@ 000000018002b8a8     libucrt:lcidtoname_downlevel.obj
 0002:000088c0       ?large_power_data@?1??multiply_by_power_of_ten@__crt_strtox@@YA_NAEAUbig_integer@2@I@Z@4QBIB 000000018002b8c0     libucrt:cfout.obj
 0002:000091d0       ?large_power_indices@?1??multiply_by_power_of_ten@__crt_strtox@@YA_NAEAUbig_integer@2@I@Z@4QBUunpack_index@?1??12@YA_N0I@Z@B 000000018002c1d0     libucrt:cfout.obj
 0002:00009268       ?small_powers_of_ten@?1??multiply_by_power_of_ten@__crt_strtox@@YA_NAEAUbig_integer@2@I@Z@4QBIB 000000018002c268     libucrt:cfout.obj
 0002:0000928c       ??_C@_01GBGANLPD@0@        000000018002c28c     libucrt:cfout.obj
 0002:00009290       ??_C@_05DNEBIAHO@1?$CDINF@ 000000018002c290     libucrt:cfout.obj
 0002:00009298       ??_C@_06IMKFLFPG@1?$CDQNAN@ 000000018002c298     libucrt:cfout.obj
 0002:000092a0       ??_C@_06PGGFOGJG@1?$CDSNAN@ 000000018002c2a0     libucrt:cfout.obj
 0002:000092a8       ??_C@_05PHHOCPM@1?$CDIND@  000000018002c2a8     libucrt:cfout.obj
 0002:000092b0       __real@3ff0000000000000    000000018002c2b0     libucrt:ceil.obj
 0002:00009510       __log10_256_lead           000000018002c510     libucrt:log10_256_lead_tail_table.obj
 0002:00009d20       __log10_256_tail           000000018002cd20     libucrt:log10_256_lead_tail_table.obj
 0002:0000a530       __log_F_inv_qword          000000018002d530     libucrt:log_f_inv_qword_table.obj
 0002:0000ad40       ??_C@_05HGHHAHAP@log10@    000000018002dd40     libucrt:log_special.obj
 0002:0000ad48       ??_C@_1BA@BALFACEM@?$AAC?$AAO?$AAN?$AAO?$AAU?$AAT?$AA$@ 000000018002dd48     libucrt:initcon.obj
 0002:0000add0       _load_config_used          000000018002ddd0     LIBCMT:loadcfg.obj
 0002:0000af80       _tls_used                  000000018002df80     LIBCMT:tlssup.obj
 0002:0000afa8       ??_R4exception@std@@6B@    000000018002dfa8     LIBCMT:throw_bad_alloc.obj
 0002:0000afd0       ??_R3exception@std@@8      000000018002dfd0     LIBCMT:throw_bad_alloc.obj
 0002:0000afe8       ??_R2exception@std@@8      000000018002dfe8     LIBCMT:throw_bad_alloc.obj
 0002:0000aff8       ??_R1A@?0A@EA@exception@std@@8 000000018002dff8     LIBCMT:throw_bad_alloc.obj
 0002:0000b020       ??_R4bad_alloc@std@@6B@    000000018002e020     LIBCMT:throw_bad_alloc.obj
 0002:0000b048       ??_R3bad_alloc@std@@8      000000018002e048     LIBCMT:throw_bad_alloc.obj
 0002:0000b060       ??_R2bad_alloc@std@@8      000000018002e060     LIBCMT:throw_bad_alloc.obj
 0002:0000b078       ??_R1A@?0A@EA@bad_alloc@std@@8 000000018002e078     LIBCMT:throw_bad_alloc.obj
 0002:0000b0a0       ??_R4bad_array_new_length@std@@6B@ 000000018002e0a0     LIBCMT:throw_bad_alloc.obj
 0002:0000b0c8       ??_R3bad_array_new_length@std@@8 000000018002e0c8     LIBCMT:throw_bad_alloc.obj
 0002:0000b0e0       ??_R2bad_array_new_length@std@@8 000000018002e0e0     LIBCMT:throw_bad_alloc.obj
 0002:0000b100       ??_R1A@?0A@EA@bad_array_new_length@std@@8 000000018002e100     LIBCMT:throw_bad_alloc.obj
 0002:0000b128       ??_R4type_info@@6B@        000000018002e128     LIBCMT:std_type_info_static.obj
 0002:0000b150       ??_R3type_info@@8          000000018002e150     LIBCMT:std_type_info_static.obj
 0002:0000b168       ??_R2type_info@@8          000000018002e168     LIBCMT:std_type_info_static.obj
 0002:0000b178       ??_R1A@?0A@EA@type_info@@8 000000018002e178     LIBCMT:std_type_info_static.obj
 0002:0000b1a0       ??_R4bad_exception@std@@6B@ 000000018002e1a0     libvcruntime:frame.obj
 0002:0000b1c8       ??_R3bad_exception@std@@8  000000018002e1c8     libvcruntime:frame.obj
 0002:0000b1e0       ??_R2bad_exception@std@@8  000000018002e1e0     libvcruntime:frame.obj
 0002:0000b1f8       ??_R1A@?0A@EA@bad_exception@std@@8 000000018002e1f8     libvcruntime:frame.obj
 0002:0000b628       __rtc_iaa                  000000018002e628     LIBCMT:initsect.obj
 0002:0000b630       __rtc_izz                  000000018002e630     LIBCMT:initsect.obj
 0002:0000b638       __rtc_taa                  000000018002e638     LIBCMT:initsect.obj
 0002:0000b640       __rtc_tzz                  000000018002e640     LIBCMT:initsect.obj
 0002:0000b648       _tls_start                 000000018002e648     LIBCMT:tlssup.obj
 0002:0000b64c       _Init_thread_epoch         000000018002e64c     LIBCMT:thread_safe_statics.obj
 0002:0000b650       _tls_end                   000000018002e650     LIBCMT:tlssup.obj
 0002:0000cd20       _TI2?AVbad_alloc@std@@     000000018002fd20     LIBCMT:throw_bad_alloc.obj
 0002:0000cd40       _CTA2?AVbad_alloc@std@@    000000018002fd40     LIBCMT:throw_bad_alloc.obj
 0002:0000cd58       _CT??_R0?AVbad_alloc@std@@@8??0bad_alloc@std@@QEAA@AEBV01@@Z24 000000018002fd58     LIBCMT:throw_bad_alloc.obj
 0002:0000cd80       _CT??_R0?AVexception@std@@@8??0exception@std@@QEAA@AEBV01@@Z24 000000018002fd80     LIBCMT:throw_bad_alloc.obj
 0002:0000cda8       _TI3?AVbad_array_new_length@std@@ 000000018002fda8     LIBCMT:throw_bad_alloc.obj
 0002:0000cdc8       _CTA3?AVbad_array_new_length@std@@ 000000018002fdc8     LIBCMT:throw_bad_alloc.obj
 0002:0000cde8       _CT??_R0?AVbad_array_new_length@std@@@8??0bad_array_new_length@std@@QEAA@AEBV01@@Z24 000000018002fde8     LIBCMT:throw_bad_alloc.obj
 0002:0000ce10       _TI2?AVbad_exception@std@@ 000000018002fe10     libvcruntime:frame.obj
 0002:0000ce30       _CTA2?AVbad_exception@std@@ 000000018002fe30     libvcruntime:frame.obj
 0002:0000ce48       _CT??_R0?AVbad_exception@std@@@8??0bad_exception@std@@QEAA@AEBV01@@Z24 000000018002fe48     libvcruntime:frame.obj
 0002:0000ce70       __pobjMapEntryFirst        000000018002fe70     OposVariant.obj
 0002:0000ce78       __pobjMapEntryLast         000000018002fe78     OposVariant.obj
 0002:0000cf30       __IMPORT_DESCRIPTOR_KERNEL32 000000018002ff30     kernel32:KERNEL32.dll
 0002:0000cf44       __IMPORT_DESCRIPTOR_USER32 000000018002ff44     user32:USER32.dll
 0002:0000cf58       __IMPORT_DESCRIPTOR_GDI32  000000018002ff58     gdi32:GDI32.dll
 0002:0000cf6c       __IMPORT_DESCRIPTOR_ADVAPI32 000000018002ff6c     advapi32:ADVAPI32.dll
 0002:0000cf80       __IMPORT_DESCRIPTOR_ole32  000000018002ff80     ole32:ole32.dll
 0002:0000cf94       __IMPORT_DESCRIPTOR_OLEAUT32 000000018002ff94     oleaut32:OLEAUT32.dll
 0002:0000cfa8       __NULL_IMPORT_DESCRIPTOR   000000018002ffa8     kernel32:KERNEL32.dll
 0003:00000000       ?s_Claim@?7??GetIDsOfNames@CComTypeInfoHolder@ATL@@QEAAJAEBU_GUID@@PEAPEA_WIKPEAJ@Z@4PA_WA 0000000180032000     SpeechSynthesis.obj
 0003:00000018       ?s_Release@?7??GetIDsOfNames@CComTypeInfoHolder@ATL@@QEAAJAEBU_GUID@@PEAPEA_WIKPEAJ@Z@4PA_WA 0000000180032018     SpeechSynthesis.obj
 0003:00000038       ?_tih@?$IDispatchImpl@UIOPOSSpeechSynthesis@@$1?IID_IOPOSSpeechSynthesis@@3U_GUID@@B$1?LIBID_OposSpeechSynthesis_CCO@@3U3@B$00$0A@VCComTypeInfoHolder@ATL@@@ATL@@1VCComTypeInfoHolder@2@A 0000000180032038     SpeechSynthesis.obj
 0003:00000070       ?_tih@?$IProvideClassInfo2Impl@$1?CLSID_OPOSSpeechSynthesis@@3U_GUID@@B$1?DIID__IOPOSSpeechSynthesisEvents@@3U2@B$1?LIBID_OposSpeechSynthesis_CCO@@3U2@B$00$0A@VCComTypeInfoHolder@ATL@@@ATL@@1VCComTypeInfoHolder@2@A 0000000180032070     SpeechSynthesis.obj
 0003:000000a8       ?vszContents@?6??Save@?$IPersistStorageImpl@VCOPOSSpeechSynthesis@@@ATL@@UEAAJPEAUIStorage@@H@Z@4PEB_WEB 00000001800320a8     SpeechSynthesis.obj
 0003:000000b0       ?wc@?1??GetWndClassInfo@?$CWindowImpl@VCOPOSSpeechSynthesis@@VCWindow@ATL@@V?$CWinTraits@$0FGAAAAAA@$0A@@3@@ATL@@SAAEAU_ATL_WNDCLASSINFOW@3@XZ@4U43@A 00000001800320b0     SpeechSynthesis.obj
 0003:000001a8       ?rcDefault@CWindow@ATL@@2UtagRECT@@A 00000001800321a8     SpeechSynthesis.obj
 0003:00000250       ?g_WindowName@@3PA_WA      0000000180032250     SpeechSynthesisImpl.obj
 0003:00000280       ?g_ControlDescription@@3PADA 0000000180032280     SpeechSynthesisImpl.obj
 0003:000002b8       ?g_ControlVersion@@3JA     00000001800322b8     SpeechSynthesisImpl.obj
 0003:00000370       __scrt_native_dllmain_reason 0000000180032370     LIBCMT:utility.obj
 0003:00000374       _Init_global_epoch         0000000180032374     LIBCMT:thread_safe_statics.obj
 0003:00000380       __security_cookie_complement 0000000180032380     LIBCMT:gs_cookie.obj
 0003:00000388       __security_cookie          0000000180032388     LIBCMT:gs_cookie.obj
 0003:00000390       __isa_available            0000000180032390     LIBCMT:cpu_disp.obj
 0003:00000394       __isa_enabled              0000000180032394     LIBCMT:cpu_disp.obj
 0003:00000398       __memcpy_nt_iters          0000000180032398     LIBCMT:cpu_disp.obj
 0003:000003a0       __memset_nt_iters          00000001800323a0     LIBCMT:cpu_disp.obj
 0003:000003c8       __abort_behavior           00000001800323c8     libucrt:abort.obj
 0003:000003e0       _iob                       00000001800323e0     libucrt:_file.obj
 0003:000004f0       __acrt_initial_locale_data 00000001800324f0     libucrt:nlsdata.obj
 0003:00000648       __acrt_initial_locale_pointers 0000000180032648     libucrt:nlsdata.obj
 0003:00000658       __acrt_wide_c_locale_string 0000000180032658     libucrt:nlsdata.obj
 0003:00000660       __acrt_initial_multibyte_data 0000000180032660     libucrt:mbctype.obj
 0003:00000ba0       _pwctype                   0000000180032ba0     libucrt:ctype.obj
 0003:00000ba8       __globallocalestatus       0000000180032ba8     libucrt:glstatus.obj
 0003:00000bb0       __acrt_lconv_c             0000000180032bb0     libucrt:localeconv.obj
 0003:00000c48       __acrt_lconv_static_decimal 0000000180032c48     libucrt:localeconv.obj
 0003:00000c4c       __acrt_lconv_static_W_decimal 0000000180032c4c     libucrt:localeconv.obj
 0003:00000c50       _lookuptrailbytes          0000000180032c50     libucrt:read.obj
 0003:00000d74       _fltused                   0000000180032d74     LIBCMT:fltused.obj
 0003:00000d78       ??_R0?AVbad_alloc@std@@@8  0000000180032d78     LIBCMT:throw_bad_alloc.obj
 0003:00000da0       ??_R0?AVexception@std@@@8  0000000180032da0     LIBCMT:throw_bad_alloc.obj
 0003:00000dc8       ??_R0?AVbad_array_new_length@std@@@8 0000000180032dc8     LIBCMT:throw_bad_alloc.obj
 0003:00000df8       ??_R0?AVtype_info@@@8      0000000180032df8     LIBCMT:std_type_info_static.obj
 0003:00000e18       ??_R0?AVbad_exception@std@@@8 0000000180032e18     libvcruntime:frame.obj
 0003:00000e40       ?_pPerfRegFunc@ATL@@3P6AJPEAUHINSTANCE__@@@ZEA 0000000180032e40     OposVariant.obj
 0003:00000e48       ?_pPerfUnRegFunc@ATL@@3P6AJXZEA 0000000180032e48     OposVariant.obj
 0003:00000e50       ?_AtlRegisterPerUser@ATL@@3_NA 0000000180032e50     OposVariant.obj
 0003:00000e58       ?_pAtlModule@ATL@@3PEAVCAtlModule@1@EA 0000000180032e58     OposVariant.obj
 0003:00000e60       ?_pModule@ATL@@3PEAVCComModule@1@EA 0000000180032e60     OposVariant.obj
 0003:00000e68       ?m_bInitFailed@CAtlBaseModule@ATL@@2_NA 0000000180032e68     OposVariant.obj
 0003:00000e70       ?_AtlComModule@ATL@@3VCAtlComModule@1@A 0000000180032e70     OposVariant.obj
 0003:00000ec0       ?_AtlWinModule@ATL@@3VCAtlWinModule@1@A 0000000180032ec0     OposVariant.obj
 0003:00000f08       ?m_libid@CAtlModule@ATL@@2U_GUID@@A 0000000180032f08     SpeechSynthesis.obj
 0003:00000f18       ?_entries@?1??GetConnMap@COPOSSpeechSynthesis@@SAPEBU_ATL_CONNMAP_ENTRY@ATL@@PEAH@Z@4QBU34@B 0000000180032f18     SpeechSynthesis.obj
 0003:00000f30       ?$TSS0@?1??GetConnMap@COPOSSpeechSynthesis@@SAPEBU_ATL_CONNMAP_ENTRY@ATL@@PEAH@Z@4HA 0000000180032f30     SpeechSynthesis.obj
 0003:00000f38       ?_OptionsStorage@?1??__local_stdio_printf_options@@9@4_KA 0000000180032f38     SpeechSynthesis.obj
 0003:00000f40       ?pfnRegDeleteKeyEx@?1??DeleteSubKey@CRegKey@ATL@@QEAAJPEB_W@Z@4P6AJPEAUHKEY__@@0KK@ZEA 0000000180032f40     SpeechSynthesis.obj
 0003:00000f48       ?bInitialized@?1??DeleteSubKey@CRegKey@ATL@@QEAAJPEB_W@Z@4_NA 0000000180032f48     SpeechSynthesis.obj
 0003:00000f50       ?_Module@@3VCComModule@ATL@@A 0000000180032f50     SpeechSynthesis.obj
 0003:00000fa0       ?pConnMap@?$IConnectionPointContainerImpl@VCOPOSSpeechSynthesis@@@ATL@@0PEBU_ATL_CONNMAP_ENTRY@2@EB 0000000180032fa0     SpeechSynthesis.obj
 0003:00000fa8       ?s_nInstances@COPOSSpeechSynthesis@@1HA 0000000180032fa8     SpeechSynthesisImpl.obj
 0003:00000fb0       __scrt_current_native_startup_state 0000000180032fb0     LIBCMT:utility.obj
 0003:00000fb8       __scrt_native_startup_lock 0000000180032fb8     LIBCMT:utility.obj
 0003:000015b0       _tls_index                 00000001800335b0     LIBCMT:tlssup.obj
 0003:000015b8       __favor                    00000001800335b8     LIBCMT:cpu_disp.obj
 0003:000015bc       __scrt_debugger_hook_flag  00000001800335bc     LIBCMT:utility_desktop.obj
 0003:000015c0       __castguard_check_failure_os_handled_fptr 00000001800335c0     LIBCMT:guard_support.obj
 0003:000015d0       ?__type_info_root_node@@3U__type_info_node@@A 00000001800335d0     LIBCMT:tncleanup.obj
 0003:000015e0       ?_OptionsStorage@?1??__local_stdio_scanf_options@@9@4_KA 00000001800335e0     LIBCMT:default_local_stdio_options.obj
 0003:000015f0       ?_AtlBaseModule@ATL@@3VCAtlBaseModule@1@A 00000001800335f0     atls:atlbase.obj
 0003:00001650       ?__AtlThunkPool@@3PEAT_SLIST_HEADER@@EA 0000000180033650     atls:atlthunk.obj
 0003:0000167c       __@@_PchSym_@00@UztvmgUPdlipUGDUhUrmgvinvwrzgvUexgllohUzgohOmzgrevkilqPBACIAJCBDBUlyqiUznwGEUhgwzucOlyq@4B2008FD98C1DD4 000000018003367c     atls:stdafx.obj
 0003:00001680       ?__WinRTOutOfMemoryExceptionCallback@@3P6APEAXXZEA 0000000180033680     libvcruntime:ehhelpers.obj
 0003:00001688       __pPurecall                0000000180033688     libvcruntime:purevirt_data.obj
 0003:00001740       ?pArgList@UnDecorator@@0PEAVReplicator@@EA 0000000180033740     libvcruntime:undname.obj
 0003:00001748       ?pZNameList@UnDecorator@@0PEAVReplicator@@EA 0000000180033748     libvcruntime:undname.obj
 0003:00001750       ?pTemplateArgList@UnDecorator@@0PEAVReplicator@@EA 0000000180033750     libvcruntime:undname.obj
 0003:00001758       ?gName@UnDecorator@@0PEBDEB 0000000180033758     libvcruntime:undname.obj
 0003:00001760       ?name@UnDecorator@@0PEBDEB 0000000180033760     libvcruntime:undname.obj
 0003:00001768       ?disableFlags@UnDecorator@@0KA 0000000180033768     libvcruntime:undname.obj
 0003:0000176c       ?fExplicitTemplateParams@UnDecorator@@0_NA 000000018003376c     libvcruntime:undname.obj
 0003:0000176d       ?fGetTemplateArgumentList@UnDecorator@@0_NA 000000018003376d     libvcruntime:undname.obj
 0003:00001770       ?m_pGetParameter@UnDecorator@@0P6APEADJ@ZEA 0000000180033770     libvcruntime:undname.obj
 0003:00001778       ?m_CHPENameOffset@UnDecorator@@0KA 0000000180033778     libvcruntime:undname.obj
 0003:0000177c       ?m_recursionLevel@UnDecorator@@0KA 000000018003377c     libvcruntime:undname.obj
 0003:00001800       ?c_exit_complete@?1???R<lambda_6e4b09c48022b2350581041d5f6b0c4c>@@QEBA@XZ@4_NA 0000000180033800     libucrt:exit.obj
 0003:00001918       _environ_table             0000000180033918     libucrt:environment_initialization.obj
 0003:00001920       _wenviron_table            0000000180033920     libucrt:environment_initialization.obj
 0003:00001928       __dcrt_initial_wide_environment 0000000180033928     libucrt:environment_initialization.obj
 0003:00001930       __dcrt_initial_narrow_environment 0000000180033930     libucrt:environment_initialization.obj
 0003:00001938       __acrt_atexit_table        0000000180033938     libucrt:onexit.obj
 0003:00001950       __acrt_at_quick_exit_table 0000000180033950     libucrt:onexit.obj
 0003:00001b28       _nstream                   0000000180033b28     libucrt:_file.obj
 0003:00001b30       __piob                     0000000180033b30     libucrt:_file.obj
 0003:00001b40       __acrt_stdout_buffer       0000000180033b40     libucrt:_sftbuf.obj
 0003:00001b48       __acrt_stderr_buffer       0000000180033b48     libucrt:_sftbuf.obj
 0003:00001b50       __acrt_locale_changed_data 0000000180033b50     libucrt:wsetlocale.obj
 0003:00001b58       __acrt_current_locale_data 0000000180033b58     libucrt:nlsdata.obj
 0003:00001b60       __pioinfo                  0000000180033b60     libucrt:ioinit.obj
 0003:00001f60       _nhandle                   0000000180033f60     libucrt:ioinit.obj
 0003:000021a8       _mbctype                   00000001800341a8     libucrt:mbctype.obj
 0003:000021b0       _mbcasemap                 00000001800341b0     libucrt:mbctype.obj
 0003:000021b8       __acrt_current_multibyte_data 00000001800341b8     libucrt:mbctype.obj
 0003:000021c8       _pgmptr                    00000001800341c8     libucrt:argv_data.obj
 0003:000021d0       __argc                     00000001800341d0     libucrt:argv_data.obj
 0003:000021d8       __argv                     00000001800341d8     libucrt:argv_data.obj
 0003:000021e0       __wargv                    00000001800341e0     libucrt:argv_data.obj
 0003:000021e8       _acmdln                    00000001800341e8     libucrt:argv_data.obj
 0003:000021f0       _wcmdln                    00000001800341f0     libucrt:argv_data.obj
 0003:000021f8       __acrt_heap                00000001800341f8     libucrt:heap_handle.obj
 0003:0000222c       __acrt_lconv_static_null   000000018003422c     libucrt:localeconv.obj
 0003:00002230       __acrt_lconv_static_W_null 0000000180034230     libucrt:localeconv.obj
 0003:00002244       __fma3_is_available        0000000180034244     libucrt:fma3_available.obj
 0003:00002248       __use_fma3_lib             0000000180034248     libucrt:fma3_available.obj
 0003:00002250       __dyn_tls_init_callback    0000000180034250     <common>
 0003:00002258       __scrt_ucrt_dll_is_in_use  0000000180034258     <common>

 entry point at        0001:0000ee84

 Static symbols

 0000:fffc2000       .debug$S                   0000000180000000     OPOSSpeechSynthesis.exp
 0000:fffc2000       .debug$S                   0000000180000000     advapi32:ADVAPI32.dll
 0000:fffc2000       .debug$S                   0000000180000000     advapi32:ADVAPI32.dll
 0000:fffc2000       .debug$S                   0000000180000000     advapi32:ADVAPI32.dll
 0000:fffc2000       .debug$S                   0000000180000000     advapi32:ADVAPI32.dll
 0000:fffc2000       .debug$S                   0000000180000000     advapi32:ADVAPI32.dll
 0000:fffc2000       .debug$S                   0000000180000000     advapi32:ADVAPI32.dll
 0000:fffc2000       .debug$S                   0000000180000000     advapi32:ADVAPI32.dll
 0000:fffc2000       .debug$S                   0000000180000000     advapi32:ADVAPI32.dll
 0000:fffc2000       .debug$S                   0000000180000000     advapi32:ADVAPI32.dll
 0000:fffc2000       .debug$S                   0000000180000000     gdi32:GDI32.dll
 0000:fffc2000       .debug$S                   0000000180000000     gdi32:GDI32.dll
 0000:fffc2000       .debug$S                   0000000180000000     gdi32:GDI32.dll
 0000:fffc2000       .debug$S                   0000000180000000     gdi32:GDI32.dll
 0000:fffc2000       .debug$S                   0000000180000000     gdi32:GDI32.dll
 0000:fffc2000       .debug$S                   0000000180000000     gdi32:GDI32.dll
 0000:fffc2000       .debug$S                   0000000180000000     gdi32:GDI32.dll
 0000:fffc2000       .debug$S                   0000000180000000     gdi32:GDI32.dll
 0000:fffc2000       .debug$S                   0000000180000000     gdi32:GDI32.dll
 0000:fffc2000       .debug$S                   0000000180000000     gdi32:GDI32.dll
 0000:fffc2000       .debug$S                   0000000180000000     gdi32:GDI32.dll
 0000:fffc2000       .debug$S                   0000000180000000     gdi32:GDI32.dll
 0000:fffc2000       .debug$S                   0000000180000000     gdi32:GDI32.dll
 0000:fffc2000       .debug$S                   0000000180000000     gdi32:GDI32.dll
 0000:fffc2000       .debug$S                   0000000180000000     gdi32:GDI32.dll
 0000:fffc2000       .debug$S                   0000000180000000     gdi32:GDI32.dll
 0000:fffc2000       .debug$S                   0000000180000000     gdi32:GDI32.dll
 0000:fffc2000       .debug$S                   0000000180000000     gdi32:GDI32.dll
 0000:fffc2000       .debug$S                   0000000180000000     gdi32:GDI32.dll
 0000:fffc2000       .debug$S                   0000000180000000     kernel32:KERNEL32.dll
 0000:fffc2000       .debug$S                   0000000180000000     kernel32:KERNEL32.dll
 0000:fffc2000       .debug$S                   0000000180000000     kernel32:KERNEL32.dll
 0000:fffc2000       .debug$S                   0000000180000000     kernel32:KERNEL32.dll
 0000:fffc2000       .debug$S                   0000000180000000     kernel32:KERNEL32.dll
 0000:fffc2000       .debug$S                   0000000180000000     kernel32:KERNEL32.dll
 0000:fffc2000       .debug$S                   0000000180000000     kernel32:KERNEL32.dll
 0000:fffc2000       .debug$S                   0000000180000000     kernel32:KERNEL32.dll
 0000:fffc2000       .debug$S                   0000000180000000     kernel32:KERNEL32.dll
 0000:fffc2000       .debug$S                   0000000180000000     kernel32:KERNEL32.dll
 0000:fffc2000       .debug$S                   0000000180000000     kernel32:KERNEL32.dll
 0000:fffc2000       .debug$S                   0000000180000000     kernel32:KERNEL32.dll
 0000:fffc2000       .debug$S                   0000000180000000     kernel32:KERNEL32.dll
 0000:fffc2000       .debug$S                   0000000180000000     kernel32:KERNEL32.dll
 0000:fffc2000       .debug$S                   0000000180000000     kernel32:KERNEL32.dll
 0000:fffc2000       .debug$S                   0000000180000000     kernel32:KERNEL32.dll
 0000:fffc2000       .debug$S                   0000000180000000     kernel32:KERNEL32.dll
 0000:fffc2000       .debug$S                   0000000180000000     kernel32:KERNEL32.dll
 0000:fffc2000       .debug$S                   0000000180000000     kernel32:KERNEL32.dll
 0000:fffc2000       .debug$S                   0000000180000000     kernel32:KERNEL32.dll
 0000:fffc2000       .debug$S                   0000000180000000     kernel32:KERNEL32.dll
 0000:fffc2000       .debug$S                   0000000180000000     kernel32:KERNEL32.dll
 0000:fffc2000       .debug$S                   0000000180000000     kernel32:KERNEL32.dll
 0000:fffc2000       .debug$S                   0000000180000000     kernel32:KERNEL32.dll
 0000:fffc2000       .debug$S                   0000000180000000     kernel32:KERNEL32.dll
 0000:fffc2000       .debug$S                   0000000180000000     kernel32:KERNEL32.dll
 0000:fffc2000       .debug$S                   0000000180000000     kernel32:KERNEL32.dll
 0000:fffc2000       .debug$S                   0000000180000000     kernel32:KERNEL32.dll
 0000:fffc2000       .debug$S                   0000000180000000     kernel32:KERNEL32.dll
 0000:fffc2000       .debug$S                   0000000180000000     kernel32:KERNEL32.dll
 0000:fffc2000       .debug$S                   0000000180000000     kernel32:KERNEL32.dll
 0000:fffc2000       .debug$S                   0000000180000000     kernel32:KERNEL32.dll
 0000:fffc2000       .debug$S                   0000000180000000     kernel32:KERNEL32.dll
 0000:fffc2000       .debug$S                   0000000180000000     kernel32:KERNEL32.dll
 0000:fffc2000       .debug$S                   0000000180000000     kernel32:KERNEL32.dll
 0000:fffc2000       .debug$S                   0000000180000000     kernel32:KERNEL32.dll
 0000:fffc2000       .debug$S                   0000000180000000     kernel32:KERNEL32.dll
 0000:fffc2000       .debug$S                   0000000180000000     kernel32:KERNEL32.dll
 0000:fffc2000       .debug$S                   0000000180000000     kernel32:KERNEL32.dll
 0000:fffc2000       .debug$S                   0000000180000000     kernel32:KERNEL32.dll
 0000:fffc2000       .debug$S                   0000000180000000     kernel32:KERNEL32.dll
 0000:fffc2000       .debug$S                   0000000180000000     kernel32:KERNEL32.dll
 0000:fffc2000       .debug$S                   0000000180000000     kernel32:KERNEL32.dll
 0000:fffc2000       .debug$S                   0000000180000000     kernel32:KERNEL32.dll
 0000:fffc2000       .debug$S                   0000000180000000     kernel32:KERNEL32.dll
 0000:fffc2000       .debug$S                   0000000180000000     kernel32:KERNEL32.dll
 0000:fffc2000       .debug$S                   0000000180000000     kernel32:KERNEL32.dll
 0000:fffc2000       .debug$S                   0000000180000000     kernel32:KERNEL32.dll
 0000:fffc2000       .debug$S                   0000000180000000     kernel32:KERNEL32.dll
 0000:fffc2000       .debug$S                   0000000180000000     kernel32:KERNEL32.dll
 0000:fffc2000       .debug$S                   0000000180000000     kernel32:KERNEL32.dll
 0000:fffc2000       .debug$S                   0000000180000000     kernel32:KERNEL32.dll
 0000:fffc2000       .debug$S                   0000000180000000     kernel32:KERNEL32.dll
 0000:fffc2000       .debug$S                   0000000180000000     kernel32:KERNEL32.dll
 0000:fffc2000       .debug$S                   0000000180000000     kernel32:KERNEL32.dll
 0000:fffc2000       .debug$S                   0000000180000000     kernel32:KERNEL32.dll
 0000:fffc2000       .debug$S                   0000000180000000     kernel32:KERNEL32.dll
 0000:fffc2000       .debug$S                   0000000180000000     kernel32:KERNEL32.dll
 0000:fffc2000       .debug$S                   0000000180000000     kernel32:KERNEL32.dll
 0000:fffc2000       .debug$S                   0000000180000000     kernel32:KERNEL32.dll
 0000:fffc2000       .debug$S                   0000000180000000     kernel32:KERNEL32.dll
 0000:fffc2000       .debug$S                   0000000180000000     kernel32:KERNEL32.dll
 0000:fffc2000       .debug$S                   0000000180000000     kernel32:KERNEL32.dll
 0000:fffc2000       .debug$S                   0000000180000000     kernel32:KERNEL32.dll
 0000:fffc2000       .debug$S                   0000000180000000     kernel32:KERNEL32.dll
 0000:fffc2000       .debug$S                   0000000180000000     kernel32:KERNEL32.dll
 0000:fffc2000       .debug$S                   0000000180000000     kernel32:KERNEL32.dll
 0000:fffc2000       .debug$S                   0000000180000000     kernel32:KERNEL32.dll
 0000:fffc2000       .debug$S                   0000000180000000     kernel32:KERNEL32.dll
 0000:fffc2000       .debug$S                   0000000180000000     kernel32:KERNEL32.dll
 0000:fffc2000       .debug$S                   0000000180000000     kernel32:KERNEL32.dll
 0000:fffc2000       .debug$S                   0000000180000000     kernel32:KERNEL32.dll
 0000:fffc2000       .debug$S                   0000000180000000     kernel32:KERNEL32.dll
 0000:fffc2000       .debug$S                   0000000180000000     kernel32:KERNEL32.dll
 0000:fffc2000       .debug$S                   0000000180000000     kernel32:KERNEL32.dll
 0000:fffc2000       .debug$S                   0000000180000000     kernel32:KERNEL32.dll
 0000:fffc2000       .debug$S                   0000000180000000     kernel32:KERNEL32.dll
 0000:fffc2000       .debug$S                   0000000180000000     kernel32:KERNEL32.dll
 0000:fffc2000       .debug$S                   0000000180000000     kernel32:KERNEL32.dll
 0000:fffc2000       .debug$S                   0000000180000000     kernel32:KERNEL32.dll
 0000:fffc2000       .debug$S                   0000000180000000     kernel32:KERNEL32.dll
 0000:fffc2000       .debug$S                   0000000180000000     kernel32:KERNEL32.dll
 0000:fffc2000       .debug$S                   0000000180000000     kernel32:KERNEL32.dll
 0000:fffc2000       .debug$S                   0000000180000000     kernel32:KERNEL32.dll
 0000:fffc2000       .debug$S                   0000000180000000     kernel32:KERNEL32.dll
 0000:fffc2000       .debug$S                   0000000180000000     kernel32:KERNEL32.dll
 0000:fffc2000       .debug$S                   0000000180000000     kernel32:KERNEL32.dll
 0000:fffc2000       .debug$S                   0000000180000000     kernel32:KERNEL32.dll
 0000:fffc2000       .debug$S                   0000000180000000     kernel32:KERNEL32.dll
 0000:fffc2000       .debug$S                   0000000180000000     kernel32:KERNEL32.dll
 0000:fffc2000       .debug$S                   0000000180000000     kernel32:KERNEL32.dll
 0000:fffc2000       .debug$S                   0000000180000000     kernel32:KERNEL32.dll
 0000:fffc2000       .debug$S                   0000000180000000     kernel32:KERNEL32.dll
 0000:fffc2000       .debug$S                   0000000180000000     kernel32:KERNEL32.dll
 0000:fffc2000       .debug$S                   0000000180000000     kernel32:KERNEL32.dll
 0000:fffc2000       .debug$S                   0000000180000000     kernel32:KERNEL32.dll
 0000:fffc2000       .debug$S                   0000000180000000     kernel32:KERNEL32.dll
 0000:fffc2000       .debug$S                   0000000180000000     kernel32:KERNEL32.dll
 0000:fffc2000       .debug$S                   0000000180000000     kernel32:KERNEL32.dll
 0000:fffc2000       .debug$S                   0000000180000000     kernel32:KERNEL32.dll
 0000:fffc2000       .debug$S                   0000000180000000     kernel32:KERNEL32.dll
 0000:fffc2000       .debug$S                   0000000180000000     kernel32:KERNEL32.dll
 0000:fffc2000       .debug$S                   0000000180000000     kernel32:KERNEL32.dll
 0000:fffc2000       .debug$S                   0000000180000000     kernel32:KERNEL32.dll
 0000:fffc2000       .debug$S                   0000000180000000     kernel32:KERNEL32.dll
 0000:fffc2000       .debug$S                   0000000180000000     kernel32:KERNEL32.dll
 0000:fffc2000       .debug$S                   0000000180000000     kernel32:KERNEL32.dll
 0000:fffc2000       .debug$S                   0000000180000000     kernel32:KERNEL32.dll
 0000:fffc2000       .debug$S                   0000000180000000     kernel32:KERNEL32.dll
 0000:fffc2000       .debug$S                   0000000180000000     kernel32:KERNEL32.dll
 0000:fffc2000       .debug$S                   0000000180000000     kernel32:KERNEL32.dll
 0000:fffc2000       .debug$S                   0000000180000000     ole32:ole32.dll
 0000:fffc2000       .debug$S                   0000000180000000     ole32:ole32.dll
 0000:fffc2000       .debug$S                   0000000180000000     ole32:ole32.dll
 0000:fffc2000       .debug$S                   0000000180000000     ole32:ole32.dll
 0000:fffc2000       .debug$S                   0000000180000000     ole32:ole32.dll
 0000:fffc2000       .debug$S                   0000000180000000     ole32:ole32.dll
 0000:fffc2000       .debug$S                   0000000180000000     ole32:ole32.dll
 0000:fffc2000       .debug$S                   0000000180000000     ole32:ole32.dll
 0000:fffc2000       .debug$S                   0000000180000000     ole32:ole32.dll
 0000:fffc2000       .debug$S                   0000000180000000     ole32:ole32.dll
 0000:fffc2000       .debug$S                   0000000180000000     ole32:ole32.dll
 0000:fffc2000       .debug$S                   0000000180000000     ole32:ole32.dll
 0000:fffc2000       .debug$S                   0000000180000000     ole32:ole32.dll
 0000:fffc2000       .debug$S                   0000000180000000     ole32:ole32.dll
 0000:fffc2000       .debug$S                   0000000180000000     oleaut32:OLEAUT32.dll
 0000:fffc2000       .debug$S                   0000000180000000     oleaut32:OLEAUT32.dll
 0000:fffc2000       .debug$S                   0000000180000000     oleaut32:OLEAUT32.dll
 0000:fffc2000       .debug$S                   0000000180000000     oleaut32:OLEAUT32.dll
 0000:fffc2000       .debug$S                   0000000180000000     oleaut32:OLEAUT32.dll
 0000:fffc2000       .debug$S                   0000000180000000     oleaut32:OLEAUT32.dll
 0000:fffc2000       .debug$S                   0000000180000000     oleaut32:OLEAUT32.dll
 0000:fffc2000       .debug$S                   0000000180000000     oleaut32:OLEAUT32.dll
 0000:fffc2000       .debug$S                   0000000180000000     oleaut32:OLEAUT32.dll
 0000:fffc2000       .debug$S                   0000000180000000     oleaut32:OLEAUT32.dll
 0000:fffc2000       .debug$S                   0000000180000000     oleaut32:OLEAUT32.dll
 0000:fffc2000       .debug$S                   0000000180000000     oleaut32:OLEAUT32.dll
 0000:fffc2000       .debug$S                   0000000180000000     oleaut32:OLEAUT32.dll
 0000:fffc2000       .debug$S                   0000000180000000     oleaut32:OLEAUT32.dll
 0000:fffc2000       .debug$S                   0000000180000000     oleaut32:OLEAUT32.dll
 0000:fffc2000       .debug$S                   0000000180000000     oleaut32:OLEAUT32.dll
 0000:fffc2000       .debug$S                   0000000180000000     user32:USER32.dll
 0000:fffc2000       .debug$S                   0000000180000000     user32:USER32.dll
 0000:fffc2000       .debug$S                   0000000180000000     user32:USER32.dll
 0000:fffc2000       .debug$S                   0000000180000000     user32:USER32.dll
 0000:fffc2000       .debug$S                   0000000180000000     user32:USER32.dll
 0000:fffc2000       .debug$S                   0000000180000000     user32:USER32.dll
 0000:fffc2000       .debug$S                   0000000180000000     user32:USER32.dll
 0000:fffc2000       .debug$S                   0000000180000000     user32:USER32.dll
 0000:fffc2000       .debug$S                   0000000180000000     user32:USER32.dll
 0000:fffc2000       .debug$S                   0000000180000000     user32:USER32.dll
 0000:fffc2000       .debug$S                   0000000180000000     user32:USER32.dll
 0000:fffc2000       .debug$S                   0000000180000000     user32:USER32.dll
 0000:fffc2000       .debug$S                   0000000180000000     user32:USER32.dll
 0000:fffc2000       .debug$S                   0000000180000000     user32:USER32.dll
 0000:fffc2000       .debug$S                   0000000180000000     user32:USER32.dll
 0000:fffc2000       .debug$S                   0000000180000000     user32:USER32.dll
 0000:fffc2000       .debug$S                   0000000180000000     user32:USER32.dll
 0000:fffc2000       .debug$S                   0000000180000000     user32:USER32.dll
 0000:fffc2000       .debug$S                   0000000180000000     user32:USER32.dll
 0000:fffc2000       .debug$S                   0000000180000000     user32:USER32.dll
 0000:fffc2000       .debug$S                   0000000180000000     user32:USER32.dll
 0000:fffc2000       .debug$S                   0000000180000000     user32:USER32.dll
 0000:fffc2000       .debug$S                   0000000180000000     user32:USER32.dll
 0000:fffc2000       .debug$S                   0000000180000000     user32:USER32.dll
 0000:fffc2000       .debug$S                   0000000180000000     user32:USER32.dll
 0000:fffc2000       .debug$S                   0000000180000000     user32:USER32.dll
 0000:fffc2000       .debug$S                   0000000180000000     user32:USER32.dll
 0000:fffc2000       .debug$S                   0000000180000000     user32:USER32.dll
 0000:fffc2000       .debug$S                   0000000180000000     user32:USER32.dll
 0000:fffc2000       .debug$S                   0000000180000000     user32:USER32.dll
 0000:fffc2000       .debug$S                   0000000180000000     user32:USER32.dll
 0000:fffc2000       .debug$S                   0000000180000000     user32:USER32.dll
 0000:fffc2000       .debug$S                   0000000180000000     user32:USER32.dll
 0000:fffc2000       .debug$S                   0000000180000000     user32:USER32.dll
 0000:fffc2000       .debug$S                   0000000180000000     user32:USER32.dll
 0001:00000000       ??__E_AtlComModule@ATL@@YAXXZ 0000000180001000 f   OposVariant.obj
 0001:00000020       ??__E_AtlWinModule@ATL@@YAXXZ 0000000180001020 f   OposVariant.obj
 0001:00000040       ??__E?pConnMap@?$IConnectionPointContainerImpl@VCOPOSSpeechSynthesis@@@ATL@@0PEBU_ATL_CONNMAP_ENTRY@2@EB@@YAXXZ 0000000180001040 f   SpeechSynthesis.obj
 0001:00000058       ??__E_Module@@YAXXZ        0000000180001058 f   SpeechSynthesis.obj
 0001:00000094       ??__E_AtlBaseModule@ATL@@YAXXZ 0000000180001094 f   atls:atlbase.obj
 0001:0000e494       ?__scrt_initialize_thread_safe_statics@@YAHXZ 000000018000f494 f   LIBCMT:thread_safe_statics.obj
 0001:0000e564       ?__scrt_uninitialize_thread_safe_statics@@YAXXZ 000000018000f564 f   LIBCMT:thread_safe_statics.obj
 0001:0000e8b4       capture_current_context    000000018000f8b4 f   LIBCMT:gs_report.obj
 0001:0000e924       capture_previous_context   000000018000f924 f   LIBCMT:gs_report.obj
 0001:0000eac0       $$000000                   000000018000fac0     LIBCMT:chkstk.obj
 0001:0000eb30       $$000000                   000000018000fb30     LIBCMT:amdsecgs.obj
 0001:0000eb64       ?dllmain_crt_dispatch@@YAHQEAUHINSTANCE__@@KQEAX@Z 000000018000fb64 f   LIBCMT:dll_dllmain.obj
 0001:0000ebb4       ?dllmain_crt_process_attach@@YAHQEAUHINSTANCE__@@QEAX@Z 000000018000fbb4 f   LIBCMT:dll_dllmain.obj
 0001:0000eccc       ?dllmain_crt_process_detach@@YAH_N@Z 000000018000fccc f   LIBCMT:dll_dllmain.obj
 0001:0000ed50       ?dllmain_dispatch@@YAHQEAUHINSTANCE__@@KQEAX@Z 000000018000fd50 f   LIBCMT:dll_dllmain.obj
 0001:0000f618       ??$GetProcAddressAll@P6AP6A_JPEAUHWND__@@I_K_J@ZPEAUAtlThunkData_t@@@Z@@YAP6AP6A_JPEAUHWND__@@I_K_J@ZPEAUAtlThunkData_t@@@ZPEAP6AP6A_J0I12@Z3@Z@Z 0000000180010618 f   atls:atlthunk.obj
 0001:0000f618       ??$GetProcAddressAll@P6APEAUAtlThunkData_t@@XZ@@YAP6APEAUAtlThunkData_t@@XZPEAP6APEAU0@XZ@Z 0000000180010618 f   atls:atlthunk.obj
 0001:0000f618       ??$GetProcAddressAll@P6AXPEAUAtlThunkData_t@@@Z@@YAP6AXPEAUAtlThunkData_t@@@ZPEAP6AX0@Z@Z 0000000180010618 f   atls:atlthunk.obj
 0001:0000f618       ??$GetProcAddressAll@P6AXPEAUAtlThunkData_t@@PEAX_K@Z@@YAP6AXPEAUAtlThunkData_t@@PEAX_K@ZPEAP6AX012@Z@Z 0000000180010618 f   atls:atlthunk.obj
 0001:0000f7f0       ?__InitializeThunkPool@@YAHXZ 00000001800107f0 f   atls:atlthunk.obj
 0001:0000fc90       $$000000                   0000000180010c90     libvcruntime:memcmp.obj
 0001:0000fd70       $$000000                   0000000180010d70     libvcruntime:memcpy.obj
 0001:00010180       $$000000                   0000000180011180     libvcruntime:memset.obj
 0001:00011290       $$000000                   0000000180012290     libvcruntime:notify.obj
 0001:000113fc       ??$BuildCatchObjectHelperInternal@V__FrameHandler4@@@@YAHPEAUEHExceptionRecord@@PEAXPEAUHandlerType4@FH4@@PEBU_s_CatchableType@@@Z 00000001800123fc f   libvcruntime:frame.obj
 0001:00011600       ??$BuildCatchObjectInternal@V__FrameHandler4@@@@YAXPEAUEHExceptionRecord@@PEAXPEAUHandlerType4@FH4@@PEBU_s_CatchableType@@@Z 0000000180012600 f   libvcruntime:frame.obj
 0001:000116c4       ??$CatchIt@V__FrameHandler4@@@@YAXPEAUEHExceptionRecord@@PEA_KPEAU_CONTEXT@@PEAU_xDISPATCHER_CONTEXT@@PEAUFuncInfo4@FH4@@PEAUHandlerType4@4@PEBU_s_CatchableType@@PEAUTryBlockMapEntry4@4@H1EE@Z 00000001800126c4 f   libvcruntime:frame.obj
 0001:00011798       ??$FindHandler@V__FrameHandler4@@@@YAXPEAUEHExceptionRecord@@PEA_KPEAU_CONTEXT@@PEAU_xDISPATCHER_CONTEXT@@PEAUFuncInfo4@FH4@@EH1@Z 0000000180012798 f   libvcruntime:frame.obj
 0001:00011ca8       ??$FindHandlerForForeignException@V__FrameHandler4@@@@YAXPEAUEHExceptionRecord@@PEA_KPEAU_CONTEXT@@PEAU_xDISPATCHER_CONTEXT@@PEAUFuncInfo4@FH4@@HH1@Z 0000000180012ca8 f   libvcruntime:frame.obj
 0001:00012a38       ?ExFilterRethrow@@YAHPEAU_EXCEPTION_POINTERS@@PEAUEHExceptionRecord@@PEAH@Z 0000000180013a38 f   libvcruntime:frame.obj
 0001:00012ac0       ?ExFilterRethrowFH4@@YAHPEAU_EXCEPTION_POINTERS@@PEAUEHExceptionRecord@@HPEAH@Z 0000000180013ac0 f   libvcruntime:frame.obj
 0001:00012dd8       ?IsInExceptionSpec@@YAEPEAUEHExceptionRecord@@PEBU_s_ESTypeList@@@Z 0000000180013dd8 f   libvcruntime:frame.obj
 0001:00012ec8       ?Is_bad_exception_allowed@@YAEPEBU_s_ESTypeList@@@Z 0000000180013ec8 f   libvcruntime:frame.obj
 0001:000131a4       ?try_get_function@@YAPEAXW4function_id@?A0x84e3c32f@@QEBDQEBW4module_id@2@2@Z 00000001800141a4 f   libvcruntime:winapi_downlevel.obj
 0001:00013480       $$000000                   0000000180014480     libvcruntime:handlers.obj
 0001:00013c98       ??$common_vsprintf@Vformat_validation_base@__crt_stdio_output@@_W@@YAH_KQEA_W0QEB_WQEAU__crt_locale_pointers@@QEAD@Z 0000000180014c98 f   libucrt:output.obj
 0001:00014b38       $LN17                      0000000180015b38     libucrt:output.obj
 0001:000154dc       ??$?RV<lambda_d80eeec6fff315bfe5c115232f3240e3>@@AEAV<lambda_6e4b09c48022b2350581041d5f6b0c4c>@@V<lambda_2358e3775559c9db80273638284d5e45>@@@?$__crt_seh_guarded_call@X@@QEAAX$$QEAV<lambda_d80eeec6fff315bfe5c115232f3240e3>@@AEAV<lambda_6e4b09c48022b2350581041d5f6b0c4c>@@$$QEAV<lambda_2358e3775559c9db80273638284d5e45>@@@Z 00000001800164dc f   libucrt:exit.obj
 0001:00015514       ??R<lambda_6e4b09c48022b2350581041d5f6b0c4c>@@QEBA@XZ 0000000180016514 f   libucrt:exit.obj
 0001:000155d8       ?atexit_exception_filter@@YAHK@Z 00000001800165d8 f   libucrt:exit.obj
 0001:000155e4       ?common_exit@@YAXHW4_crt_exit_cleanup_mode@@W4_crt_exit_return_mode@@@Z 00000001800165e4 f   libucrt:exit.obj
 0001:000156a0       ?exit_or_terminate_process@@YAXI@Z 00000001800166a0 f   libucrt:exit.obj
 0001:000156ec       ?try_cor_exit_process@@YAXI@Z 00000001800166ec f   libucrt:exit.obj
 0001:00015774       ??$parse_command_line@D@@YAXPEADPEAPEAD0PEA_K2@Z 0000000180016774 f   libucrt:argv_parsing.obj
 0001:00015b1c       ??$common_initialize_environment_nolock@D@@YAHXZ 0000000180016b1c f   libucrt:environment_initialization.obj
 0001:00015b88       ??$create_environment@D@@YAQEAPEADQEAD@Z 0000000180016b88 f   libucrt:environment_initialization.obj
 0001:00015c90       ??$free_environment@D@@YAXQEAPEAD@Z 0000000180016c90 f   libucrt:environment_initialization.obj
 0001:00015c90       ??$free_environment@_W@@YAXQEAPEA_W@Z 0000000180016c90 f   libucrt:environment_initialization.obj
 0001:00015cd4       ??$uninitialize_environment_internal@D@@YAXAEAPEAPEAD@Z 0000000180016cd4 f   libucrt:environment_initialization.obj
 0001:00015cf0       ??$uninitialize_environment_internal@_W@@YAXAEAPEAPEA_W@Z 0000000180016cf0 f   libucrt:environment_initialization.obj
 0001:00015d4c       ??$?RV<lambda_638799b9deba96c50f710eeac98168cd>@@AEAV<lambda_22ebabd17bc4fa466a2aca6d8deb888d>@@V<lambda_a6f7d7db0129f75315ebf26d50c089f1>@@@?$__crt_seh_guarded_call@H@@QEAAH$$QEAV<lambda_638799b9deba96c50f710eeac98168cd>@@AEAV<lambda_22ebabd17bc4fa466a2aca6d8deb888d>@@$$QEAV<lambda_a6f7d7db0129f75315ebf26d50c089f1>@@@Z 0000000180016d4c f   libucrt:onexit.obj
 0001:00015d88       ??$?RV<lambda_7777bce6b2f8c936911f934f8298dc43>@@AEAV<lambda_f03950bc5685219e0bcd2087efbe011e>@@V<lambda_3883c3dff614d5e0c5f61bb1ac94921c>@@@?$__crt_seh_guarded_call@H@@QEAAH$$QEAV<lambda_7777bce6b2f8c936911f934f8298dc43>@@AEAV<lambda_f03950bc5685219e0bcd2087efbe011e>@@$$QEAV<lambda_3883c3dff614d5e0c5f61bb1ac94921c>@@@Z 0000000180016d88 f   libucrt:onexit.obj
 0001:00015dc4       ??R<lambda_22ebabd17bc4fa466a2aca6d8deb888d>@@QEBAHXZ 0000000180016dc4 f   libucrt:onexit.obj
 0001:00015f74       ??R<lambda_f03950bc5685219e0bcd2087efbe011e>@@QEBAHXZ 0000000180016f74 f   libucrt:onexit.obj
 0001:00016148       initialize_global_variables 0000000180017148 f   libucrt:initialization.obj
 0001:0001615c       initialize_c               000000018001715c f   libucrt:initialization.obj
 0001:00016180       initialize_environment     0000000180017180 f   libucrt:initialization.obj
 0001:00016180       initialize_global_state_isolation 0000000180017180 f   libucrt:initialization.obj
 0001:00016180       report_memory_leaks        0000000180017180 f   libucrt:initialization.obj
 0001:00016180       uninitialize_c             0000000180017180 f   libucrt:initialization.obj
 0001:00016180       uninitialize_global_state_isolation 0000000180017180 f   libucrt:initialization.obj
 0001:00016184       uninitialize_environment   0000000180017184 f   libucrt:initialization.obj
 0001:00016194       initialize_pointers        0000000180017194 f   libucrt:initialization.obj
 0001:000161d4       uninitialize_vcruntime     00000001800171d4 f   libucrt:initialization.obj
 0001:000161dc       uninitialize_allocated_memory 00000001800171dc f   libucrt:initialization.obj
 0001:0001621c       uninitialize_allocated_io_buffers 000000018001721c f   libucrt:initialization.obj
 0001:00016b90       $$000000                   0000000180017b90     libucrt:strncmp.obj
 0001:00016c8c       ??$?RV<lambda_0ae27a3a962d80f24befdcbee591983d>@@AEAV<lambda_8d0ee55de4b1038c4002e0adecdf1839>@@V<lambda_dc504788e8f1664fe9b84e20bfb512f2>@@@?$__crt_seh_guarded_call@X@@QEAAX$$QEAV<lambda_0ae27a3a962d80f24befdcbee591983d>@@AEAV<lambda_8d0ee55de4b1038c4002e0adecdf1839>@@$$QEAV<lambda_dc504788e8f1664fe9b84e20bfb512f2>@@@Z 0000000180017c8c f   libucrt:per_thread_data.obj
 0001:00016ccc       ??$?RV<lambda_2d41944a1d46af3157314b8a01080d33>@@AEAV<lambda_8f455de75cd7d7f24b4096f044d8b9e6>@@V<lambda_aa500f224e6afead328df44964fe2772>@@@?$__crt_seh_guarded_call@X@@QEAAX$$QEAV<lambda_2d41944a1d46af3157314b8a01080d33>@@AEAV<lambda_8f455de75cd7d7f24b4096f044d8b9e6>@@$$QEAV<lambda_aa500f224e6afead328df44964fe2772>@@@Z 0000000180017ccc f   libucrt:per_thread_data.obj
 0001:00016d0c       ??$?RV<lambda_aa87e3671a710a21b5dc78c0bdf72e11>@@AEAV<lambda_92619d2358a28f41a33ba319515a20b9>@@V<lambda_6992ecaafeb10aed2b74cb1fae11a551>@@@?$__crt_seh_guarded_call@X@@QEAAX$$QEAV<lambda_aa87e3671a710a21b5dc78c0bdf72e11>@@AEAV<lambda_92619d2358a28f41a33ba319515a20b9>@@$$QEAV<lambda_6992ecaafeb10aed2b74cb1fae11a551>@@@Z 0000000180017d0c f   libucrt:per_thread_data.obj
 0001:00016d54       ??$?RV<lambda_f2e299630e499de9f9a165e60fcd3db5>@@AEAV<lambda_2ae9d31cdba2644fcbeaf08da7c24588>@@V<lambda_40d01ff24d0e7b3814fdbdcee8eab3c7>@@@?$__crt_seh_guarded_call@X@@QEAAX$$QEAV<lambda_f2e299630e499de9f9a165e60fcd3db5>@@AEAV<lambda_2ae9d31cdba2644fcbeaf08da7c24588>@@$$QEAV<lambda_40d01ff24d0e7b3814fdbdcee8eab3c7>@@@Z 0000000180017d54 f   libucrt:per_thread_data.obj
 0001:00016db4       ?construct_ptd_array@@YAXQEAU__acrt_ptd@@@Z 0000000180017db4 f   libucrt:per_thread_data.obj
 0001:00016e84       ?destroy_fls@@YAXPEAX@Z    0000000180017e84 f   libucrt:per_thread_data.obj
 0001:00016ea4       ?destroy_ptd_array@@YAXQEAU__acrt_ptd@@@Z 0000000180017ea4 f   libucrt:per_thread_data.obj
 0001:00016f9c       ?replace_current_thread_locale_nolock@@YAXQEAU__acrt_ptd@@QEAU__crt_locale_data@@@Z 0000000180017f9c f   libucrt:per_thread_data.obj
 0001:00017480       ?try_get_function@@YAPEAXW4function_id@?A0x391cf84c@@QEBDQEBW4module_id@2@2@Z 0000000180018480 f   libucrt:winapi_thunks.obj
 0001:00017e50       ?fp_format_a@@YAHQEBNPEAD_KQEAD2H_NIQEAU__crt_locale_pointers@@W4__acrt_rounding_mode@@@Z 0000000180018e50 f   libucrt:cvt.obj
 0001:000181d0       ?fp_format_e@@YAHQEBNQEAD_K12H_NIQEAU__crt_locale_pointers@@W4__acrt_rounding_mode@@@Z 00000001800191d0 f   libucrt:cvt.obj
 0001:000182c0       ?fp_format_e_internal@@YAHQEAD_KH_NIQEAU_strflt@@2QEAU__crt_locale_pointers@@@Z 00000001800192c0 f   libucrt:cvt.obj
 0001:00018494       ?fp_format_f_internal@@YAHQEAD_KHQEAU_strflt@@_NQEAU__crt_locale_pointers@@@Z 0000000180019494 f   libucrt:cvt.obj
 0001:000185fc       ?fp_format_g@@YAHQEBNQEAD_K12H_NIQEAU__crt_locale_pointers@@@Z 00000001800195fc f   libucrt:cvt.obj
 0001:0001873c       ?should_round_up@@YA_NQEBN_KFW4__acrt_rounding_mode@@@Z 000000018001973c f   libucrt:cvt.obj
 0001:00018d60       ??$?RV<lambda_410d79af7f07d98d83a3f525b3859a53>@@AEAV<lambda_3e16ef9562a7dcce91392c22ab16ea36>@@V<lambda_38119f0e861e05405d8a144b9b982f0a>@@@?$__crt_seh_guarded_call@X@@QEAAX$$QEAV<lambda_410d79af7f07d98d83a3f525b3859a53>@@AEAV<lambda_3e16ef9562a7dcce91392c22ab16ea36>@@$$QEAV<lambda_38119f0e861e05405d8a144b9b982f0a>@@@Z 0000000180019d60 f   libucrt:wsetlocale.obj
 0001:00018e0c       ?initialize_inherited_file_handles_nolock@@YAXXZ 0000000180019e0c f   libucrt:ioinit.obj
 0001:00018efc       ?initialize_stdio_handles_nolock@@YAXXZ 0000000180019efc f   libucrt:ioinit.obj
 0001:00019178       ?<lambda_invoker_cdecl>@<lambda_a1ce4c8ae42411fd470c77163914f50e>@@CAHPEBX0@Z 000000018001a178 f   libucrt:argv_wildcards.obj
 0001:00019490       ??$common_expand_argv_wildcards@D@@YAHQEAPEADQEAPEAPEAD@Z 000000018001a490 f   libucrt:argv_wildcards.obj
 0001:0001969c       ??$copy_and_add_argument_to_buffer@D@@YAHQEBD0_KAEAV?$argument_list@D@?A0x5f5c8891@@@Z 000000018001a69c f   libucrt:argv_wildcards.obj
 0001:00019824       ??$expand_argument_wildcards@D@@YAHQEAD0AEAV?$argument_list@D@?A0x5f5c8891@@@Z 000000018001a824 f   libucrt:argv_wildcards.obj
 0001:00019d70       ??$?RV<lambda_efdfa57d1f175319df784efa44bb7b81>@@AEAV<lambda_5f0a4c1567f8adc6734073e5d1e1b35c>@@V<lambda_2e8a7d3640ea6ccb4c2413664c2db6fd>@@@?$__crt_seh_guarded_call@X@@QEAAX$$QEAV<lambda_efdfa57d1f175319df784efa44bb7b81>@@AEAV<lambda_5f0a4c1567f8adc6734073e5d1e1b35c>@@$$QEAV<lambda_2e8a7d3640ea6ccb4c2413664c2db6fd>@@@Z 000000018001ad70 f   libucrt:mbctype.obj
 0001:00019f2c       ?getSystemCP@@YAHH@Z       000000018001af2c f   libucrt:mbctype.obj
 0001:00019fac       ?setSBCS@@YAXPEAU__crt_multibyte_data@@@Z 000000018001afac f   libucrt:mbctype.obj
 0001:0001a03c       ?setSBUpLow@@YAXPEAU__crt_multibyte_data@@@Z 000000018001b03c f   libucrt:mbctype.obj
 0001:0001a220       ?setmbcp_internal@@YAHH_NQEAU__acrt_ptd@@QEAPEAU__crt_multibyte_data@@@Z 000000018001b220 f   libucrt:mbctype.obj
 0001:0001a3e0       ?update_thread_multibyte_data_internal@@YAPEAU__crt_multibyte_data@@QEAU__acrt_ptd@@QEAPEAU1@@Z 000000018001b3e0 f   libucrt:mbctype.obj
 0001:0001a7d0       ?x_ismbbtype_l@@YAHPEAU__crt_locale_pointers@@IHH@Z 000000018001b7d0 f   libucrt:ismbbyte.obj
 0001:0001ab78       ??$?RV<lambda_450d765d439847d4c735a33c368b5fc0>@@AEAV<lambda_44731a7d0e6d81c3e6aa82d741081786>@@V<lambda_601a2a7da3b7a96e9554ac7215c4b07c>@@@?$__crt_seh_guarded_call@P6AXH@Z@@QEAAP6AXH@Z$$QEAV<lambda_450d765d439847d4c735a33c368b5fc0>@@AEAV<lambda_44731a7d0e6d81c3e6aa82d741081786>@@$$QEAV<lambda_601a2a7da3b7a96e9554ac7215c4b07c>@@@Z 000000018001bb78 f   libucrt:signal.obj
 0001:0001aed4       ??$?RV<lambda_842d9ff0dc9ef11c61343bbaebe7f885>@@AEAV<lambda_c5860995281e5c4ce005b3de8f5874ee>@@V<lambda_d90129c13df834fdcbf8d2b88dafcf2d>@@@?$__crt_seh_guarded_call@X@@QEAAX$$QEAV<lambda_842d9ff0dc9ef11c61343bbaebe7f885>@@AEAV<lambda_c5860995281e5c4ce005b3de8f5874ee>@@$$QEAV<lambda_d90129c13df834fdcbf8d2b88dafcf2d>@@@Z 000000018001bed4 f   libucrt:fflush.obj
 0001:0001af70       ??$?RV<lambda_886d6c58226a84441f68b9f2b8217b83>@@AEAV<lambda_ab61a845afdef5b7c387490eaf3616ee>@@V<lambda_f7f22ab5edc0698d5f6905b0d3f44752>@@@?$__crt_seh_guarded_call@X@@QEAAX$$QEAV<lambda_886d6c58226a84441f68b9f2b8217b83>@@AEAV<lambda_ab61a845afdef5b7c387490eaf3616ee>@@$$QEAV<lambda_f7f22ab5edc0698d5f6905b0d3f44752>@@@Z 000000018001bf70 f   libucrt:fflush.obj
 0001:0001b050       ?common_flush_all@@YAH_N@Z 000000018001c050 f   libucrt:fflush.obj
 0001:0001d0a0       memcpy_s                   000000018001e0a0 f   libucrt:cfout.obj
 0001:0001d408       ?free_crt_array_internal@@YAXQEAPEBX_K@Z 000000018001e408 f   libucrt:inittime.obj
 0001:0001de94       fallbackMethod             000000018001ee94 f   libucrt:strpbrk.obj
 0001:0001e24c       $LN78                      000000018001f24c     libucrt:strpbrk.obj
 0001:0001e288       $LN77                      000000018001f288     libucrt:strpbrk.obj
 0001:0001e2c8       $LN76                      000000018001f2c8     libucrt:strpbrk.obj
 0001:0001e3a4       ?__acrt_LCMapStringA_stat@@YAHPEAU__crt_locale_pointers@@PEB_WKPEBDHPEADHHH@Z 000000018001f3a4 f   libucrt:lcmapstringa.obj
 0001:0001e754       ?initialize_multibyte@@YAHXZ 000000018001f754 f   libucrt:multibyte_initializer.obj
 0001:0001e76c       ??$?RV<lambda_a37b2b86f63e897a80ea819b0eb08c01>@@AEAV<lambda_38ce7e780aa69e748d6df282ebc68efe>@@V<lambda_99fb1378e971ab6e7edea83e3a7a83a2>@@@?$__crt_seh_guarded_call@H@@QEAAH$$QEAV<lambda_a37b2b86f63e897a80ea819b0eb08c01>@@AEAV<lambda_38ce7e780aa69e748d6df282ebc68efe>@@$$QEAV<lambda_99fb1378e971ab6e7edea83e3a7a83a2>@@@Z 000000018001f76c f   libucrt:commit.obj
 0001:0001e88c       ?write_double_translated_ansi_nolock@@YA?AUwrite_result@?A0x17268360@@HQEBDI@Z 000000018001f88c f   libucrt:write.obj
 0001:0001ed78       ?write_text_ansi_nolock@@YA?AUwrite_result@?A0x17268360@@HQEBDI@Z 000000018001fd78 f   libucrt:write.obj
 0001:0001ee7c       ?write_text_utf16le_nolock@@YA?AUwrite_result@?A0x17268360@@HQEBDI@Z 000000018001fe7c f   libucrt:write.obj
 0001:0001ef98       ?write_text_utf8_nolock@@YA?AUwrite_result@?A0x17268360@@HQEBDI@Z 000000018001ff98 f   libucrt:write.obj
 0001:0001f8f0       $$000000                   00000001800208f0     libucrt:log10.obj
 0001:000201bc       ??$common_lseek_nolock@_J@@YA_JH_JH@Z 00000001800211bc f   libucrt:lseek.obj
 0001:0002041c       common_control87           000000018002141c f   libucrt:ieee.obj
 0001:000206dc       _call_matherr              00000001800216dc f   libucrt:libm_error.obj
 0001:00020744       _exception_enabled         0000000180021744 f   libucrt:libm_error.obj
 0001:000209e0       _log_special_common        00000001800219e0 f   libucrt:log_special.obj
 0001:00020a78       ??$?RV<lambda_751a882b2c74d4b022dec766aa51a29a>@@AEAV<lambda_628dfdc04ba53c8bfc02c9951375f3f5>@@V<lambda_f6c7be5f7998530c34de24c7437d6b54>@@@?$__crt_seh_guarded_call@H@@QEAAH$$QEAV<lambda_751a882b2c74d4b022dec766aa51a29a>@@AEAV<lambda_628dfdc04ba53c8bfc02c9951375f3f5>@@$$QEAV<lambda_f6c7be5f7998530c34de24c7437d6b54>@@@Z 0000000180021a78 f   libucrt:close.obj
 0001:00020da0       $$000000                   0000000180021da0     libucrt:fpsr.obj
 0001:00021440       $$000000                   0000000180022440     LIBCMT:guard_dispatch.obj
 0001:00021460       $$000000                   0000000180022460     LIBCMT:guard_xfg_dispatch.obj
 0001:00021480       ?filt$0@?0??_AtlVerifyStackAvailable@_ATL_SAFE_ALLOCA_IMPL@ATL@@YA_N_K@Z@4HA 0000000180022480 f   SpeechSynthesis.obj
 0001:000214a1       __scrt_is_nonwritable_in_current_image$filt$0 00000001800224a1 f   LIBCMT:utility.obj
 0001:000214b9       ?catch$0@?0???2@YAPEAX_KAEBUnothrow_t@std@@@Z@4HA 00000001800224b9 f   LIBCMT:new_scalar_nothrow.obj
 0001:000214c6       __catch$??2@YAPEAX_KAEBUnothrow_t@std@@@Z$0 00000001800224c6 f   LIBCMT:new_scalar_nothrow.obj
 0001:000214d7       ?fin$0@?0??dllmain_crt_process_attach@@YAHQEAUHINSTANCE__@@QEAX@Z@4HA 00000001800224d7 f   LIBCMT:dll_dllmain.obj
 0001:000214ee       ?fin$0@?0??dllmain_crt_process_detach@@YAH_N@Z@4HA 00000001800224ee f   LIBCMT:dll_dllmain.obj
 0001:00021507       ?fin$1@?0??dllmain_crt_process_detach@@YAH_N@Z@4HA 0000000180022507 f   LIBCMT:dll_dllmain.obj
 0001:0002151b       ?filt$0@?0??dllmain_dispatch@@YAHQEAUHINSTANCE__@@KQEAX@Z@4HA 000000018002251b f   LIBCMT:dll_dllmain.obj
 0001:00021551       ?filt$0@?0???$_CallSETranslator@V__FrameHandler4@@@@YAHPEAUEHExceptionRecord@@PEA_KPEAU_CONTEXT@@PEAU_xDISPATCHER_CONTEXT@@PEAUFuncInfo4@FH4@@K1H@Z@4HA 0000000180022551 f   libvcruntime:risctrnsctrl.obj
 0001:000215f0       __DestructExceptionObject$filt$0 00000001800225f0 f   libvcruntime:ehhelpers.obj
 0001:00021686       ?filt$0@?0??CxxCallCatchBlock@__FrameHandler4@@SAPEAXPEAU_EXCEPTION_RECORD@@@Z@4HA 0000000180022686 f   libvcruntime:frame.obj
 0001:000216b5       ?fin$1@?0??CxxCallCatchBlock@__FrameHandler4@@SAPEAXPEAU_EXCEPTION_RECORD@@@Z@4HA 00000001800226b5 f   libvcruntime:frame.obj
 0001:00021738       ?filt$0@?0??FrameUnwindToState@__FrameHandler4@@SAXPEA_KPEAU_xDISPATCHER_CONTEXT@@PEAUFuncInfo4@FH4@@H@Z@4HA 0000000180022738 f   libvcruntime:frame.obj
 0001:0002174e       ?fin$1@?0??FrameUnwindToState@__FrameHandler4@@SAXPEA_KPEAU_xDISPATCHER_CONTEXT@@PEAUFuncInfo4@FH4@@H@Z@4HA 000000018002274e f   libvcruntime:frame.obj
 0001:00021771       ?fin$0@?0???$?RV<lambda_0ae27a3a962d80f24befdcbee591983d>@@AEAV<lambda_8d0ee55de4b1038c4002e0adecdf1839>@@V<lambda_dc504788e8f1664fe9b84e20bfb512f2>@@@?$__crt_seh_guarded_call@X@@QEAAX$$QEAV<lambda_0ae27a3a962d80f24befdcbee591983d>@@AEAV<lambda_8d0ee55de4b1038c4002e0adecdf1839>@@$$QEAV<lambda_dc504788e8f1664fe9b84e20bfb512f2>@@@Z@4HA 0000000180022771 f   libucrt:per_thread_data.obj
 0001:00021771       ?fin$0@?0???$?RV<lambda_2d41944a1d46af3157314b8a01080d33>@@AEAV<lambda_8f455de75cd7d7f24b4096f044d8b9e6>@@V<lambda_aa500f224e6afead328df44964fe2772>@@@?$__crt_seh_guarded_call@X@@QEAAX$$QEAV<lambda_2d41944a1d46af3157314b8a01080d33>@@AEAV<lambda_8f455de75cd7d7f24b4096f044d8b9e6>@@$$QEAV<lambda_aa500f224e6afead328df44964fe2772>@@@Z@4HA 0000000180022771 f   libucrt:per_thread_data.obj
 0001:00021771       ?fin$0@?0???$?RV<lambda_aa87e3671a710a21b5dc78c0bdf72e11>@@AEAV<lambda_92619d2358a28f41a33ba319515a20b9>@@V<lambda_6992ecaafeb10aed2b74cb1fae11a551>@@@?$__crt_seh_guarded_call@X@@QEAAX$$QEAV<lambda_aa87e3671a710a21b5dc78c0bdf72e11>@@AEAV<lambda_92619d2358a28f41a33ba319515a20b9>@@$$QEAV<lambda_6992ecaafeb10aed2b74cb1fae11a551>@@@Z@4HA 0000000180022771 f   libucrt:per_thread_data.obj
 0001:00021771       ?fin$0@?0???$?RV<lambda_f2e299630e499de9f9a165e60fcd3db5>@@AEAV<lambda_2ae9d31cdba2644fcbeaf08da7c24588>@@V<lambda_40d01ff24d0e7b3814fdbdcee8eab3c7>@@@?$__crt_seh_guarded_call@X@@QEAAX$$QEAV<lambda_f2e299630e499de9f9a165e60fcd3db5>@@AEAV<lambda_2ae9d31cdba2644fcbeaf08da7c24588>@@$$QEAV<lambda_40d01ff24d0e7b3814fdbdcee8eab3c7>@@@Z@4HA 0000000180022771 f   libucrt:per_thread_data.obj
 0001:00021771       ?fin$0@?0???$?RV<lambda_efdfa57d1f175319df784efa44bb7b81>@@AEAV<lambda_5f0a4c1567f8adc6734073e5d1e1b35c>@@V<lambda_2e8a7d3640ea6ccb4c2413664c2db6fd>@@@?$__crt_seh_guarded_call@X@@QEAAX$$QEAV<lambda_efdfa57d1f175319df784efa44bb7b81>@@AEAV<lambda_5f0a4c1567f8adc6734073e5d1e1b35c>@@$$QEAV<lambda_2e8a7d3640ea6ccb4c2413664c2db6fd>@@@Z@4HA 0000000180022771 f   libucrt:mbctype.obj
 0001:00021771       ?fin$0@?0???$?RV<lambda_450d765d439847d4c735a33c368b5fc0>@@AEAV<lambda_44731a7d0e6d81c3e6aa82d741081786>@@V<lambda_601a2a7da3b7a96e9554ac7215c4b07c>@@@?$__crt_seh_guarded_call@P6AXH@Z@@QEAAP6AXH@Z$$QEAV<lambda_450d765d439847d4c735a33c368b5fc0>@@AEAV<lambda_44731a7d0e6d81c3e6aa82d741081786>@@$$QEAV<lambda_601a2a7da3b7a96e9554ac7215c4b07c>@@@Z@4HA 0000000180022771 f   libucrt:signal.obj
 0001:00021771       ?fin$0@?0???$?RV<lambda_d80eeec6fff315bfe5c115232f3240e3>@@AEAV<lambda_6e4b09c48022b2350581041d5f6b0c4c>@@V<lambda_2358e3775559c9db80273638284d5e45>@@@?$__crt_seh_guarded_call@X@@QEAAX$$QEAV<lambda_d80eeec6fff315bfe5c115232f3240e3>@@AEAV<lambda_6e4b09c48022b2350581041d5f6b0c4c>@@$$QEAV<lambda_2358e3775559c9db80273638284d5e45>@@@Z@4HA 0000000180022771 f   libucrt:exit.obj
 0001:00021771       ?fin$0@?0???$?RV<lambda_638799b9deba96c50f710eeac98168cd>@@AEAV<lambda_22ebabd17bc4fa466a2aca6d8deb888d>@@V<lambda_a6f7d7db0129f75315ebf26d50c089f1>@@@?$__crt_seh_guarded_call@H@@QEAAH$$QEAV<lambda_638799b9deba96c50f710eeac98168cd>@@AEAV<lambda_22ebabd17bc4fa466a2aca6d8deb888d>@@$$QEAV<lambda_a6f7d7db0129f75315ebf26d50c089f1>@@@Z@4HA 0000000180022771 f   libucrt:onexit.obj
 0001:00021771       ?fin$0@?0???$?RV<lambda_7777bce6b2f8c936911f934f8298dc43>@@AEAV<lambda_f03950bc5685219e0bcd2087efbe011e>@@V<lambda_3883c3dff614d5e0c5f61bb1ac94921c>@@@?$__crt_seh_guarded_call@H@@QEAAH$$QEAV<lambda_7777bce6b2f8c936911f934f8298dc43>@@AEAV<lambda_f03950bc5685219e0bcd2087efbe011e>@@$$QEAV<lambda_3883c3dff614d5e0c5f61bb1ac94921c>@@@Z@4HA 0000000180022771 f   libucrt:onexit.obj
 0001:0002178b       ?filt$0@?0???R<lambda_6e4b09c48022b2350581041d5f6b0c4c>@@QEBA@XZ@4HA 000000018002278b f   libucrt:exit.obj
 0001:000217a6       _query_new_handler$fin$0   00000001800227a6 f   libucrt:new_handler.obj
 0001:000217bc       ?fin$0@?0???$?RV<lambda_410d79af7f07d98d83a3f525b3859a53>@@AEAV<lambda_3e16ef9562a7dcce91392c22ab16ea36>@@V<lambda_38119f0e861e05405d8a144b9b982f0a>@@@?$__crt_seh_guarded_call@X@@QEAAX$$QEAV<lambda_410d79af7f07d98d83a3f525b3859a53>@@AEAV<lambda_3e16ef9562a7dcce91392c22ab16ea36>@@$$QEAV<lambda_38119f0e861e05405d8a144b9b982f0a>@@@Z@4HA 00000001800227bc f   libucrt:wsetlocale.obj
 0001:000217d6       __acrt_initialize_lowio$fin$0 00000001800227d6 f   libucrt:ioinit.obj
 0001:000217d6       __acrt_lowio_ensure_fh_exists$fin$0 00000001800227d6 f   libucrt:osfinfo.obj
 0001:000217ef       ?fin$0@?0??update_thread_multibyte_data_internal@@YAPEAU__crt_multibyte_data@@QEAU__acrt_ptd@@QEAPEAU1@@Z@4HA 00000001800227ef f   libucrt:mbctype.obj
 0001:00021808       raise$fin$0                0000000180022808 f   libucrt:signal.obj
 0001:00021829       ?fin$0@?0???$?RV<lambda_842d9ff0dc9ef11c61343bbaebe7f885>@@AEAV<lambda_c5860995281e5c4ce005b3de8f5874ee>@@V<lambda_d90129c13df834fdcbf8d2b88dafcf2d>@@@?$__crt_seh_guarded_call@X@@QEAAX$$QEAV<lambda_842d9ff0dc9ef11c61343bbaebe7f885>@@AEAV<lambda_c5860995281e5c4ce005b3de8f5874ee>@@$$QEAV<lambda_d90129c13df834fdcbf8d2b88dafcf2d>@@@Z@4HA 0000000180022829 f   libucrt:fflush.obj
 0001:00021844       ?fin$0@?0???$?RV<lambda_886d6c58226a84441f68b9f2b8217b83>@@AEAV<lambda_ab61a845afdef5b7c387490eaf3616ee>@@V<lambda_f7f22ab5edc0698d5f6905b0d3f44752>@@@?$__crt_seh_guarded_call@X@@QEAAX$$QEAV<lambda_886d6c58226a84441f68b9f2b8217b83>@@AEAV<lambda_ab61a845afdef5b7c387490eaf3616ee>@@$$QEAV<lambda_f7f22ab5edc0698d5f6905b0d3f44752>@@@Z@4HA 0000000180022844 f   libucrt:fflush.obj
 0001:00021861       __acrt_update_thread_locale_data$fin$0 0000000180022861 f   libucrt:locale_refcounting.obj
 0001:0002187a       _fcloseall$fin$0           000000018002287a f   libucrt:closeall.obj
 0001:00021893       ?fin$0@?0???$?RV<lambda_751a882b2c74d4b022dec766aa51a29a>@@AEAV<lambda_628dfdc04ba53c8bfc02c9951375f3f5>@@V<lambda_f6c7be5f7998530c34de24c7437d6b54>@@@?$__crt_seh_guarded_call@H@@QEAAH$$QEAV<lambda_751a882b2c74d4b022dec766aa51a29a>@@AEAV<lambda_628dfdc04ba53c8bfc02c9951375f3f5>@@$$QEAV<lambda_f6c7be5f7998530c34de24c7437d6b54>@@@Z@4HA 0000000180022893 f   libucrt:close.obj
 0001:00021893       ?fin$0@?0???$?RV<lambda_a37b2b86f63e897a80ea819b0eb08c01>@@AEAV<lambda_38ce7e780aa69e748d6df282ebc68efe>@@V<lambda_99fb1378e971ab6e7edea83e3a7a83a2>@@@?$__crt_seh_guarded_call@H@@QEAAH$$QEAV<lambda_a37b2b86f63e897a80ea819b0eb08c01>@@AEAV<lambda_38ce7e780aa69e748d6df282ebc68efe>@@$$QEAV<lambda_99fb1378e971ab6e7edea83e3a7a83a2>@@@Z@4HA 0000000180022893 f   libucrt:commit.obj
 0001:000218ad       _write$fin$0               00000001800228ad f   libucrt:write.obj
 0001:000218c4       fclose$fin$0               00000001800228c4 f   libucrt:fclose.obj
 0001:000218dc       _ctrlfp$filt$0             00000001800228dc f   libucrt:fpctrl.obj
 0001:000218dc       common_control87$filt$0    00000001800228dc f   libucrt:ieee.obj
 0001:00021910       _IsNonwritableInCurrentImage$filt$0 0000000180022910 f   LIBCMT:pesect.obj
 0001:00021930       ??__F_AtlComModule@ATL@@YAXXZ 0000000180022930 f   OposVariant.obj
 0001:0002193c       ??__F_AtlWinModule@ATL@@YAXXZ 000000018002293c f   OposVariant.obj
 0001:00021980       ??__F_Module@@YAXXZ        0000000180022980 f   SpeechSynthesis.obj
 0001:0002199c       ??__F_AtlBaseModule@ATL@@YAXXZ 000000018002299c f   atls:atlbase.obj
 0002:00000648       ?_AtlBaseModule$initializer$@ATL@@3P6AXXZEA 0000000180023648     atls:atlbase.obj
 0002:00000650       ?_AtlComModule$initializer$@ATL@@3P6AXXZEA 0000000180023650     OposVariant.obj
 0002:00000658       ?_AtlWinModule$initializer$@ATL@@3P6AXXZEA 0000000180023658     OposVariant.obj
 0002:00000660       ?_Module$initializer$@@3P6AXXZEA 0000000180023660     SpeechSynthesis.obj
 0002:00000668       ??pConnMap$initializer$@?$IConnectionPointContainerImpl@VCOPOSSpeechSynthesis@@@ATL@@0P6AXXZEA@@3P6AXXZEA 0000000180023668     SpeechSynthesis.obj
 0002:00000680       ?__scrt_initialize_tss_var@@3P6AHXZEA 0000000180023680     LIBCMT:thread_safe_statics.obj
 0002:000026d8       GS_ExceptionPointers       00000001800256d8     LIBCMT:gs_report.obj
 0002:000028c0       ?ExceptionTemplate@?1??UnwindNestedFrames@__FrameHandler4@@SAXPEA_KPEAUEHExceptionRecord@@PEAU_CONTEXT@@0PEAXPEAUFuncInfo4@FH4@@HHPEAUHandlerType4@6@PEAU_xDISPATCHER_CONTEXT@@E@Z@4U_EXCEPTION_RECORD@@B 00000001800258c0     libvcruntime:risctrnsctrl.obj
 0002:00002990       ?tokenTable@@3QBUStringLiteral@@B 0000000180025990     libvcruntime:undname.obj
 0002:00002a90       ?nameTable@@3QBUStringLiteral@@B 0000000180025a90     libvcruntime:undname.obj
 0002:00002fc0       ?rttiTable@@3QBUStringLiteral@@B 0000000180025fc0     libvcruntime:undname.obj
 0002:00003010       ?IndirectionName@@3QBUStringLiteral@@B 0000000180026010     libvcruntime:undname.obj
 0002:00003070       ?PrefixName@@3QBUStringLiteral@@B 0000000180026070     libvcruntime:undname.obj
 0002:00003748       ?module_names@?A0x84e3c32f@@3QBQEB_WB 0000000180026748     libvcruntime:winapi_downlevel.obj
 0002:00003808       ?candidate_modules@?1??try_get_FlsAlloc@@YAP6AKP6AXPEAX@Z@ZXZ@4QBW4module_id@?A0x84e3c32f@@B 0000000180026808     libvcruntime:winapi_downlevel.obj
 0002:00003820       ?candidate_modules@?1??try_get_FlsFree@@YAP6AHK@ZXZ@4QBW4module_id@?A0x84e3c32f@@B 0000000180026820     libvcruntime:winapi_downlevel.obj
 0002:00003830       ?candidate_modules@?1??try_get_FlsGetValue@@YAP6APEAXK@ZXZ@4QBW4module_id@?A0x84e3c32f@@B 0000000180026830     libvcruntime:winapi_downlevel.obj
 0002:00003848       ?candidate_modules@?1??try_get_FlsSetValue@@YAP6AHKPEAX@ZXZ@4QBW4module_id@?A0x84e3c32f@@B 0000000180026848     libvcruntime:winapi_downlevel.obj
 0002:00003860       ?candidate_modules@?1??try_get_InitializeCriticalSectionEx@@YAP6AHPEAU_RTL_CRITICAL_SECTION@@KK@ZXZ@4QBW4module_id@?A0x84e3c32f@@B 0000000180026860     libvcruntime:winapi_downlevel.obj
 0002:00003890       ?errtable@@3QBUerrentry@?A0x31fdb9ec@@B 0000000180026890     libucrt:errno.obj
 0002:00003f20       __acrt_initializers        0000000180026f20     libucrt:initialization.obj
 0002:00004020       ?module_names@?A0x391cf84c@@3QBQEB_WB 0000000180027020     libucrt:winapi_thunks.obj
 0002:00004528       ?candidate_modules@?1??try_get_AreFileApisANSI@@YAP6AHXZXZ@4QBW4module_id@?A0x391cf84c@@B 0000000180027528     libucrt:winapi_thunks.obj
 0002:00004540       ?candidate_modules@?1??try_get_FlsAlloc@@YAP6AKP6AXPEAX@Z@ZXZ@4QBW4module_id@?A0x391cf84c@@B 0000000180027540     libucrt:winapi_thunks.obj
 0002:00004548       ?candidate_modules@?1??try_get_FlsFree@@YAP6AHK@ZXZ@4QBW4module_id@?A0x391cf84c@@B 0000000180027548     libucrt:winapi_thunks.obj
 0002:00004550       ?candidate_modules@?1??try_get_FlsGetValue@@YAP6APEAXK@ZXZ@4QBW4module_id@?A0x391cf84c@@B 0000000180027550     libucrt:winapi_thunks.obj
 0002:00004558       ?candidate_modules@?1??try_get_FlsSetValue@@YAP6AHKPEAX@ZXZ@4QBW4module_id@?A0x391cf84c@@B 0000000180027558     libucrt:winapi_thunks.obj
 0002:00004560       ?candidate_modules@?1??try_get_InitializeCriticalSectionEx@@YAP6AHPEAU_RTL_CRITICAL_SECTION@@KK@ZXZ@4QBW4module_id@?A0x391cf84c@@B 0000000180027560     libucrt:winapi_thunks.obj
 0002:00004568       ?candidate_modules@?1??try_get_LCMapStringEx@@YAP6AHPEB_WK0HPEA_WHPEAU_nlsversioninfo@@PEAX_J@ZXZ@4QBW4module_id@?A0x391cf84c@@B 0000000180027568     libucrt:winapi_thunks.obj
 0002:00004580       ?candidate_modules@?1??try_get_LocaleNameToLCID@@YAP6AKPEB_WK@ZXZ@4QBW4module_id@?A0x391cf84c@@B 0000000180027580     libucrt:winapi_thunks.obj
 0002:0000459c       ?candidate_modules@?1??try_get_AppPolicyGetProcessTerminationMethod@@YAP6AJPEAXPEAW4AppPolicyProcessTerminationMethod@@@ZXZ@4QBW4module_id@?A0x391cf84c@@B 000000018002759c     libucrt:winapi_thunks.obj
 0002:000045c8       ?candidate_modules@?1??try_get_SetThreadStackGuarantee@@YAP6AHPEAK@ZXZ@4QBW4module_id@?A0x391cf84c@@B 00000001800275c8     libucrt:winapi_thunks.obj
 0002:000045f0       ?strings@?1??fp_format_nan_or_infinity@@YAHW4__acrt_fp_class@@_NPEAD_K1@Z@4QAY03QEBDA 00000001800275f0     libucrt:cvt.obj
 0002:00004d50       ?_mb_locale_names@@3QBQEB_WB 0000000180027d50     libucrt:mbctype.obj
 0002:000055c0       ?LcidToLocaleNameTable@?A0x881e4c05@@3QBULcidToLocaleName@1@B 00000001800285c0     libucrt:lcidtoname_downlevel.obj
 0002:00007020       ?LocaleNameToIndexTable@?A0x881e4c05@@3QBULocaleNameIndex@1@B 000000018002a020     libucrt:lcidtoname_downlevel.obj
 0002:000092c0       __real_ninf                000000018002c2c0     libucrt:log10.obj
 0002:000092d0       __real_inf                 000000018002c2d0     libucrt:log10.obj
 0002:000092e0       __real_neg_qnan            000000018002c2e0     libucrt:log10.obj
 0002:000092f0       __real_qnanbit             000000018002c2f0     libucrt:log10.obj
 0002:00009300       __int_1023                 000000018002c300     libucrt:log10.obj
 0002:00009310       __mask_001                 000000018002c310     libucrt:log10.obj
 0002:00009320       __mask_mant                000000018002c320     libucrt:log10.obj
 0002:00009330       __mask_mant_top8           000000018002c330     libucrt:log10.obj
 0002:00009340       __mask_mant9               000000018002c340     libucrt:log10.obj
 0002:00009350       __real_log10_e             000000018002c350     libucrt:log10.obj
 0002:00009360       __real_log10_e_lead        000000018002c360     libucrt:log10.obj
 0002:00009370       __real_log10_e_tail        000000018002c370     libucrt:log10.obj
 0002:00009380       __real_log10_2_lead        000000018002c380     libucrt:log10.obj
 0002:00009390       __real_log10_2_tail        000000018002c390     libucrt:log10.obj
 0002:000093a0       __real_two                 000000018002c3a0     libucrt:log10.obj
 0002:000093b0       __real_one                 000000018002c3b0     libucrt:log10.obj
 0002:000093c0       __real_half                000000018002c3c0     libucrt:log10.obj
 0002:000093d0       __mask_100                 000000018002c3d0     libucrt:log10.obj
 0002:000093e0       __real_1_over_512          000000018002c3e0     libucrt:log10.obj
 0002:000093f0       __real_1_over_2            000000018002c3f0     libucrt:log10.obj
 0002:00009400       __real_1_over_3            000000018002c400     libucrt:log10.obj
 0002:00009410       __real_1_over_4            000000018002c410     libucrt:log10.obj
 0002:00009420       __real_1_over_5            000000018002c420     libucrt:log10.obj
 0002:00009430       __real_1_over_6            000000018002c430     libucrt:log10.obj
 0002:00009440       __real_neg_1023            000000018002c440     libucrt:log10.obj
 0002:00009450       __mask_2045                000000018002c450     libucrt:log10.obj
 0002:00009460       __real_threshold           000000018002c460     libucrt:log10.obj
 0002:00009470       __real_near_one_lt         000000018002c470     libucrt:log10.obj
 0002:00009480       __real_near_one_gt         000000018002c480     libucrt:log10.obj
 0002:00009490       __real_min_norm            000000018002c490     libucrt:log10.obj
 0002:000094a0       __real_notsign             000000018002c4a0     libucrt:log10.obj
 0002:000094b0       __real_ca1                 000000018002c4b0     libucrt:log10.obj
 0002:000094c0       __real_ca2                 000000018002c4c0     libucrt:log10.obj
 0002:000094d0       __real_ca3                 000000018002c4d0     libucrt:log10.obj
 0002:000094e0       __real_ca4                 000000018002c4e0     libucrt:log10.obj
 0002:000094f0       __mask_lower               000000018002c4f0     libucrt:log10.obj
 0002:00009500       __flag_x_zero              000000018002c500     libucrt:log10.obj
 0002:00009504       __flag_x_neg               000000018002c504     libucrt:log10.obj
 0002:00009508       __flag_x_nan               000000018002c508     libucrt:log10.obj
 0002:0000ad60       __real@433fffffffffffff    000000018002dd60     libucrt:fpsr.obj
 0002:0000ad68       __real@c33fffffffffffff    000000018002dd68     libucrt:fpsr.obj
 0002:0000b658       $unwind$?cw_memcpy@@YAHPEA_WPEBDH@Z 000000018002e658     CWString.obj
 0002:0000b658       $unwind$?ProcessWindowMessage@?$CComControl@VCOPOSSpeechSynthesis@@V?$CWindowImpl@VCOPOSSpeechSynthesis@@VCWindow@ATL@@V?$CWinTraits@$0FGAAAAAA@$0A@@3@@ATL@@@ATL@@UEAAHPEAUHWND__@@I_K_JAEA_JK@Z 000000018002e658     SpeechSynthesis.obj
 0002:0000b658       $unwind$wcstol             000000018002e658     libucrt:strtox.obj
 0002:0000b658       $unwind$_invalid_parameter_noinfo 000000018002e658     libucrt:invalid_parameter.obj
 0002:0000b658       $unwind$_log10_special     000000018002e658     libucrt:log_special.obj
 0002:0000b660       $unwind$?cw_strcpy@@YAHPEA_WPEBD@Z 000000018002e660     CWString.obj
 0002:0000b660       $unwind$??1OposDispParms@@QEAA@XZ 000000018002e660     OposVariant.obj
 0002:0000b660       $unwind$??__E_AtlComModule@ATL@@YAXXZ 000000018002e660     OposVariant.obj
 0002:0000b660       $unwind$??__E_AtlWinModule@ATL@@YAXXZ 000000018002e660     OposVariant.obj
 0002:0000b660       $unwind$??__F_AtlWinModule@ATL@@YAXXZ 000000018002e660     OposVariant.obj
 0002:0000b660       $unwind$?GetLONG@OposVariant@@QEAAJXZ 000000018002e660     OposVariant.obj
 0002:0000b660       $unwind$??__E?pConnMap@?$IConnectionPointContainerImpl@VCOPOSSpeechSynthesis@@@ATL@@0PEBU_ATL_CONNMAP_ENTRY@2@EB@@YAXXZ 000000018002e660     SpeechSynthesis.obj
 0002:0000b660       $unwind$?AddReplacement@CRegObject@ATL@@UEAAJPEB_W0@Z 000000018002e660     SpeechSynthesis.obj
 0002:0000b660       $unwind$?AtlHresultFromLastError@ATL@@YAJXZ 000000018002e660     SpeechSynthesis.obj
 0002:0000b660       $unwind$?AtlThrowImpl@ATL@@YAXJ@Z 000000018002e660     SpeechSynthesis.obj
 0002:0000b660       $unwind$?CreateInstance@CComClassFactory@ATL@@UEAAJPEAUIUnknown@@AEBU_GUID@@PEAPEAX@Z 000000018002e660     SpeechSynthesis.obj
 0002:0000b660       $unwind$?DefaultReflectionHandler@?$CWindowImplRoot@VCWindow@ATL@@@ATL@@SAHPEAUHWND__@@I_K_JAEA_J@Z 000000018002e660     SpeechSynthesis.obj
 0002:0000b660       $unwind$?EnumAdvise@?$IOleObjectImpl@VCOPOSSpeechSynthesis@@@ATL@@UEAAJPEAPEAUIEnumSTATDATA@@@Z 000000018002e660     SpeechSynthesis.obj
 0002:0000b660       $unwind$?FireViewChange@CComControlBase@ATL@@QEAAJXZ 000000018002e660     SpeechSynthesis.obj
 0002:0000b660       $unwind$?GetAdvise@?$IViewObjectExImpl@VCOPOSSpeechSynthesis@@@ATL@@UEAAJPEAK0PEAPEAUIAdviseSink@@@Z 000000018002e660     SpeechSynthesis.obj
 0002:0000b660       $unwind$?LockServer@CComClassFactory@ATL@@UEAAJH@Z 000000018002e660     SpeechSynthesis.obj
 0002:0000b660       $unwind$?OnDocWindowActivate@?$IOleInPlaceActiveObjectImpl@VCOPOSSpeechSynthesis@@@ATL@@UEAAJH@Z 000000018002e660     SpeechSynthesis.obj
 0002:0000b660       $unwind$?Unadvise@?$IOleObjectImpl@VCOPOSSpeechSynthesis@@@ATL@@UEAAJK@Z 000000018002e660     SpeechSynthesis.obj
 0002:0000b660       $unwind$?_LocCPQueryInterface@?$IConnectionPointImpl@VCOPOSSpeechSynthesis@@$1?DIID__IOPOSSpeechSynthesisEvents@@3U_GUID@@BVCComDynamicUnkArray@ATL@@@ATL@@UEAAJAEBU_GUID@@PEAPEAX@Z 000000018002e660     SpeechSynthesis.obj
 0002:0000b660       $unwind$?_LocCPQueryInterface@?$IConnectionPointImpl@VCOPOSSpeechSynthesis@@$1?IID_IPropertyNotifySink@@3U_GUID@@BVCComDynamicUnkArray@ATL@@@ATL@@UEAAJAEBU_GUID@@PEAPEAX@Z 000000018002e660     SpeechSynthesis.obj
 0002:0000b660       $unwind$?FinalConstruct@COPOSSpeechSynthesis@@QEAAJXZ 000000018002e660     SpeechSynthesisImpl.obj
 0002:0000b660       $unwind$?get_ResultCode@COPOSSpeechSynthesis@@UEAAJPEAJ@Z 000000018002e660     SpeechSynthesisImpl.obj
 0002:0000b660       $unwind$?get_State@COPOSSpeechSynthesis@@UEAAJPEAJ@Z 000000018002e660     SpeechSynthesisImpl.obj
 0002:0000b660       $unwind$??__E_AtlBaseModule@ATL@@YAXXZ 000000018002e660     atls:atlbase.obj
 0002:0000b660       $unwind$__scrt_initialize_default_local_stdio_options 000000018002e660     LIBCMT:default_local_stdio_options.obj
 0002:0000b660       $unwind$?dllmain_crt_dispatch@@YAHQEAUHINSTANCE__@@KQEAX@Z 000000018002e660     LIBCMT:dll_dllmain.obj
 0002:0000b660       $unwind$__report_rangecheckfailure 000000018002e660     LIBCMT:gs_report.obj
 0002:0000b660       $unwind$__GSHandlerCheck   000000018002e660     LIBCMT:gshandler.obj
 0002:0000b660       $unwind$?__scrt_uninitialize_thread_safe_statics@@YAXXZ 000000018002e660     LIBCMT:thread_safe_statics.obj
 0002:0000b660       $unwind$_Init_thread_notify 000000018002e660     LIBCMT:thread_safe_statics.obj
 0002:0000b660       $unwind$__scrt_acquire_startup_lock 000000018002e660     LIBCMT:utility.obj
 0002:0000b660       $unwind$__scrt_dllmain_after_initialize_c 000000018002e660     LIBCMT:utility.obj
 0002:0000b660       $unwind$__scrt_dllmain_before_initialize_c 000000018002e660     LIBCMT:utility.obj
 0002:0000b660       $unwind$__scrt_dllmain_crt_thread_attach 000000018002e660     LIBCMT:utility.obj
 0002:0000b660       $unwind$__scrt_dllmain_crt_thread_detach 000000018002e660     LIBCMT:utility.obj
 0002:0000b660       $unwind$__scrt_dllmain_uninitialize_c 000000018002e660     LIBCMT:utility.obj
 0002:0000b660       $unwind$__scrt_dllmain_uninitialize_critical 000000018002e660     LIBCMT:utility.obj
 0002:0000b660       $unwind$atexit             000000018002e660     LIBCMT:utility.obj
 0002:0000b660       $unwind$__vcrt_initialize  000000018002e660     libvcruntime:initialization.obj
 0002:0000b660       $unwind$__vcrt_thread_attach 000000018002e660     libvcruntime:initialization.obj
 0002:0000b660       $unwind$__vcrt_thread_detach 000000018002e660     libvcruntime:initialization.obj
 0002:0000b660       $unwind$__vcrt_uninitialize 000000018002e660     libvcruntime:initialization.obj
 0002:0000b660       $unwind$__vcrt_uninitialize_critical 000000018002e660     libvcruntime:initialization.obj
 0002:0000b660       $unwind$__vcrt_initialize_locks 000000018002e660     libvcruntime:locks.obj
 0002:0000b660       $unwind$__vcrt_freefls     000000018002e660     libvcruntime:per_thread_data.obj
 0002:0000b660       $unwind$__vcrt_getptd      000000018002e660     libvcruntime:per_thread_data.obj
 0002:0000b660       $unwind$__vcrt_initialize_ptd 000000018002e660     libvcruntime:per_thread_data.obj
 0002:0000b660       $unwind$__vcrt_uninitialize_ptd 000000018002e660     libvcruntime:per_thread_data.obj
 0002:0000b660       $unwind$_purecall          000000018002e660     libvcruntime:purevirt.obj
 0002:0000b660       $unwind$?FrameUnwindToEmptyState@__FrameHandler4@@SAXPEA_KPEAU_xDISPATCHER_CONTEXT@@PEAUFuncInfo4@FH4@@@Z 000000018002e660     libvcruntime:risctrnsctrl.obj
 0002:0000b660       $unwind$_GetImageBase      000000018002e660     libvcruntime:risctrnsctrl.obj
 0002:0000b660       $unwind$_GetThrowImageBase 000000018002e660     libvcruntime:risctrnsctrl.obj
 0002:0000b660       $unwind$__dcrt_terminate_console_output 000000018002e660     libucrt:initcon.obj
 0002:0000b660       $unwind$??$uninitialize_environment_internal@D@@YAXAEAPEAPEAD@Z 000000018002e660     libucrt:environment_initialization.obj
 0002:0000b660       $unwind$??$uninitialize_environment_internal@_W@@YAXAEAPEAPEA_W@Z 000000018002e660     libucrt:environment_initialization.obj
 0002:0000b660       $unwind$__dcrt_uninitialize_environments_nolock 000000018002e660     libucrt:environment_initialization.obj
 0002:0000b660       $unwind$__acrt_initialize_heap 000000018002e660     libucrt:heap_handle.obj
 0002:0000b660       $unwind$_msize_base        000000018002e660     libucrt:msize.obj
 0002:0000b660       $unwind$?initialize_multibyte@@YAHXZ 000000018002e660     libucrt:multibyte_initializer.obj
 0002:0000b660       $unwind$__acrt_thread_attach 000000018002e660     libucrt:initialization.obj
 0002:0000b660       $unwind$__acrt_thread_detach 000000018002e660     libucrt:initialization.obj
 0002:0000b660       $unwind$__acrt_uninitialize 000000018002e660     libucrt:initialization.obj
 0002:0000b660       $unwind$__acrt_uninitialize_critical 000000018002e660     libucrt:initialization.obj
 0002:0000b660       $unwind$initialize_c       000000018002e660     libucrt:initialization.obj
 0002:0000b660       $unwind$uninitialize_allocated_io_buffers 000000018002e660     libucrt:initialization.obj
 0002:0000b660       $unwind$uninitialize_environment 000000018002e660     libucrt:initialization.obj
 0002:0000b660       $unwind$__acrt_initialize_ptd 000000018002e660     libucrt:per_thread_data.obj
 0002:0000b660       $unwind$__acrt_uninitialize_ptd 000000018002e660     libucrt:per_thread_data.obj
 0002:0000b660       $unwind$__acrt_AreFileApisANSI 000000018002e660     libucrt:winapi_thunks.obj
 0002:0000b660       $unwind$__pctype_func      000000018002e660     libucrt:ctype.obj
 0002:0000b660       $unwind$__acrt_release_locale_ref 000000018002e660     libucrt:locale_refcounting.obj
 0002:0000b660       $unwind$_isatty            000000018002e660     libucrt:isatty.obj
 0002:0000b660       $unwind$_get_osfhandle     000000018002e660     libucrt:osfinfo.obj
 0002:0000b660       $unwind$__acrt_initialize_multibyte 000000018002e660     libucrt:mbctype.obj
 0002:0000b660       $unwind$__acrt_update_thread_multibyte_data 000000018002e660     libucrt:mbctype.obj
 0002:0000b660       $unwind$__doserrno         000000018002e660     libucrt:errno.obj
 0002:0000b660       $unwind$_errno             000000018002e660     libucrt:errno.obj
 0002:0000b660       $unwind$_invoke_watson     000000018002e660     libucrt:invalid_parameter.obj
 0002:0000b660       $unwind$abort              000000018002e660     libucrt:abort.obj
 0002:0000b660       $unwind$__acrt_initialize_command_line 000000018002e660     libucrt:argv_data.obj
 0002:0000b660       $unwind$_fileno            000000018002e660     libucrt:fileno.obj
 0002:0000b660       $unwind$?state_case_size@?$output_processor@_WV?$string_output_adapter@_W@__crt_stdio_output@@V?$format_validation_base@_WV?$string_output_adapter@_W@__crt_stdio_output@@@2@@__crt_stdio_output@@AEAA_NXZ 000000018002e660     libucrt:output.obj
 0002:0000b660       $unwind$_statfp            000000018002e660     libucrt:fpctrl.obj
 0002:0000b660       $unwind$fegetround         000000018002e660     libucrt:fegetround.obj
 0002:0000b660       $unwind$_set_errno_from_matherr 000000018002e660     libucrt:fpexcept.obj
 0002:0000b668       $unwind$?cw_dup@@YAXPEBDAEAHAEAPEA_W1@Z 000000018002e668     CWString.obj
 0002:0000b668       $unwind$?DAdvise@?$IDataObjectImpl@VCOPOSSpeechSynthesis@@@ATL@@UEAAJPEAUtagFORMATETC@@KPEAUIAdviseSink@@PEAK@Z 000000018002e668     SpeechSynthesis.obj
 0002:0000b668       $unwind$??$__acrt_mbs_to_wcs_cp@U__crt_win32_buffer_internal_dynamic_resizing@@@@YAHQEBDAEAV?$__crt_win32_buffer@_WU__crt_win32_buffer_internal_dynamic_resizing@@@@I@Z 000000018002e668     libucrt:argv_wildcards.obj
 0002:0000b680       $unwind$?DupWide@_CW@@AEAAXXZ 000000018002e680     CWString.obj
 0002:0000b680       $unwind$??0CAtlComModule@ATL@@QEAA@XZ 000000018002e680     OposVariant.obj
 0002:0000b680       $unwind$??0CAtlWinModule@ATL@@QEAA@XZ 000000018002e680     OposVariant.obj
 0002:0000b680       $unwind$??0?$CComObject@VCOPOSSpeechSynthesis@@@ATL@@QEAA@PEAX@Z 000000018002e680     SpeechSynthesis.obj
 0002:0000b680       $unwind$??0CAtlModule@ATL@@QEAA@XZ 000000018002e680     SpeechSynthesis.obj
 0002:0000b680       $unwind$??1?$CComObject@VCOPOSSpeechSynthesis@@@ATL@@UEAA@XZ 000000018002e680     SpeechSynthesis.obj
 0002:0000b680       $unwind$??__E_Module@@YAXXZ 000000018002e680     SpeechSynthesis.obj
 0002:0000b680       $unwind$?AddRef@?$CComObjectCached@VCComClassFactory@ATL@@@ATL@@UEAAKXZ 000000018002e680     SpeechSynthesis.obj
 0002:0000b680       $unwind$?AllocateHeap@?$CTempBuffer@E$0BAA@VCCRTAllocator@ATL@@@ATL@@AEAAX_K@Z 000000018002e680     SpeechSynthesis.obj
 0002:0000b680       $unwind$?AllocateHeap@?$CTempBuffer@_W$0BAA@VCCRTAllocator@ATL@@@ATL@@AEAAX_K@Z 000000018002e680     SpeechSynthesis.obj
 0002:0000b680       $unwind$?AllocateHeap@?$CTempBuffer@_W$0EAA@VCCRTAllocator@ATL@@@ATL@@AEAAX_K@Z 000000018002e680     SpeechSynthesis.obj
 0002:0000b680       $unwind$?GetClassInfoW@?$IProvideClassInfo2Impl@$1?CLSID_OPOSSpeechSynthesis@@3U_GUID@@B$1?DIID__IOPOSSpeechSynthesisEvents@@3U2@B$1?LIBID_OposSpeechSynthesis_CCO@@3U2@B$00$0A@VCComTypeInfoHolder@ATL@@@ATL@@UEAAJPEAPEAUITypeInfo@@@Z 000000018002e680     SpeechSynthesis.obj
 0002:0000b680       $unwind$?GetClientSite@?$IOleObjectImpl@VCOPOSSpeechSynthesis@@@ATL@@UEAAJPEAPEAUIOleClientSite@@@Z 000000018002e680     SpeechSynthesis.obj
 0002:0000b680       $unwind$?GetConnMap@COPOSSpeechSynthesis@@SAPEBU_ATL_CONNMAP_ENTRY@ATL@@PEAH@Z 000000018002e680     SpeechSynthesis.obj
 0002:0000b680       $unwind$?GetTypeInfo@?$IDispatchImpl@UIOPOSSpeechSynthesis@@$1?IID_IOPOSSpeechSynthesis@@3U_GUID@@B$1?LIBID_OposSpeechSynthesis_CCO@@3U3@B$00$0A@VCComTypeInfoHolder@ATL@@@ATL@@UEAAJIKPEAPEAUITypeInfo@@@Z 000000018002e680     SpeechSynthesis.obj
 0002:0000b680       $unwind$?IOleInPlaceObject_InPlaceDeactivate@CComControlBase@ATL@@QEAAJXZ 000000018002e680     SpeechSynthesis.obj
 0002:0000b680       $unwind$?IOleObject_SetExtent@CComControlBase@ATL@@QEAAJKPEAUtagSIZE@@@Z 000000018002e680     SpeechSynthesis.obj
 0002:0000b680       $unwind$?IsEqualObject@?$CComPtrBase@UIOleClientSite@@@ATL@@QEAA_NPEAUIUnknown@@@Z 000000018002e680     SpeechSynthesis.obj
 0002:0000b680       $unwind$?QueryHitPoint@?$IViewObjectExImpl@VCOPOSSpeechSynthesis@@@ATL@@UEAAJKPEBUtagRECT@@UtagPOINT@@JPEAK@Z 000000018002e680     SpeechSynthesis.obj
 0002:0000b680       $unwind$?QueryInterface@?$CComAggObject@VCOPOSSpeechSynthesis@@@ATL@@UEAAJAEBU_GUID@@PEAPEAX@Z 000000018002e680     SpeechSynthesis.obj
 0002:0000b680       $unwind$?Release@?$CComObjectCached@VCComClassFactory@ATL@@@ATL@@UEAAKXZ 000000018002e680     SpeechSynthesis.obj
 0002:0000b680       $unwind$?Unadvise@?$IConnectionPointImpl@VCOPOSSpeechSynthesis@@$1?DIID__IOPOSSpeechSynthesisEvents@@3U_GUID@@BVCComDynamicUnkArray@ATL@@@ATL@@UEAAJK@Z 000000018002e680     SpeechSynthesis.obj
 0002:0000b680       $unwind$?Unadvise@?$IConnectionPointImpl@VCOPOSSpeechSynthesis@@$1?IID_IPropertyNotifySink@@3U_GUID@@BVCComDynamicUnkArray@ATL@@@ATL@@UEAAJK@Z 000000018002e680     SpeechSynthesis.obj
 0002:0000b680       $unwind$??1CComControlBase@ATL@@UEAA@XZ 000000018002e680     SpeechSynthesisImpl.obj
 0002:0000b680       $unwind$??1COPOSSpeechSynthesis@@UEAA@XZ 000000018002e680     SpeechSynthesisImpl.obj
 0002:0000b680       $unwind$?EventUninit@COPOSSpeechSynthesis@@IEAAXXZ 000000018002e680     SpeechSynthesisImpl.obj
 0002:0000b680       $unwind$?FreezeEvents@COPOSSpeechSynthesis@@MEAAJH@Z 000000018002e680     SpeechSynthesisImpl.obj
 0002:0000b680       $unwind$?SOProcessID@COPOSSpeechSynthesis@@UEAAJPEAJ@Z 000000018002e680     SpeechSynthesisImpl.obj
 0002:0000b680       $unwind$?get_CapCompareFirmwareVersion@COPOSSpeechSynthesis@@UEAAJPEAF@Z 000000018002e680     SpeechSynthesisImpl.obj
 0002:0000b680       $unwind$?get_CapLanguage@COPOSSpeechSynthesis@@UEAAJPEAF@Z 000000018002e680     SpeechSynthesisImpl.obj
 0002:0000b680       $unwind$?get_CapPitch@COPOSSpeechSynthesis@@UEAAJPEAF@Z 000000018002e680     SpeechSynthesisImpl.obj
 0002:0000b680       $unwind$?get_CapSpeed@COPOSSpeechSynthesis@@UEAAJPEAF@Z 000000018002e680     SpeechSynthesisImpl.obj
 0002:0000b680       $unwind$?get_CapStatisticsReporting@COPOSSpeechSynthesis@@UEAAJPEAF@Z 000000018002e680     SpeechSynthesisImpl.obj
 0002:0000b680       $unwind$?get_CapUpdateFirmware@COPOSSpeechSynthesis@@UEAAJPEAF@Z 000000018002e680     SpeechSynthesisImpl.obj
 0002:0000b680       $unwind$?get_CapUpdateStatistics@COPOSSpeechSynthesis@@UEAAJPEAF@Z 000000018002e680     SpeechSynthesisImpl.obj
 0002:0000b680       $unwind$?get_CapVoice@COPOSSpeechSynthesis@@UEAAJPEAF@Z 000000018002e680     SpeechSynthesisImpl.obj
 0002:0000b680       $unwind$?get_CapVolume@COPOSSpeechSynthesis@@UEAAJPEAF@Z 000000018002e680     SpeechSynthesisImpl.obj
 0002:0000b680       $unwind$?get_Claimed@COPOSSpeechSynthesis@@UEAAJPEAF@Z 000000018002e680     SpeechSynthesisImpl.obj
 0002:0000b680       $unwind$?get_DeviceEnabled@COPOSSpeechSynthesis@@UEAAJPEAF@Z 000000018002e680     SpeechSynthesisImpl.obj
 0002:0000b680       $unwind$?get_FreezeEvents@COPOSSpeechSynthesis@@UEAAJPEAF@Z 000000018002e680     SpeechSynthesisImpl.obj
 0002:0000b680       $unwind$?put_FreezeEvents@COPOSSpeechSynthesis@@UEAAJF@Z 000000018002e680     SpeechSynthesisImpl.obj
 0002:0000b680       $unwind$??1CAtlBaseModule@ATL@@QEAA@XZ 000000018002e680     atls:atlbase.obj
 0002:0000b680       $unwind$AtlThunk_AllocateData 000000018002e680     atls:atlthunk.obj
 0002:0000b680       $unwind$__raise_securityfailure 000000018002e680     LIBCMT:gs_report.obj
 0002:0000b680       $unwind$??2@YAPEAX_K@Z     000000018002e680     LIBCMT:new_scalar.obj
 0002:0000b680       $unwind$??_Gtype_info@@UEAAPEAXI@Z 000000018002e680     LIBCMT:std_type_info_static.obj
 0002:0000b680       $unwind$_Init_thread_footer 000000018002e680     LIBCMT:thread_safe_statics.obj
 0002:0000b680       $unwind$_Init_thread_header 000000018002e680     LIBCMT:thread_safe_statics.obj
 0002:0000b680       $unwind$_Init_thread_wait  000000018002e680     LIBCMT:thread_safe_statics.obj
 0002:0000b680       $unwind$??0bad_alloc@std@@QEAA@AEBV01@@Z 000000018002e680     LIBCMT:throw_bad_alloc.obj
 0002:0000b680       $unwind$??0bad_array_new_length@std@@QEAA@AEBV01@@Z 000000018002e680     LIBCMT:throw_bad_alloc.obj
 0002:0000b680       $unwind$??0exception@std@@QEAA@AEBV01@@Z 000000018002e680     LIBCMT:throw_bad_alloc.obj
 0002:0000b680       $unwind$__scrt_initialize_crt 000000018002e680     LIBCMT:utility.obj
 0002:0000b680       $unwind$__scrt_initialize_onexit_tables 000000018002e680     LIBCMT:utility.obj
 0002:0000b680       $unwind$__scrt_release_startup_lock 000000018002e680     LIBCMT:utility.obj
 0002:0000b680       $unwind$__scrt_uninitialize_crt 000000018002e680     LIBCMT:utility.obj
 0002:0000b680       $unwind$_onexit            000000018002e680     LIBCMT:utility.obj
 0002:0000b680       $unwind$_IsExceptionObjectToBeDestroyed 000000018002e680     libvcruntime:ehhelpers.obj
 0002:0000b680       $unwind$??0HandlerMap4@FH4@@QEAA@PEBUTryBlockMapEntry4@1@_KH@Z 000000018002e680     libvcruntime:frame.obj
 0002:0000b680       $unwind$??0bad_exception@std@@QEAA@AEBV01@@Z 000000018002e680     libvcruntime:frame.obj
 0002:0000b680       $unwind$?ExFilterRethrow@@YAHPEAU_EXCEPTION_POINTERS@@PEAUEHExceptionRecord@@PEAH@Z 000000018002e680     libvcruntime:frame.obj
 0002:0000b680       $unwind$__vcrt_uninitialize_locks 000000018002e680     libvcruntime:locks.obj
 0002:0000b680       $unwind$__vcrt_freeptd     000000018002e680     libvcruntime:per_thread_data.obj
 0002:0000b680       $unwind$_CreateFrameInfo   000000018002e680     libvcruntime:risctrnsctrl.obj
 0002:0000b680       $unwind$_SetImageBase      000000018002e680     libvcruntime:risctrnsctrl.obj
 0002:0000b680       $unwind$_SetThrowImageBase 000000018002e680     libvcruntime:risctrnsctrl.obj
 0002:0000b680       $unwind$__std_exception_destroy 000000018002e680     libvcruntime:std_exception.obj
 0002:0000b680       $unwind$__std_type_info_destroy_list 000000018002e680     libvcruntime:std_type_info.obj
 0002:0000b680       $unwind$__vcrt_FlsAlloc    000000018002e680     libvcruntime:winapi_downlevel.obj
 0002:0000b680       $unwind$__vcrt_FlsFree     000000018002e680     libvcruntime:winapi_downlevel.obj
 0002:0000b680       $unwind$__vcrt_FlsGetValue 000000018002e680     libvcruntime:winapi_downlevel.obj
 0002:0000b680       $unwind$_calloc_base       000000018002e680     libucrt:calloc_base.obj
 0002:0000b680       $unwind$_malloc_base       000000018002e680     libucrt:malloc_base.obj
 0002:0000b680       $unwind$_callnewh          000000018002e680     libucrt:new_handler.obj
 0002:0000b680       $unwind$initialize_pointers 000000018002e680     libucrt:initialization.obj
 0002:0000b680       $unwind$uninitialize_allocated_memory 000000018002e680     libucrt:initialization.obj
 0002:0000b680       $unwind$__acrt_initialize_locks 000000018002e680     libucrt:locks.obj
 0002:0000b680       $unwind$__acrt_uninitialize_locks 000000018002e680     libucrt:locks.obj
 0002:0000b680       $unwind$__acrt_freeptd     000000018002e680     libucrt:per_thread_data.obj
 0002:0000b680       $unwind$__acrt_getptd_head 000000018002e680     libucrt:per_thread_data.obj
 0002:0000b680       $unwind$__acrt_get_process_end_policy 000000018002e680     libucrt:win_policies.obj
 0002:0000b680       $unwind$__acrt_AppPolicyGetProcessTerminationMethodInternal 000000018002e680     libucrt:winapi_thunks.obj
 0002:0000b680       $unwind$__acrt_FlsAlloc    000000018002e680     libucrt:winapi_thunks.obj
 0002:0000b680       $unwind$__acrt_FlsFree     000000018002e680     libucrt:winapi_thunks.obj
 0002:0000b680       $unwind$__acrt_FlsGetValue 000000018002e680     libucrt:winapi_thunks.obj
 0002:0000b680       $unwind$__acrt_SetThreadStackGuarantee 000000018002e680     libucrt:winapi_thunks.obj
 0002:0000b680       $unwind$__acrt_uninitialize_winapi_thunks 000000018002e680     libucrt:winapi_thunks.obj
 0002:0000b680       $unwind$__acrt_update_locale_info 000000018002e680     libucrt:locale_update.obj
 0002:0000b680       $unwind$__acrt_update_multibyte_info 000000018002e680     libucrt:locale_update.obj
 0002:0000b680       $unwind$__acrt_allocate_buffer_for_argv 000000018002e680     libucrt:argv_parsing.obj
 0002:0000b680       $unwind$?exit_or_terminate_process@@YAXI@Z 000000018002e680     libucrt:exit.obj
 0002:0000b680       $unwind$?try_cor_exit_process@@YAXI@Z 000000018002e680     libucrt:exit.obj
 0002:0000b680       $unwind$__acrt_uninitialize_stdio 000000018002e680     libucrt:_file.obj
 0002:0000b680       $unwind$__acrt_stdio_free_buffer_nolock 000000018002e680     libucrt:_freebuf.obj
 0002:0000b680       $unwind$_fflush_nolock     000000018002e680     libucrt:fflush.obj
 0002:0000b680       $unwind$strcpy_s           000000018002e680     libucrt:strcpy_s.obj
 0002:0000b680       $unwind$wcscat_s           000000018002e680     libucrt:wcscat_s.obj
 0002:0000b680       $unwind$wcscpy_s           000000018002e680     libucrt:wcscpy_s.obj
 0002:0000b680       $unwind$_clrfp             000000018002e680     libucrt:fpctrl.obj
 0002:0000b680       $unwind$_set_statfp        000000018002e680     libucrt:fpctrl.obj
 0002:0000b680       $unwind$_clearfp           000000018002e680     libucrt:ieee.obj
 0002:0000b680       $unwind$_controlfp_s       000000018002e680     libucrt:contrlfp.obj
 0002:0000b680       $unwind$fegetenv           000000018002e680     libucrt:fegetenv.obj
 0002:0000b680       $unwind$feholdexcept       000000018002e680     libucrt:feholdexcept.obj
 0002:0000b680       $unwind$fesetenv           000000018002e680     libucrt:fesetenv.obj
 0002:0000b688       $unwind$?AtlWinModuleTerm@ATL@@YAJPEAU_ATL_WIN_MODULE70@1@PEAUHINSTANCE__@@@Z 000000018002e688     OposVariant.obj
 0002:0000b688       $unwind$?AtlWinModuleExtractCreateWndData@ATL@@YAPEAXPEAU_ATL_WIN_MODULE70@1@@Z 000000018002e688     SpeechSynthesis.obj
 0002:0000b688       $unwind$?CreateInstance@?$CComCreator@V?$CComObject@VCOPOSSpeechSynthesis@@@ATL@@@ATL@@SAJPEAXAEBU_GUID@@PEAPEAX@Z 000000018002e688     SpeechSynthesis.obj
 0002:0000b688       $unwind$?DoEvent@COPOSSpeechSynthesis@@IEAAXI_K_J@Z 000000018002e688     SpeechSynthesis.obj
 0002:0000b688       $unwind$?DoVerb@?$IOleObjectImpl@VCOPOSSpeechSynthesis@@@ATL@@UEAAJJPEAUtagMSG@@PEAUIOleClientSite@@JPEAUHWND__@@PEBUtagRECT@@@Z 000000018002e688     SpeechSynthesis.obj
 0002:0000b688       $unwind$?HKeyFromString@CRegParser@ATL@@KAPEAUHKEY__@@PEA_W@Z 000000018002e688     SpeechSynthesis.obj
 0002:0000b688       $unwind$?Next@?$CComEnumImpl@UIEnumConnectionPoints@@$1?_GUID_b196b285_bab4_101a_b69c_00aa00341d07@@3U__s_GUID@@BPEAUIConnectionPoint@@V?$_CopyInterface@UIConnectionPoint@@@ATL@@@ATL@@UEAAJKPEAPEAUIConnectionPoint@@PEAK@Z 000000018002e688     SpeechSynthesis.obj
 0002:0000b688       $unwind$?Next@?$CComEnumImpl@UIEnumConnections@@$1?_GUID_b196b287_bab4_101a_b69c_00aa00341d07@@3U__s_GUID@@BUtagCONNECTDATA@@V?$_Copy@UtagCONNECTDATA@@@ATL@@@ATL@@UEAAJKPEAUtagCONNECTDATA@@PEAK@Z 000000018002e688     SpeechSynthesis.obj
 0002:0000b688       $unwind$?SODirectIO@COPOSSpeechSynthesis@@MEAAJJPEAJPEAPEA_W@Z 000000018002e688     SpeechSynthesis.obj
 0002:0000b688       $unwind$?SetControlFocus@CComControlBase@ATL@@QEAAHH@Z 000000018002e688     SpeechSynthesis.obj
 0002:0000b688       $unwind$?ocscpy_s@@YA_NPEA_W_KPEB_W@Z 000000018002e688     SpeechSynthesis.obj
 0002:0000b688       $unwind$?s_EventWindowProc@COPOSSpeechSynthesis@@KA_JPEAUHWND__@@I_K_J@Z 000000018002e688     SpeechSynthesisImpl.obj
 0002:0000b688       $unwind$__scrt_dllmain_exception_filter 000000018002e688     LIBCMT:utility.obj
 0002:0000b688       $unwind$?Is_bad_exception_allowed@@YAEPEBU_s_ESTypeList@@@Z 000000018002e688     libvcruntime:frame.obj
 0002:0000b688       $unwind$_recalloc_base     000000018002e688     libucrt:recalloc.obj
 0002:0000b688       $unwind$__acrt_free_locale 000000018002e688     libucrt:locale_refcounting.obj
 0002:0000b688       $unwind$__acrt_lowio_create_handle_array 000000018002e688     libucrt:osfinfo.obj
 0002:0000b688       $unwind$?setSBCS@@YAXPEAU__crt_multibyte_data@@@Z 000000018002e688     libucrt:mbctype.obj
 0002:0000b688       $unwind$_seh_filter_exe    000000018002e688     libucrt:exception_filter.obj
 0002:0000b688       $unwind$_initterm          000000018002e688     libucrt:initterm.obj
 0002:0000b688       $unwind$??$ensure_buffer_is_big_enough@D@formatting_buffer@__crt_stdio_output@@QEAA_N_K@Z 000000018002e688     libucrt:output.obj
 0002:0000b688       $unwind$??$ensure_buffer_is_big_enough@_W@formatting_buffer@__crt_stdio_output@@QEAA_N_K@Z 000000018002e688     libucrt:output.obj
 0002:0000b69c       $unwind$??0OposDispParms@@QEAA@PEAVOposVariant@@H@Z 000000018002e69c     OposVariant.obj
 0002:0000b69c       $unwind$?SetBSTR_Copy@OposVariant@@QEAAXPEA_WAEAJ@Z 000000018002e69c     OposVariant.obj
 0002:0000b69c       $unwind$?SetBSTR_InOutPtr@OposVariant@@QEAA_NPEAPEA_WAEAJ@Z 000000018002e69c     OposVariant.obj
 0002:0000b69c       $unwind$?SetDispatch_Ptr@OposVariant@@QEAAXPEAUIDispatch@@AEAJ@Z 000000018002e69c     OposVariant.obj
 0002:0000b69c       $unwind$?SetLONG_Ptr@OposVariant@@QEAAXPEAJAEAJ@Z 000000018002e69c     OposVariant.obj
 0002:0000b69c       $unwind$?SetString@OposVariant@@QEAAXPEB_WAEAJ@Z 000000018002e69c     OposVariant.obj
 0002:0000b69c       $unwind$?Term@CAtlComModule@ATL@@QEAAXXZ 000000018002e69c     OposVariant.obj
 0002:0000b69c       $unwind$??_GCRegObject@ATL@@UEAAPEAXI@Z 000000018002e69c     SpeechSynthesis.obj
 0002:0000b69c       $unwind$?Add@?$CSimpleArray@GV?$CSimpleArrayEqualHelper@G@ATL@@@ATL@@QEAAHAEBG@Z 000000018002e69c     SpeechSynthesis.obj
 0002:0000b69c       $unwind$?Add@?$CSimpleMap@PEA_WPEA_WVCExpansionVectorEqualHelper@ATL@@@ATL@@QEAAHAEBQEA_W0@Z 000000018002e69c     SpeechSynthesis.obj
 0002:0000b69c       $unwind$?Add@CComDynamicUnkArray@ATL@@QEAAKPEAUIUnknown@@@Z 000000018002e69c     SpeechSynthesis.obj
 0002:0000b69c       $unwind$?Advise@?$IOleObjectImpl@VCOPOSSpeechSynthesis@@@ATL@@UEAAJPEAUIAdviseSink@@PEAK@Z 000000018002e69c     SpeechSynthesis.obj
 0002:0000b69c       $unwind$?ClearReplacements@CExpansionVector@ATL@@QEAAJXZ 000000018002e69c     SpeechSynthesis.obj
 0002:0000b69c       $unwind$?CreateInstance@?$CComObject@V?$CComEnum@UIEnumConnectionPoints@@$1?_GUID_b196b285_bab4_101a_b69c_00aa00341d07@@3U__s_GUID@@BPEAUIConnectionPoint@@V?$_CopyInterface@UIConnectionPoint@@@ATL@@VCComSingleThreadModel@6@@ATL@@@ATL@@SAJPEAPEAV12@@Z 000000018002e69c     SpeechSynthesis.obj
 0002:0000b69c       $unwind$?CreateInstance@?$CComObject@V?$CComEnum@UIEnumConnections@@$1?_GUID_b196b287_bab4_101a_b69c_00aa00341d07@@3U__s_GUID@@BUtagCONNECTDATA@@V?$_Copy@UtagCONNECTDATA@@@ATL@@VCComSingleThreadModel@6@@ATL@@@ATL@@SAJPEAPEAV12@@Z 000000018002e69c     SpeechSynthesis.obj
 0002:0000b69c       $unwind$?RegisterServer@CComModule@ATL@@QEAAJHPEBU_GUID@@@Z 000000018002e69c     SpeechSynthesis.obj
 0002:0000b69c       $unwind$?Term@CAtlModule@ATL@@QEAAXXZ 000000018002e69c     SpeechSynthesis.obj
 0002:0000b69c       $unwind$?UnregisterServer@CComModule@ATL@@QEAAJHPEBU_GUID@@@Z 000000018002e69c     SpeechSynthesis.obj
 0002:0000b69c       $unwind$?VTFromRegType@CRegParser@ATL@@KAHPEB_WAEAG@Z 000000018002e69c     SpeechSynthesis.obj
 0002:0000b69c       $unwind$_DllMainCRTStartup 000000018002e69c     LIBCMT:dll_dllmain.obj
 0002:0000b69c       $unwind$__vcrt_getptd_noexit 000000018002e69c     libvcruntime:per_thread_data.obj
 0002:0000b69c       $unwind$__vcrt_InitializeCriticalSectionEx 000000018002e69c     libvcruntime:winapi_downlevel.obj
 0002:0000b69c       $unwind$memcpy_s           000000018002e69c     libucrt:cfout.obj
 0002:0000b69c       $unwind$__acrt_getptd      000000018002e69c     libucrt:per_thread_data.obj
 0002:0000b69c       $unwind$__acrt_getptd_noexit 000000018002e69c     libucrt:per_thread_data.obj
 0002:0000b69c       $unwind$__acrt_execute_initializers 000000018002e69c     libucrt:shared_initialization.obj
 0002:0000b69c       $unwind$__acrt_InitializeCriticalSectionEx 000000018002e69c     libucrt:winapi_thunks.obj
 0002:0000b69c       $unwind$?free_crt_array_internal@@YAXQEAPEBX_K@Z 000000018002e69c     libucrt:inittime.obj
 0002:0000b69c       $unwind$??$common_lseek_nolock@_J@@YA_JH_JH@Z 000000018002e69c     libucrt:lseek.obj
 0002:0000b69c       $unwind$__acrt_stdio_flush_nolock 000000018002e69c     libucrt:fflush.obj
 0002:0000b69c       $unwind$??0_LocaleUpdate@@QEAA@QEAU__crt_locale_pointers@@@Z 000000018002e69c     libucrt:output.obj
 0002:0000b69c       $unwind$?type_case_Z@?$output_processor@_WV?$string_output_adapter@_W@__crt_stdio_output@@V?$format_validation_base@_WV?$string_output_adapter@_W@__crt_stdio_output@@@2@@__crt_stdio_output@@AEAA_NXZ 000000018002e69c     libucrt:output.obj
 0002:0000b69c       $unwind$?type_case_s@?$output_processor@_WV?$string_output_adapter@_W@__crt_stdio_output@@V?$format_validation_base@_WV?$string_output_adapter@_W@__crt_stdio_output@@@2@@__crt_stdio_output@@AEAA_NXZ 000000018002e69c     libucrt:output.obj
 0002:0000b69c       $unwind$_exception_enabled 000000018002e69c     libucrt:libm_error.obj
 0002:0000b6ac       $unwind$??_Estringdispid@CComTypeInfoHolder@ATL@@QEAAPEAXI@Z 000000018002e6ac     OposVariant.obj
 0002:0000b6ac       $unwind$?AddTermFunc@CAtlModule@ATL@@QEAAJP6AX_K@Z0@Z 000000018002e6ac     SpeechSynthesis.obj
 0002:0000b6ac       $unwind$?AtlComModuleRegisterServer@ATL@@YAJPEAU_ATL_COM_MODULE70@1@HPEBU_GUID@@@Z 000000018002e6ac     SpeechSynthesis.obj
 0002:0000b6ac       $unwind$?AtlComModuleUnregisterServer@ATL@@YAJPEAU_ATL_COM_MODULE70@1@HPEBU_GUID@@@Z 000000018002e6ac     SpeechSynthesis.obj
 0002:0000b6ac       $unwind$?CreateInstance@?$CComCreator@V?$CComAggObject@VCOPOSSpeechSynthesis@@@ATL@@@ATL@@SAJPEAXAEBU_GUID@@PEAPEAX@Z 000000018002e6ac     SpeechSynthesis.obj
 0002:0000b6ac       $unwind$?CreateInstance@?$CComCreator@V?$CComObjectCached@VCComClassFactory@ATL@@@ATL@@@ATL@@SAJPEAXAEBU_GUID@@PEAPEAX@Z 000000018002e6ac     SpeechSynthesis.obj
 0002:0000b6ac       $unwind$?GetPagesHelper@?$ISpecifyPropertyPagesImpl@VCOPOSSpeechSynthesis@@@ATL@@IEAAJPEAUtagCAUUID@@PEBUATL_PROPMAP_ENTRY@2@@Z 000000018002e6ac     SpeechSynthesis.obj
 0002:0000b6ac       $unwind$__GSHandlerCheck_SEH 000000018002e6ac     LIBCMT:gshandlerseh.obj
 0002:0000b6ac       $unwind$??$TypeMatchHelper@V__FrameHandler3@@@@YAHPEBU_s_HandlerType@@PEBU_s_CatchableType@@PEBU_s_ThrowInfo@@@Z 000000018002e6ac     libvcruntime:frame.obj
 0002:0000b6ac       $unwind$??$TypeMatchHelper@V__FrameHandler4@@@@YAHPEAUHandlerType4@FH4@@PEBU_s_CatchableType@@PEBU_s_ThrowInfo@@@Z 000000018002e6ac     libvcruntime:frame.obj
 0002:0000b6ac       $unwind$?initialize_stdio_handles_nolock@@YAXXZ 000000018002e6ac     libucrt:ioinit.obj
 0002:0000b6ac       $unwind$__acrt_initialize_stdio 000000018002e6ac     libucrt:_file.obj
 0002:0000b6ac       $unwind$?process@?$output_processor@_WV?$string_output_adapter@_W@__crt_stdio_output@@V?$format_validation_base@_WV?$string_output_adapter@_W@__crt_stdio_output@@@2@@__crt_stdio_output@@QEAAHXZ 000000018002e6ac     libucrt:output.obj
 0002:0000b6ac       $unwind$?type_case_integer@?$output_processor@_WV?$string_output_adapter@_W@__crt_stdio_output@@V?$format_validation_base@_WV?$string_output_adapter@_W@__crt_stdio_output@@@2@@__crt_stdio_output@@AEAA_NI_N@Z 000000018002e6ac     libucrt:output.obj
 0002:0000b6c4       $unwind$?SetBSTR@OposVariant@@QEAAXPEA_WAEAJ@Z 000000018002e6c4     OposVariant.obj
 0002:0000b6c4       $unwind$?SetLONG@OposVariant@@QEAAXJ@Z 000000018002e6c4     OposVariant.obj
 0002:0000b6c4       $unwind$?SetVARIANT_BOOL@OposVariant@@QEAAXF@Z 000000018002e6c4     OposVariant.obj
 0002:0000b6c4       $unwind$??0?$CComContainedObject@VCOPOSSpeechSynthesis@@@ATL@@QEAA@PEAX@Z 000000018002e6c4     SpeechSynthesis.obj
 0002:0000b6c4       $unwind$??1?$CComEnumImpl@UIEnumConnectionPoints@@$1?_GUID_b196b285_bab4_101a_b69c_00aa00341d07@@3U__s_GUID@@BPEAUIConnectionPoint@@V?$_CopyInterface@UIConnectionPoint@@@ATL@@@ATL@@UEAA@XZ 000000018002e6c4     SpeechSynthesis.obj
 0002:0000b6c4       $unwind$??1?$CComEnumImpl@UIEnumConnections@@$1?_GUID_b196b287_bab4_101a_b69c_00aa00341d07@@3U__s_GUID@@BUtagCONNECTDATA@@V?$_Copy@UtagCONNECTDATA@@@ATL@@@ATL@@UEAA@XZ 000000018002e6c4     SpeechSynthesis.obj
 0002:0000b6c4       $unwind$??_G?$CComAggObject@VCOPOSSpeechSynthesis@@@ATL@@UEAAPEAXI@Z 000000018002e6c4     SpeechSynthesis.obj
 0002:0000b6c4       $unwind$??_G?$CComContainedObject@VCOPOSSpeechSynthesis@@@ATL@@UEAAPEAXI@Z 000000018002e6c4     SpeechSynthesis.obj
 0002:0000b6c4       $unwind$??_G?$CComObject@V?$CComEnum@UIEnumConnectionPoints@@$1?_GUID_b196b285_bab4_101a_b69c_00aa00341d07@@3U__s_GUID@@BPEAUIConnectionPoint@@V?$_CopyInterface@UIConnectionPoint@@@ATL@@VCComSingleThreadModel@6@@ATL@@@ATL@@UEAAPEAXI@Z 000000018002e6c4     SpeechSynthesis.obj
 0002:0000b6c4       $unwind$??_G?$CComObject@V?$CComEnum@UIEnumConnections@@$1?_GUID_b196b287_bab4_101a_b69c_00aa00341d07@@3U__s_GUID@@BUtagCONNECTDATA@@V?$_Copy@UtagCONNECTDATA@@@ATL@@VCComSingleThreadModel@6@@ATL@@@ATL@@UEAAPEAXI@Z 000000018002e6c4     SpeechSynthesis.obj
 0002:0000b6c4       $unwind$??_G?$CComObject@VCOPOSSpeechSynthesis@@@ATL@@UEAAPEAXI@Z 000000018002e6c4     SpeechSynthesis.obj
 0002:0000b6c4       $unwind$??_G?$CComObjectCached@VCComClassFactory@ATL@@@ATL@@UEAAPEAXI@Z 000000018002e6c4     SpeechSynthesis.obj
 0002:0000b6c4       $unwind$??_GCComClassFactory@ATL@@UEAAPEAXI@Z 000000018002e6c4     SpeechSynthesis.obj
 0002:0000b6c4       $unwind$??_GCComModule@ATL@@UEAAPEAXI@Z 000000018002e6c4     SpeechSynthesis.obj
 0002:0000b6c4       $unwind$?DeleteSubKey@CRegKey@ATL@@QEAAJPEB_W@Z 000000018002e6c4     SpeechSynthesis.obj
 0002:0000b6c4       $unwind$?IOleObject_SetClientSite@CComControlBase@ATL@@QEAAJPEAUIOleClientSite@@@Z 000000018002e6c4     SpeechSynthesis.obj
 0002:0000b6c4       $unwind$?InitNew@?$IPersistStorageImpl@VCOPOSSpeechSynthesis@@@ATL@@UEAAJPEAUIStorage@@@Z 000000018002e6c4     SpeechSynthesis.obj
 0002:0000b6c4       $unwind$?IsDirty@?$IPersistStorageImpl@VCOPOSSpeechSynthesis@@@ATL@@UEAAJXZ 000000018002e6c4     SpeechSynthesis.obj
 0002:0000b6c4       $unwind$?Release@?$CComAggObject@VCOPOSSpeechSynthesis@@@ATL@@UEAAKXZ 000000018002e6c4     SpeechSynthesis.obj
 0002:0000b6c4       $unwind$?Release@?$CComObject@V?$CComEnum@UIEnumConnectionPoints@@$1?_GUID_b196b285_bab4_101a_b69c_00aa00341d07@@3U__s_GUID@@BPEAUIConnectionPoint@@V?$_CopyInterface@UIConnectionPoint@@@ATL@@VCComSingleThreadModel@6@@ATL@@@ATL@@UEAAKXZ 000000018002e6c4     SpeechSynthesis.obj
 0002:0000b6c4       $unwind$?Release@?$CComObject@V?$CComEnum@UIEnumConnections@@$1?_GUID_b196b287_bab4_101a_b69c_00aa00341d07@@3U__s_GUID@@BUtagCONNECTDATA@@V?$_Copy@UtagCONNECTDATA@@@ATL@@VCComSingleThreadModel@6@@ATL@@@ATL@@UEAAKXZ 000000018002e6c4     SpeechSynthesis.obj
 0002:0000b6c4       $unwind$?Release@?$CComObject@VCOPOSSpeechSynthesis@@@ATL@@UEAAKXZ 000000018002e6c4     SpeechSynthesis.obj
 0002:0000b6c4       $unwind$?SOOutputComplete@COPOSSpeechSynthesis@@MEAAJJ@Z 000000018002e6c4     SpeechSynthesis.obj
 0002:0000b6c4       $unwind$?SOStatusUpdate@COPOSSpeechSynthesis@@MEAAJJ@Z 000000018002e6c4     SpeechSynthesis.obj
 0002:0000b6c4       $unwind$?SetAdvise@?$IViewObjectExImpl@VCOPOSSpeechSynthesis@@@ATL@@UEAAJKKPEAUIAdviseSink@@@Z 000000018002e6c4     SpeechSynthesis.obj
 0002:0000b6c4       $unwind$?Term@CComModule@ATL@@QEAAXXZ 000000018002e6c4     SpeechSynthesis.obj
 0002:0000b6c4       $unwind$DllMain            000000018002e6c4     SpeechSynthesis.obj
 0002:0000b6c4       $unwind$??1?$IConnectionPointImpl@VCOPOSSpeechSynthesis@@$1?DIID__IOPOSSpeechSynthesisEvents@@3U_GUID@@BVCComDynamicUnkArray@ATL@@@ATL@@QEAA@XZ 000000018002e6c4     SpeechSynthesisImpl.obj
 0002:0000b6c4       $unwind$??1?$IConnectionPointImpl@VCOPOSSpeechSynthesis@@$1?IID_IPropertyNotifySink@@3U_GUID@@BVCComDynamicUnkArray@ATL@@@ATL@@QEAA@XZ 000000018002e6c4     SpeechSynthesisImpl.obj
 0002:0000b6c4       $unwind$??0CAtlBaseModule@ATL@@QEAA@XZ 000000018002e6c4     atls:atlbase.obj
 0002:0000b6c4       $unwind$??$GetProcAddressAll@P6AP6A_JPEAUHWND__@@I_K_J@ZPEAUAtlThunkData_t@@@Z@@YAP6AP6A_JPEAUHWND__@@I_K_J@ZPEAUAtlThunkData_t@@@ZPEAP6AP6A_J0I12@Z3@Z@Z 000000018002e6c4     atls:atlthunk.obj
 0002:0000b6c4       $unwind$??$GetProcAddressAll@P6APEAUAtlThunkData_t@@XZ@@YAP6APEAUAtlThunkData_t@@XZPEAP6APEAU0@XZ@Z 000000018002e6c4     atls:atlthunk.obj
 0002:0000b6c4       $unwind$??$GetProcAddressAll@P6AXPEAUAtlThunkData_t@@@Z@@YAP6AXPEAUAtlThunkData_t@@@ZPEAP6AX0@Z@Z 000000018002e6c4     atls:atlthunk.obj
 0002:0000b6c4       $unwind$??$GetProcAddressAll@P6AXPEAUAtlThunkData_t@@PEAX_K@Z@@YAP6AXPEAUAtlThunkData_t@@PEAX_K@ZPEAP6AX012@Z@Z 000000018002e6c4     atls:atlthunk.obj
 0002:0000b6c4       $unwind$?__AllocStdCallThunk_cmn@@YAPEAXXZ 000000018002e6c4     atls:atlthunk.obj
 0002:0000b6c4       $unwind$?__InitializeThunkPool@@YAHXZ 000000018002e6c4     atls:atlthunk.obj
 0002:0000b6c4       $unwind$AtlThunk_DataToCode 000000018002e6c4     atls:atlthunk.obj
 0002:0000b6c4       $unwind$_RTC_Initialize    000000018002e6c4     LIBCMT:initsect.obj
 0002:0000b6c4       $unwind$_RTC_Terminate     000000018002e6c4     LIBCMT:initsect.obj
 0002:0000b6c4       $unwind$?__scrt_initialize_thread_safe_statics@@YAHXZ 000000018002e6c4     LIBCMT:thread_safe_statics.obj
 0002:0000b6c4       $unwind$??_Gbad_alloc@std@@UEAAPEAXI@Z 000000018002e6c4     LIBCMT:throw_bad_alloc.obj
 0002:0000b6c4       $unwind$??_Gbad_array_new_length@std@@UEAAPEAXI@Z 000000018002e6c4     LIBCMT:throw_bad_alloc.obj
 0002:0000b6c4       $unwind$??_Gexception@std@@UEAAPEAXI@Z 000000018002e6c4     LIBCMT:throw_bad_alloc.obj
 0002:0000b6c4       $unwind$__FrameUnwindFilter 000000018002e6c4     libvcruntime:ehhelpers.obj
 0002:0000b6c4       $unwind$??_Gbad_exception@std@@UEAAPEAXI@Z 000000018002e6c4     libvcruntime:frame.obj
 0002:0000b6c4       $unwind$?ExFilterRethrowFH4@@YAHPEAU_EXCEPTION_POINTERS@@PEAUEHExceptionRecord@@HPEAH@Z 000000018002e6c4     libvcruntime:frame.obj
 0002:0000b6c4       $unwind$_FindAndUnlinkFrame 000000018002e6c4     libvcruntime:risctrnsctrl.obj
 0002:0000b6c4       $unwind$__vcrt_FlsSetValue 000000018002e6c4     libvcruntime:winapi_downlevel.obj
 0002:0000b6c4       $unwind$??$common_initialize_environment_nolock@D@@YAHXZ 000000018002e6c4     libucrt:environment_initialization.obj
 0002:0000b6c4       $unwind$_realloc_base      000000018002e6c4     libucrt:realloc_base.obj
 0002:0000b6c4       $unwind$?replace_current_thread_locale_nolock@@YAXQEAU__acrt_ptd@@QEAU__crt_locale_data@@@Z 000000018002e6c4     libucrt:per_thread_data.obj
 0002:0000b6c4       $unwind$__acrt_execute_uninitializers 000000018002e6c4     libucrt:shared_initialization.obj
 0002:0000b6c4       $unwind$__acrt_FlsSetValue 000000018002e6c4     libucrt:winapi_thunks.obj
 0002:0000b6c4       $unwind$__acrt_LocaleNameToLCID 000000018002e6c4     libucrt:winapi_thunks.obj
 0002:0000b6c4       $unwind$_updatetlocinfoEx_nolock 000000018002e6c4     libucrt:locale_refcounting.obj
 0002:0000b6c4       $unwind$_close_nolock      000000018002e6c4     libucrt:close.obj
 0002:0000b6c4       $unwind$__acrt_uninitialize_lowio 000000018002e6c4     libucrt:ioinit.obj
 0002:0000b6c4       $unwind$__acrt_errno_map_os_error 000000018002e6c4     libucrt:errno.obj
 0002:0000b6c4       $unwind$_initterm_e        000000018002e6c4     libucrt:initterm.obj
 0002:0000b6c4       $unwind$_fclose_nolock     000000018002e6c4     libucrt:fclose.obj
 0002:0000b6c4       $unwind$?type_case_n@?$output_processor@_WV?$string_output_adapter@_W@__crt_stdio_output@@V?$format_validation_base@_WV?$string_output_adapter@_W@__crt_stdio_output@@@2@@__crt_stdio_output@@AEAA_NXZ 000000018002e6c4     libucrt:output.obj
 0002:0000b6c4       $unwind$strncpy_s          000000018002e6c4     libucrt:strncpy_s.obj
 0002:0000b6c4       $unwind$wcsncpy_s          000000018002e6c4     libucrt:wcsncpy_s.obj
 0002:0000b6d0       $unwind$?ChangeBSTR@OposVariant@@QEAAXPEAPEA_WAEAJ@Z 000000018002e6d0     OposVariant.obj
 0002:0000b6d0       $unwind$?ChangeLONG@OposVariant@@QEAAXPEAJAEAJ@Z 000000018002e6d0     OposVariant.obj
 0002:0000b6d0       $unwind$?x_ismbbtype_l@@YAHPEAU__crt_locale_pointers@@IHH@Z 000000018002e6d0     libucrt:ismbbyte.obj
 0002:0000b6e0       $unwind$swprintf_s         000000018002e6e0     SpeechSynthesis.obj
 0002:0000b6f0       $unwind$?_AtlVerifyStackAvailable@_ATL_SAFE_ALLOCA_IMPL@ATL@@YA_N_K@Z 000000018002e6f0     SpeechSynthesis.obj
 0002:0000b71c       $unwind$?filt$0@?0??_AtlVerifyStackAvailable@_ATL_SAFE_ALLOCA_IMPL@ATL@@YA_N_K@Z@4HA 000000018002e71c     SpeechSynthesis.obj
 0002:0000b71c       $unwind$?fin$0@?0??dllmain_crt_process_attach@@YAHQEAUHINSTANCE__@@QEAX@Z@4HA 000000018002e71c     LIBCMT:dll_dllmain.obj
 0002:0000b71c       $unwind$?fin$0@?0??dllmain_crt_process_detach@@YAH_N@Z@4HA 000000018002e71c     LIBCMT:dll_dllmain.obj
 0002:0000b71c       $unwind$?fin$1@?0??dllmain_crt_process_detach@@YAH_N@Z@4HA 000000018002e71c     LIBCMT:dll_dllmain.obj
 0002:0000b71c       $unwind$_IsNonwritableInCurrentImage$filt$0 000000018002e71c     LIBCMT:pesect.obj
 0002:0000b71c       $unwind$?filt$0@?0??CxxCallCatchBlock@__FrameHandler4@@SAPEAXPEAU_EXCEPTION_RECORD@@@Z@4HA 000000018002e71c     libvcruntime:frame.obj
 0002:0000b71c       $unwind$_query_new_handler$fin$0 000000018002e71c     libucrt:new_handler.obj
 0002:0000b71c       $unwind$?fin$0@?0???$?RV<lambda_0ae27a3a962d80f24befdcbee591983d>@@AEAV<lambda_8d0ee55de4b1038c4002e0adecdf1839>@@V<lambda_dc504788e8f1664fe9b84e20bfb512f2>@@@?$__crt_seh_guarded_call@X@@QEAAX$$QEAV<lambda_0ae27a3a962d80f24befdcbee591983d>@@AEAV<lambda_8d0ee55de4b1038c4002e0adecdf1839>@@$$QEAV<lambda_dc504788e8f1664fe9b84e20bfb512f2>@@@Z@4HA 000000018002e71c     libucrt:per_thread_data.obj
 0002:0000b71c       $unwind$?fin$0@?0???$?RV<lambda_2d41944a1d46af3157314b8a01080d33>@@AEAV<lambda_8f455de75cd7d7f24b4096f044d8b9e6>@@V<lambda_aa500f224e6afead328df44964fe2772>@@@?$__crt_seh_guarded_call@X@@QEAAX$$QEAV<lambda_2d41944a1d46af3157314b8a01080d33>@@AEAV<lambda_8f455de75cd7d7f24b4096f044d8b9e6>@@$$QEAV<lambda_aa500f224e6afead328df44964fe2772>@@@Z@4HA 000000018002e71c     libucrt:per_thread_data.obj
 0002:0000b71c       $unwind$?fin$0@?0???$?RV<lambda_aa87e3671a710a21b5dc78c0bdf72e11>@@AEAV<lambda_92619d2358a28f41a33ba319515a20b9>@@V<lambda_6992ecaafeb10aed2b74cb1fae11a551>@@@?$__crt_seh_guarded_call@X@@QEAAX$$QEAV<lambda_aa87e3671a710a21b5dc78c0bdf72e11>@@AEAV<lambda_92619d2358a28f41a33ba319515a20b9>@@$$QEAV<lambda_6992ecaafeb10aed2b74cb1fae11a551>@@@Z@4HA 000000018002e71c     libucrt:per_thread_data.obj
 0002:0000b71c       $unwind$?fin$0@?0???$?RV<lambda_f2e299630e499de9f9a165e60fcd3db5>@@AEAV<lambda_2ae9d31cdba2644fcbeaf08da7c24588>@@V<lambda_40d01ff24d0e7b3814fdbdcee8eab3c7>@@@?$__crt_seh_guarded_call@X@@QEAAX$$QEAV<lambda_f2e299630e499de9f9a165e60fcd3db5>@@AEAV<lambda_2ae9d31cdba2644fcbeaf08da7c24588>@@$$QEAV<lambda_40d01ff24d0e7b3814fdbdcee8eab3c7>@@@Z@4HA 000000018002e71c     libucrt:per_thread_data.obj
 0002:0000b71c       $unwind$__acrt_update_thread_locale_data$fin$0 000000018002e71c     libucrt:locale_refcounting.obj
 0002:0000b71c       $unwind$?fin$0@?0???$?RV<lambda_410d79af7f07d98d83a3f525b3859a53>@@AEAV<lambda_3e16ef9562a7dcce91392c22ab16ea36>@@V<lambda_38119f0e861e05405d8a144b9b982f0a>@@@?$__crt_seh_guarded_call@X@@QEAAX$$QEAV<lambda_410d79af7f07d98d83a3f525b3859a53>@@AEAV<lambda_3e16ef9562a7dcce91392c22ab16ea36>@@$$QEAV<lambda_38119f0e861e05405d8a144b9b982f0a>@@@Z@4HA 000000018002e71c     libucrt:wsetlocale.obj
 0002:0000b71c       $unwind$?fin$0@?0???$?RV<lambda_751a882b2c74d4b022dec766aa51a29a>@@AEAV<lambda_628dfdc04ba53c8bfc02c9951375f3f5>@@V<lambda_f6c7be5f7998530c34de24c7437d6b54>@@@?$__crt_seh_guarded_call@H@@QEAAH$$QEAV<lambda_751a882b2c74d4b022dec766aa51a29a>@@AEAV<lambda_628dfdc04ba53c8bfc02c9951375f3f5>@@$$QEAV<lambda_f6c7be5f7998530c34de24c7437d6b54>@@@Z@4HA 000000018002e71c     libucrt:close.obj
 0002:0000b71c       $unwind$?fin$0@?0???$?RV<lambda_a37b2b86f63e897a80ea819b0eb08c01>@@AEAV<lambda_38ce7e780aa69e748d6df282ebc68efe>@@V<lambda_99fb1378e971ab6e7edea83e3a7a83a2>@@@?$__crt_seh_guarded_call@H@@QEAAH$$QEAV<lambda_a37b2b86f63e897a80ea819b0eb08c01>@@AEAV<lambda_38ce7e780aa69e748d6df282ebc68efe>@@$$QEAV<lambda_99fb1378e971ab6e7edea83e3a7a83a2>@@@Z@4HA 000000018002e71c     libucrt:commit.obj
 0002:0000b71c       $unwind$__acrt_initialize_lowio$fin$0 000000018002e71c     libucrt:ioinit.obj
 0002:0000b71c       $unwind$__acrt_lowio_ensure_fh_exists$fin$0 000000018002e71c     libucrt:osfinfo.obj
 0002:0000b71c       $unwind$_write$fin$0       000000018002e71c     libucrt:write.obj
 0002:0000b71c       $unwind$?fin$0@?0???$?RV<lambda_efdfa57d1f175319df784efa44bb7b81>@@AEAV<lambda_5f0a4c1567f8adc6734073e5d1e1b35c>@@V<lambda_2e8a7d3640ea6ccb4c2413664c2db6fd>@@@?$__crt_seh_guarded_call@X@@QEAAX$$QEAV<lambda_efdfa57d1f175319df784efa44bb7b81>@@AEAV<lambda_5f0a4c1567f8adc6734073e5d1e1b35c>@@$$QEAV<lambda_2e8a7d3640ea6ccb4c2413664c2db6fd>@@@Z@4HA 000000018002e71c     libucrt:mbctype.obj
 0002:0000b71c       $unwind$?fin$0@?0??update_thread_multibyte_data_internal@@YAPEAU__crt_multibyte_data@@QEAU__acrt_ptd@@QEAPEAU1@@Z@4HA 000000018002e71c     libucrt:mbctype.obj
 0002:0000b71c       $unwind$?fin$0@?0???$?RV<lambda_450d765d439847d4c735a33c368b5fc0>@@AEAV<lambda_44731a7d0e6d81c3e6aa82d741081786>@@V<lambda_601a2a7da3b7a96e9554ac7215c4b07c>@@@?$__crt_seh_guarded_call@P6AXH@Z@@QEAAP6AXH@Z$$QEAV<lambda_450d765d439847d4c735a33c368b5fc0>@@AEAV<lambda_44731a7d0e6d81c3e6aa82d741081786>@@$$QEAV<lambda_601a2a7da3b7a96e9554ac7215c4b07c>@@@Z@4HA 000000018002e71c     libucrt:signal.obj
 0002:0000b71c       $unwind$raise$fin$0        000000018002e71c     libucrt:signal.obj
 0002:0000b71c       $unwind$?filt$0@?0???R<lambda_6e4b09c48022b2350581041d5f6b0c4c>@@QEBA@XZ@4HA 000000018002e71c     libucrt:exit.obj
 0002:0000b71c       $unwind$?fin$0@?0???$?RV<lambda_d80eeec6fff315bfe5c115232f3240e3>@@AEAV<lambda_6e4b09c48022b2350581041d5f6b0c4c>@@V<lambda_2358e3775559c9db80273638284d5e45>@@@?$__crt_seh_guarded_call@X@@QEAAX$$QEAV<lambda_d80eeec6fff315bfe5c115232f3240e3>@@AEAV<lambda_6e4b09c48022b2350581041d5f6b0c4c>@@$$QEAV<lambda_2358e3775559c9db80273638284d5e45>@@@Z@4HA 000000018002e71c     libucrt:exit.obj
 0002:0000b71c       $unwind$?fin$0@?0???$?RV<lambda_638799b9deba96c50f710eeac98168cd>@@AEAV<lambda_22ebabd17bc4fa466a2aca6d8deb888d>@@V<lambda_a6f7d7db0129f75315ebf26d50c089f1>@@@?$__crt_seh_guarded_call@H@@QEAAH$$QEAV<lambda_638799b9deba96c50f710eeac98168cd>@@AEAV<lambda_22ebabd17bc4fa466a2aca6d8deb888d>@@$$QEAV<lambda_a6f7d7db0129f75315ebf26d50c089f1>@@@Z@4HA 000000018002e71c     libucrt:onexit.obj
 0002:0000b71c       $unwind$?fin$0@?0???$?RV<lambda_7777bce6b2f8c936911f934f8298dc43>@@AEAV<lambda_f03950bc5685219e0bcd2087efbe011e>@@V<lambda_3883c3dff614d5e0c5f61bb1ac94921c>@@@?$__crt_seh_guarded_call@H@@QEAAH$$QEAV<lambda_7777bce6b2f8c936911f934f8298dc43>@@AEAV<lambda_f03950bc5685219e0bcd2087efbe011e>@@$$QEAV<lambda_3883c3dff614d5e0c5f61bb1ac94921c>@@@Z@4HA 000000018002e71c     libucrt:onexit.obj
 0002:0000b71c       $unwind$_fcloseall$fin$0   000000018002e71c     libucrt:closeall.obj
 0002:0000b71c       $unwind$fclose$fin$0       000000018002e71c     libucrt:fclose.obj
 0002:0000b71c       $unwind$?fin$0@?0???$?RV<lambda_842d9ff0dc9ef11c61343bbaebe7f885>@@AEAV<lambda_c5860995281e5c4ce005b3de8f5874ee>@@V<lambda_d90129c13df834fdcbf8d2b88dafcf2d>@@@?$__crt_seh_guarded_call@X@@QEAAX$$QEAV<lambda_842d9ff0dc9ef11c61343bbaebe7f885>@@AEAV<lambda_c5860995281e5c4ce005b3de8f5874ee>@@$$QEAV<lambda_d90129c13df834fdcbf8d2b88dafcf2d>@@@Z@4HA 000000018002e71c     libucrt:fflush.obj
 0002:0000b71c       $unwind$?fin$0@?0???$?RV<lambda_886d6c58226a84441f68b9f2b8217b83>@@AEAV<lambda_ab61a845afdef5b7c387490eaf3616ee>@@V<lambda_f7f22ab5edc0698d5f6905b0d3f44752>@@@?$__crt_seh_guarded_call@X@@QEAAX$$QEAV<lambda_886d6c58226a84441f68b9f2b8217b83>@@AEAV<lambda_ab61a845afdef5b7c387490eaf3616ee>@@$$QEAV<lambda_f7f22ab5edc0698d5f6905b0d3f44752>@@@Z@4HA 000000018002e71c     libucrt:fflush.obj
 0002:0000b71c       $unwind$_ctrlfp$filt$0     000000018002e71c     libucrt:fpctrl.obj
 0002:0000b71c       $unwind$common_control87$filt$0 000000018002e71c     libucrt:ieee.obj
 0002:0000b724       $unwind$?AtlInternalOleLoadFromStream@ATL@@YAJPEAUIStream@@AEBU_GUID@@PEAPEAXTClassesAllowedInStream@1@K@Z 000000018002e724     SpeechSynthesis.obj
 0002:0000b740       $unwind$?ReadFromStream@CComBSTR@ATL@@QEAAJPEAUIStream@@@Z 000000018002e740     SpeechSynthesis.obj
 0002:0000b740       $unwind$_configure_narrow_argv 000000018002e740     libucrt:argv_parsing.obj
 0002:0000b754       $unwind$?WriteToStream@CComVariant@ATL@@QEAAJPEAUIStream@@@Z 000000018002e754     SpeechSynthesis.obj
 0002:0000b768       $unwind$?RegOpenKeyExW@CAtlTransactionManager@ATL@@QEAAJPEAUHKEY__@@PEB_WKKPEAPEAU3@@Z 000000018002e768     SpeechSynthesis.obj
 0002:0000b768       $unwind$?WriteToStream@CComVariant@ATL@@QEAAJPEAUIStream@@G@Z 000000018002e768     SpeechSynthesis.obj
 0002:0000b768       $unwind$__dcrt_write_console 000000018002e768     libucrt:initcon.obj
 0002:0000b768       $unwind$??$__acrt_wcs_to_mbs_cp@U__crt_win32_buffer_no_resizing@@@@YAHQEB_WAEAV?$__crt_win32_buffer@DU__crt_win32_buffer_no_resizing@@@@I@Z 000000018002e768     libucrt:getmodulefilenamea.obj
 0002:0000b77c       $unwind$?ReadFromStream@CComVariant@ATL@@QEAAJPEAUIStream@@GTClassesAllowedInStream@2@K@Z 000000018002e77c     SpeechSynthesis.obj
 0002:0000b794       $unwind$?GetSizeMax@CComVariant@ATL@@QEBAJPEAT_ULARGE_INTEGER@@@Z 000000018002e794     SpeechSynthesis.obj
 0002:0000b7ac       $unwind$?RegCreateKeyExW@CAtlTransactionManager@ATL@@QEAAJPEAUHKEY__@@PEB_WKPEA_WKKQEAU_SECURITY_ATTRIBUTES@@PEAPEAU3@PEAK@Z 000000018002e7ac     SpeechSynthesis.obj
 0002:0000b7c0       $unwind$?GetGITPtr@CAtlModule@ATL@@UEAAJPEAPEAUIGlobalInterfaceTable@@@Z 000000018002e7c0     SpeechSynthesis.obj
 0002:0000b7c0       $unwind$?RegDeleteKeyW@CAtlTransactionManager@ATL@@QEAAJPEAUHKEY__@@PEB_W@Z 000000018002e7c0     SpeechSynthesis.obj
 0002:0000b7c0       $unwind$?getStateFromIterators@UWMap4@FH4@@SAHAEBViterator@12@H0H0@Z 000000018002e7c0     libvcruntime:frame.obj
 0002:0000b7d0       $unwind$?AtlHiMetricToPixel@ATL@@YAXPEBUtagSIZE@@PEAU2@@Z 000000018002e7d0     SpeechSynthesis.obj
 0002:0000b7d0       $unwind$?AtlInternalQueryInterface@ATL@@YAJPEAXPEBU_ATL_INTMAP_ENTRY@1@AEBU_GUID@@PEAPEAX@Z 000000018002e7d0     SpeechSynthesis.obj
 0002:0000b7e8       $unwind$?Append@CParseBuffer@CRegParser@ATL@@QEAAHPEB_WH@Z 000000018002e7e8     SpeechSynthesis.obj
 0002:0000b7e8       $unwind$?AtlComModuleGetClassObject@ATL@@YAJPEAU_ATL_COM_MODULE70@1@AEBU_GUID@@1PEAPEAX@Z 000000018002e7e8     SpeechSynthesis.obj
 0002:0000b7e8       $unwind$?EnumConnections@?$IConnectionPointImpl@VCOPOSSpeechSynthesis@@$1?DIID__IOPOSSpeechSynthesisEvents@@3U_GUID@@BVCComDynamicUnkArray@ATL@@@ATL@@UEAAJPEAPEAUIEnumConnections@@@Z 000000018002e7e8     SpeechSynthesis.obj
 0002:0000b7e8       $unwind$?EnumConnections@?$IConnectionPointImpl@VCOPOSSpeechSynthesis@@$1?IID_IPropertyNotifySink@@3U_GUID@@BVCComDynamicUnkArray@ATL@@@ATL@@UEAAJPEAPEAUIEnumConnections@@@Z 000000018002e7e8     SpeechSynthesis.obj
 0002:0000b7e8       $unwind$?GetClassObject@CComModule@ATL@@QEAAJAEBU_GUID@@0PEAPEAX@Z 000000018002e7e8     SpeechSynthesis.obj
 0002:0000b7e8       $unwind$?Init@?$CComEnumImpl@UIEnumConnectionPoints@@$1?_GUID_b196b285_bab4_101a_b69c_00aa00341d07@@3U__s_GUID@@BPEAUIConnectionPoint@@V?$_CopyInterface@UIConnectionPoint@@@ATL@@@ATL@@QEAAJPEAPEAUIConnectionPoint@@0PEAUIUnknown@@W4CComEnumFlags@2@@Z 000000018002e7e8     SpeechSynthesis.obj
 0002:0000b7e8       $unwind$?Init@?$CComEnumImpl@UIEnumConnections@@$1?_GUID_b196b287_bab4_101a_b69c_00aa00341d07@@3U__s_GUID@@BUtagCONNECTDATA@@V?$_Copy@UtagCONNECTDATA@@@ATL@@@ATL@@QEAAJPEAUtagCONNECTDATA@@0PEAUIUnknown@@W4CComEnumFlags@2@@Z 000000018002e7e8     SpeechSynthesis.obj
 0002:0000b7e8       $unwind$?NextToken@CRegParser@ATL@@IEAAJPEA_W@Z 000000018002e7e8     SpeechSynthesis.obj
 0002:0000b7e8       $unwind$__acrt_fp_strflt_to_string 000000018002e7e8     libucrt:_fptostr.obj
 0002:0000b7e8       $unwind$__acrt_DownlevelLocaleNameToLCID 000000018002e7e8     libucrt:lcidtoname_downlevel.obj
 0002:0000b7e8       $unwind$??R<lambda_f03950bc5685219e0bcd2087efbe011e>@@QEBAHXZ 000000018002e7e8     libucrt:onexit.obj
 0002:0000b800       $unwind$?AtlRegisterClassCategoriesHelper@ATL@@YAJAEBU_GUID@@PEBU_ATL_CATMAP_ENTRY@1@H@Z 000000018002e800     SpeechSynthesis.obj
 0002:0000b824       $unwind$?AtlLoadTypeLib@ATL@@YAJPEAUHINSTANCE__@@PEB_WPEAPEA_WPEAPEAUITypeLib@@@Z 000000018002e824     SpeechSynthesis.obj
 0002:0000b844       $unwind$?AtlRegisterTypeLib@ATL@@YAJPEAUHINSTANCE__@@PEB_W@Z 000000018002e844     SpeechSynthesis.obj
 0002:0000b860       $unwind$?AtlUnRegisterTypeLib@ATL@@YAJPEAUHINSTANCE__@@PEB_W@Z 000000018002e860     SpeechSynthesis.obj
 0002:0000b868       $unwind$?GetTI@CComTypeInfoHolder@ATL@@QEAAJK@Z 000000018002e868     SpeechSynthesis.obj
 0002:0000b868       $unwind$?RecurseDeleteKey@CRegKey@ATL@@QEAAJPEB_W@Z 000000018002e868     SpeechSynthesis.obj
 0002:0000b888       $unwind$?UpdateRegistryFromResource@CAtlModule@ATL@@QEAAJIHPEAU_ATL_REGMAP_ENTRY@2@@Z 000000018002e888     SpeechSynthesis.obj
 0002:0000b888       $unwind$?UpdateRegistryFromResource@CAtlModule@ATL@@QEAAJPEB_WHPEAU_ATL_REGMAP_ENTRY@2@@Z 000000018002e888     SpeechSynthesis.obj
 0002:0000b8a8       $unwind$?Lookup@?$CSimpleMap@PEA_WPEA_WVCExpansionVectorEqualHelper@ATL@@@ATL@@QEBAPEA_WAEBQEA_W@Z 000000018002e8a8     SpeechSynthesis.obj
 0002:0000b8a8       $unwind$__std_exception_copy 000000018002e8a8     libvcruntime:std_exception.obj
 0002:0000b8a8       $unwind$_free_osfhnd       000000018002e8a8     libucrt:osfinfo.obj
 0002:0000b8bc       $unwind$?Add@CExpansionVector@ATL@@QEAAHPEB_W0@Z 000000018002e8bc     SpeechSynthesis.obj
 0002:0000b8d4       $unwind$?PreProcessBuffer@CRegParser@ATL@@QEAAJPEA_WPEAPEA_W@Z 000000018002e8d4     SpeechSynthesis.obj
 0002:0000b8f8       $unwind$?RegisterBuffer@CRegParser@ATL@@QEAAJPEA_WH@Z 000000018002e8f8     SpeechSynthesis.obj
 0002:0000b918       $unwind$?AddValue@CRegParser@ATL@@IEAAJAEAVCRegKey@2@PEB_WPEA_W@Z 000000018002e918     SpeechSynthesis.obj
 0002:0000b938       $unwind$?RegisterSubkeys@CRegParser@ATL@@IEAAJPEA_WPEAUHKEY__@@HH@Z 000000018002e938     SpeechSynthesis.obj
 0002:0000b958       $unwind$?SkipAssignment@CRegParser@ATL@@IEAAJPEA_W@Z 000000018002e958     SpeechSynthesis.obj
 0002:0000b970       $unwind$?RegisterFromResource@CRegObject@ATL@@IEAAJPEB_W00H@Z 000000018002e970     SpeechSynthesis.obj
 0002:0000b990       $unwind$?Cleanup@CComTypeInfoHolder@ATL@@SAX_K@Z 000000018002e990     SpeechSynthesis.obj
 0002:0000b990       $unwind$AtlThunk_FreeData  000000018002e990     atls:atlthunk.obj
 0002:0000b990       $unwind$_free_base         000000018002e990     libucrt:free_base.obj
 0002:0000b990       $unwind$?destroy_fls@@YAXPEAX@Z 000000018002e990     libucrt:per_thread_data.obj
 0002:0000b990       $unwind$__acrt_locale_free_numeric 000000018002e990     libucrt:initnum.obj
 0002:0000b990       $unwind$__acrt_locale_free_lc_time_if_unreferenced 000000018002e990     libucrt:locale_refcounting.obj
 0002:0000b998       $unwind$?GetIDsOfNames@CComTypeInfoHolder@ATL@@QEAAJAEBU_GUID@@PEAPEA_WIKPEAJ@Z 000000018002e998     SpeechSynthesis.obj
 0002:0000b9b4       $unwind$?LoadNameCache@CComTypeInfoHolder@ATL@@QEAAJPEAUITypeInfo@@@Z 000000018002e9b4     SpeechSynthesis.obj
 0002:0000b9c8       $unwind$?StartWindowProc@?$CWindowImplBaseT@VCWindow@ATL@@V?$CWinTraits@$0FGAAAAAA@$0A@@2@@ATL@@SA_JPEAUHWND__@@I_K_J@Z 000000018002e9c8     SpeechSynthesis.obj
 0002:0000b9c8       $unwind$?should_round_up@@YA_NQEBN_KFW4__acrt_rounding_mode@@@Z 000000018002e9c8     libucrt:cvt.obj
 0002:0000b9c8       $unwind$??$parse_command_line@D@@YAXPEADPEAPEAD0PEA_K2@Z 000000018002e9c8     libucrt:argv_parsing.obj
 0002:0000b9e4       $unwind$?WindowProc@?$CWindowImplBaseT@VCWindow@ATL@@V?$CWinTraits@$0FGAAAAAA@$0A@@2@@ATL@@SA_JPEAUHWND__@@I_K_J@Z 000000018002e9e4     SpeechSynthesis.obj
 0002:0000b9fc       $unwind$?atlCreate@?$CWindowImplBaseT@VCWindow@ATL@@V?$CWinTraits@$0FGAAAAAA@$0A@@2@@ATL@@QEAAPEAUHWND__@@PEAU3@V_U_RECT@2@PEB_WKKV_U_MENUorID@2@GPEAX@Z 000000018002e9fc     SpeechSynthesis.obj
 0002:0000ba14       $unwind$??$AtlModuleRegisterWndClassInfoT@VAtlModuleRegisterWndClassInfoParamW@ATL@@@ATL@@YAGPEAU_ATL_BASE_MODULE70@0@PEAU_ATL_WIN_MODULE70@0@PEAU_ATL_WNDCLASSINFOW@0@PEAP6A_JPEAUHWND__@@I_K_J@ZVAtlModuleRegisterWndClassInfoParamW@0@@Z 000000018002ea14     SpeechSynthesis.obj
 0002:0000ba34       $unwind$?GetZoomInfo@CComControlBase@ATL@@QEAAXAEAUATL_DRAWINFO@@@Z 000000018002ea34     SpeechSynthesis.obj
 0002:0000ba34       $unwind$?OnKillFocus@CComControlBase@ATL@@QEAA_JI_K_JAEAH@Z 000000018002ea34     SpeechSynthesis.obj
 0002:0000ba34       $unwind$iswctype           000000018002ea34     libucrt:iswctype.obj
 0002:0000ba40       $unwind$?SendOnDataChange@CComControlBase@ATL@@QEAAJK@Z 000000018002ea40     SpeechSynthesis.obj
 0002:0000ba50       $unwind$?OnSetFocus@CComControlBase@ATL@@QEAA_JI_K_JAEAH@Z 000000018002ea50     SpeechSynthesis.obj
 0002:0000ba60       $unwind$?OnMouseActivate@CComControlBase@ATL@@QEAA_JI_K_JAEAH@Z 000000018002ea60     SpeechSynthesis.obj
 0002:0000ba68       $unwind$?GetAmbientLocaleID@CComControlBase@ATL@@QEAAJAEAK@Z 000000018002ea68     SpeechSynthesis.obj
 0002:0000ba68       $unwind$?GetAmbientUserMode@CComControlBase@ATL@@QEAAJAEAH@Z 000000018002ea68     SpeechSynthesis.obj
 0002:0000ba78       $unwind$?IQuickActivate_QuickActivate@CComControlBase@ATL@@QEAAJPEAUtagQACONTAINER@@PEAUtagQACONTROL@@@Z 000000018002ea78     SpeechSynthesis.obj
 0002:0000ba90       $unwind$?DoVerbProperties@CComControlBase@ATL@@QEAAJPEBUtagRECT@@PEAUHWND__@@@Z 000000018002ea90     SpeechSynthesis.obj
 0002:0000baa8       $unwind$?InPlaceActivate@CComControlBase@ATL@@QEAAJJPEBUtagRECT@@@Z 000000018002eaa8     SpeechSynthesis.obj
 0002:0000bac8       $unwind$?IOleObject_Close@CComControlBase@ATL@@QEAAJK@Z 000000018002eac8     SpeechSynthesis.obj
 0002:0000bac8       $unwind$?type_case_c_tchar@?$output_processor@_WV?$string_output_adapter@_W@__crt_stdio_output@@V?$format_validation_base@_WV?$string_output_adapter@_W@__crt_stdio_output@@@2@@__crt_stdio_output@@AEAA_N_W@Z 000000018002eac8     libucrt:output.obj
 0002:0000bad8       $unwind$?IOleInPlaceObject_UIDeactivate@CComControlBase@ATL@@QEAAJXZ 000000018002ead8     SpeechSynthesis.obj
 0002:0000baf0       $unwind$?IOleInPlaceObject_SetObjectRects@CComControlBase@ATL@@QEAAJPEBUtagRECT@@0@Z 000000018002eaf0     SpeechSynthesis.obj
 0002:0000bb04       $unwind$?IViewObject_Draw@CComControlBase@ATL@@QEAAJKJPEAXPEAUtagDVTARGETDEVICE@@PEAUHDC__@@2PEBU_RECTL@@3@Z 000000018002eb04     SpeechSynthesis.obj
 0002:0000bb20       $unwind$?IDataObject_GetData@CComControlBase@ATL@@QEAAJPEAUtagFORMATETC@@PEAUtagSTGMEDIUM@@@Z 000000018002eb20     SpeechSynthesis.obj
 0002:0000bb40       $unwind$?OnPaint@CComControlBase@ATL@@QEAA_JI_K_JAEAH@Z 000000018002eb40     SpeechSynthesis.obj
 0002:0000bb5c       $unwind$?OnDrawAdvanced@CComControlBase@ATL@@UEAAJAEAUATL_DRAWINFO@@@Z 000000018002eb5c     SpeechSynthesis.obj
 0002:0000bb78       $unwind$?Invoke@?$IDispatchImpl@UIOPOSSpeechSynthesis@@$1?IID_IOPOSSpeechSynthesis@@3U_GUID@@B$1?LIBID_OposSpeechSynthesis_CCO@@3U3@B$00$0A@VCComTypeInfoHolder@ATL@@@ATL@@UEAAJJAEBU_GUID@@KGPEAUtagDISPPARAMS@@PEAUtagVARIANT@@PEAUtagEXCEPINFO@@PEAI@Z 000000018002eb78     SpeechSynthesis.obj
 0002:0000bb78       $unwind$?ReleaseDevice@COPOSSpeechSynthesis@@UEAAJPEAJ@Z 000000018002eb78     SpeechSynthesisImpl.obj
 0002:0000bb78       $unwind$_mbsdec_l          000000018002eb78     libucrt:mbsdec.obj
 0002:0000bb84       $unwind$?atlCreate@?$CWindowImpl@VCOPOSSpeechSynthesis@@VCWindow@ATL@@V?$CWinTraits@$0FGAAAAAA@$0A@@3@@ATL@@QEAAPEAUHWND__@@PEAU3@V_U_RECT@2@PEB_WKKV_U_MENUorID@2@PEAX@Z 000000018002eb84     SpeechSynthesis.obj
 0002:0000bb84       $unwind$?fp_format_e@@YAHQEBNQEAD_K12H_NIQEAU__crt_locale_pointers@@W4__acrt_rounding_mode@@@Z 000000018002eb84     libucrt:cvt.obj
 0002:0000bb84       $unwind$_mbtowc_l          000000018002eb84     libucrt:mbtowc.obj
 0002:0000bb84       $unwind$__acrt_LCMapStringEx 000000018002eb84     libucrt:winapi_thunks.obj
 0002:0000bb98       $unwind$?CreateControlWindow@?$CComControl@VCOPOSSpeechSynthesis@@V?$CWindowImpl@VCOPOSSpeechSynthesis@@VCWindow@ATL@@V?$CWinTraits@$0FGAAAAAA@$0A@@3@@ATL@@@ATL@@UEAAPEAUHWND__@@PEAU3@AEAUtagRECT@@@Z 000000018002eb98     SpeechSynthesis.obj
 0002:0000bb98       $unwind$?ClearOutput@COPOSSpeechSynthesis@@UEAAJPEAJ@Z 000000018002eb98     SpeechSynthesisImpl.obj
 0002:0000bb98       $unwind$?StopCurrentSpeaking@COPOSSpeechSynthesis@@UEAAJPEAJ@Z 000000018002eb98     SpeechSynthesisImpl.obj
 0002:0000bb98       $unwind$?__scrt_throw_std_bad_alloc@@YAXXZ 000000018002eb98     LIBCMT:throw_bad_alloc.obj
 0002:0000bb98       $unwind$?__scrt_throw_std_bad_array_new_length@@YAXXZ 000000018002eb98     LIBCMT:throw_bad_alloc.obj
 0002:0000bb98       $unwind$_raise_exc         000000018002eb98     libucrt:fpexcept.obj
 0002:0000bba0       $unwind$?GetSizeMax@?$IPersistStreamInitImpl@VCOPOSSpeechSynthesis@@@ATL@@UEAAJPEAT_ULARGE_INTEGER@@@Z 000000018002eba0     SpeechSynthesis.obj
 0002:0000bbb8       $unwind$?IPersistStreamInit_Load@?$IPersistStreamInitImpl@VCOPOSSpeechSynthesis@@@ATL@@QEAAJPEAUIStream@@PEBUATL_PROPMAP_ENTRY@2@@Z 000000018002ebb8     SpeechSynthesis.obj
 0002:0000bbd4       $unwind$?IPersistStreamInit_Save@?$IPersistStreamInitImpl@VCOPOSSpeechSynthesis@@@ATL@@QEAAJPEAUIStream@@HPEBUATL_PROPMAP_ENTRY@2@@Z 000000018002ebd4     SpeechSynthesis.obj
 0002:0000bbf0       $unwind$?DoVerbPrimary@?$IOleObjectImpl@VCOPOSSpeechSynthesis@@@ATL@@QEAAJPEBUtagRECT@@PEAUHWND__@@@Z 000000018002ebf0     SpeechSynthesis.obj
 0002:0000bc08       $unwind$?TranslateAcceleratorW@?$IOleInPlaceActiveObjectImpl@VCOPOSSpeechSynthesis@@@ATL@@UEAAJPEAUtagMSG@@@Z 000000018002ec08     SpeechSynthesis.obj
 0002:0000bc14       $unwind$?Draw@?$IViewObjectExImpl@VCOPOSSpeechSynthesis@@@ATL@@UEAAJKJPEAXPEAUtagDVTARGETDEVICE@@PEAUHDC__@@2PEBU_RECTL@@3P6AH_K@Z4@Z 000000018002ec14     SpeechSynthesis.obj
 0002:0000bc1c       $unwind$?QueryHitRect@?$IViewObjectExImpl@VCOPOSSpeechSynthesis@@@ATL@@UEAAJKPEBUtagRECT@@0JPEAK@Z 000000018002ec1c     SpeechSynthesis.obj
 0002:0000bc2c       $unwind$?OnWindowMessage@?$IOleInPlaceObjectWindowlessImpl@VCOPOSSpeechSynthesis@@@ATL@@UEAAJI_K_JPEA_J@Z 000000018002ec2c     SpeechSynthesis.obj
 0002:0000bc40       $unwind$?EnumConnectionPoints@?$IConnectionPointContainerImpl@VCOPOSSpeechSynthesis@@@ATL@@UEAAJPEAPEAUIEnumConnectionPoints@@@Z 000000018002ec40     SpeechSynthesis.obj
 0002:0000bc68       $unwind$?FindConnectionPoint@?$IConnectionPointContainerImpl@VCOPOSSpeechSynthesis@@@ATL@@UEAAJAEBU_GUID@@PEAPEAUIConnectionPoint@@@Z 000000018002ec68     SpeechSynthesis.obj
 0002:0000bc68       $unwind$?__mbrtoc32_utf8@__crt_mbstring@@YA_KPEA_UPEBD_KPEAU_Mbstatet@@@Z 000000018002ec68     libucrt:mbrtoc32.obj
 0002:0000bc84       $unwind$?Load@?$IPersistStorageImpl@VCOPOSSpeechSynthesis@@@ATL@@UEAAJPEAUIStorage@@@Z 000000018002ec84     SpeechSynthesis.obj
 0002:0000bc94       $unwind$?Save@?$IPersistStorageImpl@VCOPOSSpeechSynthesis@@@ATL@@UEAAJPEAUIStorage@@H@Z 000000018002ec94     SpeechSynthesis.obj
 0002:0000bca8       $unwind$?IPSI_GetIPersistStreamInit@?$IPersistStorageImpl@VCOPOSSpeechSynthesis@@@ATL@@AEAAPEAUIPersistStreamInit@@XZ 000000018002eca8     SpeechSynthesis.obj
 0002:0000bca8       $unwind$?parse_int_from_format_string@?$output_processor@_WV?$string_output_adapter@_W@__crt_stdio_output@@V?$format_validation_base@_WV?$string_output_adapter@_W@__crt_stdio_output@@@2@@__crt_stdio_output@@AEAA_NQEAH@Z 000000018002eca8     libucrt:output.obj
 0002:0000bcbc       $unwind$?GetInterfaceSafetyOptions@?$IObjectSafetyImpl@VCOPOSSpeechSynthesis@@$02@ATL@@UEAAJAEBU_GUID@@PEAK1@Z 000000018002ecbc     SpeechSynthesis.obj
 0002:0000bcd0       $unwind$?SetInterfaceSafetyOptions@?$IObjectSafetyImpl@VCOPOSSpeechSynthesis@@$02@ATL@@UEAAJAEBU_GUID@@KK@Z 000000018002ecd0     SpeechSynthesis.obj
 0002:0000bce4       $unwind$?Advise@?$IConnectionPointImpl@VCOPOSSpeechSynthesis@@$1?DIID__IOPOSSpeechSynthesisEvents@@3U_GUID@@BVCComDynamicUnkArray@ATL@@@ATL@@UEAAJPEAUIUnknown@@PEAK@Z 000000018002ece4     SpeechSynthesis.obj
 0002:0000bce4       $unwind$?Advise@?$IConnectionPointImpl@VCOPOSSpeechSynthesis@@$1?IID_IPropertyNotifySink@@3U_GUID@@BVCComDynamicUnkArray@ATL@@@ATL@@UEAAJPEAUIUnknown@@PEAK@Z 000000018002ece4     SpeechSynthesis.obj
 0002:0000bcf8       $unwind$?Fire_DirectIOEvent@?$CProxy_IOPOSEvents@VCOPOSSpeechSynthesis@@@@QEAAXJPEAJPEAPEA_W@Z 000000018002ecf8     SpeechSynthesis.obj
 0002:0000bd18       $unwind$?Fire_ErrorEvent@?$CProxy_IOPOSEvents@VCOPOSSpeechSynthesis@@@@QEAAXJJJPEAJ@Z 000000018002ed18     SpeechSynthesis.obj
 0002:0000bd38       $unwind$?Fire_OutputCompleteEvent@?$CProxy_IOPOSEvents@VCOPOSSpeechSynthesis@@@@QEAAXJ@Z 000000018002ed38     SpeechSynthesis.obj
 0002:0000bd38       $unwind$?Fire_StatusUpdateEvent@?$CProxy_IOPOSEvents@VCOPOSSpeechSynthesis@@@@QEAAXJ@Z 000000018002ed38     SpeechSynthesis.obj
 0002:0000bd50       $unwind$?FireTheEvent@?$CProxy_IOPOSEvents@VCOPOSSpeechSynthesis@@@@IEAAXPEAVOposVariant@@IAEAJPEB_WJ@Z 000000018002ed50     SpeechSynthesis.obj
 0002:0000bd60       $unwind$?ProcessWindowMessage@COPOSSpeechSynthesis@@UEAAHPEAUHWND__@@I_K_JAEA_JK@Z 000000018002ed60     SpeechSynthesis.obj
 0002:0000bd60       $unwind$__dcrt_get_narrow_environment_from_os 000000018002ed60     libucrt:get_environment_from_os.obj
 0002:0000bd60       $unwind$?fp_format_f_internal@@YAHQEAD_KHQEAU_strflt@@_NQEAU__crt_locale_pointers@@@Z 000000018002ed60     libucrt:cvt.obj
 0002:0000bd60       $unwind$??$__acrt_wcs_to_mbs_cp@U__crt_win32_buffer_internal_dynamic_resizing@@@@YAHQEB_WAEAV?$__crt_win32_buffer@DU__crt_win32_buffer_internal_dynamic_resizing@@@@I@Z 000000018002ed60     libucrt:argv_wildcards.obj
 0002:0000bd78       $unwind$?SOError@COPOSSpeechSynthesis@@MEAAJJJJPEAJ@Z 000000018002ed78     SpeechSynthesis.obj
 0002:0000bd78       $unwind$_invalid_parameter 000000018002ed78     libucrt:invalid_parameter.obj
 0002:0000bd8c       $unwind$?Clone@?$CComEnumImpl@UIEnumConnectionPoints@@$1?_GUID_b196b285_bab4_101a_b69c_00aa00341d07@@3U__s_GUID@@BPEAUIConnectionPoint@@V?$_CopyInterface@UIConnectionPoint@@@ATL@@@ATL@@UEAAJPEAPEAUIEnumConnectionPoints@@@Z 000000018002ed8c     SpeechSynthesis.obj
 0002:0000bd8c       $unwind$?Clone@?$CComEnumImpl@UIEnumConnections@@$1?_GUID_b196b287_bab4_101a_b69c_00aa00341d07@@3U__s_GUID@@BUtagCONNECTDATA@@V?$_Copy@UtagCONNECTDATA@@@ATL@@@ATL@@UEAAJPEAPEAUIEnumConnections@@@Z 000000018002ed8c     SpeechSynthesis.obj
 0002:0000bda4       $unwind$?GetOposProp@COPOSSpeechSynthesis@@IEAAJJPEAJJ@Z 000000018002eda4     SpeechSynthesisImpl.obj
 0002:0000bda4       $unwind$?GetOposProp@COPOSSpeechSynthesis@@IEAAJJPEAPEA_WJ@Z 000000018002eda4     SpeechSynthesisImpl.obj
 0002:0000bdbc       $unwind$?SetOposProp@COPOSSpeechSynthesis@@IEAAJJJJ@Z 000000018002edbc     SpeechSynthesisImpl.obj
 0002:0000bddc       $unwind$?SetOposProp@COPOSSpeechSynthesis@@IEAAJJPEA_WJ@Z 000000018002eddc     SpeechSynthesisImpl.obj
 0002:0000bdf8       $unwind$?DoInvoke@COPOSSpeechSynthesis@@IEAAJJPEAVOposVariant@@IHPEAJ_N@Z 000000018002edf8     SpeechSynthesisImpl.obj
 0002:0000be10       $unwind$?SetCOFreezeEvents@COPOSSpeechSynthesis@@IEAAXF@Z 000000018002ee10     SpeechSynthesisImpl.obj
 0002:0000be24       $unwind$?OnDraw@COPOSSpeechSynthesis@@MEAAJAEAUATL_DRAWINFO@@@Z 000000018002ee24     SpeechSynthesisImpl.obj
 0002:0000be3c       $unwind$?EventInit@COPOSSpeechSynthesis@@IEAAJXZ 000000018002ee3c     SpeechSynthesisImpl.obj
 0002:0000be50       $unwind$?EventWindowProc@COPOSSpeechSynthesis@@IEAA_JI_K_J@Z 000000018002ee50     SpeechSynthesisImpl.obj
 0002:0000be50       $unwind$__stdio_common_vswprintf_s 000000018002ee50     libucrt:output.obj
 0002:0000be5c       $unwind$?get_ControlObjectDescription@COPOSSpeechSynthesis@@UEAAJPEAPEA_W@Z 000000018002ee5c     SpeechSynthesisImpl.obj
 0002:0000be5c       $unwind$__dcrt_lowio_ensure_console_output_initialized 000000018002ee5c     libucrt:initcon.obj
 0002:0000be5c       $unwind$_isleadbyte_l      000000018002ee5c     libucrt:_wctype.obj
 0002:0000be5c       $unwind$?getSystemCP@@YAHH@Z 000000018002ee5c     libucrt:mbctype.obj
 0002:0000be64       $unwind$?CheckHealth@COPOSSpeechSynthesis@@UEAAJJPEAJ@Z 000000018002ee64     SpeechSynthesisImpl.obj
 0002:0000be64       $unwind$?ResetStatistics@COPOSSpeechSynthesis@@UEAAJPEA_WPEAJ@Z 000000018002ee64     SpeechSynthesisImpl.obj
 0002:0000be64       $unwind$?RetrieveStatistics@COPOSSpeechSynthesis@@UEAAJPEAPEA_WPEAJ@Z 000000018002ee64     SpeechSynthesisImpl.obj
 0002:0000be64       $unwind$?Speak@COPOSSpeechSynthesis@@UEAAJPEA_WPEAJ@Z 000000018002ee64     SpeechSynthesisImpl.obj
 0002:0000be64       $unwind$?SpeakImmediate@COPOSSpeechSynthesis@@UEAAJPEA_WPEAJ@Z 000000018002ee64     SpeechSynthesisImpl.obj
 0002:0000be64       $unwind$?StopSpeaking@COPOSSpeechSynthesis@@UEAAJJPEAJ@Z 000000018002ee64     SpeechSynthesisImpl.obj
 0002:0000be64       $unwind$?UpdateFirmware@COPOSSpeechSynthesis@@UEAAJPEA_WPEAJ@Z 000000018002ee64     SpeechSynthesisImpl.obj
 0002:0000be64       $unwind$?UpdateStatistics@COPOSSpeechSynthesis@@UEAAJPEA_WPEAJ@Z 000000018002ee64     SpeechSynthesisImpl.obj
 0002:0000be74       $unwind$?ClaimDevice@COPOSSpeechSynthesis@@UEAAJJPEAJ@Z 000000018002ee74     SpeechSynthesisImpl.obj
 0002:0000be84       $unwind$?Close@COPOSSpeechSynthesis@@UEAAJPEAJ@Z 000000018002ee84     SpeechSynthesisImpl.obj
 0002:0000be90       $unwind$?DirectIO@COPOSSpeechSynthesis@@UEAAJJPEAJPEAPEA_W0@Z 000000018002ee90     SpeechSynthesisImpl.obj
 0002:0000beac       $unwind$?Open@COPOSSpeechSynthesis@@UEAAJPEA_WPEAJ@Z 000000018002eeac     SpeechSynthesisImpl.obj
 0002:0000bed0       $unwind$?CompareFirmwareVersion@COPOSSpeechSynthesis@@UEAAJPEA_WPEAJ1@Z 000000018002eed0     SpeechSynthesisImpl.obj
 0002:0000bed0       $unwind$?initialize_inherited_file_handles_nolock@@YAXXZ 000000018002eed0     libucrt:ioinit.obj
 0002:0000beec       $unwind$__scrt_is_nonwritable_in_current_image 000000018002eeec     LIBCMT:utility.obj
 0002:0000bf0c       $unwind$__scrt_is_nonwritable_in_current_image$filt$0 000000018002ef0c     LIBCMT:utility.obj
 0002:0000bf14       $unwind$__report_securityfailure 000000018002ef14     LIBCMT:gs_report.obj
 0002:0000bf1c       $unwind$__report_gsfailure 000000018002ef1c     LIBCMT:gs_report.obj
 0002:0000bf24       $unwind$capture_current_context 000000018002ef24     LIBCMT:gs_report.obj
 0002:0000bf30       $unwind$capture_previous_context 000000018002ef30     LIBCMT:gs_report.obj
 0002:0000bf3c       $unwind$??2@YAPEAX_KAEBUnothrow_t@std@@@Z 000000018002ef3c     LIBCMT:new_scalar_nothrow.obj
 0002:0000bf4c       $cppxdata$??2@YAPEAX_KAEBUnothrow_t@std@@@Z 000000018002ef4c     LIBCMT:new_scalar_nothrow.obj
 0002:0000bf59       $stateUnwindMap$??2@YAPEAX_KAEBUnothrow_t@std@@@Z 000000018002ef59     LIBCMT:new_scalar_nothrow.obj
 0002:0000bf5c       $tryMap$??2@YAPEAX_KAEBUnothrow_t@std@@@Z 000000018002ef5c     LIBCMT:new_scalar_nothrow.obj
 0002:0000bf64       $handlerMap$??2@YAPEAX_KAEBUnothrow_t@std@@@Z 000000018002ef64     LIBCMT:new_scalar_nothrow.obj
 0002:0000bf6c       $ip2state$??2@YAPEAX_KAEBUnothrow_t@std@@@Z 000000018002ef6c     LIBCMT:new_scalar_nothrow.obj
 0002:0000bf70       $unwind$?catch$0@?0???2@YAPEAX_KAEBUnothrow_t@std@@@Z@4HA 000000018002ef70     LIBCMT:new_scalar_nothrow.obj
 0002:0000bf80       $cppxdata$?catch$0@?0???2@YAPEAX_KAEBUnothrow_t@std@@@Z@4HA 000000018002ef80     LIBCMT:new_scalar_nothrow.obj
 0002:0000bf8a       $stateUnwindMap$?catch$0@?0???2@YAPEAX_KAEBUnothrow_t@std@@@Z@4HA 000000018002ef8a     LIBCMT:new_scalar_nothrow.obj
 0002:0000bf8c       $ip2state$?catch$0@?0???2@YAPEAX_KAEBUnothrow_t@std@@@Z@4HA 000000018002ef8c     LIBCMT:new_scalar_nothrow.obj
 0002:0000bf90       $unwind$__GSHandlerCheckCommon 000000018002ef90     LIBCMT:gshandler.obj
 0002:0000bf98       $xdatasym                  000000018002ef98     LIBCMT:chkstk.obj
 0002:0000bfa0       $xdatasym                  000000018002efa0     LIBCMT:amdsecgs.obj
 0002:0000bfa4       $unwind$?dllmain_crt_process_attach@@YAHQEAUHINSTANCE__@@QEAX@Z 000000018002efa4     LIBCMT:dll_dllmain.obj
 0002:0000bfe0       $unwind$?dllmain_crt_process_detach@@YAH_N@Z 000000018002efe0     LIBCMT:dll_dllmain.obj
 0002:0000c034       $unwind$?dllmain_dispatch@@YAHQEAUHINSTANCE__@@KQEAX@Z 000000018002f034     LIBCMT:dll_dllmain.obj
 0002:0000c05c       $unwind$?filt$0@?0??dllmain_dispatch@@YAHQEAUHINSTANCE__@@KQEAX@Z@4HA 000000018002f05c     LIBCMT:dll_dllmain.obj
 0002:0000c05c       $unwind$?filt$0@?0??FrameUnwindToState@__FrameHandler4@@SAXPEA_KPEAU_xDISPATCHER_CONTEXT@@PEAUFuncInfo4@FH4@@H@Z@4HA 000000018002f05c     libvcruntime:frame.obj
 0002:0000c05c       $unwind$?fin$1@?0??FrameUnwindToState@__FrameHandler4@@SAXPEA_KPEAU_xDISPATCHER_CONTEXT@@PEAUFuncInfo4@FH4@@H@Z@4HA 000000018002f05c     libvcruntime:frame.obj
 0002:0000c064       $unwind$__isa_available_init 000000018002f064     LIBCMT:cpu_disp.obj
 0002:0000c074       $unwind$__scrt_fastfail    000000018002f074     LIBCMT:utility_desktop.obj
 0002:0000c084       $unwind$__security_init_cookie 000000018002f084     LIBCMT:gs_support.obj
 0002:0000c090       $xdatasym                  000000018002f090     LIBCMT:guard_dispatch.obj
 0002:0000c098       $xdatasym                  000000018002f098     LIBCMT:guard_xfg_dispatch.obj
 0002:0000c09c       $unwind$AtlThunk_InitData  000000018002f09c     atls:atlthunk.obj
 0002:0000c0b0       $unwind$wcsstr             000000018002f0b0     libvcruntime:wcsstr.obj
 0002:0000c0c8       $xdatasym                  000000018002f0c8     libvcruntime:memcmp.obj
 0002:0000c0d0       $xdatasym                  000000018002f0d0     libvcruntime:memcpy.obj
 0002:0000c0e0       $xdatasym                  000000018002f0e0     libvcruntime:memset.obj
 0002:0000c0f0       $unwind$__C_specific_handler 000000018002f0f0     libvcruntime:riscchandler.obj
 0002:0000c10c       $unwind$?DecompFuncInfo@FH4@@YA_JPEAEAEAUFuncInfo4@1@_KH_N@Z 000000018002f10c     libvcruntime:risctrnsctrl.obj
 0002:0000c124       $unwind$?UnwindNestedFrames@__FrameHandler4@@SAXPEA_KPEAUEHExceptionRecord@@PEAU_CONTEXT@@0PEAXPEAUFuncInfo4@FH4@@HHPEAUHandlerType4@5@PEAU_xDISPATCHER_CONTEXT@@E@Z 000000018002f124     libvcruntime:risctrnsctrl.obj
 0002:0000c138       $unwind$?GetRangeOfTrysToCheck@__FrameHandler4@@SA?AU?$pair@Viterator@TryBlockMap4@FH4@@V123@@std@@AEAVTryBlockMap4@FH4@@HPEAU_xDISPATCHER_CONTEXT@@PEAUFuncInfo4@5@H@Z 000000018002f138     libvcruntime:risctrnsctrl.obj
 0002:0000c154       $unwind$__CxxFrameHandler4 000000018002f154     libvcruntime:risctrnsctrl.obj
 0002:0000c168       $unwind$??$_CallSETranslator@V__FrameHandler4@@@@YAHPEAUEHExceptionRecord@@PEA_KPEAU_CONTEXT@@PEAU_xDISPATCHER_CONTEXT@@PEAUFuncInfo4@FH4@@K1H@Z 000000018002f168     libvcruntime:risctrnsctrl.obj
 0002:0000c188       $unwind$?filt$0@?0???$_CallSETranslator@V__FrameHandler4@@@@YAHPEAUEHExceptionRecord@@PEA_KPEAU_CONTEXT@@PEAU_xDISPATCHER_CONTEXT@@PEAUFuncInfo4@FH4@@K1H@Z@4HA 000000018002f188     libvcruntime:risctrnsctrl.obj
 0002:0000c194       $unwind$__DestructExceptionObject 000000018002f194     libvcruntime:ehhelpers.obj
 0002:0000c1b4       $unwind$__DestructExceptionObject$filt$0 000000018002f1b4     libvcruntime:ehhelpers.obj
 0002:0000c1b4       $unwind$?fin$1@?0??CxxCallCatchBlock@__FrameHandler4@@SAPEAXPEAU_EXCEPTION_RECORD@@@Z@4HA 000000018002f1b4     libvcruntime:frame.obj
 0002:0000c1c0       $unwind$_CxxThrowException 000000018002f1c0     libvcruntime:throw.obj
 0002:0000c1d0       $xdatasym                  000000018002f1d0     libvcruntime:notify.obj
 0002:0000c1dc       $unwind$?StateFromIp@__FrameHandler4@@SAHPEAUFuncInfo4@FH4@@PEAU_xDISPATCHER_CONTEXT@@_K@Z 000000018002f1dc     libvcruntime:ehstate.obj
 0002:0000c1f0       $unwind$?getStartStop@UWMap4@FH4@@QEAAXHHAEAViterator@12@0@Z 000000018002f1f0     libvcruntime:frame.obj
 0002:0000c208       $unwind$?FrameUnwindToState@__FrameHandler4@@SAXPEA_KPEAU_xDISPATCHER_CONTEXT@@PEAUFuncInfo4@FH4@@H@Z 000000018002f208     libvcruntime:frame.obj
 0002:0000c250       $unwind$?CxxCallCatchBlock@__FrameHandler4@@SAPEAXPEAU_EXCEPTION_RECORD@@@Z 000000018002f250     libvcruntime:frame.obj
 0002:0000c2ac       $unwind$?IsInExceptionSpec@@YAEPEAUEHExceptionRecord@@PEBU_s_ESTypeList@@@Z 000000018002f2ac     libvcruntime:frame.obj
 0002:0000c2c8       $unwind$??$__InternalCxxFrameHandler@V__FrameHandler4@@@@YA?AW4_EXCEPTION_DISPOSITION@@PEAUEHExceptionRecord@@PEA_KPEAU_CONTEXT@@PEAU_xDISPATCHER_CONTEXT@@PEAUFuncInfo4@FH4@@H1E@Z 000000018002f2c8     libvcruntime:frame.obj
 0002:0000c2e0       $unwind$??$BuildCatchObjectHelperInternal@V__FrameHandler4@@@@YAHPEAUEHExceptionRecord@@PEAXPEAUHandlerType4@FH4@@PEBU_s_CatchableType@@@Z 000000018002f2e0     libvcruntime:frame.obj
 0002:0000c320       $unwind$??$BuildCatchObjectInternal@V__FrameHandler4@@@@YAXPEAUEHExceptionRecord@@PEAXPEAUHandlerType4@FH4@@PEBU_s_CatchableType@@@Z 000000018002f320     libvcruntime:frame.obj
 0002:0000c34c       $unwind$??$FindHandler@V__FrameHandler4@@@@YAXPEAUEHExceptionRecord@@PEA_KPEAU_CONTEXT@@PEAU_xDISPATCHER_CONTEXT@@PEAUFuncInfo4@FH4@@EH1@Z 000000018002f34c     libvcruntime:frame.obj
 0002:0000c36c       $unwind$??$CatchIt@V__FrameHandler4@@@@YAXPEAUEHExceptionRecord@@PEA_KPEAU_CONTEXT@@PEAU_xDISPATCHER_CONTEXT@@PEAUFuncInfo4@FH4@@PEAUHandlerType4@4@PEBU_s_CatchableType@@PEAUTryBlockMapEntry4@4@H1EE@Z 000000018002f36c     libvcruntime:frame.obj
 0002:0000c384       $unwind$??$FindHandlerForForeignException@V__FrameHandler4@@@@YAXPEAUEHExceptionRecord@@PEA_KPEAU_CONTEXT@@PEAU_xDISPATCHER_CONTEXT@@PEAUFuncInfo4@FH4@@HH1@Z 000000018002f384     libvcruntime:frame.obj
 0002:0000c3a4       $unwind$?try_get_function@@YAPEAXW4function_id@?A0x84e3c32f@@QEBDQEBW4module_id@2@2@Z 000000018002f3a4     libvcruntime:winapi_downlevel.obj
 0002:0000c3a4       $unwind$?try_get_function@@YAPEAXW4function_id@?A0x391cf84c@@QEBDQEBW4module_id@2@2@Z 000000018002f3a4     libucrt:winapi_thunks.obj
 0002:0000c3c0       $xdatasym                  000000018002f3c0     libvcruntime:handlers.obj
 0002:0000c3e0       $unwind$__acrt_call_reportfault 000000018002f3e0     libucrt:invalid_parameter.obj
 0002:0000c400       $unwind$_resetstkoflw      000000018002f400     libucrt:resetstk.obj
 0002:0000c424       $unwind$?write_string@?$string_output_adapter@_W@__crt_stdio_output@@QEBAXQEB_WHQEAHAEAV__crt_deferred_errno_cache@@@Z 000000018002f424     libucrt:output.obj
 0002:0000c43c       $unwind$??$common_vsprintf@Vformat_validation_base@__crt_stdio_output@@_W@@YAH_KQEA_W0QEB_WQEAU__crt_locale_pointers@@QEAD@Z 000000018002f43c     libucrt:output.obj
 0002:0000c45c       $unwind$??$write_multiple_characters@V?$string_output_adapter@_W@__crt_stdio_output@@D@__crt_stdio_output@@YAXAEBV?$string_output_adapter@_W@0@DHQEAH@Z 000000018002f45c     libucrt:output.obj
 0002:0000c468       $unwind$?state_case_type@?$output_processor@_WV?$string_output_adapter@_W@__crt_stdio_output@@V?$format_validation_base@_WV?$string_output_adapter@_W@__crt_stdio_output@@@2@@__crt_stdio_output@@AEAA_NXZ 000000018002f468     libucrt:output.obj
 0002:0000c48c       $unwind$?type_case_a@?$output_processor@_WV?$string_output_adapter@_W@__crt_stdio_output@@V?$format_validation_base@_WV?$string_output_adapter@_W@__crt_stdio_output@@@2@@__crt_stdio_output@@AEAA_NXZ 000000018002f48c     libucrt:output.obj
 0002:0000c49c       $unwind$?write_stored_string_tchar@?$output_processor@_WV?$string_output_adapter@_W@__crt_stdio_output@@V?$format_validation_base@_WV?$string_output_adapter@_W@__crt_stdio_output@@@2@@__crt_stdio_output@@AEAA_N_W@Z 000000018002f49c     libucrt:output.obj
 0002:0000c4b0       $unwind$??$type_case_integer_parse_into_buffer@I@?$output_processor@_WV?$string_output_adapter@_W@__crt_stdio_output@@V?$format_validation_base@_WV?$string_output_adapter@_W@__crt_stdio_output@@@2@@__crt_stdio_output@@AEAAXII_N@Z 000000018002f4b0     libucrt:output.obj
 0002:0000c4b0       $unwind$??$type_case_integer_parse_into_buffer@_K@?$output_processor@_WV?$string_output_adapter@_W@__crt_stdio_output@@V?$format_validation_base@_WV?$string_output_adapter@_W@__crt_stdio_output@@@2@@__crt_stdio_output@@AEAAX_KI_N@Z 000000018002f4b0     libucrt:output.obj
 0002:0000c4b8       $unwind$?common_exit@@YAXHW4_crt_exit_cleanup_mode@@W4_crt_exit_return_mode@@@Z 000000018002f4b8     libucrt:exit.obj
 0002:0000c4c4       $unwind$??R<lambda_6e4b09c48022b2350581041d5f6b0c4c>@@QEBA@XZ 000000018002f4c4     libucrt:exit.obj
 0002:0000c4e4       $unwind$??$?RV<lambda_d80eeec6fff315bfe5c115232f3240e3>@@AEAV<lambda_6e4b09c48022b2350581041d5f6b0c4c>@@V<lambda_2358e3775559c9db80273638284d5e45>@@@?$__crt_seh_guarded_call@X@@QEAAX$$QEAV<lambda_d80eeec6fff315bfe5c115232f3240e3>@@AEAV<lambda_6e4b09c48022b2350581041d5f6b0c4c>@@$$QEAV<lambda_2358e3775559c9db80273638284d5e45>@@@Z 000000018002f4e4     libucrt:exit.obj
 0002:0000c508       $unwind$??$free_environment@D@@YAXQEAPEAD@Z 000000018002f508     libucrt:environment_initialization.obj
 0002:0000c508       $unwind$??$free_environment@_W@@YAXQEAPEA_W@Z 000000018002f508     libucrt:environment_initialization.obj
 0002:0000c514       $unwind$??$create_environment@D@@YAQEAPEADQEAD@Z 000000018002f514     libucrt:environment_initialization.obj
 0002:0000c52c       $unwind$_register_onexit_function 000000018002f52c     libucrt:onexit.obj
 0002:0000c534       $unwind$_execute_onexit_table 000000018002f534     libucrt:onexit.obj
 0002:0000c53c       $unwind$??R<lambda_22ebabd17bc4fa466a2aca6d8deb888d>@@QEBAHXZ 000000018002f53c     libucrt:onexit.obj
 0002:0000c554       $unwind$??$?RV<lambda_638799b9deba96c50f710eeac98168cd>@@AEAV<lambda_22ebabd17bc4fa466a2aca6d8deb888d>@@V<lambda_a6f7d7db0129f75315ebf26d50c089f1>@@@?$__crt_seh_guarded_call@H@@QEAAH$$QEAV<lambda_638799b9deba96c50f710eeac98168cd>@@AEAV<lambda_22ebabd17bc4fa466a2aca6d8deb888d>@@$$QEAV<lambda_a6f7d7db0129f75315ebf26d50c089f1>@@@Z 000000018002f554     libucrt:onexit.obj
 0002:0000c578       $unwind$??$?RV<lambda_7777bce6b2f8c936911f934f8298dc43>@@AEAV<lambda_f03950bc5685219e0bcd2087efbe011e>@@V<lambda_3883c3dff614d5e0c5f61bb1ac94921c>@@@?$__crt_seh_guarded_call@H@@QEAAH$$QEAV<lambda_7777bce6b2f8c936911f934f8298dc43>@@AEAV<lambda_f03950bc5685219e0bcd2087efbe011e>@@$$QEAV<lambda_3883c3dff614d5e0c5f61bb1ac94921c>@@@Z 000000018002f578     libucrt:onexit.obj
 0002:0000c59c       $unwind$_query_new_handler 000000018002f59c     libucrt:new_handler.obj
 0002:0000c5bc       $unwind$terminate          000000018002f5bc     libucrt:terminate.obj
 0002:0000c5dc       $unwind$??$parse_integer@KV?$c_string_character_source@_W@__crt_strtox@@@__crt_strtox@@YAKQEAU__crt_locale_pointers@@V?$c_string_character_source@_W@0@H_N@Z 000000018002f5dc     libucrt:atox.obj
 0002:0000c5f8       $xdatasym                  000000018002f5f8     libucrt:strncmp.obj
 0002:0000c5fc       $unwind$?construct_ptd_array@@YAXQEAU__acrt_ptd@@@Z 000000018002f5fc     libucrt:per_thread_data.obj
 0002:0000c604       $unwind$?destroy_ptd_array@@YAXQEAU__acrt_ptd@@@Z 000000018002f604     libucrt:per_thread_data.obj
 0002:0000c60c       $unwind$??$?RV<lambda_0ae27a3a962d80f24befdcbee591983d>@@AEAV<lambda_8d0ee55de4b1038c4002e0adecdf1839>@@V<lambda_dc504788e8f1664fe9b84e20bfb512f2>@@@?$__crt_seh_guarded_call@X@@QEAAX$$QEAV<lambda_0ae27a3a962d80f24befdcbee591983d>@@AEAV<lambda_8d0ee55de4b1038c4002e0adecdf1839>@@$$QEAV<lambda_dc504788e8f1664fe9b84e20bfb512f2>@@@Z 000000018002f60c     libucrt:per_thread_data.obj
 0002:0000c630       $unwind$??$?RV<lambda_aa87e3671a710a21b5dc78c0bdf72e11>@@AEAV<lambda_92619d2358a28f41a33ba319515a20b9>@@V<lambda_6992ecaafeb10aed2b74cb1fae11a551>@@@?$__crt_seh_guarded_call@X@@QEAAX$$QEAV<lambda_aa87e3671a710a21b5dc78c0bdf72e11>@@AEAV<lambda_92619d2358a28f41a33ba319515a20b9>@@$$QEAV<lambda_6992ecaafeb10aed2b74cb1fae11a551>@@@Z 000000018002f630     libucrt:per_thread_data.obj
 0002:0000c654       $unwind$??$?RV<lambda_f2e299630e499de9f9a165e60fcd3db5>@@AEAV<lambda_2ae9d31cdba2644fcbeaf08da7c24588>@@V<lambda_40d01ff24d0e7b3814fdbdcee8eab3c7>@@@?$__crt_seh_guarded_call@X@@QEAAX$$QEAV<lambda_f2e299630e499de9f9a165e60fcd3db5>@@AEAV<lambda_2ae9d31cdba2644fcbeaf08da7c24588>@@$$QEAV<lambda_40d01ff24d0e7b3814fdbdcee8eab3c7>@@@Z 000000018002f654     libucrt:per_thread_data.obj
 0002:0000c678       $unwind$??$?RV<lambda_2d41944a1d46af3157314b8a01080d33>@@AEAV<lambda_8f455de75cd7d7f24b4096f044d8b9e6>@@V<lambda_aa500f224e6afead328df44964fe2772>@@@?$__crt_seh_guarded_call@X@@QEAAX$$QEAV<lambda_2d41944a1d46af3157314b8a01080d33>@@AEAV<lambda_8f455de75cd7d7f24b4096f044d8b9e6>@@$$QEAV<lambda_aa500f224e6afead328df44964fe2772>@@@Z 000000018002f678     libucrt:per_thread_data.obj
 0002:0000c69c       $unwind$__acrt_initialize_winapi_thunks 000000018002f69c     libucrt:winapi_thunks.obj
 0002:0000c6a4       $unwind$__acrt_fp_format   000000018002f6a4     libucrt:cvt.obj
 0002:0000c6bc       $unwind$?fp_format_e_internal@@YAHQEAD_KH_NIQEAU_strflt@@2QEAU__crt_locale_pointers@@@Z 000000018002f6bc     libucrt:cvt.obj
 0002:0000c6d4       $unwind$?fp_format_a@@YAHQEBNPEAD_KQEAD2H_NIQEAU__crt_locale_pointers@@W4__acrt_rounding_mode@@@Z 000000018002f6d4     libucrt:cvt.obj
 0002:0000c6f0       $unwind$?fp_format_g@@YAHQEBNQEAD_K12H_NIQEAU__crt_locale_pointers@@@Z 000000018002f6f0     libucrt:cvt.obj
 0002:0000c704       $unwind$__acrt_uninitialize_locale 000000018002f704     libucrt:wsetlocale.obj
 0002:0000c704       $unwind$__acrt_get_sigabrt_handler 000000018002f704     libucrt:signal.obj
 0002:0000c70c       $unwind$??$?RV<lambda_410d79af7f07d98d83a3f525b3859a53>@@AEAV<lambda_3e16ef9562a7dcce91392c22ab16ea36>@@V<lambda_38119f0e861e05405d8a144b9b982f0a>@@@?$__crt_seh_guarded_call@X@@QEAAX$$QEAV<lambda_410d79af7f07d98d83a3f525b3859a53>@@AEAV<lambda_3e16ef9562a7dcce91392c22ab16ea36>@@$$QEAV<lambda_38119f0e861e05405d8a144b9b982f0a>@@@Z 000000018002f70c     libucrt:wsetlocale.obj
 0002:0000c734       $unwind$__acrt_initialize_lowio 000000018002f734     libucrt:ioinit.obj
 0002:0000c754       $unwind$??$common_expand_argv_wildcards@D@@YAHQEAPEADQEAPEAPEAD@Z 000000018002f754     libucrt:argv_wildcards.obj
 0002:0000c76c       $unwind$??$copy_and_add_argument_to_buffer@D@@YAHQEBD0_KAEAV?$argument_list@D@?A0x5f5c8891@@@Z 000000018002f76c     libucrt:argv_wildcards.obj
 0002:0000c788       $unwind$??$expand_argument_wildcards@D@@YAHQEAD0AEAV?$argument_list@D@?A0x5f5c8891@@@Z 000000018002f788     libucrt:argv_wildcards.obj
 0002:0000c7ac       $unwind$__acrt_GetModuleFileNameA 000000018002f7ac     libucrt:getmodulefilenamea.obj
 0002:0000c7c8       $unwind$_setmbcp_nolock    000000018002f7c8     libucrt:mbctype.obj
 0002:0000c7e8       $unwind$?update_thread_multibyte_data_internal@@YAPEAU__crt_multibyte_data@@QEAU__acrt_ptd@@QEAPEAU1@@Z 000000018002f7e8     libucrt:mbctype.obj
 0002:0000c810       $unwind$?setmbcp_internal@@YAHH_NQEAU__acrt_ptd@@QEAPEAU__crt_multibyte_data@@@Z 000000018002f810     libucrt:mbctype.obj
 0002:0000c820       $unwind$?setSBUpLow@@YAXPEAU__crt_multibyte_data@@@Z 000000018002f820     libucrt:mbctype.obj
 0002:0000c83c       $unwind$??$?RV<lambda_efdfa57d1f175319df784efa44bb7b81>@@AEAV<lambda_5f0a4c1567f8adc6734073e5d1e1b35c>@@V<lambda_2e8a7d3640ea6ccb4c2413664c2db6fd>@@@?$__crt_seh_guarded_call@X@@QEAAX$$QEAV<lambda_efdfa57d1f175319df784efa44bb7b81>@@AEAV<lambda_5f0a4c1567f8adc6734073e5d1e1b35c>@@$$QEAV<lambda_2e8a7d3640ea6ccb4c2413664c2db6fd>@@@Z 000000018002f83c     libucrt:mbctype.obj
 0002:0000c860       $unwind$__acrt_WideCharToMultiByte 000000018002f860     libucrt:widechartomultibyte.obj
 0002:0000c86c       $unwind$raise              000000018002f86c     libucrt:signal.obj
 0002:0000c8a8       $unwind$??$?RV<lambda_450d765d439847d4c735a33c368b5fc0>@@AEAV<lambda_44731a7d0e6d81c3e6aa82d741081786>@@V<lambda_601a2a7da3b7a96e9554ac7215c4b07c>@@@?$__crt_seh_guarded_call@P6AXH@Z@@QEAAP6AXH@Z$$QEAV<lambda_450d765d439847d4c735a33c368b5fc0>@@AEAV<lambda_44731a7d0e6d81c3e6aa82d741081786>@@$$QEAV<lambda_601a2a7da3b7a96e9554ac7215c4b07c>@@@Z 000000018002f8a8     libucrt:signal.obj
 0002:0000c8cc       $unwind$?common_flush_all@@YAH_N@Z 000000018002f8cc     libucrt:fflush.obj
 0002:0000c8d4       $unwind$??$?RV<lambda_842d9ff0dc9ef11c61343bbaebe7f885>@@AEAV<lambda_c5860995281e5c4ce005b3de8f5874ee>@@V<lambda_d90129c13df834fdcbf8d2b88dafcf2d>@@@?$__crt_seh_guarded_call@X@@QEAAX$$QEAV<lambda_842d9ff0dc9ef11c61343bbaebe7f885>@@AEAV<lambda_c5860995281e5c4ce005b3de8f5874ee>@@$$QEAV<lambda_d90129c13df834fdcbf8d2b88dafcf2d>@@@Z 000000018002f8d4     libucrt:fflush.obj
 0002:0000c8f8       $unwind$??$?RV<lambda_886d6c58226a84441f68b9f2b8217b83>@@AEAV<lambda_ab61a845afdef5b7c387490eaf3616ee>@@V<lambda_f7f22ab5edc0698d5f6905b0d3f44752>@@@?$__crt_seh_guarded_call@X@@QEAAX$$QEAV<lambda_886d6c58226a84441f68b9f2b8217b83>@@AEAV<lambda_ab61a845afdef5b7c387490eaf3616ee>@@$$QEAV<lambda_f7f22ab5edc0698d5f6905b0d3f44752>@@@Z 000000018002f8f8     libucrt:fflush.obj
 0002:0000c920       $unwind$__acrt_update_thread_locale_data 000000018002f920     libucrt:locale_refcounting.obj
 0002:0000c944       $unwind$?__mbrtowc_utf8@__crt_mbstring@@YA_KPEA_WPEBD_KPEAU_Mbstatet@@@Z 000000018002f944     libucrt:mbrtowc.obj
 0002:0000c94c       $unwind$?__mbsrtowcs_utf8@__crt_mbstring@@YA_KPEA_WPEAPEBD_KPEAU_Mbstatet@@@Z 000000018002f94c     libucrt:mbrtowc.obj
 0002:0000c964       $unwind$__acrt_fltout      000000018002f964     libucrt:cfout.obj
 0002:0000c984       $unwind$?divide@__crt_strtox@@YA_KAEAUbig_integer@1@AEBU21@@Z 000000018002f984     libucrt:cfout.obj
 0002:0000c99c       $chain$0$?divide@__crt_strtox@@YA_KAEAUbig_integer@1@AEBU21@@Z 000000018002f99c     libucrt:cfout.obj
 0002:0000c9b0       $chain$1$?divide@__crt_strtox@@YA_KAEAUbig_integer@1@AEBU21@@Z 000000018002f9b0     libucrt:cfout.obj
 0002:0000c9c0       $unwind$_fcloseall         000000018002f9c0     libucrt:closeall.obj
 0002:0000c9e4       $unwind$__acrt_locale_free_monetary 000000018002f9e4     libucrt:initmon.obj
 0002:0000c9ec       $unwind$__acrt_locale_free_time 000000018002f9ec     libucrt:inittime.obj
 0002:0000c9fc       $unwind$__acrt_GetStringTypeA 000000018002f9fc     libucrt:getstringtypea.obj
 0002:0000ca24       $unwind$__acrt_lowio_destroy_handle_array 000000018002fa24     libucrt:osfinfo.obj
 0002:0000ca34       $unwind$__acrt_lowio_ensure_fh_exists 000000018002fa34     libucrt:osfinfo.obj
 0002:0000ca60       $unwind$qsort              000000018002fa60     libucrt:qsort.obj
 0002:0000ca78       $chain$4$qsort             000000018002fa78     libucrt:qsort.obj
 0002:0000ca9c       $chain$5$qsort             000000018002fa9c     libucrt:qsort.obj
 0002:0000caac       $unwind$strpbrk            000000018002faac     libucrt:strpbrk.obj
 0002:0000cabc       $unwind$fallbackMethod     000000018002fabc     libucrt:strpbrk.obj
 0002:0000cacc       $unwind$__acrt_LCMapStringA 000000018002facc     libucrt:lcmapstringa.obj
 0002:0000cadc       $unwind$?__acrt_LCMapStringA_stat@@YAHPEAU__crt_locale_pointers@@PEB_WKPEBDHPEADHHH@Z 000000018002fadc     libucrt:lcmapstringa.obj
 0002:0000cb04       $unwind$_close             000000018002fb04     libucrt:close.obj
 0002:0000cb04       $unwind$_commit            000000018002fb04     libucrt:commit.obj
 0002:0000cb0c       $unwind$??$?RV<lambda_a37b2b86f63e897a80ea819b0eb08c01>@@AEAV<lambda_38ce7e780aa69e748d6df282ebc68efe>@@V<lambda_99fb1378e971ab6e7edea83e3a7a83a2>@@@?$__crt_seh_guarded_call@H@@QEAAH$$QEAV<lambda_a37b2b86f63e897a80ea819b0eb08c01>@@AEAV<lambda_38ce7e780aa69e748d6df282ebc68efe>@@$$QEAV<lambda_99fb1378e971ab6e7edea83e3a7a83a2>@@@Z 000000018002fb0c     libucrt:commit.obj
 0002:0000cb30       $unwind$_write             000000018002fb30     libucrt:write.obj
 0002:0000cb60       $unwind$_write_nolock      000000018002fb60     libucrt:write.obj
 0002:0000cb78       $unwind$?write_double_translated_ansi_nolock@@YA?AUwrite_result@?A0x17268360@@HQEBDI@Z 000000018002fb78     libucrt:write.obj
 0002:0000cb9c       $unwind$?write_text_ansi_nolock@@YA?AUwrite_result@?A0x17268360@@HQEBDI@Z 000000018002fb9c     libucrt:write.obj
 0002:0000cb9c       $unwind$?write_text_utf16le_nolock@@YA?AUwrite_result@?A0x17268360@@HQEBDI@Z 000000018002fb9c     libucrt:write.obj
 0002:0000cbbc       $unwind$?write_text_utf8_nolock@@YA?AUwrite_result@?A0x17268360@@HQEBDI@Z 000000018002fbbc     libucrt:write.obj
 0002:0000cbe0       $xdatasym                  000000018002fbe0     libucrt:log10.obj
 0002:0000cbec       $unwind$__acrt_fenv_set_control 000000018002fbec     libucrt:_fenvutils.obj
 0002:0000cbfc       $unwind$fclose             000000018002fbfc     libucrt:fclose.obj
 0002:0000cc20       $unwind$_putwch_nolock     000000018002fc20     libucrt:putwch.obj
 0002:0000cc28       $unwind$common_control87   000000018002fc28     libucrt:ieee.obj
 0002:0000cc54       $unwind$_call_matherr      000000018002fc54     libucrt:libm_error.obj
 0002:0000cc5c       $unwind$_handle_error      000000018002fc5c     libucrt:libm_error.obj
 0002:0000cc7c       $unwind$__acrt_initialize_fma3 000000018002fc7c     libucrt:fma3_available.obj
 0002:0000cc84       $unwind$_log_special_common 000000018002fc84     libucrt:log_special.obj
 0002:0000cc90       $unwind$??$?RV<lambda_751a882b2c74d4b022dec766aa51a29a>@@AEAV<lambda_628dfdc04ba53c8bfc02c9951375f3f5>@@V<lambda_f6c7be5f7998530c34de24c7437d6b54>@@@?$__crt_seh_guarded_call@H@@QEAAH$$QEAV<lambda_751a882b2c74d4b022dec766aa51a29a>@@AEAV<lambda_628dfdc04ba53c8bfc02c9951375f3f5>@@$$QEAV<lambda_f6c7be5f7998530c34de24c7437d6b54>@@@Z 000000018002fc90     libucrt:close.obj
 0002:0000ccb8       $xdatasym                  000000018002fcb8     libucrt:fpsr.obj
 0002:0000ccc0       $unwind$_raise_exc_ex      000000018002fcc0     libucrt:fpexcept.obj
 0002:0000ccd4       $unwind$_ctrlfp            000000018002fcd4     libucrt:fpctrl.obj
 0002:0000ccfc       $unwind$_IsNonwritableInCurrentImage 000000018002fcfc     LIBCMT:pesect.obj
 0002:0000ce80       .edata                     000000018002fe80     OPOSSpeechSynthesis.exp
 0002:0000cea8       rgpv                       000000018002fea8     OPOSSpeechSynthesis.exp
 0002:0000ceb8       rgszName                   000000018002feb8     OPOSSpeechSynthesis.exp
 0002:0000cec8       rgwOrd                     000000018002fec8     OPOSSpeechSynthesis.exp
 0002:0000ced0       szName                     000000018002fed0     OPOSSpeechSynthesis.exp
 0002:0000cee8       $N00001                    000000018002fee8     OPOSSpeechSynthesis.exp
 0002:0000cef8       $N00002                    000000018002fef8     OPOSSpeechSynthesis.exp
 0002:0000cf0a       $N00003                    000000018002ff0a     OPOSSpeechSynthesis.exp
 0002:0000cf1c       $N00004                    000000018002ff1c     OPOSSpeechSynthesis.exp
 0002:0000d84a       .idata$6                   000000018003084a     kernel32:KERNEL32.dll
 0002:0000da62       .idata$6                   0000000180030a62     user32:USER32.dll
 0002:0000db96       .idata$6                   0000000180030b96     gdi32:GDI32.dll
 0002:0000dc3c       .idata$6                   0000000180030c3c     advapi32:ADVAPI32.dll
 0002:0000dd58       .idata$6                   0000000180030d58     ole32:ole32.dll
 0002:0000dd62       .idata$6                   0000000180030d62     oleaut32:OLEAUT32.dll
 0003:000001c0       ?ObjectMap@@3PAU_ATL_OBJMAP_ENTRY30@ATL@@A 00000001800321c0     SpeechSynthesis.obj
 0003:000002bc       ?s_RequiredMethodsPerRelease@@3PAHA 00000001800322bc     SpeechSynthesisImpl.obj
 0003:000002c0       ?s_SOMethodNames@@3PAPEADA 00000001800322c0     SpeechSynthesisImpl.obj
 0003:000003b0       ?__vcrt_flsindex@@3KA      00000001800323b0     libvcruntime:per_thread_data.obj
 0003:000003c0       ?errno_no_memory@@3HA      00000001800323c0     libucrt:errno.obj
 0003:000003c4       ?doserrno_no_memory@@3KA   00000001800323c4     libucrt:errno.obj
 0003:000003d0       ?__acrt_flsindex@@3KA      00000001800323d0     libucrt:per_thread_data.obj
 0003:00000890       _mbctypes                  0000000180032890     libucrt:mbctype.obj
 0003:000009a0       _mbcasemaps                00000001800329a0     libucrt:mbctype.obj
 0003:00000aa0       ?__rgctypeflag@@3PADA      0000000180032aa0     libucrt:mbctype.obj
 0003:00000ab0       ?__rgcode_page_info@@3PAUcode_page_info@@A 0000000180032ab0     libucrt:mbctype.obj
 0003:00000d50       ?dazSupported@?1??common_control87@@9@9 0000000180032d50     libucrt:ieee.obj
 0003:00000d60       ?__dcrt_lowio_console_output_handle@@3PEAXEA 0000000180032d60     libucrt:initcon.obj
 0003:00000d70       ?dazSupported@?1??_ctrlfp@@9@9 0000000180032d70     libucrt:fpctrl.obj
 0003:00000fc0       ?is_initialized_as_dll@@3_NA 0000000180032fc0     LIBCMT:utility.obj
 0003:00000fc1       ?module_local_atexit_table_initialized@@3_NA 0000000180032fc1     LIBCMT:utility.obj
 0003:00000fc8       ?module_local_atexit_table@@3U_onexit_table_t@@A 0000000180032fc8     LIBCMT:utility.obj
 0003:00000fe0       ?module_local_at_quick_exit_table@@3U_onexit_table_t@@A 0000000180032fe0     LIBCMT:utility.obj
 0003:00000ff8       ?g_tss_cv@@3U_RTL_CONDITION_VARIABLE@@A 0000000180032ff8     LIBCMT:thread_safe_statics.obj
 0003:00001000       ?g_tss_event@@3PEAXEA      0000000180033000     LIBCMT:thread_safe_statics.obj
 0003:00001008       ?g_tss_mutex@@3U_RTL_CRITICAL_SECTION@@A 0000000180033008     LIBCMT:thread_safe_statics.obj
 0003:00001030       ?g_sleep_condition_variable_cs@@3P6AHPEAU_RTL_CONDITION_VARIABLE@@PEAU_RTL_CRITICAL_SECTION@@K@ZEA 0000000180033030     LIBCMT:thread_safe_statics.obj
 0003:00001038       ?g_wake_all_condition_variable@@3P6AXPEAU_RTL_CONDITION_VARIABLE@@@ZEA 0000000180033038     LIBCMT:thread_safe_statics.obj
 0003:00001040       GS_ExceptionRecord         0000000180033040     LIBCMT:gs_report.obj
 0003:000010e0       GS_ContextRecord           00000001800330e0     LIBCMT:gs_report.obj
 0003:000015b4       ?__proc_attached@@3HA      00000001800335b4     LIBCMT:dll_dllmain.obj
 0003:00001658       ?AllocateData@@3P6APEAUAtlThunkData_t@@XZEA 0000000180033658     atls:atlthunk.obj
 0003:00001660       ?InitData@@3P6AXPEAUAtlThunkData_t@@PEAX_K@ZEA 0000000180033660     atls:atlthunk.obj
 0003:00001668       ?DataToCode@@3P6AP6A_JPEAUHWND__@@I_K_J@ZPEAUAtlThunkData_t@@@ZEA 0000000180033668     atls:atlthunk.obj
 0003:00001670       ?FreeData@@3P6AXPEAUAtlThunkData_t@@@ZEA 0000000180033670     atls:atlthunk.obj
 0003:00001678       ?Initialized@@3_NA         0000000180033678     atls:atlthunk.obj
 0003:00001690       ?__vcrt_startup_thread_ptd@@3U__vcrt_ptd@@A 0000000180033690     libvcruntime:per_thread_data.obj
 0003:00001710       __vcrt_lock_table          0000000180033710     libvcruntime:locks.obj
 0003:00001738       __vcrt_locks_initialized   0000000180033738     libvcruntime:locks.obj
 0003:00001780       ?heap@@3V_HeapManager@@A   0000000180033780     libvcruntime:undname.obj
 0003:000017a8       ?module_handles@@3PAPEAUHINSTANCE__@@A 00000001800337a8     libvcruntime:winapi_downlevel.obj
 0003:000017c0       ?function_pointers@@3PAPEAXA 00000001800337c0     libvcruntime:winapi_downlevel.obj
 0003:000017e8       ?__acrt_invalid_parameter_handler@@3V?$dual_state_global@P6AXPEB_W00I_K@Z@__crt_state_management@@A 00000001800337e8     libucrt:invalid_parameter.obj
 0003:000017f0       ?c_termination_complete@@3JA 00000001800337f0     libucrt:exit.obj
 0003:000017f8       ?thread_local_exit_callback_func@@3P6AXPEAXK0@ZEA 00000001800337f8     libucrt:exit.obj
 0003:00001810       ?program_name@?1???$common_configure_argv@D@@YAHW4_crt_argv_mode@@@Z@4PADA 0000000180033810     libucrt:argv_parsing.obj
 0003:00001968       ?__acrt_new_handler@@3V?$dual_state_global@P6AH_K@Z@__crt_state_management@@A 0000000180033968     libucrt:new_handler.obj
 0003:00001970       ?module_handles@@3PAPEAUHINSTANCE__@@A 0000000180033970     libucrt:winapi_thunks.obj
 0003:00001a10       ?encoded_function_pointers@@3PAPEAXA 0000000180033a10     libucrt:winapi_thunks.obj
 0003:00001b20       ?internal_state@?1??_mbtowc_l@@9@4U_Mbstatet@@A 0000000180033b20     libucrt:mbtowc.obj
 0003:00001b38       ?enable_percent_n@@3_KA    0000000180033b38     libucrt:printf_count_output.obj
 0003:00001f70       ?__acrt_lock_table@@3PAU_RTL_CRITICAL_SECTION@@A 0000000180033f70     libucrt:locks.obj
 0003:000021a0       ?__acrt_locks_initialized@@3IA 00000001800341a0     libucrt:locks.obj
 0003:000021c0       ?fSystemSet@@3HA           00000001800341c0     libucrt:mbctype.obj
 0003:000021c4       ?initialized@?1??__acrt_initialize_multibyte@@9@4_NA 00000001800341c4     libucrt:mbctype.obj
 0003:00002200       ?ctrlc_action@@3V?$dual_state_global@P6AXH@Z@__crt_state_management@@A 0000000180034200     libucrt:signal.obj
 0003:00002208       ?ctrlbreak_action@@3V?$dual_state_global@P6AXH@Z@__crt_state_management@@A 0000000180034208     libucrt:signal.obj
 0003:00002210       ?abort_action@@3V?$dual_state_global@P6AXH@Z@__crt_state_management@@A 0000000180034210     libucrt:signal.obj
 0003:00002218       ?term_action@@3V?$dual_state_global@P6AXH@Z@__crt_state_management@@A 0000000180034218     libucrt:signal.obj
 0003:00002220       ?user_matherr@@3V?$dual_state_global@P6AHPEAU_exception@@@Z@__crt_state_management@@A 0000000180034220     libucrt:matherr.obj
 0003:00002228       ?__acrt_global_new_mode@@3V?$dual_state_global@J@__crt_state_management@@A 0000000180034228     libucrt:new_mode.obj
 0003:00002238       ?internal_pst@?1??__mbrtoc32_utf8@__crt_mbstring@@YA_KPEA_UPEBD_KPEAU_Mbstatet@@@Z@4U3@A 0000000180034238     libucrt:mbrtoc32.obj
 0003:00002240       ?__acrt_app_type@@3W4_crt_app_type@@A 0000000180034240     libucrt:report_runtime_error.obj
 0005:00000000       MoveSmall                  0000000180037000     libvcruntime:memcpy.obj
 0005:00000050       MsetTab                    0000000180037050     libvcruntime:memset.obj
 0006:00000220       $R000000                   0000000180038220     SpeechSynthesis.res
 0006:00000b78       $R000958                   0000000180038b78     SpeechSynthesis.res
 0006:00000c60       $R000A40                   0000000180038c60     SpeechSynthesis.res
 0006:00000ec8       $R000CA8                   0000000180038ec8     SpeechSynthesis.res
 0006:000013b0       $R001190                   00000001800393b0     SpeechSynthesis.res
 0006:00003e88       $R003C68                   000000018003be88     SpeechSynthesis.res
 0006:00003ec8       $R003CA8                   000000018003bec8     SpeechSynthesis.res
