 OPOSSigCap

 Timestamp is 5ed459e1 (Mon Jun  1 10:29:05 2020)

 Preferred load address is 0000000180000000

 Start         Length     Name                   Class
 0001:00000000 000000c0H .text$di                CODE
 0001:000000c0 000210e0H .text$mn                CODE
 0001:000211a0 00000040H .text$mn$00             CODE
 0001:000211e0 000004b0H .text$x                 CODE
 0001:00021690 00000078H .text$yd                CODE
 0002:00000000 00000618H .idata$5                DATA
 0002:00000618 00000028H .00cfg                  DATA
 0002:00000640 00000008H .CRT$XCA                DATA
 0002:00000648 00000008H .CRT$XCL                DATA
 0002:00000650 00000020H .CRT$XCU                DATA
 0002:00000670 00000008H .CRT$XCZ                DATA
 0002:00000678 00000008H .CRT$XIA                DATA
 0002:00000680 00000020H .CRT$XIC                DATA
 0002:000006a0 00000008H .CRT$XIZ                DATA
 0002:000006a8 00000008H .CRT$XLA                DATA
 0002:000006b0 00000008H .CRT$XLZ                DATA
 0002:000006b8 00000008H .CRT$XPA                DATA
 0002:000006c0 00000010H .CRT$XPX                DATA
 0002:000006d0 00000008H .CRT$XPXA               DATA
 0002:000006d8 00000008H .CRT$XPZ                DATA
 0002:000006e0 00000008H .CRT$XTA                DATA
 0002:000006e8 00000008H .CRT$XTZ                DATA
 0002:000006f0 00000000H .gfids$y                DATA
 0002:000006f0 0000a830H .rdata                  DATA
 0002:0000af20 00000028H .rdata$T                DATA
 0002:0000af48 00000274H .rdata$r                DATA
 0002:0000b1bc 00000404H .rdata$zzzdbg           DATA
 0002:0000b5c0 00000008H .rtc$IAA                DATA
 0002:0000b5c8 00000008H .rtc$IZZ                DATA
 0002:0000b5d0 00000008H .rtc$TAA                DATA
 0002:0000b5d8 00000008H .rtc$TZZ                DATA
 0002:0000b5e0 00000004H .tls                    DATA
 0002:0000b5e4 00000004H .tls$                   DATA
 0002:0000b5e8 00000008H .tls$ZZZ                DATA
 0002:0000b5f0 000016b0H .xdata                  DATA
 0002:0000cca0 00000150H .xdata$x                DATA
 0002:0000cdf0 00000008H ATL$__a                 DATA
 0002:0000cdf8 00000008H ATL$__z                 DATA
 0002:0000ce00 000000a8H .edata                  DATA
 0002:0000cea8 00000078H .idata$2                DATA
 0002:0000cf20 00000018H .idata$3                DATA
 0002:0000cf38 00000618H .idata$4                DATA
 0002:0000d550 00000c2aH .idata$6                DATA
 0003:00000000 00000d98H .data                   DATA
 0003:00000d98 000000c8H .data$r                 DATA
 0003:00000e60 0000140cH .bss                    DATA
 0004:00000000 00001e78H .pdata                  DATA
 0005:00000000 00000094H _RDATA                  DATA
 0006:00000000 00000220H .rsrc$01                DATA
 0006:00000220 00003f78H .rsrc$02                DATA

  Address         Publics by Value              Rva+Base               Lib:Object

 0000:00000000       __guard_fids_count         0000000000000000     <absolute>
 0000:00000000       __x64_code_ranges_to_entry_points 0000000000000000     <absolute>
 0000:00000000       __guard_longjmp_count      0000000000000000     <absolute>
 0000:00000000       __guard_longjmp_table      0000000000000000     <absolute>
 0000:00000000       __hybrid_code_map          0000000000000000     <absolute>
 0000:00000000       __guard_iat_count          0000000000000000     <absolute>
 0000:00000000       __arm64x_redirection_metadata 0000000000000000     <absolute>
 0000:00000000       __guard_eh_cont_count      0000000000000000     <absolute>
 0000:00000000       __guard_iat_table          0000000000000000     <absolute>
 0000:00000000       __arm64x_native_entrypoint 0000000000000000     <absolute>
 0000:00000000       __volatile_metadata        0000000000000000     <absolute>
 0000:00000000       __hybrid_code_map_count    0000000000000000     <absolute>
 0000:00000000       __guard_eh_cont_table      0000000000000000     <absolute>
 0000:00000000       __enclave_config           0000000000000000     <absolute>
 0000:00000000       ___safe_se_handler_count   0000000000000000     <absolute>
 0000:00000000       __AbsoluteZero             0000000000000000     <absolute>
 0000:00000000       ___safe_se_handler_table   0000000000000000     <absolute>
 0000:00000000       __guard_fids_table         0000000000000000     <absolute>
 0000:00000000       __hybrid_auxiliary_iat     0000000000000000     <absolute>
 0000:00000000       __dynamic_value_reloc_table 0000000000000000     <absolute>
 0000:00000100       __guard_flags              0000000000000100     <absolute>
 0000:00000000       __ImageBase                0000000180000000     <linker-defined>
 0001:000000c0       ?DupWide@_CW@@AEAAXXZ      00000001800010c0 f   CWString.obj
 0001:000000e8       ?cw_dup@@YAXPEBDAEAHAEAPEA_W1@Z 00000001800010e8 f   CWString.obj
 0001:000001c8       ?cw_memcpy@@YAHPEA_WPEBDH@Z 00000001800011c8 f   CWString.obj
 0001:00000214       ?cw_strcpy@@YAHPEA_WPEBD@Z 0000000180001214 f   CWString.obj
 0001:00000228       ??0CAtlComModule@ATL@@QEAA@XZ 0000000180001228 f i OposVariant.obj
 0001:000002a8       ??0CAtlWinModule@ATL@@QEAA@XZ 00000001800012a8 f i OposVariant.obj
 0001:00000314       ??0OposDispParms@@QEAA@PEAVOposVariant@@H@Z 0000000180001314 f   OposVariant.obj
 0001:000003bc       ??1OposDispParms@@QEAA@XZ  00000001800013bc f   OposVariant.obj
 0001:000003d4       ??_Estringdispid@CComTypeInfoHolder@ATL@@QEAAPEAXI@Z 00000001800013d4 f i OposVariant.obj
 0001:00000478       ?AtlWinModuleTerm@ATL@@YAJPEAU_ATL_WIN_MODULE70@1@PEAUHINSTANCE__@@@Z 0000000180001478 f i OposVariant.obj
 0001:00000528       ?ChangeBSTR@OposVariant@@QEAAXPEAPEA_WAEAJ@Z 0000000180001528 f   OposVariant.obj
 0001:00000588       ?ChangeLONG@OposVariant@@QEAAXPEAJAEAJ@Z 0000000180001588 f   OposVariant.obj
 0001:000005e4       ?GetLONG@OposVariant@@QEAAJXZ 00000001800015e4 f   OposVariant.obj
 0001:00000608       ?SetBSTR@OposVariant@@QEAAXPEA_WAEAJ@Z 0000000180001608 f   OposVariant.obj
 0001:00000648       ?SetBSTR_Copy@OposVariant@@QEAAXPEA_WAEAJ@Z 0000000180001648 f   OposVariant.obj
 0001:000006b8       ?SetBSTR_InOutPtr@OposVariant@@QEAA_NPEAPEA_WAEAJ@Z 00000001800016b8 f   OposVariant.obj
 0001:00000708       ?SetDispatch_Ptr@OposVariant@@QEAAXPEAUIDispatch@@AEAJ@Z 0000000180001708 f   OposVariant.obj
 0001:00000760       ?SetLONG@OposVariant@@QEAAXJ@Z 0000000180001760 f   OposVariant.obj
 0001:00000790       ?SetLONG_Ptr@OposVariant@@QEAAXPEAJAEAJ@Z 0000000180001790 f   OposVariant.obj
 0001:000007dc       ?SetString@OposVariant@@QEAAXPEB_WAEAJ@Z 00000001800017dc f   OposVariant.obj
 0001:00000840       ?SetVARIANT_BOOL@OposVariant@@QEAAXF@Z 0000000180001840 f   OposVariant.obj
 0001:00000878       ?Term@CAtlComModule@ATL@@QEAAXXZ 0000000180001878 f i OposVariant.obj
 0001:000008e8       ?_AtlInitializeCriticalSectionEx@ATL@@YAHPEAU_RTL_CRITICAL_SECTION@@KK@Z 00000001800018e8 f i OposVariant.obj
 0001:000008f0       ?_AtlRaiseException@ATL@@YAXKK@Z 00000001800018f0 f i OposVariant.obj
 0001:00000900       ?GetWindowProc@?$CWindowImplBaseT@VCWindow@ATL@@V?$CWinTraits@$0FGAAAAAA@$0A@@2@@ATL@@UEAAP6A_JPEAUHWND__@@I_K_J@ZXZ 0000000180001900 f i SigCap.obj
 0001:00000908       ?StartWindowProc@?$CWindowImplBaseT@VCWindow@ATL@@V?$CWinTraits@$0FGAAAAAA@$0A@@2@@ATL@@SA_JPEAUHWND__@@I_K_J@Z 0000000180001908 f i SigCap.obj
 0001:000009cc       ?OnFinalMessage@?$CWindowImplBaseT@VCWindow@ATL@@V?$CWinTraits@$0FGAAAAAA@$0A@@2@@ATL@@UEAAXPEAUHWND__@@@Z 00000001800019cc f i SigCap.obj
 0001:000009cc       ?ObjectMain@CComObjectRootBase@ATL@@SAX_N@Z 00000001800019cc f i SigCap.obj
 0001:000009cc       _guard_check_icall_nop     00000001800019cc f i LIBCMT:guard_support.obj
 0001:000009d0       ?GetTypeInfoCount@?$IDispatchImpl@UIOPOSSigCap@@$1?IID_IOPOSSigCap@@3U_GUID@@B$1?LIBID_OposSigCap_CCO@@3U3@B$00$0A@VCComTypeInfoHolder@ATL@@@ATL@@UEAAJPEAI@Z 00000001800019d0 f i SigCap.obj
 0001:000009e4       ?GetTypeInfo@?$IDispatchImpl@UIOPOSSigCap@@$1?IID_IOPOSSigCap@@3U_GUID@@B$1?LIBID_OposSigCap_CCO@@3U3@B$00$0A@VCComTypeInfoHolder@ATL@@@ATL@@UEAAJIKPEAPEAUITypeInfo@@@Z 00000001800019e4 f i SigCap.obj
 0001:00000a48       ?GetIDsOfNames@?$IDispatchImpl@UIOPOSSigCap@@$1?IID_IOPOSSigCap@@3U_GUID@@B$1?LIBID_OposSigCap_CCO@@3U3@B$00$0A@VCComTypeInfoHolder@ATL@@@ATL@@UEAAJAEBU_GUID@@PEAPEA_WIKPEAJ@Z 0000000180001a48 f i SigCap.obj
 0001:00000a54       ?Invoke@?$IDispatchImpl@UIOPOSSigCap@@$1?IID_IOPOSSigCap@@3U_GUID@@B$1?LIBID_OposSigCap_CCO@@3U3@B$00$0A@VCComTypeInfoHolder@ATL@@@ATL@@UEAAJJAEBU_GUID@@KGPEAUtagDISPPARAMS@@PEAUtagVARIANT@@PEAUtagEXCEPINFO@@PEAI@Z 0000000180001a54 f i SigCap.obj
 0001:00000ae4       ?CreateControlWindow@?$CComControl@VCOPOSSigCap@@V?$CWindowImpl@VCOPOSSigCap@@VCWindow@ATL@@V?$CWinTraits@$0FGAAAAAA@$0A@@3@@ATL@@@ATL@@UEAAPEAUHWND__@@PEAU3@AEAUtagRECT@@@Z 0000000180001ae4 f i SigCap.obj
 0001:00000b1c       ?ControlQueryInterface@?$CComControl@VCOPOSSigCap@@V?$CWindowImpl@VCOPOSSigCap@@VCWindow@ATL@@V?$CWinTraits@$0FGAAAAAA@$0A@@3@@ATL@@@ATL@@UEAAJAEBU_GUID@@PEAPEAX@Z 0000000180001b1c f i SigCap.obj
 0001:00000b30       ?GetClassID@?$IPersistStreamInitImpl@VCOPOSSigCap@@@ATL@@UEAAJPEAU_GUID@@@Z 0000000180001b30 f i SigCap.obj
 0001:00000b30       ?GetUserClassID@?$IOleObjectImpl@VCOPOSSigCap@@@ATL@@UEAAJPEAU_GUID@@@Z 0000000180001b30 f i SigCap.obj
 0001:00000b30       ?GetClassID@?$IPersistStorageImpl@VCOPOSSigCap@@@ATL@@UEAAJPEAU_GUID@@@Z 0000000180001b30 f i SigCap.obj
 0001:00000b4c       ?IsDirty@?$IPersistStreamInitImpl@VCOPOSSigCap@@@ATL@@UEAAJXZ 0000000180001b4c f i SigCap.obj
 0001:00000b68       ?Load@?$IPersistStreamInitImpl@VCOPOSSigCap@@@ATL@@UEAAJPEAUIStream@@@Z 0000000180001b68 f i SigCap.obj
 0001:00000b80       ?Save@?$IPersistStreamInitImpl@VCOPOSSigCap@@@ATL@@UEAAJPEAUIStream@@H@Z 0000000180001b80 f i SigCap.obj
 0001:00000b98       ?GetSizeMax@?$IPersistStreamInitImpl@VCOPOSSigCap@@@ATL@@UEAAJPEAT_ULARGE_INTEGER@@@Z 0000000180001b98 f i SigCap.obj
 0001:00000dc4       ?InitNew@?$IPersistStreamInitImpl@VCOPOSSigCap@@@ATL@@UEAAJXZ 0000000180001dc4 f i SigCap.obj
 0001:00000ddc       ?GetClipboardData@?$IOleObjectImpl@VCOPOSSigCap@@@ATL@@UEAAJKPEAPEAUIDataObject@@@Z 0000000180001ddc f i SigCap.obj
 0001:00000ddc       ?QueryGetData@?$IDataObjectImpl@VCOPOSSigCap@@@ATL@@UEAAJPEAUtagFORMATETC@@@Z 0000000180001ddc f i SigCap.obj
 0001:00000ddc       ?SetMoniker@?$IOleObjectImpl@VCOPOSSigCap@@@ATL@@UEAAJKPEAUIMoniker@@@Z 0000000180001ddc f i SigCap.obj
 0001:00000ddc       ?ReactivateAndUndo@?$IOleInPlaceObjectWindowlessImpl@VCOPOSSigCap@@@ATL@@UEAAJXZ 0000000180001ddc f i SigCap.obj
 0001:00000ddc       ?ContextSensitiveHelp@?$IOleInPlaceActiveObjectImpl@VCOPOSSigCap@@@ATL@@UEAAJH@Z 0000000180001ddc f i SigCap.obj
 0001:00000ddc       ?GetColorSet@?$IViewObjectExImpl@VCOPOSSigCap@@@ATL@@UEAAJKJPEAXPEAUtagDVTARGETDEVICE@@PEAUHDC__@@PEAPEAUtagLOGPALETTE@@@Z 0000000180001ddc f i SigCap.obj
 0001:00000ddc       ?InitFromData@?$IOleObjectImpl@VCOPOSSigCap@@@ATL@@UEAAJPEAUIDataObject@@HK@Z 0000000180001ddc f i SigCap.obj
 0001:00000ddc       ?GetDataHere@?$IDataObjectImpl@VCOPOSSigCap@@@ATL@@UEAAJPEAUtagFORMATETC@@PEAUtagSTGMEDIUM@@@Z 0000000180001ddc f i SigCap.obj
 0001:00000ddc       ?SetColorScheme@?$IOleObjectImpl@VCOPOSSigCap@@@ATL@@UEAAJPEAUtagLOGPALETTE@@@Z 0000000180001ddc f i SigCap.obj
 0001:00000ddc       ?OnMnemonic@?$IOleControlImpl@VCOPOSSigCap@@@ATL@@UEAAJPEAUtagMSG@@@Z 0000000180001ddc f i SigCap.obj
 0001:00000ddc       ?SOOutputCompleteDummy@COPOSSigCap@@MEAAJJ@Z 0000000180001ddc f i SigCap.obj
 0001:00000ddc       ?QueryInterface@CRegObject@ATL@@UEAAJAEBU_GUID@@PEAPEAX@Z 0000000180001ddc f i SigCap.obj
 0001:00000ddc       ?GetCanonicalFormatEtc@?$IDataObjectImpl@VCOPOSSigCap@@@ATL@@UEAAJPEAUtagFORMATETC@@0@Z 0000000180001ddc f i SigCap.obj
 0001:00000ddc       ?EnumFormatEtc@?$IDataObjectImpl@VCOPOSSigCap@@@ATL@@UEAAJKPEAPEAUIEnumFORMATETC@@@Z 0000000180001ddc f i SigCap.obj
 0001:00000ddc       ?GetRect@?$IViewObjectExImpl@VCOPOSSigCap@@@ATL@@UEAAJKPEAU_RECTL@@@Z 0000000180001ddc f i SigCap.obj
 0001:00000ddc       ?ContextSensitiveHelp@?$IOleInPlaceObjectWindowlessImpl@VCOPOSSigCap@@@ATL@@UEAAJH@Z 0000000180001ddc f i SigCap.obj
 0001:00000ddc       ?SetData@?$IDataObjectImpl@VCOPOSSigCap@@@ATL@@UEAAJPEAUtagFORMATETC@@PEAUtagSTGMEDIUM@@H@Z 0000000180001ddc f i SigCap.obj
 0001:00000ddc       ?Freeze@?$IViewObjectExImpl@VCOPOSSigCap@@@ATL@@UEAAJKJPEAXPEAK@Z 0000000180001ddc f i SigCap.obj
 0001:00000ddc       ?Unfreeze@?$IViewObjectExImpl@VCOPOSSigCap@@@ATL@@UEAAJK@Z 0000000180001ddc f i SigCap.obj
 0001:00000ddc       ?GetMoniker@?$IOleObjectImpl@VCOPOSSigCap@@@ATL@@UEAAJKKPEAPEAUIMoniker@@@Z 0000000180001ddc f i SigCap.obj
 0001:00000ddc       ?GetDropTarget@?$IOleInPlaceObjectWindowlessImpl@VCOPOSSigCap@@@ATL@@UEAAJPEAPEAUIDropTarget@@@Z 0000000180001ddc f i SigCap.obj
 0001:00000ddc       ?GetControlInfo@?$IOleControlImpl@VCOPOSSigCap@@@ATL@@UEAAJPEAUtagCONTROLINFO@@@Z 0000000180001ddc f i SigCap.obj
 0001:00000de4       ?OnAmbientPropertyChange@?$IOleControlImpl@VCOPOSSigCap@@@ATL@@UEAAJJ@Z 0000000180001de4 f i SigCap.obj
 0001:00000de4       ?EnableModeless@?$IOleInPlaceActiveObjectImpl@VCOPOSSigCap@@@ATL@@UEAAJH@Z 0000000180001de4 f i SigCap.obj
 0001:00000de4       ?SaveCompleted@?$IPersistStorageImpl@VCOPOSSigCap@@@ATL@@UEAAJPEAUIStorage@@@Z 0000000180001de4 f i SigCap.obj
 0001:00000de4       ?Release@CRegObject@ATL@@UEAAKXZ 0000000180001de4 f i SigCap.obj
 0001:00000de4       ?GetObjectDescription@?$CComCoClass@VCOPOSSigCap@@$1?CLSID_OPOSSigCap@@3U_GUID@@B@ATL@@SAPEB_WXZ 0000000180001de4 f i SigCap.obj
 0001:00000de4       ?SetHostNames@?$IOleObjectImpl@VCOPOSSigCap@@@ATL@@UEAAJPEB_W0@Z 0000000180001de4 f i SigCap.obj
 0001:00000de4       ?Update@?$IOleObjectImpl@VCOPOSSigCap@@@ATL@@UEAAJXZ 0000000180001de4 f i SigCap.obj
 0001:00000de4       ?GetCategoryMap@CComObjectRootBase@ATL@@SAPEBU_ATL_CATMAP_ENTRY@2@XZ 0000000180001de4 f i SigCap.obj
 0001:00000de4       ?OnFrameWindowActivate@?$IOleInPlaceActiveObjectImpl@VCOPOSSigCap@@@ATL@@UEAAJH@Z 0000000180001de4 f i SigCap.obj
 0001:00000de4       ?ResizeBorder@?$IOleInPlaceActiveObjectImpl@VCOPOSSigCap@@@ATL@@UEAAJPEBUtagRECT@@PEAUIOleInPlaceUIWindow@@H@Z 0000000180001de4 f i SigCap.obj
 0001:00000de4       ?IsUpToDate@?$IOleObjectImpl@VCOPOSSigCap@@@ATL@@UEAAJXZ 0000000180001de4 f i SigCap.obj
 0001:00000de4       ?HandsOffStorage@?$IPersistStorageImpl@VCOPOSSigCap@@@ATL@@UEAAJXZ 0000000180001de4 f i SigCap.obj
 0001:00000de8       ?SetClientSite@?$IOleObjectImpl@VCOPOSSigCap@@@ATL@@UEAAJPEAUIOleClientSite@@@Z 0000000180001de8 f i SigCap.obj
 0001:00000e04       ?GetClientSite@?$IOleObjectImpl@VCOPOSSigCap@@@ATL@@UEAAJPEAPEAUIOleClientSite@@@Z 0000000180001e04 f i SigCap.obj
 0001:00000e4c       ?Close@?$IOleObjectImpl@VCOPOSSigCap@@@ATL@@UEAAJK@Z 0000000180001e4c f i SigCap.obj
 0001:00000e68       ?DoVerb@?$IOleObjectImpl@VCOPOSSigCap@@@ATL@@UEAAJJPEAUtagMSG@@PEAUIOleClientSite@@JPEAUHWND__@@PEBUtagRECT@@@Z 0000000180001e68 f i SigCap.obj
 0001:0000100c       ?EnumVerbs@?$IOleObjectImpl@VCOPOSSigCap@@@ATL@@UEAAJPEAPEAUIEnumOLEVERB@@@Z 000000018000200c f i SigCap.obj
 0001:00001028       ?GetUserType@?$IOleObjectImpl@VCOPOSSigCap@@@ATL@@UEAAJKPEAPEA_W@Z 0000000180002028 f i SigCap.obj
 0001:00001038       ?SetExtent@?$IOleObjectImpl@VCOPOSSigCap@@@ATL@@UEAAJKPEAUtagSIZE@@@Z 0000000180002038 f i SigCap.obj
 0001:00001054       ?GetExtent@?$IOleObjectImpl@VCOPOSSigCap@@@ATL@@UEAAJKPEAUtagSIZE@@@Z 0000000180002054 f i SigCap.obj
 0001:00001084       ?Advise@?$IOleObjectImpl@VCOPOSSigCap@@@ATL@@UEAAJPEAUIAdviseSink@@PEAK@Z 0000000180002084 f i SigCap.obj
 0001:000010e0       ?Unadvise@?$IOleObjectImpl@VCOPOSSigCap@@@ATL@@UEAAJK@Z 00000001800020e0 f i SigCap.obj
 0001:00001118       ?EnumAdvise@?$IOleObjectImpl@VCOPOSSigCap@@@ATL@@UEAAJPEAPEAUIEnumSTATDATA@@@Z 0000000180002118 f i SigCap.obj
 0001:00001160       ?GetMiscStatus@?$IOleObjectImpl@VCOPOSSigCap@@@ATL@@UEAAJKPEAK@Z 0000000180002160 f i SigCap.obj
 0001:00001170       ?GetWindow@?$IOleInPlaceActiveObjectImpl@VCOPOSSigCap@@@ATL@@UEAAJPEAPEAUHWND__@@@Z 0000000180002170 f i SigCap.obj
 0001:000011c4       ?TranslateAcceleratorW@?$IOleInPlaceActiveObjectImpl@VCOPOSSigCap@@@ATL@@UEAAJPEAUtagMSG@@@Z 00000001800021c4 f i SigCap.obj
 0001:000012b8       ?OnDocWindowActivate@?$IOleInPlaceActiveObjectImpl@VCOPOSSigCap@@@ATL@@UEAAJH@Z 00000001800022b8 f i SigCap.obj
 0001:000012e4       ?Draw@?$IViewObjectExImpl@VCOPOSSigCap@@@ATL@@UEAAJKJPEAXPEAUtagDVTARGETDEVICE@@PEAUHDC__@@2PEBU_RECTL@@3P6AH_K@Z4@Z 00000001800022e4 f i SigCap.obj
 0001:00001348       ?SetAdvise@?$IViewObjectExImpl@VCOPOSSigCap@@@ATL@@UEAAJKKPEAUIAdviseSink@@@Z 0000000180002348 f i SigCap.obj
 0001:0000139c       ?GetAdvise@?$IViewObjectExImpl@VCOPOSSigCap@@@ATL@@UEAAJPEAK0PEAPEAUIAdviseSink@@@Z 000000018000239c f i SigCap.obj
 0001:000013d8       ?GetExtent@?$IViewObjectExImpl@VCOPOSSigCap@@@ATL@@UEAAJKJPEAUtagDVTARGETDEVICE@@PEAUtagSIZE@@@Z 00000001800023d8 f i SigCap.obj
 0001:00001408       ?GetViewStatus@?$IViewObjectExImpl@VCOPOSSigCap@@@ATL@@UEAAJPEAK@Z 0000000180002408 f i SigCap.obj
 0001:0000141c       ?QueryHitPoint@?$IViewObjectExImpl@VCOPOSSigCap@@@ATL@@UEAAJKPEBUtagRECT@@UtagPOINT@@JPEAK@Z 000000018000241c f i SigCap.obj
 0001:00001460       ?QueryHitRect@?$IViewObjectExImpl@VCOPOSSigCap@@@ATL@@UEAAJKPEBUtagRECT@@0JPEAK@Z 0000000180002460 f i SigCap.obj
 0001:000014c8       ?GetNaturalExtent@?$IViewObjectExImpl@VCOPOSSigCap@@@ATL@@UEAAJKJPEAUtagDVTARGETDEVICE@@PEAUHDC__@@PEAUtagExtentInfo@@PEAUtagSIZE@@@Z 00000001800024c8 f i SigCap.obj
 0001:00001510       ?GetWindow@?$IOleInPlaceObjectWindowlessImpl@VCOPOSSigCap@@@ATL@@UEAAJPEAPEAUHWND__@@@Z 0000000180002510 f i SigCap.obj
 0001:00001564       ?InPlaceDeactivate@?$IOleInPlaceObjectWindowlessImpl@VCOPOSSigCap@@@ATL@@UEAAJXZ 0000000180002564 f i SigCap.obj
 0001:00001580       ?UIDeactivate@?$IOleInPlaceObjectWindowlessImpl@VCOPOSSigCap@@@ATL@@UEAAJXZ 0000000180002580 f i SigCap.obj
 0001:0000159c       ?SetObjectRects@?$IOleInPlaceObjectWindowlessImpl@VCOPOSSigCap@@@ATL@@UEAAJPEBUtagRECT@@0@Z 000000018000259c f i SigCap.obj
 0001:000015b8       ?OnWindowMessage@?$IOleInPlaceObjectWindowlessImpl@VCOPOSSigCap@@@ATL@@UEAAJI_K_JPEA_J@Z 00000001800025b8 f i SigCap.obj
 0001:00001680       ?EnumConnectionPoints@?$IConnectionPointContainerImpl@VCOPOSSigCap@@@ATL@@UEAAJPEAPEAUIEnumConnectionPoints@@@Z 0000000180002680 f i SigCap.obj
 0001:000018cc       ?FindConnectionPoint@?$IConnectionPointContainerImpl@VCOPOSSigCap@@@ATL@@UEAAJAEBU_GUID@@PEAPEAUIConnectionPoint@@@Z 00000001800028cc f i SigCap.obj
 0001:0000199c       ?IsDirty@?$IPersistStorageImpl@VCOPOSSigCap@@@ATL@@UEAAJXZ 000000018000299c f i SigCap.obj
 0001:000019dc       ?InitNew@?$IPersistStorageImpl@VCOPOSSigCap@@@ATL@@UEAAJPEAUIStorage@@@Z 00000001800029dc f i SigCap.obj
 0001:00001a1c       ?Load@?$IPersistStorageImpl@VCOPOSSigCap@@@ATL@@UEAAJPEAUIStorage@@@Z 0000000180002a1c f i SigCap.obj
 0001:00001abc       ?Save@?$IPersistStorageImpl@VCOPOSSigCap@@@ATL@@UEAAJPEAUIStorage@@H@Z 0000000180002abc f i SigCap.obj
 0001:00001b6c       ?GetPages@?$ISpecifyPropertyPagesImpl@VCOPOSSigCap@@@ATL@@UEAAJPEAUtagCAUUID@@@Z 0000000180002b6c f i SigCap.obj
 0001:00001b78       ?QuickActivate@?$IQuickActivateImpl@VCOPOSSigCap@@@ATL@@UEAAJPEAUtagQACONTAINER@@PEAUtagQACONTROL@@@Z 0000000180002b78 f i SigCap.obj
 0001:00001b94       ?SetContentExtent@?$IQuickActivateImpl@VCOPOSSigCap@@@ATL@@UEAAJPEAUtagSIZE@@@Z 0000000180002b94 f i SigCap.obj
 0001:00001bc8       ?GetContentExtent@?$IQuickActivateImpl@VCOPOSSigCap@@@ATL@@UEAAJPEAUtagSIZE@@@Z 0000000180002bc8 f i SigCap.obj
 0001:00001c00       ?GetData@?$IDataObjectImpl@VCOPOSSigCap@@@ATL@@UEAAJPEAUtagFORMATETC@@PEAUtagSTGMEDIUM@@@Z 0000000180002c00 f i SigCap.obj
 0001:00001c1c       ?DAdvise@?$IDataObjectImpl@VCOPOSSigCap@@@ATL@@UEAAJPEAUtagFORMATETC@@KPEAUIAdviseSink@@PEAK@Z 0000000180002c1c f i SigCap.obj
 0001:00001ca4       ?DUnadvise@?$IDataObjectImpl@VCOPOSSigCap@@@ATL@@UEAAJK@Z 0000000180002ca4 f i SigCap.obj
 0001:00001cd0       ?EnumDAdvise@?$IDataObjectImpl@VCOPOSSigCap@@@ATL@@UEAAJPEAPEAUIEnumSTATDATA@@@Z 0000000180002cd0 f i SigCap.obj
 0001:00001d0c       ?GetClassInfoW@?$IProvideClassInfo2Impl@$1?CLSID_OPOSSigCap@@3U_GUID@@B$1?DIID__IOPOSSigCapEvents@@3U2@B$1?LIBID_OposSigCap_CCO@@3U2@B$00$0A@VCComTypeInfoHolder@ATL@@@ATL@@UEAAJPEAPEAUITypeInfo@@@Z 0000000180002d0c f i SigCap.obj
 0001:00001d64       ?GetGUID@?$IProvideClassInfo2Impl@$1?CLSID_OPOSSigCap@@3U_GUID@@B$1?DIID__IOPOSSigCapEvents@@3U2@B$1?LIBID_OposSigCap_CCO@@3U2@B$00$0A@VCComTypeInfoHolder@ATL@@@ATL@@UEAAJKPEAU_GUID@@@Z 0000000180002d64 f i SigCap.obj
 0001:00001d98       ?AddRef@CRegObject@ATL@@UEAAKXZ 0000000180002d98 f i SigCap.obj
 0001:00001d98       ?FAccessAllowed@?$IObjectSafetyImpl@VCOPOSSigCap@@$02@ATL@@MEAAHXZ 0000000180002d98 f i SigCap.obj
 0001:00001d98       _get_startup_argv_mode     0000000180002d98 f i LIBCMT:argv_mode.obj
 0001:00001da0       ?GetInterfaceSafetyOptions@?$IObjectSafetyImpl@VCOPOSSigCap@@$02@ATL@@UEAAJAEBU_GUID@@PEAK1@Z 0000000180002da0 f i SigCap.obj
 0001:00001e34       ?SetInterfaceSafetyOptions@?$IObjectSafetyImpl@VCOPOSSigCap@@$02@ATL@@UEAAJAEBU_GUID@@KK@Z 0000000180002e34 f i SigCap.obj
 0001:00001ed8       ?_LocCPQueryInterface@?$IConnectionPointImpl@VCOPOSSigCap@@$1?IID_IPropertyNotifySink@@3U_GUID@@BVCComDynamicUnkArray@ATL@@@ATL@@UEAAJAEBU_GUID@@PEAPEAX@Z 0000000180002ed8 f i SigCap.obj
 0001:00001ed8       ?_LocCPQueryInterface@?$IConnectionPointImpl@VCOPOSSigCap@@$1?DIID__IOPOSSigCapEvents@@3U_GUID@@BVCComDynamicUnkArray@ATL@@@ATL@@UEAAJAEBU_GUID@@PEAPEAX@Z 0000000180002ed8 f i SigCap.obj
 0001:00001f48       ?GetConnectionInterface@?$IConnectionPointImpl@VCOPOSSigCap@@$1?IID_IPropertyNotifySink@@3U_GUID@@BVCComDynamicUnkArray@ATL@@@ATL@@UEAAJPEAU_GUID@@@Z 0000000180002f48 f i SigCap.obj
 0001:00001f64       ?GetConnectionPointContainer@?$IConnectionPointImpl@VCOPOSSigCap@@$1?IID_IPropertyNotifySink@@3U_GUID@@BVCComDynamicUnkArray@ATL@@@ATL@@UEAAJPEAPEAUIConnectionPointContainer@@@Z 0000000180002f64 f i SigCap.obj
 0001:00001f84       ?Advise@?$IConnectionPointImpl@VCOPOSSigCap@@$1?IID_IPropertyNotifySink@@3U_GUID@@BVCComDynamicUnkArray@ATL@@@ATL@@UEAAJPEAUIUnknown@@PEAK@Z 0000000180002f84 f i SigCap.obj
 0001:00001f84       ?Advise@?$IConnectionPointImpl@VCOPOSSigCap@@$1?DIID__IOPOSSigCapEvents@@3U_GUID@@BVCComDynamicUnkArray@ATL@@@ATL@@UEAAJPEAUIUnknown@@PEAK@Z 0000000180002f84 f i SigCap.obj
 0001:00002040       ?Unadvise@?$IConnectionPointImpl@VCOPOSSigCap@@$1?IID_IPropertyNotifySink@@3U_GUID@@BVCComDynamicUnkArray@ATL@@@ATL@@UEAAJK@Z 0000000180003040 f i SigCap.obj
 0001:00002040       ?Unadvise@?$IConnectionPointImpl@VCOPOSSigCap@@$1?DIID__IOPOSSigCapEvents@@3U_GUID@@BVCComDynamicUnkArray@ATL@@@ATL@@UEAAJK@Z 0000000180003040 f i SigCap.obj
 0001:000020a8       ?EnumConnections@?$IConnectionPointImpl@VCOPOSSigCap@@$1?IID_IPropertyNotifySink@@3U_GUID@@BVCComDynamicUnkArray@ATL@@@ATL@@UEAAJPEAPEAUIEnumConnections@@@Z 00000001800030a8 f i SigCap.obj
 0001:000020a8       ?EnumConnections@?$IConnectionPointImpl@VCOPOSSigCap@@$1?DIID__IOPOSSigCapEvents@@3U_GUID@@BVCComDynamicUnkArray@ATL@@@ATL@@UEAAJPEAPEAUIEnumConnections@@@Z 00000001800030a8 f i SigCap.obj
 0001:00002254       ?GetConnectionInterface@?$IConnectionPointImpl@VCOPOSSigCap@@$1?DIID__IOPOSSigCapEvents@@3U_GUID@@BVCComDynamicUnkArray@ATL@@@ATL@@UEAAJPEAU_GUID@@@Z 0000000180003254 f i SigCap.obj
 0001:00002270       ?GetConnectionPointContainer@?$IConnectionPointImpl@VCOPOSSigCap@@$1?DIID__IOPOSSigCapEvents@@3U_GUID@@BVCComDynamicUnkArray@ATL@@@ATL@@UEAAJPEAPEAUIConnectionPointContainer@@@Z 0000000180003270 f i SigCap.obj
 0001:00002290       ?UpdateRegistry@COPOSSigCap@@SAJH@Z 0000000180003290 f i SigCap.obj
 0001:000022a8       ?ProcessWindowMessage@COPOSSigCap@@UEAAHPEAUHWND__@@I_K_JAEA_JK@Z 00000001800032a8 f i SigCap.obj
 0001:00002330       ?SOData@COPOSSigCap@@MEAAJJ@Z 0000000180003330 f i SigCap.obj
 0001:00002380       ?SODirectIO@COPOSSigCap@@MEAAJJPEAJPEAPEA_W@Z 0000000180003380 f i SigCap.obj
 0001:000023f8       ?SOError@COPOSSigCap@@MEAAJJJJPEAJ@Z 00000001800033f8 f i SigCap.obj
 0001:00002480       ?SOStatusUpdate@COPOSSigCap@@MEAAJJ@Z 0000000180003480 f i SigCap.obj
 0001:000024d0       ?Lock@CAtlModule@ATL@@UEAAJXZ 00000001800034d0 f i SigCap.obj
 0001:000024e0       ?Unlock@CAtlModule@ATL@@UEAAJXZ 00000001800034e0 f i SigCap.obj
 0001:000024ec       ?GetLockCount@CAtlModule@ATL@@UEAAJXZ 00000001800034ec f i SigCap.obj
 0001:000024f0       ?GetGITPtr@CAtlModule@ATL@@UEAAJPEAPEAUIGlobalInterfaceTable@@@Z 00000001800034f0 f i SigCap.obj
 0001:00002560       ?CreateInstance@?$CComCreator@V?$CComObjectCached@VCComClassFactory@ATL@@@ATL@@@ATL@@SAJPEAXAEBU_GUID@@PEAPEAX@Z 0000000180003560 f i SigCap.obj
 0001:00002684       ?CreateInstance@?$CComCreator2@V?$CComCreator@V?$CComObject@VCOPOSSigCap@@@ATL@@@ATL@@V?$CComCreator@V?$CComAggObject@VCOPOSSigCap@@@ATL@@@2@@ATL@@SAJPEAXAEBU_GUID@@PEAPEAX@Z 0000000180003684 f i SigCap.obj
 0001:00002694       ?AddRef@?$CComObjectCached@VCComClassFactory@ATL@@@ATL@@UEAAKXZ 0000000180003694 f i SigCap.obj
 0001:000026c0       ?Release@?$CComObjectCached@VCComClassFactory@ATL@@@ATL@@UEAAKXZ 00000001800036c0 f i SigCap.obj
 0001:00002700       ?AddCommonRGSReplacements@?$CAtlModuleT@VCComModule@ATL@@@ATL@@UEAAJPEAUIRegistrarBase@@@Z 0000000180003700 f i SigCap.obj
 0001:00002718       ?QueryInterface@?$CComObjectCached@VCComClassFactory@ATL@@@ATL@@UEAAJAEBU_GUID@@PEAPEAX@Z 0000000180003718 f i SigCap.obj
 0001:0000272c       ??_G?$CComObjectCached@VCComClassFactory@ATL@@@ATL@@UEAAPEAXI@Z 000000018000372c f i SigCap.obj
 0001:0000272c       ??_E?$CComObjectCached@VCComClassFactory@ATL@@@ATL@@UEAAPEAXI@Z 000000018000372c f i SigCap.obj
 0001:00002784       ?UpdateRegistryFromResourceD@CComModule@ATL@@UEAAJIHPEAU_ATL_REGMAP_ENTRY@2@@Z 0000000180003784 f i SigCap.obj
 0001:00002784       ?UpdateRegistryFromResourceD@CComModule@ATL@@UEAAJPEB_WHPEAU_ATL_REGMAP_ENTRY@2@@Z 0000000180003784 f i SigCap.obj
 0001:0000278c       ?UpdateRegistryFromResource@CComModule@ATL@@UEAAJPEB_WHPEAU_ATL_REGMAP_ENTRY@2@@Z 000000018000378c f i SigCap.obj
 0001:00002794       ?UpdateRegistryFromResource@CComModule@ATL@@UEAAJIHPEAU_ATL_REGMAP_ENTRY@2@@Z 0000000180003794 f i SigCap.obj
 0001:0000279c       ??_ECComModule@ATL@@UEAAPEAXI@Z 000000018000379c f i SigCap.obj
 0001:0000279c       ??_GCComModule@ATL@@UEAAPEAXI@Z 000000018000379c f i SigCap.obj
 0001:000027dc       ?Next@?$CComEnumImpl@UIEnumConnectionPoints@@$1?_GUID_b196b285_bab4_101a_b69c_00aa00341d07@@3U__s_GUID@@BPEAUIConnectionPoint@@V?$_CopyInterface@UIConnectionPoint@@@ATL@@@ATL@@UEAAJKPEAPEAUIConnectionPoint@@PEAK@Z 00000001800037dc f i SigCap.obj
 0001:000028a8       ?Skip@?$CComEnumImpl@UIEnumConnectionPoints@@$1?_GUID_b196b285_bab4_101a_b69c_00aa00341d07@@3U__s_GUID@@BPEAUIConnectionPoint@@V?$_CopyInterface@UIConnectionPoint@@@ATL@@@ATL@@UEAAJK@Z 00000001800038a8 f i SigCap.obj
 0001:000028d4       ?Reset@?$CComEnumImpl@UIEnumConnections@@$1?_GUID_b196b287_bab4_101a_b69c_00aa00341d07@@3U__s_GUID@@BUtagCONNECTDATA@@V?$_Copy@UtagCONNECTDATA@@@ATL@@@ATL@@UEAAJXZ 00000001800038d4 f i SigCap.obj
 0001:000028d4       ?Reset@?$CComEnumImpl@UIEnumConnectionPoints@@$1?_GUID_b196b285_bab4_101a_b69c_00aa00341d07@@3U__s_GUID@@BPEAUIConnectionPoint@@V?$_CopyInterface@UIConnectionPoint@@@ATL@@@ATL@@UEAAJXZ 00000001800038d4 f i SigCap.obj
 0001:000028e0       ?Clone@?$CComEnumImpl@UIEnumConnectionPoints@@$1?_GUID_b196b285_bab4_101a_b69c_00aa00341d07@@3U__s_GUID@@BPEAUIConnectionPoint@@V?$_CopyInterface@UIConnectionPoint@@@ATL@@@ATL@@UEAAJPEAPEAUIEnumConnectionPoints@@@Z 00000001800038e0 f i SigCap.obj
 0001:00002a0c       ?AddRef@?$CComObject@V?$CComEnum@UIEnumConnectionPoints@@$1?_GUID_b196b285_bab4_101a_b69c_00aa00341d07@@3U__s_GUID@@BPEAUIConnectionPoint@@V?$_CopyInterface@UIConnectionPoint@@@ATL@@VCComSingleThreadModel@6@@ATL@@@ATL@@UEAAKXZ 0000000180003a0c f i SigCap.obj
 0001:00002a0c       ?AddRef@?$CComObject@V?$CComEnum@UIEnumConnections@@$1?_GUID_b196b287_bab4_101a_b69c_00aa00341d07@@3U__s_GUID@@BUtagCONNECTDATA@@V?$_Copy@UtagCONNECTDATA@@@ATL@@VCComSingleThreadModel@6@@ATL@@@ATL@@UEAAKXZ 0000000180003a0c f i SigCap.obj
 0001:00002a18       ?Release@?$CComObject@V?$CComEnum@UIEnumConnections@@$1?_GUID_b196b287_bab4_101a_b69c_00aa00341d07@@3U__s_GUID@@BUtagCONNECTDATA@@V?$_Copy@UtagCONNECTDATA@@@ATL@@VCComSingleThreadModel@6@@ATL@@@ATL@@UEAAKXZ 0000000180003a18 f i SigCap.obj
 0001:00002a18       ?Release@?$CComObject@V?$CComEnum@UIEnumConnectionPoints@@$1?_GUID_b196b285_bab4_101a_b69c_00aa00341d07@@3U__s_GUID@@BPEAUIConnectionPoint@@V?$_CopyInterface@UIConnectionPoint@@@ATL@@VCComSingleThreadModel@6@@ATL@@@ATL@@UEAAKXZ 0000000180003a18 f i SigCap.obj
 0001:00002a6c       ?QueryInterface@?$CComObject@V?$CComEnum@UIEnumConnectionPoints@@$1?_GUID_b196b285_bab4_101a_b69c_00aa00341d07@@3U__s_GUID@@BPEAUIConnectionPoint@@V?$_CopyInterface@UIConnectionPoint@@@ATL@@VCComSingleThreadModel@6@@ATL@@@ATL@@UEAAJAEBU_GUID@@PEAPEAX@Z 0000000180003a6c f i SigCap.obj
 0001:00002a80       ??_E?$CComObject@V?$CComEnum@UIEnumConnectionPoints@@$1?_GUID_b196b285_bab4_101a_b69c_00aa00341d07@@3U__s_GUID@@BPEAUIConnectionPoint@@V?$_CopyInterface@UIConnectionPoint@@@ATL@@VCComSingleThreadModel@6@@ATL@@@ATL@@UEAAPEAXI@Z 0000000180003a80 f i SigCap.obj
 0001:00002a80       ??_G?$CComObject@V?$CComEnum@UIEnumConnectionPoints@@$1?_GUID_b196b285_bab4_101a_b69c_00aa00341d07@@3U__s_GUID@@BPEAUIConnectionPoint@@V?$_CopyInterface@UIConnectionPoint@@@ATL@@VCComSingleThreadModel@6@@ATL@@@ATL@@UEAAPEAXI@Z 0000000180003a80 f i SigCap.obj
 0001:00002ad8       ?AddReplacement@CRegObject@ATL@@UEAAJPEB_W0@Z 0000000180003ad8 f i SigCap.obj
 0001:00002b08       ?ClearReplacements@CRegObject@ATL@@UEAAJXZ 0000000180003b08 f i SigCap.obj
 0001:00002b14       ??_ECRegObject@ATL@@UEAAPEAXI@Z 0000000180003b14 f i SigCap.obj
 0001:00002b14       ??_GCRegObject@ATL@@UEAAPEAXI@Z 0000000180003b14 f i SigCap.obj
 0001:00002b94       ?AddRef@?$CComAggObject@VCOPOSSigCap@@@ATL@@UEAAKXZ 0000000180003b94 f i SigCap.obj
 0001:00002ba0       ?Release@?$CComAggObject@VCOPOSSigCap@@@ATL@@UEAAKXZ 0000000180003ba0 f i SigCap.obj
 0001:00002bf4       ?QueryInterface@?$CComAggObject@VCOPOSSigCap@@@ATL@@UEAAJAEBU_GUID@@PEAPEAX@Z 0000000180003bf4 f i SigCap.obj
 0001:00002c54       ?AddRef@?$CComContainedObject@VCOPOSSigCap@@@ATL@@UEAAKXZ 0000000180003c54 f i SigCap.obj
 0001:00002c64       ?Release@?$CComContainedObject@VCOPOSSigCap@@@ATL@@UEAAKXZ 0000000180003c64 f i SigCap.obj
 0001:00002c74       ?QueryInterface@?$CComContainedObject@VCOPOSSigCap@@@ATL@@UEAAJAEBU_GUID@@PEAPEAX@Z 0000000180003c74 f i SigCap.obj
 0001:00002c84       ??_G?$CComAggObject@VCOPOSSigCap@@@ATL@@UEAAPEAXI@Z 0000000180003c84 f i SigCap.obj
 0001:00002c84       ??_E?$CComAggObject@VCOPOSSigCap@@@ATL@@UEAAPEAXI@Z 0000000180003c84 f i SigCap.obj
 0001:00002cdc       ?AddRef@?$CComObject@VCOPOSSigCap@@@ATL@@UEAAKXZ 0000000180003cdc f i SigCap.obj
 0001:00002cec       ?Release@?$CComObject@VCOPOSSigCap@@@ATL@@UEAAKXZ 0000000180003cec f i SigCap.obj
 0001:00002d44       ?QueryInterface@?$CComObject@VCOPOSSigCap@@@ATL@@UEAAJAEBU_GUID@@PEAPEAX@Z 0000000180003d44 f i SigCap.obj
 0001:00002d58       ?OnDrawAdvanced@CComControlBase@ATL@@UEAAJAEAUATL_DRAWINFO@@@Z 0000000180003d58 f i SigCap.obj
 0001:00002ee4       ?Next@?$CComEnumImpl@UIEnumConnections@@$1?_GUID_b196b287_bab4_101a_b69c_00aa00341d07@@3U__s_GUID@@BUtagCONNECTDATA@@V?$_Copy@UtagCONNECTDATA@@@ATL@@@ATL@@UEAAJKPEAUtagCONNECTDATA@@PEAK@Z 0000000180003ee4 f i SigCap.obj
 0001:00002fb8       ?Skip@?$CComEnumImpl@UIEnumConnections@@$1?_GUID_b196b287_bab4_101a_b69c_00aa00341d07@@3U__s_GUID@@BUtagCONNECTDATA@@V?$_Copy@UtagCONNECTDATA@@@ATL@@@ATL@@UEAAJK@Z 0000000180003fb8 f i SigCap.obj
 0001:00002fe4       ?Clone@?$CComEnumImpl@UIEnumConnections@@$1?_GUID_b196b287_bab4_101a_b69c_00aa00341d07@@3U__s_GUID@@BUtagCONNECTDATA@@V?$_Copy@UtagCONNECTDATA@@@ATL@@@ATL@@UEAAJPEAPEAUIEnumConnections@@@Z 0000000180003fe4 f i SigCap.obj
 0001:00003110       ?QueryInterface@?$CComObject@V?$CComEnum@UIEnumConnections@@$1?_GUID_b196b287_bab4_101a_b69c_00aa00341d07@@3U__s_GUID@@BUtagCONNECTDATA@@V?$_Copy@UtagCONNECTDATA@@@ATL@@VCComSingleThreadModel@6@@ATL@@@ATL@@UEAAJAEBU_GUID@@PEAPEAX@Z 0000000180004110 f i SigCap.obj
 0001:00003124       ??_E?$CComObject@V?$CComEnum@UIEnumConnections@@$1?_GUID_b196b287_bab4_101a_b69c_00aa00341d07@@3U__s_GUID@@BUtagCONNECTDATA@@V?$_Copy@UtagCONNECTDATA@@@ATL@@VCComSingleThreadModel@6@@ATL@@@ATL@@UEAAPEAXI@Z 0000000180004124 f i SigCap.obj
 0001:00003124       ??_G?$CComObject@V?$CComEnum@UIEnumConnections@@$1?_GUID_b196b287_bab4_101a_b69c_00aa00341d07@@3U__s_GUID@@BUtagCONNECTDATA@@V?$_Copy@UtagCONNECTDATA@@@ATL@@VCComSingleThreadModel@6@@ATL@@@ATL@@UEAAPEAXI@Z 0000000180004124 f i SigCap.obj
 0001:0000317c       ??_E?$CComObject@VCOPOSSigCap@@@ATL@@W7EAAPEAXI@Z 000000018000417c f i SigCap.obj
 0001:00003188       ??_E?$CComObject@VCOPOSSigCap@@@ATL@@WHA@EAAPEAXI@Z 0000000180004188 f i SigCap.obj
 0001:00003194       ?QueryInterface@?$CComObject@VCOPOSSigCap@@@ATL@@WLI@EAAJAEBU_GUID@@PEAPEAX@Z 0000000180004194 f i SigCap.obj
 0001:000031a0       ?AddRef@?$CComObject@VCOPOSSigCap@@@ATL@@WLI@EAAKXZ 00000001800041a0 f i SigCap.obj
 0001:000031ac       ?Release@?$CComObject@VCOPOSSigCap@@@ATL@@WLI@EAAKXZ 00000001800041ac f i SigCap.obj
 0001:000031b8       ?QueryInterface@?$CComObject@VCOPOSSigCap@@@ATL@@WMA@EAAJAEBU_GUID@@PEAPEAX@Z 00000001800041b8 f i SigCap.obj
 0001:000031c4       ?AddRef@?$CComObject@VCOPOSSigCap@@@ATL@@WMA@EAAKXZ 00000001800041c4 f i SigCap.obj
 0001:000031d0       ?Release@?$CComObject@VCOPOSSigCap@@@ATL@@WMA@EAAKXZ 00000001800041d0 f i SigCap.obj
 0001:000031dc       ?QueryInterface@?$CComObject@VCOPOSSigCap@@@ATL@@WMI@EAAJAEBU_GUID@@PEAPEAX@Z 00000001800041dc f i SigCap.obj
 0001:000031e8       ?AddRef@?$CComObject@VCOPOSSigCap@@@ATL@@WMI@EAAKXZ 00000001800041e8 f i SigCap.obj
 0001:000031f4       ?Release@?$CComObject@VCOPOSSigCap@@@ATL@@WMI@EAAKXZ 00000001800041f4 f i SigCap.obj
 0001:00003200       ?QueryInterface@?$CComObject@VCOPOSSigCap@@@ATL@@WNA@EAAJAEBU_GUID@@PEAPEAX@Z 0000000180004200 f i SigCap.obj
 0001:0000320c       ?AddRef@?$CComObject@VCOPOSSigCap@@@ATL@@WNA@EAAKXZ 000000018000420c f i SigCap.obj
 0001:00003218       ?Release@?$CComObject@VCOPOSSigCap@@@ATL@@WNA@EAAKXZ 0000000180004218 f i SigCap.obj
 0001:00003224       ?QueryInterface@?$CComObject@VCOPOSSigCap@@@ATL@@WNI@EAAJAEBU_GUID@@PEAPEAX@Z 0000000180004224 f i SigCap.obj
 0001:00003230       ?AddRef@?$CComObject@VCOPOSSigCap@@@ATL@@WNI@EAAKXZ 0000000180004230 f i SigCap.obj
 0001:0000323c       ?Release@?$CComObject@VCOPOSSigCap@@@ATL@@WNI@EAAKXZ 000000018000423c f i SigCap.obj
 0001:00003248       ?QueryInterface@?$CComObject@VCOPOSSigCap@@@ATL@@WOA@EAAJAEBU_GUID@@PEAPEAX@Z 0000000180004248 f i SigCap.obj
 0001:00003254       ?AddRef@?$CComObject@VCOPOSSigCap@@@ATL@@WOA@EAAKXZ 0000000180004254 f i SigCap.obj
 0001:00003260       ?Release@?$CComObject@VCOPOSSigCap@@@ATL@@WOA@EAAKXZ 0000000180004260 f i SigCap.obj
 0001:0000326c       ?QueryInterface@?$CComObject@VCOPOSSigCap@@@ATL@@WOI@EAAJAEBU_GUID@@PEAPEAX@Z 000000018000426c f i SigCap.obj
 0001:00003278       ?AddRef@?$CComObject@VCOPOSSigCap@@@ATL@@WOI@EAAKXZ 0000000180004278 f i SigCap.obj
 0001:00003284       ?Release@?$CComObject@VCOPOSSigCap@@@ATL@@WOI@EAAKXZ 0000000180004284 f i SigCap.obj
 0001:00003290       ?QueryInterface@?$CComObject@VCOPOSSigCap@@@ATL@@WPA@EAAJAEBU_GUID@@PEAPEAX@Z 0000000180004290 f i SigCap.obj
 0001:0000329c       ?AddRef@?$CComObject@VCOPOSSigCap@@@ATL@@WPA@EAAKXZ 000000018000429c f i SigCap.obj
 0001:000032a8       ?Release@?$CComObject@VCOPOSSigCap@@@ATL@@WPA@EAAKXZ 00000001800042a8 f i SigCap.obj
 0001:000032b4       ?QueryInterface@?$CComObject@VCOPOSSigCap@@@ATL@@WPI@EAAJAEBU_GUID@@PEAPEAX@Z 00000001800042b4 f i SigCap.obj
 0001:000032c0       ?AddRef@?$CComObject@VCOPOSSigCap@@@ATL@@WPI@EAAKXZ 00000001800042c0 f i SigCap.obj
 0001:000032cc       ?Release@?$CComObject@VCOPOSSigCap@@@ATL@@WPI@EAAKXZ 00000001800042cc f i SigCap.obj
 0001:000032d8       ?QueryInterface@?$CComObject@VCOPOSSigCap@@@ATL@@WBAA@EAAJAEBU_GUID@@PEAPEAX@Z 00000001800042d8 f i SigCap.obj
 0001:000032e4       ?AddRef@?$CComObject@VCOPOSSigCap@@@ATL@@WBAA@EAAKXZ 00000001800042e4 f i SigCap.obj
 0001:000032f0       ?Release@?$CComObject@VCOPOSSigCap@@@ATL@@WBAA@EAAKXZ 00000001800042f0 f i SigCap.obj
 0001:000032fc       ?QueryInterface@?$CComObject@VCOPOSSigCap@@@ATL@@WBAI@EAAJAEBU_GUID@@PEAPEAX@Z 00000001800042fc f i SigCap.obj
 0001:00003308       ?AddRef@?$CComObject@VCOPOSSigCap@@@ATL@@WBAI@EAAKXZ 0000000180004308 f i SigCap.obj
 0001:00003314       ?Release@?$CComObject@VCOPOSSigCap@@@ATL@@WBAI@EAAKXZ 0000000180004314 f i SigCap.obj
 0001:00003320       ?QueryInterface@?$CComObject@VCOPOSSigCap@@@ATL@@WBBA@EAAJAEBU_GUID@@PEAPEAX@Z 0000000180004320 f i SigCap.obj
 0001:0000332c       ?AddRef@?$CComObject@VCOPOSSigCap@@@ATL@@WBBA@EAAKXZ 000000018000432c f i SigCap.obj
 0001:00003338       ?Release@?$CComObject@VCOPOSSigCap@@@ATL@@WBBA@EAAKXZ 0000000180004338 f i SigCap.obj
 0001:00003344       ?QueryInterface@?$CComObject@VCOPOSSigCap@@@ATL@@WBBI@EAAJAEBU_GUID@@PEAPEAX@Z 0000000180004344 f i SigCap.obj
 0001:00003350       ?AddRef@?$CComObject@VCOPOSSigCap@@@ATL@@WBBI@EAAKXZ 0000000180004350 f i SigCap.obj
 0001:0000335c       ?Release@?$CComObject@VCOPOSSigCap@@@ATL@@WBBI@EAAKXZ 000000018000435c f i SigCap.obj
 0001:00003368       ?AddRef@?$CComObject@VCOPOSSigCap@@@ATL@@WBCI@EAAKXZ 0000000180004368 f i SigCap.obj
 0001:00003374       ?Release@?$CComObject@VCOPOSSigCap@@@ATL@@WBCI@EAAKXZ 0000000180004374 f i SigCap.obj
 0001:00003380       ?AddRef@?$CComObject@VCOPOSSigCap@@@ATL@@WBEA@EAAKXZ 0000000180004380 f i SigCap.obj
 0001:0000338c       ?Release@?$CComObject@VCOPOSSigCap@@@ATL@@WBEA@EAAKXZ 000000018000438c f i SigCap.obj
 0001:00003398       ??_E?$CComContainedObject@VCOPOSSigCap@@@ATL@@W7EAAPEAXI@Z 0000000180004398 f i SigCap.obj
 0001:000033a4       ??_E?$CComContainedObject@VCOPOSSigCap@@@ATL@@WHA@EAAPEAXI@Z 00000001800043a4 f i SigCap.obj
 0001:000033b0       ?QueryInterface@?$CComContainedObject@VCOPOSSigCap@@@ATL@@WLI@EAAJAEBU_GUID@@PEAPEAX@Z 00000001800043b0 f i SigCap.obj
 0001:000033bc       ?AddRef@?$CComContainedObject@VCOPOSSigCap@@@ATL@@WLI@EAAKXZ 00000001800043bc f i SigCap.obj
 0001:000033c8       ?Release@?$CComContainedObject@VCOPOSSigCap@@@ATL@@WLI@EAAKXZ 00000001800043c8 f i SigCap.obj
 0001:000033d4       ?QueryInterface@?$CComContainedObject@VCOPOSSigCap@@@ATL@@WMA@EAAJAEBU_GUID@@PEAPEAX@Z 00000001800043d4 f i SigCap.obj
 0001:000033e0       ?AddRef@?$CComContainedObject@VCOPOSSigCap@@@ATL@@WMA@EAAKXZ 00000001800043e0 f i SigCap.obj
 0001:000033ec       ?Release@?$CComContainedObject@VCOPOSSigCap@@@ATL@@WMA@EAAKXZ 00000001800043ec f i SigCap.obj
 0001:000033f8       ?QueryInterface@?$CComContainedObject@VCOPOSSigCap@@@ATL@@WMI@EAAJAEBU_GUID@@PEAPEAX@Z 00000001800043f8 f i SigCap.obj
 0001:00003404       ?AddRef@?$CComContainedObject@VCOPOSSigCap@@@ATL@@WMI@EAAKXZ 0000000180004404 f i SigCap.obj
 0001:00003410       ?Release@?$CComContainedObject@VCOPOSSigCap@@@ATL@@WMI@EAAKXZ 0000000180004410 f i SigCap.obj
 0001:0000341c       ?QueryInterface@?$CComContainedObject@VCOPOSSigCap@@@ATL@@WNA@EAAJAEBU_GUID@@PEAPEAX@Z 000000018000441c f i SigCap.obj
 0001:00003428       ?AddRef@?$CComContainedObject@VCOPOSSigCap@@@ATL@@WNA@EAAKXZ 0000000180004428 f i SigCap.obj
 0001:00003434       ?Release@?$CComContainedObject@VCOPOSSigCap@@@ATL@@WNA@EAAKXZ 0000000180004434 f i SigCap.obj
 0001:00003440       ?QueryInterface@?$CComContainedObject@VCOPOSSigCap@@@ATL@@WNI@EAAJAEBU_GUID@@PEAPEAX@Z 0000000180004440 f i SigCap.obj
 0001:0000344c       ?AddRef@?$CComContainedObject@VCOPOSSigCap@@@ATL@@WNI@EAAKXZ 000000018000444c f i SigCap.obj
 0001:00003458       ?Release@?$CComContainedObject@VCOPOSSigCap@@@ATL@@WNI@EAAKXZ 0000000180004458 f i SigCap.obj
 0001:00003464       ?QueryInterface@?$CComContainedObject@VCOPOSSigCap@@@ATL@@WOA@EAAJAEBU_GUID@@PEAPEAX@Z 0000000180004464 f i SigCap.obj
 0001:00003470       ?AddRef@?$CComContainedObject@VCOPOSSigCap@@@ATL@@WOA@EAAKXZ 0000000180004470 f i SigCap.obj
 0001:0000347c       ?Release@?$CComContainedObject@VCOPOSSigCap@@@ATL@@WOA@EAAKXZ 000000018000447c f i SigCap.obj
 0001:00003488       ?QueryInterface@?$CComContainedObject@VCOPOSSigCap@@@ATL@@WOI@EAAJAEBU_GUID@@PEAPEAX@Z 0000000180004488 f i SigCap.obj
 0001:00003494       ?AddRef@?$CComContainedObject@VCOPOSSigCap@@@ATL@@WOI@EAAKXZ 0000000180004494 f i SigCap.obj
 0001:000034a0       ?Release@?$CComContainedObject@VCOPOSSigCap@@@ATL@@WOI@EAAKXZ 00000001800044a0 f i SigCap.obj
 0001:000034ac       ?QueryInterface@?$CComContainedObject@VCOPOSSigCap@@@ATL@@WPA@EAAJAEBU_GUID@@PEAPEAX@Z 00000001800044ac f i SigCap.obj
 0001:000034b8       ?AddRef@?$CComContainedObject@VCOPOSSigCap@@@ATL@@WPA@EAAKXZ 00000001800044b8 f i SigCap.obj
 0001:000034c4       ?Release@?$CComContainedObject@VCOPOSSigCap@@@ATL@@WPA@EAAKXZ 00000001800044c4 f i SigCap.obj
 0001:000034d0       ?QueryInterface@?$CComContainedObject@VCOPOSSigCap@@@ATL@@WPI@EAAJAEBU_GUID@@PEAPEAX@Z 00000001800044d0 f i SigCap.obj
 0001:000034dc       ?AddRef@?$CComContainedObject@VCOPOSSigCap@@@ATL@@WPI@EAAKXZ 00000001800044dc f i SigCap.obj
 0001:000034e8       ?Release@?$CComContainedObject@VCOPOSSigCap@@@ATL@@WPI@EAAKXZ 00000001800044e8 f i SigCap.obj
 0001:000034f4       ?QueryInterface@?$CComContainedObject@VCOPOSSigCap@@@ATL@@WBAA@EAAJAEBU_GUID@@PEAPEAX@Z 00000001800044f4 f i SigCap.obj
 0001:00003500       ?AddRef@?$CComContainedObject@VCOPOSSigCap@@@ATL@@WBAA@EAAKXZ 0000000180004500 f i SigCap.obj
 0001:0000350c       ?Release@?$CComContainedObject@VCOPOSSigCap@@@ATL@@WBAA@EAAKXZ 000000018000450c f i SigCap.obj
 0001:00003518       ?QueryInterface@?$CComContainedObject@VCOPOSSigCap@@@ATL@@WBAI@EAAJAEBU_GUID@@PEAPEAX@Z 0000000180004518 f i SigCap.obj
 0001:00003524       ?AddRef@?$CComContainedObject@VCOPOSSigCap@@@ATL@@WBAI@EAAKXZ 0000000180004524 f i SigCap.obj
 0001:00003530       ?Release@?$CComContainedObject@VCOPOSSigCap@@@ATL@@WBAI@EAAKXZ 0000000180004530 f i SigCap.obj
 0001:0000353c       ?QueryInterface@?$CComContainedObject@VCOPOSSigCap@@@ATL@@WBBA@EAAJAEBU_GUID@@PEAPEAX@Z 000000018000453c f i SigCap.obj
 0001:00003548       ?AddRef@?$CComContainedObject@VCOPOSSigCap@@@ATL@@WBBA@EAAKXZ 0000000180004548 f i SigCap.obj
 0001:00003554       ?Release@?$CComContainedObject@VCOPOSSigCap@@@ATL@@WBBA@EAAKXZ 0000000180004554 f i SigCap.obj
 0001:00003560       ?QueryInterface@?$CComContainedObject@VCOPOSSigCap@@@ATL@@WBBI@EAAJAEBU_GUID@@PEAPEAX@Z 0000000180004560 f i SigCap.obj
 0001:0000356c       ?AddRef@?$CComContainedObject@VCOPOSSigCap@@@ATL@@WBBI@EAAKXZ 000000018000456c f i SigCap.obj
 0001:00003578       ?Release@?$CComContainedObject@VCOPOSSigCap@@@ATL@@WBBI@EAAKXZ 0000000180004578 f i SigCap.obj
 0001:00003584       ?AddRef@?$CComContainedObject@VCOPOSSigCap@@@ATL@@WBCI@EAAKXZ 0000000180004584 f i SigCap.obj
 0001:00003590       ?Release@?$CComContainedObject@VCOPOSSigCap@@@ATL@@WBCI@EAAKXZ 0000000180004590 f i SigCap.obj
 0001:0000359c       ?AddRef@?$CComContainedObject@VCOPOSSigCap@@@ATL@@WBEA@EAAKXZ 000000018000459c f i SigCap.obj
 0001:000035a8       ?Release@?$CComContainedObject@VCOPOSSigCap@@@ATL@@WBEA@EAAKXZ 00000001800045a8 f i SigCap.obj
 0001:000035b4       ?CreateInstance@CComClassFactory@ATL@@UEAAJPEAUIUnknown@@AEBU_GUID@@PEAPEAX@Z 00000001800045b4 f i SigCap.obj
 0001:00003614       ?LockServer@CComClassFactory@ATL@@UEAAJH@Z 0000000180004614 f i SigCap.obj
 0001:00003638       ??_GCComClassFactory@ATL@@UEAAPEAXI@Z 0000000180004638 f i SigCap.obj
 0001:00003638       ??_ECComClassFactory@ATL@@UEAAPEAXI@Z 0000000180004638 f i SigCap.obj
 0001:00003688       ??$AtlModuleRegisterWndClassInfoT@VAtlModuleRegisterWndClassInfoParamW@ATL@@@ATL@@YAGPEAU_ATL_BASE_MODULE70@0@PEAU_ATL_WIN_MODULE70@0@PEAU_ATL_WNDCLASSINFOW@0@PEAP6A_JPEAUHWND__@@I_K_J@ZVAtlModuleRegisterWndClassInfoParamW@0@@Z 0000000180004688 f i SigCap.obj
 0001:00003888       ??0?$CComContainedObject@VCOPOSSigCap@@@ATL@@QEAA@PEAX@Z 0000000180004888 f i SigCap.obj
 0001:000039a4       ??0?$CComObject@VCOPOSSigCap@@@ATL@@QEAA@PEAX@Z 00000001800049a4 f i SigCap.obj
 0001:00003abc       ??0CAtlModule@ATL@@QEAA@XZ 0000000180004abc f i SigCap.obj
 0001:00003b30       ??1?$CComEnumImpl@UIEnumConnectionPoints@@$1?_GUID_b196b285_bab4_101a_b69c_00aa00341d07@@3U__s_GUID@@BPEAUIConnectionPoint@@V?$_CopyInterface@UIConnectionPoint@@@ATL@@@ATL@@UEAA@XZ 0000000180004b30 f i SigCap.obj
 0001:00003b8c       ??1?$CComEnumImpl@UIEnumConnections@@$1?_GUID_b196b287_bab4_101a_b69c_00aa00341d07@@3U__s_GUID@@BUtagCONNECTDATA@@V?$_Copy@UtagCONNECTDATA@@@ATL@@@ATL@@UEAA@XZ 0000000180004b8c f i SigCap.obj
 0001:00003be8       ??1?$CComObject@VCOPOSSigCap@@@ATL@@UEAA@XZ 0000000180004be8 f i SigCap.obj
 0001:00003d08       ??_G?$CComContainedObject@VCOPOSSigCap@@@ATL@@UEAAPEAXI@Z 0000000180004d08 f i SigCap.obj
 0001:00003d08       ??_E?$CComContainedObject@VCOPOSSigCap@@@ATL@@UEAAPEAXI@Z 0000000180004d08 f i SigCap.obj
 0001:00003d3c       ??_G?$CComObject@VCOPOSSigCap@@@ATL@@UEAAPEAXI@Z 0000000180004d3c f i SigCap.obj
 0001:00003d3c       ??_E?$CComObject@VCOPOSSigCap@@@ATL@@UEAAPEAXI@Z 0000000180004d3c f i SigCap.obj
 0001:00003d70       ?Add@?$CSimpleArray@GV?$CSimpleArrayEqualHelper@G@ATL@@@ATL@@QEAAHAEBG@Z 0000000180004d70 f i SigCap.obj
 0001:00003e24       ?Add@?$CSimpleMap@PEA_WPEA_WVCExpansionVectorEqualHelper@ATL@@@ATL@@QEAAHAEBQEA_W0@Z 0000000180004e24 f i SigCap.obj
 0001:00003ec4       ?Add@CComDynamicUnkArray@ATL@@QEAAKPEAUIUnknown@@@Z 0000000180004ec4 f i SigCap.obj
 0001:00003fb0       ?Add@CExpansionVector@ATL@@QEAAHPEB_W0@Z 0000000180004fb0 f i SigCap.obj
 0001:000040e4       ?AddTermFunc@CAtlModule@ATL@@QEAAJP6AX_K@Z0@Z 00000001800050e4 f i SigCap.obj
 0001:00004180       ?AddValue@CRegParser@ATL@@IEAAJAEAVCRegKey@2@PEB_WPEA_W@Z 0000000180005180 f i SigCap.obj
 0001:000045c8       ?AllocateHeap@?$CTempBuffer@_W$0BAA@VCCRTAllocator@ATL@@@ATL@@AEAAX_K@Z 00000001800055c8 f i SigCap.obj
 0001:000045c8       ?AllocateHeap@?$CTempBuffer@E$0BAA@VCCRTAllocator@ATL@@@ATL@@AEAAX_K@Z 00000001800055c8 f i SigCap.obj
 0001:000045c8       ?AllocateHeap@?$CTempBuffer@_W$0EAA@VCCRTAllocator@ATL@@@ATL@@AEAAX_K@Z 00000001800055c8 f i SigCap.obj
 0001:000045f4       ?Append@CParseBuffer@CRegParser@ATL@@QEAAHPEB_WH@Z 00000001800055f4 f i SigCap.obj
 0001:0000473c       ?AtlComModuleGetClassObject@ATL@@YAJPEAU_ATL_COM_MODULE70@1@AEBU_GUID@@1PEAPEAX@Z 000000018000573c f i SigCap.obj
 0001:0000487c       ?AtlComModuleRegisterServer@ATL@@YAJPEAU_ATL_COM_MODULE70@1@HPEBU_GUID@@@Z 000000018000587c f i SigCap.obj
 0001:0000493c       ?AtlComModuleUnregisterServer@ATL@@YAJPEAU_ATL_COM_MODULE70@1@HPEBU_GUID@@@Z 000000018000593c f i SigCap.obj
 0001:000049f8       ?AtlHiMetricToPixel@ATL@@YAXPEBUtagSIZE@@PEAU2@@Z 00000001800059f8 f i SigCap.obj
 0001:00004aa8       ?AtlHresultFromLastError@ATL@@YAJXZ 0000000180005aa8 f i SigCap.obj
 0001:00004ac8       ?AtlHresultFromWin32@ATL@@YAJK@Z 0000000180005ac8 f i SigCap.obj
 0001:00004ad8       ?AtlInternalOleLoadFromStream@ATL@@YAJPEAUIStream@@AEBU_GUID@@PEAPEAXTClassesAllowedInStream@1@K@Z 0000000180005ad8 f i SigCap.obj
 0001:00004c1c       ?AtlInternalQueryInterface@ATL@@YAJPEAXPEBU_ATL_INTMAP_ENTRY@1@AEBU_GUID@@PEAPEAX@Z 0000000180005c1c f i SigCap.obj
 0001:00004d24       ?AtlLoadTypeLib@ATL@@YAJPEAUHINSTANCE__@@PEB_WPEAPEA_WPEAPEAUITypeLib@@@Z 0000000180005d24 f i SigCap.obj
 0001:00004f80       ?AtlRegisterClassCategoriesHelper@ATL@@YAJAEBU_GUID@@PEBU_ATL_CATMAP_ENTRY@1@H@Z 0000000180005f80 f i SigCap.obj
 0001:00005404       ?AtlRegisterTypeLib@ATL@@YAJPEAUHINSTANCE__@@PEB_W@Z 0000000180006404 f i SigCap.obj
 0001:00005600       ?AtlThrowImpl@ATL@@YAXJ@Z  0000000180006600 f i SigCap.obj
 0001:00005624       ?AtlUnRegisterTypeLib@ATL@@YAJPEAUHINSTANCE__@@PEB_W@Z 0000000180006624 f i SigCap.obj
 0001:000056ec       ?AtlWinModuleExtractCreateWndData@ATL@@YAPEAXPEAU_ATL_WIN_MODULE70@1@@Z 00000001800066ec f i SigCap.obj
 0001:00005778       ?Cleanup@CComTypeInfoHolder@ATL@@SAX_K@Z 0000000180006778 f i SigCap.obj
 0001:000057b8       ?ClearReplacements@CExpansionVector@ATL@@QEAAJXZ 00000001800067b8 f i SigCap.obj
 0001:00005854       ?CreateInstance@?$CComCreator@V?$CComAggObject@VCOPOSSigCap@@@ATL@@@ATL@@SAJPEAXAEBU_GUID@@PEAPEAX@Z 0000000180006854 f i SigCap.obj
 0001:00005938       ?CreateInstance@?$CComCreator@V?$CComObject@VCOPOSSigCap@@@ATL@@@ATL@@SAJPEAXAEBU_GUID@@PEAPEAX@Z 0000000180006938 f i SigCap.obj
 0001:000059ec       ?CreateInstance@?$CComObject@V?$CComEnum@UIEnumConnectionPoints@@$1?_GUID_b196b285_bab4_101a_b69c_00aa00341d07@@3U__s_GUID@@BPEAUIConnectionPoint@@V?$_CopyInterface@UIConnectionPoint@@@ATL@@VCComSingleThreadModel@6@@ATL@@@ATL@@SAJPEAPEAV12@@Z 00000001800069ec f i SigCap.obj
 0001:00005a7c       ?CreateInstance@?$CComObject@V?$CComEnum@UIEnumConnections@@$1?_GUID_b196b287_bab4_101a_b69c_00aa00341d07@@3U__s_GUID@@BUtagCONNECTDATA@@V?$_Copy@UtagCONNECTDATA@@@ATL@@VCComSingleThreadModel@6@@ATL@@@ATL@@SAJPEAPEAV12@@Z 0000000180006a7c f i SigCap.obj
 0001:00005b0c       ?DefaultReflectionHandler@?$CWindowImplRoot@VCWindow@ATL@@@ATL@@SAHPEAUHWND__@@I_K_JAEA_J@Z 0000000180006b0c f i SigCap.obj
 0001:00005b70       ?DeleteSubKey@CRegKey@ATL@@QEAAJPEB_W@Z 0000000180006b70 f i SigCap.obj
 0001:00005c08       ?DoEvent@COPOSSigCap@@IEAAXI_K_J@Z 0000000180006c08 f i SigCap.obj
 0001:00005cbc       ?DoVerbPrimary@?$IOleObjectImpl@VCOPOSSigCap@@@ATL@@QEAAJPEBUtagRECT@@PEAUHWND__@@@Z 0000000180006cbc f i SigCap.obj
 0001:00005de8       ?DoVerbProperties@CComControlBase@ATL@@QEAAJPEBUtagRECT@@PEAUHWND__@@@Z 0000000180006de8 f i SigCap.obj
 0001:00006010       ?FireTheEvent@?$CProxy_IOPOSEvents@VCOPOSSigCap@@@@IEAAXPEAVOposVariant@@IAEAJPEB_WJ@Z 0000000180007010 f i SigCap.obj
 0001:000060fc       ?FireViewChange@CComControlBase@ATL@@QEAAJXZ 00000001800070fc f i SigCap.obj
 0001:00006160       ?Fire_DataEvent@?$CProxy_IOPOSEvents@VCOPOSSigCap@@@@QEAAXJ@Z 0000000180007160 f i SigCap.obj
 0001:0000624c       ?Fire_DirectIOEvent@?$CProxy_IOPOSEvents@VCOPOSSigCap@@@@QEAAXJPEAJPEAPEA_W@Z 000000018000724c f i SigCap.obj
 0001:000063ac       ?Fire_ErrorEvent@?$CProxy_IOPOSEvents@VCOPOSSigCap@@@@QEAAXJJJPEAJ@Z 00000001800073ac f i SigCap.obj
 0001:00006520       ?Fire_StatusUpdateEvent@?$CProxy_IOPOSEvents@VCOPOSSigCap@@@@QEAAXJ@Z 0000000180007520 f i SigCap.obj
 0001:0000660c       ?FreeHeap@?$CTempBuffer@_W$0BAA@VCCRTAllocator@ATL@@@ATL@@AEAAXXZ 000000018000760c f i SigCap.obj
 0001:0000660c       ?FreeHeap@?$CTempBuffer@_W$0EAA@VCCRTAllocator@ATL@@@ATL@@AEAAXXZ 000000018000760c f i SigCap.obj
 0001:0000660c       ?FreeHeap@?$CTempBuffer@E$0BAA@VCCRTAllocator@ATL@@@ATL@@AEAAXXZ 000000018000760c f i SigCap.obj
 0001:00006614       ?GetAmbientLocaleID@CComControlBase@ATL@@QEAAJAEAK@Z 0000000180007614 f i SigCap.obj
 0001:000066d4       ?GetAmbientUserMode@CComControlBase@ATL@@QEAAJAEAH@Z 00000001800076d4 f i SigCap.obj
 0001:000067a4       ?GetClassObject@CComModule@ATL@@QEAAJAEBU_GUID@@0PEAPEAX@Z 00000001800077a4 f i SigCap.obj
 0001:00006898       ?GetConnMap@COPOSSigCap@@SAPEBU_ATL_CONNMAP_ENTRY@ATL@@PEAH@Z 0000000180007898 f i SigCap.obj
 0001:00006920       ?GetIDsOfNames@CComTypeInfoHolder@ATL@@QEAAJAEBU_GUID@@PEAPEA_WIKPEAJ@Z 0000000180007920 f i SigCap.obj
 0001:00006a98       ?GetPagesHelper@?$ISpecifyPropertyPagesImpl@VCOPOSSigCap@@@ATL@@IEAAJPEAUtagCAUUID@@PEBUATL_PROPMAP_ENTRY@2@@Z 0000000180007a98 f i SigCap.obj
 0001:00006c38       ?GetSizeMax@CComVariant@ATL@@QEBAJPEAT_ULARGE_INTEGER@@@Z 0000000180007c38 f i SigCap.obj
 0001:00006e68       ?GetTI@CComTypeInfoHolder@ATL@@QEAAJK@Z 0000000180007e68 f i SigCap.obj
 0001:00007150       ?GetZoomInfo@CComControlBase@ATL@@QEAAXAEAUATL_DRAWINFO@@@Z 0000000180008150 f i SigCap.obj
 0001:000071f4       ?HKeyFromString@CRegParser@ATL@@KAPEAUHKEY__@@PEA_W@Z 00000001800081f4 f i SigCap.obj
 0001:00007258       ?IDataObject_GetData@CComControlBase@ATL@@QEAAJPEAUtagFORMATETC@@PEAUtagSTGMEDIUM@@@Z 0000000180008258 f i SigCap.obj
 0001:0000744c       ?IOleInPlaceObject_InPlaceDeactivate@CComControlBase@ATL@@QEAAJXZ 000000018000844c f i SigCap.obj
 0001:000074ec       ?IOleInPlaceObject_SetObjectRects@CComControlBase@ATL@@QEAAJPEBUtagRECT@@0@Z 00000001800084ec f i SigCap.obj
 0001:000075dc       ?IOleInPlaceObject_UIDeactivate@CComControlBase@ATL@@QEAAJXZ 00000001800085dc f i SigCap.obj
 0001:000076e8       ?IOleObject_Close@CComControlBase@ATL@@QEAAJK@Z 00000001800086e8 f i SigCap.obj
 0001:00007800       ?IOleObject_SetClientSite@CComControlBase@ATL@@QEAAJPEAUIOleClientSite@@@Z 0000000180008800 f i SigCap.obj
 0001:00007878       ?IOleObject_SetExtent@CComControlBase@ATL@@QEAAJKPEAUtagSIZE@@@Z 0000000180008878 f i SigCap.obj
 0001:00007910       ?IPSI_GetIPersistStreamInit@?$IPersistStorageImpl@VCOPOSSigCap@@@ATL@@AEAAPEAUIPersistStreamInit@@XZ 0000000180008910 f i SigCap.obj
 0001:000079f8       ?IPersistStreamInit_Load@?$IPersistStreamInitImpl@VCOPOSSigCap@@@ATL@@QEAAJPEAUIStream@@PEBUATL_PROPMAP_ENTRY@2@@Z 00000001800089f8 f i SigCap.obj
 0001:00007d24       ?IPersistStreamInit_Save@?$IPersistStreamInitImpl@VCOPOSSigCap@@@ATL@@QEAAJPEAUIStream@@HPEBUATL_PROPMAP_ENTRY@2@@Z 0000000180008d24 f i SigCap.obj
 0001:00007fc4       ?IQuickActivate_QuickActivate@CComControlBase@ATL@@QEAAJPEAUtagQACONTAINER@@PEAUtagQACONTROL@@@Z 0000000180008fc4 f i SigCap.obj
 0001:00008288       ?IViewObject_Draw@CComControlBase@ATL@@QEAAJKJPEAXPEAUtagDVTARGETDEVICE@@PEAUHDC__@@2PEBU_RECTL@@3@Z 0000000180009288 f i SigCap.obj
 0001:0000839c       ?InPlaceActivate@CComControlBase@ATL@@QEAAJJPEBUtagRECT@@@Z 000000018000939c f i SigCap.obj
 0001:000086d0       ?Init@?$CComEnumImpl@UIEnumConnectionPoints@@$1?_GUID_b196b285_bab4_101a_b69c_00aa00341d07@@3U__s_GUID@@BPEAUIConnectionPoint@@V?$_CopyInterface@UIConnectionPoint@@@ATL@@@ATL@@QEAAJPEAPEAUIConnectionPoint@@0PEAUIUnknown@@W4CComEnumFlags@2@@Z 00000001800096d0 f i SigCap.obj
 0001:000087f0       ?Init@?$CComEnumImpl@UIEnumConnections@@$1?_GUID_b196b287_bab4_101a_b69c_00aa00341d07@@3U__s_GUID@@BUtagCONNECTDATA@@V?$_Copy@UtagCONNECTDATA@@@ATL@@@ATL@@QEAAJPEAUtagCONNECTDATA@@0PEAUIUnknown@@W4CComEnumFlags@2@@Z 00000001800097f0 f i SigCap.obj
 0001:00008914       ?IsEqualObject@?$CComPtrBase@UIOleClientSite@@@ATL@@QEAA_NPEAUIUnknown@@@Z 0000000180009914 f i SigCap.obj
 0001:000089a0       ?LoadNameCache@CComTypeInfoHolder@ATL@@QEAAJPEAUITypeInfo@@@Z 00000001800099a0 f i SigCap.obj
 0001:00008b20       ?Lookup@?$CSimpleMap@PEA_WPEA_WVCExpansionVectorEqualHelper@ATL@@@ATL@@QEBAPEA_WAEBQEA_W@Z 0000000180009b20 f i SigCap.obj
 0001:00008ba8       ?NextToken@CRegParser@ATL@@IEAAJPEA_W@Z 0000000180009ba8 f i SigCap.obj
 0001:00008d60       ?OnKillFocus@CComControlBase@ATL@@QEAA_JI_K_JAEAH@Z 0000000180009d60 f i SigCap.obj
 0001:00008dfc       ?OnMouseActivate@CComControlBase@ATL@@QEAA_JI_K_JAEAH@Z 0000000180009dfc f i SigCap.obj
 0001:00008e9c       ?OnPaint@CComControlBase@ATL@@QEAA_JI_K_JAEAH@Z 0000000180009e9c f i SigCap.obj
 0001:00008f88       ?OnSetFocus@CComControlBase@ATL@@QEAA_JI_K_JAEAH@Z 0000000180009f88 f i SigCap.obj
 0001:00009084       ?PreProcessBuffer@CRegParser@ATL@@QEAAJPEA_WPEAPEA_W@Z 000000018000a084 f i SigCap.obj
 0001:00009410       ?ProcessWindowMessage@?$CComControl@VCOPOSSigCap@@V?$CWindowImpl@VCOPOSSigCap@@VCWindow@ATL@@V?$CWinTraits@$0FGAAAAAA@$0A@@3@@ATL@@@ATL@@UEAAHPEAUHWND__@@I_K_JAEA_JK@Z 000000018000a410 f i SigCap.obj
 0001:000094f4       ?ReadFromStream@CComBSTR@ATL@@QEAAJPEAUIStream@@@Z 000000018000a4f4 f i SigCap.obj
 0001:00009644       ?ReadFromStream@CComVariant@ATL@@QEAAJPEAUIStream@@GTClassesAllowedInStream@2@K@Z 000000018000a644 f i SigCap.obj
 0001:00009868       ?RecurseDeleteKey@CRegKey@ATL@@QEAAJPEB_W@Z 000000018000a868 f i SigCap.obj
 0001:000099c0       ?RegCreateKeyExW@CAtlTransactionManager@ATL@@QEAAJPEAUHKEY__@@PEB_WKPEA_WKKQEAU_SECURITY_ATTRIBUTES@@PEAPEAU3@PEAK@Z 000000018000a9c0 f i SigCap.obj
 0001:00009af4       ?RegDeleteKeyW@CAtlTransactionManager@ATL@@QEAAJPEAUHKEY__@@PEB_W@Z 000000018000aaf4 f i SigCap.obj
 0001:00009b80       ?RegOpenKeyExW@CAtlTransactionManager@ATL@@QEAAJPEAUHKEY__@@PEB_WKKPEAPEAU3@@Z 000000018000ab80 f i SigCap.obj
 0001:00009c38       ?RegisterBuffer@CRegParser@ATL@@QEAAJPEA_WH@Z 000000018000ac38 f i SigCap.obj
 0001:00009da0       ?RegisterFromResource@CRegObject@ATL@@IEAAJPEB_W00H@Z 000000018000ada0 f i SigCap.obj
 0001:00009f5c       ?RegisterServer@CComModule@ATL@@QEAAJHPEBU_GUID@@@Z 000000018000af5c f i SigCap.obj
 0001:0000a01c       ?RegisterSubkeys@CRegParser@ATL@@IEAAJPEA_WPEAUHKEY__@@HH@Z 000000018000b01c f i SigCap.obj
 0001:0000a888       ?SendOnDataChange@CComControlBase@ATL@@QEAAJK@Z 000000018000b888 f i SigCap.obj
 0001:0000a8f8       ?SetControlFocus@CComControlBase@ATL@@QEAAHH@Z 000000018000b8f8 f i SigCap.obj
 0001:0000a9d4       ?SkipAssignment@CRegParser@ATL@@IEAAJPEA_W@Z 000000018000b9d4 f i SigCap.obj
 0001:0000aa78       ?Term@CAtlModule@ATL@@QEAAXXZ 000000018000ba78 f i SigCap.obj
 0001:0000aaf8       ?Term@CComModule@ATL@@QEAAXXZ 000000018000baf8 f i SigCap.obj
 0001:0000ab74       ?UnregisterServer@CComModule@ATL@@QEAAJHPEBU_GUID@@@Z 000000018000bb74 f i SigCap.obj
 0001:0000ac24       ?UpdateRegistryFromResource@CAtlModule@ATL@@QEAAJIHPEAU_ATL_REGMAP_ENTRY@2@@Z 000000018000bc24 f i SigCap.obj
 0001:0000af30       ?UpdateRegistryFromResource@CAtlModule@ATL@@QEAAJPEB_WHPEAU_ATL_REGMAP_ENTRY@2@@Z 000000018000bf30 f i SigCap.obj
 0001:0000b254       ?VTFromRegType@CRegParser@ATL@@KAHPEB_WAEAG@Z 000000018000c254 f i SigCap.obj
 0001:0000b2f0       ?WindowProc@?$CWindowImplBaseT@VCWindow@ATL@@V?$CWinTraits@$0FGAAAAAA@$0A@@2@@ATL@@SA_JPEAUHWND__@@I_K_J@Z 000000018000c2f0 f i SigCap.obj
 0001:0000b45c       ?WriteToStream@CComVariant@ATL@@QEAAJPEAUIStream@@@Z 000000018000c45c f i SigCap.obj
 0001:0000b6d8       ?WriteToStream@CComVariant@ATL@@QEAAJPEAUIStream@@G@Z 000000018000c6d8 f i SigCap.obj
 0001:0000b770       ?_AtlVerifyStackAvailable@_ATL_SAFE_ALLOCA_IMPL@ATL@@YA_N_K@Z 000000018000c770 f i SigCap.obj
 0001:0000b7f4       ?atlCreate@?$CWindowImpl@VCOPOSSigCap@@VCWindow@ATL@@V?$CWinTraits@$0FGAAAAAA@$0A@@3@@ATL@@QEAAPEAUHWND__@@PEAU3@V_U_RECT@2@PEB_WKKV_U_MENUorID@2@PEAX@Z 000000018000c7f4 f i SigCap.obj
 0001:0000b8a4       ?atlCreate@?$CWindowImplBaseT@VCWindow@ATL@@V?$CWinTraits@$0FGAAAAAA@$0A@@2@@ATL@@QEAAPEAUHWND__@@PEAU3@V_U_RECT@2@PEB_WKKV_U_MENUorID@2@GPEAX@Z 000000018000c8a4 f i SigCap.obj
 0001:0000ba14       ?ocscpy_s@@YA_NPEA_W_KPEB_W@Z 000000018000ca14 f i SigCap.obj
 0001:0000bac4       DllCanUnloadNow            000000018000cac4 f   SigCap.obj
 0001:0000bad0       DllGetClassObject          000000018000cad0 f   SigCap.obj
 0001:0000bae8       DllMain                    000000018000cae8 f   SigCap.obj
 0001:0000bb90       DllRegisterServer          000000018000cb90 f   SigCap.obj
 0001:0000bba4       DllUnregisterServer        000000018000cba4 f   SigCap.obj
 0001:0000bbb8       __local_stdio_printf_options 000000018000cbb8 f i SigCap.obj
 0001:0000bbc0       swprintf_s                 000000018000cbc0 f i SigCap.obj
 0001:0000bc14       ??0COPOSSigCap@@QEAA@XZ    000000018000cc14 f   SigCapImpl.obj
 0001:0000bcdc       ??1?$IConnectionPointImpl@VCOPOSSigCap@@$1?IID_IPropertyNotifySink@@3U_GUID@@BVCComDynamicUnkArray@ATL@@@ATL@@QEAA@XZ 000000018000ccdc f i SigCapImpl.obj
 0001:0000bcdc       ??1?$IConnectionPointImpl@VCOPOSSigCap@@$1?DIID__IOPOSSigCapEvents@@3U_GUID@@BVCComDynamicUnkArray@ATL@@@ATL@@QEAA@XZ 000000018000ccdc f i SigCapImpl.obj
 0001:0000bd38       ??1CComControlBase@ATL@@UEAA@XZ 000000018000cd38 f i SigCapImpl.obj
 0001:0000bdb4       ??1COPOSSigCap@@UEAA@XZ    000000018000cdb4 f   SigCapImpl.obj
 0001:0000be18       ?BeginCapture@COPOSSigCap@@UEAAJPEA_WPEAJ@Z 000000018000ce18 f   SigCapImpl.obj
 0001:0000bea0       ?CheckHealth@COPOSSigCap@@UEAAJJPEAJ@Z 000000018000cea0 f   SigCapImpl.obj
 0001:0000bf1c       ?ClaimDevice@COPOSSigCap@@UEAAJJPEAJ@Z 000000018000cf1c f   SigCapImpl.obj
 0001:0000bfbc       ?ClearInput@COPOSSigCap@@UEAAJPEAJ@Z 000000018000cfbc f   SigCapImpl.obj
 0001:0000bfe4       ?ClearInputProperties@COPOSSigCap@@UEAAJPEAJ@Z 000000018000cfe4 f   SigCapImpl.obj
 0001:0000c00c       ?Close@COPOSSigCap@@UEAAJPEAJ@Z 000000018000d00c f   SigCapImpl.obj
 0001:0000c0c4       ?CompareFirmwareVersion@COPOSSigCap@@UEAAJPEA_WPEAJ1@Z 000000018000d0c4 f   SigCapImpl.obj
 0001:0000c1a0       ?DirectIO@COPOSSigCap@@UEAAJJPEAJPEAPEA_W0@Z 000000018000d1a0 f   SigCapImpl.obj
 0001:0000c29c       ?DoInvoke@COPOSSigCap@@IEAAJJPEAVOposVariant@@IHPEAJ_N@Z 000000018000d29c f   SigCapImpl.obj
 0001:0000c3d0       ?EndCapture@COPOSSigCap@@UEAAJPEAJ@Z 000000018000d3d0 f   SigCapImpl.obj
 0001:0000c3f8       ?EventInit@COPOSSigCap@@IEAAJXZ 000000018000d3f8 f i SigCapImpl.obj
 0001:0000c540       ?EventUninit@COPOSSigCap@@IEAAXXZ 000000018000d540 f i SigCapImpl.obj
 0001:0000c5a4       ?EventWindowProc@COPOSSigCap@@IEAA_JI_K_J@Z 000000018000d5a4 f i SigCapImpl.obj
 0001:0000c71c       ?FinalConstruct@COPOSSigCap@@QEAAJXZ 000000018000d71c f   SigCapImpl.obj
 0001:0000c758       ?FreezeEvents@COPOSSigCap@@MEAAJH@Z 000000018000d758 f   SigCapImpl.obj
 0001:0000c7cc       ?GetOposProp@COPOSSigCap@@IEAAJJPEAJJ@Z 000000018000d7cc f   SigCapImpl.obj
 0001:0000c8e8       ?GetOposProp@COPOSSigCap@@IEAAJJPEAPEA_WJ@Z 000000018000d8e8 f   SigCapImpl.obj
 0001:0000ca14       ?OnDraw@COPOSSigCap@@MEAAJAEAUATL_DRAWINFO@@@Z 000000018000da14 f   SigCapImpl.obj
 0001:0000cb00       ?Open@COPOSSigCap@@UEAAJPEA_WPEAJ@Z 000000018000db00 f   SigCapImpl.obj
 0001:0000d388       ?ReleaseDevice@COPOSSigCap@@UEAAJPEAJ@Z 000000018000e388 f   SigCapImpl.obj
 0001:0000d3f4       ?ResetStatistics@COPOSSigCap@@UEAAJPEA_WPEAJ@Z 000000018000e3f4 f   SigCapImpl.obj
 0001:0000d47c       ?RetrieveStatistics@COPOSSigCap@@UEAAJPEAPEA_WPEAJ@Z 000000018000e47c f   SigCapImpl.obj
 0001:0000d504       ?SOProcessID@COPOSSigCap@@UEAAJPEAJ@Z 000000018000e504 f   SigCapImpl.obj
 0001:0000d520       ?SetCOFreezeEvents@COPOSSigCap@@IEAAXF@Z 000000018000e520 f   SigCapImpl.obj
 0001:0000d604       ?SetOposProp@COPOSSigCap@@IEAAJJJJ@Z 000000018000e604 f   SigCapImpl.obj
 0001:0000d764       ?UpdateFirmware@COPOSSigCap@@UEAAJPEA_WPEAJ@Z 000000018000e764 f   SigCapImpl.obj
 0001:0000d7ec       ?UpdateStatistics@COPOSSigCap@@UEAAJPEA_WPEAJ@Z 000000018000e7ec f   SigCapImpl.obj
 0001:0000d874       ?get_AutoDisable@COPOSSigCap@@UEAAJPEAF@Z 000000018000e874 f   SigCapImpl.obj
 0001:0000d8a8       ?get_BinaryConversion@COPOSSigCap@@UEAAJPEAJ@Z 000000018000e8a8 f   SigCapImpl.obj
 0001:0000d8bc       ?get_CapCompareFirmwareVersion@COPOSSigCap@@UEAAJPEAF@Z 000000018000e8bc f   SigCapImpl.obj
 0001:0000d8f0       ?get_CapDisplay@COPOSSigCap@@UEAAJPEAF@Z 000000018000e8f0 f   SigCapImpl.obj
 0001:0000d920       ?get_CapPowerReporting@COPOSSigCap@@UEAAJPEAJ@Z 000000018000e920 f   SigCapImpl.obj
 0001:0000d934       ?get_CapRealTimeData@COPOSSigCap@@UEAAJPEAF@Z 000000018000e934 f   SigCapImpl.obj
 0001:0000d968       ?get_CapStatisticsReporting@COPOSSigCap@@UEAAJPEAF@Z 000000018000e968 f   SigCapImpl.obj
 0001:0000d99c       ?get_CapUpdateFirmware@COPOSSigCap@@UEAAJPEAF@Z 000000018000e99c f   SigCapImpl.obj
 0001:0000d9d0       ?get_CapUpdateStatistics@COPOSSigCap@@UEAAJPEAF@Z 000000018000e9d0 f   SigCapImpl.obj
 0001:0000da04       ?get_CapUserTerminated@COPOSSigCap@@UEAAJPEAF@Z 000000018000ea04 f   SigCapImpl.obj
 0001:0000da34       ?get_CheckHealthText@COPOSSigCap@@UEAAJPEAPEA_W@Z 000000018000ea34 f   SigCapImpl.obj
 0001:0000da44       ?get_Claimed@COPOSSigCap@@UEAAJPEAF@Z 000000018000ea44 f   SigCapImpl.obj
 0001:0000da74       ?get_ControlObjectDescription@COPOSSigCap@@UEAAJPEAPEA_W@Z 000000018000ea74 f   SigCapImpl.obj
 0001:0000dad8       ?get_ControlObjectVersion@COPOSSigCap@@UEAAJPEAJ@Z 000000018000ead8 f   SigCapImpl.obj
 0001:0000dae4       ?get_DataCount@COPOSSigCap@@UEAAJPEAJ@Z 000000018000eae4 f   SigCapImpl.obj
 0001:0000daf8       ?get_DataEventEnabled@COPOSSigCap@@UEAAJPEAF@Z 000000018000eaf8 f   SigCapImpl.obj
 0001:0000db28       ?get_DeviceDescription@COPOSSigCap@@UEAAJPEAPEA_W@Z 000000018000eb28 f   SigCapImpl.obj
 0001:0000db38       ?get_DeviceEnabled@COPOSSigCap@@UEAAJPEAF@Z 000000018000eb38 f   SigCapImpl.obj
 0001:0000db68       ?get_DeviceName@COPOSSigCap@@UEAAJPEAPEA_W@Z 000000018000eb68 f   SigCapImpl.obj
 0001:0000db78       ?get_FreezeEvents@COPOSSigCap@@UEAAJPEAF@Z 000000018000eb78 f   SigCapImpl.obj
 0001:0000dba8       ?get_MaximumX@COPOSSigCap@@UEAAJPEAJ@Z 000000018000eba8 f   SigCapImpl.obj
 0001:0000dbb8       ?get_MaximumY@COPOSSigCap@@UEAAJPEAJ@Z 000000018000ebb8 f   SigCapImpl.obj
 0001:0000dbc8       ?get_OpenResult@COPOSSigCap@@UEAAJPEAJ@Z 000000018000ebc8 f   SigCapImpl.obj
 0001:0000dbd4       ?get_PointArray@COPOSSigCap@@UEAAJPEAPEA_W@Z 000000018000ebd4 f   SigCapImpl.obj
 0001:0000dbe4       ?get_PowerNotify@COPOSSigCap@@UEAAJPEAJ@Z 000000018000ebe4 f   SigCapImpl.obj
 0001:0000dbf8       ?get_PowerState@COPOSSigCap@@UEAAJPEAJ@Z 000000018000ebf8 f   SigCapImpl.obj
 0001:0000dc0c       ?get_RawData@COPOSSigCap@@UEAAJPEAPEA_W@Z 000000018000ec0c f   SigCapImpl.obj
 0001:0000dc1c       ?get_RealTimeDataEnabled@COPOSSigCap@@UEAAJPEAF@Z 000000018000ec1c f   SigCapImpl.obj
 0001:0000dc50       ?get_ResultCode@COPOSSigCap@@UEAAJPEAJ@Z 000000018000ec50 f   SigCapImpl.obj
 0001:0000dc8c       ?get_ResultCodeExtended@COPOSSigCap@@UEAAJPEAJ@Z 000000018000ec8c f   SigCapImpl.obj
 0001:0000dc9c       ?get_ServiceObjectDescription@COPOSSigCap@@UEAAJPEAPEA_W@Z 000000018000ec9c f   SigCapImpl.obj
 0001:0000dcac       ?get_ServiceObjectVersion@COPOSSigCap@@UEAAJPEAJ@Z 000000018000ecac f   SigCapImpl.obj
 0001:0000dcbc       ?get_State@COPOSSigCap@@UEAAJPEAJ@Z 000000018000ecbc f   SigCapImpl.obj
 0001:0000dce8       ?get_TotalPoints@COPOSSigCap@@UEAAJPEAJ@Z 000000018000ece8 f   SigCapImpl.obj
 0001:0000dcf8       ?put_AutoDisable@COPOSSigCap@@UEAAJF@Z 000000018000ecf8 f   SigCapImpl.obj
 0001:0000dd10       ?put_BinaryConversion@COPOSSigCap@@UEAAJJ@Z 000000018000ed10 f   SigCapImpl.obj
 0001:0000dd24       ?put_DataEventEnabled@COPOSSigCap@@UEAAJF@Z 000000018000ed24 f   SigCapImpl.obj
 0001:0000dd3c       ?put_DeviceEnabled@COPOSSigCap@@UEAAJF@Z 000000018000ed3c f   SigCapImpl.obj
 0001:0000dd54       ?put_FreezeEvents@COPOSSigCap@@UEAAJF@Z 000000018000ed54 f   SigCapImpl.obj
 0001:0000dda4       ?put_PowerNotify@COPOSSigCap@@UEAAJJ@Z 000000018000eda4 f   SigCapImpl.obj
 0001:0000ddb8       ?put_RealTimeDataEnabled@COPOSSigCap@@UEAAJF@Z 000000018000edb8 f   SigCapImpl.obj
 0001:0000ddd4       ?s_EventWindowProc@COPOSSigCap@@KA_JPEAUHWND__@@I_K_J@Z 000000018000edd4 f i SigCapImpl.obj
 0001:0000de50       ??_U@YAPEAX_K@Z            000000018000ee50 f   LIBCMT:new_array.obj
 0001:0000de58       ??_V@YAXPEAX@Z             000000018000ee58 f   LIBCMT:delete_array.obj
 0001:0000de58       ??3@YAXPEAX_K@Z            000000018000ee58 f   LIBCMT:delete_scalar_size.obj
 0001:0000de60       ??_V@YAXPEAX_K@Z           000000018000ee60 f   LIBCMT:delete_array_size.obj
 0001:0000de68       __scrt_acquire_startup_lock 000000018000ee68 f   LIBCMT:utility.obj
 0001:0000dea4       __scrt_dllmain_after_initialize_c 000000018000eea4 f   LIBCMT:utility.obj
 0001:0000ded8       __scrt_dllmain_before_initialize_c 000000018000eed8 f   LIBCMT:utility.obj
 0001:0000def0       __scrt_dllmain_crt_thread_attach 000000018000eef0 f   LIBCMT:utility.obj
 0001:0000df18       __scrt_dllmain_crt_thread_detach 000000018000ef18 f   LIBCMT:utility.obj
 0001:0000df30       __scrt_dllmain_exception_filter 000000018000ef30 f   LIBCMT:utility.obj
 0001:0000df90       __scrt_dllmain_uninitialize_c 000000018000ef90 f   LIBCMT:utility.obj
 0001:0000dfc0       __scrt_dllmain_uninitialize_critical 000000018000efc0 f   LIBCMT:utility.obj
 0001:0000dfd4       __scrt_initialize_crt      000000018000efd4 f   LIBCMT:utility.obj
 0001:0000e020       __scrt_initialize_onexit_tables 000000018000f020 f   LIBCMT:utility.obj
 0001:0000e0ac       __scrt_is_nonwritable_in_current_image 000000018000f0ac f   LIBCMT:utility.obj
 0001:0000e144       __scrt_release_startup_lock 000000018000f144 f   LIBCMT:utility.obj
 0001:0000e168       __scrt_uninitialize_crt    000000018000f168 f   LIBCMT:utility.obj
 0001:0000e194       _onexit                    000000018000f194 f   LIBCMT:utility.obj
 0001:0000e1d0       atexit                     000000018000f1d0 f   LIBCMT:utility.obj
 0001:0000e1e8       ??3@YAXPEAX@Z              000000018000f1e8 f   LIBCMT:delete_scalar.obj
 0001:0000e2e8       _Init_thread_footer        000000018000f2e8 f   LIBCMT:thread_safe_statics.obj
 0001:0000e348       _Init_thread_header        000000018000f348 f   LIBCMT:thread_safe_statics.obj
 0001:0000e3b0       _Init_thread_notify        000000018000f3b0 f   LIBCMT:thread_safe_statics.obj
 0001:0000e3f4       _Init_thread_wait          000000018000f3f4 f   LIBCMT:thread_safe_statics.obj
 0001:0000e458       __raise_securityfailure    000000018000f458 f   LIBCMT:gs_report.obj
 0001:0000e48c       __report_gsfailure         000000018000f48c f   LIBCMT:gs_report.obj
 0001:0000e560       __report_rangecheckfailure 000000018000f560 f   LIBCMT:gs_report.obj
 0001:0000e574       __report_securityfailure   000000018000f574 f   LIBCMT:gs_report.obj
 0001:0000e6f4       ??2@YAPEAX_KAEBUnothrow_t@std@@@Z 000000018000f6f4 f   LIBCMT:new_scalar_nothrow.obj
 0001:0000e708       ??_U@YAPEAX_KAEBUnothrow_t@std@@@Z 000000018000f708 f   LIBCMT:new_array_nothrow.obj
 0001:0000e710       __GSHandlerCheck           000000018000f710 f   LIBCMT:gshandler.obj
 0001:0000e730       __GSHandlerCheckCommon     000000018000f730 f   LIBCMT:gshandler.obj
 0001:0000e78c       __GSHandlerCheck_SEH       000000018000f78c f   LIBCMT:gshandlerseh.obj
 0001:0000e830       __chkstk                   000000018000f830 f   LIBCMT:chkstk.obj
 0001:0000e830       _alloca_probe              000000018000f830 f   LIBCMT:chkstk.obj
 0001:0000e8a0       __security_check_cookie    000000018000f8a0 f   LIBCMT:amdsecgs.obj
 0001:0000ebe4       _DllMainCRTStartup         000000018000fbe4 f   LIBCMT:dll_dllmain.obj
 0001:0000ec24       ??2@YAPEAX_K@Z             000000018000fc24 f   LIBCMT:new_scalar.obj
 0001:0000ec60       __isa_available_init       000000018000fc60 f   LIBCMT:cpu_disp.obj
 0001:0000ee04       __scrt_is_ucrt_dll_in_use  000000018000fe04 f   LIBCMT:ucrt_detection.obj
 0001:0000ee10       __crt_debugger_hook        000000018000fe10 f   LIBCMT:utility_desktop.obj
 0001:0000ee18       __scrt_fastfail            000000018000fe18 f   LIBCMT:utility_desktop.obj
 0001:0000ef64       __security_init_cookie     000000018000ff64 f   LIBCMT:gs_support.obj
 0001:0000f010       ?__scrt_initialize_type_info@@YAXXZ 0000000180010010 f   LIBCMT:tncleanup.obj
 0001:0000f020       ?__scrt_uninitialize_type_info@@YAXXZ 0000000180010020 f   LIBCMT:tncleanup.obj
 0001:0000f02c       __local_stdio_scanf_options 000000018001002c f i LIBCMT:default_local_stdio_options.obj
 0001:0000f034       __scrt_initialize_default_local_stdio_options 0000000180010034 f   LIBCMT:default_local_stdio_options.obj
 0001:0000f050       __scrt_get_dyn_tls_init_callback 0000000180010050 f   LIBCMT:dyn_tls_init.obj
 0001:0000f058       _RTC_Initialize            0000000180010058 f   LIBCMT:initsect.obj
 0001:0000f094       _RTC_Terminate             0000000180010094 f   LIBCMT:initsect.obj
 0001:0000f0d0       ??0bad_alloc@std@@QEAA@AEBV01@@Z 00000001800100d0 f i LIBCMT:throw_bad_alloc.obj
 0001:0000f10c       ??0bad_alloc@std@@QEAA@XZ  000000018001010c f i LIBCMT:throw_bad_alloc.obj
 0001:0000f12c       ??0bad_array_new_length@std@@QEAA@AEBV01@@Z 000000018001012c f i LIBCMT:throw_bad_alloc.obj
 0001:0000f168       ??0bad_array_new_length@std@@QEAA@XZ 0000000180010168 f i LIBCMT:throw_bad_alloc.obj
 0001:0000f188       ??0exception@std@@QEAA@AEBV01@@Z 0000000180010188 f i LIBCMT:throw_bad_alloc.obj
 0001:0000f1bc       ??1bad_array_new_length@std@@UEAA@XZ 00000001800101bc f i LIBCMT:throw_bad_alloc.obj
 0001:0000f1bc       ??1bad_exception@std@@UEAA@XZ 00000001800101bc f i libvcruntime:frame.obj
 0001:0000f1bc       ??1bad_alloc@std@@UEAA@XZ  00000001800101bc f i LIBCMT:throw_bad_alloc.obj
 0001:0000f1d0       ??_Gexception@std@@UEAAPEAXI@Z 00000001800101d0 f i LIBCMT:throw_bad_alloc.obj
 0001:0000f1d0       ??_Ebad_exception@std@@UEAAPEAXI@Z 00000001800101d0 f i libvcruntime:frame.obj
 0001:0000f1d0       ??_Ebad_array_new_length@std@@UEAAPEAXI@Z 00000001800101d0 f i LIBCMT:throw_bad_alloc.obj
 0001:0000f1d0       ??_Gbad_alloc@std@@UEAAPEAXI@Z 00000001800101d0 f i LIBCMT:throw_bad_alloc.obj
 0001:0000f1d0       ??_Ebad_alloc@std@@UEAAPEAXI@Z 00000001800101d0 f i LIBCMT:throw_bad_alloc.obj
 0001:0000f1d0       ??_Gbad_exception@std@@UEAAPEAXI@Z 00000001800101d0 f i libvcruntime:frame.obj
 0001:0000f1d0       ??_Eexception@std@@UEAAPEAXI@Z 00000001800101d0 f i LIBCMT:throw_bad_alloc.obj
 0001:0000f1d0       ??_Gbad_array_new_length@std@@UEAAPEAXI@Z 00000001800101d0 f i LIBCMT:throw_bad_alloc.obj
 0001:0000f214       ?__scrt_throw_std_bad_alloc@@YAXXZ 0000000180010214 f   LIBCMT:throw_bad_alloc.obj
 0001:0000f234       ?__scrt_throw_std_bad_array_new_length@@YAXXZ 0000000180010234 f   LIBCMT:throw_bad_alloc.obj
 0001:0000f254       ?what@exception@std@@UEBAPEBDXZ 0000000180010254 f i LIBCMT:throw_bad_alloc.obj
 0001:0000f270       ??_Etype_info@@UEAAPEAXI@Z 0000000180010270 f i LIBCMT:std_type_info_static.obj
 0001:0000f270       ??_Gtype_info@@UEAAPEAXI@Z 0000000180010270 f i LIBCMT:std_type_info_static.obj
 0001:0000f29c       ??0CAtlBaseModule@ATL@@QEAA@XZ 000000018001029c f   atls:atlbase.obj
 0001:0000f344       ??1CAtlBaseModule@ATL@@QEAA@XZ 0000000180010344 f   atls:atlbase.obj
 0001:0000f478       ?__AllocStdCallThunk_cmn@@YAPEAXXZ 0000000180010478 f   atls:atlthunk.obj
 0001:0000f5d0       AtlThunk_AllocateData      00000001800105d0 f   atls:atlthunk.obj
 0001:0000f64c       AtlThunk_DataToCode        000000018001064c f   atls:atlthunk.obj
 0001:0000f6a0       AtlThunk_FreeData          00000001800106a0 f   atls:atlthunk.obj
 0001:0000f700       AtlThunk_InitData          0000000180010700 f   atls:atlthunk.obj
 0001:0000f7a8       _get_purecall_handler      00000001800107a8 f   libvcruntime:purevirt.obj
 0001:0000f7b0       _purecall                  00000001800107b0 f   libvcruntime:purevirt.obj
 0001:0000f7cc       wcsstr                     00000001800107cc f   libvcruntime:wcsstr.obj
 0001:0000fa00       memcmp                     0000000180010a00 f   libvcruntime:memcmp.obj
 0001:0000fae0       memcpy_repmovs             0000000180010ae0 f   libvcruntime:memcpy.obj
 0001:0000fb00       memmove                    0000000180010b00 f   libvcruntime:memcpy.obj
 0001:0000fb00       memcpy                     0000000180010b00 f   libvcruntime:memcpy.obj
 0001:0000fef0       memset_repmovs             0000000180010ef0 f   libvcruntime:memset.obj
 0001:0000ff10       memset                     0000000180010f10 f   libvcruntime:memset.obj
 0001:000100a0       __vcrt_initialize          00000001800110a0 f   libvcruntime:initialization.obj
 0001:000100c8       __vcrt_thread_attach       00000001800110c8 f   libvcruntime:initialization.obj
 0001:000100dc       __vcrt_thread_detach       00000001800110dc f   libvcruntime:initialization.obj
 0001:000100f0       __vcrt_uninitialize        00000001800110f0 f   libvcruntime:initialization.obj
 0001:0001010c       __vcrt_uninitialize_critical 000000018001110c f   libvcruntime:initialization.obj
 0001:0001011c       __C_specific_handler       000000018001111c f   libvcruntime:riscchandler.obj
 0001:00010328       ??$_CallSETranslator@V__FrameHandler4@@@@YAHPEAUEHExceptionRecord@@PEA_KPEAU_CONTEXT@@PEAU_xDISPATCHER_CONTEXT@@PEAUFuncInfo4@FH4@@K1H@Z 0000000180011328 f i libvcruntime:risctrnsctrl.obj
 0001:0001037c       ?DecompFuncInfo@FH4@@YA_JPEAEAEAUFuncInfo4@1@_KH_N@Z 000000018001137c f i libvcruntime:risctrnsctrl.obj
 0001:000104a0       ?ExecutionInCatch@__FrameHandler4@@SA_NPEAU_xDISPATCHER_CONTEXT@@PEAUFuncInfo4@FH4@@@Z 00000001800114a0 f   libvcruntime:risctrnsctrl.obj
 0001:000104a8       ?FrameUnwindToEmptyState@__FrameHandler4@@SAXPEA_KPEAU_xDISPATCHER_CONTEXT@@PEAUFuncInfo4@FH4@@@Z 00000001800114a8 f   libvcruntime:risctrnsctrl.obj
 0001:000104dc       ?GetEstablisherFrame@__FrameHandler4@@SAPEA_KPEA_KPEAU_xDISPATCHER_CONTEXT@@PEAUFuncInfo4@FH4@@0@Z 00000001800114dc f   libvcruntime:risctrnsctrl.obj
 0001:00010500       ?GetRangeOfTrysToCheck@__FrameHandler4@@SA?AU?$pair@Viterator@TryBlockMap4@FH4@@V123@@std@@AEAVTryBlockMap4@FH4@@HPEAU_xDISPATCHER_CONTEXT@@PEAUFuncInfo4@5@H@Z 0000000180011500 f   libvcruntime:risctrnsctrl.obj
 0001:0001065c       ?UnwindNestedFrames@__FrameHandler4@@SAXPEA_KPEAUEHExceptionRecord@@PEAU_CONTEXT@@0PEAXPEAUFuncInfo4@FH4@@HHPEAUHandlerType4@5@PEAU_xDISPATCHER_CONTEXT@@E@Z 000000018001165c f   libvcruntime:risctrnsctrl.obj
 0001:0001077c       ?setBuffer@TryBlockMap4@FH4@@QEAAXViterator@12@@Z 000000018001177c f i libvcruntime:risctrnsctrl.obj
 0001:00010940       _CreateFrameInfo           0000000180011940 f   libvcruntime:risctrnsctrl.obj
 0001:0001097c       _FindAndUnlinkFrame        000000018001197c f   libvcruntime:risctrnsctrl.obj
 0001:000109d0       _GetImageBase              00000001800119d0 f   libvcruntime:risctrnsctrl.obj
 0001:000109e4       _GetThrowImageBase         00000001800119e4 f   libvcruntime:risctrnsctrl.obj
 0001:000109f8       _SetImageBase              00000001800119f8 f   libvcruntime:risctrnsctrl.obj
 0001:00010a10       _SetThrowImageBase         0000000180011a10 f   libvcruntime:risctrnsctrl.obj
 0001:00010a28       __CxxFrameHandler4         0000000180011a28 f   libvcruntime:risctrnsctrl.obj
 0001:00010ae8       __DestructExceptionObject  0000000180011ae8 f   libvcruntime:ehhelpers.obj
 0001:00010b58       ?_CallMemberFunction0@@YAXQEAX0@Z 0000000180011b58 f i libvcruntime:ehhelpers.obj
 0001:00010b5c       _IsExceptionObjectToBeDestroyed 0000000180011b5c f   libvcruntime:ehhelpers.obj
 0001:00010b8c       __AdjustPointer            0000000180011b8c f   libvcruntime:ehhelpers.obj
 0001:00010bb0       __FrameUnwindFilter        0000000180011bb0 f   libvcruntime:ehhelpers.obj
 0001:00010c18       __std_type_info_compare    0000000180011c18 f   libvcruntime:std_type_info.obj
 0001:00010c40       __std_type_info_destroy_list 0000000180011c40 f   libvcruntime:std_type_info.obj
 0001:00010c6c       __std_exception_copy       0000000180011c6c f   libvcruntime:std_exception.obj
 0001:00010cfc       __std_exception_destroy    0000000180011cfc f   libvcruntime:std_exception.obj
 0001:00010d24       _CxxThrowException         0000000180011d24 f   libvcruntime:throw.obj
 0001:00010dc4       __vcrt_freefls             0000000180011dc4 f   libvcruntime:per_thread_data.obj
 0001:00010de4       __vcrt_freeptd             0000000180011de4 f   libvcruntime:per_thread_data.obj
 0001:00010e34       __vcrt_getptd              0000000180011e34 f   libvcruntime:per_thread_data.obj
 0001:00010e50       __vcrt_getptd_noexit       0000000180011e50 f   libvcruntime:per_thread_data.obj
 0001:00010f10       __vcrt_initialize_ptd      0000000180011f10 f   libvcruntime:per_thread_data.obj
 0001:00010f58       __vcrt_uninitialize_ptd    0000000180011f58 f   libvcruntime:per_thread_data.obj
 0001:00010f7c       __vcrt_initialize_locks    0000000180011f7c f   libvcruntime:locks.obj
 0001:00010fb0       __vcrt_uninitialize_locks  0000000180011fb0 f   libvcruntime:locks.obj
 0001:00011000       _NLG_Notify                0000000180012000 f   libvcruntime:notify.obj
 0001:00011020       __NLG_Dispatch2            0000000180012020 f   libvcruntime:notify.obj
 0001:00011030       __NLG_Return2              0000000180012030 f   libvcruntime:notify.obj
 0001:00011034       __except_validate_context_record 0000000180012034 f   libvcruntime:jbcxrval.obj
 0001:0001106c       ?StateFromControlPc@__FrameHandler4@@SAHPEAUFuncInfo4@FH4@@PEAU_xDISPATCHER_CONTEXT@@@Z 000000018001206c f   libvcruntime:ehstate.obj
 0001:00011074       ?StateFromIp@__FrameHandler4@@SAHPEAUFuncInfo4@FH4@@PEAU_xDISPATCHER_CONTEXT@@_K@Z 0000000180012074 f   libvcruntime:ehstate.obj
 0001:00011cf8       ??$TypeMatchHelper@V__FrameHandler3@@@@YAHPEBU_s_HandlerType@@PEBU_s_CatchableType@@PEBU_s_ThrowInfo@@@Z 0000000180012cf8 f i libvcruntime:frame.obj
 0001:00011e38       ??$TypeMatchHelper@V__FrameHandler4@@@@YAHPEAUHandlerType4@FH4@@PEBU_s_CatchableType@@PEBU_s_ThrowInfo@@@Z 0000000180012e38 f i libvcruntime:frame.obj
 0001:00011f7c       ??$__InternalCxxFrameHandler@V__FrameHandler4@@@@YA?AW4_EXCEPTION_DISPOSITION@@PEAUEHExceptionRecord@@PEA_KPEAU_CONTEXT@@PEAU_xDISPATCHER_CONTEXT@@PEAUFuncInfo4@FH4@@H1E@Z 0000000180012f7c f i libvcruntime:frame.obj
 0001:00012210       ??0HandlerMap4@FH4@@QEAA@PEBUTryBlockMapEntry4@1@_KH@Z 0000000180013210 f i libvcruntime:frame.obj
 0001:0001228c       ??0TryBlockMap4@FH4@@QEAA@PEBUFuncInfo4@1@_K@Z 000000018001328c f i libvcruntime:frame.obj
 0001:00012364       ??0bad_exception@std@@QEAA@AEBV01@@Z 0000000180013364 f i libvcruntime:frame.obj
 0001:000123a0       ??0bad_exception@std@@QEAA@XZ 00000001800133a0 f i libvcruntime:frame.obj
 0001:000123c0       ?CxxCallCatchBlock@__FrameHandler4@@SAPEAXPEAU_EXCEPTION_RECORD@@@Z 00000001800133c0 f   libvcruntime:frame.obj
 0001:00012610       ?DecompHandler@HandlerMap4@FH4@@AEAAXXZ 0000000180013610 f i libvcruntime:frame.obj
 0001:00012850       ?FrameUnwindToState@__FrameHandler4@@SAXPEA_KPEAU_xDISPATCHER_CONTEXT@@PEAUFuncInfo4@FH4@@H@Z 0000000180013850 f   libvcruntime:frame.obj
 0001:00012cac       ?ReadEntry@UWMap4@FH4@@AEAAXPEAPEAE@Z 0000000180013cac f i libvcruntime:frame.obj
 0001:00012d4c       ?_CallMemberFunction1@@YAXQEAX00@Z 0000000180013d4c f i libvcruntime:frame.obj
 0001:00012d58       ?_CallMemberFunction2@@YAXQEAX00H@Z 0000000180013d58 f i libvcruntime:frame.obj
 0001:00012d68       ?getStartStop@UWMap4@FH4@@QEAAXHHAEAViterator@12@0@Z 0000000180013d68 f i libvcruntime:frame.obj
 0001:00012e38       ?getStateFromIterators@UWMap4@FH4@@SAHAEBViterator@12@H0H0@Z 0000000180013e38 f i libvcruntime:frame.obj
 0001:0001304c       __vcrt_FlsAlloc            000000018001404c f   libvcruntime:winapi_downlevel.obj
 0001:00013094       __vcrt_FlsFree             0000000180014094 f   libvcruntime:winapi_downlevel.obj
 0001:000130dc       __vcrt_FlsGetValue         00000001800140dc f   libvcruntime:winapi_downlevel.obj
 0001:00013124       __vcrt_FlsSetValue         0000000180014124 f   libvcruntime:winapi_downlevel.obj
 0001:00013178       __vcrt_InitializeCriticalSectionEx 0000000180014178 f   libvcruntime:winapi_downlevel.obj
 0001:000131f0       _CallSettingFrame          00000001800141f0 f   libvcruntime:handlers.obj
 0001:00013240       _CallSettingFrame_LookupContinuationIndex 0000000180014240 f   libvcruntime:handlers.obj
 0001:00013270       _CallSettingFrame_NotifyContinuationAddr 0000000180014270 f   libvcruntime:handlers.obj
 0001:000132a0       _CallSettingFrameEncoded   00000001800142a0 f   libvcruntime:handlers.obj
 0001:000132e8       free                       00000001800142e8 f   libucrt:free.obj
 0001:000132fc       __acrt_call_reportfault    00000001800142fc f   libucrt:invalid_parameter.obj
 0001:00013458       __acrt_initialize_invalid_parameter_handler 0000000180014458 f   libucrt:invalid_parameter.obj
 0001:00013460       _invalid_parameter         0000000180014460 f   libucrt:invalid_parameter.obj
 0001:00013510       _invalid_parameter_noinfo  0000000180014510 f   libucrt:invalid_parameter.obj
 0001:00013530       _invoke_watson             0000000180014530 f   libucrt:invalid_parameter.obj
 0001:00013578       __acrt_errno_from_os_error 0000000180014578 f   libucrt:errno.obj
 0001:000135c0       __acrt_errno_map_os_error  00000001800145c0 f   libucrt:errno.obj
 0001:00013610       __doserrno                 0000000180014610 f   libucrt:errno.obj
 0001:00013630       _errno                     0000000180014630 f   libucrt:errno.obj
 0001:00013650       calloc                     0000000180014650 f   libucrt:calloc.obj
 0001:00013658       malloc                     0000000180014658 f   libucrt:malloc.obj
 0001:00013660       _recalloc                  0000000180014660 f   libucrt:recalloc.obj
 0001:00013668       _recalloc_base             0000000180014668 f   libucrt:recalloc.obj
 0001:00013700       _resetstkoflw              0000000180014700 f   libucrt:resetstk.obj
 0001:0001382c       wcscat_s                   000000018001482c f   libucrt:wcscat_s.obj
 0001:000138ac       wcscpy_s                   00000001800148ac f   libucrt:wcscpy_s.obj
 0001:00013914       wcsncpy_s                  0000000180014914 f   libucrt:wcsncpy_s.obj
 0001:00013bcc       ??$ensure_buffer_is_big_enough@D@formatting_buffer@__crt_stdio_output@@QEAA_N_K@Z 0000000180014bcc f i libucrt:output.obj
 0001:00013c74       ??$ensure_buffer_is_big_enough@_W@formatting_buffer@__crt_stdio_output@@QEAA_N_K@Z 0000000180014c74 f i libucrt:output.obj
 0001:00013d20       ??$is_wide_character_specifier@_W@__crt_stdio_output@@YA_N_K_WW4length_modifier@0@@Z 0000000180014d20 f i libucrt:output.obj
 0001:00013d60       ??$type_case_integer_parse_into_buffer@I@?$output_processor@_WV?$string_output_adapter@_W@__crt_stdio_output@@V?$format_validation_base@_WV?$string_output_adapter@_W@__crt_stdio_output@@@2@@__crt_stdio_output@@AEAAXII_N@Z 0000000180014d60 f i libucrt:output.obj
 0001:00013e04       ??$type_case_integer_parse_into_buffer@_K@?$output_processor@_WV?$string_output_adapter@_W@__crt_stdio_output@@V?$format_validation_base@_WV?$string_output_adapter@_W@__crt_stdio_output@@@2@@__crt_stdio_output@@AEAAX_KI_N@Z 0000000180014e04 f i libucrt:output.obj
 0001:00013ea8       ??$write_multiple_characters@V?$string_output_adapter@_W@__crt_stdio_output@@D@__crt_stdio_output@@YAXAEBV?$string_output_adapter@_W@0@DHQEAH@Z 0000000180014ea8 f i libucrt:output.obj
 0001:00013f20       ??0_LocaleUpdate@@QEAA@QEAU__crt_locale_pointers@@@Z 0000000180014f20 f i libucrt:output.obj
 0001:00013fc0       ?crop_zeroes@__crt_stdio_output@@YAXPEADQEAU__crt_locale_pointers@@@Z 0000000180014fc0 f i libucrt:output.obj
 0001:00014060       ?force_decimal_point@__crt_stdio_output@@YAXPEADQEAU__crt_locale_pointers@@@Z 0000000180015060 f i libucrt:output.obj
 0001:000140d8       ?parse_int_from_format_string@?$output_processor@_WV?$string_output_adapter@_W@__crt_stdio_output@@V?$format_validation_base@_WV?$string_output_adapter@_W@__crt_stdio_output@@@2@@__crt_stdio_output@@AEAA_NQEAH@Z 00000001800150d8 f i libucrt:output.obj
 0001:0001417c       ?process@?$output_processor@_WV?$string_output_adapter@_W@__crt_stdio_output@@V?$format_validation_base@_WV?$string_output_adapter@_W@__crt_stdio_output@@@2@@__crt_stdio_output@@QEAAHXZ 000000018001517c f i libucrt:output.obj
 0001:000143f4       ?state_case_size@?$output_processor@_WV?$string_output_adapter@_W@__crt_stdio_output@@V?$format_validation_base@_WV?$string_output_adapter@_W@__crt_stdio_output@@@2@@__crt_stdio_output@@AEAA_NXZ 00000001800153f4 f i libucrt:output.obj
 0001:00014588       ?state_case_type@?$output_processor@_WV?$string_output_adapter@_W@__crt_stdio_output@@V?$format_validation_base@_WV?$string_output_adapter@_W@__crt_stdio_output@@@2@@__crt_stdio_output@@AEAA_NXZ 0000000180015588 f i libucrt:output.obj
 0001:00014860       ?to_integer_size@__crt_stdio_output@@YA_KW4length_modifier@1@@Z 0000000180015860 f i libucrt:output.obj
 0001:000148c8       ?type_case_Z@?$output_processor@_WV?$string_output_adapter@_W@__crt_stdio_output@@V?$format_validation_base@_WV?$string_output_adapter@_W@__crt_stdio_output@@@2@@__crt_stdio_output@@AEAA_NXZ 00000001800158c8 f i libucrt:output.obj
 0001:00014944       ?type_case_a@?$output_processor@_WV?$string_output_adapter@_W@__crt_stdio_output@@V?$format_validation_base@_WV?$string_output_adapter@_W@__crt_stdio_output@@@2@@__crt_stdio_output@@AEAA_NXZ 0000000180015944 f i libucrt:output.obj
 0001:00014b24       ?type_case_c_tchar@?$output_processor@_WV?$string_output_adapter@_W@__crt_stdio_output@@V?$format_validation_base@_WV?$string_output_adapter@_W@__crt_stdio_output@@@2@@__crt_stdio_output@@AEAA_N_W@Z 0000000180015b24 f i libucrt:output.obj
 0001:00014bcc       ?type_case_integer@?$output_processor@_WV?$string_output_adapter@_W@__crt_stdio_output@@V?$format_validation_base@_WV?$string_output_adapter@_W@__crt_stdio_output@@@2@@__crt_stdio_output@@AEAA_NI_N@Z 0000000180015bcc f i libucrt:output.obj
 0001:00014d54       ?type_case_n@?$output_processor@_WV?$string_output_adapter@_W@__crt_stdio_output@@V?$format_validation_base@_WV?$string_output_adapter@_W@__crt_stdio_output@@@2@@__crt_stdio_output@@AEAA_NXZ 0000000180015d54 f i libucrt:output.obj
 0001:00014ddc       ?type_case_s@?$output_processor@_WV?$string_output_adapter@_W@__crt_stdio_output@@V?$format_validation_base@_WV?$string_output_adapter@_W@__crt_stdio_output@@@2@@__crt_stdio_output@@AEAA_NXZ 0000000180015ddc f i libucrt:output.obj
 0001:00014ea4       ?write_stored_string_tchar@?$output_processor@_WV?$string_output_adapter@_W@__crt_stdio_output@@V?$format_validation_base@_WV?$string_output_adapter@_W@__crt_stdio_output@@@2@@__crt_stdio_output@@AEAA_N_W@Z 0000000180015ea4 f i libucrt:output.obj
 0001:00014f8c       ?write_string@?$string_output_adapter@_W@__crt_stdio_output@@QEBAXQEB_WHQEAHAEAV__crt_deferred_errno_cache@@@Z 0000000180015f8c f i libucrt:output.obj
 0001:00015034       __stdio_common_vswprintf_s 0000000180016034 f   libucrt:output.obj
 0001:000150a4       _seh_filter_dll            00000001800160a4 f   libucrt:exception_filter.obj
 0001:000150b8       _seh_filter_exe            00000001800160b8 f   libucrt:exception_filter.obj
 0001:000154a8       __acrt_initialize_thread_local_exit_callback 00000001800164a8 f   libucrt:exit.obj
 0001:000154b0       _cexit                     00000001800164b0 f   libucrt:exit.obj
 0001:000154c0       _exit                      00000001800164c0 f   libucrt:exit.obj
 0001:000154cc       _is_c_termination_complete 00000001800164cc f   libucrt:exit.obj
 0001:00015694       __acrt_allocate_buffer_for_argv 0000000180016694 f   libucrt:argv_parsing.obj
 0001:000156f4       _configure_narrow_argv     00000001800166f4 f   libucrt:argv_parsing.obj
 0001:00015a6c       __dcrt_uninitialize_environments_nolock 0000000180016a6c f   libucrt:environment_initialization.obj
 0001:00015aa4       _initialize_narrow_environment 0000000180016aa4 f   libucrt:environment_initialization.obj
 0001:00015dec       _crt_atexit                0000000180016dec f   libucrt:onexit.obj
 0001:00015dfc       _execute_onexit_table      0000000180016dfc f   libucrt:onexit.obj
 0001:00015e38       _initialize_onexit_table   0000000180016e38 f   libucrt:onexit.obj
 0001:00015e60       _register_onexit_function  0000000180016e60 f   libucrt:onexit.obj
 0001:00015ee0       __acrt_uninitialize_command_line 0000000180016ee0 f   libucrt:argv_data.obj
 0001:00015fd8       __acrt_initialize          0000000180016fd8 f   libucrt:initialization.obj
 0001:00015fec       __acrt_thread_attach       0000000180016fec f   libucrt:initialization.obj
 0001:00016000       __acrt_thread_detach       0000000180017000 f   libucrt:initialization.obj
 0001:00016010       __acrt_uninitialize        0000000180017010 f   libucrt:initialization.obj
 0001:00016048       __acrt_uninitialize_critical 0000000180017048 f   libucrt:initialization.obj
 0001:00016058       _initterm                  0000000180017058 f   libucrt:initterm.obj
 0001:000160bc       _initterm_e                00000001800170bc f   libucrt:initterm.obj
 0001:000160fc       __acrt_initialize_new_handler 00000001800170fc f   libucrt:new_handler.obj
 0001:00016104       _callnewh                  0000000180017104 f   libucrt:new_handler.obj
 0001:00016134       _query_new_handler         0000000180017134 f   libucrt:new_handler.obj
 0001:00016168       terminate                  0000000180017168 f   libucrt:terminate.obj
 0001:00016188       abort                      0000000180017188 f   libucrt:abort.obj
 0001:000161e0       strcpy_s                   00000001800171e0 f   libucrt:strcpy_s.obj
 0001:00016240       ??$parse_integer@KV?$c_string_character_source@_W@__crt_strtox@@@__crt_strtox@@YAKQEAU__crt_locale_pointers@@V?$c_string_character_source@_W@0@H_N@Z 0000000180017240 f i libucrt:atox.obj
 0001:00016900       strncmp                    0000000180017900 f   libucrt:strncmp.obj
 0001:00016980       wcsncmp                    0000000180017980 f   libucrt:wcsncmp.obj
 0001:000169ac       _free_base                 00000001800179ac f   libucrt:free_base.obj
 0001:00016d64       __acrt_freeptd             0000000180017d64 f   libucrt:per_thread_data.obj
 0001:00016da8       __acrt_getptd              0000000180017da8 f   libucrt:per_thread_data.obj
 0001:00016e7c       __acrt_getptd_head         0000000180017e7c f   libucrt:per_thread_data.obj
 0001:00016f24       __acrt_getptd_noexit       0000000180017f24 f   libucrt:per_thread_data.obj
 0001:00016ff0       __acrt_initialize_ptd      0000000180017ff0 f   libucrt:per_thread_data.obj
 0001:0001702c       __acrt_uninitialize_ptd    000000018001802c f   libucrt:per_thread_data.obj
 0001:00017050       _calloc_base               0000000180018050 f   libucrt:calloc_base.obj
 0001:000170c8       _malloc_base               00000001800180c8 f   libucrt:malloc_base.obj
 0001:00017128       _msize_base                0000000180018128 f   libucrt:msize.obj
 0001:00017164       _realloc_base              0000000180018164 f   libucrt:realloc_base.obj
 0001:000173b8       __acrt_AppPolicyGetProcessTerminationMethodInternal 00000001800183b8 f   libucrt:winapi_thunks.obj
 0001:00017408       __acrt_AreFileApisANSI     0000000180018408 f   libucrt:winapi_thunks.obj
 0001:00017444       __acrt_FlsAlloc            0000000180018444 f   libucrt:winapi_thunks.obj
 0001:0001748c       __acrt_FlsFree             000000018001848c f   libucrt:winapi_thunks.obj
 0001:000174d4       __acrt_FlsGetValue         00000001800184d4 f   libucrt:winapi_thunks.obj
 0001:0001751c       __acrt_FlsSetValue         000000018001851c f   libucrt:winapi_thunks.obj
 0001:00017570       __acrt_InitializeCriticalSectionEx 0000000180018570 f   libucrt:winapi_thunks.obj
 0001:000175d4       __acrt_LCMapStringEx       00000001800185d4 f   libucrt:winapi_thunks.obj
 0001:000176b0       __acrt_LocaleNameToLCID    00000001800186b0 f   libucrt:winapi_thunks.obj
 0001:00017700       __acrt_SetThreadStackGuarantee 0000000180018700 f   libucrt:winapi_thunks.obj
 0001:00017744       __acrt_initialize_winapi_thunks 0000000180018744 f   libucrt:winapi_thunks.obj
 0001:00017778       __acrt_uninitialize_winapi_thunks 0000000180018778 f   libucrt:winapi_thunks.obj
 0001:000177bc       wcstol                     00000001800187bc f   libucrt:strtox.obj
 0001:000177e8       _mbtowc_l                  00000001800187e8 f   libucrt:mbtowc.obj
 0001:00017968       mbtowc                     0000000180018968 f   libucrt:mbtowc.obj
 0001:00017970       wcsnlen                    0000000180018970 f   libucrt:strnlen.obj
 0001:00017b48       __acrt_update_locale_info  0000000180018b48 f   libucrt:locale_update.obj
 0001:00017b7c       __acrt_update_multibyte_info 0000000180018b7c f   libucrt:locale_update.obj
 0001:000185b4       __acrt_fp_format           00000001800195b4 f   libucrt:cvt.obj
 0001:000188ec       _fileno                    00000001800198ec f   libucrt:fileno.obj
 0001:00018914       __acrt_initialize_stdio    0000000180019914 f   libucrt:_file.obj
 0001:00018a34       __acrt_uninitialize_stdio  0000000180019a34 f   libucrt:_file.obj
 0001:00018a90       _lock_file                 0000000180019a90 f   libucrt:_file.obj
 0001:00018a9c       _unlock_file               0000000180019a9c f   libucrt:_file.obj
 0001:00018aa8       _get_printf_count_output   0000000180019aa8 f   libucrt:printf_count_output.obj
 0001:00018b30       __acrt_set_locale_changed  0000000180019b30 f   libucrt:wsetlocale.obj
 0001:00018b3c       __acrt_uninitialize_locale 0000000180019b3c f   libucrt:wsetlocale.obj
 0001:00018d68       __acrt_initialize_lowio    0000000180019d68 f   libucrt:ioinit.obj
 0001:00018da4       __acrt_uninitialize_lowio  0000000180019da4 f   libucrt:ioinit.obj
 0001:00018de4       __acrt_initialize_locks    0000000180019de4 f   libucrt:locks.obj
 0001:00018e2c       __acrt_lock                0000000180019e2c f   libucrt:locks.obj
 0001:00018e48       __acrt_uninitialize_locks  0000000180019e48 f   libucrt:locks.obj
 0001:00018e80       __acrt_unlock              0000000180019e80 f   libucrt:locks.obj
 0001:00018e9c       __acrt_get_process_end_policy 0000000180019e9c f   libucrt:win_policies.obj
 0001:00018eec       ??$__acrt_mbs_to_wcs_cp@U__crt_win32_buffer_internal_dynamic_resizing@@@@YAHQEBDAEAV?$__crt_win32_buffer@_WU__crt_win32_buffer_internal_dynamic_resizing@@@@I@Z 0000000180019eec f i libucrt:argv_wildcards.obj
 0001:00019064       ??$__acrt_wcs_to_mbs_cp@U__crt_win32_buffer_internal_dynamic_resizing@@@@YAHQEB_WAEAV?$__crt_win32_buffer@DU__crt_win32_buffer_internal_dynamic_resizing@@@@I@Z 000000018001a064 f i libucrt:argv_wildcards.obj
 0001:00019894       __acrt_expand_narrow_argv_wildcards 000000018001a894 f   libucrt:argv_wildcards.obj
 0001:0001989c       ??$__acrt_wcs_to_mbs_cp@U__crt_win32_buffer_no_resizing@@@@YAHQEB_WAEAV?$__crt_win32_buffer@DU__crt_win32_buffer_no_resizing@@@@I@Z 000000018001a89c f i libucrt:getmodulefilenamea.obj
 0001:000199b0       __acrt_GetModuleFileNameA  000000018001a9b0 f   libucrt:getmodulefilenamea.obj
 0001:0001a1f8       __acrt_initialize_multibyte 000000018001b1f8 f   libucrt:mbctype.obj
 0001:0001a258       __acrt_update_thread_multibyte_data 000000018001b258 f   libucrt:mbctype.obj
 0001:0001a274       _setmbcp_nolock            000000018001b274 f   libucrt:mbctype.obj
 0001:0001a5a8       _ismbblead                 000000018001b5a8 f   libucrt:ismbbyte.obj
 0001:0001a5bc       __acrt_initialize_command_line 000000018001b5bc f   libucrt:argv_data.obj
 0001:0001a5e4       __acrt_MultiByteToWideChar 000000018001b5e4 f   libucrt:multibytetowidechar.obj
 0001:0001a640       __acrt_WideCharToMultiByte 000000018001b640 f   libucrt:widechartomultibyte.obj
 0001:0001a6f0       __dcrt_get_narrow_environment_from_os 000000018001b6f0 f   libucrt:get_environment_from_os.obj
 0001:0001a7f4       __acrt_initialize_heap     000000018001b7f4 f   libucrt:heap_handle.obj
 0001:0001a810       __acrt_uninitialize_heap   000000018001b810 f   libucrt:heap_handle.obj
 0001:0001a81c       __acrt_execute_initializers 000000018001b81c f   libucrt:shared_initialization.obj
 0001:0001a89c       __acrt_execute_uninitializers 000000018001b89c f   libucrt:shared_initialization.obj
 0001:0001a920       __acrt_get_sigabrt_handler 000000018001b920 f   libucrt:signal.obj
 0001:0001a950       __acrt_initialize_signal_handlers 000000018001b950 f   libucrt:signal.obj
 0001:0001a970       raise                      000000018001b970 f   libucrt:signal.obj
 0001:0001abdc       __acrt_has_user_matherr    000000018001bbdc f   libucrt:matherr.obj
 0001:0001abfc       __acrt_initialize_user_matherr 000000018001bbfc f   libucrt:matherr.obj
 0001:0001ac04       __acrt_invoke_user_matherr 000000018001bc04 f   libucrt:matherr.obj
 0001:0001ae10       __acrt_stdio_flush_nolock  000000018001be10 f   libucrt:fflush.obj
 0001:0001ae8c       _fflush_nolock             000000018001be8c f   libucrt:fflush.obj
 0001:0001aed8       _flushall                  000000018001bed8 f   libucrt:fflush.obj
 0001:0001aee0       __pctype_func              000000018001bee0 f   libucrt:ctype.obj
 0001:0001af10       iswctype                   000000018001bf10 f   libucrt:iswctype.obj
 0001:0001af7c       __acrt_add_locale_ref      000000018001bf7c f   libucrt:locale_refcounting.obj
 0001:0001b008       __acrt_free_locale         000000018001c008 f   libucrt:locale_refcounting.obj
 0001:0001b180       __acrt_locale_add_lc_time_reference 000000018001c180 f   libucrt:locale_refcounting.obj
 0001:0001b1a8       __acrt_locale_free_lc_time_if_unreferenced 000000018001c1a8 f   libucrt:locale_refcounting.obj
 0001:0001b1e0       __acrt_locale_release_lc_time_reference 000000018001c1e0 f   libucrt:locale_refcounting.obj
 0001:0001b208       __acrt_release_locale_ref  000000018001c208 f   libucrt:locale_refcounting.obj
 0001:0001b2b0       __acrt_update_thread_locale_data 000000018001c2b0 f   libucrt:locale_refcounting.obj
 0001:0001b320       _updatetlocinfoEx_nolock   000000018001c320 f   libucrt:locale_refcounting.obj
 0001:0001b388       _query_new_mode            000000018001c388 f   libucrt:new_mode.obj
 0001:0001b390       __acrt_DownlevelLocaleNameToLCID 000000018001c390 f   libucrt:lcidtoname_downlevel.obj
 0001:0001b440       _isleadbyte_l              000000018001c440 f i libucrt:_wctype.obj
 0001:0001b48c       ?__mbrtowc_utf8@__crt_mbstring@@YA_KPEA_WPEBD_KPEAU_Mbstatet@@@Z 000000018001c48c f   libucrt:mbrtowc.obj
 0001:0001b4c8       ?__mbsrtowcs_utf8@__crt_mbstring@@YA_KPEA_WPEAPEBD_KPEAU_Mbstatet@@@Z 000000018001c4c8 f   libucrt:mbrtowc.obj
 0001:0001b640       __acrt_fp_strflt_to_string 000000018001c640 f   libucrt:_fptostr.obj
 0001:0001b790       ?divide@__crt_strtox@@YA_KAEAUbig_integer@1@AEBU21@@Z 000000018001c790 f i libucrt:cfout.obj
 0001:0001bbbc       __acrt_fltout              000000018001cbbc f   libucrt:cfout.obj
 0001:0001ce88       fegetround                 000000018001de88 f   libucrt:fegetround.obj
 0001:0001ce9c       _fcloseall                 000000018001de9c f   libucrt:closeall.obj
 0001:0001cf50       __acrt_stdio_free_buffer_nolock 000000018001df50 f   libucrt:_freebuf.obj
 0001:0001cf90       _isatty                    000000018001df90 f   libucrt:isatty.obj
 0001:0001cff0       __acrt_locale_free_monetary 000000018001dff0 f   libucrt:initmon.obj
 0001:0001d0fc       __acrt_locale_free_numeric 000000018001e0fc f   libucrt:initnum.obj
 0001:0001d1c0       __acrt_locale_free_time    000000018001e1c0 f   libucrt:inittime.obj
 0001:0001d2c8       __acrt_GetStringTypeA      000000018001e2c8 f   libucrt:getstringtypea.obj
 0001:0001d458       __acrt_lowio_create_handle_array 000000018001e458 f   libucrt:osfinfo.obj
 0001:0001d500       __acrt_lowio_destroy_handle_array 000000018001e500 f   libucrt:osfinfo.obj
 0001:0001d550       __acrt_lowio_ensure_fh_exists 000000018001e550 f   libucrt:osfinfo.obj
 0001:0001d5f8       __acrt_lowio_lock_fh       000000018001e5f8 f   libucrt:osfinfo.obj
 0001:0001d620       __acrt_lowio_unlock_fh     000000018001e620 f   libucrt:osfinfo.obj
 0001:0001d648       _free_osfhnd               000000018001e648 f   libucrt:osfinfo.obj
 0001:0001d704       _get_osfhandle             000000018001e704 f   libucrt:osfinfo.obj
 0001:0001d780       qsort                      000000018001e780 f   libucrt:qsort.obj
 0001:0001db20       strncpy_s                  000000018001eb20 f   libucrt:strncpy_s.obj
 0001:0001dca0       strpbrk                    000000018001eca0 f   libucrt:strpbrk.obj
 0001:0001e068       _mbsdec                    000000018001f068 f   libucrt:mbsdec.obj
 0001:0001e070       _mbsdec_l                  000000018001f070 f   libucrt:mbsdec.obj
 0001:0001e41c       __acrt_LCMapStringA        000000018001f41c f   libucrt:lcmapstringa.obj
 0001:0001e558       _commit                    000000018001f558 f   libucrt:commit.obj
 0001:0001ee68       _write                     000000018001fe68 f   libucrt:write.obj
 0001:0001ef54       _write_nolock              000000018001ff54 f   libucrt:write.obj
 0001:0001f238       __acrt_GetStringTypeW      0000000180020238 f   libucrt:getstringtypew.obj
 0001:0001f240       __ascii_wcsnicmp           0000000180020240 f   libucrt:wcsnicmp.obj
 0001:0001f28c       ?__mbrtoc32_utf8@__crt_mbstring@@YA_KPEA_UPEBD_KPEAU_Mbstatet@@@Z 000000018002028c f   libucrt:mbrtoc32.obj
 0001:0001f464       _controlfp_s               0000000180020464 f   libucrt:contrlfp.obj
 0001:0001f4c8       fegetenv                   00000001800204c8 f   libucrt:fegetenv.obj
 0001:0001f4e8       fesetenv                   00000001800204e8 f   libucrt:fesetenv.obj
 0001:0001f534       feholdexcept               0000000180020534 f   libucrt:feholdexcept.obj
 0001:0001f584       ceil                       0000000180020584 f   libucrt:ceil.obj
 0001:0001f650       log10                      0000000180020650 f   libucrt:log10.obj
 0001:0001fbfc       __acrt_fenv_get_common_round_control 0000000180020bfc f   libucrt:_fenvutils.obj
 0001:0001fc08       __acrt_fenv_get_control    0000000180020c08 f   libucrt:_fenvutils.obj
 0001:0001fcfc       __acrt_fenv_get_status     0000000180020cfc f   libucrt:_fenvutils.obj
 0001:0001fd50       __acrt_fenv_set_control    0000000180020d50 f   libucrt:_fenvutils.obj
 0001:0001fe98       __acrt_fenv_set_status     0000000180020e98 f   libucrt:_fenvutils.obj
 0001:0001ffb8       _lseeki64_nolock           0000000180020fb8 f   libucrt:lseek.obj
 0001:0001ffc0       _fclose_nolock             0000000180020fc0 f   libucrt:fclose.obj
 0001:00020044       fclose                     0000000180021044 f   libucrt:fclose.obj
 0001:000200a8       _query_app_type            00000001800210a8 f   libucrt:report_runtime_error.obj
 0001:000200b0       __strncnt                  00000001800210b0 f   libucrt:strncnt.obj
 0001:000200c8       _putwch_nolock             00000001800210c8 f   libucrt:putwch.obj
 0001:00020104       _clearfp                   0000000180021104 f   libucrt:ieee.obj
 0001:00020174       _control87                 0000000180021174 f   libucrt:ieee.obj
 0001:00020560       _handle_error              0000000180021560 f   libucrt:libm_error.obj
 0001:00020688       _handle_nan                0000000180021688 f   libucrt:libm_error.obj
 0001:000206b0       __acrt_initialize_fma3     00000001800216b0 f   libucrt:fma3_available.obj
 0001:00020720       _log10_special             0000000180021720 f   libucrt:log_special.obj
 0001:0002084c       _close                     000000018002184c f   libucrt:close.obj
 0001:000208f0       _close_nolock              00000001800218f0 f   libucrt:close.obj
 0001:000209b0       ?__acrt_stdio_free_stream@@YAXV__crt_stdio_stream@@@Z 00000001800219b0 f   libucrt:stream.obj
 0001:000209cc       __dcrt_lowio_ensure_console_output_initialized 00000001800219cc f   libucrt:initcon.obj
 0001:00020a20       __dcrt_terminate_console_output 0000000180021a20 f   libucrt:initcon.obj
 0001:00020a3c       __dcrt_write_console       0000000180021a3c f   libucrt:initcon.obj
 0001:00020b10       _get_fpsr                  0000000180021b10 f   libucrt:fpsr.obj
 0001:00020b20       _set_fpsr                  0000000180021b20 f   libucrt:fpsr.obj
 0001:00020b2a       _fclrf                     0000000180021b2a f   libucrt:fpsr.obj
 0001:00020b3e       _frnd                      0000000180021b3e f   libucrt:fpsr.obj
 0001:00020b60       _raise_exc                 0000000180021b60 f   libucrt:fpexcept.obj
 0001:00020b88       _raise_exc_ex              0000000180021b88 f   libucrt:fpexcept.obj
 0001:00020e98       _set_errno_from_matherr    0000000180021e98 f   libucrt:fpexcept.obj
 0001:00020ec8       _clrfp                     0000000180021ec8 f   libucrt:fpctrl.obj
 0001:00020ee8       _ctrlfp                    0000000180021ee8 f   libucrt:fpctrl.obj
 0001:00020f64       _set_statfp                0000000180021f64 f   libucrt:fpctrl.obj
 0001:00020f84       _statfp                    0000000180021f84 f   libucrt:fpctrl.obj
 0001:00020f95       IsProcessorFeaturePresent  0000000180021f95 f   kernel32:KERNEL32.dll
 0001:00020fa0       _FindPESection             0000000180021fa0 f   LIBCMT:pesect.obj
 0001:00020ff0       _IsNonwritableInCurrentImage 0000000180021ff0 f   LIBCMT:pesect.obj
 0001:00021040       _ValidateImageBase         0000000180022040 f   LIBCMT:pesect.obj
 0001:00021070       strrchr                    0000000180022070 f   libvcruntime:strrchr.obj
 0001:000211b0       _guard_dispatch_icall_nop  00000001800221b0 f   LIBCMT:guard_dispatch.obj
 0001:000211d0       _guard_xfg_dispatch_icall_nop 00000001800221d0 f   LIBCMT:guard_xfg_dispatch.obj
 0002:00000000       __imp_RegQueryValueExW     0000000180023000     advapi32:ADVAPI32.dll
 0002:00000008       __imp_RegSetValueExW       0000000180023008     advapi32:ADVAPI32.dll
 0002:00000010       __imp_RegQueryInfoKeyW     0000000180023010     advapi32:ADVAPI32.dll
 0002:00000018       __imp_RegOpenKeyExW        0000000180023018     advapi32:ADVAPI32.dll
 0002:00000020       __imp_RegEnumKeyExW        0000000180023020     advapi32:ADVAPI32.dll
 0002:00000028       __imp_RegDeleteValueW      0000000180023028     advapi32:ADVAPI32.dll
 0002:00000030       __imp_RegDeleteKeyW        0000000180023030     advapi32:ADVAPI32.dll
 0002:00000038       __imp_RegCreateKeyExW      0000000180023038     advapi32:ADVAPI32.dll
 0002:00000040       __imp_RegCloseKey          0000000180023040     advapi32:ADVAPI32.dll
 0002:00000048       \177ADVAPI32_NULL_THUNK_DATA 0000000180023048     advapi32:ADVAPI32.dll
 0002:00000050       __imp_GetObjectW           0000000180023050     gdi32:GDI32.dll
 0002:00000058       __imp_SelectObject         0000000180023058     gdi32:GDI32.dll
 0002:00000060       __imp_DeleteObject         0000000180023060     gdi32:GDI32.dll
 0002:00000068       __imp_CreateCompatibleDC   0000000180023068     gdi32:GDI32.dll
 0002:00000070       __imp_BitBlt               0000000180023070     gdi32:GDI32.dll
 0002:00000078       __imp_SetWindowOrgEx       0000000180023078     gdi32:GDI32.dll
 0002:00000080       __imp_SetWindowExtEx       0000000180023080     gdi32:GDI32.dll
 0002:00000088       __imp_SetViewportOrgEx     0000000180023088     gdi32:GDI32.dll
 0002:00000090       __imp_LPtoDP               0000000180023090     gdi32:GDI32.dll
 0002:00000098       __imp_SetMapMode           0000000180023098     gdi32:GDI32.dll
 0002:000000a0       __imp_SaveDC               00000001800230a0     gdi32:GDI32.dll
 0002:000000a8       __imp_RestoreDC            00000001800230a8     gdi32:GDI32.dll
 0002:000000b0       __imp_GetDeviceCaps        00000001800230b0     gdi32:GDI32.dll
 0002:000000b8       __imp_DeleteMetaFile       00000001800230b8     gdi32:GDI32.dll
 0002:000000c0       __imp_DeleteDC             00000001800230c0     gdi32:GDI32.dll
 0002:000000c8       __imp_CreateRectRgnIndirect 00000001800230c8     gdi32:GDI32.dll
 0002:000000d0       __imp_CreateMetaFileW      00000001800230d0     gdi32:GDI32.dll
 0002:000000d8       __imp_CreateDCW            00000001800230d8     gdi32:GDI32.dll
 0002:000000e0       __imp_CloseMetaFile        00000001800230e0     gdi32:GDI32.dll
 0002:000000e8       \177GDI32_NULL_THUNK_DATA  00000001800230e8     gdi32:GDI32.dll
 0002:000000f0       __imp_CloseHandle          00000001800230f0     kernel32:KERNEL32.dll
 0002:000000f8       __imp_SetEvent             00000001800230f8     kernel32:KERNEL32.dll
 0002:00000100       __imp_CreateMutexW         0000000180023100     kernel32:KERNEL32.dll
 0002:00000108       __imp_CreateEventW         0000000180023108     kernel32:KERNEL32.dll
 0002:00000110       __imp_GetCurrentProcessId  0000000180023110     kernel32:KERNEL32.dll
 0002:00000118       __imp_WriteConsoleW        0000000180023118     kernel32:KERNEL32.dll
 0002:00000120       __imp_CreateFileW          0000000180023120     kernel32:KERNEL32.dll
 0002:00000128       __imp_GetConsoleMode       0000000180023128     kernel32:KERNEL32.dll
 0002:00000130       __imp_GetConsoleOutputCP   0000000180023130     kernel32:KERNEL32.dll
 0002:00000138       __imp_WriteFile            0000000180023138     kernel32:KERNEL32.dll
 0002:00000140       __imp_FlushFileBuffers     0000000180023140     kernel32:KERNEL32.dll
 0002:00000148       __imp_SetStdHandle         0000000180023148     kernel32:KERNEL32.dll
 0002:00000150       __imp_GetStringTypeW       0000000180023150     kernel32:KERNEL32.dll
 0002:00000158       __imp_SetFilePointerEx     0000000180023158     kernel32:KERNEL32.dll
 0002:00000160       __imp_FreeEnvironmentStringsW 0000000180023160     kernel32:KERNEL32.dll
 0002:00000168       __imp_lstrcmpiW            0000000180023168     kernel32:KERNEL32.dll
 0002:00000170       __imp_GetCommandLineW      0000000180023170     kernel32:KERNEL32.dll
 0002:00000178       __imp_GetCommandLineA      0000000180023178     kernel32:KERNEL32.dll
 0002:00000180       __imp_GetCPInfo            0000000180023180     kernel32:KERNEL32.dll
 0002:00000188       __imp_GetOEMCP             0000000180023188     kernel32:KERNEL32.dll
 0002:00000190       __imp_GetACP               0000000180023190     kernel32:KERNEL32.dll
 0002:00000198       __imp_IsValidCodePage      0000000180023198     kernel32:KERNEL32.dll
 0002:000001a0       __imp_FindNextFileW        00000001800231a0     kernel32:KERNEL32.dll
 0002:000001a8       __imp_FindFirstFileExW     00000001800231a8     kernel32:KERNEL32.dll
 0002:000001b0       __imp_FindClose            00000001800231b0     kernel32:KERNEL32.dll
 0002:000001b8       __imp_GetFileType          00000001800231b8     kernel32:KERNEL32.dll
 0002:000001c0       __imp_GetStdHandle         00000001800231c0     kernel32:KERNEL32.dll
 0002:000001c8       __imp_LCMapStringW         00000001800231c8     kernel32:KERNEL32.dll
 0002:000001d0       __imp_HeapReAlloc          00000001800231d0     kernel32:KERNEL32.dll
 0002:000001d8       __imp_HeapSize             00000001800231d8     kernel32:KERNEL32.dll
 0002:000001e0       __imp_MulDiv               00000001800231e0     kernel32:KERNEL32.dll
 0002:000001e8       __imp_GlobalLock           00000001800231e8     kernel32:KERNEL32.dll
 0002:000001f0       __imp_GlobalUnlock         00000001800231f0     kernel32:KERNEL32.dll
 0002:000001f8       __imp_GlobalAlloc          00000001800231f8     kernel32:KERNEL32.dll
 0002:00000200       __imp_FindResourceW        0000000180023200     kernel32:KERNEL32.dll
 0002:00000208       __imp_SizeofResource       0000000180023208     kernel32:KERNEL32.dll
 0002:00000210       __imp_LoadResource         0000000180023210     kernel32:KERNEL32.dll
 0002:00000218       __imp_LoadLibraryExW       0000000180023218     kernel32:KERNEL32.dll
 0002:00000220       __imp_GetProcAddress       0000000180023220     kernel32:KERNEL32.dll
 0002:00000228       __imp_GetModuleHandleW     0000000180023228     kernel32:KERNEL32.dll
 0002:00000230       __imp_GetModuleFileNameW   0000000180023230     kernel32:KERNEL32.dll
 0002:00000238       __imp_FreeLibrary          0000000180023238     kernel32:KERNEL32.dll
 0002:00000240       __imp_DisableThreadLibraryCalls 0000000180023240     kernel32:KERNEL32.dll
 0002:00000248       __imp_GetCurrentThreadId   0000000180023248     kernel32:KERNEL32.dll
 0002:00000250       __imp_Sleep                0000000180023250     kernel32:KERNEL32.dll
 0002:00000258       __imp_WaitForSingleObject  0000000180023258     kernel32:KERNEL32.dll
 0002:00000260       __imp_ReleaseMutex         0000000180023260     kernel32:KERNEL32.dll
 0002:00000268       __imp_ResetEvent           0000000180023268     kernel32:KERNEL32.dll
 0002:00000270       __imp_EnterCriticalSection 0000000180023270     kernel32:KERNEL32.dll
 0002:00000278       __imp_LeaveCriticalSection 0000000180023278     kernel32:KERNEL32.dll
 0002:00000280       __imp_SetLastError         0000000180023280     kernel32:KERNEL32.dll
 0002:00000288       __imp_EncodePointer        0000000180023288     kernel32:KERNEL32.dll
 0002:00000290       __imp_DeleteCriticalSection 0000000180023290     kernel32:KERNEL32.dll
 0002:00000298       __imp_InitializeCriticalSectionEx 0000000180023298     kernel32:KERNEL32.dll
 0002:000002a0       __imp_GetLastError         00000001800232a0     kernel32:KERNEL32.dll
 0002:000002a8       __imp_RaiseException       00000001800232a8     kernel32:KERNEL32.dll
 0002:000002b0       __imp_DecodePointer        00000001800232b0     kernel32:KERNEL32.dll
 0002:000002b8       __imp_WideCharToMultiByte  00000001800232b8     kernel32:KERNEL32.dll
 0002:000002c0       __imp_GetEnvironmentStringsW 00000001800232c0     kernel32:KERNEL32.dll
 0002:000002c8       __imp_MultiByteToWideChar  00000001800232c8     kernel32:KERNEL32.dll
 0002:000002d0       __imp_GetModuleHandleExW   00000001800232d0     kernel32:KERNEL32.dll
 0002:000002d8       __imp_ExitProcess          00000001800232d8     kernel32:KERNEL32.dll
 0002:000002e0       __imp_VirtualQuery         00000001800232e0     kernel32:KERNEL32.dll
 0002:000002e8       __imp_VirtualProtect       00000001800232e8     kernel32:KERNEL32.dll
 0002:000002f0       __imp_GetSystemInfo        00000001800232f0     kernel32:KERNEL32.dll
 0002:000002f8       __imp_TlsFree              00000001800232f8     kernel32:KERNEL32.dll
 0002:00000300       __imp_TlsSetValue          0000000180023300     kernel32:KERNEL32.dll
 0002:00000308       __imp_TlsGetValue          0000000180023308     kernel32:KERNEL32.dll
 0002:00000310       __imp_TlsAlloc             0000000180023310     kernel32:KERNEL32.dll
 0002:00000318       __imp_RtlPcToFileHeader    0000000180023318     kernel32:KERNEL32.dll
 0002:00000320       __imp_InterlockedFlushSList 0000000180023320     kernel32:KERNEL32.dll
 0002:00000328       __imp_RtlUnwindEx          0000000180023328     kernel32:KERNEL32.dll
 0002:00000330       __imp_LoadLibraryExA       0000000180023330     kernel32:KERNEL32.dll
 0002:00000338       __imp_VirtualFree          0000000180023338     kernel32:KERNEL32.dll
 0002:00000340       __imp_VirtualAlloc         0000000180023340     kernel32:KERNEL32.dll
 0002:00000348       __imp_FlushInstructionCache 0000000180023348     kernel32:KERNEL32.dll
 0002:00000350       __imp_InterlockedPushEntrySList 0000000180023350     kernel32:KERNEL32.dll
 0002:00000358       __imp_InterlockedPopEntrySList 0000000180023358     kernel32:KERNEL32.dll
 0002:00000360       __imp_GetProcessHeap       0000000180023360     kernel32:KERNEL32.dll
 0002:00000368       __imp_HeapFree             0000000180023368     kernel32:KERNEL32.dll
 0002:00000370       __imp_HeapAlloc            0000000180023370     kernel32:KERNEL32.dll
 0002:00000378       __imp_OutputDebugStringW   0000000180023378     kernel32:KERNEL32.dll
 0002:00000380       __imp_InitializeSListHead  0000000180023380     kernel32:KERNEL32.dll
 0002:00000388       __imp_GetSystemTimeAsFileTime 0000000180023388     kernel32:KERNEL32.dll
 0002:00000390       __imp_QueryPerformanceCounter 0000000180023390     kernel32:KERNEL32.dll
 0002:00000398       __imp_GetStartupInfoW      0000000180023398     kernel32:KERNEL32.dll
 0002:000003a0       __imp_IsDebuggerPresent    00000001800233a0     kernel32:KERNEL32.dll
 0002:000003a8       __imp_IsProcessorFeaturePresent 00000001800233a8     kernel32:KERNEL32.dll
 0002:000003b0       __imp_TerminateProcess     00000001800233b0     kernel32:KERNEL32.dll
 0002:000003b8       __imp_GetCurrentProcess    00000001800233b8     kernel32:KERNEL32.dll
 0002:000003c0       __imp_InitializeCriticalSectionAndSpinCount 00000001800233c0     kernel32:KERNEL32.dll
 0002:000003c8       __imp_WaitForSingleObjectEx 00000001800233c8     kernel32:KERNEL32.dll
 0002:000003d0       __imp_RtlCaptureContext    00000001800233d0     kernel32:KERNEL32.dll
 0002:000003d8       __imp_RtlLookupFunctionEntry 00000001800233d8     kernel32:KERNEL32.dll
 0002:000003e0       __imp_RtlVirtualUnwind     00000001800233e0     kernel32:KERNEL32.dll
 0002:000003e8       __imp_UnhandledExceptionFilter 00000001800233e8     kernel32:KERNEL32.dll
 0002:000003f0       __imp_SetUnhandledExceptionFilter 00000001800233f0     kernel32:KERNEL32.dll
 0002:000003f8       \177KERNEL32_NULL_THUNK_DATA 00000001800233f8     kernel32:KERNEL32.dll
 0002:00000400       __imp_OleCreatePropertyFrame 0000000180023400     oleaut32:OLEAUT32.dll
 0002:00000408       __imp_UnRegisterTypeLib    0000000180023408     oleaut32:OLEAUT32.dll
 0002:00000410       __imp_RegisterTypeLib      0000000180023410     oleaut32:OLEAUT32.dll
 0002:00000418       __imp_LoadRegTypeLib       0000000180023418     oleaut32:OLEAUT32.dll
 0002:00000420       __imp_LoadTypeLib          0000000180023420     oleaut32:OLEAUT32.dll
 0002:00000428       __imp_VarUI4FromStr        0000000180023428     oleaut32:OLEAUT32.dll
 0002:00000430       __imp_VariantInit          0000000180023430     oleaut32:OLEAUT32.dll
 0002:00000438       __imp_SysAllocStringByteLen 0000000180023438     oleaut32:OLEAUT32.dll
 0002:00000440       __imp_SysStringByteLen     0000000180023440     oleaut32:OLEAUT32.dll
 0002:00000448       __imp_VariantChangeType    0000000180023448     oleaut32:OLEAUT32.dll
 0002:00000450       __imp_VariantClear         0000000180023450     oleaut32:OLEAUT32.dll
 0002:00000458       __imp_SysStringLen         0000000180023458     oleaut32:OLEAUT32.dll
 0002:00000460       __imp_SysFreeString        0000000180023460     oleaut32:OLEAUT32.dll
 0002:00000468       __imp_SysAllocStringLen    0000000180023468     oleaut32:OLEAUT32.dll
 0002:00000470       __imp_SysAllocString       0000000180023470     oleaut32:OLEAUT32.dll
 0002:00000478       \177OLEAUT32_NULL_THUNK_DATA 0000000180023478     oleaut32:OLEAUT32.dll
 0002:00000480       __imp_UnregisterClassW     0000000180023480     user32:USER32.dll
 0002:00000488       __imp_PostMessageW         0000000180023488     user32:USER32.dll
 0002:00000490       __imp_DefWindowProcW       0000000180023490     user32:USER32.dll
 0002:00000498       __imp_CallWindowProcW      0000000180023498     user32:USER32.dll
 0002:000004a0       __imp_RegisterClassExW     00000001800234a0     user32:USER32.dll
 0002:000004a8       __imp_GetClassInfoExW      00000001800234a8     user32:USER32.dll
 0002:000004b0       __imp_CreateWindowExW      00000001800234b0     user32:USER32.dll
 0002:000004b8       __imp_IsWindow             00000001800234b8     user32:USER32.dll
 0002:000004c0       __imp_IsChild              00000001800234c0     user32:USER32.dll
 0002:000004c8       __imp_DestroyWindow        00000001800234c8     user32:USER32.dll
 0002:000004d0       __imp_ShowWindow           00000001800234d0     user32:USER32.dll
 0002:000004d8       __imp_SetWindowPos         00000001800234d8     user32:USER32.dll
 0002:000004e0       __imp_CharNextW            00000001800234e0     user32:USER32.dll
 0002:000004e8       __imp_SetFocus             00000001800234e8     user32:USER32.dll
 0002:000004f0       __imp_LoadBitmapW          00000001800234f0     user32:USER32.dll
 0002:000004f8       __imp_RegisterClassW       00000001800234f8     user32:USER32.dll
 0002:00000500       __imp_PeekMessageW         0000000180023500     user32:USER32.dll
 0002:00000508       __imp_LoadCursorW          0000000180023508     user32:USER32.dll
 0002:00000510       __imp_GetParent            0000000180023510     user32:USER32.dll
 0002:00000518       __imp_SetWindowLongPtrW    0000000180023518     user32:USER32.dll
 0002:00000520       __imp_GetWindowLongPtrW    0000000180023520     user32:USER32.dll
 0002:00000528       __imp_PtInRect             0000000180023528     user32:USER32.dll
 0002:00000530       __imp_EqualRect            0000000180023530     user32:USER32.dll
 0002:00000538       __imp_OffsetRect           0000000180023538     user32:USER32.dll
 0002:00000540       __imp_UnionRect            0000000180023540     user32:USER32.dll
 0002:00000548       __imp_IntersectRect        0000000180023548     user32:USER32.dll
 0002:00000550       __imp_GetClientRect        0000000180023550     user32:USER32.dll
 0002:00000558       __imp_InvalidateRect       0000000180023558     user32:USER32.dll
 0002:00000560       __imp_SetWindowRgn         0000000180023560     user32:USER32.dll
 0002:00000568       __imp_EndPaint             0000000180023568     user32:USER32.dll
 0002:00000570       __imp_BeginPaint           0000000180023570     user32:USER32.dll
 0002:00000578       __imp_ReleaseDC            0000000180023578     user32:USER32.dll
 0002:00000580       __imp_GetDC                0000000180023580     user32:USER32.dll
 0002:00000588       __imp_GetKeyState          0000000180023588     user32:USER32.dll
 0002:00000590       __imp_GetFocus             0000000180023590     user32:USER32.dll
 0002:00000598       \177USER32_NULL_THUNK_DATA 0000000180023598     user32:USER32.dll
 0002:000005a0       __imp_CoCreateInstance     00000001800235a0     ole32:ole32.dll
 0002:000005a8       __imp_StringFromGUID2      00000001800235a8     ole32:ole32.dll
 0002:000005b0       __imp_CoTaskMemAlloc       00000001800235b0     ole32:ole32.dll
 0002:000005b8       __imp_CoTaskMemFree        00000001800235b8     ole32:ole32.dll
 0002:000005c0       __imp_ReadClassStm         00000001800235c0     ole32:ole32.dll
 0002:000005c8       __imp_WriteClassStm        00000001800235c8     ole32:ole32.dll
 0002:000005d0       __imp_CreateDataAdviseHolder 00000001800235d0     ole32:ole32.dll
 0002:000005d8       __imp_OleSaveToStream      00000001800235d8     ole32:ole32.dll
 0002:000005e0       __imp_CreateOleAdviseHolder 00000001800235e0     ole32:ole32.dll
 0002:000005e8       __imp_OleRegGetUserType    00000001800235e8     ole32:ole32.dll
 0002:000005f0       __imp_OleRegGetMiscStatus  00000001800235f0     ole32:ole32.dll
 0002:000005f8       __imp_OleRegEnumVerbs      00000001800235f8     ole32:ole32.dll
 0002:00000600       __imp_CLSIDFromProgID      0000000180023600     ole32:ole32.dll
 0002:00000608       __imp_CoTaskMemRealloc     0000000180023608     ole32:ole32.dll
 0002:00000610       \177ole32_NULL_THUNK_DATA  0000000180023610     ole32:ole32.dll
 0002:00000618       __guard_check_icall_fptr   0000000180023618     LIBCMT:guard_support.obj
 0002:00000620       __guard_xfg_check_icall_fptr 0000000180023620     LIBCMT:guard_support.obj
 0002:00000628       __guard_dispatch_icall_fptr 0000000180023628     LIBCMT:guard_support.obj
 0002:00000630       __guard_xfg_dispatch_icall_fptr 0000000180023630     LIBCMT:guard_support.obj
 0002:00000638       __guard_xfg_table_dispatch_icall_fptr 0000000180023638     LIBCMT:guard_support.obj
 0002:00000640       __xc_a                     0000000180023640     LIBCMT:initializers.obj
 0002:00000670       __xc_z                     0000000180023670     LIBCMT:initializers.obj
 0002:00000678       __xi_a                     0000000180023678     LIBCMT:initializers.obj
 0002:00000688       __acrt_stdio_initializer   0000000180023688     libucrt:stdio_initializer.obj
 0002:00000690       __acrt_multibyte_initializer 0000000180023690     libucrt:multibyte_initializer.obj
 0002:00000698       __acrt_tran_fma3_initializer 0000000180023698     libucrt:fma3_initializer.obj
 0002:000006a0       __xi_z                     00000001800236a0     LIBCMT:initializers.obj
 0002:000006a8       __xl_a                     00000001800236a8     LIBCMT:tlssup.obj
 0002:000006b0       __xl_z                     00000001800236b0     LIBCMT:tlssup.obj
 0002:000006b8       __xp_a                     00000001800236b8     LIBCMT:initializers.obj
 0002:000006c0       __acrt_locale_terminator   00000001800236c0     libucrt:locale_initializer.obj
 0002:000006c8       __dcrt_console_output_terminator 00000001800236c8     libucrt:console_output_initializer.obj
 0002:000006d0       __acrt_stdio_terminator    00000001800236d0     libucrt:stdio_initializer.obj
 0002:000006d8       __xp_z                     00000001800236d8     LIBCMT:initializers.obj
 0002:000006e0       __xt_a                     00000001800236e0     LIBCMT:initializers.obj
 0002:000006e8       __xt_z                     00000001800236e8     LIBCMT:initializers.obj
 0002:000006f0       ??_C@_13HADIAKP@?$AAS@     00000001800236f0     OposVariant.obj
 0002:000006f4       ??_C@_13LHMFKAAD@?$AAM@    00000001800236f4     OposVariant.obj
 0002:000006f8       ??_C@_13MKMNOPIJ@?$AAD@    00000001800236f8     OposVariant.obj
 0002:000006fc       ??_C@_13OPKGLAFF@?$AAB@    00000001800236fc     OposVariant.obj
 0002:00000700       ??_C@_17LLMMEOJD@?$AAV?$AAa?$AAl@ 0000000180023700     OposVariant.obj
 0002:00000708       ??_C@_1BI@JFAIJMHL@?$AAF?$AAo?$AAr?$AAc?$AAe?$AAR?$AAe?$AAm?$AAo?$AAv?$AAe@ 0000000180023708     OposVariant.obj
 0002:00000720       ??_C@_1BC@GCKHIPE@?$AAN?$AAo?$AAR?$AAe?$AAm?$AAo?$AAv?$AAe@ 0000000180023720     OposVariant.obj
 0002:00000738       ??_C@_1O@JDLOHAN@?$AAD?$AAe?$AAl?$AAe?$AAt?$AAe@ 0000000180023738     OposVariant.obj
 0002:00000748       ??_C@_11LOCGONAA@@         0000000180023748     OposVariant.obj
 0002:00000750       IID_IOPOSSigCap_1_5        0000000180023750     SigCap.obj
 0002:00000760       IID_IOPOSSigCap_1_8        0000000180023760     SigCap.obj
 0002:00000770       IID_IOPOSSigCap_1_9        0000000180023770     SigCap.obj
 0002:00000780       IID_IOPOSSigCap_1_10       0000000180023780     SigCap.obj
 0002:00000790       IID_IOPOSSigCap            0000000180023790     SigCap.obj
 0002:000007a0       LIBID_OposSigCap_CCO       00000001800237a0     SigCap.obj
 0002:000007b0       DIID__IOPOSSigCapEvents    00000001800237b0     SigCap.obj
 0002:000007c0       CLSID_OPOSSigCap           00000001800237c0     SigCap.obj
 0002:000007d0       _GUID_00000114_0000_0000_c000_000000000046 00000001800237d0     SigCap.obj
 0002:000007e0       ??_C@_1BK@BIGILECK@?$AAA?$AAd?$AAv?$AAa?$AAp?$AAi?$AA3?$AA2?$AA?4?$AAd?$AAl?$AAl@ 00000001800237e0     SigCap.obj
 0002:00000800       ??_C@_0BI@MNCFCPFK@RegCreateKeyTransactedW@ 0000000180023800     SigCap.obj
 0002:00000818       _GUID_b196b287_bab4_101a_b69c_00aa00341d07 0000000180023818     SigCap.obj
 0002:00000828       _GUID_b196b285_bab4_101a_b69c_00aa00341d07 0000000180023828     SigCap.obj
 0002:00000838       _GUID_a6bc3ac0_dbaa_11ce_9de3_00aa004bb851 0000000180023838     SigCap.obj
 0002:00000850       ?_entries@?1??_GetEntries@COPOSSigCap@@SAPEBU_ATL_INTMAP_ENTRY@ATL@@XZ@4QBU34@B 0000000180023850     SigCap.obj
 0002:00000ad8       _GUID_0000010c_0000_0000_c000_000000000046 0000000180023ad8     SigCap.obj
 0002:00000ae8       _GUID_cf51ed10_62fe_11cf_bf86_00a0c9034836 0000000180023ae8     SigCap.obj
 0002:00000af8       _GUID_0000010a_0000_0000_c000_000000000046 0000000180023af8     SigCap.obj
 0002:00000b08       _GUID_b196b283_bab4_101a_b69c_00aa00341d07 0000000180023b08     SigCap.obj
 0002:00000b18       _GUID_cb5bdc81_93c1_11cf_8f20_00805f2cd064 0000000180023b18     SigCap.obj
 0002:00000b30       ?pPropMap@?1??GetPropertyMap@COPOSSigCap@@SAPEBUATL_PROPMAP_ENTRY@ATL@@XZ@4QBU34@B 0000000180023b30     SigCap.obj
 0002:00000bd8       ??_C@_17DGDADEHL@?$AA_?$AAc?$AAx@ 0000000180023bd8     SigCap.obj
 0002:00000be0       ??_C@_17IOIMFDBO@?$AA_?$AAc?$AAy@ 0000000180023be0     SigCap.obj
 0002:00000be8       _GUID_00000146_0000_0000_c000_000000000046 0000000180023be8     SigCap.obj
 0002:00000bf8       _GUID_922eada0_3424_11cf_b670_00aa004cd6d8 0000000180023bf8     SigCap.obj
 0002:00000c08       _GUID_9c2cad80_3424_11cf_b670_00aa004cd6d8 0000000180023c08     SigCap.obj
 0002:00000c18       _GUID_00000119_0000_0000_c000_000000000046 0000000180023c18     SigCap.obj
 0002:00000c28       _GUID_b196b289_bab4_101a_b69c_00aa00341d07 0000000180023c28     SigCap.obj
 0002:00000c38       ??_7?$CComObjectCached@VCComClassFactory@ATL@@@ATL@@6B@ 0000000180023c38     SigCap.obj
 0002:00000c68       ??_C@_1CE@PGFMOFKI@?$AAS?$AAt?$AAa?$AAt?$AAu?$AAs?$AAU?$AAp?$AAd?$AAa?$AAt?$AAe?$AAE?$AAv?$AAe@ 0000000180023c68     SigCap.obj
 0002:00000c90       ??_C@_1BG@LODEBHDD@?$AAE?$AAr?$AAr?$AAo?$AAr?$AAE?$AAv?$AAe?$AAn?$AAt@ 0000000180023c90     SigCap.obj
 0002:00000ca8       ??_C@_1BM@CBGEBBBJ@?$AAD?$AAi?$AAr?$AAe?$AAc?$AAt?$AAI?$AAO?$AAE?$AAv?$AAe?$AAn?$AAt@ 0000000180023ca8     SigCap.obj
 0002:00000cc8       ??_C@_1BE@IEBMACEM@?$AAD?$AAa?$AAt?$AAa?$AAE?$AAv?$AAe?$AAn?$AAt@ 0000000180023cc8     SigCap.obj
 0002:00000ce0       _GUID_b196b286_bab4_101a_b69c_00aa00341d07 0000000180023ce0     SigCap.obj
 0002:00000cf0       _GUID_00000117_0000_0000_c000_000000000046 0000000180023cf0     SigCap.obj
 0002:00000d00       ??_7CComModule@ATL@@6B@    0000000180023d00     SigCap.obj
 0002:00000d50       ??_C@_1BC@ENICKDH@?$AAC?$AAo?$AAn?$AAt?$AAe?$AAn?$AAt?$AAs@ 0000000180023d50     SigCap.obj
 0002:00000d68       _GUID_00000000_0000_0000_c000_000000000046 0000000180023d68     SigCap.obj
 0002:00000d78       _GUID_00020400_0000_0000_c000_000000000046 0000000180023d78     SigCap.obj
 0002:00000d88       ??_7?$CComObject@V?$CComEnum@UIEnumConnectionPoints@@$1?_GUID_b196b285_bab4_101a_b69c_00aa00341d07@@3U__s_GUID@@BPEAUIConnectionPoint@@V?$_CopyInterface@UIConnectionPoint@@@ATL@@VCComSingleThreadModel@6@@ATL@@@ATL@@6B@ 0000000180023d88     SigCap.obj
 0002:00000dc8       _GUID_0000010e_0000_0000_c000_000000000046 0000000180023dc8     SigCap.obj
 0002:00000dd8       _GUID_b196b288_bab4_101a_b69c_00aa00341d07 0000000180023dd8     SigCap.obj
 0002:00000de8       ??_C@_1M@KANJNLFF@?$AAC?$AAL?$AAS?$AAI?$AAD@ 0000000180023de8     SigCap.obj
 0002:00000df8       ??_C@_1M@EJNEECMJ@?$AAA?$AAp?$AAp?$AAI?$AAD@ 0000000180023df8     SigCap.obj
 0002:00000e08       _GUID_00000113_0000_0000_c000_000000000046 0000000180023e08     SigCap.obj
 0002:00000e20       ?rgszNeverDelete@CRegParser@ATL@@1QBQEB_WB 0000000180023e20     SigCap.obj
 0002:00000e80       _GUID_1c2056cc_5ef4_101b_8bc8_00aa003e3b29 0000000180023e80     SigCap.obj
 0002:00000e90       ??_7CRegObject@ATL@@6B@    0000000180023e90     SigCap.obj
 0002:00000ec0       _GUID_00000112_0000_0000_c000_000000000046 0000000180023ec0     SigCap.obj
 0002:00000ed0       _GUID_3af24292_0c96_11ce_a0cf_00aa00600ab8 0000000180023ed0     SigCap.obj
 0002:00000ee0       _GUID_00000127_0000_0000_c000_000000000046 0000000180023ee0     SigCap.obj
 0002:00000ef0       _GUID_0000010d_0000_0000_c000_000000000046 0000000180023ef0     SigCap.obj
 0002:00000f00       ??_C@_1CK@OEKPKBNA@?$AAC?$AAo?$AAm?$AAp?$AAo?$AAn?$AAe?$AAn?$AAt?$AA?5?$AAC?$AAa?$AAt?$AAe?$AAg@ 0000000180023f00     SigCap.obj
 0002:00000f30       ??_C@_1BC@NKMMNMGL@?$AAF?$AAi?$AAl?$AAe?$AAT?$AAy?$AAp?$AAe@ 0000000180023f30     SigCap.obj
 0002:00000f48       ??_C@_1BE@EKPAFMCP@?$AAI?$AAn?$AAt?$AAe?$AAr?$AAf?$AAa?$AAc?$AAe@ 0000000180023f48     SigCap.obj
 0002:00000f60       ??_C@_1BC@MAICEHGI@?$AAH?$AAa?$AAr?$AAd?$AAw?$AAa?$AAr?$AAe@ 0000000180023f60     SigCap.obj
 0002:00000f78       ??_C@_19HLLLM@?$AAM?$AAi?$AAm?$AAe@ 0000000180023f78     SigCap.obj
 0002:00000f88       ??_C@_17OMAOINJK@?$AAS?$AAA?$AAM@ 0000000180023f88     SigCap.obj
 0002:00000f90       ??_C@_1BC@IBECJAAI@?$AAS?$AAE?$AAC?$AAU?$AAR?$AAI?$AAT?$AAY@ 0000000180023f90     SigCap.obj
 0002:00000fa8       ??_C@_1O@GBFINDKL@?$AAS?$AAY?$AAS?$AAT?$AAE?$AAM@ 0000000180023fa8     SigCap.obj
 0002:00000fb8       ??_C@_1BC@EAHCMADO@?$AAS?$AAo?$AAf?$AAt?$AAw?$AAa?$AAr?$AAe@ 0000000180023fb8     SigCap.obj
 0002:00000fd0       ??_C@_1BA@JIHHIEDE@?$AAT?$AAy?$AAp?$AAe?$AAL?$AAi?$AAb@ 0000000180023fd0     SigCap.obj
 0002:00000fe0       ?map@?1??HKeyFromString@CRegParser@ATL@@KAPEAUHKEY__@@PEA_W@Z@4QBUkeymap@?1??123@KAPEAU4@0@Z@B 0000000180023fe0     SigCap.obj
 0002:000010c0       ??_C@_19NCHLBIN@?$AAH?$AAK?$AAC?$AAR@ 00000001800240c0     SigCap.obj
 0002:000010d0       ??_C@_19JAPAIJDE@?$AAH?$AAK?$AAC?$AAU@ 00000001800240d0     SigCap.obj
 0002:000010e0       ??_C@_19PEALEEJB@?$AAH?$AAK?$AAL?$AAM@ 00000001800240e0     SigCap.obj
 0002:000010f0       ??_C@_17PJOJPMPB@?$AAH?$AAK?$AAU@ 00000001800240f0     SigCap.obj
 0002:000010f8       ??_C@_19PNBHMJPL@?$AAH?$AAK?$AAP?$AAD@ 00000001800240f8     SigCap.obj
 0002:00001108       ??_C@_19GFFAIJHG@?$AAH?$AAK?$AAD?$AAD@ 0000000180024108     SigCap.obj
 0002:00001118       ??_C@_19OFICIBHH@?$AAH?$AAK?$AAC?$AAC@ 0000000180024118     SigCap.obj
 0002:00001128       ??_C@_1CE@PACHPJFI@?$AAH?$AAK?$AAE?$AAY?$AA_?$AAC?$AAL?$AAA?$AAS?$AAS?$AAE?$AAS?$AA_?$AAR?$AAO@ 0000000180024128     SigCap.obj
 0002:00001150       ??_C@_1CE@HLHNCBPM@?$AAH?$AAK?$AAE?$AAY?$AA_?$AAC?$AAU?$AAR?$AAR?$AAE?$AAN?$AAT?$AA_?$AAU?$AAS@ 0000000180024150     SigCap.obj
 0002:00001178       ??_C@_1CG@GFBEANJL@?$AAH?$AAK?$AAE?$AAY?$AA_?$AAL?$AAO?$AAC?$AAA?$AAL?$AA_?$AAM?$AAA?$AAC?$AAH@ 0000000180024178     SigCap.obj
 0002:000011a0       ??_C@_1BG@BGODANIO@?$AAH?$AAK?$AAE?$AAY?$AA_?$AAU?$AAS?$AAE?$AAR?$AAS@ 00000001800241a0     SigCap.obj
 0002:000011b8       ??_C@_1CM@KHNNAOIC@?$AAH?$AAK?$AAE?$AAY?$AA_?$AAP?$AAE?$AAR?$AAF?$AAO?$AAR?$AAM?$AAA?$AAN?$AAC@ 00000001800241b8     SigCap.obj
 0002:000011e8       ??_C@_1BM@HAGMMHIA@?$AAH?$AAK?$AAE?$AAY?$AA_?$AAD?$AAY?$AAN?$AA_?$AAD?$AAA?$AAT?$AAA@ 00000001800241e8     SigCap.obj
 0002:00001208       ??_C@_1CI@BBJOACGG@?$AAH?$AAK?$AAE?$AAY?$AA_?$AAC?$AAU?$AAR?$AAR?$AAE?$AAN?$AAT?$AA_?$AAC?$AAO@ 0000000180024208     SigCap.obj
 0002:00001230       ??_C@_1M@PPPPCDEP@?$AAA?$AAP?$AAP?$AAI?$AAD@ 0000000180024230     SigCap.obj
 0002:00001240       _GUID_00000109_0000_0000_c000_000000000046 0000000180024240     SigCap.obj
 0002:00001250       _GUID_7fd52380_4e07_101b_ae2d_08002b2ec713 0000000180024250     SigCap.obj
 0002:00001260       ??_C@_1EA@NHKLICFA@?$AAH?$AAK?$AAC?$AAU?$AA?$AN?$AA?6?$AA?$HL?$AA?7?$AAS?$AAo?$AAf?$AAt?$AAw?$AAa?$AAr@ 0000000180024260     SigCap.obj
 0002:000012a0       ??_C@_1BE@LJOLIMEM@?$AA?$AN?$AA?6?$AA?7?$AA?$HN?$AA?$AN?$AA?6?$AA?$HN?$AA?$AN?$AA?6@ 00000001800242a0     SigCap.obj
 0002:000012b8       ??_7?$CComContainedObject@VCOPOSSigCap@@@ATL@@6B?$IDispatchImpl@UIOPOSSigCap@@$1?IID_IOPOSSigCap@@3U_GUID@@B$1?LIBID_OposSigCap_CCO@@3U3@B$00$0A@VCComTypeInfoHolder@ATL@@@1@@ 00000001800242b8     SigCap.obj
 0002:000014e0       ??_7?$CComContainedObject@VCOPOSSigCap@@@ATL@@6BCComControlBase@1@@ 00000001800244e0     SigCap.obj
 0002:00001508       ??_7?$CComContainedObject@VCOPOSSigCap@@@ATL@@6B?$CWindowImpl@VCOPOSSigCap@@VCWindow@ATL@@V?$CWinTraits@$0FGAAAAAA@$0A@@3@@1@@ 0000000180024508     SigCap.obj
 0002:00001528       ??_7?$CComContainedObject@VCOPOSSigCap@@@ATL@@6B?$IPersistStreamInitImpl@VCOPOSSigCap@@@1@@ 0000000180024528     SigCap.obj
 0002:00001570       ??_7?$CComContainedObject@VCOPOSSigCap@@@ATL@@6B?$IOleControlImpl@VCOPOSSigCap@@@1@@ 0000000180024570     SigCap.obj
 0002:000015a8       ??_7?$CComContainedObject@VCOPOSSigCap@@@ATL@@6B?$IOleObjectImpl@VCOPOSSigCap@@@1@@ 00000001800245a8     SigCap.obj
 0002:00001668       ??_7?$CComContainedObject@VCOPOSSigCap@@@ATL@@6B?$IOleInPlaceActiveObjectImpl@VCOPOSSigCap@@@1@@ 0000000180024668     SigCap.obj
 0002:000016b8       ??_7?$CComContainedObject@VCOPOSSigCap@@@ATL@@6B?$IViewObjectExImpl@VCOPOSSigCap@@@1@@ 00000001800246b8     SigCap.obj
 0002:00001730       ??_7?$CComContainedObject@VCOPOSSigCap@@@ATL@@6B?$IOleInPlaceObjectWindowlessImpl@VCOPOSSigCap@@@1@@ 0000000180024730     SigCap.obj
 0002:00001788       ??_7?$CComContainedObject@VCOPOSSigCap@@@ATL@@6B?$IConnectionPointContainerImpl@VCOPOSSigCap@@@1@@ 0000000180024788     SigCap.obj
 0002:000017b0       ??_7?$CComContainedObject@VCOPOSSigCap@@@ATL@@6B?$IPersistStorageImpl@VCOPOSSigCap@@@1@@ 00000001800247b0     SigCap.obj
 0002:00001800       ??_7?$CComContainedObject@VCOPOSSigCap@@@ATL@@6B?$ISpecifyPropertyPagesImpl@VCOPOSSigCap@@@1@@ 0000000180024800     SigCap.obj
 0002:00001820       ??_7?$CComContainedObject@VCOPOSSigCap@@@ATL@@6B?$IQuickActivateImpl@VCOPOSSigCap@@@1@@ 0000000180024820     SigCap.obj
 0002:00001850       ??_7?$CComContainedObject@VCOPOSSigCap@@@ATL@@6B?$IDataObjectImpl@VCOPOSSigCap@@@1@@ 0000000180024850     SigCap.obj
 0002:000018b0       ??_7?$CComContainedObject@VCOPOSSigCap@@@ATL@@6B?$IProvideClassInfo2Impl@$1?CLSID_OPOSSigCap@@3U_GUID@@B$1?DIID__IOPOSSigCapEvents@@3U2@B$1?LIBID_OposSigCap_CCO@@3U2@B$00$0A@VCComTypeInfoHolder@ATL@@@1@@ 00000001800248b0     SigCap.obj
 0002:000018d8       ??_7?$CComContainedObject@VCOPOSSigCap@@@ATL@@6B?$IObjectSafetyImpl@VCOPOSSigCap@@$02@1@@ 00000001800248d8     SigCap.obj
 0002:00001908       ??_7?$CComContainedObject@VCOPOSSigCap@@@ATL@@6B?$IPropertyNotifySinkCP@VCOPOSSigCap@@VCComDynamicUnkArray@ATL@@@1@@ 0000000180024908     SigCap.obj
 0002:00001948       ??_7?$CComContainedObject@VCOPOSSigCap@@@ATL@@6B?$CProxy_IOPOSEvents@VCOPOSSigCap@@@@@ 0000000180024948     SigCap.obj
 0002:00001988       ??_7?$CComAggObject@VCOPOSSigCap@@@ATL@@6B@ 0000000180024988     SigCap.obj
 0002:000019a8       ??_7?$CComObject@VCOPOSSigCap@@@ATL@@6B?$IDispatchImpl@UIOPOSSigCap@@$1?IID_IOPOSSigCap@@3U_GUID@@B$1?LIBID_OposSigCap_CCO@@3U3@B$00$0A@VCComTypeInfoHolder@ATL@@@1@@ 00000001800249a8     SigCap.obj
 0002:00001bd0       ??_7?$CComObject@VCOPOSSigCap@@@ATL@@6BCComControlBase@1@@ 0000000180024bd0     SigCap.obj
 0002:00001bf8       ??_7?$CComObject@VCOPOSSigCap@@@ATL@@6B?$CWindowImpl@VCOPOSSigCap@@VCWindow@ATL@@V?$CWinTraits@$0FGAAAAAA@$0A@@3@@1@@ 0000000180024bf8     SigCap.obj
 0002:00001c18       ??_7?$CComObject@VCOPOSSigCap@@@ATL@@6B?$IPersistStreamInitImpl@VCOPOSSigCap@@@1@@ 0000000180024c18     SigCap.obj
 0002:00001c60       ??_7?$CComObject@VCOPOSSigCap@@@ATL@@6B?$IOleControlImpl@VCOPOSSigCap@@@1@@ 0000000180024c60     SigCap.obj
 0002:00001c98       ??_7?$CComObject@VCOPOSSigCap@@@ATL@@6B?$IOleObjectImpl@VCOPOSSigCap@@@1@@ 0000000180024c98     SigCap.obj
 0002:00001d58       ??_7?$CComObject@VCOPOSSigCap@@@ATL@@6B?$IOleInPlaceActiveObjectImpl@VCOPOSSigCap@@@1@@ 0000000180024d58     SigCap.obj
 0002:00001da8       ??_7?$CComObject@VCOPOSSigCap@@@ATL@@6B?$IViewObjectExImpl@VCOPOSSigCap@@@1@@ 0000000180024da8     SigCap.obj
 0002:00001e20       ??_7?$CComObject@VCOPOSSigCap@@@ATL@@6B?$IOleInPlaceObjectWindowlessImpl@VCOPOSSigCap@@@1@@ 0000000180024e20     SigCap.obj
 0002:00001e78       ??_C@_1O@MNLDABAF@?$AAM?$AAo?$AAd?$AAu?$AAl?$AAe@ 0000000180024e78     SigCap.obj
 0002:00001e88       ??_7?$CComObject@VCOPOSSigCap@@@ATL@@6B?$IConnectionPointContainerImpl@VCOPOSSigCap@@@1@@ 0000000180024e88     SigCap.obj
 0002:00001eb0       ??_7?$CComObject@VCOPOSSigCap@@@ATL@@6B?$IPersistStorageImpl@VCOPOSSigCap@@@1@@ 0000000180024eb0     SigCap.obj
 0002:00001f00       ??_C@_1BG@JBACFMF@?$AAM?$AAo?$AAd?$AAu?$AAl?$AAe?$AA_?$AAR?$AAa?$AAw@ 0000000180024f00     SigCap.obj
 0002:00001f18       ??_7?$CComObject@VCOPOSSigCap@@@ATL@@6B?$ISpecifyPropertyPagesImpl@VCOPOSSigCap@@@1@@ 0000000180024f18     SigCap.obj
 0002:00001f38       ??_C@_1BC@KAILKFFG@?$AAR?$AAE?$AAG?$AAI?$AAS?$AAT?$AAR?$AAY@ 0000000180024f38     SigCap.obj
 0002:00001f50       ??_7?$CComObject@VCOPOSSigCap@@@ATL@@6B?$IQuickActivateImpl@VCOPOSSigCap@@@1@@ 0000000180024f50     SigCap.obj
 0002:00001f80       ??_7?$CComObject@VCOPOSSigCap@@@ATL@@6B?$IDataObjectImpl@VCOPOSSigCap@@@1@@ 0000000180024f80     SigCap.obj
 0002:00001fe0       ??_7?$CComObject@VCOPOSSigCap@@@ATL@@6B?$IProvideClassInfo2Impl@$1?CLSID_OPOSSigCap@@3U_GUID@@B$1?DIID__IOPOSSigCapEvents@@3U2@B$1?LIBID_OposSigCap_CCO@@3U2@B$00$0A@VCComTypeInfoHolder@ATL@@@1@@ 0000000180024fe0     SigCap.obj
 0002:00002008       ??_7?$CComObject@VCOPOSSigCap@@@ATL@@6B?$IObjectSafetyImpl@VCOPOSSigCap@@$02@1@@ 0000000180025008     SigCap.obj
 0002:00002038       ??_7?$CComObject@VCOPOSSigCap@@@ATL@@6B?$IPropertyNotifySinkCP@VCOPOSSigCap@@VCComDynamicUnkArray@ATL@@@1@@ 0000000180025038     SigCap.obj
 0002:00002078       ??_7?$CComObject@VCOPOSSigCap@@@ATL@@6B?$CProxy_IOPOSEvents@VCOPOSSigCap@@@@@ 0000000180025078     SigCap.obj
 0002:000020b8       ??_C@_1O@GBFKGNEO@?$AAA?$AAT?$AAL?$AA?3?$AA?$CF?$AAp@ 00000001800250b8     SigCap.obj
 0002:000020c8       ??_C@_1BA@PICGEGJB@?$AAD?$AAI?$AAS?$AAP?$AAL?$AAA?$AAY@ 00000001800250c8     SigCap.obj
 0002:000020d8       _GUID_9bfbbc02_eff1_101a_84ed_00aa00341d07 00000001800250d8     SigCap.obj
 0002:000020e8       ?_entries@?1??_GetEntries@?$CComEnum@UIEnumConnectionPoints@@$1?_GUID_b196b285_bab4_101a_b69c_00aa00341d07@@3U__s_GUID@@BPEAUIConnectionPoint@@V?$_CopyInterface@UIConnectionPoint@@@ATL@@VCComSingleThreadModel@6@@ATL@@SAPEBU_ATL_INTMAP_ENTRY@3@XZ@4QBU43@B 00000001800250e8     SigCap.obj
 0002:00002118       _GUID_b196b284_bab4_101a_b69c_00aa00341d07 0000000180025118     SigCap.obj
 0002:00002128       _GUID_00020412_0000_0000_c000_000000000046 0000000180025128     SigCap.obj
 0002:00002138       _GUID_00020401_0000_0000_c000_000000000046 0000000180025138     SigCap.obj
 0002:00002148       ??_7?$CComObject@V?$CComEnum@UIEnumConnections@@$1?_GUID_b196b287_bab4_101a_b69c_00aa00341d07@@3U__s_GUID@@BUtagCONNECTDATA@@V?$_Copy@UtagCONNECTDATA@@@ATL@@VCComSingleThreadModel@6@@ATL@@@ATL@@6B@ 0000000180025148     SigCap.obj
 0002:00002188       _GUID_55980ba0_35aa_11cf_b671_00aa004cd6d8 0000000180025188     SigCap.obj
 0002:00002198       _GUID_b196b28b_bab4_101a_b69c_00aa00341d07 0000000180025198     SigCap.obj
 0002:000021a8       ?_entries@?1??_GetEntries@?$CComEnum@UIEnumConnections@@$1?_GUID_b196b287_bab4_101a_b69c_00aa00341d07@@3U__s_GUID@@BUtagCONNECTDATA@@V?$_Copy@UtagCONNECTDATA@@@ATL@@VCComSingleThreadModel@6@@ATL@@SAPEBU_ATL_INTMAP_ENTRY@3@XZ@4QBU43@B 00000001800251a8     SigCap.obj
 0002:000021d8       ??_7CComClassFactory@ATL@@6B@ 00000001800251d8     SigCap.obj
 0002:00002208       ?_entries@?1??_GetEntries@CComClassFactory@ATL@@SAPEBU_ATL_INTMAP_ENTRY@3@XZ@4QBU43@B 0000000180025208     SigCap.obj
 0002:00002238       _GUID_00000001_0000_0000_c000_000000000046 0000000180025238     SigCap.obj
 0002:00002248       ??_C@_0BG@EKFFMJIO@RegOpenKeyTransactedW@ 0000000180025248     SigCap.obj
 0002:00002260       ??_C@_0BI@HAKLOOGP@RegDeleteKeyTransactedW@ 0000000180025260     SigCap.obj
 0002:00002278       ??_C@_0BA@LILAPHGE@RegDeleteKeyExW@ 0000000180025278     SigCap.obj
 0002:00002288       ??_C@_19ILOCMLCJ@?$AA?4?$AAt?$AAl?$AAb@ 0000000180025288     SigCap.obj
 0002:00002298       _GUID_0002e012_0000_0000_c000_000000000046 0000000180025298     SigCap.obj
 0002:000022a8       ??_C@_1O@FHBGLCIO@?$AAC?$AAL?$AAS?$AAI?$AAD?$AA?2@ 00000001800252a8     SigCap.obj
 0002:000022b8       ??_C@_1CK@IFBKBFAA@?$AA?2?$AAR?$AAe?$AAq?$AAu?$AAi?$AAr?$AAe?$AAd?$AA?5?$AAC?$AAa?$AAt?$AAe?$AAg@ 00000001800252b8     SigCap.obj
 0002:000022e8       ??_C@_1DA@BIHALFED@?$AA?2?$AAI?$AAm?$AAp?$AAl?$AAe?$AAm?$AAe?$AAn?$AAt?$AAe?$AAd?$AA?5?$AAC?$AAa@ 00000001800252e8     SigCap.obj
 0002:00002318       ??_C@_1BK@EDKOLFBJ@?$AAO?$AAL?$AAE?$AAA?$AAU?$AAT?$AA3?$AA2?$AA?4?$AAD?$AAL?$AAL@ 0000000180025318     SigCap.obj
 0002:00002338       ??_C@_0BJ@CNLFOMHB@UnRegisterTypeLibForUser@ 0000000180025338     SigCap.obj
 0002:00002358       ??_C@_0BH@LBOMMKPJ@RegisterTypeLibForUser@ 0000000180025358     SigCap.obj
 0002:00002370       ??_C@_0P@MMNMMLGK@COFreezeEvents@ 0000000180025370     SigCapImpl.obj
 0002:00002380       ??_C@_0BC@OGCGGIMP@GetPropertyNumber@ 0000000180025380     SigCapImpl.obj
 0002:00002398       ??_C@_0BC@MDCNODNB@SetPropertyNumber@ 0000000180025398     SigCapImpl.obj
 0002:000023b0       ??_C@_0BC@CFCCMIMD@GetPropertyString@ 00000001800253b0     SigCapImpl.obj
 0002:000023c8       ??_C@_0BC@CJEDNN@SetPropertyString@ 00000001800253c8     SigCapImpl.obj
 0002:000023e0       ??_C@_0M@LNPKKKDA@OpenService@ 00000001800253e0     SigCapImpl.obj
 0002:000023f0       ??_C@_0M@PCMCHHMH@CheckHealth@ 00000001800253f0     SigCapImpl.obj
 0002:00002400       ??_C@_0M@JGMIDNEK@ClaimDevice@ 0000000180025400     SigCapImpl.obj
 0002:00002410       ??_C@_0L@BNEIFEJC@ClearInput@ 0000000180025410     SigCapImpl.obj
 0002:00002420       ??_C@_0N@DDFIIBMP@CloseService@ 0000000180025420     SigCapImpl.obj
 0002:00002430       ??_C@_08EEIHICPC@DirectIO@ 0000000180025430     SigCapImpl.obj
 0002:00002440       ??_C@_0O@BCPMENMJ@ReleaseDevice@ 0000000180025440     SigCapImpl.obj
 0002:00002450       ??_C@_0N@MDKKMKFB@BeginCapture@ 0000000180025450     SigCapImpl.obj
 0002:00002460       ??_C@_0L@GDHLKFDG@EndCapture@ 0000000180025460     SigCapImpl.obj
 0002:00002470       ??_C@_0BA@GFABKEEE@ResetStatistics@ 0000000180025470     SigCapImpl.obj
 0002:00002480       ??_C@_0BD@DPALHJGC@RetrieveStatistics@ 0000000180025480     SigCapImpl.obj
 0002:00002498       ??_C@_0BB@KOHIKNFC@UpdateStatistics@ 0000000180025498     SigCapImpl.obj
 0002:000024b0       ??_C@_0BH@PBKBNMGB@CompareFirmwareVersion@ 00000001800254b0     SigCapImpl.obj
 0002:000024c8       ??_C@_0P@FBPDPIPA@UpdateFirmware@ 00000001800254c8     SigCapImpl.obj
 0002:000024d8       ??_C@_0BF@CMAPCJGM@ClearInputProperties@ 00000001800254d8     SigCapImpl.obj
 0002:000024f0       ??_7?$CProxy_IOPOSEvents@VCOPOSSigCap@@@@6B@ 00000001800254f0     SigCapImpl.obj
 0002:00002530       ??_C@_1BA@IFHENID@?$AA?$FL?$AAE?$AAr?$AAr?$AAo?$AAr?$AA?$FN@ 0000000180025530     SigCapImpl.obj
 0002:00002540       ??_C@_0DD@KBDEGKEA@SOFTWARE?2OLEforRetail?2ServiceOP@ 0000000180025540     SigCapImpl.obj
 0002:00002578       ??_C@_1M@IAIJHCCH@?$AAC?$AAl?$AAo?$AAs?$AAe@ 0000000180025578     SigCapImpl.obj
 0002:00002588       ??_C@_1M@PCPKGJAH@?$AAC?$AAl?$AAa?$AAi?$AAm@ 0000000180025588     SigCapImpl.obj
 0002:00002598       ??_C@_1BA@NDFKIOCP@?$AAR?$AAe?$AAl?$AAe?$AAa?$AAs?$AAe@ 0000000180025598     SigCapImpl.obj
 0002:000025a8       ??_C@_0BB@FEHHNGAK@SignatureCapture@ 00000001800255a8     SigCapImpl.obj
 0002:000025c0       ??_C@_1BM@IJMNMBPK@?$AAG?$AAe?$AAt?$AAO?$AAp?$AAe?$AAn?$AAR?$AAe?$AAs?$AAu?$AAl?$AAt@ 00000001800255c0     SigCapImpl.obj
 0002:000025e0       IID_IDispatch              00000001800255e0     uuid:oaidl_i.obj
 0002:000025f0       IID_IPropertyNotifySink    00000001800255f0     uuid:ocidl_i.obj
 0002:00002600       GUID_NULL                  0000000180025600     uuid:cguid_i.obj
 0002:00002610       CLSID_StdGlobalInterfaceTable 0000000180025610     uuid:cguid_i.obj
 0002:00002620       CLSID_StdComponentCategoriesMgr 0000000180025620     uuid:ieguids.obj
 0002:00002630       IID_IUnknown               0000000180025630     uuid:unknwn_i.obj
 0002:00002640       __xmm@ffffffffffffffffffffffffffffffff 0000000180025640     LIBCMT:utility.obj
 0002:00002650       ??_C@_1EC@JIJBPKFM@?$AAa?$AAp?$AAi?$AA?9?$AAm?$AAs?$AA?9?$AAw?$AAi?$AAn?$AA?9?$AAc?$AAo?$AAr?$AAe@ 0000000180025650     LIBCMT:thread_safe_statics.obj
 0002:00002698       ??_C@_1BK@MGMFAEKH@?$AAk?$AAe?$AAr?$AAn?$AAe?$AAl?$AA3?$AA2?$AA?4?$AAd?$AAl?$AAl@ 0000000180025698     LIBCMT:thread_safe_statics.obj
 0002:000026b8       ??_C@_0BJ@JEBJOJFJ@SleepConditionVariableCS@ 00000001800256b8     LIBCMT:thread_safe_statics.obj
 0002:000026d8       ??_C@_0BJ@PGPPEPCC@WakeAllConditionVariable@ 00000001800256d8     LIBCMT:thread_safe_statics.obj
 0002:000026f1       ?nothrow@std@@3Unothrow_t@1@B 00000001800256f1     LIBCMT:std_nothrow.obj
 0002:00002708       _pRawDllMain               0000000180025708     LIBCMT:dll_dllmain.obj
 0002:00002708       _pDefaultRawDllMain        0000000180025708     LIBCMT:dll_dllmain.obj
 0002:00002718       ??_7exception@std@@6B@     0000000180025718     LIBCMT:throw_bad_alloc.obj
 0002:00002728       ??_C@_0BC@EOODALEL@Unknown?5exception@ 0000000180025728     LIBCMT:throw_bad_alloc.obj
 0002:00002748       ??_7bad_alloc@std@@6B@     0000000180025748     LIBCMT:throw_bad_alloc.obj
 0002:00002758       ??_C@_0P@GHFPNOJB@bad?5allocation@ 0000000180025758     LIBCMT:throw_bad_alloc.obj
 0002:00002770       ??_7bad_array_new_length@std@@6B@ 0000000180025770     LIBCMT:throw_bad_alloc.obj
 0002:00002780       ??_C@_0BF@KINCDENJ@bad?5array?5new?5length@ 0000000180025780     LIBCMT:throw_bad_alloc.obj
 0002:000027a0       ??_7type_info@@6B@         00000001800257a0     LIBCMT:std_type_info_static.obj
 0002:000027a8       GUID_ATLVer110             00000001800257a8     atls:atlbase.obj
 0002:000027c0       ??_C@_1IC@ONKHOIDK@?$AAE?$AAR?$AAR?$AAO?$AAR?$AA?5?$AA?3?$AA?5?$AAU?$AAn?$AAa?$AAb?$AAl?$AAe?$AA?5@ 00000001800257c0     atls:atlbase.obj
 0002:00002848       ??_C@_0N@FJEPLCIH@atlthunk?4dll@ 0000000180025848     atls:atlthunk.obj
 0002:00002858       ??_C@_0BG@GAKFHCBM@AtlThunk_AllocateData@ 0000000180025858     atls:atlthunk.obj
 0002:00002870       ??_C@_0BC@JKONFIAH@AtlThunk_InitData@ 0000000180025870     atls:atlthunk.obj
 0002:00002888       ??_C@_0BE@IAOEELAK@AtlThunk_DataToCode@ 0000000180025888     atls:atlthunk.obj
 0002:000028a0       ??_C@_0BC@GBGKAIPI@AtlThunk_FreeData@ 00000001800258a0     atls:atlthunk.obj
 0002:000028b8       ?s_negLengthTab@FH4@@3QBCB 00000001800258b8     libvcruntime:risctrnsctrl.obj
 0002:000028c8       ?s_shiftTab@FH4@@3QBEB     00000001800258c8     libvcruntime:risctrnsctrl.obj
 0002:00002978       _pDestructExceptionObject  0000000180025978     libvcruntime:ehhelpers.obj
 0002:00002988       ??_7bad_exception@std@@6B@ 0000000180025988     libvcruntime:frame.obj
 0002:00002998       ??_C@_0O@DPKOEFFH@bad?5exception@ 0000000180025998     libvcruntime:frame.obj
 0002:000030b0       ??_C@_08EHJDFFNH@__based?$CI@ 00000001800260b0     libvcruntime:undname.obj
 0002:000030c0       ??_C@_07KOLFKCDI@__cdecl@  00000001800260c0     libvcruntime:undname.obj
 0002:000030c8       ??_C@_08GHMPAG@__pascal@   00000001800260c8     libvcruntime:undname.obj
 0002:000030d8       ??_C@_09IFJBGAPI@__stdcall@ 00000001800260d8     libvcruntime:undname.obj
 0002:000030e8       ??_C@_0L@NPHFGOKO@__thiscall@ 00000001800260e8     libvcruntime:undname.obj
 0002:000030f8       ??_C@_0L@JMKHOMEK@__fastcall@ 00000001800260f8     libvcruntime:undname.obj
 0002:00003108       ??_C@_0N@BCKKPABJ@__vectorcall@ 0000000180026108     libvcruntime:undname.obj
 0002:00003118       ??_C@_09HIJEGCPM@__clrcall@ 0000000180026118     libvcruntime:undname.obj
 0002:00003124       ??_C@_06GHPCKEAG@__eabi@   0000000180026124     libvcruntime:undname.obj
 0002:00003130       ??_C@_09IOPIDJLG@__swift_1@ 0000000180026130     libvcruntime:undname.obj
 0002:00003140       ??_C@_09KFNFGKHF@__swift_2@ 0000000180026140     libvcruntime:undname.obj
 0002:00003150       ??_C@_07JOMMBBKO@__ptr64@  0000000180026150     libvcruntime:undname.obj
 0002:00003158       ??_C@_0L@PILCLIHE@__restrict@ 0000000180026158     libvcruntime:undname.obj
 0002:00003168       ??_C@_0M@GFIIJFMG@__unaligned@ 0000000180026168     libvcruntime:undname.obj
 0002:00003178       ??_C@_09DHDLOLLB@restrict?$CI@ 0000000180026178     libvcruntime:undname.obj
 0002:00003182       ??_C@_00CNPNBAHC@@         0000000180026182     libvcruntime:undname.obj
 0002:00003184       ??_C@_04NIHEBCM@?5new@     0000000180026184     libvcruntime:undname.obj
 0002:00003190       ??_C@_07FPCDHGMM@?5delete@ 0000000180026190     libvcruntime:undname.obj
 0002:00003198       ??_C@_01NEMOKFLO@?$DN@     0000000180026198     libvcruntime:undname.obj
 0002:0000319c       ??_C@_02GPIOPFAK@?$DO?$DO@ 000000018002619c     libvcruntime:undname.obj
 0002:000031a0       ??_C@_02FODMEDOG@?$DM?$DM@ 00000001800261a0     libvcruntime:undname.obj
 0002:000031a4       ??_C@_01DCLJPIOD@?$CB@     00000001800261a4     libvcruntime:undname.obj
 0002:000031a8       ??_C@_02EGOFBIJA@?$DN?$DN@ 00000001800261a8     libvcruntime:undname.obj
 0002:000031ac       ??_C@_02FDNJECIE@?$CB?$DN@ 00000001800261ac     libvcruntime:undname.obj
 0002:000031b0       ??_C@_02GPECMEKF@?$FL?$FN@ 00000001800261b0     libvcruntime:undname.obj
 0002:000031b8       ??_C@_08LHJFAFGD@operator@ 00000001800261b8     libvcruntime:undname.obj
 0002:000031c4       ??_C@_02HBOOOICD@?9?$DO@   00000001800261c4     libvcruntime:undname.obj
 0002:000031c8       ??_C@_01NBENCBCI@?$CK@     00000001800261c8     libvcruntime:undname.obj
 0002:000031cc       ??_C@_02ECNGHCIF@?$CL?$CL@ 00000001800261cc     libvcruntime:undname.obj
 0002:000031d0       ??_C@_02BAABKJLB@?9?9@     00000001800261d0     libvcruntime:undname.obj
 0002:000031d4       ??_C@_01JOAMLHOP@?9@       00000001800261d4     libvcruntime:undname.obj
 0002:000031d8       ??_C@_01MIFGBAGJ@?$CL@     00000001800261d8     libvcruntime:undname.obj
 0002:000031dc       ??_C@_01HNPIGOCE@?$CG@     00000001800261dc     libvcruntime:undname.obj
 0002:000031e0       ??_C@_03MNHNFDLC@?9?$DO?$CK@ 00000001800261e0     libvcruntime:undname.obj
 0002:000031e4       ??_C@_01KMDKNFGN@?1@       00000001800261e4     libvcruntime:undname.obj
 0002:000031e8       ??_C@_01FGNFDNOH@?$CF@     00000001800261e8     libvcruntime:undname.obj
 0002:000031ec       ??_C@_01MNNFJEPP@?$DM@     00000001800261ec     libvcruntime:undname.obj
 0002:000031f0       ??_C@_02EHCHHCKH@?$DM?$DN@ 00000001800261f0     libvcruntime:undname.obj
 0002:000031f4       ??_C@_01PPODPGHN@?$DO@     00000001800261f4     libvcruntime:undname.obj
 0002:000031f8       ??_C@_02EEKDKGMJ@?$DO?$DN@ 00000001800261f8     libvcruntime:undname.obj
 0002:000031fc       ??_C@_01IHBHIGKO@?0@       00000001800261fc     libvcruntime:undname.obj
 0002:00003200       ??_C@_02HCKGKOFO@?$CI?$CJ@ 0000000180026200     libvcruntime:undname.obj
 0002:00003204       ??_C@_01PJKLJHI@?$HO@      0000000180026204     libvcruntime:undname.obj
 0002:00003208       ??_C@_01JKBOJNNK@?$FO@     0000000180026208     libvcruntime:undname.obj
 0002:0000320c       ??_C@_01DNKMNLPK@?$HM@     000000018002620c     libvcruntime:undname.obj
 0002:00003210       ??_C@_02PPKAJPJL@?$CG?$CG@ 0000000180026210     libvcruntime:undname.obj
 0002:00003214       ??_C@_02NONPIBCD@?$HM?$HM@ 0000000180026214     libvcruntime:undname.obj
 0002:00003218       ??_C@_02FPIMKNGF@?$CK?$DN@ 0000000180026218     libvcruntime:undname.obj
 0002:0000321c       ??_C@_02FOEOMHFC@?$CL?$DN@ 000000018002621c     libvcruntime:undname.obj
 0002:00003220       ??_C@_02FKMDLLOA@?9?$DN@   0000000180026220     libvcruntime:undname.obj
 0002:00003224       ??_C@_02FJEHGPIO@?1?$DN@   0000000180026224     libvcruntime:undname.obj
 0002:00003228       ??_C@_02FENAOKFI@?$CF?$DN@ 0000000180026228     libvcruntime:undname.obj
 0002:0000322c       ??_C@_03IKFCCPFF@?$DO?$DO?$DN@ 000000018002622c     libvcruntime:undname.obj
 0002:00003230       ??_C@_03CDNPDDLA@?$DM?$DM?$DN@ 0000000180026230     libvcruntime:undname.obj
 0002:00003234       ??_C@_02FGJGFEAB@?$CG?$DN@ 0000000180026234     libvcruntime:undname.obj
 0002:00003238       ??_C@_02DHLNPPGH@?$HM?$DN@ 0000000180026238     libvcruntime:undname.obj
 0002:0000323c       ??_C@_02MHEGNOJ@?$FO?$DN@  000000018002623c     libvcruntime:undname.obj
 0002:00003240       ??_C@_09IFPLHPGF@?$GAvftable?8@ 0000000180026240     libvcruntime:undname.obj
 0002:00003250       ??_C@_09BLBHBJP@?$GAvbtable?8@ 0000000180026250     libvcruntime:undname.obj
 0002:00003260       ??_C@_07FEEIOKP@?$GAvcall?8@ 0000000180026260     libvcruntime:undname.obj
 0002:00003268       ??_C@_08LLFFHHDJ@?$GAtypeof?8@ 0000000180026268     libvcruntime:undname.obj
 0002:00003278       ??_C@_0BF@KDPPACIK@?$GAlocal?5static?5guard?8@ 0000000180026278     libvcruntime:undname.obj
 0002:00003290       ??_C@_08OBABFOLI@?$GAstring?8@ 0000000180026290     libvcruntime:undname.obj
 0002:000032a0       ??_C@_0BD@JDLKDPAB@?$GAvbase?5destructor?8@ 00000001800262a0     libvcruntime:undname.obj
 0002:000032b8       ??_C@_0BN@DEGPLNFK@?$GAvector?5deleting?5destructor?8@ 00000001800262b8     libvcruntime:undname.obj
 0002:000032d8       ??_C@_0BO@OBMKPJIG@?$GAdefault?5constructor?5closure?8@ 00000001800262d8     libvcruntime:undname.obj
 0002:000032f8       ??_C@_0BN@IMDCHIKM@?$GAscalar?5deleting?5destructor?8@ 00000001800262f8     libvcruntime:undname.obj
 0002:00003318       ??_C@_0BO@PFGOCPJJ@?$GAvector?5constructor?5iterator?8@ 0000000180026318     libvcruntime:undname.obj
 0002:00003338       ??_C@_0BN@LFPFMEDL@?$GAvector?5destructor?5iterator?8@ 0000000180026338     libvcruntime:undname.obj
 0002:00003358       ??_C@_0CE@IKBNEHA@?$GAvector?5vbase?5constructor?5itera@ 0000000180026358     libvcruntime:undname.obj
 0002:00003380       ??_C@_0BL@NILFHHPC@?$GAvirtual?5displacement?5map?8@ 0000000180026380     libvcruntime:undname.obj
 0002:000033a0       ??_C@_0CB@JONCMFFK@?$GAeh?5vector?5constructor?5iterator@ 00000001800263a0     libvcruntime:undname.obj
 0002:000033c8       ??_C@_0CA@GCEOPDGL@?$GAeh?5vector?5destructor?5iterator?8@ 00000001800263c8     libvcruntime:undname.obj
 0002:000033e8       ??_C@_0CH@OOJPLCPH@?$GAeh?5vector?5vbase?5constructor?5it@ 00000001800263e8     libvcruntime:undname.obj
 0002:00003410       ??_C@_0BL@LLKPOHJI@?$GAcopy?5constructor?5closure?8@ 0000000180026410     libvcruntime:undname.obj
 0002:00003430       ??_C@_0BA@KBCDOMBN@?$GAudt?5returning?8@ 0000000180026430     libvcruntime:undname.obj
 0002:00003440       ??_C@_03KLGMFNMG@?$GAEH@   0000000180026440     libvcruntime:undname.obj
 0002:00003444       ??_C@_05KHLCHHI@?$GARTTI@  0000000180026444     libvcruntime:undname.obj
 0002:00003450       ??_C@_0BA@KKLDJDLB@?$GAlocal?5vftable?8@ 0000000180026450     libvcruntime:undname.obj
 0002:00003460       ??_C@_0CE@IIHCMGGL@?$GAlocal?5vftable?5constructor?5clos@ 0000000180026460     libvcruntime:undname.obj
 0002:00003484       ??_C@_06FHBGPFGH@?5new?$FL?$FN@ 0000000180026484     libvcruntime:undname.obj
 0002:00003490       ??_C@_09LBNFPBCA@?5delete?$FL?$FN@ 0000000180026490     libvcruntime:undname.obj
 0002:000034a0       ??_C@_0P@HJKNJFNN@?$GAomni?5callsig?8@ 00000001800264a0     libvcruntime:undname.obj
 0002:000034b0       ??_C@_0BL@CNOONJFP@?$GAplacement?5delete?5closure?8@ 00000001800264b0     libvcruntime:undname.obj
 0002:000034d0       ??_C@_0BN@CKNJLHMB@?$GAplacement?5delete?$FL?$FN?5closure?8@ 00000001800264d0     libvcruntime:undname.obj
 0002:000034f0       ??_C@_0CG@CFDHKGGD@?$GAmanaged?5vector?5constructor?5ite@ 00000001800264f0     libvcruntime:undname.obj
 0002:00003518       ??_C@_0CF@IMGKMJNO@?$GAmanaged?5vector?5destructor?5iter@ 0000000180026518     libvcruntime:undname.obj
 0002:00003540       ??_C@_0CG@HLDDJMAG@?$GAeh?5vector?5copy?5constructor?5ite@ 0000000180026540     libvcruntime:undname.obj
 0002:00003568       ??_C@_0CM@FCBBDIGB@?$GAeh?5vector?5vbase?5copy?5construct@ 0000000180026568     libvcruntime:undname.obj
 0002:00003598       ??_C@_0BL@CLIPGLGB@?$GAdynamic?5initializer?5for?5?8@ 0000000180026598     libvcruntime:undname.obj
 0002:000035b8       ??_C@_0CB@PDBIFEP@?$GAdynamic?5atexit?5destructor?5for?5@ 00000001800265b8     libvcruntime:undname.obj
 0002:000035e0       ??_C@_0CD@CGAJBKEJ@?$GAvector?5copy?5constructor?5iterat@ 00000001800265e0     libvcruntime:undname.obj
 0002:00003608       ??_C@_0CJ@GJELGAMM@?$GAvector?5vbase?5copy?5constructor?5@ 0000000180026608     libvcruntime:undname.obj
 0002:00003638       ??_C@_0CL@FGIJHLCE@?$GAmanaged?5vector?5copy?5constructo@ 0000000180026638     libvcruntime:undname.obj
 0002:00003668       ??_C@_0BM@PMGGMLDN@?$GAlocal?5static?5thread?5guard?8@ 0000000180026668     libvcruntime:undname.obj
 0002:00003688       ??_C@_0N@BDNMDMOL@operator?5?$CC?$CC?5@ 0000000180026688     libvcruntime:undname.obj
 0002:00003698       ??_C@_0BC@GGEBGALA@operator?5co_await@ 0000000180026698     libvcruntime:undname.obj
 0002:000036b0       ??_C@_0M@GAAIMMOH@operator?$DM?$DN?$DO@ 00000001800266b0     libvcruntime:undname.obj
 0002:000036c0       ??_C@_0BC@DAFEJGAK@?5Type?5Descriptor?8@ 00000001800266c0     libvcruntime:undname.obj
 0002:000036d8       ??_C@_0BM@LDKODKLH@?5Base?5Class?5Descriptor?5at?5?$CI@ 00000001800266d8     libvcruntime:undname.obj
 0002:000036f8       ??_C@_0BD@LGICGFMM@?5Base?5Class?5Array?8@ 00000001800266f8     libvcruntime:undname.obj
 0002:00003710       ??_C@_0BN@MECKDCOJ@?5Class?5Hierarchy?5Descriptor?8@ 0000000180026710     libvcruntime:undname.obj
 0002:00003730       ??_C@_0BK@CFCOFLF@?5Complete?5Object?5Locator?8@ 0000000180026730     libvcruntime:undname.obj
 0002:00003750       ??_C@_0BG@JNJLAMPM@?$GAanonymous?5namespace?8@ 0000000180026750     libvcruntime:undname.obj
 0002:00003780       ??_C@_1DM@KHCHBNEB@?$AAa?$AAp?$AAi?$AA?9?$AAm?$AAs?$AA?9?$AAw?$AAi?$AAn?$AA?9?$AAc?$AAo?$AAr?$AAe@ 0000000180026780     libvcruntime:winapi_downlevel.obj
 0002:000037c0       ??_C@_1DK@LPPGFMPP@?$AAa?$AAp?$AAi?$AA?9?$AAm?$AAs?$AA?9?$AAw?$AAi?$AAn?$AA?9?$AAc?$AAo?$AAr?$AAe@ 00000001800267c0     libvcruntime:winapi_downlevel.obj
 0002:00003800       ??_C@_1BC@GDMECMAK@?$AAk?$AAe?$AAr?$AAn?$AAe?$AAl?$AA3?$AA2@ 0000000180026800     libvcruntime:winapi_downlevel.obj
 0002:00003818       ??_C@_1BA@PFFKHIOG@?$AAa?$AAp?$AAi?$AA?9?$AAm?$AAs?$AA?9@ 0000000180026818     libvcruntime:winapi_downlevel.obj
 0002:00003830       ??_C@_08KNHFBNJ@FlsAlloc@  0000000180026830     libvcruntime:winapi_downlevel.obj
 0002:00003848       ??_C@_07PEJMOBNF@FlsFree@  0000000180026848     libvcruntime:winapi_downlevel.obj
 0002:00003858       ??_C@_0M@GDNOONDI@FlsGetValue@ 0000000180026858     libvcruntime:winapi_downlevel.obj
 0002:00003870       ??_C@_0M@JCPCPOEF@FlsSetValue@ 0000000180026870     libvcruntime:winapi_downlevel.obj
 0002:00003888       ??_C@_0BM@HCFOFFN@InitializeCriticalSectionEx@ 0000000180026888     libvcruntime:winapi_downlevel.obj
 0002:00003a20       ?format_validation_lookup_table_spectre@__crt_stdio_output@@3V?$spectre_mitigated_lookup_table@Ustate_transition_pair@__crt_stdio_output@@$0IA@@1@B 0000000180026a20     libucrt:output.obj
 0002:00003e20       ??_C@_1O@CEDCILHN@?$AA?$CI?$AAn?$AAu?$AAl?$AAl?$AA?$CJ@ 0000000180026e20     libucrt:output.obj
 0002:00003e30       ??_C@_06OJHGLDPL@?$CInull?$CJ@ 0000000180026e30     libucrt:output.obj
 0002:00003e40       __acrt_exception_action_table 0000000180026e40     libucrt:exception_filter.obj
 0002:00003f00       __acrt_signal_action_table_count 0000000180026f00     libucrt:exception_filter.obj
 0002:00003f08       __acrt_signal_action_first_fpe_index 0000000180026f08     libucrt:exception_filter.obj
 0002:00003f10       __acrt_signal_action_fpe_count 0000000180026f10     libucrt:exception_filter.obj
 0002:00003f18       ??_C@_1BI@BGOHAHKC@?$AAm?$AAs?$AAc?$AAo?$AAr?$AAe?$AAe?$AA?4?$AAd?$AAl?$AAl@ 0000000180026f18     libucrt:exit.obj
 0002:00003f30       ??_C@_0P@MIGLKIOC@CorExitProcess@ 0000000180026f30     libucrt:exit.obj
 0002:000040e0       ??_C@_1EA@JGEFHKEI@?$AAa?$AAp?$AAi?$AA?9?$AAm?$AAs?$AA?9?$AAw?$AAi?$AAn?$AA?9?$AAc?$AAo?$AAr?$AAe@ 00000001800270e0     libucrt:winapi_thunks.obj
 0002:00004120       ??_C@_1DI@IJCEHOCB@?$AAa?$AAp?$AAi?$AA?9?$AAm?$AAs?$AA?9?$AAw?$AAi?$AAn?$AA?9?$AAc?$AAo?$AAr?$AAe@ 0000000180027120     libucrt:winapi_thunks.obj
 0002:00004160       ??_C@_1EI@MPIAOHOC@?$AAa?$AAp?$AAi?$AA?9?$AAm?$AAs?$AA?9?$AAw?$AAi?$AAn?$AA?9?$AAc?$AAo?$AAr?$AAe@ 0000000180027160     libucrt:winapi_thunks.obj
 0002:000041b0       ??_C@_1FK@FPHCKFIE@?$AAa?$AAp?$AAi?$AA?9?$AAm?$AAs?$AA?9?$AAw?$AAi?$AAn?$AA?9?$AAc?$AAo?$AAr?$AAe@ 00000001800271b0     libucrt:winapi_thunks.obj
 0002:00004210       ??_C@_1EM@DILCGIIO@?$AAa?$AAp?$AAi?$AA?9?$AAm?$AAs?$AA?9?$AAw?$AAi?$AAn?$AA?9?$AAc?$AAo?$AAr?$AAe@ 0000000180027210     libucrt:winapi_thunks.obj
 0002:00004260       ??_C@_1DM@LNCGDDPN@?$AAa?$AAp?$AAi?$AA?9?$AAm?$AAs?$AA?9?$AAw?$AAi?$AAn?$AA?9?$AAc?$AAo?$AAr?$AAe@ 0000000180027260     libucrt:winapi_thunks.obj
 0002:000042a0       ??_C@_1DO@FPAPJEMD@?$AAa?$AAp?$AAi?$AA?9?$AAm?$AAs?$AA?9?$AAw?$AAi?$AAn?$AA?9?$AAc?$AAo?$AAr?$AAe@ 00000001800272a0     libucrt:winapi_thunks.obj
 0002:000042e0       ??_C@_1DK@NDHNAHIO@?$AAa?$AAp?$AAi?$AA?9?$AAm?$AAs?$AA?9?$AAw?$AAi?$AAn?$AA?9?$AAc?$AAo?$AAr?$AAe@ 00000001800272e0     libucrt:winapi_thunks.obj
 0002:00004320       ??_C@_1DM@KGHDGBCM@?$AAa?$AAp?$AAi?$AA?9?$AAm?$AAs?$AA?9?$AAw?$AAi?$AAn?$AA?9?$AAc?$AAo?$AAr?$AAe@ 0000000180027320     libucrt:winapi_thunks.obj
 0002:00004360       ??_C@_1EO@IJIOEFOH@?$AAa?$AAp?$AAi?$AA?9?$AAm?$AAs?$AA?9?$AAw?$AAi?$AAn?$AA?9?$AAr?$AAt?$AAc?$AAo@ 0000000180027360     libucrt:winapi_thunks.obj
 0002:000043b0       ??_C@_1FG@HHGEKANL@?$AAa?$AAp?$AAi?$AA?9?$AAm?$AAs?$AA?9?$AAw?$AAi?$AAn?$AA?9?$AAs?$AAe?$AAc?$AAu@ 00000001800273b0     libucrt:winapi_thunks.obj
 0002:00004410       ??_C@_1EG@DBIOJECG@?$AAe?$AAx?$AAt?$AA?9?$AAm?$AAs?$AA?9?$AAw?$AAi?$AAn?$AA?9?$AAn?$AAt?$AAu?$AAs@ 0000000180027410     libucrt:winapi_thunks.obj
 0002:00004460       ??_C@_1EO@FIHMJCLF@?$AAe?$AAx?$AAt?$AA?9?$AAm?$AAs?$AA?9?$AAw?$AAi?$AAn?$AA?9?$AAn?$AAt?$AAu?$AAs@ 0000000180027460     libucrt:winapi_thunks.obj
 0002:000044b0       ??_C@_1BC@DNHGCMLG@?$AAa?$AAd?$AAv?$AAa?$AAp?$AAi?$AA3?$AA2@ 00000001800274b0     libucrt:winapi_thunks.obj
 0002:000044c8       ??_C@_1M@OAIMIKLP@?$AAn?$AAt?$AAd?$AAl?$AAl@ 00000001800274c8     libucrt:winapi_thunks.obj
 0002:000044e0       ??_C@_1EG@DPGNFKGC@?$AAa?$AAp?$AAi?$AA?9?$AAm?$AAs?$AA?9?$AAw?$AAi?$AAn?$AA?9?$AAa?$AAp?$AAp?$AAm@ 00000001800274e0     libucrt:winapi_thunks.obj
 0002:00004528       ??_C@_1O@BCCLBEOE@?$AAu?$AAs?$AAe?$AAr?$AA3?$AA2@ 0000000180027528     libucrt:winapi_thunks.obj
 0002:00004538       ??_C@_1BA@IAIFMGEF@?$AAe?$AAx?$AAt?$AA?9?$AAm?$AAs?$AA?9@ 0000000180027538     libucrt:winapi_thunks.obj
 0002:00004550       ??_C@_0BA@FHFNEAED@AreFileApisANSI@ 0000000180027550     libucrt:winapi_thunks.obj
 0002:00004590       ??_C@_0O@KKBNKAPF@LCMapStringEx@ 0000000180027590     libucrt:winapi_thunks.obj
 0002:000045a8       ??_C@_0BB@HBDEELFH@LocaleNameToLCID@ 00000001800275a8     libucrt:winapi_thunks.obj
 0002:000045c0       ??_C@_0CF@OJOFEIGO@AppPolicyGetProcessTerminationM@ 00000001800275c0     libucrt:winapi_thunks.obj
 0002:000045f0       ??_C@_0BI@BKLFFAPO@SetThreadStackGuarantee@ 00000001800275f0     libucrt:winapi_thunks.obj
 0002:00004690       ??_C@_03OEIAHPBN@INF@      0000000180027690     libucrt:cvt.obj
 0002:00004694       ??_C@_03OJHLLCGB@inf@      0000000180027694     libucrt:cvt.obj
 0002:00004698       ??_C@_03LKNCIKJB@NAN@      0000000180027698     libucrt:cvt.obj
 0002:0000469c       ??_C@_03LHCJEHON@nan@      000000018002769c     libucrt:cvt.obj
 0002:000046a0       ??_C@_09OFJJIMPC@NAN?$CISNAN?$CJ@ 00000001800276a0     libucrt:cvt.obj
 0002:000046b0       ??_C@_09IPFBKMDL@nan?$CIsnan?$CJ@ 00000001800276b0     libucrt:cvt.obj
 0002:000046c0       ??_C@_08IKHNHAJ@NAN?$CIIND?$CJ@ 00000001800276c0     libucrt:cvt.obj
 0002:000046d0       ??_C@_08OFCDMILK@nan?$CIind?$CJ@ 00000001800276d0     libucrt:cvt.obj
 0002:000046dc       ??_C@_05KLBDPFGC@e?$CL000@ 00000001800276dc     libucrt:cvt.obj
 0002:000046f0       __lc_time_c                00000001800276f0     libucrt:nlsdata.obj
 0002:000049b0       ??_C@_03KOEHGMDN@Sun@      00000001800279b0     libucrt:nlsdata.obj
 0002:000049b4       ??_C@_03PDAGKDH@Mon@       00000001800279b4     libucrt:nlsdata.obj
 0002:000049b8       ??_C@_03NAGEINEP@Tue@      00000001800279b8     libucrt:nlsdata.obj
 0002:000049bc       ??_C@_03MHOMLAJA@Wed@      00000001800279bc     libucrt:nlsdata.obj
 0002:000049c0       ??_C@_03IOFIKPDN@Thu@      00000001800279c0     libucrt:nlsdata.obj
 0002:000049c4       ??_C@_03IDIOELNC@Fri@      00000001800279c4     libucrt:nlsdata.obj
 0002:000049c8       ??_C@_03FEFJNEK@Sat@       00000001800279c8     libucrt:nlsdata.obj
 0002:000049cc       ??_C@_06OOPIFAJ@Sunday@    00000001800279cc     libucrt:nlsdata.obj
 0002:000049d4       ??_C@_06JLEDEDGH@Monday@   00000001800279d4     libucrt:nlsdata.obj
 0002:000049e0       ??_C@_07BAAGCFCM@Tuesday@  00000001800279e0     libucrt:nlsdata.obj
 0002:000049e8       ??_C@_09DLIGFAKA@Wednesday@ 00000001800279e8     libucrt:nlsdata.obj
 0002:000049f8       ??_C@_08HACCIKIA@Thursday@ 00000001800279f8     libucrt:nlsdata.obj
 0002:00004a04       ??_C@_06JECMNKMI@Friday@   0000000180027a04     libucrt:nlsdata.obj
 0002:00004a10       ??_C@_08INBOOONO@Saturday@ 0000000180027a10     libucrt:nlsdata.obj
 0002:00004a1c       ??_C@_03JIHJHPIE@Jan@      0000000180027a1c     libucrt:nlsdata.obj
 0002:00004a20       ??_C@_03HJBDCHOM@Feb@      0000000180027a20     libucrt:nlsdata.obj
 0002:00004a24       ??_C@_03ODNJBKGA@Mar@      0000000180027a24     libucrt:nlsdata.obj
 0002:00004a28       ??_C@_03LEOLGMJP@Apr@      0000000180027a28     libucrt:nlsdata.obj
 0002:00004a2c       ??_C@_03CNMDKL@May@        0000000180027a2c     libucrt:nlsdata.obj
 0002:00004a30       ??_C@_03IDFGHECI@Jun@      0000000180027a30     libucrt:nlsdata.obj
 0002:00004a34       ??_C@_03LBGABGKK@Jul@      0000000180027a34     libucrt:nlsdata.obj
 0002:00004a38       ??_C@_03IFJFEIGA@Aug@      0000000180027a38     libucrt:nlsdata.obj
 0002:00004a3c       ??_C@_03GGCAPAJC@Sep@      0000000180027a3c     libucrt:nlsdata.obj
 0002:00004a40       ??_C@_03BMAOKBAD@Oct@      0000000180027a40     libucrt:nlsdata.obj
 0002:00004a44       ??_C@_03JPJOFNIA@Nov@      0000000180027a44     libucrt:nlsdata.obj
 0002:00004a48       ??_C@_03MKABNOCG@Dec@      0000000180027a48     libucrt:nlsdata.obj
 0002:00004a50       ??_C@_07CGJPFGJA@January@  0000000180027a50     libucrt:nlsdata.obj
 0002:00004a58       ??_C@_08GNJGEPFN@February@ 0000000180027a58     libucrt:nlsdata.obj
 0002:00004a64       ??_C@_05HPCKOFNC@March@    0000000180027a64     libucrt:nlsdata.obj
 0002:00004a6c       ??_C@_05DMJDNLEJ@April@    0000000180027a6c     libucrt:nlsdata.obj
 0002:00004a74       ??_C@_04CNLMGBGM@June@     0000000180027a74     libucrt:nlsdata.obj
 0002:00004a7c       ??_C@_04MIEPOIFP@July@     0000000180027a7c     libucrt:nlsdata.obj
 0002:00004a84       ??_C@_06LBBHFDDG@August@   0000000180027a84     libucrt:nlsdata.obj
 0002:00004a90       ??_C@_09BHHEALKD@September@ 0000000180027a90     libucrt:nlsdata.obj
 0002:00004aa0       ??_C@_07JJNFCEND@October@  0000000180027aa0     libucrt:nlsdata.obj
 0002:00004aa8       ??_C@_08HCHEGEOA@November@ 0000000180027aa8     libucrt:nlsdata.obj
 0002:00004ab8       ??_C@_08EDHMEBNP@December@ 0000000180027ab8     libucrt:nlsdata.obj
 0002:00004ac4       ??_C@_02DEDBPAFC@AM@       0000000180027ac4     libucrt:nlsdata.obj
 0002:00004ac8       ??_C@_02CJNFDJBF@PM@       0000000180027ac8     libucrt:nlsdata.obj
 0002:00004ad0       ??_C@_08BPBNCDIB@MM?1dd?1yy@ 0000000180027ad0     libucrt:nlsdata.obj
 0002:00004ae0       ??_C@_0BE@CKGJFCPC@dddd?0?5MMMM?5dd?0?5yyyy@ 0000000180027ae0     libucrt:nlsdata.obj
 0002:00004af8       ??_C@_08JCCMCCIL@HH?3mm?3ss@ 0000000180027af8     libucrt:nlsdata.obj
 0002:00004b08       ??_C@_17MBGCMIPB@?$AAS?$AAu?$AAn@ 0000000180027b08     libucrt:nlsdata.obj
 0002:00004b10       ??_C@_17KBOMKBF@?$AAM?$AAo?$AAn@ 0000000180027b10     libucrt:nlsdata.obj
 0002:00004b18       ??_C@_17BMKGEGOJ@?$AAT?$AAu?$AAe@ 0000000180027b18     libucrt:nlsdata.obj
 0002:00004b20       ??_C@_17CJEDCEPE@?$AAW?$AAe?$AAd@ 0000000180027b20     libucrt:nlsdata.obj
 0002:00004b28       ??_C@_17PDPHAADD@?$AAT?$AAh?$AAu@ 0000000180027b28     libucrt:nlsdata.obj
 0002:00004b30       ??_C@_17HFOLPPLP@?$AAF?$AAr?$AAi@ 0000000180027b30     libucrt:nlsdata.obj
 0002:00004b38       ??_C@_17GGIBDPIH@?$AAS?$AAa?$AAt@ 0000000180027b38     libucrt:nlsdata.obj
 0002:00004b40       ??_C@_1O@IHNHDHPB@?$AAS?$AAu?$AAn?$AAd?$AAa?$AAy@ 0000000180027b40     libucrt:nlsdata.obj
 0002:00004b50       ??_C@_1O@MMNBFLIA@?$AAM?$AAo?$AAn?$AAd?$AAa?$AAy@ 0000000180027b50     libucrt:nlsdata.obj
 0002:00004b60       ??_C@_1BA@ENFBFFEK@?$AAT?$AAu?$AAe?$AAs?$AAd?$AAa?$AAy@ 0000000180027b60     libucrt:nlsdata.obj
 0002:00004b70       ??_C@_1BE@EBOGMDOH@?$AAW?$AAe?$AAd?$AAn?$AAe?$AAs?$AAd?$AAa?$AAy@ 0000000180027b70     libucrt:nlsdata.obj
 0002:00004b88       ??_C@_1BC@HHMNLIHE@?$AAT?$AAh?$AAu?$AAr?$AAs?$AAd?$AAa?$AAy@ 0000000180027b88     libucrt:nlsdata.obj
 0002:00004ba0       ??_C@_1O@PDICJHAG@?$AAF?$AAr?$AAi?$AAd?$AAa?$AAy@ 0000000180027ba0     libucrt:nlsdata.obj
 0002:00004bb0       ??_C@_1BC@ENMNNPAJ@?$AAS?$AAa?$AAt?$AAu?$AAr?$AAd?$AAa?$AAy@ 0000000180027bb0     libucrt:nlsdata.obj
 0002:00004bc8       ??_C@_17DKNBKCHM@?$AAJ?$AAa?$AAn@ 0000000180027bc8     libucrt:nlsdata.obj
 0002:00004bd0       ??_C@_17LMDJEKJN@?$AAF?$AAe?$AAb@ 0000000180027bd0     libucrt:nlsdata.obj
 0002:00004bd8       ??_C@_17CKNLEDEC@?$AAM?$AAa?$AAr@ 0000000180027bd8     libucrt:nlsdata.obj
 0002:00004be0       ??_C@_17LFPOIHDD@?$AAA?$AAp?$AAr@ 0000000180027be0     libucrt:nlsdata.obj
 0002:00004be8       ??_C@_17PNNKMEED@?$AAM?$AAa?$AAy@ 0000000180027be8     libucrt:nlsdata.obj
 0002:00004bf0       ??_C@_17KCJGOCPB@?$AAJ?$AAu?$AAn@ 0000000180027bf0     libucrt:nlsdata.obj
 0002:00004bf8       ??_C@_17IJPCKHK@?$AAJ?$AAu?$AAl@ 0000000180027bf8     libucrt:nlsdata.obj
 0002:00004c00       ??_C@_17ICPELBCN@?$AAA?$AAu?$AAg@ 0000000180027c00     libucrt:nlsdata.obj
 0002:00004c08       ??_C@_17HCHCOKMG@?$AAS?$AAe?$AAp@ 0000000180027c08     libucrt:nlsdata.obj
 0002:00004c10       ??_C@_17FNLKOI@?$AAO?$AAc?$AAt@ 0000000180027c10     libucrt:nlsdata.obj
 0002:00004c18       ??_C@_17BBDMLCIG@?$AAN?$AAo?$AAv@ 0000000180027c18     libucrt:nlsdata.obj
 0002:00004c20       ??_C@_17EGKACKIF@?$AAD?$AAe?$AAc@ 0000000180027c20     libucrt:nlsdata.obj
 0002:00004c28       ??_C@_1BA@EFMEIEBA@?$AAJ?$AAa?$AAn?$AAu?$AAa?$AAr?$AAy@ 0000000180027c28     libucrt:nlsdata.obj
 0002:00004c38       ??_C@_1BC@JGDDFFAM@?$AAF?$AAe?$AAb?$AAr?$AAu?$AAa?$AAr?$AAy@ 0000000180027c38     libucrt:nlsdata.obj
 0002:00004c50       ??_C@_1M@IKEENEDF@?$AAM?$AAa?$AAr?$AAc?$AAh@ 0000000180027c50     libucrt:nlsdata.obj
 0002:00004c60       ??_C@_1M@GJNLMHFD@?$AAA?$AAp?$AAr?$AAi?$AAl@ 0000000180027c60     libucrt:nlsdata.obj
 0002:00004c70       ??_C@_19EPFLPGAP@?$AAJ?$AAu?$AAn?$AAe@ 0000000180027c70     libucrt:nlsdata.obj
 0002:00004c80       ??_C@_19BIFMLPCD@?$AAJ?$AAu?$AAl?$AAy@ 0000000180027c80     libucrt:nlsdata.obj
 0002:00004c90       ??_C@_1O@PAHLKOAC@?$AAA?$AAu?$AAg?$AAu?$AAs?$AAt@ 0000000180027c90     libucrt:nlsdata.obj
 0002:00004ca0       ??_C@_1BE@DKAAMBJL@?$AAS?$AAe?$AAp?$AAt?$AAe?$AAm?$AAb?$AAe?$AAr@ 0000000180027ca0     libucrt:nlsdata.obj
 0002:00004cb8       ??_C@_1BA@EPANDLNG@?$AAO?$AAc?$AAt?$AAo?$AAb?$AAe?$AAr@ 0000000180027cb8     libucrt:nlsdata.obj
 0002:00004cc8       ??_C@_1BC@BGLIFPF@?$AAN?$AAo?$AAv?$AAe?$AAm?$AAb?$AAe?$AAr@ 0000000180027cc8     libucrt:nlsdata.obj
 0002:00004ce0       ??_C@_1BC@FEMKIFH@?$AAD?$AAe?$AAc?$AAe?$AAm?$AAb?$AAe?$AAr@ 0000000180027ce0     libucrt:nlsdata.obj
 0002:00004cf4       ??_C@_15ODEHAHHF@?$AAA?$AAM@ 0000000180027cf4     libucrt:nlsdata.obj
 0002:00004cfc       ??_C@_15CLMNNGEL@?$AAP?$AAM@ 0000000180027cfc     libucrt:nlsdata.obj
 0002:00004d08       ??_C@_1BC@IEBCMHCM@?$AAM?$AAM?$AA?1?$AAd?$AAd?$AA?1?$AAy?$AAy@ 0000000180027d08     libucrt:nlsdata.obj
 0002:00004d20       ??_C@_1CI@KNAKOEBC@?$AAd?$AAd?$AAd?$AAd?$AA?0?$AA?5?$AAM?$AAM?$AAM?$AAM?$AA?5?$AAd?$AAd?$AA?0?$AA?5@ 0000000180027d20     libucrt:nlsdata.obj
 0002:00004d48       ??_C@_1BC@GDGBMEMK@?$AAH?$AAH?$AA?3?$AAm?$AAm?$AA?3?$AAs?$AAs@ 0000000180027d48     libucrt:nlsdata.obj
 0002:00004d60       ??_C@_1M@BMHNFIME@?$AAe?$AAn?$AA?9?$AAU?$AAS@ 0000000180027d60     libucrt:nlsdata.obj
 0002:00004d90       ??_C@_1M@HPNHIDJI@?$AAj?$AAa?$AA?9?$AAJ?$AAP@ 0000000180027d90     libucrt:mbctype.obj
 0002:00004da0       ??_C@_1M@BIBDDEMK@?$AAz?$AAh?$AA?9?$AAC?$AAN@ 0000000180027da0     libucrt:mbctype.obj
 0002:00004db0       ??_C@_1M@JLOOOEGK@?$AAk?$AAo?$AA?9?$AAK?$AAR@ 0000000180027db0     libucrt:mbctype.obj
 0002:00004dc0       ??_C@_1M@CLNBBOPM@?$AAz?$AAh?$AA?9?$AAT?$AAW@ 0000000180027dc0     libucrt:mbctype.obj
 0002:00004dd0       __newctype                 0000000180027dd0     libucrt:ctype.obj
 0002:000050d0       __newclmap                 00000001800280d0     libucrt:ctype.obj
 0002:00005250       __newcumap                 0000000180028250     libucrt:ctype.obj
 0002:000053d0       _wctype                    00000001800283d0     libucrt:ctype.obj
 0002:00006420       ??_C@_15EMKDOKLE@?$AAa?$AAr@ 0000000180029420     libucrt:lcidtoname_downlevel.obj
 0002:00006428       ??_C@_15KNPADPLH@?$AAb?$AAg@ 0000000180029428     libucrt:lcidtoname_downlevel.obj
 0002:00006430       ??_C@_15EDMHLDMO@?$AAc?$AAa@ 0000000180029430     libucrt:lcidtoname_downlevel.obj
 0002:00006438       ??_C@_1O@BPEAJADD@?$AAz?$AAh?$AA?9?$AAC?$AAH?$AAS@ 0000000180029438     libucrt:lcidtoname_downlevel.obj
 0002:00006448       ??_C@_15LJNHCMNK@?$AAc?$AAs@ 0000000180029448     libucrt:lcidtoname_downlevel.obj
 0002:00006450       ??_C@_15FOMCIDHG@?$AAd?$AAa@ 0000000180029450     libucrt:lcidtoname_downlevel.obj
 0002:00006458       ??_C@_15NBKABECB@?$AAd?$AAe@ 0000000180029458     libucrt:lcidtoname_downlevel.obj
 0002:00006460       ??_C@_15GHPEIIAO@?$AAe?$AAl@ 0000000180029460     libucrt:lcidtoname_downlevel.obj
 0002:00006468       ??_C@_15MNPNEAIF@?$AAe?$AAn@ 0000000180029468     libucrt:lcidtoname_downlevel.obj
 0002:00006470       ??_C@_15GPIOMPMH@?$AAe?$AAs@ 0000000180029470     libucrt:lcidtoname_downlevel.obj
 0002:00006478       ??_C@_15NGLOAKJC@?$AAf?$AAi@ 0000000180029478     libucrt:lcidtoname_downlevel.obj
 0002:00006480       ??_C@_15FBKGNKAM@?$AAf?$AAr@ 0000000180029480     libucrt:lcidtoname_downlevel.obj
 0002:00006488       ??_C@_15KGGCNEFK@?$AAh?$AAe@ 0000000180029488     libucrt:lcidtoname_downlevel.obj
 0002:00006490       ??_C@_15PGHLIDMF@?$AAh?$AAu@ 0000000180029490     libucrt:lcidtoname_downlevel.obj
 0002:00006498       ??_C@_15BIEMAPLM@?$AAi?$AAs@ 0000000180029498     libucrt:lcidtoname_downlevel.obj
 0002:000064a0       ??_C@_15IFJLDHAF@?$AAi?$AAt@ 00000001800294a0     libucrt:lcidtoname_downlevel.obj
 0002:000064a8       ??_C@_15GEMIOCAG@?$AAj?$AAa@ 00000001800294a8     libucrt:lcidtoname_downlevel.obj
 0002:000064b0       ??_C@_15EPELEGJA@?$AAk?$AAo@ 00000001800294b0     libucrt:lcidtoname_downlevel.obj
 0002:000064b8       ??_C@_15NDDHIMN@?$AAn?$AAl@ 00000001800294b8     libucrt:lcidtoname_downlevel.obj
 0002:000064c0       ??_C@_15BPIGNHCD@?$AAn?$AAo@ 00000001800294c0     libucrt:lcidtoname_downlevel.obj
 0002:000064c8       ??_C@_15DEOPBLCG@?$AAp?$AAl@ 00000001800294c8     libucrt:lcidtoname_downlevel.obj
 0002:000064d0       ??_C@_15KBECGEFG@?$AAp?$AAt@ 00000001800294d0     libucrt:lcidtoname_downlevel.obj
 0002:000064d8       ??_C@_15GLJCBFMD@?$AAr?$AAo@ 00000001800294d8     libucrt:lcidtoname_downlevel.obj
 0002:000064e0       ??_C@_15FEDGKCDI@?$AAr?$AAu@ 00000001800294e0     libucrt:lcidtoname_downlevel.obj
 0002:000064e8       ??_C@_15GLKMLLHM@?$AAh?$AAr@ 00000001800294e8     libucrt:lcidtoname_downlevel.obj
 0002:000064f0       ??_C@_15CPKMFBDB@?$AAs?$AAk@ 00000001800294f0     libucrt:lcidtoname_downlevel.obj
 0002:000064f8       ??_C@_15BAAIOGMK@?$AAs?$AAq@ 00000001800294f8     libucrt:lcidtoname_downlevel.obj
 0002:00006500       ??_C@_15INNPNOHD@?$AAs?$AAv@ 0000000180029500     libucrt:lcidtoname_downlevel.obj
 0002:00006508       ??_C@_15CABMMOGH@?$AAt?$AAh@ 0000000180029508     libucrt:lcidtoname_downlevel.obj
 0002:00006510       ??_C@_15BPLIHJJM@?$AAt?$AAr@ 0000000180029510     libucrt:lcidtoname_downlevel.obj
 0002:00006518       ??_C@_15NEOEKKDJ@?$AAu?$AAr@ 0000000180029518     libucrt:lcidtoname_downlevel.obj
 0002:00006520       ??_C@_15NFICGAJK@?$AAi?$AAd@ 0000000180029520     libucrt:lcidtoname_downlevel.obj
 0002:00006528       ??_C@_15PJPFLCCM@?$AAu?$AAk@ 0000000180029528     libucrt:lcidtoname_downlevel.obj
 0002:00006530       ??_C@_15HPJPHDM@?$AAb?$AAe@ 0000000180029530     libucrt:lcidtoname_downlevel.obj
 0002:00006538       ??_C@_15LCHLGJII@?$AAs?$AAl@ 0000000180029538     libucrt:lcidtoname_downlevel.obj
 0002:00006540       ??_C@_15PCFJPHHO@?$AAe?$AAt@ 0000000180029540     libucrt:lcidtoname_downlevel.obj
 0002:00006548       ??_C@_15HPFPGODN@?$AAl?$AAv@ 0000000180029548     libucrt:lcidtoname_downlevel.obj
 0002:00006550       ??_C@_15NFFGKGLG@?$AAl?$AAt@ 0000000180029550     libucrt:lcidtoname_downlevel.obj
 0002:00006558       ??_C@_15BDAKCCHN@?$AAf?$AAa@ 0000000180029558     libucrt:lcidtoname_downlevel.obj
 0002:00006560       ??_C@_15NFGIAIAJ@?$AAv?$AAi@ 0000000180029560     libucrt:lcidtoname_downlevel.obj
 0002:00006568       ??_C@_15LMKNDMHN@?$AAh?$AAy@ 0000000180029568     libucrt:lcidtoname_downlevel.obj
 0002:00006570       ??_C@_15IJBHMCFL@?$AAa?$AAz@ 0000000180029570     libucrt:lcidtoname_downlevel.obj
 0002:00006578       ??_C@_15EKOFJABL@?$AAe?$AAu@ 0000000180029578     libucrt:lcidtoname_downlevel.obj
 0002:00006580       ??_C@_15BGHADCNK@?$AAm?$AAk@ 0000000180029580     libucrt:lcidtoname_downlevel.obj
 0002:00006588       ??_C@_15JDNICKHM@?$AAa?$AAf@ 0000000180029588     libucrt:lcidtoname_downlevel.obj
 0002:00006590       ??_C@_15KPJEDBKD@?$AAk?$AAa@ 0000000180029590     libucrt:lcidtoname_downlevel.obj
 0002:00006598       ??_C@_15PDNFFFEO@?$AAf?$AAo@ 0000000180029598     libucrt:lcidtoname_downlevel.obj
 0002:000065a0       ??_C@_15OMLEGLOC@?$AAh?$AAi@ 00000001800295a0     libucrt:lcidtoname_downlevel.obj
 0002:000065a8       ??_C@_15IDNNENKK@?$AAm?$AAs@ 00000001800295a8     libucrt:lcidtoname_downlevel.obj
 0002:000065b0       ??_C@_15MACJNBMH@?$AAk?$AAk@ 00000001800295b0     libucrt:lcidtoname_downlevel.obj
 0002:000065b8       ??_C@_15DKDJEOND@?$AAk?$AAy@ 00000001800295b8     libucrt:lcidtoname_downlevel.obj
 0002:000065c0       ??_C@_15DFGDLJBG@?$AAs?$AAw@ 00000001800295c0     libucrt:lcidtoname_downlevel.obj
 0002:000065c8       ??_C@_15BBFAICNG@?$AAu?$AAz@ 00000001800295c8     libucrt:lcidtoname_downlevel.obj
 0002:000065d0       ??_C@_15DKNDCGEA@?$AAt?$AAt@ 00000001800295d0     libucrt:lcidtoname_downlevel.obj
 0002:000065d8       ??_C@_15MGIFMDPL@?$AAp?$AAa@ 00000001800295d8     libucrt:lcidtoname_downlevel.obj
 0002:000065e0       ??_C@_15HCNDBBA@?$AAg?$AAu@ 00000001800295e0     libucrt:lcidtoname_downlevel.obj
 0002:000065e8       ??_C@_15FNBEIBON@?$AAt?$AAa@ 00000001800295e8     libucrt:lcidtoname_downlevel.obj
 0002:000065f0       ??_C@_15NCHGBGLK@?$AAt?$AAe@ 00000001800295f0     libucrt:lcidtoname_downlevel.obj
 0002:000065f8       ??_C@_15PHPHCBPF@?$AAk?$AAn@ 00000001800295f8     libucrt:lcidtoname_downlevel.obj
 0002:00006600       ??_C@_15DLGBCKMP@?$AAm?$AAr@ 0000000180029600     libucrt:lcidtoname_downlevel.obj
 0002:00006608       ??_C@_15EABBLBFF@?$AAs?$AAa@ 0000000180029608     libucrt:lcidtoname_downlevel.obj
 0002:00006610       ??_C@_15CBKOMCOI@?$AAm?$AAn@ 0000000180029610     libucrt:lcidtoname_downlevel.obj
 0002:00006618       ??_C@_15CKDMCJAF@?$AAg?$AAl@ 0000000180029618     libucrt:lcidtoname_downlevel.obj
 0002:00006620       ??_C@_17CNJFBPG@?$AAk?$AAo?$AAk@ 0000000180029620     libucrt:lcidtoname_downlevel.obj
 0002:00006628       ??_C@_17FFBJICPL@?$AAs?$AAy?$AAr@ 0000000180029628     libucrt:lcidtoname_downlevel.obj
 0002:00006630       ??_C@_17KPNDCPAF@?$AAd?$AAi?$AAv@ 0000000180029630     libucrt:lcidtoname_downlevel.obj
 0002:00006638       ??_C@_1M@OKAHONE@?$AAa?$AAr?$AA?9?$AAS?$AAA@ 0000000180029638     libucrt:lcidtoname_downlevel.obj
 0002:00006648       ??_C@_1M@FFFIGIGK@?$AAb?$AAg?$AA?9?$AAB?$AAG@ 0000000180029648     libucrt:lcidtoname_downlevel.obj
 0002:00006658       ??_C@_1M@BJNKEDC@?$AAc?$AAa?$AA?9?$AAE?$AAS@ 0000000180029658     libucrt:lcidtoname_downlevel.obj
 0002:00006668       ??_C@_1M@IJJHFJHA@?$AAc?$AAs?$AA?9?$AAC?$AAZ@ 0000000180029668     libucrt:lcidtoname_downlevel.obj
 0002:00006678       ??_C@_1M@CLPEOBGI@?$AAd?$AAa?$AA?9?$AAD?$AAK@ 0000000180029678     libucrt:lcidtoname_downlevel.obj
 0002:00006688       ??_C@_1M@MCMADGCB@?$AAd?$AAe?$AA?9?$AAD?$AAE@ 0000000180029688     libucrt:lcidtoname_downlevel.obj
 0002:00006698       ??_C@_1M@OOCKEMAM@?$AAe?$AAl?$AA?9?$AAG?$AAR@ 0000000180029698     libucrt:lcidtoname_downlevel.obj
 0002:000066a8       ??_C@_1M@DDNJFGID@?$AAf?$AAi?$AA?9?$AAF?$AAI@ 00000001800296a8     libucrt:lcidtoname_downlevel.obj
 0002:000066b8       ??_C@_1M@GLIPPMAC@?$AAf?$AAr?$AA?9?$AAF?$AAR@ 00000001800296b8     libucrt:lcidtoname_downlevel.obj
 0002:000066c8       ??_C@_1M@GFMCHPE@?$AAh?$AAe?$AA?9?$AAI?$AAL@ 00000001800296c8     libucrt:lcidtoname_downlevel.obj
 0002:000066d8       ??_C@_1M@MHLPGNKM@?$AAh?$AAu?$AA?9?$AAH?$AAU@ 00000001800296d8     libucrt:lcidtoname_downlevel.obj
 0002:000066e8       ??_C@_1M@LPDDNNPN@?$AAi?$AAs?$AA?9?$AAI?$AAS@ 00000001800296e8     libucrt:lcidtoname_downlevel.obj
 0002:000066f8       ??_C@_1M@MADIPODN@?$AAi?$AAt?$AA?9?$AAI?$AAT@ 00000001800296f8     libucrt:lcidtoname_downlevel.obj
 0002:00006708       ??_C@_1M@IHBJJGG@?$AAn?$AAl?$AA?9?$AAN?$AAL@ 0000000180029708     libucrt:lcidtoname_downlevel.obj
 0002:00006718       ??_C@_1M@EANAGDL@?$AAn?$AAb?$AA?9?$AAN?$AAO@ 0000000180029718     libucrt:lcidtoname_downlevel.obj
 0002:00006728       ??_C@_1M@NEIEMEGP@?$AAp?$AAl?$AA?9?$AAP?$AAL@ 0000000180029728     libucrt:lcidtoname_downlevel.obj
 0002:00006738       ??_C@_1M@BOCFIGEP@?$AAp?$AAt?$AA?9?$AAB?$AAR@ 0000000180029738     libucrt:lcidtoname_downlevel.obj
 0002:00006748       ??_C@_1M@IMPFOPBG@?$AAr?$AAo?$AA?9?$AAR?$AAO@ 0000000180029748     libucrt:lcidtoname_downlevel.obj
 0002:00006758       ??_C@_1M@IDNNEJMM@?$AAr?$AAu?$AA?9?$AAR?$AAU@ 0000000180029758     libucrt:lcidtoname_downlevel.obj
 0002:00006768       ??_C@_1M@LILEEOGM@?$AAh?$AAr?$AA?9?$AAH?$AAR@ 0000000180029768     libucrt:lcidtoname_downlevel.obj
 0002:00006778       ??_C@_1M@FKIFEHPB@?$AAs?$AAk?$AA?9?$AAS?$AAK@ 0000000180029778     libucrt:lcidtoname_downlevel.obj
 0002:00006788       ??_C@_1M@LJMAMNPJ@?$AAs?$AAq?$AA?9?$AAA?$AAL@ 0000000180029788     libucrt:lcidtoname_downlevel.obj
 0002:00006798       ??_C@_1M@GIAKDKJK@?$AAs?$AAv?$AA?9?$AAS?$AAE@ 0000000180029798     libucrt:lcidtoname_downlevel.obj
 0002:000067a8       ??_C@_1M@MKJKIKCL@?$AAt?$AAh?$AA?9?$AAT?$AAH@ 00000001800297a8     libucrt:lcidtoname_downlevel.obj
 0002:000067b8       ??_C@_1M@MFLCCMPB@?$AAt?$AAr?$AA?9?$AAT?$AAR@ 00000001800297b8     libucrt:lcidtoname_downlevel.obj
 0002:000067c8       ??_C@_1M@OIJHDKJN@?$AAu?$AAr?$AA?9?$AAP?$AAK@ 00000001800297c8     libucrt:lcidtoname_downlevel.obj
 0002:000067d8       ??_C@_1M@LHIPCIEK@?$AAi?$AAd?$AA?9?$AAI?$AAD@ 00000001800297d8     libucrt:lcidtoname_downlevel.obj
 0002:000067e8       ??_C@_1M@MFMOBGI@?$AAu?$AAk?$AA?9?$AAU?$AAA@ 00000001800297e8     libucrt:lcidtoname_downlevel.obj
 0002:000067f8       ??_C@_1M@OBGLJIPL@?$AAb?$AAe?$AA?9?$AAB?$AAY@ 00000001800297f8     libucrt:lcidtoname_downlevel.obj
 0002:00006808       ??_C@_1M@BCFAJEAD@?$AAs?$AAl?$AA?9?$AAS?$AAI@ 0000000180029808     libucrt:lcidtoname_downlevel.obj
 0002:00006818       ??_C@_1M@FKFFEDDN@?$AAe?$AAt?$AA?9?$AAE?$AAE@ 0000000180029818     libucrt:lcidtoname_downlevel.obj
 0002:00006828       ??_C@_1M@KGKKAACI@?$AAl?$AAv?$AA?9?$AAL?$AAV@ 0000000180029828     libucrt:lcidtoname_downlevel.obj
 0002:00006838       ??_C@_1M@IFGBIJO@?$AAl?$AAt?$AA?9?$AAL?$AAT@ 0000000180029838     libucrt:lcidtoname_downlevel.obj
 0002:00006848       ??_C@_1M@FGEAHEDM@?$AAf?$AAa?$AA?9?$AAI?$AAR@ 0000000180029848     libucrt:lcidtoname_downlevel.obj
 0002:00006858       ??_C@_1M@KBMAIBFN@?$AAv?$AAi?$AA?9?$AAV?$AAN@ 0000000180029858     libucrt:lcidtoname_downlevel.obj
 0002:00006868       ??_C@_1M@GPCBKDJK@?$AAh?$AAy?$AA?9?$AAA?$AAM@ 0000000180029868     libucrt:lcidtoname_downlevel.obj
 0002:00006878       ??_C@_1BG@BECMDDJB@?$AAa?$AAz?$AA?9?$AAA?$AAZ?$AA?9?$AAL?$AAa?$AAt?$AAn@ 0000000180029878     libucrt:lcidtoname_downlevel.obj
 0002:00006890       ??_C@_1M@MAOFCAEA@?$AAe?$AAu?$AA?9?$AAE?$AAS@ 0000000180029890     libucrt:lcidtoname_downlevel.obj
 0002:000068a0       ??_C@_1M@IGHABKPI@?$AAm?$AAk?$AA?9?$AAM?$AAK@ 00000001800298a0     libucrt:lcidtoname_downlevel.obj
 0002:000068b0       ??_C@_1M@IAIGNEJG@?$AAt?$AAn?$AA?9?$AAZ?$AAA@ 00000001800298b0     libucrt:lcidtoname_downlevel.obj
 0002:000068c0       ??_C@_1M@IIJCOJFA@?$AAx?$AAh?$AA?9?$AAZ?$AAA@ 00000001800298c0     libucrt:lcidtoname_downlevel.obj
 0002:000068d0       ??_C@_1M@LGPJHNJH@?$AAz?$AAu?$AA?9?$AAZ?$AAA@ 00000001800298d0     libucrt:lcidtoname_downlevel.obj
 0002:000068e0       ??_C@_1M@HOKAOIO@?$AAa?$AAf?$AA?9?$AAZ?$AAA@ 00000001800298e0     libucrt:lcidtoname_downlevel.obj
 0002:000068f0       ??_C@_1M@DPCLHLIE@?$AAk?$AAa?$AA?9?$AAG?$AAE@ 00000001800298f0     libucrt:lcidtoname_downlevel.obj
 0002:00006900       ??_C@_1M@BLKMHJBI@?$AAf?$AAo?$AA?9?$AAF?$AAO@ 0000000180029900     libucrt:lcidtoname_downlevel.obj
 0002:00006910       ??_C@_1M@LGGJAPPB@?$AAh?$AAi?$AA?9?$AAI?$AAN@ 0000000180029910     libucrt:lcidtoname_downlevel.obj
 0002:00006920       ??_C@_1M@FIKPIHFE@?$AAm?$AAt?$AA?9?$AAM?$AAT@ 0000000180029920     libucrt:lcidtoname_downlevel.obj
 0002:00006930       ??_C@_1M@HEGGPBFA@?$AAs?$AAe?$AA?9?$AAN?$AAO@ 0000000180029930     libucrt:lcidtoname_downlevel.obj
 0002:00006940       ??_C@_1M@EIBJEEPA@?$AAm?$AAs?$AA?9?$AAM?$AAY@ 0000000180029940     libucrt:lcidtoname_downlevel.obj
 0002:00006950       ??_C@_1M@FHLBGMPP@?$AAk?$AAk?$AA?9?$AAK?$AAZ@ 0000000180029950     libucrt:lcidtoname_downlevel.obj
 0002:00006960       ??_C@_1M@NGJJLCGI@?$AAk?$AAy?$AA?9?$AAK?$AAG@ 0000000180029960     libucrt:lcidtoname_downlevel.obj
 0002:00006970       ??_C@_1M@GIENNBFC@?$AAs?$AAw?$AA?9?$AAK?$AAE@ 0000000180029970     libucrt:lcidtoname_downlevel.obj
 0002:00006980       ??_C@_1BG@NDGMJIMJ@?$AAu?$AAz?$AA?9?$AAU?$AAZ?$AA?9?$AAL?$AAa?$AAt?$AAn@ 0000000180029980     libucrt:lcidtoname_downlevel.obj
 0002:00006998       ??_C@_1M@IDCCIHBC@?$AAt?$AAt?$AA?9?$AAR?$AAU@ 0000000180029998     libucrt:lcidtoname_downlevel.obj
 0002:000069a8       ??_C@_1M@LOICPMOJ@?$AAb?$AAn?$AA?9?$AAI?$AAN@ 00000001800299a8     libucrt:lcidtoname_downlevel.obj
 0002:000069b8       ??_C@_1M@KPKKNEAH@?$AAp?$AAa?$AA?9?$AAI?$AAN@ 00000001800299b8     libucrt:lcidtoname_downlevel.obj
 0002:000069c8       ??_C@_1M@PJGPPBOG@?$AAg?$AAu?$AA?9?$AAI?$AAN@ 00000001800299c8     libucrt:lcidtoname_downlevel.obj
 0002:000069d8       ??_C@_1M@KMKMOPHI@?$AAt?$AAa?$AA?9?$AAI?$AAN@ 00000001800299d8     libucrt:lcidtoname_downlevel.obj
 0002:000069e8       ??_C@_1M@KFEHEPAC@?$AAt?$AAe?$AA?9?$AAI?$AAN@ 00000001800299e8     libucrt:lcidtoname_downlevel.obj
 0002:000069f8       ??_C@_1M@CDCLMGHI@?$AAk?$AAn?$AA?9?$AAI?$AAN@ 00000001800299f8     libucrt:lcidtoname_downlevel.obj
 0002:00006a08       ??_C@_1M@MIODLDKF@?$AAm?$AAl?$AA?9?$AAI?$AAN@ 0000000180029a08     libucrt:lcidtoname_downlevel.obj
 0002:00006a18       ??_C@_1M@PBIEACPO@?$AAm?$AAr?$AA?9?$AAI?$AAN@ 0000000180029a18     libucrt:lcidtoname_downlevel.obj
 0002:00006a28       ??_C@_1M@NIDEAGPH@?$AAs?$AAa?$AA?9?$AAI?$AAN@ 0000000180029a28     libucrt:lcidtoname_downlevel.obj
 0002:00006a38       ??_C@_1M@FHIHCBIO@?$AAm?$AAn?$AA?9?$AAM?$AAN@ 0000000180029a38     libucrt:lcidtoname_downlevel.obj
 0002:00006a48       ??_C@_1M@JAIJPENP@?$AAc?$AAy?$AA?9?$AAG?$AAB@ 0000000180029a48     libucrt:lcidtoname_downlevel.obj
 0002:00006a58       ??_C@_1M@PHGFBEPN@?$AAg?$AAl?$AA?9?$AAE?$AAS@ 0000000180029a58     libucrt:lcidtoname_downlevel.obj
 0002:00006a68       ??_C@_1O@KPIPDNCP@?$AAk?$AAo?$AAk?$AA?9?$AAI?$AAN@ 0000000180029a68     libucrt:lcidtoname_downlevel.obj
 0002:00006a78       ??_C@_1O@KNHJLDJA@?$AAs?$AAy?$AAr?$AA?9?$AAS?$AAY@ 0000000180029a78     libucrt:lcidtoname_downlevel.obj
 0002:00006a88       ??_C@_1O@MKEKBLAH@?$AAd?$AAi?$AAv?$AA?9?$AAM?$AAV@ 0000000180029a88     libucrt:lcidtoname_downlevel.obj
 0002:00006a98       ??_C@_1O@OHDCKDDF@?$AAq?$AAu?$AAz?$AA?9?$AAB?$AAO@ 0000000180029a98     libucrt:lcidtoname_downlevel.obj
 0002:00006aa8       ??_C@_1M@LEPJNLFD@?$AAn?$AAs?$AA?9?$AAZ?$AAA@ 0000000180029aa8     libucrt:lcidtoname_downlevel.obj
 0002:00006ab8       ??_C@_1M@OMLEIIJB@?$AAm?$AAi?$AA?9?$AAN?$AAZ@ 0000000180029ab8     libucrt:lcidtoname_downlevel.obj
 0002:00006ac8       ??_C@_1M@PMPEAILG@?$AAa?$AAr?$AA?9?$AAI?$AAQ@ 0000000180029ac8     libucrt:lcidtoname_downlevel.obj
 0002:00006ad8       ??_C@_1M@CNKPNOEE@?$AAd?$AAe?$AA?9?$AAC?$AAH@ 0000000180029ad8     libucrt:lcidtoname_downlevel.obj
 0002:00006ae8       ??_C@_1M@LKMGMLKO@?$AAe?$AAn?$AA?9?$AAG?$AAB@ 0000000180029ae8     libucrt:lcidtoname_downlevel.obj
 0002:00006af8       ??_C@_1M@PGKJFFGL@?$AAe?$AAs?$AA?9?$AAM?$AAX@ 0000000180029af8     libucrt:lcidtoname_downlevel.obj
 0002:00006b08       ??_C@_1M@DNNANBDC@?$AAf?$AAr?$AA?9?$AAB?$AAE@ 0000000180029b08     libucrt:lcidtoname_downlevel.obj
 0002:00006b18       ??_C@_1M@HLGMDFHM@?$AAi?$AAt?$AA?9?$AAC?$AAH@ 0000000180029b18     libucrt:lcidtoname_downlevel.obj
 0002:00006b28       ??_C@_1M@CLLBGJH@?$AAn?$AAl?$AA?9?$AAB?$AAE@ 0000000180029b28     libucrt:lcidtoname_downlevel.obj
 0002:00006b38       ??_C@_1M@BODBOGLF@?$AAn?$AAn?$AA?9?$AAN?$AAO@ 0000000180029b38     libucrt:lcidtoname_downlevel.obj
 0002:00006b48       ??_C@_1M@HFFAHKAD@?$AAp?$AAt?$AA?9?$AAP?$AAT@ 0000000180029b48     libucrt:lcidtoname_downlevel.obj
 0002:00006b58       ??_C@_1BG@LNOAKHIE@?$AAs?$AAr?$AA?9?$AAS?$AAP?$AA?9?$AAL?$AAa?$AAt?$AAn@ 0000000180029b58     libucrt:lcidtoname_downlevel.obj
 0002:00006b70       ??_C@_1M@HBMHBGAK@?$AAs?$AAv?$AA?9?$AAF?$AAI@ 0000000180029b70     libucrt:lcidtoname_downlevel.obj
 0002:00006b80       ??_C@_1BG@DGCJGJBE@?$AAa?$AAz?$AA?9?$AAA?$AAZ?$AA?9?$AAC?$AAy?$AAr?$AAl@ 0000000180029b80     libucrt:lcidtoname_downlevel.obj
 0002:00006b98       ??_C@_1M@KEJDAAHB@?$AAs?$AAe?$AA?9?$AAS?$AAE@ 0000000180029b98     libucrt:lcidtoname_downlevel.obj
 0002:00006ba8       ??_C@_1M@HEIBJJAD@?$AAm?$AAs?$AA?9?$AAB?$AAN@ 0000000180029ba8     libucrt:lcidtoname_downlevel.obj
 0002:00006bb8       ??_C@_1BG@PBGJMCEM@?$AAu?$AAz?$AA?9?$AAU?$AAZ?$AA?9?$AAC?$AAy?$AAr?$AAl@ 0000000180029bb8     libucrt:lcidtoname_downlevel.obj
 0002:00006bd0       ??_C@_1O@LAOBCMDF@?$AAq?$AAu?$AAz?$AA?9?$AAE?$AAC@ 0000000180029bd0     libucrt:lcidtoname_downlevel.obj
 0002:00006be0       ??_C@_1M@POEEMAIO@?$AAa?$AAr?$AA?9?$AAE?$AAG@ 0000000180029be0     libucrt:lcidtoname_downlevel.obj
 0002:00006bf0       ??_C@_1M@EFAKDEDL@?$AAz?$AAh?$AA?9?$AAH?$AAK@ 0000000180029bf0     libucrt:lcidtoname_downlevel.obj
 0002:00006c00       ??_C@_1M@HKKIJHGI@?$AAd?$AAe?$AA?9?$AAA?$AAT@ 0000000180029c00     libucrt:lcidtoname_downlevel.obj
 0002:00006c10       ??_C@_1M@KBFBEHJF@?$AAe?$AAn?$AA?9?$AAA?$AAU@ 0000000180029c10     libucrt:lcidtoname_downlevel.obj
 0002:00006c20       ??_C@_1M@MNPLFAAH@?$AAe?$AAs?$AA?9?$AAE?$AAS@ 0000000180029c20     libucrt:lcidtoname_downlevel.obj
 0002:00006c30       ??_C@_1M@HJOOJFMA@?$AAf?$AAr?$AA?9?$AAC?$AAA@ 0000000180029c30     libucrt:lcidtoname_downlevel.obj
 0002:00006c40       ??_C@_1BG@JPOFPNAB@?$AAs?$AAr?$AA?9?$AAS?$AAP?$AA?9?$AAC?$AAy?$AAr?$AAl@ 0000000180029c40     libucrt:lcidtoname_downlevel.obj
 0002:00006c58       ??_C@_1M@LNFOCMOB@?$AAs?$AAe?$AA?9?$AAF?$AAI@ 0000000180029c58     libucrt:lcidtoname_downlevel.obj
 0002:00006c68       ??_C@_1O@MGJBOAMB@?$AAq?$AAu?$AAz?$AA?9?$AAP?$AAE@ 0000000180029c68     libucrt:lcidtoname_downlevel.obj
 0002:00006c78       ??_C@_1M@GJINLBOK@?$AAa?$AAr?$AA?9?$AAL?$AAY@ 0000000180029c78     libucrt:lcidtoname_downlevel.obj
 0002:00006c88       ??_C@_1M@GGMNHJNL@?$AAz?$AAh?$AA?9?$AAS?$AAG@ 0000000180029c88     libucrt:lcidtoname_downlevel.obj
 0002:00006c98       ??_C@_1M@HOIKODND@?$AAd?$AAe?$AA?9?$AAL?$AAU@ 0000000180029c98     libucrt:lcidtoname_downlevel.obj
 0002:00006ca8       ??_C@_1M@DDOCCGFG@?$AAe?$AAn?$AA?9?$AAC?$AAA@ 0000000180029ca8     libucrt:lcidtoname_downlevel.obj
 0002:00006cb8       ??_C@_1M@BNOEMJLF@?$AAe?$AAs?$AA?9?$AAG?$AAT@ 0000000180029cb8     libucrt:lcidtoname_downlevel.obj
 0002:00006cc8       ??_C@_1M@EOGNKEK@?$AAf?$AAr?$AA?9?$AAC?$AAH@ 0000000180029cc8     libucrt:lcidtoname_downlevel.obj
 0002:00006cd8       ??_C@_1M@FLIDJFHL@?$AAh?$AAr?$AA?9?$AAB?$AAA@ 0000000180029cd8     libucrt:lcidtoname_downlevel.obj
 0002:00006ce8       ??_C@_1O@FMCELNAJ@?$AAs?$AAm?$AAj?$AA?9?$AAN?$AAO@ 0000000180029ce8     libucrt:lcidtoname_downlevel.obj
 0002:00006cf8       ??_C@_1M@JHGLJMGJ@?$AAa?$AAr?$AA?9?$AAD?$AAZ@ 0000000180029cf8     libucrt:lcidtoname_downlevel.obj
 0002:00006d08       ??_C@_1M@JKKFDCNP@?$AAz?$AAh?$AA?9?$AAM?$AAO@ 0000000180029d08     libucrt:lcidtoname_downlevel.obj
 0002:00006d18       ??_C@_1M@GEEFALPE@?$AAd?$AAe?$AA?9?$AAL?$AAI@ 0000000180029d18     libucrt:lcidtoname_downlevel.obj
 0002:00006d28       ??_C@_1M@IGEOFBG@?$AAe?$AAn?$AA?9?$AAN?$AAZ@ 0000000180029d28     libucrt:lcidtoname_downlevel.obj
 0002:00006d38       ??_C@_1M@KDBONEHP@?$AAe?$AAs?$AA?9?$AAC?$AAR@ 0000000180029d38     libucrt:lcidtoname_downlevel.obj
 0002:00006d48       ??_C@_1M@FHMDOHNN@?$AAf?$AAr?$AA?9?$AAL?$AAU@ 0000000180029d48     libucrt:lcidtoname_downlevel.obj
 0002:00006d58       ??_C@_1BG@NFKKMAFG@?$AAb?$AAs?$AA?9?$AAB?$AAA?$AA?9?$AAL?$AAa?$AAt?$AAn@ 0000000180029d58     libucrt:lcidtoname_downlevel.obj
 0002:00006d70       ??_C@_1O@IMNBEMCI@?$AAs?$AAm?$AAj?$AA?9?$AAS?$AAE@ 0000000180029d70     libucrt:lcidtoname_downlevel.obj
 0002:00006d80       ??_C@_1M@DHHMBNDP@?$AAa?$AAr?$AA?9?$AAM?$AAA@ 0000000180029d80     libucrt:lcidtoname_downlevel.obj
 0002:00006d90       ??_C@_1M@BNBLJCGH@?$AAe?$AAn?$AA?9?$AAI?$AAE@ 0000000180029d90     libucrt:lcidtoname_downlevel.obj
 0002:00006da0       ??_C@_1M@GEPAFMDL@?$AAe?$AAs?$AA?9?$AAP?$AAA@ 0000000180029da0     libucrt:lcidtoname_downlevel.obj
 0002:00006db0       ??_C@_1M@OJONDMDL@?$AAf?$AAr?$AA?9?$AAM?$AAC@ 0000000180029db0     libucrt:lcidtoname_downlevel.obj
 0002:00006dc0       ??_C@_1BG@OBCNFJB@?$AAs?$AAr?$AA?9?$AAB?$AAA?$AA?9?$AAL?$AAa?$AAt?$AAn@ 0000000180029dc0     libucrt:lcidtoname_downlevel.obj
 0002:00006dd8       ??_C@_1O@KEMEEGPO@?$AAs?$AAm?$AAa?$AA?9?$AAN?$AAO@ 0000000180029dd8     libucrt:lcidtoname_downlevel.obj
 0002:00006de8       ??_C@_1M@ELMGFODK@?$AAa?$AAr?$AA?9?$AAT?$AAN@ 0000000180029de8     libucrt:lcidtoname_downlevel.obj
 0002:00006df8       ??_C@_1M@BHDLHFAF@?$AAe?$AAn?$AA?9?$AAZ?$AAA@ 0000000180029df8     libucrt:lcidtoname_downlevel.obj
 0002:00006e08       ??_C@_1M@BMGIGLIF@?$AAe?$AAs?$AA?9?$AAD?$AAO@ 0000000180029e08     libucrt:lcidtoname_downlevel.obj
 0002:00006e18       ??_C@_1BG@CMBHIPBE@?$AAs?$AAr?$AA?9?$AAB?$AAA?$AA?9?$AAC?$AAy?$AAr?$AAl@ 0000000180029e18     libucrt:lcidtoname_downlevel.obj
 0002:00006e30       ??_C@_1O@HEDBLHNP@?$AAs?$AAm?$AAa?$AA?9?$AAS?$AAE@ 0000000180029e30     libucrt:lcidtoname_downlevel.obj
 0002:00006e40       ??_C@_1M@DAGCADIM@?$AAa?$AAr?$AA?9?$AAO?$AAM@ 0000000180029e40     libucrt:lcidtoname_downlevel.obj
 0002:00006e50       ??_C@_1M@FODLMICG@?$AAe?$AAn?$AA?9?$AAJ?$AAM@ 0000000180029e50     libucrt:lcidtoname_downlevel.obj
 0002:00006e60       ??_C@_1M@DNMLCIHB@?$AAe?$AAs?$AA?9?$AAV?$AAE@ 0000000180029e60     libucrt:lcidtoname_downlevel.obj
 0002:00006e70       ??_C@_1O@EOKHMKJK@?$AAs?$AAm?$AAs?$AA?9?$AAF?$AAI@ 0000000180029e70     libucrt:lcidtoname_downlevel.obj
 0002:00006e80       ??_C@_1M@CAFJMKOF@?$AAa?$AAr?$AA?9?$AAY?$AAE@ 0000000180029e80     libucrt:lcidtoname_downlevel.obj
 0002:00006e90       ??_C@_1M@CBFHIJLI@?$AAe?$AAn?$AA?9?$AAC?$AAB@ 0000000180029e90     libucrt:lcidtoname_downlevel.obj
 0002:00006ea0       ??_C@_1M@BGNFLDN@?$AAe?$AAs?$AA?9?$AAC?$AAO@ 0000000180029ea0     libucrt:lcidtoname_downlevel.obj
 0002:00006eb0       ??_C@_1O@JMPHMAMC@?$AAs?$AAm?$AAn?$AA?9?$AAF?$AAI@ 0000000180029eb0     libucrt:lcidtoname_downlevel.obj
 0002:00006ec0       ??_C@_1M@JLANABKE@?$AAa?$AAr?$AA?9?$AAS?$AAY@ 0000000180029ec0     libucrt:lcidtoname_downlevel.obj
 0002:00006ed0       ??_C@_1M@HPKGCFGN@?$AAe?$AAn?$AA?9?$AAB?$AAZ@ 0000000180029ed0     libucrt:lcidtoname_downlevel.obj
 0002:00006ee0       ??_C@_1M@OLJCMLGM@?$AAe?$AAs?$AA?9?$AAP?$AAE@ 0000000180029ee0     libucrt:lcidtoname_downlevel.obj
 0002:00006ef0       ??_C@_1M@MKKGFKLE@?$AAa?$AAr?$AA?9?$AAJ?$AAO@ 0000000180029ef0     libucrt:lcidtoname_downlevel.obj
 0002:00006f00       ??_C@_1M@EKPGLDNI@?$AAe?$AAn?$AA?9?$AAT?$AAT@ 0000000180029f00     libucrt:lcidtoname_downlevel.obj
 0002:00006f10       ??_C@_1M@OONGHFHE@?$AAe?$AAs?$AA?9?$AAA?$AAR@ 0000000180029f10     libucrt:lcidtoname_downlevel.obj
 0002:00006f20       ??_C@_1M@OOJFGBHE@?$AAa?$AAr?$AA?9?$AAL?$AAB@ 0000000180029f20     libucrt:lcidtoname_downlevel.obj
 0002:00006f30       ??_C@_1M@GCEJHNEG@?$AAe?$AAn?$AA?9?$AAZ?$AAW@ 0000000180029f30     libucrt:lcidtoname_downlevel.obj
 0002:00006f40       ??_C@_1M@JNOCAHJI@?$AAe?$AAs?$AA?9?$AAE?$AAC@ 0000000180029f40     libucrt:lcidtoname_downlevel.obj
 0002:00006f50       ??_C@_1M@JEFHPGGB@?$AAa?$AAr?$AA?9?$AAK?$AAW@ 0000000180029f50     libucrt:lcidtoname_downlevel.obj
 0002:00006f60       ??_C@_1M@MLKIBJOJ@?$AAe?$AAn?$AA?9?$AAP?$AAH@ 0000000180029f60     libucrt:lcidtoname_downlevel.obj
 0002:00006f70       ??_C@_1M@BDNIPEND@?$AAe?$AAs?$AA?9?$AAC?$AAL@ 0000000180029f70     libucrt:lcidtoname_downlevel.obj
 0002:00006f80       ??_C@_1M@MPNMEKBD@?$AAa?$AAr?$AA?9?$AAA?$AAE@ 0000000180029f80     libucrt:lcidtoname_downlevel.obj
 0002:00006f90       ??_C@_1M@KBJALCPI@?$AAe?$AAs?$AA?9?$AAU?$AAY@ 0000000180029f90     libucrt:lcidtoname_downlevel.obj
 0002:00006fa0       ??_C@_1M@LLCCOAGA@?$AAa?$AAr?$AA?9?$AAB?$AAH@ 0000000180029fa0     libucrt:lcidtoname_downlevel.obj
 0002:00006fb0       ??_C@_1M@PBFNCDEL@?$AAe?$AAs?$AA?9?$AAP?$AAY@ 0000000180029fb0     libucrt:lcidtoname_downlevel.obj
 0002:00006fc0       ??_C@_1M@EDGINPNP@?$AAa?$AAr?$AA?9?$AAQ?$AAA@ 0000000180029fc0     libucrt:lcidtoname_downlevel.obj
 0002:00006fd0       ??_C@_1M@MKDBIIJI@?$AAe?$AAs?$AA?9?$AAB?$AAO@ 0000000180029fd0     libucrt:lcidtoname_downlevel.obj
 0002:00006fe0       ??_C@_1M@CPKKEBLD@?$AAe?$AAs?$AA?9?$AAS?$AAV@ 0000000180029fe0     libucrt:lcidtoname_downlevel.obj
 0002:00006ff0       ??_C@_1M@NDBGMMJL@?$AAe?$AAs?$AA?9?$AAH?$AAN@ 0000000180029ff0     libucrt:lcidtoname_downlevel.obj
 0002:00007000       ??_C@_1M@JIJIBHDP@?$AAe?$AAs?$AA?9?$AAN?$AAI@ 000000018002a000     libucrt:lcidtoname_downlevel.obj
 0002:00007010       ??_C@_1M@CGFMKEEK@?$AAe?$AAs?$AA?9?$AAP?$AAR@ 000000018002a010     libucrt:lcidtoname_downlevel.obj
 0002:00007020       ??_C@_1O@ICJHKIIK@?$AAz?$AAh?$AA?9?$AAC?$AAH?$AAT@ 000000018002a020     libucrt:lcidtoname_downlevel.obj
 0002:00007030       ??_C@_15CLNEJCE@?$AAs?$AAr@ 000000018002a030     libucrt:lcidtoname_downlevel.obj
 0002:00007e80       ??_C@_1M@KAHEKEIG@?$AAa?$AAf?$AA?9?$AAz?$AAa@ 000000018002ae80     libucrt:lcidtoname_downlevel.obj
 0002:00007e90       ??_C@_1M@GIECOABL@?$AAa?$AAr?$AA?9?$AAa?$AAe@ 000000018002ae90     libucrt:lcidtoname_downlevel.obj
 0002:00007ea0       ??_C@_1M@BMLMEKGI@?$AAa?$AAr?$AA?9?$AAb?$AAh@ 000000018002aea0     libucrt:lcidtoname_downlevel.obj
 0002:00007eb0       ??_C@_1M@DAPFDGGB@?$AAa?$AAr?$AA?9?$AAd?$AAz@ 000000018002aeb0     libucrt:lcidtoname_downlevel.obj
 0002:00007ec0       ??_C@_1M@FJNKGKIG@?$AAa?$AAr?$AA?9?$AAe?$AAg@ 000000018002aec0     libucrt:lcidtoname_downlevel.obj
 0002:00007ed0       ??_C@_1M@FLGKKCLO@?$AAa?$AAr?$AA?9?$AAi?$AAq@ 000000018002aed0     libucrt:lcidtoname_downlevel.obj
 0002:00007ee0       ??_C@_1M@GNDIPALM@?$AAa?$AAr?$AA?9?$AAj?$AAo@ 000000018002aee0     libucrt:lcidtoname_downlevel.obj
 0002:00007ef0       ??_C@_1M@DDMJFMGJ@?$AAa?$AAr?$AA?9?$AAk?$AAw@ 000000018002aef0     libucrt:lcidtoname_downlevel.obj
 0002:00007f00       ??_C@_1M@EJALMLHM@?$AAa?$AAr?$AA?9?$AAl?$AAb@ 000000018002af00     libucrt:lcidtoname_downlevel.obj
 0002:00007f10       ??_C@_1M@MOBDBLOC@?$AAa?$AAr?$AA?9?$AAl?$AAy@ 000000018002af10     libucrt:lcidtoname_downlevel.obj
 0002:00007f20       ??_C@_1M@JAOCLHDH@?$AAa?$AAr?$AA?9?$AAm?$AAa@ 000000018002af20     libucrt:lcidtoname_downlevel.obj
 0002:00007f30       ??_C@_1M@JHPMKJIE@?$AAa?$AAr?$AA?9?$AAo?$AAm@ 000000018002af30     libucrt:lcidtoname_downlevel.obj
 0002:00007f40       ??_C@_1M@OEPGHFNH@?$AAa?$AAr?$AA?9?$AAq?$AAa@ 000000018002af40     libucrt:lcidtoname_downlevel.obj
 0002:00007f50       ??_C@_1M@KJDONENM@?$AAa?$AAr?$AA?9?$AAs?$AAa@ 000000018002af50     libucrt:lcidtoname_downlevel.obj
 0002:00007f60       ??_C@_1M@DMJDKLKM@?$AAa?$AAr?$AA?9?$AAs?$AAy@ 000000018002af60     libucrt:lcidtoname_downlevel.obj
 0002:00007f70       ??_C@_1M@OMFIPEDC@?$AAa?$AAr?$AA?9?$AAt?$AAn@ 000000018002af70     libucrt:lcidtoname_downlevel.obj
 0002:00007f80       ??_C@_1M@IHMHGAON@?$AAa?$AAr?$AA?9?$AAy?$AAe@ 000000018002af80     libucrt:lcidtoname_downlevel.obj
 0002:00007f90       ??_C@_1BG@KDCPGJGB@?$AAa?$AAz?$AA?9?$AAa?$AAz?$AA?9?$AAc?$AAy?$AAr?$AAl@ 000000018002af90     libucrt:lcidtoname_downlevel.obj
 0002:00007fa8       ??_C@_1BG@IBCKDDOE@?$AAa?$AAz?$AA?9?$AAa?$AAz?$AA?9?$AAl?$AAa?$AAt?$AAn@ 000000018002afa8     libucrt:lcidtoname_downlevel.obj
 0002:00007fc0       ??_C@_1M@EGPFDCPD@?$AAb?$AAe?$AA?9?$AAb?$AAy@ 000000018002afc0     libucrt:lcidtoname_downlevel.obj
 0002:00007fd0       ??_C@_1M@PCMGMCGC@?$AAb?$AAg?$AA?9?$AAb?$AAg@ 000000018002afd0     libucrt:lcidtoname_downlevel.obj
 0002:00007fe0       ??_C@_1M@BJBMFGOB@?$AAb?$AAn?$AA?9?$AAi?$AAn@ 000000018002afe0     libucrt:lcidtoname_downlevel.obj
 0002:00007ff0       ??_C@_1BG@EAKMMACD@?$AAb?$AAs?$AA?9?$AAb?$AAa?$AA?9?$AAl?$AAa?$AAt?$AAn@ 000000018002aff0     libucrt:lcidtoname_downlevel.obj
 0002:00008008       ??_C@_1M@KGADAODK@?$AAc?$AAa?$AA?9?$AAe?$AAs@ 000000018002b008     libucrt:lcidtoname_downlevel.obj
 0002:00008018       ??_C@_1M@COAJPDHI@?$AAc?$AAs?$AA?9?$AAc?$AAz@ 000000018002b018     libucrt:lcidtoname_downlevel.obj
 0002:00008028       ??_C@_1M@DHBHFONH@?$AAc?$AAy?$AA?9?$AAg?$AAb@ 000000018002b028     libucrt:lcidtoname_downlevel.obj
 0002:00008038       ??_C@_1M@IMGKELGA@?$AAd?$AAa?$AA?9?$AAd?$AAk@ 000000018002b038     libucrt:lcidtoname_downlevel.obj
 0002:00008048       ??_C@_1M@NNDGDNGA@?$AAd?$AAe?$AA?9?$AAa?$AAt@ 000000018002b048     libucrt:lcidtoname_downlevel.obj
 0002:00008058       ??_C@_1M@IKDBHEEM@?$AAd?$AAe?$AA?9?$AAc?$AAh@ 000000018002b058     libucrt:lcidtoname_downlevel.obj
 0002:00008068       ??_C@_1M@GFFOJMCJ@?$AAd?$AAe?$AA?9?$AAd?$AAe@ 000000018002b068     libucrt:lcidtoname_downlevel.obj
 0002:00008078       ??_C@_1M@MDNLKBPM@?$AAd?$AAe?$AA?9?$AAl?$AAi@ 000000018002b078     libucrt:lcidtoname_downlevel.obj
 0002:00008088       ??_C@_1M@NJBEEJNL@?$AAd?$AAe?$AA?9?$AAl?$AAu@ 000000018002b088     libucrt:lcidtoname_downlevel.obj
 0002:00008098       ??_C@_1O@GNNELBAP@?$AAd?$AAi?$AAv?$AA?9?$AAm?$AAv@ 000000018002b098     libucrt:lcidtoname_downlevel.obj
 0002:000080a8       ??_C@_1M@EJLEOGAE@?$AAe?$AAl?$AA?9?$AAg?$AAr@ 000000018002b0a8     libucrt:lcidtoname_downlevel.obj
 0002:000080b8       ??_C@_1M@GMPONJN@?$AAe?$AAn?$AA?9?$AAa?$AAu@ 000000018002b0b8     libucrt:lcidtoname_downlevel.obj
 0002:000080c8       ??_C@_1M@NIDIIPGF@?$AAe?$AAn?$AA?9?$AAb?$AAz@ 000000018002b0c8     libucrt:lcidtoname_downlevel.obj
 0002:000080d8       ??_C@_1M@JEHMIMFO@?$AAe?$AAn?$AA?9?$AAc?$AAa@ 000000018002b0d8     libucrt:lcidtoname_downlevel.obj
 0002:000080e8       ??_C@_1M@IGMJCDLA@?$AAe?$AAn?$AA?9?$AAc?$AAb@ 000000018002b0e8     libucrt:lcidtoname_downlevel.obj
 0002:000080f8       ??_C@_1M@BNFIGBKG@?$AAe?$AAn?$AA?9?$AAg?$AAb@ 000000018002b0f8     libucrt:lcidtoname_downlevel.obj
 0002:00008108       ??_C@_1M@LKIFDIGP@?$AAe?$AAn?$AA?9?$AAi?$AAe@ 000000018002b108     libucrt:lcidtoname_downlevel.obj
 0002:00008118       ??_C@_1M@PJKFGCCO@?$AAe?$AAn?$AA?9?$AAj?$AAm@ 000000018002b118     libucrt:lcidtoname_downlevel.obj
 0002:00008128       ??_C@_1M@KPPKEPBO@?$AAe?$AAn?$AA?9?$AAn?$AAz@ 000000018002b128     libucrt:lcidtoname_downlevel.obj
 0002:00008138       ??_C@_1M@GMDGLDOB@?$AAe?$AAn?$AA?9?$AAp?$AAh@ 000000018002b138     libucrt:lcidtoname_downlevel.obj
 0002:00008148       ??_C@_1M@ONGIBJNA@?$AAe?$AAn?$AA?9?$AAt?$AAt@ 000000018002b148     libucrt:lcidtoname_downlevel.obj
 0002:00008158       ??_C@_1M@LLODPCMM@?$AAe?$AAn?$AA?9?$AAu?$AAs@ 000000018002b158     libucrt:lcidtoname_downlevel.obj
 0002:00008168       ??_C@_1M@LAKFNPAN@?$AAe?$AAn?$AA?9?$AAz?$AAa@ 000000018002b168     libucrt:lcidtoname_downlevel.obj
 0002:00008178       ??_C@_1M@MFNHNHEO@?$AAe?$AAn?$AA?9?$AAz?$AAw@ 000000018002b178     libucrt:lcidtoname_downlevel.obj
 0002:00008188       ??_C@_1M@EJEINPHM@?$AAe?$AAs?$AA?9?$AAa?$AAr@ 000000018002b188     libucrt:lcidtoname_downlevel.obj
 0002:00008198       ??_C@_1M@GNKPCCJA@?$AAe?$AAs?$AA?9?$AAb?$AAo@ 000000018002b198     libucrt:lcidtoname_downlevel.obj
 0002:000081a8       ??_C@_1M@LEEGFONL@?$AAe?$AAs?$AA?9?$AAc?$AAl@ 000000018002b1a8     libucrt:lcidtoname_downlevel.obj
 0002:000081b8       ??_C@_1M@KGPDPBDF@?$AAe?$AAs?$AA?9?$AAc?$AAo@ 000000018002b1b8     libucrt:lcidtoname_downlevel.obj
 0002:000081c8       ??_C@_1M@EIAHOHH@?$AAe?$AAs?$AA?9?$AAc?$AAr@ 000000018002b1c8     libucrt:lcidtoname_downlevel.obj
 0002:000081d8       ??_C@_1M@LLPGMBIN@?$AAe?$AAs?$AA?9?$AAd?$AAo@ 000000018002b1d8     libucrt:lcidtoname_downlevel.obj
 0002:000081e8       ??_C@_1M@DKHMKNJA@?$AAe?$AAs?$AA?9?$AAe?$AAc@ 000000018002b1e8     libucrt:lcidtoname_downlevel.obj
 0002:000081f8       ??_C@_1M@GKGFPKAP@?$AAe?$AAs?$AA?9?$AAe?$AAs@ 000000018002b1f8     libucrt:lcidtoname_downlevel.obj
 0002:00008208       ??_C@_1M@LKHKGDLN@?$AAe?$AAs?$AA?9?$AAg?$AAt@ 000000018002b208     libucrt:lcidtoname_downlevel.obj
 0002:00008218       ??_C@_1M@HEIIGGJD@?$AAe?$AAs?$AA?9?$AAh?$AAn@ 000000018002b218     libucrt:lcidtoname_downlevel.obj
 0002:00008228       ??_C@_1M@FBDHPPGD@?$AAe?$AAs?$AA?9?$AAm?$AAx@ 000000018002b228     libucrt:lcidtoname_downlevel.obj
 0002:00008238       ??_C@_1M@DPAGLNDH@?$AAe?$AAs?$AA?9?$AAn?$AAi@ 000000018002b238     libucrt:lcidtoname_downlevel.obj
 0002:00008248       ??_C@_1M@MDGOPGDD@?$AAe?$AAs?$AA?9?$AAp?$AAa@ 000000018002b248     libucrt:lcidtoname_downlevel.obj
 0002:00008258       ??_C@_1M@EMAMGBGE@?$AAe?$AAs?$AA?9?$AAp?$AAe@ 000000018002b258     libucrt:lcidtoname_downlevel.obj
 0002:00008268       ??_C@_1M@IBMCAOEC@?$AAe?$AAs?$AA?9?$AAp?$AAr@ 000000018002b268     libucrt:lcidtoname_downlevel.obj
 0002:00008278       ??_C@_1M@FGMDIJED@?$AAe?$AAs?$AA?9?$AAp?$AAy@ 000000018002b278     libucrt:lcidtoname_downlevel.obj
 0002:00008288       ??_C@_1M@IIDEOLLL@?$AAe?$AAs?$AA?9?$AAs?$AAv@ 000000018002b288     libucrt:lcidtoname_downlevel.obj
 0002:00008298       ??_C@_1M@GAOBIPA@?$AAe?$AAs?$AA?9?$AAu?$AAy@ 000000018002b298     libucrt:lcidtoname_downlevel.obj
 0002:000082a8       ??_C@_1M@JKFFICHJ@?$AAe?$AAs?$AA?9?$AAv?$AAe@ 000000018002b2a8     libucrt:lcidtoname_downlevel.obj
 0002:000082b8       ??_C@_1M@PNMLOJDF@?$AAe?$AAt?$AA?9?$AAe?$AAe@ 000000018002b2b8     libucrt:lcidtoname_downlevel.obj
 0002:000082c8       ??_C@_1M@GHHLIKEI@?$AAe?$AAu?$AA?9?$AAe?$AAs@ 000000018002b2c8     libucrt:lcidtoname_downlevel.obj
 0002:000082d8       ??_C@_1M@PBNONODE@?$AAf?$AAa?$AA?9?$AAi?$AAr@ 000000018002b2d8     libucrt:lcidtoname_downlevel.obj
 0002:000082e8       ??_C@_1M@JEEHPMIL@?$AAf?$AAi?$AA?9?$AAf?$AAi@ 000000018002b2e8     libucrt:lcidtoname_downlevel.obj
 0002:000082f8       ??_C@_1M@LMDCNDBA@?$AAf?$AAo?$AA?9?$AAf?$AAo@ 000000018002b2f8     libucrt:lcidtoname_downlevel.obj
 0002:00008308       ??_C@_1M@JKEOHLDK@?$AAf?$AAr?$AA?9?$AAb?$AAe@ 000000018002b308     libucrt:lcidtoname_downlevel.obj
 0002:00008318       ??_C@_1M@NOHADPMI@?$AAf?$AAr?$AA?9?$AAc?$AAa@ 000000018002b318     libucrt:lcidtoname_downlevel.obj
 0002:00008328       ??_C@_1M@KDHIHAEC@?$AAf?$AAr?$AA?9?$AAc?$AAh@ 000000018002b328     libucrt:lcidtoname_downlevel.obj
 0002:00008338       ??_C@_1M@MMBBFGAK@?$AAf?$AAr?$AA?9?$AAf?$AAr@ 000000018002b338     libucrt:lcidtoname_downlevel.obj
 0002:00008348       ??_C@_1M@PAFNENNF@?$AAf?$AAr?$AA?9?$AAl?$AAu@ 000000018002b348     libucrt:lcidtoname_downlevel.obj
 0002:00008358       ??_C@_1M@EOHDJGDD@?$AAf?$AAr?$AA?9?$AAm?$AAc@ 000000018002b358     libucrt:lcidtoname_downlevel.obj
 0002:00008368       ??_C@_1M@FAPLLOPF@?$AAg?$AAl?$AA?9?$AAe?$AAs@ 000000018002b368     libucrt:lcidtoname_downlevel.obj
 0002:00008378       ??_C@_1M@FOPBFLOO@?$AAg?$AAu?$AA?9?$AAi?$AAn@ 000000018002b378     libucrt:lcidtoname_downlevel.obj
 0002:00008388       ??_C@_1M@KBMCINPM@?$AAh?$AAe?$AA?9?$AAi?$AAl@ 000000018002b388     libucrt:lcidtoname_downlevel.obj
 0002:00008398       ??_C@_1M@BBPHKFPJ@?$AAh?$AAi?$AA?9?$AAi?$AAn@ 000000018002b398     libucrt:lcidtoname_downlevel.obj
 0002:000083a8       ??_C@_1M@PMBNDPHD@?$AAh?$AAr?$AA?9?$AAb?$AAa@ 000000018002b3a8     libucrt:lcidtoname_downlevel.obj
 0002:000083b8       ??_C@_1M@BPCKOEGE@?$AAh?$AAr?$AA?9?$AAh?$AAr@ 000000018002b3b8     libucrt:lcidtoname_downlevel.obj
 0002:000083c8       ??_C@_1M@GACBMHKE@?$AAh?$AAu?$AA?9?$AAh?$AAu@ 000000018002b3c8     libucrt:lcidtoname_downlevel.obj
 0002:000083d8       ??_C@_1M@MILPAJJC@?$AAh?$AAy?$AA?9?$AAa?$AAm@ 000000018002b3d8     libucrt:lcidtoname_downlevel.obj
 0002:000083e8       ??_C@_1M@BABBICEC@?$AAi?$AAd?$AA?9?$AAi?$AAd@ 000000018002b3e8     libucrt:lcidtoname_downlevel.obj
 0002:000083f8       ??_C@_1M@BIKNHHPF@?$AAi?$AAs?$AA?9?$AAi?$AAs@ 000000018002b3f8     libucrt:lcidtoname_downlevel.obj
 0002:00008408       ??_C@_1M@NMPCJPHE@?$AAi?$AAt?$AA?9?$AAc?$AAh@ 000000018002b408     libucrt:lcidtoname_downlevel.obj
 0002:00008418       ??_C@_1M@GHKGFEDF@?$AAi?$AAt?$AA?9?$AAi?$AAt@ 000000018002b418     libucrt:lcidtoname_downlevel.obj
 0002:00008428       ??_C@_1M@NIEJCJJA@?$AAj?$AAa?$AA?9?$AAj?$AAp@ 000000018002b428     libucrt:lcidtoname_downlevel.obj
 0002:00008438       ??_C@_1M@JILFNBIM@?$AAk?$AAa?$AA?9?$AAg?$AAe@ 000000018002b438     libucrt:lcidtoname_downlevel.obj
 0002:00008448       ??_C@_1M@PACPMGPH@?$AAk?$AAk?$AA?9?$AAk?$AAz@ 000000018002b448     libucrt:lcidtoname_downlevel.obj
 0002:00008458       ??_C@_1M@IELFGMHA@?$AAk?$AAn?$AA?9?$AAi?$AAn@ 000000018002b458     libucrt:lcidtoname_downlevel.obj
 0002:00008468       ??_C@_1O@IBBJHCH@?$AAk?$AAo?$AAk?$AA?9?$AAi?$AAn@ 000000018002b468     libucrt:lcidtoname_downlevel.obj
 0002:00008478       ??_C@_1M@DMHAEOGC@?$AAk?$AAo?$AA?9?$AAk?$AAr@ 000000018002b478     libucrt:lcidtoname_downlevel.obj
 0002:00008488       ??_C@_1M@HBAHBIGA@?$AAk?$AAy?$AA?9?$AAk?$AAg@ 000000018002b488     libucrt:lcidtoname_downlevel.obj
 0002:00008498       ??_C@_1M@KPMILCJG@?$AAl?$AAt?$AA?9?$AAl?$AAt@ 000000018002b498     libucrt:lcidtoname_downlevel.obj
 0002:000084a8       ??_C@_1M@BDEKKCA@?$AAl?$AAv?$AA?9?$AAl?$AAv@ 000000018002b4a8     libucrt:lcidtoname_downlevel.obj
 0002:000084b8       ??_C@_1M@ELCKCCJJ@?$AAm?$AAi?$AA?9?$AAn?$AAz@ 000000018002b4b8     libucrt:lcidtoname_downlevel.obj
 0002:000084c8       ??_C@_1M@CBOOLAPA@?$AAm?$AAk?$AA?9?$AAm?$AAk@ 000000018002b4c8     libucrt:lcidtoname_downlevel.obj
 0002:000084d8       ??_C@_1M@GPHNBJKN@?$AAm?$AAl?$AA?9?$AAi?$AAn@ 000000018002b4d8     libucrt:lcidtoname_downlevel.obj
 0002:000084e8       ??_C@_1M@PABJILIG@?$AAm?$AAn?$AA?9?$AAm?$AAn@ 000000018002b4e8     libucrt:lcidtoname_downlevel.obj
 0002:000084f8       ??_C@_1M@FGBKKIPG@?$AAm?$AAr?$AA?9?$AAi?$AAn@ 000000018002b4f8     libucrt:lcidtoname_downlevel.obj
 0002:00008508       ??_C@_1M@NDBPDDAL@?$AAm?$AAs?$AA?9?$AAb?$AAn@ 000000018002b508     libucrt:lcidtoname_downlevel.obj
 0002:00008518       ??_C@_1M@OPIHOOPI@?$AAm?$AAs?$AA?9?$AAm?$AAy@ 000000018002b518     libucrt:lcidtoname_downlevel.obj
 0002:00008528       ??_C@_1M@PPDBCNFM@?$AAm?$AAt?$AA?9?$AAm?$AAt@ 000000018002b528     libucrt:lcidtoname_downlevel.obj
 0002:00008538       ??_C@_1M@KDJDKMDD@?$AAn?$AAb?$AA?9?$AAn?$AAo@ 000000018002b538     libucrt:lcidtoname_downlevel.obj
 0002:00008548       ??_C@_1M@KFCFLMJP@?$AAn?$AAl?$AA?9?$AAb?$AAe@ 000000018002b548     libucrt:lcidtoname_downlevel.obj
 0002:00008558       ??_C@_1M@KPOPDDGO@?$AAn?$AAl?$AA?9?$AAn?$AAl@ 000000018002b558     libucrt:lcidtoname_downlevel.obj
 0002:00008568       ??_C@_1M@LJKPEMLN@?$AAn?$AAn?$AA?9?$AAn?$AAo@ 000000018002b568     libucrt:lcidtoname_downlevel.obj
 0002:00008578       ??_C@_1M@BDGHHBFL@?$AAn?$AAs?$AA?9?$AAz?$AAa@ 000000018002b578     libucrt:lcidtoname_downlevel.obj
 0002:00008588       ??_C@_1M@IDEHOAP@?$AAp?$AAa?$AA?9?$AAi?$AAn@ 000000018002b588     libucrt:lcidtoname_downlevel.obj
 0002:00008598       ??_C@_1M@HDBKGOGH@?$AAp?$AAl?$AA?9?$AAp?$AAl@ 000000018002b598     libucrt:lcidtoname_downlevel.obj
 0002:000085a8       ??_C@_1M@LJLLCMEH@?$AAp?$AAt?$AA?9?$AAb?$AAr@ 000000018002b5a8     libucrt:lcidtoname_downlevel.obj
 0002:000085b8       ??_C@_1M@NCMONAAL@?$AAp?$AAt?$AA?9?$AAp?$AAt@ 000000018002b5b8     libucrt:lcidtoname_downlevel.obj
 0002:000085c8       ??_C@_1O@EAKMAJDN@?$AAq?$AAu?$AAz?$AA?9?$AAb?$AAo@ 000000018002b5c8     libucrt:lcidtoname_downlevel.obj
 0002:000085d8       ??_C@_1O@BHHPIGDN@?$AAq?$AAu?$AAz?$AA?9?$AAe?$AAc@ 000000018002b5d8     libucrt:lcidtoname_downlevel.obj
 0002:000085e8       ??_C@_1O@GBAPEKMJ@?$AAq?$AAu?$AAz?$AA?9?$AAp?$AAe@ 000000018002b5e8     libucrt:lcidtoname_downlevel.obj
 0002:000085f8       ??_C@_1M@CLGLEFBO@?$AAr?$AAo?$AA?9?$AAr?$AAo@ 000000018002b5f8     libucrt:lcidtoname_downlevel.obj
 0002:00008608       ??_C@_1M@CEEDODME@?$AAr?$AAu?$AA?9?$AAr?$AAu@ 000000018002b608     libucrt:lcidtoname_downlevel.obj
 0002:00008618       ??_C@_1M@HPKKKMPP@?$AAs?$AAa?$AA?9?$AAi?$AAn@ 000000018002b618     libucrt:lcidtoname_downlevel.obj
 0002:00008628       ??_C@_1M@BKMAIGOJ@?$AAs?$AAe?$AA?9?$AAf?$AAi@ 000000018002b628     libucrt:lcidtoname_downlevel.obj
 0002:00008638       ??_C@_1M@NDPIFLFI@?$AAs?$AAe?$AA?9?$AAn?$AAo@ 000000018002b638     libucrt:lcidtoname_downlevel.obj
 0002:00008648       ??_C@_1M@DANKKHJ@?$AAs?$AAe?$AA?9?$AAs?$AAe@ 000000018002b648     libucrt:lcidtoname_downlevel.obj
 0002:00008658       ??_C@_1M@PNBLONPJ@?$AAs?$AAk?$AA?9?$AAs?$AAk@ 000000018002b658     libucrt:lcidtoname_downlevel.obj
 0002:00008668       ??_C@_1M@LFMODOAL@?$AAs?$AAl?$AA?9?$AAs?$AAi@ 000000018002b668     libucrt:lcidtoname_downlevel.obj
 0002:00008678       ??_C@_1O@DFKOMPG@?$AAs?$AAm?$AAa?$AA?9?$AAn?$AAo@ 000000018002b678     libucrt:lcidtoname_downlevel.obj
 0002:00008688       ??_C@_1O@NDKPBNNH@?$AAs?$AAm?$AAa?$AA?9?$AAs?$AAe@ 000000018002b688     libucrt:lcidtoname_downlevel.obj
 0002:00008698       ??_C@_1O@PLLKBHAB@?$AAs?$AAm?$AAj?$AA?9?$AAn?$AAo@ 000000018002b698     libucrt:lcidtoname_downlevel.obj
 0002:000086a8       ??_C@_1O@CLEPOGCA@?$AAs?$AAm?$AAj?$AA?9?$AAs?$AAe@ 000000018002b6a8     libucrt:lcidtoname_downlevel.obj
 0002:000086b8       ??_C@_1O@DLGJGKMK@?$AAs?$AAm?$AAn?$AA?9?$AAf?$AAi@ 000000018002b6b8     libucrt:lcidtoname_downlevel.obj
 0002:000086c8       ??_C@_1O@OJDJGAJC@?$AAs?$AAm?$AAs?$AA?9?$AAf?$AAi@ 000000018002b6c8     libucrt:lcidtoname_downlevel.obj
 0002:000086d8       ??_C@_1M@BOFOGHPB@?$AAs?$AAq?$AA?9?$AAa?$AAl@ 000000018002b6d8     libucrt:lcidtoname_downlevel.obj
 0002:000086e8       ??_C@_1BG@LJBBIPGB@?$AAs?$AAr?$AA?9?$AAb?$AAa?$AA?9?$AAc?$AAy?$AAr?$AAl@ 000000018002b6e8     libucrt:lcidtoname_downlevel.obj
 0002:00008700       ??_C@_1BG@JLBENFOE@?$AAs?$AAr?$AA?9?$AAb?$AAa?$AA?9?$AAl?$AAa?$AAt?$AAn@ 000000018002b700     libucrt:lcidtoname_downlevel.obj
 0002:00008718       ??_C@_1BG@KODPNHE@?$AAs?$AAr?$AA?9?$AAs?$AAp?$AA?9?$AAc?$AAy?$AAr?$AAl@ 000000018002b718     libucrt:lcidtoname_downlevel.obj
 0002:00008730       ??_C@_1BG@CIOGKHPB@?$AAs?$AAr?$AA?9?$AAs?$AAp?$AA?9?$AAl?$AAa?$AAt?$AAn@ 000000018002b730     libucrt:lcidtoname_downlevel.obj
 0002:00008748       ??_C@_1M@NGFJLMAC@?$AAs?$AAv?$AA?9?$AAf?$AAi@ 000000018002b748     libucrt:lcidtoname_downlevel.obj
 0002:00008758       ??_C@_1M@MPJEJAJC@?$AAs?$AAv?$AA?9?$AAs?$AAe@ 000000018002b758     libucrt:lcidtoname_downlevel.obj
 0002:00008768       ??_C@_1M@MPNDHLFK@?$AAs?$AAw?$AA?9?$AAk?$AAe@ 000000018002b768     libucrt:lcidtoname_downlevel.obj
 0002:00008778       ??_C@_1O@KOHBJJI@?$AAs?$AAy?$AAr?$AA?9?$AAs?$AAy@ 000000018002b778     libucrt:lcidtoname_downlevel.obj
 0002:00008788       ??_C@_1M@LDCEFHA@?$AAt?$AAa?$AA?9?$AAi?$AAn@ 000000018002b788     libucrt:lcidtoname_downlevel.obj
 0002:00008798       ??_C@_1M@CNJOFAK@?$AAt?$AAe?$AA?9?$AAi?$AAn@ 000000018002b798     libucrt:lcidtoname_downlevel.obj
 0002:000087a8       ??_C@_1M@GNAECACD@?$AAt?$AAh?$AA?9?$AAt?$AAh@ 000000018002b7a8     libucrt:lcidtoname_downlevel.obj
 0002:000087b8       ??_C@_1M@CHBIHOJO@?$AAt?$AAn?$AA?9?$AAz?$AAa@ 000000018002b7b8     libucrt:lcidtoname_downlevel.obj
 0002:000087c8       ??_C@_1M@GCCMIGPJ@?$AAt?$AAr?$AA?9?$AAt?$AAr@ 000000018002b7c8     libucrt:lcidtoname_downlevel.obj
 0002:000087d8       ??_C@_1M@CELMCNBK@?$AAt?$AAt?$AA?9?$AAr?$AAu@ 000000018002b7d8     libucrt:lcidtoname_downlevel.obj
 0002:000087e8       ??_C@_1M@KLMCELGA@?$AAu?$AAk?$AA?9?$AAu?$AAa@ 000000018002b7e8     libucrt:lcidtoname_downlevel.obj
 0002:000087f8       ??_C@_1M@EPAJJAJF@?$AAu?$AAr?$AA?9?$AAp?$AAk@ 000000018002b7f8     libucrt:lcidtoname_downlevel.obj
 0002:00008808       ??_C@_1BG@GEGPMCDJ@?$AAu?$AAz?$AA?9?$AAu?$AAz?$AA?9?$AAc?$AAy?$AAr?$AAl@ 000000018002b808     libucrt:lcidtoname_downlevel.obj
 0002:00008820       ??_C@_1BG@EGGKJILM@?$AAu?$AAz?$AA?9?$AAu?$AAz?$AA?9?$AAl?$AAa?$AAt?$AAn@ 000000018002b820     libucrt:lcidtoname_downlevel.obj
 0002:00008838       ??_C@_1M@GFOCLFF@?$AAv?$AAi?$AA?9?$AAv?$AAn@ 000000018002b838     libucrt:lcidtoname_downlevel.obj
 0002:00008848       ??_C@_1M@CPAMEDFI@?$AAx?$AAh?$AA?9?$AAz?$AAa@ 000000018002b848     libucrt:lcidtoname_downlevel.obj
 0002:00008858       ??_C@_1O@EBKIFIGN@?$AAz?$AAh?$AA?9?$AAc?$AAh?$AAs@ 000000018002b858     libucrt:lcidtoname_downlevel.obj
 0002:00008868       ??_C@_1O@NMHPGANE@?$AAz?$AAh?$AA?9?$AAc?$AAh?$AAt@ 000000018002b868     libucrt:lcidtoname_downlevel.obj
 0002:00008878       ??_C@_1M@LPINJOMC@?$AAz?$AAh?$AA?9?$AAc?$AAn@ 000000018002b878     libucrt:lcidtoname_downlevel.obj
 0002:00008888       ??_C@_1M@OCJEJODD@?$AAz?$AAh?$AA?9?$AAh?$AAk@ 000000018002b888     libucrt:lcidtoname_downlevel.obj
 0002:00008898       ??_C@_1M@DNDLJINH@?$AAz?$AAh?$AA?9?$AAm?$AAo@ 000000018002b898     libucrt:lcidtoname_downlevel.obj
 0002:000088a8       ??_C@_1M@MBFDNDND@?$AAz?$AAh?$AA?9?$AAs?$AAg@ 000000018002b8a8     libucrt:lcidtoname_downlevel.obj
 0002:000088b8       ??_C@_1M@IMEPLEPE@?$AAz?$AAh?$AA?9?$AAt?$AAw@ 000000018002b8b8     libucrt:lcidtoname_downlevel.obj
 0002:000088c8       ??_C@_1M@BBGHNHJP@?$AAz?$AAu?$AA?9?$AAz?$AAa@ 000000018002b8c8     libucrt:lcidtoname_downlevel.obj
 0002:000088e0       ?large_power_data@?1??multiply_by_power_of_ten@__crt_strtox@@YA_NAEAUbig_integer@2@I@Z@4QBIB 000000018002b8e0     libucrt:cfout.obj
 0002:000091f0       ?large_power_indices@?1??multiply_by_power_of_ten@__crt_strtox@@YA_NAEAUbig_integer@2@I@Z@4QBUunpack_index@?1??12@YA_N0I@Z@B 000000018002c1f0     libucrt:cfout.obj
 0002:00009288       ?small_powers_of_ten@?1??multiply_by_power_of_ten@__crt_strtox@@YA_NAEAUbig_integer@2@I@Z@4QBIB 000000018002c288     libucrt:cfout.obj
 0002:000092ac       ??_C@_01GBGANLPD@0@        000000018002c2ac     libucrt:cfout.obj
 0002:000092b0       ??_C@_05DNEBIAHO@1?$CDINF@ 000000018002c2b0     libucrt:cfout.obj
 0002:000092b8       ??_C@_06IMKFLFPG@1?$CDQNAN@ 000000018002c2b8     libucrt:cfout.obj
 0002:000092c0       ??_C@_06PGGFOGJG@1?$CDSNAN@ 000000018002c2c0     libucrt:cfout.obj
 0002:000092c8       ??_C@_05PHHOCPM@1?$CDIND@  000000018002c2c8     libucrt:cfout.obj
 0002:000092d0       __real@3ff0000000000000    000000018002c2d0     libucrt:ceil.obj
 0002:00009530       __log10_256_lead           000000018002c530     libucrt:log10_256_lead_tail_table.obj
 0002:00009d40       __log10_256_tail           000000018002cd40     libucrt:log10_256_lead_tail_table.obj
 0002:0000a550       __log_F_inv_qword          000000018002d550     libucrt:log_f_inv_qword_table.obj
 0002:0000ad60       ??_C@_05HGHHAHAP@log10@    000000018002dd60     libucrt:log_special.obj
 0002:0000ad68       ??_C@_1BA@BALFACEM@?$AAC?$AAO?$AAN?$AAO?$AAU?$AAT?$AA$@ 000000018002dd68     libucrt:initcon.obj
 0002:0000adf0       _load_config_used          000000018002ddf0     LIBCMT:loadcfg.obj
 0002:0000af20       _tls_used                  000000018002df20     LIBCMT:tlssup.obj
 0002:0000af48       ??_R4exception@std@@6B@    000000018002df48     LIBCMT:throw_bad_alloc.obj
 0002:0000af70       ??_R3exception@std@@8      000000018002df70     LIBCMT:throw_bad_alloc.obj
 0002:0000af88       ??_R2exception@std@@8      000000018002df88     LIBCMT:throw_bad_alloc.obj
 0002:0000af98       ??_R1A@?0A@EA@exception@std@@8 000000018002df98     LIBCMT:throw_bad_alloc.obj
 0002:0000afc0       ??_R4bad_alloc@std@@6B@    000000018002dfc0     LIBCMT:throw_bad_alloc.obj
 0002:0000afe8       ??_R3bad_alloc@std@@8      000000018002dfe8     LIBCMT:throw_bad_alloc.obj
 0002:0000b000       ??_R2bad_alloc@std@@8      000000018002e000     LIBCMT:throw_bad_alloc.obj
 0002:0000b018       ??_R1A@?0A@EA@bad_alloc@std@@8 000000018002e018     LIBCMT:throw_bad_alloc.obj
 0002:0000b040       ??_R4bad_array_new_length@std@@6B@ 000000018002e040     LIBCMT:throw_bad_alloc.obj
 0002:0000b068       ??_R3bad_array_new_length@std@@8 000000018002e068     LIBCMT:throw_bad_alloc.obj
 0002:0000b080       ??_R2bad_array_new_length@std@@8 000000018002e080     LIBCMT:throw_bad_alloc.obj
 0002:0000b0a0       ??_R1A@?0A@EA@bad_array_new_length@std@@8 000000018002e0a0     LIBCMT:throw_bad_alloc.obj
 0002:0000b0c8       ??_R4type_info@@6B@        000000018002e0c8     LIBCMT:std_type_info_static.obj
 0002:0000b0f0       ??_R3type_info@@8          000000018002e0f0     LIBCMT:std_type_info_static.obj
 0002:0000b108       ??_R2type_info@@8          000000018002e108     LIBCMT:std_type_info_static.obj
 0002:0000b118       ??_R1A@?0A@EA@type_info@@8 000000018002e118     LIBCMT:std_type_info_static.obj
 0002:0000b140       ??_R4bad_exception@std@@6B@ 000000018002e140     libvcruntime:frame.obj
 0002:0000b168       ??_R3bad_exception@std@@8  000000018002e168     libvcruntime:frame.obj
 0002:0000b180       ??_R2bad_exception@std@@8  000000018002e180     libvcruntime:frame.obj
 0002:0000b198       ??_R1A@?0A@EA@bad_exception@std@@8 000000018002e198     libvcruntime:frame.obj
 0002:0000b5c0       __rtc_iaa                  000000018002e5c0     LIBCMT:initsect.obj
 0002:0000b5c8       __rtc_izz                  000000018002e5c8     LIBCMT:initsect.obj
 0002:0000b5d0       __rtc_taa                  000000018002e5d0     LIBCMT:initsect.obj
 0002:0000b5d8       __rtc_tzz                  000000018002e5d8     LIBCMT:initsect.obj
 0002:0000b5e0       _tls_start                 000000018002e5e0     LIBCMT:tlssup.obj
 0002:0000b5e4       _Init_thread_epoch         000000018002e5e4     LIBCMT:thread_safe_statics.obj
 0002:0000b5e8       _tls_end                   000000018002e5e8     LIBCMT:tlssup.obj
 0002:0000cca0       _TI2?AVbad_alloc@std@@     000000018002fca0     LIBCMT:throw_bad_alloc.obj
 0002:0000ccc0       _CTA2?AVbad_alloc@std@@    000000018002fcc0     LIBCMT:throw_bad_alloc.obj
 0002:0000ccd8       _CT??_R0?AVbad_alloc@std@@@8??0bad_alloc@std@@QEAA@AEBV01@@Z24 000000018002fcd8     LIBCMT:throw_bad_alloc.obj
 0002:0000cd00       _CT??_R0?AVexception@std@@@8??0exception@std@@QEAA@AEBV01@@Z24 000000018002fd00     LIBCMT:throw_bad_alloc.obj
 0002:0000cd28       _TI3?AVbad_array_new_length@std@@ 000000018002fd28     LIBCMT:throw_bad_alloc.obj
 0002:0000cd48       _CTA3?AVbad_array_new_length@std@@ 000000018002fd48     LIBCMT:throw_bad_alloc.obj
 0002:0000cd68       _CT??_R0?AVbad_array_new_length@std@@@8??0bad_array_new_length@std@@QEAA@AEBV01@@Z24 000000018002fd68     LIBCMT:throw_bad_alloc.obj
 0002:0000cd90       _TI2?AVbad_exception@std@@ 000000018002fd90     libvcruntime:frame.obj
 0002:0000cdb0       _CTA2?AVbad_exception@std@@ 000000018002fdb0     libvcruntime:frame.obj
 0002:0000cdc8       _CT??_R0?AVbad_exception@std@@@8??0bad_exception@std@@QEAA@AEBV01@@Z24 000000018002fdc8     libvcruntime:frame.obj
 0002:0000cdf0       __pobjMapEntryFirst        000000018002fdf0     OposVariant.obj
 0002:0000cdf8       __pobjMapEntryLast         000000018002fdf8     OposVariant.obj
 0002:0000cea8       __IMPORT_DESCRIPTOR_KERNEL32 000000018002fea8     kernel32:KERNEL32.dll
 0002:0000cebc       __IMPORT_DESCRIPTOR_USER32 000000018002febc     user32:USER32.dll
 0002:0000ced0       __IMPORT_DESCRIPTOR_GDI32  000000018002fed0     gdi32:GDI32.dll
 0002:0000cee4       __IMPORT_DESCRIPTOR_ADVAPI32 000000018002fee4     advapi32:ADVAPI32.dll
 0002:0000cef8       __IMPORT_DESCRIPTOR_ole32  000000018002fef8     ole32:ole32.dll
 0002:0000cf0c       __IMPORT_DESCRIPTOR_OLEAUT32 000000018002ff0c     oleaut32:OLEAUT32.dll
 0002:0000cf20       __NULL_IMPORT_DESCRIPTOR   000000018002ff20     kernel32:KERNEL32.dll
 0003:00000000       ?s_Claim@?7??GetIDsOfNames@CComTypeInfoHolder@ATL@@QEAAJAEBU_GUID@@PEAPEA_WIKPEAJ@Z@4PA_WA 0000000180032000     SigCap.obj
 0003:00000018       ?s_Release@?7??GetIDsOfNames@CComTypeInfoHolder@ATL@@QEAAJAEBU_GUID@@PEAPEA_WIKPEAJ@Z@4PA_WA 0000000180032018     SigCap.obj
 0003:00000038       ?_tih@?$IDispatchImpl@UIOPOSSigCap@@$1?IID_IOPOSSigCap@@3U_GUID@@B$1?LIBID_OposSigCap_CCO@@3U3@B$00$0A@VCComTypeInfoHolder@ATL@@@ATL@@1VCComTypeInfoHolder@2@A 0000000180032038     SigCap.obj
 0003:00000070       ?_tih@?$IProvideClassInfo2Impl@$1?CLSID_OPOSSigCap@@3U_GUID@@B$1?DIID__IOPOSSigCapEvents@@3U2@B$1?LIBID_OposSigCap_CCO@@3U2@B$00$0A@VCComTypeInfoHolder@ATL@@@ATL@@1VCComTypeInfoHolder@2@A 0000000180032070     SigCap.obj
 0003:000000a8       ?vszContents@?6??Save@?$IPersistStorageImpl@VCOPOSSigCap@@@ATL@@UEAAJPEAUIStorage@@H@Z@4PEB_WEB 00000001800320a8     SigCap.obj
 0003:000000b0       ?wc@?1??GetWndClassInfo@?$CWindowImpl@VCOPOSSigCap@@VCWindow@ATL@@V?$CWinTraits@$0FGAAAAAA@$0A@@3@@ATL@@SAAEAU_ATL_WNDCLASSINFOW@3@XZ@4U43@A 00000001800320b0     SigCap.obj
 0003:000001a8       ?rcDefault@CWindow@ATL@@2UtagRECT@@A 00000001800321a8     SigCap.obj
 0003:00000250       ?g_WindowName@@3PA_WA      0000000180032250     SigCapImpl.obj
 0003:0000026c       ?g_ControlVersion@@3JA     000000018003226c     SigCapImpl.obj
 0003:00000270       ?g_ControlDescription@@3PADA 0000000180032270     SigCapImpl.obj
 0003:00000394       __scrt_native_dllmain_reason 0000000180032394     LIBCMT:utility.obj
 0003:00000398       _Init_global_epoch         0000000180032398     LIBCMT:thread_safe_statics.obj
 0003:000003a0       __security_cookie_complement 00000001800323a0     LIBCMT:gs_cookie.obj
 0003:000003a8       __security_cookie          00000001800323a8     LIBCMT:gs_cookie.obj
 0003:000003b0       __isa_available            00000001800323b0     LIBCMT:cpu_disp.obj
 0003:000003b4       __isa_enabled              00000001800323b4     LIBCMT:cpu_disp.obj
 0003:000003b8       __memcpy_nt_iters          00000001800323b8     LIBCMT:cpu_disp.obj
 0003:000003c0       __memset_nt_iters          00000001800323c0     LIBCMT:cpu_disp.obj
 0003:000003e8       __abort_behavior           00000001800323e8     libucrt:abort.obj
 0003:00000400       _iob                       0000000180032400     libucrt:_file.obj
 0003:00000510       __acrt_initial_locale_data 0000000180032510     libucrt:nlsdata.obj
 0003:00000668       __acrt_initial_locale_pointers 0000000180032668     libucrt:nlsdata.obj
 0003:00000678       __acrt_wide_c_locale_string 0000000180032678     libucrt:nlsdata.obj
 0003:00000680       __acrt_initial_multibyte_data 0000000180032680     libucrt:mbctype.obj
 0003:00000bc0       _pwctype                   0000000180032bc0     libucrt:ctype.obj
 0003:00000bc8       __globallocalestatus       0000000180032bc8     libucrt:glstatus.obj
 0003:00000bd0       __acrt_lconv_c             0000000180032bd0     libucrt:localeconv.obj
 0003:00000c68       __acrt_lconv_static_decimal 0000000180032c68     libucrt:localeconv.obj
 0003:00000c6c       __acrt_lconv_static_W_decimal 0000000180032c6c     libucrt:localeconv.obj
 0003:00000c70       _lookuptrailbytes          0000000180032c70     libucrt:read.obj
 0003:00000d94       _fltused                   0000000180032d94     LIBCMT:fltused.obj
 0003:00000d98       ??_R0?AVbad_alloc@std@@@8  0000000180032d98     LIBCMT:throw_bad_alloc.obj
 0003:00000dc0       ??_R0?AVexception@std@@@8  0000000180032dc0     LIBCMT:throw_bad_alloc.obj
 0003:00000de8       ??_R0?AVbad_array_new_length@std@@@8 0000000180032de8     LIBCMT:throw_bad_alloc.obj
 0003:00000e18       ??_R0?AVtype_info@@@8      0000000180032e18     LIBCMT:std_type_info_static.obj
 0003:00000e38       ??_R0?AVbad_exception@std@@@8 0000000180032e38     libvcruntime:frame.obj
 0003:00000e60       ?_pPerfRegFunc@ATL@@3P6AJPEAUHINSTANCE__@@@ZEA 0000000180032e60     OposVariant.obj
 0003:00000e68       ?_pPerfUnRegFunc@ATL@@3P6AJXZEA 0000000180032e68     OposVariant.obj
 0003:00000e70       ?_AtlRegisterPerUser@ATL@@3_NA 0000000180032e70     OposVariant.obj
 0003:00000e78       ?_pAtlModule@ATL@@3PEAVCAtlModule@1@EA 0000000180032e78     OposVariant.obj
 0003:00000e80       ?_pModule@ATL@@3PEAVCComModule@1@EA 0000000180032e80     OposVariant.obj
 0003:00000e88       ?m_bInitFailed@CAtlBaseModule@ATL@@2_NA 0000000180032e88     OposVariant.obj
 0003:00000e90       ?_AtlComModule@ATL@@3VCAtlComModule@1@A 0000000180032e90     OposVariant.obj
 0003:00000ee0       ?_AtlWinModule@ATL@@3VCAtlWinModule@1@A 0000000180032ee0     OposVariant.obj
 0003:00000f28       ?m_libid@CAtlModule@ATL@@2U_GUID@@A 0000000180032f28     SigCap.obj
 0003:00000f38       ?_entries@?1??GetConnMap@COPOSSigCap@@SAPEBU_ATL_CONNMAP_ENTRY@ATL@@PEAH@Z@4QBU34@B 0000000180032f38     SigCap.obj
 0003:00000f50       ?$TSS0@?1??GetConnMap@COPOSSigCap@@SAPEBU_ATL_CONNMAP_ENTRY@ATL@@PEAH@Z@4HA 0000000180032f50     SigCap.obj
 0003:00000f58       ?_OptionsStorage@?1??__local_stdio_printf_options@@9@4_KA 0000000180032f58     SigCap.obj
 0003:00000f60       ?pfnRegDeleteKeyEx@?1??DeleteSubKey@CRegKey@ATL@@QEAAJPEB_W@Z@4P6AJPEAUHKEY__@@0KK@ZEA 0000000180032f60     SigCap.obj
 0003:00000f68       ?bInitialized@?1??DeleteSubKey@CRegKey@ATL@@QEAAJPEB_W@Z@4_NA 0000000180032f68     SigCap.obj
 0003:00000f70       ?_Module@@3VCComModule@ATL@@A 0000000180032f70     SigCap.obj
 0003:00000fc0       ?pConnMap@?$IConnectionPointContainerImpl@VCOPOSSigCap@@@ATL@@0PEBU_ATL_CONNMAP_ENTRY@2@EB 0000000180032fc0     SigCap.obj
 0003:00000fc8       ?s_nInstances@COPOSSigCap@@1HA 0000000180032fc8     SigCapImpl.obj
 0003:00000fd0       __scrt_current_native_startup_state 0000000180032fd0     LIBCMT:utility.obj
 0003:00000fd8       __scrt_native_startup_lock 0000000180032fd8     LIBCMT:utility.obj
 0003:000015d0       _tls_index                 00000001800335d0     LIBCMT:tlssup.obj
 0003:000015d8       __favor                    00000001800335d8     LIBCMT:cpu_disp.obj
 0003:000015dc       __scrt_debugger_hook_flag  00000001800335dc     LIBCMT:utility_desktop.obj
 0003:000015e0       ?__type_info_root_node@@3U__type_info_node@@A 00000001800335e0     LIBCMT:tncleanup.obj
 0003:000015f0       ?_OptionsStorage@?1??__local_stdio_scanf_options@@9@4_KA 00000001800335f0     LIBCMT:default_local_stdio_options.obj
 0003:00001600       ?_AtlBaseModule@ATL@@3VCAtlBaseModule@1@A 0000000180033600     atls:atlbase.obj
 0003:00001660       ?__AtlThunkPool@@3PEAT_SLIST_HEADER@@EA 0000000180033660     atls:atlthunk.obj
 0003:0000168c       __@@_PchSym_@00@UzABUPdlipUGUhUrmgvinvwrzgvUexgllohUzgohOmzgrevkilqPBACIAJCBDBUlyqiUznwGEUhgwzucOlyq@4B2008FD98C1DD4 000000018003368c     atls:stdafx.obj
 0003:00001690       ?__WinRTOutOfMemoryExceptionCallback@@3P6APEAXXZEA 0000000180033690     libvcruntime:ehhelpers.obj
 0003:00001698       __pPurecall                0000000180033698     libvcruntime:purevirt_data.obj
 0003:00001750       ?pArgList@UnDecorator@@0PEAVReplicator@@EA 0000000180033750     libvcruntime:undname.obj
 0003:00001758       ?pZNameList@UnDecorator@@0PEAVReplicator@@EA 0000000180033758     libvcruntime:undname.obj
 0003:00001760       ?pTemplateArgList@UnDecorator@@0PEAVReplicator@@EA 0000000180033760     libvcruntime:undname.obj
 0003:00001768       ?gName@UnDecorator@@0PEBDEB 0000000180033768     libvcruntime:undname.obj
 0003:00001770       ?name@UnDecorator@@0PEBDEB 0000000180033770     libvcruntime:undname.obj
 0003:00001778       ?disableFlags@UnDecorator@@0KA 0000000180033778     libvcruntime:undname.obj
 0003:0000177c       ?fExplicitTemplateParams@UnDecorator@@0_NA 000000018003377c     libvcruntime:undname.obj
 0003:0000177d       ?fGetTemplateArgumentList@UnDecorator@@0_NA 000000018003377d     libvcruntime:undname.obj
 0003:00001780       ?m_pGetParameter@UnDecorator@@0P6APEADJ@ZEA 0000000180033780     libvcruntime:undname.obj
 0003:00001788       ?m_CHPENameOffset@UnDecorator@@0KA 0000000180033788     libvcruntime:undname.obj
 0003:0000178c       ?m_recursionLevel@UnDecorator@@0KA 000000018003378c     libvcruntime:undname.obj
 0003:00001810       ?c_exit_complete@?1???R<lambda_6e4b09c48022b2350581041d5f6b0c4c>@@QEBA@XZ@4_NA 0000000180033810     libucrt:exit.obj
 0003:00001928       _environ_table             0000000180033928     libucrt:environment_initialization.obj
 0003:00001930       _wenviron_table            0000000180033930     libucrt:environment_initialization.obj
 0003:00001938       __dcrt_initial_wide_environment 0000000180033938     libucrt:environment_initialization.obj
 0003:00001940       __dcrt_initial_narrow_environment 0000000180033940     libucrt:environment_initialization.obj
 0003:00001948       __acrt_atexit_table        0000000180033948     libucrt:onexit.obj
 0003:00001960       __acrt_at_quick_exit_table 0000000180033960     libucrt:onexit.obj
 0003:00001b38       _nstream                   0000000180033b38     libucrt:_file.obj
 0003:00001b40       __piob                     0000000180033b40     libucrt:_file.obj
 0003:00001b50       __acrt_stdout_buffer       0000000180033b50     libucrt:_sftbuf.obj
 0003:00001b58       __acrt_stderr_buffer       0000000180033b58     libucrt:_sftbuf.obj
 0003:00001b60       __acrt_locale_changed_data 0000000180033b60     libucrt:wsetlocale.obj
 0003:00001b68       __acrt_current_locale_data 0000000180033b68     libucrt:nlsdata.obj
 0003:00001b70       __pioinfo                  0000000180033b70     libucrt:ioinit.obj
 0003:00001f70       _nhandle                   0000000180033f70     libucrt:ioinit.obj
 0003:000021b8       _mbctype                   00000001800341b8     libucrt:mbctype.obj
 0003:000021c0       _mbcasemap                 00000001800341c0     libucrt:mbctype.obj
 0003:000021c8       __acrt_current_multibyte_data 00000001800341c8     libucrt:mbctype.obj
 0003:000021d8       _pgmptr                    00000001800341d8     libucrt:argv_data.obj
 0003:000021e0       __argc                     00000001800341e0     libucrt:argv_data.obj
 0003:000021e8       __argv                     00000001800341e8     libucrt:argv_data.obj
 0003:000021f0       __wargv                    00000001800341f0     libucrt:argv_data.obj
 0003:000021f8       _acmdln                    00000001800341f8     libucrt:argv_data.obj
 0003:00002200       _wcmdln                    0000000180034200     libucrt:argv_data.obj
 0003:00002208       __acrt_heap                0000000180034208     libucrt:heap_handle.obj
 0003:0000223c       __acrt_lconv_static_null   000000018003423c     libucrt:localeconv.obj
 0003:00002240       __acrt_lconv_static_W_null 0000000180034240     libucrt:localeconv.obj
 0003:00002254       __fma3_is_available        0000000180034254     libucrt:fma3_available.obj
 0003:00002258       __use_fma3_lib             0000000180034258     libucrt:fma3_available.obj
 0003:00002260       __dyn_tls_init_callback    0000000180034260     <common>
 0003:00002268       __scrt_ucrt_dll_is_in_use  0000000180034268     <common>

 entry point at        0001:0000ebe4

 Static symbols

 0000:fffc2000       .debug$S                   0000000180000000     OPOSSigCap.exp
 0000:fffc2000       .debug$S                   0000000180000000     advapi32:ADVAPI32.dll
 0000:fffc2000       .debug$S                   0000000180000000     advapi32:ADVAPI32.dll
 0000:fffc2000       .debug$S                   0000000180000000     advapi32:ADVAPI32.dll
 0000:fffc2000       .debug$S                   0000000180000000     advapi32:ADVAPI32.dll
 0000:fffc2000       .debug$S                   0000000180000000     advapi32:ADVAPI32.dll
 0000:fffc2000       .debug$S                   0000000180000000     advapi32:ADVAPI32.dll
 0000:fffc2000       .debug$S                   0000000180000000     advapi32:ADVAPI32.dll
 0000:fffc2000       .debug$S                   0000000180000000     advapi32:ADVAPI32.dll
 0000:fffc2000       .debug$S                   0000000180000000     advapi32:ADVAPI32.dll
 0000:fffc2000       .debug$S                   0000000180000000     gdi32:GDI32.dll
 0000:fffc2000       .debug$S                   0000000180000000     gdi32:GDI32.dll
 0000:fffc2000       .debug$S                   0000000180000000     gdi32:GDI32.dll
 0000:fffc2000       .debug$S                   0000000180000000     gdi32:GDI32.dll
 0000:fffc2000       .debug$S                   0000000180000000     gdi32:GDI32.dll
 0000:fffc2000       .debug$S                   0000000180000000     gdi32:GDI32.dll
 0000:fffc2000       .debug$S                   0000000180000000     gdi32:GDI32.dll
 0000:fffc2000       .debug$S                   0000000180000000     gdi32:GDI32.dll
 0000:fffc2000       .debug$S                   0000000180000000     gdi32:GDI32.dll
 0000:fffc2000       .debug$S                   0000000180000000     gdi32:GDI32.dll
 0000:fffc2000       .debug$S                   0000000180000000     gdi32:GDI32.dll
 0000:fffc2000       .debug$S                   0000000180000000     gdi32:GDI32.dll
 0000:fffc2000       .debug$S                   0000000180000000     gdi32:GDI32.dll
 0000:fffc2000       .debug$S                   0000000180000000     gdi32:GDI32.dll
 0000:fffc2000       .debug$S                   0000000180000000     gdi32:GDI32.dll
 0000:fffc2000       .debug$S                   0000000180000000     gdi32:GDI32.dll
 0000:fffc2000       .debug$S                   0000000180000000     gdi32:GDI32.dll
 0000:fffc2000       .debug$S                   0000000180000000     gdi32:GDI32.dll
 0000:fffc2000       .debug$S                   0000000180000000     gdi32:GDI32.dll
 0000:fffc2000       .debug$S                   0000000180000000     kernel32:KERNEL32.dll
 0000:fffc2000       .debug$S                   0000000180000000     kernel32:KERNEL32.dll
 0000:fffc2000       .debug$S                   0000000180000000     kernel32:KERNEL32.dll
 0000:fffc2000       .debug$S                   0000000180000000     kernel32:KERNEL32.dll
 0000:fffc2000       .debug$S                   0000000180000000     kernel32:KERNEL32.dll
 0000:fffc2000       .debug$S                   0000000180000000     kernel32:KERNEL32.dll
 0000:fffc2000       .debug$S                   0000000180000000     kernel32:KERNEL32.dll
 0000:fffc2000       .debug$S                   0000000180000000     kernel32:KERNEL32.dll
 0000:fffc2000       .debug$S                   0000000180000000     kernel32:KERNEL32.dll
 0000:fffc2000       .debug$S                   0000000180000000     kernel32:KERNEL32.dll
 0000:fffc2000       .debug$S                   0000000180000000     kernel32:KERNEL32.dll
 0000:fffc2000       .debug$S                   0000000180000000     kernel32:KERNEL32.dll
 0000:fffc2000       .debug$S                   0000000180000000     kernel32:KERNEL32.dll
 0000:fffc2000       .debug$S                   0000000180000000     kernel32:KERNEL32.dll
 0000:fffc2000       .debug$S                   0000000180000000     kernel32:KERNEL32.dll
 0000:fffc2000       .debug$S                   0000000180000000     kernel32:KERNEL32.dll
 0000:fffc2000       .debug$S                   0000000180000000     kernel32:KERNEL32.dll
 0000:fffc2000       .debug$S                   0000000180000000     kernel32:KERNEL32.dll
 0000:fffc2000       .debug$S                   0000000180000000     kernel32:KERNEL32.dll
 0000:fffc2000       .debug$S                   0000000180000000     kernel32:KERNEL32.dll
 0000:fffc2000       .debug$S                   0000000180000000     kernel32:KERNEL32.dll
 0000:fffc2000       .debug$S                   0000000180000000     kernel32:KERNEL32.dll
 0000:fffc2000       .debug$S                   0000000180000000     kernel32:KERNEL32.dll
 0000:fffc2000       .debug$S                   0000000180000000     kernel32:KERNEL32.dll
 0000:fffc2000       .debug$S                   0000000180000000     kernel32:KERNEL32.dll
 0000:fffc2000       .debug$S                   0000000180000000     kernel32:KERNEL32.dll
 0000:fffc2000       .debug$S                   0000000180000000     kernel32:KERNEL32.dll
 0000:fffc2000       .debug$S                   0000000180000000     kernel32:KERNEL32.dll
 0000:fffc2000       .debug$S                   0000000180000000     kernel32:KERNEL32.dll
 0000:fffc2000       .debug$S                   0000000180000000     kernel32:KERNEL32.dll
 0000:fffc2000       .debug$S                   0000000180000000     kernel32:KERNEL32.dll
 0000:fffc2000       .debug$S                   0000000180000000     kernel32:KERNEL32.dll
 0000:fffc2000       .debug$S                   0000000180000000     kernel32:KERNEL32.dll
 0000:fffc2000       .debug$S                   0000000180000000     kernel32:KERNEL32.dll
 0000:fffc2000       .debug$S                   0000000180000000     kernel32:KERNEL32.dll
 0000:fffc2000       .debug$S                   0000000180000000     kernel32:KERNEL32.dll
 0000:fffc2000       .debug$S                   0000000180000000     kernel32:KERNEL32.dll
 0000:fffc2000       .debug$S                   0000000180000000     kernel32:KERNEL32.dll
 0000:fffc2000       .debug$S                   0000000180000000     kernel32:KERNEL32.dll
 0000:fffc2000       .debug$S                   0000000180000000     kernel32:KERNEL32.dll
 0000:fffc2000       .debug$S                   0000000180000000     kernel32:KERNEL32.dll
 0000:fffc2000       .debug$S                   0000000180000000     kernel32:KERNEL32.dll
 0000:fffc2000       .debug$S                   0000000180000000     kernel32:KERNEL32.dll
 0000:fffc2000       .debug$S                   0000000180000000     kernel32:KERNEL32.dll
 0000:fffc2000       .debug$S                   0000000180000000     kernel32:KERNEL32.dll
 0000:fffc2000       .debug$S                   0000000180000000     kernel32:KERNEL32.dll
 0000:fffc2000       .debug$S                   0000000180000000     kernel32:KERNEL32.dll
 0000:fffc2000       .debug$S                   0000000180000000     kernel32:KERNEL32.dll
 0000:fffc2000       .debug$S                   0000000180000000     kernel32:KERNEL32.dll
 0000:fffc2000       .debug$S                   0000000180000000     kernel32:KERNEL32.dll
 0000:fffc2000       .debug$S                   0000000180000000     kernel32:KERNEL32.dll
 0000:fffc2000       .debug$S                   0000000180000000     kernel32:KERNEL32.dll
 0000:fffc2000       .debug$S                   0000000180000000     kernel32:KERNEL32.dll
 0000:fffc2000       .debug$S                   0000000180000000     kernel32:KERNEL32.dll
 0000:fffc2000       .debug$S                   0000000180000000     kernel32:KERNEL32.dll
 0000:fffc2000       .debug$S                   0000000180000000     kernel32:KERNEL32.dll
 0000:fffc2000       .debug$S                   0000000180000000     kernel32:KERNEL32.dll
 0000:fffc2000       .debug$S                   0000000180000000     kernel32:KERNEL32.dll
 0000:fffc2000       .debug$S                   0000000180000000     kernel32:KERNEL32.dll
 0000:fffc2000       .debug$S                   0000000180000000     kernel32:KERNEL32.dll
 0000:fffc2000       .debug$S                   0000000180000000     kernel32:KERNEL32.dll
 0000:fffc2000       .debug$S                   0000000180000000     kernel32:KERNEL32.dll
 0000:fffc2000       .debug$S                   0000000180000000     kernel32:KERNEL32.dll
 0000:fffc2000       .debug$S                   0000000180000000     kernel32:KERNEL32.dll
 0000:fffc2000       .debug$S                   0000000180000000     kernel32:KERNEL32.dll
 0000:fffc2000       .debug$S                   0000000180000000     kernel32:KERNEL32.dll
 0000:fffc2000       .debug$S                   0000000180000000     kernel32:KERNEL32.dll
 0000:fffc2000       .debug$S                   0000000180000000     kernel32:KERNEL32.dll
 0000:fffc2000       .debug$S                   0000000180000000     kernel32:KERNEL32.dll
 0000:fffc2000       .debug$S                   0000000180000000     kernel32:KERNEL32.dll
 0000:fffc2000       .debug$S                   0000000180000000     kernel32:KERNEL32.dll
 0000:fffc2000       .debug$S                   0000000180000000     kernel32:KERNEL32.dll
 0000:fffc2000       .debug$S                   0000000180000000     kernel32:KERNEL32.dll
 0000:fffc2000       .debug$S                   0000000180000000     kernel32:KERNEL32.dll
 0000:fffc2000       .debug$S                   0000000180000000     kernel32:KERNEL32.dll
 0000:fffc2000       .debug$S                   0000000180000000     kernel32:KERNEL32.dll
 0000:fffc2000       .debug$S                   0000000180000000     kernel32:KERNEL32.dll
 0000:fffc2000       .debug$S                   0000000180000000     kernel32:KERNEL32.dll
 0000:fffc2000       .debug$S                   0000000180000000     kernel32:KERNEL32.dll
 0000:fffc2000       .debug$S                   0000000180000000     kernel32:KERNEL32.dll
 0000:fffc2000       .debug$S                   0000000180000000     kernel32:KERNEL32.dll
 0000:fffc2000       .debug$S                   0000000180000000     kernel32:KERNEL32.dll
 0000:fffc2000       .debug$S                   0000000180000000     kernel32:KERNEL32.dll
 0000:fffc2000       .debug$S                   0000000180000000     kernel32:KERNEL32.dll
 0000:fffc2000       .debug$S                   0000000180000000     kernel32:KERNEL32.dll
 0000:fffc2000       .debug$S                   0000000180000000     kernel32:KERNEL32.dll
 0000:fffc2000       .debug$S                   0000000180000000     kernel32:KERNEL32.dll
 0000:fffc2000       .debug$S                   0000000180000000     kernel32:KERNEL32.dll
 0000:fffc2000       .debug$S                   0000000180000000     kernel32:KERNEL32.dll
 0000:fffc2000       .debug$S                   0000000180000000     kernel32:KERNEL32.dll
 0000:fffc2000       .debug$S                   0000000180000000     kernel32:KERNEL32.dll
 0000:fffc2000       .debug$S                   0000000180000000     kernel32:KERNEL32.dll
 0000:fffc2000       .debug$S                   0000000180000000     kernel32:KERNEL32.dll
 0000:fffc2000       .debug$S                   0000000180000000     kernel32:KERNEL32.dll
 0000:fffc2000       .debug$S                   0000000180000000     kernel32:KERNEL32.dll
 0000:fffc2000       .debug$S                   0000000180000000     kernel32:KERNEL32.dll
 0000:fffc2000       .debug$S                   0000000180000000     kernel32:KERNEL32.dll
 0000:fffc2000       .debug$S                   0000000180000000     kernel32:KERNEL32.dll
 0000:fffc2000       .debug$S                   0000000180000000     kernel32:KERNEL32.dll
 0000:fffc2000       .debug$S                   0000000180000000     kernel32:KERNEL32.dll
 0000:fffc2000       .debug$S                   0000000180000000     kernel32:KERNEL32.dll
 0000:fffc2000       .debug$S                   0000000180000000     kernel32:KERNEL32.dll
 0000:fffc2000       .debug$S                   0000000180000000     kernel32:KERNEL32.dll
 0000:fffc2000       .debug$S                   0000000180000000     kernel32:KERNEL32.dll
 0000:fffc2000       .debug$S                   0000000180000000     kernel32:KERNEL32.dll
 0000:fffc2000       .debug$S                   0000000180000000     kernel32:KERNEL32.dll
 0000:fffc2000       .debug$S                   0000000180000000     kernel32:KERNEL32.dll
 0000:fffc2000       .debug$S                   0000000180000000     kernel32:KERNEL32.dll
 0000:fffc2000       .debug$S                   0000000180000000     kernel32:KERNEL32.dll
 0000:fffc2000       .debug$S                   0000000180000000     kernel32:KERNEL32.dll
 0000:fffc2000       .debug$S                   0000000180000000     kernel32:KERNEL32.dll
 0000:fffc2000       .debug$S                   0000000180000000     ole32:ole32.dll
 0000:fffc2000       .debug$S                   0000000180000000     ole32:ole32.dll
 0000:fffc2000       .debug$S                   0000000180000000     ole32:ole32.dll
 0000:fffc2000       .debug$S                   0000000180000000     ole32:ole32.dll
 0000:fffc2000       .debug$S                   0000000180000000     ole32:ole32.dll
 0000:fffc2000       .debug$S                   0000000180000000     ole32:ole32.dll
 0000:fffc2000       .debug$S                   0000000180000000     ole32:ole32.dll
 0000:fffc2000       .debug$S                   0000000180000000     ole32:ole32.dll
 0000:fffc2000       .debug$S                   0000000180000000     ole32:ole32.dll
 0000:fffc2000       .debug$S                   0000000180000000     ole32:ole32.dll
 0000:fffc2000       .debug$S                   0000000180000000     ole32:ole32.dll
 0000:fffc2000       .debug$S                   0000000180000000     ole32:ole32.dll
 0000:fffc2000       .debug$S                   0000000180000000     ole32:ole32.dll
 0000:fffc2000       .debug$S                   0000000180000000     ole32:ole32.dll
 0000:fffc2000       .debug$S                   0000000180000000     oleaut32:OLEAUT32.dll
 0000:fffc2000       .debug$S                   0000000180000000     oleaut32:OLEAUT32.dll
 0000:fffc2000       .debug$S                   0000000180000000     oleaut32:OLEAUT32.dll
 0000:fffc2000       .debug$S                   0000000180000000     oleaut32:OLEAUT32.dll
 0000:fffc2000       .debug$S                   0000000180000000     oleaut32:OLEAUT32.dll
 0000:fffc2000       .debug$S                   0000000180000000     oleaut32:OLEAUT32.dll
 0000:fffc2000       .debug$S                   0000000180000000     oleaut32:OLEAUT32.dll
 0000:fffc2000       .debug$S                   0000000180000000     oleaut32:OLEAUT32.dll
 0000:fffc2000       .debug$S                   0000000180000000     oleaut32:OLEAUT32.dll
 0000:fffc2000       .debug$S                   0000000180000000     oleaut32:OLEAUT32.dll
 0000:fffc2000       .debug$S                   0000000180000000     oleaut32:OLEAUT32.dll
 0000:fffc2000       .debug$S                   0000000180000000     oleaut32:OLEAUT32.dll
 0000:fffc2000       .debug$S                   0000000180000000     oleaut32:OLEAUT32.dll
 0000:fffc2000       .debug$S                   0000000180000000     oleaut32:OLEAUT32.dll
 0000:fffc2000       .debug$S                   0000000180000000     oleaut32:OLEAUT32.dll
 0000:fffc2000       .debug$S                   0000000180000000     oleaut32:OLEAUT32.dll
 0000:fffc2000       .debug$S                   0000000180000000     user32:USER32.dll
 0000:fffc2000       .debug$S                   0000000180000000     user32:USER32.dll
 0000:fffc2000       .debug$S                   0000000180000000     user32:USER32.dll
 0000:fffc2000       .debug$S                   0000000180000000     user32:USER32.dll
 0000:fffc2000       .debug$S                   0000000180000000     user32:USER32.dll
 0000:fffc2000       .debug$S                   0000000180000000     user32:USER32.dll
 0000:fffc2000       .debug$S                   0000000180000000     user32:USER32.dll
 0000:fffc2000       .debug$S                   0000000180000000     user32:USER32.dll
 0000:fffc2000       .debug$S                   0000000180000000     user32:USER32.dll
 0000:fffc2000       .debug$S                   0000000180000000     user32:USER32.dll
 0000:fffc2000       .debug$S                   0000000180000000     user32:USER32.dll
 0000:fffc2000       .debug$S                   0000000180000000     user32:USER32.dll
 0000:fffc2000       .debug$S                   0000000180000000     user32:USER32.dll
 0000:fffc2000       .debug$S                   0000000180000000     user32:USER32.dll
 0000:fffc2000       .debug$S                   0000000180000000     user32:USER32.dll
 0000:fffc2000       .debug$S                   0000000180000000     user32:USER32.dll
 0000:fffc2000       .debug$S                   0000000180000000     user32:USER32.dll
 0000:fffc2000       .debug$S                   0000000180000000     user32:USER32.dll
 0000:fffc2000       .debug$S                   0000000180000000     user32:USER32.dll
 0000:fffc2000       .debug$S                   0000000180000000     user32:USER32.dll
 0000:fffc2000       .debug$S                   0000000180000000     user32:USER32.dll
 0000:fffc2000       .debug$S                   0000000180000000     user32:USER32.dll
 0000:fffc2000       .debug$S                   0000000180000000     user32:USER32.dll
 0000:fffc2000       .debug$S                   0000000180000000     user32:USER32.dll
 0000:fffc2000       .debug$S                   0000000180000000     user32:USER32.dll
 0000:fffc2000       .debug$S                   0000000180000000     user32:USER32.dll
 0000:fffc2000       .debug$S                   0000000180000000     user32:USER32.dll
 0000:fffc2000       .debug$S                   0000000180000000     user32:USER32.dll
 0000:fffc2000       .debug$S                   0000000180000000     user32:USER32.dll
 0000:fffc2000       .debug$S                   0000000180000000     user32:USER32.dll
 0000:fffc2000       .debug$S                   0000000180000000     user32:USER32.dll
 0000:fffc2000       .debug$S                   0000000180000000     user32:USER32.dll
 0000:fffc2000       .debug$S                   0000000180000000     user32:USER32.dll
 0000:fffc2000       .debug$S                   0000000180000000     user32:USER32.dll
 0000:fffc2000       .debug$S                   0000000180000000     user32:USER32.dll
 0001:00000000       ??__E_AtlComModule@ATL@@YAXXZ 0000000180001000 f   OposVariant.obj
 0001:00000020       ??__E_AtlWinModule@ATL@@YAXXZ 0000000180001020 f   OposVariant.obj
 0001:00000040       ??__E?pConnMap@?$IConnectionPointContainerImpl@VCOPOSSigCap@@@ATL@@0PEBU_ATL_CONNMAP_ENTRY@2@EB@@YAXXZ 0000000180001040 f   SigCap.obj
 0001:00000058       ??__E_Module@@YAXXZ        0000000180001058 f   SigCap.obj
 0001:00000094       ??__E_AtlBaseModule@ATL@@YAXXZ 0000000180001094 f   atls:atlbase.obj
 0001:0000e1f0       ?__scrt_initialize_thread_safe_statics@@YAHXZ 000000018000f1f0 f   LIBCMT:thread_safe_statics.obj
 0001:0000e2c0       ?__scrt_uninitialize_thread_safe_statics@@YAXXZ 000000018000f2c0 f   LIBCMT:thread_safe_statics.obj
 0001:0000e610       capture_current_context    000000018000f610 f   LIBCMT:gs_report.obj
 0001:0000e680       capture_previous_context   000000018000f680 f   LIBCMT:gs_report.obj
 0001:0000e820       $$000000                   000000018000f820     LIBCMT:chkstk.obj
 0001:0000e890       $$000000                   000000018000f890     LIBCMT:amdsecgs.obj
 0001:0000e8c4       ?dllmain_crt_dispatch@@YAHQEAUHINSTANCE__@@KQEAX@Z 000000018000f8c4 f   LIBCMT:dll_dllmain.obj
 0001:0000e914       ?dllmain_crt_process_attach@@YAHQEAUHINSTANCE__@@QEAX@Z 000000018000f914 f   LIBCMT:dll_dllmain.obj
 0001:0000ea2c       ?dllmain_crt_process_detach@@YAH_N@Z 000000018000fa2c f   LIBCMT:dll_dllmain.obj
 0001:0000eab0       ?dllmain_dispatch@@YAHQEAUHINSTANCE__@@KQEAX@Z 000000018000fab0 f   LIBCMT:dll_dllmain.obj
 0001:0000f378       ??$GetProcAddressAll@P6AP6A_JPEAUHWND__@@I_K_J@ZPEAUAtlThunkData_t@@@Z@@YAP6AP6A_JPEAUHWND__@@I_K_J@ZPEAUAtlThunkData_t@@@ZPEAP6AP6A_J0I12@Z3@Z@Z 0000000180010378 f   atls:atlthunk.obj
 0001:0000f378       ??$GetProcAddressAll@P6APEAUAtlThunkData_t@@XZ@@YAP6APEAUAtlThunkData_t@@XZPEAP6APEAU0@XZ@Z 0000000180010378 f   atls:atlthunk.obj
 0001:0000f378       ??$GetProcAddressAll@P6AXPEAUAtlThunkData_t@@@Z@@YAP6AXPEAUAtlThunkData_t@@@ZPEAP6AX0@Z@Z 0000000180010378 f   atls:atlthunk.obj
 0001:0000f378       ??$GetProcAddressAll@P6AXPEAUAtlThunkData_t@@PEAX_K@Z@@YAP6AXPEAUAtlThunkData_t@@PEAX_K@ZPEAP6AX012@Z@Z 0000000180010378 f   atls:atlthunk.obj
 0001:0000f550       ?__InitializeThunkPool@@YAHXZ 0000000180010550 f   atls:atlthunk.obj
 0001:0000f9f0       $$000000                   00000001800109f0     libvcruntime:memcmp.obj
 0001:0000fad0       $$000000                   0000000180010ad0     libvcruntime:memcpy.obj
 0001:0000fee0       $$000000                   0000000180010ee0     libvcruntime:memset.obj
 0001:00010ff0       $$000000                   0000000180011ff0     libvcruntime:notify.obj
 0001:0001115c       ??$BuildCatchObjectHelperInternal@V__FrameHandler4@@@@YAHPEAUEHExceptionRecord@@PEAXPEAUHandlerType4@FH4@@PEBU_s_CatchableType@@@Z 000000018001215c f   libvcruntime:frame.obj
 0001:00011360       ??$BuildCatchObjectInternal@V__FrameHandler4@@@@YAXPEAUEHExceptionRecord@@PEAXPEAUHandlerType4@FH4@@PEBU_s_CatchableType@@@Z 0000000180012360 f   libvcruntime:frame.obj
 0001:00011424       ??$CatchIt@V__FrameHandler4@@@@YAXPEAUEHExceptionRecord@@PEA_KPEAU_CONTEXT@@PEAU_xDISPATCHER_CONTEXT@@PEAUFuncInfo4@FH4@@PEAUHandlerType4@4@PEBU_s_CatchableType@@PEAUTryBlockMapEntry4@4@H1EE@Z 0000000180012424 f   libvcruntime:frame.obj
 0001:000114f8       ??$FindHandler@V__FrameHandler4@@@@YAXPEAUEHExceptionRecord@@PEA_KPEAU_CONTEXT@@PEAU_xDISPATCHER_CONTEXT@@PEAUFuncInfo4@FH4@@EH1@Z 00000001800124f8 f   libvcruntime:frame.obj
 0001:00011a08       ??$FindHandlerForForeignException@V__FrameHandler4@@@@YAXPEAUEHExceptionRecord@@PEA_KPEAU_CONTEXT@@PEAU_xDISPATCHER_CONTEXT@@PEAUFuncInfo4@FH4@@HH1@Z 0000000180012a08 f   libvcruntime:frame.obj
 0001:00012798       ?ExFilterRethrow@@YAHPEAU_EXCEPTION_POINTERS@@PEAUEHExceptionRecord@@PEAH@Z 0000000180013798 f   libvcruntime:frame.obj
 0001:00012820       ?ExFilterRethrowFH4@@YAHPEAU_EXCEPTION_POINTERS@@PEAUEHExceptionRecord@@HPEAH@Z 0000000180013820 f   libvcruntime:frame.obj
 0001:00012b38       ?IsInExceptionSpec@@YAEPEAUEHExceptionRecord@@PEBU_s_ESTypeList@@@Z 0000000180013b38 f   libvcruntime:frame.obj
 0001:00012c24       ?Is_bad_exception_allowed@@YAEPEBU_s_ESTypeList@@@Z 0000000180013c24 f   libvcruntime:frame.obj
 0001:00012f00       ?try_get_function@@YAPEAXW4function_id@?A0x5302d918@@QEBDQEBW4module_id@2@2@Z 0000000180013f00 f   libvcruntime:winapi_downlevel.obj
 0001:000131e0       $$000000                   00000001800141e0     libvcruntime:handlers.obj
 0001:000139f8       ??$common_vsprintf@Vformat_validation_base@__crt_stdio_output@@_W@@YAH_KQEA_W0QEB_WQEAU__crt_locale_pointers@@QEAD@Z 00000001800149f8 f   libucrt:output.obj
 0001:00014898       $LN17                      0000000180015898     libucrt:output.obj
 0001:0001523c       ??$?RV<lambda_d80eeec6fff315bfe5c115232f3240e3>@@AEAV<lambda_6e4b09c48022b2350581041d5f6b0c4c>@@V<lambda_2358e3775559c9db80273638284d5e45>@@@?$__crt_seh_guarded_call@X@@QEAAX$$QEAV<lambda_d80eeec6fff315bfe5c115232f3240e3>@@AEAV<lambda_6e4b09c48022b2350581041d5f6b0c4c>@@$$QEAV<lambda_2358e3775559c9db80273638284d5e45>@@@Z 000000018001623c f   libucrt:exit.obj
 0001:00015274       ??R<lambda_6e4b09c48022b2350581041d5f6b0c4c>@@QEBA@XZ 0000000180016274 f   libucrt:exit.obj
 0001:00015338       ?atexit_exception_filter@@YAHK@Z 0000000180016338 f   libucrt:exit.obj
 0001:00015344       ?common_exit@@YAXHW4_crt_exit_cleanup_mode@@W4_crt_exit_return_mode@@@Z 0000000180016344 f   libucrt:exit.obj
 0001:00015400       ?exit_or_terminate_process@@YAXI@Z 0000000180016400 f   libucrt:exit.obj
 0001:0001544c       ?try_cor_exit_process@@YAXI@Z 000000018001644c f   libucrt:exit.obj
 0001:000154d4       ??$parse_command_line@D@@YAXPEADPEAPEAD0PEA_K2@Z 00000001800164d4 f   libucrt:argv_parsing.obj
 0001:0001587c       ??$common_initialize_environment_nolock@D@@YAHXZ 000000018001687c f   libucrt:environment_initialization.obj
 0001:000158e8       ??$create_environment@D@@YAQEAPEADQEAD@Z 00000001800168e8 f   libucrt:environment_initialization.obj
 0001:000159f0       ??$free_environment@D@@YAXQEAPEAD@Z 00000001800169f0 f   libucrt:environment_initialization.obj
 0001:000159f0       ??$free_environment@_W@@YAXQEAPEA_W@Z 00000001800169f0 f   libucrt:environment_initialization.obj
 0001:00015a34       ??$uninitialize_environment_internal@D@@YAXAEAPEAPEAD@Z 0000000180016a34 f   libucrt:environment_initialization.obj
 0001:00015a50       ??$uninitialize_environment_internal@_W@@YAXAEAPEAPEA_W@Z 0000000180016a50 f   libucrt:environment_initialization.obj
 0001:00015aac       ??$?RV<lambda_638799b9deba96c50f710eeac98168cd>@@AEAV<lambda_22ebabd17bc4fa466a2aca6d8deb888d>@@V<lambda_a6f7d7db0129f75315ebf26d50c089f1>@@@?$__crt_seh_guarded_call@H@@QEAAH$$QEAV<lambda_638799b9deba96c50f710eeac98168cd>@@AEAV<lambda_22ebabd17bc4fa466a2aca6d8deb888d>@@$$QEAV<lambda_a6f7d7db0129f75315ebf26d50c089f1>@@@Z 0000000180016aac f   libucrt:onexit.obj
 0001:00015ae8       ??$?RV<lambda_7777bce6b2f8c936911f934f8298dc43>@@AEAV<lambda_f03950bc5685219e0bcd2087efbe011e>@@V<lambda_3883c3dff614d5e0c5f61bb1ac94921c>@@@?$__crt_seh_guarded_call@H@@QEAAH$$QEAV<lambda_7777bce6b2f8c936911f934f8298dc43>@@AEAV<lambda_f03950bc5685219e0bcd2087efbe011e>@@$$QEAV<lambda_3883c3dff614d5e0c5f61bb1ac94921c>@@@Z 0000000180016ae8 f   libucrt:onexit.obj
 0001:00015b24       ??R<lambda_22ebabd17bc4fa466a2aca6d8deb888d>@@QEBAHXZ 0000000180016b24 f   libucrt:onexit.obj
 0001:00015cd4       ??R<lambda_f03950bc5685219e0bcd2087efbe011e>@@QEBAHXZ 0000000180016cd4 f   libucrt:onexit.obj
 0001:00015ea8       initialize_global_variables 0000000180016ea8 f   libucrt:initialization.obj
 0001:00015ebc       initialize_c               0000000180016ebc f   libucrt:initialization.obj
 0001:00015ee0       initialize_environment     0000000180016ee0 f   libucrt:initialization.obj
 0001:00015ee0       initialize_global_state_isolation 0000000180016ee0 f   libucrt:initialization.obj
 0001:00015ee0       report_memory_leaks        0000000180016ee0 f   libucrt:initialization.obj
 0001:00015ee0       uninitialize_c             0000000180016ee0 f   libucrt:initialization.obj
 0001:00015ee0       uninitialize_global_state_isolation 0000000180016ee0 f   libucrt:initialization.obj
 0001:00015ee4       uninitialize_environment   0000000180016ee4 f   libucrt:initialization.obj
 0001:00015ef4       initialize_pointers        0000000180016ef4 f   libucrt:initialization.obj
 0001:00015f34       uninitialize_vcruntime     0000000180016f34 f   libucrt:initialization.obj
 0001:00015f3c       uninitialize_allocated_memory 0000000180016f3c f   libucrt:initialization.obj
 0001:00015f7c       uninitialize_allocated_io_buffers 0000000180016f7c f   libucrt:initialization.obj
 0001:000168f0       $$000000                   00000001800178f0     libucrt:strncmp.obj
 0001:000169ec       ??$?RV<lambda_0ae27a3a962d80f24befdcbee591983d>@@AEAV<lambda_8d0ee55de4b1038c4002e0adecdf1839>@@V<lambda_dc504788e8f1664fe9b84e20bfb512f2>@@@?$__crt_seh_guarded_call@X@@QEAAX$$QEAV<lambda_0ae27a3a962d80f24befdcbee591983d>@@AEAV<lambda_8d0ee55de4b1038c4002e0adecdf1839>@@$$QEAV<lambda_dc504788e8f1664fe9b84e20bfb512f2>@@@Z 00000001800179ec f   libucrt:per_thread_data.obj
 0001:00016a2c       ??$?RV<lambda_2d41944a1d46af3157314b8a01080d33>@@AEAV<lambda_8f455de75cd7d7f24b4096f044d8b9e6>@@V<lambda_aa500f224e6afead328df44964fe2772>@@@?$__crt_seh_guarded_call@X@@QEAAX$$QEAV<lambda_2d41944a1d46af3157314b8a01080d33>@@AEAV<lambda_8f455de75cd7d7f24b4096f044d8b9e6>@@$$QEAV<lambda_aa500f224e6afead328df44964fe2772>@@@Z 0000000180017a2c f   libucrt:per_thread_data.obj
 0001:00016a6c       ??$?RV<lambda_aa87e3671a710a21b5dc78c0bdf72e11>@@AEAV<lambda_92619d2358a28f41a33ba319515a20b9>@@V<lambda_6992ecaafeb10aed2b74cb1fae11a551>@@@?$__crt_seh_guarded_call@X@@QEAAX$$QEAV<lambda_aa87e3671a710a21b5dc78c0bdf72e11>@@AEAV<lambda_92619d2358a28f41a33ba319515a20b9>@@$$QEAV<lambda_6992ecaafeb10aed2b74cb1fae11a551>@@@Z 0000000180017a6c f   libucrt:per_thread_data.obj
 0001:00016ab4       ??$?RV<lambda_f2e299630e499de9f9a165e60fcd3db5>@@AEAV<lambda_2ae9d31cdba2644fcbeaf08da7c24588>@@V<lambda_40d01ff24d0e7b3814fdbdcee8eab3c7>@@@?$__crt_seh_guarded_call@X@@QEAAX$$QEAV<lambda_f2e299630e499de9f9a165e60fcd3db5>@@AEAV<lambda_2ae9d31cdba2644fcbeaf08da7c24588>@@$$QEAV<lambda_40d01ff24d0e7b3814fdbdcee8eab3c7>@@@Z 0000000180017ab4 f   libucrt:per_thread_data.obj
 0001:00016b14       ?construct_ptd_array@@YAXQEAU__acrt_ptd@@@Z 0000000180017b14 f   libucrt:per_thread_data.obj
 0001:00016be4       ?destroy_fls@@YAXPEAX@Z    0000000180017be4 f   libucrt:per_thread_data.obj
 0001:00016c04       ?destroy_ptd_array@@YAXQEAU__acrt_ptd@@@Z 0000000180017c04 f   libucrt:per_thread_data.obj
 0001:00016cfc       ?replace_current_thread_locale_nolock@@YAXQEAU__acrt_ptd@@QEAU__crt_locale_data@@@Z 0000000180017cfc f   libucrt:per_thread_data.obj
 0001:000171e0       ?try_get_function@@YAPEAXW4function_id@?A0x391cf84c@@QEBDQEBW4module_id@2@2@Z 00000001800181e0 f   libucrt:winapi_thunks.obj
 0001:00017bb0       ?fp_format_a@@YAHQEBNPEAD_KQEAD2H_NIQEAU__crt_locale_pointers@@W4__acrt_rounding_mode@@@Z 0000000180018bb0 f   libucrt:cvt.obj
 0001:00017f30       ?fp_format_e@@YAHQEBNQEAD_K12H_NIQEAU__crt_locale_pointers@@W4__acrt_rounding_mode@@@Z 0000000180018f30 f   libucrt:cvt.obj
 0001:00018020       ?fp_format_e_internal@@YAHQEAD_KH_NIQEAU_strflt@@2QEAU__crt_locale_pointers@@@Z 0000000180019020 f   libucrt:cvt.obj
 0001:000181f4       ?fp_format_f_internal@@YAHQEAD_KHQEAU_strflt@@_NQEAU__crt_locale_pointers@@@Z 00000001800191f4 f   libucrt:cvt.obj
 0001:0001835c       ?fp_format_g@@YAHQEBNQEAD_K12H_NIQEAU__crt_locale_pointers@@@Z 000000018001935c f   libucrt:cvt.obj
 0001:0001849c       ?should_round_up@@YA_NQEBN_KFW4__acrt_rounding_mode@@@Z 000000018001949c f   libucrt:cvt.obj
 0001:00018ac0       ??$?RV<lambda_410d79af7f07d98d83a3f525b3859a53>@@AEAV<lambda_3e16ef9562a7dcce91392c22ab16ea36>@@V<lambda_38119f0e861e05405d8a144b9b982f0a>@@@?$__crt_seh_guarded_call@X@@QEAAX$$QEAV<lambda_410d79af7f07d98d83a3f525b3859a53>@@AEAV<lambda_3e16ef9562a7dcce91392c22ab16ea36>@@$$QEAV<lambda_38119f0e861e05405d8a144b9b982f0a>@@@Z 0000000180019ac0 f   libucrt:wsetlocale.obj
 0001:00018b6c       ?initialize_inherited_file_handles_nolock@@YAXXZ 0000000180019b6c f   libucrt:ioinit.obj
 0001:00018c5c       ?initialize_stdio_handles_nolock@@YAXXZ 0000000180019c5c f   libucrt:ioinit.obj
 0001:00018ed8       ?<lambda_invoker_cdecl>@<lambda_a1ce4c8ae42411fd470c77163914f50e>@@CAHPEBX0@Z 0000000180019ed8 f   libucrt:argv_wildcards.obj
 0001:000191f0       ??$common_expand_argv_wildcards@D@@YAHQEAPEADQEAPEAPEAD@Z 000000018001a1f0 f   libucrt:argv_wildcards.obj
 0001:000193fc       ??$copy_and_add_argument_to_buffer@D@@YAHQEBD0_KAEAV?$argument_list@D@?A0x5f5c8891@@@Z 000000018001a3fc f   libucrt:argv_wildcards.obj
 0001:00019584       ??$expand_argument_wildcards@D@@YAHQEAD0AEAV?$argument_list@D@?A0x5f5c8891@@@Z 000000018001a584 f   libucrt:argv_wildcards.obj
 0001:00019ad0       ??$?RV<lambda_efdfa57d1f175319df784efa44bb7b81>@@AEAV<lambda_5f0a4c1567f8adc6734073e5d1e1b35c>@@V<lambda_2e8a7d3640ea6ccb4c2413664c2db6fd>@@@?$__crt_seh_guarded_call@X@@QEAAX$$QEAV<lambda_efdfa57d1f175319df784efa44bb7b81>@@AEAV<lambda_5f0a4c1567f8adc6734073e5d1e1b35c>@@$$QEAV<lambda_2e8a7d3640ea6ccb4c2413664c2db6fd>@@@Z 000000018001aad0 f   libucrt:mbctype.obj
 0001:00019c8c       ?getSystemCP@@YAHH@Z       000000018001ac8c f   libucrt:mbctype.obj
 0001:00019d0c       ?setSBCS@@YAXPEAU__crt_multibyte_data@@@Z 000000018001ad0c f   libucrt:mbctype.obj
 0001:00019d9c       ?setSBUpLow@@YAXPEAU__crt_multibyte_data@@@Z 000000018001ad9c f   libucrt:mbctype.obj
 0001:00019f80       ?setmbcp_internal@@YAHH_NQEAU__acrt_ptd@@QEAPEAU__crt_multibyte_data@@@Z 000000018001af80 f   libucrt:mbctype.obj
 0001:0001a140       ?update_thread_multibyte_data_internal@@YAPEAU__crt_multibyte_data@@QEAU__acrt_ptd@@QEAPEAU1@@Z 000000018001b140 f   libucrt:mbctype.obj
 0001:0001a530       ?x_ismbbtype_l@@YAHPEAU__crt_locale_pointers@@IHH@Z 000000018001b530 f   libucrt:ismbbyte.obj
 0001:0001a8d8       ??$?RV<lambda_450d765d439847d4c735a33c368b5fc0>@@AEAV<lambda_44731a7d0e6d81c3e6aa82d741081786>@@V<lambda_601a2a7da3b7a96e9554ac7215c4b07c>@@@?$__crt_seh_guarded_call@P6AXH@Z@@QEAAP6AXH@Z$$QEAV<lambda_450d765d439847d4c735a33c368b5fc0>@@AEAV<lambda_44731a7d0e6d81c3e6aa82d741081786>@@$$QEAV<lambda_601a2a7da3b7a96e9554ac7215c4b07c>@@@Z 000000018001b8d8 f   libucrt:signal.obj
 0001:0001ac34       ??$?RV<lambda_842d9ff0dc9ef11c61343bbaebe7f885>@@AEAV<lambda_c5860995281e5c4ce005b3de8f5874ee>@@V<lambda_d90129c13df834fdcbf8d2b88dafcf2d>@@@?$__crt_seh_guarded_call@X@@QEAAX$$QEAV<lambda_842d9ff0dc9ef11c61343bbaebe7f885>@@AEAV<lambda_c5860995281e5c4ce005b3de8f5874ee>@@$$QEAV<lambda_d90129c13df834fdcbf8d2b88dafcf2d>@@@Z 000000018001bc34 f   libucrt:fflush.obj
 0001:0001acd0       ??$?RV<lambda_886d6c58226a84441f68b9f2b8217b83>@@AEAV<lambda_ab61a845afdef5b7c387490eaf3616ee>@@V<lambda_f7f22ab5edc0698d5f6905b0d3f44752>@@@?$__crt_seh_guarded_call@X@@QEAAX$$QEAV<lambda_886d6c58226a84441f68b9f2b8217b83>@@AEAV<lambda_ab61a845afdef5b7c387490eaf3616ee>@@$$QEAV<lambda_f7f22ab5edc0698d5f6905b0d3f44752>@@@Z 000000018001bcd0 f   libucrt:fflush.obj
 0001:0001adb0       ?common_flush_all@@YAH_N@Z 000000018001bdb0 f   libucrt:fflush.obj
 0001:0001ce00       memcpy_s                   000000018001de00 f   libucrt:cfout.obj
 0001:0001d168       ?free_crt_array_internal@@YAXQEAPEBX_K@Z 000000018001e168 f   libucrt:inittime.obj
 0001:0001dbf4       fallbackMethod             000000018001ebf4 f   libucrt:strpbrk.obj
 0001:0001dfac       $LN78                      000000018001efac     libucrt:strpbrk.obj
 0001:0001dfe8       $LN77                      000000018001efe8     libucrt:strpbrk.obj
 0001:0001e028       $LN76                      000000018001f028     libucrt:strpbrk.obj
 0001:0001e104       ?__acrt_LCMapStringA_stat@@YAHPEAU__crt_locale_pointers@@PEB_WKPEBDHPEADHHH@Z 000000018001f104 f   libucrt:lcmapstringa.obj
 0001:0001e4b4       ?initialize_multibyte@@YAHXZ 000000018001f4b4 f   libucrt:multibyte_initializer.obj
 0001:0001e4cc       ??$?RV<lambda_a37b2b86f63e897a80ea819b0eb08c01>@@AEAV<lambda_38ce7e780aa69e748d6df282ebc68efe>@@V<lambda_99fb1378e971ab6e7edea83e3a7a83a2>@@@?$__crt_seh_guarded_call@H@@QEAAH$$QEAV<lambda_a37b2b86f63e897a80ea819b0eb08c01>@@AEAV<lambda_38ce7e780aa69e748d6df282ebc68efe>@@$$QEAV<lambda_99fb1378e971ab6e7edea83e3a7a83a2>@@@Z 000000018001f4cc f   libucrt:commit.obj
 0001:0001e5ec       ?write_double_translated_ansi_nolock@@YA?AUwrite_result@?A0x17268360@@HQEBDI@Z 000000018001f5ec f   libucrt:write.obj
 0001:0001ead8       ?write_text_ansi_nolock@@YA?AUwrite_result@?A0x17268360@@HQEBDI@Z 000000018001fad8 f   libucrt:write.obj
 0001:0001ebdc       ?write_text_utf16le_nolock@@YA?AUwrite_result@?A0x17268360@@HQEBDI@Z 000000018001fbdc f   libucrt:write.obj
 0001:0001ecf8       ?write_text_utf8_nolock@@YA?AUwrite_result@?A0x17268360@@HQEBDI@Z 000000018001fcf8 f   libucrt:write.obj
 0001:0001f650       $$000000                   0000000180020650     libucrt:log10.obj
 0001:0001ff1c       ??$common_lseek_nolock@_J@@YA_JH_JH@Z 0000000180020f1c f   libucrt:lseek.obj
 0001:0002017c       common_control87           000000018002117c f   libucrt:ieee.obj
 0001:0002043c       _call_matherr              000000018002143c f   libucrt:libm_error.obj
 0001:000204a4       _exception_enabled         00000001800214a4 f   libucrt:libm_error.obj
 0001:00020740       _log_special_common        0000000180021740 f   libucrt:log_special.obj
 0001:000207d8       ??$?RV<lambda_751a882b2c74d4b022dec766aa51a29a>@@AEAV<lambda_628dfdc04ba53c8bfc02c9951375f3f5>@@V<lambda_f6c7be5f7998530c34de24c7437d6b54>@@@?$__crt_seh_guarded_call@H@@QEAAH$$QEAV<lambda_751a882b2c74d4b022dec766aa51a29a>@@AEAV<lambda_628dfdc04ba53c8bfc02c9951375f3f5>@@$$QEAV<lambda_f6c7be5f7998530c34de24c7437d6b54>@@@Z 00000001800217d8 f   libucrt:close.obj
 0001:00020b00       $$000000                   0000000180021b00     libucrt:fpsr.obj
 0001:000211a0       $$000000                   00000001800221a0     LIBCMT:guard_dispatch.obj
 0001:000211c0       $$000000                   00000001800221c0     LIBCMT:guard_xfg_dispatch.obj
 0001:000211e0       ?filt$0@?0??_AtlVerifyStackAvailable@_ATL_SAFE_ALLOCA_IMPL@ATL@@YA_N_K@Z@4HA 00000001800221e0 f   SigCap.obj
 0001:00021201       __scrt_is_nonwritable_in_current_image$filt$0 0000000180022201 f   LIBCMT:utility.obj
 0001:00021219       ?catch$0@?0???2@YAPEAX_KAEBUnothrow_t@std@@@Z@4HA 0000000180022219 f   LIBCMT:new_scalar_nothrow.obj
 0001:00021226       __catch$??2@YAPEAX_KAEBUnothrow_t@std@@@Z$0 0000000180022226 f   LIBCMT:new_scalar_nothrow.obj
 0001:00021237       ?fin$0@?0??dllmain_crt_process_attach@@YAHQEAUHINSTANCE__@@QEAX@Z@4HA 0000000180022237 f   LIBCMT:dll_dllmain.obj
 0001:0002124e       ?fin$0@?0??dllmain_crt_process_detach@@YAH_N@Z@4HA 000000018002224e f   LIBCMT:dll_dllmain.obj
 0001:00021267       ?fin$1@?0??dllmain_crt_process_detach@@YAH_N@Z@4HA 0000000180022267 f   LIBCMT:dll_dllmain.obj
 0001:0002127b       ?filt$0@?0??dllmain_dispatch@@YAHQEAUHINSTANCE__@@KQEAX@Z@4HA 000000018002227b f   LIBCMT:dll_dllmain.obj
 0001:000212b1       ?filt$0@?0???$_CallSETranslator@V__FrameHandler4@@@@YAHPEAUEHExceptionRecord@@PEA_KPEAU_CONTEXT@@PEAU_xDISPATCHER_CONTEXT@@PEAUFuncInfo4@FH4@@K1H@Z@4HA 00000001800222b1 f   libvcruntime:risctrnsctrl.obj
 0001:00021350       __DestructExceptionObject$filt$0 0000000180022350 f   libvcruntime:ehhelpers.obj
 0001:000213e6       ?filt$0@?0??CxxCallCatchBlock@__FrameHandler4@@SAPEAXPEAU_EXCEPTION_RECORD@@@Z@4HA 00000001800223e6 f   libvcruntime:frame.obj
 0001:00021415       ?fin$1@?0??CxxCallCatchBlock@__FrameHandler4@@SAPEAXPEAU_EXCEPTION_RECORD@@@Z@4HA 0000000180022415 f   libvcruntime:frame.obj
 0001:00021498       ?filt$0@?0??FrameUnwindToState@__FrameHandler4@@SAXPEA_KPEAU_xDISPATCHER_CONTEXT@@PEAUFuncInfo4@FH4@@H@Z@4HA 0000000180022498 f   libvcruntime:frame.obj
 0001:000214ae       ?fin$1@?0??FrameUnwindToState@__FrameHandler4@@SAXPEA_KPEAU_xDISPATCHER_CONTEXT@@PEAUFuncInfo4@FH4@@H@Z@4HA 00000001800224ae f   libvcruntime:frame.obj
 0001:000214d1       ?fin$0@?0???$?RV<lambda_0ae27a3a962d80f24befdcbee591983d>@@AEAV<lambda_8d0ee55de4b1038c4002e0adecdf1839>@@V<lambda_dc504788e8f1664fe9b84e20bfb512f2>@@@?$__crt_seh_guarded_call@X@@QEAAX$$QEAV<lambda_0ae27a3a962d80f24befdcbee591983d>@@AEAV<lambda_8d0ee55de4b1038c4002e0adecdf1839>@@$$QEAV<lambda_dc504788e8f1664fe9b84e20bfb512f2>@@@Z@4HA 00000001800224d1 f   libucrt:per_thread_data.obj
 0001:000214d1       ?fin$0@?0???$?RV<lambda_2d41944a1d46af3157314b8a01080d33>@@AEAV<lambda_8f455de75cd7d7f24b4096f044d8b9e6>@@V<lambda_aa500f224e6afead328df44964fe2772>@@@?$__crt_seh_guarded_call@X@@QEAAX$$QEAV<lambda_2d41944a1d46af3157314b8a01080d33>@@AEAV<lambda_8f455de75cd7d7f24b4096f044d8b9e6>@@$$QEAV<lambda_aa500f224e6afead328df44964fe2772>@@@Z@4HA 00000001800224d1 f   libucrt:per_thread_data.obj
 0001:000214d1       ?fin$0@?0???$?RV<lambda_aa87e3671a710a21b5dc78c0bdf72e11>@@AEAV<lambda_92619d2358a28f41a33ba319515a20b9>@@V<lambda_6992ecaafeb10aed2b74cb1fae11a551>@@@?$__crt_seh_guarded_call@X@@QEAAX$$QEAV<lambda_aa87e3671a710a21b5dc78c0bdf72e11>@@AEAV<lambda_92619d2358a28f41a33ba319515a20b9>@@$$QEAV<lambda_6992ecaafeb10aed2b74cb1fae11a551>@@@Z@4HA 00000001800224d1 f   libucrt:per_thread_data.obj
 0001:000214d1       ?fin$0@?0???$?RV<lambda_f2e299630e499de9f9a165e60fcd3db5>@@AEAV<lambda_2ae9d31cdba2644fcbeaf08da7c24588>@@V<lambda_40d01ff24d0e7b3814fdbdcee8eab3c7>@@@?$__crt_seh_guarded_call@X@@QEAAX$$QEAV<lambda_f2e299630e499de9f9a165e60fcd3db5>@@AEAV<lambda_2ae9d31cdba2644fcbeaf08da7c24588>@@$$QEAV<lambda_40d01ff24d0e7b3814fdbdcee8eab3c7>@@@Z@4HA 00000001800224d1 f   libucrt:per_thread_data.obj
 0001:000214d1       ?fin$0@?0???$?RV<lambda_efdfa57d1f175319df784efa44bb7b81>@@AEAV<lambda_5f0a4c1567f8adc6734073e5d1e1b35c>@@V<lambda_2e8a7d3640ea6ccb4c2413664c2db6fd>@@@?$__crt_seh_guarded_call@X@@QEAAX$$QEAV<lambda_efdfa57d1f175319df784efa44bb7b81>@@AEAV<lambda_5f0a4c1567f8adc6734073e5d1e1b35c>@@$$QEAV<lambda_2e8a7d3640ea6ccb4c2413664c2db6fd>@@@Z@4HA 00000001800224d1 f   libucrt:mbctype.obj
 0001:000214d1       ?fin$0@?0???$?RV<lambda_450d765d439847d4c735a33c368b5fc0>@@AEAV<lambda_44731a7d0e6d81c3e6aa82d741081786>@@V<lambda_601a2a7da3b7a96e9554ac7215c4b07c>@@@?$__crt_seh_guarded_call@P6AXH@Z@@QEAAP6AXH@Z$$QEAV<lambda_450d765d439847d4c735a33c368b5fc0>@@AEAV<lambda_44731a7d0e6d81c3e6aa82d741081786>@@$$QEAV<lambda_601a2a7da3b7a96e9554ac7215c4b07c>@@@Z@4HA 00000001800224d1 f   libucrt:signal.obj
 0001:000214d1       ?fin$0@?0???$?RV<lambda_d80eeec6fff315bfe5c115232f3240e3>@@AEAV<lambda_6e4b09c48022b2350581041d5f6b0c4c>@@V<lambda_2358e3775559c9db80273638284d5e45>@@@?$__crt_seh_guarded_call@X@@QEAAX$$QEAV<lambda_d80eeec6fff315bfe5c115232f3240e3>@@AEAV<lambda_6e4b09c48022b2350581041d5f6b0c4c>@@$$QEAV<lambda_2358e3775559c9db80273638284d5e45>@@@Z@4HA 00000001800224d1 f   libucrt:exit.obj
 0001:000214d1       ?fin$0@?0???$?RV<lambda_638799b9deba96c50f710eeac98168cd>@@AEAV<lambda_22ebabd17bc4fa466a2aca6d8deb888d>@@V<lambda_a6f7d7db0129f75315ebf26d50c089f1>@@@?$__crt_seh_guarded_call@H@@QEAAH$$QEAV<lambda_638799b9deba96c50f710eeac98168cd>@@AEAV<lambda_22ebabd17bc4fa466a2aca6d8deb888d>@@$$QEAV<lambda_a6f7d7db0129f75315ebf26d50c089f1>@@@Z@4HA 00000001800224d1 f   libucrt:onexit.obj
 0001:000214d1       ?fin$0@?0???$?RV<lambda_7777bce6b2f8c936911f934f8298dc43>@@AEAV<lambda_f03950bc5685219e0bcd2087efbe011e>@@V<lambda_3883c3dff614d5e0c5f61bb1ac94921c>@@@?$__crt_seh_guarded_call@H@@QEAAH$$QEAV<lambda_7777bce6b2f8c936911f934f8298dc43>@@AEAV<lambda_f03950bc5685219e0bcd2087efbe011e>@@$$QEAV<lambda_3883c3dff614d5e0c5f61bb1ac94921c>@@@Z@4HA 00000001800224d1 f   libucrt:onexit.obj
 0001:000214eb       ?filt$0@?0???R<lambda_6e4b09c48022b2350581041d5f6b0c4c>@@QEBA@XZ@4HA 00000001800224eb f   libucrt:exit.obj
 0001:00021506       _query_new_handler$fin$0   0000000180022506 f   libucrt:new_handler.obj
 0001:0002151c       ?fin$0@?0???$?RV<lambda_410d79af7f07d98d83a3f525b3859a53>@@AEAV<lambda_3e16ef9562a7dcce91392c22ab16ea36>@@V<lambda_38119f0e861e05405d8a144b9b982f0a>@@@?$__crt_seh_guarded_call@X@@QEAAX$$QEAV<lambda_410d79af7f07d98d83a3f525b3859a53>@@AEAV<lambda_3e16ef9562a7dcce91392c22ab16ea36>@@$$QEAV<lambda_38119f0e861e05405d8a144b9b982f0a>@@@Z@4HA 000000018002251c f   libucrt:wsetlocale.obj
 0001:00021536       __acrt_initialize_lowio$fin$0 0000000180022536 f   libucrt:ioinit.obj
 0001:00021536       __acrt_lowio_ensure_fh_exists$fin$0 0000000180022536 f   libucrt:osfinfo.obj
 0001:0002154f       ?fin$0@?0??update_thread_multibyte_data_internal@@YAPEAU__crt_multibyte_data@@QEAU__acrt_ptd@@QEAPEAU1@@Z@4HA 000000018002254f f   libucrt:mbctype.obj
 0001:00021568       raise$fin$0                0000000180022568 f   libucrt:signal.obj
 0001:00021589       ?fin$0@?0???$?RV<lambda_842d9ff0dc9ef11c61343bbaebe7f885>@@AEAV<lambda_c5860995281e5c4ce005b3de8f5874ee>@@V<lambda_d90129c13df834fdcbf8d2b88dafcf2d>@@@?$__crt_seh_guarded_call@X@@QEAAX$$QEAV<lambda_842d9ff0dc9ef11c61343bbaebe7f885>@@AEAV<lambda_c5860995281e5c4ce005b3de8f5874ee>@@$$QEAV<lambda_d90129c13df834fdcbf8d2b88dafcf2d>@@@Z@4HA 0000000180022589 f   libucrt:fflush.obj
 0001:000215a4       ?fin$0@?0???$?RV<lambda_886d6c58226a84441f68b9f2b8217b83>@@AEAV<lambda_ab61a845afdef5b7c387490eaf3616ee>@@V<lambda_f7f22ab5edc0698d5f6905b0d3f44752>@@@?$__crt_seh_guarded_call@X@@QEAAX$$QEAV<lambda_886d6c58226a84441f68b9f2b8217b83>@@AEAV<lambda_ab61a845afdef5b7c387490eaf3616ee>@@$$QEAV<lambda_f7f22ab5edc0698d5f6905b0d3f44752>@@@Z@4HA 00000001800225a4 f   libucrt:fflush.obj
 0001:000215c1       __acrt_update_thread_locale_data$fin$0 00000001800225c1 f   libucrt:locale_refcounting.obj
 0001:000215da       _fcloseall$fin$0           00000001800225da f   libucrt:closeall.obj
 0001:000215f3       ?fin$0@?0???$?RV<lambda_751a882b2c74d4b022dec766aa51a29a>@@AEAV<lambda_628dfdc04ba53c8bfc02c9951375f3f5>@@V<lambda_f6c7be5f7998530c34de24c7437d6b54>@@@?$__crt_seh_guarded_call@H@@QEAAH$$QEAV<lambda_751a882b2c74d4b022dec766aa51a29a>@@AEAV<lambda_628dfdc04ba53c8bfc02c9951375f3f5>@@$$QEAV<lambda_f6c7be5f7998530c34de24c7437d6b54>@@@Z@4HA 00000001800225f3 f   libucrt:close.obj
 0001:000215f3       ?fin$0@?0???$?RV<lambda_a37b2b86f63e897a80ea819b0eb08c01>@@AEAV<lambda_38ce7e780aa69e748d6df282ebc68efe>@@V<lambda_99fb1378e971ab6e7edea83e3a7a83a2>@@@?$__crt_seh_guarded_call@H@@QEAAH$$QEAV<lambda_a37b2b86f63e897a80ea819b0eb08c01>@@AEAV<lambda_38ce7e780aa69e748d6df282ebc68efe>@@$$QEAV<lambda_99fb1378e971ab6e7edea83e3a7a83a2>@@@Z@4HA 00000001800225f3 f   libucrt:commit.obj
 0001:0002160d       _write$fin$0               000000018002260d f   libucrt:write.obj
 0001:00021624       fclose$fin$0               0000000180022624 f   libucrt:fclose.obj
 0001:0002163c       _ctrlfp$filt$0             000000018002263c f   libucrt:fpctrl.obj
 0001:0002163c       common_control87$filt$0    000000018002263c f   libucrt:ieee.obj
 0001:00021670       _IsNonwritableInCurrentImage$filt$0 0000000180022670 f   LIBCMT:pesect.obj
 0001:00021690       ??__F_AtlComModule@ATL@@YAXXZ 0000000180022690 f   OposVariant.obj
 0001:0002169c       ??__F_AtlWinModule@ATL@@YAXXZ 000000018002269c f   OposVariant.obj
 0001:000216e0       ??__F_Module@@YAXXZ        00000001800226e0 f   SigCap.obj
 0001:000216fc       ??__F_AtlBaseModule@ATL@@YAXXZ 00000001800226fc f   atls:atlbase.obj
 0002:00000648       ?_AtlBaseModule$initializer$@ATL@@3P6AXXZEA 0000000180023648     atls:atlbase.obj
 0002:00000650       ?_AtlComModule$initializer$@ATL@@3P6AXXZEA 0000000180023650     OposVariant.obj
 0002:00000658       ?_AtlWinModule$initializer$@ATL@@3P6AXXZEA 0000000180023658     OposVariant.obj
 0002:00000660       ?_Module$initializer$@@3P6AXXZEA 0000000180023660     SigCap.obj
 0002:00000668       ??pConnMap$initializer$@?$IConnectionPointContainerImpl@VCOPOSSigCap@@@ATL@@0P6AXXZEA@@3P6AXXZEA 0000000180023668     SigCap.obj
 0002:00000680       ?__scrt_initialize_tss_var@@3P6AHXZEA 0000000180023680     LIBCMT:thread_safe_statics.obj
 0002:000026f8       GS_ExceptionPointers       00000001800256f8     LIBCMT:gs_report.obj
 0002:000028e0       ?ExceptionTemplate@?1??UnwindNestedFrames@__FrameHandler4@@SAXPEA_KPEAUEHExceptionRecord@@PEAU_CONTEXT@@0PEAXPEAUFuncInfo4@FH4@@HHPEAUHandlerType4@6@PEAU_xDISPATCHER_CONTEXT@@E@Z@4U_EXCEPTION_RECORD@@B 00000001800258e0     libvcruntime:risctrnsctrl.obj
 0002:000029b0       ?tokenTable@@3QBUStringLiteral@@B 00000001800259b0     libvcruntime:undname.obj
 0002:00002ab0       ?nameTable@@3QBUStringLiteral@@B 0000000180025ab0     libvcruntime:undname.obj
 0002:00002fe0       ?rttiTable@@3QBUStringLiteral@@B 0000000180025fe0     libvcruntime:undname.obj
 0002:00003030       ?IndirectionName@@3QBUStringLiteral@@B 0000000180026030     libvcruntime:undname.obj
 0002:00003090       ?PrefixName@@3QBUStringLiteral@@B 0000000180026090     libvcruntime:undname.obj
 0002:00003768       ?module_names@?A0x5302d918@@3QBQEB_WB 0000000180026768     libvcruntime:winapi_downlevel.obj
 0002:00003828       ?candidate_modules@?1??try_get_FlsAlloc@@YAP6AKP6AXPEAX@Z@ZXZ@4QBW4module_id@?A0x5302d918@@B 0000000180026828     libvcruntime:winapi_downlevel.obj
 0002:00003840       ?candidate_modules@?1??try_get_FlsFree@@YAP6AHK@ZXZ@4QBW4module_id@?A0x5302d918@@B 0000000180026840     libvcruntime:winapi_downlevel.obj
 0002:00003850       ?candidate_modules@?1??try_get_FlsGetValue@@YAP6APEAXK@ZXZ@4QBW4module_id@?A0x5302d918@@B 0000000180026850     libvcruntime:winapi_downlevel.obj
 0002:00003868       ?candidate_modules@?1??try_get_FlsSetValue@@YAP6AHKPEAX@ZXZ@4QBW4module_id@?A0x5302d918@@B 0000000180026868     libvcruntime:winapi_downlevel.obj
 0002:00003880       ?candidate_modules@?1??try_get_InitializeCriticalSectionEx@@YAP6AHPEAU_RTL_CRITICAL_SECTION@@KK@ZXZ@4QBW4module_id@?A0x5302d918@@B 0000000180026880     libvcruntime:winapi_downlevel.obj
 0002:000038b0       ?errtable@@3QBUerrentry@?A0x31fdb9ec@@B 00000001800268b0     libucrt:errno.obj
 0002:00003f40       __acrt_initializers        0000000180026f40     libucrt:initialization.obj
 0002:00004040       ?module_names@?A0x391cf84c@@3QBQEB_WB 0000000180027040     libucrt:winapi_thunks.obj
 0002:00004548       ?candidate_modules@?1??try_get_AreFileApisANSI@@YAP6AHXZXZ@4QBW4module_id@?A0x391cf84c@@B 0000000180027548     libucrt:winapi_thunks.obj
 0002:00004560       ?candidate_modules@?1??try_get_FlsAlloc@@YAP6AKP6AXPEAX@Z@ZXZ@4QBW4module_id@?A0x391cf84c@@B 0000000180027560     libucrt:winapi_thunks.obj
 0002:00004568       ?candidate_modules@?1??try_get_FlsFree@@YAP6AHK@ZXZ@4QBW4module_id@?A0x391cf84c@@B 0000000180027568     libucrt:winapi_thunks.obj
 0002:00004570       ?candidate_modules@?1??try_get_FlsGetValue@@YAP6APEAXK@ZXZ@4QBW4module_id@?A0x391cf84c@@B 0000000180027570     libucrt:winapi_thunks.obj
 0002:00004578       ?candidate_modules@?1??try_get_FlsSetValue@@YAP6AHKPEAX@ZXZ@4QBW4module_id@?A0x391cf84c@@B 0000000180027578     libucrt:winapi_thunks.obj
 0002:00004580       ?candidate_modules@?1??try_get_InitializeCriticalSectionEx@@YAP6AHPEAU_RTL_CRITICAL_SECTION@@KK@ZXZ@4QBW4module_id@?A0x391cf84c@@B 0000000180027580     libucrt:winapi_thunks.obj
 0002:00004588       ?candidate_modules@?1??try_get_LCMapStringEx@@YAP6AHPEB_WK0HPEA_WHPEAU_nlsversioninfo@@PEAX_J@ZXZ@4QBW4module_id@?A0x391cf84c@@B 0000000180027588     libucrt:winapi_thunks.obj
 0002:000045a0       ?candidate_modules@?1??try_get_LocaleNameToLCID@@YAP6AKPEB_WK@ZXZ@4QBW4module_id@?A0x391cf84c@@B 00000001800275a0     libucrt:winapi_thunks.obj
 0002:000045bc       ?candidate_modules@?1??try_get_AppPolicyGetProcessTerminationMethod@@YAP6AJPEAXPEAW4AppPolicyProcessTerminationMethod@@@ZXZ@4QBW4module_id@?A0x391cf84c@@B 00000001800275bc     libucrt:winapi_thunks.obj
 0002:000045e8       ?candidate_modules@?1??try_get_SetThreadStackGuarantee@@YAP6AHPEAK@ZXZ@4QBW4module_id@?A0x391cf84c@@B 00000001800275e8     libucrt:winapi_thunks.obj
 0002:00004610       ?strings@?1??fp_format_nan_or_infinity@@YAHW4__acrt_fp_class@@_NPEAD_K1@Z@4QAY03QEBDA 0000000180027610     libucrt:cvt.obj
 0002:00004d70       ?_mb_locale_names@@3QBQEB_WB 0000000180027d70     libucrt:mbctype.obj
 0002:000055e0       ?LcidToLocaleNameTable@?A0x881e4c05@@3QBULcidToLocaleName@1@B 00000001800285e0     libucrt:lcidtoname_downlevel.obj
 0002:00007040       ?LocaleNameToIndexTable@?A0x881e4c05@@3QBULocaleNameIndex@1@B 000000018002a040     libucrt:lcidtoname_downlevel.obj
 0002:000092e0       __real_ninf                000000018002c2e0     libucrt:log10.obj
 0002:000092f0       __real_inf                 000000018002c2f0     libucrt:log10.obj
 0002:00009300       __real_neg_qnan            000000018002c300     libucrt:log10.obj
 0002:00009310       __real_qnanbit             000000018002c310     libucrt:log10.obj
 0002:00009320       __int_1023                 000000018002c320     libucrt:log10.obj
 0002:00009330       __mask_001                 000000018002c330     libucrt:log10.obj
 0002:00009340       __mask_mant                000000018002c340     libucrt:log10.obj
 0002:00009350       __mask_mant_top8           000000018002c350     libucrt:log10.obj
 0002:00009360       __mask_mant9               000000018002c360     libucrt:log10.obj
 0002:00009370       __real_log10_e             000000018002c370     libucrt:log10.obj
 0002:00009380       __real_log10_e_lead        000000018002c380     libucrt:log10.obj
 0002:00009390       __real_log10_e_tail        000000018002c390     libucrt:log10.obj
 0002:000093a0       __real_log10_2_lead        000000018002c3a0     libucrt:log10.obj
 0002:000093b0       __real_log10_2_tail        000000018002c3b0     libucrt:log10.obj
 0002:000093c0       __real_two                 000000018002c3c0     libucrt:log10.obj
 0002:000093d0       __real_one                 000000018002c3d0     libucrt:log10.obj
 0002:000093e0       __real_half                000000018002c3e0     libucrt:log10.obj
 0002:000093f0       __mask_100                 000000018002c3f0     libucrt:log10.obj
 0002:00009400       __real_1_over_512          000000018002c400     libucrt:log10.obj
 0002:00009410       __real_1_over_2            000000018002c410     libucrt:log10.obj
 0002:00009420       __real_1_over_3            000000018002c420     libucrt:log10.obj
 0002:00009430       __real_1_over_4            000000018002c430     libucrt:log10.obj
 0002:00009440       __real_1_over_5            000000018002c440     libucrt:log10.obj
 0002:00009450       __real_1_over_6            000000018002c450     libucrt:log10.obj
 0002:00009460       __real_neg_1023            000000018002c460     libucrt:log10.obj
 0002:00009470       __mask_2045                000000018002c470     libucrt:log10.obj
 0002:00009480       __real_threshold           000000018002c480     libucrt:log10.obj
 0002:00009490       __real_near_one_lt         000000018002c490     libucrt:log10.obj
 0002:000094a0       __real_near_one_gt         000000018002c4a0     libucrt:log10.obj
 0002:000094b0       __real_min_norm            000000018002c4b0     libucrt:log10.obj
 0002:000094c0       __real_notsign             000000018002c4c0     libucrt:log10.obj
 0002:000094d0       __real_ca1                 000000018002c4d0     libucrt:log10.obj
 0002:000094e0       __real_ca2                 000000018002c4e0     libucrt:log10.obj
 0002:000094f0       __real_ca3                 000000018002c4f0     libucrt:log10.obj
 0002:00009500       __real_ca4                 000000018002c500     libucrt:log10.obj
 0002:00009510       __mask_lower               000000018002c510     libucrt:log10.obj
 0002:00009520       __flag_x_zero              000000018002c520     libucrt:log10.obj
 0002:00009524       __flag_x_neg               000000018002c524     libucrt:log10.obj
 0002:00009528       __flag_x_nan               000000018002c528     libucrt:log10.obj
 0002:0000ad80       __real@433fffffffffffff    000000018002dd80     libucrt:fpsr.obj
 0002:0000ad88       __real@c33fffffffffffff    000000018002dd88     libucrt:fpsr.obj
 0002:0000b5f0       $unwind$?cw_memcpy@@YAHPEA_WPEBDH@Z 000000018002e5f0     CWString.obj
 0002:0000b5f0       $unwind$?ProcessWindowMessage@?$CComControl@VCOPOSSigCap@@V?$CWindowImpl@VCOPOSSigCap@@VCWindow@ATL@@V?$CWinTraits@$0FGAAAAAA@$0A@@3@@ATL@@@ATL@@UEAAHPEAUHWND__@@I_K_JAEA_JK@Z 000000018002e5f0     SigCap.obj
 0002:0000b5f0       $unwind$wcstol             000000018002e5f0     libucrt:strtox.obj
 0002:0000b5f0       $unwind$_invalid_parameter_noinfo 000000018002e5f0     libucrt:invalid_parameter.obj
 0002:0000b5f0       $unwind$_log10_special     000000018002e5f0     libucrt:log_special.obj
 0002:0000b5f8       $unwind$?cw_strcpy@@YAHPEA_WPEBD@Z 000000018002e5f8     CWString.obj
 0002:0000b5f8       $unwind$??1OposDispParms@@QEAA@XZ 000000018002e5f8     OposVariant.obj
 0002:0000b5f8       $unwind$??__E_AtlComModule@ATL@@YAXXZ 000000018002e5f8     OposVariant.obj
 0002:0000b5f8       $unwind$??__E_AtlWinModule@ATL@@YAXXZ 000000018002e5f8     OposVariant.obj
 0002:0000b5f8       $unwind$??__F_AtlWinModule@ATL@@YAXXZ 000000018002e5f8     OposVariant.obj
 0002:0000b5f8       $unwind$?GetLONG@OposVariant@@QEAAJXZ 000000018002e5f8     OposVariant.obj
 0002:0000b5f8       $unwind$??__E?pConnMap@?$IConnectionPointContainerImpl@VCOPOSSigCap@@@ATL@@0PEBU_ATL_CONNMAP_ENTRY@2@EB@@YAXXZ 000000018002e5f8     SigCap.obj
 0002:0000b5f8       $unwind$?AddReplacement@CRegObject@ATL@@UEAAJPEB_W0@Z 000000018002e5f8     SigCap.obj
 0002:0000b5f8       $unwind$?AtlHresultFromLastError@ATL@@YAJXZ 000000018002e5f8     SigCap.obj
 0002:0000b5f8       $unwind$?AtlThrowImpl@ATL@@YAXJ@Z 000000018002e5f8     SigCap.obj
 0002:0000b5f8       $unwind$?CreateInstance@CComClassFactory@ATL@@UEAAJPEAUIUnknown@@AEBU_GUID@@PEAPEAX@Z 000000018002e5f8     SigCap.obj
 0002:0000b5f8       $unwind$?DefaultReflectionHandler@?$CWindowImplRoot@VCWindow@ATL@@@ATL@@SAHPEAUHWND__@@I_K_JAEA_J@Z 000000018002e5f8     SigCap.obj
 0002:0000b5f8       $unwind$?EnumAdvise@?$IOleObjectImpl@VCOPOSSigCap@@@ATL@@UEAAJPEAPEAUIEnumSTATDATA@@@Z 000000018002e5f8     SigCap.obj
 0002:0000b5f8       $unwind$?FireViewChange@CComControlBase@ATL@@QEAAJXZ 000000018002e5f8     SigCap.obj
 0002:0000b5f8       $unwind$?GetAdvise@?$IViewObjectExImpl@VCOPOSSigCap@@@ATL@@UEAAJPEAK0PEAPEAUIAdviseSink@@@Z 000000018002e5f8     SigCap.obj
 0002:0000b5f8       $unwind$?LockServer@CComClassFactory@ATL@@UEAAJH@Z 000000018002e5f8     SigCap.obj
 0002:0000b5f8       $unwind$?OnDocWindowActivate@?$IOleInPlaceActiveObjectImpl@VCOPOSSigCap@@@ATL@@UEAAJH@Z 000000018002e5f8     SigCap.obj
 0002:0000b5f8       $unwind$?Unadvise@?$IOleObjectImpl@VCOPOSSigCap@@@ATL@@UEAAJK@Z 000000018002e5f8     SigCap.obj
 0002:0000b5f8       $unwind$?_LocCPQueryInterface@?$IConnectionPointImpl@VCOPOSSigCap@@$1?DIID__IOPOSSigCapEvents@@3U_GUID@@BVCComDynamicUnkArray@ATL@@@ATL@@UEAAJAEBU_GUID@@PEAPEAX@Z 000000018002e5f8     SigCap.obj
 0002:0000b5f8       $unwind$?_LocCPQueryInterface@?$IConnectionPointImpl@VCOPOSSigCap@@$1?IID_IPropertyNotifySink@@3U_GUID@@BVCComDynamicUnkArray@ATL@@@ATL@@UEAAJAEBU_GUID@@PEAPEAX@Z 000000018002e5f8     SigCap.obj
 0002:0000b5f8       $unwind$?FinalConstruct@COPOSSigCap@@QEAAJXZ 000000018002e5f8     SigCapImpl.obj
 0002:0000b5f8       $unwind$?get_ResultCode@COPOSSigCap@@UEAAJPEAJ@Z 000000018002e5f8     SigCapImpl.obj
 0002:0000b5f8       $unwind$?get_State@COPOSSigCap@@UEAAJPEAJ@Z 000000018002e5f8     SigCapImpl.obj
 0002:0000b5f8       $unwind$??__E_AtlBaseModule@ATL@@YAXXZ 000000018002e5f8     atls:atlbase.obj
 0002:0000b5f8       $unwind$__scrt_initialize_default_local_stdio_options 000000018002e5f8     LIBCMT:default_local_stdio_options.obj
 0002:0000b5f8       $unwind$?dllmain_crt_dispatch@@YAHQEAUHINSTANCE__@@KQEAX@Z 000000018002e5f8     LIBCMT:dll_dllmain.obj
 0002:0000b5f8       $unwind$__report_rangecheckfailure 000000018002e5f8     LIBCMT:gs_report.obj
 0002:0000b5f8       $unwind$__GSHandlerCheck   000000018002e5f8     LIBCMT:gshandler.obj
 0002:0000b5f8       $unwind$?__scrt_uninitialize_thread_safe_statics@@YAXXZ 000000018002e5f8     LIBCMT:thread_safe_statics.obj
 0002:0000b5f8       $unwind$_Init_thread_notify 000000018002e5f8     LIBCMT:thread_safe_statics.obj
 0002:0000b5f8       $unwind$__scrt_acquire_startup_lock 000000018002e5f8     LIBCMT:utility.obj
 0002:0000b5f8       $unwind$__scrt_dllmain_after_initialize_c 000000018002e5f8     LIBCMT:utility.obj
 0002:0000b5f8       $unwind$__scrt_dllmain_before_initialize_c 000000018002e5f8     LIBCMT:utility.obj
 0002:0000b5f8       $unwind$__scrt_dllmain_crt_thread_attach 000000018002e5f8     LIBCMT:utility.obj
 0002:0000b5f8       $unwind$__scrt_dllmain_crt_thread_detach 000000018002e5f8     LIBCMT:utility.obj
 0002:0000b5f8       $unwind$__scrt_dllmain_uninitialize_c 000000018002e5f8     LIBCMT:utility.obj
 0002:0000b5f8       $unwind$__scrt_dllmain_uninitialize_critical 000000018002e5f8     LIBCMT:utility.obj
 0002:0000b5f8       $unwind$atexit             000000018002e5f8     LIBCMT:utility.obj
 0002:0000b5f8       $unwind$__vcrt_initialize  000000018002e5f8     libvcruntime:initialization.obj
 0002:0000b5f8       $unwind$__vcrt_thread_attach 000000018002e5f8     libvcruntime:initialization.obj
 0002:0000b5f8       $unwind$__vcrt_thread_detach 000000018002e5f8     libvcruntime:initialization.obj
 0002:0000b5f8       $unwind$__vcrt_uninitialize 000000018002e5f8     libvcruntime:initialization.obj
 0002:0000b5f8       $unwind$__vcrt_uninitialize_critical 000000018002e5f8     libvcruntime:initialization.obj
 0002:0000b5f8       $unwind$__vcrt_initialize_locks 000000018002e5f8     libvcruntime:locks.obj
 0002:0000b5f8       $unwind$__vcrt_freefls     000000018002e5f8     libvcruntime:per_thread_data.obj
 0002:0000b5f8       $unwind$__vcrt_getptd      000000018002e5f8     libvcruntime:per_thread_data.obj
 0002:0000b5f8       $unwind$__vcrt_initialize_ptd 000000018002e5f8     libvcruntime:per_thread_data.obj
 0002:0000b5f8       $unwind$__vcrt_uninitialize_ptd 000000018002e5f8     libvcruntime:per_thread_data.obj
 0002:0000b5f8       $unwind$_purecall          000000018002e5f8     libvcruntime:purevirt.obj
 0002:0000b5f8       $unwind$?FrameUnwindToEmptyState@__FrameHandler4@@SAXPEA_KPEAU_xDISPATCHER_CONTEXT@@PEAUFuncInfo4@FH4@@@Z 000000018002e5f8     libvcruntime:risctrnsctrl.obj
 0002:0000b5f8       $unwind$_GetImageBase      000000018002e5f8     libvcruntime:risctrnsctrl.obj
 0002:0000b5f8       $unwind$_GetThrowImageBase 000000018002e5f8     libvcruntime:risctrnsctrl.obj
 0002:0000b5f8       $unwind$__dcrt_terminate_console_output 000000018002e5f8     libucrt:initcon.obj
 0002:0000b5f8       $unwind$??$uninitialize_environment_internal@D@@YAXAEAPEAPEAD@Z 000000018002e5f8     libucrt:environment_initialization.obj
 0002:0000b5f8       $unwind$??$uninitialize_environment_internal@_W@@YAXAEAPEAPEA_W@Z 000000018002e5f8     libucrt:environment_initialization.obj
 0002:0000b5f8       $unwind$__dcrt_uninitialize_environments_nolock 000000018002e5f8     libucrt:environment_initialization.obj
 0002:0000b5f8       $unwind$__acrt_initialize_heap 000000018002e5f8     libucrt:heap_handle.obj
 0002:0000b5f8       $unwind$_msize_base        000000018002e5f8     libucrt:msize.obj
 0002:0000b5f8       $unwind$?initialize_multibyte@@YAHXZ 000000018002e5f8     libucrt:multibyte_initializer.obj
 0002:0000b5f8       $unwind$__acrt_thread_attach 000000018002e5f8     libucrt:initialization.obj
 0002:0000b5f8       $unwind$__acrt_thread_detach 000000018002e5f8     libucrt:initialization.obj
 0002:0000b5f8       $unwind$__acrt_uninitialize 000000018002e5f8     libucrt:initialization.obj
 0002:0000b5f8       $unwind$__acrt_uninitialize_critical 000000018002e5f8     libucrt:initialization.obj
 0002:0000b5f8       $unwind$initialize_c       000000018002e5f8     libucrt:initialization.obj
 0002:0000b5f8       $unwind$uninitialize_allocated_io_buffers 000000018002e5f8     libucrt:initialization.obj
 0002:0000b5f8       $unwind$uninitialize_environment 000000018002e5f8     libucrt:initialization.obj
 0002:0000b5f8       $unwind$__acrt_initialize_ptd 000000018002e5f8     libucrt:per_thread_data.obj
 0002:0000b5f8       $unwind$__acrt_uninitialize_ptd 000000018002e5f8     libucrt:per_thread_data.obj
 0002:0000b5f8       $unwind$__acrt_AreFileApisANSI 000000018002e5f8     libucrt:winapi_thunks.obj
 0002:0000b5f8       $unwind$__pctype_func      000000018002e5f8     libucrt:ctype.obj
 0002:0000b5f8       $unwind$__acrt_release_locale_ref 000000018002e5f8     libucrt:locale_refcounting.obj
 0002:0000b5f8       $unwind$_isatty            000000018002e5f8     libucrt:isatty.obj
 0002:0000b5f8       $unwind$_get_osfhandle     000000018002e5f8     libucrt:osfinfo.obj
 0002:0000b5f8       $unwind$__acrt_initialize_multibyte 000000018002e5f8     libucrt:mbctype.obj
 0002:0000b5f8       $unwind$__acrt_update_thread_multibyte_data 000000018002e5f8     libucrt:mbctype.obj
 0002:0000b5f8       $unwind$__doserrno         000000018002e5f8     libucrt:errno.obj
 0002:0000b5f8       $unwind$_errno             000000018002e5f8     libucrt:errno.obj
 0002:0000b5f8       $unwind$_invoke_watson     000000018002e5f8     libucrt:invalid_parameter.obj
 0002:0000b5f8       $unwind$abort              000000018002e5f8     libucrt:abort.obj
 0002:0000b5f8       $unwind$__acrt_initialize_command_line 000000018002e5f8     libucrt:argv_data.obj
 0002:0000b5f8       $unwind$_fileno            000000018002e5f8     libucrt:fileno.obj
 0002:0000b5f8       $unwind$?state_case_size@?$output_processor@_WV?$string_output_adapter@_W@__crt_stdio_output@@V?$format_validation_base@_WV?$string_output_adapter@_W@__crt_stdio_output@@@2@@__crt_stdio_output@@AEAA_NXZ 000000018002e5f8     libucrt:output.obj
 0002:0000b5f8       $unwind$_statfp            000000018002e5f8     libucrt:fpctrl.obj
 0002:0000b5f8       $unwind$fegetround         000000018002e5f8     libucrt:fegetround.obj
 0002:0000b5f8       $unwind$_set_errno_from_matherr 000000018002e5f8     libucrt:fpexcept.obj
 0002:0000b600       $unwind$?cw_dup@@YAXPEBDAEAHAEAPEA_W1@Z 000000018002e600     CWString.obj
 0002:0000b600       $unwind$?DAdvise@?$IDataObjectImpl@VCOPOSSigCap@@@ATL@@UEAAJPEAUtagFORMATETC@@KPEAUIAdviseSink@@PEAK@Z 000000018002e600     SigCap.obj
 0002:0000b600       $unwind$??$__acrt_mbs_to_wcs_cp@U__crt_win32_buffer_internal_dynamic_resizing@@@@YAHQEBDAEAV?$__crt_win32_buffer@_WU__crt_win32_buffer_internal_dynamic_resizing@@@@I@Z 000000018002e600     libucrt:argv_wildcards.obj
 0002:0000b618       $unwind$?DupWide@_CW@@AEAAXXZ 000000018002e618     CWString.obj
 0002:0000b618       $unwind$??0CAtlComModule@ATL@@QEAA@XZ 000000018002e618     OposVariant.obj
 0002:0000b618       $unwind$??0CAtlWinModule@ATL@@QEAA@XZ 000000018002e618     OposVariant.obj
 0002:0000b618       $unwind$??0?$CComObject@VCOPOSSigCap@@@ATL@@QEAA@PEAX@Z 000000018002e618     SigCap.obj
 0002:0000b618       $unwind$??0CAtlModule@ATL@@QEAA@XZ 000000018002e618     SigCap.obj
 0002:0000b618       $unwind$??1?$CComObject@VCOPOSSigCap@@@ATL@@UEAA@XZ 000000018002e618     SigCap.obj
 0002:0000b618       $unwind$??__E_Module@@YAXXZ 000000018002e618     SigCap.obj
 0002:0000b618       $unwind$?AddRef@?$CComObjectCached@VCComClassFactory@ATL@@@ATL@@UEAAKXZ 000000018002e618     SigCap.obj
 0002:0000b618       $unwind$?AllocateHeap@?$CTempBuffer@E$0BAA@VCCRTAllocator@ATL@@@ATL@@AEAAX_K@Z 000000018002e618     SigCap.obj
 0002:0000b618       $unwind$?AllocateHeap@?$CTempBuffer@_W$0BAA@VCCRTAllocator@ATL@@@ATL@@AEAAX_K@Z 000000018002e618     SigCap.obj
 0002:0000b618       $unwind$?AllocateHeap@?$CTempBuffer@_W$0EAA@VCCRTAllocator@ATL@@@ATL@@AEAAX_K@Z 000000018002e618     SigCap.obj
 0002:0000b618       $unwind$?GetClassInfoW@?$IProvideClassInfo2Impl@$1?CLSID_OPOSSigCap@@3U_GUID@@B$1?DIID__IOPOSSigCapEvents@@3U2@B$1?LIBID_OposSigCap_CCO@@3U2@B$00$0A@VCComTypeInfoHolder@ATL@@@ATL@@UEAAJPEAPEAUITypeInfo@@@Z 000000018002e618     SigCap.obj
 0002:0000b618       $unwind$?GetClientSite@?$IOleObjectImpl@VCOPOSSigCap@@@ATL@@UEAAJPEAPEAUIOleClientSite@@@Z 000000018002e618     SigCap.obj
 0002:0000b618       $unwind$?GetConnMap@COPOSSigCap@@SAPEBU_ATL_CONNMAP_ENTRY@ATL@@PEAH@Z 000000018002e618     SigCap.obj
 0002:0000b618       $unwind$?GetTypeInfo@?$IDispatchImpl@UIOPOSSigCap@@$1?IID_IOPOSSigCap@@3U_GUID@@B$1?LIBID_OposSigCap_CCO@@3U3@B$00$0A@VCComTypeInfoHolder@ATL@@@ATL@@UEAAJIKPEAPEAUITypeInfo@@@Z 000000018002e618     SigCap.obj
 0002:0000b618       $unwind$?IOleInPlaceObject_InPlaceDeactivate@CComControlBase@ATL@@QEAAJXZ 000000018002e618     SigCap.obj
 0002:0000b618       $unwind$?IOleObject_SetExtent@CComControlBase@ATL@@QEAAJKPEAUtagSIZE@@@Z 000000018002e618     SigCap.obj
 0002:0000b618       $unwind$?IsEqualObject@?$CComPtrBase@UIOleClientSite@@@ATL@@QEAA_NPEAUIUnknown@@@Z 000000018002e618     SigCap.obj
 0002:0000b618       $unwind$?QueryHitPoint@?$IViewObjectExImpl@VCOPOSSigCap@@@ATL@@UEAAJKPEBUtagRECT@@UtagPOINT@@JPEAK@Z 000000018002e618     SigCap.obj
 0002:0000b618       $unwind$?QueryInterface@?$CComAggObject@VCOPOSSigCap@@@ATL@@UEAAJAEBU_GUID@@PEAPEAX@Z 000000018002e618     SigCap.obj
 0002:0000b618       $unwind$?Release@?$CComObjectCached@VCComClassFactory@ATL@@@ATL@@UEAAKXZ 000000018002e618     SigCap.obj
 0002:0000b618       $unwind$?Unadvise@?$IConnectionPointImpl@VCOPOSSigCap@@$1?DIID__IOPOSSigCapEvents@@3U_GUID@@BVCComDynamicUnkArray@ATL@@@ATL@@UEAAJK@Z 000000018002e618     SigCap.obj
 0002:0000b618       $unwind$?Unadvise@?$IConnectionPointImpl@VCOPOSSigCap@@$1?IID_IPropertyNotifySink@@3U_GUID@@BVCComDynamicUnkArray@ATL@@@ATL@@UEAAJK@Z 000000018002e618     SigCap.obj
 0002:0000b618       $unwind$??1CComControlBase@ATL@@UEAA@XZ 000000018002e618     SigCapImpl.obj
 0002:0000b618       $unwind$??1COPOSSigCap@@UEAA@XZ 000000018002e618     SigCapImpl.obj
 0002:0000b618       $unwind$?EventUninit@COPOSSigCap@@IEAAXXZ 000000018002e618     SigCapImpl.obj
 0002:0000b618       $unwind$?FreezeEvents@COPOSSigCap@@MEAAJH@Z 000000018002e618     SigCapImpl.obj
 0002:0000b618       $unwind$?SOProcessID@COPOSSigCap@@UEAAJPEAJ@Z 000000018002e618     SigCapImpl.obj
 0002:0000b618       $unwind$?get_AutoDisable@COPOSSigCap@@UEAAJPEAF@Z 000000018002e618     SigCapImpl.obj
 0002:0000b618       $unwind$?get_CapCompareFirmwareVersion@COPOSSigCap@@UEAAJPEAF@Z 000000018002e618     SigCapImpl.obj
 0002:0000b618       $unwind$?get_CapDisplay@COPOSSigCap@@UEAAJPEAF@Z 000000018002e618     SigCapImpl.obj
 0002:0000b618       $unwind$?get_CapRealTimeData@COPOSSigCap@@UEAAJPEAF@Z 000000018002e618     SigCapImpl.obj
 0002:0000b618       $unwind$?get_CapStatisticsReporting@COPOSSigCap@@UEAAJPEAF@Z 000000018002e618     SigCapImpl.obj
 0002:0000b618       $unwind$?get_CapUpdateFirmware@COPOSSigCap@@UEAAJPEAF@Z 000000018002e618     SigCapImpl.obj
 0002:0000b618       $unwind$?get_CapUpdateStatistics@COPOSSigCap@@UEAAJPEAF@Z 000000018002e618     SigCapImpl.obj
 0002:0000b618       $unwind$?get_CapUserTerminated@COPOSSigCap@@UEAAJPEAF@Z 000000018002e618     SigCapImpl.obj
 0002:0000b618       $unwind$?get_Claimed@COPOSSigCap@@UEAAJPEAF@Z 000000018002e618     SigCapImpl.obj
 0002:0000b618       $unwind$?get_DataEventEnabled@COPOSSigCap@@UEAAJPEAF@Z 000000018002e618     SigCapImpl.obj
 0002:0000b618       $unwind$?get_DeviceEnabled@COPOSSigCap@@UEAAJPEAF@Z 000000018002e618     SigCapImpl.obj
 0002:0000b618       $unwind$?get_FreezeEvents@COPOSSigCap@@UEAAJPEAF@Z 000000018002e618     SigCapImpl.obj
 0002:0000b618       $unwind$?get_RealTimeDataEnabled@COPOSSigCap@@UEAAJPEAF@Z 000000018002e618     SigCapImpl.obj
 0002:0000b618       $unwind$?put_FreezeEvents@COPOSSigCap@@UEAAJF@Z 000000018002e618     SigCapImpl.obj
 0002:0000b618       $unwind$??1CAtlBaseModule@ATL@@QEAA@XZ 000000018002e618     atls:atlbase.obj
 0002:0000b618       $unwind$AtlThunk_AllocateData 000000018002e618     atls:atlthunk.obj
 0002:0000b618       $unwind$__raise_securityfailure 000000018002e618     LIBCMT:gs_report.obj
 0002:0000b618       $unwind$??2@YAPEAX_K@Z     000000018002e618     LIBCMT:new_scalar.obj
 0002:0000b618       $unwind$??_Gtype_info@@UEAAPEAXI@Z 000000018002e618     LIBCMT:std_type_info_static.obj
 0002:0000b618       $unwind$_Init_thread_footer 000000018002e618     LIBCMT:thread_safe_statics.obj
 0002:0000b618       $unwind$_Init_thread_header 000000018002e618     LIBCMT:thread_safe_statics.obj
 0002:0000b618       $unwind$_Init_thread_wait  000000018002e618     LIBCMT:thread_safe_statics.obj
 0002:0000b618       $unwind$??0bad_alloc@std@@QEAA@AEBV01@@Z 000000018002e618     LIBCMT:throw_bad_alloc.obj
 0002:0000b618       $unwind$??0bad_array_new_length@std@@QEAA@AEBV01@@Z 000000018002e618     LIBCMT:throw_bad_alloc.obj
 0002:0000b618       $unwind$??0exception@std@@QEAA@AEBV01@@Z 000000018002e618     LIBCMT:throw_bad_alloc.obj
 0002:0000b618       $unwind$__scrt_initialize_crt 000000018002e618     LIBCMT:utility.obj
 0002:0000b618       $unwind$__scrt_initialize_onexit_tables 000000018002e618     LIBCMT:utility.obj
 0002:0000b618       $unwind$__scrt_release_startup_lock 000000018002e618     LIBCMT:utility.obj
 0002:0000b618       $unwind$__scrt_uninitialize_crt 000000018002e618     LIBCMT:utility.obj
 0002:0000b618       $unwind$_onexit            000000018002e618     LIBCMT:utility.obj
 0002:0000b618       $unwind$_IsExceptionObjectToBeDestroyed 000000018002e618     libvcruntime:ehhelpers.obj
 0002:0000b618       $unwind$??0HandlerMap4@FH4@@QEAA@PEBUTryBlockMapEntry4@1@_KH@Z 000000018002e618     libvcruntime:frame.obj
 0002:0000b618       $unwind$??0bad_exception@std@@QEAA@AEBV01@@Z 000000018002e618     libvcruntime:frame.obj
 0002:0000b618       $unwind$?ExFilterRethrow@@YAHPEAU_EXCEPTION_POINTERS@@PEAUEHExceptionRecord@@PEAH@Z 000000018002e618     libvcruntime:frame.obj
 0002:0000b618       $unwind$__vcrt_uninitialize_locks 000000018002e618     libvcruntime:locks.obj
 0002:0000b618       $unwind$__vcrt_freeptd     000000018002e618     libvcruntime:per_thread_data.obj
 0002:0000b618       $unwind$_CreateFrameInfo   000000018002e618     libvcruntime:risctrnsctrl.obj
 0002:0000b618       $unwind$_SetImageBase      000000018002e618     libvcruntime:risctrnsctrl.obj
 0002:0000b618       $unwind$_SetThrowImageBase 000000018002e618     libvcruntime:risctrnsctrl.obj
 0002:0000b618       $unwind$__std_exception_destroy 000000018002e618     libvcruntime:std_exception.obj
 0002:0000b618       $unwind$__std_type_info_destroy_list 000000018002e618     libvcruntime:std_type_info.obj
 0002:0000b618       $unwind$__vcrt_FlsAlloc    000000018002e618     libvcruntime:winapi_downlevel.obj
 0002:0000b618       $unwind$__vcrt_FlsFree     000000018002e618     libvcruntime:winapi_downlevel.obj
 0002:0000b618       $unwind$__vcrt_FlsGetValue 000000018002e618     libvcruntime:winapi_downlevel.obj
 0002:0000b618       $unwind$_calloc_base       000000018002e618     libucrt:calloc_base.obj
 0002:0000b618       $unwind$_malloc_base       000000018002e618     libucrt:malloc_base.obj
 0002:0000b618       $unwind$_callnewh          000000018002e618     libucrt:new_handler.obj
 0002:0000b618       $unwind$initialize_pointers 000000018002e618     libucrt:initialization.obj
 0002:0000b618       $unwind$uninitialize_allocated_memory 000000018002e618     libucrt:initialization.obj
 0002:0000b618       $unwind$__acrt_initialize_locks 000000018002e618     libucrt:locks.obj
 0002:0000b618       $unwind$__acrt_uninitialize_locks 000000018002e618     libucrt:locks.obj
 0002:0000b618       $unwind$__acrt_freeptd     000000018002e618     libucrt:per_thread_data.obj
 0002:0000b618       $unwind$__acrt_getptd_head 000000018002e618     libucrt:per_thread_data.obj
 0002:0000b618       $unwind$__acrt_get_process_end_policy 000000018002e618     libucrt:win_policies.obj
 0002:0000b618       $unwind$__acrt_AppPolicyGetProcessTerminationMethodInternal 000000018002e618     libucrt:winapi_thunks.obj
 0002:0000b618       $unwind$__acrt_FlsAlloc    000000018002e618     libucrt:winapi_thunks.obj
 0002:0000b618       $unwind$__acrt_FlsFree     000000018002e618     libucrt:winapi_thunks.obj
 0002:0000b618       $unwind$__acrt_FlsGetValue 000000018002e618     libucrt:winapi_thunks.obj
 0002:0000b618       $unwind$__acrt_SetThreadStackGuarantee 000000018002e618     libucrt:winapi_thunks.obj
 0002:0000b618       $unwind$__acrt_uninitialize_winapi_thunks 000000018002e618     libucrt:winapi_thunks.obj
 0002:0000b618       $unwind$__acrt_update_locale_info 000000018002e618     libucrt:locale_update.obj
 0002:0000b618       $unwind$__acrt_update_multibyte_info 000000018002e618     libucrt:locale_update.obj
 0002:0000b618       $unwind$__acrt_allocate_buffer_for_argv 000000018002e618     libucrt:argv_parsing.obj
 0002:0000b618       $unwind$?exit_or_terminate_process@@YAXI@Z 000000018002e618     libucrt:exit.obj
 0002:0000b618       $unwind$?try_cor_exit_process@@YAXI@Z 000000018002e618     libucrt:exit.obj
 0002:0000b618       $unwind$__acrt_uninitialize_stdio 000000018002e618     libucrt:_file.obj
 0002:0000b618       $unwind$__acrt_stdio_free_buffer_nolock 000000018002e618     libucrt:_freebuf.obj
 0002:0000b618       $unwind$_fflush_nolock     000000018002e618     libucrt:fflush.obj
 0002:0000b618       $unwind$strcpy_s           000000018002e618     libucrt:strcpy_s.obj
 0002:0000b618       $unwind$wcscat_s           000000018002e618     libucrt:wcscat_s.obj
 0002:0000b618       $unwind$wcscpy_s           000000018002e618     libucrt:wcscpy_s.obj
 0002:0000b618       $unwind$_clrfp             000000018002e618     libucrt:fpctrl.obj
 0002:0000b618       $unwind$_set_statfp        000000018002e618     libucrt:fpctrl.obj
 0002:0000b618       $unwind$_clearfp           000000018002e618     libucrt:ieee.obj
 0002:0000b618       $unwind$_controlfp_s       000000018002e618     libucrt:contrlfp.obj
 0002:0000b618       $unwind$fegetenv           000000018002e618     libucrt:fegetenv.obj
 0002:0000b618       $unwind$feholdexcept       000000018002e618     libucrt:feholdexcept.obj
 0002:0000b618       $unwind$fesetenv           000000018002e618     libucrt:fesetenv.obj
 0002:0000b620       $unwind$?AtlWinModuleTerm@ATL@@YAJPEAU_ATL_WIN_MODULE70@1@PEAUHINSTANCE__@@@Z 000000018002e620     OposVariant.obj
 0002:0000b620       $unwind$?AtlWinModuleExtractCreateWndData@ATL@@YAPEAXPEAU_ATL_WIN_MODULE70@1@@Z 000000018002e620     SigCap.obj
 0002:0000b620       $unwind$?CreateInstance@?$CComCreator@V?$CComObject@VCOPOSSigCap@@@ATL@@@ATL@@SAJPEAXAEBU_GUID@@PEAPEAX@Z 000000018002e620     SigCap.obj
 0002:0000b620       $unwind$?DoEvent@COPOSSigCap@@IEAAXI_K_J@Z 000000018002e620     SigCap.obj
 0002:0000b620       $unwind$?DoVerb@?$IOleObjectImpl@VCOPOSSigCap@@@ATL@@UEAAJJPEAUtagMSG@@PEAUIOleClientSite@@JPEAUHWND__@@PEBUtagRECT@@@Z 000000018002e620     SigCap.obj
 0002:0000b620       $unwind$?HKeyFromString@CRegParser@ATL@@KAPEAUHKEY__@@PEA_W@Z 000000018002e620     SigCap.obj
 0002:0000b620       $unwind$?Next@?$CComEnumImpl@UIEnumConnectionPoints@@$1?_GUID_b196b285_bab4_101a_b69c_00aa00341d07@@3U__s_GUID@@BPEAUIConnectionPoint@@V?$_CopyInterface@UIConnectionPoint@@@ATL@@@ATL@@UEAAJKPEAPEAUIConnectionPoint@@PEAK@Z 000000018002e620     SigCap.obj
 0002:0000b620       $unwind$?Next@?$CComEnumImpl@UIEnumConnections@@$1?_GUID_b196b287_bab4_101a_b69c_00aa00341d07@@3U__s_GUID@@BUtagCONNECTDATA@@V?$_Copy@UtagCONNECTDATA@@@ATL@@@ATL@@UEAAJKPEAUtagCONNECTDATA@@PEAK@Z 000000018002e620     SigCap.obj
 0002:0000b620       $unwind$?SODirectIO@COPOSSigCap@@MEAAJJPEAJPEAPEA_W@Z 000000018002e620     SigCap.obj
 0002:0000b620       $unwind$?SetControlFocus@CComControlBase@ATL@@QEAAHH@Z 000000018002e620     SigCap.obj
 0002:0000b620       $unwind$?ocscpy_s@@YA_NPEA_W_KPEB_W@Z 000000018002e620     SigCap.obj
 0002:0000b620       $unwind$?s_EventWindowProc@COPOSSigCap@@KA_JPEAUHWND__@@I_K_J@Z 000000018002e620     SigCapImpl.obj
 0002:0000b620       $unwind$__scrt_dllmain_exception_filter 000000018002e620     LIBCMT:utility.obj
 0002:0000b620       $unwind$?Is_bad_exception_allowed@@YAEPEBU_s_ESTypeList@@@Z 000000018002e620     libvcruntime:frame.obj
 0002:0000b620       $unwind$_recalloc_base     000000018002e620     libucrt:recalloc.obj
 0002:0000b620       $unwind$__acrt_free_locale 000000018002e620     libucrt:locale_refcounting.obj
 0002:0000b620       $unwind$__acrt_lowio_create_handle_array 000000018002e620     libucrt:osfinfo.obj
 0002:0000b620       $unwind$?setSBCS@@YAXPEAU__crt_multibyte_data@@@Z 000000018002e620     libucrt:mbctype.obj
 0002:0000b620       $unwind$_seh_filter_exe    000000018002e620     libucrt:exception_filter.obj
 0002:0000b620       $unwind$_initterm          000000018002e620     libucrt:initterm.obj
 0002:0000b620       $unwind$??$ensure_buffer_is_big_enough@D@formatting_buffer@__crt_stdio_output@@QEAA_N_K@Z 000000018002e620     libucrt:output.obj
 0002:0000b620       $unwind$??$ensure_buffer_is_big_enough@_W@formatting_buffer@__crt_stdio_output@@QEAA_N_K@Z 000000018002e620     libucrt:output.obj
 0002:0000b634       $unwind$??0OposDispParms@@QEAA@PEAVOposVariant@@H@Z 000000018002e634     OposVariant.obj
 0002:0000b634       $unwind$?SetBSTR_Copy@OposVariant@@QEAAXPEA_WAEAJ@Z 000000018002e634     OposVariant.obj
 0002:0000b634       $unwind$?SetBSTR_InOutPtr@OposVariant@@QEAA_NPEAPEA_WAEAJ@Z 000000018002e634     OposVariant.obj
 0002:0000b634       $unwind$?SetDispatch_Ptr@OposVariant@@QEAAXPEAUIDispatch@@AEAJ@Z 000000018002e634     OposVariant.obj
 0002:0000b634       $unwind$?SetLONG_Ptr@OposVariant@@QEAAXPEAJAEAJ@Z 000000018002e634     OposVariant.obj
 0002:0000b634       $unwind$?SetString@OposVariant@@QEAAXPEB_WAEAJ@Z 000000018002e634     OposVariant.obj
 0002:0000b634       $unwind$?Term@CAtlComModule@ATL@@QEAAXXZ 000000018002e634     OposVariant.obj
 0002:0000b634       $unwind$??_GCRegObject@ATL@@UEAAPEAXI@Z 000000018002e634     SigCap.obj
 0002:0000b634       $unwind$?Add@?$CSimpleArray@GV?$CSimpleArrayEqualHelper@G@ATL@@@ATL@@QEAAHAEBG@Z 000000018002e634     SigCap.obj
 0002:0000b634       $unwind$?Add@?$CSimpleMap@PEA_WPEA_WVCExpansionVectorEqualHelper@ATL@@@ATL@@QEAAHAEBQEA_W0@Z 000000018002e634     SigCap.obj
 0002:0000b634       $unwind$?Add@CComDynamicUnkArray@ATL@@QEAAKPEAUIUnknown@@@Z 000000018002e634     SigCap.obj
 0002:0000b634       $unwind$?Advise@?$IOleObjectImpl@VCOPOSSigCap@@@ATL@@UEAAJPEAUIAdviseSink@@PEAK@Z 000000018002e634     SigCap.obj
 0002:0000b634       $unwind$?ClearReplacements@CExpansionVector@ATL@@QEAAJXZ 000000018002e634     SigCap.obj
 0002:0000b634       $unwind$?CreateInstance@?$CComObject@V?$CComEnum@UIEnumConnectionPoints@@$1?_GUID_b196b285_bab4_101a_b69c_00aa00341d07@@3U__s_GUID@@BPEAUIConnectionPoint@@V?$_CopyInterface@UIConnectionPoint@@@ATL@@VCComSingleThreadModel@6@@ATL@@@ATL@@SAJPEAPEAV12@@Z 000000018002e634     SigCap.obj
 0002:0000b634       $unwind$?CreateInstance@?$CComObject@V?$CComEnum@UIEnumConnections@@$1?_GUID_b196b287_bab4_101a_b69c_00aa00341d07@@3U__s_GUID@@BUtagCONNECTDATA@@V?$_Copy@UtagCONNECTDATA@@@ATL@@VCComSingleThreadModel@6@@ATL@@@ATL@@SAJPEAPEAV12@@Z 000000018002e634     SigCap.obj
 0002:0000b634       $unwind$?RegisterServer@CComModule@ATL@@QEAAJHPEBU_GUID@@@Z 000000018002e634     SigCap.obj
 0002:0000b634       $unwind$?Term@CAtlModule@ATL@@QEAAXXZ 000000018002e634     SigCap.obj
 0002:0000b634       $unwind$?UnregisterServer@CComModule@ATL@@QEAAJHPEBU_GUID@@@Z 000000018002e634     SigCap.obj
 0002:0000b634       $unwind$?VTFromRegType@CRegParser@ATL@@KAHPEB_WAEAG@Z 000000018002e634     SigCap.obj
 0002:0000b634       $unwind$_DllMainCRTStartup 000000018002e634     LIBCMT:dll_dllmain.obj
 0002:0000b634       $unwind$__vcrt_getptd_noexit 000000018002e634     libvcruntime:per_thread_data.obj
 0002:0000b634       $unwind$__vcrt_InitializeCriticalSectionEx 000000018002e634     libvcruntime:winapi_downlevel.obj
 0002:0000b634       $unwind$memcpy_s           000000018002e634     libucrt:cfout.obj
 0002:0000b634       $unwind$__acrt_getptd      000000018002e634     libucrt:per_thread_data.obj
 0002:0000b634       $unwind$__acrt_getptd_noexit 000000018002e634     libucrt:per_thread_data.obj
 0002:0000b634       $unwind$__acrt_execute_initializers 000000018002e634     libucrt:shared_initialization.obj
 0002:0000b634       $unwind$__acrt_InitializeCriticalSectionEx 000000018002e634     libucrt:winapi_thunks.obj
 0002:0000b634       $unwind$?free_crt_array_internal@@YAXQEAPEBX_K@Z 000000018002e634     libucrt:inittime.obj
 0002:0000b634       $unwind$??$common_lseek_nolock@_J@@YA_JH_JH@Z 000000018002e634     libucrt:lseek.obj
 0002:0000b634       $unwind$__acrt_stdio_flush_nolock 000000018002e634     libucrt:fflush.obj
 0002:0000b634       $unwind$??0_LocaleUpdate@@QEAA@QEAU__crt_locale_pointers@@@Z 000000018002e634     libucrt:output.obj
 0002:0000b634       $unwind$?type_case_Z@?$output_processor@_WV?$string_output_adapter@_W@__crt_stdio_output@@V?$format_validation_base@_WV?$string_output_adapter@_W@__crt_stdio_output@@@2@@__crt_stdio_output@@AEAA_NXZ 000000018002e634     libucrt:output.obj
 0002:0000b634       $unwind$?type_case_s@?$output_processor@_WV?$string_output_adapter@_W@__crt_stdio_output@@V?$format_validation_base@_WV?$string_output_adapter@_W@__crt_stdio_output@@@2@@__crt_stdio_output@@AEAA_NXZ 000000018002e634     libucrt:output.obj
 0002:0000b634       $unwind$_exception_enabled 000000018002e634     libucrt:libm_error.obj
 0002:0000b644       $unwind$??_Estringdispid@CComTypeInfoHolder@ATL@@QEAAPEAXI@Z 000000018002e644     OposVariant.obj
 0002:0000b644       $unwind$?AddTermFunc@CAtlModule@ATL@@QEAAJP6AX_K@Z0@Z 000000018002e644     SigCap.obj
 0002:0000b644       $unwind$?AtlComModuleRegisterServer@ATL@@YAJPEAU_ATL_COM_MODULE70@1@HPEBU_GUID@@@Z 000000018002e644     SigCap.obj
 0002:0000b644       $unwind$?AtlComModuleUnregisterServer@ATL@@YAJPEAU_ATL_COM_MODULE70@1@HPEBU_GUID@@@Z 000000018002e644     SigCap.obj
 0002:0000b644       $unwind$?CreateInstance@?$CComCreator@V?$CComAggObject@VCOPOSSigCap@@@ATL@@@ATL@@SAJPEAXAEBU_GUID@@PEAPEAX@Z 000000018002e644     SigCap.obj
 0002:0000b644       $unwind$?CreateInstance@?$CComCreator@V?$CComObjectCached@VCComClassFactory@ATL@@@ATL@@@ATL@@SAJPEAXAEBU_GUID@@PEAPEAX@Z 000000018002e644     SigCap.obj
 0002:0000b644       $unwind$?GetPagesHelper@?$ISpecifyPropertyPagesImpl@VCOPOSSigCap@@@ATL@@IEAAJPEAUtagCAUUID@@PEBUATL_PROPMAP_ENTRY@2@@Z 000000018002e644     SigCap.obj
 0002:0000b644       $unwind$__GSHandlerCheck_SEH 000000018002e644     LIBCMT:gshandlerseh.obj
 0002:0000b644       $unwind$??$TypeMatchHelper@V__FrameHandler3@@@@YAHPEBU_s_HandlerType@@PEBU_s_CatchableType@@PEBU_s_ThrowInfo@@@Z 000000018002e644     libvcruntime:frame.obj
 0002:0000b644       $unwind$??$TypeMatchHelper@V__FrameHandler4@@@@YAHPEAUHandlerType4@FH4@@PEBU_s_CatchableType@@PEBU_s_ThrowInfo@@@Z 000000018002e644     libvcruntime:frame.obj
 0002:0000b644       $unwind$?initialize_stdio_handles_nolock@@YAXXZ 000000018002e644     libucrt:ioinit.obj
 0002:0000b644       $unwind$__acrt_initialize_stdio 000000018002e644     libucrt:_file.obj
 0002:0000b644       $unwind$?process@?$output_processor@_WV?$string_output_adapter@_W@__crt_stdio_output@@V?$format_validation_base@_WV?$string_output_adapter@_W@__crt_stdio_output@@@2@@__crt_stdio_output@@QEAAHXZ 000000018002e644     libucrt:output.obj
 0002:0000b644       $unwind$?type_case_integer@?$output_processor@_WV?$string_output_adapter@_W@__crt_stdio_output@@V?$format_validation_base@_WV?$string_output_adapter@_W@__crt_stdio_output@@@2@@__crt_stdio_output@@AEAA_NI_N@Z 000000018002e644     libucrt:output.obj
 0002:0000b65c       $unwind$?SetBSTR@OposVariant@@QEAAXPEA_WAEAJ@Z 000000018002e65c     OposVariant.obj
 0002:0000b65c       $unwind$?SetLONG@OposVariant@@QEAAXJ@Z 000000018002e65c     OposVariant.obj
 0002:0000b65c       $unwind$?SetVARIANT_BOOL@OposVariant@@QEAAXF@Z 000000018002e65c     OposVariant.obj
 0002:0000b65c       $unwind$??0?$CComContainedObject@VCOPOSSigCap@@@ATL@@QEAA@PEAX@Z 000000018002e65c     SigCap.obj
 0002:0000b65c       $unwind$??1?$CComEnumImpl@UIEnumConnectionPoints@@$1?_GUID_b196b285_bab4_101a_b69c_00aa00341d07@@3U__s_GUID@@BPEAUIConnectionPoint@@V?$_CopyInterface@UIConnectionPoint@@@ATL@@@ATL@@UEAA@XZ 000000018002e65c     SigCap.obj
 0002:0000b65c       $unwind$??1?$CComEnumImpl@UIEnumConnections@@$1?_GUID_b196b287_bab4_101a_b69c_00aa00341d07@@3U__s_GUID@@BUtagCONNECTDATA@@V?$_Copy@UtagCONNECTDATA@@@ATL@@@ATL@@UEAA@XZ 000000018002e65c     SigCap.obj
 0002:0000b65c       $unwind$??_G?$CComAggObject@VCOPOSSigCap@@@ATL@@UEAAPEAXI@Z 000000018002e65c     SigCap.obj
 0002:0000b65c       $unwind$??_G?$CComContainedObject@VCOPOSSigCap@@@ATL@@UEAAPEAXI@Z 000000018002e65c     SigCap.obj
 0002:0000b65c       $unwind$??_G?$CComObject@V?$CComEnum@UIEnumConnectionPoints@@$1?_GUID_b196b285_bab4_101a_b69c_00aa00341d07@@3U__s_GUID@@BPEAUIConnectionPoint@@V?$_CopyInterface@UIConnectionPoint@@@ATL@@VCComSingleThreadModel@6@@ATL@@@ATL@@UEAAPEAXI@Z 000000018002e65c     SigCap.obj
 0002:0000b65c       $unwind$??_G?$CComObject@V?$CComEnum@UIEnumConnections@@$1?_GUID_b196b287_bab4_101a_b69c_00aa00341d07@@3U__s_GUID@@BUtagCONNECTDATA@@V?$_Copy@UtagCONNECTDATA@@@ATL@@VCComSingleThreadModel@6@@ATL@@@ATL@@UEAAPEAXI@Z 000000018002e65c     SigCap.obj
 0002:0000b65c       $unwind$??_G?$CComObject@VCOPOSSigCap@@@ATL@@UEAAPEAXI@Z 000000018002e65c     SigCap.obj
 0002:0000b65c       $unwind$??_G?$CComObjectCached@VCComClassFactory@ATL@@@ATL@@UEAAPEAXI@Z 000000018002e65c     SigCap.obj
 0002:0000b65c       $unwind$??_GCComClassFactory@ATL@@UEAAPEAXI@Z 000000018002e65c     SigCap.obj
 0002:0000b65c       $unwind$??_GCComModule@ATL@@UEAAPEAXI@Z 000000018002e65c     SigCap.obj
 0002:0000b65c       $unwind$?DeleteSubKey@CRegKey@ATL@@QEAAJPEB_W@Z 000000018002e65c     SigCap.obj
 0002:0000b65c       $unwind$?IOleObject_SetClientSite@CComControlBase@ATL@@QEAAJPEAUIOleClientSite@@@Z 000000018002e65c     SigCap.obj
 0002:0000b65c       $unwind$?InitNew@?$IPersistStorageImpl@VCOPOSSigCap@@@ATL@@UEAAJPEAUIStorage@@@Z 000000018002e65c     SigCap.obj
 0002:0000b65c       $unwind$?IsDirty@?$IPersistStorageImpl@VCOPOSSigCap@@@ATL@@UEAAJXZ 000000018002e65c     SigCap.obj
 0002:0000b65c       $unwind$?Release@?$CComAggObject@VCOPOSSigCap@@@ATL@@UEAAKXZ 000000018002e65c     SigCap.obj
 0002:0000b65c       $unwind$?Release@?$CComObject@V?$CComEnum@UIEnumConnectionPoints@@$1?_GUID_b196b285_bab4_101a_b69c_00aa00341d07@@3U__s_GUID@@BPEAUIConnectionPoint@@V?$_CopyInterface@UIConnectionPoint@@@ATL@@VCComSingleThreadModel@6@@ATL@@@ATL@@UEAAKXZ 000000018002e65c     SigCap.obj
 0002:0000b65c       $unwind$?Release@?$CComObject@V?$CComEnum@UIEnumConnections@@$1?_GUID_b196b287_bab4_101a_b69c_00aa00341d07@@3U__s_GUID@@BUtagCONNECTDATA@@V?$_Copy@UtagCONNECTDATA@@@ATL@@VCComSingleThreadModel@6@@ATL@@@ATL@@UEAAKXZ 000000018002e65c     SigCap.obj
 0002:0000b65c       $unwind$?Release@?$CComObject@VCOPOSSigCap@@@ATL@@UEAAKXZ 000000018002e65c     SigCap.obj
 0002:0000b65c       $unwind$?SOData@COPOSSigCap@@MEAAJJ@Z 000000018002e65c     SigCap.obj
 0002:0000b65c       $unwind$?SOStatusUpdate@COPOSSigCap@@MEAAJJ@Z 000000018002e65c     SigCap.obj
 0002:0000b65c       $unwind$?SetAdvise@?$IViewObjectExImpl@VCOPOSSigCap@@@ATL@@UEAAJKKPEAUIAdviseSink@@@Z 000000018002e65c     SigCap.obj
 0002:0000b65c       $unwind$?Term@CComModule@ATL@@QEAAXXZ 000000018002e65c     SigCap.obj
 0002:0000b65c       $unwind$DllMain            000000018002e65c     SigCap.obj
 0002:0000b65c       $unwind$??1?$IConnectionPointImpl@VCOPOSSigCap@@$1?DIID__IOPOSSigCapEvents@@3U_GUID@@BVCComDynamicUnkArray@ATL@@@ATL@@QEAA@XZ 000000018002e65c     SigCapImpl.obj
 0002:0000b65c       $unwind$??1?$IConnectionPointImpl@VCOPOSSigCap@@$1?IID_IPropertyNotifySink@@3U_GUID@@BVCComDynamicUnkArray@ATL@@@ATL@@QEAA@XZ 000000018002e65c     SigCapImpl.obj
 0002:0000b65c       $unwind$??0CAtlBaseModule@ATL@@QEAA@XZ 000000018002e65c     atls:atlbase.obj
 0002:0000b65c       $unwind$??$GetProcAddressAll@P6AP6A_JPEAUHWND__@@I_K_J@ZPEAUAtlThunkData_t@@@Z@@YAP6AP6A_JPEAUHWND__@@I_K_J@ZPEAUAtlThunkData_t@@@ZPEAP6AP6A_J0I12@Z3@Z@Z 000000018002e65c     atls:atlthunk.obj
 0002:0000b65c       $unwind$??$GetProcAddressAll@P6APEAUAtlThunkData_t@@XZ@@YAP6APEAUAtlThunkData_t@@XZPEAP6APEAU0@XZ@Z 000000018002e65c     atls:atlthunk.obj
 0002:0000b65c       $unwind$??$GetProcAddressAll@P6AXPEAUAtlThunkData_t@@@Z@@YAP6AXPEAUAtlThunkData_t@@@ZPEAP6AX0@Z@Z 000000018002e65c     atls:atlthunk.obj
 0002:0000b65c       $unwind$??$GetProcAddressAll@P6AXPEAUAtlThunkData_t@@PEAX_K@Z@@YAP6AXPEAUAtlThunkData_t@@PEAX_K@ZPEAP6AX012@Z@Z 000000018002e65c     atls:atlthunk.obj
 0002:0000b65c       $unwind$?__AllocStdCallThunk_cmn@@YAPEAXXZ 000000018002e65c     atls:atlthunk.obj
 0002:0000b65c       $unwind$?__InitializeThunkPool@@YAHXZ 000000018002e65c     atls:atlthunk.obj
 0002:0000b65c       $unwind$AtlThunk_DataToCode 000000018002e65c     atls:atlthunk.obj
 0002:0000b65c       $unwind$_RTC_Initialize    000000018002e65c     LIBCMT:initsect.obj
 0002:0000b65c       $unwind$_RTC_Terminate     000000018002e65c     LIBCMT:initsect.obj
 0002:0000b65c       $unwind$?__scrt_initialize_thread_safe_statics@@YAHXZ 000000018002e65c     LIBCMT:thread_safe_statics.obj
 0002:0000b65c       $unwind$??_Gbad_alloc@std@@UEAAPEAXI@Z 000000018002e65c     LIBCMT:throw_bad_alloc.obj
 0002:0000b65c       $unwind$??_Gbad_array_new_length@std@@UEAAPEAXI@Z 000000018002e65c     LIBCMT:throw_bad_alloc.obj
 0002:0000b65c       $unwind$??_Gexception@std@@UEAAPEAXI@Z 000000018002e65c     LIBCMT:throw_bad_alloc.obj
 0002:0000b65c       $unwind$__FrameUnwindFilter 000000018002e65c     libvcruntime:ehhelpers.obj
 0002:0000b65c       $unwind$??_Gbad_exception@std@@UEAAPEAXI@Z 000000018002e65c     libvcruntime:frame.obj
 0002:0000b65c       $unwind$?ExFilterRethrowFH4@@YAHPEAU_EXCEPTION_POINTERS@@PEAUEHExceptionRecord@@HPEAH@Z 000000018002e65c     libvcruntime:frame.obj
 0002:0000b65c       $unwind$_FindAndUnlinkFrame 000000018002e65c     libvcruntime:risctrnsctrl.obj
 0002:0000b65c       $unwind$__vcrt_FlsSetValue 000000018002e65c     libvcruntime:winapi_downlevel.obj
 0002:0000b65c       $unwind$??$common_initialize_environment_nolock@D@@YAHXZ 000000018002e65c     libucrt:environment_initialization.obj
 0002:0000b65c       $unwind$_realloc_base      000000018002e65c     libucrt:realloc_base.obj
 0002:0000b65c       $unwind$?replace_current_thread_locale_nolock@@YAXQEAU__acrt_ptd@@QEAU__crt_locale_data@@@Z 000000018002e65c     libucrt:per_thread_data.obj
 0002:0000b65c       $unwind$__acrt_execute_uninitializers 000000018002e65c     libucrt:shared_initialization.obj
 0002:0000b65c       $unwind$__acrt_FlsSetValue 000000018002e65c     libucrt:winapi_thunks.obj
 0002:0000b65c       $unwind$__acrt_LocaleNameToLCID 000000018002e65c     libucrt:winapi_thunks.obj
 0002:0000b65c       $unwind$_updatetlocinfoEx_nolock 000000018002e65c     libucrt:locale_refcounting.obj
 0002:0000b65c       $unwind$_close_nolock      000000018002e65c     libucrt:close.obj
 0002:0000b65c       $unwind$__acrt_uninitialize_lowio 000000018002e65c     libucrt:ioinit.obj
 0002:0000b65c       $unwind$__acrt_errno_map_os_error 000000018002e65c     libucrt:errno.obj
 0002:0000b65c       $unwind$_initterm_e        000000018002e65c     libucrt:initterm.obj
 0002:0000b65c       $unwind$_fclose_nolock     000000018002e65c     libucrt:fclose.obj
 0002:0000b65c       $unwind$?type_case_n@?$output_processor@_WV?$string_output_adapter@_W@__crt_stdio_output@@V?$format_validation_base@_WV?$string_output_adapter@_W@__crt_stdio_output@@@2@@__crt_stdio_output@@AEAA_NXZ 000000018002e65c     libucrt:output.obj
 0002:0000b65c       $unwind$strncpy_s          000000018002e65c     libucrt:strncpy_s.obj
 0002:0000b65c       $unwind$wcsncpy_s          000000018002e65c     libucrt:wcsncpy_s.obj
 0002:0000b668       $unwind$?ChangeBSTR@OposVariant@@QEAAXPEAPEA_WAEAJ@Z 000000018002e668     OposVariant.obj
 0002:0000b668       $unwind$?ChangeLONG@OposVariant@@QEAAXPEAJAEAJ@Z 000000018002e668     OposVariant.obj
 0002:0000b668       $unwind$?x_ismbbtype_l@@YAHPEAU__crt_locale_pointers@@IHH@Z 000000018002e668     libucrt:ismbbyte.obj
 0002:0000b678       $unwind$swprintf_s         000000018002e678     SigCap.obj
 0002:0000b688       $unwind$?_AtlVerifyStackAvailable@_ATL_SAFE_ALLOCA_IMPL@ATL@@YA_N_K@Z 000000018002e688     SigCap.obj
 0002:0000b6b4       $unwind$?filt$0@?0??_AtlVerifyStackAvailable@_ATL_SAFE_ALLOCA_IMPL@ATL@@YA_N_K@Z@4HA 000000018002e6b4     SigCap.obj
 0002:0000b6b4       $unwind$?fin$0@?0??dllmain_crt_process_attach@@YAHQEAUHINSTANCE__@@QEAX@Z@4HA 000000018002e6b4     LIBCMT:dll_dllmain.obj
 0002:0000b6b4       $unwind$?fin$0@?0??dllmain_crt_process_detach@@YAH_N@Z@4HA 000000018002e6b4     LIBCMT:dll_dllmain.obj
 0002:0000b6b4       $unwind$?fin$1@?0??dllmain_crt_process_detach@@YAH_N@Z@4HA 000000018002e6b4     LIBCMT:dll_dllmain.obj
 0002:0000b6b4       $unwind$_IsNonwritableInCurrentImage$filt$0 000000018002e6b4     LIBCMT:pesect.obj
 0002:0000b6b4       $unwind$?filt$0@?0??CxxCallCatchBlock@__FrameHandler4@@SAPEAXPEAU_EXCEPTION_RECORD@@@Z@4HA 000000018002e6b4     libvcruntime:frame.obj
 0002:0000b6b4       $unwind$_query_new_handler$fin$0 000000018002e6b4     libucrt:new_handler.obj
 0002:0000b6b4       $unwind$?fin$0@?0???$?RV<lambda_0ae27a3a962d80f24befdcbee591983d>@@AEAV<lambda_8d0ee55de4b1038c4002e0adecdf1839>@@V<lambda_dc504788e8f1664fe9b84e20bfb512f2>@@@?$__crt_seh_guarded_call@X@@QEAAX$$QEAV<lambda_0ae27a3a962d80f24befdcbee591983d>@@AEAV<lambda_8d0ee55de4b1038c4002e0adecdf1839>@@$$QEAV<lambda_dc504788e8f1664fe9b84e20bfb512f2>@@@Z@4HA 000000018002e6b4     libucrt:per_thread_data.obj
 0002:0000b6b4       $unwind$?fin$0@?0???$?RV<lambda_2d41944a1d46af3157314b8a01080d33>@@AEAV<lambda_8f455de75cd7d7f24b4096f044d8b9e6>@@V<lambda_aa500f224e6afead328df44964fe2772>@@@?$__crt_seh_guarded_call@X@@QEAAX$$QEAV<lambda_2d41944a1d46af3157314b8a01080d33>@@AEAV<lambda_8f455de75cd7d7f24b4096f044d8b9e6>@@$$QEAV<lambda_aa500f224e6afead328df44964fe2772>@@@Z@4HA 000000018002e6b4     libucrt:per_thread_data.obj
 0002:0000b6b4       $unwind$?fin$0@?0???$?RV<lambda_aa87e3671a710a21b5dc78c0bdf72e11>@@AEAV<lambda_92619d2358a28f41a33ba319515a20b9>@@V<lambda_6992ecaafeb10aed2b74cb1fae11a551>@@@?$__crt_seh_guarded_call@X@@QEAAX$$QEAV<lambda_aa87e3671a710a21b5dc78c0bdf72e11>@@AEAV<lambda_92619d2358a28f41a33ba319515a20b9>@@$$QEAV<lambda_6992ecaafeb10aed2b74cb1fae11a551>@@@Z@4HA 000000018002e6b4     libucrt:per_thread_data.obj
 0002:0000b6b4       $unwind$?fin$0@?0???$?RV<lambda_f2e299630e499de9f9a165e60fcd3db5>@@AEAV<lambda_2ae9d31cdba2644fcbeaf08da7c24588>@@V<lambda_40d01ff24d0e7b3814fdbdcee8eab3c7>@@@?$__crt_seh_guarded_call@X@@QEAAX$$QEAV<lambda_f2e299630e499de9f9a165e60fcd3db5>@@AEAV<lambda_2ae9d31cdba2644fcbeaf08da7c24588>@@$$QEAV<lambda_40d01ff24d0e7b3814fdbdcee8eab3c7>@@@Z@4HA 000000018002e6b4     libucrt:per_thread_data.obj
 0002:0000b6b4       $unwind$__acrt_update_thread_locale_data$fin$0 000000018002e6b4     libucrt:locale_refcounting.obj
 0002:0000b6b4       $unwind$?fin$0@?0???$?RV<lambda_410d79af7f07d98d83a3f525b3859a53>@@AEAV<lambda_3e16ef9562a7dcce91392c22ab16ea36>@@V<lambda_38119f0e861e05405d8a144b9b982f0a>@@@?$__crt_seh_guarded_call@X@@QEAAX$$QEAV<lambda_410d79af7f07d98d83a3f525b3859a53>@@AEAV<lambda_3e16ef9562a7dcce91392c22ab16ea36>@@$$QEAV<lambda_38119f0e861e05405d8a144b9b982f0a>@@@Z@4HA 000000018002e6b4     libucrt:wsetlocale.obj
 0002:0000b6b4       $unwind$?fin$0@?0???$?RV<lambda_751a882b2c74d4b022dec766aa51a29a>@@AEAV<lambda_628dfdc04ba53c8bfc02c9951375f3f5>@@V<lambda_f6c7be5f7998530c34de24c7437d6b54>@@@?$__crt_seh_guarded_call@H@@QEAAH$$QEAV<lambda_751a882b2c74d4b022dec766aa51a29a>@@AEAV<lambda_628dfdc04ba53c8bfc02c9951375f3f5>@@$$QEAV<lambda_f6c7be5f7998530c34de24c7437d6b54>@@@Z@4HA 000000018002e6b4     libucrt:close.obj
 0002:0000b6b4       $unwind$?fin$0@?0???$?RV<lambda_a37b2b86f63e897a80ea819b0eb08c01>@@AEAV<lambda_38ce7e780aa69e748d6df282ebc68efe>@@V<lambda_99fb1378e971ab6e7edea83e3a7a83a2>@@@?$__crt_seh_guarded_call@H@@QEAAH$$QEAV<lambda_a37b2b86f63e897a80ea819b0eb08c01>@@AEAV<lambda_38ce7e780aa69e748d6df282ebc68efe>@@$$QEAV<lambda_99fb1378e971ab6e7edea83e3a7a83a2>@@@Z@4HA 000000018002e6b4     libucrt:commit.obj
 0002:0000b6b4       $unwind$__acrt_initialize_lowio$fin$0 000000018002e6b4     libucrt:ioinit.obj
 0002:0000b6b4       $unwind$__acrt_lowio_ensure_fh_exists$fin$0 000000018002e6b4     libucrt:osfinfo.obj
 0002:0000b6b4       $unwind$_write$fin$0       000000018002e6b4     libucrt:write.obj
 0002:0000b6b4       $unwind$?fin$0@?0???$?RV<lambda_efdfa57d1f175319df784efa44bb7b81>@@AEAV<lambda_5f0a4c1567f8adc6734073e5d1e1b35c>@@V<lambda_2e8a7d3640ea6ccb4c2413664c2db6fd>@@@?$__crt_seh_guarded_call@X@@QEAAX$$QEAV<lambda_efdfa57d1f175319df784efa44bb7b81>@@AEAV<lambda_5f0a4c1567f8adc6734073e5d1e1b35c>@@$$QEAV<lambda_2e8a7d3640ea6ccb4c2413664c2db6fd>@@@Z@4HA 000000018002e6b4     libucrt:mbctype.obj
 0002:0000b6b4       $unwind$?fin$0@?0??update_thread_multibyte_data_internal@@YAPEAU__crt_multibyte_data@@QEAU__acrt_ptd@@QEAPEAU1@@Z@4HA 000000018002e6b4     libucrt:mbctype.obj
 0002:0000b6b4       $unwind$?fin$0@?0???$?RV<lambda_450d765d439847d4c735a33c368b5fc0>@@AEAV<lambda_44731a7d0e6d81c3e6aa82d741081786>@@V<lambda_601a2a7da3b7a96e9554ac7215c4b07c>@@@?$__crt_seh_guarded_call@P6AXH@Z@@QEAAP6AXH@Z$$QEAV<lambda_450d765d439847d4c735a33c368b5fc0>@@AEAV<lambda_44731a7d0e6d81c3e6aa82d741081786>@@$$QEAV<lambda_601a2a7da3b7a96e9554ac7215c4b07c>@@@Z@4HA 000000018002e6b4     libucrt:signal.obj
 0002:0000b6b4       $unwind$raise$fin$0        000000018002e6b4     libucrt:signal.obj
 0002:0000b6b4       $unwind$?filt$0@?0???R<lambda_6e4b09c48022b2350581041d5f6b0c4c>@@QEBA@XZ@4HA 000000018002e6b4     libucrt:exit.obj
 0002:0000b6b4       $unwind$?fin$0@?0???$?RV<lambda_d80eeec6fff315bfe5c115232f3240e3>@@AEAV<lambda_6e4b09c48022b2350581041d5f6b0c4c>@@V<lambda_2358e3775559c9db80273638284d5e45>@@@?$__crt_seh_guarded_call@X@@QEAAX$$QEAV<lambda_d80eeec6fff315bfe5c115232f3240e3>@@AEAV<lambda_6e4b09c48022b2350581041d5f6b0c4c>@@$$QEAV<lambda_2358e3775559c9db80273638284d5e45>@@@Z@4HA 000000018002e6b4     libucrt:exit.obj
 0002:0000b6b4       $unwind$?fin$0@?0???$?RV<lambda_638799b9deba96c50f710eeac98168cd>@@AEAV<lambda_22ebabd17bc4fa466a2aca6d8deb888d>@@V<lambda_a6f7d7db0129f75315ebf26d50c089f1>@@@?$__crt_seh_guarded_call@H@@QEAAH$$QEAV<lambda_638799b9deba96c50f710eeac98168cd>@@AEAV<lambda_22ebabd17bc4fa466a2aca6d8deb888d>@@$$QEAV<lambda_a6f7d7db0129f75315ebf26d50c089f1>@@@Z@4HA 000000018002e6b4     libucrt:onexit.obj
 0002:0000b6b4       $unwind$?fin$0@?0???$?RV<lambda_7777bce6b2f8c936911f934f8298dc43>@@AEAV<lambda_f03950bc5685219e0bcd2087efbe011e>@@V<lambda_3883c3dff614d5e0c5f61bb1ac94921c>@@@?$__crt_seh_guarded_call@H@@QEAAH$$QEAV<lambda_7777bce6b2f8c936911f934f8298dc43>@@AEAV<lambda_f03950bc5685219e0bcd2087efbe011e>@@$$QEAV<lambda_3883c3dff614d5e0c5f61bb1ac94921c>@@@Z@4HA 000000018002e6b4     libucrt:onexit.obj
 0002:0000b6b4       $unwind$_fcloseall$fin$0   000000018002e6b4     libucrt:closeall.obj
 0002:0000b6b4       $unwind$fclose$fin$0       000000018002e6b4     libucrt:fclose.obj
 0002:0000b6b4       $unwind$?fin$0@?0???$?RV<lambda_842d9ff0dc9ef11c61343bbaebe7f885>@@AEAV<lambda_c5860995281e5c4ce005b3de8f5874ee>@@V<lambda_d90129c13df834fdcbf8d2b88dafcf2d>@@@?$__crt_seh_guarded_call@X@@QEAAX$$QEAV<lambda_842d9ff0dc9ef11c61343bbaebe7f885>@@AEAV<lambda_c5860995281e5c4ce005b3de8f5874ee>@@$$QEAV<lambda_d90129c13df834fdcbf8d2b88dafcf2d>@@@Z@4HA 000000018002e6b4     libucrt:fflush.obj
 0002:0000b6b4       $unwind$?fin$0@?0???$?RV<lambda_886d6c58226a84441f68b9f2b8217b83>@@AEAV<lambda_ab61a845afdef5b7c387490eaf3616ee>@@V<lambda_f7f22ab5edc0698d5f6905b0d3f44752>@@@?$__crt_seh_guarded_call@X@@QEAAX$$QEAV<lambda_886d6c58226a84441f68b9f2b8217b83>@@AEAV<lambda_ab61a845afdef5b7c387490eaf3616ee>@@$$QEAV<lambda_f7f22ab5edc0698d5f6905b0d3f44752>@@@Z@4HA 000000018002e6b4     libucrt:fflush.obj
 0002:0000b6b4       $unwind$_ctrlfp$filt$0     000000018002e6b4     libucrt:fpctrl.obj
 0002:0000b6b4       $unwind$common_control87$filt$0 000000018002e6b4     libucrt:ieee.obj
 0002:0000b6bc       $unwind$?AtlInternalOleLoadFromStream@ATL@@YAJPEAUIStream@@AEBU_GUID@@PEAPEAXTClassesAllowedInStream@1@K@Z 000000018002e6bc     SigCap.obj
 0002:0000b6d8       $unwind$?ReadFromStream@CComBSTR@ATL@@QEAAJPEAUIStream@@@Z 000000018002e6d8     SigCap.obj
 0002:0000b6d8       $unwind$_configure_narrow_argv 000000018002e6d8     libucrt:argv_parsing.obj
 0002:0000b6ec       $unwind$?WriteToStream@CComVariant@ATL@@QEAAJPEAUIStream@@@Z 000000018002e6ec     SigCap.obj
 0002:0000b700       $unwind$?RegOpenKeyExW@CAtlTransactionManager@ATL@@QEAAJPEAUHKEY__@@PEB_WKKPEAPEAU3@@Z 000000018002e700     SigCap.obj
 0002:0000b700       $unwind$?WriteToStream@CComVariant@ATL@@QEAAJPEAUIStream@@G@Z 000000018002e700     SigCap.obj
 0002:0000b700       $unwind$__dcrt_write_console 000000018002e700     libucrt:initcon.obj
 0002:0000b700       $unwind$??$__acrt_wcs_to_mbs_cp@U__crt_win32_buffer_no_resizing@@@@YAHQEB_WAEAV?$__crt_win32_buffer@DU__crt_win32_buffer_no_resizing@@@@I@Z 000000018002e700     libucrt:getmodulefilenamea.obj
 0002:0000b714       $unwind$?ReadFromStream@CComVariant@ATL@@QEAAJPEAUIStream@@GTClassesAllowedInStream@2@K@Z 000000018002e714     SigCap.obj
 0002:0000b72c       $unwind$?GetSizeMax@CComVariant@ATL@@QEBAJPEAT_ULARGE_INTEGER@@@Z 000000018002e72c     SigCap.obj
 0002:0000b744       $unwind$?RegCreateKeyExW@CAtlTransactionManager@ATL@@QEAAJPEAUHKEY__@@PEB_WKPEA_WKKQEAU_SECURITY_ATTRIBUTES@@PEAPEAU3@PEAK@Z 000000018002e744     SigCap.obj
 0002:0000b758       $unwind$?GetGITPtr@CAtlModule@ATL@@UEAAJPEAPEAUIGlobalInterfaceTable@@@Z 000000018002e758     SigCap.obj
 0002:0000b758       $unwind$?RegDeleteKeyW@CAtlTransactionManager@ATL@@QEAAJPEAUHKEY__@@PEB_W@Z 000000018002e758     SigCap.obj
 0002:0000b758       $unwind$?getStateFromIterators@UWMap4@FH4@@SAHAEBViterator@12@H0H0@Z 000000018002e758     libvcruntime:frame.obj
 0002:0000b768       $unwind$?AtlHiMetricToPixel@ATL@@YAXPEBUtagSIZE@@PEAU2@@Z 000000018002e768     SigCap.obj
 0002:0000b768       $unwind$?AtlInternalQueryInterface@ATL@@YAJPEAXPEBU_ATL_INTMAP_ENTRY@1@AEBU_GUID@@PEAPEAX@Z 000000018002e768     SigCap.obj
 0002:0000b780       $unwind$?Append@CParseBuffer@CRegParser@ATL@@QEAAHPEB_WH@Z 000000018002e780     SigCap.obj
 0002:0000b780       $unwind$?AtlComModuleGetClassObject@ATL@@YAJPEAU_ATL_COM_MODULE70@1@AEBU_GUID@@1PEAPEAX@Z 000000018002e780     SigCap.obj
 0002:0000b780       $unwind$?EnumConnections@?$IConnectionPointImpl@VCOPOSSigCap@@$1?DIID__IOPOSSigCapEvents@@3U_GUID@@BVCComDynamicUnkArray@ATL@@@ATL@@UEAAJPEAPEAUIEnumConnections@@@Z 000000018002e780     SigCap.obj
 0002:0000b780       $unwind$?EnumConnections@?$IConnectionPointImpl@VCOPOSSigCap@@$1?IID_IPropertyNotifySink@@3U_GUID@@BVCComDynamicUnkArray@ATL@@@ATL@@UEAAJPEAPEAUIEnumConnections@@@Z 000000018002e780     SigCap.obj
 0002:0000b780       $unwind$?GetClassObject@CComModule@ATL@@QEAAJAEBU_GUID@@0PEAPEAX@Z 000000018002e780     SigCap.obj
 0002:0000b780       $unwind$?Init@?$CComEnumImpl@UIEnumConnectionPoints@@$1?_GUID_b196b285_bab4_101a_b69c_00aa00341d07@@3U__s_GUID@@BPEAUIConnectionPoint@@V?$_CopyInterface@UIConnectionPoint@@@ATL@@@ATL@@QEAAJPEAPEAUIConnectionPoint@@0PEAUIUnknown@@W4CComEnumFlags@2@@Z 000000018002e780     SigCap.obj
 0002:0000b780       $unwind$?Init@?$CComEnumImpl@UIEnumConnections@@$1?_GUID_b196b287_bab4_101a_b69c_00aa00341d07@@3U__s_GUID@@BUtagCONNECTDATA@@V?$_Copy@UtagCONNECTDATA@@@ATL@@@ATL@@QEAAJPEAUtagCONNECTDATA@@0PEAUIUnknown@@W4CComEnumFlags@2@@Z 000000018002e780     SigCap.obj
 0002:0000b780       $unwind$?NextToken@CRegParser@ATL@@IEAAJPEA_W@Z 000000018002e780     SigCap.obj
 0002:0000b780       $unwind$__acrt_fp_strflt_to_string 000000018002e780     libucrt:_fptostr.obj
 0002:0000b780       $unwind$__acrt_DownlevelLocaleNameToLCID 000000018002e780     libucrt:lcidtoname_downlevel.obj
 0002:0000b780       $unwind$??R<lambda_f03950bc5685219e0bcd2087efbe011e>@@QEBAHXZ 000000018002e780     libucrt:onexit.obj
 0002:0000b798       $unwind$?AtlRegisterClassCategoriesHelper@ATL@@YAJAEBU_GUID@@PEBU_ATL_CATMAP_ENTRY@1@H@Z 000000018002e798     SigCap.obj
 0002:0000b7bc       $unwind$?AtlLoadTypeLib@ATL@@YAJPEAUHINSTANCE__@@PEB_WPEAPEA_WPEAPEAUITypeLib@@@Z 000000018002e7bc     SigCap.obj
 0002:0000b7dc       $unwind$?AtlRegisterTypeLib@ATL@@YAJPEAUHINSTANCE__@@PEB_W@Z 000000018002e7dc     SigCap.obj
 0002:0000b7f8       $unwind$?AtlUnRegisterTypeLib@ATL@@YAJPEAUHINSTANCE__@@PEB_W@Z 000000018002e7f8     SigCap.obj
 0002:0000b800       $unwind$?GetTI@CComTypeInfoHolder@ATL@@QEAAJK@Z 000000018002e800     SigCap.obj
 0002:0000b800       $unwind$?RecurseDeleteKey@CRegKey@ATL@@QEAAJPEB_W@Z 000000018002e800     SigCap.obj
 0002:0000b820       $unwind$?UpdateRegistryFromResource@CAtlModule@ATL@@QEAAJIHPEAU_ATL_REGMAP_ENTRY@2@@Z 000000018002e820     SigCap.obj
 0002:0000b820       $unwind$?UpdateRegistryFromResource@CAtlModule@ATL@@QEAAJPEB_WHPEAU_ATL_REGMAP_ENTRY@2@@Z 000000018002e820     SigCap.obj
 0002:0000b840       $unwind$?Lookup@?$CSimpleMap@PEA_WPEA_WVCExpansionVectorEqualHelper@ATL@@@ATL@@QEBAPEA_WAEBQEA_W@Z 000000018002e840     SigCap.obj
 0002:0000b840       $unwind$__std_exception_copy 000000018002e840     libvcruntime:std_exception.obj
 0002:0000b840       $unwind$_free_osfhnd       000000018002e840     libucrt:osfinfo.obj
 0002:0000b854       $unwind$?Add@CExpansionVector@ATL@@QEAAHPEB_W0@Z 000000018002e854     SigCap.obj
 0002:0000b86c       $unwind$?PreProcessBuffer@CRegParser@ATL@@QEAAJPEA_WPEAPEA_W@Z 000000018002e86c     SigCap.obj
 0002:0000b890       $unwind$?RegisterBuffer@CRegParser@ATL@@QEAAJPEA_WH@Z 000000018002e890     SigCap.obj
 0002:0000b8b0       $unwind$?AddValue@CRegParser@ATL@@IEAAJAEAVCRegKey@2@PEB_WPEA_W@Z 000000018002e8b0     SigCap.obj
 0002:0000b8d0       $unwind$?RegisterSubkeys@CRegParser@ATL@@IEAAJPEA_WPEAUHKEY__@@HH@Z 000000018002e8d0     SigCap.obj
 0002:0000b8f0       $unwind$?SkipAssignment@CRegParser@ATL@@IEAAJPEA_W@Z 000000018002e8f0     SigCap.obj
 0002:0000b908       $unwind$?RegisterFromResource@CRegObject@ATL@@IEAAJPEB_W00H@Z 000000018002e908     SigCap.obj
 0002:0000b928       $unwind$?Cleanup@CComTypeInfoHolder@ATL@@SAX_K@Z 000000018002e928     SigCap.obj
 0002:0000b928       $unwind$AtlThunk_FreeData  000000018002e928     atls:atlthunk.obj
 0002:0000b928       $unwind$_free_base         000000018002e928     libucrt:free_base.obj
 0002:0000b928       $unwind$?destroy_fls@@YAXPEAX@Z 000000018002e928     libucrt:per_thread_data.obj
 0002:0000b928       $unwind$__acrt_locale_free_numeric 000000018002e928     libucrt:initnum.obj
 0002:0000b928       $unwind$__acrt_locale_free_lc_time_if_unreferenced 000000018002e928     libucrt:locale_refcounting.obj
 0002:0000b930       $unwind$?GetIDsOfNames@CComTypeInfoHolder@ATL@@QEAAJAEBU_GUID@@PEAPEA_WIKPEAJ@Z 000000018002e930     SigCap.obj
 0002:0000b94c       $unwind$?LoadNameCache@CComTypeInfoHolder@ATL@@QEAAJPEAUITypeInfo@@@Z 000000018002e94c     SigCap.obj
 0002:0000b960       $unwind$?StartWindowProc@?$CWindowImplBaseT@VCWindow@ATL@@V?$CWinTraits@$0FGAAAAAA@$0A@@2@@ATL@@SA_JPEAUHWND__@@I_K_J@Z 000000018002e960     SigCap.obj
 0002:0000b960       $unwind$?should_round_up@@YA_NQEBN_KFW4__acrt_rounding_mode@@@Z 000000018002e960     libucrt:cvt.obj
 0002:0000b960       $unwind$??$parse_command_line@D@@YAXPEADPEAPEAD0PEA_K2@Z 000000018002e960     libucrt:argv_parsing.obj
 0002:0000b97c       $unwind$?WindowProc@?$CWindowImplBaseT@VCWindow@ATL@@V?$CWinTraits@$0FGAAAAAA@$0A@@2@@ATL@@SA_JPEAUHWND__@@I_K_J@Z 000000018002e97c     SigCap.obj
 0002:0000b994       $unwind$?atlCreate@?$CWindowImplBaseT@VCWindow@ATL@@V?$CWinTraits@$0FGAAAAAA@$0A@@2@@ATL@@QEAAPEAUHWND__@@PEAU3@V_U_RECT@2@PEB_WKKV_U_MENUorID@2@GPEAX@Z 000000018002e994     SigCap.obj
 0002:0000b9ac       $unwind$??$AtlModuleRegisterWndClassInfoT@VAtlModuleRegisterWndClassInfoParamW@ATL@@@ATL@@YAGPEAU_ATL_BASE_MODULE70@0@PEAU_ATL_WIN_MODULE70@0@PEAU_ATL_WNDCLASSINFOW@0@PEAP6A_JPEAUHWND__@@I_K_J@ZVAtlModuleRegisterWndClassInfoParamW@0@@Z 000000018002e9ac     SigCap.obj
 0002:0000b9cc       $unwind$?GetZoomInfo@CComControlBase@ATL@@QEAAXAEAUATL_DRAWINFO@@@Z 000000018002e9cc     SigCap.obj
 0002:0000b9cc       $unwind$?OnKillFocus@CComControlBase@ATL@@QEAA_JI_K_JAEAH@Z 000000018002e9cc     SigCap.obj
 0002:0000b9cc       $unwind$iswctype           000000018002e9cc     libucrt:iswctype.obj
 0002:0000b9d8       $unwind$?SendOnDataChange@CComControlBase@ATL@@QEAAJK@Z 000000018002e9d8     SigCap.obj
 0002:0000b9e8       $unwind$?OnSetFocus@CComControlBase@ATL@@QEAA_JI_K_JAEAH@Z 000000018002e9e8     SigCap.obj
 0002:0000b9f8       $unwind$?OnMouseActivate@CComControlBase@ATL@@QEAA_JI_K_JAEAH@Z 000000018002e9f8     SigCap.obj
 0002:0000ba00       $unwind$?GetAmbientLocaleID@CComControlBase@ATL@@QEAAJAEAK@Z 000000018002ea00     SigCap.obj
 0002:0000ba00       $unwind$?GetAmbientUserMode@CComControlBase@ATL@@QEAAJAEAH@Z 000000018002ea00     SigCap.obj
 0002:0000ba10       $unwind$?IQuickActivate_QuickActivate@CComControlBase@ATL@@QEAAJPEAUtagQACONTAINER@@PEAUtagQACONTROL@@@Z 000000018002ea10     SigCap.obj
 0002:0000ba28       $unwind$?DoVerbProperties@CComControlBase@ATL@@QEAAJPEBUtagRECT@@PEAUHWND__@@@Z 000000018002ea28     SigCap.obj
 0002:0000ba40       $unwind$?InPlaceActivate@CComControlBase@ATL@@QEAAJJPEBUtagRECT@@@Z 000000018002ea40     SigCap.obj
 0002:0000ba60       $unwind$?IOleObject_Close@CComControlBase@ATL@@QEAAJK@Z 000000018002ea60     SigCap.obj
 0002:0000ba60       $unwind$?type_case_c_tchar@?$output_processor@_WV?$string_output_adapter@_W@__crt_stdio_output@@V?$format_validation_base@_WV?$string_output_adapter@_W@__crt_stdio_output@@@2@@__crt_stdio_output@@AEAA_N_W@Z 000000018002ea60     libucrt:output.obj
 0002:0000ba70       $unwind$?IOleInPlaceObject_UIDeactivate@CComControlBase@ATL@@QEAAJXZ 000000018002ea70     SigCap.obj
 0002:0000ba88       $unwind$?IOleInPlaceObject_SetObjectRects@CComControlBase@ATL@@QEAAJPEBUtagRECT@@0@Z 000000018002ea88     SigCap.obj
 0002:0000ba9c       $unwind$?IViewObject_Draw@CComControlBase@ATL@@QEAAJKJPEAXPEAUtagDVTARGETDEVICE@@PEAUHDC__@@2PEBU_RECTL@@3@Z 000000018002ea9c     SigCap.obj
 0002:0000bab8       $unwind$?IDataObject_GetData@CComControlBase@ATL@@QEAAJPEAUtagFORMATETC@@PEAUtagSTGMEDIUM@@@Z 000000018002eab8     SigCap.obj
 0002:0000bad8       $unwind$?OnPaint@CComControlBase@ATL@@QEAA_JI_K_JAEAH@Z 000000018002ead8     SigCap.obj
 0002:0000baf4       $unwind$?OnDrawAdvanced@CComControlBase@ATL@@UEAAJAEAUATL_DRAWINFO@@@Z 000000018002eaf4     SigCap.obj
 0002:0000bb10       $unwind$?Invoke@?$IDispatchImpl@UIOPOSSigCap@@$1?IID_IOPOSSigCap@@3U_GUID@@B$1?LIBID_OposSigCap_CCO@@3U3@B$00$0A@VCComTypeInfoHolder@ATL@@@ATL@@UEAAJJAEBU_GUID@@KGPEAUtagDISPPARAMS@@PEAUtagVARIANT@@PEAUtagEXCEPINFO@@PEAI@Z 000000018002eb10     SigCap.obj
 0002:0000bb10       $unwind$?ReleaseDevice@COPOSSigCap@@UEAAJPEAJ@Z 000000018002eb10     SigCapImpl.obj
 0002:0000bb10       $unwind$_mbsdec_l          000000018002eb10     libucrt:mbsdec.obj
 0002:0000bb1c       $unwind$?atlCreate@?$CWindowImpl@VCOPOSSigCap@@VCWindow@ATL@@V?$CWinTraits@$0FGAAAAAA@$0A@@3@@ATL@@QEAAPEAUHWND__@@PEAU3@V_U_RECT@2@PEB_WKKV_U_MENUorID@2@PEAX@Z 000000018002eb1c     SigCap.obj
 0002:0000bb1c       $unwind$?fp_format_e@@YAHQEBNQEAD_K12H_NIQEAU__crt_locale_pointers@@W4__acrt_rounding_mode@@@Z 000000018002eb1c     libucrt:cvt.obj
 0002:0000bb1c       $unwind$_mbtowc_l          000000018002eb1c     libucrt:mbtowc.obj
 0002:0000bb1c       $unwind$__acrt_LCMapStringEx 000000018002eb1c     libucrt:winapi_thunks.obj
 0002:0000bb30       $unwind$?CreateControlWindow@?$CComControl@VCOPOSSigCap@@V?$CWindowImpl@VCOPOSSigCap@@VCWindow@ATL@@V?$CWinTraits@$0FGAAAAAA@$0A@@3@@ATL@@@ATL@@UEAAPEAUHWND__@@PEAU3@AEAUtagRECT@@@Z 000000018002eb30     SigCap.obj
 0002:0000bb30       $unwind$?ClearInput@COPOSSigCap@@UEAAJPEAJ@Z 000000018002eb30     SigCapImpl.obj
 0002:0000bb30       $unwind$?ClearInputProperties@COPOSSigCap@@UEAAJPEAJ@Z 000000018002eb30     SigCapImpl.obj
 0002:0000bb30       $unwind$?EndCapture@COPOSSigCap@@UEAAJPEAJ@Z 000000018002eb30     SigCapImpl.obj
 0002:0000bb30       $unwind$?__scrt_throw_std_bad_alloc@@YAXXZ 000000018002eb30     LIBCMT:throw_bad_alloc.obj
 0002:0000bb30       $unwind$?__scrt_throw_std_bad_array_new_length@@YAXXZ 000000018002eb30     LIBCMT:throw_bad_alloc.obj
 0002:0000bb30       $unwind$_raise_exc         000000018002eb30     libucrt:fpexcept.obj
 0002:0000bb38       $unwind$?GetSizeMax@?$IPersistStreamInitImpl@VCOPOSSigCap@@@ATL@@UEAAJPEAT_ULARGE_INTEGER@@@Z 000000018002eb38     SigCap.obj
 0002:0000bb50       $unwind$?IPersistStreamInit_Load@?$IPersistStreamInitImpl@VCOPOSSigCap@@@ATL@@QEAAJPEAUIStream@@PEBUATL_PROPMAP_ENTRY@2@@Z 000000018002eb50     SigCap.obj
 0002:0000bb6c       $unwind$?IPersistStreamInit_Save@?$IPersistStreamInitImpl@VCOPOSSigCap@@@ATL@@QEAAJPEAUIStream@@HPEBUATL_PROPMAP_ENTRY@2@@Z 000000018002eb6c     SigCap.obj
 0002:0000bb88       $unwind$?DoVerbPrimary@?$IOleObjectImpl@VCOPOSSigCap@@@ATL@@QEAAJPEBUtagRECT@@PEAUHWND__@@@Z 000000018002eb88     SigCap.obj
 0002:0000bba0       $unwind$?TranslateAcceleratorW@?$IOleInPlaceActiveObjectImpl@VCOPOSSigCap@@@ATL@@UEAAJPEAUtagMSG@@@Z 000000018002eba0     SigCap.obj
 0002:0000bbac       $unwind$?Draw@?$IViewObjectExImpl@VCOPOSSigCap@@@ATL@@UEAAJKJPEAXPEAUtagDVTARGETDEVICE@@PEAUHDC__@@2PEBU_RECTL@@3P6AH_K@Z4@Z 000000018002ebac     SigCap.obj
 0002:0000bbb4       $unwind$?QueryHitRect@?$IViewObjectExImpl@VCOPOSSigCap@@@ATL@@UEAAJKPEBUtagRECT@@0JPEAK@Z 000000018002ebb4     SigCap.obj
 0002:0000bbc4       $unwind$?OnWindowMessage@?$IOleInPlaceObjectWindowlessImpl@VCOPOSSigCap@@@ATL@@UEAAJI_K_JPEA_J@Z 000000018002ebc4     SigCap.obj
 0002:0000bbd8       $unwind$?EnumConnectionPoints@?$IConnectionPointContainerImpl@VCOPOSSigCap@@@ATL@@UEAAJPEAPEAUIEnumConnectionPoints@@@Z 000000018002ebd8     SigCap.obj
 0002:0000bc00       $unwind$?FindConnectionPoint@?$IConnectionPointContainerImpl@VCOPOSSigCap@@@ATL@@UEAAJAEBU_GUID@@PEAPEAUIConnectionPoint@@@Z 000000018002ec00     SigCap.obj
 0002:0000bc00       $unwind$?__mbrtoc32_utf8@__crt_mbstring@@YA_KPEA_UPEBD_KPEAU_Mbstatet@@@Z 000000018002ec00     libucrt:mbrtoc32.obj
 0002:0000bc1c       $unwind$?Load@?$IPersistStorageImpl@VCOPOSSigCap@@@ATL@@UEAAJPEAUIStorage@@@Z 000000018002ec1c     SigCap.obj
 0002:0000bc2c       $unwind$?Save@?$IPersistStorageImpl@VCOPOSSigCap@@@ATL@@UEAAJPEAUIStorage@@H@Z 000000018002ec2c     SigCap.obj
 0002:0000bc40       $unwind$?IPSI_GetIPersistStreamInit@?$IPersistStorageImpl@VCOPOSSigCap@@@ATL@@AEAAPEAUIPersistStreamInit@@XZ 000000018002ec40     SigCap.obj
 0002:0000bc40       $unwind$?parse_int_from_format_string@?$output_processor@_WV?$string_output_adapter@_W@__crt_stdio_output@@V?$format_validation_base@_WV?$string_output_adapter@_W@__crt_stdio_output@@@2@@__crt_stdio_output@@AEAA_NQEAH@Z 000000018002ec40     libucrt:output.obj
 0002:0000bc54       $unwind$?GetInterfaceSafetyOptions@?$IObjectSafetyImpl@VCOPOSSigCap@@$02@ATL@@UEAAJAEBU_GUID@@PEAK1@Z 000000018002ec54     SigCap.obj
 0002:0000bc68       $unwind$?SetInterfaceSafetyOptions@?$IObjectSafetyImpl@VCOPOSSigCap@@$02@ATL@@UEAAJAEBU_GUID@@KK@Z 000000018002ec68     SigCap.obj
 0002:0000bc7c       $unwind$?Advise@?$IConnectionPointImpl@VCOPOSSigCap@@$1?DIID__IOPOSSigCapEvents@@3U_GUID@@BVCComDynamicUnkArray@ATL@@@ATL@@UEAAJPEAUIUnknown@@PEAK@Z 000000018002ec7c     SigCap.obj
 0002:0000bc7c       $unwind$?Advise@?$IConnectionPointImpl@VCOPOSSigCap@@$1?IID_IPropertyNotifySink@@3U_GUID@@BVCComDynamicUnkArray@ATL@@@ATL@@UEAAJPEAUIUnknown@@PEAK@Z 000000018002ec7c     SigCap.obj
 0002:0000bc90       $unwind$?Fire_DataEvent@?$CProxy_IOPOSEvents@VCOPOSSigCap@@@@QEAAXJ@Z 000000018002ec90     SigCap.obj
 0002:0000bc90       $unwind$?Fire_StatusUpdateEvent@?$CProxy_IOPOSEvents@VCOPOSSigCap@@@@QEAAXJ@Z 000000018002ec90     SigCap.obj
 0002:0000bca8       $unwind$?Fire_DirectIOEvent@?$CProxy_IOPOSEvents@VCOPOSSigCap@@@@QEAAXJPEAJPEAPEA_W@Z 000000018002eca8     SigCap.obj
 0002:0000bcc8       $unwind$?Fire_ErrorEvent@?$CProxy_IOPOSEvents@VCOPOSSigCap@@@@QEAAXJJJPEAJ@Z 000000018002ecc8     SigCap.obj
 0002:0000bce8       $unwind$?FireTheEvent@?$CProxy_IOPOSEvents@VCOPOSSigCap@@@@IEAAXPEAVOposVariant@@IAEAJPEB_WJ@Z 000000018002ece8     SigCap.obj
 0002:0000bcf8       $unwind$?ProcessWindowMessage@COPOSSigCap@@UEAAHPEAUHWND__@@I_K_JAEA_JK@Z 000000018002ecf8     SigCap.obj
 0002:0000bcf8       $unwind$__dcrt_get_narrow_environment_from_os 000000018002ecf8     libucrt:get_environment_from_os.obj
 0002:0000bcf8       $unwind$?fp_format_f_internal@@YAHQEAD_KHQEAU_strflt@@_NQEAU__crt_locale_pointers@@@Z 000000018002ecf8     libucrt:cvt.obj
 0002:0000bcf8       $unwind$??$__acrt_wcs_to_mbs_cp@U__crt_win32_buffer_internal_dynamic_resizing@@@@YAHQEB_WAEAV?$__crt_win32_buffer@DU__crt_win32_buffer_internal_dynamic_resizing@@@@I@Z 000000018002ecf8     libucrt:argv_wildcards.obj
 0002:0000bd10       $unwind$?SOError@COPOSSigCap@@MEAAJJJJPEAJ@Z 000000018002ed10     SigCap.obj
 0002:0000bd10       $unwind$_invalid_parameter 000000018002ed10     libucrt:invalid_parameter.obj
 0002:0000bd24       $unwind$?Clone@?$CComEnumImpl@UIEnumConnectionPoints@@$1?_GUID_b196b285_bab4_101a_b69c_00aa00341d07@@3U__s_GUID@@BPEAUIConnectionPoint@@V?$_CopyInterface@UIConnectionPoint@@@ATL@@@ATL@@UEAAJPEAPEAUIEnumConnectionPoints@@@Z 000000018002ed24     SigCap.obj
 0002:0000bd24       $unwind$?Clone@?$CComEnumImpl@UIEnumConnections@@$1?_GUID_b196b287_bab4_101a_b69c_00aa00341d07@@3U__s_GUID@@BUtagCONNECTDATA@@V?$_Copy@UtagCONNECTDATA@@@ATL@@@ATL@@UEAAJPEAPEAUIEnumConnections@@@Z 000000018002ed24     SigCap.obj
 0002:0000bd3c       $unwind$?GetOposProp@COPOSSigCap@@IEAAJJPEAJJ@Z 000000018002ed3c     SigCapImpl.obj
 0002:0000bd3c       $unwind$?GetOposProp@COPOSSigCap@@IEAAJJPEAPEA_WJ@Z 000000018002ed3c     SigCapImpl.obj
 0002:0000bd54       $unwind$?SetOposProp@COPOSSigCap@@IEAAJJJJ@Z 000000018002ed54     SigCapImpl.obj
 0002:0000bd74       $unwind$?DoInvoke@COPOSSigCap@@IEAAJJPEAVOposVariant@@IHPEAJ_N@Z 000000018002ed74     SigCapImpl.obj
 0002:0000bd8c       $unwind$?SetCOFreezeEvents@COPOSSigCap@@IEAAXF@Z 000000018002ed8c     SigCapImpl.obj
 0002:0000bda0       $unwind$?OnDraw@COPOSSigCap@@MEAAJAEAUATL_DRAWINFO@@@Z 000000018002eda0     SigCapImpl.obj
 0002:0000bdb8       $unwind$?EventInit@COPOSSigCap@@IEAAJXZ 000000018002edb8     SigCapImpl.obj
 0002:0000bdcc       $unwind$?EventWindowProc@COPOSSigCap@@IEAA_JI_K_J@Z 000000018002edcc     SigCapImpl.obj
 0002:0000bdcc       $unwind$__stdio_common_vswprintf_s 000000018002edcc     libucrt:output.obj
 0002:0000bdd8       $unwind$?get_ControlObjectDescription@COPOSSigCap@@UEAAJPEAPEA_W@Z 000000018002edd8     SigCapImpl.obj
 0002:0000bdd8       $unwind$__dcrt_lowio_ensure_console_output_initialized 000000018002edd8     libucrt:initcon.obj
 0002:0000bdd8       $unwind$_isleadbyte_l      000000018002edd8     libucrt:_wctype.obj
 0002:0000bdd8       $unwind$?getSystemCP@@YAHH@Z 000000018002edd8     libucrt:mbctype.obj
 0002:0000bde0       $unwind$?BeginCapture@COPOSSigCap@@UEAAJPEA_WPEAJ@Z 000000018002ede0     SigCapImpl.obj
 0002:0000bde0       $unwind$?CheckHealth@COPOSSigCap@@UEAAJJPEAJ@Z 000000018002ede0     SigCapImpl.obj
 0002:0000bde0       $unwind$?ResetStatistics@COPOSSigCap@@UEAAJPEA_WPEAJ@Z 000000018002ede0     SigCapImpl.obj
 0002:0000bde0       $unwind$?RetrieveStatistics@COPOSSigCap@@UEAAJPEAPEA_WPEAJ@Z 000000018002ede0     SigCapImpl.obj
 0002:0000bde0       $unwind$?UpdateFirmware@COPOSSigCap@@UEAAJPEA_WPEAJ@Z 000000018002ede0     SigCapImpl.obj
 0002:0000bde0       $unwind$?UpdateStatistics@COPOSSigCap@@UEAAJPEA_WPEAJ@Z 000000018002ede0     SigCapImpl.obj
 0002:0000bdf0       $unwind$?ClaimDevice@COPOSSigCap@@UEAAJJPEAJ@Z 000000018002edf0     SigCapImpl.obj
 0002:0000be00       $unwind$?Close@COPOSSigCap@@UEAAJPEAJ@Z 000000018002ee00     SigCapImpl.obj
 0002:0000be0c       $unwind$?DirectIO@COPOSSigCap@@UEAAJJPEAJPEAPEA_W0@Z 000000018002ee0c     SigCapImpl.obj
 0002:0000be28       $unwind$?Open@COPOSSigCap@@UEAAJPEA_WPEAJ@Z 000000018002ee28     SigCapImpl.obj
 0002:0000be4c       $unwind$?CompareFirmwareVersion@COPOSSigCap@@UEAAJPEA_WPEAJ1@Z 000000018002ee4c     SigCapImpl.obj
 0002:0000be4c       $unwind$?initialize_inherited_file_handles_nolock@@YAXXZ 000000018002ee4c     libucrt:ioinit.obj
 0002:0000be68       $unwind$__scrt_is_nonwritable_in_current_image 000000018002ee68     LIBCMT:utility.obj
 0002:0000be88       $unwind$__scrt_is_nonwritable_in_current_image$filt$0 000000018002ee88     LIBCMT:utility.obj
 0002:0000be90       $unwind$__report_securityfailure 000000018002ee90     LIBCMT:gs_report.obj
 0002:0000be98       $unwind$__report_gsfailure 000000018002ee98     LIBCMT:gs_report.obj
 0002:0000bea0       $unwind$capture_current_context 000000018002eea0     LIBCMT:gs_report.obj
 0002:0000beac       $unwind$capture_previous_context 000000018002eeac     LIBCMT:gs_report.obj
 0002:0000beb8       $unwind$??2@YAPEAX_KAEBUnothrow_t@std@@@Z 000000018002eeb8     LIBCMT:new_scalar_nothrow.obj
 0002:0000bec8       $cppxdata$??2@YAPEAX_KAEBUnothrow_t@std@@@Z 000000018002eec8     LIBCMT:new_scalar_nothrow.obj
 0002:0000bed5       $stateUnwindMap$??2@YAPEAX_KAEBUnothrow_t@std@@@Z 000000018002eed5     LIBCMT:new_scalar_nothrow.obj
 0002:0000bed8       $tryMap$??2@YAPEAX_KAEBUnothrow_t@std@@@Z 000000018002eed8     LIBCMT:new_scalar_nothrow.obj
 0002:0000bee0       $handlerMap$??2@YAPEAX_KAEBUnothrow_t@std@@@Z 000000018002eee0     LIBCMT:new_scalar_nothrow.obj
 0002:0000bee8       $ip2state$??2@YAPEAX_KAEBUnothrow_t@std@@@Z 000000018002eee8     LIBCMT:new_scalar_nothrow.obj
 0002:0000beec       $unwind$?catch$0@?0???2@YAPEAX_KAEBUnothrow_t@std@@@Z@4HA 000000018002eeec     LIBCMT:new_scalar_nothrow.obj
 0002:0000befc       $cppxdata$?catch$0@?0???2@YAPEAX_KAEBUnothrow_t@std@@@Z@4HA 000000018002eefc     LIBCMT:new_scalar_nothrow.obj
 0002:0000bf06       $stateUnwindMap$?catch$0@?0???2@YAPEAX_KAEBUnothrow_t@std@@@Z@4HA 000000018002ef06     LIBCMT:new_scalar_nothrow.obj
 0002:0000bf08       $ip2state$?catch$0@?0???2@YAPEAX_KAEBUnothrow_t@std@@@Z@4HA 000000018002ef08     LIBCMT:new_scalar_nothrow.obj
 0002:0000bf0c       $unwind$__GSHandlerCheckCommon 000000018002ef0c     LIBCMT:gshandler.obj
 0002:0000bf18       $xdatasym                  000000018002ef18     LIBCMT:chkstk.obj
 0002:0000bf20       $xdatasym                  000000018002ef20     LIBCMT:amdsecgs.obj
 0002:0000bf24       $unwind$?dllmain_crt_process_attach@@YAHQEAUHINSTANCE__@@QEAX@Z 000000018002ef24     LIBCMT:dll_dllmain.obj
 0002:0000bf60       $unwind$?dllmain_crt_process_detach@@YAH_N@Z 000000018002ef60     LIBCMT:dll_dllmain.obj
 0002:0000bfb4       $unwind$?dllmain_dispatch@@YAHQEAUHINSTANCE__@@KQEAX@Z 000000018002efb4     LIBCMT:dll_dllmain.obj
 0002:0000bfdc       $unwind$?filt$0@?0??dllmain_dispatch@@YAHQEAUHINSTANCE__@@KQEAX@Z@4HA 000000018002efdc     LIBCMT:dll_dllmain.obj
 0002:0000bfdc       $unwind$?filt$0@?0??FrameUnwindToState@__FrameHandler4@@SAXPEA_KPEAU_xDISPATCHER_CONTEXT@@PEAUFuncInfo4@FH4@@H@Z@4HA 000000018002efdc     libvcruntime:frame.obj
 0002:0000bfdc       $unwind$?fin$1@?0??FrameUnwindToState@__FrameHandler4@@SAXPEA_KPEAU_xDISPATCHER_CONTEXT@@PEAUFuncInfo4@FH4@@H@Z@4HA 000000018002efdc     libvcruntime:frame.obj
 0002:0000bfe4       $unwind$__isa_available_init 000000018002efe4     LIBCMT:cpu_disp.obj
 0002:0000bff4       $unwind$__scrt_fastfail    000000018002eff4     LIBCMT:utility_desktop.obj
 0002:0000c004       $unwind$__security_init_cookie 000000018002f004     LIBCMT:gs_support.obj
 0002:0000c010       $xdatasym                  000000018002f010     LIBCMT:guard_dispatch.obj
 0002:0000c018       $xdatasym                  000000018002f018     LIBCMT:guard_xfg_dispatch.obj
 0002:0000c01c       $unwind$AtlThunk_InitData  000000018002f01c     atls:atlthunk.obj
 0002:0000c030       $unwind$wcsstr             000000018002f030     libvcruntime:wcsstr.obj
 0002:0000c048       $xdatasym                  000000018002f048     libvcruntime:memcmp.obj
 0002:0000c050       $xdatasym                  000000018002f050     libvcruntime:memcpy.obj
 0002:0000c060       $xdatasym                  000000018002f060     libvcruntime:memset.obj
 0002:0000c070       $unwind$__C_specific_handler 000000018002f070     libvcruntime:riscchandler.obj
 0002:0000c08c       $unwind$?DecompFuncInfo@FH4@@YA_JPEAEAEAUFuncInfo4@1@_KH_N@Z 000000018002f08c     libvcruntime:risctrnsctrl.obj
 0002:0000c0a4       $unwind$?UnwindNestedFrames@__FrameHandler4@@SAXPEA_KPEAUEHExceptionRecord@@PEAU_CONTEXT@@0PEAXPEAUFuncInfo4@FH4@@HHPEAUHandlerType4@5@PEAU_xDISPATCHER_CONTEXT@@E@Z 000000018002f0a4     libvcruntime:risctrnsctrl.obj
 0002:0000c0b8       $unwind$?GetRangeOfTrysToCheck@__FrameHandler4@@SA?AU?$pair@Viterator@TryBlockMap4@FH4@@V123@@std@@AEAVTryBlockMap4@FH4@@HPEAU_xDISPATCHER_CONTEXT@@PEAUFuncInfo4@5@H@Z 000000018002f0b8     libvcruntime:risctrnsctrl.obj
 0002:0000c0d4       $unwind$__CxxFrameHandler4 000000018002f0d4     libvcruntime:risctrnsctrl.obj
 0002:0000c0e8       $unwind$??$_CallSETranslator@V__FrameHandler4@@@@YAHPEAUEHExceptionRecord@@PEA_KPEAU_CONTEXT@@PEAU_xDISPATCHER_CONTEXT@@PEAUFuncInfo4@FH4@@K1H@Z 000000018002f0e8     libvcruntime:risctrnsctrl.obj
 0002:0000c108       $unwind$?filt$0@?0???$_CallSETranslator@V__FrameHandler4@@@@YAHPEAUEHExceptionRecord@@PEA_KPEAU_CONTEXT@@PEAU_xDISPATCHER_CONTEXT@@PEAUFuncInfo4@FH4@@K1H@Z@4HA 000000018002f108     libvcruntime:risctrnsctrl.obj
 0002:0000c114       $unwind$__DestructExceptionObject 000000018002f114     libvcruntime:ehhelpers.obj
 0002:0000c134       $unwind$__DestructExceptionObject$filt$0 000000018002f134     libvcruntime:ehhelpers.obj
 0002:0000c134       $unwind$?fin$1@?0??CxxCallCatchBlock@__FrameHandler4@@SAPEAXPEAU_EXCEPTION_RECORD@@@Z@4HA 000000018002f134     libvcruntime:frame.obj
 0002:0000c140       $unwind$_CxxThrowException 000000018002f140     libvcruntime:throw.obj
 0002:0000c150       $xdatasym                  000000018002f150     libvcruntime:notify.obj
 0002:0000c15c       $unwind$?StateFromIp@__FrameHandler4@@SAHPEAUFuncInfo4@FH4@@PEAU_xDISPATCHER_CONTEXT@@_K@Z 000000018002f15c     libvcruntime:ehstate.obj
 0002:0000c170       $unwind$?getStartStop@UWMap4@FH4@@QEAAXHHAEAViterator@12@0@Z 000000018002f170     libvcruntime:frame.obj
 0002:0000c188       $unwind$?FrameUnwindToState@__FrameHandler4@@SAXPEA_KPEAU_xDISPATCHER_CONTEXT@@PEAUFuncInfo4@FH4@@H@Z 000000018002f188     libvcruntime:frame.obj
 0002:0000c1d0       $unwind$?CxxCallCatchBlock@__FrameHandler4@@SAPEAXPEAU_EXCEPTION_RECORD@@@Z 000000018002f1d0     libvcruntime:frame.obj
 0002:0000c22c       $unwind$?IsInExceptionSpec@@YAEPEAUEHExceptionRecord@@PEBU_s_ESTypeList@@@Z 000000018002f22c     libvcruntime:frame.obj
 0002:0000c248       $unwind$??$__InternalCxxFrameHandler@V__FrameHandler4@@@@YA?AW4_EXCEPTION_DISPOSITION@@PEAUEHExceptionRecord@@PEA_KPEAU_CONTEXT@@PEAU_xDISPATCHER_CONTEXT@@PEAUFuncInfo4@FH4@@H1E@Z 000000018002f248     libvcruntime:frame.obj
 0002:0000c260       $unwind$??$BuildCatchObjectHelperInternal@V__FrameHandler4@@@@YAHPEAUEHExceptionRecord@@PEAXPEAUHandlerType4@FH4@@PEBU_s_CatchableType@@@Z 000000018002f260     libvcruntime:frame.obj
 0002:0000c2a0       $unwind$??$BuildCatchObjectInternal@V__FrameHandler4@@@@YAXPEAUEHExceptionRecord@@PEAXPEAUHandlerType4@FH4@@PEBU_s_CatchableType@@@Z 000000018002f2a0     libvcruntime:frame.obj
 0002:0000c2cc       $unwind$??$FindHandler@V__FrameHandler4@@@@YAXPEAUEHExceptionRecord@@PEA_KPEAU_CONTEXT@@PEAU_xDISPATCHER_CONTEXT@@PEAUFuncInfo4@FH4@@EH1@Z 000000018002f2cc     libvcruntime:frame.obj
 0002:0000c2ec       $unwind$??$CatchIt@V__FrameHandler4@@@@YAXPEAUEHExceptionRecord@@PEA_KPEAU_CONTEXT@@PEAU_xDISPATCHER_CONTEXT@@PEAUFuncInfo4@FH4@@PEAUHandlerType4@4@PEBU_s_CatchableType@@PEAUTryBlockMapEntry4@4@H1EE@Z 000000018002f2ec     libvcruntime:frame.obj
 0002:0000c304       $unwind$??$FindHandlerForForeignException@V__FrameHandler4@@@@YAXPEAUEHExceptionRecord@@PEA_KPEAU_CONTEXT@@PEAU_xDISPATCHER_CONTEXT@@PEAUFuncInfo4@FH4@@HH1@Z 000000018002f304     libvcruntime:frame.obj
 0002:0000c324       $unwind$?try_get_function@@YAPEAXW4function_id@?A0x5302d918@@QEBDQEBW4module_id@2@2@Z 000000018002f324     libvcruntime:winapi_downlevel.obj
 0002:0000c324       $unwind$?try_get_function@@YAPEAXW4function_id@?A0x391cf84c@@QEBDQEBW4module_id@2@2@Z 000000018002f324     libucrt:winapi_thunks.obj
 0002:0000c340       $xdatasym                  000000018002f340     libvcruntime:handlers.obj
 0002:0000c360       $unwind$__acrt_call_reportfault 000000018002f360     libucrt:invalid_parameter.obj
 0002:0000c380       $unwind$_resetstkoflw      000000018002f380     libucrt:resetstk.obj
 0002:0000c3a4       $unwind$?write_string@?$string_output_adapter@_W@__crt_stdio_output@@QEBAXQEB_WHQEAHAEAV__crt_deferred_errno_cache@@@Z 000000018002f3a4     libucrt:output.obj
 0002:0000c3bc       $unwind$??$common_vsprintf@Vformat_validation_base@__crt_stdio_output@@_W@@YAH_KQEA_W0QEB_WQEAU__crt_locale_pointers@@QEAD@Z 000000018002f3bc     libucrt:output.obj
 0002:0000c3dc       $unwind$??$write_multiple_characters@V?$string_output_adapter@_W@__crt_stdio_output@@D@__crt_stdio_output@@YAXAEBV?$string_output_adapter@_W@0@DHQEAH@Z 000000018002f3dc     libucrt:output.obj
 0002:0000c3e8       $unwind$?state_case_type@?$output_processor@_WV?$string_output_adapter@_W@__crt_stdio_output@@V?$format_validation_base@_WV?$string_output_adapter@_W@__crt_stdio_output@@@2@@__crt_stdio_output@@AEAA_NXZ 000000018002f3e8     libucrt:output.obj
 0002:0000c40c       $unwind$?type_case_a@?$output_processor@_WV?$string_output_adapter@_W@__crt_stdio_output@@V?$format_validation_base@_WV?$string_output_adapter@_W@__crt_stdio_output@@@2@@__crt_stdio_output@@AEAA_NXZ 000000018002f40c     libucrt:output.obj
 0002:0000c41c       $unwind$?write_stored_string_tchar@?$output_processor@_WV?$string_output_adapter@_W@__crt_stdio_output@@V?$format_validation_base@_WV?$string_output_adapter@_W@__crt_stdio_output@@@2@@__crt_stdio_output@@AEAA_N_W@Z 000000018002f41c     libucrt:output.obj
 0002:0000c430       $unwind$??$type_case_integer_parse_into_buffer@I@?$output_processor@_WV?$string_output_adapter@_W@__crt_stdio_output@@V?$format_validation_base@_WV?$string_output_adapter@_W@__crt_stdio_output@@@2@@__crt_stdio_output@@AEAAXII_N@Z 000000018002f430     libucrt:output.obj
 0002:0000c430       $unwind$??$type_case_integer_parse_into_buffer@_K@?$output_processor@_WV?$string_output_adapter@_W@__crt_stdio_output@@V?$format_validation_base@_WV?$string_output_adapter@_W@__crt_stdio_output@@@2@@__crt_stdio_output@@AEAAX_KI_N@Z 000000018002f430     libucrt:output.obj
 0002:0000c438       $unwind$?common_exit@@YAXHW4_crt_exit_cleanup_mode@@W4_crt_exit_return_mode@@@Z 000000018002f438     libucrt:exit.obj
 0002:0000c444       $unwind$??R<lambda_6e4b09c48022b2350581041d5f6b0c4c>@@QEBA@XZ 000000018002f444     libucrt:exit.obj
 0002:0000c464       $unwind$??$?RV<lambda_d80eeec6fff315bfe5c115232f3240e3>@@AEAV<lambda_6e4b09c48022b2350581041d5f6b0c4c>@@V<lambda_2358e3775559c9db80273638284d5e45>@@@?$__crt_seh_guarded_call@X@@QEAAX$$QEAV<lambda_d80eeec6fff315bfe5c115232f3240e3>@@AEAV<lambda_6e4b09c48022b2350581041d5f6b0c4c>@@$$QEAV<lambda_2358e3775559c9db80273638284d5e45>@@@Z 000000018002f464     libucrt:exit.obj
 0002:0000c488       $unwind$??$free_environment@D@@YAXQEAPEAD@Z 000000018002f488     libucrt:environment_initialization.obj
 0002:0000c488       $unwind$??$free_environment@_W@@YAXQEAPEA_W@Z 000000018002f488     libucrt:environment_initialization.obj
 0002:0000c494       $unwind$??$create_environment@D@@YAQEAPEADQEAD@Z 000000018002f494     libucrt:environment_initialization.obj
 0002:0000c4ac       $unwind$_register_onexit_function 000000018002f4ac     libucrt:onexit.obj
 0002:0000c4b4       $unwind$_execute_onexit_table 000000018002f4b4     libucrt:onexit.obj
 0002:0000c4bc       $unwind$??R<lambda_22ebabd17bc4fa466a2aca6d8deb888d>@@QEBAHXZ 000000018002f4bc     libucrt:onexit.obj
 0002:0000c4d4       $unwind$??$?RV<lambda_638799b9deba96c50f710eeac98168cd>@@AEAV<lambda_22ebabd17bc4fa466a2aca6d8deb888d>@@V<lambda_a6f7d7db0129f75315ebf26d50c089f1>@@@?$__crt_seh_guarded_call@H@@QEAAH$$QEAV<lambda_638799b9deba96c50f710eeac98168cd>@@AEAV<lambda_22ebabd17bc4fa466a2aca6d8deb888d>@@$$QEAV<lambda_a6f7d7db0129f75315ebf26d50c089f1>@@@Z 000000018002f4d4     libucrt:onexit.obj
 0002:0000c4f8       $unwind$??$?RV<lambda_7777bce6b2f8c936911f934f8298dc43>@@AEAV<lambda_f03950bc5685219e0bcd2087efbe011e>@@V<lambda_3883c3dff614d5e0c5f61bb1ac94921c>@@@?$__crt_seh_guarded_call@H@@QEAAH$$QEAV<lambda_7777bce6b2f8c936911f934f8298dc43>@@AEAV<lambda_f03950bc5685219e0bcd2087efbe011e>@@$$QEAV<lambda_3883c3dff614d5e0c5f61bb1ac94921c>@@@Z 000000018002f4f8     libucrt:onexit.obj
 0002:0000c51c       $unwind$_query_new_handler 000000018002f51c     libucrt:new_handler.obj
 0002:0000c53c       $unwind$terminate          000000018002f53c     libucrt:terminate.obj
 0002:0000c55c       $unwind$??$parse_integer@KV?$c_string_character_source@_W@__crt_strtox@@@__crt_strtox@@YAKQEAU__crt_locale_pointers@@V?$c_string_character_source@_W@0@H_N@Z 000000018002f55c     libucrt:atox.obj
 0002:0000c578       $xdatasym                  000000018002f578     libucrt:strncmp.obj
 0002:0000c57c       $unwind$?construct_ptd_array@@YAXQEAU__acrt_ptd@@@Z 000000018002f57c     libucrt:per_thread_data.obj
 0002:0000c584       $unwind$?destroy_ptd_array@@YAXQEAU__acrt_ptd@@@Z 000000018002f584     libucrt:per_thread_data.obj
 0002:0000c58c       $unwind$??$?RV<lambda_0ae27a3a962d80f24befdcbee591983d>@@AEAV<lambda_8d0ee55de4b1038c4002e0adecdf1839>@@V<lambda_dc504788e8f1664fe9b84e20bfb512f2>@@@?$__crt_seh_guarded_call@X@@QEAAX$$QEAV<lambda_0ae27a3a962d80f24befdcbee591983d>@@AEAV<lambda_8d0ee55de4b1038c4002e0adecdf1839>@@$$QEAV<lambda_dc504788e8f1664fe9b84e20bfb512f2>@@@Z 000000018002f58c     libucrt:per_thread_data.obj
 0002:0000c5b0       $unwind$??$?RV<lambda_aa87e3671a710a21b5dc78c0bdf72e11>@@AEAV<lambda_92619d2358a28f41a33ba319515a20b9>@@V<lambda_6992ecaafeb10aed2b74cb1fae11a551>@@@?$__crt_seh_guarded_call@X@@QEAAX$$QEAV<lambda_aa87e3671a710a21b5dc78c0bdf72e11>@@AEAV<lambda_92619d2358a28f41a33ba319515a20b9>@@$$QEAV<lambda_6992ecaafeb10aed2b74cb1fae11a551>@@@Z 000000018002f5b0     libucrt:per_thread_data.obj
 0002:0000c5d4       $unwind$??$?RV<lambda_f2e299630e499de9f9a165e60fcd3db5>@@AEAV<lambda_2ae9d31cdba2644fcbeaf08da7c24588>@@V<lambda_40d01ff24d0e7b3814fdbdcee8eab3c7>@@@?$__crt_seh_guarded_call@X@@QEAAX$$QEAV<lambda_f2e299630e499de9f9a165e60fcd3db5>@@AEAV<lambda_2ae9d31cdba2644fcbeaf08da7c24588>@@$$QEAV<lambda_40d01ff24d0e7b3814fdbdcee8eab3c7>@@@Z 000000018002f5d4     libucrt:per_thread_data.obj
 0002:0000c5f8       $unwind$??$?RV<lambda_2d41944a1d46af3157314b8a01080d33>@@AEAV<lambda_8f455de75cd7d7f24b4096f044d8b9e6>@@V<lambda_aa500f224e6afead328df44964fe2772>@@@?$__crt_seh_guarded_call@X@@QEAAX$$QEAV<lambda_2d41944a1d46af3157314b8a01080d33>@@AEAV<lambda_8f455de75cd7d7f24b4096f044d8b9e6>@@$$QEAV<lambda_aa500f224e6afead328df44964fe2772>@@@Z 000000018002f5f8     libucrt:per_thread_data.obj
 0002:0000c61c       $unwind$__acrt_initialize_winapi_thunks 000000018002f61c     libucrt:winapi_thunks.obj
 0002:0000c624       $unwind$__acrt_fp_format   000000018002f624     libucrt:cvt.obj
 0002:0000c63c       $unwind$?fp_format_e_internal@@YAHQEAD_KH_NIQEAU_strflt@@2QEAU__crt_locale_pointers@@@Z 000000018002f63c     libucrt:cvt.obj
 0002:0000c654       $unwind$?fp_format_a@@YAHQEBNPEAD_KQEAD2H_NIQEAU__crt_locale_pointers@@W4__acrt_rounding_mode@@@Z 000000018002f654     libucrt:cvt.obj
 0002:0000c670       $unwind$?fp_format_g@@YAHQEBNQEAD_K12H_NIQEAU__crt_locale_pointers@@@Z 000000018002f670     libucrt:cvt.obj
 0002:0000c684       $unwind$__acrt_uninitialize_locale 000000018002f684     libucrt:wsetlocale.obj
 0002:0000c684       $unwind$__acrt_get_sigabrt_handler 000000018002f684     libucrt:signal.obj
 0002:0000c68c       $unwind$??$?RV<lambda_410d79af7f07d98d83a3f525b3859a53>@@AEAV<lambda_3e16ef9562a7dcce91392c22ab16ea36>@@V<lambda_38119f0e861e05405d8a144b9b982f0a>@@@?$__crt_seh_guarded_call@X@@QEAAX$$QEAV<lambda_410d79af7f07d98d83a3f525b3859a53>@@AEAV<lambda_3e16ef9562a7dcce91392c22ab16ea36>@@$$QEAV<lambda_38119f0e861e05405d8a144b9b982f0a>@@@Z 000000018002f68c     libucrt:wsetlocale.obj
 0002:0000c6b4       $unwind$__acrt_initialize_lowio 000000018002f6b4     libucrt:ioinit.obj
 0002:0000c6d4       $unwind$??$common_expand_argv_wildcards@D@@YAHQEAPEADQEAPEAPEAD@Z 000000018002f6d4     libucrt:argv_wildcards.obj
 0002:0000c6ec       $unwind$??$copy_and_add_argument_to_buffer@D@@YAHQEBD0_KAEAV?$argument_list@D@?A0x5f5c8891@@@Z 000000018002f6ec     libucrt:argv_wildcards.obj
 0002:0000c708       $unwind$??$expand_argument_wildcards@D@@YAHQEAD0AEAV?$argument_list@D@?A0x5f5c8891@@@Z 000000018002f708     libucrt:argv_wildcards.obj
 0002:0000c72c       $unwind$__acrt_GetModuleFileNameA 000000018002f72c     libucrt:getmodulefilenamea.obj
 0002:0000c748       $unwind$_setmbcp_nolock    000000018002f748     libucrt:mbctype.obj
 0002:0000c768       $unwind$?update_thread_multibyte_data_internal@@YAPEAU__crt_multibyte_data@@QEAU__acrt_ptd@@QEAPEAU1@@Z 000000018002f768     libucrt:mbctype.obj
 0002:0000c790       $unwind$?setmbcp_internal@@YAHH_NQEAU__acrt_ptd@@QEAPEAU__crt_multibyte_data@@@Z 000000018002f790     libucrt:mbctype.obj
 0002:0000c7a0       $unwind$?setSBUpLow@@YAXPEAU__crt_multibyte_data@@@Z 000000018002f7a0     libucrt:mbctype.obj
 0002:0000c7bc       $unwind$??$?RV<lambda_efdfa57d1f175319df784efa44bb7b81>@@AEAV<lambda_5f0a4c1567f8adc6734073e5d1e1b35c>@@V<lambda_2e8a7d3640ea6ccb4c2413664c2db6fd>@@@?$__crt_seh_guarded_call@X@@QEAAX$$QEAV<lambda_efdfa57d1f175319df784efa44bb7b81>@@AEAV<lambda_5f0a4c1567f8adc6734073e5d1e1b35c>@@$$QEAV<lambda_2e8a7d3640ea6ccb4c2413664c2db6fd>@@@Z 000000018002f7bc     libucrt:mbctype.obj
 0002:0000c7e0       $unwind$__acrt_WideCharToMultiByte 000000018002f7e0     libucrt:widechartomultibyte.obj
 0002:0000c7ec       $unwind$raise              000000018002f7ec     libucrt:signal.obj
 0002:0000c828       $unwind$??$?RV<lambda_450d765d439847d4c735a33c368b5fc0>@@AEAV<lambda_44731a7d0e6d81c3e6aa82d741081786>@@V<lambda_601a2a7da3b7a96e9554ac7215c4b07c>@@@?$__crt_seh_guarded_call@P6AXH@Z@@QEAAP6AXH@Z$$QEAV<lambda_450d765d439847d4c735a33c368b5fc0>@@AEAV<lambda_44731a7d0e6d81c3e6aa82d741081786>@@$$QEAV<lambda_601a2a7da3b7a96e9554ac7215c4b07c>@@@Z 000000018002f828     libucrt:signal.obj
 0002:0000c84c       $unwind$?common_flush_all@@YAH_N@Z 000000018002f84c     libucrt:fflush.obj
 0002:0000c854       $unwind$??$?RV<lambda_842d9ff0dc9ef11c61343bbaebe7f885>@@AEAV<lambda_c5860995281e5c4ce005b3de8f5874ee>@@V<lambda_d90129c13df834fdcbf8d2b88dafcf2d>@@@?$__crt_seh_guarded_call@X@@QEAAX$$QEAV<lambda_842d9ff0dc9ef11c61343bbaebe7f885>@@AEAV<lambda_c5860995281e5c4ce005b3de8f5874ee>@@$$QEAV<lambda_d90129c13df834fdcbf8d2b88dafcf2d>@@@Z 000000018002f854     libucrt:fflush.obj
 0002:0000c878       $unwind$??$?RV<lambda_886d6c58226a84441f68b9f2b8217b83>@@AEAV<lambda_ab61a845afdef5b7c387490eaf3616ee>@@V<lambda_f7f22ab5edc0698d5f6905b0d3f44752>@@@?$__crt_seh_guarded_call@X@@QEAAX$$QEAV<lambda_886d6c58226a84441f68b9f2b8217b83>@@AEAV<lambda_ab61a845afdef5b7c387490eaf3616ee>@@$$QEAV<lambda_f7f22ab5edc0698d5f6905b0d3f44752>@@@Z 000000018002f878     libucrt:fflush.obj
 0002:0000c8a0       $unwind$__acrt_update_thread_locale_data 000000018002f8a0     libucrt:locale_refcounting.obj
 0002:0000c8c4       $unwind$?__mbrtowc_utf8@__crt_mbstring@@YA_KPEA_WPEBD_KPEAU_Mbstatet@@@Z 000000018002f8c4     libucrt:mbrtowc.obj
 0002:0000c8cc       $unwind$?__mbsrtowcs_utf8@__crt_mbstring@@YA_KPEA_WPEAPEBD_KPEAU_Mbstatet@@@Z 000000018002f8cc     libucrt:mbrtowc.obj
 0002:0000c8e4       $unwind$__acrt_fltout      000000018002f8e4     libucrt:cfout.obj
 0002:0000c904       $unwind$?divide@__crt_strtox@@YA_KAEAUbig_integer@1@AEBU21@@Z 000000018002f904     libucrt:cfout.obj
 0002:0000c91c       $chain$0$?divide@__crt_strtox@@YA_KAEAUbig_integer@1@AEBU21@@Z 000000018002f91c     libucrt:cfout.obj
 0002:0000c930       $chain$1$?divide@__crt_strtox@@YA_KAEAUbig_integer@1@AEBU21@@Z 000000018002f930     libucrt:cfout.obj
 0002:0000c940       $unwind$_fcloseall         000000018002f940     libucrt:closeall.obj
 0002:0000c964       $unwind$__acrt_locale_free_monetary 000000018002f964     libucrt:initmon.obj
 0002:0000c96c       $unwind$__acrt_locale_free_time 000000018002f96c     libucrt:inittime.obj
 0002:0000c97c       $unwind$__acrt_GetStringTypeA 000000018002f97c     libucrt:getstringtypea.obj
 0002:0000c9a4       $unwind$__acrt_lowio_destroy_handle_array 000000018002f9a4     libucrt:osfinfo.obj
 0002:0000c9b4       $unwind$__acrt_lowio_ensure_fh_exists 000000018002f9b4     libucrt:osfinfo.obj
 0002:0000c9e0       $unwind$qsort              000000018002f9e0     libucrt:qsort.obj
 0002:0000c9f8       $chain$4$qsort             000000018002f9f8     libucrt:qsort.obj
 0002:0000ca1c       $chain$5$qsort             000000018002fa1c     libucrt:qsort.obj
 0002:0000ca2c       $unwind$strpbrk            000000018002fa2c     libucrt:strpbrk.obj
 0002:0000ca3c       $unwind$fallbackMethod     000000018002fa3c     libucrt:strpbrk.obj
 0002:0000ca4c       $unwind$__acrt_LCMapStringA 000000018002fa4c     libucrt:lcmapstringa.obj
 0002:0000ca5c       $unwind$?__acrt_LCMapStringA_stat@@YAHPEAU__crt_locale_pointers@@PEB_WKPEBDHPEADHHH@Z 000000018002fa5c     libucrt:lcmapstringa.obj
 0002:0000ca84       $unwind$_close             000000018002fa84     libucrt:close.obj
 0002:0000ca84       $unwind$_commit            000000018002fa84     libucrt:commit.obj
 0002:0000ca8c       $unwind$??$?RV<lambda_a37b2b86f63e897a80ea819b0eb08c01>@@AEAV<lambda_38ce7e780aa69e748d6df282ebc68efe>@@V<lambda_99fb1378e971ab6e7edea83e3a7a83a2>@@@?$__crt_seh_guarded_call@H@@QEAAH$$QEAV<lambda_a37b2b86f63e897a80ea819b0eb08c01>@@AEAV<lambda_38ce7e780aa69e748d6df282ebc68efe>@@$$QEAV<lambda_99fb1378e971ab6e7edea83e3a7a83a2>@@@Z 000000018002fa8c     libucrt:commit.obj
 0002:0000cab0       $unwind$_write             000000018002fab0     libucrt:write.obj
 0002:0000cae0       $unwind$_write_nolock      000000018002fae0     libucrt:write.obj
 0002:0000caf8       $unwind$?write_double_translated_ansi_nolock@@YA?AUwrite_result@?A0x17268360@@HQEBDI@Z 000000018002faf8     libucrt:write.obj
 0002:0000cb1c       $unwind$?write_text_ansi_nolock@@YA?AUwrite_result@?A0x17268360@@HQEBDI@Z 000000018002fb1c     libucrt:write.obj
 0002:0000cb1c       $unwind$?write_text_utf16le_nolock@@YA?AUwrite_result@?A0x17268360@@HQEBDI@Z 000000018002fb1c     libucrt:write.obj
 0002:0000cb3c       $unwind$?write_text_utf8_nolock@@YA?AUwrite_result@?A0x17268360@@HQEBDI@Z 000000018002fb3c     libucrt:write.obj
 0002:0000cb60       $xdatasym                  000000018002fb60     libucrt:log10.obj
 0002:0000cb6c       $unwind$__acrt_fenv_set_control 000000018002fb6c     libucrt:_fenvutils.obj
 0002:0000cb7c       $unwind$fclose             000000018002fb7c     libucrt:fclose.obj
 0002:0000cba0       $unwind$_putwch_nolock     000000018002fba0     libucrt:putwch.obj
 0002:0000cba8       $unwind$common_control87   000000018002fba8     libucrt:ieee.obj
 0002:0000cbd4       $unwind$_call_matherr      000000018002fbd4     libucrt:libm_error.obj
 0002:0000cbdc       $unwind$_handle_error      000000018002fbdc     libucrt:libm_error.obj
 0002:0000cbfc       $unwind$__acrt_initialize_fma3 000000018002fbfc     libucrt:fma3_available.obj
 0002:0000cc04       $unwind$_log_special_common 000000018002fc04     libucrt:log_special.obj
 0002:0000cc10       $unwind$??$?RV<lambda_751a882b2c74d4b022dec766aa51a29a>@@AEAV<lambda_628dfdc04ba53c8bfc02c9951375f3f5>@@V<lambda_f6c7be5f7998530c34de24c7437d6b54>@@@?$__crt_seh_guarded_call@H@@QEAAH$$QEAV<lambda_751a882b2c74d4b022dec766aa51a29a>@@AEAV<lambda_628dfdc04ba53c8bfc02c9951375f3f5>@@$$QEAV<lambda_f6c7be5f7998530c34de24c7437d6b54>@@@Z 000000018002fc10     libucrt:close.obj
 0002:0000cc38       $xdatasym                  000000018002fc38     libucrt:fpsr.obj
 0002:0000cc40       $unwind$_raise_exc_ex      000000018002fc40     libucrt:fpexcept.obj
 0002:0000cc54       $unwind$_ctrlfp            000000018002fc54     libucrt:fpctrl.obj
 0002:0000cc7c       $unwind$_IsNonwritableInCurrentImage 000000018002fc7c     LIBCMT:pesect.obj
 0002:0000ce00       .edata                     000000018002fe00     OPOSSigCap.exp
 0002:0000ce28       rgpv                       000000018002fe28     OPOSSigCap.exp
 0002:0000ce38       rgszName                   000000018002fe38     OPOSSigCap.exp
 0002:0000ce48       rgwOrd                     000000018002fe48     OPOSSigCap.exp
 0002:0000ce50       szName                     000000018002fe50     OPOSSigCap.exp
 0002:0000ce5f       $N00001                    000000018002fe5f     OPOSSigCap.exp
 0002:0000ce6f       $N00002                    000000018002fe6f     OPOSSigCap.exp
 0002:0000ce81       $N00003                    000000018002fe81     OPOSSigCap.exp
 0002:0000ce93       $N00004                    000000018002fe93     OPOSSigCap.exp
 0002:0000d7c2       .idata$6                   00000001800307c2     kernel32:KERNEL32.dll
 0002:0000d9da       .idata$6                   00000001800309da     user32:USER32.dll
 0002:0000db0e       .idata$6                   0000000180030b0e     gdi32:GDI32.dll
 0002:0000dbb4       .idata$6                   0000000180030bb4     advapi32:ADVAPI32.dll
 0002:0000dcd0       .idata$6                   0000000180030cd0     ole32:ole32.dll
 0002:0000dcda       .idata$6                   0000000180030cda     oleaut32:OLEAUT32.dll
 0003:000001c0       ?ObjectMap@@3PAU_ATL_OBJMAP_ENTRY30@ATL@@A 00000001800321c0     SigCap.obj
 0003:000002c0       ?s_SOMethodNames@@3PAPEADA 00000001800322c0     SigCapImpl.obj
 0003:00000368       ?s_RequiredMethodsPerRelease@@3PAHA 0000000180032368     SigCapImpl.obj
 0003:000003d0       ?__vcrt_flsindex@@3KA      00000001800323d0     libvcruntime:per_thread_data.obj
 0003:000003e0       ?errno_no_memory@@3HA      00000001800323e0     libucrt:errno.obj
 0003:000003e4       ?doserrno_no_memory@@3KA   00000001800323e4     libucrt:errno.obj
 0003:000003f0       ?__acrt_flsindex@@3KA      00000001800323f0     libucrt:per_thread_data.obj
 0003:000008b0       _mbctypes                  00000001800328b0     libucrt:mbctype.obj
 0003:000009c0       _mbcasemaps                00000001800329c0     libucrt:mbctype.obj
 0003:00000ac0       ?__rgctypeflag@@3PADA      0000000180032ac0     libucrt:mbctype.obj
 0003:00000ad0       ?__rgcode_page_info@@3PAUcode_page_info@@A 0000000180032ad0     libucrt:mbctype.obj
 0003:00000d70       ?dazSupported@?1??common_control87@@9@9 0000000180032d70     libucrt:ieee.obj
 0003:00000d80       ?__dcrt_lowio_console_output_handle@@3PEAXEA 0000000180032d80     libucrt:initcon.obj
 0003:00000d90       ?dazSupported@?1??_ctrlfp@@9@9 0000000180032d90     libucrt:fpctrl.obj
 0003:00000fe0       ?is_initialized_as_dll@@3_NA 0000000180032fe0     LIBCMT:utility.obj
 0003:00000fe1       ?module_local_atexit_table_initialized@@3_NA 0000000180032fe1     LIBCMT:utility.obj
 0003:00000fe8       ?module_local_atexit_table@@3U_onexit_table_t@@A 0000000180032fe8     LIBCMT:utility.obj
 0003:00001000       ?module_local_at_quick_exit_table@@3U_onexit_table_t@@A 0000000180033000     LIBCMT:utility.obj
 0003:00001018       ?g_tss_cv@@3U_RTL_CONDITION_VARIABLE@@A 0000000180033018     LIBCMT:thread_safe_statics.obj
 0003:00001020       ?g_tss_event@@3PEAXEA      0000000180033020     LIBCMT:thread_safe_statics.obj
 0003:00001028       ?g_tss_mutex@@3U_RTL_CRITICAL_SECTION@@A 0000000180033028     LIBCMT:thread_safe_statics.obj
 0003:00001050       ?g_sleep_condition_variable_cs@@3P6AHPEAU_RTL_CONDITION_VARIABLE@@PEAU_RTL_CRITICAL_SECTION@@K@ZEA 0000000180033050     LIBCMT:thread_safe_statics.obj
 0003:00001058       ?g_wake_all_condition_variable@@3P6AXPEAU_RTL_CONDITION_VARIABLE@@@ZEA 0000000180033058     LIBCMT:thread_safe_statics.obj
 0003:00001060       GS_ExceptionRecord         0000000180033060     LIBCMT:gs_report.obj
 0003:00001100       GS_ContextRecord           0000000180033100     LIBCMT:gs_report.obj
 0003:000015d4       ?__proc_attached@@3HA      00000001800335d4     LIBCMT:dll_dllmain.obj
 0003:00001668       ?AllocateData@@3P6APEAUAtlThunkData_t@@XZEA 0000000180033668     atls:atlthunk.obj
 0003:00001670       ?InitData@@3P6AXPEAUAtlThunkData_t@@PEAX_K@ZEA 0000000180033670     atls:atlthunk.obj
 0003:00001678       ?DataToCode@@3P6AP6A_JPEAUHWND__@@I_K_J@ZPEAUAtlThunkData_t@@@ZEA 0000000180033678     atls:atlthunk.obj
 0003:00001680       ?FreeData@@3P6AXPEAUAtlThunkData_t@@@ZEA 0000000180033680     atls:atlthunk.obj
 0003:00001688       ?Initialized@@3_NA         0000000180033688     atls:atlthunk.obj
 0003:000016a0       ?__vcrt_startup_thread_ptd@@3U__vcrt_ptd@@A 00000001800336a0     libvcruntime:per_thread_data.obj
 0003:00001720       __vcrt_lock_table          0000000180033720     libvcruntime:locks.obj
 0003:00001748       __vcrt_locks_initialized   0000000180033748     libvcruntime:locks.obj
 0003:00001790       ?heap@@3V_HeapManager@@A   0000000180033790     libvcruntime:undname.obj
 0003:000017b8       ?module_handles@@3PAPEAUHINSTANCE__@@A 00000001800337b8     libvcruntime:winapi_downlevel.obj
 0003:000017d0       ?function_pointers@@3PAPEAXA 00000001800337d0     libvcruntime:winapi_downlevel.obj
 0003:000017f8       ?__acrt_invalid_parameter_handler@@3V?$dual_state_global@P6AXPEB_W00I_K@Z@__crt_state_management@@A 00000001800337f8     libucrt:invalid_parameter.obj
 0003:00001800       ?c_termination_complete@@3JA 0000000180033800     libucrt:exit.obj
 0003:00001808       ?thread_local_exit_callback_func@@3P6AXPEAXK0@ZEA 0000000180033808     libucrt:exit.obj
 0003:00001820       ?program_name@?1???$common_configure_argv@D@@YAHW4_crt_argv_mode@@@Z@4PADA 0000000180033820     libucrt:argv_parsing.obj
 0003:00001978       ?__acrt_new_handler@@3V?$dual_state_global@P6AH_K@Z@__crt_state_management@@A 0000000180033978     libucrt:new_handler.obj
 0003:00001980       ?module_handles@@3PAPEAUHINSTANCE__@@A 0000000180033980     libucrt:winapi_thunks.obj
 0003:00001a20       ?encoded_function_pointers@@3PAPEAXA 0000000180033a20     libucrt:winapi_thunks.obj
 0003:00001b30       ?internal_state@?1??_mbtowc_l@@9@4U_Mbstatet@@A 0000000180033b30     libucrt:mbtowc.obj
 0003:00001b48       ?enable_percent_n@@3_KA    0000000180033b48     libucrt:printf_count_output.obj
 0003:00001f80       ?__acrt_lock_table@@3PAU_RTL_CRITICAL_SECTION@@A 0000000180033f80     libucrt:locks.obj
 0003:000021b0       ?__acrt_locks_initialized@@3IA 00000001800341b0     libucrt:locks.obj
 0003:000021d0       ?fSystemSet@@3HA           00000001800341d0     libucrt:mbctype.obj
 0003:000021d4       ?initialized@?1??__acrt_initialize_multibyte@@9@4_NA 00000001800341d4     libucrt:mbctype.obj
 0003:00002210       ?ctrlc_action@@3V?$dual_state_global@P6AXH@Z@__crt_state_management@@A 0000000180034210     libucrt:signal.obj
 0003:00002218       ?ctrlbreak_action@@3V?$dual_state_global@P6AXH@Z@__crt_state_management@@A 0000000180034218     libucrt:signal.obj
 0003:00002220       ?abort_action@@3V?$dual_state_global@P6AXH@Z@__crt_state_management@@A 0000000180034220     libucrt:signal.obj
 0003:00002228       ?term_action@@3V?$dual_state_global@P6AXH@Z@__crt_state_management@@A 0000000180034228     libucrt:signal.obj
 0003:00002230       ?user_matherr@@3V?$dual_state_global@P6AHPEAU_exception@@@Z@__crt_state_management@@A 0000000180034230     libucrt:matherr.obj
 0003:00002238       ?__acrt_global_new_mode@@3V?$dual_state_global@J@__crt_state_management@@A 0000000180034238     libucrt:new_mode.obj
 0003:00002248       ?internal_pst@?1??__mbrtoc32_utf8@__crt_mbstring@@YA_KPEA_UPEBD_KPEAU_Mbstatet@@@Z@4U3@A 0000000180034248     libucrt:mbrtoc32.obj
 0003:00002250       ?__acrt_app_type@@3W4_crt_app_type@@A 0000000180034250     libucrt:report_runtime_error.obj
 0004:00000000       $pdata$?cw_memcpy@@YAHPEA_WPEBDH@Z 0000000180035000     CWString.obj
 0004:0000000c       $pdata$?cw_strcpy@@YAHPEA_WPEBD@Z 000000018003500c     CWString.obj
 0004:00000018       $pdata$?cw_dup@@YAXPEBDAEAHAEAPEA_W1@Z 0000000180035018     CWString.obj
 0004:00000024       $pdata$?DupWide@_CW@@AEAAXXZ 0000000180035024     CWString.obj
 0004:00000030       $pdata$?AtlWinModuleTerm@ATL@@YAJPEAU_ATL_WIN_MODULE70@1@PEAUHINSTANCE__@@@Z 0000000180035030     OposVariant.obj
 0004:0000003c       $pdata$??0CAtlComModule@ATL@@QEAA@XZ 000000018003503c     OposVariant.obj
 0004:00000048       $pdata$?Term@CAtlComModule@ATL@@QEAAXXZ 0000000180035048     OposVariant.obj
 0004:00000054       $pdata$??__E_AtlComModule@ATL@@YAXXZ 0000000180035054     OposVariant.obj
 0004:00000060       $pdata$??0CAtlWinModule@ATL@@QEAA@XZ 0000000180035060     OposVariant.obj
 0004:0000006c       $pdata$??__E_AtlWinModule@ATL@@YAXXZ 000000018003506c     OposVariant.obj
 0004:00000078       $pdata$??__F_AtlWinModule@ATL@@YAXXZ 0000000180035078     OposVariant.obj
 0004:00000084       $pdata$??_Estringdispid@CComTypeInfoHolder@ATL@@QEAAPEAXI@Z 0000000180035084     OposVariant.obj
 0004:00000090       $pdata$?SetVARIANT_BOOL@OposVariant@@QEAAXF@Z 0000000180035090     OposVariant.obj
 0004:0000009c       $pdata$?GetLONG@OposVariant@@QEAAJXZ 000000018003509c     OposVariant.obj
 0004:000000a8       $pdata$?ChangeLONG@OposVariant@@QEAAXPEAJAEAJ@Z 00000001800350a8     OposVariant.obj
 0004:000000b4       $pdata$?SetLONG@OposVariant@@QEAAXJ@Z 00000001800350b4     OposVariant.obj
 0004:000000c0       $pdata$?SetLONG_Ptr@OposVariant@@QEAAXPEAJAEAJ@Z 00000001800350c0     OposVariant.obj
 0004:000000cc       $pdata$?ChangeBSTR@OposVariant@@QEAAXPEAPEA_WAEAJ@Z 00000001800350cc     OposVariant.obj
 0004:000000d8       $pdata$?SetBSTR@OposVariant@@QEAAXPEA_WAEAJ@Z 00000001800350d8     OposVariant.obj
 0004:000000e4       $pdata$?SetBSTR_Copy@OposVariant@@QEAAXPEA_WAEAJ@Z 00000001800350e4     OposVariant.obj
 0004:000000f0       $pdata$?SetBSTR_InOutPtr@OposVariant@@QEAA_NPEAPEA_WAEAJ@Z 00000001800350f0     OposVariant.obj
 0004:000000fc       $pdata$?SetString@OposVariant@@QEAAXPEB_WAEAJ@Z 00000001800350fc     OposVariant.obj
 0004:00000108       $pdata$?SetDispatch_Ptr@OposVariant@@QEAAXPEAUIDispatch@@AEAJ@Z 0000000180035108     OposVariant.obj
 0004:00000114       $pdata$??0OposDispParms@@QEAA@PEAVOposVariant@@H@Z 0000000180035114     OposVariant.obj
 0004:00000120       $pdata$??1OposDispParms@@QEAA@XZ 0000000180035120     OposVariant.obj
 0004:0000012c       $pdata$?AtlThrowImpl@ATL@@YAXJ@Z 000000018003512c     SigCap.obj
 0004:00000138       $pdata$swprintf_s          0000000180035138     SigCap.obj
 0004:00000144       $pdata$?_AtlVerifyStackAvailable@_ATL_SAFE_ALLOCA_IMPL@ATL@@YA_N_K@Z 0000000180035144     SigCap.obj
 0004:00000150       $pdata$?filt$0@?0??_AtlVerifyStackAvailable@_ATL_SAFE_ALLOCA_IMPL@ATL@@YA_N_K@Z@4HA 0000000180035150     SigCap.obj
 0004:0000015c       $pdata$?ocscpy_s@@YA_NPEA_W_KPEB_W@Z 000000018003515c     SigCap.obj
 0004:00000168       $pdata$?AtlHresultFromLastError@ATL@@YAJXZ 0000000180035168     SigCap.obj
 0004:00000174       $pdata$?AtlInternalOleLoadFromStream@ATL@@YAJPEAUIStream@@AEBU_GUID@@PEAPEAXTClassesAllowedInStream@1@K@Z 0000000180035174     SigCap.obj
 0004:00000180       $pdata$?ReadFromStream@CComBSTR@ATL@@QEAAJPEAUIStream@@@Z 0000000180035180     SigCap.obj
 0004:0000018c       $pdata$?WriteToStream@CComVariant@ATL@@QEAAJPEAUIStream@@@Z 000000018003518c     SigCap.obj
 0004:00000198       $pdata$?WriteToStream@CComVariant@ATL@@QEAAJPEAUIStream@@G@Z 0000000180035198     SigCap.obj
 0004:000001a4       $pdata$?ReadFromStream@CComVariant@ATL@@QEAAJPEAUIStream@@GTClassesAllowedInStream@2@K@Z 00000001800351a4     SigCap.obj
 0004:000001b0       $pdata$?GetSizeMax@CComVariant@ATL@@QEBAJPEAT_ULARGE_INTEGER@@@Z 00000001800351b0     SigCap.obj
 0004:000001bc       $pdata$?RegCreateKeyExW@CAtlTransactionManager@ATL@@QEAAJPEAUHKEY__@@PEB_WKPEA_WKKQEAU_SECURITY_ATTRIBUTES@@PEAPEAU3@PEAK@Z 00000001800351bc     SigCap.obj
 0004:000001c8       $pdata$?RegOpenKeyExW@CAtlTransactionManager@ATL@@QEAAJPEAUHKEY__@@PEB_WKKPEAPEAU3@@Z 00000001800351c8     SigCap.obj
 0004:000001d4       $pdata$?RegDeleteKeyW@CAtlTransactionManager@ATL@@QEAAJPEAUHKEY__@@PEB_W@Z 00000001800351d4     SigCap.obj
 0004:000001e0       $pdata$?Add@?$CSimpleArray@GV?$CSimpleArrayEqualHelper@G@ATL@@@ATL@@QEAAHAEBG@Z 00000001800351e0     SigCap.obj
 0004:000001ec       $pdata$?AtlInternalQueryInterface@ATL@@YAJPEAXPEBU_ATL_INTMAP_ENTRY@1@AEBU_GUID@@PEAPEAX@Z 00000001800351ec     SigCap.obj
 0004:000001f8       $pdata$?AtlComModuleGetClassObject@ATL@@YAJPEAU_ATL_COM_MODULE70@1@AEBU_GUID@@1PEAPEAX@Z 00000001800351f8     SigCap.obj
 0004:00000204       $pdata$?AtlRegisterClassCategoriesHelper@ATL@@YAJAEBU_GUID@@PEBU_ATL_CATMAP_ENTRY@1@H@Z 0000000180035204     SigCap.obj
 0004:00000210       $pdata$?AtlLoadTypeLib@ATL@@YAJPEAUHINSTANCE__@@PEB_WPEAPEA_WPEAPEAUITypeLib@@@Z 0000000180035210     SigCap.obj
 0004:0000021c       $pdata$?AtlRegisterTypeLib@ATL@@YAJPEAUHINSTANCE__@@PEB_W@Z 000000018003521c     SigCap.obj
 0004:00000228       $pdata$?AtlUnRegisterTypeLib@ATL@@YAJPEAUHINSTANCE__@@PEB_W@Z 0000000180035228     SigCap.obj
 0004:00000234       $pdata$?AtlComModuleRegisterServer@ATL@@YAJPEAU_ATL_COM_MODULE70@1@HPEBU_GUID@@@Z 0000000180035234     SigCap.obj
 0004:00000240       $pdata$?AtlComModuleUnregisterServer@ATL@@YAJPEAU_ATL_COM_MODULE70@1@HPEBU_GUID@@@Z 0000000180035240     SigCap.obj
 0004:0000024c       $pdata$?AtlWinModuleExtractCreateWndData@ATL@@YAPEAXPEAU_ATL_WIN_MODULE70@1@@Z 000000018003524c     SigCap.obj
 0004:00000258       $pdata$?DeleteSubKey@CRegKey@ATL@@QEAAJPEB_W@Z 0000000180035258     SigCap.obj
 0004:00000264       $pdata$?RecurseDeleteKey@CRegKey@ATL@@QEAAJPEB_W@Z 0000000180035264     SigCap.obj
 0004:00000270       $pdata$??0CAtlModule@ATL@@QEAA@XZ 0000000180035270     SigCap.obj
 0004:0000027c       $pdata$?Term@CAtlModule@ATL@@QEAAXXZ 000000018003527c     SigCap.obj
 0004:00000288       $pdata$?AddTermFunc@CAtlModule@ATL@@QEAAJP6AX_K@Z0@Z 0000000180035288     SigCap.obj
 0004:00000294       $pdata$?GetGITPtr@CAtlModule@ATL@@UEAAJPEAPEAUIGlobalInterfaceTable@@@Z 0000000180035294     SigCap.obj
 0004:000002a0       $pdata$?UpdateRegistryFromResource@CAtlModule@ATL@@QEAAJPEB_WHPEAU_ATL_REGMAP_ENTRY@2@@Z 00000001800352a0     SigCap.obj
 0004:000002ac       $pdata$?UpdateRegistryFromResource@CAtlModule@ATL@@QEAAJIHPEAU_ATL_REGMAP_ENTRY@2@@Z 00000001800352ac     SigCap.obj
 0004:000002b8       $pdata$?Term@CComModule@ATL@@QEAAXXZ 00000001800352b8     SigCap.obj
 0004:000002c4       $pdata$?GetClassObject@CComModule@ATL@@QEAAJAEBU_GUID@@0PEAPEAX@Z 00000001800352c4     SigCap.obj
 0004:000002d0       $pdata$?RegisterServer@CComModule@ATL@@QEAAJHPEBU_GUID@@@Z 00000001800352d0     SigCap.obj
 0004:000002dc       $pdata$?UnregisterServer@CComModule@ATL@@QEAAJHPEBU_GUID@@@Z 00000001800352dc     SigCap.obj
 0004:000002e8       $pdata$??_GCComModule@ATL@@UEAAPEAXI@Z 00000001800352e8     SigCap.obj
 0004:000002f4       $pdata$?Add@?$CSimpleMap@PEA_WPEA_WVCExpansionVectorEqualHelper@ATL@@@ATL@@QEAAHAEBQEA_W0@Z 00000001800352f4     SigCap.obj
 0004:00000300       $pdata$?Lookup@?$CSimpleMap@PEA_WPEA_WVCExpansionVectorEqualHelper@ATL@@@ATL@@QEBAPEA_WAEBQEA_W@Z 0000000180035300     SigCap.obj
 0004:0000030c       $pdata$?Add@CExpansionVector@ATL@@QEAAHPEB_W0@Z 000000018003530c     SigCap.obj
 0004:00000318       $pdata$?ClearReplacements@CExpansionVector@ATL@@QEAAJXZ 0000000180035318     SigCap.obj
 0004:00000324       $pdata$?PreProcessBuffer@CRegParser@ATL@@QEAAJPEA_WPEAPEA_W@Z 0000000180035324     SigCap.obj
 0004:00000330       $pdata$?RegisterBuffer@CRegParser@ATL@@QEAAJPEA_WH@Z 0000000180035330     SigCap.obj
 0004:0000033c       $pdata$?NextToken@CRegParser@ATL@@IEAAJPEA_W@Z 000000018003533c     SigCap.obj
 0004:00000348       $pdata$?AddValue@CRegParser@ATL@@IEAAJAEAVCRegKey@2@PEB_WPEA_W@Z 0000000180035348     SigCap.obj
 0004:00000354       $pdata$?RegisterSubkeys@CRegParser@ATL@@IEAAJPEA_WPEAUHKEY__@@HH@Z 0000000180035354     SigCap.obj
 0004:00000360       $pdata$?SkipAssignment@CRegParser@ATL@@IEAAJPEA_W@Z 0000000180035360     SigCap.obj
 0004:0000036c       $pdata$?HKeyFromString@CRegParser@ATL@@KAPEAUHKEY__@@PEA_W@Z 000000018003536c     SigCap.obj
 0004:00000378       $pdata$?VTFromRegType@CRegParser@ATL@@KAHPEB_WAEAG@Z 0000000180035378     SigCap.obj
 0004:00000384       $pdata$?Append@CParseBuffer@CRegParser@ATL@@QEAAHPEB_WH@Z 0000000180035384     SigCap.obj
 0004:00000390       $pdata$?AddReplacement@CRegObject@ATL@@UEAAJPEB_W0@Z 0000000180035390     SigCap.obj
 0004:0000039c       $pdata$?RegisterFromResource@CRegObject@ATL@@IEAAJPEB_W00H@Z 000000018003539c     SigCap.obj
 0004:000003a8       $pdata$??_GCRegObject@ATL@@UEAAPEAXI@Z 00000001800353a8     SigCap.obj
 0004:000003b4       $pdata$?AllocateHeap@?$CTempBuffer@E$0BAA@VCCRTAllocator@ATL@@@ATL@@AEAAX_K@Z 00000001800353b4     SigCap.obj
 0004:000003b4       $pdata$?AllocateHeap@?$CTempBuffer@_W$0BAA@VCCRTAllocator@ATL@@@ATL@@AEAAX_K@Z 00000001800353b4     SigCap.obj
 0004:000003b4       $pdata$?AllocateHeap@?$CTempBuffer@_W$0EAA@VCCRTAllocator@ATL@@@ATL@@AEAAX_K@Z 00000001800353b4     SigCap.obj
 0004:000003c0       $pdata$?CreateInstance@CComClassFactory@ATL@@UEAAJPEAUIUnknown@@AEBU_GUID@@PEAPEAX@Z 00000001800353c0     SigCap.obj
 0004:000003cc       $pdata$?LockServer@CComClassFactory@ATL@@UEAAJH@Z 00000001800353cc     SigCap.obj
 0004:000003d8       $pdata$??_GCComClassFactory@ATL@@UEAAPEAXI@Z 00000001800353d8     SigCap.obj
 0004:000003e4       $pdata$?GetTI@CComTypeInfoHolder@ATL@@QEAAJK@Z 00000001800353e4     SigCap.obj
 0004:000003f0       $pdata$?Cleanup@CComTypeInfoHolder@ATL@@SAX_K@Z 00000001800353f0     SigCap.obj
 0004:000003fc       $pdata$?GetIDsOfNames@CComTypeInfoHolder@ATL@@QEAAJAEBU_GUID@@PEAPEA_WIKPEAJ@Z 00000001800353fc     SigCap.obj
 0004:00000408       $pdata$?LoadNameCache@CComTypeInfoHolder@ATL@@QEAAJPEAUITypeInfo@@@Z 0000000180035408     SigCap.obj
 0004:00000414       $pdata$?Add@CComDynamicUnkArray@ATL@@QEAAKPEAUIUnknown@@@Z 0000000180035414     SigCap.obj
 0004:00000420       $pdata$?AtlHiMetricToPixel@ATL@@YAXPEBUtagSIZE@@PEAU2@@Z 0000000180035420     SigCap.obj
 0004:0000042c       $pdata$?DefaultReflectionHandler@?$CWindowImplRoot@VCWindow@ATL@@@ATL@@SAHPEAUHWND__@@I_K_JAEA_J@Z 000000018003542c     SigCap.obj
 0004:00000438       $pdata$?StartWindowProc@?$CWindowImplBaseT@VCWindow@ATL@@V?$CWinTraits@$0FGAAAAAA@$0A@@2@@ATL@@SA_JPEAUHWND__@@I_K_J@Z 0000000180035438     SigCap.obj
 0004:00000444       $pdata$?WindowProc@?$CWindowImplBaseT@VCWindow@ATL@@V?$CWinTraits@$0FGAAAAAA@$0A@@2@@ATL@@SA_JPEAUHWND__@@I_K_J@Z 0000000180035444     SigCap.obj
 0004:00000450       $pdata$?atlCreate@?$CWindowImplBaseT@VCWindow@ATL@@V?$CWinTraits@$0FGAAAAAA@$0A@@2@@ATL@@QEAAPEAUHWND__@@PEAU3@V_U_RECT@2@PEB_WKKV_U_MENUorID@2@GPEAX@Z 0000000180035450     SigCap.obj
 0004:0000045c       $pdata$?IsEqualObject@?$CComPtrBase@UIOleClientSite@@@ATL@@QEAA_NPEAUIUnknown@@@Z 000000018003545c     SigCap.obj
 0004:00000468       $pdata$??$AtlModuleRegisterWndClassInfoT@VAtlModuleRegisterWndClassInfoParamW@ATL@@@ATL@@YAGPEAU_ATL_BASE_MODULE70@0@PEAU_ATL_WIN_MODULE70@0@PEAU_ATL_WNDCLASSINFOW@0@PEAP6A_JPEAUHWND__@@I_K_J@ZVAtlModuleRegisterWndClassInfoParamW@0@@Z 0000000180035468     SigCap.obj
 0004:00000474       $pdata$?GetZoomInfo@CComControlBase@ATL@@QEAAXAEAUATL_DRAWINFO@@@Z 0000000180035474     SigCap.obj
 0004:00000480       $pdata$?SendOnDataChange@CComControlBase@ATL@@QEAAJK@Z 0000000180035480     SigCap.obj
 0004:0000048c       $pdata$?OnSetFocus@CComControlBase@ATL@@QEAA_JI_K_JAEAH@Z 000000018003548c     SigCap.obj
 0004:00000498       $pdata$?OnKillFocus@CComControlBase@ATL@@QEAA_JI_K_JAEAH@Z 0000000180035498     SigCap.obj
 0004:000004a4       $pdata$?OnMouseActivate@CComControlBase@ATL@@QEAA_JI_K_JAEAH@Z 00000001800354a4     SigCap.obj
 0004:000004b0       $pdata$?GetAmbientLocaleID@CComControlBase@ATL@@QEAAJAEAK@Z 00000001800354b0     SigCap.obj
 0004:000004bc       $pdata$?GetAmbientUserMode@CComControlBase@ATL@@QEAAJAEAH@Z 00000001800354bc     SigCap.obj
 0004:000004c8       $pdata$?SetControlFocus@CComControlBase@ATL@@QEAAHH@Z 00000001800354c8     SigCap.obj
 0004:000004d4       $pdata$?IQuickActivate_QuickActivate@CComControlBase@ATL@@QEAAJPEAUtagQACONTAINER@@PEAUtagQACONTROL@@@Z 00000001800354d4     SigCap.obj
 0004:000004e0       $pdata$?DoVerbProperties@CComControlBase@ATL@@QEAAJPEBUtagRECT@@PEAUHWND__@@@Z 00000001800354e0     SigCap.obj
 0004:000004ec       $pdata$?InPlaceActivate@CComControlBase@ATL@@QEAAJJPEBUtagRECT@@@Z 00000001800354ec     SigCap.obj
 0004:000004f8       $pdata$?IOleObject_SetClientSite@CComControlBase@ATL@@QEAAJPEAUIOleClientSite@@@Z 00000001800354f8     SigCap.obj
 0004:00000504       $pdata$?IOleObject_Close@CComControlBase@ATL@@QEAAJK@Z 0000000180035504     SigCap.obj
 0004:00000510       $pdata$?IOleObject_SetExtent@CComControlBase@ATL@@QEAAJKPEAUtagSIZE@@@Z 0000000180035510     SigCap.obj
 0004:0000051c       $pdata$?IOleInPlaceObject_InPlaceDeactivate@CComControlBase@ATL@@QEAAJXZ 000000018003551c     SigCap.obj
 0004:00000528       $pdata$?IOleInPlaceObject_UIDeactivate@CComControlBase@ATL@@QEAAJXZ 0000000180035528     SigCap.obj
 0004:00000534       $pdata$?IOleInPlaceObject_SetObjectRects@CComControlBase@ATL@@QEAAJPEBUtagRECT@@0@Z 0000000180035534     SigCap.obj
 0004:00000540       $pdata$?IViewObject_Draw@CComControlBase@ATL@@QEAAJKJPEAXPEAUtagDVTARGETDEVICE@@PEAUHDC__@@2PEBU_RECTL@@3@Z 0000000180035540     SigCap.obj
 0004:0000054c       $pdata$?IDataObject_GetData@CComControlBase@ATL@@QEAAJPEAUtagFORMATETC@@PEAUtagSTGMEDIUM@@@Z 000000018003554c     SigCap.obj
 0004:00000558       $pdata$?FireViewChange@CComControlBase@ATL@@QEAAJXZ 0000000180035558     SigCap.obj
 0004:00000564       $pdata$?OnPaint@CComControlBase@ATL@@QEAA_JI_K_JAEAH@Z 0000000180035564     SigCap.obj
 0004:00000570       $pdata$?OnDrawAdvanced@CComControlBase@ATL@@UEAAJAEAUATL_DRAWINFO@@@Z 0000000180035570     SigCap.obj
 0004:0000057c       $pdata$?GetTypeInfo@?$IDispatchImpl@UIOPOSSigCap@@$1?IID_IOPOSSigCap@@3U_GUID@@B$1?LIBID_OposSigCap_CCO@@3U3@B$00$0A@VCComTypeInfoHolder@ATL@@@ATL@@UEAAJIKPEAPEAUITypeInfo@@@Z 000000018003557c     SigCap.obj
 0004:00000588       $pdata$?Invoke@?$IDispatchImpl@UIOPOSSigCap@@$1?IID_IOPOSSigCap@@3U_GUID@@B$1?LIBID_OposSigCap_CCO@@3U3@B$00$0A@VCComTypeInfoHolder@ATL@@@ATL@@UEAAJJAEBU_GUID@@KGPEAUtagDISPPARAMS@@PEAUtagVARIANT@@PEAUtagEXCEPINFO@@PEAI@Z 0000000180035588     SigCap.obj
 0004:00000594       $pdata$?atlCreate@?$CWindowImpl@VCOPOSSigCap@@VCWindow@ATL@@V?$CWinTraits@$0FGAAAAAA@$0A@@3@@ATL@@QEAAPEAUHWND__@@PEAU3@V_U_RECT@2@PEB_WKKV_U_MENUorID@2@PEAX@Z 0000000180035594     SigCap.obj
 0004:000005a0       $pdata$?CreateControlWindow@?$CComControl@VCOPOSSigCap@@V?$CWindowImpl@VCOPOSSigCap@@VCWindow@ATL@@V?$CWinTraits@$0FGAAAAAA@$0A@@3@@ATL@@@ATL@@UEAAPEAUHWND__@@PEAU3@AEAUtagRECT@@@Z 00000001800355a0     SigCap.obj
 0004:000005ac       $pdata$?ProcessWindowMessage@?$CComControl@VCOPOSSigCap@@V?$CWindowImpl@VCOPOSSigCap@@VCWindow@ATL@@V?$CWinTraits@$0FGAAAAAA@$0A@@3@@ATL@@@ATL@@UEAAHPEAUHWND__@@I_K_JAEA_JK@Z 00000001800355ac     SigCap.obj
 0004:000005b8       $pdata$?GetSizeMax@?$IPersistStreamInitImpl@VCOPOSSigCap@@@ATL@@UEAAJPEAT_ULARGE_INTEGER@@@Z 00000001800355b8     SigCap.obj
 0004:000005c4       $pdata$?IPersistStreamInit_Load@?$IPersistStreamInitImpl@VCOPOSSigCap@@@ATL@@QEAAJPEAUIStream@@PEBUATL_PROPMAP_ENTRY@2@@Z 00000001800355c4     SigCap.obj
 0004:000005d0       $pdata$?IPersistStreamInit_Save@?$IPersistStreamInitImpl@VCOPOSSigCap@@@ATL@@QEAAJPEAUIStream@@HPEBUATL_PROPMAP_ENTRY@2@@Z 00000001800355d0     SigCap.obj
 0004:000005dc       $pdata$?GetClientSite@?$IOleObjectImpl@VCOPOSSigCap@@@ATL@@UEAAJPEAPEAUIOleClientSite@@@Z 00000001800355dc     SigCap.obj
 0004:000005e8       $pdata$?DoVerbPrimary@?$IOleObjectImpl@VCOPOSSigCap@@@ATL@@QEAAJPEBUtagRECT@@PEAUHWND__@@@Z 00000001800355e8     SigCap.obj
 0004:000005f4       $pdata$?DoVerb@?$IOleObjectImpl@VCOPOSSigCap@@@ATL@@UEAAJJPEAUtagMSG@@PEAUIOleClientSite@@JPEAUHWND__@@PEBUtagRECT@@@Z 00000001800355f4     SigCap.obj
 0004:00000600       $pdata$?Advise@?$IOleObjectImpl@VCOPOSSigCap@@@ATL@@UEAAJPEAUIAdviseSink@@PEAK@Z 0000000180035600     SigCap.obj
 0004:0000060c       $pdata$?Unadvise@?$IOleObjectImpl@VCOPOSSigCap@@@ATL@@UEAAJK@Z 000000018003560c     SigCap.obj
 0004:00000618       $pdata$?EnumAdvise@?$IOleObjectImpl@VCOPOSSigCap@@@ATL@@UEAAJPEAPEAUIEnumSTATDATA@@@Z 0000000180035618     SigCap.obj
 0004:00000624       $pdata$?TranslateAcceleratorW@?$IOleInPlaceActiveObjectImpl@VCOPOSSigCap@@@ATL@@UEAAJPEAUtagMSG@@@Z 0000000180035624     SigCap.obj
 0004:00000630       $pdata$?OnDocWindowActivate@?$IOleInPlaceActiveObjectImpl@VCOPOSSigCap@@@ATL@@UEAAJH@Z 0000000180035630     SigCap.obj
 0004:0000063c       $pdata$?Draw@?$IViewObjectExImpl@VCOPOSSigCap@@@ATL@@UEAAJKJPEAXPEAUtagDVTARGETDEVICE@@PEAUHDC__@@2PEBU_RECTL@@3P6AH_K@Z4@Z 000000018003563c     SigCap.obj
 0004:00000648       $pdata$?SetAdvise@?$IViewObjectExImpl@VCOPOSSigCap@@@ATL@@UEAAJKKPEAUIAdviseSink@@@Z 0000000180035648     SigCap.obj
 0004:00000654       $pdata$?GetAdvise@?$IViewObjectExImpl@VCOPOSSigCap@@@ATL@@UEAAJPEAK0PEAPEAUIAdviseSink@@@Z 0000000180035654     SigCap.obj
 0004:00000660       $pdata$?QueryHitPoint@?$IViewObjectExImpl@VCOPOSSigCap@@@ATL@@UEAAJKPEBUtagRECT@@UtagPOINT@@JPEAK@Z 0000000180035660     SigCap.obj
 0004:0000066c       $pdata$?QueryHitRect@?$IViewObjectExImpl@VCOPOSSigCap@@@ATL@@UEAAJKPEBUtagRECT@@0JPEAK@Z 000000018003566c     SigCap.obj
 0004:00000678       $pdata$?OnWindowMessage@?$IOleInPlaceObjectWindowlessImpl@VCOPOSSigCap@@@ATL@@UEAAJI_K_JPEA_J@Z 0000000180035678     SigCap.obj
 0004:00000684       $pdata$?EnumConnectionPoints@?$IConnectionPointContainerImpl@VCOPOSSigCap@@@ATL@@UEAAJPEAPEAUIEnumConnectionPoints@@@Z 0000000180035684     SigCap.obj
 0004:00000690       $pdata$?FindConnectionPoint@?$IConnectionPointContainerImpl@VCOPOSSigCap@@@ATL@@UEAAJAEBU_GUID@@PEAPEAUIConnectionPoint@@@Z 0000000180035690     SigCap.obj
 0004:0000069c       $pdata$?IsDirty@?$IPersistStorageImpl@VCOPOSSigCap@@@ATL@@UEAAJXZ 000000018003569c     SigCap.obj
 0004:000006a8       $pdata$?InitNew@?$IPersistStorageImpl@VCOPOSSigCap@@@ATL@@UEAAJPEAUIStorage@@@Z 00000001800356a8     SigCap.obj
 0004:000006b4       $pdata$?Load@?$IPersistStorageImpl@VCOPOSSigCap@@@ATL@@UEAAJPEAUIStorage@@@Z 00000001800356b4     SigCap.obj
 0004:000006c0       $pdata$?Save@?$IPersistStorageImpl@VCOPOSSigCap@@@ATL@@UEAAJPEAUIStorage@@H@Z 00000001800356c0     SigCap.obj
 0004:000006cc       $pdata$?IPSI_GetIPersistStreamInit@?$IPersistStorageImpl@VCOPOSSigCap@@@ATL@@AEAAPEAUIPersistStreamInit@@XZ 00000001800356cc     SigCap.obj
 0004:000006d8       $pdata$?GetPagesHelper@?$ISpecifyPropertyPagesImpl@VCOPOSSigCap@@@ATL@@IEAAJPEAUtagCAUUID@@PEBUATL_PROPMAP_ENTRY@2@@Z 00000001800356d8     SigCap.obj
 0004:000006e4       $pdata$?DAdvise@?$IDataObjectImpl@VCOPOSSigCap@@@ATL@@UEAAJPEAUtagFORMATETC@@KPEAUIAdviseSink@@PEAK@Z 00000001800356e4     SigCap.obj
 0004:000006f0       $pdata$?GetClassInfoW@?$IProvideClassInfo2Impl@$1?CLSID_OPOSSigCap@@3U_GUID@@B$1?DIID__IOPOSSigCapEvents@@3U2@B$1?LIBID_OposSigCap_CCO@@3U2@B$00$0A@VCComTypeInfoHolder@ATL@@@ATL@@UEAAJPEAPEAUITypeInfo@@@Z 00000001800356f0     SigCap.obj
 0004:000006fc       $pdata$?GetInterfaceSafetyOptions@?$IObjectSafetyImpl@VCOPOSSigCap@@$02@ATL@@UEAAJAEBU_GUID@@PEAK1@Z 00000001800356fc     SigCap.obj
 0004:00000708       $pdata$?SetInterfaceSafetyOptions@?$IObjectSafetyImpl@VCOPOSSigCap@@$02@ATL@@UEAAJAEBU_GUID@@KK@Z 0000000180035708     SigCap.obj
 0004:00000714       $pdata$?_LocCPQueryInterface@?$IConnectionPointImpl@VCOPOSSigCap@@$1?DIID__IOPOSSigCapEvents@@3U_GUID@@BVCComDynamicUnkArray@ATL@@@ATL@@UEAAJAEBU_GUID@@PEAPEAX@Z 0000000180035714     SigCap.obj
 0004:00000714       $pdata$?_LocCPQueryInterface@?$IConnectionPointImpl@VCOPOSSigCap@@$1?IID_IPropertyNotifySink@@3U_GUID@@BVCComDynamicUnkArray@ATL@@@ATL@@UEAAJAEBU_GUID@@PEAPEAX@Z 0000000180035714     SigCap.obj
 0004:00000720       $pdata$?Advise@?$IConnectionPointImpl@VCOPOSSigCap@@$1?DIID__IOPOSSigCapEvents@@3U_GUID@@BVCComDynamicUnkArray@ATL@@@ATL@@UEAAJPEAUIUnknown@@PEAK@Z 0000000180035720     SigCap.obj
 0004:00000720       $pdata$?Advise@?$IConnectionPointImpl@VCOPOSSigCap@@$1?IID_IPropertyNotifySink@@3U_GUID@@BVCComDynamicUnkArray@ATL@@@ATL@@UEAAJPEAUIUnknown@@PEAK@Z 0000000180035720     SigCap.obj
 0004:0000072c       $pdata$?Unadvise@?$IConnectionPointImpl@VCOPOSSigCap@@$1?DIID__IOPOSSigCapEvents@@3U_GUID@@BVCComDynamicUnkArray@ATL@@@ATL@@UEAAJK@Z 000000018003572c     SigCap.obj
 0004:0000072c       $pdata$?Unadvise@?$IConnectionPointImpl@VCOPOSSigCap@@$1?IID_IPropertyNotifySink@@3U_GUID@@BVCComDynamicUnkArray@ATL@@@ATL@@UEAAJK@Z 000000018003572c     SigCap.obj
 0004:00000738       $pdata$?EnumConnections@?$IConnectionPointImpl@VCOPOSSigCap@@$1?DIID__IOPOSSigCapEvents@@3U_GUID@@BVCComDynamicUnkArray@ATL@@@ATL@@UEAAJPEAPEAUIEnumConnections@@@Z 0000000180035738     SigCap.obj
 0004:00000738       $pdata$?EnumConnections@?$IConnectionPointImpl@VCOPOSSigCap@@$1?IID_IPropertyNotifySink@@3U_GUID@@BVCComDynamicUnkArray@ATL@@@ATL@@UEAAJPEAPEAUIEnumConnections@@@Z 0000000180035738     SigCap.obj
 0004:00000744       $pdata$?Fire_DataEvent@?$CProxy_IOPOSEvents@VCOPOSSigCap@@@@QEAAXJ@Z 0000000180035744     SigCap.obj
 0004:00000750       $pdata$?Fire_DirectIOEvent@?$CProxy_IOPOSEvents@VCOPOSSigCap@@@@QEAAXJPEAJPEAPEA_W@Z 0000000180035750     SigCap.obj
 0004:0000075c       $pdata$?Fire_ErrorEvent@?$CProxy_IOPOSEvents@VCOPOSSigCap@@@@QEAAXJJJPEAJ@Z 000000018003575c     SigCap.obj
 0004:00000768       $pdata$?Fire_StatusUpdateEvent@?$CProxy_IOPOSEvents@VCOPOSSigCap@@@@QEAAXJ@Z 0000000180035768     SigCap.obj
 0004:00000774       $pdata$?FireTheEvent@?$CProxy_IOPOSEvents@VCOPOSSigCap@@@@IEAAXPEAVOposVariant@@IAEAJPEB_WJ@Z 0000000180035774     SigCap.obj
 0004:00000780       $pdata$?GetConnMap@COPOSSigCap@@SAPEBU_ATL_CONNMAP_ENTRY@ATL@@PEAH@Z 0000000180035780     SigCap.obj
 0004:0000078c       $pdata$?ProcessWindowMessage@COPOSSigCap@@UEAAHPEAUHWND__@@I_K_JAEA_JK@Z 000000018003578c     SigCap.obj
 0004:00000798       $pdata$?SOData@COPOSSigCap@@MEAAJJ@Z 0000000180035798     SigCap.obj
 0004:000007a4       $pdata$?SODirectIO@COPOSSigCap@@MEAAJJPEAJPEAPEA_W@Z 00000001800357a4     SigCap.obj
 0004:000007b0       $pdata$?SOError@COPOSSigCap@@MEAAJJJJPEAJ@Z 00000001800357b0     SigCap.obj
 0004:000007bc       $pdata$?SOStatusUpdate@COPOSSigCap@@MEAAJJ@Z 00000001800357bc     SigCap.obj
 0004:000007c8       $pdata$?DoEvent@COPOSSigCap@@IEAAXI_K_J@Z 00000001800357c8     SigCap.obj
 0004:000007d4       $pdata$??__E_Module@@YAXXZ 00000001800357d4     SigCap.obj
 0004:000007e0       $pdata$?CreateInstance@?$CComCreator@V?$CComObjectCached@VCComClassFactory@ATL@@@ATL@@@ATL@@SAJPEAXAEBU_GUID@@PEAPEAX@Z 00000001800357e0     SigCap.obj
 0004:000007ec       $pdata$DllMain             00000001800357ec     SigCap.obj
 0004:000007f8       $pdata$?CreateInstance@?$CComCreator@V?$CComObject@VCOPOSSigCap@@@ATL@@@ATL@@SAJPEAXAEBU_GUID@@PEAPEAX@Z 00000001800357f8     SigCap.obj
 0004:00000804       $pdata$?CreateInstance@?$CComCreator@V?$CComAggObject@VCOPOSSigCap@@@ATL@@@ATL@@SAJPEAXAEBU_GUID@@PEAPEAX@Z 0000000180035804     SigCap.obj
 0004:00000810       $pdata$?AddRef@?$CComObjectCached@VCComClassFactory@ATL@@@ATL@@UEAAKXZ 0000000180035810     SigCap.obj
 0004:0000081c       $pdata$?Release@?$CComObjectCached@VCComClassFactory@ATL@@@ATL@@UEAAKXZ 000000018003581c     SigCap.obj
 0004:00000828       $pdata$??_G?$CComObjectCached@VCComClassFactory@ATL@@@ATL@@UEAAPEAXI@Z 0000000180035828     SigCap.obj
 0004:00000834       $pdata$??1?$CComEnumImpl@UIEnumConnectionPoints@@$1?_GUID_b196b285_bab4_101a_b69c_00aa00341d07@@3U__s_GUID@@BPEAUIConnectionPoint@@V?$_CopyInterface@UIConnectionPoint@@@ATL@@@ATL@@UEAA@XZ 0000000180035834     SigCap.obj
 0004:00000840       $pdata$?Next@?$CComEnumImpl@UIEnumConnectionPoints@@$1?_GUID_b196b285_bab4_101a_b69c_00aa00341d07@@3U__s_GUID@@BPEAUIConnectionPoint@@V?$_CopyInterface@UIConnectionPoint@@@ATL@@@ATL@@UEAAJKPEAPEAUIConnectionPoint@@PEAK@Z 0000000180035840     SigCap.obj
 0004:0000084c       $pdata$?Clone@?$CComEnumImpl@UIEnumConnectionPoints@@$1?_GUID_b196b285_bab4_101a_b69c_00aa00341d07@@3U__s_GUID@@BPEAUIConnectionPoint@@V?$_CopyInterface@UIConnectionPoint@@@ATL@@@ATL@@UEAAJPEAPEAUIEnumConnectionPoints@@@Z 000000018003584c     SigCap.obj
 0004:00000858       $pdata$?Init@?$CComEnumImpl@UIEnumConnectionPoints@@$1?_GUID_b196b285_bab4_101a_b69c_00aa00341d07@@3U__s_GUID@@BPEAUIConnectionPoint@@V?$_CopyInterface@UIConnectionPoint@@@ATL@@@ATL@@QEAAJPEAPEAUIConnectionPoint@@0PEAUIUnknown@@W4CComEnumFlags@2@@Z 0000000180035858     SigCap.obj
 0004:00000864       $pdata$?Release@?$CComObject@V?$CComEnum@UIEnumConnectionPoints@@$1?_GUID_b196b285_bab4_101a_b69c_00aa00341d07@@3U__s_GUID@@BPEAUIConnectionPoint@@V?$_CopyInterface@UIConnectionPoint@@@ATL@@VCComSingleThreadModel@6@@ATL@@@ATL@@UEAAKXZ 0000000180035864     SigCap.obj
 0004:00000864       $pdata$?Release@?$CComObject@V?$CComEnum@UIEnumConnections@@$1?_GUID_b196b287_bab4_101a_b69c_00aa00341d07@@3U__s_GUID@@BUtagCONNECTDATA@@V?$_Copy@UtagCONNECTDATA@@@ATL@@VCComSingleThreadModel@6@@ATL@@@ATL@@UEAAKXZ 0000000180035864     SigCap.obj
 0004:00000870       $pdata$?CreateInstance@?$CComObject@V?$CComEnum@UIEnumConnectionPoints@@$1?_GUID_b196b285_bab4_101a_b69c_00aa00341d07@@3U__s_GUID@@BPEAUIConnectionPoint@@V?$_CopyInterface@UIConnectionPoint@@@ATL@@VCComSingleThreadModel@6@@ATL@@@ATL@@SAJPEAPEAV12@@Z 0000000180035870     SigCap.obj
 0004:0000087c       $pdata$??_G?$CComObject@V?$CComEnum@UIEnumConnectionPoints@@$1?_GUID_b196b285_bab4_101a_b69c_00aa00341d07@@3U__s_GUID@@BPEAUIConnectionPoint@@V?$_CopyInterface@UIConnectionPoint@@@ATL@@VCComSingleThreadModel@6@@ATL@@@ATL@@UEAAPEAXI@Z 000000018003587c     SigCap.obj
 0004:00000888       $pdata$?Release@?$CComAggObject@VCOPOSSigCap@@@ATL@@UEAAKXZ 0000000180035888     SigCap.obj
 0004:00000894       $pdata$?QueryInterface@?$CComAggObject@VCOPOSSigCap@@@ATL@@UEAAJAEBU_GUID@@PEAPEAX@Z 0000000180035894     SigCap.obj
 0004:000008a0       $pdata$??0?$CComContainedObject@VCOPOSSigCap@@@ATL@@QEAA@PEAX@Z 00000001800358a0     SigCap.obj
 0004:000008ac       $pdata$??_G?$CComContainedObject@VCOPOSSigCap@@@ATL@@UEAAPEAXI@Z 00000001800358ac     SigCap.obj
 0004:000008b8       $pdata$??_G?$CComAggObject@VCOPOSSigCap@@@ATL@@UEAAPEAXI@Z 00000001800358b8     SigCap.obj
 0004:000008c4       $pdata$??0?$CComObject@VCOPOSSigCap@@@ATL@@QEAA@PEAX@Z 00000001800358c4     SigCap.obj
 0004:000008d0       $pdata$??1?$CComObject@VCOPOSSigCap@@@ATL@@UEAA@XZ 00000001800358d0     SigCap.obj
 0004:000008dc       $pdata$?Release@?$CComObject@VCOPOSSigCap@@@ATL@@UEAAKXZ 00000001800358dc     SigCap.obj
 0004:000008e8       $pdata$??_G?$CComObject@VCOPOSSigCap@@@ATL@@UEAAPEAXI@Z 00000001800358e8     SigCap.obj
 0004:000008f4       $pdata$??__E?pConnMap@?$IConnectionPointContainerImpl@VCOPOSSigCap@@@ATL@@0PEBU_ATL_CONNMAP_ENTRY@2@EB@@YAXXZ 00000001800358f4     SigCap.obj
 0004:00000900       $pdata$??1?$CComEnumImpl@UIEnumConnections@@$1?_GUID_b196b287_bab4_101a_b69c_00aa00341d07@@3U__s_GUID@@BUtagCONNECTDATA@@V?$_Copy@UtagCONNECTDATA@@@ATL@@@ATL@@UEAA@XZ 0000000180035900     SigCap.obj
 0004:0000090c       $pdata$?Next@?$CComEnumImpl@UIEnumConnections@@$1?_GUID_b196b287_bab4_101a_b69c_00aa00341d07@@3U__s_GUID@@BUtagCONNECTDATA@@V?$_Copy@UtagCONNECTDATA@@@ATL@@@ATL@@UEAAJKPEAUtagCONNECTDATA@@PEAK@Z 000000018003590c     SigCap.obj
 0004:00000918       $pdata$?Clone@?$CComEnumImpl@UIEnumConnections@@$1?_GUID_b196b287_bab4_101a_b69c_00aa00341d07@@3U__s_GUID@@BUtagCONNECTDATA@@V?$_Copy@UtagCONNECTDATA@@@ATL@@@ATL@@UEAAJPEAPEAUIEnumConnections@@@Z 0000000180035918     SigCap.obj
 0004:00000924       $pdata$?Init@?$CComEnumImpl@UIEnumConnections@@$1?_GUID_b196b287_bab4_101a_b69c_00aa00341d07@@3U__s_GUID@@BUtagCONNECTDATA@@V?$_Copy@UtagCONNECTDATA@@@ATL@@@ATL@@QEAAJPEAUtagCONNECTDATA@@0PEAUIUnknown@@W4CComEnumFlags@2@@Z 0000000180035924     SigCap.obj
 0004:00000930       $pdata$?CreateInstance@?$CComObject@V?$CComEnum@UIEnumConnections@@$1?_GUID_b196b287_bab4_101a_b69c_00aa00341d07@@3U__s_GUID@@BUtagCONNECTDATA@@V?$_Copy@UtagCONNECTDATA@@@ATL@@VCComSingleThreadModel@6@@ATL@@@ATL@@SAJPEAPEAV12@@Z 0000000180035930     SigCap.obj
 0004:0000093c       $pdata$??_G?$CComObject@V?$CComEnum@UIEnumConnections@@$1?_GUID_b196b287_bab4_101a_b69c_00aa00341d07@@3U__s_GUID@@BUtagCONNECTDATA@@V?$_Copy@UtagCONNECTDATA@@@ATL@@VCComSingleThreadModel@6@@ATL@@@ATL@@UEAAPEAXI@Z 000000018003593c     SigCap.obj
 0004:00000948       $pdata$??1CComControlBase@ATL@@UEAA@XZ 0000000180035948     SigCapImpl.obj
 0004:00000954       $pdata$??1?$IConnectionPointImpl@VCOPOSSigCap@@$1?DIID__IOPOSSigCapEvents@@3U_GUID@@BVCComDynamicUnkArray@ATL@@@ATL@@QEAA@XZ 0000000180035954     SigCapImpl.obj
 0004:00000954       $pdata$??1?$IConnectionPointImpl@VCOPOSSigCap@@$1?IID_IPropertyNotifySink@@3U_GUID@@BVCComDynamicUnkArray@ATL@@@ATL@@QEAA@XZ 0000000180035954     SigCapImpl.obj
 0004:00000960       $pdata$?FinalConstruct@COPOSSigCap@@QEAAJXZ 0000000180035960     SigCapImpl.obj
 0004:0000096c       $pdata$??1COPOSSigCap@@UEAA@XZ 000000018003596c     SigCapImpl.obj
 0004:00000978       $pdata$?GetOposProp@COPOSSigCap@@IEAAJJPEAJJ@Z 0000000180035978     SigCapImpl.obj
 0004:00000984       $pdata$?SetOposProp@COPOSSigCap@@IEAAJJJJ@Z 0000000180035984     SigCapImpl.obj
 0004:00000990       $pdata$?GetOposProp@COPOSSigCap@@IEAAJJPEAPEA_WJ@Z 0000000180035990     SigCapImpl.obj
 0004:0000099c       $pdata$?DoInvoke@COPOSSigCap@@IEAAJJPEAVOposVariant@@IHPEAJ_N@Z 000000018003599c     SigCapImpl.obj
 0004:000009a8       $pdata$?SetCOFreezeEvents@COPOSSigCap@@IEAAXF@Z 00000001800359a8     SigCapImpl.obj
 0004:000009b4       $pdata$?FreezeEvents@COPOSSigCap@@MEAAJH@Z 00000001800359b4     SigCapImpl.obj
 0004:000009c0       $pdata$?OnDraw@COPOSSigCap@@MEAAJAEAUATL_DRAWINFO@@@Z 00000001800359c0     SigCapImpl.obj
 0004:000009cc       $pdata$?EventInit@COPOSSigCap@@IEAAJXZ 00000001800359cc     SigCapImpl.obj
 0004:000009d8       $pdata$?EventUninit@COPOSSigCap@@IEAAXXZ 00000001800359d8     SigCapImpl.obj
 0004:000009e4       $pdata$?s_EventWindowProc@COPOSSigCap@@KA_JPEAUHWND__@@I_K_J@Z 00000001800359e4     SigCapImpl.obj
 0004:000009f0       $pdata$?EventWindowProc@COPOSSigCap@@IEAA_JI_K_J@Z 00000001800359f0     SigCapImpl.obj
 0004:000009fc       $pdata$?SOProcessID@COPOSSigCap@@UEAAJPEAJ@Z 00000001800359fc     SigCapImpl.obj
 0004:00000a08       $pdata$?get_Claimed@COPOSSigCap@@UEAAJPEAF@Z 0000000180035a08     SigCapImpl.obj
 0004:00000a14       $pdata$?get_DataEventEnabled@COPOSSigCap@@UEAAJPEAF@Z 0000000180035a14     SigCapImpl.obj
 0004:00000a20       $pdata$?get_DeviceEnabled@COPOSSigCap@@UEAAJPEAF@Z 0000000180035a20     SigCapImpl.obj
 0004:00000a2c       $pdata$?get_FreezeEvents@COPOSSigCap@@UEAAJPEAF@Z 0000000180035a2c     SigCapImpl.obj
 0004:00000a38       $pdata$?put_FreezeEvents@COPOSSigCap@@UEAAJF@Z 0000000180035a38     SigCapImpl.obj
 0004:00000a44       $pdata$?get_ResultCode@COPOSSigCap@@UEAAJPEAJ@Z 0000000180035a44     SigCapImpl.obj
 0004:00000a50       $pdata$?get_State@COPOSSigCap@@UEAAJPEAJ@Z 0000000180035a50     SigCapImpl.obj
 0004:00000a5c       $pdata$?get_ControlObjectDescription@COPOSSigCap@@UEAAJPEAPEA_W@Z 0000000180035a5c     SigCapImpl.obj
 0004:00000a68       $pdata$?CheckHealth@COPOSSigCap@@UEAAJJPEAJ@Z 0000000180035a68     SigCapImpl.obj
 0004:00000a74       $pdata$?ClaimDevice@COPOSSigCap@@UEAAJJPEAJ@Z 0000000180035a74     SigCapImpl.obj
 0004:00000a80       $pdata$?ClearInput@COPOSSigCap@@UEAAJPEAJ@Z 0000000180035a80     SigCapImpl.obj
 0004:00000a8c       $pdata$?Close@COPOSSigCap@@UEAAJPEAJ@Z 0000000180035a8c     SigCapImpl.obj
 0004:00000a98       $pdata$?DirectIO@COPOSSigCap@@UEAAJJPEAJPEAPEA_W0@Z 0000000180035a98     SigCapImpl.obj
 0004:00000aa4       $pdata$?Open@COPOSSigCap@@UEAAJPEA_WPEAJ@Z 0000000180035aa4     SigCapImpl.obj
 0004:00000ab0       $pdata$?ReleaseDevice@COPOSSigCap@@UEAAJPEAJ@Z 0000000180035ab0     SigCapImpl.obj
 0004:00000abc       $pdata$?get_CapDisplay@COPOSSigCap@@UEAAJPEAF@Z 0000000180035abc     SigCapImpl.obj
 0004:00000ac8       $pdata$?get_CapUserTerminated@COPOSSigCap@@UEAAJPEAF@Z 0000000180035ac8     SigCapImpl.obj
 0004:00000ad4       $pdata$?BeginCapture@COPOSSigCap@@UEAAJPEA_WPEAJ@Z 0000000180035ad4     SigCapImpl.obj
 0004:00000ae0       $pdata$?EndCapture@COPOSSigCap@@UEAAJPEAJ@Z 0000000180035ae0     SigCapImpl.obj
 0004:00000aec       $pdata$?get_AutoDisable@COPOSSigCap@@UEAAJPEAF@Z 0000000180035aec     SigCapImpl.obj
 0004:00000af8       $pdata$?get_CapRealTimeData@COPOSSigCap@@UEAAJPEAF@Z 0000000180035af8     SigCapImpl.obj
 0004:00000b04       $pdata$?get_RealTimeDataEnabled@COPOSSigCap@@UEAAJPEAF@Z 0000000180035b04     SigCapImpl.obj
 0004:00000b10       $pdata$?get_CapStatisticsReporting@COPOSSigCap@@UEAAJPEAF@Z 0000000180035b10     SigCapImpl.obj
 0004:00000b1c       $pdata$?get_CapUpdateStatistics@COPOSSigCap@@UEAAJPEAF@Z 0000000180035b1c     SigCapImpl.obj
 0004:00000b28       $pdata$?ResetStatistics@COPOSSigCap@@UEAAJPEA_WPEAJ@Z 0000000180035b28     SigCapImpl.obj
 0004:00000b34       $pdata$?RetrieveStatistics@COPOSSigCap@@UEAAJPEAPEA_WPEAJ@Z 0000000180035b34     SigCapImpl.obj
 0004:00000b40       $pdata$?UpdateStatistics@COPOSSigCap@@UEAAJPEA_WPEAJ@Z 0000000180035b40     SigCapImpl.obj
 0004:00000b4c       $pdata$?get_CapCompareFirmwareVersion@COPOSSigCap@@UEAAJPEAF@Z 0000000180035b4c     SigCapImpl.obj
 0004:00000b58       $pdata$?get_CapUpdateFirmware@COPOSSigCap@@UEAAJPEAF@Z 0000000180035b58     SigCapImpl.obj
 0004:00000b64       $pdata$?CompareFirmwareVersion@COPOSSigCap@@UEAAJPEA_WPEAJ1@Z 0000000180035b64     SigCapImpl.obj
 0004:00000b70       $pdata$?UpdateFirmware@COPOSSigCap@@UEAAJPEA_WPEAJ@Z 0000000180035b70     SigCapImpl.obj
 0004:00000b7c       $pdata$?ClearInputProperties@COPOSSigCap@@UEAAJPEAJ@Z 0000000180035b7c     SigCapImpl.obj
 0004:00000b88       $pdata$atexit              0000000180035b88     LIBCMT:utility.obj
 0004:00000b94       $pdata$_onexit             0000000180035b94     LIBCMT:utility.obj
 0004:00000ba0       $pdata$__scrt_is_nonwritable_in_current_image 0000000180035ba0     LIBCMT:utility.obj
 0004:00000bac       $pdata$__scrt_is_nonwritable_in_current_image$filt$0 0000000180035bac     LIBCMT:utility.obj
 0004:00000bb8       $pdata$__scrt_acquire_startup_lock 0000000180035bb8     LIBCMT:utility.obj
 0004:00000bc4       $pdata$__scrt_release_startup_lock 0000000180035bc4     LIBCMT:utility.obj
 0004:00000bd0       $pdata$__scrt_initialize_crt 0000000180035bd0     LIBCMT:utility.obj
 0004:00000bdc       $pdata$__scrt_uninitialize_crt 0000000180035bdc     LIBCMT:utility.obj
 0004:00000be8       $pdata$__scrt_initialize_onexit_tables 0000000180035be8     LIBCMT:utility.obj
 0004:00000bf4       $pdata$__scrt_dllmain_exception_filter 0000000180035bf4     LIBCMT:utility.obj
 0004:00000c00       $pdata$__scrt_dllmain_before_initialize_c 0000000180035c00     LIBCMT:utility.obj
 0004:00000c0c       $pdata$__scrt_dllmain_after_initialize_c 0000000180035c0c     LIBCMT:utility.obj
 0004:00000c18       $pdata$__scrt_dllmain_uninitialize_c 0000000180035c18     LIBCMT:utility.obj
 0004:00000c24       $pdata$__scrt_dllmain_uninitialize_critical 0000000180035c24     LIBCMT:utility.obj
 0004:00000c30       $pdata$__scrt_dllmain_crt_thread_attach 0000000180035c30     LIBCMT:utility.obj
 0004:00000c3c       $pdata$__scrt_dllmain_crt_thread_detach 0000000180035c3c     LIBCMT:utility.obj
 0004:00000c48       $pdata$_Init_thread_header 0000000180035c48     LIBCMT:thread_safe_statics.obj
 0004:00000c54       $pdata$_Init_thread_footer 0000000180035c54     LIBCMT:thread_safe_statics.obj
 0004:00000c60       $pdata$_Init_thread_wait   0000000180035c60     LIBCMT:thread_safe_statics.obj
 0004:00000c6c       $pdata$_Init_thread_notify 0000000180035c6c     LIBCMT:thread_safe_statics.obj
 0004:00000c78       $pdata$?__scrt_uninitialize_thread_safe_statics@@YAXXZ 0000000180035c78     LIBCMT:thread_safe_statics.obj
 0004:00000c84       $pdata$?__scrt_initialize_thread_safe_statics@@YAHXZ 0000000180035c84     LIBCMT:thread_safe_statics.obj
 0004:00000c90       $pdata$__report_securityfailure 0000000180035c90     LIBCMT:gs_report.obj
 0004:00000c9c       $pdata$__report_rangecheckfailure 0000000180035c9c     LIBCMT:gs_report.obj
 0004:00000ca8       $pdata$__report_gsfailure  0000000180035ca8     LIBCMT:gs_report.obj
 0004:00000cb4       $pdata$capture_current_context 0000000180035cb4     LIBCMT:gs_report.obj
 0004:00000cc0       $pdata$capture_previous_context 0000000180035cc0     LIBCMT:gs_report.obj
 0004:00000ccc       $pdata$__raise_securityfailure 0000000180035ccc     LIBCMT:gs_report.obj
 0004:00000cd8       $pdata$??2@YAPEAX_KAEBUnothrow_t@std@@@Z 0000000180035cd8     LIBCMT:new_scalar_nothrow.obj
 0004:00000ce4       $pdata$?catch$0@?0???2@YAPEAX_KAEBUnothrow_t@std@@@Z@4HA 0000000180035ce4     LIBCMT:new_scalar_nothrow.obj
 0004:00000cf0       $pdata$__GSHandlerCheckCommon 0000000180035cf0     LIBCMT:gshandler.obj
 0004:00000cfc       $pdata$__GSHandlerCheck    0000000180035cfc     LIBCMT:gshandler.obj
 0004:00000d08       $pdata$__GSHandlerCheck_SEH 0000000180035d08     LIBCMT:gshandlerseh.obj
 0004:00000d2c       $pdata$?dllmain_crt_process_attach@@YAHQEAUHINSTANCE__@@QEAX@Z 0000000180035d2c     LIBCMT:dll_dllmain.obj
 0004:00000d38       $pdata$?fin$0@?0??dllmain_crt_process_attach@@YAHQEAUHINSTANCE__@@QEAX@Z@4HA 0000000180035d38     LIBCMT:dll_dllmain.obj
 0004:00000d44       $pdata$?dllmain_crt_process_detach@@YAH_N@Z 0000000180035d44     LIBCMT:dll_dllmain.obj
 0004:00000d50       $pdata$?fin$0@?0??dllmain_crt_process_detach@@YAH_N@Z@4HA 0000000180035d50     LIBCMT:dll_dllmain.obj
 0004:00000d5c       $pdata$?fin$1@?0??dllmain_crt_process_detach@@YAH_N@Z@4HA 0000000180035d5c     LIBCMT:dll_dllmain.obj
 0004:00000d68       $pdata$?dllmain_crt_dispatch@@YAHQEAUHINSTANCE__@@KQEAX@Z 0000000180035d68     LIBCMT:dll_dllmain.obj
 0004:00000d74       $pdata$?dllmain_dispatch@@YAHQEAUHINSTANCE__@@KQEAX@Z 0000000180035d74     LIBCMT:dll_dllmain.obj
 0004:00000d80       $pdata$?filt$0@?0??dllmain_dispatch@@YAHQEAUHINSTANCE__@@KQEAX@Z@4HA 0000000180035d80     LIBCMT:dll_dllmain.obj
 0004:00000d8c       $pdata$_DllMainCRTStartup  0000000180035d8c     LIBCMT:dll_dllmain.obj
 0004:00000d98       $pdata$??2@YAPEAX_K@Z      0000000180035d98     LIBCMT:new_scalar.obj
 0004:00000da4       $pdata$__isa_available_init 0000000180035da4     LIBCMT:cpu_disp.obj
 0004:00000db0       $pdata$__scrt_fastfail     0000000180035db0     LIBCMT:utility_desktop.obj
 0004:00000dbc       $pdata$__security_init_cookie 0000000180035dbc     LIBCMT:gs_support.obj
 0004:00000dc8       $pdata$__scrt_initialize_default_local_stdio_options 0000000180035dc8     LIBCMT:default_local_stdio_options.obj
 0004:00000dd4       $pdata$_RTC_Initialize     0000000180035dd4     LIBCMT:initsect.obj
 0004:00000de0       $pdata$_RTC_Terminate      0000000180035de0     LIBCMT:initsect.obj
 0004:00000dec       $pdata$??0exception@std@@QEAA@AEBV01@@Z 0000000180035dec     LIBCMT:throw_bad_alloc.obj
 0004:00000df8       $pdata$??_Gbad_alloc@std@@UEAAPEAXI@Z 0000000180035df8     LIBCMT:throw_bad_alloc.obj
 0004:00000df8       $pdata$??_Gbad_array_new_length@std@@UEAAPEAXI@Z 0000000180035df8     LIBCMT:throw_bad_alloc.obj
 0004:00000df8       $pdata$??_Gexception@std@@UEAAPEAXI@Z 0000000180035df8     LIBCMT:throw_bad_alloc.obj
 0004:00000df8       $pdata$??_Gbad_exception@std@@UEAAPEAXI@Z 0000000180035df8     libvcruntime:frame.obj
 0004:00000e04       $pdata$??0bad_alloc@std@@QEAA@AEBV01@@Z 0000000180035e04     LIBCMT:throw_bad_alloc.obj
 0004:00000e10       $pdata$??0bad_array_new_length@std@@QEAA@AEBV01@@Z 0000000180035e10     LIBCMT:throw_bad_alloc.obj
 0004:00000e1c       $pdata$?__scrt_throw_std_bad_alloc@@YAXXZ 0000000180035e1c     LIBCMT:throw_bad_alloc.obj
 0004:00000e28       $pdata$?__scrt_throw_std_bad_array_new_length@@YAXXZ 0000000180035e28     LIBCMT:throw_bad_alloc.obj
 0004:00000e4c       $pdata$??_Gtype_info@@UEAAPEAXI@Z 0000000180035e4c     LIBCMT:std_type_info_static.obj
 0004:00000e58       $pdata$??0CAtlBaseModule@ATL@@QEAA@XZ 0000000180035e58     atls:atlbase.obj
 0004:00000e64       $pdata$??1CAtlBaseModule@ATL@@QEAA@XZ 0000000180035e64     atls:atlbase.obj
 0004:00000e70       $pdata$??__E_AtlBaseModule@ATL@@YAXXZ 0000000180035e70     atls:atlbase.obj
 0004:00000e7c       $pdata$AtlThunk_AllocateData 0000000180035e7c     atls:atlthunk.obj
 0004:00000e88       $pdata$AtlThunk_InitData   0000000180035e88     atls:atlthunk.obj
 0004:00000e94       $pdata$AtlThunk_DataToCode 0000000180035e94     atls:atlthunk.obj
 0004:00000ea0       $pdata$AtlThunk_FreeData   0000000180035ea0     atls:atlthunk.obj
 0004:00000eac       $pdata$?__InitializeThunkPool@@YAHXZ 0000000180035eac     atls:atlthunk.obj
 0004:00000eb8       $pdata$?__AllocStdCallThunk_cmn@@YAPEAXXZ 0000000180035eb8     atls:atlthunk.obj
 0004:00000ec4       $pdata$??$GetProcAddressAll@P6AP6A_JPEAUHWND__@@I_K_J@ZPEAUAtlThunkData_t@@@Z@@YAP6AP6A_JPEAUHWND__@@I_K_J@ZPEAUAtlThunkData_t@@@ZPEAP6AP6A_J0I12@Z3@Z@Z 0000000180035ec4     atls:atlthunk.obj
 0004:00000ec4       $pdata$??$GetProcAddressAll@P6APEAUAtlThunkData_t@@XZ@@YAP6APEAUAtlThunkData_t@@XZPEAP6APEAU0@XZ@Z 0000000180035ec4     atls:atlthunk.obj
 0004:00000ec4       $pdata$??$GetProcAddressAll@P6AXPEAUAtlThunkData_t@@@Z@@YAP6AXPEAUAtlThunkData_t@@@ZPEAP6AX0@Z@Z 0000000180035ec4     atls:atlthunk.obj
 0004:00000ec4       $pdata$??$GetProcAddressAll@P6AXPEAUAtlThunkData_t@@PEAX_K@Z@@YAP6AXPEAUAtlThunkData_t@@PEAX_K@ZPEAP6AX012@Z@Z 0000000180035ec4     atls:atlthunk.obj
 0004:00000ed0       $pdata$_purecall           0000000180035ed0     libvcruntime:purevirt.obj
 0004:00000edc       $pdata$wcsstr              0000000180035edc     libvcruntime:wcsstr.obj
 0004:00000f24       $pdata$__vcrt_initialize   0000000180035f24     libvcruntime:initialization.obj
 0004:00000f30       $pdata$__vcrt_uninitialize 0000000180035f30     libvcruntime:initialization.obj
 0004:00000f3c       $pdata$__vcrt_uninitialize_critical 0000000180035f3c     libvcruntime:initialization.obj
 0004:00000f48       $pdata$__vcrt_thread_attach 0000000180035f48     libvcruntime:initialization.obj
 0004:00000f54       $pdata$__vcrt_thread_detach 0000000180035f54     libvcruntime:initialization.obj
 0004:00000f60       $pdata$__C_specific_handler 0000000180035f60     libvcruntime:riscchandler.obj
 0004:00000f6c       $pdata$?DecompFuncInfo@FH4@@YA_JPEAEAEAUFuncInfo4@1@_KH_N@Z 0000000180035f6c     libvcruntime:risctrnsctrl.obj
 0004:00000f78       $pdata$?FrameUnwindToEmptyState@__FrameHandler4@@SAXPEA_KPEAU_xDISPATCHER_CONTEXT@@PEAUFuncInfo4@FH4@@@Z 0000000180035f78     libvcruntime:risctrnsctrl.obj
 0004:00000f84       $pdata$?UnwindNestedFrames@__FrameHandler4@@SAXPEA_KPEAUEHExceptionRecord@@PEAU_CONTEXT@@0PEAXPEAUFuncInfo4@FH4@@HHPEAUHandlerType4@5@PEAU_xDISPATCHER_CONTEXT@@E@Z 0000000180035f84     libvcruntime:risctrnsctrl.obj
 0004:00000f90       $pdata$?GetRangeOfTrysToCheck@__FrameHandler4@@SA?AU?$pair@Viterator@TryBlockMap4@FH4@@V123@@std@@AEAVTryBlockMap4@FH4@@HPEAU_xDISPATCHER_CONTEXT@@PEAUFuncInfo4@5@H@Z 0000000180035f90     libvcruntime:risctrnsctrl.obj
 0004:00000f9c       $pdata$_GetImageBase       0000000180035f9c     libvcruntime:risctrnsctrl.obj
 0004:00000fa8       $pdata$_SetImageBase       0000000180035fa8     libvcruntime:risctrnsctrl.obj
 0004:00000fb4       $pdata$_GetThrowImageBase  0000000180035fb4     libvcruntime:risctrnsctrl.obj
 0004:00000fc0       $pdata$_SetThrowImageBase  0000000180035fc0     libvcruntime:risctrnsctrl.obj
 0004:00000fcc       $pdata$_CreateFrameInfo    0000000180035fcc     libvcruntime:risctrnsctrl.obj
 0004:00000fd8       $pdata$_FindAndUnlinkFrame 0000000180035fd8     libvcruntime:risctrnsctrl.obj
 0004:00000fe4       $pdata$__CxxFrameHandler4  0000000180035fe4     libvcruntime:risctrnsctrl.obj
 0004:00000ff0       $pdata$??$_CallSETranslator@V__FrameHandler4@@@@YAHPEAUEHExceptionRecord@@PEA_KPEAU_CONTEXT@@PEAU_xDISPATCHER_CONTEXT@@PEAUFuncInfo4@FH4@@K1H@Z 0000000180035ff0     libvcruntime:risctrnsctrl.obj
 0004:00000ffc       $pdata$?filt$0@?0???$_CallSETranslator@V__FrameHandler4@@@@YAHPEAUEHExceptionRecord@@PEA_KPEAU_CONTEXT@@PEAU_xDISPATCHER_CONTEXT@@PEAUFuncInfo4@FH4@@K1H@Z@4HA 0000000180035ffc     libvcruntime:risctrnsctrl.obj
 0004:00001008       $pdata$_IsExceptionObjectToBeDestroyed 0000000180036008     libvcruntime:ehhelpers.obj
 0004:00001014       $pdata$__FrameUnwindFilter 0000000180036014     libvcruntime:ehhelpers.obj
 0004:00001020       $pdata$__DestructExceptionObject 0000000180036020     libvcruntime:ehhelpers.obj
 0004:0000102c       $pdata$__DestructExceptionObject$filt$0 000000018003602c     libvcruntime:ehhelpers.obj
 0004:00001038       $pdata$__std_type_info_destroy_list 0000000180036038     libvcruntime:std_type_info.obj
 0004:00001044       $pdata$__std_exception_copy 0000000180036044     libvcruntime:std_exception.obj
 0004:00001050       $pdata$__std_exception_destroy 0000000180036050     libvcruntime:std_exception.obj
 0004:0000105c       $pdata$_CxxThrowException  000000018003605c     libvcruntime:throw.obj
 0004:00001068       $pdata$__vcrt_initialize_ptd 0000000180036068     libvcruntime:per_thread_data.obj
 0004:00001074       $pdata$__vcrt_uninitialize_ptd 0000000180036074     libvcruntime:per_thread_data.obj
 0004:00001080       $pdata$__vcrt_getptd       0000000180036080     libvcruntime:per_thread_data.obj
 0004:0000108c       $pdata$__vcrt_getptd_noexit 000000018003608c     libvcruntime:per_thread_data.obj
 0004:00001098       $pdata$__vcrt_freeptd      0000000180036098     libvcruntime:per_thread_data.obj
 0004:000010a4       $pdata$__vcrt_freefls      00000001800360a4     libvcruntime:per_thread_data.obj
 0004:000010b0       $pdata$__vcrt_initialize_locks 00000001800360b0     libvcruntime:locks.obj
 0004:000010bc       $pdata$__vcrt_uninitialize_locks 00000001800360bc     libvcruntime:locks.obj
 0004:000010ec       $pdata$?StateFromIp@__FrameHandler4@@SAHPEAUFuncInfo4@FH4@@PEAU_xDISPATCHER_CONTEXT@@_K@Z 00000001800360ec     libvcruntime:ehstate.obj
 0004:000010f8       $pdata$?getStartStop@UWMap4@FH4@@QEAAXHHAEAViterator@12@0@Z 00000001800360f8     libvcruntime:frame.obj
 0004:00001104       $pdata$?getStateFromIterators@UWMap4@FH4@@SAHAEBViterator@12@H0H0@Z 0000000180036104     libvcruntime:frame.obj
 0004:00001110       $pdata$??0HandlerMap4@FH4@@QEAA@PEBUTryBlockMapEntry4@1@_KH@Z 0000000180036110     libvcruntime:frame.obj
 0004:0000111c       $pdata$?FrameUnwindToState@__FrameHandler4@@SAXPEA_KPEAU_xDISPATCHER_CONTEXT@@PEAUFuncInfo4@FH4@@H@Z 000000018003611c     libvcruntime:frame.obj
 0004:00001128       $pdata$?filt$0@?0??FrameUnwindToState@__FrameHandler4@@SAXPEA_KPEAU_xDISPATCHER_CONTEXT@@PEAUFuncInfo4@FH4@@H@Z@4HA 0000000180036128     libvcruntime:frame.obj
 0004:00001134       $pdata$?fin$1@?0??FrameUnwindToState@__FrameHandler4@@SAXPEA_KPEAU_xDISPATCHER_CONTEXT@@PEAUFuncInfo4@FH4@@H@Z@4HA 0000000180036134     libvcruntime:frame.obj
 0004:00001140       $pdata$?CxxCallCatchBlock@__FrameHandler4@@SAPEAXPEAU_EXCEPTION_RECORD@@@Z 0000000180036140     libvcruntime:frame.obj
 0004:0000114c       $pdata$?filt$0@?0??CxxCallCatchBlock@__FrameHandler4@@SAPEAXPEAU_EXCEPTION_RECORD@@@Z@4HA 000000018003614c     libvcruntime:frame.obj
 0004:00001158       $pdata$?fin$1@?0??CxxCallCatchBlock@__FrameHandler4@@SAPEAXPEAU_EXCEPTION_RECORD@@@Z@4HA 0000000180036158     libvcruntime:frame.obj
 0004:00001164       $pdata$??0bad_exception@std@@QEAA@AEBV01@@Z 0000000180036164     libvcruntime:frame.obj
 0004:00001170       $pdata$?ExFilterRethrow@@YAHPEAU_EXCEPTION_POINTERS@@PEAUEHExceptionRecord@@PEAH@Z 0000000180036170     libvcruntime:frame.obj
 0004:0000117c       $pdata$?ExFilterRethrowFH4@@YAHPEAU_EXCEPTION_POINTERS@@PEAUEHExceptionRecord@@HPEAH@Z 000000018003617c     libvcruntime:frame.obj
 0004:00001188       $pdata$?IsInExceptionSpec@@YAEPEAUEHExceptionRecord@@PEBU_s_ESTypeList@@@Z 0000000180036188     libvcruntime:frame.obj
 0004:00001194       $pdata$?Is_bad_exception_allowed@@YAEPEBU_s_ESTypeList@@@Z 0000000180036194     libvcruntime:frame.obj
 0004:000011a0       $pdata$??$__InternalCxxFrameHandler@V__FrameHandler4@@@@YA?AW4_EXCEPTION_DISPOSITION@@PEAUEHExceptionRecord@@PEA_KPEAU_CONTEXT@@PEAU_xDISPATCHER_CONTEXT@@PEAUFuncInfo4@FH4@@H1E@Z 00000001800361a0     libvcruntime:frame.obj
 0004:000011ac       $pdata$??$TypeMatchHelper@V__FrameHandler3@@@@YAHPEBU_s_HandlerType@@PEBU_s_CatchableType@@PEBU_s_ThrowInfo@@@Z 00000001800361ac     libvcruntime:frame.obj
 0004:000011b8       $pdata$??$TypeMatchHelper@V__FrameHandler4@@@@YAHPEAUHandlerType4@FH4@@PEBU_s_CatchableType@@PEBU_s_ThrowInfo@@@Z 00000001800361b8     libvcruntime:frame.obj
 0004:000011c4       $pdata$??$BuildCatchObjectHelperInternal@V__FrameHandler4@@@@YAHPEAUEHExceptionRecord@@PEAXPEAUHandlerType4@FH4@@PEBU_s_CatchableType@@@Z 00000001800361c4     libvcruntime:frame.obj
 0004:000011d0       $pdata$??$BuildCatchObjectInternal@V__FrameHandler4@@@@YAXPEAUEHExceptionRecord@@PEAXPEAUHandlerType4@FH4@@PEBU_s_CatchableType@@@Z 00000001800361d0     libvcruntime:frame.obj
 0004:000011dc       $pdata$??$FindHandler@V__FrameHandler4@@@@YAXPEAUEHExceptionRecord@@PEA_KPEAU_CONTEXT@@PEAU_xDISPATCHER_CONTEXT@@PEAUFuncInfo4@FH4@@EH1@Z 00000001800361dc     libvcruntime:frame.obj
 0004:000011e8       $pdata$??$CatchIt@V__FrameHandler4@@@@YAXPEAUEHExceptionRecord@@PEA_KPEAU_CONTEXT@@PEAU_xDISPATCHER_CONTEXT@@PEAUFuncInfo4@FH4@@PEAUHandlerType4@4@PEBU_s_CatchableType@@PEAUTryBlockMapEntry4@4@H1EE@Z 00000001800361e8     libvcruntime:frame.obj
 0004:000011f4       $pdata$??$FindHandlerForForeignException@V__FrameHandler4@@@@YAXPEAUEHExceptionRecord@@PEA_KPEAU_CONTEXT@@PEAU_xDISPATCHER_CONTEXT@@PEAUFuncInfo4@FH4@@HH1@Z 00000001800361f4     libvcruntime:frame.obj
 0004:00001200       $pdata$__vcrt_FlsAlloc     0000000180036200     libvcruntime:winapi_downlevel.obj
 0004:0000120c       $pdata$__vcrt_FlsFree      000000018003620c     libvcruntime:winapi_downlevel.obj
 0004:00001218       $pdata$__vcrt_FlsGetValue  0000000180036218     libvcruntime:winapi_downlevel.obj
 0004:00001224       $pdata$__vcrt_FlsSetValue  0000000180036224     libvcruntime:winapi_downlevel.obj
 0004:00001230       $pdata$__vcrt_InitializeCriticalSectionEx 0000000180036230     libvcruntime:winapi_downlevel.obj
 0004:0000123c       $pdata$?try_get_function@@YAPEAXW4function_id@?A0x5302d918@@QEBDQEBW4module_id@2@2@Z 000000018003623c     libvcruntime:winapi_downlevel.obj
 0004:00001278       $pdata$_invalid_parameter_noinfo 0000000180036278     libucrt:invalid_parameter.obj
 0004:00001284       $pdata$_invoke_watson      0000000180036284     libucrt:invalid_parameter.obj
 0004:00001290       $pdata$__acrt_call_reportfault 0000000180036290     libucrt:invalid_parameter.obj
 0004:0000129c       $pdata$_invalid_parameter  000000018003629c     libucrt:invalid_parameter.obj
 0004:000012a8       $pdata$_errno              00000001800362a8     libucrt:errno.obj
 0004:000012b4       $pdata$__doserrno          00000001800362b4     libucrt:errno.obj
 0004:000012c0       $pdata$__acrt_errno_map_os_error 00000001800362c0     libucrt:errno.obj
 0004:000012cc       $pdata$_recalloc_base      00000001800362cc     libucrt:recalloc.obj
 0004:000012d8       $pdata$_resetstkoflw       00000001800362d8     libucrt:resetstk.obj
 0004:000012e4       $pdata$wcscat_s            00000001800362e4     libucrt:wcscat_s.obj
 0004:000012f0       $pdata$wcscpy_s            00000001800362f0     libucrt:wcscpy_s.obj
 0004:000012fc       $pdata$wcsncpy_s           00000001800362fc     libucrt:wcsncpy_s.obj
 0004:00001308       $pdata$??0_LocaleUpdate@@QEAA@QEAU__crt_locale_pointers@@@Z 0000000180036308     libucrt:output.obj
 0004:00001314       $pdata$__stdio_common_vswprintf_s 0000000180036314     libucrt:output.obj
 0004:00001320       $pdata$?write_string@?$string_output_adapter@_W@__crt_stdio_output@@QEBAXQEB_WHQEAHAEAV__crt_deferred_errno_cache@@@Z 0000000180036320     libucrt:output.obj
 0004:0000132c       $pdata$??$common_vsprintf@Vformat_validation_base@__crt_stdio_output@@_W@@YAH_KQEA_W0QEB_WQEAU__crt_locale_pointers@@QEAD@Z 000000018003632c     libucrt:output.obj
 0004:00001338       $pdata$??$write_multiple_characters@V?$string_output_adapter@_W@__crt_stdio_output@@D@__crt_stdio_output@@YAXAEBV?$string_output_adapter@_W@0@DHQEAH@Z 0000000180036338     libucrt:output.obj
 0004:00001344       $pdata$??$ensure_buffer_is_big_enough@D@formatting_buffer@__crt_stdio_output@@QEAA_N_K@Z 0000000180036344     libucrt:output.obj
 0004:00001350       $pdata$??$ensure_buffer_is_big_enough@_W@formatting_buffer@__crt_stdio_output@@QEAA_N_K@Z 0000000180036350     libucrt:output.obj
 0004:0000135c       $pdata$?process@?$output_processor@_WV?$string_output_adapter@_W@__crt_stdio_output@@V?$format_validation_base@_WV?$string_output_adapter@_W@__crt_stdio_output@@@2@@__crt_stdio_output@@QEAAHXZ 000000018003635c     libucrt:output.obj
 0004:00001368       $pdata$?parse_int_from_format_string@?$output_processor@_WV?$string_output_adapter@_W@__crt_stdio_output@@V?$format_validation_base@_WV?$string_output_adapter@_W@__crt_stdio_output@@@2@@__crt_stdio_output@@AEAA_NQEAH@Z 0000000180036368     libucrt:output.obj
 0004:00001374       $pdata$?state_case_size@?$output_processor@_WV?$string_output_adapter@_W@__crt_stdio_output@@V?$format_validation_base@_WV?$string_output_adapter@_W@__crt_stdio_output@@@2@@__crt_stdio_output@@AEAA_NXZ 0000000180036374     libucrt:output.obj
 0004:00001380       $pdata$?state_case_type@?$output_processor@_WV?$string_output_adapter@_W@__crt_stdio_output@@V?$format_validation_base@_WV?$string_output_adapter@_W@__crt_stdio_output@@@2@@__crt_stdio_output@@AEAA_NXZ 0000000180036380     libucrt:output.obj
 0004:0000138c       $pdata$?type_case_c_tchar@?$output_processor@_WV?$string_output_adapter@_W@__crt_stdio_output@@V?$format_validation_base@_WV?$string_output_adapter@_W@__crt_stdio_output@@@2@@__crt_stdio_output@@AEAA_N_W@Z 000000018003638c     libucrt:output.obj
 0004:00001398       $pdata$?type_case_Z@?$output_processor@_WV?$string_output_adapter@_W@__crt_stdio_output@@V?$format_validation_base@_WV?$string_output_adapter@_W@__crt_stdio_output@@@2@@__crt_stdio_output@@AEAA_NXZ 0000000180036398     libucrt:output.obj
 0004:000013a4       $pdata$?type_case_s@?$output_processor@_WV?$string_output_adapter@_W@__crt_stdio_output@@V?$format_validation_base@_WV?$string_output_adapter@_W@__crt_stdio_output@@@2@@__crt_stdio_output@@AEAA_NXZ 00000001800363a4     libucrt:output.obj
 0004:000013b0       $pdata$?type_case_a@?$output_processor@_WV?$string_output_adapter@_W@__crt_stdio_output@@V?$format_validation_base@_WV?$string_output_adapter@_W@__crt_stdio_output@@@2@@__crt_stdio_output@@AEAA_NXZ 00000001800363b0     libucrt:output.obj
 0004:000013bc       $pdata$?type_case_integer@?$output_processor@_WV?$string_output_adapter@_W@__crt_stdio_output@@V?$format_validation_base@_WV?$string_output_adapter@_W@__crt_stdio_output@@@2@@__crt_stdio_output@@AEAA_NI_N@Z 00000001800363bc     libucrt:output.obj
 0004:000013c8       $pdata$?type_case_n@?$output_processor@_WV?$string_output_adapter@_W@__crt_stdio_output@@V?$format_validation_base@_WV?$string_output_adapter@_W@__crt_stdio_output@@@2@@__crt_stdio_output@@AEAA_NXZ 00000001800363c8     libucrt:output.obj
 0004:000013d4       $pdata$?write_stored_string_tchar@?$output_processor@_WV?$string_output_adapter@_W@__crt_stdio_output@@V?$format_validation_base@_WV?$string_output_adapter@_W@__crt_stdio_output@@@2@@__crt_stdio_output@@AEAA_N_W@Z 00000001800363d4     libucrt:output.obj
 0004:000013e0       $pdata$??$type_case_integer_parse_into_buffer@_K@?$output_processor@_WV?$string_output_adapter@_W@__crt_stdio_output@@V?$format_validation_base@_WV?$string_output_adapter@_W@__crt_stdio_output@@@2@@__crt_stdio_output@@AEAAX_KI_N@Z 00000001800363e0     libucrt:output.obj
 0004:000013ec       $pdata$??$type_case_integer_parse_into_buffer@I@?$output_processor@_WV?$string_output_adapter@_W@__crt_stdio_output@@V?$format_validation_base@_WV?$string_output_adapter@_W@__crt_stdio_output@@@2@@__crt_stdio_output@@AEAAXII_N@Z 00000001800363ec     libucrt:output.obj
 0004:000013f8       $pdata$_seh_filter_exe     00000001800363f8     libucrt:exception_filter.obj
 0004:00001404       $pdata$?try_cor_exit_process@@YAXI@Z 0000000180036404     libucrt:exit.obj
 0004:00001410       $pdata$?exit_or_terminate_process@@YAXI@Z 0000000180036410     libucrt:exit.obj
 0004:0000141c       $pdata$?common_exit@@YAXHW4_crt_exit_cleanup_mode@@W4_crt_exit_return_mode@@@Z 000000018003641c     libucrt:exit.obj
 0004:00001428       $pdata$??R<lambda_6e4b09c48022b2350581041d5f6b0c4c>@@QEBA@XZ 0000000180036428     libucrt:exit.obj
 0004:00001434       $pdata$?filt$0@?0???R<lambda_6e4b09c48022b2350581041d5f6b0c4c>@@QEBA@XZ@4HA 0000000180036434     libucrt:exit.obj
 0004:00001440       $pdata$??$?RV<lambda_d80eeec6fff315bfe5c115232f3240e3>@@AEAV<lambda_6e4b09c48022b2350581041d5f6b0c4c>@@V<lambda_2358e3775559c9db80273638284d5e45>@@@?$__crt_seh_guarded_call@X@@QEAAX$$QEAV<lambda_d80eeec6fff315bfe5c115232f3240e3>@@AEAV<lambda_6e4b09c48022b2350581041d5f6b0c4c>@@$$QEAV<lambda_2358e3775559c9db80273638284d5e45>@@@Z 0000000180036440     libucrt:exit.obj
 0004:0000144c       $pdata$?fin$0@?0???$?RV<lambda_0ae27a3a962d80f24befdcbee591983d>@@AEAV<lambda_8d0ee55de4b1038c4002e0adecdf1839>@@V<lambda_dc504788e8f1664fe9b84e20bfb512f2>@@@?$__crt_seh_guarded_call@X@@QEAAX$$QEAV<lambda_0ae27a3a962d80f24befdcbee591983d>@@AEAV<lambda_8d0ee55de4b1038c4002e0adecdf1839>@@$$QEAV<lambda_dc504788e8f1664fe9b84e20bfb512f2>@@@Z@4HA 000000018003644c     libucrt:per_thread_data.obj
 0004:0000144c       $pdata$?fin$0@?0???$?RV<lambda_2d41944a1d46af3157314b8a01080d33>@@AEAV<lambda_8f455de75cd7d7f24b4096f044d8b9e6>@@V<lambda_aa500f224e6afead328df44964fe2772>@@@?$__crt_seh_guarded_call@X@@QEAAX$$QEAV<lambda_2d41944a1d46af3157314b8a01080d33>@@AEAV<lambda_8f455de75cd7d7f24b4096f044d8b9e6>@@$$QEAV<lambda_aa500f224e6afead328df44964fe2772>@@@Z@4HA 000000018003644c     libucrt:per_thread_data.obj
 0004:0000144c       $pdata$?fin$0@?0???$?RV<lambda_aa87e3671a710a21b5dc78c0bdf72e11>@@AEAV<lambda_92619d2358a28f41a33ba319515a20b9>@@V<lambda_6992ecaafeb10aed2b74cb1fae11a551>@@@?$__crt_seh_guarded_call@X@@QEAAX$$QEAV<lambda_aa87e3671a710a21b5dc78c0bdf72e11>@@AEAV<lambda_92619d2358a28f41a33ba319515a20b9>@@$$QEAV<lambda_6992ecaafeb10aed2b74cb1fae11a551>@@@Z@4HA 000000018003644c     libucrt:per_thread_data.obj
 0004:0000144c       $pdata$?fin$0@?0???$?RV<lambda_f2e299630e499de9f9a165e60fcd3db5>@@AEAV<lambda_2ae9d31cdba2644fcbeaf08da7c24588>@@V<lambda_40d01ff24d0e7b3814fdbdcee8eab3c7>@@@?$__crt_seh_guarded_call@X@@QEAAX$$QEAV<lambda_f2e299630e499de9f9a165e60fcd3db5>@@AEAV<lambda_2ae9d31cdba2644fcbeaf08da7c24588>@@$$QEAV<lambda_40d01ff24d0e7b3814fdbdcee8eab3c7>@@@Z@4HA 000000018003644c     libucrt:per_thread_data.obj
 0004:0000144c       $pdata$?fin$0@?0???$?RV<lambda_efdfa57d1f175319df784efa44bb7b81>@@AEAV<lambda_5f0a4c1567f8adc6734073e5d1e1b35c>@@V<lambda_2e8a7d3640ea6ccb4c2413664c2db6fd>@@@?$__crt_seh_guarded_call@X@@QEAAX$$QEAV<lambda_efdfa57d1f175319df784efa44bb7b81>@@AEAV<lambda_5f0a4c1567f8adc6734073e5d1e1b35c>@@$$QEAV<lambda_2e8a7d3640ea6ccb4c2413664c2db6fd>@@@Z@4HA 000000018003644c     libucrt:mbctype.obj
 0004:0000144c       $pdata$?fin$0@?0???$?RV<lambda_450d765d439847d4c735a33c368b5fc0>@@AEAV<lambda_44731a7d0e6d81c3e6aa82d741081786>@@V<lambda_601a2a7da3b7a96e9554ac7215c4b07c>@@@?$__crt_seh_guarded_call@P6AXH@Z@@QEAAP6AXH@Z$$QEAV<lambda_450d765d439847d4c735a33c368b5fc0>@@AEAV<lambda_44731a7d0e6d81c3e6aa82d741081786>@@$$QEAV<lambda_601a2a7da3b7a96e9554ac7215c4b07c>@@@Z@4HA 000000018003644c     libucrt:signal.obj
 0004:0000144c       $pdata$?fin$0@?0???$?RV<lambda_d80eeec6fff315bfe5c115232f3240e3>@@AEAV<lambda_6e4b09c48022b2350581041d5f6b0c4c>@@V<lambda_2358e3775559c9db80273638284d5e45>@@@?$__crt_seh_guarded_call@X@@QEAAX$$QEAV<lambda_d80eeec6fff315bfe5c115232f3240e3>@@AEAV<lambda_6e4b09c48022b2350581041d5f6b0c4c>@@$$QEAV<lambda_2358e3775559c9db80273638284d5e45>@@@Z@4HA 000000018003644c     libucrt:exit.obj
 0004:0000144c       $pdata$?fin$0@?0???$?RV<lambda_638799b9deba96c50f710eeac98168cd>@@AEAV<lambda_22ebabd17bc4fa466a2aca6d8deb888d>@@V<lambda_a6f7d7db0129f75315ebf26d50c089f1>@@@?$__crt_seh_guarded_call@H@@QEAAH$$QEAV<lambda_638799b9deba96c50f710eeac98168cd>@@AEAV<lambda_22ebabd17bc4fa466a2aca6d8deb888d>@@$$QEAV<lambda_a6f7d7db0129f75315ebf26d50c089f1>@@@Z@4HA 000000018003644c     libucrt:onexit.obj
 0004:0000144c       $pdata$?fin$0@?0???$?RV<lambda_7777bce6b2f8c936911f934f8298dc43>@@AEAV<lambda_f03950bc5685219e0bcd2087efbe011e>@@V<lambda_3883c3dff614d5e0c5f61bb1ac94921c>@@@?$__crt_seh_guarded_call@H@@QEAAH$$QEAV<lambda_7777bce6b2f8c936911f934f8298dc43>@@AEAV<lambda_f03950bc5685219e0bcd2087efbe011e>@@$$QEAV<lambda_3883c3dff614d5e0c5f61bb1ac94921c>@@@Z@4HA 000000018003644c     libucrt:onexit.obj
 0004:00001458       $pdata$_configure_narrow_argv 0000000180036458     libucrt:argv_parsing.obj
 0004:00001464       $pdata$__acrt_allocate_buffer_for_argv 0000000180036464     libucrt:argv_parsing.obj
 0004:00001470       $pdata$??$parse_command_line@D@@YAXPEADPEAPEAD0PEA_K2@Z 0000000180036470     libucrt:argv_parsing.obj
 0004:0000147c       $pdata$__dcrt_uninitialize_environments_nolock 000000018003647c     libucrt:environment_initialization.obj
 0004:00001488       $pdata$??$common_initialize_environment_nolock@D@@YAHXZ 0000000180036488     libucrt:environment_initialization.obj
 0004:00001494       $pdata$??$uninitialize_environment_internal@D@@YAXAEAPEAPEAD@Z 0000000180036494     libucrt:environment_initialization.obj
 0004:000014a0       $pdata$??$uninitialize_environment_internal@_W@@YAXAEAPEAPEA_W@Z 00000001800364a0     libucrt:environment_initialization.obj
 0004:000014ac       $pdata$??$free_environment@D@@YAXQEAPEAD@Z 00000001800364ac     libucrt:environment_initialization.obj
 0004:000014ac       $pdata$??$free_environment@_W@@YAXQEAPEA_W@Z 00000001800364ac     libucrt:environment_initialization.obj
 0004:000014b8       $pdata$??$create_environment@D@@YAQEAPEADQEAD@Z 00000001800364b8     libucrt:environment_initialization.obj
 0004:000014c4       $pdata$_register_onexit_function 00000001800364c4     libucrt:onexit.obj
 0004:000014d0       $pdata$_execute_onexit_table 00000001800364d0     libucrt:onexit.obj
 0004:000014dc       $pdata$??R<lambda_22ebabd17bc4fa466a2aca6d8deb888d>@@QEBAHXZ 00000001800364dc     libucrt:onexit.obj
 0004:000014e8       $pdata$??R<lambda_f03950bc5685219e0bcd2087efbe011e>@@QEBAHXZ 00000001800364e8     libucrt:onexit.obj
 0004:000014f4       $pdata$??$?RV<lambda_638799b9deba96c50f710eeac98168cd>@@AEAV<lambda_22ebabd17bc4fa466a2aca6d8deb888d>@@V<lambda_a6f7d7db0129f75315ebf26d50c089f1>@@@?$__crt_seh_guarded_call@H@@QEAAH$$QEAV<lambda_638799b9deba96c50f710eeac98168cd>@@AEAV<lambda_22ebabd17bc4fa466a2aca6d8deb888d>@@$$QEAV<lambda_a6f7d7db0129f75315ebf26d50c089f1>@@@Z 00000001800364f4     libucrt:onexit.obj
 0004:00001500       $pdata$??$?RV<lambda_7777bce6b2f8c936911f934f8298dc43>@@AEAV<lambda_f03950bc5685219e0bcd2087efbe011e>@@V<lambda_3883c3dff614d5e0c5f61bb1ac94921c>@@@?$__crt_seh_guarded_call@H@@QEAAH$$QEAV<lambda_7777bce6b2f8c936911f934f8298dc43>@@AEAV<lambda_f03950bc5685219e0bcd2087efbe011e>@@$$QEAV<lambda_3883c3dff614d5e0c5f61bb1ac94921c>@@@Z 0000000180036500     libucrt:onexit.obj
 0004:0000150c       $pdata$__acrt_uninitialize 000000018003650c     libucrt:initialization.obj
 0004:00001518       $pdata$__acrt_uninitialize_critical 0000000180036518     libucrt:initialization.obj
 0004:00001524       $pdata$__acrt_thread_attach 0000000180036524     libucrt:initialization.obj
 0004:00001530       $pdata$__acrt_thread_detach 0000000180036530     libucrt:initialization.obj
 0004:0000153c       $pdata$initialize_c        000000018003653c     libucrt:initialization.obj
 0004:00001548       $pdata$uninitialize_environment 0000000180036548     libucrt:initialization.obj
 0004:00001554       $pdata$initialize_pointers 0000000180036554     libucrt:initialization.obj
 0004:00001560       $pdata$uninitialize_allocated_memory 0000000180036560     libucrt:initialization.obj
 0004:0000156c       $pdata$uninitialize_allocated_io_buffers 000000018003656c     libucrt:initialization.obj
 0004:00001578       $pdata$_initterm           0000000180036578     libucrt:initterm.obj
 0004:00001584       $pdata$_initterm_e         0000000180036584     libucrt:initterm.obj
 0004:00001590       $pdata$_callnewh           0000000180036590     libucrt:new_handler.obj
 0004:0000159c       $pdata$_query_new_handler  000000018003659c     libucrt:new_handler.obj
 0004:000015a8       $pdata$_query_new_handler$fin$0 00000001800365a8     libucrt:new_handler.obj
 0004:000015b4       $pdata$terminate           00000001800365b4     libucrt:terminate.obj
 0004:000015c0       $pdata$abort               00000001800365c0     libucrt:abort.obj
 0004:000015cc       $pdata$strcpy_s            00000001800365cc     libucrt:strcpy_s.obj
 0004:000015d8       $pdata$??$parse_integer@KV?$c_string_character_source@_W@__crt_strtox@@@__crt_strtox@@YAKQEAU__crt_locale_pointers@@V?$c_string_character_source@_W@0@H_N@Z 00000001800365d8     libucrt:atox.obj
 0004:000015f0       $pdata$_free_base          00000001800365f0     libucrt:free_base.obj
 0004:000015fc       $pdata$__acrt_initialize_ptd 00000001800365fc     libucrt:per_thread_data.obj
 0004:00001608       $pdata$__acrt_uninitialize_ptd 0000000180036608     libucrt:per_thread_data.obj
 0004:00001614       $pdata$__acrt_getptd       0000000180036614     libucrt:per_thread_data.obj
 0004:00001620       $pdata$__acrt_getptd_head  0000000180036620     libucrt:per_thread_data.obj
 0004:0000162c       $pdata$__acrt_getptd_noexit 000000018003662c     libucrt:per_thread_data.obj
 0004:00001638       $pdata$__acrt_freeptd      0000000180036638     libucrt:per_thread_data.obj
 0004:00001644       $pdata$?destroy_fls@@YAXPEAX@Z 0000000180036644     libucrt:per_thread_data.obj
 0004:00001650       $pdata$?replace_current_thread_locale_nolock@@YAXQEAU__acrt_ptd@@QEAU__crt_locale_data@@@Z 0000000180036650     libucrt:per_thread_data.obj
 0004:0000165c       $pdata$?construct_ptd_array@@YAXQEAU__acrt_ptd@@@Z 000000018003665c     libucrt:per_thread_data.obj
 0004:00001668       $pdata$?destroy_ptd_array@@YAXQEAU__acrt_ptd@@@Z 0000000180036668     libucrt:per_thread_data.obj
 0004:00001674       $pdata$??$?RV<lambda_0ae27a3a962d80f24befdcbee591983d>@@AEAV<lambda_8d0ee55de4b1038c4002e0adecdf1839>@@V<lambda_dc504788e8f1664fe9b84e20bfb512f2>@@@?$__crt_seh_guarded_call@X@@QEAAX$$QEAV<lambda_0ae27a3a962d80f24befdcbee591983d>@@AEAV<lambda_8d0ee55de4b1038c4002e0adecdf1839>@@$$QEAV<lambda_dc504788e8f1664fe9b84e20bfb512f2>@@@Z 0000000180036674     libucrt:per_thread_data.obj
 0004:00001680       $pdata$??$?RV<lambda_aa87e3671a710a21b5dc78c0bdf72e11>@@AEAV<lambda_92619d2358a28f41a33ba319515a20b9>@@V<lambda_6992ecaafeb10aed2b74cb1fae11a551>@@@?$__crt_seh_guarded_call@X@@QEAAX$$QEAV<lambda_aa87e3671a710a21b5dc78c0bdf72e11>@@AEAV<lambda_92619d2358a28f41a33ba319515a20b9>@@$$QEAV<lambda_6992ecaafeb10aed2b74cb1fae11a551>@@@Z 0000000180036680     libucrt:per_thread_data.obj
 0004:0000168c       $pdata$??$?RV<lambda_f2e299630e499de9f9a165e60fcd3db5>@@AEAV<lambda_2ae9d31cdba2644fcbeaf08da7c24588>@@V<lambda_40d01ff24d0e7b3814fdbdcee8eab3c7>@@@?$__crt_seh_guarded_call@X@@QEAAX$$QEAV<lambda_f2e299630e499de9f9a165e60fcd3db5>@@AEAV<lambda_2ae9d31cdba2644fcbeaf08da7c24588>@@$$QEAV<lambda_40d01ff24d0e7b3814fdbdcee8eab3c7>@@@Z 000000018003668c     libucrt:per_thread_data.obj
 0004:00001698       $pdata$??$?RV<lambda_2d41944a1d46af3157314b8a01080d33>@@AEAV<lambda_8f455de75cd7d7f24b4096f044d8b9e6>@@V<lambda_aa500f224e6afead328df44964fe2772>@@@?$__crt_seh_guarded_call@X@@QEAAX$$QEAV<lambda_2d41944a1d46af3157314b8a01080d33>@@AEAV<lambda_8f455de75cd7d7f24b4096f044d8b9e6>@@$$QEAV<lambda_aa500f224e6afead328df44964fe2772>@@@Z 0000000180036698     libucrt:per_thread_data.obj
 0004:000016a4       $pdata$_calloc_base        00000001800366a4     libucrt:calloc_base.obj
 0004:000016b0       $pdata$_malloc_base        00000001800366b0     libucrt:malloc_base.obj
 0004:000016bc       $pdata$_msize_base         00000001800366bc     libucrt:msize.obj
 0004:000016c8       $pdata$_realloc_base       00000001800366c8     libucrt:realloc_base.obj
 0004:000016d4       $pdata$__acrt_initialize_winapi_thunks 00000001800366d4     libucrt:winapi_thunks.obj
 0004:000016e0       $pdata$__acrt_uninitialize_winapi_thunks 00000001800366e0     libucrt:winapi_thunks.obj
 0004:000016ec       $pdata$__acrt_AreFileApisANSI 00000001800366ec     libucrt:winapi_thunks.obj
 0004:000016f8       $pdata$__acrt_FlsAlloc     00000001800366f8     libucrt:winapi_thunks.obj
 0004:00001704       $pdata$__acrt_FlsFree      0000000180036704     libucrt:winapi_thunks.obj
 0004:00001710       $pdata$__acrt_FlsGetValue  0000000180036710     libucrt:winapi_thunks.obj
 0004:0000171c       $pdata$__acrt_FlsSetValue  000000018003671c     libucrt:winapi_thunks.obj
 0004:00001728       $pdata$__acrt_InitializeCriticalSectionEx 0000000180036728     libucrt:winapi_thunks.obj
 0004:00001734       $pdata$__acrt_LCMapStringEx 0000000180036734     libucrt:winapi_thunks.obj
 0004:00001740       $pdata$__acrt_LocaleNameToLCID 0000000180036740     libucrt:winapi_thunks.obj
 0004:0000174c       $pdata$__acrt_AppPolicyGetProcessTerminationMethodInternal 000000018003674c     libucrt:winapi_thunks.obj
 0004:00001758       $pdata$__acrt_SetThreadStackGuarantee 0000000180036758     libucrt:winapi_thunks.obj
 0004:00001764       $pdata$?try_get_function@@YAPEAXW4function_id@?A0x391cf84c@@QEBDQEBW4module_id@2@2@Z 0000000180036764     libucrt:winapi_thunks.obj
 0004:00001770       $pdata$wcstol              0000000180036770     libucrt:strtox.obj
 0004:0000177c       $pdata$_mbtowc_l           000000018003677c     libucrt:mbtowc.obj
 0004:00001788       $pdata$__acrt_update_locale_info 0000000180036788     libucrt:locale_update.obj
 0004:00001794       $pdata$__acrt_update_multibyte_info 0000000180036794     libucrt:locale_update.obj
 0004:000017a0       $pdata$__acrt_fp_format    00000001800367a0     libucrt:cvt.obj
 0004:000017ac       $pdata$?fp_format_e_internal@@YAHQEAD_KH_NIQEAU_strflt@@2QEAU__crt_locale_pointers@@@Z 00000001800367ac     libucrt:cvt.obj
 0004:000017b8       $pdata$?fp_format_e@@YAHQEBNQEAD_K12H_NIQEAU__crt_locale_pointers@@W4__acrt_rounding_mode@@@Z 00000001800367b8     libucrt:cvt.obj
 0004:000017c4       $pdata$?should_round_up@@YA_NQEBN_KFW4__acrt_rounding_mode@@@Z 00000001800367c4     libucrt:cvt.obj
 0004:000017d0       $pdata$?fp_format_a@@YAHQEBNPEAD_KQEAD2H_NIQEAU__crt_locale_pointers@@W4__acrt_rounding_mode@@@Z 00000001800367d0     libucrt:cvt.obj
 0004:000017dc       $pdata$?fp_format_f_internal@@YAHQEAD_KHQEAU_strflt@@_NQEAU__crt_locale_pointers@@@Z 00000001800367dc     libucrt:cvt.obj
 0004:000017e8       $pdata$?fp_format_g@@YAHQEBNQEAD_K12H_NIQEAU__crt_locale_pointers@@@Z 00000001800367e8     libucrt:cvt.obj
 0004:000017f4       $pdata$_fileno             00000001800367f4     libucrt:fileno.obj
 0004:00001800       $pdata$__acrt_initialize_stdio 0000000180036800     libucrt:_file.obj
 0004:0000180c       $pdata$__acrt_uninitialize_stdio 000000018003680c     libucrt:_file.obj
 0004:00001818       $pdata$__acrt_uninitialize_locale 0000000180036818     libucrt:wsetlocale.obj
 0004:00001824       $pdata$??$?RV<lambda_410d79af7f07d98d83a3f525b3859a53>@@AEAV<lambda_3e16ef9562a7dcce91392c22ab16ea36>@@V<lambda_38119f0e861e05405d8a144b9b982f0a>@@@?$__crt_seh_guarded_call@X@@QEAAX$$QEAV<lambda_410d79af7f07d98d83a3f525b3859a53>@@AEAV<lambda_3e16ef9562a7dcce91392c22ab16ea36>@@$$QEAV<lambda_38119f0e861e05405d8a144b9b982f0a>@@@Z 0000000180036824     libucrt:wsetlocale.obj
 0004:00001830       $pdata$?fin$0@?0???$?RV<lambda_410d79af7f07d98d83a3f525b3859a53>@@AEAV<lambda_3e16ef9562a7dcce91392c22ab16ea36>@@V<lambda_38119f0e861e05405d8a144b9b982f0a>@@@?$__crt_seh_guarded_call@X@@QEAAX$$QEAV<lambda_410d79af7f07d98d83a3f525b3859a53>@@AEAV<lambda_3e16ef9562a7dcce91392c22ab16ea36>@@$$QEAV<lambda_38119f0e861e05405d8a144b9b982f0a>@@@Z@4HA 0000000180036830     libucrt:wsetlocale.obj
 0004:0000183c       $pdata$__acrt_initialize_lowio 000000018003683c     libucrt:ioinit.obj
 0004:00001848       $pdata$__acrt_initialize_lowio$fin$0 0000000180036848     libucrt:ioinit.obj
 0004:00001848       $pdata$__acrt_lowio_ensure_fh_exists$fin$0 0000000180036848     libucrt:osfinfo.obj
 0004:00001854       $pdata$__acrt_uninitialize_lowio 0000000180036854     libucrt:ioinit.obj
 0004:00001860       $pdata$?initialize_inherited_file_handles_nolock@@YAXXZ 0000000180036860     libucrt:ioinit.obj
 0004:0000186c       $pdata$?initialize_stdio_handles_nolock@@YAXXZ 000000018003686c     libucrt:ioinit.obj
 0004:00001878       $pdata$__acrt_initialize_locks 0000000180036878     libucrt:locks.obj
 0004:00001884       $pdata$__acrt_uninitialize_locks 0000000180036884     libucrt:locks.obj
 0004:00001890       $pdata$__acrt_get_process_end_policy 0000000180036890     libucrt:win_policies.obj
 0004:0000189c       $pdata$??$__acrt_mbs_to_wcs_cp@U__crt_win32_buffer_internal_dynamic_resizing@@@@YAHQEBDAEAV?$__crt_win32_buffer@_WU__crt_win32_buffer_internal_dynamic_resizing@@@@I@Z 000000018003689c     libucrt:argv_wildcards.obj
 0004:000018a8       $pdata$??$__acrt_wcs_to_mbs_cp@U__crt_win32_buffer_internal_dynamic_resizing@@@@YAHQEB_WAEAV?$__crt_win32_buffer@DU__crt_win32_buffer_internal_dynamic_resizing@@@@I@Z 00000001800368a8     libucrt:argv_wildcards.obj
 0004:000018b4       $pdata$??$common_expand_argv_wildcards@D@@YAHQEAPEADQEAPEAPEAD@Z 00000001800368b4     libucrt:argv_wildcards.obj
 0004:000018c0       $pdata$??$copy_and_add_argument_to_buffer@D@@YAHQEBD0_KAEAV?$argument_list@D@?A0x5f5c8891@@@Z 00000001800368c0     libucrt:argv_wildcards.obj
 0004:000018cc       $pdata$??$expand_argument_wildcards@D@@YAHQEAD0AEAV?$argument_list@D@?A0x5f5c8891@@@Z 00000001800368cc     libucrt:argv_wildcards.obj
 0004:000018d8       $pdata$__acrt_GetModuleFileNameA 00000001800368d8     libucrt:getmodulefilenamea.obj
 0004:000018e4       $pdata$??$__acrt_wcs_to_mbs_cp@U__crt_win32_buffer_no_resizing@@@@YAHQEB_WAEAV?$__crt_win32_buffer@DU__crt_win32_buffer_no_resizing@@@@I@Z 00000001800368e4     libucrt:getmodulefilenamea.obj
 0004:000018f0       $pdata$__acrt_update_thread_multibyte_data 00000001800368f0     libucrt:mbctype.obj
 0004:000018fc       $pdata$__acrt_initialize_multibyte 00000001800368fc     libucrt:mbctype.obj
 0004:00001908       $pdata$_setmbcp_nolock     0000000180036908     libucrt:mbctype.obj
 0004:00001914       $pdata$?getSystemCP@@YAHH@Z 0000000180036914     libucrt:mbctype.obj
 0004:00001920       $pdata$?setSBCS@@YAXPEAU__crt_multibyte_data@@@Z 0000000180036920     libucrt:mbctype.obj
 0004:0000192c       $pdata$?update_thread_multibyte_data_internal@@YAPEAU__crt_multibyte_data@@QEAU__acrt_ptd@@QEAPEAU1@@Z 000000018003692c     libucrt:mbctype.obj
 0004:00001938       $pdata$?fin$0@?0??update_thread_multibyte_data_internal@@YAPEAU__crt_multibyte_data@@QEAU__acrt_ptd@@QEAPEAU1@@Z@4HA 0000000180036938     libucrt:mbctype.obj
 0004:00001944       $pdata$?setmbcp_internal@@YAHH_NQEAU__acrt_ptd@@QEAPEAU__crt_multibyte_data@@@Z 0000000180036944     libucrt:mbctype.obj
 0004:00001950       $pdata$?setSBUpLow@@YAXPEAU__crt_multibyte_data@@@Z 0000000180036950     libucrt:mbctype.obj
 0004:0000195c       $pdata$??$?RV<lambda_efdfa57d1f175319df784efa44bb7b81>@@AEAV<lambda_5f0a4c1567f8adc6734073e5d1e1b35c>@@V<lambda_2e8a7d3640ea6ccb4c2413664c2db6fd>@@@?$__crt_seh_guarded_call@X@@QEAAX$$QEAV<lambda_efdfa57d1f175319df784efa44bb7b81>@@AEAV<lambda_5f0a4c1567f8adc6734073e5d1e1b35c>@@$$QEAV<lambda_2e8a7d3640ea6ccb4c2413664c2db6fd>@@@Z 000000018003695c     libucrt:mbctype.obj
 0004:00001968       $pdata$?x_ismbbtype_l@@YAHPEAU__crt_locale_pointers@@IHH@Z 0000000180036968     libucrt:ismbbyte.obj
 0004:00001974       $pdata$__acrt_initialize_command_line 0000000180036974     libucrt:argv_data.obj
 0004:00001980       $pdata$__acrt_WideCharToMultiByte 0000000180036980     libucrt:widechartomultibyte.obj
 0004:0000198c       $pdata$__dcrt_get_narrow_environment_from_os 000000018003698c     libucrt:get_environment_from_os.obj
 0004:00001998       $pdata$__acrt_initialize_heap 0000000180036998     libucrt:heap_handle.obj
 0004:000019a4       $pdata$__acrt_execute_initializers 00000001800369a4     libucrt:shared_initialization.obj
 0004:000019b0       $pdata$__acrt_execute_uninitializers 00000001800369b0     libucrt:shared_initialization.obj
 0004:000019bc       $pdata$__acrt_get_sigabrt_handler 00000001800369bc     libucrt:signal.obj
 0004:000019c8       $pdata$raise               00000001800369c8     libucrt:signal.obj
 0004:000019d4       $pdata$raise$fin$0         00000001800369d4     libucrt:signal.obj
 0004:000019e0       $pdata$??$?RV<lambda_450d765d439847d4c735a33c368b5fc0>@@AEAV<lambda_44731a7d0e6d81c3e6aa82d741081786>@@V<lambda_601a2a7da3b7a96e9554ac7215c4b07c>@@@?$__crt_seh_guarded_call@P6AXH@Z@@QEAAP6AXH@Z$$QEAV<lambda_450d765d439847d4c735a33c368b5fc0>@@AEAV<lambda_44731a7d0e6d81c3e6aa82d741081786>@@$$QEAV<lambda_601a2a7da3b7a96e9554ac7215c4b07c>@@@Z 00000001800369e0     libucrt:signal.obj
 0004:000019ec       $pdata$_fflush_nolock      00000001800369ec     libucrt:fflush.obj
 0004:000019f8       $pdata$__acrt_stdio_flush_nolock 00000001800369f8     libucrt:fflush.obj
 0004:00001a04       $pdata$?common_flush_all@@YAH_N@Z 0000000180036a04     libucrt:fflush.obj
 0004:00001a10       $pdata$??$?RV<lambda_842d9ff0dc9ef11c61343bbaebe7f885>@@AEAV<lambda_c5860995281e5c4ce005b3de8f5874ee>@@V<lambda_d90129c13df834fdcbf8d2b88dafcf2d>@@@?$__crt_seh_guarded_call@X@@QEAAX$$QEAV<lambda_842d9ff0dc9ef11c61343bbaebe7f885>@@AEAV<lambda_c5860995281e5c4ce005b3de8f5874ee>@@$$QEAV<lambda_d90129c13df834fdcbf8d2b88dafcf2d>@@@Z 0000000180036a10     libucrt:fflush.obj
 0004:00001a1c       $pdata$?fin$0@?0???$?RV<lambda_842d9ff0dc9ef11c61343bbaebe7f885>@@AEAV<lambda_c5860995281e5c4ce005b3de8f5874ee>@@V<lambda_d90129c13df834fdcbf8d2b88dafcf2d>@@@?$__crt_seh_guarded_call@X@@QEAAX$$QEAV<lambda_842d9ff0dc9ef11c61343bbaebe7f885>@@AEAV<lambda_c5860995281e5c4ce005b3de8f5874ee>@@$$QEAV<lambda_d90129c13df834fdcbf8d2b88dafcf2d>@@@Z@4HA 0000000180036a1c     libucrt:fflush.obj
 0004:00001a28       $pdata$??$?RV<lambda_886d6c58226a84441f68b9f2b8217b83>@@AEAV<lambda_ab61a845afdef5b7c387490eaf3616ee>@@V<lambda_f7f22ab5edc0698d5f6905b0d3f44752>@@@?$__crt_seh_guarded_call@X@@QEAAX$$QEAV<lambda_886d6c58226a84441f68b9f2b8217b83>@@AEAV<lambda_ab61a845afdef5b7c387490eaf3616ee>@@$$QEAV<lambda_f7f22ab5edc0698d5f6905b0d3f44752>@@@Z 0000000180036a28     libucrt:fflush.obj
 0004:00001a34       $pdata$?fin$0@?0???$?RV<lambda_886d6c58226a84441f68b9f2b8217b83>@@AEAV<lambda_ab61a845afdef5b7c387490eaf3616ee>@@V<lambda_f7f22ab5edc0698d5f6905b0d3f44752>@@@?$__crt_seh_guarded_call@X@@QEAAX$$QEAV<lambda_886d6c58226a84441f68b9f2b8217b83>@@AEAV<lambda_ab61a845afdef5b7c387490eaf3616ee>@@$$QEAV<lambda_f7f22ab5edc0698d5f6905b0d3f44752>@@@Z@4HA 0000000180036a34     libucrt:fflush.obj
 0004:00001a40       $pdata$__pctype_func       0000000180036a40     libucrt:ctype.obj
 0004:00001a4c       $pdata$iswctype            0000000180036a4c     libucrt:iswctype.obj
 0004:00001a58       $pdata$__acrt_release_locale_ref 0000000180036a58     libucrt:locale_refcounting.obj
 0004:00001a64       $pdata$__acrt_free_locale  0000000180036a64     libucrt:locale_refcounting.obj
 0004:00001a70       $pdata$__acrt_locale_free_lc_time_if_unreferenced 0000000180036a70     libucrt:locale_refcounting.obj
 0004:00001a7c       $pdata$__acrt_update_thread_locale_data 0000000180036a7c     libucrt:locale_refcounting.obj
 0004:00001a88       $pdata$__acrt_update_thread_locale_data$fin$0 0000000180036a88     libucrt:locale_refcounting.obj
 0004:00001a94       $pdata$_updatetlocinfoEx_nolock 0000000180036a94     libucrt:locale_refcounting.obj
 0004:00001aa0       $pdata$__acrt_DownlevelLocaleNameToLCID 0000000180036aa0     libucrt:lcidtoname_downlevel.obj
 0004:00001aac       $pdata$_isleadbyte_l       0000000180036aac     libucrt:_wctype.obj
 0004:00001ab8       $pdata$?__mbrtowc_utf8@__crt_mbstring@@YA_KPEA_WPEBD_KPEAU_Mbstatet@@@Z 0000000180036ab8     libucrt:mbrtowc.obj
 0004:00001ac4       $pdata$?__mbsrtowcs_utf8@__crt_mbstring@@YA_KPEA_WPEAPEBD_KPEAU_Mbstatet@@@Z 0000000180036ac4     libucrt:mbrtowc.obj
 0004:00001ad0       $pdata$__acrt_fp_strflt_to_string 0000000180036ad0     libucrt:_fptostr.obj
 0004:00001adc       $pdata$memcpy_s            0000000180036adc     libucrt:cfout.obj
 0004:00001ae8       $pdata$__acrt_fltout       0000000180036ae8     libucrt:cfout.obj
 0004:00001af4       $pdata$?divide@__crt_strtox@@YA_KAEAUbig_integer@1@AEBU21@@Z 0000000180036af4     libucrt:cfout.obj
 0004:00001b00       $pdata$0$?divide@__crt_strtox@@YA_KAEAUbig_integer@1@AEBU21@@Z 0000000180036b00     libucrt:cfout.obj
 0004:00001b0c       $pdata$1$?divide@__crt_strtox@@YA_KAEAUbig_integer@1@AEBU21@@Z 0000000180036b0c     libucrt:cfout.obj
 0004:00001b18       $pdata$fegetround          0000000180036b18     libucrt:fegetround.obj
 0004:00001b24       $pdata$_fcloseall          0000000180036b24     libucrt:closeall.obj
 0004:00001b30       $pdata$_fcloseall$fin$0    0000000180036b30     libucrt:closeall.obj
 0004:00001b3c       $pdata$__acrt_stdio_free_buffer_nolock 0000000180036b3c     libucrt:_freebuf.obj
 0004:00001b48       $pdata$_isatty             0000000180036b48     libucrt:isatty.obj
 0004:00001b54       $pdata$__acrt_locale_free_monetary 0000000180036b54     libucrt:initmon.obj
 0004:00001b60       $pdata$__acrt_locale_free_numeric 0000000180036b60     libucrt:initnum.obj
 0004:00001b6c       $pdata$__acrt_locale_free_time 0000000180036b6c     libucrt:inittime.obj
 0004:00001b78       $pdata$?free_crt_array_internal@@YAXQEAPEBX_K@Z 0000000180036b78     libucrt:inittime.obj
 0004:00001b84       $pdata$__acrt_GetStringTypeA 0000000180036b84     libucrt:getstringtypea.obj
 0004:00001b90       $pdata$_get_osfhandle      0000000180036b90     libucrt:osfinfo.obj
 0004:00001b9c       $pdata$_free_osfhnd        0000000180036b9c     libucrt:osfinfo.obj
 0004:00001ba8       $pdata$__acrt_lowio_create_handle_array 0000000180036ba8     libucrt:osfinfo.obj
 0004:00001bb4       $pdata$__acrt_lowio_destroy_handle_array 0000000180036bb4     libucrt:osfinfo.obj
 0004:00001bc0       $pdata$__acrt_lowio_ensure_fh_exists 0000000180036bc0     libucrt:osfinfo.obj
 0004:00001bcc       $pdata$qsort               0000000180036bcc     libucrt:qsort.obj
 0004:00001bd8       $pdata$4$qsort             0000000180036bd8     libucrt:qsort.obj
 0004:00001be4       $pdata$5$qsort             0000000180036be4     libucrt:qsort.obj
 0004:00001bf0       $pdata$strncpy_s           0000000180036bf0     libucrt:strncpy_s.obj
 0004:00001bfc       $pdata$strpbrk             0000000180036bfc     libucrt:strpbrk.obj
 0004:00001c08       $pdata$fallbackMethod      0000000180036c08     libucrt:strpbrk.obj
 0004:00001c14       $pdata$_mbsdec_l           0000000180036c14     libucrt:mbsdec.obj
 0004:00001c20       $pdata$__acrt_LCMapStringA 0000000180036c20     libucrt:lcmapstringa.obj
 0004:00001c2c       $pdata$?__acrt_LCMapStringA_stat@@YAHPEAU__crt_locale_pointers@@PEB_WKPEBDHPEADHHH@Z 0000000180036c2c     libucrt:lcmapstringa.obj
 0004:00001c38       $pdata$?initialize_multibyte@@YAHXZ 0000000180036c38     libucrt:multibyte_initializer.obj
 0004:00001c44       $pdata$_commit             0000000180036c44     libucrt:commit.obj
 0004:00001c50       $pdata$??$?RV<lambda_a37b2b86f63e897a80ea819b0eb08c01>@@AEAV<lambda_38ce7e780aa69e748d6df282ebc68efe>@@V<lambda_99fb1378e971ab6e7edea83e3a7a83a2>@@@?$__crt_seh_guarded_call@H@@QEAAH$$QEAV<lambda_a37b2b86f63e897a80ea819b0eb08c01>@@AEAV<lambda_38ce7e780aa69e748d6df282ebc68efe>@@$$QEAV<lambda_99fb1378e971ab6e7edea83e3a7a83a2>@@@Z 0000000180036c50     libucrt:commit.obj
 0004:00001c5c       $pdata$?fin$0@?0???$?RV<lambda_751a882b2c74d4b022dec766aa51a29a>@@AEAV<lambda_628dfdc04ba53c8bfc02c9951375f3f5>@@V<lambda_f6c7be5f7998530c34de24c7437d6b54>@@@?$__crt_seh_guarded_call@H@@QEAAH$$QEAV<lambda_751a882b2c74d4b022dec766aa51a29a>@@AEAV<lambda_628dfdc04ba53c8bfc02c9951375f3f5>@@$$QEAV<lambda_f6c7be5f7998530c34de24c7437d6b54>@@@Z@4HA 0000000180036c5c     libucrt:close.obj
 0004:00001c5c       $pdata$?fin$0@?0???$?RV<lambda_a37b2b86f63e897a80ea819b0eb08c01>@@AEAV<lambda_38ce7e780aa69e748d6df282ebc68efe>@@V<lambda_99fb1378e971ab6e7edea83e3a7a83a2>@@@?$__crt_seh_guarded_call@H@@QEAAH$$QEAV<lambda_a37b2b86f63e897a80ea819b0eb08c01>@@AEAV<lambda_38ce7e780aa69e748d6df282ebc68efe>@@$$QEAV<lambda_99fb1378e971ab6e7edea83e3a7a83a2>@@@Z@4HA 0000000180036c5c     libucrt:commit.obj
 0004:00001c68       $pdata$_write              0000000180036c68     libucrt:write.obj
 0004:00001c74       $pdata$_write$fin$0        0000000180036c74     libucrt:write.obj
 0004:00001c80       $pdata$_write_nolock       0000000180036c80     libucrt:write.obj
 0004:00001c8c       $pdata$?write_double_translated_ansi_nolock@@YA?AUwrite_result@?A0x17268360@@HQEBDI@Z 0000000180036c8c     libucrt:write.obj
 0004:00001c98       $pdata$?write_text_ansi_nolock@@YA?AUwrite_result@?A0x17268360@@HQEBDI@Z 0000000180036c98     libucrt:write.obj
 0004:00001ca4       $pdata$?write_text_utf16le_nolock@@YA?AUwrite_result@?A0x17268360@@HQEBDI@Z 0000000180036ca4     libucrt:write.obj
 0004:00001cb0       $pdata$?write_text_utf8_nolock@@YA?AUwrite_result@?A0x17268360@@HQEBDI@Z 0000000180036cb0     libucrt:write.obj
 0004:00001cbc       $pdata$?__mbrtoc32_utf8@__crt_mbstring@@YA_KPEA_UPEBD_KPEAU_Mbstatet@@@Z 0000000180036cbc     libucrt:mbrtoc32.obj
 0004:00001cc8       $pdata$_controlfp_s        0000000180036cc8     libucrt:contrlfp.obj
 0004:00001cd4       $pdata$fegetenv            0000000180036cd4     libucrt:fegetenv.obj
 0004:00001ce0       $pdata$fesetenv            0000000180036ce0     libucrt:fesetenv.obj
 0004:00001cec       $pdata$feholdexcept        0000000180036cec     libucrt:feholdexcept.obj
 0004:00001d04       $pdata$__acrt_fenv_set_control 0000000180036d04     libucrt:_fenvutils.obj
 0004:00001d10       $pdata$??$common_lseek_nolock@_J@@YA_JH_JH@Z 0000000180036d10     libucrt:lseek.obj
 0004:00001d1c       $pdata$fclose              0000000180036d1c     libucrt:fclose.obj
 0004:00001d28       $pdata$fclose$fin$0        0000000180036d28     libucrt:fclose.obj
 0004:00001d34       $pdata$_fclose_nolock      0000000180036d34     libucrt:fclose.obj
 0004:00001d40       $pdata$_putwch_nolock      0000000180036d40     libucrt:putwch.obj
 0004:00001d4c       $pdata$_clearfp            0000000180036d4c     libucrt:ieee.obj
 0004:00001d58       $pdata$common_control87    0000000180036d58     libucrt:ieee.obj
 0004:00001d64       $pdata$_ctrlfp$filt$0      0000000180036d64     libucrt:fpctrl.obj
 0004:00001d64       $pdata$common_control87$filt$0 0000000180036d64     libucrt:ieee.obj
 0004:00001d70       $pdata$_call_matherr       0000000180036d70     libucrt:libm_error.obj
 0004:00001d7c       $pdata$_exception_enabled  0000000180036d7c     libucrt:libm_error.obj
 0004:00001d88       $pdata$_handle_error       0000000180036d88     libucrt:libm_error.obj
 0004:00001d94       $pdata$__acrt_initialize_fma3 0000000180036d94     libucrt:fma3_available.obj
 0004:00001da0       $pdata$_log_special_common 0000000180036da0     libucrt:log_special.obj
 0004:00001dac       $pdata$_log10_special      0000000180036dac     libucrt:log_special.obj
 0004:00001db8       $pdata$_close              0000000180036db8     libucrt:close.obj
 0004:00001dc4       $pdata$_close_nolock       0000000180036dc4     libucrt:close.obj
 0004:00001dd0       $pdata$??$?RV<lambda_751a882b2c74d4b022dec766aa51a29a>@@AEAV<lambda_628dfdc04ba53c8bfc02c9951375f3f5>@@V<lambda_f6c7be5f7998530c34de24c7437d6b54>@@@?$__crt_seh_guarded_call@H@@QEAAH$$QEAV<lambda_751a882b2c74d4b022dec766aa51a29a>@@AEAV<lambda_628dfdc04ba53c8bfc02c9951375f3f5>@@$$QEAV<lambda_f6c7be5f7998530c34de24c7437d6b54>@@@Z 0000000180036dd0     libucrt:close.obj
 0004:00001ddc       $pdata$__dcrt_lowio_ensure_console_output_initialized 0000000180036ddc     libucrt:initcon.obj
 0004:00001de8       $pdata$__dcrt_write_console 0000000180036de8     libucrt:initcon.obj
 0004:00001df4       $pdata$__dcrt_terminate_console_output 0000000180036df4     libucrt:initcon.obj
 0004:00001e0c       $pdata$_set_errno_from_matherr 0000000180036e0c     libucrt:fpexcept.obj
 0004:00001e18       $pdata$_raise_exc          0000000180036e18     libucrt:fpexcept.obj
 0004:00001e24       $pdata$_raise_exc_ex       0000000180036e24     libucrt:fpexcept.obj
 0004:00001e30       $pdata$_clrfp              0000000180036e30     libucrt:fpctrl.obj
 0004:00001e3c       $pdata$_ctrlfp             0000000180036e3c     libucrt:fpctrl.obj
 0004:00001e48       $pdata$_statfp             0000000180036e48     libucrt:fpctrl.obj
 0004:00001e54       $pdata$_set_statfp         0000000180036e54     libucrt:fpctrl.obj
 0004:00001e60       $pdata$_IsNonwritableInCurrentImage 0000000180036e60     LIBCMT:pesect.obj
 0004:00001e6c       $pdata$_IsNonwritableInCurrentImage$filt$0 0000000180036e6c     LIBCMT:pesect.obj
 0005:00000000       MoveSmall                  0000000180037000     libvcruntime:memcpy.obj
 0005:00000050       MsetTab                    0000000180037050     libvcruntime:memset.obj
 0006:00000220       $R000000                   0000000180038220     SigCap.res
 0006:00000ba0       $R000980                   0000000180038ba0     SigCap.res
 0006:00000c88       $R000A68                   0000000180038c88     SigCap.res
 0006:00000ef0       $R000CD0                   0000000180038ef0     SigCap.res
 0006:00001438       $R001218                   0000000180039438     SigCap.res
 0006:00003fe8       $R003DC8                   000000018003bfe8     SigCap.res
 0006:00004018       $R003DF8                   000000018003c018     SigCap.res
